{
 "array_types" :
 [
  {
   "alignment" : 1,
   "linker_set_key" : "_ZTIA32_h",
   "name" : "unsigned char [32]",
   "referenced_type" : "_ZTIh",
   "self_type" : "_ZTIA32_h",
   "size" : 32,
   "source_file" : "hardware/interfaces/confirmationui/support/include/android/hardware/confirmationui/support/confirmationui_utils.h"
  }
 ],
 "builtin_types" :
 [
  {
   "alignment" : 1,
   "is_integral" : true,
   "is_unsigned" : true,
   "linker_set_key" : "_ZTIb",
   "name" : "bool",
   "referenced_type" : "_ZTIb",
   "self_type" : "_ZTIb",
   "size" : 1
  },
  {
   "alignment" : 1,
   "is_integral" : true,
   "is_unsigned" : true,
   "linker_set_key" : "_ZTIh",
   "name" : "unsigned char",
   "referenced_type" : "_ZTIh",
   "self_type" : "_ZTIh",
   "size" : 1
  },
  {
   "alignment" : 4,
   "is_integral" : true,
   "is_unsigned" : true,
   "linker_set_key" : "_ZTIj",
   "name" : "unsigned int",
   "referenced_type" : "_ZTIj",
   "self_type" : "_ZTIj",
   "size" : 4
  },
  {
   "linker_set_key" : "_ZTIv",
   "name" : "void",
   "referenced_type" : "_ZTIv",
   "self_type" : "_ZTIv"
  }
 ],
 "elf_functions" : [],
 "elf_objects" : [],
 "enum_types" : [],
 "function_types" : [],
 "functions" :
 [
  {
   "function_name" : "android::hardware::confirmationui::support::ByteBufferProxy::ByteBufferProxy",
   "linker_set_key" : "_ZN7android8hardware14confirmationui7support15ByteBufferProxyC1Ev",
   "parameters" :
   [
    {
     "is_this_ptr" : true,
     "referenced_type" : "_ZTIPN7android8hardware14confirmationui7support15ByteBufferProxyE"
    }
   ],
   "return_type" : "_ZTIv",
   "source_file" : "hardware/interfaces/confirmationui/support/include/android/hardware/confirmationui/support/confirmationui_utils.h"
  },
  {
   "function_name" : "android::hardware::confirmationui::support::ByteBufferProxy::ByteBufferProxy",
   "linker_set_key" : "_ZN7android8hardware14confirmationui7support15ByteBufferProxyC2Ev",
   "parameters" :
   [
    {
     "is_this_ptr" : true,
     "referenced_type" : "_ZTIPN7android8hardware14confirmationui7support15ByteBufferProxyE"
    }
   ],
   "return_type" : "_ZTIv",
   "source_file" : "hardware/interfaces/confirmationui/support/include/android/hardware/confirmationui/support/confirmationui_utils.h"
  },
  {
   "function_name" : "android::hardware::confirmationui::support::operator==",
   "linker_set_key" : "_ZN7android8hardware14confirmationui7supporteqERKNS2_15ByteBufferProxyES5_",
   "parameters" :
   [
    {
     "referenced_type" : "_ZTIRKN7android8hardware14confirmationui7support15ByteBufferProxyE"
    },
    {
     "referenced_type" : "_ZTIRKN7android8hardware14confirmationui7support15ByteBufferProxyE"
    }
   ],
   "return_type" : "_ZTIb",
   "source_file" : "hardware/interfaces/confirmationui/support/include/android/hardware/confirmationui/support/confirmationui_utils.h"
  },
  {
   "function_name" : "android::hardware::confirmationui::support::ByteBufferProxy::end",
   "linker_set_key" : "_ZNK7android8hardware14confirmationui7support15ByteBufferProxy3endEv",
   "parameters" :
   [
    {
     "is_this_ptr" : true,
     "referenced_type" : "_ZTIPKN7android8hardware14confirmationui7support15ByteBufferProxyE"
    }
   ],
   "return_type" : "_ZTIPKh",
   "source_file" : "hardware/interfaces/confirmationui/support/include/android/hardware/confirmationui/support/confirmationui_utils.h"
  },
  {
   "function_name" : "android::hardware::confirmationui::support::ByteBufferProxy::data",
   "linker_set_key" : "_ZNK7android8hardware14confirmationui7support15ByteBufferProxy4dataEv",
   "parameters" :
   [
    {
     "is_this_ptr" : true,
     "referenced_type" : "_ZTIPKN7android8hardware14confirmationui7support15ByteBufferProxyE"
    }
   ],
   "return_type" : "_ZTIPKh",
   "source_file" : "hardware/interfaces/confirmationui/support/include/android/hardware/confirmationui/support/confirmationui_utils.h"
  },
  {
   "function_name" : "android::hardware::confirmationui::support::ByteBufferProxy::size",
   "linker_set_key" : "_ZNK7android8hardware14confirmationui7support15ByteBufferProxy4sizeEv",
   "parameters" :
   [
    {
     "is_this_ptr" : true,
     "referenced_type" : "_ZTIPKN7android8hardware14confirmationui7support15ByteBufferProxyE"
    }
   ],
   "return_type" : "_ZTIj",
   "source_file" : "hardware/interfaces/confirmationui/support/include/android/hardware/confirmationui/support/confirmationui_utils.h"
  },
  {
   "function_name" : "android::hardware::confirmationui::support::ByteBufferProxy::begin",
   "linker_set_key" : "_ZNK7android8hardware14confirmationui7support15ByteBufferProxy5beginEv",
   "parameters" :
   [
    {
     "is_this_ptr" : true,
     "referenced_type" : "_ZTIPKN7android8hardware14confirmationui7support15ByteBufferProxyE"
    }
   ],
   "return_type" : "_ZTIPKh",
   "source_file" : "hardware/interfaces/confirmationui/support/include/android/hardware/confirmationui/support/confirmationui_utils.h"
  }
 ],
 "global_vars" :
 [
  {
   "linker_set_key" : "_ZN7android8hardware14confirmationui7support15ByteBufferProxy8has_data5valueE",
   "name" : "android::hardware::confirmationui::support::ByteBufferProxy::has_data::value",
   "referenced_type" : "_ZTIKb",
   "source_file" : "hardware/interfaces/confirmationui/support/include/android/hardware/confirmationui/support/confirmationui_utils.h"
  },
  {
   "linker_set_key" : "_ZN7android8hardware14confirmationui7supportL15hmac_size_bytesE",
   "name" : "android::hardware::confirmationui::support::hmac_size_bytes",
   "referenced_type" : "_ZTIKh",
   "source_file" : "hardware/interfaces/confirmationui/support/include/android/hardware/confirmationui/support/confirmationui_utils.h"
  },
  {
   "linker_set_key" : "_ZN7android8hardware14confirmationui7supportL19auth_token_key_sizeE",
   "name" : "android::hardware::confirmationui::support::auth_token_key_size",
   "referenced_type" : "_ZTIKh",
   "source_file" : "hardware/interfaces/confirmationui/support/include/android/hardware/confirmationui/support/confirmationui_utils.h"
  }
 ],
 "lvalue_reference_types" :
 [
  {
   "alignment" : 4,
   "linker_set_key" : "_ZTIRKN7android8hardware14confirmationui7support15ByteBufferProxyE",
   "name" : "const android::hardware::confirmationui::support::ByteBufferProxy &",
   "referenced_type" : "_ZTIKN7android8hardware14confirmationui7support15ByteBufferProxyE",
   "self_type" : "_ZTIRKN7android8hardware14confirmationui7support15ByteBufferProxyE",
   "size" : 4,
   "source_file" : "hardware/interfaces/confirmationui/support/include/android/hardware/confirmationui/support/confirmationui_utils.h"
  }
 ],
 "pointer_types" :
 [
  {
   "alignment" : 4,
   "linker_set_key" : "_ZTIPKN7android8hardware14confirmationui7support15ByteBufferProxyE",
   "name" : "const android::hardware::confirmationui::support::ByteBufferProxy *",
   "referenced_type" : "_ZTIKN7android8hardware14confirmationui7support15ByteBufferProxyE",
   "self_type" : "_ZTIPKN7android8hardware14confirmationui7support15ByteBufferProxyE",
   "size" : 4,
   "source_file" : "hardware/interfaces/confirmationui/support/include/android/hardware/confirmationui/support/confirmationui_utils.h"
  },
  {
   "alignment" : 4,
   "linker_set_key" : "_ZTIPKh",
   "name" : "const unsigned char *",
   "referenced_type" : "_ZTIKh",
   "self_type" : "_ZTIPKh",
   "size" : 4,
   "source_file" : "hardware/interfaces/confirmationui/support/include/android/hardware/confirmationui/support/confirmationui_utils.h"
  },
  {
   "alignment" : 4,
   "linker_set_key" : "_ZTIPN7android8hardware14confirmationui7support15ByteBufferProxyE",
   "name" : "android::hardware::confirmationui::support::ByteBufferProxy *",
   "referenced_type" : "_ZTIN7android8hardware14confirmationui7support15ByteBufferProxyE",
   "self_type" : "_ZTIPN7android8hardware14confirmationui7support15ByteBufferProxyE",
   "size" : 4,
   "source_file" : "hardware/interfaces/confirmationui/support/include/android/hardware/confirmationui/support/confirmationui_utils.h"
  }
 ],
 "qualified_types" :
 [
  {
   "alignment" : 4,
   "is_const" : true,
   "linker_set_key" : "_ZTIKN7android8hardware14confirmationui7support15ByteBufferProxyE",
   "name" : "const android::hardware::confirmationui::support::ByteBufferProxy",
   "referenced_type" : "_ZTIN7android8hardware14confirmationui7support15ByteBufferProxyE",
   "self_type" : "_ZTIKN7android8hardware14confirmationui7support15ByteBufferProxyE",
   "size" : 8,
   "source_file" : "hardware/interfaces/confirmationui/support/include/android/hardware/confirmationui/support/confirmationui_utils.h"
  },
  {
   "alignment" : 1,
   "is_const" : true,
   "linker_set_key" : "_ZTIKb",
   "name" : "const bool",
   "referenced_type" : "_ZTIb",
   "self_type" : "_ZTIKb",
   "size" : 1,
   "source_file" : "hardware/interfaces/confirmationui/support/include/android/hardware/confirmationui/support/confirmationui_utils.h"
  },
  {
   "alignment" : 1,
   "is_const" : true,
   "linker_set_key" : "_ZTIKh",
   "name" : "const unsigned char",
   "referenced_type" : "_ZTIh",
   "self_type" : "_ZTIKh",
   "size" : 1,
   "source_file" : "hardware/interfaces/confirmationui/support/include/android/hardware/confirmationui/support/confirmationui_utils.h"
  }
 ],
 "record_types" :
 [
  {
   "alignment" : 4,
   "fields" :
   [
    {
     "access" : "private",
     "field_name" : "data_",
     "referenced_type" : "_ZTIPKh"
    },
    {
     "access" : "private",
     "field_name" : "size_",
     "field_offset" : 32,
     "referenced_type" : "_ZTIj"
    }
   ],
   "linker_set_key" : "_ZTIN7android8hardware14confirmationui7support15ByteBufferProxyE",
   "name" : "android::hardware::confirmationui::support::ByteBufferProxy",
   "record_kind" : "class",
   "referenced_type" : "_ZTIN7android8hardware14confirmationui7support15ByteBufferProxyE",
   "self_type" : "_ZTIN7android8hardware14confirmationui7support15ByteBufferProxyE",
   "size" : 8,
   "source_file" : "hardware/interfaces/confirmationui/support/include/android/hardware/confirmationui/support/confirmationui_utils.h"
  },
  {
   "alignment" : 1,
   "fields" :
   [
    {
     "access" : "private",
     "field_name" : "data_",
     "referenced_type" : "_ZTIA32_h"
    }
   ],
   "linker_set_key" : "_ZTIN7android8hardware14confirmationui7support5arrayIhLj32EEE",
   "name" : "android::hardware::confirmationui::support::array<unsigned char, 32>",
   "record_kind" : "class",
   "referenced_type" : "_ZTIN7android8hardware14confirmationui7support5arrayIhLj32EEE",
   "self_type" : "_ZTIN7android8hardware14confirmationui7support5arrayIhLj32EEE",
   "size" : 32,
   "source_file" : "hardware/interfaces/confirmationui/support/include/android/hardware/confirmationui/support/confirmationui_utils.h",
   "template_args" : [ "_ZTIh" ]
  },
  {
   "alignment" : 1,
   "fields" :
   [
    {
     "access" : "private",
     "field_name" : "value_",
     "referenced_type" : "_ZTIN7android8hardware14confirmationui7support5arrayIhLj32EEE"
    },
    {
     "access" : "private",
     "field_name" : "null_",
     "field_offset" : 256,
     "referenced_type" : "_ZTIb"
    }
   ],
   "linker_set_key" : "_ZTIN7android8hardware14confirmationui7support6NullOrINS2_5arrayIhLj32EEEEE",
   "name" : "android::hardware::confirmationui::support::NullOr<android::hardware::confirmationui::support::array<unsigned char, 32>>",
   "record_kind" : "class",
   "referenced_type" : "_ZTIN7android8hardware14confirmationui7support6NullOrINS2_5arrayIhLj32EEEEE",
   "self_type" : "_ZTIN7android8hardware14confirmationui7support6NullOrINS2_5arrayIhLj32EEEEE",
   "size" : 33,
   "source_file" : "hardware/interfaces/confirmationui/support/include/android/hardware/confirmationui/support/confirmationui_utils.h",
   "template_args" : [ "_ZTIN7android8hardware14confirmationui7support5arrayIhLj32EEE" ]
  }
 ],
 "rvalue_reference_types" : []
}
