{
 "array_types" : [],
 "builtin_types" :
 [
  {
   "alignment" : 4,
   "linker_set_key" : "_ZTIDn",
   "name" : "nullptr_t",
   "referenced_type" : "_ZTIDn",
   "self_type" : "_ZTIDn",
   "size" : 4
  },
  {
   "alignment" : 1,
   "is_integral" : true,
   "is_unsigned" : true,
   "linker_set_key" : "_ZTIb",
   "name" : "bool",
   "referenced_type" : "_ZTIb",
   "self_type" : "_ZTIb",
   "size" : 1
  },
  {
   "alignment" : 1,
   "is_integral" : true,
   "is_unsigned" : true,
   "linker_set_key" : "_ZTIc",
   "name" : "char",
   "referenced_type" : "_ZTIc",
   "self_type" : "_ZTIc",
   "size" : 1
  },
  {
   "alignment" : 8,
   "linker_set_key" : "_ZTId",
   "name" : "double",
   "referenced_type" : "_ZTId",
   "self_type" : "_ZTId",
   "size" : 8
  },
  {
   "alignment" : 4,
   "is_integral" : true,
   "linker_set_key" : "_ZTIi",
   "name" : "int",
   "referenced_type" : "_ZTIi",
   "self_type" : "_ZTIi",
   "size" : 4
  },
  {
   "alignment" : 4,
   "is_integral" : true,
   "is_unsigned" : true,
   "linker_set_key" : "_ZTIj",
   "name" : "unsigned int",
   "referenced_type" : "_ZTIj",
   "self_type" : "_ZTIj",
   "size" : 4
  },
  {
   "linker_set_key" : "_ZTIv",
   "name" : "void",
   "referenced_type" : "_ZTIv",
   "self_type" : "_ZTIv"
  },
  {
   "alignment" : 8,
   "is_integral" : true,
   "linker_set_key" : "_ZTIx",
   "name" : "long long",
   "referenced_type" : "_ZTIx",
   "self_type" : "_ZTIx",
   "size" : 8
  }
 ],
 "elf_functions" :
 [
  {
   "binding" : "weak",
   "name" : "_ZN3ndk12BnCInterfaceIN4aidl7android8hardware4gnss13IGnssCallbackEE8asBinderEv"
  },
  {
   "binding" : "weak",
   "name" : "_ZN3ndk12BnCInterfaceIN4aidl7android8hardware4gnss17IGnssPsdsCallbackEE8asBinderEv"
  },
  {
   "binding" : "weak",
   "name" : "_ZN3ndk12BnCInterfaceIN4aidl7android8hardware4gnss18IGnssConfigurationEE8asBinderEv"
  },
  {
   "binding" : "weak",
   "name" : "_ZN3ndk12BnCInterfaceIN4aidl7android8hardware4gnss20IGnssPowerIndicationEE8asBinderEv"
  },
  {
   "binding" : "weak",
   "name" : "_ZN3ndk12BnCInterfaceIN4aidl7android8hardware4gnss24IGnssMeasurementCallbackEE8asBinderEv"
  },
  {
   "binding" : "weak",
   "name" : "_ZN3ndk12BnCInterfaceIN4aidl7android8hardware4gnss25IGnssMeasurementInterfaceEE8asBinderEv"
  },
  {
   "binding" : "weak",
   "name" : "_ZN3ndk12BnCInterfaceIN4aidl7android8hardware4gnss28IGnssPowerIndicationCallbackEE8asBinderEv"
  },
  {
   "binding" : "weak",
   "name" : "_ZN3ndk12BnCInterfaceIN4aidl7android8hardware4gnss5IGnssEE8asBinderEv"
  },
  {
   "binding" : "weak",
   "name" : "_ZN3ndk12BnCInterfaceIN4aidl7android8hardware4gnss9IGnssPsdsEE8asBinderEv"
  },
  {
   "binding" : "weak",
   "name" : "_ZN3ndk12BpCInterfaceIN4aidl7android8hardware4gnss13IGnssCallbackEE8asBinderEv"
  },
  {
   "binding" : "weak",
   "name" : "_ZN3ndk12BpCInterfaceIN4aidl7android8hardware4gnss17IGnssPsdsCallbackEE8asBinderEv"
  },
  {
   "binding" : "weak",
   "name" : "_ZN3ndk12BpCInterfaceIN4aidl7android8hardware4gnss18IGnssConfigurationEE8asBinderEv"
  },
  {
   "binding" : "weak",
   "name" : "_ZN3ndk12BpCInterfaceIN4aidl7android8hardware4gnss20IGnssPowerIndicationEE8asBinderEv"
  },
  {
   "binding" : "weak",
   "name" : "_ZN3ndk12BpCInterfaceIN4aidl7android8hardware4gnss24IGnssMeasurementCallbackEE8asBinderEv"
  },
  {
   "binding" : "weak",
   "name" : "_ZN3ndk12BpCInterfaceIN4aidl7android8hardware4gnss25IGnssMeasurementInterfaceEE8asBinderEv"
  },
  {
   "binding" : "weak",
   "name" : "_ZN3ndk12BpCInterfaceIN4aidl7android8hardware4gnss28IGnssPowerIndicationCallbackEE8asBinderEv"
  },
  {
   "binding" : "weak",
   "name" : "_ZN3ndk12BpCInterfaceIN4aidl7android8hardware4gnss5IGnssEE8asBinderEv"
  },
  {
   "binding" : "weak",
   "name" : "_ZN3ndk12BpCInterfaceIN4aidl7android8hardware4gnss9IGnssPsdsEE8asBinderEv"
  },
  {
   "binding" : "weak",
   "name" : "_ZN3ndk38AParcel_readStdVectorParcelableElementIN4aidl7android8hardware4gnss15GnssMeasurementEEEiPK7AParcelPvj"
  },
  {
   "binding" : "weak",
   "name" : "_ZN3ndk38AParcel_readStdVectorParcelableElementIN4aidl7android8hardware4gnss17BlocklistedSourceEEEiPK7AParcelPvj"
  },
  {
   "binding" : "weak",
   "name" : "_ZN3ndk38AParcel_readStdVectorParcelableElementIN4aidl7android8hardware4gnss17CorrelationVectorEEEiPK7AParcelPvj"
  },
  {
   "binding" : "weak",
   "name" : "_ZN3ndk39AParcel_writeStdVectorParcelableElementIN4aidl7android8hardware4gnss15GnssMeasurementEEEiP7AParcelPKvj"
  },
  {
   "binding" : "weak",
   "name" : "_ZN3ndk39AParcel_writeStdVectorParcelableElementIN4aidl7android8hardware4gnss17BlocklistedSourceEEEiP7AParcelPKvj"
  },
  {
   "binding" : "weak",
   "name" : "_ZN3ndk39AParcel_writeStdVectorParcelableElementIN4aidl7android8hardware4gnss17CorrelationVectorEEEiP7AParcelPKvj"
  },
  {
   "name" : "_ZN4aidl7android8hardware4gnss10BnGnssPsds12createBinderEv"
  },
  {
   "name" : "_ZN4aidl7android8hardware4gnss10BnGnssPsds16getInterfaceHashEPNSt3__112basic_stringIcNS4_11char_traitsIcEENS4_9allocatorIcEEEE"
  },
  {
   "name" : "_ZN4aidl7android8hardware4gnss10BnGnssPsds19getInterfaceVersionEPi"
  },
  {
   "name" : "_ZN4aidl7android8hardware4gnss10BnGnssPsdsC2Ev"
  },
  {
   "name" : "_ZN4aidl7android8hardware4gnss10BnGnssPsdsD0Ev"
  },
  {
   "name" : "_ZN4aidl7android8hardware4gnss10BnGnssPsdsD1Ev"
  },
  {
   "name" : "_ZN4aidl7android8hardware4gnss10BnGnssPsdsD2Ev"
  },
  {
   "name" : "_ZN4aidl7android8hardware4gnss10BpGnssPsds11setCallbackERKNSt3__110shared_ptrINS2_17IGnssPsdsCallbackEEE"
  },
  {
   "name" : "_ZN4aidl7android8hardware4gnss10BpGnssPsds14injectPsdsDataENS2_8PsdsTypeERKNSt3__16vectorIhNS5_9allocatorIhEEEE"
  },
  {
   "name" : "_ZN4aidl7android8hardware4gnss10BpGnssPsds16getInterfaceHashEPNSt3__112basic_stringIcNS4_11char_traitsIcEENS4_9allocatorIcEEEE"
  },
  {
   "name" : "_ZN4aidl7android8hardware4gnss10BpGnssPsds19getInterfaceVersionEPi"
  },
  {
   "name" : "_ZN4aidl7android8hardware4gnss10BpGnssPsdsC1ERKN3ndk10SpAIBinderE"
  },
  {
   "name" : "_ZN4aidl7android8hardware4gnss10BpGnssPsdsC2ERKN3ndk10SpAIBinderE"
  },
  {
   "name" : "_ZN4aidl7android8hardware4gnss10BpGnssPsdsD0Ev"
  },
  {
   "name" : "_ZN4aidl7android8hardware4gnss10BpGnssPsdsD1Ev"
  },
  {
   "name" : "_ZN4aidl7android8hardware4gnss10BpGnssPsdsD2Ev"
  },
  {
   "name" : "_ZN4aidl7android8hardware4gnss12IGnssDefault11setCallbackERKNSt3__110shared_ptrINS2_13IGnssCallbackEEE"
  },
  {
   "name" : "_ZN4aidl7android8hardware4gnss12IGnssDefault16getExtensionPsdsEPNSt3__110shared_ptrINS2_9IGnssPsdsEEE"
  },
  {
   "name" : "_ZN4aidl7android8hardware4gnss12IGnssDefault16getInterfaceHashEPNSt3__112basic_stringIcNS4_11char_traitsIcEENS4_9allocatorIcEEEE"
  },
  {
   "name" : "_ZN4aidl7android8hardware4gnss12IGnssDefault19getInterfaceVersionEPi"
  },
  {
   "name" : "_ZN4aidl7android8hardware4gnss12IGnssDefault27getExtensionGnssMeasurementEPNSt3__110shared_ptrINS2_25IGnssMeasurementInterfaceEEE"
  },
  {
   "name" : "_ZN4aidl7android8hardware4gnss12IGnssDefault29getExtensionGnssConfigurationEPNSt3__110shared_ptrINS2_18IGnssConfigurationEEE"
  },
  {
   "name" : "_ZN4aidl7android8hardware4gnss12IGnssDefault31getExtensionGnssPowerIndicationEPNSt3__110shared_ptrINS2_20IGnssPowerIndicationEEE"
  },
  {
   "name" : "_ZN4aidl7android8hardware4gnss12IGnssDefault5closeEv"
  },
  {
   "name" : "_ZN4aidl7android8hardware4gnss12IGnssDefault8asBinderEv"
  },
  {
   "name" : "_ZN4aidl7android8hardware4gnss12IGnssDefault8isRemoteEv"
  },
  {
   "name" : "_ZN4aidl7android8hardware4gnss12SatellitePvt14readFromParcelEPK7AParcel"
  },
  {
   "name" : "_ZN4aidl7android8hardware4gnss13IGnssCallback10fromBinderERKN3ndk10SpAIBinderE"
  },
  {
   "name" : "_ZN4aidl7android8hardware4gnss13IGnssCallback13writeToParcelEP7AParcelRKNSt3__110shared_ptrIS3_EE"
  },
  {
   "name" : "_ZN4aidl7android8hardware4gnss13IGnssCallback14getDefaultImplEv"
  },
  {
   "name" : "_ZN4aidl7android8hardware4gnss13IGnssCallback14readFromParcelEPK7AParcelPNSt3__110shared_ptrIS3_EE"
  },
  {
   "name" : "_ZN4aidl7android8hardware4gnss13IGnssCallback14setDefaultImplERKNSt3__110shared_ptrIS3_EE"
  },
  {
   "name" : "_ZN4aidl7android8hardware4gnss13IGnssCallbackC2Ev"
  },
  {
   "name" : "_ZN4aidl7android8hardware4gnss13IGnssCallbackD0Ev"
  },
  {
   "name" : "_ZN4aidl7android8hardware4gnss13IGnssCallbackD1Ev"
  },
  {
   "name" : "_ZN4aidl7android8hardware4gnss13IGnssCallbackD2Ev"
  },
  {
   "name" : "_ZN4aidl7android8hardware4gnss14BnGnssCallback12createBinderEv"
  },
  {
   "name" : "_ZN4aidl7android8hardware4gnss14BnGnssCallback16getInterfaceHashEPNSt3__112basic_stringIcNS4_11char_traitsIcEENS4_9allocatorIcEEEE"
  },
  {
   "name" : "_ZN4aidl7android8hardware4gnss14BnGnssCallback19getInterfaceVersionEPi"
  },
  {
   "name" : "_ZN4aidl7android8hardware4gnss14BnGnssCallbackC2Ev"
  },
  {
   "name" : "_ZN4aidl7android8hardware4gnss14BnGnssCallbackD0Ev"
  },
  {
   "name" : "_ZN4aidl7android8hardware4gnss14BnGnssCallbackD1Ev"
  },
  {
   "name" : "_ZN4aidl7android8hardware4gnss14BnGnssCallbackD2Ev"
  },
  {
   "name" : "_ZN4aidl7android8hardware4gnss14BpGnssCallback16getInterfaceHashEPNSt3__112basic_stringIcNS4_11char_traitsIcEENS4_9allocatorIcEEEE"
  },
  {
   "name" : "_ZN4aidl7android8hardware4gnss14BpGnssCallback19getInterfaceVersionEPi"
  },
  {
   "name" : "_ZN4aidl7android8hardware4gnss14BpGnssCallback21gnssSetCapabilitiesCbEi"
  },
  {
   "name" : "_ZN4aidl7android8hardware4gnss14BpGnssCallbackC1ERKN3ndk10SpAIBinderE"
  },
  {
   "name" : "_ZN4aidl7android8hardware4gnss14BpGnssCallbackC2ERKN3ndk10SpAIBinderE"
  },
  {
   "name" : "_ZN4aidl7android8hardware4gnss14BpGnssCallbackD0Ev"
  },
  {
   "name" : "_ZN4aidl7android8hardware4gnss14BpGnssCallbackD1Ev"
  },
  {
   "name" : "_ZN4aidl7android8hardware4gnss14BpGnssCallbackD2Ev"
  },
  {
   "name" : "_ZN4aidl7android8hardware4gnss14GnssPowerStats14readFromParcelEPK7AParcel"
  },
  {
   "name" : "_ZN4aidl7android8hardware4gnss14GnssSignalType14readFromParcelEPK7AParcel"
  },
  {
   "name" : "_ZN4aidl7android8hardware4gnss15ElapsedRealtime14readFromParcelEPK7AParcel"
  },
  {
   "name" : "_ZN4aidl7android8hardware4gnss15GnssMeasurement14readFromParcelEPK7AParcel"
  },
  {
   "name" : "_ZN4aidl7android8hardware4gnss16IGnssPsdsDefault11setCallbackERKNSt3__110shared_ptrINS2_17IGnssPsdsCallbackEEE"
  },
  {
   "name" : "_ZN4aidl7android8hardware4gnss16IGnssPsdsDefault14injectPsdsDataENS2_8PsdsTypeERKNSt3__16vectorIhNS5_9allocatorIhEEEE"
  },
  {
   "name" : "_ZN4aidl7android8hardware4gnss16IGnssPsdsDefault16getInterfaceHashEPNSt3__112basic_stringIcNS4_11char_traitsIcEENS4_9allocatorIcEEEE"
  },
  {
   "name" : "_ZN4aidl7android8hardware4gnss16IGnssPsdsDefault19getInterfaceVersionEPi"
  },
  {
   "name" : "_ZN4aidl7android8hardware4gnss16IGnssPsdsDefault8asBinderEv"
  },
  {
   "name" : "_ZN4aidl7android8hardware4gnss16IGnssPsdsDefault8isRemoteEv"
  },
  {
   "name" : "_ZN4aidl7android8hardware4gnss17BlocklistedSource14readFromParcelEPK7AParcel"
  },
  {
   "name" : "_ZN4aidl7android8hardware4gnss17CorrelationVector14readFromParcelEPK7AParcel"
  },
  {
   "name" : "_ZN4aidl7android8hardware4gnss17IGnssPsdsCallback10fromBinderERKN3ndk10SpAIBinderE"
  },
  {
   "name" : "_ZN4aidl7android8hardware4gnss17IGnssPsdsCallback13writeToParcelEP7AParcelRKNSt3__110shared_ptrIS3_EE"
  },
  {
   "name" : "_ZN4aidl7android8hardware4gnss17IGnssPsdsCallback14getDefaultImplEv"
  },
  {
   "name" : "_ZN4aidl7android8hardware4gnss17IGnssPsdsCallback14readFromParcelEPK7AParcelPNSt3__110shared_ptrIS3_EE"
  },
  {
   "name" : "_ZN4aidl7android8hardware4gnss17IGnssPsdsCallback14setDefaultImplERKNSt3__110shared_ptrIS3_EE"
  },
  {
   "name" : "_ZN4aidl7android8hardware4gnss17IGnssPsdsCallbackC2Ev"
  },
  {
   "name" : "_ZN4aidl7android8hardware4gnss17IGnssPsdsCallbackD0Ev"
  },
  {
   "name" : "_ZN4aidl7android8hardware4gnss17IGnssPsdsCallbackD1Ev"
  },
  {
   "name" : "_ZN4aidl7android8hardware4gnss17IGnssPsdsCallbackD2Ev"
  },
  {
   "name" : "_ZN4aidl7android8hardware4gnss18BnGnssPsdsCallback12createBinderEv"
  },
  {
   "name" : "_ZN4aidl7android8hardware4gnss18BnGnssPsdsCallback16getInterfaceHashEPNSt3__112basic_stringIcNS4_11char_traitsIcEENS4_9allocatorIcEEEE"
  },
  {
   "name" : "_ZN4aidl7android8hardware4gnss18BnGnssPsdsCallback19getInterfaceVersionEPi"
  },
  {
   "name" : "_ZN4aidl7android8hardware4gnss18BnGnssPsdsCallbackC2Ev"
  },
  {
   "name" : "_ZN4aidl7android8hardware4gnss18BnGnssPsdsCallbackD0Ev"
  },
  {
   "name" : "_ZN4aidl7android8hardware4gnss18BnGnssPsdsCallbackD1Ev"
  },
  {
   "name" : "_ZN4aidl7android8hardware4gnss18BnGnssPsdsCallbackD2Ev"
  },
  {
   "name" : "_ZN4aidl7android8hardware4gnss18BpGnssPsdsCallback16getInterfaceHashEPNSt3__112basic_stringIcNS4_11char_traitsIcEENS4_9allocatorIcEEEE"
  },
  {
   "name" : "_ZN4aidl7android8hardware4gnss18BpGnssPsdsCallback17downloadRequestCbENS2_8PsdsTypeE"
  },
  {
   "name" : "_ZN4aidl7android8hardware4gnss18BpGnssPsdsCallback19getInterfaceVersionEPi"
  },
  {
   "name" : "_ZN4aidl7android8hardware4gnss18BpGnssPsdsCallbackC1ERKN3ndk10SpAIBinderE"
  },
  {
   "name" : "_ZN4aidl7android8hardware4gnss18BpGnssPsdsCallbackC2ERKN3ndk10SpAIBinderE"
  },
  {
   "name" : "_ZN4aidl7android8hardware4gnss18BpGnssPsdsCallbackD0Ev"
  },
  {
   "name" : "_ZN4aidl7android8hardware4gnss18BpGnssPsdsCallbackD1Ev"
  },
  {
   "name" : "_ZN4aidl7android8hardware4gnss18BpGnssPsdsCallbackD2Ev"
  },
  {
   "name" : "_ZN4aidl7android8hardware4gnss18IGnssConfiguration10fromBinderERKN3ndk10SpAIBinderE"
  },
  {
   "name" : "_ZN4aidl7android8hardware4gnss18IGnssConfiguration13writeToParcelEP7AParcelRKNSt3__110shared_ptrIS3_EE"
  },
  {
   "name" : "_ZN4aidl7android8hardware4gnss18IGnssConfiguration14getDefaultImplEv"
  },
  {
   "name" : "_ZN4aidl7android8hardware4gnss18IGnssConfiguration14readFromParcelEPK7AParcelPNSt3__110shared_ptrIS3_EE"
  },
  {
   "name" : "_ZN4aidl7android8hardware4gnss18IGnssConfiguration14setDefaultImplERKNSt3__110shared_ptrIS3_EE"
  },
  {
   "name" : "_ZN4aidl7android8hardware4gnss18IGnssConfigurationC2Ev"
  },
  {
   "name" : "_ZN4aidl7android8hardware4gnss18IGnssConfigurationD0Ev"
  },
  {
   "name" : "_ZN4aidl7android8hardware4gnss18IGnssConfigurationD1Ev"
  },
  {
   "name" : "_ZN4aidl7android8hardware4gnss18IGnssConfigurationD2Ev"
  },
  {
   "name" : "_ZN4aidl7android8hardware4gnss18SatelliteClockInfo14readFromParcelEPK7AParcel"
  },
  {
   "name" : "_ZN4aidl7android8hardware4gnss19BnGnssConfiguration12createBinderEv"
  },
  {
   "name" : "_ZN4aidl7android8hardware4gnss19BnGnssConfiguration16getInterfaceHashEPNSt3__112basic_stringIcNS4_11char_traitsIcEENS4_9allocatorIcEEEE"
  },
  {
   "name" : "_ZN4aidl7android8hardware4gnss19BnGnssConfiguration19getInterfaceVersionEPi"
  },
  {
   "name" : "_ZN4aidl7android8hardware4gnss19BnGnssConfigurationC2Ev"
  },
  {
   "name" : "_ZN4aidl7android8hardware4gnss19BnGnssConfigurationD0Ev"
  },
  {
   "name" : "_ZN4aidl7android8hardware4gnss19BnGnssConfigurationD1Ev"
  },
  {
   "name" : "_ZN4aidl7android8hardware4gnss19BnGnssConfigurationD2Ev"
  },
  {
   "name" : "_ZN4aidl7android8hardware4gnss19BpGnssConfiguration11setSuplModeEi"
  },
  {
   "name" : "_ZN4aidl7android8hardware4gnss19BpGnssConfiguration12setBlocklistERKNSt3__16vectorINS2_17BlocklistedSourceENS4_9allocatorIS6_EEEE"
  },
  {
   "name" : "_ZN4aidl7android8hardware4gnss19BpGnssConfiguration13setLppProfileEi"
  },
  {
   "name" : "_ZN4aidl7android8hardware4gnss19BpGnssConfiguration14setSuplVersionEi"
  },
  {
   "name" : "_ZN4aidl7android8hardware4gnss19BpGnssConfiguration16getInterfaceHashEPNSt3__112basic_stringIcNS4_11char_traitsIcEENS4_9allocatorIcEEEE"
  },
  {
   "name" : "_ZN4aidl7android8hardware4gnss19BpGnssConfiguration17setEsExtensionSecEi"
  },
  {
   "name" : "_ZN4aidl7android8hardware4gnss19BpGnssConfiguration19getInterfaceVersionEPi"
  },
  {
   "name" : "_ZN4aidl7android8hardware4gnss19BpGnssConfiguration19setEmergencySuplPdnEb"
  },
  {
   "name" : "_ZN4aidl7android8hardware4gnss19BpGnssConfiguration29setGlonassPositioningProtocolEi"
  },
  {
   "name" : "_ZN4aidl7android8hardware4gnss19BpGnssConfigurationC1ERKN3ndk10SpAIBinderE"
  },
  {
   "name" : "_ZN4aidl7android8hardware4gnss19BpGnssConfigurationC2ERKN3ndk10SpAIBinderE"
  },
  {
   "name" : "_ZN4aidl7android8hardware4gnss19BpGnssConfigurationD0Ev"
  },
  {
   "name" : "_ZN4aidl7android8hardware4gnss19BpGnssConfigurationD1Ev"
  },
  {
   "name" : "_ZN4aidl7android8hardware4gnss19BpGnssConfigurationD2Ev"
  },
  {
   "name" : "_ZN4aidl7android8hardware4gnss20IGnssCallbackDefault16getInterfaceHashEPNSt3__112basic_stringIcNS4_11char_traitsIcEENS4_9allocatorIcEEEE"
  },
  {
   "name" : "_ZN4aidl7android8hardware4gnss20IGnssCallbackDefault19getInterfaceVersionEPi"
  },
  {
   "name" : "_ZN4aidl7android8hardware4gnss20IGnssCallbackDefault21gnssSetCapabilitiesCbEi"
  },
  {
   "name" : "_ZN4aidl7android8hardware4gnss20IGnssCallbackDefault8asBinderEv"
  },
  {
   "name" : "_ZN4aidl7android8hardware4gnss20IGnssCallbackDefault8isRemoteEv"
  },
  {
   "name" : "_ZN4aidl7android8hardware4gnss20IGnssPowerIndication10fromBinderERKN3ndk10SpAIBinderE"
  },
  {
   "name" : "_ZN4aidl7android8hardware4gnss20IGnssPowerIndication13writeToParcelEP7AParcelRKNSt3__110shared_ptrIS3_EE"
  },
  {
   "name" : "_ZN4aidl7android8hardware4gnss20IGnssPowerIndication14getDefaultImplEv"
  },
  {
   "name" : "_ZN4aidl7android8hardware4gnss20IGnssPowerIndication14readFromParcelEPK7AParcelPNSt3__110shared_ptrIS3_EE"
  },
  {
   "name" : "_ZN4aidl7android8hardware4gnss20IGnssPowerIndication14setDefaultImplERKNSt3__110shared_ptrIS3_EE"
  },
  {
   "name" : "_ZN4aidl7android8hardware4gnss20IGnssPowerIndicationC2Ev"
  },
  {
   "name" : "_ZN4aidl7android8hardware4gnss20IGnssPowerIndicationD0Ev"
  },
  {
   "name" : "_ZN4aidl7android8hardware4gnss20IGnssPowerIndicationD1Ev"
  },
  {
   "name" : "_ZN4aidl7android8hardware4gnss20IGnssPowerIndicationD2Ev"
  },
  {
   "name" : "_ZN4aidl7android8hardware4gnss21BnGnssPowerIndication12createBinderEv"
  },
  {
   "name" : "_ZN4aidl7android8hardware4gnss21BnGnssPowerIndication16getInterfaceHashEPNSt3__112basic_stringIcNS4_11char_traitsIcEENS4_9allocatorIcEEEE"
  },
  {
   "name" : "_ZN4aidl7android8hardware4gnss21BnGnssPowerIndication19getInterfaceVersionEPi"
  },
  {
   "name" : "_ZN4aidl7android8hardware4gnss21BnGnssPowerIndicationC2Ev"
  },
  {
   "name" : "_ZN4aidl7android8hardware4gnss21BnGnssPowerIndicationD0Ev"
  },
  {
   "name" : "_ZN4aidl7android8hardware4gnss21BnGnssPowerIndicationD1Ev"
  },
  {
   "name" : "_ZN4aidl7android8hardware4gnss21BnGnssPowerIndicationD2Ev"
  },
  {
   "name" : "_ZN4aidl7android8hardware4gnss21BpGnssPowerIndication11setCallbackERKNSt3__110shared_ptrINS2_28IGnssPowerIndicationCallbackEEE"
  },
  {
   "name" : "_ZN4aidl7android8hardware4gnss21BpGnssPowerIndication16getInterfaceHashEPNSt3__112basic_stringIcNS4_11char_traitsIcEENS4_9allocatorIcEEEE"
  },
  {
   "name" : "_ZN4aidl7android8hardware4gnss21BpGnssPowerIndication19getInterfaceVersionEPi"
  },
  {
   "name" : "_ZN4aidl7android8hardware4gnss21BpGnssPowerIndication21requestGnssPowerStatsEv"
  },
  {
   "name" : "_ZN4aidl7android8hardware4gnss21BpGnssPowerIndicationC1ERKN3ndk10SpAIBinderE"
  },
  {
   "name" : "_ZN4aidl7android8hardware4gnss21BpGnssPowerIndicationC2ERKN3ndk10SpAIBinderE"
  },
  {
   "name" : "_ZN4aidl7android8hardware4gnss21BpGnssPowerIndicationD0Ev"
  },
  {
   "name" : "_ZN4aidl7android8hardware4gnss21BpGnssPowerIndicationD1Ev"
  },
  {
   "name" : "_ZN4aidl7android8hardware4gnss21BpGnssPowerIndicationD2Ev"
  },
  {
   "name" : "_ZN4aidl7android8hardware4gnss21SatellitePositionEcef14readFromParcelEPK7AParcel"
  },
  {
   "name" : "_ZN4aidl7android8hardware4gnss21SatelliteVelocityEcef14readFromParcelEPK7AParcel"
  },
  {
   "name" : "_ZN4aidl7android8hardware4gnss24IGnssMeasurementCallback10fromBinderERKN3ndk10SpAIBinderE"
  },
  {
   "name" : "_ZN4aidl7android8hardware4gnss24IGnssMeasurementCallback13writeToParcelEP7AParcelRKNSt3__110shared_ptrIS3_EE"
  },
  {
   "name" : "_ZN4aidl7android8hardware4gnss24IGnssMeasurementCallback14getDefaultImplEv"
  },
  {
   "name" : "_ZN4aidl7android8hardware4gnss24IGnssMeasurementCallback14readFromParcelEPK7AParcelPNSt3__110shared_ptrIS3_EE"
  },
  {
   "name" : "_ZN4aidl7android8hardware4gnss24IGnssMeasurementCallback14setDefaultImplERKNSt3__110shared_ptrIS3_EE"
  },
  {
   "name" : "_ZN4aidl7android8hardware4gnss24IGnssMeasurementCallbackC2Ev"
  },
  {
   "name" : "_ZN4aidl7android8hardware4gnss24IGnssMeasurementCallbackD0Ev"
  },
  {
   "name" : "_ZN4aidl7android8hardware4gnss24IGnssMeasurementCallbackD1Ev"
  },
  {
   "name" : "_ZN4aidl7android8hardware4gnss24IGnssMeasurementCallbackD2Ev"
  },
  {
   "name" : "_ZN4aidl7android8hardware4gnss24IGnssPsdsCallbackDefault16getInterfaceHashEPNSt3__112basic_stringIcNS4_11char_traitsIcEENS4_9allocatorIcEEEE"
  },
  {
   "name" : "_ZN4aidl7android8hardware4gnss24IGnssPsdsCallbackDefault17downloadRequestCbENS2_8PsdsTypeE"
  },
  {
   "name" : "_ZN4aidl7android8hardware4gnss24IGnssPsdsCallbackDefault19getInterfaceVersionEPi"
  },
  {
   "name" : "_ZN4aidl7android8hardware4gnss24IGnssPsdsCallbackDefault8asBinderEv"
  },
  {
   "name" : "_ZN4aidl7android8hardware4gnss24IGnssPsdsCallbackDefault8isRemoteEv"
  },
  {
   "name" : "_ZN4aidl7android8hardware4gnss25BnGnssMeasurementCallback12createBinderEv"
  },
  {
   "name" : "_ZN4aidl7android8hardware4gnss25BnGnssMeasurementCallback16getInterfaceHashEPNSt3__112basic_stringIcNS4_11char_traitsIcEENS4_9allocatorIcEEEE"
  },
  {
   "name" : "_ZN4aidl7android8hardware4gnss25BnGnssMeasurementCallback19getInterfaceVersionEPi"
  },
  {
   "name" : "_ZN4aidl7android8hardware4gnss25BnGnssMeasurementCallbackC2Ev"
  },
  {
   "name" : "_ZN4aidl7android8hardware4gnss25BnGnssMeasurementCallbackD0Ev"
  },
  {
   "name" : "_ZN4aidl7android8hardware4gnss25BnGnssMeasurementCallbackD1Ev"
  },
  {
   "name" : "_ZN4aidl7android8hardware4gnss25BnGnssMeasurementCallbackD2Ev"
  },
  {
   "name" : "_ZN4aidl7android8hardware4gnss25BpGnssMeasurementCallback16getInterfaceHashEPNSt3__112basic_stringIcNS4_11char_traitsIcEENS4_9allocatorIcEEEE"
  },
  {
   "name" : "_ZN4aidl7android8hardware4gnss25BpGnssMeasurementCallback17gnssMeasurementCbERKNS2_8GnssDataE"
  },
  {
   "name" : "_ZN4aidl7android8hardware4gnss25BpGnssMeasurementCallback19getInterfaceVersionEPi"
  },
  {
   "name" : "_ZN4aidl7android8hardware4gnss25BpGnssMeasurementCallbackC1ERKN3ndk10SpAIBinderE"
  },
  {
   "name" : "_ZN4aidl7android8hardware4gnss25BpGnssMeasurementCallbackC2ERKN3ndk10SpAIBinderE"
  },
  {
   "name" : "_ZN4aidl7android8hardware4gnss25BpGnssMeasurementCallbackD0Ev"
  },
  {
   "name" : "_ZN4aidl7android8hardware4gnss25BpGnssMeasurementCallbackD1Ev"
  },
  {
   "name" : "_ZN4aidl7android8hardware4gnss25BpGnssMeasurementCallbackD2Ev"
  },
  {
   "name" : "_ZN4aidl7android8hardware4gnss25IGnssConfigurationDefault11setSuplModeEi"
  },
  {
   "name" : "_ZN4aidl7android8hardware4gnss25IGnssConfigurationDefault12setBlocklistERKNSt3__16vectorINS2_17BlocklistedSourceENS4_9allocatorIS6_EEEE"
  },
  {
   "name" : "_ZN4aidl7android8hardware4gnss25IGnssConfigurationDefault13setLppProfileEi"
  },
  {
   "name" : "_ZN4aidl7android8hardware4gnss25IGnssConfigurationDefault14setSuplVersionEi"
  },
  {
   "name" : "_ZN4aidl7android8hardware4gnss25IGnssConfigurationDefault16getInterfaceHashEPNSt3__112basic_stringIcNS4_11char_traitsIcEENS4_9allocatorIcEEEE"
  },
  {
   "name" : "_ZN4aidl7android8hardware4gnss25IGnssConfigurationDefault17setEsExtensionSecEi"
  },
  {
   "name" : "_ZN4aidl7android8hardware4gnss25IGnssConfigurationDefault19getInterfaceVersionEPi"
  },
  {
   "name" : "_ZN4aidl7android8hardware4gnss25IGnssConfigurationDefault19setEmergencySuplPdnEb"
  },
  {
   "name" : "_ZN4aidl7android8hardware4gnss25IGnssConfigurationDefault29setGlonassPositioningProtocolEi"
  },
  {
   "name" : "_ZN4aidl7android8hardware4gnss25IGnssConfigurationDefault8asBinderEv"
  },
  {
   "name" : "_ZN4aidl7android8hardware4gnss25IGnssConfigurationDefault8isRemoteEv"
  },
  {
   "name" : "_ZN4aidl7android8hardware4gnss25IGnssMeasurementInterface10fromBinderERKN3ndk10SpAIBinderE"
  },
  {
   "name" : "_ZN4aidl7android8hardware4gnss25IGnssMeasurementInterface13writeToParcelEP7AParcelRKNSt3__110shared_ptrIS3_EE"
  },
  {
   "name" : "_ZN4aidl7android8hardware4gnss25IGnssMeasurementInterface14getDefaultImplEv"
  },
  {
   "name" : "_ZN4aidl7android8hardware4gnss25IGnssMeasurementInterface14readFromParcelEPK7AParcelPNSt3__110shared_ptrIS3_EE"
  },
  {
   "name" : "_ZN4aidl7android8hardware4gnss25IGnssMeasurementInterface14setDefaultImplERKNSt3__110shared_ptrIS3_EE"
  },
  {
   "name" : "_ZN4aidl7android8hardware4gnss25IGnssMeasurementInterfaceC2Ev"
  },
  {
   "name" : "_ZN4aidl7android8hardware4gnss25IGnssMeasurementInterfaceD0Ev"
  },
  {
   "name" : "_ZN4aidl7android8hardware4gnss25IGnssMeasurementInterfaceD1Ev"
  },
  {
   "name" : "_ZN4aidl7android8hardware4gnss25IGnssMeasurementInterfaceD2Ev"
  },
  {
   "name" : "_ZN4aidl7android8hardware4gnss26BnGnssMeasurementInterface12createBinderEv"
  },
  {
   "name" : "_ZN4aidl7android8hardware4gnss26BnGnssMeasurementInterface16getInterfaceHashEPNSt3__112basic_stringIcNS4_11char_traitsIcEENS4_9allocatorIcEEEE"
  },
  {
   "name" : "_ZN4aidl7android8hardware4gnss26BnGnssMeasurementInterface19getInterfaceVersionEPi"
  },
  {
   "name" : "_ZN4aidl7android8hardware4gnss26BnGnssMeasurementInterfaceC2Ev"
  },
  {
   "name" : "_ZN4aidl7android8hardware4gnss26BnGnssMeasurementInterfaceD0Ev"
  },
  {
   "name" : "_ZN4aidl7android8hardware4gnss26BnGnssMeasurementInterfaceD1Ev"
  },
  {
   "name" : "_ZN4aidl7android8hardware4gnss26BnGnssMeasurementInterfaceD2Ev"
  },
  {
   "name" : "_ZN4aidl7android8hardware4gnss26BpGnssMeasurementInterface11setCallbackERKNSt3__110shared_ptrINS2_24IGnssMeasurementCallbackEEEbb"
  },
  {
   "name" : "_ZN4aidl7android8hardware4gnss26BpGnssMeasurementInterface16getInterfaceHashEPNSt3__112basic_stringIcNS4_11char_traitsIcEENS4_9allocatorIcEEEE"
  },
  {
   "name" : "_ZN4aidl7android8hardware4gnss26BpGnssMeasurementInterface19getInterfaceVersionEPi"
  },
  {
   "name" : "_ZN4aidl7android8hardware4gnss26BpGnssMeasurementInterface5closeEv"
  },
  {
   "name" : "_ZN4aidl7android8hardware4gnss26BpGnssMeasurementInterfaceC1ERKN3ndk10SpAIBinderE"
  },
  {
   "name" : "_ZN4aidl7android8hardware4gnss26BpGnssMeasurementInterfaceC2ERKN3ndk10SpAIBinderE"
  },
  {
   "name" : "_ZN4aidl7android8hardware4gnss26BpGnssMeasurementInterfaceD0Ev"
  },
  {
   "name" : "_ZN4aidl7android8hardware4gnss26BpGnssMeasurementInterfaceD1Ev"
  },
  {
   "name" : "_ZN4aidl7android8hardware4gnss26BpGnssMeasurementInterfaceD2Ev"
  },
  {
   "name" : "_ZN4aidl7android8hardware4gnss27IGnssPowerIndicationDefault11setCallbackERKNSt3__110shared_ptrINS2_28IGnssPowerIndicationCallbackEEE"
  },
  {
   "name" : "_ZN4aidl7android8hardware4gnss27IGnssPowerIndicationDefault16getInterfaceHashEPNSt3__112basic_stringIcNS4_11char_traitsIcEENS4_9allocatorIcEEEE"
  },
  {
   "name" : "_ZN4aidl7android8hardware4gnss27IGnssPowerIndicationDefault19getInterfaceVersionEPi"
  },
  {
   "name" : "_ZN4aidl7android8hardware4gnss27IGnssPowerIndicationDefault21requestGnssPowerStatsEv"
  },
  {
   "name" : "_ZN4aidl7android8hardware4gnss27IGnssPowerIndicationDefault8asBinderEv"
  },
  {
   "name" : "_ZN4aidl7android8hardware4gnss27IGnssPowerIndicationDefault8isRemoteEv"
  },
  {
   "name" : "_ZN4aidl7android8hardware4gnss28IGnssPowerIndicationCallback10fromBinderERKN3ndk10SpAIBinderE"
  },
  {
   "name" : "_ZN4aidl7android8hardware4gnss28IGnssPowerIndicationCallback13writeToParcelEP7AParcelRKNSt3__110shared_ptrIS3_EE"
  },
  {
   "name" : "_ZN4aidl7android8hardware4gnss28IGnssPowerIndicationCallback14getDefaultImplEv"
  },
  {
   "name" : "_ZN4aidl7android8hardware4gnss28IGnssPowerIndicationCallback14readFromParcelEPK7AParcelPNSt3__110shared_ptrIS3_EE"
  },
  {
   "name" : "_ZN4aidl7android8hardware4gnss28IGnssPowerIndicationCallback14setDefaultImplERKNSt3__110shared_ptrIS3_EE"
  },
  {
   "name" : "_ZN4aidl7android8hardware4gnss28IGnssPowerIndicationCallbackC2Ev"
  },
  {
   "name" : "_ZN4aidl7android8hardware4gnss28IGnssPowerIndicationCallbackD0Ev"
  },
  {
   "name" : "_ZN4aidl7android8hardware4gnss28IGnssPowerIndicationCallbackD1Ev"
  },
  {
   "name" : "_ZN4aidl7android8hardware4gnss28IGnssPowerIndicationCallbackD2Ev"
  },
  {
   "name" : "_ZN4aidl7android8hardware4gnss29BnGnssPowerIndicationCallback12createBinderEv"
  },
  {
   "name" : "_ZN4aidl7android8hardware4gnss29BnGnssPowerIndicationCallback16getInterfaceHashEPNSt3__112basic_stringIcNS4_11char_traitsIcEENS4_9allocatorIcEEEE"
  },
  {
   "name" : "_ZN4aidl7android8hardware4gnss29BnGnssPowerIndicationCallback19getInterfaceVersionEPi"
  },
  {
   "name" : "_ZN4aidl7android8hardware4gnss29BnGnssPowerIndicationCallbackC2Ev"
  },
  {
   "name" : "_ZN4aidl7android8hardware4gnss29BnGnssPowerIndicationCallbackD0Ev"
  },
  {
   "name" : "_ZN4aidl7android8hardware4gnss29BnGnssPowerIndicationCallbackD1Ev"
  },
  {
   "name" : "_ZN4aidl7android8hardware4gnss29BnGnssPowerIndicationCallbackD2Ev"
  },
  {
   "name" : "_ZN4aidl7android8hardware4gnss29BpGnssPowerIndicationCallback16getInterfaceHashEPNSt3__112basic_stringIcNS4_11char_traitsIcEENS4_9allocatorIcEEEE"
  },
  {
   "name" : "_ZN4aidl7android8hardware4gnss29BpGnssPowerIndicationCallback16gnssPowerStatsCbERKNS2_14GnssPowerStatsE"
  },
  {
   "name" : "_ZN4aidl7android8hardware4gnss29BpGnssPowerIndicationCallback17setCapabilitiesCbEi"
  },
  {
   "name" : "_ZN4aidl7android8hardware4gnss29BpGnssPowerIndicationCallback19getInterfaceVersionEPi"
  },
  {
   "name" : "_ZN4aidl7android8hardware4gnss29BpGnssPowerIndicationCallbackC1ERKN3ndk10SpAIBinderE"
  },
  {
   "name" : "_ZN4aidl7android8hardware4gnss29BpGnssPowerIndicationCallbackC2ERKN3ndk10SpAIBinderE"
  },
  {
   "name" : "_ZN4aidl7android8hardware4gnss29BpGnssPowerIndicationCallbackD0Ev"
  },
  {
   "name" : "_ZN4aidl7android8hardware4gnss29BpGnssPowerIndicationCallbackD1Ev"
  },
  {
   "name" : "_ZN4aidl7android8hardware4gnss29BpGnssPowerIndicationCallbackD2Ev"
  },
  {
   "name" : "_ZN4aidl7android8hardware4gnss31IGnssMeasurementCallbackDefault16getInterfaceHashEPNSt3__112basic_stringIcNS4_11char_traitsIcEENS4_9allocatorIcEEEE"
  },
  {
   "name" : "_ZN4aidl7android8hardware4gnss31IGnssMeasurementCallbackDefault17gnssMeasurementCbERKNS2_8GnssDataE"
  },
  {
   "name" : "_ZN4aidl7android8hardware4gnss31IGnssMeasurementCallbackDefault19getInterfaceVersionEPi"
  },
  {
   "name" : "_ZN4aidl7android8hardware4gnss31IGnssMeasurementCallbackDefault8asBinderEv"
  },
  {
   "name" : "_ZN4aidl7android8hardware4gnss31IGnssMeasurementCallbackDefault8isRemoteEv"
  },
  {
   "name" : "_ZN4aidl7android8hardware4gnss32IGnssMeasurementInterfaceDefault11setCallbackERKNSt3__110shared_ptrINS2_24IGnssMeasurementCallbackEEEbb"
  },
  {
   "name" : "_ZN4aidl7android8hardware4gnss32IGnssMeasurementInterfaceDefault16getInterfaceHashEPNSt3__112basic_stringIcNS4_11char_traitsIcEENS4_9allocatorIcEEEE"
  },
  {
   "name" : "_ZN4aidl7android8hardware4gnss32IGnssMeasurementInterfaceDefault19getInterfaceVersionEPi"
  },
  {
   "name" : "_ZN4aidl7android8hardware4gnss32IGnssMeasurementInterfaceDefault5closeEv"
  },
  {
   "name" : "_ZN4aidl7android8hardware4gnss32IGnssMeasurementInterfaceDefault8asBinderEv"
  },
  {
   "name" : "_ZN4aidl7android8hardware4gnss32IGnssMeasurementInterfaceDefault8isRemoteEv"
  },
  {
   "name" : "_ZN4aidl7android8hardware4gnss35IGnssPowerIndicationCallbackDefault16getInterfaceHashEPNSt3__112basic_stringIcNS4_11char_traitsIcEENS4_9allocatorIcEEEE"
  },
  {
   "name" : "_ZN4aidl7android8hardware4gnss35IGnssPowerIndicationCallbackDefault16gnssPowerStatsCbERKNS2_14GnssPowerStatsE"
  },
  {
   "name" : "_ZN4aidl7android8hardware4gnss35IGnssPowerIndicationCallbackDefault17setCapabilitiesCbEi"
  },
  {
   "name" : "_ZN4aidl7android8hardware4gnss35IGnssPowerIndicationCallbackDefault19getInterfaceVersionEPi"
  },
  {
   "name" : "_ZN4aidl7android8hardware4gnss35IGnssPowerIndicationCallbackDefault8asBinderEv"
  },
  {
   "name" : "_ZN4aidl7android8hardware4gnss35IGnssPowerIndicationCallbackDefault8isRemoteEv"
  },
  {
   "name" : "_ZN4aidl7android8hardware4gnss5IGnss10fromBinderERKN3ndk10SpAIBinderE"
  },
  {
   "name" : "_ZN4aidl7android8hardware4gnss5IGnss13writeToParcelEP7AParcelRKNSt3__110shared_ptrIS3_EE"
  },
  {
   "name" : "_ZN4aidl7android8hardware4gnss5IGnss14getDefaultImplEv"
  },
  {
   "name" : "_ZN4aidl7android8hardware4gnss5IGnss14readFromParcelEPK7AParcelPNSt3__110shared_ptrIS3_EE"
  },
  {
   "name" : "_ZN4aidl7android8hardware4gnss5IGnss14setDefaultImplERKNSt3__110shared_ptrIS3_EE"
  },
  {
   "name" : "_ZN4aidl7android8hardware4gnss5IGnssC2Ev"
  },
  {
   "name" : "_ZN4aidl7android8hardware4gnss5IGnssD0Ev"
  },
  {
   "name" : "_ZN4aidl7android8hardware4gnss5IGnssD1Ev"
  },
  {
   "name" : "_ZN4aidl7android8hardware4gnss5IGnssD2Ev"
  },
  {
   "name" : "_ZN4aidl7android8hardware4gnss6BnGnss12createBinderEv"
  },
  {
   "name" : "_ZN4aidl7android8hardware4gnss6BnGnss16getInterfaceHashEPNSt3__112basic_stringIcNS4_11char_traitsIcEENS4_9allocatorIcEEEE"
  },
  {
   "name" : "_ZN4aidl7android8hardware4gnss6BnGnss19getInterfaceVersionEPi"
  },
  {
   "name" : "_ZN4aidl7android8hardware4gnss6BnGnssC2Ev"
  },
  {
   "name" : "_ZN4aidl7android8hardware4gnss6BnGnssD0Ev"
  },
  {
   "name" : "_ZN4aidl7android8hardware4gnss6BnGnssD1Ev"
  },
  {
   "name" : "_ZN4aidl7android8hardware4gnss6BnGnssD2Ev"
  },
  {
   "name" : "_ZN4aidl7android8hardware4gnss6BpGnss11setCallbackERKNSt3__110shared_ptrINS2_13IGnssCallbackEEE"
  },
  {
   "name" : "_ZN4aidl7android8hardware4gnss6BpGnss16getExtensionPsdsEPNSt3__110shared_ptrINS2_9IGnssPsdsEEE"
  },
  {
   "name" : "_ZN4aidl7android8hardware4gnss6BpGnss16getInterfaceHashEPNSt3__112basic_stringIcNS4_11char_traitsIcEENS4_9allocatorIcEEEE"
  },
  {
   "name" : "_ZN4aidl7android8hardware4gnss6BpGnss19getInterfaceVersionEPi"
  },
  {
   "name" : "_ZN4aidl7android8hardware4gnss6BpGnss27getExtensionGnssMeasurementEPNSt3__110shared_ptrINS2_25IGnssMeasurementInterfaceEEE"
  },
  {
   "name" : "_ZN4aidl7android8hardware4gnss6BpGnss29getExtensionGnssConfigurationEPNSt3__110shared_ptrINS2_18IGnssConfigurationEEE"
  },
  {
   "name" : "_ZN4aidl7android8hardware4gnss6BpGnss31getExtensionGnssPowerIndicationEPNSt3__110shared_ptrINS2_20IGnssPowerIndicationEEE"
  },
  {
   "name" : "_ZN4aidl7android8hardware4gnss6BpGnss5closeEv"
  },
  {
   "name" : "_ZN4aidl7android8hardware4gnss6BpGnssC1ERKN3ndk10SpAIBinderE"
  },
  {
   "name" : "_ZN4aidl7android8hardware4gnss6BpGnssC2ERKN3ndk10SpAIBinderE"
  },
  {
   "name" : "_ZN4aidl7android8hardware4gnss6BpGnssD0Ev"
  },
  {
   "name" : "_ZN4aidl7android8hardware4gnss6BpGnssD1Ev"
  },
  {
   "name" : "_ZN4aidl7android8hardware4gnss6BpGnssD2Ev"
  },
  {
   "name" : "_ZN4aidl7android8hardware4gnss8GnssData14readFromParcelEPK7AParcel"
  },
  {
   "name" : "_ZN4aidl7android8hardware4gnss9GnssClock14readFromParcelEPK7AParcel"
  },
  {
   "name" : "_ZN4aidl7android8hardware4gnss9IGnssPsds10fromBinderERKN3ndk10SpAIBinderE"
  },
  {
   "name" : "_ZN4aidl7android8hardware4gnss9IGnssPsds13writeToParcelEP7AParcelRKNSt3__110shared_ptrIS3_EE"
  },
  {
   "name" : "_ZN4aidl7android8hardware4gnss9IGnssPsds14getDefaultImplEv"
  },
  {
   "name" : "_ZN4aidl7android8hardware4gnss9IGnssPsds14readFromParcelEPK7AParcelPNSt3__110shared_ptrIS3_EE"
  },
  {
   "name" : "_ZN4aidl7android8hardware4gnss9IGnssPsds14setDefaultImplERKNSt3__110shared_ptrIS3_EE"
  },
  {
   "name" : "_ZN4aidl7android8hardware4gnss9IGnssPsdsC2Ev"
  },
  {
   "name" : "_ZN4aidl7android8hardware4gnss9IGnssPsdsD0Ev"
  },
  {
   "name" : "_ZN4aidl7android8hardware4gnss9IGnssPsdsD1Ev"
  },
  {
   "name" : "_ZN4aidl7android8hardware4gnss9IGnssPsdsD2Ev"
  },
  {
   "name" : "_ZNK4aidl7android8hardware4gnss12SatellitePvt13writeToParcelEP7AParcel"
  },
  {
   "name" : "_ZNK4aidl7android8hardware4gnss14GnssPowerStats13writeToParcelEP7AParcel"
  },
  {
   "name" : "_ZNK4aidl7android8hardware4gnss14GnssSignalType13writeToParcelEP7AParcel"
  },
  {
   "name" : "_ZNK4aidl7android8hardware4gnss15ElapsedRealtime13writeToParcelEP7AParcel"
  },
  {
   "name" : "_ZNK4aidl7android8hardware4gnss15GnssMeasurement13writeToParcelEP7AParcel"
  },
  {
   "name" : "_ZNK4aidl7android8hardware4gnss17BlocklistedSource13writeToParcelEP7AParcel"
  },
  {
   "name" : "_ZNK4aidl7android8hardware4gnss17CorrelationVector13writeToParcelEP7AParcel"
  },
  {
   "name" : "_ZNK4aidl7android8hardware4gnss18SatelliteClockInfo13writeToParcelEP7AParcel"
  },
  {
   "name" : "_ZNK4aidl7android8hardware4gnss21SatellitePositionEcef13writeToParcelEP7AParcel"
  },
  {
   "name" : "_ZNK4aidl7android8hardware4gnss21SatelliteVelocityEcef13writeToParcelEP7AParcel"
  },
  {
   "name" : "_ZNK4aidl7android8hardware4gnss8GnssData13writeToParcelEP7AParcel"
  },
  {
   "name" : "_ZNK4aidl7android8hardware4gnss9GnssClock13writeToParcelEP7AParcel"
  },
  {
   "binding" : "weak",
   "name" : "_ZNSt3__110shared_ptrIN4aidl7android8hardware4gnss13IGnssCallbackEED2Ev"
  },
  {
   "binding" : "weak",
   "name" : "_ZNSt3__110shared_ptrIN4aidl7android8hardware4gnss17IGnssPsdsCallbackEED2Ev"
  },
  {
   "binding" : "weak",
   "name" : "_ZNSt3__110shared_ptrIN4aidl7android8hardware4gnss18IGnssConfigurationEED2Ev"
  },
  {
   "binding" : "weak",
   "name" : "_ZNSt3__110shared_ptrIN4aidl7android8hardware4gnss20IGnssPowerIndicationEED2Ev"
  },
  {
   "binding" : "weak",
   "name" : "_ZNSt3__110shared_ptrIN4aidl7android8hardware4gnss24IGnssMeasurementCallbackEED2Ev"
  },
  {
   "binding" : "weak",
   "name" : "_ZNSt3__110shared_ptrIN4aidl7android8hardware4gnss25IGnssMeasurementInterfaceEED2Ev"
  },
  {
   "binding" : "weak",
   "name" : "_ZNSt3__110shared_ptrIN4aidl7android8hardware4gnss28IGnssPowerIndicationCallbackEED2Ev"
  },
  {
   "binding" : "weak",
   "name" : "_ZNSt3__110shared_ptrIN4aidl7android8hardware4gnss5IGnssEED2Ev"
  },
  {
   "binding" : "weak",
   "name" : "_ZNSt3__110shared_ptrIN4aidl7android8hardware4gnss9IGnssPsdsEED2Ev"
  },
  {
   "binding" : "weak",
   "name" : "_ZNSt3__120__shared_ptr_pointerIPN3ndk13SharedRefBaseENS_14default_deleteIS2_EENS_9allocatorIS2_EEE16__on_zero_sharedEv"
  },
  {
   "binding" : "weak",
   "name" : "_ZNSt3__120__shared_ptr_pointerIPN3ndk13SharedRefBaseENS_14default_deleteIS2_EENS_9allocatorIS2_EEE21__on_zero_shared_weakEv"
  },
  {
   "binding" : "weak",
   "name" : "_ZNSt3__16vectorIN4aidl7android8hardware4gnss15GnssMeasurementENS_9allocatorIS5_EEE8__appendEj"
  },
  {
   "binding" : "weak",
   "name" : "_ZNSt3__16vectorIN4aidl7android8hardware4gnss17BlocklistedSourceENS_9allocatorIS5_EEE8__appendEj"
  },
  {
   "binding" : "weak",
   "name" : "_ZNSt3__16vectorIN4aidl7android8hardware4gnss17CorrelationVectorENS_9allocatorIS5_EEE8__appendEj"
  },
  {
   "binding" : "weak",
   "name" : "_ZNSt3__16vectorIaNS_9allocatorIaEEE8__appendEj"
  },
  {
   "binding" : "weak",
   "name" : "_ZNSt3__16vectorIdNS_9allocatorIdEEE8__appendEj"
  },
  {
   "binding" : "weak",
   "name" : "_ZNSt3__16vectorIiNS_9allocatorIiEEE8__appendEj"
  }
 ],
 "elf_objects" :
 [
  {
   "binding" : "weak",
   "name" : "_ZGVN4aidl7android8hardware4gnss13IGnssCallback4hashE"
  },
  {
   "binding" : "weak",
   "name" : "_ZGVN4aidl7android8hardware4gnss17IGnssPsdsCallback4hashE"
  },
  {
   "binding" : "weak",
   "name" : "_ZGVN4aidl7android8hardware4gnss18IGnssConfiguration4hashE"
  },
  {
   "binding" : "weak",
   "name" : "_ZGVN4aidl7android8hardware4gnss20IGnssPowerIndication4hashE"
  },
  {
   "binding" : "weak",
   "name" : "_ZGVN4aidl7android8hardware4gnss24IGnssMeasurementCallback4hashE"
  },
  {
   "binding" : "weak",
   "name" : "_ZGVN4aidl7android8hardware4gnss25IGnssMeasurementInterface4hashE"
  },
  {
   "binding" : "weak",
   "name" : "_ZGVN4aidl7android8hardware4gnss28IGnssPowerIndicationCallback4hashE"
  },
  {
   "binding" : "weak",
   "name" : "_ZGVN4aidl7android8hardware4gnss5IGnss4hashE"
  },
  {
   "binding" : "weak",
   "name" : "_ZGVN4aidl7android8hardware4gnss9IGnssPsds4hashE"
  },
  {
   "name" : "_ZN4aidl7android8hardware4gnss12SatellitePvt10descriptorE"
  },
  {
   "name" : "_ZN4aidl7android8hardware4gnss13IGnssCallback10descriptorE"
  },
  {
   "name" : "_ZN4aidl7android8hardware4gnss13IGnssCallback12default_implE"
  },
  {
   "binding" : "weak",
   "name" : "_ZN4aidl7android8hardware4gnss13IGnssCallback4hashE"
  },
  {
   "name" : "_ZN4aidl7android8hardware4gnss14GnssPowerStats10descriptorE"
  },
  {
   "name" : "_ZN4aidl7android8hardware4gnss14GnssSignalType10descriptorE"
  },
  {
   "name" : "_ZN4aidl7android8hardware4gnss14GnssSignalType11CODE_TYPE_AE"
  },
  {
   "name" : "_ZN4aidl7android8hardware4gnss14GnssSignalType11CODE_TYPE_BE"
  },
  {
   "name" : "_ZN4aidl7android8hardware4gnss14GnssSignalType11CODE_TYPE_CE"
  },
  {
   "name" : "_ZN4aidl7android8hardware4gnss14GnssSignalType11CODE_TYPE_DE"
  },
  {
   "name" : "_ZN4aidl7android8hardware4gnss14GnssSignalType11CODE_TYPE_IE"
  },
  {
   "name" : "_ZN4aidl7android8hardware4gnss14GnssSignalType11CODE_TYPE_LE"
  },
  {
   "name" : "_ZN4aidl7android8hardware4gnss14GnssSignalType11CODE_TYPE_ME"
  },
  {
   "name" : "_ZN4aidl7android8hardware4gnss14GnssSignalType11CODE_TYPE_NE"
  },
  {
   "name" : "_ZN4aidl7android8hardware4gnss14GnssSignalType11CODE_TYPE_PE"
  },
  {
   "name" : "_ZN4aidl7android8hardware4gnss14GnssSignalType11CODE_TYPE_QE"
  },
  {
   "name" : "_ZN4aidl7android8hardware4gnss14GnssSignalType11CODE_TYPE_SE"
  },
  {
   "name" : "_ZN4aidl7android8hardware4gnss14GnssSignalType11CODE_TYPE_WE"
  },
  {
   "name" : "_ZN4aidl7android8hardware4gnss14GnssSignalType11CODE_TYPE_XE"
  },
  {
   "name" : "_ZN4aidl7android8hardware4gnss14GnssSignalType11CODE_TYPE_YE"
  },
  {
   "name" : "_ZN4aidl7android8hardware4gnss14GnssSignalType11CODE_TYPE_ZE"
  },
  {
   "name" : "_ZN4aidl7android8hardware4gnss14GnssSignalType17CODE_TYPE_UNKNOWNE"
  },
  {
   "name" : "_ZN4aidl7android8hardware4gnss15ElapsedRealtime10descriptorE"
  },
  {
   "name" : "_ZN4aidl7android8hardware4gnss15GnssMeasurement10descriptorE"
  },
  {
   "name" : "_ZN4aidl7android8hardware4gnss17BlocklistedSource10descriptorE"
  },
  {
   "name" : "_ZN4aidl7android8hardware4gnss17CorrelationVector10descriptorE"
  },
  {
   "name" : "_ZN4aidl7android8hardware4gnss17IGnssPsdsCallback10descriptorE"
  },
  {
   "name" : "_ZN4aidl7android8hardware4gnss17IGnssPsdsCallback12default_implE"
  },
  {
   "binding" : "weak",
   "name" : "_ZN4aidl7android8hardware4gnss17IGnssPsdsCallback4hashE"
  },
  {
   "name" : "_ZN4aidl7android8hardware4gnss18IGnssConfiguration10descriptorE"
  },
  {
   "name" : "_ZN4aidl7android8hardware4gnss18IGnssConfiguration12default_implE"
  },
  {
   "binding" : "weak",
   "name" : "_ZN4aidl7android8hardware4gnss18IGnssConfiguration4hashE"
  },
  {
   "name" : "_ZN4aidl7android8hardware4gnss18SatelliteClockInfo10descriptorE"
  },
  {
   "name" : "_ZN4aidl7android8hardware4gnss20IGnssPowerIndication10descriptorE"
  },
  {
   "name" : "_ZN4aidl7android8hardware4gnss20IGnssPowerIndication12default_implE"
  },
  {
   "binding" : "weak",
   "name" : "_ZN4aidl7android8hardware4gnss20IGnssPowerIndication4hashE"
  },
  {
   "name" : "_ZN4aidl7android8hardware4gnss21SatellitePositionEcef10descriptorE"
  },
  {
   "name" : "_ZN4aidl7android8hardware4gnss21SatelliteVelocityEcef10descriptorE"
  },
  {
   "name" : "_ZN4aidl7android8hardware4gnss24IGnssMeasurementCallback10descriptorE"
  },
  {
   "name" : "_ZN4aidl7android8hardware4gnss24IGnssMeasurementCallback12default_implE"
  },
  {
   "binding" : "weak",
   "name" : "_ZN4aidl7android8hardware4gnss24IGnssMeasurementCallback4hashE"
  },
  {
   "name" : "_ZN4aidl7android8hardware4gnss25IGnssMeasurementInterface10descriptorE"
  },
  {
   "name" : "_ZN4aidl7android8hardware4gnss25IGnssMeasurementInterface12default_implE"
  },
  {
   "binding" : "weak",
   "name" : "_ZN4aidl7android8hardware4gnss25IGnssMeasurementInterface4hashE"
  },
  {
   "name" : "_ZN4aidl7android8hardware4gnss28IGnssPowerIndicationCallback10descriptorE"
  },
  {
   "name" : "_ZN4aidl7android8hardware4gnss28IGnssPowerIndicationCallback12default_implE"
  },
  {
   "binding" : "weak",
   "name" : "_ZN4aidl7android8hardware4gnss28IGnssPowerIndicationCallback4hashE"
  },
  {
   "name" : "_ZN4aidl7android8hardware4gnss5IGnss10descriptorE"
  },
  {
   "name" : "_ZN4aidl7android8hardware4gnss5IGnss12default_implE"
  },
  {
   "binding" : "weak",
   "name" : "_ZN4aidl7android8hardware4gnss5IGnss4hashE"
  },
  {
   "name" : "_ZN4aidl7android8hardware4gnss8GnssData10descriptorE"
  },
  {
   "name" : "_ZN4aidl7android8hardware4gnss9GnssClock10descriptorE"
  },
  {
   "name" : "_ZN4aidl7android8hardware4gnss9IGnssPsds10descriptorE"
  },
  {
   "name" : "_ZN4aidl7android8hardware4gnss9IGnssPsds12default_implE"
  },
  {
   "binding" : "weak",
   "name" : "_ZN4aidl7android8hardware4gnss9IGnssPsds4hashE"
  },
  {
   "binding" : "weak",
   "name" : "_ZTVN3ndk12BnCInterfaceIN4aidl7android8hardware4gnss13IGnssCallbackEEE"
  },
  {
   "binding" : "weak",
   "name" : "_ZTVN3ndk12BnCInterfaceIN4aidl7android8hardware4gnss17IGnssPsdsCallbackEEE"
  },
  {
   "binding" : "weak",
   "name" : "_ZTVN3ndk12BnCInterfaceIN4aidl7android8hardware4gnss18IGnssConfigurationEEE"
  },
  {
   "binding" : "weak",
   "name" : "_ZTVN3ndk12BnCInterfaceIN4aidl7android8hardware4gnss20IGnssPowerIndicationEEE"
  },
  {
   "binding" : "weak",
   "name" : "_ZTVN3ndk12BnCInterfaceIN4aidl7android8hardware4gnss24IGnssMeasurementCallbackEEE"
  },
  {
   "binding" : "weak",
   "name" : "_ZTVN3ndk12BnCInterfaceIN4aidl7android8hardware4gnss25IGnssMeasurementInterfaceEEE"
  },
  {
   "binding" : "weak",
   "name" : "_ZTVN3ndk12BnCInterfaceIN4aidl7android8hardware4gnss28IGnssPowerIndicationCallbackEEE"
  },
  {
   "binding" : "weak",
   "name" : "_ZTVN3ndk12BnCInterfaceIN4aidl7android8hardware4gnss5IGnssEEE"
  },
  {
   "binding" : "weak",
   "name" : "_ZTVN3ndk12BnCInterfaceIN4aidl7android8hardware4gnss9IGnssPsdsEEE"
  },
  {
   "binding" : "weak",
   "name" : "_ZTVN3ndk12BpCInterfaceIN4aidl7android8hardware4gnss13IGnssCallbackEEE"
  },
  {
   "binding" : "weak",
   "name" : "_ZTVN3ndk12BpCInterfaceIN4aidl7android8hardware4gnss17IGnssPsdsCallbackEEE"
  },
  {
   "binding" : "weak",
   "name" : "_ZTVN3ndk12BpCInterfaceIN4aidl7android8hardware4gnss18IGnssConfigurationEEE"
  },
  {
   "binding" : "weak",
   "name" : "_ZTVN3ndk12BpCInterfaceIN4aidl7android8hardware4gnss20IGnssPowerIndicationEEE"
  },
  {
   "binding" : "weak",
   "name" : "_ZTVN3ndk12BpCInterfaceIN4aidl7android8hardware4gnss24IGnssMeasurementCallbackEEE"
  },
  {
   "binding" : "weak",
   "name" : "_ZTVN3ndk12BpCInterfaceIN4aidl7android8hardware4gnss25IGnssMeasurementInterfaceEEE"
  },
  {
   "binding" : "weak",
   "name" : "_ZTVN3ndk12BpCInterfaceIN4aidl7android8hardware4gnss28IGnssPowerIndicationCallbackEEE"
  },
  {
   "binding" : "weak",
   "name" : "_ZTVN3ndk12BpCInterfaceIN4aidl7android8hardware4gnss5IGnssEEE"
  },
  {
   "binding" : "weak",
   "name" : "_ZTVN3ndk12BpCInterfaceIN4aidl7android8hardware4gnss9IGnssPsdsEEE"
  },
  {
   "binding" : "weak",
   "name" : "_ZTVN3ndk13SharedRefBaseE"
  },
  {
   "name" : "_ZTVN4aidl7android8hardware4gnss10BnGnssPsdsE"
  },
  {
   "name" : "_ZTVN4aidl7android8hardware4gnss10BpGnssPsdsE"
  },
  {
   "name" : "_ZTVN4aidl7android8hardware4gnss12IGnssDefaultE"
  },
  {
   "name" : "_ZTVN4aidl7android8hardware4gnss13IGnssCallbackE"
  },
  {
   "name" : "_ZTVN4aidl7android8hardware4gnss14BnGnssCallbackE"
  },
  {
   "name" : "_ZTVN4aidl7android8hardware4gnss14BpGnssCallbackE"
  },
  {
   "name" : "_ZTVN4aidl7android8hardware4gnss16IGnssPsdsDefaultE"
  },
  {
   "name" : "_ZTVN4aidl7android8hardware4gnss17IGnssPsdsCallbackE"
  },
  {
   "name" : "_ZTVN4aidl7android8hardware4gnss18BnGnssPsdsCallbackE"
  },
  {
   "name" : "_ZTVN4aidl7android8hardware4gnss18BpGnssPsdsCallbackE"
  },
  {
   "name" : "_ZTVN4aidl7android8hardware4gnss18IGnssConfigurationE"
  },
  {
   "name" : "_ZTVN4aidl7android8hardware4gnss19BnGnssConfigurationE"
  },
  {
   "name" : "_ZTVN4aidl7android8hardware4gnss19BpGnssConfigurationE"
  },
  {
   "name" : "_ZTVN4aidl7android8hardware4gnss20IGnssCallbackDefaultE"
  },
  {
   "name" : "_ZTVN4aidl7android8hardware4gnss20IGnssPowerIndicationE"
  },
  {
   "name" : "_ZTVN4aidl7android8hardware4gnss21BnGnssPowerIndicationE"
  },
  {
   "name" : "_ZTVN4aidl7android8hardware4gnss21BpGnssPowerIndicationE"
  },
  {
   "name" : "_ZTVN4aidl7android8hardware4gnss24IGnssMeasurementCallbackE"
  },
  {
   "name" : "_ZTVN4aidl7android8hardware4gnss24IGnssPsdsCallbackDefaultE"
  },
  {
   "name" : "_ZTVN4aidl7android8hardware4gnss25BnGnssMeasurementCallbackE"
  },
  {
   "name" : "_ZTVN4aidl7android8hardware4gnss25BpGnssMeasurementCallbackE"
  },
  {
   "name" : "_ZTVN4aidl7android8hardware4gnss25IGnssConfigurationDefaultE"
  },
  {
   "name" : "_ZTVN4aidl7android8hardware4gnss25IGnssMeasurementInterfaceE"
  },
  {
   "name" : "_ZTVN4aidl7android8hardware4gnss26BnGnssMeasurementInterfaceE"
  },
  {
   "name" : "_ZTVN4aidl7android8hardware4gnss26BpGnssMeasurementInterfaceE"
  },
  {
   "name" : "_ZTVN4aidl7android8hardware4gnss27IGnssPowerIndicationDefaultE"
  },
  {
   "name" : "_ZTVN4aidl7android8hardware4gnss28IGnssPowerIndicationCallbackE"
  },
  {
   "name" : "_ZTVN4aidl7android8hardware4gnss29BnGnssPowerIndicationCallbackE"
  },
  {
   "name" : "_ZTVN4aidl7android8hardware4gnss29BpGnssPowerIndicationCallbackE"
  },
  {
   "name" : "_ZTVN4aidl7android8hardware4gnss31IGnssMeasurementCallbackDefaultE"
  },
  {
   "name" : "_ZTVN4aidl7android8hardware4gnss32IGnssMeasurementInterfaceDefaultE"
  },
  {
   "name" : "_ZTVN4aidl7android8hardware4gnss35IGnssPowerIndicationCallbackDefaultE"
  },
  {
   "name" : "_ZTVN4aidl7android8hardware4gnss5IGnssE"
  },
  {
   "name" : "_ZTVN4aidl7android8hardware4gnss6BnGnssE"
  },
  {
   "name" : "_ZTVN4aidl7android8hardware4gnss6BpGnssE"
  },
  {
   "name" : "_ZTVN4aidl7android8hardware4gnss9IGnssPsdsE"
  },
  {
   "binding" : "weak",
   "name" : "_ZTVNSt3__120__shared_ptr_pointerIPN3ndk13SharedRefBaseENS_14default_deleteIS2_EENS_9allocatorIS2_EEEE"
  }
 ],
 "enum_types" :
 [
  {
   "alignment" : 4,
   "enum_fields" :
   [
    {
     "enum_field_value" : 1,
     "name" : "FLAG_ONEWAY"
    }
   ],
   "linker_set_key" : "_ZTI12$FLAG_ONEWAY",
   "name" : "(anonymous enum at frameworks/native/libs/binder/ndk/include_ndk/android/binder_ibinder.h:43:1)",
   "referenced_type" : "_ZTI12$FLAG_ONEWAY",
   "self_type" : "_ZTI12$FLAG_ONEWAY",
   "size" : 4,
   "source_file" : "frameworks/native/libs/binder/ndk/include_ndk/android/binder_ibinder.h",
   "underlying_type" : "_ZTIj"
  },
  {
   "alignment" : 4,
   "enum_fields" :
   [
    {
     "enum_field_value" : 0,
     "name" : "EX_NONE"
    },
    {
     "enum_field_value" : -1,
     "name" : "EX_SECURITY"
    },
    {
     "enum_field_value" : -2,
     "name" : "EX_BAD_PARCELABLE"
    },
    {
     "enum_field_value" : -3,
     "name" : "EX_ILLEGAL_ARGUMENT"
    },
    {
     "enum_field_value" : -4,
     "name" : "EX_NULL_POINTER"
    },
    {
     "enum_field_value" : -5,
     "name" : "EX_ILLEGAL_STATE"
    },
    {
     "enum_field_value" : -6,
     "name" : "EX_NETWORK_MAIN_THREAD"
    },
    {
     "enum_field_value" : -7,
     "name" : "EX_UNSUPPORTED_OPERATION"
    },
    {
     "enum_field_value" : -8,
     "name" : "EX_SERVICE_SPECIFIC"
    },
    {
     "enum_field_value" : -9,
     "name" : "EX_PARCELABLE"
    },
    {
     "enum_field_value" : -129,
     "name" : "EX_TRANSACTION_FAILED"
    }
   ],
   "linker_set_key" : "_ZTI18$EX_BAD_PARCELABLE",
   "name" : "(anonymous enum at frameworks/native/libs/binder/ndk/include_ndk/android/binder_status.h:79:1)",
   "referenced_type" : "_ZTI18$EX_BAD_PARCELABLE",
   "self_type" : "_ZTI18$EX_BAD_PARCELABLE",
   "size" : 4,
   "source_file" : "frameworks/native/libs/binder/ndk/include_ndk/android/binder_status.h",
   "underlying_type" : "_ZTIi"
  },
  {
   "alignment" : 4,
   "enum_fields" :
   [
    {
     "enum_field_value" : 268435456,
     "name" : "FLAG_PRIVATE_LOCAL"
    }
   ],
   "linker_set_key" : "_ZTI19$FLAG_PRIVATE_LOCAL",
   "name" : "(anonymous enum at frameworks/native/libs/binder/ndk/include_platform/android/binder_stability.h:35:1)",
   "referenced_type" : "_ZTI19$FLAG_PRIVATE_LOCAL",
   "self_type" : "_ZTI19$FLAG_PRIVATE_LOCAL",
   "size" : 4,
   "source_file" : "frameworks/native/libs/binder/ndk/include_platform/android/binder_stability.h",
   "underlying_type" : "_ZTIj"
  },
  {
   "alignment" : 4,
   "enum_fields" :
   [
    {
     "enum_field_value" : 268435456,
     "name" : "FLAG_PRIVATE_VENDOR"
    }
   ],
   "linker_set_key" : "_ZTI20$FLAG_PRIVATE_VENDOR",
   "name" : "(anonymous enum at frameworks/native/libs/binder/ndk/include_platform/android/binder_stability.h:26:1)",
   "referenced_type" : "_ZTI20$FLAG_PRIVATE_VENDOR",
   "self_type" : "_ZTI20$FLAG_PRIVATE_VENDOR",
   "size" : 4,
   "source_file" : "frameworks/native/libs/binder/ndk/include_platform/android/binder_stability.h",
   "underlying_type" : "_ZTIj"
  },
  {
   "alignment" : 4,
   "enum_fields" :
   [
    {
     "enum_field_value" : 0,
     "name" : "STATUS_OK"
    },
    {
     "enum_field_value" : -2147483648,
     "name" : "STATUS_UNKNOWN_ERROR"
    },
    {
     "enum_field_value" : -12,
     "name" : "STATUS_NO_MEMORY"
    },
    {
     "enum_field_value" : -38,
     "name" : "STATUS_INVALID_OPERATION"
    },
    {
     "enum_field_value" : -22,
     "name" : "STATUS_BAD_VALUE"
    },
    {
     "enum_field_value" : -2147483647,
     "name" : "STATUS_BAD_TYPE"
    },
    {
     "enum_field_value" : -2,
     "name" : "STATUS_NAME_NOT_FOUND"
    },
    {
     "enum_field_value" : -1,
     "name" : "STATUS_PERMISSION_DENIED"
    },
    {
     "enum_field_value" : -19,
     "name" : "STATUS_NO_INIT"
    },
    {
     "enum_field_value" : -17,
     "name" : "STATUS_ALREADY_EXISTS"
    },
    {
     "enum_field_value" : -32,
     "name" : "STATUS_DEAD_OBJECT"
    },
    {
     "enum_field_value" : -2147483646,
     "name" : "STATUS_FAILED_TRANSACTION"
    },
    {
     "enum_field_value" : -75,
     "name" : "STATUS_BAD_INDEX"
    },
    {
     "enum_field_value" : -61,
     "name" : "STATUS_NOT_ENOUGH_DATA"
    },
    {
     "enum_field_value" : -11,
     "name" : "STATUS_WOULD_BLOCK"
    },
    {
     "enum_field_value" : -110,
     "name" : "STATUS_TIMED_OUT"
    },
    {
     "enum_field_value" : -74,
     "name" : "STATUS_UNKNOWN_TRANSACTION"
    },
    {
     "enum_field_value" : -2147483641,
     "name" : "STATUS_FDS_NOT_ALLOWED"
    },
    {
     "enum_field_value" : -2147483640,
     "name" : "STATUS_UNEXPECTED_NULL"
    }
   ],
   "linker_set_key" : "_ZTI22$STATUS_ALREADY_EXISTS",
   "name" : "(anonymous enum at frameworks/native/libs/binder/ndk/include_ndk/android/binder_status.h:45:1)",
   "referenced_type" : "_ZTI22$STATUS_ALREADY_EXISTS",
   "self_type" : "_ZTI22$STATUS_ALREADY_EXISTS",
   "size" : 4,
   "source_file" : "frameworks/native/libs/binder/ndk/include_ndk/android/binder_status.h",
   "underlying_type" : "_ZTIi"
  },
  {
   "alignment" : 4,
   "enum_fields" :
   [
    {
     "enum_field_value" : 1,
     "name" : "FIRST_CALL_TRANSACTION"
    },
    {
     "enum_field_value" : 16777215,
     "name" : "LAST_CALL_TRANSACTION"
    }
   ],
   "linker_set_key" : "_ZTI23$FIRST_CALL_TRANSACTION",
   "name" : "(anonymous enum at frameworks/native/libs/binder/ndk/include_ndk/android/binder_ibinder.h:58:1)",
   "referenced_type" : "_ZTI23$FIRST_CALL_TRANSACTION",
   "self_type" : "_ZTI23$FIRST_CALL_TRANSACTION",
   "size" : 4,
   "source_file" : "frameworks/native/libs/binder/ndk/include_ndk/android/binder_ibinder.h",
   "underlying_type" : "_ZTIj"
  },
  {
   "alignment" : 4,
   "enum_fields" :
   [
    {
     "enum_field_value" : 0,
     "name" : "ndk::STABILITY_LOCAL"
    },
    {
     "enum_field_value" : 1,
     "name" : "ndk::STABILITY_VINTF"
    }
   ],
   "linker_set_key" : "_ZTIN3ndk16$STABILITY_LOCALE",
   "name" : "ndk::(anonymous enum at frameworks/native/libs/binder/ndk/include_cpp/android/binder_parcelable_utils.h:34:1)",
   "referenced_type" : "_ZTIN3ndk16$STABILITY_LOCALE",
   "self_type" : "_ZTIN3ndk16$STABILITY_LOCALE",
   "size" : 4,
   "source_file" : "frameworks/native/libs/binder/ndk/include_cpp/android/binder_parcelable_utils.h",
   "underlying_type" : "_ZTIj"
  },
  {
   "alignment" : 4,
   "enum_fields" :
   [
    {
     "enum_field_value" : 4,
     "name" : "aidl::android::hardware::gnss::SatellitePvt::HAS_TROPO"
    }
   ],
   "linker_set_key" : "_ZTIN4aidl7android8hardware4gnss12SatellitePvt10$HAS_TROPOE",
   "name" : "aidl::android::hardware::gnss::SatellitePvt::(anonymous enum at out/soong/.intermediates/hardware/interfaces/gnss/aidl/android.hardware.gnss-V1-ndk_platform-source/gen/include/aidl/android/hardware/gnss/SatellitePvt.h:57:3)",
   "referenced_type" : "_ZTIN4aidl7android8hardware4gnss12SatellitePvt10$HAS_TROPOE",
   "self_type" : "_ZTIN4aidl7android8hardware4gnss12SatellitePvt10$HAS_TROPOE",
   "size" : 4,
   "source_file" : "out/soong/.intermediates/hardware/interfaces/gnss/aidl/android.hardware.gnss-V1-ndk_platform-source/gen/include/aidl/android/hardware/gnss/SatellitePvt.h",
   "underlying_type" : "_ZTIi"
  },
  {
   "alignment" : 4,
   "enum_fields" :
   [
    {
     "enum_field_value" : 1,
     "name" : "aidl::android::hardware::gnss::SatellitePvt::HAS_POSITION_VELOCITY_CLOCK_INFO"
    }
   ],
   "linker_set_key" : "_ZTIN4aidl7android8hardware4gnss12SatellitePvt33$HAS_POSITION_VELOCITY_CLOCK_INFOE",
   "name" : "aidl::android::hardware::gnss::SatellitePvt::(anonymous enum at out/soong/.intermediates/hardware/interfaces/gnss/aidl/android.hardware.gnss-V1-ndk_platform-source/gen/include/aidl/android/hardware/gnss/SatellitePvt.h:55:3)",
   "referenced_type" : "_ZTIN4aidl7android8hardware4gnss12SatellitePvt33$HAS_POSITION_VELOCITY_CLOCK_INFOE",
   "self_type" : "_ZTIN4aidl7android8hardware4gnss12SatellitePvt33$HAS_POSITION_VELOCITY_CLOCK_INFOE",
   "size" : 4,
   "source_file" : "out/soong/.intermediates/hardware/interfaces/gnss/aidl/android.hardware.gnss-V1-ndk_platform-source/gen/include/aidl/android/hardware/gnss/SatellitePvt.h",
   "underlying_type" : "_ZTIi"
  },
  {
   "alignment" : 4,
   "enum_fields" :
   [
    {
     "enum_field_value" : 2,
     "name" : "aidl::android::hardware::gnss::SatellitePvt::HAS_IONO"
    }
   ],
   "linker_set_key" : "_ZTIN4aidl7android8hardware4gnss12SatellitePvt9$HAS_IONOE",
   "name" : "aidl::android::hardware::gnss::SatellitePvt::(anonymous enum at out/soong/.intermediates/hardware/interfaces/gnss/aidl/android.hardware.gnss-V1-ndk_platform-source/gen/include/aidl/android/hardware/gnss/SatellitePvt.h:56:3)",
   "referenced_type" : "_ZTIN4aidl7android8hardware4gnss12SatellitePvt9$HAS_IONOE",
   "self_type" : "_ZTIN4aidl7android8hardware4gnss12SatellitePvt9$HAS_IONOE",
   "size" : 4,
   "source_file" : "out/soong/.intermediates/hardware/interfaces/gnss/aidl/android.hardware.gnss-V1-ndk_platform-source/gen/include/aidl/android/hardware/gnss/SatellitePvt.h",
   "underlying_type" : "_ZTIi"
  },
  {
   "alignment" : 4,
   "enum_fields" :
   [
    {
     "enum_field_value" : 8192,
     "name" : "aidl::android::hardware::gnss::IGnssCallback::CAPABILITY_SATELLITE_PVT"
    }
   ],
   "linker_set_key" : "_ZTIN4aidl7android8hardware4gnss13IGnssCallback25$CAPABILITY_SATELLITE_PVTE",
   "name" : "aidl::android::hardware::gnss::IGnssCallback::(anonymous enum at out/soong/.intermediates/hardware/interfaces/gnss/aidl/android.hardware.gnss-V1-ndk_platform-source/gen/include/aidl/android/hardware/gnss/IGnssCallback.h:26:3)",
   "referenced_type" : "_ZTIN4aidl7android8hardware4gnss13IGnssCallback25$CAPABILITY_SATELLITE_PVTE",
   "self_type" : "_ZTIN4aidl7android8hardware4gnss13IGnssCallback25$CAPABILITY_SATELLITE_PVTE",
   "size" : 4,
   "source_file" : "out/soong/.intermediates/hardware/interfaces/gnss/aidl/android.hardware.gnss-V1-ndk_platform-source/gen/include/aidl/android/hardware/gnss/IGnssCallback.h",
   "underlying_type" : "_ZTIi"
  },
  {
   "alignment" : 4,
   "enum_fields" :
   [
    {
     "enum_field_value" : 4096,
     "name" : "aidl::android::hardware::gnss::IGnssCallback::CAPABILITY_CORRELATION_VECTOR"
    }
   ],
   "linker_set_key" : "_ZTIN4aidl7android8hardware4gnss13IGnssCallback30$CAPABILITY_CORRELATION_VECTORE",
   "name" : "aidl::android::hardware::gnss::IGnssCallback::(anonymous enum at out/soong/.intermediates/hardware/interfaces/gnss/aidl/android.hardware.gnss-V1-ndk_platform-source/gen/include/aidl/android/hardware/gnss/IGnssCallback.h:25:3)",
   "referenced_type" : "_ZTIN4aidl7android8hardware4gnss13IGnssCallback30$CAPABILITY_CORRELATION_VECTORE",
   "self_type" : "_ZTIN4aidl7android8hardware4gnss13IGnssCallback30$CAPABILITY_CORRELATION_VECTORE",
   "size" : 4,
   "source_file" : "out/soong/.intermediates/hardware/interfaces/gnss/aidl/android.hardware.gnss-V1-ndk_platform-source/gen/include/aidl/android/hardware/gnss/IGnssCallback.h",
   "underlying_type" : "_ZTIi"
  },
  {
   "alignment" : 4,
   "enum_fields" :
   [
    {
     "enum_field_value" : 512,
     "name" : "aidl::android::hardware::gnss::IGnssCallback::CAPABILITY_SATELLITE_BLOCKLIST"
    }
   ],
   "linker_set_key" : "_ZTIN4aidl7android8hardware4gnss13IGnssCallback31$CAPABILITY_SATELLITE_BLOCKLISTE",
   "name" : "aidl::android::hardware::gnss::IGnssCallback::(anonymous enum at out/soong/.intermediates/hardware/interfaces/gnss/aidl/android.hardware.gnss-V1-ndk_platform-source/gen/include/aidl/android/hardware/gnss/IGnssCallback.h:24:3)",
   "referenced_type" : "_ZTIN4aidl7android8hardware4gnss13IGnssCallback31$CAPABILITY_SATELLITE_BLOCKLISTE",
   "self_type" : "_ZTIN4aidl7android8hardware4gnss13IGnssCallback31$CAPABILITY_SATELLITE_BLOCKLISTE",
   "size" : 4,
   "source_file" : "out/soong/.intermediates/hardware/interfaces/gnss/aidl/android.hardware.gnss-V1-ndk_platform-source/gen/include/aidl/android/hardware/gnss/IGnssCallback.h",
   "underlying_type" : "_ZTIi"
  },
  {
   "alignment" : 4,
   "enum_fields" :
   [
    {
     "enum_field_value" : 16384,
     "name" : "aidl::android::hardware::gnss::IGnssCallback::CAPABILITY_MEASUREMENT_CORRECTIONS_FOR_DRIVING"
    }
   ],
   "linker_set_key" : "_ZTIN4aidl7android8hardware4gnss13IGnssCallback47$CAPABILITY_MEASUREMENT_CORRECTIONS_FOR_DRIVINGE",
   "name" : "aidl::android::hardware::gnss::IGnssCallback::(anonymous enum at out/soong/.intermediates/hardware/interfaces/gnss/aidl/android.hardware.gnss-V1-ndk_platform-source/gen/include/aidl/android/hardware/gnss/IGnssCallback.h:27:3)",
   "referenced_type" : "_ZTIN4aidl7android8hardware4gnss13IGnssCallback47$CAPABILITY_MEASUREMENT_CORRECTIONS_FOR_DRIVINGE",
   "self_type" : "_ZTIN4aidl7android8hardware4gnss13IGnssCallback47$CAPABILITY_MEASUREMENT_CORRECTIONS_FOR_DRIVINGE",
   "size" : 4,
   "source_file" : "out/soong/.intermediates/hardware/interfaces/gnss/aidl/android.hardware.gnss-V1-ndk_platform-source/gen/include/aidl/android/hardware/gnss/IGnssCallback.h",
   "underlying_type" : "_ZTIi"
  },
  {
   "alignment" : 4,
   "enum_fields" :
   [
    {
     "enum_field_value" : 1,
     "name" : "aidl::android::hardware::gnss::ElapsedRealtime::HAS_TIMESTAMP_NS"
    }
   ],
   "linker_set_key" : "_ZTIN4aidl7android8hardware4gnss15ElapsedRealtime17$HAS_TIMESTAMP_NSE",
   "name" : "aidl::android::hardware::gnss::ElapsedRealtime::(anonymous enum at out/soong/.intermediates/hardware/interfaces/gnss/aidl/android.hardware.gnss-V1-ndk_platform-source/gen/include/aidl/android/hardware/gnss/ElapsedRealtime.h:49:3)",
   "referenced_type" : "_ZTIN4aidl7android8hardware4gnss15ElapsedRealtime17$HAS_TIMESTAMP_NSE",
   "self_type" : "_ZTIN4aidl7android8hardware4gnss15ElapsedRealtime17$HAS_TIMESTAMP_NSE",
   "size" : 4,
   "source_file" : "out/soong/.intermediates/hardware/interfaces/gnss/aidl/android.hardware.gnss-V1-ndk_platform-source/gen/include/aidl/android/hardware/gnss/ElapsedRealtime.h",
   "underlying_type" : "_ZTIi"
  },
  {
   "alignment" : 4,
   "enum_fields" :
   [
    {
     "enum_field_value" : 2,
     "name" : "aidl::android::hardware::gnss::ElapsedRealtime::HAS_TIME_UNCERTAINTY_NS"
    }
   ],
   "linker_set_key" : "_ZTIN4aidl7android8hardware4gnss15ElapsedRealtime24$HAS_TIME_UNCERTAINTY_NSE",
   "name" : "aidl::android::hardware::gnss::ElapsedRealtime::(anonymous enum at out/soong/.intermediates/hardware/interfaces/gnss/aidl/android.hardware.gnss-V1-ndk_platform-source/gen/include/aidl/android/hardware/gnss/ElapsedRealtime.h:50:3)",
   "referenced_type" : "_ZTIN4aidl7android8hardware4gnss15ElapsedRealtime24$HAS_TIME_UNCERTAINTY_NSE",
   "self_type" : "_ZTIN4aidl7android8hardware4gnss15ElapsedRealtime24$HAS_TIME_UNCERTAINTY_NSE",
   "size" : 4,
   "source_file" : "out/soong/.intermediates/hardware/interfaces/gnss/aidl/android.hardware.gnss-V1-ndk_platform-source/gen/include/aidl/android/hardware/gnss/ElapsedRealtime.h",
   "underlying_type" : "_ZTIi"
  },
  {
   "alignment" : 4,
   "enum_fields" :
   [
    {
     "enum_field_value" : 65536,
     "name" : "aidl::android::hardware::gnss::GnssMeasurement::HAS_FULL_ISB"
    }
   ],
   "linker_set_key" : "_ZTIN4aidl7android8hardware4gnss15GnssMeasurement13$HAS_FULL_ISBE",
   "name" : "aidl::android::hardware::gnss::GnssMeasurement::(anonymous enum at out/soong/.intermediates/hardware/interfaces/gnss/aidl/android.hardware.gnss-V1-ndk_platform-source/gen/include/aidl/android/hardware/gnss/GnssMeasurement.h:82:3)",
   "referenced_type" : "_ZTIN4aidl7android8hardware4gnss15GnssMeasurement13$HAS_FULL_ISBE",
   "self_type" : "_ZTIN4aidl7android8hardware4gnss15GnssMeasurement13$HAS_FULL_ISBE",
   "size" : 4,
   "source_file" : "out/soong/.intermediates/hardware/interfaces/gnss/aidl/android.hardware.gnss-V1-ndk_platform-source/gen/include/aidl/android/hardware/gnss/GnssMeasurement.h",
   "underlying_type" : "_ZTIi"
  },
  {
   "alignment" : 4,
   "enum_fields" :
   [
    {
     "enum_field_value" : 0,
     "name" : "aidl::android::hardware::gnss::GnssMeasurement::STATE_UNKNOWN"
    }
   ],
   "linker_set_key" : "_ZTIN4aidl7android8hardware4gnss15GnssMeasurement14$STATE_UNKNOWNE",
   "name" : "aidl::android::hardware::gnss::GnssMeasurement::(anonymous enum at out/soong/.intermediates/hardware/interfaces/gnss/aidl/android.hardware.gnss-V1-ndk_platform-source/gen/include/aidl/android/hardware/gnss/GnssMeasurement.h:88:3)",
   "referenced_type" : "_ZTIN4aidl7android8hardware4gnss15GnssMeasurement14$STATE_UNKNOWNE",
   "self_type" : "_ZTIN4aidl7android8hardware4gnss15GnssMeasurement14$STATE_UNKNOWNE",
   "size" : 4,
   "source_file" : "out/soong/.intermediates/hardware/interfaces/gnss/aidl/android.hardware.gnss-V1-ndk_platform-source/gen/include/aidl/android/hardware/gnss/GnssMeasurement.h",
   "underlying_type" : "_ZTIi"
  },
  {
   "alignment" : 4,
   "enum_fields" :
   [
    {
     "enum_field_value" : 2,
     "name" : "aidl::android::hardware::gnss::GnssMeasurement::STATE_BIT_SYNC"
    }
   ],
   "linker_set_key" : "_ZTIN4aidl7android8hardware4gnss15GnssMeasurement15$STATE_BIT_SYNCE",
   "name" : "aidl::android::hardware::gnss::GnssMeasurement::(anonymous enum at out/soong/.intermediates/hardware/interfaces/gnss/aidl/android.hardware.gnss-V1-ndk_platform-source/gen/include/aidl/android/hardware/gnss/GnssMeasurement.h:90:3)",
   "referenced_type" : "_ZTIN4aidl7android8hardware4gnss15GnssMeasurement15$STATE_BIT_SYNCE",
   "self_type" : "_ZTIN4aidl7android8hardware4gnss15GnssMeasurement15$STATE_BIT_SYNCE",
   "size" : 4,
   "source_file" : "out/soong/.intermediates/hardware/interfaces/gnss/aidl/android.hardware.gnss-V1-ndk_platform-source/gen/include/aidl/android/hardware/gnss/GnssMeasurement.h",
   "underlying_type" : "_ZTIi"
  },
  {
   "alignment" : 4,
   "enum_fields" :
   [
    {
     "enum_field_value" : 2,
     "name" : "aidl::android::hardware::gnss::GnssMeasurement::ADR_STATE_RESET"
    }
   ],
   "linker_set_key" : "_ZTIN4aidl7android8hardware4gnss15GnssMeasurement16$ADR_STATE_RESETE",
   "name" : "aidl::android::hardware::gnss::GnssMeasurement::(anonymous enum at out/soong/.intermediates/hardware/interfaces/gnss/aidl/android.hardware.gnss-V1-ndk_platform-source/gen/include/aidl/android/hardware/gnss/GnssMeasurement.h:108:3)",
   "referenced_type" : "_ZTIN4aidl7android8hardware4gnss15GnssMeasurement16$ADR_STATE_RESETE",
   "self_type" : "_ZTIN4aidl7android8hardware4gnss15GnssMeasurement16$ADR_STATE_RESETE",
   "size" : 4,
   "source_file" : "out/soong/.intermediates/hardware/interfaces/gnss/aidl/android.hardware.gnss-V1-ndk_platform-source/gen/include/aidl/android/hardware/gnss/GnssMeasurement.h",
   "underlying_type" : "_ZTIi"
  },
  {
   "alignment" : 4,
   "enum_fields" :
   [
    {
     "enum_field_value" : 1,
     "name" : "aidl::android::hardware::gnss::GnssMeasurement::ADR_STATE_VALID"
    }
   ],
   "linker_set_key" : "_ZTIN4aidl7android8hardware4gnss15GnssMeasurement16$ADR_STATE_VALIDE",
   "name" : "aidl::android::hardware::gnss::GnssMeasurement::(anonymous enum at out/soong/.intermediates/hardware/interfaces/gnss/aidl/android.hardware.gnss-V1-ndk_platform-source/gen/include/aidl/android/hardware/gnss/GnssMeasurement.h:107:3)",
   "referenced_type" : "_ZTIN4aidl7android8hardware4gnss15GnssMeasurement16$ADR_STATE_VALIDE",
   "self_type" : "_ZTIN4aidl7android8hardware4gnss15GnssMeasurement16$ADR_STATE_VALIDE",
   "size" : 4,
   "source_file" : "out/soong/.intermediates/hardware/interfaces/gnss/aidl/android.hardware.gnss-V1-ndk_platform-source/gen/include/aidl/android/hardware/gnss/GnssMeasurement.h",
   "underlying_type" : "_ZTIi"
  },
  {
   "alignment" : 4,
   "enum_fields" :
   [
    {
     "enum_field_value" : 1,
     "name" : "aidl::android::hardware::gnss::GnssMeasurement::STATE_CODE_LOCK"
    }
   ],
   "linker_set_key" : "_ZTIN4aidl7android8hardware4gnss15GnssMeasurement16$STATE_CODE_LOCKE",
   "name" : "aidl::android::hardware::gnss::GnssMeasurement::(anonymous enum at out/soong/.intermediates/hardware/interfaces/gnss/aidl/android.hardware.gnss-V1-ndk_platform-source/gen/include/aidl/android/hardware/gnss/GnssMeasurement.h:89:3)",
   "referenced_type" : "_ZTIN4aidl7android8hardware4gnss15GnssMeasurement16$STATE_CODE_LOCKE",
   "self_type" : "_ZTIN4aidl7android8hardware4gnss15GnssMeasurement16$STATE_CODE_LOCKE",
   "size" : 4,
   "source_file" : "out/soong/.intermediates/hardware/interfaces/gnss/aidl/android.hardware.gnss-V1-ndk_platform-source/gen/include/aidl/android/hardware/gnss/GnssMeasurement.h",
   "underlying_type" : "_ZTIi"
  },
  {
   "alignment" : 4,
   "enum_fields" :
   [
    {
     "enum_field_value" : 8192,
     "name" : "aidl::android::hardware::gnss::GnssMeasurement::STATE_SBAS_SYNC"
    }
   ],
   "linker_set_key" : "_ZTIN4aidl7android8hardware4gnss15GnssMeasurement16$STATE_SBAS_SYNCE",
   "name" : "aidl::android::hardware::gnss::GnssMeasurement::(anonymous enum at out/soong/.intermediates/hardware/interfaces/gnss/aidl/android.hardware.gnss-V1-ndk_platform-source/gen/include/aidl/android/hardware/gnss/GnssMeasurement.h:102:3)",
   "referenced_type" : "_ZTIN4aidl7android8hardware4gnss15GnssMeasurement16$STATE_SBAS_SYNCE",
   "self_type" : "_ZTIN4aidl7android8hardware4gnss15GnssMeasurement16$STATE_SBAS_SYNCE",
   "size" : 4,
   "source_file" : "out/soong/.intermediates/hardware/interfaces/gnss/aidl/android.hardware.gnss-V1-ndk_platform-source/gen/include/aidl/android/hardware/gnss/GnssMeasurement.h",
   "underlying_type" : "_ZTIi"
  },
  {
   "alignment" : 4,
   "enum_fields" :
   [
    {
     "enum_field_value" : 16384,
     "name" : "aidl::android::hardware::gnss::GnssMeasurement::STATE_TOW_KNOWN"
    }
   ],
   "linker_set_key" : "_ZTIN4aidl7android8hardware4gnss15GnssMeasurement16$STATE_TOW_KNOWNE",
   "name" : "aidl::android::hardware::gnss::GnssMeasurement::(anonymous enum at out/soong/.intermediates/hardware/interfaces/gnss/aidl/android.hardware.gnss-V1-ndk_platform-source/gen/include/aidl/android/hardware/gnss/GnssMeasurement.h:103:3)",
   "referenced_type" : "_ZTIN4aidl7android8hardware4gnss15GnssMeasurement16$STATE_TOW_KNOWNE",
   "self_type" : "_ZTIN4aidl7android8hardware4gnss15GnssMeasurement16$STATE_TOW_KNOWNE",
   "size" : 4,
   "source_file" : "out/soong/.intermediates/hardware/interfaces/gnss/aidl/android.hardware.gnss-V1-ndk_platform-source/gen/include/aidl/android/hardware/gnss/GnssMeasurement.h",
   "underlying_type" : "_ZTIi"
  },
  {
   "alignment" : 4,
   "enum_fields" :
   [
    {
     "enum_field_value" : 0,
     "name" : "aidl::android::hardware::gnss::GnssMeasurement::ADR_STATE_UNKNOWN"
    }
   ],
   "linker_set_key" : "_ZTIN4aidl7android8hardware4gnss15GnssMeasurement18$ADR_STATE_UNKNOWNE",
   "name" : "aidl::android::hardware::gnss::GnssMeasurement::(anonymous enum at out/soong/.intermediates/hardware/interfaces/gnss/aidl/android.hardware.gnss-V1-ndk_platform-source/gen/include/aidl/android/hardware/gnss/GnssMeasurement.h:106:3)",
   "referenced_type" : "_ZTIN4aidl7android8hardware4gnss15GnssMeasurement18$ADR_STATE_UNKNOWNE",
   "self_type" : "_ZTIN4aidl7android8hardware4gnss15GnssMeasurement18$ADR_STATE_UNKNOWNE",
   "size" : 4,
   "source_file" : "out/soong/.intermediates/hardware/interfaces/gnss/aidl/android.hardware.gnss-V1-ndk_platform-source/gen/include/aidl/android/hardware/gnss/GnssMeasurement.h",
   "underlying_type" : "_ZTIi"
  },
  {
   "alignment" : 4,
   "enum_fields" :
   [
    {
     "enum_field_value" : 2048,
     "name" : "aidl::android::hardware::gnss::GnssMeasurement::HAS_CARRIER_PHASE"
    }
   ],
   "linker_set_key" : "_ZTIN4aidl7android8hardware4gnss15GnssMeasurement18$HAS_CARRIER_PHASEE",
   "name" : "aidl::android::hardware::gnss::GnssMeasurement::(anonymous enum at out/soong/.intermediates/hardware/interfaces/gnss/aidl/android.hardware.gnss-V1-ndk_platform-source/gen/include/aidl/android/hardware/gnss/GnssMeasurement.h:79:3)",
   "referenced_type" : "_ZTIN4aidl7android8hardware4gnss15GnssMeasurement18$HAS_CARRIER_PHASEE",
   "self_type" : "_ZTIN4aidl7android8hardware4gnss15GnssMeasurement18$HAS_CARRIER_PHASEE",
   "size" : 4,
   "source_file" : "out/soong/.intermediates/hardware/interfaces/gnss/aidl/android.hardware.gnss-V1-ndk_platform-source/gen/include/aidl/android/hardware/gnss/GnssMeasurement.h",
   "underlying_type" : "_ZTIi"
  },
  {
   "alignment" : 4,
   "enum_fields" :
   [
    {
     "enum_field_value" : 262144,
     "name" : "aidl::android::hardware::gnss::GnssMeasurement::HAS_SATELLITE_ISB"
    }
   ],
   "linker_set_key" : "_ZTIN4aidl7android8hardware4gnss15GnssMeasurement18$HAS_SATELLITE_ISBE",
   "name" : "aidl::android::hardware::gnss::GnssMeasurement::(anonymous enum at out/soong/.intermediates/hardware/interfaces/gnss/aidl/android.hardware.gnss-V1-ndk_platform-source/gen/include/aidl/android/hardware/gnss/GnssMeasurement.h:84:3)",
   "referenced_type" : "_ZTIN4aidl7android8hardware4gnss15GnssMeasurement18$HAS_SATELLITE_ISBE",
   "self_type" : "_ZTIN4aidl7android8hardware4gnss15GnssMeasurement18$HAS_SATELLITE_ISBE",
   "size" : 4,
   "source_file" : "out/soong/.intermediates/hardware/interfaces/gnss/aidl/android.hardware.gnss-V1-ndk_platform-source/gen/include/aidl/android/hardware/gnss/GnssMeasurement.h",
   "underlying_type" : "_ZTIi"
  },
  {
   "alignment" : 4,
   "enum_fields" :
   [
    {
     "enum_field_value" : 1048576,
     "name" : "aidl::android::hardware::gnss::GnssMeasurement::HAS_SATELLITE_PVT"
    }
   ],
   "linker_set_key" : "_ZTIN4aidl7android8hardware4gnss15GnssMeasurement18$HAS_SATELLITE_PVTE",
   "name" : "aidl::android::hardware::gnss::GnssMeasurement::(anonymous enum at out/soong/.intermediates/hardware/interfaces/gnss/aidl/android.hardware.gnss-V1-ndk_platform-source/gen/include/aidl/android/hardware/gnss/GnssMeasurement.h:86:3)",
   "referenced_type" : "_ZTIN4aidl7android8hardware4gnss15GnssMeasurement18$HAS_SATELLITE_PVTE",
   "self_type" : "_ZTIN4aidl7android8hardware4gnss15GnssMeasurement18$HAS_SATELLITE_PVTE",
   "size" : 4,
   "source_file" : "out/soong/.intermediates/hardware/interfaces/gnss/aidl/android.hardware.gnss-V1-ndk_platform-source/gen/include/aidl/android/hardware/gnss/GnssMeasurement.h",
   "underlying_type" : "_ZTIi"
  },
  {
   "alignment" : 4,
   "enum_fields" :
   [
    {
     "enum_field_value" : 32,
     "name" : "aidl::android::hardware::gnss::GnssMeasurement::STATE_SYMBOL_SYNC"
    }
   ],
   "linker_set_key" : "_ZTIN4aidl7android8hardware4gnss15GnssMeasurement18$STATE_SYMBOL_SYNCE",
   "name" : "aidl::android::hardware::gnss::GnssMeasurement::(anonymous enum at out/soong/.intermediates/hardware/interfaces/gnss/aidl/android.hardware.gnss-V1-ndk_platform-source/gen/include/aidl/android/hardware/gnss/GnssMeasurement.h:94:3)",
   "referenced_type" : "_ZTIN4aidl7android8hardware4gnss15GnssMeasurement18$STATE_SYMBOL_SYNCE",
   "self_type" : "_ZTIN4aidl7android8hardware4gnss15GnssMeasurement18$STATE_SYMBOL_SYNCE",
   "size" : 4,
   "source_file" : "out/soong/.intermediates/hardware/interfaces/gnss/aidl/android.hardware.gnss-V1-ndk_platform-source/gen/include/aidl/android/hardware/gnss/GnssMeasurement.h",
   "underlying_type" : "_ZTIi"
  },
  {
   "alignment" : 4,
   "enum_fields" :
   [
    {
     "enum_field_value" : 8,
     "name" : "aidl::android::hardware::gnss::GnssMeasurement::STATE_TOW_DECODED"
    }
   ],
   "linker_set_key" : "_ZTIN4aidl7android8hardware4gnss15GnssMeasurement18$STATE_TOW_DECODEDE",
   "name" : "aidl::android::hardware::gnss::GnssMeasurement::(anonymous enum at out/soong/.intermediates/hardware/interfaces/gnss/aidl/android.hardware.gnss-V1-ndk_platform-source/gen/include/aidl/android/hardware/gnss/GnssMeasurement.h:92:3)",
   "referenced_type" : "_ZTIN4aidl7android8hardware4gnss15GnssMeasurement18$STATE_TOW_DECODEDE",
   "self_type" : "_ZTIN4aidl7android8hardware4gnss15GnssMeasurement18$STATE_TOW_DECODEDE",
   "size" : 4,
   "source_file" : "out/soong/.intermediates/hardware/interfaces/gnss/aidl/android.hardware.gnss-V1-ndk_platform-source/gen/include/aidl/android/hardware/gnss/GnssMeasurement.h",
   "underlying_type" : "_ZTIi"
  },
  {
   "alignment" : 4,
   "enum_fields" :
   [
    {
     "enum_field_value" : 1024,
     "name" : "aidl::android::hardware::gnss::GnssMeasurement::HAS_CARRIER_CYCLES"
    }
   ],
   "linker_set_key" : "_ZTIN4aidl7android8hardware4gnss15GnssMeasurement19$HAS_CARRIER_CYCLESE",
   "name" : "aidl::android::hardware::gnss::GnssMeasurement::(anonymous enum at out/soong/.intermediates/hardware/interfaces/gnss/aidl/android.hardware.gnss-V1-ndk_platform-source/gen/include/aidl/android/hardware/gnss/GnssMeasurement.h:78:3)",
   "referenced_type" : "_ZTIN4aidl7android8hardware4gnss15GnssMeasurement19$HAS_CARRIER_CYCLESE",
   "self_type" : "_ZTIN4aidl7android8hardware4gnss15GnssMeasurement19$HAS_CARRIER_CYCLESE",
   "size" : 4,
   "source_file" : "out/soong/.intermediates/hardware/interfaces/gnss/aidl/android.hardware.gnss-V1-ndk_platform-source/gen/include/aidl/android/hardware/gnss/GnssMeasurement.h",
   "underlying_type" : "_ZTIi"
  },
  {
   "alignment" : 4,
   "enum_fields" :
   [
    {
     "enum_field_value" : 65536,
     "name" : "aidl::android::hardware::gnss::GnssMeasurement::STATE_2ND_CODE_LOCK"
    }
   ],
   "linker_set_key" : "_ZTIN4aidl7android8hardware4gnss15GnssMeasurement20$STATE_2ND_CODE_LOCKE",
   "name" : "aidl::android::hardware::gnss::GnssMeasurement::(anonymous enum at out/soong/.intermediates/hardware/interfaces/gnss/aidl/android.hardware.gnss-V1-ndk_platform-source/gen/include/aidl/android/hardware/gnss/GnssMeasurement.h:105:3)",
   "referenced_type" : "_ZTIN4aidl7android8hardware4gnss15GnssMeasurement20$STATE_2ND_CODE_LOCKE",
   "self_type" : "_ZTIN4aidl7android8hardware4gnss15GnssMeasurement20$STATE_2ND_CODE_LOCKE",
   "size" : 4,
   "source_file" : "out/soong/.intermediates/hardware/interfaces/gnss/aidl/android.hardware.gnss-V1-ndk_platform-source/gen/include/aidl/android/hardware/gnss/GnssMeasurement.h",
   "underlying_type" : "_ZTIi"
  },
  {
   "alignment" : 4,
   "enum_fields" :
   [
    {
     "enum_field_value" : 32768,
     "name" : "aidl::android::hardware::gnss::GnssMeasurement::STATE_GLO_TOD_KNOWN"
    }
   ],
   "linker_set_key" : "_ZTIN4aidl7android8hardware4gnss15GnssMeasurement20$STATE_GLO_TOD_KNOWNE",
   "name" : "aidl::android::hardware::gnss::GnssMeasurement::(anonymous enum at out/soong/.intermediates/hardware/interfaces/gnss/aidl/android.hardware.gnss-V1-ndk_platform-source/gen/include/aidl/android/hardware/gnss/GnssMeasurement.h:104:3)",
   "referenced_type" : "_ZTIN4aidl7android8hardware4gnss15GnssMeasurement20$STATE_GLO_TOD_KNOWNE",
   "self_type" : "_ZTIN4aidl7android8hardware4gnss15GnssMeasurement20$STATE_GLO_TOD_KNOWNE",
   "size" : 4,
   "source_file" : "out/soong/.intermediates/hardware/interfaces/gnss/aidl/android.hardware.gnss-V1-ndk_platform-source/gen/include/aidl/android/hardware/gnss/GnssMeasurement.h",
   "underlying_type" : "_ZTIi"
  },
  {
   "alignment" : 4,
   "enum_fields" :
   [
    {
     "enum_field_value" : 4,
     "name" : "aidl::android::hardware::gnss::GnssMeasurement::STATE_SUBFRAME_SYNC"
    }
   ],
   "linker_set_key" : "_ZTIN4aidl7android8hardware4gnss15GnssMeasurement20$STATE_SUBFRAME_SYNCE",
   "name" : "aidl::android::hardware::gnss::GnssMeasurement::(anonymous enum at out/soong/.intermediates/hardware/interfaces/gnss/aidl/android.hardware.gnss-V1-ndk_platform-source/gen/include/aidl/android/hardware/gnss/GnssMeasurement.h:91:3)",
   "referenced_type" : "_ZTIN4aidl7android8hardware4gnss15GnssMeasurement20$STATE_SUBFRAME_SYNCE",
   "self_type" : "_ZTIN4aidl7android8hardware4gnss15GnssMeasurement20$STATE_SUBFRAME_SYNCE",
   "size" : 4,
   "source_file" : "out/soong/.intermediates/hardware/interfaces/gnss/aidl/android.hardware.gnss-V1-ndk_platform-source/gen/include/aidl/android/hardware/gnss/GnssMeasurement.h",
   "underlying_type" : "_ZTIi"
  },
  {
   "alignment" : 4,
   "enum_fields" :
   [
    {
     "enum_field_value" : 4,
     "name" : "aidl::android::hardware::gnss::GnssMeasurement::ADR_STATE_CYCLE_SLIP"
    }
   ],
   "linker_set_key" : "_ZTIN4aidl7android8hardware4gnss15GnssMeasurement21$ADR_STATE_CYCLE_SLIPE",
   "name" : "aidl::android::hardware::gnss::GnssMeasurement::(anonymous enum at out/soong/.intermediates/hardware/interfaces/gnss/aidl/android.hardware.gnss-V1-ndk_platform-source/gen/include/aidl/android/hardware/gnss/GnssMeasurement.h:109:3)",
   "referenced_type" : "_ZTIN4aidl7android8hardware4gnss15GnssMeasurement21$ADR_STATE_CYCLE_SLIPE",
   "self_type" : "_ZTIN4aidl7android8hardware4gnss15GnssMeasurement21$ADR_STATE_CYCLE_SLIPE",
   "size" : 4,
   "source_file" : "out/soong/.intermediates/hardware/interfaces/gnss/aidl/android.hardware.gnss-V1-ndk_platform-source/gen/include/aidl/android/hardware/gnss/GnssMeasurement.h",
   "underlying_type" : "_ZTIi"
  },
  {
   "alignment" : 4,
   "enum_fields" :
   [
    {
     "enum_field_value" : 16,
     "name" : "aidl::android::hardware::gnss::GnssMeasurement::STATE_MSEC_AMBIGUOUS"
    }
   ],
   "linker_set_key" : "_ZTIN4aidl7android8hardware4gnss15GnssMeasurement21$STATE_MSEC_AMBIGUOUSE",
   "name" : "aidl::android::hardware::gnss::GnssMeasurement::(anonymous enum at out/soong/.intermediates/hardware/interfaces/gnss/aidl/android.hardware.gnss-V1-ndk_platform-source/gen/include/aidl/android/hardware/gnss/GnssMeasurement.h:93:3)",
   "referenced_type" : "_ZTIN4aidl7android8hardware4gnss15GnssMeasurement21$STATE_MSEC_AMBIGUOUSE",
   "self_type" : "_ZTIN4aidl7android8hardware4gnss15GnssMeasurement21$STATE_MSEC_AMBIGUOUSE",
   "size" : 4,
   "source_file" : "out/soong/.intermediates/hardware/interfaces/gnss/aidl/android.hardware.gnss-V1-ndk_platform-source/gen/include/aidl/android/hardware/gnss/GnssMeasurement.h",
   "underlying_type" : "_ZTIi"
  },
  {
   "alignment" : 4,
   "enum_fields" :
   [
    {
     "enum_field_value" : 512,
     "name" : "aidl::android::hardware::gnss::GnssMeasurement::HAS_CARRIER_FREQUENCY"
    }
   ],
   "linker_set_key" : "_ZTIN4aidl7android8hardware4gnss15GnssMeasurement22$HAS_CARRIER_FREQUENCYE",
   "name" : "aidl::android::hardware::gnss::GnssMeasurement::(anonymous enum at out/soong/.intermediates/hardware/interfaces/gnss/aidl/android.hardware.gnss-V1-ndk_platform-source/gen/include/aidl/android/hardware/gnss/GnssMeasurement.h:77:3)",
   "referenced_type" : "_ZTIN4aidl7android8hardware4gnss15GnssMeasurement22$HAS_CARRIER_FREQUENCYE",
   "self_type" : "_ZTIN4aidl7android8hardware4gnss15GnssMeasurement22$HAS_CARRIER_FREQUENCYE",
   "size" : 4,
   "source_file" : "out/soong/.intermediates/hardware/interfaces/gnss/aidl/android.hardware.gnss-V1-ndk_platform-source/gen/include/aidl/android/hardware/gnss/GnssMeasurement.h",
   "underlying_type" : "_ZTIi"
  },
  {
   "alignment" : 4,
   "enum_fields" :
   [
    {
     "enum_field_value" : 256,
     "name" : "aidl::android::hardware::gnss::GnssMeasurement::STATE_BDS_D2_BIT_SYNC"
    }
   ],
   "linker_set_key" : "_ZTIN4aidl7android8hardware4gnss15GnssMeasurement22$STATE_BDS_D2_BIT_SYNCE",
   "name" : "aidl::android::hardware::gnss::GnssMeasurement::(anonymous enum at out/soong/.intermediates/hardware/interfaces/gnss/aidl/android.hardware.gnss-V1-ndk_platform-source/gen/include/aidl/android/hardware/gnss/GnssMeasurement.h:97:3)",
   "referenced_type" : "_ZTIN4aidl7android8hardware4gnss15GnssMeasurement22$STATE_BDS_D2_BIT_SYNCE",
   "self_type" : "_ZTIN4aidl7android8hardware4gnss15GnssMeasurement22$STATE_BDS_D2_BIT_SYNCE",
   "size" : 4,
   "source_file" : "out/soong/.intermediates/hardware/interfaces/gnss/aidl/android.hardware.gnss-V1-ndk_platform-source/gen/include/aidl/android/hardware/gnss/GnssMeasurement.h",
   "underlying_type" : "_ZTIi"
  },
  {
   "alignment" : 4,
   "enum_fields" :
   [
    {
     "enum_field_value" : 64,
     "name" : "aidl::android::hardware::gnss::GnssMeasurement::STATE_GLO_STRING_SYNC"
    }
   ],
   "linker_set_key" : "_ZTIN4aidl7android8hardware4gnss15GnssMeasurement22$STATE_GLO_STRING_SYNCE",
   "name" : "aidl::android::hardware::gnss::GnssMeasurement::(anonymous enum at out/soong/.intermediates/hardware/interfaces/gnss/aidl/android.hardware.gnss-V1-ndk_platform-source/gen/include/aidl/android/hardware/gnss/GnssMeasurement.h:95:3)",
   "referenced_type" : "_ZTIN4aidl7android8hardware4gnss15GnssMeasurement22$STATE_GLO_STRING_SYNCE",
   "self_type" : "_ZTIN4aidl7android8hardware4gnss15GnssMeasurement22$STATE_GLO_STRING_SYNCE",
   "size" : 4,
   "source_file" : "out/soong/.intermediates/hardware/interfaces/gnss/aidl/android.hardware.gnss-V1-ndk_platform-source/gen/include/aidl/android/hardware/gnss/GnssMeasurement.h",
   "underlying_type" : "_ZTIi"
  },
  {
   "alignment" : 4,
   "enum_fields" :
   [
    {
     "enum_field_value" : 128,
     "name" : "aidl::android::hardware::gnss::GnssMeasurement::STATE_GLO_TOD_DECODED"
    }
   ],
   "linker_set_key" : "_ZTIN4aidl7android8hardware4gnss15GnssMeasurement22$STATE_GLO_TOD_DECODEDE",
   "name" : "aidl::android::hardware::gnss::GnssMeasurement::(anonymous enum at out/soong/.intermediates/hardware/interfaces/gnss/aidl/android.hardware.gnss-V1-ndk_platform-source/gen/include/aidl/android/hardware/gnss/GnssMeasurement.h:96:3)",
   "referenced_type" : "_ZTIN4aidl7android8hardware4gnss15GnssMeasurement22$STATE_GLO_TOD_DECODEDE",
   "self_type" : "_ZTIN4aidl7android8hardware4gnss15GnssMeasurement22$STATE_GLO_TOD_DECODEDE",
   "size" : 4,
   "source_file" : "out/soong/.intermediates/hardware/interfaces/gnss/aidl/android.hardware.gnss-V1-ndk_platform-source/gen/include/aidl/android/hardware/gnss/GnssMeasurement.h",
   "underlying_type" : "_ZTIi"
  },
  {
   "alignment" : 4,
   "enum_fields" :
   [
    {
     "enum_field_value" : 2097152,
     "name" : "aidl::android::hardware::gnss::GnssMeasurement::HAS_CORRELATION_VECTOR"
    }
   ],
   "linker_set_key" : "_ZTIN4aidl7android8hardware4gnss15GnssMeasurement23$HAS_CORRELATION_VECTORE",
   "name" : "aidl::android::hardware::gnss::GnssMeasurement::(anonymous enum at out/soong/.intermediates/hardware/interfaces/gnss/aidl/android.hardware.gnss-V1-ndk_platform-source/gen/include/aidl/android/hardware/gnss/GnssMeasurement.h:87:3)",
   "referenced_type" : "_ZTIN4aidl7android8hardware4gnss15GnssMeasurement23$HAS_CORRELATION_VECTORE",
   "self_type" : "_ZTIN4aidl7android8hardware4gnss15GnssMeasurement23$HAS_CORRELATION_VECTORE",
   "size" : 4,
   "source_file" : "out/soong/.intermediates/hardware/interfaces/gnss/aidl/android.hardware.gnss-V1-ndk_platform-source/gen/include/aidl/android/hardware/gnss/GnssMeasurement.h",
   "underlying_type" : "_ZTIi"
  },
  {
   "alignment" : 4,
   "enum_fields" :
   [
    {
     "enum_field_value" : 4096,
     "name" : "aidl::android::hardware::gnss::GnssMeasurement::STATE_GAL_E1B_PAGE_SYNC"
    }
   ],
   "linker_set_key" : "_ZTIN4aidl7android8hardware4gnss15GnssMeasurement24$STATE_GAL_E1B_PAGE_SYNCE",
   "name" : "aidl::android::hardware::gnss::GnssMeasurement::(anonymous enum at out/soong/.intermediates/hardware/interfaces/gnss/aidl/android.hardware.gnss-V1-ndk_platform-source/gen/include/aidl/android/hardware/gnss/GnssMeasurement.h:101:3)",
   "referenced_type" : "_ZTIN4aidl7android8hardware4gnss15GnssMeasurement24$STATE_GAL_E1B_PAGE_SYNCE",
   "self_type" : "_ZTIN4aidl7android8hardware4gnss15GnssMeasurement24$STATE_GAL_E1B_PAGE_SYNCE",
   "size" : 4,
   "source_file" : "out/soong/.intermediates/hardware/interfaces/gnss/aidl/android.hardware.gnss-V1-ndk_platform-source/gen/include/aidl/android/hardware/gnss/GnssMeasurement.h",
   "underlying_type" : "_ZTIi"
  },
  {
   "alignment" : 4,
   "enum_fields" :
   [
    {
     "enum_field_value" : 131072,
     "name" : "aidl::android::hardware::gnss::GnssMeasurement::HAS_FULL_ISB_UNCERTAINTY"
    }
   ],
   "linker_set_key" : "_ZTIN4aidl7android8hardware4gnss15GnssMeasurement25$HAS_FULL_ISB_UNCERTAINTYE",
   "name" : "aidl::android::hardware::gnss::GnssMeasurement::(anonymous enum at out/soong/.intermediates/hardware/interfaces/gnss/aidl/android.hardware.gnss-V1-ndk_platform-source/gen/include/aidl/android/hardware/gnss/GnssMeasurement.h:83:3)",
   "referenced_type" : "_ZTIN4aidl7android8hardware4gnss15GnssMeasurement25$HAS_FULL_ISB_UNCERTAINTYE",
   "self_type" : "_ZTIN4aidl7android8hardware4gnss15GnssMeasurement25$HAS_FULL_ISB_UNCERTAINTYE",
   "size" : 4,
   "source_file" : "out/soong/.intermediates/hardware/interfaces/gnss/aidl/android.hardware.gnss-V1-ndk_platform-source/gen/include/aidl/android/hardware/gnss/GnssMeasurement.h",
   "underlying_type" : "_ZTIi"
  },
  {
   "alignment" : 4,
   "enum_fields" :
   [
    {
     "enum_field_value" : 1024,
     "name" : "aidl::android::hardware::gnss::GnssMeasurement::STATE_GAL_E1BC_CODE_LOCK"
    }
   ],
   "linker_set_key" : "_ZTIN4aidl7android8hardware4gnss15GnssMeasurement25$STATE_GAL_E1BC_CODE_LOCKE",
   "name" : "aidl::android::hardware::gnss::GnssMeasurement::(anonymous enum at out/soong/.intermediates/hardware/interfaces/gnss/aidl/android.hardware.gnss-V1-ndk_platform-source/gen/include/aidl/android/hardware/gnss/GnssMeasurement.h:99:3)",
   "referenced_type" : "_ZTIN4aidl7android8hardware4gnss15GnssMeasurement25$STATE_GAL_E1BC_CODE_LOCKE",
   "self_type" : "_ZTIN4aidl7android8hardware4gnss15GnssMeasurement25$STATE_GAL_E1BC_CODE_LOCKE",
   "size" : 4,
   "source_file" : "out/soong/.intermediates/hardware/interfaces/gnss/aidl/android.hardware.gnss-V1-ndk_platform-source/gen/include/aidl/android/hardware/gnss/GnssMeasurement.h",
   "underlying_type" : "_ZTIi"
  },
  {
   "alignment" : 4,
   "enum_fields" :
   [
    {
     "enum_field_value" : 8192,
     "name" : "aidl::android::hardware::gnss::GnssMeasurement::HAS_AUTOMATIC_GAIN_CONTROL"
    }
   ],
   "linker_set_key" : "_ZTIN4aidl7android8hardware4gnss15GnssMeasurement27$HAS_AUTOMATIC_GAIN_CONTROLE",
   "name" : "aidl::android::hardware::gnss::GnssMeasurement::(anonymous enum at out/soong/.intermediates/hardware/interfaces/gnss/aidl/android.hardware.gnss-V1-ndk_platform-source/gen/include/aidl/android/hardware/gnss/GnssMeasurement.h:81:3)",
   "referenced_type" : "_ZTIN4aidl7android8hardware4gnss15GnssMeasurement27$HAS_AUTOMATIC_GAIN_CONTROLE",
   "self_type" : "_ZTIN4aidl7android8hardware4gnss15GnssMeasurement27$HAS_AUTOMATIC_GAIN_CONTROLE",
   "size" : 4,
   "source_file" : "out/soong/.intermediates/hardware/interfaces/gnss/aidl/android.hardware.gnss-V1-ndk_platform-source/gen/include/aidl/android/hardware/gnss/GnssMeasurement.h",
   "underlying_type" : "_ZTIi"
  },
  {
   "alignment" : 4,
   "enum_fields" :
   [
    {
     "enum_field_value" : 512,
     "name" : "aidl::android::hardware::gnss::GnssMeasurement::STATE_BDS_D2_SUBFRAME_SYNC"
    }
   ],
   "linker_set_key" : "_ZTIN4aidl7android8hardware4gnss15GnssMeasurement27$STATE_BDS_D2_SUBFRAME_SYNCE",
   "name" : "aidl::android::hardware::gnss::GnssMeasurement::(anonymous enum at out/soong/.intermediates/hardware/interfaces/gnss/aidl/android.hardware.gnss-V1-ndk_platform-source/gen/include/aidl/android/hardware/gnss/GnssMeasurement.h:98:3)",
   "referenced_type" : "_ZTIN4aidl7android8hardware4gnss15GnssMeasurement27$STATE_BDS_D2_SUBFRAME_SYNCE",
   "self_type" : "_ZTIN4aidl7android8hardware4gnss15GnssMeasurement27$STATE_BDS_D2_SUBFRAME_SYNCE",
   "size" : 4,
   "source_file" : "out/soong/.intermediates/hardware/interfaces/gnss/aidl/android.hardware.gnss-V1-ndk_platform-source/gen/include/aidl/android/hardware/gnss/GnssMeasurement.h",
   "underlying_type" : "_ZTIi"
  },
  {
   "alignment" : 4,
   "enum_fields" :
   [
    {
     "enum_field_value" : 2048,
     "name" : "aidl::android::hardware::gnss::GnssMeasurement::STATE_GAL_E1C_2ND_CODE_LOCK"
    }
   ],
   "linker_set_key" : "_ZTIN4aidl7android8hardware4gnss15GnssMeasurement28$STATE_GAL_E1C_2ND_CODE_LOCKE",
   "name" : "aidl::android::hardware::gnss::GnssMeasurement::(anonymous enum at out/soong/.intermediates/hardware/interfaces/gnss/aidl/android.hardware.gnss-V1-ndk_platform-source/gen/include/aidl/android/hardware/gnss/GnssMeasurement.h:100:3)",
   "referenced_type" : "_ZTIN4aidl7android8hardware4gnss15GnssMeasurement28$STATE_GAL_E1C_2ND_CODE_LOCKE",
   "self_type" : "_ZTIN4aidl7android8hardware4gnss15GnssMeasurement28$STATE_GAL_E1C_2ND_CODE_LOCKE",
   "size" : 4,
   "source_file" : "out/soong/.intermediates/hardware/interfaces/gnss/aidl/android.hardware.gnss-V1-ndk_platform-source/gen/include/aidl/android/hardware/gnss/GnssMeasurement.h",
   "underlying_type" : "_ZTIi"
  },
  {
   "alignment" : 4,
   "enum_fields" :
   [
    {
     "enum_field_value" : 8,
     "name" : "aidl::android::hardware::gnss::GnssMeasurement::ADR_STATE_HALF_CYCLE_RESOLVED"
    }
   ],
   "linker_set_key" : "_ZTIN4aidl7android8hardware4gnss15GnssMeasurement30$ADR_STATE_HALF_CYCLE_RESOLVEDE",
   "name" : "aidl::android::hardware::gnss::GnssMeasurement::(anonymous enum at out/soong/.intermediates/hardware/interfaces/gnss/aidl/android.hardware.gnss-V1-ndk_platform-source/gen/include/aidl/android/hardware/gnss/GnssMeasurement.h:110:3)",
   "referenced_type" : "_ZTIN4aidl7android8hardware4gnss15GnssMeasurement30$ADR_STATE_HALF_CYCLE_RESOLVEDE",
   "self_type" : "_ZTIN4aidl7android8hardware4gnss15GnssMeasurement30$ADR_STATE_HALF_CYCLE_RESOLVEDE",
   "size" : 4,
   "source_file" : "out/soong/.intermediates/hardware/interfaces/gnss/aidl/android.hardware.gnss-V1-ndk_platform-source/gen/include/aidl/android/hardware/gnss/GnssMeasurement.h",
   "underlying_type" : "_ZTIi"
  },
  {
   "alignment" : 4,
   "enum_fields" :
   [
    {
     "enum_field_value" : 4096,
     "name" : "aidl::android::hardware::gnss::GnssMeasurement::HAS_CARRIER_PHASE_UNCERTAINTY"
    }
   ],
   "linker_set_key" : "_ZTIN4aidl7android8hardware4gnss15GnssMeasurement30$HAS_CARRIER_PHASE_UNCERTAINTYE",
   "name" : "aidl::android::hardware::gnss::GnssMeasurement::(anonymous enum at out/soong/.intermediates/hardware/interfaces/gnss/aidl/android.hardware.gnss-V1-ndk_platform-source/gen/include/aidl/android/hardware/gnss/GnssMeasurement.h:80:3)",
   "referenced_type" : "_ZTIN4aidl7android8hardware4gnss15GnssMeasurement30$HAS_CARRIER_PHASE_UNCERTAINTYE",
   "self_type" : "_ZTIN4aidl7android8hardware4gnss15GnssMeasurement30$HAS_CARRIER_PHASE_UNCERTAINTYE",
   "size" : 4,
   "source_file" : "out/soong/.intermediates/hardware/interfaces/gnss/aidl/android.hardware.gnss-V1-ndk_platform-source/gen/include/aidl/android/hardware/gnss/GnssMeasurement.h",
   "underlying_type" : "_ZTIi"
  },
  {
   "alignment" : 4,
   "enum_fields" :
   [
    {
     "enum_field_value" : 524288,
     "name" : "aidl::android::hardware::gnss::GnssMeasurement::HAS_SATELLITE_ISB_UNCERTAINTY"
    }
   ],
   "linker_set_key" : "_ZTIN4aidl7android8hardware4gnss15GnssMeasurement30$HAS_SATELLITE_ISB_UNCERTAINTYE",
   "name" : "aidl::android::hardware::gnss::GnssMeasurement::(anonymous enum at out/soong/.intermediates/hardware/interfaces/gnss/aidl/android.hardware.gnss-V1-ndk_platform-source/gen/include/aidl/android/hardware/gnss/GnssMeasurement.h:85:3)",
   "referenced_type" : "_ZTIN4aidl7android8hardware4gnss15GnssMeasurement30$HAS_SATELLITE_ISB_UNCERTAINTYE",
   "self_type" : "_ZTIN4aidl7android8hardware4gnss15GnssMeasurement30$HAS_SATELLITE_ISB_UNCERTAINTYE",
   "size" : 4,
   "source_file" : "out/soong/.intermediates/hardware/interfaces/gnss/aidl/android.hardware.gnss-V1-ndk_platform-source/gen/include/aidl/android/hardware/gnss/GnssMeasurement.h",
   "underlying_type" : "_ZTIi"
  },
  {
   "alignment" : 4,
   "enum_fields" :
   [
    {
     "enum_field_value" : 1,
     "name" : "aidl::android::hardware::gnss::GnssMeasurement::HAS_SNR"
    }
   ],
   "linker_set_key" : "_ZTIN4aidl7android8hardware4gnss15GnssMeasurement8$HAS_SNRE",
   "name" : "aidl::android::hardware::gnss::GnssMeasurement::(anonymous enum at out/soong/.intermediates/hardware/interfaces/gnss/aidl/android.hardware.gnss-V1-ndk_platform-source/gen/include/aidl/android/hardware/gnss/GnssMeasurement.h:76:3)",
   "referenced_type" : "_ZTIN4aidl7android8hardware4gnss15GnssMeasurement8$HAS_SNRE",
   "self_type" : "_ZTIN4aidl7android8hardware4gnss15GnssMeasurement8$HAS_SNRE",
   "size" : 4,
   "source_file" : "out/soong/.intermediates/hardware/interfaces/gnss/aidl/android.hardware.gnss-V1-ndk_platform-source/gen/include/aidl/android/hardware/gnss/GnssMeasurement.h",
   "underlying_type" : "_ZTIi"
  },
  {
   "alignment" : 4,
   "enum_fields" :
   [
    {
     "enum_field_value" : 2,
     "name" : "aidl::android::hardware::gnss::IGnssConfiguration::SUPL_MODE_MSA"
    }
   ],
   "linker_set_key" : "_ZTIN4aidl7android8hardware4gnss18IGnssConfiguration14$SUPL_MODE_MSAE",
   "name" : "aidl::android::hardware::gnss::IGnssConfiguration::(anonymous enum at out/soong/.intermediates/hardware/interfaces/gnss/aidl/android.hardware.gnss-V1-ndk_platform-source/gen/include/aidl/android/hardware/gnss/IGnssConfiguration.h:26:3)",
   "referenced_type" : "_ZTIN4aidl7android8hardware4gnss18IGnssConfiguration14$SUPL_MODE_MSAE",
   "self_type" : "_ZTIN4aidl7android8hardware4gnss18IGnssConfiguration14$SUPL_MODE_MSAE",
   "size" : 4,
   "source_file" : "out/soong/.intermediates/hardware/interfaces/gnss/aidl/android.hardware.gnss-V1-ndk_platform-source/gen/include/aidl/android/hardware/gnss/IGnssConfiguration.h",
   "underlying_type" : "_ZTIi"
  },
  {
   "alignment" : 4,
   "enum_fields" :
   [
    {
     "enum_field_value" : 1,
     "name" : "aidl::android::hardware::gnss::IGnssConfiguration::SUPL_MODE_MSB"
    }
   ],
   "linker_set_key" : "_ZTIN4aidl7android8hardware4gnss18IGnssConfiguration14$SUPL_MODE_MSBE",
   "name" : "aidl::android::hardware::gnss::IGnssConfiguration::(anonymous enum at out/soong/.intermediates/hardware/interfaces/gnss/aidl/android.hardware.gnss-V1-ndk_platform-source/gen/include/aidl/android/hardware/gnss/IGnssConfiguration.h:25:3)",
   "referenced_type" : "_ZTIN4aidl7android8hardware4gnss18IGnssConfiguration14$SUPL_MODE_MSBE",
   "self_type" : "_ZTIN4aidl7android8hardware4gnss18IGnssConfiguration14$SUPL_MODE_MSBE",
   "size" : 4,
   "source_file" : "out/soong/.intermediates/hardware/interfaces/gnss/aidl/android.hardware.gnss-V1-ndk_platform-source/gen/include/aidl/android/hardware/gnss/IGnssConfiguration.h",
   "underlying_type" : "_ZTIi"
  },
  {
   "alignment" : 4,
   "enum_fields" :
   [
    {
     "enum_field_value" : 1,
     "name" : "aidl::android::hardware::gnss::IGnssConfiguration::LPP_PROFILE_USER_PLANE"
    }
   ],
   "linker_set_key" : "_ZTIN4aidl7android8hardware4gnss18IGnssConfiguration23$LPP_PROFILE_USER_PLANEE",
   "name" : "aidl::android::hardware::gnss::IGnssConfiguration::(anonymous enum at out/soong/.intermediates/hardware/interfaces/gnss/aidl/android.hardware.gnss-V1-ndk_platform-source/gen/include/aidl/android/hardware/gnss/IGnssConfiguration.h:27:3)",
   "referenced_type" : "_ZTIN4aidl7android8hardware4gnss18IGnssConfiguration23$LPP_PROFILE_USER_PLANEE",
   "self_type" : "_ZTIN4aidl7android8hardware4gnss18IGnssConfiguration23$LPP_PROFILE_USER_PLANEE",
   "size" : 4,
   "source_file" : "out/soong/.intermediates/hardware/interfaces/gnss/aidl/android.hardware.gnss-V1-ndk_platform-source/gen/include/aidl/android/hardware/gnss/IGnssConfiguration.h",
   "underlying_type" : "_ZTIi"
  },
  {
   "alignment" : 4,
   "enum_fields" :
   [
    {
     "enum_field_value" : 2,
     "name" : "aidl::android::hardware::gnss::IGnssConfiguration::LPP_PROFILE_CONTROL_PLANE"
    }
   ],
   "linker_set_key" : "_ZTIN4aidl7android8hardware4gnss18IGnssConfiguration26$LPP_PROFILE_CONTROL_PLANEE",
   "name" : "aidl::android::hardware::gnss::IGnssConfiguration::(anonymous enum at out/soong/.intermediates/hardware/interfaces/gnss/aidl/android.hardware.gnss-V1-ndk_platform-source/gen/include/aidl/android/hardware/gnss/IGnssConfiguration.h:28:3)",
   "referenced_type" : "_ZTIN4aidl7android8hardware4gnss18IGnssConfiguration26$LPP_PROFILE_CONTROL_PLANEE",
   "self_type" : "_ZTIN4aidl7android8hardware4gnss18IGnssConfiguration26$LPP_PROFILE_CONTROL_PLANEE",
   "size" : 4,
   "source_file" : "out/soong/.intermediates/hardware/interfaces/gnss/aidl/android.hardware.gnss-V1-ndk_platform-source/gen/include/aidl/android/hardware/gnss/IGnssConfiguration.h",
   "underlying_type" : "_ZTIi"
  },
  {
   "alignment" : 4,
   "enum_fields" :
   [
    {
     "enum_field_value" : 4,
     "name" : "aidl::android::hardware::gnss::IGnssConfiguration::GLONASS_POS_PROTOCOL_LPP_UPLANE"
    }
   ],
   "linker_set_key" : "_ZTIN4aidl7android8hardware4gnss18IGnssConfiguration32$GLONASS_POS_PROTOCOL_LPP_UPLANEE",
   "name" : "aidl::android::hardware::gnss::IGnssConfiguration::(anonymous enum at out/soong/.intermediates/hardware/interfaces/gnss/aidl/android.hardware.gnss-V1-ndk_platform-source/gen/include/aidl/android/hardware/gnss/IGnssConfiguration.h:31:3)",
   "referenced_type" : "_ZTIN4aidl7android8hardware4gnss18IGnssConfiguration32$GLONASS_POS_PROTOCOL_LPP_UPLANEE",
   "self_type" : "_ZTIN4aidl7android8hardware4gnss18IGnssConfiguration32$GLONASS_POS_PROTOCOL_LPP_UPLANEE",
   "size" : 4,
   "source_file" : "out/soong/.intermediates/hardware/interfaces/gnss/aidl/android.hardware.gnss-V1-ndk_platform-source/gen/include/aidl/android/hardware/gnss/IGnssConfiguration.h",
   "underlying_type" : "_ZTIi"
  },
  {
   "alignment" : 4,
   "enum_fields" :
   [
    {
     "enum_field_value" : 1,
     "name" : "aidl::android::hardware::gnss::IGnssConfiguration::GLONASS_POS_PROTOCOL_RRC_CPLANE"
    }
   ],
   "linker_set_key" : "_ZTIN4aidl7android8hardware4gnss18IGnssConfiguration32$GLONASS_POS_PROTOCOL_RRC_CPLANEE",
   "name" : "aidl::android::hardware::gnss::IGnssConfiguration::(anonymous enum at out/soong/.intermediates/hardware/interfaces/gnss/aidl/android.hardware.gnss-V1-ndk_platform-source/gen/include/aidl/android/hardware/gnss/IGnssConfiguration.h:29:3)",
   "referenced_type" : "_ZTIN4aidl7android8hardware4gnss18IGnssConfiguration32$GLONASS_POS_PROTOCOL_RRC_CPLANEE",
   "self_type" : "_ZTIN4aidl7android8hardware4gnss18IGnssConfiguration32$GLONASS_POS_PROTOCOL_RRC_CPLANEE",
   "size" : 4,
   "source_file" : "out/soong/.intermediates/hardware/interfaces/gnss/aidl/android.hardware.gnss-V1-ndk_platform-source/gen/include/aidl/android/hardware/gnss/IGnssConfiguration.h",
   "underlying_type" : "_ZTIi"
  },
  {
   "alignment" : 4,
   "enum_fields" :
   [
    {
     "enum_field_value" : 2,
     "name" : "aidl::android::hardware::gnss::IGnssConfiguration::GLONASS_POS_PROTOCOL_RRLP_UPLANE"
    }
   ],
   "linker_set_key" : "_ZTIN4aidl7android8hardware4gnss18IGnssConfiguration33$GLONASS_POS_PROTOCOL_RRLP_UPLANEE",
   "name" : "aidl::android::hardware::gnss::IGnssConfiguration::(anonymous enum at out/soong/.intermediates/hardware/interfaces/gnss/aidl/android.hardware.gnss-V1-ndk_platform-source/gen/include/aidl/android/hardware/gnss/IGnssConfiguration.h:30:3)",
   "referenced_type" : "_ZTIN4aidl7android8hardware4gnss18IGnssConfiguration33$GLONASS_POS_PROTOCOL_RRLP_UPLANEE",
   "self_type" : "_ZTIN4aidl7android8hardware4gnss18IGnssConfiguration33$GLONASS_POS_PROTOCOL_RRLP_UPLANEE",
   "size" : 4,
   "source_file" : "out/soong/.intermediates/hardware/interfaces/gnss/aidl/android.hardware.gnss-V1-ndk_platform-source/gen/include/aidl/android/hardware/gnss/IGnssConfiguration.h",
   "underlying_type" : "_ZTIi"
  },
  {
   "alignment" : 4,
   "enum_fields" :
   [
    {
     "enum_field_value" : 0,
     "name" : "aidl::android::hardware::gnss::GnssConstellationType::UNKNOWN"
    },
    {
     "enum_field_value" : 1,
     "name" : "aidl::android::hardware::gnss::GnssConstellationType::GPS"
    },
    {
     "enum_field_value" : 2,
     "name" : "aidl::android::hardware::gnss::GnssConstellationType::SBAS"
    },
    {
     "enum_field_value" : 3,
     "name" : "aidl::android::hardware::gnss::GnssConstellationType::GLONASS"
    },
    {
     "enum_field_value" : 4,
     "name" : "aidl::android::hardware::gnss::GnssConstellationType::QZSS"
    },
    {
     "enum_field_value" : 5,
     "name" : "aidl::android::hardware::gnss::GnssConstellationType::BEIDOU"
    },
    {
     "enum_field_value" : 6,
     "name" : "aidl::android::hardware::gnss::GnssConstellationType::GALILEO"
    },
    {
     "enum_field_value" : 7,
     "name" : "aidl::android::hardware::gnss::GnssConstellationType::IRNSS"
    }
   ],
   "linker_set_key" : "_ZTIN4aidl7android8hardware4gnss21GnssConstellationTypeE",
   "name" : "aidl::android::hardware::gnss::GnssConstellationType",
   "referenced_type" : "_ZTIN4aidl7android8hardware4gnss21GnssConstellationTypeE",
   "self_type" : "_ZTIN4aidl7android8hardware4gnss21GnssConstellationTypeE",
   "size" : 4,
   "source_file" : "out/soong/.intermediates/hardware/interfaces/gnss/aidl/android.hardware.gnss-V1-ndk_platform-source/gen/include/aidl/android/hardware/gnss/GnssConstellationType.h",
   "underlying_type" : "_ZTIi"
  },
  {
   "alignment" : 4,
   "enum_fields" :
   [
    {
     "enum_field_value" : 0,
     "name" : "aidl::android::hardware::gnss::GnssMultipathIndicator::UNKNOWN"
    },
    {
     "enum_field_value" : 1,
     "name" : "aidl::android::hardware::gnss::GnssMultipathIndicator::PRESENT"
    },
    {
     "enum_field_value" : 2,
     "name" : "aidl::android::hardware::gnss::GnssMultipathIndicator::NOT_PRESENT"
    }
   ],
   "linker_set_key" : "_ZTIN4aidl7android8hardware4gnss22GnssMultipathIndicatorE",
   "name" : "aidl::android::hardware::gnss::GnssMultipathIndicator",
   "referenced_type" : "_ZTIN4aidl7android8hardware4gnss22GnssMultipathIndicatorE",
   "self_type" : "_ZTIN4aidl7android8hardware4gnss22GnssMultipathIndicatorE",
   "size" : 4,
   "source_file" : "out/soong/.intermediates/hardware/interfaces/gnss/aidl/android.hardware.gnss-V1-ndk_platform-source/gen/include/aidl/android/hardware/gnss/GnssMultipathIndicator.h",
   "underlying_type" : "_ZTIi"
  },
  {
   "alignment" : 4,
   "enum_fields" :
   [
    {
     "enum_field_value" : 1,
     "name" : "aidl::android::hardware::gnss::IGnssPowerIndicationCallback::CAPABILITY_TOTAL"
    }
   ],
   "linker_set_key" : "_ZTIN4aidl7android8hardware4gnss28IGnssPowerIndicationCallback17$CAPABILITY_TOTALE",
   "name" : "aidl::android::hardware::gnss::IGnssPowerIndicationCallback::(anonymous enum at out/soong/.intermediates/hardware/interfaces/gnss/aidl/android.hardware.gnss-V1-ndk_platform-source/gen/include/aidl/android/hardware/gnss/IGnssPowerIndicationCallback.h:25:3)",
   "referenced_type" : "_ZTIN4aidl7android8hardware4gnss28IGnssPowerIndicationCallback17$CAPABILITY_TOTALE",
   "self_type" : "_ZTIN4aidl7android8hardware4gnss28IGnssPowerIndicationCallback17$CAPABILITY_TOTALE",
   "size" : 4,
   "source_file" : "out/soong/.intermediates/hardware/interfaces/gnss/aidl/android.hardware.gnss-V1-ndk_platform-source/gen/include/aidl/android/hardware/gnss/IGnssPowerIndicationCallback.h",
   "underlying_type" : "_ZTIi"
  },
  {
   "alignment" : 4,
   "enum_fields" :
   [
    {
     "enum_field_value" : 32,
     "name" : "aidl::android::hardware::gnss::IGnssPowerIndicationCallback::CAPABILITY_OTHER_MODES"
    }
   ],
   "linker_set_key" : "_ZTIN4aidl7android8hardware4gnss28IGnssPowerIndicationCallback23$CAPABILITY_OTHER_MODESE",
   "name" : "aidl::android::hardware::gnss::IGnssPowerIndicationCallback::(anonymous enum at out/soong/.intermediates/hardware/interfaces/gnss/aidl/android.hardware.gnss-V1-ndk_platform-source/gen/include/aidl/android/hardware/gnss/IGnssPowerIndicationCallback.h:30:3)",
   "referenced_type" : "_ZTIN4aidl7android8hardware4gnss28IGnssPowerIndicationCallback23$CAPABILITY_OTHER_MODESE",
   "self_type" : "_ZTIN4aidl7android8hardware4gnss28IGnssPowerIndicationCallback23$CAPABILITY_OTHER_MODESE",
   "size" : 4,
   "source_file" : "out/soong/.intermediates/hardware/interfaces/gnss/aidl/android.hardware.gnss-V1-ndk_platform-source/gen/include/aidl/android/hardware/gnss/IGnssPowerIndicationCallback.h",
   "underlying_type" : "_ZTIi"
  },
  {
   "alignment" : 4,
   "enum_fields" :
   [
    {
     "enum_field_value" : 4,
     "name" : "aidl::android::hardware::gnss::IGnssPowerIndicationCallback::CAPABILITY_MULTIBAND_TRACKING"
    }
   ],
   "linker_set_key" : "_ZTIN4aidl7android8hardware4gnss28IGnssPowerIndicationCallback30$CAPABILITY_MULTIBAND_TRACKINGE",
   "name" : "aidl::android::hardware::gnss::IGnssPowerIndicationCallback::(anonymous enum at out/soong/.intermediates/hardware/interfaces/gnss/aidl/android.hardware.gnss-V1-ndk_platform-source/gen/include/aidl/android/hardware/gnss/IGnssPowerIndicationCallback.h:27:3)",
   "referenced_type" : "_ZTIN4aidl7android8hardware4gnss28IGnssPowerIndicationCallback30$CAPABILITY_MULTIBAND_TRACKINGE",
   "self_type" : "_ZTIN4aidl7android8hardware4gnss28IGnssPowerIndicationCallback30$CAPABILITY_MULTIBAND_TRACKINGE",
   "size" : 4,
   "source_file" : "out/soong/.intermediates/hardware/interfaces/gnss/aidl/android.hardware.gnss-V1-ndk_platform-source/gen/include/aidl/android/hardware/gnss/IGnssPowerIndicationCallback.h",
   "underlying_type" : "_ZTIi"
  },
  {
   "alignment" : 4,
   "enum_fields" :
   [
    {
     "enum_field_value" : 2,
     "name" : "aidl::android::hardware::gnss::IGnssPowerIndicationCallback::CAPABILITY_SINGLEBAND_TRACKING"
    }
   ],
   "linker_set_key" : "_ZTIN4aidl7android8hardware4gnss28IGnssPowerIndicationCallback31$CAPABILITY_SINGLEBAND_TRACKINGE",
   "name" : "aidl::android::hardware::gnss::IGnssPowerIndicationCallback::(anonymous enum at out/soong/.intermediates/hardware/interfaces/gnss/aidl/android.hardware.gnss-V1-ndk_platform-source/gen/include/aidl/android/hardware/gnss/IGnssPowerIndicationCallback.h:26:3)",
   "referenced_type" : "_ZTIN4aidl7android8hardware4gnss28IGnssPowerIndicationCallback31$CAPABILITY_SINGLEBAND_TRACKINGE",
   "self_type" : "_ZTIN4aidl7android8hardware4gnss28IGnssPowerIndicationCallback31$CAPABILITY_SINGLEBAND_TRACKINGE",
   "size" : 4,
   "source_file" : "out/soong/.intermediates/hardware/interfaces/gnss/aidl/android.hardware.gnss-V1-ndk_platform-source/gen/include/aidl/android/hardware/gnss/IGnssPowerIndicationCallback.h",
   "underlying_type" : "_ZTIi"
  },
  {
   "alignment" : 4,
   "enum_fields" :
   [
    {
     "enum_field_value" : 16,
     "name" : "aidl::android::hardware::gnss::IGnssPowerIndicationCallback::CAPABILITY_MULTIBAND_ACQUISITION"
    }
   ],
   "linker_set_key" : "_ZTIN4aidl7android8hardware4gnss28IGnssPowerIndicationCallback33$CAPABILITY_MULTIBAND_ACQUISITIONE",
   "name" : "aidl::android::hardware::gnss::IGnssPowerIndicationCallback::(anonymous enum at out/soong/.intermediates/hardware/interfaces/gnss/aidl/android.hardware.gnss-V1-ndk_platform-source/gen/include/aidl/android/hardware/gnss/IGnssPowerIndicationCallback.h:29:3)",
   "referenced_type" : "_ZTIN4aidl7android8hardware4gnss28IGnssPowerIndicationCallback33$CAPABILITY_MULTIBAND_ACQUISITIONE",
   "self_type" : "_ZTIN4aidl7android8hardware4gnss28IGnssPowerIndicationCallback33$CAPABILITY_MULTIBAND_ACQUISITIONE",
   "size" : 4,
   "source_file" : "out/soong/.intermediates/hardware/interfaces/gnss/aidl/android.hardware.gnss-V1-ndk_platform-source/gen/include/aidl/android/hardware/gnss/IGnssPowerIndicationCallback.h",
   "underlying_type" : "_ZTIi"
  },
  {
   "alignment" : 4,
   "enum_fields" :
   [
    {
     "enum_field_value" : 8,
     "name" : "aidl::android::hardware::gnss::IGnssPowerIndicationCallback::CAPABILITY_SINGLEBAND_ACQUISITION"
    }
   ],
   "linker_set_key" : "_ZTIN4aidl7android8hardware4gnss28IGnssPowerIndicationCallback34$CAPABILITY_SINGLEBAND_ACQUISITIONE",
   "name" : "aidl::android::hardware::gnss::IGnssPowerIndicationCallback::(anonymous enum at out/soong/.intermediates/hardware/interfaces/gnss/aidl/android.hardware.gnss-V1-ndk_platform-source/gen/include/aidl/android/hardware/gnss/IGnssPowerIndicationCallback.h:28:3)",
   "referenced_type" : "_ZTIN4aidl7android8hardware4gnss28IGnssPowerIndicationCallback34$CAPABILITY_SINGLEBAND_ACQUISITIONE",
   "self_type" : "_ZTIN4aidl7android8hardware4gnss28IGnssPowerIndicationCallback34$CAPABILITY_SINGLEBAND_ACQUISITIONE",
   "size" : 4,
   "source_file" : "out/soong/.intermediates/hardware/interfaces/gnss/aidl/android.hardware.gnss-V1-ndk_platform-source/gen/include/aidl/android/hardware/gnss/IGnssPowerIndicationCallback.h",
   "underlying_type" : "_ZTIi"
  },
  {
   "alignment" : 4,
   "enum_fields" :
   [
    {
     "enum_field_value" : 3,
     "name" : "aidl::android::hardware::gnss::IGnss::ERROR_GENERIC"
    }
   ],
   "linker_set_key" : "_ZTIN4aidl7android8hardware4gnss5IGnss14$ERROR_GENERICE",
   "name" : "aidl::android::hardware::gnss::IGnss::(anonymous enum at out/soong/.intermediates/hardware/interfaces/gnss/aidl/android.hardware.gnss-V1-ndk_platform-source/gen/include/aidl/android/hardware/gnss/IGnss.h:31:3)",
   "referenced_type" : "_ZTIN4aidl7android8hardware4gnss5IGnss14$ERROR_GENERICE",
   "self_type" : "_ZTIN4aidl7android8hardware4gnss5IGnss14$ERROR_GENERICE",
   "size" : 4,
   "source_file" : "out/soong/.intermediates/hardware/interfaces/gnss/aidl/android.hardware.gnss-V1-ndk_platform-source/gen/include/aidl/android/hardware/gnss/IGnss.h",
   "underlying_type" : "_ZTIi"
  },
  {
   "alignment" : 4,
   "enum_fields" :
   [
    {
     "enum_field_value" : 2,
     "name" : "aidl::android::hardware::gnss::IGnss::ERROR_ALREADY_INIT"
    }
   ],
   "linker_set_key" : "_ZTIN4aidl7android8hardware4gnss5IGnss19$ERROR_ALREADY_INITE",
   "name" : "aidl::android::hardware::gnss::IGnss::(anonymous enum at out/soong/.intermediates/hardware/interfaces/gnss/aidl/android.hardware.gnss-V1-ndk_platform-source/gen/include/aidl/android/hardware/gnss/IGnss.h:30:3)",
   "referenced_type" : "_ZTIN4aidl7android8hardware4gnss5IGnss19$ERROR_ALREADY_INITE",
   "self_type" : "_ZTIN4aidl7android8hardware4gnss5IGnss19$ERROR_ALREADY_INITE",
   "size" : 4,
   "source_file" : "out/soong/.intermediates/hardware/interfaces/gnss/aidl/android.hardware.gnss-V1-ndk_platform-source/gen/include/aidl/android/hardware/gnss/IGnss.h",
   "underlying_type" : "_ZTIi"
  },
  {
   "alignment" : 4,
   "enum_fields" :
   [
    {
     "enum_field_value" : 1,
     "name" : "aidl::android::hardware::gnss::IGnss::ERROR_INVALID_ARGUMENT"
    }
   ],
   "linker_set_key" : "_ZTIN4aidl7android8hardware4gnss5IGnss23$ERROR_INVALID_ARGUMENTE",
   "name" : "aidl::android::hardware::gnss::IGnss::(anonymous enum at out/soong/.intermediates/hardware/interfaces/gnss/aidl/android.hardware.gnss-V1-ndk_platform-source/gen/include/aidl/android/hardware/gnss/IGnss.h:29:3)",
   "referenced_type" : "_ZTIN4aidl7android8hardware4gnss5IGnss23$ERROR_INVALID_ARGUMENTE",
   "self_type" : "_ZTIN4aidl7android8hardware4gnss5IGnss23$ERROR_INVALID_ARGUMENTE",
   "size" : 4,
   "source_file" : "out/soong/.intermediates/hardware/interfaces/gnss/aidl/android.hardware.gnss-V1-ndk_platform-source/gen/include/aidl/android/hardware/gnss/IGnss.h",
   "underlying_type" : "_ZTIi"
  },
  {
   "alignment" : 4,
   "enum_fields" :
   [
    {
     "enum_field_value" : 1,
     "name" : "aidl::android::hardware::gnss::PsdsType::LONG_TERM"
    },
    {
     "enum_field_value" : 2,
     "name" : "aidl::android::hardware::gnss::PsdsType::NORMAL"
    },
    {
     "enum_field_value" : 3,
     "name" : "aidl::android::hardware::gnss::PsdsType::REALTIME"
    }
   ],
   "linker_set_key" : "_ZTIN4aidl7android8hardware4gnss8PsdsTypeE",
   "name" : "aidl::android::hardware::gnss::PsdsType",
   "referenced_type" : "_ZTIN4aidl7android8hardware4gnss8PsdsTypeE",
   "self_type" : "_ZTIN4aidl7android8hardware4gnss8PsdsTypeE",
   "size" : 4,
   "source_file" : "out/soong/.intermediates/hardware/interfaces/gnss/aidl/android.hardware.gnss-V1-ndk_platform-source/gen/include/aidl/android/hardware/gnss/PsdsType.h",
   "underlying_type" : "_ZTIi"
  },
  {
   "alignment" : 4,
   "enum_fields" :
   [
    {
     "enum_field_value" : 32,
     "name" : "aidl::android::hardware::gnss::GnssClock::HAS_DRIFT"
    }
   ],
   "linker_set_key" : "_ZTIN4aidl7android8hardware4gnss9GnssClock10$HAS_DRIFTE",
   "name" : "aidl::android::hardware::gnss::GnssClock::(anonymous enum at out/soong/.intermediates/hardware/interfaces/gnss/aidl/android.hardware.gnss-V1-ndk_platform-source/gen/include/aidl/android/hardware/gnss/GnssClock.h:63:3)",
   "referenced_type" : "_ZTIN4aidl7android8hardware4gnss9GnssClock10$HAS_DRIFTE",
   "self_type" : "_ZTIN4aidl7android8hardware4gnss9GnssClock10$HAS_DRIFTE",
   "size" : 4,
   "source_file" : "out/soong/.intermediates/hardware/interfaces/gnss/aidl/android.hardware.gnss-V1-ndk_platform-source/gen/include/aidl/android/hardware/gnss/GnssClock.h",
   "underlying_type" : "_ZTIi"
  },
  {
   "alignment" : 4,
   "enum_fields" :
   [
    {
     "enum_field_value" : 4,
     "name" : "aidl::android::hardware::gnss::GnssClock::HAS_FULL_BIAS"
    }
   ],
   "linker_set_key" : "_ZTIN4aidl7android8hardware4gnss9GnssClock14$HAS_FULL_BIASE",
   "name" : "aidl::android::hardware::gnss::GnssClock::(anonymous enum at out/soong/.intermediates/hardware/interfaces/gnss/aidl/android.hardware.gnss-V1-ndk_platform-source/gen/include/aidl/android/hardware/gnss/GnssClock.h:60:3)",
   "referenced_type" : "_ZTIN4aidl7android8hardware4gnss9GnssClock14$HAS_FULL_BIASE",
   "self_type" : "_ZTIN4aidl7android8hardware4gnss9GnssClock14$HAS_FULL_BIASE",
   "size" : 4,
   "source_file" : "out/soong/.intermediates/hardware/interfaces/gnss/aidl/android.hardware.gnss-V1-ndk_platform-source/gen/include/aidl/android/hardware/gnss/GnssClock.h",
   "underlying_type" : "_ZTIi"
  },
  {
   "alignment" : 4,
   "enum_fields" :
   [
    {
     "enum_field_value" : 1,
     "name" : "aidl::android::hardware::gnss::GnssClock::HAS_LEAP_SECOND"
    }
   ],
   "linker_set_key" : "_ZTIN4aidl7android8hardware4gnss9GnssClock16$HAS_LEAP_SECONDE",
   "name" : "aidl::android::hardware::gnss::GnssClock::(anonymous enum at out/soong/.intermediates/hardware/interfaces/gnss/aidl/android.hardware.gnss-V1-ndk_platform-source/gen/include/aidl/android/hardware/gnss/GnssClock.h:58:3)",
   "referenced_type" : "_ZTIN4aidl7android8hardware4gnss9GnssClock16$HAS_LEAP_SECONDE",
   "self_type" : "_ZTIN4aidl7android8hardware4gnss9GnssClock16$HAS_LEAP_SECONDE",
   "size" : 4,
   "source_file" : "out/soong/.intermediates/hardware/interfaces/gnss/aidl/android.hardware.gnss-V1-ndk_platform-source/gen/include/aidl/android/hardware/gnss/GnssClock.h",
   "underlying_type" : "_ZTIi"
  },
  {
   "alignment" : 4,
   "enum_fields" :
   [
    {
     "enum_field_value" : 16,
     "name" : "aidl::android::hardware::gnss::GnssClock::HAS_BIAS_UNCERTAINTY"
    }
   ],
   "linker_set_key" : "_ZTIN4aidl7android8hardware4gnss9GnssClock21$HAS_BIAS_UNCERTAINTYE",
   "name" : "aidl::android::hardware::gnss::GnssClock::(anonymous enum at out/soong/.intermediates/hardware/interfaces/gnss/aidl/android.hardware.gnss-V1-ndk_platform-source/gen/include/aidl/android/hardware/gnss/GnssClock.h:62:3)",
   "referenced_type" : "_ZTIN4aidl7android8hardware4gnss9GnssClock21$HAS_BIAS_UNCERTAINTYE",
   "self_type" : "_ZTIN4aidl7android8hardware4gnss9GnssClock21$HAS_BIAS_UNCERTAINTYE",
   "size" : 4,
   "source_file" : "out/soong/.intermediates/hardware/interfaces/gnss/aidl/android.hardware.gnss-V1-ndk_platform-source/gen/include/aidl/android/hardware/gnss/GnssClock.h",
   "underlying_type" : "_ZTIi"
  },
  {
   "alignment" : 4,
   "enum_fields" :
   [
    {
     "enum_field_value" : 2,
     "name" : "aidl::android::hardware::gnss::GnssClock::HAS_TIME_UNCERTAINTY"
    }
   ],
   "linker_set_key" : "_ZTIN4aidl7android8hardware4gnss9GnssClock21$HAS_TIME_UNCERTAINTYE",
   "name" : "aidl::android::hardware::gnss::GnssClock::(anonymous enum at out/soong/.intermediates/hardware/interfaces/gnss/aidl/android.hardware.gnss-V1-ndk_platform-source/gen/include/aidl/android/hardware/gnss/GnssClock.h:59:3)",
   "referenced_type" : "_ZTIN4aidl7android8hardware4gnss9GnssClock21$HAS_TIME_UNCERTAINTYE",
   "self_type" : "_ZTIN4aidl7android8hardware4gnss9GnssClock21$HAS_TIME_UNCERTAINTYE",
   "size" : 4,
   "source_file" : "out/soong/.intermediates/hardware/interfaces/gnss/aidl/android.hardware.gnss-V1-ndk_platform-source/gen/include/aidl/android/hardware/gnss/GnssClock.h",
   "underlying_type" : "_ZTIi"
  },
  {
   "alignment" : 4,
   "enum_fields" :
   [
    {
     "enum_field_value" : 64,
     "name" : "aidl::android::hardware::gnss::GnssClock::HAS_DRIFT_UNCERTAINTY"
    }
   ],
   "linker_set_key" : "_ZTIN4aidl7android8hardware4gnss9GnssClock22$HAS_DRIFT_UNCERTAINTYE",
   "name" : "aidl::android::hardware::gnss::GnssClock::(anonymous enum at out/soong/.intermediates/hardware/interfaces/gnss/aidl/android.hardware.gnss-V1-ndk_platform-source/gen/include/aidl/android/hardware/gnss/GnssClock.h:64:3)",
   "referenced_type" : "_ZTIN4aidl7android8hardware4gnss9GnssClock22$HAS_DRIFT_UNCERTAINTYE",
   "self_type" : "_ZTIN4aidl7android8hardware4gnss9GnssClock22$HAS_DRIFT_UNCERTAINTYE",
   "size" : 4,
   "source_file" : "out/soong/.intermediates/hardware/interfaces/gnss/aidl/android.hardware.gnss-V1-ndk_platform-source/gen/include/aidl/android/hardware/gnss/GnssClock.h",
   "underlying_type" : "_ZTIi"
  },
  {
   "alignment" : 4,
   "enum_fields" :
   [
    {
     "enum_field_value" : 8,
     "name" : "aidl::android::hardware::gnss::GnssClock::HAS_BIAS"
    }
   ],
   "linker_set_key" : "_ZTIN4aidl7android8hardware4gnss9GnssClock9$HAS_BIASE",
   "name" : "aidl::android::hardware::gnss::GnssClock::(anonymous enum at out/soong/.intermediates/hardware/interfaces/gnss/aidl/android.hardware.gnss-V1-ndk_platform-source/gen/include/aidl/android/hardware/gnss/GnssClock.h:61:3)",
   "referenced_type" : "_ZTIN4aidl7android8hardware4gnss9GnssClock9$HAS_BIASE",
   "self_type" : "_ZTIN4aidl7android8hardware4gnss9GnssClock9$HAS_BIASE",
   "size" : 4,
   "source_file" : "out/soong/.intermediates/hardware/interfaces/gnss/aidl/android.hardware.gnss-V1-ndk_platform-source/gen/include/aidl/android/hardware/gnss/GnssClock.h",
   "underlying_type" : "_ZTIi"
  },
  {
   "alignment" : 4,
   "enum_fields" :
   [
    {
     "enum_field_value" : 1,
     "name" : "android::internal::details::IsIterable<std::__1::vector<aidl::android::hardware::gnss::GnssMeasurement, std::__1::allocator<aidl::android::hardware::gnss::GnssMeasurement>>>::value"
    }
   ],
   "linker_set_key" : "_ZTIN7android8internal7details10IsIterableINSt3__16vectorIN4aidl7android8hardware4gnss15GnssMeasurementENS3_9allocatorIS9_EEEEE6$valueE",
   "name" : "android::internal::details::IsIterable<vector<GnssMeasurement, allocator<GnssMeasurement>>>::(anonymous enum at frameworks/native/libs/binder/ndk/include_cpp/android/binder_to_string.h:131:5)",
   "referenced_type" : "_ZTIN7android8internal7details10IsIterableINSt3__16vectorIN4aidl7android8hardware4gnss15GnssMeasurementENS3_9allocatorIS9_EEEEE6$valueE",
   "self_type" : "_ZTIN7android8internal7details10IsIterableINSt3__16vectorIN4aidl7android8hardware4gnss15GnssMeasurementENS3_9allocatorIS9_EEEEE6$valueE",
   "size" : 4,
   "source_file" : "frameworks/native/libs/binder/ndk/include_cpp/android/binder_to_string.h",
   "underlying_type" : "_ZTIj"
  },
  {
   "alignment" : 4,
   "enum_fields" :
   [
    {
     "enum_field_value" : 1,
     "name" : "android::internal::details::IsIterable<std::__1::vector<aidl::android::hardware::gnss::CorrelationVector, std::__1::allocator<aidl::android::hardware::gnss::CorrelationVector>>>::value"
    }
   ],
   "linker_set_key" : "_ZTIN7android8internal7details10IsIterableINSt3__16vectorIN4aidl7android8hardware4gnss17CorrelationVectorENS3_9allocatorIS9_EEEEE6$valueE",
   "name" : "android::internal::details::IsIterable<vector<CorrelationVector, allocator<CorrelationVector>>>::(anonymous enum at frameworks/native/libs/binder/ndk/include_cpp/android/binder_to_string.h:131:5)",
   "referenced_type" : "_ZTIN7android8internal7details10IsIterableINSt3__16vectorIN4aidl7android8hardware4gnss17CorrelationVectorENS3_9allocatorIS9_EEEEE6$valueE",
   "self_type" : "_ZTIN7android8internal7details10IsIterableINSt3__16vectorIN4aidl7android8hardware4gnss17CorrelationVectorENS3_9allocatorIS9_EEEEE6$valueE",
   "size" : 4,
   "source_file" : "frameworks/native/libs/binder/ndk/include_cpp/android/binder_to_string.h",
   "underlying_type" : "_ZTIj"
  },
  {
   "alignment" : 4,
   "enum_fields" :
   [
    {
     "enum_field_value" : 1,
     "name" : "android::internal::details::IsIterable<std::__1::vector<double, std::__1::allocator<double>>>::value"
    }
   ],
   "linker_set_key" : "_ZTIN7android8internal7details10IsIterableINSt3__16vectorIdNS3_9allocatorIdEEEEE6$valueE",
   "name" : "android::internal::details::IsIterable<vector<double, allocator<double>>>::(anonymous enum at frameworks/native/libs/binder/ndk/include_cpp/android/binder_to_string.h:131:5)",
   "referenced_type" : "_ZTIN7android8internal7details10IsIterableINSt3__16vectorIdNS3_9allocatorIdEEEEE6$valueE",
   "self_type" : "_ZTIN7android8internal7details10IsIterableINSt3__16vectorIdNS3_9allocatorIdEEEEE6$valueE",
   "size" : 4,
   "source_file" : "frameworks/native/libs/binder/ndk/include_cpp/android/binder_to_string.h",
   "underlying_type" : "_ZTIj"
  },
  {
   "alignment" : 4,
   "enum_fields" :
   [
    {
     "enum_field_value" : 1,
     "name" : "android::internal::details::IsIterable<std::__1::vector<int, std::__1::allocator<int>>>::value"
    }
   ],
   "linker_set_key" : "_ZTIN7android8internal7details10IsIterableINSt3__16vectorIiNS3_9allocatorIiEEEEE6$valueE",
   "name" : "android::internal::details::IsIterable<vector<int, allocator<int>>>::(anonymous enum at frameworks/native/libs/binder/ndk/include_cpp/android/binder_to_string.h:131:5)",
   "referenced_type" : "_ZTIN7android8internal7details10IsIterableINSt3__16vectorIiNS3_9allocatorIiEEEEE6$valueE",
   "self_type" : "_ZTIN7android8internal7details10IsIterableINSt3__16vectorIiNS3_9allocatorIiEEEEE6$valueE",
   "size" : 4,
   "source_file" : "frameworks/native/libs/binder/ndk/include_cpp/android/binder_to_string.h",
   "underlying_type" : "_ZTIj"
  },
  {
   "alignment" : 4,
   "enum_fields" :
   [
    {
     "enum_field_value" : 0,
     "name" : "android::internal::details::IsPointerLike<aidl::android::hardware::gnss::SatellitePvt>::value"
    }
   ],
   "linker_set_key" : "_ZTIN7android8internal7details13IsPointerLikeIN4aidl7android8hardware4gnss12SatellitePvtEE6$valueE",
   "name" : "android::internal::details::IsPointerLike<SatellitePvt>::(anonymous enum at frameworks/native/libs/binder/ndk/include_cpp/android/binder_to_string.h:118:5)",
   "referenced_type" : "_ZTIN7android8internal7details13IsPointerLikeIN4aidl7android8hardware4gnss12SatellitePvtEE6$valueE",
   "self_type" : "_ZTIN7android8internal7details13IsPointerLikeIN4aidl7android8hardware4gnss12SatellitePvtEE6$valueE",
   "size" : 4,
   "source_file" : "frameworks/native/libs/binder/ndk/include_cpp/android/binder_to_string.h",
   "underlying_type" : "_ZTIj"
  },
  {
   "alignment" : 4,
   "enum_fields" :
   [
    {
     "enum_field_value" : 0,
     "name" : "android::internal::details::IsPointerLike<aidl::android::hardware::gnss::GnssSignalType>::value"
    }
   ],
   "linker_set_key" : "_ZTIN7android8internal7details13IsPointerLikeIN4aidl7android8hardware4gnss14GnssSignalTypeEE6$valueE",
   "name" : "android::internal::details::IsPointerLike<GnssSignalType>::(anonymous enum at frameworks/native/libs/binder/ndk/include_cpp/android/binder_to_string.h:118:5)",
   "referenced_type" : "_ZTIN7android8internal7details13IsPointerLikeIN4aidl7android8hardware4gnss14GnssSignalTypeEE6$valueE",
   "self_type" : "_ZTIN7android8internal7details13IsPointerLikeIN4aidl7android8hardware4gnss14GnssSignalTypeEE6$valueE",
   "size" : 4,
   "source_file" : "frameworks/native/libs/binder/ndk/include_cpp/android/binder_to_string.h",
   "underlying_type" : "_ZTIj"
  },
  {
   "alignment" : 4,
   "enum_fields" :
   [
    {
     "enum_field_value" : 0,
     "name" : "android::internal::details::IsPointerLike<aidl::android::hardware::gnss::ElapsedRealtime>::value"
    }
   ],
   "linker_set_key" : "_ZTIN7android8internal7details13IsPointerLikeIN4aidl7android8hardware4gnss15ElapsedRealtimeEE6$valueE",
   "name" : "android::internal::details::IsPointerLike<ElapsedRealtime>::(anonymous enum at frameworks/native/libs/binder/ndk/include_cpp/android/binder_to_string.h:118:5)",
   "referenced_type" : "_ZTIN7android8internal7details13IsPointerLikeIN4aidl7android8hardware4gnss15ElapsedRealtimeEE6$valueE",
   "self_type" : "_ZTIN7android8internal7details13IsPointerLikeIN4aidl7android8hardware4gnss15ElapsedRealtimeEE6$valueE",
   "size" : 4,
   "source_file" : "frameworks/native/libs/binder/ndk/include_cpp/android/binder_to_string.h",
   "underlying_type" : "_ZTIj"
  },
  {
   "alignment" : 4,
   "enum_fields" :
   [
    {
     "enum_field_value" : 0,
     "name" : "android::internal::details::IsPointerLike<aidl::android::hardware::gnss::GnssMeasurement>::value"
    }
   ],
   "linker_set_key" : "_ZTIN7android8internal7details13IsPointerLikeIN4aidl7android8hardware4gnss15GnssMeasurementEE6$valueE",
   "name" : "android::internal::details::IsPointerLike<GnssMeasurement>::(anonymous enum at frameworks/native/libs/binder/ndk/include_cpp/android/binder_to_string.h:118:5)",
   "referenced_type" : "_ZTIN7android8internal7details13IsPointerLikeIN4aidl7android8hardware4gnss15GnssMeasurementEE6$valueE",
   "self_type" : "_ZTIN7android8internal7details13IsPointerLikeIN4aidl7android8hardware4gnss15GnssMeasurementEE6$valueE",
   "size" : 4,
   "source_file" : "frameworks/native/libs/binder/ndk/include_cpp/android/binder_to_string.h",
   "underlying_type" : "_ZTIj"
  },
  {
   "alignment" : 4,
   "enum_fields" :
   [
    {
     "enum_field_value" : 0,
     "name" : "android::internal::details::IsPointerLike<aidl::android::hardware::gnss::CorrelationVector>::value"
    }
   ],
   "linker_set_key" : "_ZTIN7android8internal7details13IsPointerLikeIN4aidl7android8hardware4gnss17CorrelationVectorEE6$valueE",
   "name" : "android::internal::details::IsPointerLike<CorrelationVector>::(anonymous enum at frameworks/native/libs/binder/ndk/include_cpp/android/binder_to_string.h:118:5)",
   "referenced_type" : "_ZTIN7android8internal7details13IsPointerLikeIN4aidl7android8hardware4gnss17CorrelationVectorEE6$valueE",
   "self_type" : "_ZTIN7android8internal7details13IsPointerLikeIN4aidl7android8hardware4gnss17CorrelationVectorEE6$valueE",
   "size" : 4,
   "source_file" : "frameworks/native/libs/binder/ndk/include_cpp/android/binder_to_string.h",
   "underlying_type" : "_ZTIj"
  },
  {
   "alignment" : 4,
   "enum_fields" :
   [
    {
     "enum_field_value" : 0,
     "name" : "android::internal::details::IsPointerLike<aidl::android::hardware::gnss::SatelliteClockInfo>::value"
    }
   ],
   "linker_set_key" : "_ZTIN7android8internal7details13IsPointerLikeIN4aidl7android8hardware4gnss18SatelliteClockInfoEE6$valueE",
   "name" : "android::internal::details::IsPointerLike<SatelliteClockInfo>::(anonymous enum at frameworks/native/libs/binder/ndk/include_cpp/android/binder_to_string.h:118:5)",
   "referenced_type" : "_ZTIN7android8internal7details13IsPointerLikeIN4aidl7android8hardware4gnss18SatelliteClockInfoEE6$valueE",
   "self_type" : "_ZTIN7android8internal7details13IsPointerLikeIN4aidl7android8hardware4gnss18SatelliteClockInfoEE6$valueE",
   "size" : 4,
   "source_file" : "frameworks/native/libs/binder/ndk/include_cpp/android/binder_to_string.h",
   "underlying_type" : "_ZTIj"
  },
  {
   "alignment" : 4,
   "enum_fields" :
   [
    {
     "enum_field_value" : 0,
     "name" : "android::internal::details::IsPointerLike<aidl::android::hardware::gnss::GnssConstellationType>::value"
    }
   ],
   "linker_set_key" : "_ZTIN7android8internal7details13IsPointerLikeIN4aidl7android8hardware4gnss21GnssConstellationTypeEE6$valueE",
   "name" : "android::internal::details::IsPointerLike<GnssConstellationType>::(anonymous enum at frameworks/native/libs/binder/ndk/include_cpp/android/binder_to_string.h:118:5)",
   "referenced_type" : "_ZTIN7android8internal7details13IsPointerLikeIN4aidl7android8hardware4gnss21GnssConstellationTypeEE6$valueE",
   "self_type" : "_ZTIN7android8internal7details13IsPointerLikeIN4aidl7android8hardware4gnss21GnssConstellationTypeEE6$valueE",
   "size" : 4,
   "source_file" : "frameworks/native/libs/binder/ndk/include_cpp/android/binder_to_string.h",
   "underlying_type" : "_ZTIj"
  },
  {
   "alignment" : 4,
   "enum_fields" :
   [
    {
     "enum_field_value" : 0,
     "name" : "android::internal::details::IsPointerLike<aidl::android::hardware::gnss::SatellitePositionEcef>::value"
    }
   ],
   "linker_set_key" : "_ZTIN7android8internal7details13IsPointerLikeIN4aidl7android8hardware4gnss21SatellitePositionEcefEE6$valueE",
   "name" : "android::internal::details::IsPointerLike<SatellitePositionEcef>::(anonymous enum at frameworks/native/libs/binder/ndk/include_cpp/android/binder_to_string.h:118:5)",
   "referenced_type" : "_ZTIN7android8internal7details13IsPointerLikeIN4aidl7android8hardware4gnss21SatellitePositionEcefEE6$valueE",
   "self_type" : "_ZTIN7android8internal7details13IsPointerLikeIN4aidl7android8hardware4gnss21SatellitePositionEcefEE6$valueE",
   "size" : 4,
   "source_file" : "frameworks/native/libs/binder/ndk/include_cpp/android/binder_to_string.h",
   "underlying_type" : "_ZTIj"
  },
  {
   "alignment" : 4,
   "enum_fields" :
   [
    {
     "enum_field_value" : 0,
     "name" : "android::internal::details::IsPointerLike<aidl::android::hardware::gnss::SatelliteVelocityEcef>::value"
    }
   ],
   "linker_set_key" : "_ZTIN7android8internal7details13IsPointerLikeIN4aidl7android8hardware4gnss21SatelliteVelocityEcefEE6$valueE",
   "name" : "android::internal::details::IsPointerLike<SatelliteVelocityEcef>::(anonymous enum at frameworks/native/libs/binder/ndk/include_cpp/android/binder_to_string.h:118:5)",
   "referenced_type" : "_ZTIN7android8internal7details13IsPointerLikeIN4aidl7android8hardware4gnss21SatelliteVelocityEcefEE6$valueE",
   "self_type" : "_ZTIN7android8internal7details13IsPointerLikeIN4aidl7android8hardware4gnss21SatelliteVelocityEcefEE6$valueE",
   "size" : 4,
   "source_file" : "frameworks/native/libs/binder/ndk/include_cpp/android/binder_to_string.h",
   "underlying_type" : "_ZTIj"
  },
  {
   "alignment" : 4,
   "enum_fields" :
   [
    {
     "enum_field_value" : 0,
     "name" : "android::internal::details::IsPointerLike<aidl::android::hardware::gnss::GnssMultipathIndicator>::value"
    }
   ],
   "linker_set_key" : "_ZTIN7android8internal7details13IsPointerLikeIN4aidl7android8hardware4gnss22GnssMultipathIndicatorEE6$valueE",
   "name" : "android::internal::details::IsPointerLike<GnssMultipathIndicator>::(anonymous enum at frameworks/native/libs/binder/ndk/include_cpp/android/binder_to_string.h:118:5)",
   "referenced_type" : "_ZTIN7android8internal7details13IsPointerLikeIN4aidl7android8hardware4gnss22GnssMultipathIndicatorEE6$valueE",
   "self_type" : "_ZTIN7android8internal7details13IsPointerLikeIN4aidl7android8hardware4gnss22GnssMultipathIndicatorEE6$valueE",
   "size" : 4,
   "source_file" : "frameworks/native/libs/binder/ndk/include_cpp/android/binder_to_string.h",
   "underlying_type" : "_ZTIj"
  },
  {
   "alignment" : 4,
   "enum_fields" :
   [
    {
     "enum_field_value" : 0,
     "name" : "android::internal::details::IsPointerLike<aidl::android::hardware::gnss::GnssClock>::value"
    }
   ],
   "linker_set_key" : "_ZTIN7android8internal7details13IsPointerLikeIN4aidl7android8hardware4gnss9GnssClockEE6$valueE",
   "name" : "android::internal::details::IsPointerLike<GnssClock>::(anonymous enum at frameworks/native/libs/binder/ndk/include_cpp/android/binder_to_string.h:118:5)",
   "referenced_type" : "_ZTIN7android8internal7details13IsPointerLikeIN4aidl7android8hardware4gnss9GnssClockEE6$valueE",
   "self_type" : "_ZTIN7android8internal7details13IsPointerLikeIN4aidl7android8hardware4gnss9GnssClockEE6$valueE",
   "size" : 4,
   "source_file" : "frameworks/native/libs/binder/ndk/include_cpp/android/binder_to_string.h",
   "underlying_type" : "_ZTIj"
  },
  {
   "alignment" : 4,
   "enum_fields" :
   [
    {
     "enum_field_value" : 0,
     "name" : "android::internal::details::IsPointerLike<std::__1::vector<aidl::android::hardware::gnss::GnssMeasurement, std::__1::allocator<aidl::android::hardware::gnss::GnssMeasurement>>>::value"
    }
   ],
   "linker_set_key" : "_ZTIN7android8internal7details13IsPointerLikeINSt3__16vectorIN4aidl7android8hardware4gnss15GnssMeasurementENS3_9allocatorIS9_EEEEE6$valueE",
   "name" : "android::internal::details::IsPointerLike<vector<GnssMeasurement, allocator<GnssMeasurement>>>::(anonymous enum at frameworks/native/libs/binder/ndk/include_cpp/android/binder_to_string.h:118:5)",
   "referenced_type" : "_ZTIN7android8internal7details13IsPointerLikeINSt3__16vectorIN4aidl7android8hardware4gnss15GnssMeasurementENS3_9allocatorIS9_EEEEE6$valueE",
   "self_type" : "_ZTIN7android8internal7details13IsPointerLikeINSt3__16vectorIN4aidl7android8hardware4gnss15GnssMeasurementENS3_9allocatorIS9_EEEEE6$valueE",
   "size" : 4,
   "source_file" : "frameworks/native/libs/binder/ndk/include_cpp/android/binder_to_string.h",
   "underlying_type" : "_ZTIj"
  },
  {
   "alignment" : 4,
   "enum_fields" :
   [
    {
     "enum_field_value" : 0,
     "name" : "android::internal::details::IsPointerLike<std::__1::vector<aidl::android::hardware::gnss::CorrelationVector, std::__1::allocator<aidl::android::hardware::gnss::CorrelationVector>>>::value"
    }
   ],
   "linker_set_key" : "_ZTIN7android8internal7details13IsPointerLikeINSt3__16vectorIN4aidl7android8hardware4gnss17CorrelationVectorENS3_9allocatorIS9_EEEEE6$valueE",
   "name" : "android::internal::details::IsPointerLike<vector<CorrelationVector, allocator<CorrelationVector>>>::(anonymous enum at frameworks/native/libs/binder/ndk/include_cpp/android/binder_to_string.h:118:5)",
   "referenced_type" : "_ZTIN7android8internal7details13IsPointerLikeINSt3__16vectorIN4aidl7android8hardware4gnss17CorrelationVectorENS3_9allocatorIS9_EEEEE6$valueE",
   "self_type" : "_ZTIN7android8internal7details13IsPointerLikeINSt3__16vectorIN4aidl7android8hardware4gnss17CorrelationVectorENS3_9allocatorIS9_EEEEE6$valueE",
   "size" : 4,
   "source_file" : "frameworks/native/libs/binder/ndk/include_cpp/android/binder_to_string.h",
   "underlying_type" : "_ZTIj"
  },
  {
   "alignment" : 4,
   "enum_fields" :
   [
    {
     "enum_field_value" : 0,
     "name" : "android::internal::details::IsPointerLike<std::__1::vector<double, std::__1::allocator<double>>>::value"
    }
   ],
   "linker_set_key" : "_ZTIN7android8internal7details13IsPointerLikeINSt3__16vectorIdNS3_9allocatorIdEEEEE6$valueE",
   "name" : "android::internal::details::IsPointerLike<vector<double, allocator<double>>>::(anonymous enum at frameworks/native/libs/binder/ndk/include_cpp/android/binder_to_string.h:118:5)",
   "referenced_type" : "_ZTIN7android8internal7details13IsPointerLikeINSt3__16vectorIdNS3_9allocatorIdEEEEE6$valueE",
   "self_type" : "_ZTIN7android8internal7details13IsPointerLikeINSt3__16vectorIdNS3_9allocatorIdEEEEE6$valueE",
   "size" : 4,
   "source_file" : "frameworks/native/libs/binder/ndk/include_cpp/android/binder_to_string.h",
   "underlying_type" : "_ZTIj"
  },
  {
   "alignment" : 4,
   "enum_fields" :
   [
    {
     "enum_field_value" : 0,
     "name" : "android::internal::details::IsPointerLike<std::__1::vector<int, std::__1::allocator<int>>>::value"
    }
   ],
   "linker_set_key" : "_ZTIN7android8internal7details13IsPointerLikeINSt3__16vectorIiNS3_9allocatorIiEEEEE6$valueE",
   "name" : "android::internal::details::IsPointerLike<vector<int, allocator<int>>>::(anonymous enum at frameworks/native/libs/binder/ndk/include_cpp/android/binder_to_string.h:118:5)",
   "referenced_type" : "_ZTIN7android8internal7details13IsPointerLikeINSt3__16vectorIiNS3_9allocatorIiEEEEE6$valueE",
   "self_type" : "_ZTIN7android8internal7details13IsPointerLikeINSt3__16vectorIiNS3_9allocatorIiEEEEE6$valueE",
   "size" : 4,
   "source_file" : "frameworks/native/libs/binder/ndk/include_cpp/android/binder_to_string.h",
   "underlying_type" : "_ZTIj"
  },
  {
   "alignment" : 4,
   "enum_fields" :
   [
    {
     "enum_field_value" : 0,
     "name" : "android::internal::details::ToEmptyString<aidl::android::hardware::gnss::SatellitePvt>::value"
    }
   ],
   "linker_set_key" : "_ZTIN7android8internal7details13ToEmptyStringIN4aidl7android8hardware4gnss12SatellitePvtEE6$valueE",
   "name" : "android::internal::details::ToEmptyString<SatellitePvt>::(anonymous enum at frameworks/native/libs/binder/ndk/include_cpp/android/binder_to_string.h:153:5)",
   "referenced_type" : "_ZTIN7android8internal7details13ToEmptyStringIN4aidl7android8hardware4gnss12SatellitePvtEE6$valueE",
   "self_type" : "_ZTIN7android8internal7details13ToEmptyStringIN4aidl7android8hardware4gnss12SatellitePvtEE6$valueE",
   "size" : 4,
   "source_file" : "frameworks/native/libs/binder/ndk/include_cpp/android/binder_to_string.h",
   "underlying_type" : "_ZTIj"
  },
  {
   "alignment" : 4,
   "enum_fields" :
   [
    {
     "enum_field_value" : 0,
     "name" : "android::internal::details::ToEmptyString<aidl::android::hardware::gnss::GnssSignalType>::value"
    }
   ],
   "linker_set_key" : "_ZTIN7android8internal7details13ToEmptyStringIN4aidl7android8hardware4gnss14GnssSignalTypeEE6$valueE",
   "name" : "android::internal::details::ToEmptyString<GnssSignalType>::(anonymous enum at frameworks/native/libs/binder/ndk/include_cpp/android/binder_to_string.h:153:5)",
   "referenced_type" : "_ZTIN7android8internal7details13ToEmptyStringIN4aidl7android8hardware4gnss14GnssSignalTypeEE6$valueE",
   "self_type" : "_ZTIN7android8internal7details13ToEmptyStringIN4aidl7android8hardware4gnss14GnssSignalTypeEE6$valueE",
   "size" : 4,
   "source_file" : "frameworks/native/libs/binder/ndk/include_cpp/android/binder_to_string.h",
   "underlying_type" : "_ZTIj"
  },
  {
   "alignment" : 4,
   "enum_fields" :
   [
    {
     "enum_field_value" : 0,
     "name" : "android::internal::details::ToEmptyString<aidl::android::hardware::gnss::ElapsedRealtime>::value"
    }
   ],
   "linker_set_key" : "_ZTIN7android8internal7details13ToEmptyStringIN4aidl7android8hardware4gnss15ElapsedRealtimeEE6$valueE",
   "name" : "android::internal::details::ToEmptyString<ElapsedRealtime>::(anonymous enum at frameworks/native/libs/binder/ndk/include_cpp/android/binder_to_string.h:153:5)",
   "referenced_type" : "_ZTIN7android8internal7details13ToEmptyStringIN4aidl7android8hardware4gnss15ElapsedRealtimeEE6$valueE",
   "self_type" : "_ZTIN7android8internal7details13ToEmptyStringIN4aidl7android8hardware4gnss15ElapsedRealtimeEE6$valueE",
   "size" : 4,
   "source_file" : "frameworks/native/libs/binder/ndk/include_cpp/android/binder_to_string.h",
   "underlying_type" : "_ZTIj"
  },
  {
   "alignment" : 4,
   "enum_fields" :
   [
    {
     "enum_field_value" : 0,
     "name" : "android::internal::details::ToEmptyString<aidl::android::hardware::gnss::GnssMeasurement>::value"
    }
   ],
   "linker_set_key" : "_ZTIN7android8internal7details13ToEmptyStringIN4aidl7android8hardware4gnss15GnssMeasurementEE6$valueE",
   "name" : "android::internal::details::ToEmptyString<GnssMeasurement>::(anonymous enum at frameworks/native/libs/binder/ndk/include_cpp/android/binder_to_string.h:153:5)",
   "referenced_type" : "_ZTIN7android8internal7details13ToEmptyStringIN4aidl7android8hardware4gnss15GnssMeasurementEE6$valueE",
   "self_type" : "_ZTIN7android8internal7details13ToEmptyStringIN4aidl7android8hardware4gnss15GnssMeasurementEE6$valueE",
   "size" : 4,
   "source_file" : "frameworks/native/libs/binder/ndk/include_cpp/android/binder_to_string.h",
   "underlying_type" : "_ZTIj"
  },
  {
   "alignment" : 4,
   "enum_fields" :
   [
    {
     "enum_field_value" : 0,
     "name" : "android::internal::details::ToEmptyString<aidl::android::hardware::gnss::CorrelationVector>::value"
    }
   ],
   "linker_set_key" : "_ZTIN7android8internal7details13ToEmptyStringIN4aidl7android8hardware4gnss17CorrelationVectorEE6$valueE",
   "name" : "android::internal::details::ToEmptyString<CorrelationVector>::(anonymous enum at frameworks/native/libs/binder/ndk/include_cpp/android/binder_to_string.h:153:5)",
   "referenced_type" : "_ZTIN7android8internal7details13ToEmptyStringIN4aidl7android8hardware4gnss17CorrelationVectorEE6$valueE",
   "self_type" : "_ZTIN7android8internal7details13ToEmptyStringIN4aidl7android8hardware4gnss17CorrelationVectorEE6$valueE",
   "size" : 4,
   "source_file" : "frameworks/native/libs/binder/ndk/include_cpp/android/binder_to_string.h",
   "underlying_type" : "_ZTIj"
  },
  {
   "alignment" : 4,
   "enum_fields" :
   [
    {
     "enum_field_value" : 0,
     "name" : "android::internal::details::ToEmptyString<aidl::android::hardware::gnss::SatelliteClockInfo>::value"
    }
   ],
   "linker_set_key" : "_ZTIN7android8internal7details13ToEmptyStringIN4aidl7android8hardware4gnss18SatelliteClockInfoEE6$valueE",
   "name" : "android::internal::details::ToEmptyString<SatelliteClockInfo>::(anonymous enum at frameworks/native/libs/binder/ndk/include_cpp/android/binder_to_string.h:153:5)",
   "referenced_type" : "_ZTIN7android8internal7details13ToEmptyStringIN4aidl7android8hardware4gnss18SatelliteClockInfoEE6$valueE",
   "self_type" : "_ZTIN7android8internal7details13ToEmptyStringIN4aidl7android8hardware4gnss18SatelliteClockInfoEE6$valueE",
   "size" : 4,
   "source_file" : "frameworks/native/libs/binder/ndk/include_cpp/android/binder_to_string.h",
   "underlying_type" : "_ZTIj"
  },
  {
   "alignment" : 4,
   "enum_fields" :
   [
    {
     "enum_field_value" : 0,
     "name" : "android::internal::details::ToEmptyString<aidl::android::hardware::gnss::GnssConstellationType>::value"
    }
   ],
   "linker_set_key" : "_ZTIN7android8internal7details13ToEmptyStringIN4aidl7android8hardware4gnss21GnssConstellationTypeEE6$valueE",
   "name" : "android::internal::details::ToEmptyString<GnssConstellationType>::(anonymous enum at frameworks/native/libs/binder/ndk/include_cpp/android/binder_to_string.h:153:5)",
   "referenced_type" : "_ZTIN7android8internal7details13ToEmptyStringIN4aidl7android8hardware4gnss21GnssConstellationTypeEE6$valueE",
   "self_type" : "_ZTIN7android8internal7details13ToEmptyStringIN4aidl7android8hardware4gnss21GnssConstellationTypeEE6$valueE",
   "size" : 4,
   "source_file" : "frameworks/native/libs/binder/ndk/include_cpp/android/binder_to_string.h",
   "underlying_type" : "_ZTIj"
  },
  {
   "alignment" : 4,
   "enum_fields" :
   [
    {
     "enum_field_value" : 0,
     "name" : "android::internal::details::ToEmptyString<aidl::android::hardware::gnss::SatellitePositionEcef>::value"
    }
   ],
   "linker_set_key" : "_ZTIN7android8internal7details13ToEmptyStringIN4aidl7android8hardware4gnss21SatellitePositionEcefEE6$valueE",
   "name" : "android::internal::details::ToEmptyString<SatellitePositionEcef>::(anonymous enum at frameworks/native/libs/binder/ndk/include_cpp/android/binder_to_string.h:153:5)",
   "referenced_type" : "_ZTIN7android8internal7details13ToEmptyStringIN4aidl7android8hardware4gnss21SatellitePositionEcefEE6$valueE",
   "self_type" : "_ZTIN7android8internal7details13ToEmptyStringIN4aidl7android8hardware4gnss21SatellitePositionEcefEE6$valueE",
   "size" : 4,
   "source_file" : "frameworks/native/libs/binder/ndk/include_cpp/android/binder_to_string.h",
   "underlying_type" : "_ZTIj"
  },
  {
   "alignment" : 4,
   "enum_fields" :
   [
    {
     "enum_field_value" : 0,
     "name" : "android::internal::details::ToEmptyString<aidl::android::hardware::gnss::SatelliteVelocityEcef>::value"
    }
   ],
   "linker_set_key" : "_ZTIN7android8internal7details13ToEmptyStringIN4aidl7android8hardware4gnss21SatelliteVelocityEcefEE6$valueE",
   "name" : "android::internal::details::ToEmptyString<SatelliteVelocityEcef>::(anonymous enum at frameworks/native/libs/binder/ndk/include_cpp/android/binder_to_string.h:153:5)",
   "referenced_type" : "_ZTIN7android8internal7details13ToEmptyStringIN4aidl7android8hardware4gnss21SatelliteVelocityEcefEE6$valueE",
   "self_type" : "_ZTIN7android8internal7details13ToEmptyStringIN4aidl7android8hardware4gnss21SatelliteVelocityEcefEE6$valueE",
   "size" : 4,
   "source_file" : "frameworks/native/libs/binder/ndk/include_cpp/android/binder_to_string.h",
   "underlying_type" : "_ZTIj"
  },
  {
   "alignment" : 4,
   "enum_fields" :
   [
    {
     "enum_field_value" : 0,
     "name" : "android::internal::details::ToEmptyString<aidl::android::hardware::gnss::GnssMultipathIndicator>::value"
    }
   ],
   "linker_set_key" : "_ZTIN7android8internal7details13ToEmptyStringIN4aidl7android8hardware4gnss22GnssMultipathIndicatorEE6$valueE",
   "name" : "android::internal::details::ToEmptyString<GnssMultipathIndicator>::(anonymous enum at frameworks/native/libs/binder/ndk/include_cpp/android/binder_to_string.h:153:5)",
   "referenced_type" : "_ZTIN7android8internal7details13ToEmptyStringIN4aidl7android8hardware4gnss22GnssMultipathIndicatorEE6$valueE",
   "self_type" : "_ZTIN7android8internal7details13ToEmptyStringIN4aidl7android8hardware4gnss22GnssMultipathIndicatorEE6$valueE",
   "size" : 4,
   "source_file" : "frameworks/native/libs/binder/ndk/include_cpp/android/binder_to_string.h",
   "underlying_type" : "_ZTIj"
  },
  {
   "alignment" : 4,
   "enum_fields" :
   [
    {
     "enum_field_value" : 0,
     "name" : "android::internal::details::ToEmptyString<aidl::android::hardware::gnss::GnssClock>::value"
    }
   ],
   "linker_set_key" : "_ZTIN7android8internal7details13ToEmptyStringIN4aidl7android8hardware4gnss9GnssClockEE6$valueE",
   "name" : "android::internal::details::ToEmptyString<GnssClock>::(anonymous enum at frameworks/native/libs/binder/ndk/include_cpp/android/binder_to_string.h:153:5)",
   "referenced_type" : "_ZTIN7android8internal7details13ToEmptyStringIN4aidl7android8hardware4gnss9GnssClockEE6$valueE",
   "self_type" : "_ZTIN7android8internal7details13ToEmptyStringIN4aidl7android8hardware4gnss9GnssClockEE6$valueE",
   "size" : 4,
   "source_file" : "frameworks/native/libs/binder/ndk/include_cpp/android/binder_to_string.h",
   "underlying_type" : "_ZTIj"
  },
  {
   "alignment" : 4,
   "enum_fields" :
   [
    {
     "enum_field_value" : 0,
     "name" : "android::internal::details::ToEmptyString<std::__1::basic_string<char>>::value"
    }
   ],
   "linker_set_key" : "_ZTIN7android8internal7details13ToEmptyStringINSt3__112basic_stringIcNS3_11char_traitsIcEENS3_9allocatorIcEEEEE6$valueE",
   "name" : "android::internal::details::ToEmptyString<basic_string<char>>::(anonymous enum at frameworks/native/libs/binder/ndk/include_cpp/android/binder_to_string.h:153:5)",
   "referenced_type" : "_ZTIN7android8internal7details13ToEmptyStringINSt3__112basic_stringIcNS3_11char_traitsIcEENS3_9allocatorIcEEEEE6$valueE",
   "self_type" : "_ZTIN7android8internal7details13ToEmptyStringINSt3__112basic_stringIcNS3_11char_traitsIcEENS3_9allocatorIcEEEEE6$valueE",
   "size" : 4,
   "source_file" : "frameworks/native/libs/binder/ndk/include_cpp/android/binder_to_string.h",
   "underlying_type" : "_ZTIj"
  },
  {
   "alignment" : 4,
   "enum_fields" :
   [
    {
     "enum_field_value" : 0,
     "name" : "android::internal::details::ToEmptyString<std::__1::vector<aidl::android::hardware::gnss::GnssMeasurement, std::__1::allocator<aidl::android::hardware::gnss::GnssMeasurement>>>::value"
    }
   ],
   "linker_set_key" : "_ZTIN7android8internal7details13ToEmptyStringINSt3__16vectorIN4aidl7android8hardware4gnss15GnssMeasurementENS3_9allocatorIS9_EEEEE6$valueE",
   "name" : "android::internal::details::ToEmptyString<vector<GnssMeasurement, allocator<GnssMeasurement>>>::(anonymous enum at frameworks/native/libs/binder/ndk/include_cpp/android/binder_to_string.h:153:5)",
   "referenced_type" : "_ZTIN7android8internal7details13ToEmptyStringINSt3__16vectorIN4aidl7android8hardware4gnss15GnssMeasurementENS3_9allocatorIS9_EEEEE6$valueE",
   "self_type" : "_ZTIN7android8internal7details13ToEmptyStringINSt3__16vectorIN4aidl7android8hardware4gnss15GnssMeasurementENS3_9allocatorIS9_EEEEE6$valueE",
   "size" : 4,
   "source_file" : "frameworks/native/libs/binder/ndk/include_cpp/android/binder_to_string.h",
   "underlying_type" : "_ZTIj"
  },
  {
   "alignment" : 4,
   "enum_fields" :
   [
    {
     "enum_field_value" : 0,
     "name" : "android::internal::details::ToEmptyString<std::__1::vector<aidl::android::hardware::gnss::CorrelationVector, std::__1::allocator<aidl::android::hardware::gnss::CorrelationVector>>>::value"
    }
   ],
   "linker_set_key" : "_ZTIN7android8internal7details13ToEmptyStringINSt3__16vectorIN4aidl7android8hardware4gnss17CorrelationVectorENS3_9allocatorIS9_EEEEE6$valueE",
   "name" : "android::internal::details::ToEmptyString<vector<CorrelationVector, allocator<CorrelationVector>>>::(anonymous enum at frameworks/native/libs/binder/ndk/include_cpp/android/binder_to_string.h:153:5)",
   "referenced_type" : "_ZTIN7android8internal7details13ToEmptyStringINSt3__16vectorIN4aidl7android8hardware4gnss17CorrelationVectorENS3_9allocatorIS9_EEEEE6$valueE",
   "self_type" : "_ZTIN7android8internal7details13ToEmptyStringINSt3__16vectorIN4aidl7android8hardware4gnss17CorrelationVectorENS3_9allocatorIS9_EEEEE6$valueE",
   "size" : 4,
   "source_file" : "frameworks/native/libs/binder/ndk/include_cpp/android/binder_to_string.h",
   "underlying_type" : "_ZTIj"
  },
  {
   "alignment" : 4,
   "enum_fields" :
   [
    {
     "enum_field_value" : 0,
     "name" : "android::internal::details::ToEmptyString<std::__1::vector<double, std::__1::allocator<double>>>::value"
    }
   ],
   "linker_set_key" : "_ZTIN7android8internal7details13ToEmptyStringINSt3__16vectorIdNS3_9allocatorIdEEEEE6$valueE",
   "name" : "android::internal::details::ToEmptyString<vector<double, allocator<double>>>::(anonymous enum at frameworks/native/libs/binder/ndk/include_cpp/android/binder_to_string.h:153:5)",
   "referenced_type" : "_ZTIN7android8internal7details13ToEmptyStringINSt3__16vectorIdNS3_9allocatorIdEEEEE6$valueE",
   "self_type" : "_ZTIN7android8internal7details13ToEmptyStringINSt3__16vectorIdNS3_9allocatorIdEEEEE6$valueE",
   "size" : 4,
   "source_file" : "frameworks/native/libs/binder/ndk/include_cpp/android/binder_to_string.h",
   "underlying_type" : "_ZTIj"
  },
  {
   "alignment" : 4,
   "enum_fields" :
   [
    {
     "enum_field_value" : 0,
     "name" : "android::internal::details::ToEmptyString<std::__1::vector<int, std::__1::allocator<int>>>::value"
    }
   ],
   "linker_set_key" : "_ZTIN7android8internal7details13ToEmptyStringINSt3__16vectorIiNS3_9allocatorIiEEEEE6$valueE",
   "name" : "android::internal::details::ToEmptyString<vector<int, allocator<int>>>::(anonymous enum at frameworks/native/libs/binder/ndk/include_cpp/android/binder_to_string.h:153:5)",
   "referenced_type" : "_ZTIN7android8internal7details13ToEmptyStringINSt3__16vectorIiNS3_9allocatorIiEEEEE6$valueE",
   "self_type" : "_ZTIN7android8internal7details13ToEmptyStringINSt3__16vectorIiNS3_9allocatorIiEEEEE6$valueE",
   "size" : 4,
   "source_file" : "frameworks/native/libs/binder/ndk/include_cpp/android/binder_to_string.h",
   "underlying_type" : "_ZTIj"
  },
  {
   "alignment" : 4,
   "enum_fields" :
   [
    {
     "enum_field_value" : 0,
     "name" : "android::internal::details::ToEmptyString<double>::value"
    }
   ],
   "linker_set_key" : "_ZTIN7android8internal7details13ToEmptyStringIdE6$valueE",
   "name" : "android::internal::details::ToEmptyString<double>::(anonymous enum at frameworks/native/libs/binder/ndk/include_cpp/android/binder_to_string.h:153:5)",
   "referenced_type" : "_ZTIN7android8internal7details13ToEmptyStringIdE6$valueE",
   "self_type" : "_ZTIN7android8internal7details13ToEmptyStringIdE6$valueE",
   "size" : 4,
   "source_file" : "frameworks/native/libs/binder/ndk/include_cpp/android/binder_to_string.h",
   "underlying_type" : "_ZTIj"
  },
  {
   "alignment" : 4,
   "enum_fields" :
   [
    {
     "enum_field_value" : 0,
     "name" : "android::internal::details::ToEmptyString<int>::value"
    }
   ],
   "linker_set_key" : "_ZTIN7android8internal7details13ToEmptyStringIiE6$valueE",
   "name" : "android::internal::details::ToEmptyString<int>::(anonymous enum at frameworks/native/libs/binder/ndk/include_cpp/android/binder_to_string.h:153:5)",
   "referenced_type" : "_ZTIN7android8internal7details13ToEmptyStringIiE6$valueE",
   "self_type" : "_ZTIN7android8internal7details13ToEmptyStringIiE6$valueE",
   "size" : 4,
   "source_file" : "frameworks/native/libs/binder/ndk/include_cpp/android/binder_to_string.h",
   "underlying_type" : "_ZTIj"
  },
  {
   "alignment" : 4,
   "enum_fields" :
   [
    {
     "enum_field_value" : 0,
     "name" : "android::internal::details::ToEmptyString<long long>::value"
    }
   ],
   "linker_set_key" : "_ZTIN7android8internal7details13ToEmptyStringIxE6$valueE",
   "name" : "android::internal::details::ToEmptyString<long long>::(anonymous enum at frameworks/native/libs/binder/ndk/include_cpp/android/binder_to_string.h:153:5)",
   "referenced_type" : "_ZTIN7android8internal7details13ToEmptyStringIxE6$valueE",
   "self_type" : "_ZTIN7android8internal7details13ToEmptyStringIxE6$valueE",
   "size" : 4,
   "source_file" : "frameworks/native/libs/binder/ndk/include_cpp/android/binder_to_string.h",
   "underlying_type" : "_ZTIj"
  },
  {
   "alignment" : 4,
   "enum_fields" :
   [
    {
     "enum_field_value" : 1,
     "name" : "android::internal::details::HasToStringMethod<aidl::android::hardware::gnss::SatellitePvt>::value"
    }
   ],
   "linker_set_key" : "_ZTIN7android8internal7details17HasToStringMethodIN4aidl7android8hardware4gnss12SatellitePvtEE6$valueE",
   "name" : "android::internal::details::HasToStringMethod<SatellitePvt>::(anonymous enum at frameworks/native/libs/binder/ndk/include_cpp/android/binder_to_string.h:77:5)",
   "referenced_type" : "_ZTIN7android8internal7details17HasToStringMethodIN4aidl7android8hardware4gnss12SatellitePvtEE6$valueE",
   "self_type" : "_ZTIN7android8internal7details17HasToStringMethodIN4aidl7android8hardware4gnss12SatellitePvtEE6$valueE",
   "size" : 4,
   "source_file" : "frameworks/native/libs/binder/ndk/include_cpp/android/binder_to_string.h",
   "underlying_type" : "_ZTIj"
  },
  {
   "alignment" : 4,
   "enum_fields" :
   [
    {
     "enum_field_value" : 1,
     "name" : "android::internal::details::HasToStringMethod<aidl::android::hardware::gnss::GnssSignalType>::value"
    }
   ],
   "linker_set_key" : "_ZTIN7android8internal7details17HasToStringMethodIN4aidl7android8hardware4gnss14GnssSignalTypeEE6$valueE",
   "name" : "android::internal::details::HasToStringMethod<GnssSignalType>::(anonymous enum at frameworks/native/libs/binder/ndk/include_cpp/android/binder_to_string.h:77:5)",
   "referenced_type" : "_ZTIN7android8internal7details17HasToStringMethodIN4aidl7android8hardware4gnss14GnssSignalTypeEE6$valueE",
   "self_type" : "_ZTIN7android8internal7details17HasToStringMethodIN4aidl7android8hardware4gnss14GnssSignalTypeEE6$valueE",
   "size" : 4,
   "source_file" : "frameworks/native/libs/binder/ndk/include_cpp/android/binder_to_string.h",
   "underlying_type" : "_ZTIj"
  },
  {
   "alignment" : 4,
   "enum_fields" :
   [
    {
     "enum_field_value" : 1,
     "name" : "android::internal::details::HasToStringMethod<aidl::android::hardware::gnss::ElapsedRealtime>::value"
    }
   ],
   "linker_set_key" : "_ZTIN7android8internal7details17HasToStringMethodIN4aidl7android8hardware4gnss15ElapsedRealtimeEE6$valueE",
   "name" : "android::internal::details::HasToStringMethod<ElapsedRealtime>::(anonymous enum at frameworks/native/libs/binder/ndk/include_cpp/android/binder_to_string.h:77:5)",
   "referenced_type" : "_ZTIN7android8internal7details17HasToStringMethodIN4aidl7android8hardware4gnss15ElapsedRealtimeEE6$valueE",
   "self_type" : "_ZTIN7android8internal7details17HasToStringMethodIN4aidl7android8hardware4gnss15ElapsedRealtimeEE6$valueE",
   "size" : 4,
   "source_file" : "frameworks/native/libs/binder/ndk/include_cpp/android/binder_to_string.h",
   "underlying_type" : "_ZTIj"
  },
  {
   "alignment" : 4,
   "enum_fields" :
   [
    {
     "enum_field_value" : 1,
     "name" : "android::internal::details::HasToStringMethod<aidl::android::hardware::gnss::GnssMeasurement>::value"
    }
   ],
   "linker_set_key" : "_ZTIN7android8internal7details17HasToStringMethodIN4aidl7android8hardware4gnss15GnssMeasurementEE6$valueE",
   "name" : "android::internal::details::HasToStringMethod<GnssMeasurement>::(anonymous enum at frameworks/native/libs/binder/ndk/include_cpp/android/binder_to_string.h:77:5)",
   "referenced_type" : "_ZTIN7android8internal7details17HasToStringMethodIN4aidl7android8hardware4gnss15GnssMeasurementEE6$valueE",
   "self_type" : "_ZTIN7android8internal7details17HasToStringMethodIN4aidl7android8hardware4gnss15GnssMeasurementEE6$valueE",
   "size" : 4,
   "source_file" : "frameworks/native/libs/binder/ndk/include_cpp/android/binder_to_string.h",
   "underlying_type" : "_ZTIj"
  },
  {
   "alignment" : 4,
   "enum_fields" :
   [
    {
     "enum_field_value" : 1,
     "name" : "android::internal::details::HasToStringMethod<aidl::android::hardware::gnss::CorrelationVector>::value"
    }
   ],
   "linker_set_key" : "_ZTIN7android8internal7details17HasToStringMethodIN4aidl7android8hardware4gnss17CorrelationVectorEE6$valueE",
   "name" : "android::internal::details::HasToStringMethod<CorrelationVector>::(anonymous enum at frameworks/native/libs/binder/ndk/include_cpp/android/binder_to_string.h:77:5)",
   "referenced_type" : "_ZTIN7android8internal7details17HasToStringMethodIN4aidl7android8hardware4gnss17CorrelationVectorEE6$valueE",
   "self_type" : "_ZTIN7android8internal7details17HasToStringMethodIN4aidl7android8hardware4gnss17CorrelationVectorEE6$valueE",
   "size" : 4,
   "source_file" : "frameworks/native/libs/binder/ndk/include_cpp/android/binder_to_string.h",
   "underlying_type" : "_ZTIj"
  },
  {
   "alignment" : 4,
   "enum_fields" :
   [
    {
     "enum_field_value" : 1,
     "name" : "android::internal::details::HasToStringMethod<aidl::android::hardware::gnss::SatelliteClockInfo>::value"
    }
   ],
   "linker_set_key" : "_ZTIN7android8internal7details17HasToStringMethodIN4aidl7android8hardware4gnss18SatelliteClockInfoEE6$valueE",
   "name" : "android::internal::details::HasToStringMethod<SatelliteClockInfo>::(anonymous enum at frameworks/native/libs/binder/ndk/include_cpp/android/binder_to_string.h:77:5)",
   "referenced_type" : "_ZTIN7android8internal7details17HasToStringMethodIN4aidl7android8hardware4gnss18SatelliteClockInfoEE6$valueE",
   "self_type" : "_ZTIN7android8internal7details17HasToStringMethodIN4aidl7android8hardware4gnss18SatelliteClockInfoEE6$valueE",
   "size" : 4,
   "source_file" : "frameworks/native/libs/binder/ndk/include_cpp/android/binder_to_string.h",
   "underlying_type" : "_ZTIj"
  },
  {
   "alignment" : 4,
   "enum_fields" :
   [
    {
     "enum_field_value" : 0,
     "name" : "android::internal::details::HasToStringMethod<aidl::android::hardware::gnss::GnssConstellationType>::value"
    }
   ],
   "linker_set_key" : "_ZTIN7android8internal7details17HasToStringMethodIN4aidl7android8hardware4gnss21GnssConstellationTypeEE6$valueE",
   "name" : "android::internal::details::HasToStringMethod<GnssConstellationType>::(anonymous enum at frameworks/native/libs/binder/ndk/include_cpp/android/binder_to_string.h:77:5)",
   "referenced_type" : "_ZTIN7android8internal7details17HasToStringMethodIN4aidl7android8hardware4gnss21GnssConstellationTypeEE6$valueE",
   "self_type" : "_ZTIN7android8internal7details17HasToStringMethodIN4aidl7android8hardware4gnss21GnssConstellationTypeEE6$valueE",
   "size" : 4,
   "source_file" : "frameworks/native/libs/binder/ndk/include_cpp/android/binder_to_string.h",
   "underlying_type" : "_ZTIj"
  },
  {
   "alignment" : 4,
   "enum_fields" :
   [
    {
     "enum_field_value" : 1,
     "name" : "android::internal::details::HasToStringMethod<aidl::android::hardware::gnss::SatellitePositionEcef>::value"
    }
   ],
   "linker_set_key" : "_ZTIN7android8internal7details17HasToStringMethodIN4aidl7android8hardware4gnss21SatellitePositionEcefEE6$valueE",
   "name" : "android::internal::details::HasToStringMethod<SatellitePositionEcef>::(anonymous enum at frameworks/native/libs/binder/ndk/include_cpp/android/binder_to_string.h:77:5)",
   "referenced_type" : "_ZTIN7android8internal7details17HasToStringMethodIN4aidl7android8hardware4gnss21SatellitePositionEcefEE6$valueE",
   "self_type" : "_ZTIN7android8internal7details17HasToStringMethodIN4aidl7android8hardware4gnss21SatellitePositionEcefEE6$valueE",
   "size" : 4,
   "source_file" : "frameworks/native/libs/binder/ndk/include_cpp/android/binder_to_string.h",
   "underlying_type" : "_ZTIj"
  },
  {
   "alignment" : 4,
   "enum_fields" :
   [
    {
     "enum_field_value" : 1,
     "name" : "android::internal::details::HasToStringMethod<aidl::android::hardware::gnss::SatelliteVelocityEcef>::value"
    }
   ],
   "linker_set_key" : "_ZTIN7android8internal7details17HasToStringMethodIN4aidl7android8hardware4gnss21SatelliteVelocityEcefEE6$valueE",
   "name" : "android::internal::details::HasToStringMethod<SatelliteVelocityEcef>::(anonymous enum at frameworks/native/libs/binder/ndk/include_cpp/android/binder_to_string.h:77:5)",
   "referenced_type" : "_ZTIN7android8internal7details17HasToStringMethodIN4aidl7android8hardware4gnss21SatelliteVelocityEcefEE6$valueE",
   "self_type" : "_ZTIN7android8internal7details17HasToStringMethodIN4aidl7android8hardware4gnss21SatelliteVelocityEcefEE6$valueE",
   "size" : 4,
   "source_file" : "frameworks/native/libs/binder/ndk/include_cpp/android/binder_to_string.h",
   "underlying_type" : "_ZTIj"
  },
  {
   "alignment" : 4,
   "enum_fields" :
   [
    {
     "enum_field_value" : 0,
     "name" : "android::internal::details::HasToStringMethod<aidl::android::hardware::gnss::GnssMultipathIndicator>::value"
    }
   ],
   "linker_set_key" : "_ZTIN7android8internal7details17HasToStringMethodIN4aidl7android8hardware4gnss22GnssMultipathIndicatorEE6$valueE",
   "name" : "android::internal::details::HasToStringMethod<GnssMultipathIndicator>::(anonymous enum at frameworks/native/libs/binder/ndk/include_cpp/android/binder_to_string.h:77:5)",
   "referenced_type" : "_ZTIN7android8internal7details17HasToStringMethodIN4aidl7android8hardware4gnss22GnssMultipathIndicatorEE6$valueE",
   "self_type" : "_ZTIN7android8internal7details17HasToStringMethodIN4aidl7android8hardware4gnss22GnssMultipathIndicatorEE6$valueE",
   "size" : 4,
   "source_file" : "frameworks/native/libs/binder/ndk/include_cpp/android/binder_to_string.h",
   "underlying_type" : "_ZTIj"
  },
  {
   "alignment" : 4,
   "enum_fields" :
   [
    {
     "enum_field_value" : 1,
     "name" : "android::internal::details::HasToStringMethod<aidl::android::hardware::gnss::GnssClock>::value"
    }
   ],
   "linker_set_key" : "_ZTIN7android8internal7details17HasToStringMethodIN4aidl7android8hardware4gnss9GnssClockEE6$valueE",
   "name" : "android::internal::details::HasToStringMethod<GnssClock>::(anonymous enum at frameworks/native/libs/binder/ndk/include_cpp/android/binder_to_string.h:77:5)",
   "referenced_type" : "_ZTIN7android8internal7details17HasToStringMethodIN4aidl7android8hardware4gnss9GnssClockEE6$valueE",
   "self_type" : "_ZTIN7android8internal7details17HasToStringMethodIN4aidl7android8hardware4gnss9GnssClockEE6$valueE",
   "size" : 4,
   "source_file" : "frameworks/native/libs/binder/ndk/include_cpp/android/binder_to_string.h",
   "underlying_type" : "_ZTIj"
  },
  {
   "alignment" : 4,
   "enum_fields" :
   [
    {
     "enum_field_value" : 0,
     "name" : "android::internal::details::HasToStringMethod<std::__1::vector<aidl::android::hardware::gnss::GnssMeasurement, std::__1::allocator<aidl::android::hardware::gnss::GnssMeasurement>>>::value"
    }
   ],
   "linker_set_key" : "_ZTIN7android8internal7details17HasToStringMethodINSt3__16vectorIN4aidl7android8hardware4gnss15GnssMeasurementENS3_9allocatorIS9_EEEEE6$valueE",
   "name" : "android::internal::details::HasToStringMethod<vector<GnssMeasurement, allocator<GnssMeasurement>>>::(anonymous enum at frameworks/native/libs/binder/ndk/include_cpp/android/binder_to_string.h:77:5)",
   "referenced_type" : "_ZTIN7android8internal7details17HasToStringMethodINSt3__16vectorIN4aidl7android8hardware4gnss15GnssMeasurementENS3_9allocatorIS9_EEEEE6$valueE",
   "self_type" : "_ZTIN7android8internal7details17HasToStringMethodINSt3__16vectorIN4aidl7android8hardware4gnss15GnssMeasurementENS3_9allocatorIS9_EEEEE6$valueE",
   "size" : 4,
   "source_file" : "frameworks/native/libs/binder/ndk/include_cpp/android/binder_to_string.h",
   "underlying_type" : "_ZTIj"
  },
  {
   "alignment" : 4,
   "enum_fields" :
   [
    {
     "enum_field_value" : 0,
     "name" : "android::internal::details::HasToStringMethod<std::__1::vector<aidl::android::hardware::gnss::CorrelationVector, std::__1::allocator<aidl::android::hardware::gnss::CorrelationVector>>>::value"
    }
   ],
   "linker_set_key" : "_ZTIN7android8internal7details17HasToStringMethodINSt3__16vectorIN4aidl7android8hardware4gnss17CorrelationVectorENS3_9allocatorIS9_EEEEE6$valueE",
   "name" : "android::internal::details::HasToStringMethod<vector<CorrelationVector, allocator<CorrelationVector>>>::(anonymous enum at frameworks/native/libs/binder/ndk/include_cpp/android/binder_to_string.h:77:5)",
   "referenced_type" : "_ZTIN7android8internal7details17HasToStringMethodINSt3__16vectorIN4aidl7android8hardware4gnss17CorrelationVectorENS3_9allocatorIS9_EEEEE6$valueE",
   "self_type" : "_ZTIN7android8internal7details17HasToStringMethodINSt3__16vectorIN4aidl7android8hardware4gnss17CorrelationVectorENS3_9allocatorIS9_EEEEE6$valueE",
   "size" : 4,
   "source_file" : "frameworks/native/libs/binder/ndk/include_cpp/android/binder_to_string.h",
   "underlying_type" : "_ZTIj"
  },
  {
   "alignment" : 4,
   "enum_fields" :
   [
    {
     "enum_field_value" : 0,
     "name" : "android::internal::details::HasToStringMethod<std::__1::vector<double, std::__1::allocator<double>>>::value"
    }
   ],
   "linker_set_key" : "_ZTIN7android8internal7details17HasToStringMethodINSt3__16vectorIdNS3_9allocatorIdEEEEE6$valueE",
   "name" : "android::internal::details::HasToStringMethod<vector<double, allocator<double>>>::(anonymous enum at frameworks/native/libs/binder/ndk/include_cpp/android/binder_to_string.h:77:5)",
   "referenced_type" : "_ZTIN7android8internal7details17HasToStringMethodINSt3__16vectorIdNS3_9allocatorIdEEEEE6$valueE",
   "self_type" : "_ZTIN7android8internal7details17HasToStringMethodINSt3__16vectorIdNS3_9allocatorIdEEEEE6$valueE",
   "size" : 4,
   "source_file" : "frameworks/native/libs/binder/ndk/include_cpp/android/binder_to_string.h",
   "underlying_type" : "_ZTIj"
  },
  {
   "alignment" : 4,
   "enum_fields" :
   [
    {
     "enum_field_value" : 0,
     "name" : "android::internal::details::HasToStringMethod<std::__1::vector<int, std::__1::allocator<int>>>::value"
    }
   ],
   "linker_set_key" : "_ZTIN7android8internal7details17HasToStringMethodINSt3__16vectorIiNS3_9allocatorIiEEEEE6$valueE",
   "name" : "android::internal::details::HasToStringMethod<vector<int, allocator<int>>>::(anonymous enum at frameworks/native/libs/binder/ndk/include_cpp/android/binder_to_string.h:77:5)",
   "referenced_type" : "_ZTIN7android8internal7details17HasToStringMethodINSt3__16vectorIiNS3_9allocatorIiEEEEE6$valueE",
   "self_type" : "_ZTIN7android8internal7details17HasToStringMethodINSt3__16vectorIiNS3_9allocatorIiEEEEE6$valueE",
   "size" : 4,
   "source_file" : "frameworks/native/libs/binder/ndk/include_cpp/android/binder_to_string.h",
   "underlying_type" : "_ZTIj"
  },
  {
   "alignment" : 4,
   "enum_fields" :
   [
    {
     "enum_field_value" : 1,
     "name" : "android::internal::details::HasToStringFunction<aidl::android::hardware::gnss::GnssConstellationType>::value"
    }
   ],
   "linker_set_key" : "_ZTIN7android8internal7details19HasToStringFunctionIN4aidl7android8hardware4gnss21GnssConstellationTypeEE6$valueE",
   "name" : "android::internal::details::HasToStringFunction<GnssConstellationType>::(anonymous enum at frameworks/native/libs/binder/ndk/include_cpp/android/binder_to_string.h:89:5)",
   "referenced_type" : "_ZTIN7android8internal7details19HasToStringFunctionIN4aidl7android8hardware4gnss21GnssConstellationTypeEE6$valueE",
   "self_type" : "_ZTIN7android8internal7details19HasToStringFunctionIN4aidl7android8hardware4gnss21GnssConstellationTypeEE6$valueE",
   "size" : 4,
   "source_file" : "frameworks/native/libs/binder/ndk/include_cpp/android/binder_to_string.h",
   "underlying_type" : "_ZTIj"
  },
  {
   "alignment" : 4,
   "enum_fields" :
   [
    {
     "enum_field_value" : 1,
     "name" : "android::internal::details::HasToStringFunction<aidl::android::hardware::gnss::GnssMultipathIndicator>::value"
    }
   ],
   "linker_set_key" : "_ZTIN7android8internal7details19HasToStringFunctionIN4aidl7android8hardware4gnss22GnssMultipathIndicatorEE6$valueE",
   "name" : "android::internal::details::HasToStringFunction<GnssMultipathIndicator>::(anonymous enum at frameworks/native/libs/binder/ndk/include_cpp/android/binder_to_string.h:89:5)",
   "referenced_type" : "_ZTIN7android8internal7details19HasToStringFunctionIN4aidl7android8hardware4gnss22GnssMultipathIndicatorEE6$valueE",
   "self_type" : "_ZTIN7android8internal7details19HasToStringFunctionIN4aidl7android8hardware4gnss22GnssMultipathIndicatorEE6$valueE",
   "size" : 4,
   "source_file" : "frameworks/native/libs/binder/ndk/include_cpp/android/binder_to_string.h",
   "underlying_type" : "_ZTIj"
  },
  {
   "alignment" : 4,
   "enum_fields" :
   [
    {
     "enum_field_value" : 0,
     "name" : "android::internal::details::HasToStringFunction<std::__1::vector<aidl::android::hardware::gnss::GnssMeasurement, std::__1::allocator<aidl::android::hardware::gnss::GnssMeasurement>>>::value"
    }
   ],
   "linker_set_key" : "_ZTIN7android8internal7details19HasToStringFunctionINSt3__16vectorIN4aidl7android8hardware4gnss15GnssMeasurementENS3_9allocatorIS9_EEEEE6$valueE",
   "name" : "android::internal::details::HasToStringFunction<vector<GnssMeasurement, allocator<GnssMeasurement>>>::(anonymous enum at frameworks/native/libs/binder/ndk/include_cpp/android/binder_to_string.h:89:5)",
   "referenced_type" : "_ZTIN7android8internal7details19HasToStringFunctionINSt3__16vectorIN4aidl7android8hardware4gnss15GnssMeasurementENS3_9allocatorIS9_EEEEE6$valueE",
   "self_type" : "_ZTIN7android8internal7details19HasToStringFunctionINSt3__16vectorIN4aidl7android8hardware4gnss15GnssMeasurementENS3_9allocatorIS9_EEEEE6$valueE",
   "size" : 4,
   "source_file" : "frameworks/native/libs/binder/ndk/include_cpp/android/binder_to_string.h",
   "underlying_type" : "_ZTIj"
  },
  {
   "alignment" : 4,
   "enum_fields" :
   [
    {
     "enum_field_value" : 0,
     "name" : "android::internal::details::HasToStringFunction<std::__1::vector<aidl::android::hardware::gnss::CorrelationVector, std::__1::allocator<aidl::android::hardware::gnss::CorrelationVector>>>::value"
    }
   ],
   "linker_set_key" : "_ZTIN7android8internal7details19HasToStringFunctionINSt3__16vectorIN4aidl7android8hardware4gnss17CorrelationVectorENS3_9allocatorIS9_EEEEE6$valueE",
   "name" : "android::internal::details::HasToStringFunction<vector<CorrelationVector, allocator<CorrelationVector>>>::(anonymous enum at frameworks/native/libs/binder/ndk/include_cpp/android/binder_to_string.h:89:5)",
   "referenced_type" : "_ZTIN7android8internal7details19HasToStringFunctionINSt3__16vectorIN4aidl7android8hardware4gnss17CorrelationVectorENS3_9allocatorIS9_EEEEE6$valueE",
   "self_type" : "_ZTIN7android8internal7details19HasToStringFunctionINSt3__16vectorIN4aidl7android8hardware4gnss17CorrelationVectorENS3_9allocatorIS9_EEEEE6$valueE",
   "size" : 4,
   "source_file" : "frameworks/native/libs/binder/ndk/include_cpp/android/binder_to_string.h",
   "underlying_type" : "_ZTIj"
  },
  {
   "alignment" : 4,
   "enum_fields" :
   [
    {
     "enum_field_value" : 0,
     "name" : "android::internal::details::HasToStringFunction<std::__1::vector<double, std::__1::allocator<double>>>::value"
    }
   ],
   "linker_set_key" : "_ZTIN7android8internal7details19HasToStringFunctionINSt3__16vectorIdNS3_9allocatorIdEEEEE6$valueE",
   "name" : "android::internal::details::HasToStringFunction<vector<double, allocator<double>>>::(anonymous enum at frameworks/native/libs/binder/ndk/include_cpp/android/binder_to_string.h:89:5)",
   "referenced_type" : "_ZTIN7android8internal7details19HasToStringFunctionINSt3__16vectorIdNS3_9allocatorIdEEEEE6$valueE",
   "self_type" : "_ZTIN7android8internal7details19HasToStringFunctionINSt3__16vectorIdNS3_9allocatorIdEEEEE6$valueE",
   "size" : 4,
   "source_file" : "frameworks/native/libs/binder/ndk/include_cpp/android/binder_to_string.h",
   "underlying_type" : "_ZTIj"
  },
  {
   "alignment" : 4,
   "enum_fields" :
   [
    {
     "enum_field_value" : 0,
     "name" : "android::internal::details::HasToStringFunction<std::__1::vector<int, std::__1::allocator<int>>>::value"
    }
   ],
   "linker_set_key" : "_ZTIN7android8internal7details19HasToStringFunctionINSt3__16vectorIiNS3_9allocatorIiEEEEE6$valueE",
   "name" : "android::internal::details::HasToStringFunction<vector<int, allocator<int>>>::(anonymous enum at frameworks/native/libs/binder/ndk/include_cpp/android/binder_to_string.h:89:5)",
   "referenced_type" : "_ZTIN7android8internal7details19HasToStringFunctionINSt3__16vectorIiNS3_9allocatorIiEEEEE6$valueE",
   "self_type" : "_ZTIN7android8internal7details19HasToStringFunctionINSt3__16vectorIiNS3_9allocatorIiEEEEE6$valueE",
   "size" : 4,
   "source_file" : "frameworks/native/libs/binder/ndk/include_cpp/android/binder_to_string.h",
   "underlying_type" : "_ZTIj"
  }
 ],
 "function_types" :
 [
  {
   "alignment" : 4,
   "linker_set_key" : "_ZTIFiP8AIBinderjPK7AParcelPS1_E",
   "name" : "int (AIBinder *, unsigned int, const AParcel *, AParcel *)",
   "parameters" :
   [
    {
     "referenced_type" : "_ZTIP8AIBinder"
    },
    {
     "referenced_type" : "_ZTIj"
    },
    {
     "referenced_type" : "_ZTIPK7AParcel"
    },
    {
     "referenced_type" : "_ZTIP7AParcel"
    }
   ],
   "referenced_type" : "_ZTIFiP8AIBinderjPK7AParcelPS1_E",
   "return_type" : "_ZTIi",
   "self_type" : "_ZTIFiP8AIBinderjPK7AParcelPS1_E",
   "source_file" : "frameworks/native/libs/binder/ndk/include_cpp/android/binder_interface_utils.h"
  }
 ],
 "functions" :
 [
  {
   "function_name" : "ndk::BnCInterface<aidl::android::hardware::gnss::IGnssCallback>::asBinder",
   "linker_set_key" : "_ZN3ndk12BnCInterfaceIN4aidl7android8hardware4gnss13IGnssCallbackEE8asBinderEv",
   "parameters" :
   [
    {
     "is_this_ptr" : true,
     "referenced_type" : "_ZTIPN3ndk12BnCInterfaceIN4aidl7android8hardware4gnss13IGnssCallbackEEE"
    }
   ],
   "return_type" : "_ZTIN3ndk10SpAIBinderE",
   "source_file" : "frameworks/native/libs/binder/ndk/include_cpp/android/binder_interface_utils.h"
  },
  {
   "function_name" : "ndk::BnCInterface<aidl::android::hardware::gnss::IGnssPsdsCallback>::asBinder",
   "linker_set_key" : "_ZN3ndk12BnCInterfaceIN4aidl7android8hardware4gnss17IGnssPsdsCallbackEE8asBinderEv",
   "parameters" :
   [
    {
     "is_this_ptr" : true,
     "referenced_type" : "_ZTIPN3ndk12BnCInterfaceIN4aidl7android8hardware4gnss17IGnssPsdsCallbackEEE"
    }
   ],
   "return_type" : "_ZTIN3ndk10SpAIBinderE",
   "source_file" : "frameworks/native/libs/binder/ndk/include_cpp/android/binder_interface_utils.h"
  },
  {
   "function_name" : "ndk::BnCInterface<aidl::android::hardware::gnss::IGnssConfiguration>::asBinder",
   "linker_set_key" : "_ZN3ndk12BnCInterfaceIN4aidl7android8hardware4gnss18IGnssConfigurationEE8asBinderEv",
   "parameters" :
   [
    {
     "is_this_ptr" : true,
     "referenced_type" : "_ZTIPN3ndk12BnCInterfaceIN4aidl7android8hardware4gnss18IGnssConfigurationEEE"
    }
   ],
   "return_type" : "_ZTIN3ndk10SpAIBinderE",
   "source_file" : "frameworks/native/libs/binder/ndk/include_cpp/android/binder_interface_utils.h"
  },
  {
   "function_name" : "ndk::BnCInterface<aidl::android::hardware::gnss::IGnssPowerIndication>::asBinder",
   "linker_set_key" : "_ZN3ndk12BnCInterfaceIN4aidl7android8hardware4gnss20IGnssPowerIndicationEE8asBinderEv",
   "parameters" :
   [
    {
     "is_this_ptr" : true,
     "referenced_type" : "_ZTIPN3ndk12BnCInterfaceIN4aidl7android8hardware4gnss20IGnssPowerIndicationEEE"
    }
   ],
   "return_type" : "_ZTIN3ndk10SpAIBinderE",
   "source_file" : "frameworks/native/libs/binder/ndk/include_cpp/android/binder_interface_utils.h"
  },
  {
   "function_name" : "ndk::BnCInterface<aidl::android::hardware::gnss::IGnssMeasurementCallback>::asBinder",
   "linker_set_key" : "_ZN3ndk12BnCInterfaceIN4aidl7android8hardware4gnss24IGnssMeasurementCallbackEE8asBinderEv",
   "parameters" :
   [
    {
     "is_this_ptr" : true,
     "referenced_type" : "_ZTIPN3ndk12BnCInterfaceIN4aidl7android8hardware4gnss24IGnssMeasurementCallbackEEE"
    }
   ],
   "return_type" : "_ZTIN3ndk10SpAIBinderE",
   "source_file" : "frameworks/native/libs/binder/ndk/include_cpp/android/binder_interface_utils.h"
  },
  {
   "function_name" : "ndk::BnCInterface<aidl::android::hardware::gnss::IGnssMeasurementInterface>::asBinder",
   "linker_set_key" : "_ZN3ndk12BnCInterfaceIN4aidl7android8hardware4gnss25IGnssMeasurementInterfaceEE8asBinderEv",
   "parameters" :
   [
    {
     "is_this_ptr" : true,
     "referenced_type" : "_ZTIPN3ndk12BnCInterfaceIN4aidl7android8hardware4gnss25IGnssMeasurementInterfaceEEE"
    }
   ],
   "return_type" : "_ZTIN3ndk10SpAIBinderE",
   "source_file" : "frameworks/native/libs/binder/ndk/include_cpp/android/binder_interface_utils.h"
  },
  {
   "function_name" : "ndk::BnCInterface<aidl::android::hardware::gnss::IGnssPowerIndicationCallback>::asBinder",
   "linker_set_key" : "_ZN3ndk12BnCInterfaceIN4aidl7android8hardware4gnss28IGnssPowerIndicationCallbackEE8asBinderEv",
   "parameters" :
   [
    {
     "is_this_ptr" : true,
     "referenced_type" : "_ZTIPN3ndk12BnCInterfaceIN4aidl7android8hardware4gnss28IGnssPowerIndicationCallbackEEE"
    }
   ],
   "return_type" : "_ZTIN3ndk10SpAIBinderE",
   "source_file" : "frameworks/native/libs/binder/ndk/include_cpp/android/binder_interface_utils.h"
  },
  {
   "function_name" : "ndk::BnCInterface<aidl::android::hardware::gnss::IGnss>::asBinder",
   "linker_set_key" : "_ZN3ndk12BnCInterfaceIN4aidl7android8hardware4gnss5IGnssEE8asBinderEv",
   "parameters" :
   [
    {
     "is_this_ptr" : true,
     "referenced_type" : "_ZTIPN3ndk12BnCInterfaceIN4aidl7android8hardware4gnss5IGnssEEE"
    }
   ],
   "return_type" : "_ZTIN3ndk10SpAIBinderE",
   "source_file" : "frameworks/native/libs/binder/ndk/include_cpp/android/binder_interface_utils.h"
  },
  {
   "function_name" : "ndk::BnCInterface<aidl::android::hardware::gnss::IGnssPsds>::asBinder",
   "linker_set_key" : "_ZN3ndk12BnCInterfaceIN4aidl7android8hardware4gnss9IGnssPsdsEE8asBinderEv",
   "parameters" :
   [
    {
     "is_this_ptr" : true,
     "referenced_type" : "_ZTIPN3ndk12BnCInterfaceIN4aidl7android8hardware4gnss9IGnssPsdsEEE"
    }
   ],
   "return_type" : "_ZTIN3ndk10SpAIBinderE",
   "source_file" : "frameworks/native/libs/binder/ndk/include_cpp/android/binder_interface_utils.h"
  },
  {
   "function_name" : "ndk::BpCInterface<aidl::android::hardware::gnss::IGnssCallback>::asBinder",
   "linker_set_key" : "_ZN3ndk12BpCInterfaceIN4aidl7android8hardware4gnss13IGnssCallbackEE8asBinderEv",
   "parameters" :
   [
    {
     "is_this_ptr" : true,
     "referenced_type" : "_ZTIPN3ndk12BpCInterfaceIN4aidl7android8hardware4gnss13IGnssCallbackEEE"
    }
   ],
   "return_type" : "_ZTIN3ndk10SpAIBinderE",
   "source_file" : "frameworks/native/libs/binder/ndk/include_cpp/android/binder_interface_utils.h"
  },
  {
   "function_name" : "ndk::BpCInterface<aidl::android::hardware::gnss::IGnssPsdsCallback>::asBinder",
   "linker_set_key" : "_ZN3ndk12BpCInterfaceIN4aidl7android8hardware4gnss17IGnssPsdsCallbackEE8asBinderEv",
   "parameters" :
   [
    {
     "is_this_ptr" : true,
     "referenced_type" : "_ZTIPN3ndk12BpCInterfaceIN4aidl7android8hardware4gnss17IGnssPsdsCallbackEEE"
    }
   ],
   "return_type" : "_ZTIN3ndk10SpAIBinderE",
   "source_file" : "frameworks/native/libs/binder/ndk/include_cpp/android/binder_interface_utils.h"
  },
  {
   "function_name" : "ndk::BpCInterface<aidl::android::hardware::gnss::IGnssConfiguration>::asBinder",
   "linker_set_key" : "_ZN3ndk12BpCInterfaceIN4aidl7android8hardware4gnss18IGnssConfigurationEE8asBinderEv",
   "parameters" :
   [
    {
     "is_this_ptr" : true,
     "referenced_type" : "_ZTIPN3ndk12BpCInterfaceIN4aidl7android8hardware4gnss18IGnssConfigurationEEE"
    }
   ],
   "return_type" : "_ZTIN3ndk10SpAIBinderE",
   "source_file" : "frameworks/native/libs/binder/ndk/include_cpp/android/binder_interface_utils.h"
  },
  {
   "function_name" : "ndk::BpCInterface<aidl::android::hardware::gnss::IGnssPowerIndication>::asBinder",
   "linker_set_key" : "_ZN3ndk12BpCInterfaceIN4aidl7android8hardware4gnss20IGnssPowerIndicationEE8asBinderEv",
   "parameters" :
   [
    {
     "is_this_ptr" : true,
     "referenced_type" : "_ZTIPN3ndk12BpCInterfaceIN4aidl7android8hardware4gnss20IGnssPowerIndicationEEE"
    }
   ],
   "return_type" : "_ZTIN3ndk10SpAIBinderE",
   "source_file" : "frameworks/native/libs/binder/ndk/include_cpp/android/binder_interface_utils.h"
  },
  {
   "function_name" : "ndk::BpCInterface<aidl::android::hardware::gnss::IGnssMeasurementCallback>::asBinder",
   "linker_set_key" : "_ZN3ndk12BpCInterfaceIN4aidl7android8hardware4gnss24IGnssMeasurementCallbackEE8asBinderEv",
   "parameters" :
   [
    {
     "is_this_ptr" : true,
     "referenced_type" : "_ZTIPN3ndk12BpCInterfaceIN4aidl7android8hardware4gnss24IGnssMeasurementCallbackEEE"
    }
   ],
   "return_type" : "_ZTIN3ndk10SpAIBinderE",
   "source_file" : "frameworks/native/libs/binder/ndk/include_cpp/android/binder_interface_utils.h"
  },
  {
   "function_name" : "ndk::BpCInterface<aidl::android::hardware::gnss::IGnssMeasurementInterface>::asBinder",
   "linker_set_key" : "_ZN3ndk12BpCInterfaceIN4aidl7android8hardware4gnss25IGnssMeasurementInterfaceEE8asBinderEv",
   "parameters" :
   [
    {
     "is_this_ptr" : true,
     "referenced_type" : "_ZTIPN3ndk12BpCInterfaceIN4aidl7android8hardware4gnss25IGnssMeasurementInterfaceEEE"
    }
   ],
   "return_type" : "_ZTIN3ndk10SpAIBinderE",
   "source_file" : "frameworks/native/libs/binder/ndk/include_cpp/android/binder_interface_utils.h"
  },
  {
   "function_name" : "ndk::BpCInterface<aidl::android::hardware::gnss::IGnssPowerIndicationCallback>::asBinder",
   "linker_set_key" : "_ZN3ndk12BpCInterfaceIN4aidl7android8hardware4gnss28IGnssPowerIndicationCallbackEE8asBinderEv",
   "parameters" :
   [
    {
     "is_this_ptr" : true,
     "referenced_type" : "_ZTIPN3ndk12BpCInterfaceIN4aidl7android8hardware4gnss28IGnssPowerIndicationCallbackEEE"
    }
   ],
   "return_type" : "_ZTIN3ndk10SpAIBinderE",
   "source_file" : "frameworks/native/libs/binder/ndk/include_cpp/android/binder_interface_utils.h"
  },
  {
   "function_name" : "ndk::BpCInterface<aidl::android::hardware::gnss::IGnss>::asBinder",
   "linker_set_key" : "_ZN3ndk12BpCInterfaceIN4aidl7android8hardware4gnss5IGnssEE8asBinderEv",
   "parameters" :
   [
    {
     "is_this_ptr" : true,
     "referenced_type" : "_ZTIPN3ndk12BpCInterfaceIN4aidl7android8hardware4gnss5IGnssEEE"
    }
   ],
   "return_type" : "_ZTIN3ndk10SpAIBinderE",
   "source_file" : "frameworks/native/libs/binder/ndk/include_cpp/android/binder_interface_utils.h"
  },
  {
   "function_name" : "ndk::BpCInterface<aidl::android::hardware::gnss::IGnssPsds>::asBinder",
   "linker_set_key" : "_ZN3ndk12BpCInterfaceIN4aidl7android8hardware4gnss9IGnssPsdsEE8asBinderEv",
   "parameters" :
   [
    {
     "is_this_ptr" : true,
     "referenced_type" : "_ZTIPN3ndk12BpCInterfaceIN4aidl7android8hardware4gnss9IGnssPsdsEEE"
    }
   ],
   "return_type" : "_ZTIN3ndk10SpAIBinderE",
   "source_file" : "frameworks/native/libs/binder/ndk/include_cpp/android/binder_interface_utils.h"
  },
  {
   "function_name" : "ndk::AParcel_readStdVectorParcelableElement",
   "linker_set_key" : "_ZN3ndk38AParcel_readStdVectorParcelableElementIN4aidl7android8hardware4gnss15GnssMeasurementEEEiPK7AParcelPvj",
   "parameters" :
   [
    {
     "referenced_type" : "_ZTIPK7AParcel"
    },
    {
     "referenced_type" : "_ZTIPv"
    },
    {
     "referenced_type" : "_ZTIj"
    }
   ],
   "return_type" : "_ZTIi",
   "source_file" : "frameworks/native/libs/binder/ndk/include_cpp/android/binder_parcel_utils.h",
   "template_args" : [ "_ZTIN4aidl7android8hardware4gnss15GnssMeasurementE" ]
  },
  {
   "function_name" : "ndk::AParcel_readStdVectorParcelableElement",
   "linker_set_key" : "_ZN3ndk38AParcel_readStdVectorParcelableElementIN4aidl7android8hardware4gnss17BlocklistedSourceEEEiPK7AParcelPvj",
   "parameters" :
   [
    {
     "referenced_type" : "_ZTIPK7AParcel"
    },
    {
     "referenced_type" : "_ZTIPv"
    },
    {
     "referenced_type" : "_ZTIj"
    }
   ],
   "return_type" : "_ZTIi",
   "source_file" : "frameworks/native/libs/binder/ndk/include_cpp/android/binder_parcel_utils.h",
   "template_args" : [ "_ZTIN4aidl7android8hardware4gnss17BlocklistedSourceE" ]
  },
  {
   "function_name" : "ndk::AParcel_readStdVectorParcelableElement",
   "linker_set_key" : "_ZN3ndk38AParcel_readStdVectorParcelableElementIN4aidl7android8hardware4gnss17CorrelationVectorEEEiPK7AParcelPvj",
   "parameters" :
   [
    {
     "referenced_type" : "_ZTIPK7AParcel"
    },
    {
     "referenced_type" : "_ZTIPv"
    },
    {
     "referenced_type" : "_ZTIj"
    }
   ],
   "return_type" : "_ZTIi",
   "source_file" : "frameworks/native/libs/binder/ndk/include_cpp/android/binder_parcel_utils.h",
   "template_args" : [ "_ZTIN4aidl7android8hardware4gnss17CorrelationVectorE" ]
  },
  {
   "function_name" : "ndk::AParcel_writeStdVectorParcelableElement",
   "linker_set_key" : "_ZN3ndk39AParcel_writeStdVectorParcelableElementIN4aidl7android8hardware4gnss15GnssMeasurementEEEiP7AParcelPKvj",
   "parameters" :
   [
    {
     "referenced_type" : "_ZTIP7AParcel"
    },
    {
     "referenced_type" : "_ZTIPKv"
    },
    {
     "referenced_type" : "_ZTIj"
    }
   ],
   "return_type" : "_ZTIi",
   "source_file" : "frameworks/native/libs/binder/ndk/include_cpp/android/binder_parcel_utils.h",
   "template_args" : [ "_ZTIN4aidl7android8hardware4gnss15GnssMeasurementE" ]
  },
  {
   "function_name" : "ndk::AParcel_writeStdVectorParcelableElement",
   "linker_set_key" : "_ZN3ndk39AParcel_writeStdVectorParcelableElementIN4aidl7android8hardware4gnss17BlocklistedSourceEEEiP7AParcelPKvj",
   "parameters" :
   [
    {
     "referenced_type" : "_ZTIP7AParcel"
    },
    {
     "referenced_type" : "_ZTIPKv"
    },
    {
     "referenced_type" : "_ZTIj"
    }
   ],
   "return_type" : "_ZTIi",
   "source_file" : "frameworks/native/libs/binder/ndk/include_cpp/android/binder_parcel_utils.h",
   "template_args" : [ "_ZTIN4aidl7android8hardware4gnss17BlocklistedSourceE" ]
  },
  {
   "function_name" : "ndk::AParcel_writeStdVectorParcelableElement",
   "linker_set_key" : "_ZN3ndk39AParcel_writeStdVectorParcelableElementIN4aidl7android8hardware4gnss17CorrelationVectorEEEiP7AParcelPKvj",
   "parameters" :
   [
    {
     "referenced_type" : "_ZTIP7AParcel"
    },
    {
     "referenced_type" : "_ZTIPKv"
    },
    {
     "referenced_type" : "_ZTIj"
    }
   ],
   "return_type" : "_ZTIi",
   "source_file" : "frameworks/native/libs/binder/ndk/include_cpp/android/binder_parcel_utils.h",
   "template_args" : [ "_ZTIN4aidl7android8hardware4gnss17CorrelationVectorE" ]
  },
  {
   "access" : "protected",
   "function_name" : "aidl::android::hardware::gnss::BnGnssPsds::createBinder",
   "linker_set_key" : "_ZN4aidl7android8hardware4gnss10BnGnssPsds12createBinderEv",
   "parameters" :
   [
    {
     "is_this_ptr" : true,
     "referenced_type" : "_ZTIPN4aidl7android8hardware4gnss10BnGnssPsdsE"
    }
   ],
   "return_type" : "_ZTIN3ndk10SpAIBinderE",
   "source_file" : "out/soong/.intermediates/hardware/interfaces/gnss/aidl/android.hardware.gnss-V1-ndk_platform-source/gen/include/aidl/android/hardware/gnss/BnGnssPsds.h"
  },
  {
   "function_name" : "aidl::android::hardware::gnss::BnGnssPsds::getInterfaceHash",
   "linker_set_key" : "_ZN4aidl7android8hardware4gnss10BnGnssPsds16getInterfaceHashEPNSt3__112basic_stringIcNS4_11char_traitsIcEENS4_9allocatorIcEEEE",
   "parameters" :
   [
    {
     "is_this_ptr" : true,
     "referenced_type" : "_ZTIPN4aidl7android8hardware4gnss10BnGnssPsdsE"
    },
    {
     "referenced_type" : "_ZTIPNSt3__112basic_stringIcNS_11char_traitsIcEENS_9allocatorIcEEEE"
    }
   ],
   "return_type" : "_ZTIN3ndk13ScopedAStatusE",
   "source_file" : "out/soong/.intermediates/hardware/interfaces/gnss/aidl/android.hardware.gnss-V1-ndk_platform-source/gen/include/aidl/android/hardware/gnss/BnGnssPsds.h"
  },
  {
   "function_name" : "aidl::android::hardware::gnss::BnGnssPsds::getInterfaceVersion",
   "linker_set_key" : "_ZN4aidl7android8hardware4gnss10BnGnssPsds19getInterfaceVersionEPi",
   "parameters" :
   [
    {
     "is_this_ptr" : true,
     "referenced_type" : "_ZTIPN4aidl7android8hardware4gnss10BnGnssPsdsE"
    },
    {
     "referenced_type" : "_ZTIPi"
    }
   ],
   "return_type" : "_ZTIN3ndk13ScopedAStatusE",
   "source_file" : "out/soong/.intermediates/hardware/interfaces/gnss/aidl/android.hardware.gnss-V1-ndk_platform-source/gen/include/aidl/android/hardware/gnss/BnGnssPsds.h"
  },
  {
   "function_name" : "aidl::android::hardware::gnss::BnGnssPsds::BnGnssPsds",
   "linker_set_key" : "_ZN4aidl7android8hardware4gnss10BnGnssPsdsC2Ev",
   "parameters" :
   [
    {
     "is_this_ptr" : true,
     "referenced_type" : "_ZTIPN4aidl7android8hardware4gnss10BnGnssPsdsE"
    }
   ],
   "return_type" : "_ZTIv",
   "source_file" : "out/soong/.intermediates/hardware/interfaces/gnss/aidl/android.hardware.gnss-V1-ndk_platform-source/gen/include/aidl/android/hardware/gnss/BnGnssPsds.h"
  },
  {
   "function_name" : "aidl::android::hardware::gnss::BnGnssPsds::~BnGnssPsds",
   "linker_set_key" : "_ZN4aidl7android8hardware4gnss10BnGnssPsdsD0Ev",
   "parameters" :
   [
    {
     "is_this_ptr" : true,
     "referenced_type" : "_ZTIPN4aidl7android8hardware4gnss10BnGnssPsdsE"
    }
   ],
   "return_type" : "_ZTIv",
   "source_file" : "out/soong/.intermediates/hardware/interfaces/gnss/aidl/android.hardware.gnss-V1-ndk_platform-source/gen/include/aidl/android/hardware/gnss/BnGnssPsds.h"
  },
  {
   "function_name" : "aidl::android::hardware::gnss::BnGnssPsds::~BnGnssPsds",
   "linker_set_key" : "_ZN4aidl7android8hardware4gnss10BnGnssPsdsD1Ev",
   "parameters" :
   [
    {
     "is_this_ptr" : true,
     "referenced_type" : "_ZTIPN4aidl7android8hardware4gnss10BnGnssPsdsE"
    }
   ],
   "return_type" : "_ZTIv",
   "source_file" : "out/soong/.intermediates/hardware/interfaces/gnss/aidl/android.hardware.gnss-V1-ndk_platform-source/gen/include/aidl/android/hardware/gnss/BnGnssPsds.h"
  },
  {
   "function_name" : "aidl::android::hardware::gnss::BnGnssPsds::~BnGnssPsds",
   "linker_set_key" : "_ZN4aidl7android8hardware4gnss10BnGnssPsdsD2Ev",
   "parameters" :
   [
    {
     "is_this_ptr" : true,
     "referenced_type" : "_ZTIPN4aidl7android8hardware4gnss10BnGnssPsdsE"
    }
   ],
   "return_type" : "_ZTIv",
   "source_file" : "out/soong/.intermediates/hardware/interfaces/gnss/aidl/android.hardware.gnss-V1-ndk_platform-source/gen/include/aidl/android/hardware/gnss/BnGnssPsds.h"
  },
  {
   "function_name" : "aidl::android::hardware::gnss::BpGnssPsds::setCallback",
   "linker_set_key" : "_ZN4aidl7android8hardware4gnss10BpGnssPsds11setCallbackERKNSt3__110shared_ptrINS2_17IGnssPsdsCallbackEEE",
   "parameters" :
   [
    {
     "is_this_ptr" : true,
     "referenced_type" : "_ZTIPN4aidl7android8hardware4gnss10BpGnssPsdsE"
    },
    {
     "referenced_type" : "_ZTIRKNSt3__110shared_ptrIN4aidl7android8hardware4gnss17IGnssPsdsCallbackEEE"
    }
   ],
   "return_type" : "_ZTIN3ndk13ScopedAStatusE",
   "source_file" : "out/soong/.intermediates/hardware/interfaces/gnss/aidl/android.hardware.gnss-V1-ndk_platform-source/gen/include/aidl/android/hardware/gnss/BpGnssPsds.h"
  },
  {
   "function_name" : "aidl::android::hardware::gnss::BpGnssPsds::injectPsdsData",
   "linker_set_key" : "_ZN4aidl7android8hardware4gnss10BpGnssPsds14injectPsdsDataENS2_8PsdsTypeERKNSt3__16vectorIhNS5_9allocatorIhEEEE",
   "parameters" :
   [
    {
     "is_this_ptr" : true,
     "referenced_type" : "_ZTIPN4aidl7android8hardware4gnss10BpGnssPsdsE"
    },
    {
     "referenced_type" : "_ZTIN4aidl7android8hardware4gnss8PsdsTypeE"
    },
    {
     "referenced_type" : "_ZTIRKNSt3__16vectorIhNS_9allocatorIhEEEE"
    }
   ],
   "return_type" : "_ZTIN3ndk13ScopedAStatusE",
   "source_file" : "out/soong/.intermediates/hardware/interfaces/gnss/aidl/android.hardware.gnss-V1-ndk_platform-source/gen/include/aidl/android/hardware/gnss/BpGnssPsds.h"
  },
  {
   "function_name" : "aidl::android::hardware::gnss::BpGnssPsds::getInterfaceHash",
   "linker_set_key" : "_ZN4aidl7android8hardware4gnss10BpGnssPsds16getInterfaceHashEPNSt3__112basic_stringIcNS4_11char_traitsIcEENS4_9allocatorIcEEEE",
   "parameters" :
   [
    {
     "is_this_ptr" : true,
     "referenced_type" : "_ZTIPN4aidl7android8hardware4gnss10BpGnssPsdsE"
    },
    {
     "referenced_type" : "_ZTIPNSt3__112basic_stringIcNS_11char_traitsIcEENS_9allocatorIcEEEE"
    }
   ],
   "return_type" : "_ZTIN3ndk13ScopedAStatusE",
   "source_file" : "out/soong/.intermediates/hardware/interfaces/gnss/aidl/android.hardware.gnss-V1-ndk_platform-source/gen/include/aidl/android/hardware/gnss/BpGnssPsds.h"
  },
  {
   "function_name" : "aidl::android::hardware::gnss::BpGnssPsds::getInterfaceVersion",
   "linker_set_key" : "_ZN4aidl7android8hardware4gnss10BpGnssPsds19getInterfaceVersionEPi",
   "parameters" :
   [
    {
     "is_this_ptr" : true,
     "referenced_type" : "_ZTIPN4aidl7android8hardware4gnss10BpGnssPsdsE"
    },
    {
     "referenced_type" : "_ZTIPi"
    }
   ],
   "return_type" : "_ZTIN3ndk13ScopedAStatusE",
   "source_file" : "out/soong/.intermediates/hardware/interfaces/gnss/aidl/android.hardware.gnss-V1-ndk_platform-source/gen/include/aidl/android/hardware/gnss/BpGnssPsds.h"
  },
  {
   "function_name" : "aidl::android::hardware::gnss::BpGnssPsds::BpGnssPsds",
   "linker_set_key" : "_ZN4aidl7android8hardware4gnss10BpGnssPsdsC1ERKN3ndk10SpAIBinderE",
   "parameters" :
   [
    {
     "is_this_ptr" : true,
     "referenced_type" : "_ZTIPN4aidl7android8hardware4gnss10BpGnssPsdsE"
    },
    {
     "referenced_type" : "_ZTIRKN3ndk10SpAIBinderE"
    }
   ],
   "return_type" : "_ZTIv",
   "source_file" : "out/soong/.intermediates/hardware/interfaces/gnss/aidl/android.hardware.gnss-V1-ndk_platform-source/gen/include/aidl/android/hardware/gnss/BpGnssPsds.h"
  },
  {
   "function_name" : "aidl::android::hardware::gnss::BpGnssPsds::BpGnssPsds",
   "linker_set_key" : "_ZN4aidl7android8hardware4gnss10BpGnssPsdsC2ERKN3ndk10SpAIBinderE",
   "parameters" :
   [
    {
     "is_this_ptr" : true,
     "referenced_type" : "_ZTIPN4aidl7android8hardware4gnss10BpGnssPsdsE"
    },
    {
     "referenced_type" : "_ZTIRKN3ndk10SpAIBinderE"
    }
   ],
   "return_type" : "_ZTIv",
   "source_file" : "out/soong/.intermediates/hardware/interfaces/gnss/aidl/android.hardware.gnss-V1-ndk_platform-source/gen/include/aidl/android/hardware/gnss/BpGnssPsds.h"
  },
  {
   "function_name" : "aidl::android::hardware::gnss::BpGnssPsds::~BpGnssPsds",
   "linker_set_key" : "_ZN4aidl7android8hardware4gnss10BpGnssPsdsD0Ev",
   "parameters" :
   [
    {
     "is_this_ptr" : true,
     "referenced_type" : "_ZTIPN4aidl7android8hardware4gnss10BpGnssPsdsE"
    }
   ],
   "return_type" : "_ZTIv",
   "source_file" : "out/soong/.intermediates/hardware/interfaces/gnss/aidl/android.hardware.gnss-V1-ndk_platform-source/gen/include/aidl/android/hardware/gnss/BpGnssPsds.h"
  },
  {
   "function_name" : "aidl::android::hardware::gnss::BpGnssPsds::~BpGnssPsds",
   "linker_set_key" : "_ZN4aidl7android8hardware4gnss10BpGnssPsdsD1Ev",
   "parameters" :
   [
    {
     "is_this_ptr" : true,
     "referenced_type" : "_ZTIPN4aidl7android8hardware4gnss10BpGnssPsdsE"
    }
   ],
   "return_type" : "_ZTIv",
   "source_file" : "out/soong/.intermediates/hardware/interfaces/gnss/aidl/android.hardware.gnss-V1-ndk_platform-source/gen/include/aidl/android/hardware/gnss/BpGnssPsds.h"
  },
  {
   "function_name" : "aidl::android::hardware::gnss::BpGnssPsds::~BpGnssPsds",
   "linker_set_key" : "_ZN4aidl7android8hardware4gnss10BpGnssPsdsD2Ev",
   "parameters" :
   [
    {
     "is_this_ptr" : true,
     "referenced_type" : "_ZTIPN4aidl7android8hardware4gnss10BpGnssPsdsE"
    }
   ],
   "return_type" : "_ZTIv",
   "source_file" : "out/soong/.intermediates/hardware/interfaces/gnss/aidl/android.hardware.gnss-V1-ndk_platform-source/gen/include/aidl/android/hardware/gnss/BpGnssPsds.h"
  },
  {
   "function_name" : "aidl::android::hardware::gnss::IGnssDefault::setCallback",
   "linker_set_key" : "_ZN4aidl7android8hardware4gnss12IGnssDefault11setCallbackERKNSt3__110shared_ptrINS2_13IGnssCallbackEEE",
   "parameters" :
   [
    {
     "is_this_ptr" : true,
     "referenced_type" : "_ZTIPN4aidl7android8hardware4gnss12IGnssDefaultE"
    },
    {
     "referenced_type" : "_ZTIRKNSt3__110shared_ptrIN4aidl7android8hardware4gnss13IGnssCallbackEEE"
    }
   ],
   "return_type" : "_ZTIN3ndk13ScopedAStatusE",
   "source_file" : "out/soong/.intermediates/hardware/interfaces/gnss/aidl/android.hardware.gnss-V1-ndk_platform-source/gen/include/aidl/android/hardware/gnss/IGnss.h"
  },
  {
   "function_name" : "aidl::android::hardware::gnss::IGnssDefault::getExtensionPsds",
   "linker_set_key" : "_ZN4aidl7android8hardware4gnss12IGnssDefault16getExtensionPsdsEPNSt3__110shared_ptrINS2_9IGnssPsdsEEE",
   "parameters" :
   [
    {
     "is_this_ptr" : true,
     "referenced_type" : "_ZTIPN4aidl7android8hardware4gnss12IGnssDefaultE"
    },
    {
     "referenced_type" : "_ZTIPNSt3__110shared_ptrIN4aidl7android8hardware4gnss9IGnssPsdsEEE"
    }
   ],
   "return_type" : "_ZTIN3ndk13ScopedAStatusE",
   "source_file" : "out/soong/.intermediates/hardware/interfaces/gnss/aidl/android.hardware.gnss-V1-ndk_platform-source/gen/include/aidl/android/hardware/gnss/IGnss.h"
  },
  {
   "function_name" : "aidl::android::hardware::gnss::IGnssDefault::getInterfaceHash",
   "linker_set_key" : "_ZN4aidl7android8hardware4gnss12IGnssDefault16getInterfaceHashEPNSt3__112basic_stringIcNS4_11char_traitsIcEENS4_9allocatorIcEEEE",
   "parameters" :
   [
    {
     "is_this_ptr" : true,
     "referenced_type" : "_ZTIPN4aidl7android8hardware4gnss12IGnssDefaultE"
    },
    {
     "referenced_type" : "_ZTIPNSt3__112basic_stringIcNS_11char_traitsIcEENS_9allocatorIcEEEE"
    }
   ],
   "return_type" : "_ZTIN3ndk13ScopedAStatusE",
   "source_file" : "out/soong/.intermediates/hardware/interfaces/gnss/aidl/android.hardware.gnss-V1-ndk_platform-source/gen/include/aidl/android/hardware/gnss/IGnss.h"
  },
  {
   "function_name" : "aidl::android::hardware::gnss::IGnssDefault::getInterfaceVersion",
   "linker_set_key" : "_ZN4aidl7android8hardware4gnss12IGnssDefault19getInterfaceVersionEPi",
   "parameters" :
   [
    {
     "is_this_ptr" : true,
     "referenced_type" : "_ZTIPN4aidl7android8hardware4gnss12IGnssDefaultE"
    },
    {
     "referenced_type" : "_ZTIPi"
    }
   ],
   "return_type" : "_ZTIN3ndk13ScopedAStatusE",
   "source_file" : "out/soong/.intermediates/hardware/interfaces/gnss/aidl/android.hardware.gnss-V1-ndk_platform-source/gen/include/aidl/android/hardware/gnss/IGnss.h"
  },
  {
   "function_name" : "aidl::android::hardware::gnss::IGnssDefault::getExtensionGnssMeasurement",
   "linker_set_key" : "_ZN4aidl7android8hardware4gnss12IGnssDefault27getExtensionGnssMeasurementEPNSt3__110shared_ptrINS2_25IGnssMeasurementInterfaceEEE",
   "parameters" :
   [
    {
     "is_this_ptr" : true,
     "referenced_type" : "_ZTIPN4aidl7android8hardware4gnss12IGnssDefaultE"
    },
    {
     "referenced_type" : "_ZTIPNSt3__110shared_ptrIN4aidl7android8hardware4gnss25IGnssMeasurementInterfaceEEE"
    }
   ],
   "return_type" : "_ZTIN3ndk13ScopedAStatusE",
   "source_file" : "out/soong/.intermediates/hardware/interfaces/gnss/aidl/android.hardware.gnss-V1-ndk_platform-source/gen/include/aidl/android/hardware/gnss/IGnss.h"
  },
  {
   "function_name" : "aidl::android::hardware::gnss::IGnssDefault::getExtensionGnssConfiguration",
   "linker_set_key" : "_ZN4aidl7android8hardware4gnss12IGnssDefault29getExtensionGnssConfigurationEPNSt3__110shared_ptrINS2_18IGnssConfigurationEEE",
   "parameters" :
   [
    {
     "is_this_ptr" : true,
     "referenced_type" : "_ZTIPN4aidl7android8hardware4gnss12IGnssDefaultE"
    },
    {
     "referenced_type" : "_ZTIPNSt3__110shared_ptrIN4aidl7android8hardware4gnss18IGnssConfigurationEEE"
    }
   ],
   "return_type" : "_ZTIN3ndk13ScopedAStatusE",
   "source_file" : "out/soong/.intermediates/hardware/interfaces/gnss/aidl/android.hardware.gnss-V1-ndk_platform-source/gen/include/aidl/android/hardware/gnss/IGnss.h"
  },
  {
   "function_name" : "aidl::android::hardware::gnss::IGnssDefault::getExtensionGnssPowerIndication",
   "linker_set_key" : "_ZN4aidl7android8hardware4gnss12IGnssDefault31getExtensionGnssPowerIndicationEPNSt3__110shared_ptrINS2_20IGnssPowerIndicationEEE",
   "parameters" :
   [
    {
     "is_this_ptr" : true,
     "referenced_type" : "_ZTIPN4aidl7android8hardware4gnss12IGnssDefaultE"
    },
    {
     "referenced_type" : "_ZTIPNSt3__110shared_ptrIN4aidl7android8hardware4gnss20IGnssPowerIndicationEEE"
    }
   ],
   "return_type" : "_ZTIN3ndk13ScopedAStatusE",
   "source_file" : "out/soong/.intermediates/hardware/interfaces/gnss/aidl/android.hardware.gnss-V1-ndk_platform-source/gen/include/aidl/android/hardware/gnss/IGnss.h"
  },
  {
   "function_name" : "aidl::android::hardware::gnss::IGnssDefault::close",
   "linker_set_key" : "_ZN4aidl7android8hardware4gnss12IGnssDefault5closeEv",
   "parameters" :
   [
    {
     "is_this_ptr" : true,
     "referenced_type" : "_ZTIPN4aidl7android8hardware4gnss12IGnssDefaultE"
    }
   ],
   "return_type" : "_ZTIN3ndk13ScopedAStatusE",
   "source_file" : "out/soong/.intermediates/hardware/interfaces/gnss/aidl/android.hardware.gnss-V1-ndk_platform-source/gen/include/aidl/android/hardware/gnss/IGnss.h"
  },
  {
   "function_name" : "aidl::android::hardware::gnss::IGnssDefault::asBinder",
   "linker_set_key" : "_ZN4aidl7android8hardware4gnss12IGnssDefault8asBinderEv",
   "parameters" :
   [
    {
     "is_this_ptr" : true,
     "referenced_type" : "_ZTIPN4aidl7android8hardware4gnss12IGnssDefaultE"
    }
   ],
   "return_type" : "_ZTIN3ndk10SpAIBinderE",
   "source_file" : "out/soong/.intermediates/hardware/interfaces/gnss/aidl/android.hardware.gnss-V1-ndk_platform-source/gen/include/aidl/android/hardware/gnss/IGnss.h"
  },
  {
   "function_name" : "aidl::android::hardware::gnss::IGnssDefault::isRemote",
   "linker_set_key" : "_ZN4aidl7android8hardware4gnss12IGnssDefault8isRemoteEv",
   "parameters" :
   [
    {
     "is_this_ptr" : true,
     "referenced_type" : "_ZTIPN4aidl7android8hardware4gnss12IGnssDefaultE"
    }
   ],
   "return_type" : "_ZTIb",
   "source_file" : "out/soong/.intermediates/hardware/interfaces/gnss/aidl/android.hardware.gnss-V1-ndk_platform-source/gen/include/aidl/android/hardware/gnss/IGnss.h"
  },
  {
   "function_name" : "aidl::android::hardware::gnss::SatellitePvt::readFromParcel",
   "linker_set_key" : "_ZN4aidl7android8hardware4gnss12SatellitePvt14readFromParcelEPK7AParcel",
   "parameters" :
   [
    {
     "is_this_ptr" : true,
     "referenced_type" : "_ZTIPN4aidl7android8hardware4gnss12SatellitePvtE"
    },
    {
     "referenced_type" : "_ZTIPK7AParcel"
    }
   ],
   "return_type" : "_ZTIi",
   "source_file" : "out/soong/.intermediates/hardware/interfaces/gnss/aidl/android.hardware.gnss-V1-ndk_platform-source/gen/include/aidl/android/hardware/gnss/SatellitePvt.h"
  },
  {
   "function_name" : "aidl::android::hardware::gnss::IGnssCallback::fromBinder",
   "linker_set_key" : "_ZN4aidl7android8hardware4gnss13IGnssCallback10fromBinderERKN3ndk10SpAIBinderE",
   "parameters" :
   [
    {
     "referenced_type" : "_ZTIRKN3ndk10SpAIBinderE"
    }
   ],
   "return_type" : "_ZTINSt3__110shared_ptrIN4aidl7android8hardware4gnss13IGnssCallbackEEE",
   "source_file" : "out/soong/.intermediates/hardware/interfaces/gnss/aidl/android.hardware.gnss-V1-ndk_platform-source/gen/include/aidl/android/hardware/gnss/IGnssCallback.h"
  },
  {
   "function_name" : "aidl::android::hardware::gnss::IGnssCallback::writeToParcel",
   "linker_set_key" : "_ZN4aidl7android8hardware4gnss13IGnssCallback13writeToParcelEP7AParcelRKNSt3__110shared_ptrIS3_EE",
   "parameters" :
   [
    {
     "referenced_type" : "_ZTIP7AParcel"
    },
    {
     "referenced_type" : "_ZTIRKNSt3__110shared_ptrIN4aidl7android8hardware4gnss13IGnssCallbackEEE"
    }
   ],
   "return_type" : "_ZTIi",
   "source_file" : "out/soong/.intermediates/hardware/interfaces/gnss/aidl/android.hardware.gnss-V1-ndk_platform-source/gen/include/aidl/android/hardware/gnss/IGnssCallback.h"
  },
  {
   "function_name" : "aidl::android::hardware::gnss::IGnssCallback::getDefaultImpl",
   "linker_set_key" : "_ZN4aidl7android8hardware4gnss13IGnssCallback14getDefaultImplEv",
   "return_type" : "_ZTIRKNSt3__110shared_ptrIN4aidl7android8hardware4gnss13IGnssCallbackEEE",
   "source_file" : "out/soong/.intermediates/hardware/interfaces/gnss/aidl/android.hardware.gnss-V1-ndk_platform-source/gen/include/aidl/android/hardware/gnss/IGnssCallback.h"
  },
  {
   "function_name" : "aidl::android::hardware::gnss::IGnssCallback::readFromParcel",
   "linker_set_key" : "_ZN4aidl7android8hardware4gnss13IGnssCallback14readFromParcelEPK7AParcelPNSt3__110shared_ptrIS3_EE",
   "parameters" :
   [
    {
     "referenced_type" : "_ZTIPK7AParcel"
    },
    {
     "referenced_type" : "_ZTIPNSt3__110shared_ptrIN4aidl7android8hardware4gnss13IGnssCallbackEEE"
    }
   ],
   "return_type" : "_ZTIi",
   "source_file" : "out/soong/.intermediates/hardware/interfaces/gnss/aidl/android.hardware.gnss-V1-ndk_platform-source/gen/include/aidl/android/hardware/gnss/IGnssCallback.h"
  },
  {
   "function_name" : "aidl::android::hardware::gnss::IGnssCallback::setDefaultImpl",
   "linker_set_key" : "_ZN4aidl7android8hardware4gnss13IGnssCallback14setDefaultImplERKNSt3__110shared_ptrIS3_EE",
   "parameters" :
   [
    {
     "referenced_type" : "_ZTIRKNSt3__110shared_ptrIN4aidl7android8hardware4gnss13IGnssCallbackEEE"
    }
   ],
   "return_type" : "_ZTIb",
   "source_file" : "out/soong/.intermediates/hardware/interfaces/gnss/aidl/android.hardware.gnss-V1-ndk_platform-source/gen/include/aidl/android/hardware/gnss/IGnssCallback.h"
  },
  {
   "function_name" : "aidl::android::hardware::gnss::IGnssCallback::IGnssCallback",
   "linker_set_key" : "_ZN4aidl7android8hardware4gnss13IGnssCallbackC2Ev",
   "parameters" :
   [
    {
     "is_this_ptr" : true,
     "referenced_type" : "_ZTIPN4aidl7android8hardware4gnss13IGnssCallbackE"
    }
   ],
   "return_type" : "_ZTIv",
   "source_file" : "out/soong/.intermediates/hardware/interfaces/gnss/aidl/android.hardware.gnss-V1-ndk_platform-source/gen/include/aidl/android/hardware/gnss/IGnssCallback.h"
  },
  {
   "function_name" : "aidl::android::hardware::gnss::IGnssCallback::~IGnssCallback",
   "linker_set_key" : "_ZN4aidl7android8hardware4gnss13IGnssCallbackD0Ev",
   "parameters" :
   [
    {
     "is_this_ptr" : true,
     "referenced_type" : "_ZTIPN4aidl7android8hardware4gnss13IGnssCallbackE"
    }
   ],
   "return_type" : "_ZTIv",
   "source_file" : "out/soong/.intermediates/hardware/interfaces/gnss/aidl/android.hardware.gnss-V1-ndk_platform-source/gen/include/aidl/android/hardware/gnss/IGnssCallback.h"
  },
  {
   "function_name" : "aidl::android::hardware::gnss::IGnssCallback::~IGnssCallback",
   "linker_set_key" : "_ZN4aidl7android8hardware4gnss13IGnssCallbackD1Ev",
   "parameters" :
   [
    {
     "is_this_ptr" : true,
     "referenced_type" : "_ZTIPN4aidl7android8hardware4gnss13IGnssCallbackE"
    }
   ],
   "return_type" : "_ZTIv",
   "source_file" : "out/soong/.intermediates/hardware/interfaces/gnss/aidl/android.hardware.gnss-V1-ndk_platform-source/gen/include/aidl/android/hardware/gnss/IGnssCallback.h"
  },
  {
   "function_name" : "aidl::android::hardware::gnss::IGnssCallback::~IGnssCallback",
   "linker_set_key" : "_ZN4aidl7android8hardware4gnss13IGnssCallbackD2Ev",
   "parameters" :
   [
    {
     "is_this_ptr" : true,
     "referenced_type" : "_ZTIPN4aidl7android8hardware4gnss13IGnssCallbackE"
    }
   ],
   "return_type" : "_ZTIv",
   "source_file" : "out/soong/.intermediates/hardware/interfaces/gnss/aidl/android.hardware.gnss-V1-ndk_platform-source/gen/include/aidl/android/hardware/gnss/IGnssCallback.h"
  },
  {
   "access" : "protected",
   "function_name" : "aidl::android::hardware::gnss::BnGnssCallback::createBinder",
   "linker_set_key" : "_ZN4aidl7android8hardware4gnss14BnGnssCallback12createBinderEv",
   "parameters" :
   [
    {
     "is_this_ptr" : true,
     "referenced_type" : "_ZTIPN4aidl7android8hardware4gnss14BnGnssCallbackE"
    }
   ],
   "return_type" : "_ZTIN3ndk10SpAIBinderE",
   "source_file" : "out/soong/.intermediates/hardware/interfaces/gnss/aidl/android.hardware.gnss-V1-ndk_platform-source/gen/include/aidl/android/hardware/gnss/BnGnssCallback.h"
  },
  {
   "function_name" : "aidl::android::hardware::gnss::BnGnssCallback::getInterfaceHash",
   "linker_set_key" : "_ZN4aidl7android8hardware4gnss14BnGnssCallback16getInterfaceHashEPNSt3__112basic_stringIcNS4_11char_traitsIcEENS4_9allocatorIcEEEE",
   "parameters" :
   [
    {
     "is_this_ptr" : true,
     "referenced_type" : "_ZTIPN4aidl7android8hardware4gnss14BnGnssCallbackE"
    },
    {
     "referenced_type" : "_ZTIPNSt3__112basic_stringIcNS_11char_traitsIcEENS_9allocatorIcEEEE"
    }
   ],
   "return_type" : "_ZTIN3ndk13ScopedAStatusE",
   "source_file" : "out/soong/.intermediates/hardware/interfaces/gnss/aidl/android.hardware.gnss-V1-ndk_platform-source/gen/include/aidl/android/hardware/gnss/BnGnssCallback.h"
  },
  {
   "function_name" : "aidl::android::hardware::gnss::BnGnssCallback::getInterfaceVersion",
   "linker_set_key" : "_ZN4aidl7android8hardware4gnss14BnGnssCallback19getInterfaceVersionEPi",
   "parameters" :
   [
    {
     "is_this_ptr" : true,
     "referenced_type" : "_ZTIPN4aidl7android8hardware4gnss14BnGnssCallbackE"
    },
    {
     "referenced_type" : "_ZTIPi"
    }
   ],
   "return_type" : "_ZTIN3ndk13ScopedAStatusE",
   "source_file" : "out/soong/.intermediates/hardware/interfaces/gnss/aidl/android.hardware.gnss-V1-ndk_platform-source/gen/include/aidl/android/hardware/gnss/BnGnssCallback.h"
  },
  {
   "function_name" : "aidl::android::hardware::gnss::BnGnssCallback::BnGnssCallback",
   "linker_set_key" : "_ZN4aidl7android8hardware4gnss14BnGnssCallbackC2Ev",
   "parameters" :
   [
    {
     "is_this_ptr" : true,
     "referenced_type" : "_ZTIPN4aidl7android8hardware4gnss14BnGnssCallbackE"
    }
   ],
   "return_type" : "_ZTIv",
   "source_file" : "out/soong/.intermediates/hardware/interfaces/gnss/aidl/android.hardware.gnss-V1-ndk_platform-source/gen/include/aidl/android/hardware/gnss/BnGnssCallback.h"
  },
  {
   "function_name" : "aidl::android::hardware::gnss::BnGnssCallback::~BnGnssCallback",
   "linker_set_key" : "_ZN4aidl7android8hardware4gnss14BnGnssCallbackD0Ev",
   "parameters" :
   [
    {
     "is_this_ptr" : true,
     "referenced_type" : "_ZTIPN4aidl7android8hardware4gnss14BnGnssCallbackE"
    }
   ],
   "return_type" : "_ZTIv",
   "source_file" : "out/soong/.intermediates/hardware/interfaces/gnss/aidl/android.hardware.gnss-V1-ndk_platform-source/gen/include/aidl/android/hardware/gnss/BnGnssCallback.h"
  },
  {
   "function_name" : "aidl::android::hardware::gnss::BnGnssCallback::~BnGnssCallback",
   "linker_set_key" : "_ZN4aidl7android8hardware4gnss14BnGnssCallbackD1Ev",
   "parameters" :
   [
    {
     "is_this_ptr" : true,
     "referenced_type" : "_ZTIPN4aidl7android8hardware4gnss14BnGnssCallbackE"
    }
   ],
   "return_type" : "_ZTIv",
   "source_file" : "out/soong/.intermediates/hardware/interfaces/gnss/aidl/android.hardware.gnss-V1-ndk_platform-source/gen/include/aidl/android/hardware/gnss/BnGnssCallback.h"
  },
  {
   "function_name" : "aidl::android::hardware::gnss::BnGnssCallback::~BnGnssCallback",
   "linker_set_key" : "_ZN4aidl7android8hardware4gnss14BnGnssCallbackD2Ev",
   "parameters" :
   [
    {
     "is_this_ptr" : true,
     "referenced_type" : "_ZTIPN4aidl7android8hardware4gnss14BnGnssCallbackE"
    }
   ],
   "return_type" : "_ZTIv",
   "source_file" : "out/soong/.intermediates/hardware/interfaces/gnss/aidl/android.hardware.gnss-V1-ndk_platform-source/gen/include/aidl/android/hardware/gnss/BnGnssCallback.h"
  },
  {
   "function_name" : "aidl::android::hardware::gnss::BpGnssCallback::getInterfaceHash",
   "linker_set_key" : "_ZN4aidl7android8hardware4gnss14BpGnssCallback16getInterfaceHashEPNSt3__112basic_stringIcNS4_11char_traitsIcEENS4_9allocatorIcEEEE",
   "parameters" :
   [
    {
     "is_this_ptr" : true,
     "referenced_type" : "_ZTIPN4aidl7android8hardware4gnss14BpGnssCallbackE"
    },
    {
     "referenced_type" : "_ZTIPNSt3__112basic_stringIcNS_11char_traitsIcEENS_9allocatorIcEEEE"
    }
   ],
   "return_type" : "_ZTIN3ndk13ScopedAStatusE",
   "source_file" : "out/soong/.intermediates/hardware/interfaces/gnss/aidl/android.hardware.gnss-V1-ndk_platform-source/gen/include/aidl/android/hardware/gnss/BpGnssCallback.h"
  },
  {
   "function_name" : "aidl::android::hardware::gnss::BpGnssCallback::getInterfaceVersion",
   "linker_set_key" : "_ZN4aidl7android8hardware4gnss14BpGnssCallback19getInterfaceVersionEPi",
   "parameters" :
   [
    {
     "is_this_ptr" : true,
     "referenced_type" : "_ZTIPN4aidl7android8hardware4gnss14BpGnssCallbackE"
    },
    {
     "referenced_type" : "_ZTIPi"
    }
   ],
   "return_type" : "_ZTIN3ndk13ScopedAStatusE",
   "source_file" : "out/soong/.intermediates/hardware/interfaces/gnss/aidl/android.hardware.gnss-V1-ndk_platform-source/gen/include/aidl/android/hardware/gnss/BpGnssCallback.h"
  },
  {
   "function_name" : "aidl::android::hardware::gnss::BpGnssCallback::gnssSetCapabilitiesCb",
   "linker_set_key" : "_ZN4aidl7android8hardware4gnss14BpGnssCallback21gnssSetCapabilitiesCbEi",
   "parameters" :
   [
    {
     "is_this_ptr" : true,
     "referenced_type" : "_ZTIPN4aidl7android8hardware4gnss14BpGnssCallbackE"
    },
    {
     "referenced_type" : "_ZTIi"
    }
   ],
   "return_type" : "_ZTIN3ndk13ScopedAStatusE",
   "source_file" : "out/soong/.intermediates/hardware/interfaces/gnss/aidl/android.hardware.gnss-V1-ndk_platform-source/gen/include/aidl/android/hardware/gnss/BpGnssCallback.h"
  },
  {
   "function_name" : "aidl::android::hardware::gnss::BpGnssCallback::BpGnssCallback",
   "linker_set_key" : "_ZN4aidl7android8hardware4gnss14BpGnssCallbackC1ERKN3ndk10SpAIBinderE",
   "parameters" :
   [
    {
     "is_this_ptr" : true,
     "referenced_type" : "_ZTIPN4aidl7android8hardware4gnss14BpGnssCallbackE"
    },
    {
     "referenced_type" : "_ZTIRKN3ndk10SpAIBinderE"
    }
   ],
   "return_type" : "_ZTIv",
   "source_file" : "out/soong/.intermediates/hardware/interfaces/gnss/aidl/android.hardware.gnss-V1-ndk_platform-source/gen/include/aidl/android/hardware/gnss/BpGnssCallback.h"
  },
  {
   "function_name" : "aidl::android::hardware::gnss::BpGnssCallback::BpGnssCallback",
   "linker_set_key" : "_ZN4aidl7android8hardware4gnss14BpGnssCallbackC2ERKN3ndk10SpAIBinderE",
   "parameters" :
   [
    {
     "is_this_ptr" : true,
     "referenced_type" : "_ZTIPN4aidl7android8hardware4gnss14BpGnssCallbackE"
    },
    {
     "referenced_type" : "_ZTIRKN3ndk10SpAIBinderE"
    }
   ],
   "return_type" : "_ZTIv",
   "source_file" : "out/soong/.intermediates/hardware/interfaces/gnss/aidl/android.hardware.gnss-V1-ndk_platform-source/gen/include/aidl/android/hardware/gnss/BpGnssCallback.h"
  },
  {
   "function_name" : "aidl::android::hardware::gnss::BpGnssCallback::~BpGnssCallback",
   "linker_set_key" : "_ZN4aidl7android8hardware4gnss14BpGnssCallbackD0Ev",
   "parameters" :
   [
    {
     "is_this_ptr" : true,
     "referenced_type" : "_ZTIPN4aidl7android8hardware4gnss14BpGnssCallbackE"
    }
   ],
   "return_type" : "_ZTIv",
   "source_file" : "out/soong/.intermediates/hardware/interfaces/gnss/aidl/android.hardware.gnss-V1-ndk_platform-source/gen/include/aidl/android/hardware/gnss/BpGnssCallback.h"
  },
  {
   "function_name" : "aidl::android::hardware::gnss::BpGnssCallback::~BpGnssCallback",
   "linker_set_key" : "_ZN4aidl7android8hardware4gnss14BpGnssCallbackD1Ev",
   "parameters" :
   [
    {
     "is_this_ptr" : true,
     "referenced_type" : "_ZTIPN4aidl7android8hardware4gnss14BpGnssCallbackE"
    }
   ],
   "return_type" : "_ZTIv",
   "source_file" : "out/soong/.intermediates/hardware/interfaces/gnss/aidl/android.hardware.gnss-V1-ndk_platform-source/gen/include/aidl/android/hardware/gnss/BpGnssCallback.h"
  },
  {
   "function_name" : "aidl::android::hardware::gnss::BpGnssCallback::~BpGnssCallback",
   "linker_set_key" : "_ZN4aidl7android8hardware4gnss14BpGnssCallbackD2Ev",
   "parameters" :
   [
    {
     "is_this_ptr" : true,
     "referenced_type" : "_ZTIPN4aidl7android8hardware4gnss14BpGnssCallbackE"
    }
   ],
   "return_type" : "_ZTIv",
   "source_file" : "out/soong/.intermediates/hardware/interfaces/gnss/aidl/android.hardware.gnss-V1-ndk_platform-source/gen/include/aidl/android/hardware/gnss/BpGnssCallback.h"
  },
  {
   "function_name" : "aidl::android::hardware::gnss::GnssPowerStats::readFromParcel",
   "linker_set_key" : "_ZN4aidl7android8hardware4gnss14GnssPowerStats14readFromParcelEPK7AParcel",
   "parameters" :
   [
    {
     "is_this_ptr" : true,
     "referenced_type" : "_ZTIPN4aidl7android8hardware4gnss14GnssPowerStatsE"
    },
    {
     "referenced_type" : "_ZTIPK7AParcel"
    }
   ],
   "return_type" : "_ZTIi",
   "source_file" : "out/soong/.intermediates/hardware/interfaces/gnss/aidl/android.hardware.gnss-V1-ndk_platform-source/gen/include/aidl/android/hardware/gnss/GnssPowerStats.h"
  },
  {
   "function_name" : "aidl::android::hardware::gnss::GnssSignalType::readFromParcel",
   "linker_set_key" : "_ZN4aidl7android8hardware4gnss14GnssSignalType14readFromParcelEPK7AParcel",
   "parameters" :
   [
    {
     "is_this_ptr" : true,
     "referenced_type" : "_ZTIPN4aidl7android8hardware4gnss14GnssSignalTypeE"
    },
    {
     "referenced_type" : "_ZTIPK7AParcel"
    }
   ],
   "return_type" : "_ZTIi",
   "source_file" : "out/soong/.intermediates/hardware/interfaces/gnss/aidl/android.hardware.gnss-V1-ndk_platform-source/gen/include/aidl/android/hardware/gnss/GnssSignalType.h"
  },
  {
   "function_name" : "aidl::android::hardware::gnss::ElapsedRealtime::readFromParcel",
   "linker_set_key" : "_ZN4aidl7android8hardware4gnss15ElapsedRealtime14readFromParcelEPK7AParcel",
   "parameters" :
   [
    {
     "is_this_ptr" : true,
     "referenced_type" : "_ZTIPN4aidl7android8hardware4gnss15ElapsedRealtimeE"
    },
    {
     "referenced_type" : "_ZTIPK7AParcel"
    }
   ],
   "return_type" : "_ZTIi",
   "source_file" : "out/soong/.intermediates/hardware/interfaces/gnss/aidl/android.hardware.gnss-V1-ndk_platform-source/gen/include/aidl/android/hardware/gnss/ElapsedRealtime.h"
  },
  {
   "function_name" : "aidl::android::hardware::gnss::GnssMeasurement::readFromParcel",
   "linker_set_key" : "_ZN4aidl7android8hardware4gnss15GnssMeasurement14readFromParcelEPK7AParcel",
   "parameters" :
   [
    {
     "is_this_ptr" : true,
     "referenced_type" : "_ZTIPN4aidl7android8hardware4gnss15GnssMeasurementE"
    },
    {
     "referenced_type" : "_ZTIPK7AParcel"
    }
   ],
   "return_type" : "_ZTIi",
   "source_file" : "out/soong/.intermediates/hardware/interfaces/gnss/aidl/android.hardware.gnss-V1-ndk_platform-source/gen/include/aidl/android/hardware/gnss/GnssMeasurement.h"
  },
  {
   "function_name" : "aidl::android::hardware::gnss::IGnssPsdsDefault::setCallback",
   "linker_set_key" : "_ZN4aidl7android8hardware4gnss16IGnssPsdsDefault11setCallbackERKNSt3__110shared_ptrINS2_17IGnssPsdsCallbackEEE",
   "parameters" :
   [
    {
     "is_this_ptr" : true,
     "referenced_type" : "_ZTIPN4aidl7android8hardware4gnss16IGnssPsdsDefaultE"
    },
    {
     "referenced_type" : "_ZTIRKNSt3__110shared_ptrIN4aidl7android8hardware4gnss17IGnssPsdsCallbackEEE"
    }
   ],
   "return_type" : "_ZTIN3ndk13ScopedAStatusE",
   "source_file" : "out/soong/.intermediates/hardware/interfaces/gnss/aidl/android.hardware.gnss-V1-ndk_platform-source/gen/include/aidl/android/hardware/gnss/IGnssPsds.h"
  },
  {
   "function_name" : "aidl::android::hardware::gnss::IGnssPsdsDefault::injectPsdsData",
   "linker_set_key" : "_ZN4aidl7android8hardware4gnss16IGnssPsdsDefault14injectPsdsDataENS2_8PsdsTypeERKNSt3__16vectorIhNS5_9allocatorIhEEEE",
   "parameters" :
   [
    {
     "is_this_ptr" : true,
     "referenced_type" : "_ZTIPN4aidl7android8hardware4gnss16IGnssPsdsDefaultE"
    },
    {
     "referenced_type" : "_ZTIN4aidl7android8hardware4gnss8PsdsTypeE"
    },
    {
     "referenced_type" : "_ZTIRKNSt3__16vectorIhNS_9allocatorIhEEEE"
    }
   ],
   "return_type" : "_ZTIN3ndk13ScopedAStatusE",
   "source_file" : "out/soong/.intermediates/hardware/interfaces/gnss/aidl/android.hardware.gnss-V1-ndk_platform-source/gen/include/aidl/android/hardware/gnss/IGnssPsds.h"
  },
  {
   "function_name" : "aidl::android::hardware::gnss::IGnssPsdsDefault::getInterfaceHash",
   "linker_set_key" : "_ZN4aidl7android8hardware4gnss16IGnssPsdsDefault16getInterfaceHashEPNSt3__112basic_stringIcNS4_11char_traitsIcEENS4_9allocatorIcEEEE",
   "parameters" :
   [
    {
     "is_this_ptr" : true,
     "referenced_type" : "_ZTIPN4aidl7android8hardware4gnss16IGnssPsdsDefaultE"
    },
    {
     "referenced_type" : "_ZTIPNSt3__112basic_stringIcNS_11char_traitsIcEENS_9allocatorIcEEEE"
    }
   ],
   "return_type" : "_ZTIN3ndk13ScopedAStatusE",
   "source_file" : "out/soong/.intermediates/hardware/interfaces/gnss/aidl/android.hardware.gnss-V1-ndk_platform-source/gen/include/aidl/android/hardware/gnss/IGnssPsds.h"
  },
  {
   "function_name" : "aidl::android::hardware::gnss::IGnssPsdsDefault::getInterfaceVersion",
   "linker_set_key" : "_ZN4aidl7android8hardware4gnss16IGnssPsdsDefault19getInterfaceVersionEPi",
   "parameters" :
   [
    {
     "is_this_ptr" : true,
     "referenced_type" : "_ZTIPN4aidl7android8hardware4gnss16IGnssPsdsDefaultE"
    },
    {
     "referenced_type" : "_ZTIPi"
    }
   ],
   "return_type" : "_ZTIN3ndk13ScopedAStatusE",
   "source_file" : "out/soong/.intermediates/hardware/interfaces/gnss/aidl/android.hardware.gnss-V1-ndk_platform-source/gen/include/aidl/android/hardware/gnss/IGnssPsds.h"
  },
  {
   "function_name" : "aidl::android::hardware::gnss::IGnssPsdsDefault::asBinder",
   "linker_set_key" : "_ZN4aidl7android8hardware4gnss16IGnssPsdsDefault8asBinderEv",
   "parameters" :
   [
    {
     "is_this_ptr" : true,
     "referenced_type" : "_ZTIPN4aidl7android8hardware4gnss16IGnssPsdsDefaultE"
    }
   ],
   "return_type" : "_ZTIN3ndk10SpAIBinderE",
   "source_file" : "out/soong/.intermediates/hardware/interfaces/gnss/aidl/android.hardware.gnss-V1-ndk_platform-source/gen/include/aidl/android/hardware/gnss/IGnssPsds.h"
  },
  {
   "function_name" : "aidl::android::hardware::gnss::IGnssPsdsDefault::isRemote",
   "linker_set_key" : "_ZN4aidl7android8hardware4gnss16IGnssPsdsDefault8isRemoteEv",
   "parameters" :
   [
    {
     "is_this_ptr" : true,
     "referenced_type" : "_ZTIPN4aidl7android8hardware4gnss16IGnssPsdsDefaultE"
    }
   ],
   "return_type" : "_ZTIb",
   "source_file" : "out/soong/.intermediates/hardware/interfaces/gnss/aidl/android.hardware.gnss-V1-ndk_platform-source/gen/include/aidl/android/hardware/gnss/IGnssPsds.h"
  },
  {
   "function_name" : "aidl::android::hardware::gnss::BlocklistedSource::readFromParcel",
   "linker_set_key" : "_ZN4aidl7android8hardware4gnss17BlocklistedSource14readFromParcelEPK7AParcel",
   "parameters" :
   [
    {
     "is_this_ptr" : true,
     "referenced_type" : "_ZTIPN4aidl7android8hardware4gnss17BlocklistedSourceE"
    },
    {
     "referenced_type" : "_ZTIPK7AParcel"
    }
   ],
   "return_type" : "_ZTIi",
   "source_file" : "out/soong/.intermediates/hardware/interfaces/gnss/aidl/android.hardware.gnss-V1-ndk_platform-source/gen/include/aidl/android/hardware/gnss/BlocklistedSource.h"
  },
  {
   "function_name" : "aidl::android::hardware::gnss::CorrelationVector::readFromParcel",
   "linker_set_key" : "_ZN4aidl7android8hardware4gnss17CorrelationVector14readFromParcelEPK7AParcel",
   "parameters" :
   [
    {
     "is_this_ptr" : true,
     "referenced_type" : "_ZTIPN4aidl7android8hardware4gnss17CorrelationVectorE"
    },
    {
     "referenced_type" : "_ZTIPK7AParcel"
    }
   ],
   "return_type" : "_ZTIi",
   "source_file" : "out/soong/.intermediates/hardware/interfaces/gnss/aidl/android.hardware.gnss-V1-ndk_platform-source/gen/include/aidl/android/hardware/gnss/CorrelationVector.h"
  },
  {
   "function_name" : "aidl::android::hardware::gnss::IGnssPsdsCallback::fromBinder",
   "linker_set_key" : "_ZN4aidl7android8hardware4gnss17IGnssPsdsCallback10fromBinderERKN3ndk10SpAIBinderE",
   "parameters" :
   [
    {
     "referenced_type" : "_ZTIRKN3ndk10SpAIBinderE"
    }
   ],
   "return_type" : "_ZTINSt3__110shared_ptrIN4aidl7android8hardware4gnss17IGnssPsdsCallbackEEE",
   "source_file" : "out/soong/.intermediates/hardware/interfaces/gnss/aidl/android.hardware.gnss-V1-ndk_platform-source/gen/include/aidl/android/hardware/gnss/IGnssPsdsCallback.h"
  },
  {
   "function_name" : "aidl::android::hardware::gnss::IGnssPsdsCallback::writeToParcel",
   "linker_set_key" : "_ZN4aidl7android8hardware4gnss17IGnssPsdsCallback13writeToParcelEP7AParcelRKNSt3__110shared_ptrIS3_EE",
   "parameters" :
   [
    {
     "referenced_type" : "_ZTIP7AParcel"
    },
    {
     "referenced_type" : "_ZTIRKNSt3__110shared_ptrIN4aidl7android8hardware4gnss17IGnssPsdsCallbackEEE"
    }
   ],
   "return_type" : "_ZTIi",
   "source_file" : "out/soong/.intermediates/hardware/interfaces/gnss/aidl/android.hardware.gnss-V1-ndk_platform-source/gen/include/aidl/android/hardware/gnss/IGnssPsdsCallback.h"
  },
  {
   "function_name" : "aidl::android::hardware::gnss::IGnssPsdsCallback::getDefaultImpl",
   "linker_set_key" : "_ZN4aidl7android8hardware4gnss17IGnssPsdsCallback14getDefaultImplEv",
   "return_type" : "_ZTIRKNSt3__110shared_ptrIN4aidl7android8hardware4gnss17IGnssPsdsCallbackEEE",
   "source_file" : "out/soong/.intermediates/hardware/interfaces/gnss/aidl/android.hardware.gnss-V1-ndk_platform-source/gen/include/aidl/android/hardware/gnss/IGnssPsdsCallback.h"
  },
  {
   "function_name" : "aidl::android::hardware::gnss::IGnssPsdsCallback::readFromParcel",
   "linker_set_key" : "_ZN4aidl7android8hardware4gnss17IGnssPsdsCallback14readFromParcelEPK7AParcelPNSt3__110shared_ptrIS3_EE",
   "parameters" :
   [
    {
     "referenced_type" : "_ZTIPK7AParcel"
    },
    {
     "referenced_type" : "_ZTIPNSt3__110shared_ptrIN4aidl7android8hardware4gnss17IGnssPsdsCallbackEEE"
    }
   ],
   "return_type" : "_ZTIi",
   "source_file" : "out/soong/.intermediates/hardware/interfaces/gnss/aidl/android.hardware.gnss-V1-ndk_platform-source/gen/include/aidl/android/hardware/gnss/IGnssPsdsCallback.h"
  },
  {
   "function_name" : "aidl::android::hardware::gnss::IGnssPsdsCallback::setDefaultImpl",
   "linker_set_key" : "_ZN4aidl7android8hardware4gnss17IGnssPsdsCallback14setDefaultImplERKNSt3__110shared_ptrIS3_EE",
   "parameters" :
   [
    {
     "referenced_type" : "_ZTIRKNSt3__110shared_ptrIN4aidl7android8hardware4gnss17IGnssPsdsCallbackEEE"
    }
   ],
   "return_type" : "_ZTIb",
   "source_file" : "out/soong/.intermediates/hardware/interfaces/gnss/aidl/android.hardware.gnss-V1-ndk_platform-source/gen/include/aidl/android/hardware/gnss/IGnssPsdsCallback.h"
  },
  {
   "function_name" : "aidl::android::hardware::gnss::IGnssPsdsCallback::IGnssPsdsCallback",
   "linker_set_key" : "_ZN4aidl7android8hardware4gnss17IGnssPsdsCallbackC2Ev",
   "parameters" :
   [
    {
     "is_this_ptr" : true,
     "referenced_type" : "_ZTIPN4aidl7android8hardware4gnss17IGnssPsdsCallbackE"
    }
   ],
   "return_type" : "_ZTIv",
   "source_file" : "out/soong/.intermediates/hardware/interfaces/gnss/aidl/android.hardware.gnss-V1-ndk_platform-source/gen/include/aidl/android/hardware/gnss/IGnssPsdsCallback.h"
  },
  {
   "function_name" : "aidl::android::hardware::gnss::IGnssPsdsCallback::~IGnssPsdsCallback",
   "linker_set_key" : "_ZN4aidl7android8hardware4gnss17IGnssPsdsCallbackD0Ev",
   "parameters" :
   [
    {
     "is_this_ptr" : true,
     "referenced_type" : "_ZTIPN4aidl7android8hardware4gnss17IGnssPsdsCallbackE"
    }
   ],
   "return_type" : "_ZTIv",
   "source_file" : "out/soong/.intermediates/hardware/interfaces/gnss/aidl/android.hardware.gnss-V1-ndk_platform-source/gen/include/aidl/android/hardware/gnss/IGnssPsdsCallback.h"
  },
  {
   "function_name" : "aidl::android::hardware::gnss::IGnssPsdsCallback::~IGnssPsdsCallback",
   "linker_set_key" : "_ZN4aidl7android8hardware4gnss17IGnssPsdsCallbackD1Ev",
   "parameters" :
   [
    {
     "is_this_ptr" : true,
     "referenced_type" : "_ZTIPN4aidl7android8hardware4gnss17IGnssPsdsCallbackE"
    }
   ],
   "return_type" : "_ZTIv",
   "source_file" : "out/soong/.intermediates/hardware/interfaces/gnss/aidl/android.hardware.gnss-V1-ndk_platform-source/gen/include/aidl/android/hardware/gnss/IGnssPsdsCallback.h"
  },
  {
   "function_name" : "aidl::android::hardware::gnss::IGnssPsdsCallback::~IGnssPsdsCallback",
   "linker_set_key" : "_ZN4aidl7android8hardware4gnss17IGnssPsdsCallbackD2Ev",
   "parameters" :
   [
    {
     "is_this_ptr" : true,
     "referenced_type" : "_ZTIPN4aidl7android8hardware4gnss17IGnssPsdsCallbackE"
    }
   ],
   "return_type" : "_ZTIv",
   "source_file" : "out/soong/.intermediates/hardware/interfaces/gnss/aidl/android.hardware.gnss-V1-ndk_platform-source/gen/include/aidl/android/hardware/gnss/IGnssPsdsCallback.h"
  },
  {
   "access" : "protected",
   "function_name" : "aidl::android::hardware::gnss::BnGnssPsdsCallback::createBinder",
   "linker_set_key" : "_ZN4aidl7android8hardware4gnss18BnGnssPsdsCallback12createBinderEv",
   "parameters" :
   [
    {
     "is_this_ptr" : true,
     "referenced_type" : "_ZTIPN4aidl7android8hardware4gnss18BnGnssPsdsCallbackE"
    }
   ],
   "return_type" : "_ZTIN3ndk10SpAIBinderE",
   "source_file" : "out/soong/.intermediates/hardware/interfaces/gnss/aidl/android.hardware.gnss-V1-ndk_platform-source/gen/include/aidl/android/hardware/gnss/BnGnssPsdsCallback.h"
  },
  {
   "function_name" : "aidl::android::hardware::gnss::BnGnssPsdsCallback::getInterfaceHash",
   "linker_set_key" : "_ZN4aidl7android8hardware4gnss18BnGnssPsdsCallback16getInterfaceHashEPNSt3__112basic_stringIcNS4_11char_traitsIcEENS4_9allocatorIcEEEE",
   "parameters" :
   [
    {
     "is_this_ptr" : true,
     "referenced_type" : "_ZTIPN4aidl7android8hardware4gnss18BnGnssPsdsCallbackE"
    },
    {
     "referenced_type" : "_ZTIPNSt3__112basic_stringIcNS_11char_traitsIcEENS_9allocatorIcEEEE"
    }
   ],
   "return_type" : "_ZTIN3ndk13ScopedAStatusE",
   "source_file" : "out/soong/.intermediates/hardware/interfaces/gnss/aidl/android.hardware.gnss-V1-ndk_platform-source/gen/include/aidl/android/hardware/gnss/BnGnssPsdsCallback.h"
  },
  {
   "function_name" : "aidl::android::hardware::gnss::BnGnssPsdsCallback::getInterfaceVersion",
   "linker_set_key" : "_ZN4aidl7android8hardware4gnss18BnGnssPsdsCallback19getInterfaceVersionEPi",
   "parameters" :
   [
    {
     "is_this_ptr" : true,
     "referenced_type" : "_ZTIPN4aidl7android8hardware4gnss18BnGnssPsdsCallbackE"
    },
    {
     "referenced_type" : "_ZTIPi"
    }
   ],
   "return_type" : "_ZTIN3ndk13ScopedAStatusE",
   "source_file" : "out/soong/.intermediates/hardware/interfaces/gnss/aidl/android.hardware.gnss-V1-ndk_platform-source/gen/include/aidl/android/hardware/gnss/BnGnssPsdsCallback.h"
  },
  {
   "function_name" : "aidl::android::hardware::gnss::BnGnssPsdsCallback::BnGnssPsdsCallback",
   "linker_set_key" : "_ZN4aidl7android8hardware4gnss18BnGnssPsdsCallbackC2Ev",
   "parameters" :
   [
    {
     "is_this_ptr" : true,
     "referenced_type" : "_ZTIPN4aidl7android8hardware4gnss18BnGnssPsdsCallbackE"
    }
   ],
   "return_type" : "_ZTIv",
   "source_file" : "out/soong/.intermediates/hardware/interfaces/gnss/aidl/android.hardware.gnss-V1-ndk_platform-source/gen/include/aidl/android/hardware/gnss/BnGnssPsdsCallback.h"
  },
  {
   "function_name" : "aidl::android::hardware::gnss::BnGnssPsdsCallback::~BnGnssPsdsCallback",
   "linker_set_key" : "_ZN4aidl7android8hardware4gnss18BnGnssPsdsCallbackD0Ev",
   "parameters" :
   [
    {
     "is_this_ptr" : true,
     "referenced_type" : "_ZTIPN4aidl7android8hardware4gnss18BnGnssPsdsCallbackE"
    }
   ],
   "return_type" : "_ZTIv",
   "source_file" : "out/soong/.intermediates/hardware/interfaces/gnss/aidl/android.hardware.gnss-V1-ndk_platform-source/gen/include/aidl/android/hardware/gnss/BnGnssPsdsCallback.h"
  },
  {
   "function_name" : "aidl::android::hardware::gnss::BnGnssPsdsCallback::~BnGnssPsdsCallback",
   "linker_set_key" : "_ZN4aidl7android8hardware4gnss18BnGnssPsdsCallbackD1Ev",
   "parameters" :
   [
    {
     "is_this_ptr" : true,
     "referenced_type" : "_ZTIPN4aidl7android8hardware4gnss18BnGnssPsdsCallbackE"
    }
   ],
   "return_type" : "_ZTIv",
   "source_file" : "out/soong/.intermediates/hardware/interfaces/gnss/aidl/android.hardware.gnss-V1-ndk_platform-source/gen/include/aidl/android/hardware/gnss/BnGnssPsdsCallback.h"
  },
  {
   "function_name" : "aidl::android::hardware::gnss::BnGnssPsdsCallback::~BnGnssPsdsCallback",
   "linker_set_key" : "_ZN4aidl7android8hardware4gnss18BnGnssPsdsCallbackD2Ev",
   "parameters" :
   [
    {
     "is_this_ptr" : true,
     "referenced_type" : "_ZTIPN4aidl7android8hardware4gnss18BnGnssPsdsCallbackE"
    }
   ],
   "return_type" : "_ZTIv",
   "source_file" : "out/soong/.intermediates/hardware/interfaces/gnss/aidl/android.hardware.gnss-V1-ndk_platform-source/gen/include/aidl/android/hardware/gnss/BnGnssPsdsCallback.h"
  },
  {
   "function_name" : "aidl::android::hardware::gnss::BpGnssPsdsCallback::getInterfaceHash",
   "linker_set_key" : "_ZN4aidl7android8hardware4gnss18BpGnssPsdsCallback16getInterfaceHashEPNSt3__112basic_stringIcNS4_11char_traitsIcEENS4_9allocatorIcEEEE",
   "parameters" :
   [
    {
     "is_this_ptr" : true,
     "referenced_type" : "_ZTIPN4aidl7android8hardware4gnss18BpGnssPsdsCallbackE"
    },
    {
     "referenced_type" : "_ZTIPNSt3__112basic_stringIcNS_11char_traitsIcEENS_9allocatorIcEEEE"
    }
   ],
   "return_type" : "_ZTIN3ndk13ScopedAStatusE",
   "source_file" : "out/soong/.intermediates/hardware/interfaces/gnss/aidl/android.hardware.gnss-V1-ndk_platform-source/gen/include/aidl/android/hardware/gnss/BpGnssPsdsCallback.h"
  },
  {
   "function_name" : "aidl::android::hardware::gnss::BpGnssPsdsCallback::downloadRequestCb",
   "linker_set_key" : "_ZN4aidl7android8hardware4gnss18BpGnssPsdsCallback17downloadRequestCbENS2_8PsdsTypeE",
   "parameters" :
   [
    {
     "is_this_ptr" : true,
     "referenced_type" : "_ZTIPN4aidl7android8hardware4gnss18BpGnssPsdsCallbackE"
    },
    {
     "referenced_type" : "_ZTIN4aidl7android8hardware4gnss8PsdsTypeE"
    }
   ],
   "return_type" : "_ZTIN3ndk13ScopedAStatusE",
   "source_file" : "out/soong/.intermediates/hardware/interfaces/gnss/aidl/android.hardware.gnss-V1-ndk_platform-source/gen/include/aidl/android/hardware/gnss/BpGnssPsdsCallback.h"
  },
  {
   "function_name" : "aidl::android::hardware::gnss::BpGnssPsdsCallback::getInterfaceVersion",
   "linker_set_key" : "_ZN4aidl7android8hardware4gnss18BpGnssPsdsCallback19getInterfaceVersionEPi",
   "parameters" :
   [
    {
     "is_this_ptr" : true,
     "referenced_type" : "_ZTIPN4aidl7android8hardware4gnss18BpGnssPsdsCallbackE"
    },
    {
     "referenced_type" : "_ZTIPi"
    }
   ],
   "return_type" : "_ZTIN3ndk13ScopedAStatusE",
   "source_file" : "out/soong/.intermediates/hardware/interfaces/gnss/aidl/android.hardware.gnss-V1-ndk_platform-source/gen/include/aidl/android/hardware/gnss/BpGnssPsdsCallback.h"
  },
  {
   "function_name" : "aidl::android::hardware::gnss::BpGnssPsdsCallback::BpGnssPsdsCallback",
   "linker_set_key" : "_ZN4aidl7android8hardware4gnss18BpGnssPsdsCallbackC1ERKN3ndk10SpAIBinderE",
   "parameters" :
   [
    {
     "is_this_ptr" : true,
     "referenced_type" : "_ZTIPN4aidl7android8hardware4gnss18BpGnssPsdsCallbackE"
    },
    {
     "referenced_type" : "_ZTIRKN3ndk10SpAIBinderE"
    }
   ],
   "return_type" : "_ZTIv",
   "source_file" : "out/soong/.intermediates/hardware/interfaces/gnss/aidl/android.hardware.gnss-V1-ndk_platform-source/gen/include/aidl/android/hardware/gnss/BpGnssPsdsCallback.h"
  },
  {
   "function_name" : "aidl::android::hardware::gnss::BpGnssPsdsCallback::BpGnssPsdsCallback",
   "linker_set_key" : "_ZN4aidl7android8hardware4gnss18BpGnssPsdsCallbackC2ERKN3ndk10SpAIBinderE",
   "parameters" :
   [
    {
     "is_this_ptr" : true,
     "referenced_type" : "_ZTIPN4aidl7android8hardware4gnss18BpGnssPsdsCallbackE"
    },
    {
     "referenced_type" : "_ZTIRKN3ndk10SpAIBinderE"
    }
   ],
   "return_type" : "_ZTIv",
   "source_file" : "out/soong/.intermediates/hardware/interfaces/gnss/aidl/android.hardware.gnss-V1-ndk_platform-source/gen/include/aidl/android/hardware/gnss/BpGnssPsdsCallback.h"
  },
  {
   "function_name" : "aidl::android::hardware::gnss::BpGnssPsdsCallback::~BpGnssPsdsCallback",
   "linker_set_key" : "_ZN4aidl7android8hardware4gnss18BpGnssPsdsCallbackD0Ev",
   "parameters" :
   [
    {
     "is_this_ptr" : true,
     "referenced_type" : "_ZTIPN4aidl7android8hardware4gnss18BpGnssPsdsCallbackE"
    }
   ],
   "return_type" : "_ZTIv",
   "source_file" : "out/soong/.intermediates/hardware/interfaces/gnss/aidl/android.hardware.gnss-V1-ndk_platform-source/gen/include/aidl/android/hardware/gnss/BpGnssPsdsCallback.h"
  },
  {
   "function_name" : "aidl::android::hardware::gnss::BpGnssPsdsCallback::~BpGnssPsdsCallback",
   "linker_set_key" : "_ZN4aidl7android8hardware4gnss18BpGnssPsdsCallbackD1Ev",
   "parameters" :
   [
    {
     "is_this_ptr" : true,
     "referenced_type" : "_ZTIPN4aidl7android8hardware4gnss18BpGnssPsdsCallbackE"
    }
   ],
   "return_type" : "_ZTIv",
   "source_file" : "out/soong/.intermediates/hardware/interfaces/gnss/aidl/android.hardware.gnss-V1-ndk_platform-source/gen/include/aidl/android/hardware/gnss/BpGnssPsdsCallback.h"
  },
  {
   "function_name" : "aidl::android::hardware::gnss::BpGnssPsdsCallback::~BpGnssPsdsCallback",
   "linker_set_key" : "_ZN4aidl7android8hardware4gnss18BpGnssPsdsCallbackD2Ev",
   "parameters" :
   [
    {
     "is_this_ptr" : true,
     "referenced_type" : "_ZTIPN4aidl7android8hardware4gnss18BpGnssPsdsCallbackE"
    }
   ],
   "return_type" : "_ZTIv",
   "source_file" : "out/soong/.intermediates/hardware/interfaces/gnss/aidl/android.hardware.gnss-V1-ndk_platform-source/gen/include/aidl/android/hardware/gnss/BpGnssPsdsCallback.h"
  },
  {
   "function_name" : "aidl::android::hardware::gnss::IGnssConfiguration::fromBinder",
   "linker_set_key" : "_ZN4aidl7android8hardware4gnss18IGnssConfiguration10fromBinderERKN3ndk10SpAIBinderE",
   "parameters" :
   [
    {
     "referenced_type" : "_ZTIRKN3ndk10SpAIBinderE"
    }
   ],
   "return_type" : "_ZTINSt3__110shared_ptrIN4aidl7android8hardware4gnss18IGnssConfigurationEEE",
   "source_file" : "out/soong/.intermediates/hardware/interfaces/gnss/aidl/android.hardware.gnss-V1-ndk_platform-source/gen/include/aidl/android/hardware/gnss/IGnssConfiguration.h"
  },
  {
   "function_name" : "aidl::android::hardware::gnss::IGnssConfiguration::writeToParcel",
   "linker_set_key" : "_ZN4aidl7android8hardware4gnss18IGnssConfiguration13writeToParcelEP7AParcelRKNSt3__110shared_ptrIS3_EE",
   "parameters" :
   [
    {
     "referenced_type" : "_ZTIP7AParcel"
    },
    {
     "referenced_type" : "_ZTIRKNSt3__110shared_ptrIN4aidl7android8hardware4gnss18IGnssConfigurationEEE"
    }
   ],
   "return_type" : "_ZTIi",
   "source_file" : "out/soong/.intermediates/hardware/interfaces/gnss/aidl/android.hardware.gnss-V1-ndk_platform-source/gen/include/aidl/android/hardware/gnss/IGnssConfiguration.h"
  },
  {
   "function_name" : "aidl::android::hardware::gnss::IGnssConfiguration::getDefaultImpl",
   "linker_set_key" : "_ZN4aidl7android8hardware4gnss18IGnssConfiguration14getDefaultImplEv",
   "return_type" : "_ZTIRKNSt3__110shared_ptrIN4aidl7android8hardware4gnss18IGnssConfigurationEEE",
   "source_file" : "out/soong/.intermediates/hardware/interfaces/gnss/aidl/android.hardware.gnss-V1-ndk_platform-source/gen/include/aidl/android/hardware/gnss/IGnssConfiguration.h"
  },
  {
   "function_name" : "aidl::android::hardware::gnss::IGnssConfiguration::readFromParcel",
   "linker_set_key" : "_ZN4aidl7android8hardware4gnss18IGnssConfiguration14readFromParcelEPK7AParcelPNSt3__110shared_ptrIS3_EE",
   "parameters" :
   [
    {
     "referenced_type" : "_ZTIPK7AParcel"
    },
    {
     "referenced_type" : "_ZTIPNSt3__110shared_ptrIN4aidl7android8hardware4gnss18IGnssConfigurationEEE"
    }
   ],
   "return_type" : "_ZTIi",
   "source_file" : "out/soong/.intermediates/hardware/interfaces/gnss/aidl/android.hardware.gnss-V1-ndk_platform-source/gen/include/aidl/android/hardware/gnss/IGnssConfiguration.h"
  },
  {
   "function_name" : "aidl::android::hardware::gnss::IGnssConfiguration::setDefaultImpl",
   "linker_set_key" : "_ZN4aidl7android8hardware4gnss18IGnssConfiguration14setDefaultImplERKNSt3__110shared_ptrIS3_EE",
   "parameters" :
   [
    {
     "referenced_type" : "_ZTIRKNSt3__110shared_ptrIN4aidl7android8hardware4gnss18IGnssConfigurationEEE"
    }
   ],
   "return_type" : "_ZTIb",
   "source_file" : "out/soong/.intermediates/hardware/interfaces/gnss/aidl/android.hardware.gnss-V1-ndk_platform-source/gen/include/aidl/android/hardware/gnss/IGnssConfiguration.h"
  },
  {
   "function_name" : "aidl::android::hardware::gnss::IGnssConfiguration::IGnssConfiguration",
   "linker_set_key" : "_ZN4aidl7android8hardware4gnss18IGnssConfigurationC2Ev",
   "parameters" :
   [
    {
     "is_this_ptr" : true,
     "referenced_type" : "_ZTIPN4aidl7android8hardware4gnss18IGnssConfigurationE"
    }
   ],
   "return_type" : "_ZTIv",
   "source_file" : "out/soong/.intermediates/hardware/interfaces/gnss/aidl/android.hardware.gnss-V1-ndk_platform-source/gen/include/aidl/android/hardware/gnss/IGnssConfiguration.h"
  },
  {
   "function_name" : "aidl::android::hardware::gnss::IGnssConfiguration::~IGnssConfiguration",
   "linker_set_key" : "_ZN4aidl7android8hardware4gnss18IGnssConfigurationD0Ev",
   "parameters" :
   [
    {
     "is_this_ptr" : true,
     "referenced_type" : "_ZTIPN4aidl7android8hardware4gnss18IGnssConfigurationE"
    }
   ],
   "return_type" : "_ZTIv",
   "source_file" : "out/soong/.intermediates/hardware/interfaces/gnss/aidl/android.hardware.gnss-V1-ndk_platform-source/gen/include/aidl/android/hardware/gnss/IGnssConfiguration.h"
  },
  {
   "function_name" : "aidl::android::hardware::gnss::IGnssConfiguration::~IGnssConfiguration",
   "linker_set_key" : "_ZN4aidl7android8hardware4gnss18IGnssConfigurationD1Ev",
   "parameters" :
   [
    {
     "is_this_ptr" : true,
     "referenced_type" : "_ZTIPN4aidl7android8hardware4gnss18IGnssConfigurationE"
    }
   ],
   "return_type" : "_ZTIv",
   "source_file" : "out/soong/.intermediates/hardware/interfaces/gnss/aidl/android.hardware.gnss-V1-ndk_platform-source/gen/include/aidl/android/hardware/gnss/IGnssConfiguration.h"
  },
  {
   "function_name" : "aidl::android::hardware::gnss::IGnssConfiguration::~IGnssConfiguration",
   "linker_set_key" : "_ZN4aidl7android8hardware4gnss18IGnssConfigurationD2Ev",
   "parameters" :
   [
    {
     "is_this_ptr" : true,
     "referenced_type" : "_ZTIPN4aidl7android8hardware4gnss18IGnssConfigurationE"
    }
   ],
   "return_type" : "_ZTIv",
   "source_file" : "out/soong/.intermediates/hardware/interfaces/gnss/aidl/android.hardware.gnss-V1-ndk_platform-source/gen/include/aidl/android/hardware/gnss/IGnssConfiguration.h"
  },
  {
   "function_name" : "aidl::android::hardware::gnss::SatelliteClockInfo::readFromParcel",
   "linker_set_key" : "_ZN4aidl7android8hardware4gnss18SatelliteClockInfo14readFromParcelEPK7AParcel",
   "parameters" :
   [
    {
     "is_this_ptr" : true,
     "referenced_type" : "_ZTIPN4aidl7android8hardware4gnss18SatelliteClockInfoE"
    },
    {
     "referenced_type" : "_ZTIPK7AParcel"
    }
   ],
   "return_type" : "_ZTIi",
   "source_file" : "out/soong/.intermediates/hardware/interfaces/gnss/aidl/android.hardware.gnss-V1-ndk_platform-source/gen/include/aidl/android/hardware/gnss/SatelliteClockInfo.h"
  },
  {
   "access" : "protected",
   "function_name" : "aidl::android::hardware::gnss::BnGnssConfiguration::createBinder",
   "linker_set_key" : "_ZN4aidl7android8hardware4gnss19BnGnssConfiguration12createBinderEv",
   "parameters" :
   [
    {
     "is_this_ptr" : true,
     "referenced_type" : "_ZTIPN4aidl7android8hardware4gnss19BnGnssConfigurationE"
    }
   ],
   "return_type" : "_ZTIN3ndk10SpAIBinderE",
   "source_file" : "out/soong/.intermediates/hardware/interfaces/gnss/aidl/android.hardware.gnss-V1-ndk_platform-source/gen/include/aidl/android/hardware/gnss/BnGnssConfiguration.h"
  },
  {
   "function_name" : "aidl::android::hardware::gnss::BnGnssConfiguration::getInterfaceHash",
   "linker_set_key" : "_ZN4aidl7android8hardware4gnss19BnGnssConfiguration16getInterfaceHashEPNSt3__112basic_stringIcNS4_11char_traitsIcEENS4_9allocatorIcEEEE",
   "parameters" :
   [
    {
     "is_this_ptr" : true,
     "referenced_type" : "_ZTIPN4aidl7android8hardware4gnss19BnGnssConfigurationE"
    },
    {
     "referenced_type" : "_ZTIPNSt3__112basic_stringIcNS_11char_traitsIcEENS_9allocatorIcEEEE"
    }
   ],
   "return_type" : "_ZTIN3ndk13ScopedAStatusE",
   "source_file" : "out/soong/.intermediates/hardware/interfaces/gnss/aidl/android.hardware.gnss-V1-ndk_platform-source/gen/include/aidl/android/hardware/gnss/BnGnssConfiguration.h"
  },
  {
   "function_name" : "aidl::android::hardware::gnss::BnGnssConfiguration::getInterfaceVersion",
   "linker_set_key" : "_ZN4aidl7android8hardware4gnss19BnGnssConfiguration19getInterfaceVersionEPi",
   "parameters" :
   [
    {
     "is_this_ptr" : true,
     "referenced_type" : "_ZTIPN4aidl7android8hardware4gnss19BnGnssConfigurationE"
    },
    {
     "referenced_type" : "_ZTIPi"
    }
   ],
   "return_type" : "_ZTIN3ndk13ScopedAStatusE",
   "source_file" : "out/soong/.intermediates/hardware/interfaces/gnss/aidl/android.hardware.gnss-V1-ndk_platform-source/gen/include/aidl/android/hardware/gnss/BnGnssConfiguration.h"
  },
  {
   "function_name" : "aidl::android::hardware::gnss::BnGnssConfiguration::BnGnssConfiguration",
   "linker_set_key" : "_ZN4aidl7android8hardware4gnss19BnGnssConfigurationC2Ev",
   "parameters" :
   [
    {
     "is_this_ptr" : true,
     "referenced_type" : "_ZTIPN4aidl7android8hardware4gnss19BnGnssConfigurationE"
    }
   ],
   "return_type" : "_ZTIv",
   "source_file" : "out/soong/.intermediates/hardware/interfaces/gnss/aidl/android.hardware.gnss-V1-ndk_platform-source/gen/include/aidl/android/hardware/gnss/BnGnssConfiguration.h"
  },
  {
   "function_name" : "aidl::android::hardware::gnss::BnGnssConfiguration::~BnGnssConfiguration",
   "linker_set_key" : "_ZN4aidl7android8hardware4gnss19BnGnssConfigurationD0Ev",
   "parameters" :
   [
    {
     "is_this_ptr" : true,
     "referenced_type" : "_ZTIPN4aidl7android8hardware4gnss19BnGnssConfigurationE"
    }
   ],
   "return_type" : "_ZTIv",
   "source_file" : "out/soong/.intermediates/hardware/interfaces/gnss/aidl/android.hardware.gnss-V1-ndk_platform-source/gen/include/aidl/android/hardware/gnss/BnGnssConfiguration.h"
  },
  {
   "function_name" : "aidl::android::hardware::gnss::BnGnssConfiguration::~BnGnssConfiguration",
   "linker_set_key" : "_ZN4aidl7android8hardware4gnss19BnGnssConfigurationD1Ev",
   "parameters" :
   [
    {
     "is_this_ptr" : true,
     "referenced_type" : "_ZTIPN4aidl7android8hardware4gnss19BnGnssConfigurationE"
    }
   ],
   "return_type" : "_ZTIv",
   "source_file" : "out/soong/.intermediates/hardware/interfaces/gnss/aidl/android.hardware.gnss-V1-ndk_platform-source/gen/include/aidl/android/hardware/gnss/BnGnssConfiguration.h"
  },
  {
   "function_name" : "aidl::android::hardware::gnss::BnGnssConfiguration::~BnGnssConfiguration",
   "linker_set_key" : "_ZN4aidl7android8hardware4gnss19BnGnssConfigurationD2Ev",
   "parameters" :
   [
    {
     "is_this_ptr" : true,
     "referenced_type" : "_ZTIPN4aidl7android8hardware4gnss19BnGnssConfigurationE"
    }
   ],
   "return_type" : "_ZTIv",
   "source_file" : "out/soong/.intermediates/hardware/interfaces/gnss/aidl/android.hardware.gnss-V1-ndk_platform-source/gen/include/aidl/android/hardware/gnss/BnGnssConfiguration.h"
  },
  {
   "function_name" : "aidl::android::hardware::gnss::BpGnssConfiguration::setSuplMode",
   "linker_set_key" : "_ZN4aidl7android8hardware4gnss19BpGnssConfiguration11setSuplModeEi",
   "parameters" :
   [
    {
     "is_this_ptr" : true,
     "referenced_type" : "_ZTIPN4aidl7android8hardware4gnss19BpGnssConfigurationE"
    },
    {
     "referenced_type" : "_ZTIi"
    }
   ],
   "return_type" : "_ZTIN3ndk13ScopedAStatusE",
   "source_file" : "out/soong/.intermediates/hardware/interfaces/gnss/aidl/android.hardware.gnss-V1-ndk_platform-source/gen/include/aidl/android/hardware/gnss/BpGnssConfiguration.h"
  },
  {
   "function_name" : "aidl::android::hardware::gnss::BpGnssConfiguration::setBlocklist",
   "linker_set_key" : "_ZN4aidl7android8hardware4gnss19BpGnssConfiguration12setBlocklistERKNSt3__16vectorINS2_17BlocklistedSourceENS4_9allocatorIS6_EEEE",
   "parameters" :
   [
    {
     "is_this_ptr" : true,
     "referenced_type" : "_ZTIPN4aidl7android8hardware4gnss19BpGnssConfigurationE"
    },
    {
     "referenced_type" : "_ZTIRKNSt3__16vectorIN4aidl7android8hardware4gnss17BlocklistedSourceENS_9allocatorIS5_EEEE"
    }
   ],
   "return_type" : "_ZTIN3ndk13ScopedAStatusE",
   "source_file" : "out/soong/.intermediates/hardware/interfaces/gnss/aidl/android.hardware.gnss-V1-ndk_platform-source/gen/include/aidl/android/hardware/gnss/BpGnssConfiguration.h"
  },
  {
   "function_name" : "aidl::android::hardware::gnss::BpGnssConfiguration::setLppProfile",
   "linker_set_key" : "_ZN4aidl7android8hardware4gnss19BpGnssConfiguration13setLppProfileEi",
   "parameters" :
   [
    {
     "is_this_ptr" : true,
     "referenced_type" : "_ZTIPN4aidl7android8hardware4gnss19BpGnssConfigurationE"
    },
    {
     "referenced_type" : "_ZTIi"
    }
   ],
   "return_type" : "_ZTIN3ndk13ScopedAStatusE",
   "source_file" : "out/soong/.intermediates/hardware/interfaces/gnss/aidl/android.hardware.gnss-V1-ndk_platform-source/gen/include/aidl/android/hardware/gnss/BpGnssConfiguration.h"
  },
  {
   "function_name" : "aidl::android::hardware::gnss::BpGnssConfiguration::setSuplVersion",
   "linker_set_key" : "_ZN4aidl7android8hardware4gnss19BpGnssConfiguration14setSuplVersionEi",
   "parameters" :
   [
    {
     "is_this_ptr" : true,
     "referenced_type" : "_ZTIPN4aidl7android8hardware4gnss19BpGnssConfigurationE"
    },
    {
     "referenced_type" : "_ZTIi"
    }
   ],
   "return_type" : "_ZTIN3ndk13ScopedAStatusE",
   "source_file" : "out/soong/.intermediates/hardware/interfaces/gnss/aidl/android.hardware.gnss-V1-ndk_platform-source/gen/include/aidl/android/hardware/gnss/BpGnssConfiguration.h"
  },
  {
   "function_name" : "aidl::android::hardware::gnss::BpGnssConfiguration::getInterfaceHash",
   "linker_set_key" : "_ZN4aidl7android8hardware4gnss19BpGnssConfiguration16getInterfaceHashEPNSt3__112basic_stringIcNS4_11char_traitsIcEENS4_9allocatorIcEEEE",
   "parameters" :
   [
    {
     "is_this_ptr" : true,
     "referenced_type" : "_ZTIPN4aidl7android8hardware4gnss19BpGnssConfigurationE"
    },
    {
     "referenced_type" : "_ZTIPNSt3__112basic_stringIcNS_11char_traitsIcEENS_9allocatorIcEEEE"
    }
   ],
   "return_type" : "_ZTIN3ndk13ScopedAStatusE",
   "source_file" : "out/soong/.intermediates/hardware/interfaces/gnss/aidl/android.hardware.gnss-V1-ndk_platform-source/gen/include/aidl/android/hardware/gnss/BpGnssConfiguration.h"
  },
  {
   "function_name" : "aidl::android::hardware::gnss::BpGnssConfiguration::setEsExtensionSec",
   "linker_set_key" : "_ZN4aidl7android8hardware4gnss19BpGnssConfiguration17setEsExtensionSecEi",
   "parameters" :
   [
    {
     "is_this_ptr" : true,
     "referenced_type" : "_ZTIPN4aidl7android8hardware4gnss19BpGnssConfigurationE"
    },
    {
     "referenced_type" : "_ZTIi"
    }
   ],
   "return_type" : "_ZTIN3ndk13ScopedAStatusE",
   "source_file" : "out/soong/.intermediates/hardware/interfaces/gnss/aidl/android.hardware.gnss-V1-ndk_platform-source/gen/include/aidl/android/hardware/gnss/BpGnssConfiguration.h"
  },
  {
   "function_name" : "aidl::android::hardware::gnss::BpGnssConfiguration::getInterfaceVersion",
   "linker_set_key" : "_ZN4aidl7android8hardware4gnss19BpGnssConfiguration19getInterfaceVersionEPi",
   "parameters" :
   [
    {
     "is_this_ptr" : true,
     "referenced_type" : "_ZTIPN4aidl7android8hardware4gnss19BpGnssConfigurationE"
    },
    {
     "referenced_type" : "_ZTIPi"
    }
   ],
   "return_type" : "_ZTIN3ndk13ScopedAStatusE",
   "source_file" : "out/soong/.intermediates/hardware/interfaces/gnss/aidl/android.hardware.gnss-V1-ndk_platform-source/gen/include/aidl/android/hardware/gnss/BpGnssConfiguration.h"
  },
  {
   "function_name" : "aidl::android::hardware::gnss::BpGnssConfiguration::setEmergencySuplPdn",
   "linker_set_key" : "_ZN4aidl7android8hardware4gnss19BpGnssConfiguration19setEmergencySuplPdnEb",
   "parameters" :
   [
    {
     "is_this_ptr" : true,
     "referenced_type" : "_ZTIPN4aidl7android8hardware4gnss19BpGnssConfigurationE"
    },
    {
     "referenced_type" : "_ZTIb"
    }
   ],
   "return_type" : "_ZTIN3ndk13ScopedAStatusE",
   "source_file" : "out/soong/.intermediates/hardware/interfaces/gnss/aidl/android.hardware.gnss-V1-ndk_platform-source/gen/include/aidl/android/hardware/gnss/BpGnssConfiguration.h"
  },
  {
   "function_name" : "aidl::android::hardware::gnss::BpGnssConfiguration::setGlonassPositioningProtocol",
   "linker_set_key" : "_ZN4aidl7android8hardware4gnss19BpGnssConfiguration29setGlonassPositioningProtocolEi",
   "parameters" :
   [
    {
     "is_this_ptr" : true,
     "referenced_type" : "_ZTIPN4aidl7android8hardware4gnss19BpGnssConfigurationE"
    },
    {
     "referenced_type" : "_ZTIi"
    }
   ],
   "return_type" : "_ZTIN3ndk13ScopedAStatusE",
   "source_file" : "out/soong/.intermediates/hardware/interfaces/gnss/aidl/android.hardware.gnss-V1-ndk_platform-source/gen/include/aidl/android/hardware/gnss/BpGnssConfiguration.h"
  },
  {
   "function_name" : "aidl::android::hardware::gnss::BpGnssConfiguration::BpGnssConfiguration",
   "linker_set_key" : "_ZN4aidl7android8hardware4gnss19BpGnssConfigurationC1ERKN3ndk10SpAIBinderE",
   "parameters" :
   [
    {
     "is_this_ptr" : true,
     "referenced_type" : "_ZTIPN4aidl7android8hardware4gnss19BpGnssConfigurationE"
    },
    {
     "referenced_type" : "_ZTIRKN3ndk10SpAIBinderE"
    }
   ],
   "return_type" : "_ZTIv",
   "source_file" : "out/soong/.intermediates/hardware/interfaces/gnss/aidl/android.hardware.gnss-V1-ndk_platform-source/gen/include/aidl/android/hardware/gnss/BpGnssConfiguration.h"
  },
  {
   "function_name" : "aidl::android::hardware::gnss::BpGnssConfiguration::BpGnssConfiguration",
   "linker_set_key" : "_ZN4aidl7android8hardware4gnss19BpGnssConfigurationC2ERKN3ndk10SpAIBinderE",
   "parameters" :
   [
    {
     "is_this_ptr" : true,
     "referenced_type" : "_ZTIPN4aidl7android8hardware4gnss19BpGnssConfigurationE"
    },
    {
     "referenced_type" : "_ZTIRKN3ndk10SpAIBinderE"
    }
   ],
   "return_type" : "_ZTIv",
   "source_file" : "out/soong/.intermediates/hardware/interfaces/gnss/aidl/android.hardware.gnss-V1-ndk_platform-source/gen/include/aidl/android/hardware/gnss/BpGnssConfiguration.h"
  },
  {
   "function_name" : "aidl::android::hardware::gnss::BpGnssConfiguration::~BpGnssConfiguration",
   "linker_set_key" : "_ZN4aidl7android8hardware4gnss19BpGnssConfigurationD0Ev",
   "parameters" :
   [
    {
     "is_this_ptr" : true,
     "referenced_type" : "_ZTIPN4aidl7android8hardware4gnss19BpGnssConfigurationE"
    }
   ],
   "return_type" : "_ZTIv",
   "source_file" : "out/soong/.intermediates/hardware/interfaces/gnss/aidl/android.hardware.gnss-V1-ndk_platform-source/gen/include/aidl/android/hardware/gnss/BpGnssConfiguration.h"
  },
  {
   "function_name" : "aidl::android::hardware::gnss::BpGnssConfiguration::~BpGnssConfiguration",
   "linker_set_key" : "_ZN4aidl7android8hardware4gnss19BpGnssConfigurationD1Ev",
   "parameters" :
   [
    {
     "is_this_ptr" : true,
     "referenced_type" : "_ZTIPN4aidl7android8hardware4gnss19BpGnssConfigurationE"
    }
   ],
   "return_type" : "_ZTIv",
   "source_file" : "out/soong/.intermediates/hardware/interfaces/gnss/aidl/android.hardware.gnss-V1-ndk_platform-source/gen/include/aidl/android/hardware/gnss/BpGnssConfiguration.h"
  },
  {
   "function_name" : "aidl::android::hardware::gnss::BpGnssConfiguration::~BpGnssConfiguration",
   "linker_set_key" : "_ZN4aidl7android8hardware4gnss19BpGnssConfigurationD2Ev",
   "parameters" :
   [
    {
     "is_this_ptr" : true,
     "referenced_type" : "_ZTIPN4aidl7android8hardware4gnss19BpGnssConfigurationE"
    }
   ],
   "return_type" : "_ZTIv",
   "source_file" : "out/soong/.intermediates/hardware/interfaces/gnss/aidl/android.hardware.gnss-V1-ndk_platform-source/gen/include/aidl/android/hardware/gnss/BpGnssConfiguration.h"
  },
  {
   "function_name" : "aidl::android::hardware::gnss::IGnssCallbackDefault::getInterfaceHash",
   "linker_set_key" : "_ZN4aidl7android8hardware4gnss20IGnssCallbackDefault16getInterfaceHashEPNSt3__112basic_stringIcNS4_11char_traitsIcEENS4_9allocatorIcEEEE",
   "parameters" :
   [
    {
     "is_this_ptr" : true,
     "referenced_type" : "_ZTIPN4aidl7android8hardware4gnss20IGnssCallbackDefaultE"
    },
    {
     "referenced_type" : "_ZTIPNSt3__112basic_stringIcNS_11char_traitsIcEENS_9allocatorIcEEEE"
    }
   ],
   "return_type" : "_ZTIN3ndk13ScopedAStatusE",
   "source_file" : "out/soong/.intermediates/hardware/interfaces/gnss/aidl/android.hardware.gnss-V1-ndk_platform-source/gen/include/aidl/android/hardware/gnss/IGnssCallback.h"
  },
  {
   "function_name" : "aidl::android::hardware::gnss::IGnssCallbackDefault::getInterfaceVersion",
   "linker_set_key" : "_ZN4aidl7android8hardware4gnss20IGnssCallbackDefault19getInterfaceVersionEPi",
   "parameters" :
   [
    {
     "is_this_ptr" : true,
     "referenced_type" : "_ZTIPN4aidl7android8hardware4gnss20IGnssCallbackDefaultE"
    },
    {
     "referenced_type" : "_ZTIPi"
    }
   ],
   "return_type" : "_ZTIN3ndk13ScopedAStatusE",
   "source_file" : "out/soong/.intermediates/hardware/interfaces/gnss/aidl/android.hardware.gnss-V1-ndk_platform-source/gen/include/aidl/android/hardware/gnss/IGnssCallback.h"
  },
  {
   "function_name" : "aidl::android::hardware::gnss::IGnssCallbackDefault::gnssSetCapabilitiesCb",
   "linker_set_key" : "_ZN4aidl7android8hardware4gnss20IGnssCallbackDefault21gnssSetCapabilitiesCbEi",
   "parameters" :
   [
    {
     "is_this_ptr" : true,
     "referenced_type" : "_ZTIPN4aidl7android8hardware4gnss20IGnssCallbackDefaultE"
    },
    {
     "referenced_type" : "_ZTIi"
    }
   ],
   "return_type" : "_ZTIN3ndk13ScopedAStatusE",
   "source_file" : "out/soong/.intermediates/hardware/interfaces/gnss/aidl/android.hardware.gnss-V1-ndk_platform-source/gen/include/aidl/android/hardware/gnss/IGnssCallback.h"
  },
  {
   "function_name" : "aidl::android::hardware::gnss::IGnssCallbackDefault::asBinder",
   "linker_set_key" : "_ZN4aidl7android8hardware4gnss20IGnssCallbackDefault8asBinderEv",
   "parameters" :
   [
    {
     "is_this_ptr" : true,
     "referenced_type" : "_ZTIPN4aidl7android8hardware4gnss20IGnssCallbackDefaultE"
    }
   ],
   "return_type" : "_ZTIN3ndk10SpAIBinderE",
   "source_file" : "out/soong/.intermediates/hardware/interfaces/gnss/aidl/android.hardware.gnss-V1-ndk_platform-source/gen/include/aidl/android/hardware/gnss/IGnssCallback.h"
  },
  {
   "function_name" : "aidl::android::hardware::gnss::IGnssCallbackDefault::isRemote",
   "linker_set_key" : "_ZN4aidl7android8hardware4gnss20IGnssCallbackDefault8isRemoteEv",
   "parameters" :
   [
    {
     "is_this_ptr" : true,
     "referenced_type" : "_ZTIPN4aidl7android8hardware4gnss20IGnssCallbackDefaultE"
    }
   ],
   "return_type" : "_ZTIb",
   "source_file" : "out/soong/.intermediates/hardware/interfaces/gnss/aidl/android.hardware.gnss-V1-ndk_platform-source/gen/include/aidl/android/hardware/gnss/IGnssCallback.h"
  },
  {
   "function_name" : "aidl::android::hardware::gnss::IGnssPowerIndication::fromBinder",
   "linker_set_key" : "_ZN4aidl7android8hardware4gnss20IGnssPowerIndication10fromBinderERKN3ndk10SpAIBinderE",
   "parameters" :
   [
    {
     "referenced_type" : "_ZTIRKN3ndk10SpAIBinderE"
    }
   ],
   "return_type" : "_ZTINSt3__110shared_ptrIN4aidl7android8hardware4gnss20IGnssPowerIndicationEEE",
   "source_file" : "out/soong/.intermediates/hardware/interfaces/gnss/aidl/android.hardware.gnss-V1-ndk_platform-source/gen/include/aidl/android/hardware/gnss/IGnssPowerIndication.h"
  },
  {
   "function_name" : "aidl::android::hardware::gnss::IGnssPowerIndication::writeToParcel",
   "linker_set_key" : "_ZN4aidl7android8hardware4gnss20IGnssPowerIndication13writeToParcelEP7AParcelRKNSt3__110shared_ptrIS3_EE",
   "parameters" :
   [
    {
     "referenced_type" : "_ZTIP7AParcel"
    },
    {
     "referenced_type" : "_ZTIRKNSt3__110shared_ptrIN4aidl7android8hardware4gnss20IGnssPowerIndicationEEE"
    }
   ],
   "return_type" : "_ZTIi",
   "source_file" : "out/soong/.intermediates/hardware/interfaces/gnss/aidl/android.hardware.gnss-V1-ndk_platform-source/gen/include/aidl/android/hardware/gnss/IGnssPowerIndication.h"
  },
  {
   "function_name" : "aidl::android::hardware::gnss::IGnssPowerIndication::getDefaultImpl",
   "linker_set_key" : "_ZN4aidl7android8hardware4gnss20IGnssPowerIndication14getDefaultImplEv",
   "return_type" : "_ZTIRKNSt3__110shared_ptrIN4aidl7android8hardware4gnss20IGnssPowerIndicationEEE",
   "source_file" : "out/soong/.intermediates/hardware/interfaces/gnss/aidl/android.hardware.gnss-V1-ndk_platform-source/gen/include/aidl/android/hardware/gnss/IGnssPowerIndication.h"
  },
  {
   "function_name" : "aidl::android::hardware::gnss::IGnssPowerIndication::readFromParcel",
   "linker_set_key" : "_ZN4aidl7android8hardware4gnss20IGnssPowerIndication14readFromParcelEPK7AParcelPNSt3__110shared_ptrIS3_EE",
   "parameters" :
   [
    {
     "referenced_type" : "_ZTIPK7AParcel"
    },
    {
     "referenced_type" : "_ZTIPNSt3__110shared_ptrIN4aidl7android8hardware4gnss20IGnssPowerIndicationEEE"
    }
   ],
   "return_type" : "_ZTIi",
   "source_file" : "out/soong/.intermediates/hardware/interfaces/gnss/aidl/android.hardware.gnss-V1-ndk_platform-source/gen/include/aidl/android/hardware/gnss/IGnssPowerIndication.h"
  },
  {
   "function_name" : "aidl::android::hardware::gnss::IGnssPowerIndication::setDefaultImpl",
   "linker_set_key" : "_ZN4aidl7android8hardware4gnss20IGnssPowerIndication14setDefaultImplERKNSt3__110shared_ptrIS3_EE",
   "parameters" :
   [
    {
     "referenced_type" : "_ZTIRKNSt3__110shared_ptrIN4aidl7android8hardware4gnss20IGnssPowerIndicationEEE"
    }
   ],
   "return_type" : "_ZTIb",
   "source_file" : "out/soong/.intermediates/hardware/interfaces/gnss/aidl/android.hardware.gnss-V1-ndk_platform-source/gen/include/aidl/android/hardware/gnss/IGnssPowerIndication.h"
  },
  {
   "function_name" : "aidl::android::hardware::gnss::IGnssPowerIndication::IGnssPowerIndication",
   "linker_set_key" : "_ZN4aidl7android8hardware4gnss20IGnssPowerIndicationC2Ev",
   "parameters" :
   [
    {
     "is_this_ptr" : true,
     "referenced_type" : "_ZTIPN4aidl7android8hardware4gnss20IGnssPowerIndicationE"
    }
   ],
   "return_type" : "_ZTIv",
   "source_file" : "out/soong/.intermediates/hardware/interfaces/gnss/aidl/android.hardware.gnss-V1-ndk_platform-source/gen/include/aidl/android/hardware/gnss/IGnssPowerIndication.h"
  },
  {
   "function_name" : "aidl::android::hardware::gnss::IGnssPowerIndication::~IGnssPowerIndication",
   "linker_set_key" : "_ZN4aidl7android8hardware4gnss20IGnssPowerIndicationD0Ev",
   "parameters" :
   [
    {
     "is_this_ptr" : true,
     "referenced_type" : "_ZTIPN4aidl7android8hardware4gnss20IGnssPowerIndicationE"
    }
   ],
   "return_type" : "_ZTIv",
   "source_file" : "out/soong/.intermediates/hardware/interfaces/gnss/aidl/android.hardware.gnss-V1-ndk_platform-source/gen/include/aidl/android/hardware/gnss/IGnssPowerIndication.h"
  },
  {
   "function_name" : "aidl::android::hardware::gnss::IGnssPowerIndication::~IGnssPowerIndication",
   "linker_set_key" : "_ZN4aidl7android8hardware4gnss20IGnssPowerIndicationD1Ev",
   "parameters" :
   [
    {
     "is_this_ptr" : true,
     "referenced_type" : "_ZTIPN4aidl7android8hardware4gnss20IGnssPowerIndicationE"
    }
   ],
   "return_type" : "_ZTIv",
   "source_file" : "out/soong/.intermediates/hardware/interfaces/gnss/aidl/android.hardware.gnss-V1-ndk_platform-source/gen/include/aidl/android/hardware/gnss/IGnssPowerIndication.h"
  },
  {
   "function_name" : "aidl::android::hardware::gnss::IGnssPowerIndication::~IGnssPowerIndication",
   "linker_set_key" : "_ZN4aidl7android8hardware4gnss20IGnssPowerIndicationD2Ev",
   "parameters" :
   [
    {
     "is_this_ptr" : true,
     "referenced_type" : "_ZTIPN4aidl7android8hardware4gnss20IGnssPowerIndicationE"
    }
   ],
   "return_type" : "_ZTIv",
   "source_file" : "out/soong/.intermediates/hardware/interfaces/gnss/aidl/android.hardware.gnss-V1-ndk_platform-source/gen/include/aidl/android/hardware/gnss/IGnssPowerIndication.h"
  },
  {
   "access" : "protected",
   "function_name" : "aidl::android::hardware::gnss::BnGnssPowerIndication::createBinder",
   "linker_set_key" : "_ZN4aidl7android8hardware4gnss21BnGnssPowerIndication12createBinderEv",
   "parameters" :
   [
    {
     "is_this_ptr" : true,
     "referenced_type" : "_ZTIPN4aidl7android8hardware4gnss21BnGnssPowerIndicationE"
    }
   ],
   "return_type" : "_ZTIN3ndk10SpAIBinderE",
   "source_file" : "out/soong/.intermediates/hardware/interfaces/gnss/aidl/android.hardware.gnss-V1-ndk_platform-source/gen/include/aidl/android/hardware/gnss/BnGnssPowerIndication.h"
  },
  {
   "function_name" : "aidl::android::hardware::gnss::BnGnssPowerIndication::getInterfaceHash",
   "linker_set_key" : "_ZN4aidl7android8hardware4gnss21BnGnssPowerIndication16getInterfaceHashEPNSt3__112basic_stringIcNS4_11char_traitsIcEENS4_9allocatorIcEEEE",
   "parameters" :
   [
    {
     "is_this_ptr" : true,
     "referenced_type" : "_ZTIPN4aidl7android8hardware4gnss21BnGnssPowerIndicationE"
    },
    {
     "referenced_type" : "_ZTIPNSt3__112basic_stringIcNS_11char_traitsIcEENS_9allocatorIcEEEE"
    }
   ],
   "return_type" : "_ZTIN3ndk13ScopedAStatusE",
   "source_file" : "out/soong/.intermediates/hardware/interfaces/gnss/aidl/android.hardware.gnss-V1-ndk_platform-source/gen/include/aidl/android/hardware/gnss/BnGnssPowerIndication.h"
  },
  {
   "function_name" : "aidl::android::hardware::gnss::BnGnssPowerIndication::getInterfaceVersion",
   "linker_set_key" : "_ZN4aidl7android8hardware4gnss21BnGnssPowerIndication19getInterfaceVersionEPi",
   "parameters" :
   [
    {
     "is_this_ptr" : true,
     "referenced_type" : "_ZTIPN4aidl7android8hardware4gnss21BnGnssPowerIndicationE"
    },
    {
     "referenced_type" : "_ZTIPi"
    }
   ],
   "return_type" : "_ZTIN3ndk13ScopedAStatusE",
   "source_file" : "out/soong/.intermediates/hardware/interfaces/gnss/aidl/android.hardware.gnss-V1-ndk_platform-source/gen/include/aidl/android/hardware/gnss/BnGnssPowerIndication.h"
  },
  {
   "function_name" : "aidl::android::hardware::gnss::BnGnssPowerIndication::BnGnssPowerIndication",
   "linker_set_key" : "_ZN4aidl7android8hardware4gnss21BnGnssPowerIndicationC2Ev",
   "parameters" :
   [
    {
     "is_this_ptr" : true,
     "referenced_type" : "_ZTIPN4aidl7android8hardware4gnss21BnGnssPowerIndicationE"
    }
   ],
   "return_type" : "_ZTIv",
   "source_file" : "out/soong/.intermediates/hardware/interfaces/gnss/aidl/android.hardware.gnss-V1-ndk_platform-source/gen/include/aidl/android/hardware/gnss/BnGnssPowerIndication.h"
  },
  {
   "function_name" : "aidl::android::hardware::gnss::BnGnssPowerIndication::~BnGnssPowerIndication",
   "linker_set_key" : "_ZN4aidl7android8hardware4gnss21BnGnssPowerIndicationD0Ev",
   "parameters" :
   [
    {
     "is_this_ptr" : true,
     "referenced_type" : "_ZTIPN4aidl7android8hardware4gnss21BnGnssPowerIndicationE"
    }
   ],
   "return_type" : "_ZTIv",
   "source_file" : "out/soong/.intermediates/hardware/interfaces/gnss/aidl/android.hardware.gnss-V1-ndk_platform-source/gen/include/aidl/android/hardware/gnss/BnGnssPowerIndication.h"
  },
  {
   "function_name" : "aidl::android::hardware::gnss::BnGnssPowerIndication::~BnGnssPowerIndication",
   "linker_set_key" : "_ZN4aidl7android8hardware4gnss21BnGnssPowerIndicationD1Ev",
   "parameters" :
   [
    {
     "is_this_ptr" : true,
     "referenced_type" : "_ZTIPN4aidl7android8hardware4gnss21BnGnssPowerIndicationE"
    }
   ],
   "return_type" : "_ZTIv",
   "source_file" : "out/soong/.intermediates/hardware/interfaces/gnss/aidl/android.hardware.gnss-V1-ndk_platform-source/gen/include/aidl/android/hardware/gnss/BnGnssPowerIndication.h"
  },
  {
   "function_name" : "aidl::android::hardware::gnss::BnGnssPowerIndication::~BnGnssPowerIndication",
   "linker_set_key" : "_ZN4aidl7android8hardware4gnss21BnGnssPowerIndicationD2Ev",
   "parameters" :
   [
    {
     "is_this_ptr" : true,
     "referenced_type" : "_ZTIPN4aidl7android8hardware4gnss21BnGnssPowerIndicationE"
    }
   ],
   "return_type" : "_ZTIv",
   "source_file" : "out/soong/.intermediates/hardware/interfaces/gnss/aidl/android.hardware.gnss-V1-ndk_platform-source/gen/include/aidl/android/hardware/gnss/BnGnssPowerIndication.h"
  },
  {
   "function_name" : "aidl::android::hardware::gnss::BpGnssPowerIndication::setCallback",
   "linker_set_key" : "_ZN4aidl7android8hardware4gnss21BpGnssPowerIndication11setCallbackERKNSt3__110shared_ptrINS2_28IGnssPowerIndicationCallbackEEE",
   "parameters" :
   [
    {
     "is_this_ptr" : true,
     "referenced_type" : "_ZTIPN4aidl7android8hardware4gnss21BpGnssPowerIndicationE"
    },
    {
     "referenced_type" : "_ZTIRKNSt3__110shared_ptrIN4aidl7android8hardware4gnss28IGnssPowerIndicationCallbackEEE"
    }
   ],
   "return_type" : "_ZTIN3ndk13ScopedAStatusE",
   "source_file" : "out/soong/.intermediates/hardware/interfaces/gnss/aidl/android.hardware.gnss-V1-ndk_platform-source/gen/include/aidl/android/hardware/gnss/BpGnssPowerIndication.h"
  },
  {
   "function_name" : "aidl::android::hardware::gnss::BpGnssPowerIndication::getInterfaceHash",
   "linker_set_key" : "_ZN4aidl7android8hardware4gnss21BpGnssPowerIndication16getInterfaceHashEPNSt3__112basic_stringIcNS4_11char_traitsIcEENS4_9allocatorIcEEEE",
   "parameters" :
   [
    {
     "is_this_ptr" : true,
     "referenced_type" : "_ZTIPN4aidl7android8hardware4gnss21BpGnssPowerIndicationE"
    },
    {
     "referenced_type" : "_ZTIPNSt3__112basic_stringIcNS_11char_traitsIcEENS_9allocatorIcEEEE"
    }
   ],
   "return_type" : "_ZTIN3ndk13ScopedAStatusE",
   "source_file" : "out/soong/.intermediates/hardware/interfaces/gnss/aidl/android.hardware.gnss-V1-ndk_platform-source/gen/include/aidl/android/hardware/gnss/BpGnssPowerIndication.h"
  },
  {
   "function_name" : "aidl::android::hardware::gnss::BpGnssPowerIndication::getInterfaceVersion",
   "linker_set_key" : "_ZN4aidl7android8hardware4gnss21BpGnssPowerIndication19getInterfaceVersionEPi",
   "parameters" :
   [
    {
     "is_this_ptr" : true,
     "referenced_type" : "_ZTIPN4aidl7android8hardware4gnss21BpGnssPowerIndicationE"
    },
    {
     "referenced_type" : "_ZTIPi"
    }
   ],
   "return_type" : "_ZTIN3ndk13ScopedAStatusE",
   "source_file" : "out/soong/.intermediates/hardware/interfaces/gnss/aidl/android.hardware.gnss-V1-ndk_platform-source/gen/include/aidl/android/hardware/gnss/BpGnssPowerIndication.h"
  },
  {
   "function_name" : "aidl::android::hardware::gnss::BpGnssPowerIndication::requestGnssPowerStats",
   "linker_set_key" : "_ZN4aidl7android8hardware4gnss21BpGnssPowerIndication21requestGnssPowerStatsEv",
   "parameters" :
   [
    {
     "is_this_ptr" : true,
     "referenced_type" : "_ZTIPN4aidl7android8hardware4gnss21BpGnssPowerIndicationE"
    }
   ],
   "return_type" : "_ZTIN3ndk13ScopedAStatusE",
   "source_file" : "out/soong/.intermediates/hardware/interfaces/gnss/aidl/android.hardware.gnss-V1-ndk_platform-source/gen/include/aidl/android/hardware/gnss/BpGnssPowerIndication.h"
  },
  {
   "function_name" : "aidl::android::hardware::gnss::BpGnssPowerIndication::BpGnssPowerIndication",
   "linker_set_key" : "_ZN4aidl7android8hardware4gnss21BpGnssPowerIndicationC1ERKN3ndk10SpAIBinderE",
   "parameters" :
   [
    {
     "is_this_ptr" : true,
     "referenced_type" : "_ZTIPN4aidl7android8hardware4gnss21BpGnssPowerIndicationE"
    },
    {
     "referenced_type" : "_ZTIRKN3ndk10SpAIBinderE"
    }
   ],
   "return_type" : "_ZTIv",
   "source_file" : "out/soong/.intermediates/hardware/interfaces/gnss/aidl/android.hardware.gnss-V1-ndk_platform-source/gen/include/aidl/android/hardware/gnss/BpGnssPowerIndication.h"
  },
  {
   "function_name" : "aidl::android::hardware::gnss::BpGnssPowerIndication::BpGnssPowerIndication",
   "linker_set_key" : "_ZN4aidl7android8hardware4gnss21BpGnssPowerIndicationC2ERKN3ndk10SpAIBinderE",
   "parameters" :
   [
    {
     "is_this_ptr" : true,
     "referenced_type" : "_ZTIPN4aidl7android8hardware4gnss21BpGnssPowerIndicationE"
    },
    {
     "referenced_type" : "_ZTIRKN3ndk10SpAIBinderE"
    }
   ],
   "return_type" : "_ZTIv",
   "source_file" : "out/soong/.intermediates/hardware/interfaces/gnss/aidl/android.hardware.gnss-V1-ndk_platform-source/gen/include/aidl/android/hardware/gnss/BpGnssPowerIndication.h"
  },
  {
   "function_name" : "aidl::android::hardware::gnss::BpGnssPowerIndication::~BpGnssPowerIndication",
   "linker_set_key" : "_ZN4aidl7android8hardware4gnss21BpGnssPowerIndicationD0Ev",
   "parameters" :
   [
    {
     "is_this_ptr" : true,
     "referenced_type" : "_ZTIPN4aidl7android8hardware4gnss21BpGnssPowerIndicationE"
    }
   ],
   "return_type" : "_ZTIv",
   "source_file" : "out/soong/.intermediates/hardware/interfaces/gnss/aidl/android.hardware.gnss-V1-ndk_platform-source/gen/include/aidl/android/hardware/gnss/BpGnssPowerIndication.h"
  },
  {
   "function_name" : "aidl::android::hardware::gnss::BpGnssPowerIndication::~BpGnssPowerIndication",
   "linker_set_key" : "_ZN4aidl7android8hardware4gnss21BpGnssPowerIndicationD1Ev",
   "parameters" :
   [
    {
     "is_this_ptr" : true,
     "referenced_type" : "_ZTIPN4aidl7android8hardware4gnss21BpGnssPowerIndicationE"
    }
   ],
   "return_type" : "_ZTIv",
   "source_file" : "out/soong/.intermediates/hardware/interfaces/gnss/aidl/android.hardware.gnss-V1-ndk_platform-source/gen/include/aidl/android/hardware/gnss/BpGnssPowerIndication.h"
  },
  {
   "function_name" : "aidl::android::hardware::gnss::BpGnssPowerIndication::~BpGnssPowerIndication",
   "linker_set_key" : "_ZN4aidl7android8hardware4gnss21BpGnssPowerIndicationD2Ev",
   "parameters" :
   [
    {
     "is_this_ptr" : true,
     "referenced_type" : "_ZTIPN4aidl7android8hardware4gnss21BpGnssPowerIndicationE"
    }
   ],
   "return_type" : "_ZTIv",
   "source_file" : "out/soong/.intermediates/hardware/interfaces/gnss/aidl/android.hardware.gnss-V1-ndk_platform-source/gen/include/aidl/android/hardware/gnss/BpGnssPowerIndication.h"
  },
  {
   "function_name" : "aidl::android::hardware::gnss::SatellitePositionEcef::readFromParcel",
   "linker_set_key" : "_ZN4aidl7android8hardware4gnss21SatellitePositionEcef14readFromParcelEPK7AParcel",
   "parameters" :
   [
    {
     "is_this_ptr" : true,
     "referenced_type" : "_ZTIPN4aidl7android8hardware4gnss21SatellitePositionEcefE"
    },
    {
     "referenced_type" : "_ZTIPK7AParcel"
    }
   ],
   "return_type" : "_ZTIi",
   "source_file" : "out/soong/.intermediates/hardware/interfaces/gnss/aidl/android.hardware.gnss-V1-ndk_platform-source/gen/include/aidl/android/hardware/gnss/SatellitePositionEcef.h"
  },
  {
   "function_name" : "aidl::android::hardware::gnss::SatelliteVelocityEcef::readFromParcel",
   "linker_set_key" : "_ZN4aidl7android8hardware4gnss21SatelliteVelocityEcef14readFromParcelEPK7AParcel",
   "parameters" :
   [
    {
     "is_this_ptr" : true,
     "referenced_type" : "_ZTIPN4aidl7android8hardware4gnss21SatelliteVelocityEcefE"
    },
    {
     "referenced_type" : "_ZTIPK7AParcel"
    }
   ],
   "return_type" : "_ZTIi",
   "source_file" : "out/soong/.intermediates/hardware/interfaces/gnss/aidl/android.hardware.gnss-V1-ndk_platform-source/gen/include/aidl/android/hardware/gnss/SatelliteVelocityEcef.h"
  },
  {
   "function_name" : "aidl::android::hardware::gnss::IGnssMeasurementCallback::fromBinder",
   "linker_set_key" : "_ZN4aidl7android8hardware4gnss24IGnssMeasurementCallback10fromBinderERKN3ndk10SpAIBinderE",
   "parameters" :
   [
    {
     "referenced_type" : "_ZTIRKN3ndk10SpAIBinderE"
    }
   ],
   "return_type" : "_ZTINSt3__110shared_ptrIN4aidl7android8hardware4gnss24IGnssMeasurementCallbackEEE",
   "source_file" : "out/soong/.intermediates/hardware/interfaces/gnss/aidl/android.hardware.gnss-V1-ndk_platform-source/gen/include/aidl/android/hardware/gnss/IGnssMeasurementCallback.h"
  },
  {
   "function_name" : "aidl::android::hardware::gnss::IGnssMeasurementCallback::writeToParcel",
   "linker_set_key" : "_ZN4aidl7android8hardware4gnss24IGnssMeasurementCallback13writeToParcelEP7AParcelRKNSt3__110shared_ptrIS3_EE",
   "parameters" :
   [
    {
     "referenced_type" : "_ZTIP7AParcel"
    },
    {
     "referenced_type" : "_ZTIRKNSt3__110shared_ptrIN4aidl7android8hardware4gnss24IGnssMeasurementCallbackEEE"
    }
   ],
   "return_type" : "_ZTIi",
   "source_file" : "out/soong/.intermediates/hardware/interfaces/gnss/aidl/android.hardware.gnss-V1-ndk_platform-source/gen/include/aidl/android/hardware/gnss/IGnssMeasurementCallback.h"
  },
  {
   "function_name" : "aidl::android::hardware::gnss::IGnssMeasurementCallback::getDefaultImpl",
   "linker_set_key" : "_ZN4aidl7android8hardware4gnss24IGnssMeasurementCallback14getDefaultImplEv",
   "return_type" : "_ZTIRKNSt3__110shared_ptrIN4aidl7android8hardware4gnss24IGnssMeasurementCallbackEEE",
   "source_file" : "out/soong/.intermediates/hardware/interfaces/gnss/aidl/android.hardware.gnss-V1-ndk_platform-source/gen/include/aidl/android/hardware/gnss/IGnssMeasurementCallback.h"
  },
  {
   "function_name" : "aidl::android::hardware::gnss::IGnssMeasurementCallback::readFromParcel",
   "linker_set_key" : "_ZN4aidl7android8hardware4gnss24IGnssMeasurementCallback14readFromParcelEPK7AParcelPNSt3__110shared_ptrIS3_EE",
   "parameters" :
   [
    {
     "referenced_type" : "_ZTIPK7AParcel"
    },
    {
     "referenced_type" : "_ZTIPNSt3__110shared_ptrIN4aidl7android8hardware4gnss24IGnssMeasurementCallbackEEE"
    }
   ],
   "return_type" : "_ZTIi",
   "source_file" : "out/soong/.intermediates/hardware/interfaces/gnss/aidl/android.hardware.gnss-V1-ndk_platform-source/gen/include/aidl/android/hardware/gnss/IGnssMeasurementCallback.h"
  },
  {
   "function_name" : "aidl::android::hardware::gnss::IGnssMeasurementCallback::setDefaultImpl",
   "linker_set_key" : "_ZN4aidl7android8hardware4gnss24IGnssMeasurementCallback14setDefaultImplERKNSt3__110shared_ptrIS3_EE",
   "parameters" :
   [
    {
     "referenced_type" : "_ZTIRKNSt3__110shared_ptrIN4aidl7android8hardware4gnss24IGnssMeasurementCallbackEEE"
    }
   ],
   "return_type" : "_ZTIb",
   "source_file" : "out/soong/.intermediates/hardware/interfaces/gnss/aidl/android.hardware.gnss-V1-ndk_platform-source/gen/include/aidl/android/hardware/gnss/IGnssMeasurementCallback.h"
  },
  {
   "function_name" : "aidl::android::hardware::gnss::IGnssMeasurementCallback::IGnssMeasurementCallback",
   "linker_set_key" : "_ZN4aidl7android8hardware4gnss24IGnssMeasurementCallbackC2Ev",
   "parameters" :
   [
    {
     "is_this_ptr" : true,
     "referenced_type" : "_ZTIPN4aidl7android8hardware4gnss24IGnssMeasurementCallbackE"
    }
   ],
   "return_type" : "_ZTIv",
   "source_file" : "out/soong/.intermediates/hardware/interfaces/gnss/aidl/android.hardware.gnss-V1-ndk_platform-source/gen/include/aidl/android/hardware/gnss/IGnssMeasurementCallback.h"
  },
  {
   "function_name" : "aidl::android::hardware::gnss::IGnssMeasurementCallback::~IGnssMeasurementCallback",
   "linker_set_key" : "_ZN4aidl7android8hardware4gnss24IGnssMeasurementCallbackD0Ev",
   "parameters" :
   [
    {
     "is_this_ptr" : true,
     "referenced_type" : "_ZTIPN4aidl7android8hardware4gnss24IGnssMeasurementCallbackE"
    }
   ],
   "return_type" : "_ZTIv",
   "source_file" : "out/soong/.intermediates/hardware/interfaces/gnss/aidl/android.hardware.gnss-V1-ndk_platform-source/gen/include/aidl/android/hardware/gnss/IGnssMeasurementCallback.h"
  },
  {
   "function_name" : "aidl::android::hardware::gnss::IGnssMeasurementCallback::~IGnssMeasurementCallback",
   "linker_set_key" : "_ZN4aidl7android8hardware4gnss24IGnssMeasurementCallbackD1Ev",
   "parameters" :
   [
    {
     "is_this_ptr" : true,
     "referenced_type" : "_ZTIPN4aidl7android8hardware4gnss24IGnssMeasurementCallbackE"
    }
   ],
   "return_type" : "_ZTIv",
   "source_file" : "out/soong/.intermediates/hardware/interfaces/gnss/aidl/android.hardware.gnss-V1-ndk_platform-source/gen/include/aidl/android/hardware/gnss/IGnssMeasurementCallback.h"
  },
  {
   "function_name" : "aidl::android::hardware::gnss::IGnssMeasurementCallback::~IGnssMeasurementCallback",
   "linker_set_key" : "_ZN4aidl7android8hardware4gnss24IGnssMeasurementCallbackD2Ev",
   "parameters" :
   [
    {
     "is_this_ptr" : true,
     "referenced_type" : "_ZTIPN4aidl7android8hardware4gnss24IGnssMeasurementCallbackE"
    }
   ],
   "return_type" : "_ZTIv",
   "source_file" : "out/soong/.intermediates/hardware/interfaces/gnss/aidl/android.hardware.gnss-V1-ndk_platform-source/gen/include/aidl/android/hardware/gnss/IGnssMeasurementCallback.h"
  },
  {
   "function_name" : "aidl::android::hardware::gnss::IGnssPsdsCallbackDefault::getInterfaceHash",
   "linker_set_key" : "_ZN4aidl7android8hardware4gnss24IGnssPsdsCallbackDefault16getInterfaceHashEPNSt3__112basic_stringIcNS4_11char_traitsIcEENS4_9allocatorIcEEEE",
   "parameters" :
   [
    {
     "is_this_ptr" : true,
     "referenced_type" : "_ZTIPN4aidl7android8hardware4gnss24IGnssPsdsCallbackDefaultE"
    },
    {
     "referenced_type" : "_ZTIPNSt3__112basic_stringIcNS_11char_traitsIcEENS_9allocatorIcEEEE"
    }
   ],
   "return_type" : "_ZTIN3ndk13ScopedAStatusE",
   "source_file" : "out/soong/.intermediates/hardware/interfaces/gnss/aidl/android.hardware.gnss-V1-ndk_platform-source/gen/include/aidl/android/hardware/gnss/IGnssPsdsCallback.h"
  },
  {
   "function_name" : "aidl::android::hardware::gnss::IGnssPsdsCallbackDefault::downloadRequestCb",
   "linker_set_key" : "_ZN4aidl7android8hardware4gnss24IGnssPsdsCallbackDefault17downloadRequestCbENS2_8PsdsTypeE",
   "parameters" :
   [
    {
     "is_this_ptr" : true,
     "referenced_type" : "_ZTIPN4aidl7android8hardware4gnss24IGnssPsdsCallbackDefaultE"
    },
    {
     "referenced_type" : "_ZTIN4aidl7android8hardware4gnss8PsdsTypeE"
    }
   ],
   "return_type" : "_ZTIN3ndk13ScopedAStatusE",
   "source_file" : "out/soong/.intermediates/hardware/interfaces/gnss/aidl/android.hardware.gnss-V1-ndk_platform-source/gen/include/aidl/android/hardware/gnss/IGnssPsdsCallback.h"
  },
  {
   "function_name" : "aidl::android::hardware::gnss::IGnssPsdsCallbackDefault::getInterfaceVersion",
   "linker_set_key" : "_ZN4aidl7android8hardware4gnss24IGnssPsdsCallbackDefault19getInterfaceVersionEPi",
   "parameters" :
   [
    {
     "is_this_ptr" : true,
     "referenced_type" : "_ZTIPN4aidl7android8hardware4gnss24IGnssPsdsCallbackDefaultE"
    },
    {
     "referenced_type" : "_ZTIPi"
    }
   ],
   "return_type" : "_ZTIN3ndk13ScopedAStatusE",
   "source_file" : "out/soong/.intermediates/hardware/interfaces/gnss/aidl/android.hardware.gnss-V1-ndk_platform-source/gen/include/aidl/android/hardware/gnss/IGnssPsdsCallback.h"
  },
  {
   "function_name" : "aidl::android::hardware::gnss::IGnssPsdsCallbackDefault::asBinder",
   "linker_set_key" : "_ZN4aidl7android8hardware4gnss24IGnssPsdsCallbackDefault8asBinderEv",
   "parameters" :
   [
    {
     "is_this_ptr" : true,
     "referenced_type" : "_ZTIPN4aidl7android8hardware4gnss24IGnssPsdsCallbackDefaultE"
    }
   ],
   "return_type" : "_ZTIN3ndk10SpAIBinderE",
   "source_file" : "out/soong/.intermediates/hardware/interfaces/gnss/aidl/android.hardware.gnss-V1-ndk_platform-source/gen/include/aidl/android/hardware/gnss/IGnssPsdsCallback.h"
  },
  {
   "function_name" : "aidl::android::hardware::gnss::IGnssPsdsCallbackDefault::isRemote",
   "linker_set_key" : "_ZN4aidl7android8hardware4gnss24IGnssPsdsCallbackDefault8isRemoteEv",
   "parameters" :
   [
    {
     "is_this_ptr" : true,
     "referenced_type" : "_ZTIPN4aidl7android8hardware4gnss24IGnssPsdsCallbackDefaultE"
    }
   ],
   "return_type" : "_ZTIb",
   "source_file" : "out/soong/.intermediates/hardware/interfaces/gnss/aidl/android.hardware.gnss-V1-ndk_platform-source/gen/include/aidl/android/hardware/gnss/IGnssPsdsCallback.h"
  },
  {
   "access" : "protected",
   "function_name" : "aidl::android::hardware::gnss::BnGnssMeasurementCallback::createBinder",
   "linker_set_key" : "_ZN4aidl7android8hardware4gnss25BnGnssMeasurementCallback12createBinderEv",
   "parameters" :
   [
    {
     "is_this_ptr" : true,
     "referenced_type" : "_ZTIPN4aidl7android8hardware4gnss25BnGnssMeasurementCallbackE"
    }
   ],
   "return_type" : "_ZTIN3ndk10SpAIBinderE",
   "source_file" : "out/soong/.intermediates/hardware/interfaces/gnss/aidl/android.hardware.gnss-V1-ndk_platform-source/gen/include/aidl/android/hardware/gnss/BnGnssMeasurementCallback.h"
  },
  {
   "function_name" : "aidl::android::hardware::gnss::BnGnssMeasurementCallback::getInterfaceHash",
   "linker_set_key" : "_ZN4aidl7android8hardware4gnss25BnGnssMeasurementCallback16getInterfaceHashEPNSt3__112basic_stringIcNS4_11char_traitsIcEENS4_9allocatorIcEEEE",
   "parameters" :
   [
    {
     "is_this_ptr" : true,
     "referenced_type" : "_ZTIPN4aidl7android8hardware4gnss25BnGnssMeasurementCallbackE"
    },
    {
     "referenced_type" : "_ZTIPNSt3__112basic_stringIcNS_11char_traitsIcEENS_9allocatorIcEEEE"
    }
   ],
   "return_type" : "_ZTIN3ndk13ScopedAStatusE",
   "source_file" : "out/soong/.intermediates/hardware/interfaces/gnss/aidl/android.hardware.gnss-V1-ndk_platform-source/gen/include/aidl/android/hardware/gnss/BnGnssMeasurementCallback.h"
  },
  {
   "function_name" : "aidl::android::hardware::gnss::BnGnssMeasurementCallback::getInterfaceVersion",
   "linker_set_key" : "_ZN4aidl7android8hardware4gnss25BnGnssMeasurementCallback19getInterfaceVersionEPi",
   "parameters" :
   [
    {
     "is_this_ptr" : true,
     "referenced_type" : "_ZTIPN4aidl7android8hardware4gnss25BnGnssMeasurementCallbackE"
    },
    {
     "referenced_type" : "_ZTIPi"
    }
   ],
   "return_type" : "_ZTIN3ndk13ScopedAStatusE",
   "source_file" : "out/soong/.intermediates/hardware/interfaces/gnss/aidl/android.hardware.gnss-V1-ndk_platform-source/gen/include/aidl/android/hardware/gnss/BnGnssMeasurementCallback.h"
  },
  {
   "function_name" : "aidl::android::hardware::gnss::BnGnssMeasurementCallback::BnGnssMeasurementCallback",
   "linker_set_key" : "_ZN4aidl7android8hardware4gnss25BnGnssMeasurementCallbackC2Ev",
   "parameters" :
   [
    {
     "is_this_ptr" : true,
     "referenced_type" : "_ZTIPN4aidl7android8hardware4gnss25BnGnssMeasurementCallbackE"
    }
   ],
   "return_type" : "_ZTIv",
   "source_file" : "out/soong/.intermediates/hardware/interfaces/gnss/aidl/android.hardware.gnss-V1-ndk_platform-source/gen/include/aidl/android/hardware/gnss/BnGnssMeasurementCallback.h"
  },
  {
   "function_name" : "aidl::android::hardware::gnss::BnGnssMeasurementCallback::~BnGnssMeasurementCallback",
   "linker_set_key" : "_ZN4aidl7android8hardware4gnss25BnGnssMeasurementCallbackD0Ev",
   "parameters" :
   [
    {
     "is_this_ptr" : true,
     "referenced_type" : "_ZTIPN4aidl7android8hardware4gnss25BnGnssMeasurementCallbackE"
    }
   ],
   "return_type" : "_ZTIv",
   "source_file" : "out/soong/.intermediates/hardware/interfaces/gnss/aidl/android.hardware.gnss-V1-ndk_platform-source/gen/include/aidl/android/hardware/gnss/BnGnssMeasurementCallback.h"
  },
  {
   "function_name" : "aidl::android::hardware::gnss::BnGnssMeasurementCallback::~BnGnssMeasurementCallback",
   "linker_set_key" : "_ZN4aidl7android8hardware4gnss25BnGnssMeasurementCallbackD1Ev",
   "parameters" :
   [
    {
     "is_this_ptr" : true,
     "referenced_type" : "_ZTIPN4aidl7android8hardware4gnss25BnGnssMeasurementCallbackE"
    }
   ],
   "return_type" : "_ZTIv",
   "source_file" : "out/soong/.intermediates/hardware/interfaces/gnss/aidl/android.hardware.gnss-V1-ndk_platform-source/gen/include/aidl/android/hardware/gnss/BnGnssMeasurementCallback.h"
  },
  {
   "function_name" : "aidl::android::hardware::gnss::BnGnssMeasurementCallback::~BnGnssMeasurementCallback",
   "linker_set_key" : "_ZN4aidl7android8hardware4gnss25BnGnssMeasurementCallbackD2Ev",
   "parameters" :
   [
    {
     "is_this_ptr" : true,
     "referenced_type" : "_ZTIPN4aidl7android8hardware4gnss25BnGnssMeasurementCallbackE"
    }
   ],
   "return_type" : "_ZTIv",
   "source_file" : "out/soong/.intermediates/hardware/interfaces/gnss/aidl/android.hardware.gnss-V1-ndk_platform-source/gen/include/aidl/android/hardware/gnss/BnGnssMeasurementCallback.h"
  },
  {
   "function_name" : "aidl::android::hardware::gnss::BpGnssMeasurementCallback::getInterfaceHash",
   "linker_set_key" : "_ZN4aidl7android8hardware4gnss25BpGnssMeasurementCallback16getInterfaceHashEPNSt3__112basic_stringIcNS4_11char_traitsIcEENS4_9allocatorIcEEEE",
   "parameters" :
   [
    {
     "is_this_ptr" : true,
     "referenced_type" : "_ZTIPN4aidl7android8hardware4gnss25BpGnssMeasurementCallbackE"
    },
    {
     "referenced_type" : "_ZTIPNSt3__112basic_stringIcNS_11char_traitsIcEENS_9allocatorIcEEEE"
    }
   ],
   "return_type" : "_ZTIN3ndk13ScopedAStatusE",
   "source_file" : "out/soong/.intermediates/hardware/interfaces/gnss/aidl/android.hardware.gnss-V1-ndk_platform-source/gen/include/aidl/android/hardware/gnss/BpGnssMeasurementCallback.h"
  },
  {
   "function_name" : "aidl::android::hardware::gnss::BpGnssMeasurementCallback::gnssMeasurementCb",
   "linker_set_key" : "_ZN4aidl7android8hardware4gnss25BpGnssMeasurementCallback17gnssMeasurementCbERKNS2_8GnssDataE",
   "parameters" :
   [
    {
     "is_this_ptr" : true,
     "referenced_type" : "_ZTIPN4aidl7android8hardware4gnss25BpGnssMeasurementCallbackE"
    },
    {
     "referenced_type" : "_ZTIRKN4aidl7android8hardware4gnss8GnssDataE"
    }
   ],
   "return_type" : "_ZTIN3ndk13ScopedAStatusE",
   "source_file" : "out/soong/.intermediates/hardware/interfaces/gnss/aidl/android.hardware.gnss-V1-ndk_platform-source/gen/include/aidl/android/hardware/gnss/BpGnssMeasurementCallback.h"
  },
  {
   "function_name" : "aidl::android::hardware::gnss::BpGnssMeasurementCallback::getInterfaceVersion",
   "linker_set_key" : "_ZN4aidl7android8hardware4gnss25BpGnssMeasurementCallback19getInterfaceVersionEPi",
   "parameters" :
   [
    {
     "is_this_ptr" : true,
     "referenced_type" : "_ZTIPN4aidl7android8hardware4gnss25BpGnssMeasurementCallbackE"
    },
    {
     "referenced_type" : "_ZTIPi"
    }
   ],
   "return_type" : "_ZTIN3ndk13ScopedAStatusE",
   "source_file" : "out/soong/.intermediates/hardware/interfaces/gnss/aidl/android.hardware.gnss-V1-ndk_platform-source/gen/include/aidl/android/hardware/gnss/BpGnssMeasurementCallback.h"
  },
  {
   "function_name" : "aidl::android::hardware::gnss::BpGnssMeasurementCallback::BpGnssMeasurementCallback",
   "linker_set_key" : "_ZN4aidl7android8hardware4gnss25BpGnssMeasurementCallbackC1ERKN3ndk10SpAIBinderE",
   "parameters" :
   [
    {
     "is_this_ptr" : true,
     "referenced_type" : "_ZTIPN4aidl7android8hardware4gnss25BpGnssMeasurementCallbackE"
    },
    {
     "referenced_type" : "_ZTIRKN3ndk10SpAIBinderE"
    }
   ],
   "return_type" : "_ZTIv",
   "source_file" : "out/soong/.intermediates/hardware/interfaces/gnss/aidl/android.hardware.gnss-V1-ndk_platform-source/gen/include/aidl/android/hardware/gnss/BpGnssMeasurementCallback.h"
  },
  {
   "function_name" : "aidl::android::hardware::gnss::BpGnssMeasurementCallback::BpGnssMeasurementCallback",
   "linker_set_key" : "_ZN4aidl7android8hardware4gnss25BpGnssMeasurementCallbackC2ERKN3ndk10SpAIBinderE",
   "parameters" :
   [
    {
     "is_this_ptr" : true,
     "referenced_type" : "_ZTIPN4aidl7android8hardware4gnss25BpGnssMeasurementCallbackE"
    },
    {
     "referenced_type" : "_ZTIRKN3ndk10SpAIBinderE"
    }
   ],
   "return_type" : "_ZTIv",
   "source_file" : "out/soong/.intermediates/hardware/interfaces/gnss/aidl/android.hardware.gnss-V1-ndk_platform-source/gen/include/aidl/android/hardware/gnss/BpGnssMeasurementCallback.h"
  },
  {
   "function_name" : "aidl::android::hardware::gnss::BpGnssMeasurementCallback::~BpGnssMeasurementCallback",
   "linker_set_key" : "_ZN4aidl7android8hardware4gnss25BpGnssMeasurementCallbackD0Ev",
   "parameters" :
   [
    {
     "is_this_ptr" : true,
     "referenced_type" : "_ZTIPN4aidl7android8hardware4gnss25BpGnssMeasurementCallbackE"
    }
   ],
   "return_type" : "_ZTIv",
   "source_file" : "out/soong/.intermediates/hardware/interfaces/gnss/aidl/android.hardware.gnss-V1-ndk_platform-source/gen/include/aidl/android/hardware/gnss/BpGnssMeasurementCallback.h"
  },
  {
   "function_name" : "aidl::android::hardware::gnss::BpGnssMeasurementCallback::~BpGnssMeasurementCallback",
   "linker_set_key" : "_ZN4aidl7android8hardware4gnss25BpGnssMeasurementCallbackD1Ev",
   "parameters" :
   [
    {
     "is_this_ptr" : true,
     "referenced_type" : "_ZTIPN4aidl7android8hardware4gnss25BpGnssMeasurementCallbackE"
    }
   ],
   "return_type" : "_ZTIv",
   "source_file" : "out/soong/.intermediates/hardware/interfaces/gnss/aidl/android.hardware.gnss-V1-ndk_platform-source/gen/include/aidl/android/hardware/gnss/BpGnssMeasurementCallback.h"
  },
  {
   "function_name" : "aidl::android::hardware::gnss::BpGnssMeasurementCallback::~BpGnssMeasurementCallback",
   "linker_set_key" : "_ZN4aidl7android8hardware4gnss25BpGnssMeasurementCallbackD2Ev",
   "parameters" :
   [
    {
     "is_this_ptr" : true,
     "referenced_type" : "_ZTIPN4aidl7android8hardware4gnss25BpGnssMeasurementCallbackE"
    }
   ],
   "return_type" : "_ZTIv",
   "source_file" : "out/soong/.intermediates/hardware/interfaces/gnss/aidl/android.hardware.gnss-V1-ndk_platform-source/gen/include/aidl/android/hardware/gnss/BpGnssMeasurementCallback.h"
  },
  {
   "function_name" : "aidl::android::hardware::gnss::IGnssConfigurationDefault::setSuplMode",
   "linker_set_key" : "_ZN4aidl7android8hardware4gnss25IGnssConfigurationDefault11setSuplModeEi",
   "parameters" :
   [
    {
     "is_this_ptr" : true,
     "referenced_type" : "_ZTIPN4aidl7android8hardware4gnss25IGnssConfigurationDefaultE"
    },
    {
     "referenced_type" : "_ZTIi"
    }
   ],
   "return_type" : "_ZTIN3ndk13ScopedAStatusE",
   "source_file" : "out/soong/.intermediates/hardware/interfaces/gnss/aidl/android.hardware.gnss-V1-ndk_platform-source/gen/include/aidl/android/hardware/gnss/IGnssConfiguration.h"
  },
  {
   "function_name" : "aidl::android::hardware::gnss::IGnssConfigurationDefault::setBlocklist",
   "linker_set_key" : "_ZN4aidl7android8hardware4gnss25IGnssConfigurationDefault12setBlocklistERKNSt3__16vectorINS2_17BlocklistedSourceENS4_9allocatorIS6_EEEE",
   "parameters" :
   [
    {
     "is_this_ptr" : true,
     "referenced_type" : "_ZTIPN4aidl7android8hardware4gnss25IGnssConfigurationDefaultE"
    },
    {
     "referenced_type" : "_ZTIRKNSt3__16vectorIN4aidl7android8hardware4gnss17BlocklistedSourceENS_9allocatorIS5_EEEE"
    }
   ],
   "return_type" : "_ZTIN3ndk13ScopedAStatusE",
   "source_file" : "out/soong/.intermediates/hardware/interfaces/gnss/aidl/android.hardware.gnss-V1-ndk_platform-source/gen/include/aidl/android/hardware/gnss/IGnssConfiguration.h"
  },
  {
   "function_name" : "aidl::android::hardware::gnss::IGnssConfigurationDefault::setLppProfile",
   "linker_set_key" : "_ZN4aidl7android8hardware4gnss25IGnssConfigurationDefault13setLppProfileEi",
   "parameters" :
   [
    {
     "is_this_ptr" : true,
     "referenced_type" : "_ZTIPN4aidl7android8hardware4gnss25IGnssConfigurationDefaultE"
    },
    {
     "referenced_type" : "_ZTIi"
    }
   ],
   "return_type" : "_ZTIN3ndk13ScopedAStatusE",
   "source_file" : "out/soong/.intermediates/hardware/interfaces/gnss/aidl/android.hardware.gnss-V1-ndk_platform-source/gen/include/aidl/android/hardware/gnss/IGnssConfiguration.h"
  },
  {
   "function_name" : "aidl::android::hardware::gnss::IGnssConfigurationDefault::setSuplVersion",
   "linker_set_key" : "_ZN4aidl7android8hardware4gnss25IGnssConfigurationDefault14setSuplVersionEi",
   "parameters" :
   [
    {
     "is_this_ptr" : true,
     "referenced_type" : "_ZTIPN4aidl7android8hardware4gnss25IGnssConfigurationDefaultE"
    },
    {
     "referenced_type" : "_ZTIi"
    }
   ],
   "return_type" : "_ZTIN3ndk13ScopedAStatusE",
   "source_file" : "out/soong/.intermediates/hardware/interfaces/gnss/aidl/android.hardware.gnss-V1-ndk_platform-source/gen/include/aidl/android/hardware/gnss/IGnssConfiguration.h"
  },
  {
   "function_name" : "aidl::android::hardware::gnss::IGnssConfigurationDefault::getInterfaceHash",
   "linker_set_key" : "_ZN4aidl7android8hardware4gnss25IGnssConfigurationDefault16getInterfaceHashEPNSt3__112basic_stringIcNS4_11char_traitsIcEENS4_9allocatorIcEEEE",
   "parameters" :
   [
    {
     "is_this_ptr" : true,
     "referenced_type" : "_ZTIPN4aidl7android8hardware4gnss25IGnssConfigurationDefaultE"
    },
    {
     "referenced_type" : "_ZTIPNSt3__112basic_stringIcNS_11char_traitsIcEENS_9allocatorIcEEEE"
    }
   ],
   "return_type" : "_ZTIN3ndk13ScopedAStatusE",
   "source_file" : "out/soong/.intermediates/hardware/interfaces/gnss/aidl/android.hardware.gnss-V1-ndk_platform-source/gen/include/aidl/android/hardware/gnss/IGnssConfiguration.h"
  },
  {
   "function_name" : "aidl::android::hardware::gnss::IGnssConfigurationDefault::setEsExtensionSec",
   "linker_set_key" : "_ZN4aidl7android8hardware4gnss25IGnssConfigurationDefault17setEsExtensionSecEi",
   "parameters" :
   [
    {
     "is_this_ptr" : true,
     "referenced_type" : "_ZTIPN4aidl7android8hardware4gnss25IGnssConfigurationDefaultE"
    },
    {
     "referenced_type" : "_ZTIi"
    }
   ],
   "return_type" : "_ZTIN3ndk13ScopedAStatusE",
   "source_file" : "out/soong/.intermediates/hardware/interfaces/gnss/aidl/android.hardware.gnss-V1-ndk_platform-source/gen/include/aidl/android/hardware/gnss/IGnssConfiguration.h"
  },
  {
   "function_name" : "aidl::android::hardware::gnss::IGnssConfigurationDefault::getInterfaceVersion",
   "linker_set_key" : "_ZN4aidl7android8hardware4gnss25IGnssConfigurationDefault19getInterfaceVersionEPi",
   "parameters" :
   [
    {
     "is_this_ptr" : true,
     "referenced_type" : "_ZTIPN4aidl7android8hardware4gnss25IGnssConfigurationDefaultE"
    },
    {
     "referenced_type" : "_ZTIPi"
    }
   ],
   "return_type" : "_ZTIN3ndk13ScopedAStatusE",
   "source_file" : "out/soong/.intermediates/hardware/interfaces/gnss/aidl/android.hardware.gnss-V1-ndk_platform-source/gen/include/aidl/android/hardware/gnss/IGnssConfiguration.h"
  },
  {
   "function_name" : "aidl::android::hardware::gnss::IGnssConfigurationDefault::setEmergencySuplPdn",
   "linker_set_key" : "_ZN4aidl7android8hardware4gnss25IGnssConfigurationDefault19setEmergencySuplPdnEb",
   "parameters" :
   [
    {
     "is_this_ptr" : true,
     "referenced_type" : "_ZTIPN4aidl7android8hardware4gnss25IGnssConfigurationDefaultE"
    },
    {
     "referenced_type" : "_ZTIb"
    }
   ],
   "return_type" : "_ZTIN3ndk13ScopedAStatusE",
   "source_file" : "out/soong/.intermediates/hardware/interfaces/gnss/aidl/android.hardware.gnss-V1-ndk_platform-source/gen/include/aidl/android/hardware/gnss/IGnssConfiguration.h"
  },
  {
   "function_name" : "aidl::android::hardware::gnss::IGnssConfigurationDefault::setGlonassPositioningProtocol",
   "linker_set_key" : "_ZN4aidl7android8hardware4gnss25IGnssConfigurationDefault29setGlonassPositioningProtocolEi",
   "parameters" :
   [
    {
     "is_this_ptr" : true,
     "referenced_type" : "_ZTIPN4aidl7android8hardware4gnss25IGnssConfigurationDefaultE"
    },
    {
     "referenced_type" : "_ZTIi"
    }
   ],
   "return_type" : "_ZTIN3ndk13ScopedAStatusE",
   "source_file" : "out/soong/.intermediates/hardware/interfaces/gnss/aidl/android.hardware.gnss-V1-ndk_platform-source/gen/include/aidl/android/hardware/gnss/IGnssConfiguration.h"
  },
  {
   "function_name" : "aidl::android::hardware::gnss::IGnssConfigurationDefault::asBinder",
   "linker_set_key" : "_ZN4aidl7android8hardware4gnss25IGnssConfigurationDefault8asBinderEv",
   "parameters" :
   [
    {
     "is_this_ptr" : true,
     "referenced_type" : "_ZTIPN4aidl7android8hardware4gnss25IGnssConfigurationDefaultE"
    }
   ],
   "return_type" : "_ZTIN3ndk10SpAIBinderE",
   "source_file" : "out/soong/.intermediates/hardware/interfaces/gnss/aidl/android.hardware.gnss-V1-ndk_platform-source/gen/include/aidl/android/hardware/gnss/IGnssConfiguration.h"
  },
  {
   "function_name" : "aidl::android::hardware::gnss::IGnssConfigurationDefault::isRemote",
   "linker_set_key" : "_ZN4aidl7android8hardware4gnss25IGnssConfigurationDefault8isRemoteEv",
   "parameters" :
   [
    {
     "is_this_ptr" : true,
     "referenced_type" : "_ZTIPN4aidl7android8hardware4gnss25IGnssConfigurationDefaultE"
    }
   ],
   "return_type" : "_ZTIb",
   "source_file" : "out/soong/.intermediates/hardware/interfaces/gnss/aidl/android.hardware.gnss-V1-ndk_platform-source/gen/include/aidl/android/hardware/gnss/IGnssConfiguration.h"
  },
  {
   "function_name" : "aidl::android::hardware::gnss::IGnssMeasurementInterface::fromBinder",
   "linker_set_key" : "_ZN4aidl7android8hardware4gnss25IGnssMeasurementInterface10fromBinderERKN3ndk10SpAIBinderE",
   "parameters" :
   [
    {
     "referenced_type" : "_ZTIRKN3ndk10SpAIBinderE"
    }
   ],
   "return_type" : "_ZTINSt3__110shared_ptrIN4aidl7android8hardware4gnss25IGnssMeasurementInterfaceEEE",
   "source_file" : "out/soong/.intermediates/hardware/interfaces/gnss/aidl/android.hardware.gnss-V1-ndk_platform-source/gen/include/aidl/android/hardware/gnss/IGnssMeasurementInterface.h"
  },
  {
   "function_name" : "aidl::android::hardware::gnss::IGnssMeasurementInterface::writeToParcel",
   "linker_set_key" : "_ZN4aidl7android8hardware4gnss25IGnssMeasurementInterface13writeToParcelEP7AParcelRKNSt3__110shared_ptrIS3_EE",
   "parameters" :
   [
    {
     "referenced_type" : "_ZTIP7AParcel"
    },
    {
     "referenced_type" : "_ZTIRKNSt3__110shared_ptrIN4aidl7android8hardware4gnss25IGnssMeasurementInterfaceEEE"
    }
   ],
   "return_type" : "_ZTIi",
   "source_file" : "out/soong/.intermediates/hardware/interfaces/gnss/aidl/android.hardware.gnss-V1-ndk_platform-source/gen/include/aidl/android/hardware/gnss/IGnssMeasurementInterface.h"
  },
  {
   "function_name" : "aidl::android::hardware::gnss::IGnssMeasurementInterface::getDefaultImpl",
   "linker_set_key" : "_ZN4aidl7android8hardware4gnss25IGnssMeasurementInterface14getDefaultImplEv",
   "return_type" : "_ZTIRKNSt3__110shared_ptrIN4aidl7android8hardware4gnss25IGnssMeasurementInterfaceEEE",
   "source_file" : "out/soong/.intermediates/hardware/interfaces/gnss/aidl/android.hardware.gnss-V1-ndk_platform-source/gen/include/aidl/android/hardware/gnss/IGnssMeasurementInterface.h"
  },
  {
   "function_name" : "aidl::android::hardware::gnss::IGnssMeasurementInterface::readFromParcel",
   "linker_set_key" : "_ZN4aidl7android8hardware4gnss25IGnssMeasurementInterface14readFromParcelEPK7AParcelPNSt3__110shared_ptrIS3_EE",
   "parameters" :
   [
    {
     "referenced_type" : "_ZTIPK7AParcel"
    },
    {
     "referenced_type" : "_ZTIPNSt3__110shared_ptrIN4aidl7android8hardware4gnss25IGnssMeasurementInterfaceEEE"
    }
   ],
   "return_type" : "_ZTIi",
   "source_file" : "out/soong/.intermediates/hardware/interfaces/gnss/aidl/android.hardware.gnss-V1-ndk_platform-source/gen/include/aidl/android/hardware/gnss/IGnssMeasurementInterface.h"
  },
  {
   "function_name" : "aidl::android::hardware::gnss::IGnssMeasurementInterface::setDefaultImpl",
   "linker_set_key" : "_ZN4aidl7android8hardware4gnss25IGnssMeasurementInterface14setDefaultImplERKNSt3__110shared_ptrIS3_EE",
   "parameters" :
   [
    {
     "referenced_type" : "_ZTIRKNSt3__110shared_ptrIN4aidl7android8hardware4gnss25IGnssMeasurementInterfaceEEE"
    }
   ],
   "return_type" : "_ZTIb",
   "source_file" : "out/soong/.intermediates/hardware/interfaces/gnss/aidl/android.hardware.gnss-V1-ndk_platform-source/gen/include/aidl/android/hardware/gnss/IGnssMeasurementInterface.h"
  },
  {
   "function_name" : "aidl::android::hardware::gnss::IGnssMeasurementInterface::IGnssMeasurementInterface",
   "linker_set_key" : "_ZN4aidl7android8hardware4gnss25IGnssMeasurementInterfaceC2Ev",
   "parameters" :
   [
    {
     "is_this_ptr" : true,
     "referenced_type" : "_ZTIPN4aidl7android8hardware4gnss25IGnssMeasurementInterfaceE"
    }
   ],
   "return_type" : "_ZTIv",
   "source_file" : "out/soong/.intermediates/hardware/interfaces/gnss/aidl/android.hardware.gnss-V1-ndk_platform-source/gen/include/aidl/android/hardware/gnss/IGnssMeasurementInterface.h"
  },
  {
   "function_name" : "aidl::android::hardware::gnss::IGnssMeasurementInterface::~IGnssMeasurementInterface",
   "linker_set_key" : "_ZN4aidl7android8hardware4gnss25IGnssMeasurementInterfaceD0Ev",
   "parameters" :
   [
    {
     "is_this_ptr" : true,
     "referenced_type" : "_ZTIPN4aidl7android8hardware4gnss25IGnssMeasurementInterfaceE"
    }
   ],
   "return_type" : "_ZTIv",
   "source_file" : "out/soong/.intermediates/hardware/interfaces/gnss/aidl/android.hardware.gnss-V1-ndk_platform-source/gen/include/aidl/android/hardware/gnss/IGnssMeasurementInterface.h"
  },
  {
   "function_name" : "aidl::android::hardware::gnss::IGnssMeasurementInterface::~IGnssMeasurementInterface",
   "linker_set_key" : "_ZN4aidl7android8hardware4gnss25IGnssMeasurementInterfaceD1Ev",
   "parameters" :
   [
    {
     "is_this_ptr" : true,
     "referenced_type" : "_ZTIPN4aidl7android8hardware4gnss25IGnssMeasurementInterfaceE"
    }
   ],
   "return_type" : "_ZTIv",
   "source_file" : "out/soong/.intermediates/hardware/interfaces/gnss/aidl/android.hardware.gnss-V1-ndk_platform-source/gen/include/aidl/android/hardware/gnss/IGnssMeasurementInterface.h"
  },
  {
   "function_name" : "aidl::android::hardware::gnss::IGnssMeasurementInterface::~IGnssMeasurementInterface",
   "linker_set_key" : "_ZN4aidl7android8hardware4gnss25IGnssMeasurementInterfaceD2Ev",
   "parameters" :
   [
    {
     "is_this_ptr" : true,
     "referenced_type" : "_ZTIPN4aidl7android8hardware4gnss25IGnssMeasurementInterfaceE"
    }
   ],
   "return_type" : "_ZTIv",
   "source_file" : "out/soong/.intermediates/hardware/interfaces/gnss/aidl/android.hardware.gnss-V1-ndk_platform-source/gen/include/aidl/android/hardware/gnss/IGnssMeasurementInterface.h"
  },
  {
   "access" : "protected",
   "function_name" : "aidl::android::hardware::gnss::BnGnssMeasurementInterface::createBinder",
   "linker_set_key" : "_ZN4aidl7android8hardware4gnss26BnGnssMeasurementInterface12createBinderEv",
   "parameters" :
   [
    {
     "is_this_ptr" : true,
     "referenced_type" : "_ZTIPN4aidl7android8hardware4gnss26BnGnssMeasurementInterfaceE"
    }
   ],
   "return_type" : "_ZTIN3ndk10SpAIBinderE",
   "source_file" : "out/soong/.intermediates/hardware/interfaces/gnss/aidl/android.hardware.gnss-V1-ndk_platform-source/gen/include/aidl/android/hardware/gnss/BnGnssMeasurementInterface.h"
  },
  {
   "function_name" : "aidl::android::hardware::gnss::BnGnssMeasurementInterface::getInterfaceHash",
   "linker_set_key" : "_ZN4aidl7android8hardware4gnss26BnGnssMeasurementInterface16getInterfaceHashEPNSt3__112basic_stringIcNS4_11char_traitsIcEENS4_9allocatorIcEEEE",
   "parameters" :
   [
    {
     "is_this_ptr" : true,
     "referenced_type" : "_ZTIPN4aidl7android8hardware4gnss26BnGnssMeasurementInterfaceE"
    },
    {
     "referenced_type" : "_ZTIPNSt3__112basic_stringIcNS_11char_traitsIcEENS_9allocatorIcEEEE"
    }
   ],
   "return_type" : "_ZTIN3ndk13ScopedAStatusE",
   "source_file" : "out/soong/.intermediates/hardware/interfaces/gnss/aidl/android.hardware.gnss-V1-ndk_platform-source/gen/include/aidl/android/hardware/gnss/BnGnssMeasurementInterface.h"
  },
  {
   "function_name" : "aidl::android::hardware::gnss::BnGnssMeasurementInterface::getInterfaceVersion",
   "linker_set_key" : "_ZN4aidl7android8hardware4gnss26BnGnssMeasurementInterface19getInterfaceVersionEPi",
   "parameters" :
   [
    {
     "is_this_ptr" : true,
     "referenced_type" : "_ZTIPN4aidl7android8hardware4gnss26BnGnssMeasurementInterfaceE"
    },
    {
     "referenced_type" : "_ZTIPi"
    }
   ],
   "return_type" : "_ZTIN3ndk13ScopedAStatusE",
   "source_file" : "out/soong/.intermediates/hardware/interfaces/gnss/aidl/android.hardware.gnss-V1-ndk_platform-source/gen/include/aidl/android/hardware/gnss/BnGnssMeasurementInterface.h"
  },
  {
   "function_name" : "aidl::android::hardware::gnss::BnGnssMeasurementInterface::BnGnssMeasurementInterface",
   "linker_set_key" : "_ZN4aidl7android8hardware4gnss26BnGnssMeasurementInterfaceC2Ev",
   "parameters" :
   [
    {
     "is_this_ptr" : true,
     "referenced_type" : "_ZTIPN4aidl7android8hardware4gnss26BnGnssMeasurementInterfaceE"
    }
   ],
   "return_type" : "_ZTIv",
   "source_file" : "out/soong/.intermediates/hardware/interfaces/gnss/aidl/android.hardware.gnss-V1-ndk_platform-source/gen/include/aidl/android/hardware/gnss/BnGnssMeasurementInterface.h"
  },
  {
   "function_name" : "aidl::android::hardware::gnss::BnGnssMeasurementInterface::~BnGnssMeasurementInterface",
   "linker_set_key" : "_ZN4aidl7android8hardware4gnss26BnGnssMeasurementInterfaceD0Ev",
   "parameters" :
   [
    {
     "is_this_ptr" : true,
     "referenced_type" : "_ZTIPN4aidl7android8hardware4gnss26BnGnssMeasurementInterfaceE"
    }
   ],
   "return_type" : "_ZTIv",
   "source_file" : "out/soong/.intermediates/hardware/interfaces/gnss/aidl/android.hardware.gnss-V1-ndk_platform-source/gen/include/aidl/android/hardware/gnss/BnGnssMeasurementInterface.h"
  },
  {
   "function_name" : "aidl::android::hardware::gnss::BnGnssMeasurementInterface::~BnGnssMeasurementInterface",
   "linker_set_key" : "_ZN4aidl7android8hardware4gnss26BnGnssMeasurementInterfaceD1Ev",
   "parameters" :
   [
    {
     "is_this_ptr" : true,
     "referenced_type" : "_ZTIPN4aidl7android8hardware4gnss26BnGnssMeasurementInterfaceE"
    }
   ],
   "return_type" : "_ZTIv",
   "source_file" : "out/soong/.intermediates/hardware/interfaces/gnss/aidl/android.hardware.gnss-V1-ndk_platform-source/gen/include/aidl/android/hardware/gnss/BnGnssMeasurementInterface.h"
  },
  {
   "function_name" : "aidl::android::hardware::gnss::BnGnssMeasurementInterface::~BnGnssMeasurementInterface",
   "linker_set_key" : "_ZN4aidl7android8hardware4gnss26BnGnssMeasurementInterfaceD2Ev",
   "parameters" :
   [
    {
     "is_this_ptr" : true,
     "referenced_type" : "_ZTIPN4aidl7android8hardware4gnss26BnGnssMeasurementInterfaceE"
    }
   ],
   "return_type" : "_ZTIv",
   "source_file" : "out/soong/.intermediates/hardware/interfaces/gnss/aidl/android.hardware.gnss-V1-ndk_platform-source/gen/include/aidl/android/hardware/gnss/BnGnssMeasurementInterface.h"
  },
  {
   "function_name" : "aidl::android::hardware::gnss::BpGnssMeasurementInterface::setCallback",
   "linker_set_key" : "_ZN4aidl7android8hardware4gnss26BpGnssMeasurementInterface11setCallbackERKNSt3__110shared_ptrINS2_24IGnssMeasurementCallbackEEEbb",
   "parameters" :
   [
    {
     "is_this_ptr" : true,
     "referenced_type" : "_ZTIPN4aidl7android8hardware4gnss26BpGnssMeasurementInterfaceE"
    },
    {
     "referenced_type" : "_ZTIRKNSt3__110shared_ptrIN4aidl7android8hardware4gnss24IGnssMeasurementCallbackEEE"
    },
    {
     "referenced_type" : "_ZTIb"
    },
    {
     "referenced_type" : "_ZTIb"
    }
   ],
   "return_type" : "_ZTIN3ndk13ScopedAStatusE",
   "source_file" : "out/soong/.intermediates/hardware/interfaces/gnss/aidl/android.hardware.gnss-V1-ndk_platform-source/gen/include/aidl/android/hardware/gnss/BpGnssMeasurementInterface.h"
  },
  {
   "function_name" : "aidl::android::hardware::gnss::BpGnssMeasurementInterface::getInterfaceHash",
   "linker_set_key" : "_ZN4aidl7android8hardware4gnss26BpGnssMeasurementInterface16getInterfaceHashEPNSt3__112basic_stringIcNS4_11char_traitsIcEENS4_9allocatorIcEEEE",
   "parameters" :
   [
    {
     "is_this_ptr" : true,
     "referenced_type" : "_ZTIPN4aidl7android8hardware4gnss26BpGnssMeasurementInterfaceE"
    },
    {
     "referenced_type" : "_ZTIPNSt3__112basic_stringIcNS_11char_traitsIcEENS_9allocatorIcEEEE"
    }
   ],
   "return_type" : "_ZTIN3ndk13ScopedAStatusE",
   "source_file" : "out/soong/.intermediates/hardware/interfaces/gnss/aidl/android.hardware.gnss-V1-ndk_platform-source/gen/include/aidl/android/hardware/gnss/BpGnssMeasurementInterface.h"
  },
  {
   "function_name" : "aidl::android::hardware::gnss::BpGnssMeasurementInterface::getInterfaceVersion",
   "linker_set_key" : "_ZN4aidl7android8hardware4gnss26BpGnssMeasurementInterface19getInterfaceVersionEPi",
   "parameters" :
   [
    {
     "is_this_ptr" : true,
     "referenced_type" : "_ZTIPN4aidl7android8hardware4gnss26BpGnssMeasurementInterfaceE"
    },
    {
     "referenced_type" : "_ZTIPi"
    }
   ],
   "return_type" : "_ZTIN3ndk13ScopedAStatusE",
   "source_file" : "out/soong/.intermediates/hardware/interfaces/gnss/aidl/android.hardware.gnss-V1-ndk_platform-source/gen/include/aidl/android/hardware/gnss/BpGnssMeasurementInterface.h"
  },
  {
   "function_name" : "aidl::android::hardware::gnss::BpGnssMeasurementInterface::close",
   "linker_set_key" : "_ZN4aidl7android8hardware4gnss26BpGnssMeasurementInterface5closeEv",
   "parameters" :
   [
    {
     "is_this_ptr" : true,
     "referenced_type" : "_ZTIPN4aidl7android8hardware4gnss26BpGnssMeasurementInterfaceE"
    }
   ],
   "return_type" : "_ZTIN3ndk13ScopedAStatusE",
   "source_file" : "out/soong/.intermediates/hardware/interfaces/gnss/aidl/android.hardware.gnss-V1-ndk_platform-source/gen/include/aidl/android/hardware/gnss/BpGnssMeasurementInterface.h"
  },
  {
   "function_name" : "aidl::android::hardware::gnss::BpGnssMeasurementInterface::BpGnssMeasurementInterface",
   "linker_set_key" : "_ZN4aidl7android8hardware4gnss26BpGnssMeasurementInterfaceC1ERKN3ndk10SpAIBinderE",
   "parameters" :
   [
    {
     "is_this_ptr" : true,
     "referenced_type" : "_ZTIPN4aidl7android8hardware4gnss26BpGnssMeasurementInterfaceE"
    },
    {
     "referenced_type" : "_ZTIRKN3ndk10SpAIBinderE"
    }
   ],
   "return_type" : "_ZTIv",
   "source_file" : "out/soong/.intermediates/hardware/interfaces/gnss/aidl/android.hardware.gnss-V1-ndk_platform-source/gen/include/aidl/android/hardware/gnss/BpGnssMeasurementInterface.h"
  },
  {
   "function_name" : "aidl::android::hardware::gnss::BpGnssMeasurementInterface::BpGnssMeasurementInterface",
   "linker_set_key" : "_ZN4aidl7android8hardware4gnss26BpGnssMeasurementInterfaceC2ERKN3ndk10SpAIBinderE",
   "parameters" :
   [
    {
     "is_this_ptr" : true,
     "referenced_type" : "_ZTIPN4aidl7android8hardware4gnss26BpGnssMeasurementInterfaceE"
    },
    {
     "referenced_type" : "_ZTIRKN3ndk10SpAIBinderE"
    }
   ],
   "return_type" : "_ZTIv",
   "source_file" : "out/soong/.intermediates/hardware/interfaces/gnss/aidl/android.hardware.gnss-V1-ndk_platform-source/gen/include/aidl/android/hardware/gnss/BpGnssMeasurementInterface.h"
  },
  {
   "function_name" : "aidl::android::hardware::gnss::BpGnssMeasurementInterface::~BpGnssMeasurementInterface",
   "linker_set_key" : "_ZN4aidl7android8hardware4gnss26BpGnssMeasurementInterfaceD0Ev",
   "parameters" :
   [
    {
     "is_this_ptr" : true,
     "referenced_type" : "_ZTIPN4aidl7android8hardware4gnss26BpGnssMeasurementInterfaceE"
    }
   ],
   "return_type" : "_ZTIv",
   "source_file" : "out/soong/.intermediates/hardware/interfaces/gnss/aidl/android.hardware.gnss-V1-ndk_platform-source/gen/include/aidl/android/hardware/gnss/BpGnssMeasurementInterface.h"
  },
  {
   "function_name" : "aidl::android::hardware::gnss::BpGnssMeasurementInterface::~BpGnssMeasurementInterface",
   "linker_set_key" : "_ZN4aidl7android8hardware4gnss26BpGnssMeasurementInterfaceD1Ev",
   "parameters" :
   [
    {
     "is_this_ptr" : true,
     "referenced_type" : "_ZTIPN4aidl7android8hardware4gnss26BpGnssMeasurementInterfaceE"
    }
   ],
   "return_type" : "_ZTIv",
   "source_file" : "out/soong/.intermediates/hardware/interfaces/gnss/aidl/android.hardware.gnss-V1-ndk_platform-source/gen/include/aidl/android/hardware/gnss/BpGnssMeasurementInterface.h"
  },
  {
   "function_name" : "aidl::android::hardware::gnss::BpGnssMeasurementInterface::~BpGnssMeasurementInterface",
   "linker_set_key" : "_ZN4aidl7android8hardware4gnss26BpGnssMeasurementInterfaceD2Ev",
   "parameters" :
   [
    {
     "is_this_ptr" : true,
     "referenced_type" : "_ZTIPN4aidl7android8hardware4gnss26BpGnssMeasurementInterfaceE"
    }
   ],
   "return_type" : "_ZTIv",
   "source_file" : "out/soong/.intermediates/hardware/interfaces/gnss/aidl/android.hardware.gnss-V1-ndk_platform-source/gen/include/aidl/android/hardware/gnss/BpGnssMeasurementInterface.h"
  },
  {
   "function_name" : "aidl::android::hardware::gnss::IGnssPowerIndicationDefault::setCallback",
   "linker_set_key" : "_ZN4aidl7android8hardware4gnss27IGnssPowerIndicationDefault11setCallbackERKNSt3__110shared_ptrINS2_28IGnssPowerIndicationCallbackEEE",
   "parameters" :
   [
    {
     "is_this_ptr" : true,
     "referenced_type" : "_ZTIPN4aidl7android8hardware4gnss27IGnssPowerIndicationDefaultE"
    },
    {
     "referenced_type" : "_ZTIRKNSt3__110shared_ptrIN4aidl7android8hardware4gnss28IGnssPowerIndicationCallbackEEE"
    }
   ],
   "return_type" : "_ZTIN3ndk13ScopedAStatusE",
   "source_file" : "out/soong/.intermediates/hardware/interfaces/gnss/aidl/android.hardware.gnss-V1-ndk_platform-source/gen/include/aidl/android/hardware/gnss/IGnssPowerIndication.h"
  },
  {
   "function_name" : "aidl::android::hardware::gnss::IGnssPowerIndicationDefault::getInterfaceHash",
   "linker_set_key" : "_ZN4aidl7android8hardware4gnss27IGnssPowerIndicationDefault16getInterfaceHashEPNSt3__112basic_stringIcNS4_11char_traitsIcEENS4_9allocatorIcEEEE",
   "parameters" :
   [
    {
     "is_this_ptr" : true,
     "referenced_type" : "_ZTIPN4aidl7android8hardware4gnss27IGnssPowerIndicationDefaultE"
    },
    {
     "referenced_type" : "_ZTIPNSt3__112basic_stringIcNS_11char_traitsIcEENS_9allocatorIcEEEE"
    }
   ],
   "return_type" : "_ZTIN3ndk13ScopedAStatusE",
   "source_file" : "out/soong/.intermediates/hardware/interfaces/gnss/aidl/android.hardware.gnss-V1-ndk_platform-source/gen/include/aidl/android/hardware/gnss/IGnssPowerIndication.h"
  },
  {
   "function_name" : "aidl::android::hardware::gnss::IGnssPowerIndicationDefault::getInterfaceVersion",
   "linker_set_key" : "_ZN4aidl7android8hardware4gnss27IGnssPowerIndicationDefault19getInterfaceVersionEPi",
   "parameters" :
   [
    {
     "is_this_ptr" : true,
     "referenced_type" : "_ZTIPN4aidl7android8hardware4gnss27IGnssPowerIndicationDefaultE"
    },
    {
     "referenced_type" : "_ZTIPi"
    }
   ],
   "return_type" : "_ZTIN3ndk13ScopedAStatusE",
   "source_file" : "out/soong/.intermediates/hardware/interfaces/gnss/aidl/android.hardware.gnss-V1-ndk_platform-source/gen/include/aidl/android/hardware/gnss/IGnssPowerIndication.h"
  },
  {
   "function_name" : "aidl::android::hardware::gnss::IGnssPowerIndicationDefault::requestGnssPowerStats",
   "linker_set_key" : "_ZN4aidl7android8hardware4gnss27IGnssPowerIndicationDefault21requestGnssPowerStatsEv",
   "parameters" :
   [
    {
     "is_this_ptr" : true,
     "referenced_type" : "_ZTIPN4aidl7android8hardware4gnss27IGnssPowerIndicationDefaultE"
    }
   ],
   "return_type" : "_ZTIN3ndk13ScopedAStatusE",
   "source_file" : "out/soong/.intermediates/hardware/interfaces/gnss/aidl/android.hardware.gnss-V1-ndk_platform-source/gen/include/aidl/android/hardware/gnss/IGnssPowerIndication.h"
  },
  {
   "function_name" : "aidl::android::hardware::gnss::IGnssPowerIndicationDefault::asBinder",
   "linker_set_key" : "_ZN4aidl7android8hardware4gnss27IGnssPowerIndicationDefault8asBinderEv",
   "parameters" :
   [
    {
     "is_this_ptr" : true,
     "referenced_type" : "_ZTIPN4aidl7android8hardware4gnss27IGnssPowerIndicationDefaultE"
    }
   ],
   "return_type" : "_ZTIN3ndk10SpAIBinderE",
   "source_file" : "out/soong/.intermediates/hardware/interfaces/gnss/aidl/android.hardware.gnss-V1-ndk_platform-source/gen/include/aidl/android/hardware/gnss/IGnssPowerIndication.h"
  },
  {
   "function_name" : "aidl::android::hardware::gnss::IGnssPowerIndicationDefault::isRemote",
   "linker_set_key" : "_ZN4aidl7android8hardware4gnss27IGnssPowerIndicationDefault8isRemoteEv",
   "parameters" :
   [
    {
     "is_this_ptr" : true,
     "referenced_type" : "_ZTIPN4aidl7android8hardware4gnss27IGnssPowerIndicationDefaultE"
    }
   ],
   "return_type" : "_ZTIb",
   "source_file" : "out/soong/.intermediates/hardware/interfaces/gnss/aidl/android.hardware.gnss-V1-ndk_platform-source/gen/include/aidl/android/hardware/gnss/IGnssPowerIndication.h"
  },
  {
   "function_name" : "aidl::android::hardware::gnss::IGnssPowerIndicationCallback::fromBinder",
   "linker_set_key" : "_ZN4aidl7android8hardware4gnss28IGnssPowerIndicationCallback10fromBinderERKN3ndk10SpAIBinderE",
   "parameters" :
   [
    {
     "referenced_type" : "_ZTIRKN3ndk10SpAIBinderE"
    }
   ],
   "return_type" : "_ZTINSt3__110shared_ptrIN4aidl7android8hardware4gnss28IGnssPowerIndicationCallbackEEE",
   "source_file" : "out/soong/.intermediates/hardware/interfaces/gnss/aidl/android.hardware.gnss-V1-ndk_platform-source/gen/include/aidl/android/hardware/gnss/IGnssPowerIndicationCallback.h"
  },
  {
   "function_name" : "aidl::android::hardware::gnss::IGnssPowerIndicationCallback::writeToParcel",
   "linker_set_key" : "_ZN4aidl7android8hardware4gnss28IGnssPowerIndicationCallback13writeToParcelEP7AParcelRKNSt3__110shared_ptrIS3_EE",
   "parameters" :
   [
    {
     "referenced_type" : "_ZTIP7AParcel"
    },
    {
     "referenced_type" : "_ZTIRKNSt3__110shared_ptrIN4aidl7android8hardware4gnss28IGnssPowerIndicationCallbackEEE"
    }
   ],
   "return_type" : "_ZTIi",
   "source_file" : "out/soong/.intermediates/hardware/interfaces/gnss/aidl/android.hardware.gnss-V1-ndk_platform-source/gen/include/aidl/android/hardware/gnss/IGnssPowerIndicationCallback.h"
  },
  {
   "function_name" : "aidl::android::hardware::gnss::IGnssPowerIndicationCallback::getDefaultImpl",
   "linker_set_key" : "_ZN4aidl7android8hardware4gnss28IGnssPowerIndicationCallback14getDefaultImplEv",
   "return_type" : "_ZTIRKNSt3__110shared_ptrIN4aidl7android8hardware4gnss28IGnssPowerIndicationCallbackEEE",
   "source_file" : "out/soong/.intermediates/hardware/interfaces/gnss/aidl/android.hardware.gnss-V1-ndk_platform-source/gen/include/aidl/android/hardware/gnss/IGnssPowerIndicationCallback.h"
  },
  {
   "function_name" : "aidl::android::hardware::gnss::IGnssPowerIndicationCallback::readFromParcel",
   "linker_set_key" : "_ZN4aidl7android8hardware4gnss28IGnssPowerIndicationCallback14readFromParcelEPK7AParcelPNSt3__110shared_ptrIS3_EE",
   "parameters" :
   [
    {
     "referenced_type" : "_ZTIPK7AParcel"
    },
    {
     "referenced_type" : "_ZTIPNSt3__110shared_ptrIN4aidl7android8hardware4gnss28IGnssPowerIndicationCallbackEEE"
    }
   ],
   "return_type" : "_ZTIi",
   "source_file" : "out/soong/.intermediates/hardware/interfaces/gnss/aidl/android.hardware.gnss-V1-ndk_platform-source/gen/include/aidl/android/hardware/gnss/IGnssPowerIndicationCallback.h"
  },
  {
   "function_name" : "aidl::android::hardware::gnss::IGnssPowerIndicationCallback::setDefaultImpl",
   "linker_set_key" : "_ZN4aidl7android8hardware4gnss28IGnssPowerIndicationCallback14setDefaultImplERKNSt3__110shared_ptrIS3_EE",
   "parameters" :
   [
    {
     "referenced_type" : "_ZTIRKNSt3__110shared_ptrIN4aidl7android8hardware4gnss28IGnssPowerIndicationCallbackEEE"
    }
   ],
   "return_type" : "_ZTIb",
   "source_file" : "out/soong/.intermediates/hardware/interfaces/gnss/aidl/android.hardware.gnss-V1-ndk_platform-source/gen/include/aidl/android/hardware/gnss/IGnssPowerIndicationCallback.h"
  },
  {
   "function_name" : "aidl::android::hardware::gnss::IGnssPowerIndicationCallback::IGnssPowerIndicationCallback",
   "linker_set_key" : "_ZN4aidl7android8hardware4gnss28IGnssPowerIndicationCallbackC2Ev",
   "parameters" :
   [
    {
     "is_this_ptr" : true,
     "referenced_type" : "_ZTIPN4aidl7android8hardware4gnss28IGnssPowerIndicationCallbackE"
    }
   ],
   "return_type" : "_ZTIv",
   "source_file" : "out/soong/.intermediates/hardware/interfaces/gnss/aidl/android.hardware.gnss-V1-ndk_platform-source/gen/include/aidl/android/hardware/gnss/IGnssPowerIndicationCallback.h"
  },
  {
   "function_name" : "aidl::android::hardware::gnss::IGnssPowerIndicationCallback::~IGnssPowerIndicationCallback",
   "linker_set_key" : "_ZN4aidl7android8hardware4gnss28IGnssPowerIndicationCallbackD0Ev",
   "parameters" :
   [
    {
     "is_this_ptr" : true,
     "referenced_type" : "_ZTIPN4aidl7android8hardware4gnss28IGnssPowerIndicationCallbackE"
    }
   ],
   "return_type" : "_ZTIv",
   "source_file" : "out/soong/.intermediates/hardware/interfaces/gnss/aidl/android.hardware.gnss-V1-ndk_platform-source/gen/include/aidl/android/hardware/gnss/IGnssPowerIndicationCallback.h"
  },
  {
   "function_name" : "aidl::android::hardware::gnss::IGnssPowerIndicationCallback::~IGnssPowerIndicationCallback",
   "linker_set_key" : "_ZN4aidl7android8hardware4gnss28IGnssPowerIndicationCallbackD1Ev",
   "parameters" :
   [
    {
     "is_this_ptr" : true,
     "referenced_type" : "_ZTIPN4aidl7android8hardware4gnss28IGnssPowerIndicationCallbackE"
    }
   ],
   "return_type" : "_ZTIv",
   "source_file" : "out/soong/.intermediates/hardware/interfaces/gnss/aidl/android.hardware.gnss-V1-ndk_platform-source/gen/include/aidl/android/hardware/gnss/IGnssPowerIndicationCallback.h"
  },
  {
   "function_name" : "aidl::android::hardware::gnss::IGnssPowerIndicationCallback::~IGnssPowerIndicationCallback",
   "linker_set_key" : "_ZN4aidl7android8hardware4gnss28IGnssPowerIndicationCallbackD2Ev",
   "parameters" :
   [
    {
     "is_this_ptr" : true,
     "referenced_type" : "_ZTIPN4aidl7android8hardware4gnss28IGnssPowerIndicationCallbackE"
    }
   ],
   "return_type" : "_ZTIv",
   "source_file" : "out/soong/.intermediates/hardware/interfaces/gnss/aidl/android.hardware.gnss-V1-ndk_platform-source/gen/include/aidl/android/hardware/gnss/IGnssPowerIndicationCallback.h"
  },
  {
   "access" : "protected",
   "function_name" : "aidl::android::hardware::gnss::BnGnssPowerIndicationCallback::createBinder",
   "linker_set_key" : "_ZN4aidl7android8hardware4gnss29BnGnssPowerIndicationCallback12createBinderEv",
   "parameters" :
   [
    {
     "is_this_ptr" : true,
     "referenced_type" : "_ZTIPN4aidl7android8hardware4gnss29BnGnssPowerIndicationCallbackE"
    }
   ],
   "return_type" : "_ZTIN3ndk10SpAIBinderE",
   "source_file" : "out/soong/.intermediates/hardware/interfaces/gnss/aidl/android.hardware.gnss-V1-ndk_platform-source/gen/include/aidl/android/hardware/gnss/BnGnssPowerIndicationCallback.h"
  },
  {
   "function_name" : "aidl::android::hardware::gnss::BnGnssPowerIndicationCallback::getInterfaceHash",
   "linker_set_key" : "_ZN4aidl7android8hardware4gnss29BnGnssPowerIndicationCallback16getInterfaceHashEPNSt3__112basic_stringIcNS4_11char_traitsIcEENS4_9allocatorIcEEEE",
   "parameters" :
   [
    {
     "is_this_ptr" : true,
     "referenced_type" : "_ZTIPN4aidl7android8hardware4gnss29BnGnssPowerIndicationCallbackE"
    },
    {
     "referenced_type" : "_ZTIPNSt3__112basic_stringIcNS_11char_traitsIcEENS_9allocatorIcEEEE"
    }
   ],
   "return_type" : "_ZTIN3ndk13ScopedAStatusE",
   "source_file" : "out/soong/.intermediates/hardware/interfaces/gnss/aidl/android.hardware.gnss-V1-ndk_platform-source/gen/include/aidl/android/hardware/gnss/BnGnssPowerIndicationCallback.h"
  },
  {
   "function_name" : "aidl::android::hardware::gnss::BnGnssPowerIndicationCallback::getInterfaceVersion",
   "linker_set_key" : "_ZN4aidl7android8hardware4gnss29BnGnssPowerIndicationCallback19getInterfaceVersionEPi",
   "parameters" :
   [
    {
     "is_this_ptr" : true,
     "referenced_type" : "_ZTIPN4aidl7android8hardware4gnss29BnGnssPowerIndicationCallbackE"
    },
    {
     "referenced_type" : "_ZTIPi"
    }
   ],
   "return_type" : "_ZTIN3ndk13ScopedAStatusE",
   "source_file" : "out/soong/.intermediates/hardware/interfaces/gnss/aidl/android.hardware.gnss-V1-ndk_platform-source/gen/include/aidl/android/hardware/gnss/BnGnssPowerIndicationCallback.h"
  },
  {
   "function_name" : "aidl::android::hardware::gnss::BnGnssPowerIndicationCallback::BnGnssPowerIndicationCallback",
   "linker_set_key" : "_ZN4aidl7android8hardware4gnss29BnGnssPowerIndicationCallbackC2Ev",
   "parameters" :
   [
    {
     "is_this_ptr" : true,
     "referenced_type" : "_ZTIPN4aidl7android8hardware4gnss29BnGnssPowerIndicationCallbackE"
    }
   ],
   "return_type" : "_ZTIv",
   "source_file" : "out/soong/.intermediates/hardware/interfaces/gnss/aidl/android.hardware.gnss-V1-ndk_platform-source/gen/include/aidl/android/hardware/gnss/BnGnssPowerIndicationCallback.h"
  },
  {
   "function_name" : "aidl::android::hardware::gnss::BnGnssPowerIndicationCallback::~BnGnssPowerIndicationCallback",
   "linker_set_key" : "_ZN4aidl7android8hardware4gnss29BnGnssPowerIndicationCallbackD0Ev",
   "parameters" :
   [
    {
     "is_this_ptr" : true,
     "referenced_type" : "_ZTIPN4aidl7android8hardware4gnss29BnGnssPowerIndicationCallbackE"
    }
   ],
   "return_type" : "_ZTIv",
   "source_file" : "out/soong/.intermediates/hardware/interfaces/gnss/aidl/android.hardware.gnss-V1-ndk_platform-source/gen/include/aidl/android/hardware/gnss/BnGnssPowerIndicationCallback.h"
  },
  {
   "function_name" : "aidl::android::hardware::gnss::BnGnssPowerIndicationCallback::~BnGnssPowerIndicationCallback",
   "linker_set_key" : "_ZN4aidl7android8hardware4gnss29BnGnssPowerIndicationCallbackD1Ev",
   "parameters" :
   [
    {
     "is_this_ptr" : true,
     "referenced_type" : "_ZTIPN4aidl7android8hardware4gnss29BnGnssPowerIndicationCallbackE"
    }
   ],
   "return_type" : "_ZTIv",
   "source_file" : "out/soong/.intermediates/hardware/interfaces/gnss/aidl/android.hardware.gnss-V1-ndk_platform-source/gen/include/aidl/android/hardware/gnss/BnGnssPowerIndicationCallback.h"
  },
  {
   "function_name" : "aidl::android::hardware::gnss::BnGnssPowerIndicationCallback::~BnGnssPowerIndicationCallback",
   "linker_set_key" : "_ZN4aidl7android8hardware4gnss29BnGnssPowerIndicationCallbackD2Ev",
   "parameters" :
   [
    {
     "is_this_ptr" : true,
     "referenced_type" : "_ZTIPN4aidl7android8hardware4gnss29BnGnssPowerIndicationCallbackE"
    }
   ],
   "return_type" : "_ZTIv",
   "source_file" : "out/soong/.intermediates/hardware/interfaces/gnss/aidl/android.hardware.gnss-V1-ndk_platform-source/gen/include/aidl/android/hardware/gnss/BnGnssPowerIndicationCallback.h"
  },
  {
   "function_name" : "aidl::android::hardware::gnss::BpGnssPowerIndicationCallback::getInterfaceHash",
   "linker_set_key" : "_ZN4aidl7android8hardware4gnss29BpGnssPowerIndicationCallback16getInterfaceHashEPNSt3__112basic_stringIcNS4_11char_traitsIcEENS4_9allocatorIcEEEE",
   "parameters" :
   [
    {
     "is_this_ptr" : true,
     "referenced_type" : "_ZTIPN4aidl7android8hardware4gnss29BpGnssPowerIndicationCallbackE"
    },
    {
     "referenced_type" : "_ZTIPNSt3__112basic_stringIcNS_11char_traitsIcEENS_9allocatorIcEEEE"
    }
   ],
   "return_type" : "_ZTIN3ndk13ScopedAStatusE",
   "source_file" : "out/soong/.intermediates/hardware/interfaces/gnss/aidl/android.hardware.gnss-V1-ndk_platform-source/gen/include/aidl/android/hardware/gnss/BpGnssPowerIndicationCallback.h"
  },
  {
   "function_name" : "aidl::android::hardware::gnss::BpGnssPowerIndicationCallback::gnssPowerStatsCb",
   "linker_set_key" : "_ZN4aidl7android8hardware4gnss29BpGnssPowerIndicationCallback16gnssPowerStatsCbERKNS2_14GnssPowerStatsE",
   "parameters" :
   [
    {
     "is_this_ptr" : true,
     "referenced_type" : "_ZTIPN4aidl7android8hardware4gnss29BpGnssPowerIndicationCallbackE"
    },
    {
     "referenced_type" : "_ZTIRKN4aidl7android8hardware4gnss14GnssPowerStatsE"
    }
   ],
   "return_type" : "_ZTIN3ndk13ScopedAStatusE",
   "source_file" : "out/soong/.intermediates/hardware/interfaces/gnss/aidl/android.hardware.gnss-V1-ndk_platform-source/gen/include/aidl/android/hardware/gnss/BpGnssPowerIndicationCallback.h"
  },
  {
   "function_name" : "aidl::android::hardware::gnss::BpGnssPowerIndicationCallback::setCapabilitiesCb",
   "linker_set_key" : "_ZN4aidl7android8hardware4gnss29BpGnssPowerIndicationCallback17setCapabilitiesCbEi",
   "parameters" :
   [
    {
     "is_this_ptr" : true,
     "referenced_type" : "_ZTIPN4aidl7android8hardware4gnss29BpGnssPowerIndicationCallbackE"
    },
    {
     "referenced_type" : "_ZTIi"
    }
   ],
   "return_type" : "_ZTIN3ndk13ScopedAStatusE",
   "source_file" : "out/soong/.intermediates/hardware/interfaces/gnss/aidl/android.hardware.gnss-V1-ndk_platform-source/gen/include/aidl/android/hardware/gnss/BpGnssPowerIndicationCallback.h"
  },
  {
   "function_name" : "aidl::android::hardware::gnss::BpGnssPowerIndicationCallback::getInterfaceVersion",
   "linker_set_key" : "_ZN4aidl7android8hardware4gnss29BpGnssPowerIndicationCallback19getInterfaceVersionEPi",
   "parameters" :
   [
    {
     "is_this_ptr" : true,
     "referenced_type" : "_ZTIPN4aidl7android8hardware4gnss29BpGnssPowerIndicationCallbackE"
    },
    {
     "referenced_type" : "_ZTIPi"
    }
   ],
   "return_type" : "_ZTIN3ndk13ScopedAStatusE",
   "source_file" : "out/soong/.intermediates/hardware/interfaces/gnss/aidl/android.hardware.gnss-V1-ndk_platform-source/gen/include/aidl/android/hardware/gnss/BpGnssPowerIndicationCallback.h"
  },
  {
   "function_name" : "aidl::android::hardware::gnss::BpGnssPowerIndicationCallback::BpGnssPowerIndicationCallback",
   "linker_set_key" : "_ZN4aidl7android8hardware4gnss29BpGnssPowerIndicationCallbackC1ERKN3ndk10SpAIBinderE",
   "parameters" :
   [
    {
     "is_this_ptr" : true,
     "referenced_type" : "_ZTIPN4aidl7android8hardware4gnss29BpGnssPowerIndicationCallbackE"
    },
    {
     "referenced_type" : "_ZTIRKN3ndk10SpAIBinderE"
    }
   ],
   "return_type" : "_ZTIv",
   "source_file" : "out/soong/.intermediates/hardware/interfaces/gnss/aidl/android.hardware.gnss-V1-ndk_platform-source/gen/include/aidl/android/hardware/gnss/BpGnssPowerIndicationCallback.h"
  },
  {
   "function_name" : "aidl::android::hardware::gnss::BpGnssPowerIndicationCallback::BpGnssPowerIndicationCallback",
   "linker_set_key" : "_ZN4aidl7android8hardware4gnss29BpGnssPowerIndicationCallbackC2ERKN3ndk10SpAIBinderE",
   "parameters" :
   [
    {
     "is_this_ptr" : true,
     "referenced_type" : "_ZTIPN4aidl7android8hardware4gnss29BpGnssPowerIndicationCallbackE"
    },
    {
     "referenced_type" : "_ZTIRKN3ndk10SpAIBinderE"
    }
   ],
   "return_type" : "_ZTIv",
   "source_file" : "out/soong/.intermediates/hardware/interfaces/gnss/aidl/android.hardware.gnss-V1-ndk_platform-source/gen/include/aidl/android/hardware/gnss/BpGnssPowerIndicationCallback.h"
  },
  {
   "function_name" : "aidl::android::hardware::gnss::BpGnssPowerIndicationCallback::~BpGnssPowerIndicationCallback",
   "linker_set_key" : "_ZN4aidl7android8hardware4gnss29BpGnssPowerIndicationCallbackD0Ev",
   "parameters" :
   [
    {
     "is_this_ptr" : true,
     "referenced_type" : "_ZTIPN4aidl7android8hardware4gnss29BpGnssPowerIndicationCallbackE"
    }
   ],
   "return_type" : "_ZTIv",
   "source_file" : "out/soong/.intermediates/hardware/interfaces/gnss/aidl/android.hardware.gnss-V1-ndk_platform-source/gen/include/aidl/android/hardware/gnss/BpGnssPowerIndicationCallback.h"
  },
  {
   "function_name" : "aidl::android::hardware::gnss::BpGnssPowerIndicationCallback::~BpGnssPowerIndicationCallback",
   "linker_set_key" : "_ZN4aidl7android8hardware4gnss29BpGnssPowerIndicationCallbackD1Ev",
   "parameters" :
   [
    {
     "is_this_ptr" : true,
     "referenced_type" : "_ZTIPN4aidl7android8hardware4gnss29BpGnssPowerIndicationCallbackE"
    }
   ],
   "return_type" : "_ZTIv",
   "source_file" : "out/soong/.intermediates/hardware/interfaces/gnss/aidl/android.hardware.gnss-V1-ndk_platform-source/gen/include/aidl/android/hardware/gnss/BpGnssPowerIndicationCallback.h"
  },
  {
   "function_name" : "aidl::android::hardware::gnss::BpGnssPowerIndicationCallback::~BpGnssPowerIndicationCallback",
   "linker_set_key" : "_ZN4aidl7android8hardware4gnss29BpGnssPowerIndicationCallbackD2Ev",
   "parameters" :
   [
    {
     "is_this_ptr" : true,
     "referenced_type" : "_ZTIPN4aidl7android8hardware4gnss29BpGnssPowerIndicationCallbackE"
    }
   ],
   "return_type" : "_ZTIv",
   "source_file" : "out/soong/.intermediates/hardware/interfaces/gnss/aidl/android.hardware.gnss-V1-ndk_platform-source/gen/include/aidl/android/hardware/gnss/BpGnssPowerIndicationCallback.h"
  },
  {
   "function_name" : "aidl::android::hardware::gnss::IGnssMeasurementCallbackDefault::getInterfaceHash",
   "linker_set_key" : "_ZN4aidl7android8hardware4gnss31IGnssMeasurementCallbackDefault16getInterfaceHashEPNSt3__112basic_stringIcNS4_11char_traitsIcEENS4_9allocatorIcEEEE",
   "parameters" :
   [
    {
     "is_this_ptr" : true,
     "referenced_type" : "_ZTIPN4aidl7android8hardware4gnss31IGnssMeasurementCallbackDefaultE"
    },
    {
     "referenced_type" : "_ZTIPNSt3__112basic_stringIcNS_11char_traitsIcEENS_9allocatorIcEEEE"
    }
   ],
   "return_type" : "_ZTIN3ndk13ScopedAStatusE",
   "source_file" : "out/soong/.intermediates/hardware/interfaces/gnss/aidl/android.hardware.gnss-V1-ndk_platform-source/gen/include/aidl/android/hardware/gnss/IGnssMeasurementCallback.h"
  },
  {
   "function_name" : "aidl::android::hardware::gnss::IGnssMeasurementCallbackDefault::gnssMeasurementCb",
   "linker_set_key" : "_ZN4aidl7android8hardware4gnss31IGnssMeasurementCallbackDefault17gnssMeasurementCbERKNS2_8GnssDataE",
   "parameters" :
   [
    {
     "is_this_ptr" : true,
     "referenced_type" : "_ZTIPN4aidl7android8hardware4gnss31IGnssMeasurementCallbackDefaultE"
    },
    {
     "referenced_type" : "_ZTIRKN4aidl7android8hardware4gnss8GnssDataE"
    }
   ],
   "return_type" : "_ZTIN3ndk13ScopedAStatusE",
   "source_file" : "out/soong/.intermediates/hardware/interfaces/gnss/aidl/android.hardware.gnss-V1-ndk_platform-source/gen/include/aidl/android/hardware/gnss/IGnssMeasurementCallback.h"
  },
  {
   "function_name" : "aidl::android::hardware::gnss::IGnssMeasurementCallbackDefault::getInterfaceVersion",
   "linker_set_key" : "_ZN4aidl7android8hardware4gnss31IGnssMeasurementCallbackDefault19getInterfaceVersionEPi",
   "parameters" :
   [
    {
     "is_this_ptr" : true,
     "referenced_type" : "_ZTIPN4aidl7android8hardware4gnss31IGnssMeasurementCallbackDefaultE"
    },
    {
     "referenced_type" : "_ZTIPi"
    }
   ],
   "return_type" : "_ZTIN3ndk13ScopedAStatusE",
   "source_file" : "out/soong/.intermediates/hardware/interfaces/gnss/aidl/android.hardware.gnss-V1-ndk_platform-source/gen/include/aidl/android/hardware/gnss/IGnssMeasurementCallback.h"
  },
  {
   "function_name" : "aidl::android::hardware::gnss::IGnssMeasurementCallbackDefault::asBinder",
   "linker_set_key" : "_ZN4aidl7android8hardware4gnss31IGnssMeasurementCallbackDefault8asBinderEv",
   "parameters" :
   [
    {
     "is_this_ptr" : true,
     "referenced_type" : "_ZTIPN4aidl7android8hardware4gnss31IGnssMeasurementCallbackDefaultE"
    }
   ],
   "return_type" : "_ZTIN3ndk10SpAIBinderE",
   "source_file" : "out/soong/.intermediates/hardware/interfaces/gnss/aidl/android.hardware.gnss-V1-ndk_platform-source/gen/include/aidl/android/hardware/gnss/IGnssMeasurementCallback.h"
  },
  {
   "function_name" : "aidl::android::hardware::gnss::IGnssMeasurementCallbackDefault::isRemote",
   "linker_set_key" : "_ZN4aidl7android8hardware4gnss31IGnssMeasurementCallbackDefault8isRemoteEv",
   "parameters" :
   [
    {
     "is_this_ptr" : true,
     "referenced_type" : "_ZTIPN4aidl7android8hardware4gnss31IGnssMeasurementCallbackDefaultE"
    }
   ],
   "return_type" : "_ZTIb",
   "source_file" : "out/soong/.intermediates/hardware/interfaces/gnss/aidl/android.hardware.gnss-V1-ndk_platform-source/gen/include/aidl/android/hardware/gnss/IGnssMeasurementCallback.h"
  },
  {
   "function_name" : "aidl::android::hardware::gnss::IGnssMeasurementInterfaceDefault::setCallback",
   "linker_set_key" : "_ZN4aidl7android8hardware4gnss32IGnssMeasurementInterfaceDefault11setCallbackERKNSt3__110shared_ptrINS2_24IGnssMeasurementCallbackEEEbb",
   "parameters" :
   [
    {
     "is_this_ptr" : true,
     "referenced_type" : "_ZTIPN4aidl7android8hardware4gnss32IGnssMeasurementInterfaceDefaultE"
    },
    {
     "referenced_type" : "_ZTIRKNSt3__110shared_ptrIN4aidl7android8hardware4gnss24IGnssMeasurementCallbackEEE"
    },
    {
     "referenced_type" : "_ZTIb"
    },
    {
     "referenced_type" : "_ZTIb"
    }
   ],
   "return_type" : "_ZTIN3ndk13ScopedAStatusE",
   "source_file" : "out/soong/.intermediates/hardware/interfaces/gnss/aidl/android.hardware.gnss-V1-ndk_platform-source/gen/include/aidl/android/hardware/gnss/IGnssMeasurementInterface.h"
  },
  {
   "function_name" : "aidl::android::hardware::gnss::IGnssMeasurementInterfaceDefault::getInterfaceHash",
   "linker_set_key" : "_ZN4aidl7android8hardware4gnss32IGnssMeasurementInterfaceDefault16getInterfaceHashEPNSt3__112basic_stringIcNS4_11char_traitsIcEENS4_9allocatorIcEEEE",
   "parameters" :
   [
    {
     "is_this_ptr" : true,
     "referenced_type" : "_ZTIPN4aidl7android8hardware4gnss32IGnssMeasurementInterfaceDefaultE"
    },
    {
     "referenced_type" : "_ZTIPNSt3__112basic_stringIcNS_11char_traitsIcEENS_9allocatorIcEEEE"
    }
   ],
   "return_type" : "_ZTIN3ndk13ScopedAStatusE",
   "source_file" : "out/soong/.intermediates/hardware/interfaces/gnss/aidl/android.hardware.gnss-V1-ndk_platform-source/gen/include/aidl/android/hardware/gnss/IGnssMeasurementInterface.h"
  },
  {
   "function_name" : "aidl::android::hardware::gnss::IGnssMeasurementInterfaceDefault::getInterfaceVersion",
   "linker_set_key" : "_ZN4aidl7android8hardware4gnss32IGnssMeasurementInterfaceDefault19getInterfaceVersionEPi",
   "parameters" :
   [
    {
     "is_this_ptr" : true,
     "referenced_type" : "_ZTIPN4aidl7android8hardware4gnss32IGnssMeasurementInterfaceDefaultE"
    },
    {
     "referenced_type" : "_ZTIPi"
    }
   ],
   "return_type" : "_ZTIN3ndk13ScopedAStatusE",
   "source_file" : "out/soong/.intermediates/hardware/interfaces/gnss/aidl/android.hardware.gnss-V1-ndk_platform-source/gen/include/aidl/android/hardware/gnss/IGnssMeasurementInterface.h"
  },
  {
   "function_name" : "aidl::android::hardware::gnss::IGnssMeasurementInterfaceDefault::close",
   "linker_set_key" : "_ZN4aidl7android8hardware4gnss32IGnssMeasurementInterfaceDefault5closeEv",
   "parameters" :
   [
    {
     "is_this_ptr" : true,
     "referenced_type" : "_ZTIPN4aidl7android8hardware4gnss32IGnssMeasurementInterfaceDefaultE"
    }
   ],
   "return_type" : "_ZTIN3ndk13ScopedAStatusE",
   "source_file" : "out/soong/.intermediates/hardware/interfaces/gnss/aidl/android.hardware.gnss-V1-ndk_platform-source/gen/include/aidl/android/hardware/gnss/IGnssMeasurementInterface.h"
  },
  {
   "function_name" : "aidl::android::hardware::gnss::IGnssMeasurementInterfaceDefault::asBinder",
   "linker_set_key" : "_ZN4aidl7android8hardware4gnss32IGnssMeasurementInterfaceDefault8asBinderEv",
   "parameters" :
   [
    {
     "is_this_ptr" : true,
     "referenced_type" : "_ZTIPN4aidl7android8hardware4gnss32IGnssMeasurementInterfaceDefaultE"
    }
   ],
   "return_type" : "_ZTIN3ndk10SpAIBinderE",
   "source_file" : "out/soong/.intermediates/hardware/interfaces/gnss/aidl/android.hardware.gnss-V1-ndk_platform-source/gen/include/aidl/android/hardware/gnss/IGnssMeasurementInterface.h"
  },
  {
   "function_name" : "aidl::android::hardware::gnss::IGnssMeasurementInterfaceDefault::isRemote",
   "linker_set_key" : "_ZN4aidl7android8hardware4gnss32IGnssMeasurementInterfaceDefault8isRemoteEv",
   "parameters" :
   [
    {
     "is_this_ptr" : true,
     "referenced_type" : "_ZTIPN4aidl7android8hardware4gnss32IGnssMeasurementInterfaceDefaultE"
    }
   ],
   "return_type" : "_ZTIb",
   "source_file" : "out/soong/.intermediates/hardware/interfaces/gnss/aidl/android.hardware.gnss-V1-ndk_platform-source/gen/include/aidl/android/hardware/gnss/IGnssMeasurementInterface.h"
  },
  {
   "function_name" : "aidl::android::hardware::gnss::IGnssPowerIndicationCallbackDefault::getInterfaceHash",
   "linker_set_key" : "_ZN4aidl7android8hardware4gnss35IGnssPowerIndicationCallbackDefault16getInterfaceHashEPNSt3__112basic_stringIcNS4_11char_traitsIcEENS4_9allocatorIcEEEE",
   "parameters" :
   [
    {
     "is_this_ptr" : true,
     "referenced_type" : "_ZTIPN4aidl7android8hardware4gnss35IGnssPowerIndicationCallbackDefaultE"
    },
    {
     "referenced_type" : "_ZTIPNSt3__112basic_stringIcNS_11char_traitsIcEENS_9allocatorIcEEEE"
    }
   ],
   "return_type" : "_ZTIN3ndk13ScopedAStatusE",
   "source_file" : "out/soong/.intermediates/hardware/interfaces/gnss/aidl/android.hardware.gnss-V1-ndk_platform-source/gen/include/aidl/android/hardware/gnss/IGnssPowerIndicationCallback.h"
  },
  {
   "function_name" : "aidl::android::hardware::gnss::IGnssPowerIndicationCallbackDefault::gnssPowerStatsCb",
   "linker_set_key" : "_ZN4aidl7android8hardware4gnss35IGnssPowerIndicationCallbackDefault16gnssPowerStatsCbERKNS2_14GnssPowerStatsE",
   "parameters" :
   [
    {
     "is_this_ptr" : true,
     "referenced_type" : "_ZTIPN4aidl7android8hardware4gnss35IGnssPowerIndicationCallbackDefaultE"
    },
    {
     "referenced_type" : "_ZTIRKN4aidl7android8hardware4gnss14GnssPowerStatsE"
    }
   ],
   "return_type" : "_ZTIN3ndk13ScopedAStatusE",
   "source_file" : "out/soong/.intermediates/hardware/interfaces/gnss/aidl/android.hardware.gnss-V1-ndk_platform-source/gen/include/aidl/android/hardware/gnss/IGnssPowerIndicationCallback.h"
  },
  {
   "function_name" : "aidl::android::hardware::gnss::IGnssPowerIndicationCallbackDefault::setCapabilitiesCb",
   "linker_set_key" : "_ZN4aidl7android8hardware4gnss35IGnssPowerIndicationCallbackDefault17setCapabilitiesCbEi",
   "parameters" :
   [
    {
     "is_this_ptr" : true,
     "referenced_type" : "_ZTIPN4aidl7android8hardware4gnss35IGnssPowerIndicationCallbackDefaultE"
    },
    {
     "referenced_type" : "_ZTIi"
    }
   ],
   "return_type" : "_ZTIN3ndk13ScopedAStatusE",
   "source_file" : "out/soong/.intermediates/hardware/interfaces/gnss/aidl/android.hardware.gnss-V1-ndk_platform-source/gen/include/aidl/android/hardware/gnss/IGnssPowerIndicationCallback.h"
  },
  {
   "function_name" : "aidl::android::hardware::gnss::IGnssPowerIndicationCallbackDefault::getInterfaceVersion",
   "linker_set_key" : "_ZN4aidl7android8hardware4gnss35IGnssPowerIndicationCallbackDefault19getInterfaceVersionEPi",
   "parameters" :
   [
    {
     "is_this_ptr" : true,
     "referenced_type" : "_ZTIPN4aidl7android8hardware4gnss35IGnssPowerIndicationCallbackDefaultE"
    },
    {
     "referenced_type" : "_ZTIPi"
    }
   ],
   "return_type" : "_ZTIN3ndk13ScopedAStatusE",
   "source_file" : "out/soong/.intermediates/hardware/interfaces/gnss/aidl/android.hardware.gnss-V1-ndk_platform-source/gen/include/aidl/android/hardware/gnss/IGnssPowerIndicationCallback.h"
  },
  {
   "function_name" : "aidl::android::hardware::gnss::IGnssPowerIndicationCallbackDefault::asBinder",
   "linker_set_key" : "_ZN4aidl7android8hardware4gnss35IGnssPowerIndicationCallbackDefault8asBinderEv",
   "parameters" :
   [
    {
     "is_this_ptr" : true,
     "referenced_type" : "_ZTIPN4aidl7android8hardware4gnss35IGnssPowerIndicationCallbackDefaultE"
    }
   ],
   "return_type" : "_ZTIN3ndk10SpAIBinderE",
   "source_file" : "out/soong/.intermediates/hardware/interfaces/gnss/aidl/android.hardware.gnss-V1-ndk_platform-source/gen/include/aidl/android/hardware/gnss/IGnssPowerIndicationCallback.h"
  },
  {
   "function_name" : "aidl::android::hardware::gnss::IGnssPowerIndicationCallbackDefault::isRemote",
   "linker_set_key" : "_ZN4aidl7android8hardware4gnss35IGnssPowerIndicationCallbackDefault8isRemoteEv",
   "parameters" :
   [
    {
     "is_this_ptr" : true,
     "referenced_type" : "_ZTIPN4aidl7android8hardware4gnss35IGnssPowerIndicationCallbackDefaultE"
    }
   ],
   "return_type" : "_ZTIb",
   "source_file" : "out/soong/.intermediates/hardware/interfaces/gnss/aidl/android.hardware.gnss-V1-ndk_platform-source/gen/include/aidl/android/hardware/gnss/IGnssPowerIndicationCallback.h"
  },
  {
   "function_name" : "aidl::android::hardware::gnss::IGnss::fromBinder",
   "linker_set_key" : "_ZN4aidl7android8hardware4gnss5IGnss10fromBinderERKN3ndk10SpAIBinderE",
   "parameters" :
   [
    {
     "referenced_type" : "_ZTIRKN3ndk10SpAIBinderE"
    }
   ],
   "return_type" : "_ZTINSt3__110shared_ptrIN4aidl7android8hardware4gnss5IGnssEEE",
   "source_file" : "out/soong/.intermediates/hardware/interfaces/gnss/aidl/android.hardware.gnss-V1-ndk_platform-source/gen/include/aidl/android/hardware/gnss/IGnss.h"
  },
  {
   "function_name" : "aidl::android::hardware::gnss::IGnss::writeToParcel",
   "linker_set_key" : "_ZN4aidl7android8hardware4gnss5IGnss13writeToParcelEP7AParcelRKNSt3__110shared_ptrIS3_EE",
   "parameters" :
   [
    {
     "referenced_type" : "_ZTIP7AParcel"
    },
    {
     "referenced_type" : "_ZTIRKNSt3__110shared_ptrIN4aidl7android8hardware4gnss5IGnssEEE"
    }
   ],
   "return_type" : "_ZTIi",
   "source_file" : "out/soong/.intermediates/hardware/interfaces/gnss/aidl/android.hardware.gnss-V1-ndk_platform-source/gen/include/aidl/android/hardware/gnss/IGnss.h"
  },
  {
   "function_name" : "aidl::android::hardware::gnss::IGnss::getDefaultImpl",
   "linker_set_key" : "_ZN4aidl7android8hardware4gnss5IGnss14getDefaultImplEv",
   "return_type" : "_ZTIRKNSt3__110shared_ptrIN4aidl7android8hardware4gnss5IGnssEEE",
   "source_file" : "out/soong/.intermediates/hardware/interfaces/gnss/aidl/android.hardware.gnss-V1-ndk_platform-source/gen/include/aidl/android/hardware/gnss/IGnss.h"
  },
  {
   "function_name" : "aidl::android::hardware::gnss::IGnss::readFromParcel",
   "linker_set_key" : "_ZN4aidl7android8hardware4gnss5IGnss14readFromParcelEPK7AParcelPNSt3__110shared_ptrIS3_EE",
   "parameters" :
   [
    {
     "referenced_type" : "_ZTIPK7AParcel"
    },
    {
     "referenced_type" : "_ZTIPNSt3__110shared_ptrIN4aidl7android8hardware4gnss5IGnssEEE"
    }
   ],
   "return_type" : "_ZTIi",
   "source_file" : "out/soong/.intermediates/hardware/interfaces/gnss/aidl/android.hardware.gnss-V1-ndk_platform-source/gen/include/aidl/android/hardware/gnss/IGnss.h"
  },
  {
   "function_name" : "aidl::android::hardware::gnss::IGnss::setDefaultImpl",
   "linker_set_key" : "_ZN4aidl7android8hardware4gnss5IGnss14setDefaultImplERKNSt3__110shared_ptrIS3_EE",
   "parameters" :
   [
    {
     "referenced_type" : "_ZTIRKNSt3__110shared_ptrIN4aidl7android8hardware4gnss5IGnssEEE"
    }
   ],
   "return_type" : "_ZTIb",
   "source_file" : "out/soong/.intermediates/hardware/interfaces/gnss/aidl/android.hardware.gnss-V1-ndk_platform-source/gen/include/aidl/android/hardware/gnss/IGnss.h"
  },
  {
   "function_name" : "aidl::android::hardware::gnss::IGnss::IGnss",
   "linker_set_key" : "_ZN4aidl7android8hardware4gnss5IGnssC2Ev",
   "parameters" :
   [
    {
     "is_this_ptr" : true,
     "referenced_type" : "_ZTIPN4aidl7android8hardware4gnss5IGnssE"
    }
   ],
   "return_type" : "_ZTIv",
   "source_file" : "out/soong/.intermediates/hardware/interfaces/gnss/aidl/android.hardware.gnss-V1-ndk_platform-source/gen/include/aidl/android/hardware/gnss/IGnss.h"
  },
  {
   "function_name" : "aidl::android::hardware::gnss::IGnss::~IGnss",
   "linker_set_key" : "_ZN4aidl7android8hardware4gnss5IGnssD0Ev",
   "parameters" :
   [
    {
     "is_this_ptr" : true,
     "referenced_type" : "_ZTIPN4aidl7android8hardware4gnss5IGnssE"
    }
   ],
   "return_type" : "_ZTIv",
   "source_file" : "out/soong/.intermediates/hardware/interfaces/gnss/aidl/android.hardware.gnss-V1-ndk_platform-source/gen/include/aidl/android/hardware/gnss/IGnss.h"
  },
  {
   "function_name" : "aidl::android::hardware::gnss::IGnss::~IGnss",
   "linker_set_key" : "_ZN4aidl7android8hardware4gnss5IGnssD1Ev",
   "parameters" :
   [
    {
     "is_this_ptr" : true,
     "referenced_type" : "_ZTIPN4aidl7android8hardware4gnss5IGnssE"
    }
   ],
   "return_type" : "_ZTIv",
   "source_file" : "out/soong/.intermediates/hardware/interfaces/gnss/aidl/android.hardware.gnss-V1-ndk_platform-source/gen/include/aidl/android/hardware/gnss/IGnss.h"
  },
  {
   "function_name" : "aidl::android::hardware::gnss::IGnss::~IGnss",
   "linker_set_key" : "_ZN4aidl7android8hardware4gnss5IGnssD2Ev",
   "parameters" :
   [
    {
     "is_this_ptr" : true,
     "referenced_type" : "_ZTIPN4aidl7android8hardware4gnss5IGnssE"
    }
   ],
   "return_type" : "_ZTIv",
   "source_file" : "out/soong/.intermediates/hardware/interfaces/gnss/aidl/android.hardware.gnss-V1-ndk_platform-source/gen/include/aidl/android/hardware/gnss/IGnss.h"
  },
  {
   "access" : "protected",
   "function_name" : "aidl::android::hardware::gnss::BnGnss::createBinder",
   "linker_set_key" : "_ZN4aidl7android8hardware4gnss6BnGnss12createBinderEv",
   "parameters" :
   [
    {
     "is_this_ptr" : true,
     "referenced_type" : "_ZTIPN4aidl7android8hardware4gnss6BnGnssE"
    }
   ],
   "return_type" : "_ZTIN3ndk10SpAIBinderE",
   "source_file" : "out/soong/.intermediates/hardware/interfaces/gnss/aidl/android.hardware.gnss-V1-ndk_platform-source/gen/include/aidl/android/hardware/gnss/BnGnss.h"
  },
  {
   "function_name" : "aidl::android::hardware::gnss::BnGnss::getInterfaceHash",
   "linker_set_key" : "_ZN4aidl7android8hardware4gnss6BnGnss16getInterfaceHashEPNSt3__112basic_stringIcNS4_11char_traitsIcEENS4_9allocatorIcEEEE",
   "parameters" :
   [
    {
     "is_this_ptr" : true,
     "referenced_type" : "_ZTIPN4aidl7android8hardware4gnss6BnGnssE"
    },
    {
     "referenced_type" : "_ZTIPNSt3__112basic_stringIcNS_11char_traitsIcEENS_9allocatorIcEEEE"
    }
   ],
   "return_type" : "_ZTIN3ndk13ScopedAStatusE",
   "source_file" : "out/soong/.intermediates/hardware/interfaces/gnss/aidl/android.hardware.gnss-V1-ndk_platform-source/gen/include/aidl/android/hardware/gnss/BnGnss.h"
  },
  {
   "function_name" : "aidl::android::hardware::gnss::BnGnss::getInterfaceVersion",
   "linker_set_key" : "_ZN4aidl7android8hardware4gnss6BnGnss19getInterfaceVersionEPi",
   "parameters" :
   [
    {
     "is_this_ptr" : true,
     "referenced_type" : "_ZTIPN4aidl7android8hardware4gnss6BnGnssE"
    },
    {
     "referenced_type" : "_ZTIPi"
    }
   ],
   "return_type" : "_ZTIN3ndk13ScopedAStatusE",
   "source_file" : "out/soong/.intermediates/hardware/interfaces/gnss/aidl/android.hardware.gnss-V1-ndk_platform-source/gen/include/aidl/android/hardware/gnss/BnGnss.h"
  },
  {
   "function_name" : "aidl::android::hardware::gnss::BnGnss::BnGnss",
   "linker_set_key" : "_ZN4aidl7android8hardware4gnss6BnGnssC2Ev",
   "parameters" :
   [
    {
     "is_this_ptr" : true,
     "referenced_type" : "_ZTIPN4aidl7android8hardware4gnss6BnGnssE"
    }
   ],
   "return_type" : "_ZTIv",
   "source_file" : "out/soong/.intermediates/hardware/interfaces/gnss/aidl/android.hardware.gnss-V1-ndk_platform-source/gen/include/aidl/android/hardware/gnss/BnGnss.h"
  },
  {
   "function_name" : "aidl::android::hardware::gnss::BnGnss::~BnGnss",
   "linker_set_key" : "_ZN4aidl7android8hardware4gnss6BnGnssD0Ev",
   "parameters" :
   [
    {
     "is_this_ptr" : true,
     "referenced_type" : "_ZTIPN4aidl7android8hardware4gnss6BnGnssE"
    }
   ],
   "return_type" : "_ZTIv",
   "source_file" : "out/soong/.intermediates/hardware/interfaces/gnss/aidl/android.hardware.gnss-V1-ndk_platform-source/gen/include/aidl/android/hardware/gnss/BnGnss.h"
  },
  {
   "function_name" : "aidl::android::hardware::gnss::BnGnss::~BnGnss",
   "linker_set_key" : "_ZN4aidl7android8hardware4gnss6BnGnssD1Ev",
   "parameters" :
   [
    {
     "is_this_ptr" : true,
     "referenced_type" : "_ZTIPN4aidl7android8hardware4gnss6BnGnssE"
    }
   ],
   "return_type" : "_ZTIv",
   "source_file" : "out/soong/.intermediates/hardware/interfaces/gnss/aidl/android.hardware.gnss-V1-ndk_platform-source/gen/include/aidl/android/hardware/gnss/BnGnss.h"
  },
  {
   "function_name" : "aidl::android::hardware::gnss::BnGnss::~BnGnss",
   "linker_set_key" : "_ZN4aidl7android8hardware4gnss6BnGnssD2Ev",
   "parameters" :
   [
    {
     "is_this_ptr" : true,
     "referenced_type" : "_ZTIPN4aidl7android8hardware4gnss6BnGnssE"
    }
   ],
   "return_type" : "_ZTIv",
   "source_file" : "out/soong/.intermediates/hardware/interfaces/gnss/aidl/android.hardware.gnss-V1-ndk_platform-source/gen/include/aidl/android/hardware/gnss/BnGnss.h"
  },
  {
   "function_name" : "aidl::android::hardware::gnss::BpGnss::setCallback",
   "linker_set_key" : "_ZN4aidl7android8hardware4gnss6BpGnss11setCallbackERKNSt3__110shared_ptrINS2_13IGnssCallbackEEE",
   "parameters" :
   [
    {
     "is_this_ptr" : true,
     "referenced_type" : "_ZTIPN4aidl7android8hardware4gnss6BpGnssE"
    },
    {
     "referenced_type" : "_ZTIRKNSt3__110shared_ptrIN4aidl7android8hardware4gnss13IGnssCallbackEEE"
    }
   ],
   "return_type" : "_ZTIN3ndk13ScopedAStatusE",
   "source_file" : "out/soong/.intermediates/hardware/interfaces/gnss/aidl/android.hardware.gnss-V1-ndk_platform-source/gen/include/aidl/android/hardware/gnss/BpGnss.h"
  },
  {
   "function_name" : "aidl::android::hardware::gnss::BpGnss::getExtensionPsds",
   "linker_set_key" : "_ZN4aidl7android8hardware4gnss6BpGnss16getExtensionPsdsEPNSt3__110shared_ptrINS2_9IGnssPsdsEEE",
   "parameters" :
   [
    {
     "is_this_ptr" : true,
     "referenced_type" : "_ZTIPN4aidl7android8hardware4gnss6BpGnssE"
    },
    {
     "referenced_type" : "_ZTIPNSt3__110shared_ptrIN4aidl7android8hardware4gnss9IGnssPsdsEEE"
    }
   ],
   "return_type" : "_ZTIN3ndk13ScopedAStatusE",
   "source_file" : "out/soong/.intermediates/hardware/interfaces/gnss/aidl/android.hardware.gnss-V1-ndk_platform-source/gen/include/aidl/android/hardware/gnss/BpGnss.h"
  },
  {
   "function_name" : "aidl::android::hardware::gnss::BpGnss::getInterfaceHash",
   "linker_set_key" : "_ZN4aidl7android8hardware4gnss6BpGnss16getInterfaceHashEPNSt3__112basic_stringIcNS4_11char_traitsIcEENS4_9allocatorIcEEEE",
   "parameters" :
   [
    {
     "is_this_ptr" : true,
     "referenced_type" : "_ZTIPN4aidl7android8hardware4gnss6BpGnssE"
    },
    {
     "referenced_type" : "_ZTIPNSt3__112basic_stringIcNS_11char_traitsIcEENS_9allocatorIcEEEE"
    }
   ],
   "return_type" : "_ZTIN3ndk13ScopedAStatusE",
   "source_file" : "out/soong/.intermediates/hardware/interfaces/gnss/aidl/android.hardware.gnss-V1-ndk_platform-source/gen/include/aidl/android/hardware/gnss/BpGnss.h"
  },
  {
   "function_name" : "aidl::android::hardware::gnss::BpGnss::getInterfaceVersion",
   "linker_set_key" : "_ZN4aidl7android8hardware4gnss6BpGnss19getInterfaceVersionEPi",
   "parameters" :
   [
    {
     "is_this_ptr" : true,
     "referenced_type" : "_ZTIPN4aidl7android8hardware4gnss6BpGnssE"
    },
    {
     "referenced_type" : "_ZTIPi"
    }
   ],
   "return_type" : "_ZTIN3ndk13ScopedAStatusE",
   "source_file" : "out/soong/.intermediates/hardware/interfaces/gnss/aidl/android.hardware.gnss-V1-ndk_platform-source/gen/include/aidl/android/hardware/gnss/BpGnss.h"
  },
  {
   "function_name" : "aidl::android::hardware::gnss::BpGnss::getExtensionGnssMeasurement",
   "linker_set_key" : "_ZN4aidl7android8hardware4gnss6BpGnss27getExtensionGnssMeasurementEPNSt3__110shared_ptrINS2_25IGnssMeasurementInterfaceEEE",
   "parameters" :
   [
    {
     "is_this_ptr" : true,
     "referenced_type" : "_ZTIPN4aidl7android8hardware4gnss6BpGnssE"
    },
    {
     "referenced_type" : "_ZTIPNSt3__110shared_ptrIN4aidl7android8hardware4gnss25IGnssMeasurementInterfaceEEE"
    }
   ],
   "return_type" : "_ZTIN3ndk13ScopedAStatusE",
   "source_file" : "out/soong/.intermediates/hardware/interfaces/gnss/aidl/android.hardware.gnss-V1-ndk_platform-source/gen/include/aidl/android/hardware/gnss/BpGnss.h"
  },
  {
   "function_name" : "aidl::android::hardware::gnss::BpGnss::getExtensionGnssConfiguration",
   "linker_set_key" : "_ZN4aidl7android8hardware4gnss6BpGnss29getExtensionGnssConfigurationEPNSt3__110shared_ptrINS2_18IGnssConfigurationEEE",
   "parameters" :
   [
    {
     "is_this_ptr" : true,
     "referenced_type" : "_ZTIPN4aidl7android8hardware4gnss6BpGnssE"
    },
    {
     "referenced_type" : "_ZTIPNSt3__110shared_ptrIN4aidl7android8hardware4gnss18IGnssConfigurationEEE"
    }
   ],
   "return_type" : "_ZTIN3ndk13ScopedAStatusE",
   "source_file" : "out/soong/.intermediates/hardware/interfaces/gnss/aidl/android.hardware.gnss-V1-ndk_platform-source/gen/include/aidl/android/hardware/gnss/BpGnss.h"
  },
  {
   "function_name" : "aidl::android::hardware::gnss::BpGnss::getExtensionGnssPowerIndication",
   "linker_set_key" : "_ZN4aidl7android8hardware4gnss6BpGnss31getExtensionGnssPowerIndicationEPNSt3__110shared_ptrINS2_20IGnssPowerIndicationEEE",
   "parameters" :
   [
    {
     "is_this_ptr" : true,
     "referenced_type" : "_ZTIPN4aidl7android8hardware4gnss6BpGnssE"
    },
    {
     "referenced_type" : "_ZTIPNSt3__110shared_ptrIN4aidl7android8hardware4gnss20IGnssPowerIndicationEEE"
    }
   ],
   "return_type" : "_ZTIN3ndk13ScopedAStatusE",
   "source_file" : "out/soong/.intermediates/hardware/interfaces/gnss/aidl/android.hardware.gnss-V1-ndk_platform-source/gen/include/aidl/android/hardware/gnss/BpGnss.h"
  },
  {
   "function_name" : "aidl::android::hardware::gnss::BpGnss::close",
   "linker_set_key" : "_ZN4aidl7android8hardware4gnss6BpGnss5closeEv",
   "parameters" :
   [
    {
     "is_this_ptr" : true,
     "referenced_type" : "_ZTIPN4aidl7android8hardware4gnss6BpGnssE"
    }
   ],
   "return_type" : "_ZTIN3ndk13ScopedAStatusE",
   "source_file" : "out/soong/.intermediates/hardware/interfaces/gnss/aidl/android.hardware.gnss-V1-ndk_platform-source/gen/include/aidl/android/hardware/gnss/BpGnss.h"
  },
  {
   "function_name" : "aidl::android::hardware::gnss::BpGnss::BpGnss",
   "linker_set_key" : "_ZN4aidl7android8hardware4gnss6BpGnssC1ERKN3ndk10SpAIBinderE",
   "parameters" :
   [
    {
     "is_this_ptr" : true,
     "referenced_type" : "_ZTIPN4aidl7android8hardware4gnss6BpGnssE"
    },
    {
     "referenced_type" : "_ZTIRKN3ndk10SpAIBinderE"
    }
   ],
   "return_type" : "_ZTIv",
   "source_file" : "out/soong/.intermediates/hardware/interfaces/gnss/aidl/android.hardware.gnss-V1-ndk_platform-source/gen/include/aidl/android/hardware/gnss/BpGnss.h"
  },
  {
   "function_name" : "aidl::android::hardware::gnss::BpGnss::BpGnss",
   "linker_set_key" : "_ZN4aidl7android8hardware4gnss6BpGnssC2ERKN3ndk10SpAIBinderE",
   "parameters" :
   [
    {
     "is_this_ptr" : true,
     "referenced_type" : "_ZTIPN4aidl7android8hardware4gnss6BpGnssE"
    },
    {
     "referenced_type" : "_ZTIRKN3ndk10SpAIBinderE"
    }
   ],
   "return_type" : "_ZTIv",
   "source_file" : "out/soong/.intermediates/hardware/interfaces/gnss/aidl/android.hardware.gnss-V1-ndk_platform-source/gen/include/aidl/android/hardware/gnss/BpGnss.h"
  },
  {
   "function_name" : "aidl::android::hardware::gnss::BpGnss::~BpGnss",
   "linker_set_key" : "_ZN4aidl7android8hardware4gnss6BpGnssD0Ev",
   "parameters" :
   [
    {
     "is_this_ptr" : true,
     "referenced_type" : "_ZTIPN4aidl7android8hardware4gnss6BpGnssE"
    }
   ],
   "return_type" : "_ZTIv",
   "source_file" : "out/soong/.intermediates/hardware/interfaces/gnss/aidl/android.hardware.gnss-V1-ndk_platform-source/gen/include/aidl/android/hardware/gnss/BpGnss.h"
  },
  {
   "function_name" : "aidl::android::hardware::gnss::BpGnss::~BpGnss",
   "linker_set_key" : "_ZN4aidl7android8hardware4gnss6BpGnssD1Ev",
   "parameters" :
   [
    {
     "is_this_ptr" : true,
     "referenced_type" : "_ZTIPN4aidl7android8hardware4gnss6BpGnssE"
    }
   ],
   "return_type" : "_ZTIv",
   "source_file" : "out/soong/.intermediates/hardware/interfaces/gnss/aidl/android.hardware.gnss-V1-ndk_platform-source/gen/include/aidl/android/hardware/gnss/BpGnss.h"
  },
  {
   "function_name" : "aidl::android::hardware::gnss::BpGnss::~BpGnss",
   "linker_set_key" : "_ZN4aidl7android8hardware4gnss6BpGnssD2Ev",
   "parameters" :
   [
    {
     "is_this_ptr" : true,
     "referenced_type" : "_ZTIPN4aidl7android8hardware4gnss6BpGnssE"
    }
   ],
   "return_type" : "_ZTIv",
   "source_file" : "out/soong/.intermediates/hardware/interfaces/gnss/aidl/android.hardware.gnss-V1-ndk_platform-source/gen/include/aidl/android/hardware/gnss/BpGnss.h"
  },
  {
   "function_name" : "aidl::android::hardware::gnss::GnssData::readFromParcel",
   "linker_set_key" : "_ZN4aidl7android8hardware4gnss8GnssData14readFromParcelEPK7AParcel",
   "parameters" :
   [
    {
     "is_this_ptr" : true,
     "referenced_type" : "_ZTIPN4aidl7android8hardware4gnss8GnssDataE"
    },
    {
     "referenced_type" : "_ZTIPK7AParcel"
    }
   ],
   "return_type" : "_ZTIi",
   "source_file" : "out/soong/.intermediates/hardware/interfaces/gnss/aidl/android.hardware.gnss-V1-ndk_platform-source/gen/include/aidl/android/hardware/gnss/GnssData.h"
  },
  {
   "function_name" : "aidl::android::hardware::gnss::GnssClock::readFromParcel",
   "linker_set_key" : "_ZN4aidl7android8hardware4gnss9GnssClock14readFromParcelEPK7AParcel",
   "parameters" :
   [
    {
     "is_this_ptr" : true,
     "referenced_type" : "_ZTIPN4aidl7android8hardware4gnss9GnssClockE"
    },
    {
     "referenced_type" : "_ZTIPK7AParcel"
    }
   ],
   "return_type" : "_ZTIi",
   "source_file" : "out/soong/.intermediates/hardware/interfaces/gnss/aidl/android.hardware.gnss-V1-ndk_platform-source/gen/include/aidl/android/hardware/gnss/GnssClock.h"
  },
  {
   "function_name" : "aidl::android::hardware::gnss::IGnssPsds::fromBinder",
   "linker_set_key" : "_ZN4aidl7android8hardware4gnss9IGnssPsds10fromBinderERKN3ndk10SpAIBinderE",
   "parameters" :
   [
    {
     "referenced_type" : "_ZTIRKN3ndk10SpAIBinderE"
    }
   ],
   "return_type" : "_ZTINSt3__110shared_ptrIN4aidl7android8hardware4gnss9IGnssPsdsEEE",
   "source_file" : "out/soong/.intermediates/hardware/interfaces/gnss/aidl/android.hardware.gnss-V1-ndk_platform-source/gen/include/aidl/android/hardware/gnss/IGnssPsds.h"
  },
  {
   "function_name" : "aidl::android::hardware::gnss::IGnssPsds::writeToParcel",
   "linker_set_key" : "_ZN4aidl7android8hardware4gnss9IGnssPsds13writeToParcelEP7AParcelRKNSt3__110shared_ptrIS3_EE",
   "parameters" :
   [
    {
     "referenced_type" : "_ZTIP7AParcel"
    },
    {
     "referenced_type" : "_ZTIRKNSt3__110shared_ptrIN4aidl7android8hardware4gnss9IGnssPsdsEEE"
    }
   ],
   "return_type" : "_ZTIi",
   "source_file" : "out/soong/.intermediates/hardware/interfaces/gnss/aidl/android.hardware.gnss-V1-ndk_platform-source/gen/include/aidl/android/hardware/gnss/IGnssPsds.h"
  },
  {
   "function_name" : "aidl::android::hardware::gnss::IGnssPsds::getDefaultImpl",
   "linker_set_key" : "_ZN4aidl7android8hardware4gnss9IGnssPsds14getDefaultImplEv",
   "return_type" : "_ZTIRKNSt3__110shared_ptrIN4aidl7android8hardware4gnss9IGnssPsdsEEE",
   "source_file" : "out/soong/.intermediates/hardware/interfaces/gnss/aidl/android.hardware.gnss-V1-ndk_platform-source/gen/include/aidl/android/hardware/gnss/IGnssPsds.h"
  },
  {
   "function_name" : "aidl::android::hardware::gnss::IGnssPsds::readFromParcel",
   "linker_set_key" : "_ZN4aidl7android8hardware4gnss9IGnssPsds14readFromParcelEPK7AParcelPNSt3__110shared_ptrIS3_EE",
   "parameters" :
   [
    {
     "referenced_type" : "_ZTIPK7AParcel"
    },
    {
     "referenced_type" : "_ZTIPNSt3__110shared_ptrIN4aidl7android8hardware4gnss9IGnssPsdsEEE"
    }
   ],
   "return_type" : "_ZTIi",
   "source_file" : "out/soong/.intermediates/hardware/interfaces/gnss/aidl/android.hardware.gnss-V1-ndk_platform-source/gen/include/aidl/android/hardware/gnss/IGnssPsds.h"
  },
  {
   "function_name" : "aidl::android::hardware::gnss::IGnssPsds::setDefaultImpl",
   "linker_set_key" : "_ZN4aidl7android8hardware4gnss9IGnssPsds14setDefaultImplERKNSt3__110shared_ptrIS3_EE",
   "parameters" :
   [
    {
     "referenced_type" : "_ZTIRKNSt3__110shared_ptrIN4aidl7android8hardware4gnss9IGnssPsdsEEE"
    }
   ],
   "return_type" : "_ZTIb",
   "source_file" : "out/soong/.intermediates/hardware/interfaces/gnss/aidl/android.hardware.gnss-V1-ndk_platform-source/gen/include/aidl/android/hardware/gnss/IGnssPsds.h"
  },
  {
   "function_name" : "aidl::android::hardware::gnss::IGnssPsds::IGnssPsds",
   "linker_set_key" : "_ZN4aidl7android8hardware4gnss9IGnssPsdsC2Ev",
   "parameters" :
   [
    {
     "is_this_ptr" : true,
     "referenced_type" : "_ZTIPN4aidl7android8hardware4gnss9IGnssPsdsE"
    }
   ],
   "return_type" : "_ZTIv",
   "source_file" : "out/soong/.intermediates/hardware/interfaces/gnss/aidl/android.hardware.gnss-V1-ndk_platform-source/gen/include/aidl/android/hardware/gnss/IGnssPsds.h"
  },
  {
   "function_name" : "aidl::android::hardware::gnss::IGnssPsds::~IGnssPsds",
   "linker_set_key" : "_ZN4aidl7android8hardware4gnss9IGnssPsdsD0Ev",
   "parameters" :
   [
    {
     "is_this_ptr" : true,
     "referenced_type" : "_ZTIPN4aidl7android8hardware4gnss9IGnssPsdsE"
    }
   ],
   "return_type" : "_ZTIv",
   "source_file" : "out/soong/.intermediates/hardware/interfaces/gnss/aidl/android.hardware.gnss-V1-ndk_platform-source/gen/include/aidl/android/hardware/gnss/IGnssPsds.h"
  },
  {
   "function_name" : "aidl::android::hardware::gnss::IGnssPsds::~IGnssPsds",
   "linker_set_key" : "_ZN4aidl7android8hardware4gnss9IGnssPsdsD1Ev",
   "parameters" :
   [
    {
     "is_this_ptr" : true,
     "referenced_type" : "_ZTIPN4aidl7android8hardware4gnss9IGnssPsdsE"
    }
   ],
   "return_type" : "_ZTIv",
   "source_file" : "out/soong/.intermediates/hardware/interfaces/gnss/aidl/android.hardware.gnss-V1-ndk_platform-source/gen/include/aidl/android/hardware/gnss/IGnssPsds.h"
  },
  {
   "function_name" : "aidl::android::hardware::gnss::IGnssPsds::~IGnssPsds",
   "linker_set_key" : "_ZN4aidl7android8hardware4gnss9IGnssPsdsD2Ev",
   "parameters" :
   [
    {
     "is_this_ptr" : true,
     "referenced_type" : "_ZTIPN4aidl7android8hardware4gnss9IGnssPsdsE"
    }
   ],
   "return_type" : "_ZTIv",
   "source_file" : "out/soong/.intermediates/hardware/interfaces/gnss/aidl/android.hardware.gnss-V1-ndk_platform-source/gen/include/aidl/android/hardware/gnss/IGnssPsds.h"
  },
  {
   "function_name" : "aidl::android::hardware::gnss::SatellitePvt::writeToParcel",
   "linker_set_key" : "_ZNK4aidl7android8hardware4gnss12SatellitePvt13writeToParcelEP7AParcel",
   "parameters" :
   [
    {
     "is_this_ptr" : true,
     "referenced_type" : "_ZTIPKN4aidl7android8hardware4gnss12SatellitePvtE"
    },
    {
     "referenced_type" : "_ZTIP7AParcel"
    }
   ],
   "return_type" : "_ZTIi",
   "source_file" : "out/soong/.intermediates/hardware/interfaces/gnss/aidl/android.hardware.gnss-V1-ndk_platform-source/gen/include/aidl/android/hardware/gnss/SatellitePvt.h"
  },
  {
   "function_name" : "aidl::android::hardware::gnss::GnssPowerStats::writeToParcel",
   "linker_set_key" : "_ZNK4aidl7android8hardware4gnss14GnssPowerStats13writeToParcelEP7AParcel",
   "parameters" :
   [
    {
     "is_this_ptr" : true,
     "referenced_type" : "_ZTIPKN4aidl7android8hardware4gnss14GnssPowerStatsE"
    },
    {
     "referenced_type" : "_ZTIP7AParcel"
    }
   ],
   "return_type" : "_ZTIi",
   "source_file" : "out/soong/.intermediates/hardware/interfaces/gnss/aidl/android.hardware.gnss-V1-ndk_platform-source/gen/include/aidl/android/hardware/gnss/GnssPowerStats.h"
  },
  {
   "function_name" : "aidl::android::hardware::gnss::GnssSignalType::writeToParcel",
   "linker_set_key" : "_ZNK4aidl7android8hardware4gnss14GnssSignalType13writeToParcelEP7AParcel",
   "parameters" :
   [
    {
     "is_this_ptr" : true,
     "referenced_type" : "_ZTIPKN4aidl7android8hardware4gnss14GnssSignalTypeE"
    },
    {
     "referenced_type" : "_ZTIP7AParcel"
    }
   ],
   "return_type" : "_ZTIi",
   "source_file" : "out/soong/.intermediates/hardware/interfaces/gnss/aidl/android.hardware.gnss-V1-ndk_platform-source/gen/include/aidl/android/hardware/gnss/GnssSignalType.h"
  },
  {
   "function_name" : "aidl::android::hardware::gnss::ElapsedRealtime::writeToParcel",
   "linker_set_key" : "_ZNK4aidl7android8hardware4gnss15ElapsedRealtime13writeToParcelEP7AParcel",
   "parameters" :
   [
    {
     "is_this_ptr" : true,
     "referenced_type" : "_ZTIPKN4aidl7android8hardware4gnss15ElapsedRealtimeE"
    },
    {
     "referenced_type" : "_ZTIP7AParcel"
    }
   ],
   "return_type" : "_ZTIi",
   "source_file" : "out/soong/.intermediates/hardware/interfaces/gnss/aidl/android.hardware.gnss-V1-ndk_platform-source/gen/include/aidl/android/hardware/gnss/ElapsedRealtime.h"
  },
  {
   "function_name" : "aidl::android::hardware::gnss::GnssMeasurement::writeToParcel",
   "linker_set_key" : "_ZNK4aidl7android8hardware4gnss15GnssMeasurement13writeToParcelEP7AParcel",
   "parameters" :
   [
    {
     "is_this_ptr" : true,
     "referenced_type" : "_ZTIPKN4aidl7android8hardware4gnss15GnssMeasurementE"
    },
    {
     "referenced_type" : "_ZTIP7AParcel"
    }
   ],
   "return_type" : "_ZTIi",
   "source_file" : "out/soong/.intermediates/hardware/interfaces/gnss/aidl/android.hardware.gnss-V1-ndk_platform-source/gen/include/aidl/android/hardware/gnss/GnssMeasurement.h"
  },
  {
   "function_name" : "aidl::android::hardware::gnss::BlocklistedSource::writeToParcel",
   "linker_set_key" : "_ZNK4aidl7android8hardware4gnss17BlocklistedSource13writeToParcelEP7AParcel",
   "parameters" :
   [
    {
     "is_this_ptr" : true,
     "referenced_type" : "_ZTIPKN4aidl7android8hardware4gnss17BlocklistedSourceE"
    },
    {
     "referenced_type" : "_ZTIP7AParcel"
    }
   ],
   "return_type" : "_ZTIi",
   "source_file" : "out/soong/.intermediates/hardware/interfaces/gnss/aidl/android.hardware.gnss-V1-ndk_platform-source/gen/include/aidl/android/hardware/gnss/BlocklistedSource.h"
  },
  {
   "function_name" : "aidl::android::hardware::gnss::CorrelationVector::writeToParcel",
   "linker_set_key" : "_ZNK4aidl7android8hardware4gnss17CorrelationVector13writeToParcelEP7AParcel",
   "parameters" :
   [
    {
     "is_this_ptr" : true,
     "referenced_type" : "_ZTIPKN4aidl7android8hardware4gnss17CorrelationVectorE"
    },
    {
     "referenced_type" : "_ZTIP7AParcel"
    }
   ],
   "return_type" : "_ZTIi",
   "source_file" : "out/soong/.intermediates/hardware/interfaces/gnss/aidl/android.hardware.gnss-V1-ndk_platform-source/gen/include/aidl/android/hardware/gnss/CorrelationVector.h"
  },
  {
   "function_name" : "aidl::android::hardware::gnss::SatelliteClockInfo::writeToParcel",
   "linker_set_key" : "_ZNK4aidl7android8hardware4gnss18SatelliteClockInfo13writeToParcelEP7AParcel",
   "parameters" :
   [
    {
     "is_this_ptr" : true,
     "referenced_type" : "_ZTIPKN4aidl7android8hardware4gnss18SatelliteClockInfoE"
    },
    {
     "referenced_type" : "_ZTIP7AParcel"
    }
   ],
   "return_type" : "_ZTIi",
   "source_file" : "out/soong/.intermediates/hardware/interfaces/gnss/aidl/android.hardware.gnss-V1-ndk_platform-source/gen/include/aidl/android/hardware/gnss/SatelliteClockInfo.h"
  },
  {
   "function_name" : "aidl::android::hardware::gnss::SatellitePositionEcef::writeToParcel",
   "linker_set_key" : "_ZNK4aidl7android8hardware4gnss21SatellitePositionEcef13writeToParcelEP7AParcel",
   "parameters" :
   [
    {
     "is_this_ptr" : true,
     "referenced_type" : "_ZTIPKN4aidl7android8hardware4gnss21SatellitePositionEcefE"
    },
    {
     "referenced_type" : "_ZTIP7AParcel"
    }
   ],
   "return_type" : "_ZTIi",
   "source_file" : "out/soong/.intermediates/hardware/interfaces/gnss/aidl/android.hardware.gnss-V1-ndk_platform-source/gen/include/aidl/android/hardware/gnss/SatellitePositionEcef.h"
  },
  {
   "function_name" : "aidl::android::hardware::gnss::SatelliteVelocityEcef::writeToParcel",
   "linker_set_key" : "_ZNK4aidl7android8hardware4gnss21SatelliteVelocityEcef13writeToParcelEP7AParcel",
   "parameters" :
   [
    {
     "is_this_ptr" : true,
     "referenced_type" : "_ZTIPKN4aidl7android8hardware4gnss21SatelliteVelocityEcefE"
    },
    {
     "referenced_type" : "_ZTIP7AParcel"
    }
   ],
   "return_type" : "_ZTIi",
   "source_file" : "out/soong/.intermediates/hardware/interfaces/gnss/aidl/android.hardware.gnss-V1-ndk_platform-source/gen/include/aidl/android/hardware/gnss/SatelliteVelocityEcef.h"
  },
  {
   "function_name" : "aidl::android::hardware::gnss::GnssData::writeToParcel",
   "linker_set_key" : "_ZNK4aidl7android8hardware4gnss8GnssData13writeToParcelEP7AParcel",
   "parameters" :
   [
    {
     "is_this_ptr" : true,
     "referenced_type" : "_ZTIPKN4aidl7android8hardware4gnss8GnssDataE"
    },
    {
     "referenced_type" : "_ZTIP7AParcel"
    }
   ],
   "return_type" : "_ZTIi",
   "source_file" : "out/soong/.intermediates/hardware/interfaces/gnss/aidl/android.hardware.gnss-V1-ndk_platform-source/gen/include/aidl/android/hardware/gnss/GnssData.h"
  },
  {
   "function_name" : "aidl::android::hardware::gnss::GnssClock::writeToParcel",
   "linker_set_key" : "_ZNK4aidl7android8hardware4gnss9GnssClock13writeToParcelEP7AParcel",
   "parameters" :
   [
    {
     "is_this_ptr" : true,
     "referenced_type" : "_ZTIPKN4aidl7android8hardware4gnss9GnssClockE"
    },
    {
     "referenced_type" : "_ZTIP7AParcel"
    }
   ],
   "return_type" : "_ZTIi",
   "source_file" : "out/soong/.intermediates/hardware/interfaces/gnss/aidl/android.hardware.gnss-V1-ndk_platform-source/gen/include/aidl/android/hardware/gnss/GnssClock.h"
  }
 ],
 "global_vars" :
 [
  {
   "linker_set_key" : "_ZN4aidl7android8hardware4gnss12SatellitePvt10descriptorE",
   "name" : "aidl::android::hardware::gnss::SatellitePvt::descriptor",
   "referenced_type" : "_ZTIPKc",
   "source_file" : "out/soong/.intermediates/hardware/interfaces/gnss/aidl/android.hardware.gnss-V1-ndk_platform-source/gen/include/aidl/android/hardware/gnss/SatellitePvt.h"
  },
  {
   "linker_set_key" : "_ZN4aidl7android8hardware4gnss13IGnssCallback10descriptorE",
   "name" : "aidl::android::hardware::gnss::IGnssCallback::descriptor",
   "referenced_type" : "_ZTIPKc",
   "source_file" : "out/soong/.intermediates/hardware/interfaces/gnss/aidl/android.hardware.gnss-V1-ndk_platform-source/gen/include/aidl/android/hardware/gnss/IGnssCallback.h"
  },
  {
   "access" : "private",
   "linker_set_key" : "_ZN4aidl7android8hardware4gnss13IGnssCallback12default_implE",
   "name" : "aidl::android::hardware::gnss::IGnssCallback::default_impl",
   "referenced_type" : "_ZTINSt3__110shared_ptrIN4aidl7android8hardware4gnss13IGnssCallbackEEE",
   "source_file" : "out/soong/.intermediates/hardware/interfaces/gnss/aidl/android.hardware.gnss-V1-ndk_platform-source/gen/include/aidl/android/hardware/gnss/IGnssCallback.h"
  },
  {
   "linker_set_key" : "_ZN4aidl7android8hardware4gnss13IGnssCallback4hashE",
   "name" : "aidl::android::hardware::gnss::IGnssCallback::hash",
   "referenced_type" : "_ZTIKNSt3__112basic_stringIcNS_11char_traitsIcEENS_9allocatorIcEEEE",
   "source_file" : "out/soong/.intermediates/hardware/interfaces/gnss/aidl/android.hardware.gnss-V1-ndk_platform-source/gen/include/aidl/android/hardware/gnss/IGnssCallback.h"
  },
  {
   "linker_set_key" : "_ZN4aidl7android8hardware4gnss14GnssPowerStats10descriptorE",
   "name" : "aidl::android::hardware::gnss::GnssPowerStats::descriptor",
   "referenced_type" : "_ZTIPKc",
   "source_file" : "out/soong/.intermediates/hardware/interfaces/gnss/aidl/android.hardware.gnss-V1-ndk_platform-source/gen/include/aidl/android/hardware/gnss/GnssPowerStats.h"
  },
  {
   "linker_set_key" : "_ZN4aidl7android8hardware4gnss14GnssSignalType10descriptorE",
   "name" : "aidl::android::hardware::gnss::GnssSignalType::descriptor",
   "referenced_type" : "_ZTIPKc",
   "source_file" : "out/soong/.intermediates/hardware/interfaces/gnss/aidl/android.hardware.gnss-V1-ndk_platform-source/gen/include/aidl/android/hardware/gnss/GnssSignalType.h"
  },
  {
   "linker_set_key" : "_ZN4aidl7android8hardware4gnss14GnssSignalType11CODE_TYPE_AE",
   "name" : "aidl::android::hardware::gnss::GnssSignalType::CODE_TYPE_A",
   "referenced_type" : "_ZTIPKc",
   "source_file" : "out/soong/.intermediates/hardware/interfaces/gnss/aidl/android.hardware.gnss-V1-ndk_platform-source/gen/include/aidl/android/hardware/gnss/GnssSignalType.h"
  },
  {
   "linker_set_key" : "_ZN4aidl7android8hardware4gnss14GnssSignalType11CODE_TYPE_BE",
   "name" : "aidl::android::hardware::gnss::GnssSignalType::CODE_TYPE_B",
   "referenced_type" : "_ZTIPKc",
   "source_file" : "out/soong/.intermediates/hardware/interfaces/gnss/aidl/android.hardware.gnss-V1-ndk_platform-source/gen/include/aidl/android/hardware/gnss/GnssSignalType.h"
  },
  {
   "linker_set_key" : "_ZN4aidl7android8hardware4gnss14GnssSignalType11CODE_TYPE_CE",
   "name" : "aidl::android::hardware::gnss::GnssSignalType::CODE_TYPE_C",
   "referenced_type" : "_ZTIPKc",
   "source_file" : "out/soong/.intermediates/hardware/interfaces/gnss/aidl/android.hardware.gnss-V1-ndk_platform-source/gen/include/aidl/android/hardware/gnss/GnssSignalType.h"
  },
  {
   "linker_set_key" : "_ZN4aidl7android8hardware4gnss14GnssSignalType11CODE_TYPE_DE",
   "name" : "aidl::android::hardware::gnss::GnssSignalType::CODE_TYPE_D",
   "referenced_type" : "_ZTIPKc",
   "source_file" : "out/soong/.intermediates/hardware/interfaces/gnss/aidl/android.hardware.gnss-V1-ndk_platform-source/gen/include/aidl/android/hardware/gnss/GnssSignalType.h"
  },
  {
   "linker_set_key" : "_ZN4aidl7android8hardware4gnss14GnssSignalType11CODE_TYPE_IE",
   "name" : "aidl::android::hardware::gnss::GnssSignalType::CODE_TYPE_I",
   "referenced_type" : "_ZTIPKc",
   "source_file" : "out/soong/.intermediates/hardware/interfaces/gnss/aidl/android.hardware.gnss-V1-ndk_platform-source/gen/include/aidl/android/hardware/gnss/GnssSignalType.h"
  },
  {
   "linker_set_key" : "_ZN4aidl7android8hardware4gnss14GnssSignalType11CODE_TYPE_LE",
   "name" : "aidl::android::hardware::gnss::GnssSignalType::CODE_TYPE_L",
   "referenced_type" : "_ZTIPKc",
   "source_file" : "out/soong/.intermediates/hardware/interfaces/gnss/aidl/android.hardware.gnss-V1-ndk_platform-source/gen/include/aidl/android/hardware/gnss/GnssSignalType.h"
  },
  {
   "linker_set_key" : "_ZN4aidl7android8hardware4gnss14GnssSignalType11CODE_TYPE_ME",
   "name" : "aidl::android::hardware::gnss::GnssSignalType::CODE_TYPE_M",
   "referenced_type" : "_ZTIPKc",
   "source_file" : "out/soong/.intermediates/hardware/interfaces/gnss/aidl/android.hardware.gnss-V1-ndk_platform-source/gen/include/aidl/android/hardware/gnss/GnssSignalType.h"
  },
  {
   "linker_set_key" : "_ZN4aidl7android8hardware4gnss14GnssSignalType11CODE_TYPE_NE",
   "name" : "aidl::android::hardware::gnss::GnssSignalType::CODE_TYPE_N",
   "referenced_type" : "_ZTIPKc",
   "source_file" : "out/soong/.intermediates/hardware/interfaces/gnss/aidl/android.hardware.gnss-V1-ndk_platform-source/gen/include/aidl/android/hardware/gnss/GnssSignalType.h"
  },
  {
   "linker_set_key" : "_ZN4aidl7android8hardware4gnss14GnssSignalType11CODE_TYPE_PE",
   "name" : "aidl::android::hardware::gnss::GnssSignalType::CODE_TYPE_P",
   "referenced_type" : "_ZTIPKc",
   "source_file" : "out/soong/.intermediates/hardware/interfaces/gnss/aidl/android.hardware.gnss-V1-ndk_platform-source/gen/include/aidl/android/hardware/gnss/GnssSignalType.h"
  },
  {
   "linker_set_key" : "_ZN4aidl7android8hardware4gnss14GnssSignalType11CODE_TYPE_QE",
   "name" : "aidl::android::hardware::gnss::GnssSignalType::CODE_TYPE_Q",
   "referenced_type" : "_ZTIPKc",
   "source_file" : "out/soong/.intermediates/hardware/interfaces/gnss/aidl/android.hardware.gnss-V1-ndk_platform-source/gen/include/aidl/android/hardware/gnss/GnssSignalType.h"
  },
  {
   "linker_set_key" : "_ZN4aidl7android8hardware4gnss14GnssSignalType11CODE_TYPE_SE",
   "name" : "aidl::android::hardware::gnss::GnssSignalType::CODE_TYPE_S",
   "referenced_type" : "_ZTIPKc",
   "source_file" : "out/soong/.intermediates/hardware/interfaces/gnss/aidl/android.hardware.gnss-V1-ndk_platform-source/gen/include/aidl/android/hardware/gnss/GnssSignalType.h"
  },
  {
   "linker_set_key" : "_ZN4aidl7android8hardware4gnss14GnssSignalType11CODE_TYPE_WE",
   "name" : "aidl::android::hardware::gnss::GnssSignalType::CODE_TYPE_W",
   "referenced_type" : "_ZTIPKc",
   "source_file" : "out/soong/.intermediates/hardware/interfaces/gnss/aidl/android.hardware.gnss-V1-ndk_platform-source/gen/include/aidl/android/hardware/gnss/GnssSignalType.h"
  },
  {
   "linker_set_key" : "_ZN4aidl7android8hardware4gnss14GnssSignalType11CODE_TYPE_XE",
   "name" : "aidl::android::hardware::gnss::GnssSignalType::CODE_TYPE_X",
   "referenced_type" : "_ZTIPKc",
   "source_file" : "out/soong/.intermediates/hardware/interfaces/gnss/aidl/android.hardware.gnss-V1-ndk_platform-source/gen/include/aidl/android/hardware/gnss/GnssSignalType.h"
  },
  {
   "linker_set_key" : "_ZN4aidl7android8hardware4gnss14GnssSignalType11CODE_TYPE_YE",
   "name" : "aidl::android::hardware::gnss::GnssSignalType::CODE_TYPE_Y",
   "referenced_type" : "_ZTIPKc",
   "source_file" : "out/soong/.intermediates/hardware/interfaces/gnss/aidl/android.hardware.gnss-V1-ndk_platform-source/gen/include/aidl/android/hardware/gnss/GnssSignalType.h"
  },
  {
   "linker_set_key" : "_ZN4aidl7android8hardware4gnss14GnssSignalType11CODE_TYPE_ZE",
   "name" : "aidl::android::hardware::gnss::GnssSignalType::CODE_TYPE_Z",
   "referenced_type" : "_ZTIPKc",
   "source_file" : "out/soong/.intermediates/hardware/interfaces/gnss/aidl/android.hardware.gnss-V1-ndk_platform-source/gen/include/aidl/android/hardware/gnss/GnssSignalType.h"
  },
  {
   "linker_set_key" : "_ZN4aidl7android8hardware4gnss14GnssSignalType17CODE_TYPE_UNKNOWNE",
   "name" : "aidl::android::hardware::gnss::GnssSignalType::CODE_TYPE_UNKNOWN",
   "referenced_type" : "_ZTIPKc",
   "source_file" : "out/soong/.intermediates/hardware/interfaces/gnss/aidl/android.hardware.gnss-V1-ndk_platform-source/gen/include/aidl/android/hardware/gnss/GnssSignalType.h"
  },
  {
   "linker_set_key" : "_ZN4aidl7android8hardware4gnss15ElapsedRealtime10descriptorE",
   "name" : "aidl::android::hardware::gnss::ElapsedRealtime::descriptor",
   "referenced_type" : "_ZTIPKc",
   "source_file" : "out/soong/.intermediates/hardware/interfaces/gnss/aidl/android.hardware.gnss-V1-ndk_platform-source/gen/include/aidl/android/hardware/gnss/ElapsedRealtime.h"
  },
  {
   "linker_set_key" : "_ZN4aidl7android8hardware4gnss15GnssMeasurement10descriptorE",
   "name" : "aidl::android::hardware::gnss::GnssMeasurement::descriptor",
   "referenced_type" : "_ZTIPKc",
   "source_file" : "out/soong/.intermediates/hardware/interfaces/gnss/aidl/android.hardware.gnss-V1-ndk_platform-source/gen/include/aidl/android/hardware/gnss/GnssMeasurement.h"
  },
  {
   "linker_set_key" : "_ZN4aidl7android8hardware4gnss17BlocklistedSource10descriptorE",
   "name" : "aidl::android::hardware::gnss::BlocklistedSource::descriptor",
   "referenced_type" : "_ZTIPKc",
   "source_file" : "out/soong/.intermediates/hardware/interfaces/gnss/aidl/android.hardware.gnss-V1-ndk_platform-source/gen/include/aidl/android/hardware/gnss/BlocklistedSource.h"
  },
  {
   "linker_set_key" : "_ZN4aidl7android8hardware4gnss17CorrelationVector10descriptorE",
   "name" : "aidl::android::hardware::gnss::CorrelationVector::descriptor",
   "referenced_type" : "_ZTIPKc",
   "source_file" : "out/soong/.intermediates/hardware/interfaces/gnss/aidl/android.hardware.gnss-V1-ndk_platform-source/gen/include/aidl/android/hardware/gnss/CorrelationVector.h"
  },
  {
   "linker_set_key" : "_ZN4aidl7android8hardware4gnss17IGnssPsdsCallback10descriptorE",
   "name" : "aidl::android::hardware::gnss::IGnssPsdsCallback::descriptor",
   "referenced_type" : "_ZTIPKc",
   "source_file" : "out/soong/.intermediates/hardware/interfaces/gnss/aidl/android.hardware.gnss-V1-ndk_platform-source/gen/include/aidl/android/hardware/gnss/IGnssPsdsCallback.h"
  },
  {
   "access" : "private",
   "linker_set_key" : "_ZN4aidl7android8hardware4gnss17IGnssPsdsCallback12default_implE",
   "name" : "aidl::android::hardware::gnss::IGnssPsdsCallback::default_impl",
   "referenced_type" : "_ZTINSt3__110shared_ptrIN4aidl7android8hardware4gnss17IGnssPsdsCallbackEEE",
   "source_file" : "out/soong/.intermediates/hardware/interfaces/gnss/aidl/android.hardware.gnss-V1-ndk_platform-source/gen/include/aidl/android/hardware/gnss/IGnssPsdsCallback.h"
  },
  {
   "linker_set_key" : "_ZN4aidl7android8hardware4gnss17IGnssPsdsCallback4hashE",
   "name" : "aidl::android::hardware::gnss::IGnssPsdsCallback::hash",
   "referenced_type" : "_ZTIKNSt3__112basic_stringIcNS_11char_traitsIcEENS_9allocatorIcEEEE",
   "source_file" : "out/soong/.intermediates/hardware/interfaces/gnss/aidl/android.hardware.gnss-V1-ndk_platform-source/gen/include/aidl/android/hardware/gnss/IGnssPsdsCallback.h"
  },
  {
   "linker_set_key" : "_ZN4aidl7android8hardware4gnss18IGnssConfiguration10descriptorE",
   "name" : "aidl::android::hardware::gnss::IGnssConfiguration::descriptor",
   "referenced_type" : "_ZTIPKc",
   "source_file" : "out/soong/.intermediates/hardware/interfaces/gnss/aidl/android.hardware.gnss-V1-ndk_platform-source/gen/include/aidl/android/hardware/gnss/IGnssConfiguration.h"
  },
  {
   "access" : "private",
   "linker_set_key" : "_ZN4aidl7android8hardware4gnss18IGnssConfiguration12default_implE",
   "name" : "aidl::android::hardware::gnss::IGnssConfiguration::default_impl",
   "referenced_type" : "_ZTINSt3__110shared_ptrIN4aidl7android8hardware4gnss18IGnssConfigurationEEE",
   "source_file" : "out/soong/.intermediates/hardware/interfaces/gnss/aidl/android.hardware.gnss-V1-ndk_platform-source/gen/include/aidl/android/hardware/gnss/IGnssConfiguration.h"
  },
  {
   "linker_set_key" : "_ZN4aidl7android8hardware4gnss18IGnssConfiguration4hashE",
   "name" : "aidl::android::hardware::gnss::IGnssConfiguration::hash",
   "referenced_type" : "_ZTIKNSt3__112basic_stringIcNS_11char_traitsIcEENS_9allocatorIcEEEE",
   "source_file" : "out/soong/.intermediates/hardware/interfaces/gnss/aidl/android.hardware.gnss-V1-ndk_platform-source/gen/include/aidl/android/hardware/gnss/IGnssConfiguration.h"
  },
  {
   "linker_set_key" : "_ZN4aidl7android8hardware4gnss18SatelliteClockInfo10descriptorE",
   "name" : "aidl::android::hardware::gnss::SatelliteClockInfo::descriptor",
   "referenced_type" : "_ZTIPKc",
   "source_file" : "out/soong/.intermediates/hardware/interfaces/gnss/aidl/android.hardware.gnss-V1-ndk_platform-source/gen/include/aidl/android/hardware/gnss/SatelliteClockInfo.h"
  },
  {
   "linker_set_key" : "_ZN4aidl7android8hardware4gnss20IGnssPowerIndication10descriptorE",
   "name" : "aidl::android::hardware::gnss::IGnssPowerIndication::descriptor",
   "referenced_type" : "_ZTIPKc",
   "source_file" : "out/soong/.intermediates/hardware/interfaces/gnss/aidl/android.hardware.gnss-V1-ndk_platform-source/gen/include/aidl/android/hardware/gnss/IGnssPowerIndication.h"
  },
  {
   "access" : "private",
   "linker_set_key" : "_ZN4aidl7android8hardware4gnss20IGnssPowerIndication12default_implE",
   "name" : "aidl::android::hardware::gnss::IGnssPowerIndication::default_impl",
   "referenced_type" : "_ZTINSt3__110shared_ptrIN4aidl7android8hardware4gnss20IGnssPowerIndicationEEE",
   "source_file" : "out/soong/.intermediates/hardware/interfaces/gnss/aidl/android.hardware.gnss-V1-ndk_platform-source/gen/include/aidl/android/hardware/gnss/IGnssPowerIndication.h"
  },
  {
   "linker_set_key" : "_ZN4aidl7android8hardware4gnss20IGnssPowerIndication4hashE",
   "name" : "aidl::android::hardware::gnss::IGnssPowerIndication::hash",
   "referenced_type" : "_ZTIKNSt3__112basic_stringIcNS_11char_traitsIcEENS_9allocatorIcEEEE",
   "source_file" : "out/soong/.intermediates/hardware/interfaces/gnss/aidl/android.hardware.gnss-V1-ndk_platform-source/gen/include/aidl/android/hardware/gnss/IGnssPowerIndication.h"
  },
  {
   "linker_set_key" : "_ZN4aidl7android8hardware4gnss21SatellitePositionEcef10descriptorE",
   "name" : "aidl::android::hardware::gnss::SatellitePositionEcef::descriptor",
   "referenced_type" : "_ZTIPKc",
   "source_file" : "out/soong/.intermediates/hardware/interfaces/gnss/aidl/android.hardware.gnss-V1-ndk_platform-source/gen/include/aidl/android/hardware/gnss/SatellitePositionEcef.h"
  },
  {
   "linker_set_key" : "_ZN4aidl7android8hardware4gnss21SatelliteVelocityEcef10descriptorE",
   "name" : "aidl::android::hardware::gnss::SatelliteVelocityEcef::descriptor",
   "referenced_type" : "_ZTIPKc",
   "source_file" : "out/soong/.intermediates/hardware/interfaces/gnss/aidl/android.hardware.gnss-V1-ndk_platform-source/gen/include/aidl/android/hardware/gnss/SatelliteVelocityEcef.h"
  },
  {
   "linker_set_key" : "_ZN4aidl7android8hardware4gnss24IGnssMeasurementCallback10descriptorE",
   "name" : "aidl::android::hardware::gnss::IGnssMeasurementCallback::descriptor",
   "referenced_type" : "_ZTIPKc",
   "source_file" : "out/soong/.intermediates/hardware/interfaces/gnss/aidl/android.hardware.gnss-V1-ndk_platform-source/gen/include/aidl/android/hardware/gnss/IGnssMeasurementCallback.h"
  },
  {
   "access" : "private",
   "linker_set_key" : "_ZN4aidl7android8hardware4gnss24IGnssMeasurementCallback12default_implE",
   "name" : "aidl::android::hardware::gnss::IGnssMeasurementCallback::default_impl",
   "referenced_type" : "_ZTINSt3__110shared_ptrIN4aidl7android8hardware4gnss24IGnssMeasurementCallbackEEE",
   "source_file" : "out/soong/.intermediates/hardware/interfaces/gnss/aidl/android.hardware.gnss-V1-ndk_platform-source/gen/include/aidl/android/hardware/gnss/IGnssMeasurementCallback.h"
  },
  {
   "linker_set_key" : "_ZN4aidl7android8hardware4gnss24IGnssMeasurementCallback4hashE",
   "name" : "aidl::android::hardware::gnss::IGnssMeasurementCallback::hash",
   "referenced_type" : "_ZTIKNSt3__112basic_stringIcNS_11char_traitsIcEENS_9allocatorIcEEEE",
   "source_file" : "out/soong/.intermediates/hardware/interfaces/gnss/aidl/android.hardware.gnss-V1-ndk_platform-source/gen/include/aidl/android/hardware/gnss/IGnssMeasurementCallback.h"
  },
  {
   "linker_set_key" : "_ZN4aidl7android8hardware4gnss25IGnssMeasurementInterface10descriptorE",
   "name" : "aidl::android::hardware::gnss::IGnssMeasurementInterface::descriptor",
   "referenced_type" : "_ZTIPKc",
   "source_file" : "out/soong/.intermediates/hardware/interfaces/gnss/aidl/android.hardware.gnss-V1-ndk_platform-source/gen/include/aidl/android/hardware/gnss/IGnssMeasurementInterface.h"
  },
  {
   "access" : "private",
   "linker_set_key" : "_ZN4aidl7android8hardware4gnss25IGnssMeasurementInterface12default_implE",
   "name" : "aidl::android::hardware::gnss::IGnssMeasurementInterface::default_impl",
   "referenced_type" : "_ZTINSt3__110shared_ptrIN4aidl7android8hardware4gnss25IGnssMeasurementInterfaceEEE",
   "source_file" : "out/soong/.intermediates/hardware/interfaces/gnss/aidl/android.hardware.gnss-V1-ndk_platform-source/gen/include/aidl/android/hardware/gnss/IGnssMeasurementInterface.h"
  },
  {
   "linker_set_key" : "_ZN4aidl7android8hardware4gnss25IGnssMeasurementInterface4hashE",
   "name" : "aidl::android::hardware::gnss::IGnssMeasurementInterface::hash",
   "referenced_type" : "_ZTIKNSt3__112basic_stringIcNS_11char_traitsIcEENS_9allocatorIcEEEE",
   "source_file" : "out/soong/.intermediates/hardware/interfaces/gnss/aidl/android.hardware.gnss-V1-ndk_platform-source/gen/include/aidl/android/hardware/gnss/IGnssMeasurementInterface.h"
  },
  {
   "linker_set_key" : "_ZN4aidl7android8hardware4gnss28IGnssPowerIndicationCallback10descriptorE",
   "name" : "aidl::android::hardware::gnss::IGnssPowerIndicationCallback::descriptor",
   "referenced_type" : "_ZTIPKc",
   "source_file" : "out/soong/.intermediates/hardware/interfaces/gnss/aidl/android.hardware.gnss-V1-ndk_platform-source/gen/include/aidl/android/hardware/gnss/IGnssPowerIndicationCallback.h"
  },
  {
   "access" : "private",
   "linker_set_key" : "_ZN4aidl7android8hardware4gnss28IGnssPowerIndicationCallback12default_implE",
   "name" : "aidl::android::hardware::gnss::IGnssPowerIndicationCallback::default_impl",
   "referenced_type" : "_ZTINSt3__110shared_ptrIN4aidl7android8hardware4gnss28IGnssPowerIndicationCallbackEEE",
   "source_file" : "out/soong/.intermediates/hardware/interfaces/gnss/aidl/android.hardware.gnss-V1-ndk_platform-source/gen/include/aidl/android/hardware/gnss/IGnssPowerIndicationCallback.h"
  },
  {
   "linker_set_key" : "_ZN4aidl7android8hardware4gnss28IGnssPowerIndicationCallback4hashE",
   "name" : "aidl::android::hardware::gnss::IGnssPowerIndicationCallback::hash",
   "referenced_type" : "_ZTIKNSt3__112basic_stringIcNS_11char_traitsIcEENS_9allocatorIcEEEE",
   "source_file" : "out/soong/.intermediates/hardware/interfaces/gnss/aidl/android.hardware.gnss-V1-ndk_platform-source/gen/include/aidl/android/hardware/gnss/IGnssPowerIndicationCallback.h"
  },
  {
   "linker_set_key" : "_ZN4aidl7android8hardware4gnss5IGnss10descriptorE",
   "name" : "aidl::android::hardware::gnss::IGnss::descriptor",
   "referenced_type" : "_ZTIPKc",
   "source_file" : "out/soong/.intermediates/hardware/interfaces/gnss/aidl/android.hardware.gnss-V1-ndk_platform-source/gen/include/aidl/android/hardware/gnss/IGnss.h"
  },
  {
   "access" : "private",
   "linker_set_key" : "_ZN4aidl7android8hardware4gnss5IGnss12default_implE",
   "name" : "aidl::android::hardware::gnss::IGnss::default_impl",
   "referenced_type" : "_ZTINSt3__110shared_ptrIN4aidl7android8hardware4gnss5IGnssEEE",
   "source_file" : "out/soong/.intermediates/hardware/interfaces/gnss/aidl/android.hardware.gnss-V1-ndk_platform-source/gen/include/aidl/android/hardware/gnss/IGnss.h"
  },
  {
   "linker_set_key" : "_ZN4aidl7android8hardware4gnss5IGnss4hashE",
   "name" : "aidl::android::hardware::gnss::IGnss::hash",
   "referenced_type" : "_ZTIKNSt3__112basic_stringIcNS_11char_traitsIcEENS_9allocatorIcEEEE",
   "source_file" : "out/soong/.intermediates/hardware/interfaces/gnss/aidl/android.hardware.gnss-V1-ndk_platform-source/gen/include/aidl/android/hardware/gnss/IGnss.h"
  },
  {
   "linker_set_key" : "_ZN4aidl7android8hardware4gnss8GnssData10descriptorE",
   "name" : "aidl::android::hardware::gnss::GnssData::descriptor",
   "referenced_type" : "_ZTIPKc",
   "source_file" : "out/soong/.intermediates/hardware/interfaces/gnss/aidl/android.hardware.gnss-V1-ndk_platform-source/gen/include/aidl/android/hardware/gnss/GnssData.h"
  },
  {
   "linker_set_key" : "_ZN4aidl7android8hardware4gnss9GnssClock10descriptorE",
   "name" : "aidl::android::hardware::gnss::GnssClock::descriptor",
   "referenced_type" : "_ZTIPKc",
   "source_file" : "out/soong/.intermediates/hardware/interfaces/gnss/aidl/android.hardware.gnss-V1-ndk_platform-source/gen/include/aidl/android/hardware/gnss/GnssClock.h"
  },
  {
   "linker_set_key" : "_ZN4aidl7android8hardware4gnss9IGnssPsds10descriptorE",
   "name" : "aidl::android::hardware::gnss::IGnssPsds::descriptor",
   "referenced_type" : "_ZTIPKc",
   "source_file" : "out/soong/.intermediates/hardware/interfaces/gnss/aidl/android.hardware.gnss-V1-ndk_platform-source/gen/include/aidl/android/hardware/gnss/IGnssPsds.h"
  },
  {
   "access" : "private",
   "linker_set_key" : "_ZN4aidl7android8hardware4gnss9IGnssPsds12default_implE",
   "name" : "aidl::android::hardware::gnss::IGnssPsds::default_impl",
   "referenced_type" : "_ZTINSt3__110shared_ptrIN4aidl7android8hardware4gnss9IGnssPsdsEEE",
   "source_file" : "out/soong/.intermediates/hardware/interfaces/gnss/aidl/android.hardware.gnss-V1-ndk_platform-source/gen/include/aidl/android/hardware/gnss/IGnssPsds.h"
  },
  {
   "linker_set_key" : "_ZN4aidl7android8hardware4gnss9IGnssPsds4hashE",
   "name" : "aidl::android::hardware::gnss::IGnssPsds::hash",
   "referenced_type" : "_ZTIKNSt3__112basic_stringIcNS_11char_traitsIcEENS_9allocatorIcEEEE",
   "source_file" : "out/soong/.intermediates/hardware/interfaces/gnss/aidl/android.hardware.gnss-V1-ndk_platform-source/gen/include/aidl/android/hardware/gnss/IGnssPsds.h"
  }
 ],
 "lvalue_reference_types" :
 [
  {
   "alignment" : 4,
   "linker_set_key" : "_ZTIRKN3ndk10SpAIBinderE",
   "name" : "const ndk::SpAIBinder &",
   "referenced_type" : "_ZTIKN3ndk10SpAIBinderE",
   "self_type" : "_ZTIRKN3ndk10SpAIBinderE",
   "size" : 4,
   "source_file" : "frameworks/native/libs/binder/ndk/include_cpp/android/binder_auto_utils.h"
  },
  {
   "alignment" : 4,
   "linker_set_key" : "_ZTIRKN3ndk13ScopedAParcelE",
   "name" : "const ndk::ScopedAParcel &",
   "referenced_type" : "_ZTIKN3ndk13ScopedAParcelE",
   "self_type" : "_ZTIRKN3ndk13ScopedAParcelE",
   "size" : 4,
   "source_file" : "frameworks/native/libs/binder/ndk/include_cpp/android/binder_auto_utils.h"
  },
  {
   "alignment" : 4,
   "linker_set_key" : "_ZTIRKN3ndk17AParcelableHolderE",
   "name" : "const ndk::AParcelableHolder &",
   "referenced_type" : "_ZTIKN3ndk17AParcelableHolderE",
   "self_type" : "_ZTIRKN3ndk17AParcelableHolderE",
   "size" : 4,
   "source_file" : "frameworks/native/libs/binder/ndk/include_cpp/android/binder_parcelable_utils.h"
  },
  {
   "alignment" : 4,
   "linker_set_key" : "_ZTIRKN3ndk20ScopedFileDescriptorE",
   "name" : "const ndk::ScopedFileDescriptor &",
   "referenced_type" : "_ZTIKN3ndk20ScopedFileDescriptorE",
   "self_type" : "_ZTIRKN3ndk20ScopedFileDescriptorE",
   "size" : 4,
   "source_file" : "frameworks/native/libs/binder/ndk/include_cpp/android/binder_auto_utils.h"
  },
  {
   "alignment" : 4,
   "linker_set_key" : "_ZTIRKN4aidl7android8hardware4gnss12SatellitePvtE",
   "name" : "const aidl::android::hardware::gnss::SatellitePvt &",
   "referenced_type" : "_ZTIKN4aidl7android8hardware4gnss12SatellitePvtE",
   "self_type" : "_ZTIRKN4aidl7android8hardware4gnss12SatellitePvtE",
   "size" : 4,
   "source_file" : "frameworks/native/libs/binder/ndk/include_cpp/android/binder_to_string.h"
  },
  {
   "alignment" : 4,
   "linker_set_key" : "_ZTIRKN4aidl7android8hardware4gnss14GnssPowerStatsE",
   "name" : "const aidl::android::hardware::gnss::GnssPowerStats &",
   "referenced_type" : "_ZTIKN4aidl7android8hardware4gnss14GnssPowerStatsE",
   "self_type" : "_ZTIRKN4aidl7android8hardware4gnss14GnssPowerStatsE",
   "size" : 4,
   "source_file" : "out/soong/.intermediates/hardware/interfaces/gnss/aidl/android.hardware.gnss-V1-ndk_platform-source/gen/include/aidl/android/hardware/gnss/GnssPowerStats.h"
  },
  {
   "alignment" : 4,
   "linker_set_key" : "_ZTIRKN4aidl7android8hardware4gnss14GnssSignalTypeE",
   "name" : "const aidl::android::hardware::gnss::GnssSignalType &",
   "referenced_type" : "_ZTIKN4aidl7android8hardware4gnss14GnssSignalTypeE",
   "self_type" : "_ZTIRKN4aidl7android8hardware4gnss14GnssSignalTypeE",
   "size" : 4,
   "source_file" : "frameworks/native/libs/binder/ndk/include_cpp/android/binder_to_string.h"
  },
  {
   "alignment" : 4,
   "linker_set_key" : "_ZTIRKN4aidl7android8hardware4gnss15ElapsedRealtimeE",
   "name" : "const aidl::android::hardware::gnss::ElapsedRealtime &",
   "referenced_type" : "_ZTIKN4aidl7android8hardware4gnss15ElapsedRealtimeE",
   "self_type" : "_ZTIRKN4aidl7android8hardware4gnss15ElapsedRealtimeE",
   "size" : 4,
   "source_file" : "out/soong/.intermediates/hardware/interfaces/gnss/aidl/android.hardware.gnss-V1-ndk_platform-source/gen/include/aidl/android/hardware/gnss/ElapsedRealtime.h"
  },
  {
   "alignment" : 4,
   "linker_set_key" : "_ZTIRKN4aidl7android8hardware4gnss15GnssMeasurementE",
   "name" : "const aidl::android::hardware::gnss::GnssMeasurement &",
   "referenced_type" : "_ZTIKN4aidl7android8hardware4gnss15GnssMeasurementE",
   "self_type" : "_ZTIRKN4aidl7android8hardware4gnss15GnssMeasurementE",
   "size" : 4,
   "source_file" : "frameworks/native/libs/binder/ndk/include_cpp/android/binder_to_string.h"
  },
  {
   "alignment" : 4,
   "linker_set_key" : "_ZTIRKN4aidl7android8hardware4gnss17BlocklistedSourceE",
   "name" : "const aidl::android::hardware::gnss::BlocklistedSource &",
   "referenced_type" : "_ZTIKN4aidl7android8hardware4gnss17BlocklistedSourceE",
   "self_type" : "_ZTIRKN4aidl7android8hardware4gnss17BlocklistedSourceE",
   "size" : 4,
   "source_file" : "out/soong/.intermediates/hardware/interfaces/gnss/aidl/android.hardware.gnss-V1-ndk_platform-source/gen/include/aidl/android/hardware/gnss/BlocklistedSource.h"
  },
  {
   "alignment" : 4,
   "linker_set_key" : "_ZTIRKN4aidl7android8hardware4gnss17CorrelationVectorE",
   "name" : "const aidl::android::hardware::gnss::CorrelationVector &",
   "referenced_type" : "_ZTIKN4aidl7android8hardware4gnss17CorrelationVectorE",
   "self_type" : "_ZTIRKN4aidl7android8hardware4gnss17CorrelationVectorE",
   "size" : 4,
   "source_file" : "out/soong/.intermediates/hardware/interfaces/gnss/aidl/android.hardware.gnss-V1-ndk_platform-source/gen/include/aidl/android/hardware/gnss/CorrelationVector.h"
  },
  {
   "alignment" : 4,
   "linker_set_key" : "_ZTIRKN4aidl7android8hardware4gnss18SatelliteClockInfoE",
   "name" : "const aidl::android::hardware::gnss::SatelliteClockInfo &",
   "referenced_type" : "_ZTIKN4aidl7android8hardware4gnss18SatelliteClockInfoE",
   "self_type" : "_ZTIRKN4aidl7android8hardware4gnss18SatelliteClockInfoE",
   "size" : 4,
   "source_file" : "frameworks/native/libs/binder/ndk/include_cpp/android/binder_to_string.h"
  },
  {
   "alignment" : 4,
   "linker_set_key" : "_ZTIRKN4aidl7android8hardware4gnss21GnssConstellationTypeE",
   "name" : "const aidl::android::hardware::gnss::GnssConstellationType &",
   "referenced_type" : "_ZTIKN4aidl7android8hardware4gnss21GnssConstellationTypeE",
   "self_type" : "_ZTIRKN4aidl7android8hardware4gnss21GnssConstellationTypeE",
   "size" : 4,
   "source_file" : "frameworks/native/libs/binder/ndk/include_cpp/android/binder_to_string.h"
  },
  {
   "alignment" : 4,
   "linker_set_key" : "_ZTIRKN4aidl7android8hardware4gnss21SatellitePositionEcefE",
   "name" : "const aidl::android::hardware::gnss::SatellitePositionEcef &",
   "referenced_type" : "_ZTIKN4aidl7android8hardware4gnss21SatellitePositionEcefE",
   "self_type" : "_ZTIRKN4aidl7android8hardware4gnss21SatellitePositionEcefE",
   "size" : 4,
   "source_file" : "frameworks/native/libs/binder/ndk/include_cpp/android/binder_to_string.h"
  },
  {
   "alignment" : 4,
   "linker_set_key" : "_ZTIRKN4aidl7android8hardware4gnss21SatelliteVelocityEcefE",
   "name" : "const aidl::android::hardware::gnss::SatelliteVelocityEcef &",
   "referenced_type" : "_ZTIKN4aidl7android8hardware4gnss21SatelliteVelocityEcefE",
   "self_type" : "_ZTIRKN4aidl7android8hardware4gnss21SatelliteVelocityEcefE",
   "size" : 4,
   "source_file" : "frameworks/native/libs/binder/ndk/include_cpp/android/binder_to_string.h"
  },
  {
   "alignment" : 4,
   "linker_set_key" : "_ZTIRKN4aidl7android8hardware4gnss22GnssMultipathIndicatorE",
   "name" : "const aidl::android::hardware::gnss::GnssMultipathIndicator &",
   "referenced_type" : "_ZTIKN4aidl7android8hardware4gnss22GnssMultipathIndicatorE",
   "self_type" : "_ZTIRKN4aidl7android8hardware4gnss22GnssMultipathIndicatorE",
   "size" : 4,
   "source_file" : "frameworks/native/libs/binder/ndk/include_cpp/android/binder_to_string.h"
  },
  {
   "alignment" : 4,
   "linker_set_key" : "_ZTIRKN4aidl7android8hardware4gnss8GnssDataE",
   "name" : "const aidl::android::hardware::gnss::GnssData &",
   "referenced_type" : "_ZTIKN4aidl7android8hardware4gnss8GnssDataE",
   "self_type" : "_ZTIRKN4aidl7android8hardware4gnss8GnssDataE",
   "size" : 4,
   "source_file" : "out/soong/.intermediates/hardware/interfaces/gnss/aidl/android.hardware.gnss-V1-ndk_platform-source/gen/include/aidl/android/hardware/gnss/GnssData.h"
  },
  {
   "alignment" : 4,
   "linker_set_key" : "_ZTIRKN4aidl7android8hardware4gnss9GnssClockE",
   "name" : "const aidl::android::hardware::gnss::GnssClock &",
   "referenced_type" : "_ZTIKN4aidl7android8hardware4gnss9GnssClockE",
   "self_type" : "_ZTIRKN4aidl7android8hardware4gnss9GnssClockE",
   "size" : 4,
   "source_file" : "out/soong/.intermediates/hardware/interfaces/gnss/aidl/android.hardware.gnss-V1-ndk_platform-source/gen/include/aidl/android/hardware/gnss/GnssClock.h"
  },
  {
   "alignment" : 4,
   "linker_set_key" : "_ZTIRKNSt3__110shared_ptrIN4aidl7android8hardware4gnss13IGnssCallbackEEE",
   "name" : "const std::shared_ptr<aidl::android::hardware::gnss::IGnssCallback> &",
   "referenced_type" : "_ZTIKNSt3__110shared_ptrIN4aidl7android8hardware4gnss13IGnssCallbackEEE",
   "self_type" : "_ZTIRKNSt3__110shared_ptrIN4aidl7android8hardware4gnss13IGnssCallbackEEE",
   "size" : 4,
   "source_file" : "out/soong/.intermediates/hardware/interfaces/gnss/aidl/android.hardware.gnss-V1-ndk_platform-source/gen/include/aidl/android/hardware/gnss/IGnss.h"
  },
  {
   "alignment" : 4,
   "linker_set_key" : "_ZTIRKNSt3__110shared_ptrIN4aidl7android8hardware4gnss17IGnssPsdsCallbackEEE",
   "name" : "const std::shared_ptr<aidl::android::hardware::gnss::IGnssPsdsCallback> &",
   "referenced_type" : "_ZTIKNSt3__110shared_ptrIN4aidl7android8hardware4gnss17IGnssPsdsCallbackEEE",
   "self_type" : "_ZTIRKNSt3__110shared_ptrIN4aidl7android8hardware4gnss17IGnssPsdsCallbackEEE",
   "size" : 4,
   "source_file" : "out/soong/.intermediates/hardware/interfaces/gnss/aidl/android.hardware.gnss-V1-ndk_platform-source/gen/include/aidl/android/hardware/gnss/IGnssPsds.h"
  },
  {
   "alignment" : 4,
   "linker_set_key" : "_ZTIRKNSt3__110shared_ptrIN4aidl7android8hardware4gnss18IGnssConfigurationEEE",
   "name" : "const std::shared_ptr<aidl::android::hardware::gnss::IGnssConfiguration> &",
   "referenced_type" : "_ZTIKNSt3__110shared_ptrIN4aidl7android8hardware4gnss18IGnssConfigurationEEE",
   "self_type" : "_ZTIRKNSt3__110shared_ptrIN4aidl7android8hardware4gnss18IGnssConfigurationEEE",
   "size" : 4,
   "source_file" : "out/soong/.intermediates/hardware/interfaces/gnss/aidl/android.hardware.gnss-V1-ndk_platform-source/gen/include/aidl/android/hardware/gnss/IGnssConfiguration.h"
  },
  {
   "alignment" : 4,
   "linker_set_key" : "_ZTIRKNSt3__110shared_ptrIN4aidl7android8hardware4gnss20IGnssPowerIndicationEEE",
   "name" : "const std::shared_ptr<aidl::android::hardware::gnss::IGnssPowerIndication> &",
   "referenced_type" : "_ZTIKNSt3__110shared_ptrIN4aidl7android8hardware4gnss20IGnssPowerIndicationEEE",
   "self_type" : "_ZTIRKNSt3__110shared_ptrIN4aidl7android8hardware4gnss20IGnssPowerIndicationEEE",
   "size" : 4,
   "source_file" : "out/soong/.intermediates/hardware/interfaces/gnss/aidl/android.hardware.gnss-V1-ndk_platform-source/gen/include/aidl/android/hardware/gnss/IGnssPowerIndication.h"
  },
  {
   "alignment" : 4,
   "linker_set_key" : "_ZTIRKNSt3__110shared_ptrIN4aidl7android8hardware4gnss24IGnssMeasurementCallbackEEE",
   "name" : "const std::shared_ptr<aidl::android::hardware::gnss::IGnssMeasurementCallback> &",
   "referenced_type" : "_ZTIKNSt3__110shared_ptrIN4aidl7android8hardware4gnss24IGnssMeasurementCallbackEEE",
   "self_type" : "_ZTIRKNSt3__110shared_ptrIN4aidl7android8hardware4gnss24IGnssMeasurementCallbackEEE",
   "size" : 4,
   "source_file" : "out/soong/.intermediates/hardware/interfaces/gnss/aidl/android.hardware.gnss-V1-ndk_platform-source/gen/include/aidl/android/hardware/gnss/IGnssMeasurementCallback.h"
  },
  {
   "alignment" : 4,
   "linker_set_key" : "_ZTIRKNSt3__110shared_ptrIN4aidl7android8hardware4gnss25IGnssMeasurementInterfaceEEE",
   "name" : "const std::shared_ptr<aidl::android::hardware::gnss::IGnssMeasurementInterface> &",
   "referenced_type" : "_ZTIKNSt3__110shared_ptrIN4aidl7android8hardware4gnss25IGnssMeasurementInterfaceEEE",
   "self_type" : "_ZTIRKNSt3__110shared_ptrIN4aidl7android8hardware4gnss25IGnssMeasurementInterfaceEEE",
   "size" : 4,
   "source_file" : "out/soong/.intermediates/hardware/interfaces/gnss/aidl/android.hardware.gnss-V1-ndk_platform-source/gen/include/aidl/android/hardware/gnss/IGnssMeasurementInterface.h"
  },
  {
   "alignment" : 4,
   "linker_set_key" : "_ZTIRKNSt3__110shared_ptrIN4aidl7android8hardware4gnss28IGnssPowerIndicationCallbackEEE",
   "name" : "const std::shared_ptr<aidl::android::hardware::gnss::IGnssPowerIndicationCallback> &",
   "referenced_type" : "_ZTIKNSt3__110shared_ptrIN4aidl7android8hardware4gnss28IGnssPowerIndicationCallbackEEE",
   "self_type" : "_ZTIRKNSt3__110shared_ptrIN4aidl7android8hardware4gnss28IGnssPowerIndicationCallbackEEE",
   "size" : 4,
   "source_file" : "out/soong/.intermediates/hardware/interfaces/gnss/aidl/android.hardware.gnss-V1-ndk_platform-source/gen/include/aidl/android/hardware/gnss/IGnssPowerIndication.h"
  },
  {
   "alignment" : 4,
   "linker_set_key" : "_ZTIRKNSt3__110shared_ptrIN4aidl7android8hardware4gnss5IGnssEEE",
   "name" : "const std::shared_ptr<aidl::android::hardware::gnss::IGnss> &",
   "referenced_type" : "_ZTIKNSt3__110shared_ptrIN4aidl7android8hardware4gnss5IGnssEEE",
   "self_type" : "_ZTIRKNSt3__110shared_ptrIN4aidl7android8hardware4gnss5IGnssEEE",
   "size" : 4,
   "source_file" : "out/soong/.intermediates/hardware/interfaces/gnss/aidl/android.hardware.gnss-V1-ndk_platform-source/gen/include/aidl/android/hardware/gnss/IGnss.h"
  },
  {
   "alignment" : 4,
   "linker_set_key" : "_ZTIRKNSt3__110shared_ptrIN4aidl7android8hardware4gnss9IGnssPsdsEEE",
   "name" : "const std::shared_ptr<aidl::android::hardware::gnss::IGnssPsds> &",
   "referenced_type" : "_ZTIKNSt3__110shared_ptrIN4aidl7android8hardware4gnss9IGnssPsdsEEE",
   "self_type" : "_ZTIRKNSt3__110shared_ptrIN4aidl7android8hardware4gnss9IGnssPsdsEEE",
   "size" : 4,
   "source_file" : "out/soong/.intermediates/hardware/interfaces/gnss/aidl/android.hardware.gnss-V1-ndk_platform-source/gen/include/aidl/android/hardware/gnss/IGnssPsds.h"
  },
  {
   "alignment" : 4,
   "linker_set_key" : "_ZTIRKNSt3__112basic_stringIcNS_11char_traitsIcEENS_9allocatorIcEEEE",
   "name" : "const std::basic_string<char, std::char_traits<char>, std::allocator<char>> &",
   "referenced_type" : "_ZTIKNSt3__112basic_stringIcNS_11char_traitsIcEENS_9allocatorIcEEEE",
   "self_type" : "_ZTIRKNSt3__112basic_stringIcNS_11char_traitsIcEENS_9allocatorIcEEEE",
   "size" : 4,
   "source_file" : "frameworks/native/libs/binder/ndk/include_cpp/android/binder_to_string.h"
  },
  {
   "alignment" : 4,
   "linker_set_key" : "_ZTIRKNSt3__16vectorIDsNS_9allocatorIDsEEEE",
   "name" : "const std::vector<char16_t, std::allocator<char16_t>> &",
   "referenced_type" : "_ZTIKNSt3__16vectorIDsNS_9allocatorIDsEEEE",
   "self_type" : "_ZTIRKNSt3__16vectorIDsNS_9allocatorIDsEEEE",
   "size" : 4,
   "source_file" : "frameworks/native/libs/binder/ndk/include_cpp/android/binder_parcel_utils.h"
  },
  {
   "alignment" : 4,
   "linker_set_key" : "_ZTIRKNSt3__16vectorIN4aidl7android8hardware4gnss15GnssMeasurementENS_9allocatorIS5_EEEE",
   "name" : "const std::vector<aidl::android::hardware::gnss::GnssMeasurement, std::allocator<aidl::android::hardware::gnss::GnssMeasurement>> &",
   "referenced_type" : "_ZTIKNSt3__16vectorIN4aidl7android8hardware4gnss15GnssMeasurementENS_9allocatorIS5_EEEE",
   "self_type" : "_ZTIRKNSt3__16vectorIN4aidl7android8hardware4gnss15GnssMeasurementENS_9allocatorIS5_EEEE",
   "size" : 4,
   "source_file" : "frameworks/native/libs/binder/ndk/include_cpp/android/binder_to_string.h"
  },
  {
   "alignment" : 4,
   "linker_set_key" : "_ZTIRKNSt3__16vectorIN4aidl7android8hardware4gnss17BlocklistedSourceENS_9allocatorIS5_EEEE",
   "name" : "const std::vector<aidl::android::hardware::gnss::BlocklistedSource, std::allocator<aidl::android::hardware::gnss::BlocklistedSource>> &",
   "referenced_type" : "_ZTIKNSt3__16vectorIN4aidl7android8hardware4gnss17BlocklistedSourceENS_9allocatorIS5_EEEE",
   "self_type" : "_ZTIRKNSt3__16vectorIN4aidl7android8hardware4gnss17BlocklistedSourceENS_9allocatorIS5_EEEE",
   "size" : 4,
   "source_file" : "out/soong/.intermediates/hardware/interfaces/gnss/aidl/android.hardware.gnss-V1-ndk_platform-source/gen/include/aidl/android/hardware/gnss/IGnssConfiguration.h"
  },
  {
   "alignment" : 4,
   "linker_set_key" : "_ZTIRKNSt3__16vectorIN4aidl7android8hardware4gnss17CorrelationVectorENS_9allocatorIS5_EEEE",
   "name" : "const std::vector<aidl::android::hardware::gnss::CorrelationVector, std::allocator<aidl::android::hardware::gnss::CorrelationVector>> &",
   "referenced_type" : "_ZTIKNSt3__16vectorIN4aidl7android8hardware4gnss17CorrelationVectorENS_9allocatorIS5_EEEE",
   "self_type" : "_ZTIRKNSt3__16vectorIN4aidl7android8hardware4gnss17CorrelationVectorENS_9allocatorIS5_EEEE",
   "size" : 4,
   "source_file" : "frameworks/native/libs/binder/ndk/include_cpp/android/binder_to_string.h"
  },
  {
   "alignment" : 4,
   "linker_set_key" : "_ZTIRKNSt3__16vectorIbNS_9allocatorIbEEEE",
   "name" : "const std::vector<bool, std::allocator<bool>> &",
   "referenced_type" : "_ZTIKNSt3__16vectorIbNS_9allocatorIbEEEE",
   "self_type" : "_ZTIRKNSt3__16vectorIbNS_9allocatorIbEEEE",
   "size" : 4,
   "source_file" : "frameworks/native/libs/binder/ndk/include_cpp/android/binder_parcel_utils.h"
  },
  {
   "alignment" : 4,
   "linker_set_key" : "_ZTIRKNSt3__16vectorIdNS_9allocatorIdEEEE",
   "name" : "const std::vector<double, std::allocator<double>> &",
   "referenced_type" : "_ZTIKNSt3__16vectorIdNS_9allocatorIdEEEE",
   "self_type" : "_ZTIRKNSt3__16vectorIdNS_9allocatorIdEEEE",
   "size" : 4,
   "source_file" : "frameworks/native/libs/binder/ndk/include_cpp/android/binder_parcel_utils.h"
  },
  {
   "alignment" : 4,
   "linker_set_key" : "_ZTIRKNSt3__16vectorIfNS_9allocatorIfEEEE",
   "name" : "const std::vector<float, std::allocator<float>> &",
   "referenced_type" : "_ZTIKNSt3__16vectorIfNS_9allocatorIfEEEE",
   "self_type" : "_ZTIRKNSt3__16vectorIfNS_9allocatorIfEEEE",
   "size" : 4,
   "source_file" : "frameworks/native/libs/binder/ndk/include_cpp/android/binder_parcel_utils.h"
  },
  {
   "alignment" : 4,
   "linker_set_key" : "_ZTIRKNSt3__16vectorIhNS_9allocatorIhEEEE",
   "name" : "const std::vector<unsigned char, std::allocator<unsigned char>> &",
   "referenced_type" : "_ZTIKNSt3__16vectorIhNS_9allocatorIhEEEE",
   "self_type" : "_ZTIRKNSt3__16vectorIhNS_9allocatorIhEEEE",
   "size" : 4,
   "source_file" : "frameworks/native/libs/binder/ndk/include_cpp/android/binder_parcel_utils.h"
  },
  {
   "alignment" : 4,
   "linker_set_key" : "_ZTIRKNSt3__16vectorIiNS_9allocatorIiEEEE",
   "name" : "const std::vector<int, std::allocator<int>> &",
   "referenced_type" : "_ZTIKNSt3__16vectorIiNS_9allocatorIiEEEE",
   "self_type" : "_ZTIRKNSt3__16vectorIiNS_9allocatorIiEEEE",
   "size" : 4,
   "source_file" : "frameworks/native/libs/binder/ndk/include_cpp/android/binder_parcel_utils.h"
  },
  {
   "alignment" : 4,
   "linker_set_key" : "_ZTIRKNSt3__16vectorIjNS_9allocatorIjEEEE",
   "name" : "const std::vector<unsigned int, std::allocator<unsigned int>> &",
   "referenced_type" : "_ZTIKNSt3__16vectorIjNS_9allocatorIjEEEE",
   "self_type" : "_ZTIRKNSt3__16vectorIjNS_9allocatorIjEEEE",
   "size" : 4,
   "source_file" : "frameworks/native/libs/binder/ndk/include_cpp/android/binder_parcel_utils.h"
  },
  {
   "alignment" : 4,
   "linker_set_key" : "_ZTIRKNSt3__16vectorIxNS_9allocatorIxEEEE",
   "name" : "const std::vector<long long, std::allocator<long long>> &",
   "referenced_type" : "_ZTIKNSt3__16vectorIxNS_9allocatorIxEEEE",
   "self_type" : "_ZTIRKNSt3__16vectorIxNS_9allocatorIxEEEE",
   "size" : 4,
   "source_file" : "frameworks/native/libs/binder/ndk/include_cpp/android/binder_parcel_utils.h"
  },
  {
   "alignment" : 4,
   "linker_set_key" : "_ZTIRKNSt3__16vectorIyNS_9allocatorIyEEEE",
   "name" : "const std::vector<unsigned long long, std::allocator<unsigned long long>> &",
   "referenced_type" : "_ZTIKNSt3__16vectorIyNS_9allocatorIyEEEE",
   "self_type" : "_ZTIRKNSt3__16vectorIyNS_9allocatorIyEEEE",
   "size" : 4,
   "source_file" : "frameworks/native/libs/binder/ndk/include_cpp/android/binder_parcel_utils.h"
  },
  {
   "alignment" : 4,
   "linker_set_key" : "_ZTIRKNSt3__18optionalINS_6vectorIDsNS_9allocatorIDsEEEEEE",
   "name" : "const std::optional<std::vector<char16_t, std::allocator<char16_t>>> &",
   "referenced_type" : "_ZTIKNSt3__18optionalINS_6vectorIDsNS_9allocatorIDsEEEEEE",
   "self_type" : "_ZTIRKNSt3__18optionalINS_6vectorIDsNS_9allocatorIDsEEEEEE",
   "size" : 4,
   "source_file" : "frameworks/native/libs/binder/ndk/include_cpp/android/binder_parcel_utils.h"
  },
  {
   "alignment" : 4,
   "linker_set_key" : "_ZTIRKNSt3__18optionalINS_6vectorIbNS_9allocatorIbEEEEEE",
   "name" : "const std::optional<std::vector<bool, std::allocator<bool>>> &",
   "referenced_type" : "_ZTIKNSt3__18optionalINS_6vectorIbNS_9allocatorIbEEEEEE",
   "self_type" : "_ZTIRKNSt3__18optionalINS_6vectorIbNS_9allocatorIbEEEEEE",
   "size" : 4,
   "source_file" : "frameworks/native/libs/binder/ndk/include_cpp/android/binder_parcel_utils.h"
  },
  {
   "alignment" : 4,
   "linker_set_key" : "_ZTIRKNSt3__18optionalINS_6vectorIdNS_9allocatorIdEEEEEE",
   "name" : "const std::optional<std::vector<double, std::allocator<double>>> &",
   "referenced_type" : "_ZTIKNSt3__18optionalINS_6vectorIdNS_9allocatorIdEEEEEE",
   "self_type" : "_ZTIRKNSt3__18optionalINS_6vectorIdNS_9allocatorIdEEEEEE",
   "size" : 4,
   "source_file" : "frameworks/native/libs/binder/ndk/include_cpp/android/binder_parcel_utils.h"
  },
  {
   "alignment" : 4,
   "linker_set_key" : "_ZTIRKNSt3__18optionalINS_6vectorIfNS_9allocatorIfEEEEEE",
   "name" : "const std::optional<std::vector<float, std::allocator<float>>> &",
   "referenced_type" : "_ZTIKNSt3__18optionalINS_6vectorIfNS_9allocatorIfEEEEEE",
   "self_type" : "_ZTIRKNSt3__18optionalINS_6vectorIfNS_9allocatorIfEEEEEE",
   "size" : 4,
   "source_file" : "frameworks/native/libs/binder/ndk/include_cpp/android/binder_parcel_utils.h"
  },
  {
   "alignment" : 4,
   "linker_set_key" : "_ZTIRKNSt3__18optionalINS_6vectorIhNS_9allocatorIhEEEEEE",
   "name" : "const std::optional<std::vector<unsigned char, std::allocator<unsigned char>>> &",
   "referenced_type" : "_ZTIKNSt3__18optionalINS_6vectorIhNS_9allocatorIhEEEEEE",
   "self_type" : "_ZTIRKNSt3__18optionalINS_6vectorIhNS_9allocatorIhEEEEEE",
   "size" : 4,
   "source_file" : "frameworks/native/libs/binder/ndk/include_cpp/android/binder_parcel_utils.h"
  },
  {
   "alignment" : 4,
   "linker_set_key" : "_ZTIRKNSt3__18optionalINS_6vectorIiNS_9allocatorIiEEEEEE",
   "name" : "const std::optional<std::vector<int, std::allocator<int>>> &",
   "referenced_type" : "_ZTIKNSt3__18optionalINS_6vectorIiNS_9allocatorIiEEEEEE",
   "self_type" : "_ZTIRKNSt3__18optionalINS_6vectorIiNS_9allocatorIiEEEEEE",
   "size" : 4,
   "source_file" : "frameworks/native/libs/binder/ndk/include_cpp/android/binder_parcel_utils.h"
  },
  {
   "alignment" : 4,
   "linker_set_key" : "_ZTIRKNSt3__18optionalINS_6vectorIjNS_9allocatorIjEEEEEE",
   "name" : "const std::optional<std::vector<unsigned int, std::allocator<unsigned int>>> &",
   "referenced_type" : "_ZTIKNSt3__18optionalINS_6vectorIjNS_9allocatorIjEEEEEE",
   "self_type" : "_ZTIRKNSt3__18optionalINS_6vectorIjNS_9allocatorIjEEEEEE",
   "size" : 4,
   "source_file" : "frameworks/native/libs/binder/ndk/include_cpp/android/binder_parcel_utils.h"
  },
  {
   "alignment" : 4,
   "linker_set_key" : "_ZTIRKNSt3__18optionalINS_6vectorIxNS_9allocatorIxEEEEEE",
   "name" : "const std::optional<std::vector<long long, std::allocator<long long>>> &",
   "referenced_type" : "_ZTIKNSt3__18optionalINS_6vectorIxNS_9allocatorIxEEEEEE",
   "self_type" : "_ZTIRKNSt3__18optionalINS_6vectorIxNS_9allocatorIxEEEEEE",
   "size" : 4,
   "source_file" : "frameworks/native/libs/binder/ndk/include_cpp/android/binder_parcel_utils.h"
  },
  {
   "alignment" : 4,
   "linker_set_key" : "_ZTIRKNSt3__18optionalINS_6vectorIyNS_9allocatorIyEEEEEE",
   "name" : "const std::optional<std::vector<unsigned long long, std::allocator<unsigned long long>>> &",
   "referenced_type" : "_ZTIKNSt3__18optionalINS_6vectorIyNS_9allocatorIyEEEEEE",
   "self_type" : "_ZTIRKNSt3__18optionalINS_6vectorIyNS_9allocatorIyEEEEEE",
   "size" : 4,
   "source_file" : "frameworks/native/libs/binder/ndk/include_cpp/android/binder_parcel_utils.h"
  },
  {
   "alignment" : 4,
   "linker_set_key" : "_ZTIRKd",
   "name" : "const double &",
   "referenced_type" : "_ZTIKd",
   "self_type" : "_ZTIRKd",
   "size" : 4,
   "source_file" : "frameworks/native/libs/binder/ndk/include_cpp/android/binder_to_string.h"
  },
  {
   "alignment" : 4,
   "linker_set_key" : "_ZTIRKi",
   "name" : "const int &",
   "referenced_type" : "_ZTIKi",
   "self_type" : "_ZTIRKi",
   "size" : 4,
   "source_file" : "frameworks/native/libs/binder/ndk/include_cpp/android/binder_to_string.h"
  },
  {
   "alignment" : 4,
   "linker_set_key" : "_ZTIRKx",
   "name" : "const long long &",
   "referenced_type" : "_ZTIKx",
   "self_type" : "_ZTIRKx",
   "size" : 4,
   "source_file" : "frameworks/native/libs/binder/ndk/include_cpp/android/binder_to_string.h"
  },
  {
   "alignment" : 4,
   "linker_set_key" : "_ZTIRN3ndk10SpAIBinderE",
   "name" : "ndk::SpAIBinder &",
   "referenced_type" : "_ZTIN3ndk10SpAIBinderE",
   "self_type" : "_ZTIRN3ndk10SpAIBinderE",
   "size" : 4,
   "source_file" : "frameworks/native/libs/binder/ndk/include_cpp/android/binder_auto_utils.h"
  },
  {
   "alignment" : 4,
   "linker_set_key" : "_ZTIRN3ndk13ScopedAParcelE",
   "name" : "ndk::ScopedAParcel &",
   "referenced_type" : "_ZTIN3ndk13ScopedAParcelE",
   "self_type" : "_ZTIRN3ndk13ScopedAParcelE",
   "size" : 4,
   "source_file" : "frameworks/native/libs/binder/ndk/include_cpp/android/binder_auto_utils.h"
  },
  {
   "alignment" : 4,
   "linker_set_key" : "_ZTIRN3ndk13ScopedAStatusE",
   "name" : "ndk::ScopedAStatus &",
   "referenced_type" : "_ZTIN3ndk13ScopedAStatusE",
   "self_type" : "_ZTIRN3ndk13ScopedAStatusE",
   "size" : 4,
   "source_file" : "frameworks/native/libs/binder/ndk/include_cpp/android/binder_auto_utils.h"
  },
  {
   "alignment" : 4,
   "linker_set_key" : "_ZTIRN3ndk19ScopedAIBinder_WeakE",
   "name" : "ndk::ScopedAIBinder_Weak &",
   "referenced_type" : "_ZTIN3ndk19ScopedAIBinder_WeakE",
   "self_type" : "_ZTIRN3ndk19ScopedAIBinder_WeakE",
   "size" : 4,
   "source_file" : "frameworks/native/libs/binder/ndk/include_cpp/android/binder_auto_utils.h"
  },
  {
   "alignment" : 4,
   "linker_set_key" : "_ZTIRN3ndk20ScopedFileDescriptorE",
   "name" : "ndk::ScopedFileDescriptor &",
   "referenced_type" : "_ZTIN3ndk20ScopedFileDescriptorE",
   "self_type" : "_ZTIRN3ndk20ScopedFileDescriptorE",
   "size" : 4,
   "source_file" : "frameworks/native/libs/binder/ndk/include_cpp/android/binder_auto_utils.h"
  },
  {
   "alignment" : 4,
   "linker_set_key" : "_ZTIRN3ndk29ScopedAIBinder_DeathRecipientE",
   "name" : "ndk::ScopedAIBinder_DeathRecipient &",
   "referenced_type" : "_ZTIN3ndk29ScopedAIBinder_DeathRecipientE",
   "self_type" : "_ZTIRN3ndk29ScopedAIBinder_DeathRecipientE",
   "size" : 4,
   "source_file" : "frameworks/native/libs/binder/ndk/include_cpp/android/binder_auto_utils.h"
  },
  {
   "alignment" : 4,
   "linker_set_key" : "_ZTIRN3ndk4impl15ScopedAResourceIP7AStatusXadL_Z14AStatus_deleteEELS3_0EEE",
   "name" : "ndk::impl::ScopedAResource<AStatus *, &AStatus_delete, nullptr> &",
   "referenced_type" : "_ZTIN3ndk4impl15ScopedAResourceIP7AStatusXadL_Z14AStatus_deleteEELS3_0EEE",
   "self_type" : "_ZTIRN3ndk4impl15ScopedAResourceIP7AStatusXadL_Z14AStatus_deleteEELS3_0EEE",
   "size" : 4,
   "source_file" : "frameworks/native/libs/binder/ndk/include_cpp/android/binder_auto_utils.h"
  }
 ],
 "pointer_types" :
 [
  {
   "alignment" : 4,
   "linker_set_key" : "_ZTIP13AIBinder_Weak",
   "name" : "AIBinder_Weak *",
   "referenced_type" : "_ZTI13AIBinder_Weak",
   "self_type" : "_ZTIP13AIBinder_Weak",
   "size" : 4,
   "source_file" : "frameworks/native/libs/binder/ndk/include_cpp/android/binder_auto_utils.h"
  },
  {
   "alignment" : 4,
   "linker_set_key" : "_ZTIP14AIBinder_Class",
   "name" : "AIBinder_Class *",
   "referenced_type" : "_ZTI14AIBinder_Class",
   "self_type" : "_ZTIP14AIBinder_Class",
   "size" : 4,
   "source_file" : "frameworks/native/libs/binder/ndk/include_cpp/android/binder_interface_utils.h"
  },
  {
   "alignment" : 4,
   "linker_set_key" : "_ZTIP23AIBinder_DeathRecipient",
   "name" : "AIBinder_DeathRecipient *",
   "referenced_type" : "_ZTI23AIBinder_DeathRecipient",
   "self_type" : "_ZTIP23AIBinder_DeathRecipient",
   "size" : 4,
   "source_file" : "frameworks/native/libs/binder/ndk/include_cpp/android/binder_auto_utils.h"
  },
  {
   "alignment" : 4,
   "linker_set_key" : "_ZTIP7AParcel",
   "name" : "AParcel *",
   "referenced_type" : "_ZTI7AParcel",
   "self_type" : "_ZTIP7AParcel",
   "size" : 4,
   "source_file" : "frameworks/native/libs/binder/ndk/include_cpp/android/binder_auto_utils.h"
  },
  {
   "alignment" : 4,
   "linker_set_key" : "_ZTIP7AStatus",
   "name" : "AStatus *",
   "referenced_type" : "_ZTI7AStatus",
   "self_type" : "_ZTIP7AStatus",
   "size" : 4,
   "source_file" : "frameworks/native/libs/binder/ndk/include_cpp/android/binder_auto_utils.h"
  },
  {
   "alignment" : 4,
   "linker_set_key" : "_ZTIP8AIBinder",
   "name" : "AIBinder *",
   "referenced_type" : "_ZTI8AIBinder",
   "self_type" : "_ZTIP8AIBinder",
   "size" : 4,
   "source_file" : "frameworks/native/libs/binder/ndk/include_cpp/android/binder_auto_utils.h"
  },
  {
   "alignment" : 4,
   "linker_set_key" : "_ZTIPFiP8AIBinderjPK7AParcelPS1_E",
   "name" : "int (*)(AIBinder *, unsigned int, const AParcel *, AParcel *)",
   "referenced_type" : "_ZTIFiP8AIBinderjPK7AParcelPS1_E",
   "self_type" : "_ZTIPFiP8AIBinderjPK7AParcelPS1_E",
   "size" : 4,
   "source_file" : "frameworks/native/libs/binder/ndk/include_cpp/android/binder_interface_utils.h"
  },
  {
   "alignment" : 4,
   "linker_set_key" : "_ZTIPK7AParcel",
   "name" : "const AParcel *",
   "referenced_type" : "_ZTIK7AParcel",
   "self_type" : "_ZTIPK7AParcel",
   "size" : 4,
   "source_file" : "frameworks/native/libs/binder/ndk/include_cpp/android/binder_interface_utils.h"
  },
  {
   "alignment" : 4,
   "linker_set_key" : "_ZTIPKN3ndk10SpAIBinderE",
   "name" : "const ndk::SpAIBinder *",
   "referenced_type" : "_ZTIKN3ndk10SpAIBinderE",
   "self_type" : "_ZTIPKN3ndk10SpAIBinderE",
   "size" : 4,
   "source_file" : "frameworks/native/libs/binder/ndk/include_cpp/android/binder_auto_utils.h"
  },
  {
   "alignment" : 4,
   "linker_set_key" : "_ZTIPKN3ndk13ScopedAParcelE",
   "name" : "const ndk::ScopedAParcel *",
   "referenced_type" : "_ZTIKN3ndk13ScopedAParcelE",
   "self_type" : "_ZTIPKN3ndk13ScopedAParcelE",
   "size" : 4,
   "source_file" : "frameworks/native/libs/binder/ndk/include_cpp/android/binder_auto_utils.h"
  },
  {
   "alignment" : 4,
   "linker_set_key" : "_ZTIPKN3ndk13ScopedAStatusE",
   "name" : "const ndk::ScopedAStatus *",
   "referenced_type" : "_ZTIKN3ndk13ScopedAStatusE",
   "self_type" : "_ZTIPKN3ndk13ScopedAStatusE",
   "size" : 4,
   "source_file" : "frameworks/native/libs/binder/ndk/include_cpp/android/binder_auto_utils.h"
  },
  {
   "alignment" : 4,
   "linker_set_key" : "_ZTIPKN3ndk17AParcelableHolderE",
   "name" : "const ndk::AParcelableHolder *",
   "referenced_type" : "_ZTIKN3ndk17AParcelableHolderE",
   "self_type" : "_ZTIPKN3ndk17AParcelableHolderE",
   "size" : 4,
   "source_file" : "frameworks/native/libs/binder/ndk/include_cpp/android/binder_parcelable_utils.h"
  },
  {
   "alignment" : 4,
   "linker_set_key" : "_ZTIPKN3ndk20ScopedFileDescriptorE",
   "name" : "const ndk::ScopedFileDescriptor *",
   "referenced_type" : "_ZTIKN3ndk20ScopedFileDescriptorE",
   "self_type" : "_ZTIPKN3ndk20ScopedFileDescriptorE",
   "size" : 4,
   "source_file" : "frameworks/native/libs/binder/ndk/include_cpp/android/binder_auto_utils.h"
  },
  {
   "alignment" : 4,
   "linker_set_key" : "_ZTIPKN3ndk4impl15ScopedAResourceIP7AParcelXadL_Z14AParcel_deleteEELS3_0EEE",
   "name" : "const ndk::impl::ScopedAResource<AParcel *, &AParcel_delete, nullptr> *",
   "referenced_type" : "_ZTIKN3ndk4impl15ScopedAResourceIP7AParcelXadL_Z14AParcel_deleteEELS3_0EEE",
   "self_type" : "_ZTIPKN3ndk4impl15ScopedAResourceIP7AParcelXadL_Z14AParcel_deleteEELS3_0EEE",
   "size" : 4,
   "source_file" : "frameworks/native/libs/binder/ndk/include_cpp/android/binder_auto_utils.h"
  },
  {
   "alignment" : 4,
   "linker_set_key" : "_ZTIPKN3ndk4impl15ScopedAResourceIP7AStatusXadL_Z14AStatus_deleteEELS3_0EEE",
   "name" : "const ndk::impl::ScopedAResource<AStatus *, &AStatus_delete, nullptr> *",
   "referenced_type" : "_ZTIKN3ndk4impl15ScopedAResourceIP7AStatusXadL_Z14AStatus_deleteEELS3_0EEE",
   "self_type" : "_ZTIPKN3ndk4impl15ScopedAResourceIP7AStatusXadL_Z14AStatus_deleteEELS3_0EEE",
   "size" : 4,
   "source_file" : "frameworks/native/libs/binder/ndk/include_cpp/android/binder_auto_utils.h"
  },
  {
   "alignment" : 4,
   "linker_set_key" : "_ZTIPKN4aidl7android8hardware4gnss12SatellitePvtE",
   "name" : "const aidl::android::hardware::gnss::SatellitePvt *",
   "referenced_type" : "_ZTIKN4aidl7android8hardware4gnss12SatellitePvtE",
   "self_type" : "_ZTIPKN4aidl7android8hardware4gnss12SatellitePvtE",
   "size" : 4,
   "source_file" : "out/soong/.intermediates/hardware/interfaces/gnss/aidl/android.hardware.gnss-V1-ndk_platform-source/gen/include/aidl/android/hardware/gnss/SatellitePvt.h"
  },
  {
   "alignment" : 4,
   "linker_set_key" : "_ZTIPKN4aidl7android8hardware4gnss14GnssPowerStatsE",
   "name" : "const aidl::android::hardware::gnss::GnssPowerStats *",
   "referenced_type" : "_ZTIKN4aidl7android8hardware4gnss14GnssPowerStatsE",
   "self_type" : "_ZTIPKN4aidl7android8hardware4gnss14GnssPowerStatsE",
   "size" : 4,
   "source_file" : "out/soong/.intermediates/hardware/interfaces/gnss/aidl/android.hardware.gnss-V1-ndk_platform-source/gen/include/aidl/android/hardware/gnss/GnssPowerStats.h"
  },
  {
   "alignment" : 4,
   "linker_set_key" : "_ZTIPKN4aidl7android8hardware4gnss14GnssSignalTypeE",
   "name" : "const aidl::android::hardware::gnss::GnssSignalType *",
   "referenced_type" : "_ZTIKN4aidl7android8hardware4gnss14GnssSignalTypeE",
   "self_type" : "_ZTIPKN4aidl7android8hardware4gnss14GnssSignalTypeE",
   "size" : 4,
   "source_file" : "out/soong/.intermediates/hardware/interfaces/gnss/aidl/android.hardware.gnss-V1-ndk_platform-source/gen/include/aidl/android/hardware/gnss/GnssSignalType.h"
  },
  {
   "alignment" : 4,
   "linker_set_key" : "_ZTIPKN4aidl7android8hardware4gnss15ElapsedRealtimeE",
   "name" : "const aidl::android::hardware::gnss::ElapsedRealtime *",
   "referenced_type" : "_ZTIKN4aidl7android8hardware4gnss15ElapsedRealtimeE",
   "self_type" : "_ZTIPKN4aidl7android8hardware4gnss15ElapsedRealtimeE",
   "size" : 4,
   "source_file" : "out/soong/.intermediates/hardware/interfaces/gnss/aidl/android.hardware.gnss-V1-ndk_platform-source/gen/include/aidl/android/hardware/gnss/ElapsedRealtime.h"
  },
  {
   "alignment" : 4,
   "linker_set_key" : "_ZTIPKN4aidl7android8hardware4gnss15GnssMeasurementE",
   "name" : "const aidl::android::hardware::gnss::GnssMeasurement *",
   "referenced_type" : "_ZTIKN4aidl7android8hardware4gnss15GnssMeasurementE",
   "self_type" : "_ZTIPKN4aidl7android8hardware4gnss15GnssMeasurementE",
   "size" : 4,
   "source_file" : "out/soong/.intermediates/hardware/interfaces/gnss/aidl/android.hardware.gnss-V1-ndk_platform-source/gen/include/aidl/android/hardware/gnss/GnssMeasurement.h"
  },
  {
   "alignment" : 4,
   "linker_set_key" : "_ZTIPKN4aidl7android8hardware4gnss17BlocklistedSourceE",
   "name" : "const aidl::android::hardware::gnss::BlocklistedSource *",
   "referenced_type" : "_ZTIKN4aidl7android8hardware4gnss17BlocklistedSourceE",
   "self_type" : "_ZTIPKN4aidl7android8hardware4gnss17BlocklistedSourceE",
   "size" : 4,
   "source_file" : "out/soong/.intermediates/hardware/interfaces/gnss/aidl/android.hardware.gnss-V1-ndk_platform-source/gen/include/aidl/android/hardware/gnss/BlocklistedSource.h"
  },
  {
   "alignment" : 4,
   "linker_set_key" : "_ZTIPKN4aidl7android8hardware4gnss17CorrelationVectorE",
   "name" : "const aidl::android::hardware::gnss::CorrelationVector *",
   "referenced_type" : "_ZTIKN4aidl7android8hardware4gnss17CorrelationVectorE",
   "self_type" : "_ZTIPKN4aidl7android8hardware4gnss17CorrelationVectorE",
   "size" : 4,
   "source_file" : "out/soong/.intermediates/hardware/interfaces/gnss/aidl/android.hardware.gnss-V1-ndk_platform-source/gen/include/aidl/android/hardware/gnss/CorrelationVector.h"
  },
  {
   "alignment" : 4,
   "linker_set_key" : "_ZTIPKN4aidl7android8hardware4gnss18SatelliteClockInfoE",
   "name" : "const aidl::android::hardware::gnss::SatelliteClockInfo *",
   "referenced_type" : "_ZTIKN4aidl7android8hardware4gnss18SatelliteClockInfoE",
   "self_type" : "_ZTIPKN4aidl7android8hardware4gnss18SatelliteClockInfoE",
   "size" : 4,
   "source_file" : "out/soong/.intermediates/hardware/interfaces/gnss/aidl/android.hardware.gnss-V1-ndk_platform-source/gen/include/aidl/android/hardware/gnss/SatelliteClockInfo.h"
  },
  {
   "alignment" : 4,
   "linker_set_key" : "_ZTIPKN4aidl7android8hardware4gnss21SatellitePositionEcefE",
   "name" : "const aidl::android::hardware::gnss::SatellitePositionEcef *",
   "referenced_type" : "_ZTIKN4aidl7android8hardware4gnss21SatellitePositionEcefE",
   "self_type" : "_ZTIPKN4aidl7android8hardware4gnss21SatellitePositionEcefE",
   "size" : 4,
   "source_file" : "out/soong/.intermediates/hardware/interfaces/gnss/aidl/android.hardware.gnss-V1-ndk_platform-source/gen/include/aidl/android/hardware/gnss/SatellitePositionEcef.h"
  },
  {
   "alignment" : 4,
   "linker_set_key" : "_ZTIPKN4aidl7android8hardware4gnss21SatelliteVelocityEcefE",
   "name" : "const aidl::android::hardware::gnss::SatelliteVelocityEcef *",
   "referenced_type" : "_ZTIKN4aidl7android8hardware4gnss21SatelliteVelocityEcefE",
   "self_type" : "_ZTIPKN4aidl7android8hardware4gnss21SatelliteVelocityEcefE",
   "size" : 4,
   "source_file" : "out/soong/.intermediates/hardware/interfaces/gnss/aidl/android.hardware.gnss-V1-ndk_platform-source/gen/include/aidl/android/hardware/gnss/SatelliteVelocityEcef.h"
  },
  {
   "alignment" : 4,
   "linker_set_key" : "_ZTIPKN4aidl7android8hardware4gnss8GnssDataE",
   "name" : "const aidl::android::hardware::gnss::GnssData *",
   "referenced_type" : "_ZTIKN4aidl7android8hardware4gnss8GnssDataE",
   "self_type" : "_ZTIPKN4aidl7android8hardware4gnss8GnssDataE",
   "size" : 4,
   "source_file" : "out/soong/.intermediates/hardware/interfaces/gnss/aidl/android.hardware.gnss-V1-ndk_platform-source/gen/include/aidl/android/hardware/gnss/GnssData.h"
  },
  {
   "alignment" : 4,
   "linker_set_key" : "_ZTIPKN4aidl7android8hardware4gnss9GnssClockE",
   "name" : "const aidl::android::hardware::gnss::GnssClock *",
   "referenced_type" : "_ZTIKN4aidl7android8hardware4gnss9GnssClockE",
   "self_type" : "_ZTIPKN4aidl7android8hardware4gnss9GnssClockE",
   "size" : 4,
   "source_file" : "out/soong/.intermediates/hardware/interfaces/gnss/aidl/android.hardware.gnss-V1-ndk_platform-source/gen/include/aidl/android/hardware/gnss/GnssClock.h"
  },
  {
   "alignment" : 4,
   "linker_set_key" : "_ZTIPKc",
   "name" : "const char *",
   "referenced_type" : "_ZTIKc",
   "self_type" : "_ZTIPKc",
   "size" : 4,
   "source_file" : "frameworks/native/libs/binder/ndk/include_cpp/android/binder_auto_utils.h"
  },
  {
   "alignment" : 4,
   "linker_set_key" : "_ZTIPKv",
   "name" : "const void *",
   "referenced_type" : "_ZTIKv",
   "self_type" : "_ZTIPKv",
   "size" : 4,
   "source_file" : "frameworks/native/libs/binder/ndk/include_cpp/android/binder_parcel_utils.h"
  },
  {
   "alignment" : 4,
   "linker_set_key" : "_ZTIPN3ndk10SpAIBinderE",
   "name" : "ndk::SpAIBinder *",
   "referenced_type" : "_ZTIN3ndk10SpAIBinderE",
   "self_type" : "_ZTIPN3ndk10SpAIBinderE",
   "size" : 4,
   "source_file" : "frameworks/native/libs/binder/ndk/include_cpp/android/binder_auto_utils.h"
  },
  {
   "alignment" : 4,
   "linker_set_key" : "_ZTIPN3ndk11ICInterfaceE",
   "name" : "ndk::ICInterface *",
   "referenced_type" : "_ZTIN3ndk11ICInterfaceE",
   "self_type" : "_ZTIPN3ndk11ICInterfaceE",
   "size" : 4,
   "source_file" : "frameworks/native/libs/binder/ndk/include_cpp/android/binder_interface_utils.h"
  },
  {
   "alignment" : 4,
   "linker_set_key" : "_ZTIPN3ndk12BnCInterfaceIN4aidl7android8hardware4gnss13IGnssCallbackEEE",
   "name" : "ndk::BnCInterface<aidl::android::hardware::gnss::IGnssCallback> *",
   "referenced_type" : "_ZTIN3ndk12BnCInterfaceIN4aidl7android8hardware4gnss13IGnssCallbackEEE",
   "self_type" : "_ZTIPN3ndk12BnCInterfaceIN4aidl7android8hardware4gnss13IGnssCallbackEEE",
   "size" : 4,
   "source_file" : "frameworks/native/libs/binder/ndk/include_cpp/android/binder_interface_utils.h"
  },
  {
   "alignment" : 4,
   "linker_set_key" : "_ZTIPN3ndk12BnCInterfaceIN4aidl7android8hardware4gnss17IGnssPsdsCallbackEEE",
   "name" : "ndk::BnCInterface<aidl::android::hardware::gnss::IGnssPsdsCallback> *",
   "referenced_type" : "_ZTIN3ndk12BnCInterfaceIN4aidl7android8hardware4gnss17IGnssPsdsCallbackEEE",
   "self_type" : "_ZTIPN3ndk12BnCInterfaceIN4aidl7android8hardware4gnss17IGnssPsdsCallbackEEE",
   "size" : 4,
   "source_file" : "frameworks/native/libs/binder/ndk/include_cpp/android/binder_interface_utils.h"
  },
  {
   "alignment" : 4,
   "linker_set_key" : "_ZTIPN3ndk12BnCInterfaceIN4aidl7android8hardware4gnss18IGnssConfigurationEEE",
   "name" : "ndk::BnCInterface<aidl::android::hardware::gnss::IGnssConfiguration> *",
   "referenced_type" : "_ZTIN3ndk12BnCInterfaceIN4aidl7android8hardware4gnss18IGnssConfigurationEEE",
   "self_type" : "_ZTIPN3ndk12BnCInterfaceIN4aidl7android8hardware4gnss18IGnssConfigurationEEE",
   "size" : 4,
   "source_file" : "frameworks/native/libs/binder/ndk/include_cpp/android/binder_interface_utils.h"
  },
  {
   "alignment" : 4,
   "linker_set_key" : "_ZTIPN3ndk12BnCInterfaceIN4aidl7android8hardware4gnss20IGnssPowerIndicationEEE",
   "name" : "ndk::BnCInterface<aidl::android::hardware::gnss::IGnssPowerIndication> *",
   "referenced_type" : "_ZTIN3ndk12BnCInterfaceIN4aidl7android8hardware4gnss20IGnssPowerIndicationEEE",
   "self_type" : "_ZTIPN3ndk12BnCInterfaceIN4aidl7android8hardware4gnss20IGnssPowerIndicationEEE",
   "size" : 4,
   "source_file" : "frameworks/native/libs/binder/ndk/include_cpp/android/binder_interface_utils.h"
  },
  {
   "alignment" : 4,
   "linker_set_key" : "_ZTIPN3ndk12BnCInterfaceIN4aidl7android8hardware4gnss24IGnssMeasurementCallbackEEE",
   "name" : "ndk::BnCInterface<aidl::android::hardware::gnss::IGnssMeasurementCallback> *",
   "referenced_type" : "_ZTIN3ndk12BnCInterfaceIN4aidl7android8hardware4gnss24IGnssMeasurementCallbackEEE",
   "self_type" : "_ZTIPN3ndk12BnCInterfaceIN4aidl7android8hardware4gnss24IGnssMeasurementCallbackEEE",
   "size" : 4,
   "source_file" : "frameworks/native/libs/binder/ndk/include_cpp/android/binder_interface_utils.h"
  },
  {
   "alignment" : 4,
   "linker_set_key" : "_ZTIPN3ndk12BnCInterfaceIN4aidl7android8hardware4gnss25IGnssMeasurementInterfaceEEE",
   "name" : "ndk::BnCInterface<aidl::android::hardware::gnss::IGnssMeasurementInterface> *",
   "referenced_type" : "_ZTIN3ndk12BnCInterfaceIN4aidl7android8hardware4gnss25IGnssMeasurementInterfaceEEE",
   "self_type" : "_ZTIPN3ndk12BnCInterfaceIN4aidl7android8hardware4gnss25IGnssMeasurementInterfaceEEE",
   "size" : 4,
   "source_file" : "frameworks/native/libs/binder/ndk/include_cpp/android/binder_interface_utils.h"
  },
  {
   "alignment" : 4,
   "linker_set_key" : "_ZTIPN3ndk12BnCInterfaceIN4aidl7android8hardware4gnss28IGnssPowerIndicationCallbackEEE",
   "name" : "ndk::BnCInterface<aidl::android::hardware::gnss::IGnssPowerIndicationCallback> *",
   "referenced_type" : "_ZTIN3ndk12BnCInterfaceIN4aidl7android8hardware4gnss28IGnssPowerIndicationCallbackEEE",
   "self_type" : "_ZTIPN3ndk12BnCInterfaceIN4aidl7android8hardware4gnss28IGnssPowerIndicationCallbackEEE",
   "size" : 4,
   "source_file" : "frameworks/native/libs/binder/ndk/include_cpp/android/binder_interface_utils.h"
  },
  {
   "alignment" : 4,
   "linker_set_key" : "_ZTIPN3ndk12BnCInterfaceIN4aidl7android8hardware4gnss5IGnssEEE",
   "name" : "ndk::BnCInterface<aidl::android::hardware::gnss::IGnss> *",
   "referenced_type" : "_ZTIN3ndk12BnCInterfaceIN4aidl7android8hardware4gnss5IGnssEEE",
   "self_type" : "_ZTIPN3ndk12BnCInterfaceIN4aidl7android8hardware4gnss5IGnssEEE",
   "size" : 4,
   "source_file" : "frameworks/native/libs/binder/ndk/include_cpp/android/binder_interface_utils.h"
  },
  {
   "alignment" : 4,
   "linker_set_key" : "_ZTIPN3ndk12BnCInterfaceIN4aidl7android8hardware4gnss9IGnssPsdsEEE",
   "name" : "ndk::BnCInterface<aidl::android::hardware::gnss::IGnssPsds> *",
   "referenced_type" : "_ZTIN3ndk12BnCInterfaceIN4aidl7android8hardware4gnss9IGnssPsdsEEE",
   "self_type" : "_ZTIPN3ndk12BnCInterfaceIN4aidl7android8hardware4gnss9IGnssPsdsEEE",
   "size" : 4,
   "source_file" : "frameworks/native/libs/binder/ndk/include_cpp/android/binder_interface_utils.h"
  },
  {
   "alignment" : 4,
   "linker_set_key" : "_ZTIPN3ndk12BpCInterfaceIN4aidl7android8hardware4gnss13IGnssCallbackEEE",
   "name" : "ndk::BpCInterface<aidl::android::hardware::gnss::IGnssCallback> *",
   "referenced_type" : "_ZTIN3ndk12BpCInterfaceIN4aidl7android8hardware4gnss13IGnssCallbackEEE",
   "self_type" : "_ZTIPN3ndk12BpCInterfaceIN4aidl7android8hardware4gnss13IGnssCallbackEEE",
   "size" : 4,
   "source_file" : "frameworks/native/libs/binder/ndk/include_cpp/android/binder_interface_utils.h"
  },
  {
   "alignment" : 4,
   "linker_set_key" : "_ZTIPN3ndk12BpCInterfaceIN4aidl7android8hardware4gnss17IGnssPsdsCallbackEEE",
   "name" : "ndk::BpCInterface<aidl::android::hardware::gnss::IGnssPsdsCallback> *",
   "referenced_type" : "_ZTIN3ndk12BpCInterfaceIN4aidl7android8hardware4gnss17IGnssPsdsCallbackEEE",
   "self_type" : "_ZTIPN3ndk12BpCInterfaceIN4aidl7android8hardware4gnss17IGnssPsdsCallbackEEE",
   "size" : 4,
   "source_file" : "frameworks/native/libs/binder/ndk/include_cpp/android/binder_interface_utils.h"
  },
  {
   "alignment" : 4,
   "linker_set_key" : "_ZTIPN3ndk12BpCInterfaceIN4aidl7android8hardware4gnss18IGnssConfigurationEEE",
   "name" : "ndk::BpCInterface<aidl::android::hardware::gnss::IGnssConfiguration> *",
   "referenced_type" : "_ZTIN3ndk12BpCInterfaceIN4aidl7android8hardware4gnss18IGnssConfigurationEEE",
   "self_type" : "_ZTIPN3ndk12BpCInterfaceIN4aidl7android8hardware4gnss18IGnssConfigurationEEE",
   "size" : 4,
   "source_file" : "frameworks/native/libs/binder/ndk/include_cpp/android/binder_interface_utils.h"
  },
  {
   "alignment" : 4,
   "linker_set_key" : "_ZTIPN3ndk12BpCInterfaceIN4aidl7android8hardware4gnss20IGnssPowerIndicationEEE",
   "name" : "ndk::BpCInterface<aidl::android::hardware::gnss::IGnssPowerIndication> *",
   "referenced_type" : "_ZTIN3ndk12BpCInterfaceIN4aidl7android8hardware4gnss20IGnssPowerIndicationEEE",
   "self_type" : "_ZTIPN3ndk12BpCInterfaceIN4aidl7android8hardware4gnss20IGnssPowerIndicationEEE",
   "size" : 4,
   "source_file" : "frameworks/native/libs/binder/ndk/include_cpp/android/binder_interface_utils.h"
  },
  {
   "alignment" : 4,
   "linker_set_key" : "_ZTIPN3ndk12BpCInterfaceIN4aidl7android8hardware4gnss24IGnssMeasurementCallbackEEE",
   "name" : "ndk::BpCInterface<aidl::android::hardware::gnss::IGnssMeasurementCallback> *",
   "referenced_type" : "_ZTIN3ndk12BpCInterfaceIN4aidl7android8hardware4gnss24IGnssMeasurementCallbackEEE",
   "self_type" : "_ZTIPN3ndk12BpCInterfaceIN4aidl7android8hardware4gnss24IGnssMeasurementCallbackEEE",
   "size" : 4,
   "source_file" : "frameworks/native/libs/binder/ndk/include_cpp/android/binder_interface_utils.h"
  },
  {
   "alignment" : 4,
   "linker_set_key" : "_ZTIPN3ndk12BpCInterfaceIN4aidl7android8hardware4gnss25IGnssMeasurementInterfaceEEE",
   "name" : "ndk::BpCInterface<aidl::android::hardware::gnss::IGnssMeasurementInterface> *",
   "referenced_type" : "_ZTIN3ndk12BpCInterfaceIN4aidl7android8hardware4gnss25IGnssMeasurementInterfaceEEE",
   "self_type" : "_ZTIPN3ndk12BpCInterfaceIN4aidl7android8hardware4gnss25IGnssMeasurementInterfaceEEE",
   "size" : 4,
   "source_file" : "frameworks/native/libs/binder/ndk/include_cpp/android/binder_interface_utils.h"
  },
  {
   "alignment" : 4,
   "linker_set_key" : "_ZTIPN3ndk12BpCInterfaceIN4aidl7android8hardware4gnss28IGnssPowerIndicationCallbackEEE",
   "name" : "ndk::BpCInterface<aidl::android::hardware::gnss::IGnssPowerIndicationCallback> *",
   "referenced_type" : "_ZTIN3ndk12BpCInterfaceIN4aidl7android8hardware4gnss28IGnssPowerIndicationCallbackEEE",
   "self_type" : "_ZTIPN3ndk12BpCInterfaceIN4aidl7android8hardware4gnss28IGnssPowerIndicationCallbackEEE",
   "size" : 4,
   "source_file" : "frameworks/native/libs/binder/ndk/include_cpp/android/binder_interface_utils.h"
  },
  {
   "alignment" : 4,
   "linker_set_key" : "_ZTIPN3ndk12BpCInterfaceIN4aidl7android8hardware4gnss5IGnssEEE",
   "name" : "ndk::BpCInterface<aidl::android::hardware::gnss::IGnss> *",
   "referenced_type" : "_ZTIN3ndk12BpCInterfaceIN4aidl7android8hardware4gnss5IGnssEEE",
   "self_type" : "_ZTIPN3ndk12BpCInterfaceIN4aidl7android8hardware4gnss5IGnssEEE",
   "size" : 4,
   "source_file" : "frameworks/native/libs/binder/ndk/include_cpp/android/binder_interface_utils.h"
  },
  {
   "alignment" : 4,
   "linker_set_key" : "_ZTIPN3ndk12BpCInterfaceIN4aidl7android8hardware4gnss9IGnssPsdsEEE",
   "name" : "ndk::BpCInterface<aidl::android::hardware::gnss::IGnssPsds> *",
   "referenced_type" : "_ZTIN3ndk12BpCInterfaceIN4aidl7android8hardware4gnss9IGnssPsdsEEE",
   "self_type" : "_ZTIPN3ndk12BpCInterfaceIN4aidl7android8hardware4gnss9IGnssPsdsEEE",
   "size" : 4,
   "source_file" : "frameworks/native/libs/binder/ndk/include_cpp/android/binder_interface_utils.h"
  },
  {
   "alignment" : 4,
   "linker_set_key" : "_ZTIPN3ndk13ScopedAParcelE",
   "name" : "ndk::ScopedAParcel *",
   "referenced_type" : "_ZTIN3ndk13ScopedAParcelE",
   "self_type" : "_ZTIPN3ndk13ScopedAParcelE",
   "size" : 4,
   "source_file" : "frameworks/native/libs/binder/ndk/include_cpp/android/binder_auto_utils.h"
  },
  {
   "alignment" : 4,
   "linker_set_key" : "_ZTIPN3ndk13ScopedAStatusE",
   "name" : "ndk::ScopedAStatus *",
   "referenced_type" : "_ZTIN3ndk13ScopedAStatusE",
   "self_type" : "_ZTIPN3ndk13ScopedAStatusE",
   "size" : 4,
   "source_file" : "frameworks/native/libs/binder/ndk/include_cpp/android/binder_auto_utils.h"
  },
  {
   "alignment" : 4,
   "linker_set_key" : "_ZTIPN3ndk13SharedRefBaseE",
   "name" : "ndk::SharedRefBase *",
   "referenced_type" : "_ZTIN3ndk13SharedRefBaseE",
   "self_type" : "_ZTIPN3ndk13SharedRefBaseE",
   "size" : 4,
   "source_file" : "frameworks/native/libs/binder/ndk/include_cpp/android/binder_interface_utils.h"
  },
  {
   "alignment" : 4,
   "linker_set_key" : "_ZTIPN3ndk17AParcelableHolderE",
   "name" : "ndk::AParcelableHolder *",
   "referenced_type" : "_ZTIN3ndk17AParcelableHolderE",
   "self_type" : "_ZTIPN3ndk17AParcelableHolderE",
   "size" : 4,
   "source_file" : "frameworks/native/libs/binder/ndk/include_cpp/android/binder_parcelable_utils.h"
  },
  {
   "alignment" : 4,
   "linker_set_key" : "_ZTIPN3ndk19ScopedAIBinder_WeakE",
   "name" : "ndk::ScopedAIBinder_Weak *",
   "referenced_type" : "_ZTIN3ndk19ScopedAIBinder_WeakE",
   "self_type" : "_ZTIPN3ndk19ScopedAIBinder_WeakE",
   "size" : 4,
   "source_file" : "frameworks/native/libs/binder/ndk/include_cpp/android/binder_auto_utils.h"
  },
  {
   "alignment" : 4,
   "linker_set_key" : "_ZTIPN3ndk20ScopedFileDescriptorE",
   "name" : "ndk::ScopedFileDescriptor *",
   "referenced_type" : "_ZTIN3ndk20ScopedFileDescriptorE",
   "self_type" : "_ZTIPN3ndk20ScopedFileDescriptorE",
   "size" : 4,
   "source_file" : "frameworks/native/libs/binder/ndk/include_cpp/android/binder_auto_utils.h"
  },
  {
   "alignment" : 4,
   "linker_set_key" : "_ZTIPN3ndk29ScopedAIBinder_DeathRecipientE",
   "name" : "ndk::ScopedAIBinder_DeathRecipient *",
   "referenced_type" : "_ZTIN3ndk29ScopedAIBinder_DeathRecipientE",
   "self_type" : "_ZTIPN3ndk29ScopedAIBinder_DeathRecipientE",
   "size" : 4,
   "source_file" : "frameworks/native/libs/binder/ndk/include_cpp/android/binder_auto_utils.h"
  },
  {
   "alignment" : 4,
   "linker_set_key" : "_ZTIPN3ndk4impl15ScopedAResourceIP13AIBinder_WeakXadL_Z20AIBinder_Weak_deleteEELS3_0EEE",
   "name" : "ndk::impl::ScopedAResource<AIBinder_Weak *, &AIBinder_Weak_delete, nullptr> *",
   "referenced_type" : "_ZTIN3ndk4impl15ScopedAResourceIP13AIBinder_WeakXadL_Z20AIBinder_Weak_deleteEELS3_0EEE",
   "self_type" : "_ZTIPN3ndk4impl15ScopedAResourceIP13AIBinder_WeakXadL_Z20AIBinder_Weak_deleteEELS3_0EEE",
   "size" : 4,
   "source_file" : "frameworks/native/libs/binder/ndk/include_cpp/android/binder_auto_utils.h"
  },
  {
   "alignment" : 4,
   "linker_set_key" : "_ZTIPN3ndk4impl15ScopedAResourceIP23AIBinder_DeathRecipientXadL_Z30AIBinder_DeathRecipient_deleteEELS3_0EEE",
   "name" : "ndk::impl::ScopedAResource<AIBinder_DeathRecipient *, &AIBinder_DeathRecipient_delete, nullptr> *",
   "referenced_type" : "_ZTIN3ndk4impl15ScopedAResourceIP23AIBinder_DeathRecipientXadL_Z30AIBinder_DeathRecipient_deleteEELS3_0EEE",
   "self_type" : "_ZTIPN3ndk4impl15ScopedAResourceIP23AIBinder_DeathRecipientXadL_Z30AIBinder_DeathRecipient_deleteEELS3_0EEE",
   "size" : 4,
   "source_file" : "frameworks/native/libs/binder/ndk/include_cpp/android/binder_auto_utils.h"
  },
  {
   "alignment" : 4,
   "linker_set_key" : "_ZTIPN3ndk4impl15ScopedAResourceIP7AParcelXadL_Z14AParcel_deleteEELS3_0EEE",
   "name" : "ndk::impl::ScopedAResource<AParcel *, &AParcel_delete, nullptr> *",
   "referenced_type" : "_ZTIN3ndk4impl15ScopedAResourceIP7AParcelXadL_Z14AParcel_deleteEELS3_0EEE",
   "self_type" : "_ZTIPN3ndk4impl15ScopedAResourceIP7AParcelXadL_Z14AParcel_deleteEELS3_0EEE",
   "size" : 4,
   "source_file" : "frameworks/native/libs/binder/ndk/include_cpp/android/binder_auto_utils.h"
  },
  {
   "alignment" : 4,
   "linker_set_key" : "_ZTIPN3ndk4impl15ScopedAResourceIP7AStatusXadL_Z14AStatus_deleteEELS3_0EEE",
   "name" : "ndk::impl::ScopedAResource<AStatus *, &AStatus_delete, nullptr> *",
   "referenced_type" : "_ZTIN3ndk4impl15ScopedAResourceIP7AStatusXadL_Z14AStatus_deleteEELS3_0EEE",
   "self_type" : "_ZTIPN3ndk4impl15ScopedAResourceIP7AStatusXadL_Z14AStatus_deleteEELS3_0EEE",
   "size" : 4,
   "source_file" : "frameworks/native/libs/binder/ndk/include_cpp/android/binder_auto_utils.h"
  },
  {
   "alignment" : 4,
   "linker_set_key" : "_ZTIPN4aidl7android8hardware4gnss10BnGnssPsdsE",
   "name" : "aidl::android::hardware::gnss::BnGnssPsds *",
   "referenced_type" : "_ZTIN4aidl7android8hardware4gnss10BnGnssPsdsE",
   "self_type" : "_ZTIPN4aidl7android8hardware4gnss10BnGnssPsdsE",
   "size" : 4,
   "source_file" : "out/soong/.intermediates/hardware/interfaces/gnss/aidl/android.hardware.gnss-V1-ndk_platform-source/gen/include/aidl/android/hardware/gnss/BnGnssPsds.h"
  },
  {
   "alignment" : 4,
   "linker_set_key" : "_ZTIPN4aidl7android8hardware4gnss10BpGnssPsdsE",
   "name" : "aidl::android::hardware::gnss::BpGnssPsds *",
   "referenced_type" : "_ZTIN4aidl7android8hardware4gnss10BpGnssPsdsE",
   "self_type" : "_ZTIPN4aidl7android8hardware4gnss10BpGnssPsdsE",
   "size" : 4,
   "source_file" : "out/soong/.intermediates/hardware/interfaces/gnss/aidl/android.hardware.gnss-V1-ndk_platform-source/gen/include/aidl/android/hardware/gnss/BpGnssPsds.h"
  },
  {
   "alignment" : 4,
   "linker_set_key" : "_ZTIPN4aidl7android8hardware4gnss12IGnssDefaultE",
   "name" : "aidl::android::hardware::gnss::IGnssDefault *",
   "referenced_type" : "_ZTIN4aidl7android8hardware4gnss12IGnssDefaultE",
   "self_type" : "_ZTIPN4aidl7android8hardware4gnss12IGnssDefaultE",
   "size" : 4,
   "source_file" : "out/soong/.intermediates/hardware/interfaces/gnss/aidl/android.hardware.gnss-V1-ndk_platform-source/gen/include/aidl/android/hardware/gnss/IGnss.h"
  },
  {
   "alignment" : 4,
   "linker_set_key" : "_ZTIPN4aidl7android8hardware4gnss12SatellitePvtE",
   "name" : "aidl::android::hardware::gnss::SatellitePvt *",
   "referenced_type" : "_ZTIN4aidl7android8hardware4gnss12SatellitePvtE",
   "self_type" : "_ZTIPN4aidl7android8hardware4gnss12SatellitePvtE",
   "size" : 4,
   "source_file" : "out/soong/.intermediates/hardware/interfaces/gnss/aidl/android.hardware.gnss-V1-ndk_platform-source/gen/include/aidl/android/hardware/gnss/SatellitePvt.h"
  },
  {
   "alignment" : 4,
   "linker_set_key" : "_ZTIPN4aidl7android8hardware4gnss13IGnssCallbackE",
   "name" : "aidl::android::hardware::gnss::IGnssCallback *",
   "referenced_type" : "_ZTIN4aidl7android8hardware4gnss13IGnssCallbackE",
   "self_type" : "_ZTIPN4aidl7android8hardware4gnss13IGnssCallbackE",
   "size" : 4,
   "source_file" : "out/soong/.intermediates/hardware/interfaces/gnss/aidl/android.hardware.gnss-V1-ndk_platform-source/gen/include/aidl/android/hardware/gnss/IGnssCallback.h"
  },
  {
   "alignment" : 4,
   "linker_set_key" : "_ZTIPN4aidl7android8hardware4gnss14BnGnssCallbackE",
   "name" : "aidl::android::hardware::gnss::BnGnssCallback *",
   "referenced_type" : "_ZTIN4aidl7android8hardware4gnss14BnGnssCallbackE",
   "self_type" : "_ZTIPN4aidl7android8hardware4gnss14BnGnssCallbackE",
   "size" : 4,
   "source_file" : "out/soong/.intermediates/hardware/interfaces/gnss/aidl/android.hardware.gnss-V1-ndk_platform-source/gen/include/aidl/android/hardware/gnss/BnGnssCallback.h"
  },
  {
   "alignment" : 4,
   "linker_set_key" : "_ZTIPN4aidl7android8hardware4gnss14BpGnssCallbackE",
   "name" : "aidl::android::hardware::gnss::BpGnssCallback *",
   "referenced_type" : "_ZTIN4aidl7android8hardware4gnss14BpGnssCallbackE",
   "self_type" : "_ZTIPN4aidl7android8hardware4gnss14BpGnssCallbackE",
   "size" : 4,
   "source_file" : "out/soong/.intermediates/hardware/interfaces/gnss/aidl/android.hardware.gnss-V1-ndk_platform-source/gen/include/aidl/android/hardware/gnss/BpGnssCallback.h"
  },
  {
   "alignment" : 4,
   "linker_set_key" : "_ZTIPN4aidl7android8hardware4gnss14GnssPowerStatsE",
   "name" : "aidl::android::hardware::gnss::GnssPowerStats *",
   "referenced_type" : "_ZTIN4aidl7android8hardware4gnss14GnssPowerStatsE",
   "self_type" : "_ZTIPN4aidl7android8hardware4gnss14GnssPowerStatsE",
   "size" : 4,
   "source_file" : "out/soong/.intermediates/hardware/interfaces/gnss/aidl/android.hardware.gnss-V1-ndk_platform-source/gen/include/aidl/android/hardware/gnss/GnssPowerStats.h"
  },
  {
   "alignment" : 4,
   "linker_set_key" : "_ZTIPN4aidl7android8hardware4gnss14GnssSignalTypeE",
   "name" : "aidl::android::hardware::gnss::GnssSignalType *",
   "referenced_type" : "_ZTIN4aidl7android8hardware4gnss14GnssSignalTypeE",
   "self_type" : "_ZTIPN4aidl7android8hardware4gnss14GnssSignalTypeE",
   "size" : 4,
   "source_file" : "out/soong/.intermediates/hardware/interfaces/gnss/aidl/android.hardware.gnss-V1-ndk_platform-source/gen/include/aidl/android/hardware/gnss/GnssSignalType.h"
  },
  {
   "alignment" : 4,
   "linker_set_key" : "_ZTIPN4aidl7android8hardware4gnss15ElapsedRealtimeE",
   "name" : "aidl::android::hardware::gnss::ElapsedRealtime *",
   "referenced_type" : "_ZTIN4aidl7android8hardware4gnss15ElapsedRealtimeE",
   "self_type" : "_ZTIPN4aidl7android8hardware4gnss15ElapsedRealtimeE",
   "size" : 4,
   "source_file" : "out/soong/.intermediates/hardware/interfaces/gnss/aidl/android.hardware.gnss-V1-ndk_platform-source/gen/include/aidl/android/hardware/gnss/ElapsedRealtime.h"
  },
  {
   "alignment" : 4,
   "linker_set_key" : "_ZTIPN4aidl7android8hardware4gnss15GnssMeasurementE",
   "name" : "aidl::android::hardware::gnss::GnssMeasurement *",
   "referenced_type" : "_ZTIN4aidl7android8hardware4gnss15GnssMeasurementE",
   "self_type" : "_ZTIPN4aidl7android8hardware4gnss15GnssMeasurementE",
   "size" : 4,
   "source_file" : "out/soong/.intermediates/hardware/interfaces/gnss/aidl/android.hardware.gnss-V1-ndk_platform-source/gen/include/aidl/android/hardware/gnss/GnssMeasurement.h"
  },
  {
   "alignment" : 4,
   "linker_set_key" : "_ZTIPN4aidl7android8hardware4gnss16IGnssPsdsDefaultE",
   "name" : "aidl::android::hardware::gnss::IGnssPsdsDefault *",
   "referenced_type" : "_ZTIN4aidl7android8hardware4gnss16IGnssPsdsDefaultE",
   "self_type" : "_ZTIPN4aidl7android8hardware4gnss16IGnssPsdsDefaultE",
   "size" : 4,
   "source_file" : "out/soong/.intermediates/hardware/interfaces/gnss/aidl/android.hardware.gnss-V1-ndk_platform-source/gen/include/aidl/android/hardware/gnss/IGnssPsds.h"
  },
  {
   "alignment" : 4,
   "linker_set_key" : "_ZTIPN4aidl7android8hardware4gnss17BlocklistedSourceE",
   "name" : "aidl::android::hardware::gnss::BlocklistedSource *",
   "referenced_type" : "_ZTIN4aidl7android8hardware4gnss17BlocklistedSourceE",
   "self_type" : "_ZTIPN4aidl7android8hardware4gnss17BlocklistedSourceE",
   "size" : 4,
   "source_file" : "out/soong/.intermediates/hardware/interfaces/gnss/aidl/android.hardware.gnss-V1-ndk_platform-source/gen/include/aidl/android/hardware/gnss/BlocklistedSource.h"
  },
  {
   "alignment" : 4,
   "linker_set_key" : "_ZTIPN4aidl7android8hardware4gnss17CorrelationVectorE",
   "name" : "aidl::android::hardware::gnss::CorrelationVector *",
   "referenced_type" : "_ZTIN4aidl7android8hardware4gnss17CorrelationVectorE",
   "self_type" : "_ZTIPN4aidl7android8hardware4gnss17CorrelationVectorE",
   "size" : 4,
   "source_file" : "out/soong/.intermediates/hardware/interfaces/gnss/aidl/android.hardware.gnss-V1-ndk_platform-source/gen/include/aidl/android/hardware/gnss/CorrelationVector.h"
  },
  {
   "alignment" : 4,
   "linker_set_key" : "_ZTIPN4aidl7android8hardware4gnss17IGnssPsdsCallbackE",
   "name" : "aidl::android::hardware::gnss::IGnssPsdsCallback *",
   "referenced_type" : "_ZTIN4aidl7android8hardware4gnss17IGnssPsdsCallbackE",
   "self_type" : "_ZTIPN4aidl7android8hardware4gnss17IGnssPsdsCallbackE",
   "size" : 4,
   "source_file" : "out/soong/.intermediates/hardware/interfaces/gnss/aidl/android.hardware.gnss-V1-ndk_platform-source/gen/include/aidl/android/hardware/gnss/IGnssPsdsCallback.h"
  },
  {
   "alignment" : 4,
   "linker_set_key" : "_ZTIPN4aidl7android8hardware4gnss18BnGnssPsdsCallbackE",
   "name" : "aidl::android::hardware::gnss::BnGnssPsdsCallback *",
   "referenced_type" : "_ZTIN4aidl7android8hardware4gnss18BnGnssPsdsCallbackE",
   "self_type" : "_ZTIPN4aidl7android8hardware4gnss18BnGnssPsdsCallbackE",
   "size" : 4,
   "source_file" : "out/soong/.intermediates/hardware/interfaces/gnss/aidl/android.hardware.gnss-V1-ndk_platform-source/gen/include/aidl/android/hardware/gnss/BnGnssPsdsCallback.h"
  },
  {
   "alignment" : 4,
   "linker_set_key" : "_ZTIPN4aidl7android8hardware4gnss18BpGnssPsdsCallbackE",
   "name" : "aidl::android::hardware::gnss::BpGnssPsdsCallback *",
   "referenced_type" : "_ZTIN4aidl7android8hardware4gnss18BpGnssPsdsCallbackE",
   "self_type" : "_ZTIPN4aidl7android8hardware4gnss18BpGnssPsdsCallbackE",
   "size" : 4,
   "source_file" : "out/soong/.intermediates/hardware/interfaces/gnss/aidl/android.hardware.gnss-V1-ndk_platform-source/gen/include/aidl/android/hardware/gnss/BpGnssPsdsCallback.h"
  },
  {
   "alignment" : 4,
   "linker_set_key" : "_ZTIPN4aidl7android8hardware4gnss18IGnssConfigurationE",
   "name" : "aidl::android::hardware::gnss::IGnssConfiguration *",
   "referenced_type" : "_ZTIN4aidl7android8hardware4gnss18IGnssConfigurationE",
   "self_type" : "_ZTIPN4aidl7android8hardware4gnss18IGnssConfigurationE",
   "size" : 4,
   "source_file" : "out/soong/.intermediates/hardware/interfaces/gnss/aidl/android.hardware.gnss-V1-ndk_platform-source/gen/include/aidl/android/hardware/gnss/IGnssConfiguration.h"
  },
  {
   "alignment" : 4,
   "linker_set_key" : "_ZTIPN4aidl7android8hardware4gnss18SatelliteClockInfoE",
   "name" : "aidl::android::hardware::gnss::SatelliteClockInfo *",
   "referenced_type" : "_ZTIN4aidl7android8hardware4gnss18SatelliteClockInfoE",
   "self_type" : "_ZTIPN4aidl7android8hardware4gnss18SatelliteClockInfoE",
   "size" : 4,
   "source_file" : "out/soong/.intermediates/hardware/interfaces/gnss/aidl/android.hardware.gnss-V1-ndk_platform-source/gen/include/aidl/android/hardware/gnss/SatelliteClockInfo.h"
  },
  {
   "alignment" : 4,
   "linker_set_key" : "_ZTIPN4aidl7android8hardware4gnss19BnGnssConfigurationE",
   "name" : "aidl::android::hardware::gnss::BnGnssConfiguration *",
   "referenced_type" : "_ZTIN4aidl7android8hardware4gnss19BnGnssConfigurationE",
   "self_type" : "_ZTIPN4aidl7android8hardware4gnss19BnGnssConfigurationE",
   "size" : 4,
   "source_file" : "out/soong/.intermediates/hardware/interfaces/gnss/aidl/android.hardware.gnss-V1-ndk_platform-source/gen/include/aidl/android/hardware/gnss/BnGnssConfiguration.h"
  },
  {
   "alignment" : 4,
   "linker_set_key" : "_ZTIPN4aidl7android8hardware4gnss19BpGnssConfigurationE",
   "name" : "aidl::android::hardware::gnss::BpGnssConfiguration *",
   "referenced_type" : "_ZTIN4aidl7android8hardware4gnss19BpGnssConfigurationE",
   "self_type" : "_ZTIPN4aidl7android8hardware4gnss19BpGnssConfigurationE",
   "size" : 4,
   "source_file" : "out/soong/.intermediates/hardware/interfaces/gnss/aidl/android.hardware.gnss-V1-ndk_platform-source/gen/include/aidl/android/hardware/gnss/BpGnssConfiguration.h"
  },
  {
   "alignment" : 4,
   "linker_set_key" : "_ZTIPN4aidl7android8hardware4gnss20IGnssCallbackDefaultE",
   "name" : "aidl::android::hardware::gnss::IGnssCallbackDefault *",
   "referenced_type" : "_ZTIN4aidl7android8hardware4gnss20IGnssCallbackDefaultE",
   "self_type" : "_ZTIPN4aidl7android8hardware4gnss20IGnssCallbackDefaultE",
   "size" : 4,
   "source_file" : "out/soong/.intermediates/hardware/interfaces/gnss/aidl/android.hardware.gnss-V1-ndk_platform-source/gen/include/aidl/android/hardware/gnss/IGnssCallback.h"
  },
  {
   "alignment" : 4,
   "linker_set_key" : "_ZTIPN4aidl7android8hardware4gnss20IGnssPowerIndicationE",
   "name" : "aidl::android::hardware::gnss::IGnssPowerIndication *",
   "referenced_type" : "_ZTIN4aidl7android8hardware4gnss20IGnssPowerIndicationE",
   "self_type" : "_ZTIPN4aidl7android8hardware4gnss20IGnssPowerIndicationE",
   "size" : 4,
   "source_file" : "out/soong/.intermediates/hardware/interfaces/gnss/aidl/android.hardware.gnss-V1-ndk_platform-source/gen/include/aidl/android/hardware/gnss/IGnssPowerIndication.h"
  },
  {
   "alignment" : 4,
   "linker_set_key" : "_ZTIPN4aidl7android8hardware4gnss21BnGnssPowerIndicationE",
   "name" : "aidl::android::hardware::gnss::BnGnssPowerIndication *",
   "referenced_type" : "_ZTIN4aidl7android8hardware4gnss21BnGnssPowerIndicationE",
   "self_type" : "_ZTIPN4aidl7android8hardware4gnss21BnGnssPowerIndicationE",
   "size" : 4,
   "source_file" : "out/soong/.intermediates/hardware/interfaces/gnss/aidl/android.hardware.gnss-V1-ndk_platform-source/gen/include/aidl/android/hardware/gnss/BnGnssPowerIndication.h"
  },
  {
   "alignment" : 4,
   "linker_set_key" : "_ZTIPN4aidl7android8hardware4gnss21BpGnssPowerIndicationE",
   "name" : "aidl::android::hardware::gnss::BpGnssPowerIndication *",
   "referenced_type" : "_ZTIN4aidl7android8hardware4gnss21BpGnssPowerIndicationE",
   "self_type" : "_ZTIPN4aidl7android8hardware4gnss21BpGnssPowerIndicationE",
   "size" : 4,
   "source_file" : "out/soong/.intermediates/hardware/interfaces/gnss/aidl/android.hardware.gnss-V1-ndk_platform-source/gen/include/aidl/android/hardware/gnss/BpGnssPowerIndication.h"
  },
  {
   "alignment" : 4,
   "linker_set_key" : "_ZTIPN4aidl7android8hardware4gnss21SatellitePositionEcefE",
   "name" : "aidl::android::hardware::gnss::SatellitePositionEcef *",
   "referenced_type" : "_ZTIN4aidl7android8hardware4gnss21SatellitePositionEcefE",
   "self_type" : "_ZTIPN4aidl7android8hardware4gnss21SatellitePositionEcefE",
   "size" : 4,
   "source_file" : "out/soong/.intermediates/hardware/interfaces/gnss/aidl/android.hardware.gnss-V1-ndk_platform-source/gen/include/aidl/android/hardware/gnss/SatellitePositionEcef.h"
  },
  {
   "alignment" : 4,
   "linker_set_key" : "_ZTIPN4aidl7android8hardware4gnss21SatelliteVelocityEcefE",
   "name" : "aidl::android::hardware::gnss::SatelliteVelocityEcef *",
   "referenced_type" : "_ZTIN4aidl7android8hardware4gnss21SatelliteVelocityEcefE",
   "self_type" : "_ZTIPN4aidl7android8hardware4gnss21SatelliteVelocityEcefE",
   "size" : 4,
   "source_file" : "out/soong/.intermediates/hardware/interfaces/gnss/aidl/android.hardware.gnss-V1-ndk_platform-source/gen/include/aidl/android/hardware/gnss/SatelliteVelocityEcef.h"
  },
  {
   "alignment" : 4,
   "linker_set_key" : "_ZTIPN4aidl7android8hardware4gnss24IGnssMeasurementCallbackE",
   "name" : "aidl::android::hardware::gnss::IGnssMeasurementCallback *",
   "referenced_type" : "_ZTIN4aidl7android8hardware4gnss24IGnssMeasurementCallbackE",
   "self_type" : "_ZTIPN4aidl7android8hardware4gnss24IGnssMeasurementCallbackE",
   "size" : 4,
   "source_file" : "out/soong/.intermediates/hardware/interfaces/gnss/aidl/android.hardware.gnss-V1-ndk_platform-source/gen/include/aidl/android/hardware/gnss/IGnssMeasurementCallback.h"
  },
  {
   "alignment" : 4,
   "linker_set_key" : "_ZTIPN4aidl7android8hardware4gnss24IGnssPsdsCallbackDefaultE",
   "name" : "aidl::android::hardware::gnss::IGnssPsdsCallbackDefault *",
   "referenced_type" : "_ZTIN4aidl7android8hardware4gnss24IGnssPsdsCallbackDefaultE",
   "self_type" : "_ZTIPN4aidl7android8hardware4gnss24IGnssPsdsCallbackDefaultE",
   "size" : 4,
   "source_file" : "out/soong/.intermediates/hardware/interfaces/gnss/aidl/android.hardware.gnss-V1-ndk_platform-source/gen/include/aidl/android/hardware/gnss/IGnssPsdsCallback.h"
  },
  {
   "alignment" : 4,
   "linker_set_key" : "_ZTIPN4aidl7android8hardware4gnss25BnGnssMeasurementCallbackE",
   "name" : "aidl::android::hardware::gnss::BnGnssMeasurementCallback *",
   "referenced_type" : "_ZTIN4aidl7android8hardware4gnss25BnGnssMeasurementCallbackE",
   "self_type" : "_ZTIPN4aidl7android8hardware4gnss25BnGnssMeasurementCallbackE",
   "size" : 4,
   "source_file" : "out/soong/.intermediates/hardware/interfaces/gnss/aidl/android.hardware.gnss-V1-ndk_platform-source/gen/include/aidl/android/hardware/gnss/BnGnssMeasurementCallback.h"
  },
  {
   "alignment" : 4,
   "linker_set_key" : "_ZTIPN4aidl7android8hardware4gnss25BpGnssMeasurementCallbackE",
   "name" : "aidl::android::hardware::gnss::BpGnssMeasurementCallback *",
   "referenced_type" : "_ZTIN4aidl7android8hardware4gnss25BpGnssMeasurementCallbackE",
   "self_type" : "_ZTIPN4aidl7android8hardware4gnss25BpGnssMeasurementCallbackE",
   "size" : 4,
   "source_file" : "out/soong/.intermediates/hardware/interfaces/gnss/aidl/android.hardware.gnss-V1-ndk_platform-source/gen/include/aidl/android/hardware/gnss/BpGnssMeasurementCallback.h"
  },
  {
   "alignment" : 4,
   "linker_set_key" : "_ZTIPN4aidl7android8hardware4gnss25IGnssConfigurationDefaultE",
   "name" : "aidl::android::hardware::gnss::IGnssConfigurationDefault *",
   "referenced_type" : "_ZTIN4aidl7android8hardware4gnss25IGnssConfigurationDefaultE",
   "self_type" : "_ZTIPN4aidl7android8hardware4gnss25IGnssConfigurationDefaultE",
   "size" : 4,
   "source_file" : "out/soong/.intermediates/hardware/interfaces/gnss/aidl/android.hardware.gnss-V1-ndk_platform-source/gen/include/aidl/android/hardware/gnss/IGnssConfiguration.h"
  },
  {
   "alignment" : 4,
   "linker_set_key" : "_ZTIPN4aidl7android8hardware4gnss25IGnssMeasurementInterfaceE",
   "name" : "aidl::android::hardware::gnss::IGnssMeasurementInterface *",
   "referenced_type" : "_ZTIN4aidl7android8hardware4gnss25IGnssMeasurementInterfaceE",
   "self_type" : "_ZTIPN4aidl7android8hardware4gnss25IGnssMeasurementInterfaceE",
   "size" : 4,
   "source_file" : "out/soong/.intermediates/hardware/interfaces/gnss/aidl/android.hardware.gnss-V1-ndk_platform-source/gen/include/aidl/android/hardware/gnss/IGnssMeasurementInterface.h"
  },
  {
   "alignment" : 4,
   "linker_set_key" : "_ZTIPN4aidl7android8hardware4gnss26BnGnssMeasurementInterfaceE",
   "name" : "aidl::android::hardware::gnss::BnGnssMeasurementInterface *",
   "referenced_type" : "_ZTIN4aidl7android8hardware4gnss26BnGnssMeasurementInterfaceE",
   "self_type" : "_ZTIPN4aidl7android8hardware4gnss26BnGnssMeasurementInterfaceE",
   "size" : 4,
   "source_file" : "out/soong/.intermediates/hardware/interfaces/gnss/aidl/android.hardware.gnss-V1-ndk_platform-source/gen/include/aidl/android/hardware/gnss/BnGnssMeasurementInterface.h"
  },
  {
   "alignment" : 4,
   "linker_set_key" : "_ZTIPN4aidl7android8hardware4gnss26BpGnssMeasurementInterfaceE",
   "name" : "aidl::android::hardware::gnss::BpGnssMeasurementInterface *",
   "referenced_type" : "_ZTIN4aidl7android8hardware4gnss26BpGnssMeasurementInterfaceE",
   "self_type" : "_ZTIPN4aidl7android8hardware4gnss26BpGnssMeasurementInterfaceE",
   "size" : 4,
   "source_file" : "out/soong/.intermediates/hardware/interfaces/gnss/aidl/android.hardware.gnss-V1-ndk_platform-source/gen/include/aidl/android/hardware/gnss/BpGnssMeasurementInterface.h"
  },
  {
   "alignment" : 4,
   "linker_set_key" : "_ZTIPN4aidl7android8hardware4gnss27IGnssPowerIndicationDefaultE",
   "name" : "aidl::android::hardware::gnss::IGnssPowerIndicationDefault *",
   "referenced_type" : "_ZTIN4aidl7android8hardware4gnss27IGnssPowerIndicationDefaultE",
   "self_type" : "_ZTIPN4aidl7android8hardware4gnss27IGnssPowerIndicationDefaultE",
   "size" : 4,
   "source_file" : "out/soong/.intermediates/hardware/interfaces/gnss/aidl/android.hardware.gnss-V1-ndk_platform-source/gen/include/aidl/android/hardware/gnss/IGnssPowerIndication.h"
  },
  {
   "alignment" : 4,
   "linker_set_key" : "_ZTIPN4aidl7android8hardware4gnss28IGnssPowerIndicationCallbackE",
   "name" : "aidl::android::hardware::gnss::IGnssPowerIndicationCallback *",
   "referenced_type" : "_ZTIN4aidl7android8hardware4gnss28IGnssPowerIndicationCallbackE",
   "self_type" : "_ZTIPN4aidl7android8hardware4gnss28IGnssPowerIndicationCallbackE",
   "size" : 4,
   "source_file" : "out/soong/.intermediates/hardware/interfaces/gnss/aidl/android.hardware.gnss-V1-ndk_platform-source/gen/include/aidl/android/hardware/gnss/IGnssPowerIndicationCallback.h"
  },
  {
   "alignment" : 4,
   "linker_set_key" : "_ZTIPN4aidl7android8hardware4gnss29BnGnssPowerIndicationCallbackE",
   "name" : "aidl::android::hardware::gnss::BnGnssPowerIndicationCallback *",
   "referenced_type" : "_ZTIN4aidl7android8hardware4gnss29BnGnssPowerIndicationCallbackE",
   "self_type" : "_ZTIPN4aidl7android8hardware4gnss29BnGnssPowerIndicationCallbackE",
   "size" : 4,
   "source_file" : "out/soong/.intermediates/hardware/interfaces/gnss/aidl/android.hardware.gnss-V1-ndk_platform-source/gen/include/aidl/android/hardware/gnss/BnGnssPowerIndicationCallback.h"
  },
  {
   "alignment" : 4,
   "linker_set_key" : "_ZTIPN4aidl7android8hardware4gnss29BpGnssPowerIndicationCallbackE",
   "name" : "aidl::android::hardware::gnss::BpGnssPowerIndicationCallback *",
   "referenced_type" : "_ZTIN4aidl7android8hardware4gnss29BpGnssPowerIndicationCallbackE",
   "self_type" : "_ZTIPN4aidl7android8hardware4gnss29BpGnssPowerIndicationCallbackE",
   "size" : 4,
   "source_file" : "out/soong/.intermediates/hardware/interfaces/gnss/aidl/android.hardware.gnss-V1-ndk_platform-source/gen/include/aidl/android/hardware/gnss/BpGnssPowerIndicationCallback.h"
  },
  {
   "alignment" : 4,
   "linker_set_key" : "_ZTIPN4aidl7android8hardware4gnss31IGnssMeasurementCallbackDefaultE",
   "name" : "aidl::android::hardware::gnss::IGnssMeasurementCallbackDefault *",
   "referenced_type" : "_ZTIN4aidl7android8hardware4gnss31IGnssMeasurementCallbackDefaultE",
   "self_type" : "_ZTIPN4aidl7android8hardware4gnss31IGnssMeasurementCallbackDefaultE",
   "size" : 4,
   "source_file" : "out/soong/.intermediates/hardware/interfaces/gnss/aidl/android.hardware.gnss-V1-ndk_platform-source/gen/include/aidl/android/hardware/gnss/IGnssMeasurementCallback.h"
  },
  {
   "alignment" : 4,
   "linker_set_key" : "_ZTIPN4aidl7android8hardware4gnss32IGnssMeasurementInterfaceDefaultE",
   "name" : "aidl::android::hardware::gnss::IGnssMeasurementInterfaceDefault *",
   "referenced_type" : "_ZTIN4aidl7android8hardware4gnss32IGnssMeasurementInterfaceDefaultE",
   "self_type" : "_ZTIPN4aidl7android8hardware4gnss32IGnssMeasurementInterfaceDefaultE",
   "size" : 4,
   "source_file" : "out/soong/.intermediates/hardware/interfaces/gnss/aidl/android.hardware.gnss-V1-ndk_platform-source/gen/include/aidl/android/hardware/gnss/IGnssMeasurementInterface.h"
  },
  {
   "alignment" : 4,
   "linker_set_key" : "_ZTIPN4aidl7android8hardware4gnss35IGnssPowerIndicationCallbackDefaultE",
   "name" : "aidl::android::hardware::gnss::IGnssPowerIndicationCallbackDefault *",
   "referenced_type" : "_ZTIN4aidl7android8hardware4gnss35IGnssPowerIndicationCallbackDefaultE",
   "self_type" : "_ZTIPN4aidl7android8hardware4gnss35IGnssPowerIndicationCallbackDefaultE",
   "size" : 4,
   "source_file" : "out/soong/.intermediates/hardware/interfaces/gnss/aidl/android.hardware.gnss-V1-ndk_platform-source/gen/include/aidl/android/hardware/gnss/IGnssPowerIndicationCallback.h"
  },
  {
   "alignment" : 4,
   "linker_set_key" : "_ZTIPN4aidl7android8hardware4gnss5IGnssE",
   "name" : "aidl::android::hardware::gnss::IGnss *",
   "referenced_type" : "_ZTIN4aidl7android8hardware4gnss5IGnssE",
   "self_type" : "_ZTIPN4aidl7android8hardware4gnss5IGnssE",
   "size" : 4,
   "source_file" : "out/soong/.intermediates/hardware/interfaces/gnss/aidl/android.hardware.gnss-V1-ndk_platform-source/gen/include/aidl/android/hardware/gnss/IGnss.h"
  },
  {
   "alignment" : 4,
   "linker_set_key" : "_ZTIPN4aidl7android8hardware4gnss6BnGnssE",
   "name" : "aidl::android::hardware::gnss::BnGnss *",
   "referenced_type" : "_ZTIN4aidl7android8hardware4gnss6BnGnssE",
   "self_type" : "_ZTIPN4aidl7android8hardware4gnss6BnGnssE",
   "size" : 4,
   "source_file" : "out/soong/.intermediates/hardware/interfaces/gnss/aidl/android.hardware.gnss-V1-ndk_platform-source/gen/include/aidl/android/hardware/gnss/BnGnss.h"
  },
  {
   "alignment" : 4,
   "linker_set_key" : "_ZTIPN4aidl7android8hardware4gnss6BpGnssE",
   "name" : "aidl::android::hardware::gnss::BpGnss *",
   "referenced_type" : "_ZTIN4aidl7android8hardware4gnss6BpGnssE",
   "self_type" : "_ZTIPN4aidl7android8hardware4gnss6BpGnssE",
   "size" : 4,
   "source_file" : "out/soong/.intermediates/hardware/interfaces/gnss/aidl/android.hardware.gnss-V1-ndk_platform-source/gen/include/aidl/android/hardware/gnss/BpGnss.h"
  },
  {
   "alignment" : 4,
   "linker_set_key" : "_ZTIPN4aidl7android8hardware4gnss8GnssDataE",
   "name" : "aidl::android::hardware::gnss::GnssData *",
   "referenced_type" : "_ZTIN4aidl7android8hardware4gnss8GnssDataE",
   "self_type" : "_ZTIPN4aidl7android8hardware4gnss8GnssDataE",
   "size" : 4,
   "source_file" : "out/soong/.intermediates/hardware/interfaces/gnss/aidl/android.hardware.gnss-V1-ndk_platform-source/gen/include/aidl/android/hardware/gnss/GnssData.h"
  },
  {
   "alignment" : 4,
   "linker_set_key" : "_ZTIPN4aidl7android8hardware4gnss9GnssClockE",
   "name" : "aidl::android::hardware::gnss::GnssClock *",
   "referenced_type" : "_ZTIN4aidl7android8hardware4gnss9GnssClockE",
   "self_type" : "_ZTIPN4aidl7android8hardware4gnss9GnssClockE",
   "size" : 4,
   "source_file" : "out/soong/.intermediates/hardware/interfaces/gnss/aidl/android.hardware.gnss-V1-ndk_platform-source/gen/include/aidl/android/hardware/gnss/GnssClock.h"
  },
  {
   "alignment" : 4,
   "linker_set_key" : "_ZTIPN4aidl7android8hardware4gnss9IGnssPsdsE",
   "name" : "aidl::android::hardware::gnss::IGnssPsds *",
   "referenced_type" : "_ZTIN4aidl7android8hardware4gnss9IGnssPsdsE",
   "self_type" : "_ZTIPN4aidl7android8hardware4gnss9IGnssPsdsE",
   "size" : 4,
   "source_file" : "out/soong/.intermediates/hardware/interfaces/gnss/aidl/android.hardware.gnss-V1-ndk_platform-source/gen/include/aidl/android/hardware/gnss/IGnssPsds.h"
  },
  {
   "alignment" : 4,
   "linker_set_key" : "_ZTIPNSt3__110shared_ptrIN4aidl7android8hardware4gnss13IGnssCallbackEEE",
   "name" : "std::shared_ptr<aidl::android::hardware::gnss::IGnssCallback> *",
   "referenced_type" : "_ZTINSt3__110shared_ptrIN4aidl7android8hardware4gnss13IGnssCallbackEEE",
   "self_type" : "_ZTIPNSt3__110shared_ptrIN4aidl7android8hardware4gnss13IGnssCallbackEEE",
   "size" : 4,
   "source_file" : "out/soong/.intermediates/hardware/interfaces/gnss/aidl/android.hardware.gnss-V1-ndk_platform-source/gen/include/aidl/android/hardware/gnss/IGnssCallback.h"
  },
  {
   "alignment" : 4,
   "linker_set_key" : "_ZTIPNSt3__110shared_ptrIN4aidl7android8hardware4gnss17IGnssPsdsCallbackEEE",
   "name" : "std::shared_ptr<aidl::android::hardware::gnss::IGnssPsdsCallback> *",
   "referenced_type" : "_ZTINSt3__110shared_ptrIN4aidl7android8hardware4gnss17IGnssPsdsCallbackEEE",
   "self_type" : "_ZTIPNSt3__110shared_ptrIN4aidl7android8hardware4gnss17IGnssPsdsCallbackEEE",
   "size" : 4,
   "source_file" : "out/soong/.intermediates/hardware/interfaces/gnss/aidl/android.hardware.gnss-V1-ndk_platform-source/gen/include/aidl/android/hardware/gnss/IGnssPsdsCallback.h"
  },
  {
   "alignment" : 4,
   "linker_set_key" : "_ZTIPNSt3__110shared_ptrIN4aidl7android8hardware4gnss18IGnssConfigurationEEE",
   "name" : "std::shared_ptr<aidl::android::hardware::gnss::IGnssConfiguration> *",
   "referenced_type" : "_ZTINSt3__110shared_ptrIN4aidl7android8hardware4gnss18IGnssConfigurationEEE",
   "self_type" : "_ZTIPNSt3__110shared_ptrIN4aidl7android8hardware4gnss18IGnssConfigurationEEE",
   "size" : 4,
   "source_file" : "out/soong/.intermediates/hardware/interfaces/gnss/aidl/android.hardware.gnss-V1-ndk_platform-source/gen/include/aidl/android/hardware/gnss/IGnss.h"
  },
  {
   "alignment" : 4,
   "linker_set_key" : "_ZTIPNSt3__110shared_ptrIN4aidl7android8hardware4gnss20IGnssPowerIndicationEEE",
   "name" : "std::shared_ptr<aidl::android::hardware::gnss::IGnssPowerIndication> *",
   "referenced_type" : "_ZTINSt3__110shared_ptrIN4aidl7android8hardware4gnss20IGnssPowerIndicationEEE",
   "self_type" : "_ZTIPNSt3__110shared_ptrIN4aidl7android8hardware4gnss20IGnssPowerIndicationEEE",
   "size" : 4,
   "source_file" : "out/soong/.intermediates/hardware/interfaces/gnss/aidl/android.hardware.gnss-V1-ndk_platform-source/gen/include/aidl/android/hardware/gnss/IGnss.h"
  },
  {
   "alignment" : 4,
   "linker_set_key" : "_ZTIPNSt3__110shared_ptrIN4aidl7android8hardware4gnss24IGnssMeasurementCallbackEEE",
   "name" : "std::shared_ptr<aidl::android::hardware::gnss::IGnssMeasurementCallback> *",
   "referenced_type" : "_ZTINSt3__110shared_ptrIN4aidl7android8hardware4gnss24IGnssMeasurementCallbackEEE",
   "self_type" : "_ZTIPNSt3__110shared_ptrIN4aidl7android8hardware4gnss24IGnssMeasurementCallbackEEE",
   "size" : 4,
   "source_file" : "out/soong/.intermediates/hardware/interfaces/gnss/aidl/android.hardware.gnss-V1-ndk_platform-source/gen/include/aidl/android/hardware/gnss/IGnssMeasurementCallback.h"
  },
  {
   "alignment" : 4,
   "linker_set_key" : "_ZTIPNSt3__110shared_ptrIN4aidl7android8hardware4gnss25IGnssMeasurementInterfaceEEE",
   "name" : "std::shared_ptr<aidl::android::hardware::gnss::IGnssMeasurementInterface> *",
   "referenced_type" : "_ZTINSt3__110shared_ptrIN4aidl7android8hardware4gnss25IGnssMeasurementInterfaceEEE",
   "self_type" : "_ZTIPNSt3__110shared_ptrIN4aidl7android8hardware4gnss25IGnssMeasurementInterfaceEEE",
   "size" : 4,
   "source_file" : "out/soong/.intermediates/hardware/interfaces/gnss/aidl/android.hardware.gnss-V1-ndk_platform-source/gen/include/aidl/android/hardware/gnss/IGnss.h"
  },
  {
   "alignment" : 4,
   "linker_set_key" : "_ZTIPNSt3__110shared_ptrIN4aidl7android8hardware4gnss28IGnssPowerIndicationCallbackEEE",
   "name" : "std::shared_ptr<aidl::android::hardware::gnss::IGnssPowerIndicationCallback> *",
   "referenced_type" : "_ZTINSt3__110shared_ptrIN4aidl7android8hardware4gnss28IGnssPowerIndicationCallbackEEE",
   "self_type" : "_ZTIPNSt3__110shared_ptrIN4aidl7android8hardware4gnss28IGnssPowerIndicationCallbackEEE",
   "size" : 4,
   "source_file" : "out/soong/.intermediates/hardware/interfaces/gnss/aidl/android.hardware.gnss-V1-ndk_platform-source/gen/include/aidl/android/hardware/gnss/IGnssPowerIndicationCallback.h"
  },
  {
   "alignment" : 4,
   "linker_set_key" : "_ZTIPNSt3__110shared_ptrIN4aidl7android8hardware4gnss5IGnssEEE",
   "name" : "std::shared_ptr<aidl::android::hardware::gnss::IGnss> *",
   "referenced_type" : "_ZTINSt3__110shared_ptrIN4aidl7android8hardware4gnss5IGnssEEE",
   "self_type" : "_ZTIPNSt3__110shared_ptrIN4aidl7android8hardware4gnss5IGnssEEE",
   "size" : 4,
   "source_file" : "out/soong/.intermediates/hardware/interfaces/gnss/aidl/android.hardware.gnss-V1-ndk_platform-source/gen/include/aidl/android/hardware/gnss/IGnss.h"
  },
  {
   "alignment" : 4,
   "linker_set_key" : "_ZTIPNSt3__110shared_ptrIN4aidl7android8hardware4gnss9IGnssPsdsEEE",
   "name" : "std::shared_ptr<aidl::android::hardware::gnss::IGnssPsds> *",
   "referenced_type" : "_ZTINSt3__110shared_ptrIN4aidl7android8hardware4gnss9IGnssPsdsEEE",
   "self_type" : "_ZTIPNSt3__110shared_ptrIN4aidl7android8hardware4gnss9IGnssPsdsEEE",
   "size" : 4,
   "source_file" : "out/soong/.intermediates/hardware/interfaces/gnss/aidl/android.hardware.gnss-V1-ndk_platform-source/gen/include/aidl/android/hardware/gnss/IGnss.h"
  },
  {
   "alignment" : 4,
   "linker_set_key" : "_ZTIPNSt3__112basic_stringIcNS_11char_traitsIcEENS_9allocatorIcEEEE",
   "name" : "std::basic_string<char, std::char_traits<char>, std::allocator<char>> *",
   "referenced_type" : "_ZTINSt3__112basic_stringIcNS_11char_traitsIcEENS_9allocatorIcEEEE",
   "self_type" : "_ZTIPNSt3__112basic_stringIcNS_11char_traitsIcEENS_9allocatorIcEEEE",
   "size" : 4,
   "source_file" : "out/soong/.intermediates/hardware/interfaces/gnss/aidl/android.hardware.gnss-V1-ndk_platform-source/gen/include/aidl/android/hardware/gnss/IGnss.h"
  },
  {
   "alignment" : 4,
   "linker_set_key" : "_ZTIPNSt3__16vectorIDsNS_9allocatorIDsEEEE",
   "name" : "std::vector<char16_t, std::allocator<char16_t>> *",
   "referenced_type" : "_ZTINSt3__16vectorIDsNS_9allocatorIDsEEEE",
   "self_type" : "_ZTIPNSt3__16vectorIDsNS_9allocatorIDsEEEE",
   "size" : 4,
   "source_file" : "frameworks/native/libs/binder/ndk/include_cpp/android/binder_parcel_utils.h"
  },
  {
   "alignment" : 4,
   "linker_set_key" : "_ZTIPNSt3__16vectorIbNS_9allocatorIbEEEE",
   "name" : "std::vector<bool, std::allocator<bool>> *",
   "referenced_type" : "_ZTINSt3__16vectorIbNS_9allocatorIbEEEE",
   "self_type" : "_ZTIPNSt3__16vectorIbNS_9allocatorIbEEEE",
   "size" : 4,
   "source_file" : "frameworks/native/libs/binder/ndk/include_cpp/android/binder_parcel_utils.h"
  },
  {
   "alignment" : 4,
   "linker_set_key" : "_ZTIPNSt3__16vectorIdNS_9allocatorIdEEEE",
   "name" : "std::vector<double, std::allocator<double>> *",
   "referenced_type" : "_ZTINSt3__16vectorIdNS_9allocatorIdEEEE",
   "self_type" : "_ZTIPNSt3__16vectorIdNS_9allocatorIdEEEE",
   "size" : 4,
   "source_file" : "frameworks/native/libs/binder/ndk/include_cpp/android/binder_parcel_utils.h"
  },
  {
   "alignment" : 4,
   "linker_set_key" : "_ZTIPNSt3__16vectorIfNS_9allocatorIfEEEE",
   "name" : "std::vector<float, std::allocator<float>> *",
   "referenced_type" : "_ZTINSt3__16vectorIfNS_9allocatorIfEEEE",
   "self_type" : "_ZTIPNSt3__16vectorIfNS_9allocatorIfEEEE",
   "size" : 4,
   "source_file" : "frameworks/native/libs/binder/ndk/include_cpp/android/binder_parcel_utils.h"
  },
  {
   "alignment" : 4,
   "linker_set_key" : "_ZTIPNSt3__16vectorIhNS_9allocatorIhEEEE",
   "name" : "std::vector<unsigned char, std::allocator<unsigned char>> *",
   "referenced_type" : "_ZTINSt3__16vectorIhNS_9allocatorIhEEEE",
   "self_type" : "_ZTIPNSt3__16vectorIhNS_9allocatorIhEEEE",
   "size" : 4,
   "source_file" : "frameworks/native/libs/binder/ndk/include_cpp/android/binder_parcel_utils.h"
  },
  {
   "alignment" : 4,
   "linker_set_key" : "_ZTIPNSt3__16vectorIiNS_9allocatorIiEEEE",
   "name" : "std::vector<int, std::allocator<int>> *",
   "referenced_type" : "_ZTINSt3__16vectorIiNS_9allocatorIiEEEE",
   "self_type" : "_ZTIPNSt3__16vectorIiNS_9allocatorIiEEEE",
   "size" : 4,
   "source_file" : "frameworks/native/libs/binder/ndk/include_cpp/android/binder_parcel_utils.h"
  },
  {
   "alignment" : 4,
   "linker_set_key" : "_ZTIPNSt3__16vectorIjNS_9allocatorIjEEEE",
   "name" : "std::vector<unsigned int, std::allocator<unsigned int>> *",
   "referenced_type" : "_ZTINSt3__16vectorIjNS_9allocatorIjEEEE",
   "self_type" : "_ZTIPNSt3__16vectorIjNS_9allocatorIjEEEE",
   "size" : 4,
   "source_file" : "frameworks/native/libs/binder/ndk/include_cpp/android/binder_parcel_utils.h"
  },
  {
   "alignment" : 4,
   "linker_set_key" : "_ZTIPNSt3__16vectorIxNS_9allocatorIxEEEE",
   "name" : "std::vector<long long, std::allocator<long long>> *",
   "referenced_type" : "_ZTINSt3__16vectorIxNS_9allocatorIxEEEE",
   "self_type" : "_ZTIPNSt3__16vectorIxNS_9allocatorIxEEEE",
   "size" : 4,
   "source_file" : "frameworks/native/libs/binder/ndk/include_cpp/android/binder_parcel_utils.h"
  },
  {
   "alignment" : 4,
   "linker_set_key" : "_ZTIPNSt3__16vectorIyNS_9allocatorIyEEEE",
   "name" : "std::vector<unsigned long long, std::allocator<unsigned long long>> *",
   "referenced_type" : "_ZTINSt3__16vectorIyNS_9allocatorIyEEEE",
   "self_type" : "_ZTIPNSt3__16vectorIyNS_9allocatorIyEEEE",
   "size" : 4,
   "source_file" : "frameworks/native/libs/binder/ndk/include_cpp/android/binder_parcel_utils.h"
  },
  {
   "alignment" : 4,
   "linker_set_key" : "_ZTIPNSt3__18optionalINS_6vectorIDsNS_9allocatorIDsEEEEEE",
   "name" : "std::optional<std::vector<char16_t, std::allocator<char16_t>>> *",
   "referenced_type" : "_ZTINSt3__18optionalINS_6vectorIDsNS_9allocatorIDsEEEEEE",
   "self_type" : "_ZTIPNSt3__18optionalINS_6vectorIDsNS_9allocatorIDsEEEEEE",
   "size" : 4,
   "source_file" : "frameworks/native/libs/binder/ndk/include_cpp/android/binder_parcel_utils.h"
  },
  {
   "alignment" : 4,
   "linker_set_key" : "_ZTIPNSt3__18optionalINS_6vectorIbNS_9allocatorIbEEEEEE",
   "name" : "std::optional<std::vector<bool, std::allocator<bool>>> *",
   "referenced_type" : "_ZTINSt3__18optionalINS_6vectorIbNS_9allocatorIbEEEEEE",
   "self_type" : "_ZTIPNSt3__18optionalINS_6vectorIbNS_9allocatorIbEEEEEE",
   "size" : 4,
   "source_file" : "frameworks/native/libs/binder/ndk/include_cpp/android/binder_parcel_utils.h"
  },
  {
   "alignment" : 4,
   "linker_set_key" : "_ZTIPNSt3__18optionalINS_6vectorIdNS_9allocatorIdEEEEEE",
   "name" : "std::optional<std::vector<double, std::allocator<double>>> *",
   "referenced_type" : "_ZTINSt3__18optionalINS_6vectorIdNS_9allocatorIdEEEEEE",
   "self_type" : "_ZTIPNSt3__18optionalINS_6vectorIdNS_9allocatorIdEEEEEE",
   "size" : 4,
   "source_file" : "frameworks/native/libs/binder/ndk/include_cpp/android/binder_parcel_utils.h"
  },
  {
   "alignment" : 4,
   "linker_set_key" : "_ZTIPNSt3__18optionalINS_6vectorIfNS_9allocatorIfEEEEEE",
   "name" : "std::optional<std::vector<float, std::allocator<float>>> *",
   "referenced_type" : "_ZTINSt3__18optionalINS_6vectorIfNS_9allocatorIfEEEEEE",
   "self_type" : "_ZTIPNSt3__18optionalINS_6vectorIfNS_9allocatorIfEEEEEE",
   "size" : 4,
   "source_file" : "frameworks/native/libs/binder/ndk/include_cpp/android/binder_parcel_utils.h"
  },
  {
   "alignment" : 4,
   "linker_set_key" : "_ZTIPNSt3__18optionalINS_6vectorIhNS_9allocatorIhEEEEEE",
   "name" : "std::optional<std::vector<unsigned char, std::allocator<unsigned char>>> *",
   "referenced_type" : "_ZTINSt3__18optionalINS_6vectorIhNS_9allocatorIhEEEEEE",
   "self_type" : "_ZTIPNSt3__18optionalINS_6vectorIhNS_9allocatorIhEEEEEE",
   "size" : 4,
   "source_file" : "frameworks/native/libs/binder/ndk/include_cpp/android/binder_parcel_utils.h"
  },
  {
   "alignment" : 4,
   "linker_set_key" : "_ZTIPNSt3__18optionalINS_6vectorIiNS_9allocatorIiEEEEEE",
   "name" : "std::optional<std::vector<int, std::allocator<int>>> *",
   "referenced_type" : "_ZTINSt3__18optionalINS_6vectorIiNS_9allocatorIiEEEEEE",
   "self_type" : "_ZTIPNSt3__18optionalINS_6vectorIiNS_9allocatorIiEEEEEE",
   "size" : 4,
   "source_file" : "frameworks/native/libs/binder/ndk/include_cpp/android/binder_parcel_utils.h"
  },
  {
   "alignment" : 4,
   "linker_set_key" : "_ZTIPNSt3__18optionalINS_6vectorIjNS_9allocatorIjEEEEEE",
   "name" : "std::optional<std::vector<unsigned int, std::allocator<unsigned int>>> *",
   "referenced_type" : "_ZTINSt3__18optionalINS_6vectorIjNS_9allocatorIjEEEEEE",
   "self_type" : "_ZTIPNSt3__18optionalINS_6vectorIjNS_9allocatorIjEEEEEE",
   "size" : 4,
