{
 "array_types" :
 [
  {
   "linker_set_key" : "_ZTIA_N7android13TypeConverterINS_13DefaultTraitsI12audio_mode_tEEE5TableE",
   "name" : "android::TypeConverter<android::DefaultTraits<audio_mode_t>>::Table []",
   "referenced_type" : "_ZTIN7android13TypeConverterINS_13DefaultTraitsI12audio_mode_tEEE5TableE",
   "self_type" : "_ZTIA_N7android13TypeConverterINS_13DefaultTraitsI12audio_mode_tEEE5TableE",
   "source_file" : "frameworks/av/media/libmediahelper/include/media/TypeConverter.h"
  },
  {
   "linker_set_key" : "_ZTIA_N7android13TypeConverterINS_13DefaultTraitsI20audio_content_type_tEEE5TableE",
   "name" : "android::TypeConverter<android::DefaultTraits<audio_content_type_t>>::Table []",
   "referenced_type" : "_ZTIN7android13TypeConverterINS_13DefaultTraitsI20audio_content_type_tEEE5TableE",
   "self_type" : "_ZTIA_N7android13TypeConverterINS_13DefaultTraitsI20audio_content_type_tEEE5TableE",
   "source_file" : "frameworks/av/media/libmediahelper/include/media/TypeConverter.h"
  },
  {
   "linker_set_key" : "_ZTIA_N7android13TypeConverterINS_15AudioFlagTraitsEE5TableE",
   "name" : "android::TypeConverter<android::AudioFlagTraits>::Table []",
   "referenced_type" : "_ZTIN7android13TypeConverterINS_15AudioFlagTraitsEE5TableE",
   "self_type" : "_ZTIA_N7android13TypeConverterINS_15AudioFlagTraitsEE5TableE",
   "source_file" : "frameworks/av/media/libmediahelper/include/media/TypeConverter.h"
  }
 ],
 "builtin_types" :
 [
  {
   "alignment" : 1,
   "is_integral" : true,
   "is_unsigned" : true,
   "linker_set_key" : "_ZTIb",
   "name" : "bool",
   "referenced_type" : "_ZTIb",
   "self_type" : "_ZTIb",
   "size" : 1
  },
  {
   "alignment" : 1,
   "is_integral" : true,
   "is_unsigned" : true,
   "linker_set_key" : "_ZTIc",
   "name" : "char",
   "referenced_type" : "_ZTIc",
   "self_type" : "_ZTIc",
   "size" : 1
  },
  {
   "alignment" : 8,
   "linker_set_key" : "_ZTId",
   "name" : "double",
   "referenced_type" : "_ZTId",
   "self_type" : "_ZTId",
   "size" : 8
  },
  {
   "alignment" : 4,
   "linker_set_key" : "_ZTIf",
   "name" : "float",
   "referenced_type" : "_ZTIf",
   "self_type" : "_ZTIf",
   "size" : 4
  },
  {
   "alignment" : 4,
   "is_integral" : true,
   "linker_set_key" : "_ZTIi",
   "name" : "int",
   "referenced_type" : "_ZTIi",
   "self_type" : "_ZTIi",
   "size" : 4
  },
  {
   "alignment" : 4,
   "is_integral" : true,
   "is_unsigned" : true,
   "linker_set_key" : "_ZTIj",
   "name" : "unsigned int",
   "referenced_type" : "_ZTIj",
   "self_type" : "_ZTIj",
   "size" : 4
  },
  {
   "alignment" : 8,
   "is_integral" : true,
   "linker_set_key" : "_ZTIl",
   "name" : "long",
   "referenced_type" : "_ZTIl",
   "self_type" : "_ZTIl",
   "size" : 8
  },
  {
   "alignment" : 8,
   "is_integral" : true,
   "is_unsigned" : true,
   "linker_set_key" : "_ZTIm",
   "name" : "unsigned long",
   "referenced_type" : "_ZTIm",
   "self_type" : "_ZTIm",
   "size" : 8
  },
  {
   "alignment" : 2,
   "is_integral" : true,
   "linker_set_key" : "_ZTIs",
   "name" : "short",
   "referenced_type" : "_ZTIs",
   "self_type" : "_ZTIs",
   "size" : 2
  },
  {
   "alignment" : 2,
   "is_integral" : true,
   "is_unsigned" : true,
   "linker_set_key" : "_ZTIt",
   "name" : "unsigned short",
   "referenced_type" : "_ZTIt",
   "self_type" : "_ZTIt",
   "size" : 2
  },
  {
   "linker_set_key" : "_ZTIv",
   "name" : "void",
   "referenced_type" : "_ZTIv",
   "self_type" : "_ZTIv"
  }
 ],
 "elf_functions" : [],
 "elf_objects" : [],
 "enum_types" : [],
 "function_types" : [],
 "functions" :
 [
  {
   "function_name" : "android::DefaultTraits<audio_mode_t>::add",
   "linker_set_key" : "_ZN7android13DefaultTraitsI12audio_mode_tE3addERNSt3__16vectorIS1_NS3_9allocatorIS1_EEEES1_",
   "parameters" :
   [
    {
     "referenced_type" : "_ZTIRNSt3__16vectorI12audio_mode_tNS_9allocatorIS1_EEEE"
    },
    {
     "referenced_type" : "_ZTI12audio_mode_t"
    }
   ],
   "return_type" : "_ZTIv",
   "source_file" : "frameworks/av/media/libmediahelper/include/media/TypeConverter.h"
  },
  {
   "function_name" : "android::DefaultTraits<audio_usage_t>::add",
   "linker_set_key" : "_ZN7android13DefaultTraitsI13audio_usage_tE3addERNSt3__16vectorIS1_NS3_9allocatorIS1_EEEES1_",
   "parameters" :
   [
    {
     "referenced_type" : "_ZTIRNSt3__16vectorI13audio_usage_tNS_9allocatorIS1_EEEE"
    },
    {
     "referenced_type" : "_ZTI13audio_usage_t"
    }
   ],
   "return_type" : "_ZTIv",
   "source_file" : "frameworks/av/media/libmediahelper/include/media/TypeConverter.h"
  },
  {
   "function_name" : "android::DefaultTraits<audio_format_t>::add",
   "linker_set_key" : "_ZN7android13DefaultTraitsI14audio_format_tE3addERNSt3__16vectorIS1_NS3_9allocatorIS1_EEEES1_",
   "parameters" :
   [
    {
     "referenced_type" : "_ZTIRNSt3__16vectorI14audio_format_tNS_9allocatorIS1_EEEE"
    },
    {
     "referenced_type" : "_ZTI14audio_format_t"
    }
   ],
   "return_type" : "_ZTIv",
   "source_file" : "frameworks/av/media/libmediahelper/include/media/TypeConverter.h"
  },
  {
   "function_name" : "android::DefaultTraits<audio_source_t>::add",
   "linker_set_key" : "_ZN7android13DefaultTraitsI14audio_source_tE3addERNSt3__16vectorIS1_NS3_9allocatorIS1_EEEES1_",
   "parameters" :
   [
    {
     "referenced_type" : "_ZTIRNSt3__16vectorI14audio_source_tNS_9allocatorIS1_EEEE"
    },
    {
     "referenced_type" : "_ZTI14audio_source_t"
    }
   ],
   "return_type" : "_ZTIv",
   "source_file" : "frameworks/av/media/libmediahelper/include/media/TypeConverter.h"
  },
  {
   "function_name" : "android::DefaultTraits<audio_devices_t>::add",
   "linker_set_key" : "_ZN7android13DefaultTraitsI15audio_devices_tE3addERNSt3__16vectorIS1_NS3_9allocatorIS1_EEEES1_",
   "parameters" :
   [
    {
     "referenced_type" : "_ZTIRNSt3__16vectorI15audio_devices_tNS_9allocatorIS1_EEEE"
    },
    {
     "referenced_type" : "_ZTI15audio_devices_t"
    }
   ],
   "return_type" : "_ZTIv",
   "source_file" : "frameworks/av/media/libmediahelper/include/media/TypeConverter.h"
  },
  {
   "function_name" : "android::DefaultTraits<audio_gain_mode_t>::add",
   "linker_set_key" : "_ZN7android13DefaultTraitsI17audio_gain_mode_tE3addERNSt3__16vectorIS1_NS3_9allocatorIS1_EEEES1_",
   "parameters" :
   [
    {
     "referenced_type" : "_ZTIRNSt3__16vectorI17audio_gain_mode_tNS_9allocatorIS1_EEEE"
    },
    {
     "referenced_type" : "_ZTI17audio_gain_mode_t"
    }
   ],
   "return_type" : "_ZTIv",
   "source_file" : "frameworks/av/media/libmediahelper/include/media/TypeConverter.h"
  },
  {
   "function_name" : "android::DefaultTraits<audio_flags_mask_t>::add",
   "linker_set_key" : "_ZN7android13DefaultTraitsI18audio_flags_mask_tE3addERNSt3__16vectorIS1_NS3_9allocatorIS1_EEEES1_",
   "parameters" :
   [
    {
     "referenced_type" : "_ZTIRNSt3__16vectorI18audio_flags_mask_tNS_9allocatorIS1_EEEE"
    },
    {
     "referenced_type" : "_ZTI18audio_flags_mask_t"
    }
   ],
   "return_type" : "_ZTIv",
   "source_file" : "frameworks/av/media/libmediahelper/include/media/TypeConverter.h"
  },
  {
   "function_name" : "android::DefaultTraits<audio_input_flags_t>::add",
   "linker_set_key" : "_ZN7android13DefaultTraitsI19audio_input_flags_tE3addERNSt3__16vectorIS1_NS3_9allocatorIS1_EEEES1_",
   "parameters" :
   [
    {
     "referenced_type" : "_ZTIRNSt3__16vectorI19audio_input_flags_tNS_9allocatorIS1_EEEE"
    },
    {
     "referenced_type" : "_ZTI19audio_input_flags_t"
    }
   ],
   "return_type" : "_ZTIv",
   "source_file" : "frameworks/av/media/libmediahelper/include/media/TypeConverter.h"
  },
  {
   "function_name" : "android::DefaultTraits<audio_stream_type_t>::add",
   "linker_set_key" : "_ZN7android13DefaultTraitsI19audio_stream_type_tE3addERNSt3__16vectorIS1_NS3_9allocatorIS1_EEEES1_",
   "parameters" :
   [
    {
     "referenced_type" : "_ZTIRNSt3__16vectorI19audio_stream_type_tNS_9allocatorIS1_EEEE"
    },
    {
     "referenced_type" : "_ZTI19audio_stream_type_t"
    }
   ],
   "return_type" : "_ZTIv",
   "source_file" : "frameworks/av/media/libmediahelper/include/media/TypeConverter.h"
  },
  {
   "function_name" : "android::DefaultTraits<audio_output_flags_t>::add",
   "linker_set_key" : "_ZN7android13DefaultTraitsI20audio_output_flags_tE3addERNSt3__16vectorIS1_NS3_9allocatorIS1_EEEES1_",
   "parameters" :
   [
    {
     "referenced_type" : "_ZTIRNSt3__16vectorI20audio_output_flags_tNS_9allocatorIS1_EEEE"
    },
    {
     "referenced_type" : "_ZTI20audio_output_flags_t"
    }
   ],
   "return_type" : "_ZTIv",
   "source_file" : "frameworks/av/media/libmediahelper/include/media/TypeConverter.h"
  },
  {
   "access" : "protected",
   "function_name" : "android::TypeConverter<android::DefaultTraits<audio_usage_t>>::toStringImpl",
   "linker_set_key" : "_ZN7android13TypeConverterINS_13DefaultTraitsI13audio_usage_tEEE12toStringImplERKS2_RNSt3__112basic_stringIcNS7_11char_traitsIcEENS7_9allocatorIcEEEE",
   "parameters" :
   [
    {
     "referenced_type" : "_ZTIRK13audio_usage_t"
    },
    {
     "referenced_type" : "_ZTIRNSt3__112basic_stringIcNS_11char_traitsIcEENS_9allocatorIcEEEE"
    }
   ],
   "return_type" : "_ZTIb",
   "source_file" : "frameworks/av/media/libmediahelper/include/media/TypeConverter.h"
  },
  {
   "access" : "protected",
   "function_name" : "android::TypeConverter<android::DefaultTraits<audio_usage_t>>::fromStringImpl",
   "linker_set_key" : "_ZN7android13TypeConverterINS_13DefaultTraitsI13audio_usage_tEEE14fromStringImplERKNSt3__112basic_stringIcNS5_11char_traitsIcEENS5_9allocatorIcEEEERS2_",
   "parameters" :
   [
    {
     "referenced_type" : "_ZTIRKNSt3__112basic_stringIcNS_11char_traitsIcEENS_9allocatorIcEEEE"
    },
    {
     "referenced_type" : "_ZTIR13audio_usage_t"
    }
   ],
   "return_type" : "_ZTIb",
   "source_file" : "frameworks/av/media/libmediahelper/include/media/TypeConverter.h"
  },
  {
   "access" : "protected",
   "function_name" : "android::TypeConverter<android::DefaultTraits<audio_format_t>>::toStringImpl",
   "linker_set_key" : "_ZN7android13TypeConverterINS_13DefaultTraitsI14audio_format_tEEE12toStringImplERKS2_RNSt3__112basic_stringIcNS7_11char_traitsIcEENS7_9allocatorIcEEEE",
   "parameters" :
   [
    {
     "referenced_type" : "_ZTIRK14audio_format_t"
    },
    {
     "referenced_type" : "_ZTIRNSt3__112basic_stringIcNS_11char_traitsIcEENS_9allocatorIcEEEE"
    }
   ],
   "return_type" : "_ZTIb",
   "source_file" : "frameworks/av/media/libmediahelper/include/media/TypeConverter.h"
  },
  {
   "access" : "protected",
   "function_name" : "android::TypeConverter<android::DefaultTraits<audio_format_t>>::fromStringImpl",
   "linker_set_key" : "_ZN7android13TypeConverterINS_13DefaultTraitsI14audio_format_tEEE14fromStringImplERKNSt3__112basic_stringIcNS5_11char_traitsIcEENS5_9allocatorIcEEEERS2_",
   "parameters" :
   [
    {
     "referenced_type" : "_ZTIRKNSt3__112basic_stringIcNS_11char_traitsIcEENS_9allocatorIcEEEE"
    },
    {
     "referenced_type" : "_ZTIR14audio_format_t"
    }
   ],
   "return_type" : "_ZTIb",
   "source_file" : "frameworks/av/media/libmediahelper/include/media/TypeConverter.h"
  },
  {
   "access" : "protected",
   "function_name" : "android::TypeConverter<android::DefaultTraits<audio_source_t>>::toStringImpl",
   "linker_set_key" : "_ZN7android13TypeConverterINS_13DefaultTraitsI14audio_source_tEEE12toStringImplERKS2_RNSt3__112basic_stringIcNS7_11char_traitsIcEENS7_9allocatorIcEEEE",
   "parameters" :
   [
    {
     "referenced_type" : "_ZTIRK14audio_source_t"
    },
    {
     "referenced_type" : "_ZTIRNSt3__112basic_stringIcNS_11char_traitsIcEENS_9allocatorIcEEEE"
    }
   ],
   "return_type" : "_ZTIb",
   "source_file" : "frameworks/av/media/libmediahelper/include/media/TypeConverter.h"
  },
  {
   "access" : "protected",
   "function_name" : "android::TypeConverter<android::DefaultTraits<audio_source_t>>::fromStringImpl",
   "linker_set_key" : "_ZN7android13TypeConverterINS_13DefaultTraitsI14audio_source_tEEE14fromStringImplERKNSt3__112basic_stringIcNS5_11char_traitsIcEENS5_9allocatorIcEEEERS2_",
   "parameters" :
   [
    {
     "referenced_type" : "_ZTIRKNSt3__112basic_stringIcNS_11char_traitsIcEENS_9allocatorIcEEEE"
    },
    {
     "referenced_type" : "_ZTIR14audio_source_t"
    }
   ],
   "return_type" : "_ZTIb",
   "source_file" : "frameworks/av/media/libmediahelper/include/media/TypeConverter.h"
  },
  {
   "access" : "protected",
   "function_name" : "android::TypeConverter<android::DefaultTraits<audio_devices_t>>::toStringImpl",
   "linker_set_key" : "_ZN7android13TypeConverterINS_13DefaultTraitsI15audio_devices_tEEE12toStringImplERKS2_RNSt3__112basic_stringIcNS7_11char_traitsIcEENS7_9allocatorIcEEEE",
   "parameters" :
   [
    {
     "referenced_type" : "_ZTIRK15audio_devices_t"
    },
    {
     "referenced_type" : "_ZTIRNSt3__112basic_stringIcNS_11char_traitsIcEENS_9allocatorIcEEEE"
    }
   ],
   "return_type" : "_ZTIb",
   "source_file" : "frameworks/av/media/libmediahelper/include/media/TypeConverter.h"
  },
  {
   "access" : "protected",
   "function_name" : "android::TypeConverter<android::DefaultTraits<audio_devices_t>>::fromStringImpl",
   "linker_set_key" : "_ZN7android13TypeConverterINS_13DefaultTraitsI15audio_devices_tEEE14fromStringImplERKNSt3__112basic_stringIcNS5_11char_traitsIcEENS5_9allocatorIcEEEERS2_",
   "parameters" :
   [
    {
     "referenced_type" : "_ZTIRKNSt3__112basic_stringIcNS_11char_traitsIcEENS_9allocatorIcEEEE"
    },
    {
     "referenced_type" : "_ZTIR15audio_devices_t"
    }
   ],
   "return_type" : "_ZTIb",
   "source_file" : "frameworks/av/media/libmediahelper/include/media/TypeConverter.h"
  },
  {
   "access" : "protected",
   "function_name" : "android::TypeConverter<android::DefaultTraits<audio_gain_mode_t>>::toStringImpl",
   "linker_set_key" : "_ZN7android13TypeConverterINS_13DefaultTraitsI17audio_gain_mode_tEEE12toStringImplERKS2_RNSt3__112basic_stringIcNS7_11char_traitsIcEENS7_9allocatorIcEEEE",
   "parameters" :
   [
    {
     "referenced_type" : "_ZTIRK17audio_gain_mode_t"
    },
    {
     "referenced_type" : "_ZTIRNSt3__112basic_stringIcNS_11char_traitsIcEENS_9allocatorIcEEEE"
    }
   ],
   "return_type" : "_ZTIb",
   "source_file" : "frameworks/av/media/libmediahelper/include/media/TypeConverter.h"
  },
  {
   "access" : "protected",
   "function_name" : "android::TypeConverter<android::DefaultTraits<audio_gain_mode_t>>::fromStringImpl",
   "linker_set_key" : "_ZN7android13TypeConverterINS_13DefaultTraitsI17audio_gain_mode_tEEE14fromStringImplERKNSt3__112basic_stringIcNS5_11char_traitsIcEENS5_9allocatorIcEEEERS2_",
   "parameters" :
   [
    {
     "referenced_type" : "_ZTIRKNSt3__112basic_stringIcNS_11char_traitsIcEENS_9allocatorIcEEEE"
    },
    {
     "referenced_type" : "_ZTIR17audio_gain_mode_t"
    }
   ],
   "return_type" : "_ZTIb",
   "source_file" : "frameworks/av/media/libmediahelper/include/media/TypeConverter.h"
  },
  {
   "access" : "protected",
   "function_name" : "android::TypeConverter<android::DefaultTraits<audio_input_flags_t>>::toStringImpl",
   "linker_set_key" : "_ZN7android13TypeConverterINS_13DefaultTraitsI19audio_input_flags_tEEE12toStringImplERKS2_RNSt3__112basic_stringIcNS7_11char_traitsIcEENS7_9allocatorIcEEEE",
   "parameters" :
   [
    {
     "referenced_type" : "_ZTIRK19audio_input_flags_t"
    },
    {
     "referenced_type" : "_ZTIRNSt3__112basic_stringIcNS_11char_traitsIcEENS_9allocatorIcEEEE"
    }
   ],
   "return_type" : "_ZTIb",
   "source_file" : "frameworks/av/media/libmediahelper/include/media/TypeConverter.h"
  },
  {
   "access" : "protected",
   "function_name" : "android::TypeConverter<android::DefaultTraits<audio_input_flags_t>>::fromStringImpl",
   "linker_set_key" : "_ZN7android13TypeConverterINS_13DefaultTraitsI19audio_input_flags_tEEE14fromStringImplERKNSt3__112basic_stringIcNS5_11char_traitsIcEENS5_9allocatorIcEEEERS2_",
   "parameters" :
   [
    {
     "referenced_type" : "_ZTIRKNSt3__112basic_stringIcNS_11char_traitsIcEENS_9allocatorIcEEEE"
    },
    {
     "referenced_type" : "_ZTIR19audio_input_flags_t"
    }
   ],
   "return_type" : "_ZTIb",
   "source_file" : "frameworks/av/media/libmediahelper/include/media/TypeConverter.h"
  },
  {
   "access" : "protected",
   "function_name" : "android::TypeConverter<android::DefaultTraits<audio_stream_type_t>>::toStringImpl",
   "linker_set_key" : "_ZN7android13TypeConverterINS_13DefaultTraitsI19audio_stream_type_tEEE12toStringImplERKS2_RNSt3__112basic_stringIcNS7_11char_traitsIcEENS7_9allocatorIcEEEE",
   "parameters" :
   [
    {
     "referenced_type" : "_ZTIRK19audio_stream_type_t"
    },
    {
     "referenced_type" : "_ZTIRNSt3__112basic_stringIcNS_11char_traitsIcEENS_9allocatorIcEEEE"
    }
   ],
   "return_type" : "_ZTIb",
   "source_file" : "frameworks/av/media/libmediahelper/include/media/TypeConverter.h"
  },
  {
   "access" : "protected",
   "function_name" : "android::TypeConverter<android::DefaultTraits<audio_stream_type_t>>::fromStringImpl",
   "linker_set_key" : "_ZN7android13TypeConverterINS_13DefaultTraitsI19audio_stream_type_tEEE14fromStringImplERKNSt3__112basic_stringIcNS5_11char_traitsIcEENS5_9allocatorIcEEEERS2_",
   "parameters" :
   [
    {
     "referenced_type" : "_ZTIRKNSt3__112basic_stringIcNS_11char_traitsIcEENS_9allocatorIcEEEE"
    },
    {
     "referenced_type" : "_ZTIR19audio_stream_type_t"
    }
   ],
   "return_type" : "_ZTIb",
   "source_file" : "frameworks/av/media/libmediahelper/include/media/TypeConverter.h"
  },
  {
   "access" : "protected",
   "function_name" : "android::TypeConverter<android::DefaultTraits<audio_content_type_t>>::toStringImpl",
   "linker_set_key" : "_ZN7android13TypeConverterINS_13DefaultTraitsI20audio_content_type_tEEE12toStringImplERKS2_RNSt3__112basic_stringIcNS7_11char_traitsIcEENS7_9allocatorIcEEEE",
   "parameters" :
   [
    {
     "referenced_type" : "_ZTIRK20audio_content_type_t"
    },
    {
     "referenced_type" : "_ZTIRNSt3__112basic_stringIcNS_11char_traitsIcEENS_9allocatorIcEEEE"
    }
   ],
   "return_type" : "_ZTIb",
   "source_file" : "frameworks/av/media/libmediahelper/include/media/TypeConverter.h"
  },
  {
   "access" : "protected",
   "function_name" : "android::TypeConverter<android::DefaultTraits<audio_content_type_t>>::fromStringImpl",
   "linker_set_key" : "_ZN7android13TypeConverterINS_13DefaultTraitsI20audio_content_type_tEEE14fromStringImplERKNSt3__112basic_stringIcNS5_11char_traitsIcEENS5_9allocatorIcEEEERS2_",
   "parameters" :
   [
    {
     "referenced_type" : "_ZTIRKNSt3__112basic_stringIcNS_11char_traitsIcEENS_9allocatorIcEEEE"
    },
    {
     "referenced_type" : "_ZTIR20audio_content_type_t"
    }
   ],
   "return_type" : "_ZTIb",
   "source_file" : "frameworks/av/media/libmediahelper/include/media/TypeConverter.h"
  },
  {
   "function_name" : "android::TypeConverter<android::DefaultTraits<audio_content_type_t>>::toString",
   "linker_set_key" : "_ZN7android13TypeConverterINS_13DefaultTraitsI20audio_content_type_tEEE8toStringERKS2_RNSt3__112basic_stringIcNS7_11char_traitsIcEENS7_9allocatorIcEEEE",
   "parameters" :
   [
    {
     "referenced_type" : "_ZTIRK20audio_content_type_t"
    },
    {
     "referenced_type" : "_ZTIRNSt3__112basic_stringIcNS_11char_traitsIcEENS_9allocatorIcEEEE"
    }
   ],
   "return_type" : "_ZTIb",
   "source_file" : "frameworks/av/media/libmediahelper/include/media/TypeConverter.h"
  },
  {
   "access" : "protected",
   "function_name" : "android::TypeConverter<android::DefaultTraits<audio_output_flags_t>>::toStringImpl",
   "linker_set_key" : "_ZN7android13TypeConverterINS_13DefaultTraitsI20audio_output_flags_tEEE12toStringImplERKS2_RNSt3__112basic_stringIcNS7_11char_traitsIcEENS7_9allocatorIcEEEE",
   "parameters" :
   [
    {
     "referenced_type" : "_ZTIRK20audio_output_flags_t"
    },
    {
     "referenced_type" : "_ZTIRNSt3__112basic_stringIcNS_11char_traitsIcEENS_9allocatorIcEEEE"
    }
   ],
   "return_type" : "_ZTIb",
   "source_file" : "frameworks/av/media/libmediahelper/include/media/TypeConverter.h"
  },
  {
   "access" : "protected",
   "function_name" : "android::TypeConverter<android::DefaultTraits<audio_output_flags_t>>::fromStringImpl",
   "linker_set_key" : "_ZN7android13TypeConverterINS_13DefaultTraitsI20audio_output_flags_tEEE14fromStringImplERKNSt3__112basic_stringIcNS5_11char_traitsIcEENS5_9allocatorIcEEEERS2_",
   "parameters" :
   [
    {
     "referenced_type" : "_ZTIRKNSt3__112basic_stringIcNS_11char_traitsIcEENS_9allocatorIcEEEE"
    },
    {
     "referenced_type" : "_ZTIR20audio_output_flags_t"
    }
   ],
   "return_type" : "_ZTIb",
   "source_file" : "frameworks/av/media/libmediahelper/include/media/TypeConverter.h"
  },
  {
   "access" : "protected",
   "function_name" : "android::TypeConverter<android::InputDeviceTraits>::toStringImpl",
   "linker_set_key" : "_ZN7android13TypeConverterINS_17InputDeviceTraitsEE12toStringImplERK15audio_devices_tRNSt3__112basic_stringIcNS6_11char_traitsIcEENS6_9allocatorIcEEEE",
   "parameters" :
   [
    {
     "referenced_type" : "_ZTIRK15audio_devices_t"
    },
    {
     "referenced_type" : "_ZTIRNSt3__112basic_stringIcNS_11char_traitsIcEENS_9allocatorIcEEEE"
    }
   ],
   "return_type" : "_ZTIb",
   "source_file" : "frameworks/av/media/libmediahelper/include/media/TypeConverter.h"
  },
  {
   "access" : "protected",
   "function_name" : "android::TypeConverter<android::InputDeviceTraits>::fromStringImpl",
   "linker_set_key" : "_ZN7android13TypeConverterINS_17InputDeviceTraitsEE14fromStringImplERKNSt3__112basic_stringIcNS3_11char_traitsIcEENS3_9allocatorIcEEEER15audio_devices_t",
   "parameters" :
   [
    {
     "referenced_type" : "_ZTIRKNSt3__112basic_stringIcNS_11char_traitsIcEENS_9allocatorIcEEEE"
    },
    {
     "referenced_type" : "_ZTIR15audio_devices_t"
    }
   ],
   "return_type" : "_ZTIb",
   "source_file" : "frameworks/av/media/libmediahelper/include/media/TypeConverter.h"
  },
  {
   "access" : "protected",
   "function_name" : "android::TypeConverter<android::ChannelIndexTraits>::toStringImpl",
   "linker_set_key" : "_ZN7android13TypeConverterINS_18ChannelIndexTraitsEE12toStringImplERK20audio_channel_mask_tRNSt3__112basic_stringIcNS6_11char_traitsIcEENS6_9allocatorIcEEEE",
   "parameters" :
   [
    {
     "referenced_type" : "_ZTIRK20audio_channel_mask_t"
    },
    {
     "referenced_type" : "_ZTIRNSt3__112basic_stringIcNS_11char_traitsIcEENS_9allocatorIcEEEE"
    }
   ],
   "return_type" : "_ZTIb",
   "source_file" : "frameworks/av/media/libmediahelper/include/media/TypeConverter.h"
  },
  {
   "access" : "protected",
   "function_name" : "android::TypeConverter<android::ChannelIndexTraits>::fromStringImpl",
   "linker_set_key" : "_ZN7android13TypeConverterINS_18ChannelIndexTraitsEE14fromStringImplERKNSt3__112basic_stringIcNS3_11char_traitsIcEENS3_9allocatorIcEEEER20audio_channel_mask_t",
   "parameters" :
   [
    {
     "referenced_type" : "_ZTIRKNSt3__112basic_stringIcNS_11char_traitsIcEENS_9allocatorIcEEEE"
    },
    {
     "referenced_type" : "_ZTIR20audio_channel_mask_t"
    }
   ],
   "return_type" : "_ZTIb",
   "source_file" : "frameworks/av/media/libmediahelper/include/media/TypeConverter.h"
  },
  {
   "access" : "protected",
   "function_name" : "android::TypeConverter<android::InputChannelTraits>::toStringImpl",
   "linker_set_key" : "_ZN7android13TypeConverterINS_18InputChannelTraitsEE12toStringImplERK20audio_channel_mask_tRNSt3__112basic_stringIcNS6_11char_traitsIcEENS6_9allocatorIcEEEE",
   "parameters" :
   [
    {
     "referenced_type" : "_ZTIRK20audio_channel_mask_t"
    },
    {
     "referenced_type" : "_ZTIRNSt3__112basic_stringIcNS_11char_traitsIcEENS_9allocatorIcEEEE"
    }
   ],
   "return_type" : "_ZTIb",
   "source_file" : "frameworks/av/media/libmediahelper/include/media/TypeConverter.h"
  },
  {
   "access" : "protected",
   "function_name" : "android::TypeConverter<android::InputChannelTraits>::fromStringImpl",
   "linker_set_key" : "_ZN7android13TypeConverterINS_18InputChannelTraitsEE14fromStringImplERKNSt3__112basic_stringIcNS3_11char_traitsIcEENS3_9allocatorIcEEEER20audio_channel_mask_t",
   "parameters" :
   [
    {
     "referenced_type" : "_ZTIRKNSt3__112basic_stringIcNS_11char_traitsIcEENS_9allocatorIcEEEE"
    },
    {
     "referenced_type" : "_ZTIR20audio_channel_mask_t"
    }
   ],
   "return_type" : "_ZTIb",
   "source_file" : "frameworks/av/media/libmediahelper/include/media/TypeConverter.h"
  },
  {
   "access" : "protected",
   "function_name" : "android::TypeConverter<android::OutputDeviceTraits>::toStringImpl",
   "linker_set_key" : "_ZN7android13TypeConverterINS_18OutputDeviceTraitsEE12toStringImplERK15audio_devices_tRNSt3__112basic_stringIcNS6_11char_traitsIcEENS6_9allocatorIcEEEE",
   "parameters" :
   [
    {
     "referenced_type" : "_ZTIRK15audio_devices_t"
    },
    {
     "referenced_type" : "_ZTIRNSt3__112basic_stringIcNS_11char_traitsIcEENS_9allocatorIcEEEE"
    }
   ],
   "return_type" : "_ZTIb",
   "source_file" : "frameworks/av/media/libmediahelper/include/media/TypeConverter.h"
  },
  {
   "access" : "protected",
   "function_name" : "android::TypeConverter<android::OutputDeviceTraits>::fromStringImpl",
   "linker_set_key" : "_ZN7android13TypeConverterINS_18OutputDeviceTraitsEE14fromStringImplERKNSt3__112basic_stringIcNS3_11char_traitsIcEENS3_9allocatorIcEEEER15audio_devices_t",
   "parameters" :
   [
    {
     "referenced_type" : "_ZTIRKNSt3__112basic_stringIcNS_11char_traitsIcEENS_9allocatorIcEEEE"
    },
    {
     "referenced_type" : "_ZTIR15audio_devices_t"
    }
   ],
   "return_type" : "_ZTIb",
   "source_file" : "frameworks/av/media/libmediahelper/include/media/TypeConverter.h"
  },
  {
   "access" : "protected",
   "function_name" : "android::TypeConverter<android::OutputChannelTraits>::toStringImpl",
   "linker_set_key" : "_ZN7android13TypeConverterINS_19OutputChannelTraitsEE12toStringImplERK20audio_channel_mask_tRNSt3__112basic_stringIcNS6_11char_traitsIcEENS6_9allocatorIcEEEE",
   "parameters" :
   [
    {
     "referenced_type" : "_ZTIRK20audio_channel_mask_t"
    },
    {
     "referenced_type" : "_ZTIRNSt3__112basic_stringIcNS_11char_traitsIcEENS_9allocatorIcEEEE"
    }
   ],
   "return_type" : "_ZTIb",
   "source_file" : "frameworks/av/media/libmediahelper/include/media/TypeConverter.h"
  },
  {
   "access" : "protected",
   "function_name" : "android::TypeConverter<android::OutputChannelTraits>::fromStringImpl",
   "linker_set_key" : "_ZN7android13TypeConverterINS_19OutputChannelTraitsEE14fromStringImplERKNSt3__112basic_stringIcNS3_11char_traitsIcEENS3_9allocatorIcEEEER20audio_channel_mask_t",
   "parameters" :
   [
    {
     "referenced_type" : "_ZTIRKNSt3__112basic_stringIcNS_11char_traitsIcEENS_9allocatorIcEEEE"
    },
    {
     "referenced_type" : "_ZTIR20audio_channel_mask_t"
    }
   ],
   "return_type" : "_ZTIb",
   "source_file" : "frameworks/av/media/libmediahelper/include/media/TypeConverter.h"
  },
  {
   "function_name" : "android::AudioParameter::AudioParameter",
   "linker_set_key" : "_ZN7android14AudioParameterC1Ev",
   "parameters" :
   [
    {
     "is_this_ptr" : true,
     "referenced_type" : "_ZTIPN7android14AudioParameterE"
    }
   ],
   "return_type" : "_ZTIv",
   "source_file" : "frameworks/av/media/libmediahelper/include/media/AudioParameter.h"
  },
  {
   "function_name" : "android::AudioParameter::AudioParameter",
   "linker_set_key" : "_ZN7android14AudioParameterC2Ev",
   "parameters" :
   [
    {
     "is_this_ptr" : true,
     "referenced_type" : "_ZTIPN7android14AudioParameterE"
    }
   ],
   "return_type" : "_ZTIv",
   "source_file" : "frameworks/av/media/libmediahelper/include/media/AudioParameter.h"
  },
  {
   "function_name" : "android::formatFromString",
   "linker_set_key" : "_ZN7android16formatFromStringERKNSt3__112basic_stringIcNS0_11char_traitsIcEENS0_9allocatorIcEEEE14audio_format_t",
   "parameters" :
   [
    {
     "referenced_type" : "_ZTIRKNSt3__112basic_stringIcNS_11char_traitsIcEENS_9allocatorIcEEEE"
    },
    {
     "default_arg" : true,
     "referenced_type" : "_ZTI14audio_format_t"
    }
   ],
   "return_type" : "_ZTI14audio_format_t",
   "source_file" : "frameworks/av/media/libmediahelper/include/media/TypeConverter.h"
  },
  {
   "function_name" : "android::formatsFromString",
   "linker_set_key" : "_ZN7android17formatsFromStringERKNSt3__112basic_stringIcNS0_11char_traitsIcEENS0_9allocatorIcEEEEPKc",
   "parameters" :
   [
    {
     "referenced_type" : "_ZTIRKNSt3__112basic_stringIcNS_11char_traitsIcEENS_9allocatorIcEEEE"
    },
    {
     "default_arg" : true,
     "referenced_type" : "_ZTIPKc"
    }
   ],
   "return_type" : "_ZTINSt3__16vectorI14audio_format_tNS_9allocatorIS1_EEEE",
   "source_file" : "frameworks/av/media/libmediahelper/include/media/TypeConverter.h"
  },
  {
   "function_name" : "android::channelMaskFromString",
   "linker_set_key" : "_ZN7android21channelMaskFromStringERKNSt3__112basic_stringIcNS0_11char_traitsIcEENS0_9allocatorIcEEEE",
   "parameters" :
   [
    {
     "referenced_type" : "_ZTIRKNSt3__112basic_stringIcNS_11char_traitsIcEENS_9allocatorIcEEEE"
    }
   ],
   "return_type" : "_ZTI20audio_channel_mask_t",
   "source_file" : "frameworks/av/media/libmediahelper/include/media/TypeConverter.h"
  },
  {
   "function_name" : "android::channelMasksFromString",
   "linker_set_key" : "_ZN7android22channelMasksFromStringERKNSt3__112basic_stringIcNS0_11char_traitsIcEENS0_9allocatorIcEEEEPKc",
   "parameters" :
   [
    {
     "referenced_type" : "_ZTIRKNSt3__112basic_stringIcNS_11char_traitsIcEENS_9allocatorIcEEEE"
    },
    {
     "default_arg" : true,
     "referenced_type" : "_ZTIPKc"
    }
   ],
   "return_type" : "_ZTINSt3__13setI20audio_channel_mask_tNS_4lessIS1_EENS_9allocatorIS1_EEEE",
   "source_file" : "frameworks/av/media/libmediahelper/include/media/TypeConverter.h"
  },
  {
   "function_name" : "android::samplingRatesFromString",
   "linker_set_key" : "_ZN7android23samplingRatesFromStringERKNSt3__112basic_stringIcNS0_11char_traitsIcEENS0_9allocatorIcEEEEPKc",
   "parameters" :
   [
    {
     "referenced_type" : "_ZTIRKNSt3__112basic_stringIcNS_11char_traitsIcEENS_9allocatorIcEEEE"
    },
    {
     "default_arg" : true,
     "referenced_type" : "_ZTIPKc"
    }
   ],
   "return_type" : "_ZTINSt3__13setIjNS_4lessIjEENS_9allocatorIjEEEE",
   "source_file" : "frameworks/av/media/libmediahelper/include/media/TypeConverter.h"
  },
  {
   "function_name" : "android::inputChannelMasksFromString",
   "linker_set_key" : "_ZN7android27inputChannelMasksFromStringERKNSt3__112basic_stringIcNS0_11char_traitsIcEENS0_9allocatorIcEEEEPKc",
   "parameters" :
   [
    {
     "referenced_type" : "_ZTIRKNSt3__112basic_stringIcNS_11char_traitsIcEENS_9allocatorIcEEEE"
    },
    {
     "default_arg" : true,
     "referenced_type" : "_ZTIPKc"
    }
   ],
   "return_type" : "_ZTINSt3__13setI20audio_channel_mask_tNS_4lessIS1_EENS_9allocatorIS1_EEEE",
   "source_file" : "frameworks/av/media/libmediahelper/include/media/TypeConverter.h"
  },
  {
   "function_name" : "android::outputChannelMasksFromString",
   "linker_set_key" : "_ZN7android28outputChannelMasksFromStringERKNSt3__112basic_stringIcNS0_11char_traitsIcEENS0_9allocatorIcEEEEPKc",
   "parameters" :
   [
    {
     "referenced_type" : "_ZTIRKNSt3__112basic_stringIcNS_11char_traitsIcEENS_9allocatorIcEEEE"
    },
    {
     "default_arg" : true,
     "referenced_type" : "_ZTIPKc"
    }
   ],
   "return_type" : "_ZTINSt3__13setI20audio_channel_mask_tNS_4lessIS1_EENS_9allocatorIS1_EEEE",
   "source_file" : "frameworks/av/media/libmediahelper/include/media/TypeConverter.h"
  },
  {
   "function_name" : "android::SetTraits<audio_channel_mask_t>::add",
   "linker_set_key" : "_ZN7android9SetTraitsI20audio_channel_mask_tE3addERNSt3__13setIS1_NS3_4lessIS1_EENS3_9allocatorIS1_EEEES1_",
   "parameters" :
   [
    {
     "referenced_type" : "_ZTIRNSt3__13setI20audio_channel_mask_tNS_4lessIS1_EENS_9allocatorIS1_EEEE"
    },
    {
     "referenced_type" : "_ZTI20audio_channel_mask_t"
    }
   ],
   "return_type" : "_ZTIv",
   "source_file" : "frameworks/av/media/libmediahelper/include/media/TypeConverter.h"
  },
  {
   "function_name" : "android::SetTraits<unsigned int>::add",
   "linker_set_key" : "_ZN7android9SetTraitsIjE3addERNSt3__13setIjNS2_4lessIjEENS2_9allocatorIjEEEEj",
   "parameters" :
   [
    {
     "referenced_type" : "_ZTIRNSt3__13setIjNS_4lessIjEENS_9allocatorIjEEEE"
    },
    {
     "referenced_type" : "_ZTIj"
    }
   ],
   "return_type" : "_ZTIv",
   "source_file" : "frameworks/av/media/libmediahelper/include/media/TypeConverter.h"
  },
  {
   "function_name" : "android::utilities::details::Converter<std::__1::basic_string<char>, double>::run",
   "linker_set_key" : "_ZN7android9utilities7details9ConverterINSt3__112basic_stringIcNS3_11char_traitsIcEENS3_9allocatorIcEEEEdE3runERKS9_Rd",
   "parameters" :
   [
    {
     "referenced_type" : "_ZTIRKNSt3__112basic_stringIcNS_11char_traitsIcEENS_9allocatorIcEEEE"
    },
    {
     "referenced_type" : "_ZTIRd"
    }
   ],
   "return_type" : "_ZTIb",
   "source_file" : "frameworks/av/media/libmediahelper/include/media/convert.h"
  },
  {
   "function_name" : "android::utilities::details::Converter<std::__1::basic_string<char>, float>::run",
   "linker_set_key" : "_ZN7android9utilities7details9ConverterINSt3__112basic_stringIcNS3_11char_traitsIcEENS3_9allocatorIcEEEEfE3runERKS9_Rf",
   "parameters" :
   [
    {
     "referenced_type" : "_ZTIRKNSt3__112basic_stringIcNS_11char_traitsIcEENS_9allocatorIcEEEE"
    },
    {
     "referenced_type" : "_ZTIRf"
    }
   ],
   "return_type" : "_ZTIb",
   "source_file" : "frameworks/av/media/libmediahelper/include/media/convert.h"
  },
  {
   "function_name" : "android::utilities::details::Converter<std::__1::basic_string<char>, unsigned int>::run",
   "linker_set_key" : "_ZN7android9utilities7details9ConverterINSt3__112basic_stringIcNS3_11char_traitsIcEENS3_9allocatorIcEEEEjE3runERKS9_Rj",
   "parameters" :
   [
    {
     "referenced_type" : "_ZTIRKNSt3__112basic_stringIcNS_11char_traitsIcEENS_9allocatorIcEEEE"
    },
    {
     "referenced_type" : "_ZTIRj"
    }
   ],
   "return_type" : "_ZTIb",
   "source_file" : "frameworks/av/media/libmediahelper/include/media/convert.h"
  },
  {
   "function_name" : "android::utilities::details::Converter<std::__1::basic_string<char>, long>::run",
   "linker_set_key" : "_ZN7android9utilities7details9ConverterINSt3__112basic_stringIcNS3_11char_traitsIcEENS3_9allocatorIcEEEElE3runERKS9_Rl",
   "parameters" :
   [
    {
     "referenced_type" : "_ZTIRKNSt3__112basic_stringIcNS_11char_traitsIcEENS_9allocatorIcEEEE"
    },
    {
     "referenced_type" : "_ZTIRl"
    }
   ],
   "return_type" : "_ZTIb",
   "source_file" : "frameworks/av/media/libmediahelper/include/media/convert.h"
  },
  {
   "function_name" : "android::AudioParameter::keysToString",
   "linker_set_key" : "_ZNK7android14AudioParameter12keysToStringEv",
   "parameters" :
   [
    {
     "is_this_ptr" : true,
     "referenced_type" : "_ZTIPKN7android14AudioParameterE"
    }
   ],
   "return_type" : "_ZTIN7android7String8E",
   "source_file" : "frameworks/av/media/libmediahelper/include/media/AudioParameter.h"
  },
  {
   "function_name" : "android::AudioParameter::size",
   "linker_set_key" : "_ZNK7android14AudioParameter4sizeEv",
   "parameters" :
   [
    {
     "is_this_ptr" : true,
     "referenced_type" : "_ZTIPKN7android14AudioParameterE"
    }
   ],
   "return_type" : "_ZTIm",
   "source_file" : "frameworks/av/media/libmediahelper/include/media/AudioParameter.h"
  },
  {
   "function_name" : "android::AudioParameter::toString",
   "linker_set_key" : "_ZNK7android14AudioParameter8toStringEv",
   "parameters" :
   [
    {
     "is_this_ptr" : true,
     "referenced_type" : "_ZTIPKN7android14AudioParameterE"
    }
   ],
   "return_type" : "_ZTIN7android7String8E",
   "source_file" : "frameworks/av/media/libmediahelper/include/media/AudioParameter.h"
  }
 ],
 "global_vars" :
 [
  {
   "access" : "protected",
   "linker_set_key" : "_ZN7android13TypeConverterINS_13DefaultTraitsI12audio_mode_tEEE6mTableE",
   "name" : "android::TypeConverter<android::DefaultTraits<audio_mode_t>>::mTable",
   "referenced_type" : "_ZTIA_KN7android13TypeConverterINS_13DefaultTraitsI12audio_mode_tEEE5TableE",
   "source_file" : "frameworks/av/media/libmediahelper/include/media/TypeConverter.h"
  },
  {
   "access" : "protected",
   "linker_set_key" : "_ZN7android13TypeConverterINS_13DefaultTraitsI20audio_content_type_tEEE6mTableE",
   "name" : "android::TypeConverter<android::DefaultTraits<audio_content_type_t>>::mTable",
   "referenced_type" : "_ZTIA_KN7android13TypeConverterINS_13DefaultTraitsI20audio_content_type_tEEE5TableE",
   "source_file" : "frameworks/av/media/libmediahelper/include/media/TypeConverter.h"
  },
  {
   "access" : "protected",
   "linker_set_key" : "_ZN7android13TypeConverterINS_15AudioFlagTraitsEE6mTableE",
   "name" : "android::TypeConverter<android::AudioFlagTraits>::mTable",
   "referenced_type" : "_ZTIA_KN7android13TypeConverterINS_15AudioFlagTraitsEE5TableE",
   "source_file" : "frameworks/av/media/libmediahelper/include/media/TypeConverter.h"
  },
  {
   "linker_set_key" : "_ZN7android14AudioParameter10keyRoutingE",
   "name" : "android::AudioParameter::keyRouting",
   "referenced_type" : "_ZTIKPKc",
   "source_file" : "frameworks/av/media/libmediahelper/include/media/AudioParameter.h"
  },
  {
   "linker_set_key" : "_ZN7android14AudioParameter11keyChannelsE",
   "name" : "android::AudioParameter::keyChannels",
   "referenced_type" : "_ZTIKPKc",
   "source_file" : "frameworks/av/media/libmediahelper/include/media/AudioParameter.h"
  },
  {
   "linker_set_key" : "_ZN7android14AudioParameter11keyHwAvSyncE",
   "name" : "android::AudioParameter::keyHwAvSync",
   "referenced_type" : "_ZTIKPKc",
   "source_file" : "frameworks/av/media/libmediahelper/include/media/AudioParameter.h"
  },
  {
   "linker_set_key" : "_ZN7android14AudioParameter12keyProgramIdE",
   "name" : "android::AudioParameter::keyProgramId",
   "referenced_type" : "_ZTIKPKc",
   "source_file" : "frameworks/av/media/libmediahelper/include/media/AudioParameter.h"
  },
  {
   "linker_set_key" : "_ZN7android14AudioParameter13keyFrameCountE",
   "name" : "android::AudioParameter::keyFrameCount",
   "referenced_type" : "_ZTIKPKc",
   "source_file" : "frameworks/av/media/libmediahelper/include/media/AudioParameter.h"
  },
  {
   "linker_set_key" : "_ZN7android14AudioParameter13keyMonoOutputE",
   "name" : "android::AudioParameter::keyMonoOutput",
   "referenced_type" : "_ZTIKPKc",
   "source_file" : "frameworks/av/media/libmediahelper/include/media/AudioParameter.h"
  },
  {
   "linker_set_key" : "_ZN7android14AudioParameter14keyInputSourceE",
   "name" : "android::AudioParameter::keyInputSource",
   "referenced_type" : "_ZTIKPKc",
   "source_file" : "frameworks/av/media/libmediahelper/include/media/AudioParameter.h"
  },
  {
   "linker_set_key" : "_ZN7android14AudioParameter14keyScreenStateE",
   "name" : "android::AudioParameter::keyScreenState",
   "referenced_type" : "_ZTIKPKc",
   "source_file" : "frameworks/av/media/libmediahelper/include/media/AudioParameter.h"
  },
  {
   "linker_set_key" : "_ZN7android14AudioParameter15keyReconfigA2dpE",
   "name" : "android::AudioParameter::keyReconfigA2dp",
   "referenced_type" : "_ZTIKPKc",
   "source_file" : "frameworks/av/media/libmediahelper/include/media/AudioParameter.h"
  },
  {
   "linker_set_key" : "_ZN7android14AudioParameter15keySamplingRateE",
   "name" : "android::AudioParameter::keySamplingRate",
   "referenced_type" : "_ZTIKPKc",
   "source_file" : "frameworks/av/media/libmediahelper/include/media/AudioParameter.h"
  },
  {
   "linker_set_key" : "_ZN7android14AudioParameter16keyDeviceConnectE",
   "name" : "android::AudioParameter::keyDeviceConnect",
   "referenced_type" : "_ZTIKPKc",
   "source_file" : "frameworks/av/media/libmediahelper/include/media/AudioParameter.h"
  },
  {
   "linker_set_key" : "_ZN7android14AudioParameter16keyStreamConnectE",
   "name" : "android::AudioParameter::keyStreamConnect",
   "referenced_type" : "_ZTIKPKc",
   "source_file" : "frameworks/av/media/libmediahelper/include/media/AudioParameter.h"
  },
  {
   "linker_set_key" : "_ZN7android14AudioParameter17keyPresentationIdE",
   "name" : "android::AudioParameter::keyPresentationId",
   "referenced_type" : "_ZTIKPKc",
   "source_file" : "frameworks/av/media/libmediahelper/include/media/AudioParameter.h"
  },
  {
   "linker_set_key" : "_ZN7android14AudioParameter17keyStreamHwAvSyncE",
   "name" : "android::AudioParameter::keyStreamHwAvSync",
   "referenced_type" : "_ZTIKPKc",
   "source_file" : "frameworks/av/media/libmediahelper/include/media/AudioParameter.h"
  },
  {
   "linker_set_key" : "_ZN7android14AudioParameter18valueListSeparatorE",
   "name" : "android::AudioParameter::valueListSeparator",
   "referenced_type" : "_ZTIKPKc",
   "source_file" : "frameworks/av/media/libmediahelper/include/media/AudioParameter.h"
  },
  {
   "linker_set_key" : "_ZN7android14AudioParameter19keyDeviceDisconnectE",
   "name" : "android::AudioParameter::keyDeviceDisconnect",
   "referenced_type" : "_ZTIKPKc",
   "source_file" : "frameworks/av/media/libmediahelper/include/media/AudioParameter.h"
  },
  {
   "linker_set_key" : "_ZN7android14AudioParameter19keyStreamDisconnectE",
   "name" : "android::AudioParameter::keyStreamDisconnect",
   "referenced_type" : "_ZTIKPKc",
   "source_file" : "frameworks/av/media/libmediahelper/include/media/AudioParameter.h"
  },
  {
   "linker_set_key" : "_ZN7android14AudioParameter24keyReconfigA2dpSupportedE",
   "name" : "android::AudioParameter::keyReconfigA2dpSupported",
   "referenced_type" : "_ZTIKPKc",
   "source_file" : "frameworks/av/media/libmediahelper/include/media/AudioParameter.h"
  },
  {
   "linker_set_key" : "_ZN7android14AudioParameter25keyAudioLanguagePreferredE",
   "name" : "android::AudioParameter::keyAudioLanguagePreferred",
   "referenced_type" : "_ZTIKPKc",
   "source_file" : "frameworks/av/media/libmediahelper/include/media/AudioParameter.h"
  },
  {
   "linker_set_key" : "_ZN7android14AudioParameter25keyStreamSupportedFormatsE",
   "name" : "android::AudioParameter::keyStreamSupportedFormats",
   "referenced_type" : "_ZTIKPKc",
   "source_file" : "frameworks/av/media/libmediahelper/include/media/AudioParameter.h"
  },
  {
   "linker_set_key" : "_ZN7android14AudioParameter26keyStreamSupportedChannelsE",
   "name" : "android::AudioParameter::keyStreamSupportedChannels",
   "referenced_type" : "_ZTIKPKc",
   "source_file" : "frameworks/av/media/libmediahelper/include/media/AudioParameter.h"
  },
  {
   "linker_set_key" : "_ZN7android14AudioParameter30keyAdditionalOutputDeviceDelayE",
   "name" : "android::AudioParameter::keyAdditionalOutputDeviceDelay",
   "referenced_type" : "_ZTIKPKc",
   "source_file" : "frameworks/av/media/libmediahelper/include/media/AudioParameter.h"
  },
  {
   "linker_set_key" : "_ZN7android14AudioParameter31keyStreamSupportedSamplingRatesE",
   "name" : "android::AudioParameter::keyStreamSupportedSamplingRates",
   "referenced_type" : "_ZTIKPKc",
   "source_file" : "frameworks/av/media/libmediahelper/include/media/AudioParameter.h"
  },
  {
   "linker_set_key" : "_ZN7android14AudioParameter33keyMaxAdditionalOutputDeviceDelayE",
   "name" : "android::AudioParameter::keyMaxAdditionalOutputDeviceDelay",
   "referenced_type" : "_ZTIKPKc",
   "source_file" : "frameworks/av/media/libmediahelper/include/media/AudioParameter.h"
  },
  {
   "linker_set_key" : "_ZN7android14AudioParameter7valueOnE",
   "name" : "android::AudioParameter::valueOn",
   "referenced_type" : "_ZTIKPKc",
   "source_file" : "frameworks/av/media/libmediahelper/include/media/AudioParameter.h"
  },
  {
   "linker_set_key" : "_ZN7android14AudioParameter8valueOffE",
   "name" : "android::AudioParameter::valueOff",
   "referenced_type" : "_ZTIKPKc",
   "source_file" : "frameworks/av/media/libmediahelper/include/media/AudioParameter.h"
  },
  {
   "linker_set_key" : "_ZN7android14AudioParameter9keyBtNrecE",
   "name" : "android::AudioParameter::keyBtNrec",
   "referenced_type" : "_ZTIKPKc",
   "source_file" : "frameworks/av/media/libmediahelper/include/media/AudioParameter.h"
  },
  {
   "linker_set_key" : "_ZN7android14AudioParameter9keyFormatE",
   "name" : "android::AudioParameter::keyFormat",
   "referenced_type" : "_ZTIKPKc",
   "source_file" : "frameworks/av/media/libmediahelper/include/media/AudioParameter.h"
  },
  {
   "linker_set_key" : "_ZN7android9utilities7detailsL15gFloatPrecisionE",
   "name" : "android::utilities::details::gFloatPrecision",
   "referenced_type" : "_ZTIKj",
   "source_file" : "frameworks/av/media/libmediahelper/include/media/convert.h"
  }
 ],
 "lvalue_reference_types" :
 [
  {
   "alignment" : 8,
   "linker_set_key" : "_ZTIR13audio_usage_t",
   "name" : "audio_usage_t &",
   "referenced_type" : "_ZTI13audio_usage_t",
   "self_type" : "_ZTIR13audio_usage_t",
   "size" : 8,
   "source_file" : "frameworks/av/media/libmediahelper/include/media/TypeConverter.h"
  },
  {
   "alignment" : 8,
   "linker_set_key" : "_ZTIR14audio_format_t",
   "name" : "audio_format_t &",
   "referenced_type" : "_ZTI14audio_format_t",
   "self_type" : "_ZTIR14audio_format_t",
   "size" : 8,
   "source_file" : "frameworks/av/media/libmediahelper/include/media/TypeConverter.h"
  },
  {
   "alignment" : 8,
   "linker_set_key" : "_ZTIR14audio_source_t",
   "name" : "audio_source_t &",
   "referenced_type" : "_ZTI14audio_source_t",
   "self_type" : "_ZTIR14audio_source_t",
   "size" : 8,
   "source_file" : "frameworks/av/media/libmediahelper/include/media/TypeConverter.h"
  },
  {
   "alignment" : 8,
   "linker_set_key" : "_ZTIR15audio_devices_t",
   "name" : "audio_devices_t &",
   "referenced_type" : "_ZTI15audio_devices_t",
   "self_type" : "_ZTIR15audio_devices_t",
   "size" : 8,
   "source_file" : "frameworks/av/media/libmediahelper/include/media/TypeConverter.h"
  },
  {
   "alignment" : 8,
   "linker_set_key" : "_ZTIR17audio_gain_mode_t",
   "name" : "audio_gain_mode_t &",
   "referenced_type" : "_ZTI17audio_gain_mode_t",
   "self_type" : "_ZTIR17audio_gain_mode_t",
   "size" : 8,
   "source_file" : "frameworks/av/media/libmediahelper/include/media/TypeConverter.h"
  },
  {
   "alignment" : 8,
   "linker_set_key" : "_ZTIR19audio_input_flags_t",
   "name" : "audio_input_flags_t &",
   "referenced_type" : "_ZTI19audio_input_flags_t",
   "self_type" : "_ZTIR19audio_input_flags_t",
   "size" : 8,
   "source_file" : "frameworks/av/media/libmediahelper/include/media/TypeConverter.h"
  },
  {
   "alignment" : 8,
   "linker_set_key" : "_ZTIR19audio_stream_type_t",
   "name" : "audio_stream_type_t &",
   "referenced_type" : "_ZTI19audio_stream_type_t",
   "self_type" : "_ZTIR19audio_stream_type_t",
   "size" : 8,
   "source_file" : "frameworks/av/media/libmediahelper/include/media/TypeConverter.h"
  },
  {
   "alignment" : 8,
   "linker_set_key" : "_ZTIR20audio_channel_mask_t",
   "name" : "audio_channel_mask_t &",
   "referenced_type" : "_ZTI20audio_channel_mask_t",
   "self_type" : "_ZTIR20audio_channel_mask_t",
   "size" : 8,
   "source_file" : "frameworks/av/media/libmediahelper/include/media/TypeConverter.h"
  },
  {
   "alignment" : 8,
   "linker_set_key" : "_ZTIR20audio_content_type_t",
   "name" : "audio_content_type_t &",
   "referenced_type" : "_ZTI20audio_content_type_t",
   "self_type" : "_ZTIR20audio_content_type_t",
   "size" : 8,
   "source_file" : "frameworks/av/media/libmediahelper/include/media/TypeConverter.h"
  },
  {
   "alignment" : 8,
   "linker_set_key" : "_ZTIR20audio_output_flags_t",
   "name" : "audio_output_flags_t &",
   "referenced_type" : "_ZTI20audio_output_flags_t",
   "self_type" : "_ZTIR20audio_output_flags_t",
   "size" : 8,
   "source_file" : "frameworks/av/media/libmediahelper/include/media/TypeConverter.h"
  },
  {
   "alignment" : 8,
   "linker_set_key" : "_ZTIRK13audio_usage_t",
   "name" : "const audio_usage_t &",
   "referenced_type" : "_ZTIK13audio_usage_t",
   "self_type" : "_ZTIRK13audio_usage_t",
   "size" : 8,
   "source_file" : "frameworks/av/media/libmediahelper/include/media/TypeConverter.h"
  },
  {
   "alignment" : 8,
   "linker_set_key" : "_ZTIRK14audio_format_t",
   "name" : "const audio_format_t &",
   "referenced_type" : "_ZTIK14audio_format_t",
   "self_type" : "_ZTIRK14audio_format_t",
   "size" : 8,
   "source_file" : "frameworks/av/media/libmediahelper/include/media/TypeConverter.h"
  },
  {
   "alignment" : 8,
   "linker_set_key" : "_ZTIRK14audio_source_t",
   "name" : "const audio_source_t &",
   "referenced_type" : "_ZTIK14audio_source_t",
   "self_type" : "_ZTIRK14audio_source_t",
   "size" : 8,
   "source_file" : "frameworks/av/media/libmediahelper/include/media/TypeConverter.h"
  },
  {
   "alignment" : 8,
   "linker_set_key" : "_ZTIRK15audio_devices_t",
   "name" : "const audio_devices_t &",
   "referenced_type" : "_ZTIK15audio_devices_t",
   "self_type" : "_ZTIRK15audio_devices_t",
   "size" : 8,
   "source_file" : "frameworks/av/media/libmediahelper/include/media/TypeConverter.h"
  },
  {
   "alignment" : 8,
   "linker_set_key" : "_ZTIRK17audio_gain_mode_t",
   "name" : "const audio_gain_mode_t &",
   "referenced_type" : "_ZTIK17audio_gain_mode_t",
   "self_type" : "_ZTIRK17audio_gain_mode_t",
   "size" : 8,
   "source_file" : "frameworks/av/media/libmediahelper/include/media/TypeConverter.h"
  },
  {
   "alignment" : 8,
   "linker_set_key" : "_ZTIRK19audio_input_flags_t",
   "name" : "const audio_input_flags_t &",
   "referenced_type" : "_ZTIK19audio_input_flags_t",
   "self_type" : "_ZTIRK19audio_input_flags_t",
   "size" : 8,
   "source_file" : "frameworks/av/media/libmediahelper/include/media/TypeConverter.h"
  },
  {
   "alignment" : 8,
   "linker_set_key" : "_ZTIRK19audio_stream_type_t",
   "name" : "const audio_stream_type_t &",
   "referenced_type" : "_ZTIK19audio_stream_type_t",
   "self_type" : "_ZTIRK19audio_stream_type_t",
   "size" : 8,
   "source_file" : "frameworks/av/media/libmediahelper/include/media/TypeConverter.h"
  },
  {
   "alignment" : 8,
   "linker_set_key" : "_ZTIRK20audio_channel_mask_t",
   "name" : "const audio_channel_mask_t &",
   "referenced_type" : "_ZTIK20audio_channel_mask_t",
   "self_type" : "_ZTIRK20audio_channel_mask_t",
   "size" : 8,
   "source_file" : "frameworks/av/media/libmediahelper/include/media/TypeConverter.h"
  },
  {
   "alignment" : 8,
   "linker_set_key" : "_ZTIRK20audio_content_type_t",
   "name" : "const audio_content_type_t &",
   "referenced_type" : "_ZTIK20audio_content_type_t",
   "self_type" : "_ZTIRK20audio_content_type_t",
   "size" : 8,
   "source_file" : "frameworks/av/media/libmediahelper/include/media/TypeConverter.h"
  },
  {
   "alignment" : 8,
   "linker_set_key" : "_ZTIRK20audio_output_flags_t",
   "name" : "const audio_output_flags_t &",
   "referenced_type" : "_ZTIK20audio_output_flags_t",
   "self_type" : "_ZTIRK20audio_output_flags_t",
   "size" : 8,
   "source_file" : "frameworks/av/media/libmediahelper/include/media/TypeConverter.h"
  },
  {
   "alignment" : 8,
   "linker_set_key" : "_ZTIRKNSt3__112basic_stringIcNS_11char_traitsIcEENS_9allocatorIcEEEE",
   "name" : "const std::basic_string<char, std::char_traits<char>, std::allocator<char>> &",
   "referenced_type" : "_ZTIKNSt3__112basic_stringIcNS_11char_traitsIcEENS_9allocatorIcEEEE",
   "self_type" : "_ZTIRKNSt3__112basic_stringIcNS_11char_traitsIcEENS_9allocatorIcEEEE",
   "size" : 8,
   "source_file" : "frameworks/av/media/libmediahelper/include/media/convert.h"
  },
  {
   "alignment" : 8,
   "linker_set_key" : "_ZTIRNSt3__112basic_stringIcNS_11char_traitsIcEENS_9allocatorIcEEEE",
   "name" : "std::basic_string<char, std::char_traits<char>, std::allocator<char>> &",
   "referenced_type" : "_ZTINSt3__112basic_stringIcNS_11char_traitsIcEENS_9allocatorIcEEEE",
   "self_type" : "_ZTIRNSt3__112basic_stringIcNS_11char_traitsIcEENS_9allocatorIcEEEE",
   "size" : 8,
   "source_file" : "frameworks/av/media/libmediahelper/include/media/TypeConverter.h"
  },
  {
   "alignment" : 8,
   "linker_set_key" : "_ZTIRNSt3__13setI20audio_channel_mask_tNS_4lessIS1_EENS_9allocatorIS1_EEEE",
   "name" : "std::set<audio_channel_mask_t, std::less<audio_channel_mask_t>, std::allocator<audio_channel_mask_t>> &",
   "referenced_type" : "_ZTINSt3__13setI20audio_channel_mask_tNS_4lessIS1_EENS_9allocatorIS1_EEEE",
   "self_type" : "_ZTIRNSt3__13setI20audio_channel_mask_tNS_4lessIS1_EENS_9allocatorIS1_EEEE",
   "size" : 8,
   "source_file" : "frameworks/av/media/libmediahelper/include/media/TypeConverter.h"
  },
  {
   "alignment" : 8,
   "linker_set_key" : "_ZTIRNSt3__13setIjNS_4lessIjEENS_9allocatorIjEEEE",
   "name" : "std::set<unsigned int, std::less<unsigned int>, std::allocator<unsigned int>> &",
   "referenced_type" : "_ZTINSt3__13setIjNS_4lessIjEENS_9allocatorIjEEEE",
   "self_type" : "_ZTIRNSt3__13setIjNS_4lessIjEENS_9allocatorIjEEEE",
   "size" : 8,
   "source_file" : "frameworks/av/media/libmediahelper/include/media/TypeConverter.h"
  },
  {
   "alignment" : 8,
   "linker_set_key" : "_ZTIRNSt3__16vectorI12audio_mode_tNS_9allocatorIS1_EEEE",
   "name" : "std::vector<audio_mode_t, std::allocator<audio_mode_t>> &",
   "referenced_type" : "_ZTINSt3__16vectorI12audio_mode_tNS_9allocatorIS1_EEEE",
   "self_type" : "_ZTIRNSt3__16vectorI12audio_mode_tNS_9allocatorIS1_EEEE",
   "size" : 8,
   "source_file" : "frameworks/av/media/libmediahelper/include/media/TypeConverter.h"
  },
  {
   "alignment" : 8,
   "linker_set_key" : "_ZTIRNSt3__16vectorI13audio_usage_tNS_9allocatorIS1_EEEE",
   "name" : "std::vector<audio_usage_t, std::allocator<audio_usage_t>> &",
   "referenced_type" : "_ZTINSt3__16vectorI13audio_usage_tNS_9allocatorIS1_EEEE",
   "self_type" : "_ZTIRNSt3__16vectorI13audio_usage_tNS_9allocatorIS1_EEEE",
   "size" : 8,
   "source_file" : "frameworks/av/media/libmediahelper/include/media/TypeConverter.h"
  },
  {
   "alignment" : 8,
   "linker_set_key" : "_ZTIRNSt3__16vectorI14audio_format_tNS_9allocatorIS1_EEEE",
   "name" : "std::vector<audio_format_t, std::allocator<audio_format_t>> &",
   "referenced_type" : "_ZTINSt3__16vectorI14audio_format_tNS_9allocatorIS1_EEEE",
   "self_type" : "_ZTIRNSt3__16vectorI14audio_format_tNS_9allocatorIS1_EEEE",
   "size" : 8,
   "source_file" : "frameworks/av/media/libmediahelper/include/media/TypeConverter.h"
  },
  {
   "alignment" : 8,
   "linker_set_key" : "_ZTIRNSt3__16vectorI14audio_source_tNS_9allocatorIS1_EEEE",
   "name" : "std::vector<audio_source_t, std::allocator<audio_source_t>> &",
   "referenced_type" : "_ZTINSt3__16vectorI14audio_source_tNS_9allocatorIS1_EEEE",
   "self_type" : "_ZTIRNSt3__16vectorI14audio_source_tNS_9allocatorIS1_EEEE",
   "size" : 8,
   "source_file" : "frameworks/av/media/libmediahelper/include/media/TypeConverter.h"
  },
  {
   "alignment" : 8,
   "linker_set_key" : "_ZTIRNSt3__16vectorI15audio_devices_tNS_9allocatorIS1_EEEE",
   "name" : "std::vector<audio_devices_t, std::allocator<audio_devices_t>> &",
   "referenced_type" : "_ZTINSt3__16vectorI15audio_devices_tNS_9allocatorIS1_EEEE",
   "self_type" : "_ZTIRNSt3__16vectorI15audio_devices_tNS_9allocatorIS1_EEEE",
   "size" : 8,
   "source_file" : "frameworks/av/media/libmediahelper/include/media/TypeConverter.h"
  },
  {
   "alignment" : 8,
   "linker_set_key" : "_ZTIRNSt3__16vectorI17audio_gain_mode_tNS_9allocatorIS1_EEEE",
   "name" : "std::vector<audio_gain_mode_t, std::allocator<audio_gain_mode_t>> &",
   "referenced_type" : "_ZTINSt3__16vectorI17audio_gain_mode_tNS_9allocatorIS1_EEEE",
   "self_type" : "_ZTIRNSt3__16vectorI17audio_gain_mode_tNS_9allocatorIS1_EEEE",
   "size" : 8,
   "source_file" : "frameworks/av/media/libmediahelper/include/media/TypeConverter.h"
  },
  {
   "alignment" : 8,
   "linker_set_key" : "_ZTIRNSt3__16vectorI18audio_flags_mask_tNS_9allocatorIS1_EEEE",
   "name" : "std::vector<audio_flags_mask_t, std::allocator<audio_flags_mask_t>> &",
   "referenced_type" : "_ZTINSt3__16vectorI18audio_flags_mask_tNS_9allocatorIS1_EEEE",
   "self_type" : "_ZTIRNSt3__16vectorI18audio_flags_mask_tNS_9allocatorIS1_EEEE",
   "size" : 8,
   "source_file" : "frameworks/av/media/libmediahelper/include/media/TypeConverter.h"
  },
  {
   "alignment" : 8,
   "linker_set_key" : "_ZTIRNSt3__16vectorI19audio_input_flags_tNS_9allocatorIS1_EEEE",
   "name" : "std::vector<audio_input_flags_t, std::allocator<audio_input_flags_t>> &",
   "referenced_type" : "_ZTINSt3__16vectorI19audio_input_flags_tNS_9allocatorIS1_EEEE",
   "self_type" : "_ZTIRNSt3__16vectorI19audio_input_flags_tNS_9allocatorIS1_EEEE",
   "size" : 8,
   "source_file" : "frameworks/av/media/libmediahelper/include/media/TypeConverter.h"
  },
  {
   "alignment" : 8,
   "linker_set_key" : "_ZTIRNSt3__16vectorI19audio_stream_type_tNS_9allocatorIS1_EEEE",
   "name" : "std::vector<audio_stream_type_t, std::allocator<audio_stream_type_t>> &",
   "referenced_type" : "_ZTINSt3__16vectorI19audio_stream_type_tNS_9allocatorIS1_EEEE",
   "self_type" : "_ZTIRNSt3__16vectorI19audio_stream_type_tNS_9allocatorIS1_EEEE",
   "size" : 8,
   "source_file" : "frameworks/av/media/libmediahelper/include/media/TypeConverter.h"
  },
  {
   "alignment" : 8,
   "linker_set_key" : "_ZTIRNSt3__16vectorI20audio_output_flags_tNS_9allocatorIS1_EEEE",
   "name" : "std::vector<audio_output_flags_t, std::allocator<audio_output_flags_t>> &",
   "referenced_type" : "_ZTINSt3__16vectorI20audio_output_flags_tNS_9allocatorIS1_EEEE",
   "self_type" : "_ZTIRNSt3__16vectorI20audio_output_flags_tNS_9allocatorIS1_EEEE",
   "size" : 8,
   "source_file" : "frameworks/av/media/libmediahelper/include/media/TypeConverter.h"
  },
  {
   "alignment" : 8,
   "linker_set_key" : "_ZTIRd",
   "name" : "double &",
   "referenced_type" : "_ZTId",
   "self_type" : "_ZTIRd",
   "size" : 8,
   "source_file" : "frameworks/av/media/libmediahelper/include/media/convert.h"
  },
  {
   "alignment" : 8,
   "linker_set_key" : "_ZTIRf",
   "name" : "float &",
   "referenced_type" : "_ZTIf",
   "self_type" : "_ZTIRf",
   "size" : 8,
   "source_file" : "frameworks/av/media/libmediahelper/include/media/convert.h"
  },
  {
   "alignment" : 8,
   "linker_set_key" : "_ZTIRj",
   "name" : "unsigned int &",
   "referenced_type" : "_ZTIj",
   "self_type" : "_ZTIRj",
   "size" : 8,
   "source_file" : "frameworks/av/media/libmediahelper/include/media/convert.h"
  },
  {
   "alignment" : 8,
   "linker_set_key" : "_ZTIRl",
   "name" : "long &",
   "referenced_type" : "_ZTIl",
   "self_type" : "_ZTIRl",
   "size" : 8,
   "source_file" : "frameworks/av/media/libmediahelper/include/media/convert.h"
  }
 ],
 "pointer_types" :
 [
  {
   "alignment" : 8,
   "linker_set_key" : "_ZTIPKN7android14AudioParameterE",
   "name" : "const android::AudioParameter *",
   "referenced_type" : "_ZTIKN7android14AudioParameterE",
   "self_type" : "_ZTIPKN7android14AudioParameterE",
   "size" : 8,
   "source_file" : "frameworks/av/media/libmediahelper/include/media/AudioParameter.h"
  },
  {
   "alignment" : 8,
   "linker_set_key" : "_ZTIPKc",
   "name" : "const char *",
   "referenced_type" : "_ZTIKc",
   "self_type" : "_ZTIPKc",
   "size" : 8,
   "source_file" : "frameworks/av/media/libmediahelper/include/media/AudioParameter.h"
  },
  {
   "alignment" : 8,
   "linker_set_key" : "_ZTIPN7android14AudioParameterE",
   "name" : "android::AudioParameter *",
   "referenced_type" : "_ZTIN7android14AudioParameterE",
   "self_type" : "_ZTIPN7android14AudioParameterE",
   "size" : 8,
   "source_file" : "frameworks/av/media/libmediahelper/include/media/AudioParameter.h"
  }
 ],
 "qualified_types" :
 [
  {
   "is_const" : true,
   "linker_set_key" : "_ZTIA_KN7android13TypeConverterINS_13DefaultTraitsI12audio_mode_tEEE5TableE",
   "name" : "android::TypeConverter<android::DefaultTraits<audio_mode_t>>::Table const[]",
   "referenced_type" : "_ZTIA_N7android13TypeConverterINS_13DefaultTraitsI12audio_mode_tEEE5TableE",
   "self_type" : "_ZTIA_KN7android13TypeConverterINS_13DefaultTraitsI12audio_mode_tEEE5TableE",
   "source_file" : "frameworks/av/media/libmediahelper/include/media/TypeConverter.h"
  },
  {
   "is_const" : true,
   "linker_set_key" : "_ZTIA_KN7android13TypeConverterINS_13DefaultTraitsI20audio_content_type_tEEE5TableE",
   "name" : "android::TypeConverter<android::DefaultTraits<audio_content_type_t>>::Table const[]",
   "referenced_type" : "_ZTIA_N7android13TypeConverterINS_13DefaultTraitsI20audio_content_type_tEEE5TableE",
   "self_type" : "_ZTIA_KN7android13TypeConverterINS_13DefaultTraitsI20audio_content_type_tEEE5TableE",
   "source_file" : "frameworks/av/media/libmediahelper/include/media/TypeConverter.h"
  },
  {
   "is_const" : true,
   "linker_set_key" : "_ZTIA_KN7android13TypeConverterINS_15AudioFlagTraitsEE5TableE",
   "name" : "android::TypeConverter<android::AudioFlagTraits>::Table const[]",
   "referenced_type" : "_ZTIA_N7android13TypeConverterINS_15AudioFlagTraitsEE5TableE",
   "self_type" : "_ZTIA_KN7android13TypeConverterINS_15AudioFlagTraitsEE5TableE",
   "source_file" : "frameworks/av/media/libmediahelper/include/media/TypeConverter.h"
  },
  {
   "alignment" : 4,
   "is_const" : true,
   "linker_set_key" : "_ZTIK13audio_usage_t",
   "name" : "const audio_usage_t",
   "referenced_type" : "_ZTI13audio_usage_t",
   "self_type" : "_ZTIK13audio_usage_t",
   "size" : 4,
   "source_file" : "frameworks/av/media/libmediahelper/include/media/TypeConverter.h"
  },
  {
   "alignment" : 4,
   "is_const" : true,
   "linker_set_key" : "_ZTIK14audio_format_t",
   "name" : "const audio_format_t",
   "referenced_type" : "_ZTI14audio_format_t",
   "self_type" : "_ZTIK14audio_format_t",
   "size" : 4,
   "source_file" : "frameworks/av/media/libmediahelper/include/media/TypeConverter.h"
  },
  {
   "alignment" : 4,
   "is_const" : true,
   "linker_set_key" : "_ZTIK14audio_source_t",
   "name" : "const audio_source_t",
   "referenced_type" : "_ZTI14audio_source_t",
   "self_type" : "_ZTIK14audio_source_t",
   "size" : 4,
   "source_file" : "frameworks/av/media/libmediahelper/include/media/TypeConverter.h"
  },
  {
   "alignment" : 4,
   "is_const" : true,
   "linker_set_key" : "_ZTIK15audio_devices_t",
   "name" : "const audio_devices_t",
   "referenced_type" : "_ZTI15audio_devices_t",
   "self_type" : "_ZTIK15audio_devices_t",
   "size" : 4,
   "source_file" : "frameworks/av/media/libmediahelper/include/media/TypeConverter.h"
  },
  {
   "alignment" : 4,
   "is_const" : true,
   "linker_set_key" : "_ZTIK17audio_gain_mode_t",
   "name" : "const audio_gain_mode_t",
   "referenced_type" : "_ZTI17audio_gain_mode_t",
   "self_type" : "_ZTIK17audio_gain_mode_t",
   "size" : 4,
   "source_file" : "frameworks/av/media/libmediahelper/include/media/TypeConverter.h"
  },
  {
   "alignment" : 4,
   "is_const" : true,
   "linker_set_key" : "_ZTIK19audio_input_flags_t",
   "name" : "const audio_input_flags_t",
   "referenced_type" : "_ZTI19audio_input_flags_t",
   "self_type" : "_ZTIK19audio_input_flags_t",
   "size" : 4,
   "source_file" : "frameworks/av/media/libmediahelper/include/media/TypeConverter.h"
  },
  {
   "alignment" : 4,
   "is_const" : true,
   "linker_set_key" : "_ZTIK19audio_stream_type_t",
   "name" : "const audio_stream_type_t",
   "referenced_type" : "_ZTI19audio_stream_type_t",
   "self_type" : "_ZTIK19audio_stream_type_t",
   "size" : 4,
   "source_file" : "frameworks/av/media/libmediahelper/include/media/TypeConverter.h"
  },
  {
   "alignment" : 4,
   "is_const" : true,
   "linker_set_key" : "_ZTIK20audio_channel_mask_t",
   "name" : "const audio_channel_mask_t",
   "referenced_type" : "_ZTI20audio_channel_mask_t",
   "self_type" : "_ZTIK20audio_channel_mask_t",
   "size" : 4,
   "source_file" : "frameworks/av/media/libmediahelper/include/media/TypeConverter.h"
  },
  {
   "alignment" : 4,
   "is_const" : true,
   "linker_set_key" : "_ZTIK20audio_content_type_t",
   "name" : "const audio_content_type_t",
   "referenced_type" : "_ZTI20audio_content_type_t",
   "self_type" : "_ZTIK20audio_content_type_t",
   "size" : 4,
   "source_file" : "frameworks/av/media/libmediahelper/include/media/TypeConverter.h"
  },
  {
   "alignment" : 4,
   "is_const" : true,
   "linker_set_key" : "_ZTIK20audio_output_flags_t",
   "name" : "const audio_output_flags_t",
   "referenced_type" : "_ZTI20audio_output_flags_t",
   "self_type" : "_ZTIK20audio_output_flags_t",
   "size" : 4,
   "source_file" : "frameworks/av/media/libmediahelper/include/media/TypeConverter.h"
  },
  {
   "alignment" : 8,
   "is_const" : true,
   "linker_set_key" : "_ZTIKN7android14AudioParameterE",
   "name" : "const android::AudioParameter",
   "referenced_type" : "_ZTIN7android14AudioParameterE",
   "self_type" : "_ZTIKN7android14AudioParameterE",
   "size" : 56,
   "source_file" : "frameworks/av/media/libmediahelper/include/media/AudioParameter.h"
  },
  {
   "alignment" : 8,
   "is_const" : true,
   "linker_set_key" : "_ZTIKNSt3__112basic_stringIcNS_11char_traitsIcEENS_9allocatorIcEEEE",
   "name" : "const std::basic_string<char, std::char_traits<char>, std::allocator<char>>",
   "referenced_type" : "_ZTINSt3__112basic_stringIcNS_11char_traitsIcEENS_9allocatorIcEEEE",
   "self_type" : "_ZTIKNSt3__112basic_stringIcNS_11char_traitsIcEENS_9allocatorIcEEEE",
   "size" : 24,
   "source_file" : "frameworks/av/media/libmediahelper/include/media/convert.h"
  },
  {
   "alignment" : 8,
   "is_const" : true,
   "linker_set_key" : "_ZTIKPKc",
   "name" : "const char *const",
   "referenced_type" : "_ZTIPKc",
   "self_type" : "_ZTIKPKc",
   "size" : 8,
   "source_file" : "frameworks/av/media/libmediahelper/include/media/AudioParameter.h"
  },
  {
   "alignment" : 1,
   "is_const" : true,
   "linker_set_key" : "_ZTIKc",
   "name" : "const char",
   "referenced_type" : "_ZTIc",
   "self_type" : "_ZTIKc",
   "size" : 1,
   "source_file" : "frameworks/av/media/libmediahelper/include/media/AudioParameter.h"
  },
  {
   "alignment" : 4,
   "is_const" : true,
   "linker_set_key" : "_ZTIKj",
   "name" : "const unsigned int",
   "referenced_type" : "_ZTIj",
   "self_type" : "_ZTIKj",
   "size" : 4,
   "source_file" : "frameworks/av/media/libmediahelper/include/media/convert.h"
  }
 ],
 "record_types" :
 [
  {
   "alignment" : 1,
   "linker_set_key" : "_ZTIN7android13DefaultTraitsI12audio_mode_tEE",
   "name" : "android::DefaultTraits<audio_mode_t>",
   "referenced_type" : "_ZTIN7android13DefaultTraitsI12audio_mode_tEE",
   "self_type" : "_ZTIN7android13DefaultTraitsI12audio_mode_tEE",
   "size" : 1,
   "source_file" : "frameworks/av/media/libmediahelper/include/media/TypeConverter.h",
   "template_args" : [ "_ZTI12audio_mode_t" ]
  },
  {
   "alignment" : 1,
   "linker_set_key" : "_ZTIN7android13DefaultTraitsI13audio_usage_tEE",
   "name" : "android::DefaultTraits<audio_usage_t>",
   "referenced_type" : "_ZTIN7android13DefaultTraitsI13audio_usage_tEE",
   "self_type" : "_ZTIN7android13DefaultTraitsI13audio_usage_tEE",
   "size" : 1,
   "source_file" : "frameworks/av/media/libmediahelper/include/media/TypeConverter.h",
   "template_args" : [ "_ZTI13audio_usage_t" ]
  },
  {
   "alignment" : 1,
   "linker_set_key" : "_ZTIN7android13DefaultTraitsI14audio_format_tEE",
   "name" : "android::DefaultTraits<audio_format_t>",
   "referenced_type" : "_ZTIN7android13DefaultTraitsI14audio_format_tEE",
   "self_type" : "_ZTIN7android13DefaultTraitsI14audio_format_tEE",
   "size" : 1,
   "source_file" : "frameworks/av/media/libmediahelper/include/media/TypeConverter.h",
   "template_args" : [ "_ZTI14audio_format_t" ]
  },
  {
   "alignment" : 1,
   "linker_set_key" : "_ZTIN7android13DefaultTraitsI14audio_source_tEE",
   "name" : "android::DefaultTraits<audio_source_t>",
   "referenced_type" : "_ZTIN7android13DefaultTraitsI14audio_source_tEE",
   "self_type" : "_ZTIN7android13DefaultTraitsI14audio_source_tEE",
   "size" : 1,
   "source_file" : "frameworks/av/media/libmediahelper/include/media/TypeConverter.h",
   "template_args" : [ "_ZTI14audio_source_t" ]
  },
  {
   "alignment" : 1,
   "linker_set_key" : "_ZTIN7android13DefaultTraitsI15audio_devices_tEE",
   "name" : "android::DefaultTraits<audio_devices_t>",
   "referenced_type" : "_ZTIN7android13DefaultTraitsI15audio_devices_tEE",
   "self_type" : "_ZTIN7android13DefaultTraitsI15audio_devices_tEE",
   "size" : 1,
   "source_file" : "frameworks/av/media/libmediahelper/include/media/TypeConverter.h",
   "template_args" : [ "_ZTI15audio_devices_t" ]
  },
  {
   "alignment" : 1,
   "linker_set_key" : "_ZTIN7android13DefaultTraitsI17audio_gain_mode_tEE",
   "name" : "android::DefaultTraits<audio_gain_mode_t>",
   "referenced_type" : "_ZTIN7android13DefaultTraitsI17audio_gain_mode_tEE",
   "self_type" : "_ZTIN7android13DefaultTraitsI17audio_gain_mode_tEE",
   "size" : 1,
   "source_file" : "frameworks/av/media/libmediahelper/include/media/TypeConverter.h",
   "template_args" : [ "_ZTI17audio_gain_mode_t" ]
  },
  {
   "alignment" : 1,
   "linker_set_key" : "_ZTIN7android13DefaultTraitsI18audio_flags_mask_tEE",
   "name" : "android::DefaultTraits<audio_flags_mask_t>",
   "referenced_type" : "_ZTIN7android13DefaultTraitsI18audio_flags_mask_tEE",
   "self_type" : "_ZTIN7android13DefaultTraitsI18audio_flags_mask_tEE",
   "size" : 1,
   "source_file" : "frameworks/av/media/libmediahelper/include/media/TypeConverter.h",
   "template_args" : [ "_ZTI18audio_flags_mask_t" ]
  },
  {
   "alignment" : 1,
   "linker_set_key" : "_ZTIN7android13DefaultTraitsI19audio_input_flags_tEE",
   "name" : "android::DefaultTraits<audio_input_flags_t>",
   "referenced_type" : "_ZTIN7android13DefaultTraitsI19audio_input_flags_tEE",
   "self_type" : "_ZTIN7android13DefaultTraitsI19audio_input_flags_tEE",
   "size" : 1,
   "source_file" : "frameworks/av/media/libmediahelper/include/media/TypeConverter.h",
   "template_args" : [ "_ZTI19audio_input_flags_t" ]
  },
  {
   "alignment" : 1,
   "linker_set_key" : "_ZTIN7android13DefaultTraitsI19audio_stream_type_tEE",
   "name" : "android::DefaultTraits<audio_stream_type_t>",
   "referenced_type" : "_ZTIN7android13DefaultTraitsI19audio_stream_type_tEE",
   "self_type" : "_ZTIN7android13DefaultTraitsI19audio_stream_type_tEE",
   "size" : 1,
   "source_file" : "frameworks/av/media/libmediahelper/include/media/TypeConverter.h",
   "template_args" : [ "_ZTI19audio_stream_type_t" ]
  },
  {
   "alignment" : 1,
   "linker_set_key" : "_ZTIN7android13DefaultTraitsI20audio_content_type_tEE",
   "name" : "android::DefaultTraits<audio_content_type_t>",
   "referenced_type" : "_ZTIN7android13DefaultTraitsI20audio_content_type_tEE",
   "self_type" : "_ZTIN7android13DefaultTraitsI20audio_content_type_tEE",
   "size" : 1,
   "source_file" : "frameworks/av/media/libmediahelper/include/media/TypeConverter.h",
   "template_args" : [ "_ZTI20audio_content_type_t" ]
  },
  {
   "alignment" : 1,
   "linker_set_key" : "_ZTIN7android13DefaultTraitsI20audio_output_flags_tEE",
   "name" : "android::DefaultTraits<audio_output_flags_t>",
   "referenced_type" : "_ZTIN7android13DefaultTraitsI20audio_output_flags_tEE",
   "self_type" : "_ZTIN7android13DefaultTraitsI20audio_output_flags_tEE",
   "size" : 1,
   "source_file" : "frameworks/av/media/libmediahelper/include/media/TypeConverter.h",
   "template_args" : [ "_ZTI20audio_output_flags_t" ]
  },
  {
   "alignment" : 1,
   "linker_set_key" : "_ZTIN7android13TypeConverterINS_13DefaultTraitsI20audio_content_type_tEEEE",
   "name" : "android::TypeConverter<android::DefaultTraits<audio_content_type_t>>",
   "record_kind" : "class",
   "referenced_type" : "_ZTIN7android13TypeConverterINS_13DefaultTraitsI20audio_content_type_tEEEE",
   "self_type" : "_ZTIN7android13TypeConverterINS_13DefaultTraitsI20audio_content_type_tEEEE",
   "size" : 1,
   "source_file" : "frameworks/av/media/libmediahelper/include/media/TypeConverter.h",
   "template_args" : [ "_ZTIN7android13DefaultTraitsI20audio_content_type_tEE" ]
  },
  {
   "alignment" : 8,
   "fields" :
   [
    {
     "access" : "private",
     "field_name" : "mKeyValuePairs",
     "field_offset" : 64,
     "referenced_type" : "_ZTIN7android7String8E"
    },
    {
     "access" : "private",
     "field_name" : "mParameters",
     "field_offset" : 128,
     "referenced_type" : "_ZTIN7android11KeyedVectorINS_7String8ES1_EE"
    }
   ],
   "linker_set_key" : "_ZTIN7android14AudioParameterE",
   "name" : "android::AudioParameter",
   "record_kind" : "class",
   "referenced_type" : "_ZTIN7android14AudioParameterE",
   "self_type" : "_ZTIN7android14AudioParameterE",
   "size" : 56,
   "source_file" : "frameworks/av/media/libmediahelper/include/media/AudioParameter.h",
   "vtable_components" :
   [
    {
     "kind" : "offset_to_top"
    },
    {
     "kind" : "rtti",
     "mangled_component_name" : "_ZTIN7android14AudioParameterE"
    },
    {
     "kind" : "complete_dtor_pointer",
     "mangled_component_name" : "_ZN7android14AudioParameterD1Ev"
    },
    {
     "kind" : "deleting_dtor_pointer",
     "mangled_component_name" : "_ZN7android14AudioParameterD0Ev"
    }
   ]
  },
  {
   "alignment" : 1,
   "base_specifiers" :
   [
    {
     "referenced_type" : "_ZTIN7android13DefaultTraitsI18audio_flags_mask_tEE"
    }
   ],
   "linker_set_key" : "_ZTIN7android15AudioFlagTraitsE",
   "name" : "android::AudioFlagTraits",
   "referenced_type" : "_ZTIN7android15AudioFlagTraitsE",
   "self_type" : "_ZTIN7android15AudioFlagTraitsE",
   "size" : 1,
   "source_file" : "frameworks/av/media/libmediahelper/include/media/TypeConverter.h"
  },
  {
   "alignment" : 1,
   "base_specifiers" :
   [
    {
     "referenced_type" : "_ZTIN7android13DefaultTraitsI15audio_devices_tEE"
    }
   ],
   "linker_set_key" : "_ZTIN7android17InputDeviceTraitsE",
   "name" : "android::InputDeviceTraits",
   "referenced_type" : "_ZTIN7android17InputDeviceTraitsE",
   "self_type" : "_ZTIN7android17InputDeviceTraitsE",
   "size" : 1,
   "source_file" : "frameworks/av/media/libmediahelper/include/media/TypeConverter.h"
  },
  {
   "alignment" : 1,
   "base_specifiers" :
   [
    {
     "referenced_type" : "_ZTIN7android9SetTraitsI20audio_channel_mask_tEE"
    }
   ],
   "linker_set_key" : "_ZTIN7android18ChannelIndexTraitsE",
   "name" : "android::ChannelIndexTraits",
   "referenced_type" : "_ZTIN7android18ChannelIndexTraitsE",
   "self_type" : "_ZTIN7android18ChannelIndexTraitsE",
   "size" : 1,
   "source_file" : "frameworks/av/media/libmediahelper/include/media/TypeConverter.h"
  },
  {
   "alignment" : 1,
   "base_specifiers" :
   [
    {
     "referenced_type" : "_ZTIN7android9SetTraitsI20audio_channel_mask_tEE"
    }
   ],
   "linker_set_key" : "_ZTIN7android18InputChannelTraitsE",
   "name" : "android::InputChannelTraits",
   "referenced_type" : "_ZTIN7android18InputChannelTraitsE",
   "self_type" : "_ZTIN7android18InputChannelTraitsE",
   "size" : 1,
   "source_file" : "frameworks/av/media/libmediahelper/include/media/TypeConverter.h"
  },
  {
   "alignment" : 1,
   "base_specifiers" :
   [
    {
     "referenced_type" : "_ZTIN7android13DefaultTraitsI15audio_devices_tEE"
    }
   ],
   "linker_set_key" : "_ZTIN7android18OutputDeviceTraitsE",
   "name" : "android::OutputDeviceTraits",
   "referenced_type" : "_ZTIN7android18OutputDeviceTraitsE",
   "self_type" : "_ZTIN7android18OutputDeviceTraitsE",
   "size" : 1,
   "source_file" : "frameworks/av/media/libmediahelper/include/media/TypeConverter.h"
  },
  {
   "alignment" : 1,
   "base_specifiers" :
   [
    {
     "referenced_type" : "_ZTIN7android9SetTraitsI20audio_channel_mask_tEE"
    }
   ],
   "linker_set_key" : "_ZTIN7android19OutputChannelTraitsE",
   "name" : "android::OutputChannelTraits",
   "referenced_type" : "_ZTIN7android19OutputChannelTraitsE",
   "self_type" : "_ZTIN7android19OutputChannelTraitsE",
   "size" : 1,
   "source_file" : "frameworks/av/media/libmediahelper/include/media/TypeConverter.h"
  },
  {
   "alignment" : 1,
   "linker_set_key" : "_ZTIN7android9SetTraitsI20audio_channel_mask_tEE",
   "name" : "android::SetTraits<audio_channel_mask_t>",
   "referenced_type" : "_ZTIN7android9SetTraitsI20audio_channel_mask_tEE",
   "self_type" : "_ZTIN7android9SetTraitsI20audio_channel_mask_tEE",
   "size" : 1,
   "source_file" : "frameworks/av/media/libmediahelper/include/media/TypeConverter.h",
   "template_args" : [ "_ZTI20audio_channel_mask_t" ]
  },
  {
   "alignment" : 1,
   "linker_set_key" : "_ZTIN7android9SetTraitsIjEE",
   "name" : "android::SetTraits<unsigned int>",
   "referenced_type" : "_ZTIN7android9SetTraitsIjEE",
   "self_type" : "_ZTIN7android9SetTraitsIjEE",
   "size" : 1,
   "source_file" : "frameworks/av/media/libmediahelper/include/media/TypeConverter.h",
   "template_args" : [ "_ZTIj" ]
  },
  {
   "alignment" : 1,
   "linker_set_key" : "_ZTIN7android9utilities7details25ConversionToStringAllowedIdEE",
   "name" : "android::utilities::details::ConversionToStringAllowed<double>",
   "referenced_type" : "_ZTIN7android9utilities7details25ConversionToStringAllowedIdEE",
   "self_type" : "_ZTIN7android9utilities7details25ConversionToStringAllowedIdEE",
   "size" : 1,
   "source_file" : "frameworks/av/media/libmediahelper/include/media/convert.h",
   "template_args" : [ "_ZTId" ]
  },
  {
   "alignment" : 1,
   "linker_set_key" : "_ZTIN7android9utilities7details25ConversionToStringAllowedIfEE",
   "name" : "android::utilities::details::ConversionToStringAllowed<float>",
   "referenced_type" : "_ZTIN7android9utilities7details25ConversionToStringAllowedIfEE",
   "self_type" : "_ZTIN7android9utilities7details25ConversionToStringAllowedIfEE",
   "size" : 1,
   "source_file" : "frameworks/av/media/libmediahelper/include/media/convert.h",
   "template_args" : [ "_ZTIf" ]
  },
  {
   "alignment" : 1,
   "linker_set_key" : "_ZTIN7android9utilities7details25ConversionToStringAllowedIiEE",
   "name" : "android::utilities::details::ConversionToStringAllowed<int32_t>",
   "referenced_type" : "_ZTIN7android9utilities7details25ConversionToStringAllowedIiEE",
   "self_type" : "_ZTIN7android9utilities7details25ConversionToStringAllowedIiEE",
   "size" : 1,
   "source_file" : "frameworks/av/media/libmediahelper/include/media/convert.h",
   "template_args" : [ "_ZTIi" ]
  },
  {
   "alignment" : 1,
   "linker_set_key" : "_ZTIN7android9utilities7details25ConversionToStringAllowedIjEE",
   "name" : "android::utilities::details::ConversionToStringAllowed<uint32_t>",
   "referenced_type" : "_ZTIN7android9utilities7details25ConversionToStringAllowedIjEE",
   "self_type" : "_ZTIN7android9utilities7details25ConversionToStringAllowedIjEE",
   "size" : 1,
   "source_file" : "frameworks/av/media/libmediahelper/include/media/convert.h",
   "template_args" : [ "_ZTIj" ]
  },
  {
   "alignment" : 1,
   "linker_set_key" : "_ZTIN7android9utilities7details25ConversionToStringAllowedIlEE",
   "name" : "android::utilities::details::ConversionToStringAllowed<int64_t>",
   "referenced_type" : "_ZTIN7android9utilities7details25ConversionToStringAllowedIlEE",
   "self_type" : "_ZTIN7android9utilities7details25ConversionToStringAllowedIlEE",
   "size" : 1,
   "source_file" : "frameworks/av/media/libmediahelper/include/media/convert.h",
   "template_args" : [ "_ZTIl" ]
  },
  {
   "alignment" : 1,
   "linker_set_key" : "_ZTIN7android9utilities7details25ConversionToStringAllowedImEE",
   "name" : "android::utilities::details::ConversionToStringAllowed<uint64_t>",
   "referenced_type" : "_ZTIN7android9utilities7details25ConversionToStringAllowedImEE",
   "self_type" : "_ZTIN7android9utilities7details25ConversionToStringAllowedImEE",
   "size" : 1,
   "source_file" : "frameworks/av/media/libmediahelper/include/media/convert.h",
   "template_args" : [ "_ZTIm" ]
  },
  {
   "alignment" : 1,
   "linker_set_key" : "_ZTIN7android9utilities7details27ConversionFromStringAllowedIbEE",
   "name" : "android::utilities::details::ConversionFromStringAllowed<bool>",
   "referenced_type" : "_ZTIN7android9utilities7details27ConversionFromStringAllowedIbEE",
   "self_type" : "_ZTIN7android9utilities7details27ConversionFromStringAllowedIbEE",
   "size" : 1,
   "source_file" : "frameworks/av/media/libmediahelper/include/media/convert.h",
   "template_args" : [ "_ZTIb" ]
  },
  {
   "alignment" : 1,
   "linker_set_key" : "_ZTIN7android9utilities7details27ConversionFromStringAllowedIdEE",
   "name" : "android::utilities::details::ConversionFromStringAllowed<double>",
   "referenced_type" : "_ZTIN7android9utilities7details27ConversionFromStringAllowedIdEE",
   "self_type" : "_ZTIN7android9utilities7details27ConversionFromStringAllowedIdEE",
   "size" : 1,
   "source_file" : "frameworks/av/media/libmediahelper/include/media/convert.h",
   "template_args" : [ "_ZTId" ]
  },
  {
   "alignment" : 1,
   "linker_set_key" : "_ZTIN7android9utilities7details27ConversionFromStringAllowedIfEE",
   "name" : "android::utilities::details::ConversionFromStringAllowed<float>",
   "referenced_type" : "_ZTIN7android9utilities7details27ConversionFromStringAllowedIfEE",
   "self_type" : "_ZTIN7android9utilities7details27ConversionFromStringAllowedIfEE",
   "size" : 1,
   "source_file" : "frameworks/av/media/libmediahelper/include/media/convert.h",
   "template_args" : [ "_ZTIf" ]
  },
  {
   "alignment" : 1,
   "linker_set_key" : "_ZTIN7android9utilities7details27ConversionFromStringAllowedIiEE",
   "name" : "android::utilities::details::ConversionFromStringAllowed<int32_t>",
   "referenced_type" : "_ZTIN7android9utilities7details27ConversionFromStringAllowedIiEE",
   "self_type" : "_ZTIN7android9utilities7details27ConversionFromStringAllowedIiEE",
   "size" : 1,
   "source_file" : "frameworks/av/media/libmediahelper/include/media/convert.h",
   "template_args" : [ "_ZTIi" ]
  },
  {
   "alignment" : 1,
   "linker_set_key" : "_ZTIN7android9utilities7details27ConversionFromStringAllowedIjEE",
   "name" : "android::utilities::details::ConversionFromStringAllowed<uint32_t>",
   "referenced_type" : "_ZTIN7android9utilities7details27ConversionFromStringAllowedIjEE",
   "self_type" : "_ZTIN7android9utilities7details27ConversionFromStringAllowedIjEE",
   "size" : 1,
   "source_file" : "frameworks/av/media/libmediahelper/include/media/convert.h",
   "template_args" : [ "_ZTIj" ]
  },
  {
   "alignment" : 1,
   "linker_set_key" : "_ZTIN7android9utilities7details27ConversionFromStringAllowedIlEE",
   "name" : "android::utilities::details::ConversionFromStringAllowed<int64_t>",
   "referenced_type" : "_ZTIN7android9utilities7details27ConversionFromStringAllowedIlEE",
   "self_type" : "_ZTIN7android9utilities7details27ConversionFromStringAllowedIlEE",
   "size" : 1,
   "source_file" : "frameworks/av/media/libmediahelper/include/media/convert.h",
   "template_args" : [ "_ZTIl" ]
  },
  {
   "alignment" : 1,
   "linker_set_key" : "_ZTIN7android9utilities7details27ConversionFromStringAllowedImEE",
   "name" : "android::utilities::details::ConversionFromStringAllowed<uint64_t>",
   "referenced_type" : "_ZTIN7android9utilities7details27ConversionFromStringAllowedImEE",
   "self_type" : "_ZTIN7android9utilities7details27ConversionFromStringAllowedImEE",
   "size" : 1,
   "source_file" : "frameworks/av/media/libmediahelper/include/media/convert.h",
   "template_args" : [ "_ZTIm" ]
  },
  {
   "alignment" : 1,
   "linker_set_key" : "_ZTIN7android9utilities7details27ConversionFromStringAllowedIsEE",
   "name" : "android::utilities::details::ConversionFromStringAllowed<int16_t>",
   "referenced_type" : "_ZTIN7android9utilities7details27ConversionFromStringAllowedIsEE",
   "self_type" : "_ZTIN7android9utilities7details27ConversionFromStringAllowedIsEE",
   "size" : 1,
   "source_file" : "frameworks/av/media/libmediahelper/include/media/convert.h",
   "template_args" : [ "_ZTIs" ]
  },
  {
   "alignment" : 1,
   "linker_set_key" : "_ZTIN7android9utilities7details27ConversionFromStringAllowedItEE",
   "name" : "android::utilities::details::ConversionFromStringAllowed<uint16_t>",
   "referenced_type" : "_ZTIN7android9utilities7details27ConversionFromStringAllowedItEE",
   "self_type" : "_ZTIN7android9utilities7details27ConversionFromStringAllowedItEE",
   "size" : 1,
   "source_file" : "frameworks/av/media/libmediahelper/include/media/convert.h",
   "template_args" : [ "_ZTIt" ]
  },
  {
   "alignment" : 1,
   "linker_set_key" : "_ZTIN7android9utilities7details9ConverterINSt3__112basic_stringIcNS3_11char_traitsIcEENS3_9allocatorIcEEEEdEE",
   "name" : "android::utilities::details::Converter<std::basic_string<char, std::char_traits<char>, std::allocator<char>>, double>",
   "record_kind" : "class",
   "referenced_type" : "_ZTIN7android9utilities7details9ConverterINSt3__112basic_stringIcNS3_11char_traitsIcEENS3_9allocatorIcEEEEdEE",
   "self_type" : "_ZTIN7android9utilities7details9ConverterINSt3__112basic_stringIcNS3_11char_traitsIcEENS3_9allocatorIcEEEEdEE",
   "size" : 1,
   "source_file" : "frameworks/av/media/libmediahelper/include/media/convert.h",
   "template_args" :
   [
    "_ZTINSt3__112basic_stringIcNS_11char_traitsIcEENS_9allocatorIcEEEE",
    "_ZTId"
   ]
  },
  {
   "alignment" : 1,
   "linker_set_key" : "_ZTIN7android9utilities7details9ConverterINSt3__112basic_stringIcNS3_11char_traitsIcEENS3_9allocatorIcEEEEfEE",
   "name" : "android::utilities::details::Converter<std::basic_string<char, std::char_traits<char>, std::allocator<char>>, float>",
   "record_kind" : "class",
   "referenced_type" : "_ZTIN7android9utilities7details9ConverterINSt3__112basic_stringIcNS3_11char_traitsIcEENS3_9allocatorIcEEEEfEE",
   "self_type" : "_ZTIN7android9utilities7details9ConverterINSt3__112basic_stringIcNS3_11char_traitsIcEENS3_9allocatorIcEEEEfEE",
   "size" : 1,
   "source_file" : "frameworks/av/media/libmediahelper/include/media/convert.h",
   "template_args" :
   [
    "_ZTINSt3__112basic_stringIcNS_11char_traitsIcEENS_9allocatorIcEEEE",
    "_ZTIf"
   ]
  },
  {
   "alignment" : 1,
   "linker_set_key" : "_ZTIN7android9utilities7details9ConverterINSt3__112basic_stringIcNS3_11char_traitsIcEENS3_9allocatorIcEEEEjEE",
   "name" : "android::utilities::details::Converter<std::basic_string<char, std::char_traits<char>, std::allocator<char>>, unsigned int>",
   "record_kind" : "class",
   "referenced_type" : "_ZTIN7android9utilities7details9ConverterINSt3__112basic_stringIcNS3_11char_traitsIcEENS3_9allocatorIcEEEEjEE",
   "self_type" : "_ZTIN7android9utilities7details9ConverterINSt3__112basic_stringIcNS3_11char_traitsIcEENS3_9allocatorIcEEEEjEE",
   "size" : 1,
   "source_file" : "frameworks/av/media/libmediahelper/include/media/convert.h",
   "template_args" :
   [
    "_ZTINSt3__112basic_stringIcNS_11char_traitsIcEENS_9allocatorIcEEEE",
    "_ZTIj"
   ]
  },
  {
   "alignment" : 1,
   "linker_set_key" : "_ZTIN7android9utilities7details9ConverterINSt3__112basic_stringIcNS3_11char_traitsIcEENS3_9allocatorIcEEEElEE",
   "name" : "android::utilities::details::Converter<std::basic_string<char, std::char_traits<char>, std::allocator<char>>, long>",
   "record_kind" : "class",
   "referenced_type" : "_ZTIN7android9utilities7details9ConverterINSt3__112basic_stringIcNS3_11char_traitsIcEENS3_9allocatorIcEEEElEE",
   "self_type" : "_ZTIN7android9utilities7details9ConverterINSt3__112basic_stringIcNS3_11char_traitsIcEENS3_9allocatorIcEEEElEE",
   "size" : 1,
   "source_file" : "frameworks/av/media/libmediahelper/include/media/convert.h",
   "template_args" :
   [
    "_ZTINSt3__112basic_stringIcNS_11char_traitsIcEENS_9allocatorIcEEEE",
    "_ZTIl"
   ]
  }
 ],
 "rvalue_reference_types" : []
}
