{
 "array_types" : [],
 "builtin_types" :
 [
  {
   "alignment" : 1,
   "is_integral" : true,
   "is_unsigned" : true,
   "linker_set_key" : "_ZTIb",
   "name" : "bool",
   "referenced_type" : "_ZTIb",
   "self_type" : "_ZTIb",
   "size" : 1
  },
  {
   "alignment" : 1,
   "is_integral" : true,
   "is_unsigned" : true,
   "linker_set_key" : "_ZTIc",
   "name" : "char",
   "referenced_type" : "_ZTIc",
   "self_type" : "_ZTIc",
   "size" : 1
  },
  {
   "alignment" : 4,
   "is_integral" : true,
   "linker_set_key" : "_ZTIi",
   "name" : "int",
   "referenced_type" : "_ZTIi",
   "self_type" : "_ZTIi",
   "size" : 4
  },
  {
   "alignment" : 4,
   "is_integral" : true,
   "is_unsigned" : true,
   "linker_set_key" : "_ZTIj",
   "name" : "unsigned int",
   "referenced_type" : "_ZTIj",
   "self_type" : "_ZTIj",
   "size" : 4
  },
  {
   "linker_set_key" : "_ZTIv",
   "name" : "void",
   "referenced_type" : "_ZTIv",
   "self_type" : "_ZTIv"
  }
 ],
 "elf_functions" : [],
 "elf_objects" : [],
 "enum_types" : [],
 "function_types" : [],
 "functions" :
 [
  {
   "function_name" : "android::MediaCodecsXmlParser::parseXmlPath",
   "linker_set_key" : "_ZN7android20MediaCodecsXmlParser12parseXmlPathERKNSt3__112basic_stringIcNS1_11char_traitsIcEENS1_9allocatorIcEEEE",
   "parameters" :
   [
    {
     "is_this_ptr" : true,
     "referenced_type" : "_ZTIPN7android20MediaCodecsXmlParserE"
    },
    {
     "referenced_type" : "_ZTIRKNSt3__112basic_stringIcNS_11char_traitsIcEENS_9allocatorIcEEEE"
    }
   ],
   "return_type" : "_ZTIi",
   "source_file" : "frameworks/av/media/libstagefright/xmlparser/include/media/stagefright/xmlparser/MediaCodecsXmlParser.h"
  },
  {
   "function_name" : "android::MediaCodecsXmlParser::getDefaultXmlNames",
   "linker_set_key" : "_ZN7android20MediaCodecsXmlParser18getDefaultXmlNamesEv",
   "return_type" : "_ZTINSt3__16vectorINS_12basic_stringIcNS_11char_traitsIcEENS_9allocatorIcEEEENS4_IS6_EEEE",
   "source_file" : "frameworks/av/media/libstagefright/xmlparser/include/media/stagefright/xmlparser/MediaCodecsXmlParser.h"
  },
  {
   "function_name" : "android::MediaCodecsXmlParser::getDefaultSearchDirs",
   "linker_set_key" : "_ZN7android20MediaCodecsXmlParser20getDefaultSearchDirsEv",
   "return_type" : "_ZTINSt3__16vectorINS_12basic_stringIcNS_11char_traitsIcEENS_9allocatorIcEEEENS4_IS6_EEEE",
   "source_file" : "frameworks/av/media/libstagefright/xmlparser/include/media/stagefright/xmlparser/MediaCodecsXmlParser.h"
  },
  {
   "function_name" : "android::MediaCodecsXmlParser::parseXmlFilesInSearchDirs",
   "linker_set_key" : "_ZN7android20MediaCodecsXmlParser25parseXmlFilesInSearchDirsERKNSt3__16vectorINS1_12basic_stringIcNS1_11char_traitsIcEENS1_9allocatorIcEEEENS6_IS8_EEEESC_",
   "parameters" :
   [
    {
     "is_this_ptr" : true,
     "referenced_type" : "_ZTIPN7android20MediaCodecsXmlParserE"
    },
    {
     "default_arg" : true,
     "referenced_type" : "_ZTIRKNSt3__16vectorINS_12basic_stringIcNS_11char_traitsIcEENS_9allocatorIcEEEENS4_IS6_EEEE"
    },
    {
     "default_arg" : true,
     "referenced_type" : "_ZTIRKNSt3__16vectorINS_12basic_stringIcNS_11char_traitsIcEENS_9allocatorIcEEEENS4_IS6_EEEE"
    }
   ],
   "return_type" : "_ZTIi",
   "source_file" : "frameworks/av/media/libstagefright/xmlparser/include/media/stagefright/xmlparser/MediaCodecsXmlParser.h"
  },
  {
   "function_name" : "android::MediaCodecsXmlParser::MediaCodecsXmlParser",
   "linker_set_key" : "_ZN7android20MediaCodecsXmlParserC1Ev",
   "parameters" :
   [
    {
     "is_this_ptr" : true,
     "referenced_type" : "_ZTIPN7android20MediaCodecsXmlParserE"
    }
   ],
   "return_type" : "_ZTIv",
   "source_file" : "frameworks/av/media/libstagefright/xmlparser/include/media/stagefright/xmlparser/MediaCodecsXmlParser.h"
  },
  {
   "function_name" : "android::MediaCodecsXmlParser::MediaCodecsXmlParser",
   "linker_set_key" : "_ZN7android20MediaCodecsXmlParserC2Ev",
   "parameters" :
   [
    {
     "is_this_ptr" : true,
     "referenced_type" : "_ZTIPN7android20MediaCodecsXmlParserE"
    }
   ],
   "return_type" : "_ZTIv",
   "source_file" : "frameworks/av/media/libstagefright/xmlparser/include/media/stagefright/xmlparser/MediaCodecsXmlParser.h"
  },
  {
   "function_name" : "android::MediaCodecsXmlParser::~MediaCodecsXmlParser",
   "linker_set_key" : "_ZN7android20MediaCodecsXmlParserD1Ev",
   "parameters" :
   [
    {
     "is_this_ptr" : true,
     "referenced_type" : "_ZTIPN7android20MediaCodecsXmlParserE"
    }
   ],
   "return_type" : "_ZTIv",
   "source_file" : "frameworks/av/media/libstagefright/xmlparser/include/media/stagefright/xmlparser/MediaCodecsXmlParser.h"
  },
  {
   "function_name" : "android::MediaCodecsXmlParser::~MediaCodecsXmlParser",
   "linker_set_key" : "_ZN7android20MediaCodecsXmlParserD2Ev",
   "parameters" :
   [
    {
     "is_this_ptr" : true,
     "referenced_type" : "_ZTIPN7android20MediaCodecsXmlParserE"
    }
   ],
   "return_type" : "_ZTIv",
   "source_file" : "frameworks/av/media/libstagefright/xmlparser/include/media/stagefright/xmlparser/MediaCodecsXmlParser.h"
  },
  {
   "function_name" : "android::MediaCodecsXmlParser::getRoleMap",
   "linker_set_key" : "_ZNK7android20MediaCodecsXmlParser10getRoleMapEv",
   "parameters" :
   [
    {
     "is_this_ptr" : true,
     "referenced_type" : "_ZTIPKN7android20MediaCodecsXmlParserE"
    }
   ],
   "return_type" : "_ZTIRKNSt3__13mapINS_12basic_stringIcNS_11char_traitsIcEENS_9allocatorIcEEEEN7android20MediaCodecsXmlParser14RolePropertiesENS_4lessIS6_EENS4_INS_4pairIKS6_S9_EEEEEE",
   "source_file" : "frameworks/av/media/libstagefright/xmlparser/include/media/stagefright/xmlparser/MediaCodecsXmlParser.h"
  },
  {
   "function_name" : "android::MediaCodecsXmlParser::getCodecMap",
   "linker_set_key" : "_ZNK7android20MediaCodecsXmlParser11getCodecMapEv",
   "parameters" :
   [
    {
     "is_this_ptr" : true,
     "referenced_type" : "_ZTIPKN7android20MediaCodecsXmlParserE"
    }
   ],
   "return_type" : "_ZTIRKNSt3__13mapINS_12basic_stringIcNS_11char_traitsIcEENS_9allocatorIcEEEEN7android20MediaCodecsXmlParser15CodecPropertiesENS_4lessIS6_EENS4_INS_4pairIKS6_S9_EEEEEE",
   "source_file" : "frameworks/av/media/libstagefright/xmlparser/include/media/stagefright/xmlparser/MediaCodecsXmlParser.h"
  },
  {
   "function_name" : "android::MediaCodecsXmlParser::getCommonPrefix",
   "linker_set_key" : "_ZNK7android20MediaCodecsXmlParser15getCommonPrefixEv",
   "parameters" :
   [
    {
     "is_this_ptr" : true,
     "referenced_type" : "_ZTIPKN7android20MediaCodecsXmlParserE"
    }
   ],
   "return_type" : "_ZTIPKc",
   "source_file" : "frameworks/av/media/libstagefright/xmlparser/include/media/stagefright/xmlparser/MediaCodecsXmlParser.h"
  },
  {
   "function_name" : "android::MediaCodecsXmlParser::getParsingStatus",
   "linker_set_key" : "_ZNK7android20MediaCodecsXmlParser16getParsingStatusEv",
   "parameters" :
   [
    {
     "is_this_ptr" : true,
     "referenced_type" : "_ZTIPKN7android20MediaCodecsXmlParserE"
    }
   ],
   "return_type" : "_ZTIi",
   "source_file" : "frameworks/av/media/libstagefright/xmlparser/include/media/stagefright/xmlparser/MediaCodecsXmlParser.h"
  },
  {
   "function_name" : "android::MediaCodecsXmlParser::getServiceAttributeMap",
   "linker_set_key" : "_ZNK7android20MediaCodecsXmlParser22getServiceAttributeMapEv",
   "parameters" :
   [
    {
     "is_this_ptr" : true,
     "referenced_type" : "_ZTIPKN7android20MediaCodecsXmlParserE"
    }
   ],
   "return_type" : "_ZTIRKNSt3__13mapINS_12basic_stringIcNS_11char_traitsIcEENS_9allocatorIcEEEES6_NS_4lessIS6_EENS4_INS_4pairIKS6_S6_EEEEEE",
   "source_file" : "frameworks/av/media/libstagefright/xmlparser/include/media/stagefright/xmlparser/MediaCodecsXmlParser.h"
  }
 ],
 "global_vars" :
 [
  {
   "linker_set_key" : "_ZN7android20MediaCodecsXmlParser30defaultProfilingResultsXmlPathE",
   "name" : "android::MediaCodecsXmlParser::defaultProfilingResultsXmlPath",
   "referenced_type" : "_ZTIKPKc",
   "source_file" : "frameworks/av/media/libstagefright/xmlparser/include/media/stagefright/xmlparser/MediaCodecsXmlParser.h"
  }
 ],
 "lvalue_reference_types" :
 [
  {
   "alignment" : 4,
   "linker_set_key" : "_ZTIRKNSt3__112basic_stringIcNS_11char_traitsIcEENS_9allocatorIcEEEE",
   "name" : "const std::basic_string<char, std::char_traits<char>, std::allocator<char>> &",
   "referenced_type" : "_ZTIKNSt3__112basic_stringIcNS_11char_traitsIcEENS_9allocatorIcEEEE",
   "self_type" : "_ZTIRKNSt3__112basic_stringIcNS_11char_traitsIcEENS_9allocatorIcEEEE",
   "size" : 4,
   "source_file" : "frameworks/av/media/libstagefright/xmlparser/include/media/stagefright/xmlparser/MediaCodecsXmlParser.h"
  },
  {
   "alignment" : 4,
   "linker_set_key" : "_ZTIRKNSt3__13mapINS_12basic_stringIcNS_11char_traitsIcEENS_9allocatorIcEEEEN7android20MediaCodecsXmlParser14RolePropertiesENS_4lessIS6_EENS4_INS_4pairIKS6_S9_EEEEEE",
   "name" : "const std::map<std::basic_string<char, std::char_traits<char>, std::allocator<char>>, android::MediaCodecsXmlParser::RoleProperties, std::less<std::basic_string<char, std::char_traits<char>, std::allocator<char>>>, std::allocator<std::pair<const std::basic_string<char, std::char_traits<char>, std::allocator<char>>, android::MediaCodecsXmlParser::RoleProperties>>> &",
   "referenced_type" : "_ZTIKNSt3__13mapINS_12basic_stringIcNS_11char_traitsIcEENS_9allocatorIcEEEEN7android20MediaCodecsXmlParser14RolePropertiesENS_4lessIS6_EENS4_INS_4pairIKS6_S9_EEEEEE",
   "self_type" : "_ZTIRKNSt3__13mapINS_12basic_stringIcNS_11char_traitsIcEENS_9allocatorIcEEEEN7android20MediaCodecsXmlParser14RolePropertiesENS_4lessIS6_EENS4_INS_4pairIKS6_S9_EEEEEE",
   "size" : 4,
   "source_file" : "frameworks/av/media/libstagefright/xmlparser/include/media/stagefright/xmlparser/MediaCodecsXmlParser.h"
  },
  {
   "alignment" : 4,
   "linker_set_key" : "_ZTIRKNSt3__13mapINS_12basic_stringIcNS_11char_traitsIcEENS_9allocatorIcEEEEN7android20MediaCodecsXmlParser15CodecPropertiesENS_4lessIS6_EENS4_INS_4pairIKS6_S9_EEEEEE",
   "name" : "const std::map<std::basic_string<char, std::char_traits<char>, std::allocator<char>>, android::MediaCodecsXmlParser::CodecProperties, std::less<std::basic_string<char, std::char_traits<char>, std::allocator<char>>>, std::allocator<std::pair<const std::basic_string<char, std::char_traits<char>, std::allocator<char>>, android::MediaCodecsXmlParser::CodecProperties>>> &",
   "referenced_type" : "_ZTIKNSt3__13mapINS_12basic_stringIcNS_11char_traitsIcEENS_9allocatorIcEEEEN7android20MediaCodecsXmlParser15CodecPropertiesENS_4lessIS6_EENS4_INS_4pairIKS6_S9_EEEEEE",
   "self_type" : "_ZTIRKNSt3__13mapINS_12basic_stringIcNS_11char_traitsIcEENS_9allocatorIcEEEEN7android20MediaCodecsXmlParser15CodecPropertiesENS_4lessIS6_EENS4_INS_4pairIKS6_S9_EEEEEE",
   "size" : 4,
   "source_file" : "frameworks/av/media/libstagefright/xmlparser/include/media/stagefright/xmlparser/MediaCodecsXmlParser.h"
  },
  {
   "alignment" : 4,
   "linker_set_key" : "_ZTIRKNSt3__13mapINS_12basic_stringIcNS_11char_traitsIcEENS_9allocatorIcEEEES6_NS_4lessIS6_EENS4_INS_4pairIKS6_S6_EEEEEE",
   "name" : "const std::map<std::basic_string<char, std::char_traits<char>, std::allocator<char>>, std::basic_string<char, std::char_traits<char>, std::allocator<char>>, std::less<std::basic_string<char, std::char_traits<char>, std::allocator<char>>>, std::allocator<std::pair<const std::basic_string<char, std::char_traits<char>, std::allocator<char>>, std::basic_string<char, std::char_traits<char>, std::allocator<char>>>>> &",
   "referenced_type" : "_ZTIKNSt3__13mapINS_12basic_stringIcNS_11char_traitsIcEENS_9allocatorIcEEEES6_NS_4lessIS6_EENS4_INS_4pairIKS6_S6_EEEEEE",
   "self_type" : "_ZTIRKNSt3__13mapINS_12basic_stringIcNS_11char_traitsIcEENS_9allocatorIcEEEES6_NS_4lessIS6_EENS4_INS_4pairIKS6_S6_EEEEEE",
   "size" : 4,
   "source_file" : "frameworks/av/media/libstagefright/xmlparser/include/media/stagefright/xmlparser/MediaCodecsXmlParser.h"
  },
  {
   "alignment" : 4,
   "linker_set_key" : "_ZTIRKNSt3__16vectorINS_12basic_stringIcNS_11char_traitsIcEENS_9allocatorIcEEEENS4_IS6_EEEE",
   "name" : "const std::vector<std::basic_string<char, std::char_traits<char>, std::allocator<char>>, std::allocator<std::basic_string<char, std::char_traits<char>, std::allocator<char>>>> &",
   "referenced_type" : "_ZTIKNSt3__16vectorINS_12basic_stringIcNS_11char_traitsIcEENS_9allocatorIcEEEENS4_IS6_EEEE",
   "self_type" : "_ZTIRKNSt3__16vectorINS_12basic_stringIcNS_11char_traitsIcEENS_9allocatorIcEEEENS4_IS6_EEEE",
   "size" : 4,
   "source_file" : "frameworks/av/media/libstagefright/xmlparser/include/media/stagefright/xmlparser/MediaCodecsXmlParser.h"
  }
 ],
 "pointer_types" :
 [
  {
   "alignment" : 4,
   "linker_set_key" : "_ZTIPKN7android20MediaCodecsXmlParserE",
   "name" : "const android::MediaCodecsXmlParser *",
   "referenced_type" : "_ZTIKN7android20MediaCodecsXmlParserE",
   "self_type" : "_ZTIPKN7android20MediaCodecsXmlParserE",
   "size" : 4,
   "source_file" : "frameworks/av/media/libstagefright/xmlparser/include/media/stagefright/xmlparser/MediaCodecsXmlParser.h"
  },
  {
   "alignment" : 4,
   "linker_set_key" : "_ZTIPKc",
   "name" : "const char *",
   "referenced_type" : "_ZTIKc",
   "self_type" : "_ZTIPKc",
   "size" : 4,
   "source_file" : "frameworks/av/media/libstagefright/xmlparser/include/media/stagefright/xmlparser/MediaCodecsXmlParser.h"
  },
  {
   "alignment" : 4,
   "linker_set_key" : "_ZTIPN7android20MediaCodecsXmlParserE",
   "name" : "android::MediaCodecsXmlParser *",
   "referenced_type" : "_ZTIN7android20MediaCodecsXmlParserE",
   "self_type" : "_ZTIPN7android20MediaCodecsXmlParserE",
   "size" : 4,
   "source_file" : "frameworks/av/media/libstagefright/xmlparser/include/media/stagefright/xmlparser/MediaCodecsXmlParser.h"
  }
 ],
 "qualified_types" :
 [
  {
   "alignment" : 4,
   "is_const" : true,
   "linker_set_key" : "_ZTIKN7android20MediaCodecsXmlParserE",
   "name" : "const android::MediaCodecsXmlParser",
   "referenced_type" : "_ZTIN7android20MediaCodecsXmlParserE",
   "self_type" : "_ZTIKN7android20MediaCodecsXmlParserE",
   "size" : 8,
   "source_file" : "frameworks/av/media/libstagefright/xmlparser/include/media/stagefright/xmlparser/MediaCodecsXmlParser.h"
  },
  {
   "alignment" : 4,
   "is_const" : true,
   "linker_set_key" : "_ZTIKNSt3__112basic_stringIcNS_11char_traitsIcEENS_9allocatorIcEEEE",
   "name" : "const std::basic_string<char, std::char_traits<char>, std::allocator<char>>",
   "referenced_type" : "_ZTINSt3__112basic_stringIcNS_11char_traitsIcEENS_9allocatorIcEEEE",
   "self_type" : "_ZTIKNSt3__112basic_stringIcNS_11char_traitsIcEENS_9allocatorIcEEEE",
   "size" : 12,
   "source_file" : "frameworks/av/media/libstagefright/xmlparser/include/media/stagefright/xmlparser/MediaCodecsXmlParser.h"
  },
  {
   "alignment" : 4,
   "is_const" : true,
   "linker_set_key" : "_ZTIKNSt3__13mapINS_12basic_stringIcNS_11char_traitsIcEENS_9allocatorIcEEEEN7android20MediaCodecsXmlParser14RolePropertiesENS_4lessIS6_EENS4_INS_4pairIKS6_S9_EEEEEE",
   "name" : "const std::map<std::basic_string<char, std::char_traits<char>, std::allocator<char>>, android::MediaCodecsXmlParser::RoleProperties, std::less<std::basic_string<char, std::char_traits<char>, std::allocator<char>>>, std::allocator<std::pair<const std::basic_string<char, std::char_traits<char>, std::allocator<char>>, android::MediaCodecsXmlParser::RoleProperties>>>",
   "referenced_type" : "_ZTINSt3__13mapINS_12basic_stringIcNS_11char_traitsIcEENS_9allocatorIcEEEEN7android20MediaCodecsXmlParser14RolePropertiesENS_4lessIS6_EENS4_INS_4pairIKS6_S9_EEEEEE",
   "self_type" : "_ZTIKNSt3__13mapINS_12basic_stringIcNS_11char_traitsIcEENS_9allocatorIcEEEEN7android20MediaCodecsXmlParser14RolePropertiesENS_4lessIS6_EENS4_INS_4pairIKS6_S9_EEEEEE",
   "size" : 12,
   "source_file" : "frameworks/av/media/libstagefright/xmlparser/include/media/stagefright/xmlparser/MediaCodecsXmlParser.h"
  },
  {
   "alignment" : 4,
   "is_const" : true,
   "linker_set_key" : "_ZTIKNSt3__13mapINS_12basic_stringIcNS_11char_traitsIcEENS_9allocatorIcEEEEN7android20MediaCodecsXmlParser15CodecPropertiesENS_4lessIS6_EENS4_INS_4pairIKS6_S9_EEEEEE",
   "name" : "const std::map<std::basic_string<char, std::char_traits<char>, std::allocator<char>>, android::MediaCodecsXmlParser::CodecProperties, std::less<std::basic_string<char, std::char_traits<char>, std::allocator<char>>>, std::allocator<std::pair<const std::basic_string<char, std::char_traits<char>, std::allocator<char>>, android::MediaCodecsXmlParser::CodecProperties>>>",
   "referenced_type" : "_ZTINSt3__13mapINS_12basic_stringIcNS_11char_traitsIcEENS_9allocatorIcEEEEN7android20MediaCodecsXmlParser15CodecPropertiesENS_4lessIS6_EENS4_INS_4pairIKS6_S9_EEEEEE",
   "self_type" : "_ZTIKNSt3__13mapINS_12basic_stringIcNS_11char_traitsIcEENS_9allocatorIcEEEEN7android20MediaCodecsXmlParser15CodecPropertiesENS_4lessIS6_EENS4_INS_4pairIKS6_S9_EEEEEE",
   "size" : 12,
   "source_file" : "frameworks/av/media/libstagefright/xmlparser/include/media/stagefright/xmlparser/MediaCodecsXmlParser.h"
  },
  {
   "alignment" : 4,
   "is_const" : true,
   "linker_set_key" : "_ZTIKNSt3__13mapINS_12basic_stringIcNS_11char_traitsIcEENS_9allocatorIcEEEES6_NS_4lessIS6_EENS4_INS_4pairIKS6_S6_EEEEEE",
   "name" : "const std::map<std::basic_string<char, std::char_traits<char>, std::allocator<char>>, std::basic_string<char, std::char_traits<char>, std::allocator<char>>, std::less<std::basic_string<char, std::char_traits<char>, std::allocator<char>>>, std::allocator<std::pair<const std::basic_string<char, std::char_traits<char>, std::allocator<char>>, std::basic_string<char, std::char_traits<char>, std::allocator<char>>>>>",
   "referenced_type" : "_ZTINSt3__13mapINS_12basic_stringIcNS_11char_traitsIcEENS_9allocatorIcEEEES6_NS_4lessIS6_EENS4_INS_4pairIKS6_S6_EEEEEE",
   "self_type" : "_ZTIKNSt3__13mapINS_12basic_stringIcNS_11char_traitsIcEENS_9allocatorIcEEEES6_NS_4lessIS6_EENS4_INS_4pairIKS6_S6_EEEEEE",
   "size" : 12,
   "source_file" : "frameworks/av/media/libstagefright/xmlparser/include/media/stagefright/xmlparser/MediaCodecsXmlParser.h"
  },
  {
   "alignment" : 4,
   "is_const" : true,
   "linker_set_key" : "_ZTIKNSt3__16vectorINS_12basic_stringIcNS_11char_traitsIcEENS_9allocatorIcEEEENS4_IS6_EEEE",
   "name" : "const std::vector<std::basic_string<char, std::char_traits<char>, std::allocator<char>>, std::allocator<std::basic_string<char, std::char_traits<char>, std::allocator<char>>>>",
   "referenced_type" : "_ZTINSt3__16vectorINS_12basic_stringIcNS_11char_traitsIcEENS_9allocatorIcEEEENS4_IS6_EEEE",
   "self_type" : "_ZTIKNSt3__16vectorINS_12basic_stringIcNS_11char_traitsIcEENS_9allocatorIcEEEENS4_IS6_EEEE",
   "size" : 12,
   "source_file" : "frameworks/av/media/libstagefright/xmlparser/include/media/stagefright/xmlparser/MediaCodecsXmlParser.h"
  },
  {
   "alignment" : 4,
   "is_const" : true,
   "linker_set_key" : "_ZTIKPKc",
   "name" : "const char *const",
   "referenced_type" : "_ZTIPKc",
   "self_type" : "_ZTIKPKc",
   "size" : 4,
   "source_file" : "frameworks/av/media/libstagefright/xmlparser/include/media/stagefright/xmlparser/MediaCodecsXmlParser.h"
  },
  {
   "alignment" : 1,
   "is_const" : true,
   "linker_set_key" : "_ZTIKc",
   "name" : "const char",
   "referenced_type" : "_ZTIc",
   "self_type" : "_ZTIKc",
   "size" : 1,
   "source_file" : "frameworks/av/media/libstagefright/xmlparser/include/media/stagefright/xmlparser/MediaCodecsXmlParser.h"
  }
 ],
 "record_types" :
 [
  {
   "alignment" : 4,
   "fields" :
   [
    {
     "field_name" : "type",
     "referenced_type" : "_ZTINSt3__112basic_stringIcNS_11char_traitsIcEENS_9allocatorIcEEEE"
    },
    {
     "field_name" : "isEncoder",
     "field_offset" : 96,
     "referenced_type" : "_ZTIb"
    },
    {
     "field_name" : "nodeList",
     "field_offset" : 128,
     "referenced_type" : "_ZTINSt3__18multimapIjN7android20MediaCodecsXmlParser8NodeInfoENS_4lessIjEENS_9allocatorINS_4pairIKjS3_EEEEEE"
    }
   ],
   "linker_set_key" : "_ZTIN7android20MediaCodecsXmlParser14RolePropertiesE",
   "name" : "android::MediaCodecsXmlParser::RoleProperties",
   "referenced_type" : "_ZTIN7android20MediaCodecsXmlParser14RolePropertiesE",
   "self_type" : "_ZTIN7android20MediaCodecsXmlParser14RolePropertiesE",
   "size" : 28,
   "source_file" : "frameworks/av/media/libstagefright/xmlparser/include/media/stagefright/xmlparser/MediaCodecsXmlParser.h"
  },
  {
   "alignment" : 4,
   "fields" :
   [
    {
     "field_name" : "isEncoder",
     "referenced_type" : "_ZTIb"
    },
    {
     "field_name" : "order",
     "field_offset" : 32,
     "referenced_type" : "_ZTIj"
    },
    {
     "field_name" : "quirkSet",
     "field_offset" : 64,
     "referenced_type" : "_ZTINSt3__13setINS_12basic_stringIcNS_11char_traitsIcEENS_9allocatorIcEEEENS_4lessIS6_EENS4_IS6_EEEE"
    },
    {
     "field_name" : "domainSet",
     "field_offset" : 160,
     "referenced_type" : "_ZTINSt3__13setINS_12basic_stringIcNS_11char_traitsIcEENS_9allocatorIcEEEENS_4lessIS6_EENS4_IS6_EEEE"
    },
    {
     "field_name" : "variantSet",
     "field_offset" : 256,
     "referenced_type" : "_ZTINSt3__13setINS_12basic_stringIcNS_11char_traitsIcEENS_9allocatorIcEEEENS_4lessIS6_EENS4_IS6_EEEE"
    },
    {
     "field_name" : "typeMap",
     "field_offset" : 352,
     "referenced_type" : "_ZTINSt3__13mapINS_12basic_stringIcNS_11char_traitsIcEENS_9allocatorIcEEEENS0_IS6_S6_NS_4lessIS6_EENS4_INS_4pairIKS6_S6_EEEEEES8_NS4_INS9_ISA_SD_EEEEEE"
    },
    {
     "field_name" : "aliases",
     "field_offset" : 448,
     "referenced_type" : "_ZTINSt3__16vectorINS_12basic_stringIcNS_11char_traitsIcEENS_9allocatorIcEEEENS4_IS6_EEEE"
    },
    {
     "field_name" : "rank",
     "field_offset" : 544,
     "referenced_type" : "_ZTINSt3__112basic_stringIcNS_11char_traitsIcEENS_9allocatorIcEEEE"
    }
   ],
   "linker_set_key" : "_ZTIN7android20MediaCodecsXmlParser15CodecPropertiesE",
   "name" : "android::MediaCodecsXmlParser::CodecProperties",
   "referenced_type" : "_ZTIN7android20MediaCodecsXmlParser15CodecPropertiesE",
   "self_type" : "_ZTIN7android20MediaCodecsXmlParser15CodecPropertiesE",
   "size" : 80,
   "source_file" : "frameworks/av/media/libstagefright/xmlparser/include/media/stagefright/xmlparser/MediaCodecsXmlParser.h"
  },
  {
   "alignment" : 4,
   "fields" :
   [
    {
     "field_name" : "name",
     "referenced_type" : "_ZTINSt3__112basic_stringIcNS_11char_traitsIcEENS_9allocatorIcEEEE"
    },
    {
     "field_name" : "attributeList",
     "field_offset" : 96,
     "referenced_type" : "_ZTINSt3__16vectorINS_4pairINS_12basic_stringIcNS_11char_traitsIcEENS_9allocatorIcEEEES7_EENS5_IS8_EEEE"
    }
   ],
   "linker_set_key" : "_ZTIN7android20MediaCodecsXmlParser8NodeInfoE",
   "name" : "android::MediaCodecsXmlParser::NodeInfo",
   "referenced_type" : "_ZTIN7android20MediaCodecsXmlParser8NodeInfoE",
   "self_type" : "_ZTIN7android20MediaCodecsXmlParser8NodeInfoE",
   "size" : 24,
   "source_file" : "frameworks/av/media/libstagefright/xmlparser/include/media/stagefright/xmlparser/MediaCodecsXmlParser.h"
  },
  {
   "alignment" : 4,
   "fields" :
   [
    {
     "access" : "private",
     "field_name" : "mImpl",
     "referenced_type" : "_ZTINSt3__110shared_ptrIN7android20MediaCodecsXmlParser4ImplEEE"
    }
   ],
   "linker_set_key" : "_ZTIN7android20MediaCodecsXmlParserE",
   "name" : "android::MediaCodecsXmlParser",
   "record_kind" : "class",
   "referenced_type" : "_ZTIN7android20MediaCodecsXmlParserE",
   "self_type" : "_ZTIN7android20MediaCodecsXmlParserE",
   "size" : 8,
   "source_file" : "frameworks/av/media/libstagefright/xmlparser/include/media/stagefright/xmlparser/MediaCodecsXmlParser.h"
  }
 ],
 "rvalue_reference_types" : []
}
