{
 "array_types" :
 [
  {
   "alignment" : 1,
   "linker_set_key" : "_ZTIA5121_h",
   "name" : "unsigned char [5121]",
   "referenced_type" : "_ZTIh",
   "self_type" : "_ZTIA5121_h",
   "size" : 5121,
   "source_file" : "system/logging/liblog/include_vndk/log/log_read.h"
  }
 ],
 "builtin_types" :
 [
  {
   "alignment" : 1,
   "is_integral" : true,
   "linker_set_key" : "_ZTIa",
   "name" : "signed char",
   "referenced_type" : "_ZTIa",
   "self_type" : "_ZTIa",
   "size" : 1
  },
  {
   "alignment" : 1,
   "is_integral" : true,
   "is_unsigned" : true,
   "linker_set_key" : "_ZTIb",
   "name" : "bool",
   "referenced_type" : "_ZTIb",
   "self_type" : "_ZTIb",
   "size" : 1
  },
  {
   "alignment" : 1,
   "is_integral" : true,
   "is_unsigned" : true,
   "linker_set_key" : "_ZTIc",
   "name" : "char",
   "referenced_type" : "_ZTIc",
   "self_type" : "_ZTIc",
   "size" : 1
  },
  {
   "alignment" : 8,
   "linker_set_key" : "_ZTId",
   "name" : "double",
   "referenced_type" : "_ZTId",
   "self_type" : "_ZTId",
   "size" : 8
  },
  {
   "alignment" : 4,
   "linker_set_key" : "_ZTIf",
   "name" : "float",
   "referenced_type" : "_ZTIf",
   "self_type" : "_ZTIf",
   "size" : 4
  },
  {
   "alignment" : 1,
   "is_integral" : true,
   "is_unsigned" : true,
   "linker_set_key" : "_ZTIh",
   "name" : "unsigned char",
   "referenced_type" : "_ZTIh",
   "self_type" : "_ZTIh",
   "size" : 1
  },
  {
   "alignment" : 4,
   "is_integral" : true,
   "linker_set_key" : "_ZTIi",
   "name" : "int",
   "referenced_type" : "_ZTIi",
   "self_type" : "_ZTIi",
   "size" : 4
  },
  {
   "alignment" : 4,
   "is_integral" : true,
   "is_unsigned" : true,
   "linker_set_key" : "_ZTIj",
   "name" : "unsigned int",
   "referenced_type" : "_ZTIj",
   "self_type" : "_ZTIj",
   "size" : 4
  },
  {
   "alignment" : 4,
   "is_integral" : true,
   "linker_set_key" : "_ZTIl",
   "name" : "long",
   "referenced_type" : "_ZTIl",
   "self_type" : "_ZTIl",
   "size" : 4
  },
  {
   "alignment" : 4,
   "is_integral" : true,
   "is_unsigned" : true,
   "linker_set_key" : "_ZTIm",
   "name" : "unsigned long",
   "referenced_type" : "_ZTIm",
   "self_type" : "_ZTIm",
   "size" : 4
  },
  {
   "alignment" : 2,
   "is_integral" : true,
   "linker_set_key" : "_ZTIs",
   "name" : "short",
   "referenced_type" : "_ZTIs",
   "self_type" : "_ZTIs",
   "size" : 2
  },
  {
   "alignment" : 2,
   "is_integral" : true,
   "is_unsigned" : true,
   "linker_set_key" : "_ZTIt",
   "name" : "unsigned short",
   "referenced_type" : "_ZTIt",
   "self_type" : "_ZTIt",
   "size" : 2
  },
  {
   "linker_set_key" : "_ZTIv",
   "name" : "void",
   "referenced_type" : "_ZTIv",
   "self_type" : "_ZTIv"
  },
  {
   "alignment" : 8,
   "is_integral" : true,
   "linker_set_key" : "_ZTIx",
   "name" : "long long",
   "referenced_type" : "_ZTIx",
   "self_type" : "_ZTIx",
   "size" : 8
  },
  {
   "alignment" : 8,
   "is_integral" : true,
   "is_unsigned" : true,
   "linker_set_key" : "_ZTIy",
   "name" : "unsigned long long",
   "referenced_type" : "_ZTIy",
   "self_type" : "_ZTIy",
   "size" : 8
  }
 ],
 "elf_functions" : [],
 "elf_objects" : [],
 "enum_types" :
 [
  {
   "alignment" : 4,
   "enum_fields" :
   [
    {
     "enum_field_value" : 0,
     "name" : "ANDROID_LOG_UNKNOWN"
    },
    {
     "enum_field_value" : 1,
     "name" : "ANDROID_LOG_DEFAULT"
    },
    {
     "enum_field_value" : 2,
     "name" : "ANDROID_LOG_VERBOSE"
    },
    {
     "enum_field_value" : 3,
     "name" : "ANDROID_LOG_DEBUG"
    },
    {
     "enum_field_value" : 4,
     "name" : "ANDROID_LOG_INFO"
    },
    {
     "enum_field_value" : 5,
     "name" : "ANDROID_LOG_WARN"
    },
    {
     "enum_field_value" : 6,
     "name" : "ANDROID_LOG_ERROR"
    },
    {
     "enum_field_value" : 7,
     "name" : "ANDROID_LOG_FATAL"
    },
    {
     "enum_field_value" : 8,
     "name" : "ANDROID_LOG_SILENT"
    }
   ],
   "linker_set_key" : "_ZTI19android_LogPriority",
   "name" : "android_LogPriority",
   "referenced_type" : "_ZTI19android_LogPriority",
   "self_type" : "_ZTI19android_LogPriority",
   "size" : 4,
   "source_file" : "system/logging/liblog/include_vndk/android/log.h",
   "underlying_type" : "_ZTIj"
  },
  {
   "alignment" : 4,
   "enum_fields" :
   [
    {
     "enum_field_value" : 0,
     "name" : "LOG_ID_MIN"
    },
    {
     "enum_field_value" : 0,
     "name" : "LOG_ID_MAIN"
    },
    {
     "enum_field_value" : 1,
     "name" : "LOG_ID_RADIO"
    },
    {
     "enum_field_value" : 2,
     "name" : "LOG_ID_EVENTS"
    },
    {
     "enum_field_value" : 3,
     "name" : "LOG_ID_SYSTEM"
    },
    {
     "enum_field_value" : 4,
     "name" : "LOG_ID_CRASH"
    },
    {
     "enum_field_value" : 5,
     "name" : "LOG_ID_STATS"
    },
    {
     "enum_field_value" : 6,
     "name" : "LOG_ID_SECURITY"
    },
    {
     "enum_field_value" : 7,
     "name" : "LOG_ID_KERNEL"
    },
    {
     "enum_field_value" : 8,
     "name" : "LOG_ID_MAX"
    },
    {
     "enum_field_value" : 2147483647,
     "name" : "LOG_ID_DEFAULT"
    }
   ],
   "linker_set_key" : "_ZTI6log_id",
   "name" : "log_id",
   "referenced_type" : "_ZTI6log_id",
   "self_type" : "_ZTI6log_id",
   "size" : 4,
   "source_file" : "system/logging/liblog/include_vndk/android/log.h",
   "underlying_type" : "_ZTIj"
  },
  {
   "alignment" : 4,
   "enum_fields" :
   [
    {
     "enum_field_value" : 1702061171,
     "name" : "android::kTypeESDS"
    },
    {
     "enum_field_value" : 1635148643,
     "name" : "android::kTypeAVCC"
    },
    {
     "enum_field_value" : 1752589155,
     "name" : "android::kTypeHVCC"
    },
    {
     "enum_field_value" : 1635135843,
     "name" : "android::kTypeAV1C"
    },
    {
     "enum_field_value" : 1685480291,
     "name" : "android::kTypeDVCC"
    },
    {
     "enum_field_value" : 1681012275,
     "name" : "android::kTypeD263"
    },
    {
     "enum_field_value" : 1751347059,
     "name" : "android::kTypeHCOS"
    }
   ],
   "linker_set_key" : "_ZTIN7android10$kTypeAV1CE",
   "name" : "android::(anonymous enum at frameworks/av/media/libstagefright/include/media/stagefright/MetaDataBase.h:280:1)",
   "referenced_type" : "_ZTIN7android10$kTypeAV1CE",
   "self_type" : "_ZTIN7android10$kTypeAV1CE",
   "size" : 4,
   "source_file" : "frameworks/av/media/libstagefright/include/media/stagefright/MetaDataBase.h",
   "underlying_type" : "_ZTIj"
  },
  {
   "alignment" : 4,
   "enum_fields" :
   [
    {
     "enum_field_value" : 1,
     "name" : "android::VectorImpl::HAS_TRIVIAL_CTOR"
    },
    {
     "enum_field_value" : 2,
     "name" : "android::VectorImpl::HAS_TRIVIAL_DTOR"
    },
    {
     "enum_field_value" : 4,
     "name" : "android::VectorImpl::HAS_TRIVIAL_COPY"
    }
   ],
   "linker_set_key" : "_ZTIN7android10VectorImpl17$HAS_TRIVIAL_COPYE",
   "name" : "android::VectorImpl::(anonymous enum at system/core/libutils/include/utils/VectorImpl.h:43:5)",
   "referenced_type" : "_ZTIN7android10VectorImpl17$HAS_TRIVIAL_COPYE",
   "self_type" : "_ZTIN7android10VectorImpl17$HAS_TRIVIAL_COPYE",
   "size" : 4,
   "source_file" : "system/core/libutils/include/utils/VectorImpl.h",
   "underlying_type" : "_ZTIj"
  },
  {
   "alignment" : 4,
   "enum_fields" :
   [
    {
     "enum_field_value" : 1852796517,
     "name" : "android::MetaDataBase::TYPE_NONE"
    },
    {
     "enum_field_value" : 1668510834,
     "name" : "android::MetaDataBase::TYPE_C_STRING"
    },
    {
     "enum_field_value" : 1768829746,
     "name" : "android::MetaDataBase::TYPE_INT32"
    },
    {
     "enum_field_value" : 1768830516,
     "name" : "android::MetaDataBase::TYPE_INT64"
    },
    {
     "enum_field_value" : 1718382433,
     "name" : "android::MetaDataBase::TYPE_FLOAT"
    },
    {
     "enum_field_value" : 1886679584,
     "name" : "android::MetaDataBase::TYPE_POINTER"
    },
    {
     "enum_field_value" : 1919247220,
     "name" : "android::MetaDataBase::TYPE_RECT"
    }
   ],
   "linker_set_key" : "_ZTIN7android12MetaDataBase4TypeE",
   "name" : "android::MetaDataBase::Type",
   "referenced_type" : "_ZTIN7android12MetaDataBase4TypeE",
   "self_type" : "_ZTIN7android12MetaDataBase4TypeE",
   "size" : 4,
   "source_file" : "frameworks/av/media/libstagefright/include/media/stagefright/MetaDataBase.h",
   "underlying_type" : "_ZTIj"
  },
  {
   "alignment" : 4,
   "enum_fields" :
   [
    {
     "enum_field_value" : 0,
     "name" : "android::trait_pointer<android::MetaDataBase::typed_data>::value"
    }
   ],
   "linker_set_key" : "_ZTIN7android13trait_pointerINS_12MetaDataBase10typed_dataEE6$valueE",
   "name" : "android::trait_pointer<typed_data>::(anonymous enum at system/core/libutils/include/utils/TypeHelpers.h:39:51)",
   "referenced_type" : "_ZTIN7android13trait_pointerINS_12MetaDataBase10typed_dataEE6$valueE",
   "self_type" : "_ZTIN7android13trait_pointerINS_12MetaDataBase10typed_dataEE6$valueE",
   "size" : 4,
   "source_file" : "system/core/libutils/include/utils/TypeHelpers.h",
   "underlying_type" : "_ZTIj"
  },
  {
   "alignment" : 4,
   "enum_fields" :
   [
    {
     "enum_field_value" : 0,
     "name" : "android::trait_pointer<android::key_value_pair_t<unsigned int, android::MetaDataBase::typed_data>>::value"
    }
   ],
   "linker_set_key" : "_ZTIN7android13trait_pointerINS_16key_value_pair_tIjNS_12MetaDataBase10typed_dataEEEE6$valueE",
   "name" : "android::trait_pointer<key_value_pair_t<unsigned int, typed_data>>::(anonymous enum at system/core/libutils/include/utils/TypeHelpers.h:39:51)",
   "referenced_type" : "_ZTIN7android13trait_pointerINS_16key_value_pair_tIjNS_12MetaDataBase10typed_dataEEEE6$valueE",
   "self_type" : "_ZTIN7android13trait_pointerINS_16key_value_pair_tIjNS_12MetaDataBase10typed_dataEEEE6$valueE",
   "size" : 4,
   "source_file" : "system/core/libutils/include/utils/TypeHelpers.h",
   "underlying_type" : "_ZTIj"
  },
  {
   "alignment" : 4,
   "enum_fields" :
   [
    {
     "enum_field_value" : 0,
     "name" : "android::trait_pointer<unsigned int>::value"
    }
   ],
   "linker_set_key" : "_ZTIN7android13trait_pointerIjE6$valueE",
   "name" : "android::trait_pointer<unsigned int>::(anonymous enum at system/core/libutils/include/utils/TypeHelpers.h:39:51)",
   "referenced_type" : "_ZTIN7android13trait_pointerIjE6$valueE",
   "self_type" : "_ZTIN7android13trait_pointerIjE6$valueE",
   "size" : 4,
   "source_file" : "system/core/libutils/include/utils/TypeHelpers.h",
   "underlying_type" : "_ZTIj"
  },
  {
   "alignment" : 4,
   "enum_fields" :
   [
    {
     "enum_field_value" : 0,
     "name" : "android::OK"
    },
    {
     "enum_field_value" : 0,
     "name" : "android::NO_ERROR"
    },
    {
     "enum_field_value" : -2147483648,
     "name" : "android::UNKNOWN_ERROR"
    },
    {
     "enum_field_value" : -12,
     "name" : "android::NO_MEMORY"
    },
    {
     "enum_field_value" : -38,
     "name" : "android::INVALID_OPERATION"
    },
    {
     "enum_field_value" : -22,
     "name" : "android::BAD_VALUE"
    },
    {
     "enum_field_value" : -2147483647,
     "name" : "android::BAD_TYPE"
    },
    {
     "enum_field_value" : -2,
     "name" : "android::NAME_NOT_FOUND"
    },
    {
     "enum_field_value" : -1,
     "name" : "android::PERMISSION_DENIED"
    },
    {
     "enum_field_value" : -19,
     "name" : "android::NO_INIT"
    },
    {
     "enum_field_value" : -17,
     "name" : "android::ALREADY_EXISTS"
    },
    {
     "enum_field_value" : -32,
     "name" : "android::DEAD_OBJECT"
    },
    {
     "enum_field_value" : -2147483646,
     "name" : "android::FAILED_TRANSACTION"
    },
    {
     "enum_field_value" : -75,
     "name" : "android::BAD_INDEX"
    },
    {
     "enum_field_value" : -61,
     "name" : "android::NOT_ENOUGH_DATA"
    },
    {
     "enum_field_value" : -11,
     "name" : "android::WOULD_BLOCK"
    },
    {
     "enum_field_value" : -110,
     "name" : "android::TIMED_OUT"
    },
    {
     "enum_field_value" : -74,
     "name" : "android::UNKNOWN_TRANSACTION"
    },
    {
     "enum_field_value" : -2147483641,
     "name" : "android::FDS_NOT_ALLOWED"
    },
    {
     "enum_field_value" : -2147483640,
     "name" : "android::UNEXPECTED_NULL"
    }
   ],
   "linker_set_key" : "_ZTIN7android15$ALREADY_EXISTSE",
   "name" : "android::(anonymous enum at system/core/libutils/include/utils/Errors.h:43:1)",
   "referenced_type" : "_ZTIN7android15$ALREADY_EXISTSE",
   "self_type" : "_ZTIN7android15$ALREADY_EXISTSE",
   "size" : 4,
   "source_file" : "system/core/libutils/include/utils/Errors.h",
   "underlying_type" : "_ZTIi"
  },
  {
   "alignment" : 4,
   "enum_fields" :
   [
    {
     "enum_field_value" : 0,
     "name" : "android::aggregate_traits<unsigned int, android::MetaDataBase::typed_data>::is_pointer"
    },
    {
     "enum_field_value" : 0,
     "name" : "android::aggregate_traits<unsigned int, android::MetaDataBase::typed_data>::has_trivial_ctor"
    },
    {
     "enum_field_value" : 0,
     "name" : "android::aggregate_traits<unsigned int, android::MetaDataBase::typed_data>::has_trivial_dtor"
    },
    {
     "enum_field_value" : 0,
     "name" : "android::aggregate_traits<unsigned int, android::MetaDataBase::typed_data>::has_trivial_copy"
    },
    {
     "enum_field_value" : 0,
     "name" : "android::aggregate_traits<unsigned int, android::MetaDataBase::typed_data>::has_trivial_move"
    }
   ],
   "linker_set_key" : "_ZTIN7android16aggregate_traitsIjNS_12MetaDataBase10typed_dataEE17$has_trivial_copyE",
   "name" : "android::aggregate_traits<unsigned int, typed_data>::(anonymous enum at system/core/libutils/include/utils/TypeHelpers.h:60:5)",
   "referenced_type" : "_ZTIN7android16aggregate_traitsIjNS_12MetaDataBase10typed_dataEE17$has_trivial_copyE",
   "self_type" : "_ZTIN7android16aggregate_traitsIjNS_12MetaDataBase10typed_dataEE17$has_trivial_copyE",
   "size" : 4,
   "source_file" : "system/core/libutils/include/utils/TypeHelpers.h",
   "underlying_type" : "_ZTIj"
  },
  {
   "alignment" : 4,
   "enum_fields" :
   [
    {
     "enum_field_value" : 0,
     "name" : "android::kCryptoModeUnencrypted"
    },
    {
     "enum_field_value" : 1,
     "name" : "android::kCryptoModeAesCtr"
    },
    {
     "enum_field_value" : 2,
     "name" : "android::kCryptoModeAesCbc"
    }
   ],
   "linker_set_key" : "_ZTIN7android18$kCryptoModeAesCbcE",
   "name" : "android::(anonymous enum at frameworks/av/media/libstagefright/include/media/stagefright/MetaDataBase.h:290:1)",
   "referenced_type" : "_ZTIN7android18$kCryptoModeAesCbcE",
   "self_type" : "_ZTIN7android18$kCryptoModeAesCbcE",
   "size" : 4,
   "source_file" : "frameworks/av/media/libstagefright/include/media/stagefright/MetaDataBase.h",
   "underlying_type" : "_ZTIj"
  },
  {
   "alignment" : 4,
   "enum_fields" :
   [
    {
     "enum_field_value" : 0,
     "name" : "android::trait_trivial_copy<android::MetaDataBase::typed_data>::value"
    }
   ],
   "linker_set_key" : "_ZTIN7android18trait_trivial_copyINS_12MetaDataBase10typed_dataEE6$valueE",
   "name" : "android::trait_trivial_copy<typed_data>::(anonymous enum at system/core/libutils/include/utils/TypeHelpers.h:37:51)",
   "referenced_type" : "_ZTIN7android18trait_trivial_copyINS_12MetaDataBase10typed_dataEE6$valueE",
   "self_type" : "_ZTIN7android18trait_trivial_copyINS_12MetaDataBase10typed_dataEE6$valueE",
   "size" : 4,
   "source_file" : "system/core/libutils/include/utils/TypeHelpers.h",
   "underlying_type" : "_ZTIj"
  },
  {
   "alignment" : 4,
   "enum_fields" :
   [
    {
     "enum_field_value" : 0,
     "name" : "android::trait_trivial_copy<android::key_value_pair_t<unsigned int, android::MetaDataBase::typed_data>>::value"
    }
   ],
   "linker_set_key" : "_ZTIN7android18trait_trivial_copyINS_16key_value_pair_tIjNS_12MetaDataBase10typed_dataEEEE6$valueE",
   "name" : "android::trait_trivial_copy<key_value_pair_t<unsigned int, typed_data>>::(anonymous enum at system/core/libutils/include/utils/TypeHelpers.h:287:3)",
   "referenced_type" : "_ZTIN7android18trait_trivial_copyINS_16key_value_pair_tIjNS_12MetaDataBase10typed_dataEEEE6$valueE",
   "self_type" : "_ZTIN7android18trait_trivial_copyINS_16key_value_pair_tIjNS_12MetaDataBase10typed_dataEEEE6$valueE",
   "size" : 4,
   "source_file" : "system/core/libutils/include/utils/TypeHelpers.h",
   "underlying_type" : "_ZTIj"
  },
  {
   "alignment" : 4,
   "enum_fields" :
   [
    {
     "enum_field_value" : 1,
     "name" : "android::trait_trivial_copy<bool>::value"
    }
   ],
   "linker_set_key" : "_ZTIN7android18trait_trivial_copyIbE6$valueE",
   "name" : "android::trait_trivial_copy<bool>::(anonymous enum at system/core/libutils/include/utils/TypeHelpers.h:98:1)",
   "referenced_type" : "_ZTIN7android18trait_trivial_copyIbE6$valueE",
   "self_type" : "_ZTIN7android18trait_trivial_copyIbE6$valueE",
   "size" : 4,
   "source_file" : "system/core/libutils/include/utils/TypeHelpers.h",
   "underlying_type" : "_ZTIj"
  },
  {
   "alignment" : 4,
   "enum_fields" :
   [
    {
     "enum_field_value" : 1,
     "name" : "android::trait_trivial_copy<char>::value"
    }
   ],
   "linker_set_key" : "_ZTIN7android18trait_trivial_copyIcE6$valueE",
   "name" : "android::trait_trivial_copy<char>::(anonymous enum at system/core/libutils/include/utils/TypeHelpers.h:99:1)",
   "referenced_type" : "_ZTIN7android18trait_trivial_copyIcE6$valueE",
   "self_type" : "_ZTIN7android18trait_trivial_copyIcE6$valueE",
   "size" : 4,
   "source_file" : "system/core/libutils/include/utils/TypeHelpers.h",
   "underlying_type" : "_ZTIj"
  },
  {
   "alignment" : 4,
   "enum_fields" :
   [
    {
     "enum_field_value" : 1,
     "name" : "android::trait_trivial_copy<double>::value"
    }
   ],
   "linker_set_key" : "_ZTIN7android18trait_trivial_copyIdE6$valueE",
   "name" : "android::trait_trivial_copy<double>::(anonymous enum at system/core/libutils/include/utils/TypeHelpers.h:110:1)",
   "referenced_type" : "_ZTIN7android18trait_trivial_copyIdE6$valueE",
   "self_type" : "_ZTIN7android18trait_trivial_copyIdE6$valueE",
   "size" : 4,
   "source_file" : "system/core/libutils/include/utils/TypeHelpers.h",
   "underlying_type" : "_ZTIj"
  },
  {
   "alignment" : 4,
   "enum_fields" :
   [
    {
     "enum_field_value" : 1,
     "name" : "android::trait_trivial_copy<float>::value"
    }
   ],
   "linker_set_key" : "_ZTIN7android18trait_trivial_copyIfE6$valueE",
   "name" : "android::trait_trivial_copy<float>::(anonymous enum at system/core/libutils/include/utils/TypeHelpers.h:109:1)",
   "referenced_type" : "_ZTIN7android18trait_trivial_copyIfE6$valueE",
   "self_type" : "_ZTIN7android18trait_trivial_copyIfE6$valueE",
   "size" : 4,
   "source_file" : "system/core/libutils/include/utils/TypeHelpers.h",
   "underlying_type" : "_ZTIj"
  },
  {
   "alignment" : 4,
   "enum_fields" :
   [
    {
     "enum_field_value" : 1,
     "name" : "android::trait_trivial_copy<unsigned char>::value"
    }
   ],
   "linker_set_key" : "_ZTIN7android18trait_trivial_copyIhE6$valueE",
   "name" : "android::trait_trivial_copy<unsigned char>::(anonymous enum at system/core/libutils/include/utils/TypeHelpers.h:100:1)",
   "referenced_type" : "_ZTIN7android18trait_trivial_copyIhE6$valueE",
   "self_type" : "_ZTIN7android18trait_trivial_copyIhE6$valueE",
   "size" : 4,
   "source_file" : "system/core/libutils/include/utils/TypeHelpers.h",
   "underlying_type" : "_ZTIj"
  },
  {
   "alignment" : 4,
   "enum_fields" :
   [
    {
     "enum_field_value" : 1,
     "name" : "android::trait_trivial_copy<int>::value"
    }
   ],
   "linker_set_key" : "_ZTIN7android18trait_trivial_copyIiE6$valueE",
   "name" : "android::trait_trivial_copy<int>::(anonymous enum at system/core/libutils/include/utils/TypeHelpers.h:103:1)",
   "referenced_type" : "_ZTIN7android18trait_trivial_copyIiE6$valueE",
   "self_type" : "_ZTIN7android18trait_trivial_copyIiE6$valueE",
   "size" : 4,
   "source_file" : "system/core/libutils/include/utils/TypeHelpers.h",
   "underlying_type" : "_ZTIj"
  },
  {
   "alignment" : 4,
   "enum_fields" :
   [
    {
     "enum_field_value" : 1,
     "name" : "android::trait_trivial_copy<unsigned int>::value"
    }
   ],
   "linker_set_key" : "_ZTIN7android18trait_trivial_copyIjE6$valueE",
   "name" : "android::trait_trivial_copy<unsigned int>::(anonymous enum at system/core/libutils/include/utils/TypeHelpers.h:104:1)",
   "referenced_type" : "_ZTIN7android18trait_trivial_copyIjE6$valueE",
   "self_type" : "_ZTIN7android18trait_trivial_copyIjE6$valueE",
   "size" : 4,
   "source_file" : "system/core/libutils/include/utils/TypeHelpers.h",
   "underlying_type" : "_ZTIj"
  },
  {
   "alignment" : 4,
   "enum_fields" :
   [
    {
     "enum_field_value" : 1,
     "name" : "android::trait_trivial_copy<long>::value"
    }
   ],
   "linker_set_key" : "_ZTIN7android18trait_trivial_copyIlE6$valueE",
   "name" : "android::trait_trivial_copy<long>::(anonymous enum at system/core/libutils/include/utils/TypeHelpers.h:105:1)",
   "referenced_type" : "_ZTIN7android18trait_trivial_copyIlE6$valueE",
   "self_type" : "_ZTIN7android18trait_trivial_copyIlE6$valueE",
   "size" : 4,
   "source_file" : "system/core/libutils/include/utils/TypeHelpers.h",
   "underlying_type" : "_ZTIj"
  },
  {
   "alignment" : 4,
   "enum_fields" :
   [
    {
     "enum_field_value" : 1,
     "name" : "android::trait_trivial_copy<unsigned long>::value"
    }
   ],
   "linker_set_key" : "_ZTIN7android18trait_trivial_copyImE6$valueE",
   "name" : "android::trait_trivial_copy<unsigned long>::(anonymous enum at system/core/libutils/include/utils/TypeHelpers.h:106:1)",
   "referenced_type" : "_ZTIN7android18trait_trivial_copyImE6$valueE",
   "self_type" : "_ZTIN7android18trait_trivial_copyImE6$valueE",
   "size" : 4,
   "source_file" : "system/core/libutils/include/utils/TypeHelpers.h",
   "underlying_type" : "_ZTIj"
  },
  {
   "alignment" : 4,
   "enum_fields" :
   [
    {
     "enum_field_value" : 1,
     "name" : "android::trait_trivial_copy<short>::value"
    }
   ],
   "linker_set_key" : "_ZTIN7android18trait_trivial_copyIsE6$valueE",
   "name" : "android::trait_trivial_copy<short>::(anonymous enum at system/core/libutils/include/utils/TypeHelpers.h:101:1)",
   "referenced_type" : "_ZTIN7android18trait_trivial_copyIsE6$valueE",
   "self_type" : "_ZTIN7android18trait_trivial_copyIsE6$valueE",
   "size" : 4,
   "source_file" : "system/core/libutils/include/utils/TypeHelpers.h",
   "underlying_type" : "_ZTIj"
  },
  {
   "alignment" : 4,
   "enum_fields" :
   [
    {
     "enum_field_value" : 1,
     "name" : "android::trait_trivial_copy<unsigned short>::value"
    }
   ],
   "linker_set_key" : "_ZTIN7android18trait_trivial_copyItE6$valueE",
   "name" : "android::trait_trivial_copy<unsigned short>::(anonymous enum at system/core/libutils/include/utils/TypeHelpers.h:102:1)",
   "referenced_type" : "_ZTIN7android18trait_trivial_copyItE6$valueE",
   "self_type" : "_ZTIN7android18trait_trivial_copyItE6$valueE",
   "size" : 4,
   "source_file" : "system/core/libutils/include/utils/TypeHelpers.h",
   "underlying_type" : "_ZTIj"
  },
  {
   "alignment" : 4,
   "enum_fields" :
   [
    {
     "enum_field_value" : 1,
     "name" : "android::trait_trivial_copy<void>::value"
    }
   ],
   "linker_set_key" : "_ZTIN7android18trait_trivial_copyIvE6$valueE",
   "name" : "android::trait_trivial_copy<void>::(anonymous enum at system/core/libutils/include/utils/TypeHelpers.h:97:1)",
   "referenced_type" : "_ZTIN7android18trait_trivial_copyIvE6$valueE",
   "self_type" : "_ZTIN7android18trait_trivial_copyIvE6$valueE",
   "size" : 4,
   "source_file" : "system/core/libutils/include/utils/TypeHelpers.h",
   "underlying_type" : "_ZTIj"
  },
  {
   "alignment" : 4,
   "enum_fields" :
   [
    {
     "enum_field_value" : 1,
     "name" : "android::trait_trivial_copy<long long>::value"
    }
   ],
   "linker_set_key" : "_ZTIN7android18trait_trivial_copyIxE6$valueE",
   "name" : "android::trait_trivial_copy<long long>::(anonymous enum at system/core/libutils/include/utils/TypeHelpers.h:107:1)",
   "referenced_type" : "_ZTIN7android18trait_trivial_copyIxE6$valueE",
   "self_type" : "_ZTIN7android18trait_trivial_copyIxE6$valueE",
   "size" : 4,
   "source_file" : "system/core/libutils/include/utils/TypeHelpers.h",
   "underlying_type" : "_ZTIj"
  },
  {
   "alignment" : 4,
   "enum_fields" :
   [
    {
     "enum_field_value" : 1,
     "name" : "android::trait_trivial_copy<unsigned long long>::value"
    }
   ],
   "linker_set_key" : "_ZTIN7android18trait_trivial_copyIyE6$valueE",
   "name" : "android::trait_trivial_copy<unsigned long long>::(anonymous enum at system/core/libutils/include/utils/TypeHelpers.h:108:1)",
   "referenced_type" : "_ZTIN7android18trait_trivial_copyIyE6$valueE",
   "self_type" : "_ZTIN7android18trait_trivial_copyIyE6$valueE",
   "size" : 4,
   "source_file" : "system/core/libutils/include/utils/TypeHelpers.h",
   "underlying_type" : "_ZTIj"
  },
  {
   "alignment" : 4,
   "enum_fields" :
   [
    {
     "enum_field_value" : 0,
     "name" : "android::trait_trivial_ctor<android::MetaDataBase::typed_data>::value"
    }
   ],
   "linker_set_key" : "_ZTIN7android18trait_trivial_ctorINS_12MetaDataBase10typed_dataEE6$valueE",
   "name" : "android::trait_trivial_ctor<typed_data>::(anonymous enum at system/core/libutils/include/utils/TypeHelpers.h:35:51)",
   "referenced_type" : "_ZTIN7android18trait_trivial_ctorINS_12MetaDataBase10typed_dataEE6$valueE",
   "self_type" : "_ZTIN7android18trait_trivial_ctorINS_12MetaDataBase10typed_dataEE6$valueE",
   "size" : 4,
   "source_file" : "system/core/libutils/include/utils/TypeHelpers.h",
   "underlying_type" : "_ZTIj"
  },
  {
   "alignment" : 4,
   "enum_fields" :
   [
    {
     "enum_field_value" : 0,
     "name" : "android::trait_trivial_ctor<android::key_value_pair_t<unsigned int, android::MetaDataBase::typed_data>>::value"
    }
   ],
   "linker_set_key" : "_ZTIN7android18trait_trivial_ctorINS_16key_value_pair_tIjNS_12MetaDataBase10typed_dataEEEE6$valueE",
   "name" : "android::trait_trivial_ctor<key_value_pair_t<unsigned int, typed_data>>::(anonymous enum at system/core/libutils/include/utils/TypeHelpers.h:281:3)",
   "referenced_type" : "_ZTIN7android18trait_trivial_ctorINS_16key_value_pair_tIjNS_12MetaDataBase10typed_dataEEEE6$valueE",
   "self_type" : "_ZTIN7android18trait_trivial_ctorINS_16key_value_pair_tIjNS_12MetaDataBase10typed_dataEEEE6$valueE",
   "size" : 4,
   "source_file" : "system/core/libutils/include/utils/TypeHelpers.h",
   "underlying_type" : "_ZTIj"
  },
  {
   "alignment" : 4,
   "enum_fields" :
   [
    {
     "enum_field_value" : 1,
     "name" : "android::trait_trivial_ctor<bool>::value"
    }
   ],
   "linker_set_key" : "_ZTIN7android18trait_trivial_ctorIbE6$valueE",
   "name" : "android::trait_trivial_ctor<bool>::(anonymous enum at system/core/libutils/include/utils/TypeHelpers.h:98:1)",
   "referenced_type" : "_ZTIN7android18trait_trivial_ctorIbE6$valueE",
   "self_type" : "_ZTIN7android18trait_trivial_ctorIbE6$valueE",
   "size" : 4,
   "source_file" : "system/core/libutils/include/utils/TypeHelpers.h",
   "underlying_type" : "_ZTIj"
  },
  {
   "alignment" : 4,
   "enum_fields" :
   [
    {
     "enum_field_value" : 1,
     "name" : "android::trait_trivial_ctor<char>::value"
    }
   ],
   "linker_set_key" : "_ZTIN7android18trait_trivial_ctorIcE6$valueE",
   "name" : "android::trait_trivial_ctor<char>::(anonymous enum at system/core/libutils/include/utils/TypeHelpers.h:99:1)",
   "referenced_type" : "_ZTIN7android18trait_trivial_ctorIcE6$valueE",
   "self_type" : "_ZTIN7android18trait_trivial_ctorIcE6$valueE",
   "size" : 4,
   "source_file" : "system/core/libutils/include/utils/TypeHelpers.h",
   "underlying_type" : "_ZTIj"
  },
  {
   "alignment" : 4,
   "enum_fields" :
   [
    {
     "enum_field_value" : 1,
     "name" : "android::trait_trivial_ctor<double>::value"
    }
   ],
   "linker_set_key" : "_ZTIN7android18trait_trivial_ctorIdE6$valueE",
   "name" : "android::trait_trivial_ctor<double>::(anonymous enum at system/core/libutils/include/utils/TypeHelpers.h:110:1)",
   "referenced_type" : "_ZTIN7android18trait_trivial_ctorIdE6$valueE",
   "self_type" : "_ZTIN7android18trait_trivial_ctorIdE6$valueE",
   "size" : 4,
   "source_file" : "system/core/libutils/include/utils/TypeHelpers.h",
   "underlying_type" : "_ZTIj"
  },
  {
   "alignment" : 4,
   "enum_fields" :
   [
    {
     "enum_field_value" : 1,
     "name" : "android::trait_trivial_ctor<float>::value"
    }
   ],
   "linker_set_key" : "_ZTIN7android18trait_trivial_ctorIfE6$valueE",
   "name" : "android::trait_trivial_ctor<float>::(anonymous enum at system/core/libutils/include/utils/TypeHelpers.h:109:1)",
   "referenced_type" : "_ZTIN7android18trait_trivial_ctorIfE6$valueE",
   "self_type" : "_ZTIN7android18trait_trivial_ctorIfE6$valueE",
   "size" : 4,
   "source_file" : "system/core/libutils/include/utils/TypeHelpers.h",
   "underlying_type" : "_ZTIj"
  },
  {
   "alignment" : 4,
   "enum_fields" :
   [
    {
     "enum_field_value" : 1,
     "name" : "android::trait_trivial_ctor<unsigned char>::value"
    }
   ],
   "linker_set_key" : "_ZTIN7android18trait_trivial_ctorIhE6$valueE",
   "name" : "android::trait_trivial_ctor<unsigned char>::(anonymous enum at system/core/libutils/include/utils/TypeHelpers.h:100:1)",
   "referenced_type" : "_ZTIN7android18trait_trivial_ctorIhE6$valueE",
   "self_type" : "_ZTIN7android18trait_trivial_ctorIhE6$valueE",
   "size" : 4,
   "source_file" : "system/core/libutils/include/utils/TypeHelpers.h",
   "underlying_type" : "_ZTIj"
  },
  {
   "alignment" : 4,
   "enum_fields" :
   [
    {
     "enum_field_value" : 1,
     "name" : "android::trait_trivial_ctor<int>::value"
    }
   ],
   "linker_set_key" : "_ZTIN7android18trait_trivial_ctorIiE6$valueE",
   "name" : "android::trait_trivial_ctor<int>::(anonymous enum at system/core/libutils/include/utils/TypeHelpers.h:103:1)",
   "referenced_type" : "_ZTIN7android18trait_trivial_ctorIiE6$valueE",
   "self_type" : "_ZTIN7android18trait_trivial_ctorIiE6$valueE",
   "size" : 4,
   "source_file" : "system/core/libutils/include/utils/TypeHelpers.h",
   "underlying_type" : "_ZTIj"
  },
  {
   "alignment" : 4,
   "enum_fields" :
   [
    {
     "enum_field_value" : 1,
     "name" : "android::trait_trivial_ctor<unsigned int>::value"
    }
   ],
   "linker_set_key" : "_ZTIN7android18trait_trivial_ctorIjE6$valueE",
   "name" : "android::trait_trivial_ctor<unsigned int>::(anonymous enum at system/core/libutils/include/utils/TypeHelpers.h:104:1)",
   "referenced_type" : "_ZTIN7android18trait_trivial_ctorIjE6$valueE",
   "self_type" : "_ZTIN7android18trait_trivial_ctorIjE6$valueE",
   "size" : 4,
   "source_file" : "system/core/libutils/include/utils/TypeHelpers.h",
   "underlying_type" : "_ZTIj"
  },
  {
   "alignment" : 4,
   "enum_fields" :
   [
    {
     "enum_field_value" : 1,
     "name" : "android::trait_trivial_ctor<long>::value"
    }
   ],
   "linker_set_key" : "_ZTIN7android18trait_trivial_ctorIlE6$valueE",
   "name" : "android::trait_trivial_ctor<long>::(anonymous enum at system/core/libutils/include/utils/TypeHelpers.h:105:1)",
   "referenced_type" : "_ZTIN7android18trait_trivial_ctorIlE6$valueE",
   "self_type" : "_ZTIN7android18trait_trivial_ctorIlE6$valueE",
   "size" : 4,
   "source_file" : "system/core/libutils/include/utils/TypeHelpers.h",
   "underlying_type" : "_ZTIj"
  },
  {
   "alignment" : 4,
   "enum_fields" :
   [
    {
     "enum_field_value" : 1,
     "name" : "android::trait_trivial_ctor<unsigned long>::value"
    }
   ],
   "linker_set_key" : "_ZTIN7android18trait_trivial_ctorImE6$valueE",
   "name" : "android::trait_trivial_ctor<unsigned long>::(anonymous enum at system/core/libutils/include/utils/TypeHelpers.h:106:1)",
   "referenced_type" : "_ZTIN7android18trait_trivial_ctorImE6$valueE",
   "self_type" : "_ZTIN7android18trait_trivial_ctorImE6$valueE",
   "size" : 4,
   "source_file" : "system/core/libutils/include/utils/TypeHelpers.h",
   "underlying_type" : "_ZTIj"
  },
  {
   "alignment" : 4,
   "enum_fields" :
   [
    {
     "enum_field_value" : 1,
     "name" : "android::trait_trivial_ctor<short>::value"
    }
   ],
   "linker_set_key" : "_ZTIN7android18trait_trivial_ctorIsE6$valueE",
   "name" : "android::trait_trivial_ctor<short>::(anonymous enum at system/core/libutils/include/utils/TypeHelpers.h:101:1)",
   "referenced_type" : "_ZTIN7android18trait_trivial_ctorIsE6$valueE",
   "self_type" : "_ZTIN7android18trait_trivial_ctorIsE6$valueE",
   "size" : 4,
   "source_file" : "system/core/libutils/include/utils/TypeHelpers.h",
   "underlying_type" : "_ZTIj"
  },
  {
   "alignment" : 4,
   "enum_fields" :
   [
    {
     "enum_field_value" : 1,
     "name" : "android::trait_trivial_ctor<unsigned short>::value"
    }
   ],
   "linker_set_key" : "_ZTIN7android18trait_trivial_ctorItE6$valueE",
   "name" : "android::trait_trivial_ctor<unsigned short>::(anonymous enum at system/core/libutils/include/utils/TypeHelpers.h:102:1)",
   "referenced_type" : "_ZTIN7android18trait_trivial_ctorItE6$valueE",
   "self_type" : "_ZTIN7android18trait_trivial_ctorItE6$valueE",
   "size" : 4,
   "source_file" : "system/core/libutils/include/utils/TypeHelpers.h",
   "underlying_type" : "_ZTIj"
  },
  {
   "alignment" : 4,
   "enum_fields" :
   [
    {
     "enum_field_value" : 1,
     "name" : "android::trait_trivial_ctor<void>::value"
    }
   ],
   "linker_set_key" : "_ZTIN7android18trait_trivial_ctorIvE6$valueE",
   "name" : "android::trait_trivial_ctor<void>::(anonymous enum at system/core/libutils/include/utils/TypeHelpers.h:97:1)",
   "referenced_type" : "_ZTIN7android18trait_trivial_ctorIvE6$valueE",
   "self_type" : "_ZTIN7android18trait_trivial_ctorIvE6$valueE",
   "size" : 4,
   "source_file" : "system/core/libutils/include/utils/TypeHelpers.h",
   "underlying_type" : "_ZTIj"
  },
  {
   "alignment" : 4,
   "enum_fields" :
   [
    {
     "enum_field_value" : 1,
     "name" : "android::trait_trivial_ctor<long long>::value"
    }
   ],
   "linker_set_key" : "_ZTIN7android18trait_trivial_ctorIxE6$valueE",
   "name" : "android::trait_trivial_ctor<long long>::(anonymous enum at system/core/libutils/include/utils/TypeHelpers.h:107:1)",
   "referenced_type" : "_ZTIN7android18trait_trivial_ctorIxE6$valueE",
   "self_type" : "_ZTIN7android18trait_trivial_ctorIxE6$valueE",
   "size" : 4,
   "source_file" : "system/core/libutils/include/utils/TypeHelpers.h",
   "underlying_type" : "_ZTIj"
  },
  {
   "alignment" : 4,
   "enum_fields" :
   [
    {
     "enum_field_value" : 1,
     "name" : "android::trait_trivial_ctor<unsigned long long>::value"
    }
   ],
   "linker_set_key" : "_ZTIN7android18trait_trivial_ctorIyE6$valueE",
   "name" : "android::trait_trivial_ctor<unsigned long long>::(anonymous enum at system/core/libutils/include/utils/TypeHelpers.h:108:1)",
   "referenced_type" : "_ZTIN7android18trait_trivial_ctorIyE6$valueE",
   "self_type" : "_ZTIN7android18trait_trivial_ctorIyE6$valueE",
   "size" : 4,
   "source_file" : "system/core/libutils/include/utils/TypeHelpers.h",
   "underlying_type" : "_ZTIj"
  },
  {
   "alignment" : 4,
   "enum_fields" :
   [
    {
     "enum_field_value" : 0,
     "name" : "android::trait_trivial_dtor<android::MetaDataBase::typed_data>::value"
    }
   ],
   "linker_set_key" : "_ZTIN7android18trait_trivial_dtorINS_12MetaDataBase10typed_dataEE6$valueE",
   "name" : "android::trait_trivial_dtor<typed_data>::(anonymous enum at system/core/libutils/include/utils/TypeHelpers.h:36:51)",
   "referenced_type" : "_ZTIN7android18trait_trivial_dtorINS_12MetaDataBase10typed_dataEE6$valueE",
   "self_type" : "_ZTIN7android18trait_trivial_dtorINS_12MetaDataBase10typed_dataEE6$valueE",
   "size" : 4,
   "source_file" : "system/core/libutils/include/utils/TypeHelpers.h",
   "underlying_type" : "_ZTIj"
  },
  {
   "alignment" : 4,
   "enum_fields" :
   [
    {
     "enum_field_value" : 0,
     "name" : "android::trait_trivial_dtor<android::key_value_pair_t<unsigned int, android::MetaDataBase::typed_data>>::value"
    }
   ],
   "linker_set_key" : "_ZTIN7android18trait_trivial_dtorINS_16key_value_pair_tIjNS_12MetaDataBase10typed_dataEEEE6$valueE",
   "name" : "android::trait_trivial_dtor<key_value_pair_t<unsigned int, typed_data>>::(anonymous enum at system/core/libutils/include/utils/TypeHelpers.h:284:3)",
   "referenced_type" : "_ZTIN7android18trait_trivial_dtorINS_16key_value_pair_tIjNS_12MetaDataBase10typed_dataEEEE6$valueE",
   "self_type" : "_ZTIN7android18trait_trivial_dtorINS_16key_value_pair_tIjNS_12MetaDataBase10typed_dataEEEE6$valueE",
   "size" : 4,
   "source_file" : "system/core/libutils/include/utils/TypeHelpers.h",
   "underlying_type" : "_ZTIj"
  },
  {
   "alignment" : 4,
   "enum_fields" :
   [
    {
     "enum_field_value" : 1,
     "name" : "android::trait_trivial_dtor<bool>::value"
    }
   ],
   "linker_set_key" : "_ZTIN7android18trait_trivial_dtorIbE6$valueE",
   "name" : "android::trait_trivial_dtor<bool>::(anonymous enum at system/core/libutils/include/utils/TypeHelpers.h:98:1)",
   "referenced_type" : "_ZTIN7android18trait_trivial_dtorIbE6$valueE",
   "self_type" : "_ZTIN7android18trait_trivial_dtorIbE6$valueE",
   "size" : 4,
   "source_file" : "system/core/libutils/include/utils/TypeHelpers.h",
   "underlying_type" : "_ZTIj"
  },
  {
   "alignment" : 4,
   "enum_fields" :
   [
    {
     "enum_field_value" : 1,
     "name" : "android::trait_trivial_dtor<char>::value"
    }
   ],
   "linker_set_key" : "_ZTIN7android18trait_trivial_dtorIcE6$valueE",
   "name" : "android::trait_trivial_dtor<char>::(anonymous enum at system/core/libutils/include/utils/TypeHelpers.h:99:1)",
   "referenced_type" : "_ZTIN7android18trait_trivial_dtorIcE6$valueE",
   "self_type" : "_ZTIN7android18trait_trivial_dtorIcE6$valueE",
   "size" : 4,
   "source_file" : "system/core/libutils/include/utils/TypeHelpers.h",
   "underlying_type" : "_ZTIj"
  },
  {
   "alignment" : 4,
   "enum_fields" :
   [
    {
     "enum_field_value" : 1,
     "name" : "android::trait_trivial_dtor<double>::value"
    }
   ],
   "linker_set_key" : "_ZTIN7android18trait_trivial_dtorIdE6$valueE",
   "name" : "android::trait_trivial_dtor<double>::(anonymous enum at system/core/libutils/include/utils/TypeHelpers.h:110:1)",
   "referenced_type" : "_ZTIN7android18trait_trivial_dtorIdE6$valueE",
   "self_type" : "_ZTIN7android18trait_trivial_dtorIdE6$valueE",
   "size" : 4,
   "source_file" : "system/core/libutils/include/utils/TypeHelpers.h",
   "underlying_type" : "_ZTIj"
  },
  {
   "alignment" : 4,
   "enum_fields" :
   [
    {
     "enum_field_value" : 1,
     "name" : "android::trait_trivial_dtor<float>::value"
    }
   ],
   "linker_set_key" : "_ZTIN7android18trait_trivial_dtorIfE6$valueE",
   "name" : "android::trait_trivial_dtor<float>::(anonymous enum at system/core/libutils/include/utils/TypeHelpers.h:109:1)",
   "referenced_type" : "_ZTIN7android18trait_trivial_dtorIfE6$valueE",
   "self_type" : "_ZTIN7android18trait_trivial_dtorIfE6$valueE",
   "size" : 4,
   "source_file" : "system/core/libutils/include/utils/TypeHelpers.h",
   "underlying_type" : "_ZTIj"
  },
  {
   "alignment" : 4,
   "enum_fields" :
   [
    {
     "enum_field_value" : 1,
     "name" : "android::trait_trivial_dtor<unsigned char>::value"
    }
   ],
   "linker_set_key" : "_ZTIN7android18trait_trivial_dtorIhE6$valueE",
   "name" : "android::trait_trivial_dtor<unsigned char>::(anonymous enum at system/core/libutils/include/utils/TypeHelpers.h:100:1)",
   "referenced_type" : "_ZTIN7android18trait_trivial_dtorIhE6$valueE",
   "self_type" : "_ZTIN7android18trait_trivial_dtorIhE6$valueE",
   "size" : 4,
   "source_file" : "system/core/libutils/include/utils/TypeHelpers.h",
   "underlying_type" : "_ZTIj"
  },
  {
   "alignment" : 4,
   "enum_fields" :
   [
    {
     "enum_field_value" : 1,
     "name" : "android::trait_trivial_dtor<int>::value"
    }
   ],
   "linker_set_key" : "_ZTIN7android18trait_trivial_dtorIiE6$valueE",
   "name" : "android::trait_trivial_dtor<int>::(anonymous enum at system/core/libutils/include/utils/TypeHelpers.h:103:1)",
   "referenced_type" : "_ZTIN7android18trait_trivial_dtorIiE6$valueE",
   "self_type" : "_ZTIN7android18trait_trivial_dtorIiE6$valueE",
   "size" : 4,
   "source_file" : "system/core/libutils/include/utils/TypeHelpers.h",
   "underlying_type" : "_ZTIj"
  },
  {
   "alignment" : 4,
   "enum_fields" :
   [
    {
     "enum_field_value" : 1,
     "name" : "android::trait_trivial_dtor<unsigned int>::value"
    }
   ],
   "linker_set_key" : "_ZTIN7android18trait_trivial_dtorIjE6$valueE",
   "name" : "android::trait_trivial_dtor<unsigned int>::(anonymous enum at system/core/libutils/include/utils/TypeHelpers.h:104:1)",
   "referenced_type" : "_ZTIN7android18trait_trivial_dtorIjE6$valueE",
   "self_type" : "_ZTIN7android18trait_trivial_dtorIjE6$valueE",
   "size" : 4,
   "source_file" : "system/core/libutils/include/utils/TypeHelpers.h",
   "underlying_type" : "_ZTIj"
  },
  {
   "alignment" : 4,
   "enum_fields" :
   [
    {
     "enum_field_value" : 1,
     "name" : "android::trait_trivial_dtor<long>::value"
    }
   ],
   "linker_set_key" : "_ZTIN7android18trait_trivial_dtorIlE6$valueE",
   "name" : "android::trait_trivial_dtor<long>::(anonymous enum at system/core/libutils/include/utils/TypeHelpers.h:105:1)",
   "referenced_type" : "_ZTIN7android18trait_trivial_dtorIlE6$valueE",
   "self_type" : "_ZTIN7android18trait_trivial_dtorIlE6$valueE",
   "size" : 4,
   "source_file" : "system/core/libutils/include/utils/TypeHelpers.h",
   "underlying_type" : "_ZTIj"
  },
  {
   "alignment" : 4,
   "enum_fields" :
   [
    {
     "enum_field_value" : 1,
     "name" : "android::trait_trivial_dtor<unsigned long>::value"
    }
   ],
   "linker_set_key" : "_ZTIN7android18trait_trivial_dtorImE6$valueE",
   "name" : "android::trait_trivial_dtor<unsigned long>::(anonymous enum at system/core/libutils/include/utils/TypeHelpers.h:106:1)",
   "referenced_type" : "_ZTIN7android18trait_trivial_dtorImE6$valueE",
   "self_type" : "_ZTIN7android18trait_trivial_dtorImE6$valueE",
   "size" : 4,
   "source_file" : "system/core/libutils/include/utils/TypeHelpers.h",
   "underlying_type" : "_ZTIj"
  },
  {
   "alignment" : 4,
   "enum_fields" :
   [
    {
     "enum_field_value" : 1,
     "name" : "android::trait_trivial_dtor<short>::value"
    }
   ],
   "linker_set_key" : "_ZTIN7android18trait_trivial_dtorIsE6$valueE",
   "name" : "android::trait_trivial_dtor<short>::(anonymous enum at system/core/libutils/include/utils/TypeHelpers.h:101:1)",
   "referenced_type" : "_ZTIN7android18trait_trivial_dtorIsE6$valueE",
   "self_type" : "_ZTIN7android18trait_trivial_dtorIsE6$valueE",
   "size" : 4,
   "source_file" : "system/core/libutils/include/utils/TypeHelpers.h",
   "underlying_type" : "_ZTIj"
  },
  {
   "alignment" : 4,
   "enum_fields" :
   [
    {
     "enum_field_value" : 1,
     "name" : "android::trait_trivial_dtor<unsigned short>::value"
    }
   ],
   "linker_set_key" : "_ZTIN7android18trait_trivial_dtorItE6$valueE",
   "name" : "android::trait_trivial_dtor<unsigned short>::(anonymous enum at system/core/libutils/include/utils/TypeHelpers.h:102:1)",
   "referenced_type" : "_ZTIN7android18trait_trivial_dtorItE6$valueE",
   "self_type" : "_ZTIN7android18trait_trivial_dtorItE6$valueE",
   "size" : 4,
   "source_file" : "system/core/libutils/include/utils/TypeHelpers.h",
   "underlying_type" : "_ZTIj"
  },
  {
   "alignment" : 4,
   "enum_fields" :
   [
    {
     "enum_field_value" : 1,
     "name" : "android::trait_trivial_dtor<void>::value"
    }
   ],
   "linker_set_key" : "_ZTIN7android18trait_trivial_dtorIvE6$valueE",
   "name" : "android::trait_trivial_dtor<void>::(anonymous enum at system/core/libutils/include/utils/TypeHelpers.h:97:1)",
   "referenced_type" : "_ZTIN7android18trait_trivial_dtorIvE6$valueE",
   "self_type" : "_ZTIN7android18trait_trivial_dtorIvE6$valueE",
   "size" : 4,
   "source_file" : "system/core/libutils/include/utils/TypeHelpers.h",
   "underlying_type" : "_ZTIj"
  },
  {
   "alignment" : 4,
   "enum_fields" :
   [
    {
     "enum_field_value" : 1,
     "name" : "android::trait_trivial_dtor<long long>::value"
    }
   ],
   "linker_set_key" : "_ZTIN7android18trait_trivial_dtorIxE6$valueE",
   "name" : "android::trait_trivial_dtor<long long>::(anonymous enum at system/core/libutils/include/utils/TypeHelpers.h:107:1)",
   "referenced_type" : "_ZTIN7android18trait_trivial_dtorIxE6$valueE",
   "self_type" : "_ZTIN7android18trait_trivial_dtorIxE6$valueE",
   "size" : 4,
   "source_file" : "system/core/libutils/include/utils/TypeHelpers.h",
   "underlying_type" : "_ZTIj"
  },
  {
   "alignment" : 4,
   "enum_fields" :
   [
    {
     "enum_field_value" : 1,
     "name" : "android::trait_trivial_dtor<unsigned long long>::value"
    }
   ],
   "linker_set_key" : "_ZTIN7android18trait_trivial_dtorIyE6$valueE",
   "name" : "android::trait_trivial_dtor<unsigned long long>::(anonymous enum at system/core/libutils/include/utils/TypeHelpers.h:108:1)",
   "referenced_type" : "_ZTIN7android18trait_trivial_dtorIyE6$valueE",
   "self_type" : "_ZTIN7android18trait_trivial_dtorIyE6$valueE",
   "size" : 4,
   "source_file" : "system/core/libutils/include/utils/TypeHelpers.h",
   "underlying_type" : "_ZTIj"
  },
  {
   "alignment" : 4,
   "enum_fields" :
   [
    {
     "enum_field_value" : 0,
     "name" : "android::trait_trivial_move<android::MetaDataBase::typed_data>::value"
    }
   ],
   "linker_set_key" : "_ZTIN7android18trait_trivial_moveINS_12MetaDataBase10typed_dataEE6$valueE",
   "name" : "android::trait_trivial_move<typed_data>::(anonymous enum at system/core/libutils/include/utils/TypeHelpers.h:38:51)",
   "referenced_type" : "_ZTIN7android18trait_trivial_moveINS_12MetaDataBase10typed_dataEE6$valueE",
   "self_type" : "_ZTIN7android18trait_trivial_moveINS_12MetaDataBase10typed_dataEE6$valueE",
   "size" : 4,
   "source_file" : "system/core/libutils/include/utils/TypeHelpers.h",
   "underlying_type" : "_ZTIj"
  },
  {
   "alignment" : 4,
   "enum_fields" :
   [
    {
     "enum_field_value" : 0,
     "name" : "android::trait_trivial_move<android::key_value_pair_t<unsigned int, android::MetaDataBase::typed_data>>::value"
    }
   ],
   "linker_set_key" : "_ZTIN7android18trait_trivial_moveINS_16key_value_pair_tIjNS_12MetaDataBase10typed_dataEEEE6$valueE",
   "name" : "android::trait_trivial_move<key_value_pair_t<unsigned int, typed_data>>::(anonymous enum at system/core/libutils/include/utils/TypeHelpers.h:290:3)",
   "referenced_type" : "_ZTIN7android18trait_trivial_moveINS_16key_value_pair_tIjNS_12MetaDataBase10typed_dataEEEE6$valueE",
   "self_type" : "_ZTIN7android18trait_trivial_moveINS_16key_value_pair_tIjNS_12MetaDataBase10typed_dataEEEE6$valueE",
   "size" : 4,
   "source_file" : "system/core/libutils/include/utils/TypeHelpers.h",
   "underlying_type" : "_ZTIj"
  },
  {
   "alignment" : 4,
   "enum_fields" :
   [
    {
     "enum_field_value" : 1,
     "name" : "android::trait_trivial_move<android::String8>::value"
    }
   ],
   "linker_set_key" : "_ZTIN7android18trait_trivial_moveINS_7String8EE6$valueE",
   "name" : "android::trait_trivial_move<String8>::(anonymous enum at system/core/libutils/include/utils/String8.h:231:1)",
   "referenced_type" : "_ZTIN7android18trait_trivial_moveINS_7String8EE6$valueE",
   "self_type" : "_ZTIN7android18trait_trivial_moveINS_7String8EE6$valueE",
   "size" : 4,
   "source_file" : "system/core/libutils/include/utils/String8.h",
   "underlying_type" : "_ZTIj"
  },
  {
   "alignment" : 4,
   "enum_fields" :
   [
    {
     "enum_field_value" : 1,
     "name" : "android::trait_trivial_move<bool>::value"
    }
   ],
   "linker_set_key" : "_ZTIN7android18trait_trivial_moveIbE6$valueE",
   "name" : "android::trait_trivial_move<bool>::(anonymous enum at system/core/libutils/include/utils/TypeHelpers.h:98:1)",
   "referenced_type" : "_ZTIN7android18trait_trivial_moveIbE6$valueE",
   "self_type" : "_ZTIN7android18trait_trivial_moveIbE6$valueE",
   "size" : 4,
   "source_file" : "system/core/libutils/include/utils/TypeHelpers.h",
   "underlying_type" : "_ZTIj"
  },
  {
   "alignment" : 4,
   "enum_fields" :
   [
    {
     "enum_field_value" : 1,
     "name" : "android::trait_trivial_move<char>::value"
    }
   ],
   "linker_set_key" : "_ZTIN7android18trait_trivial_moveIcE6$valueE",
   "name" : "android::trait_trivial_move<char>::(anonymous enum at system/core/libutils/include/utils/TypeHelpers.h:99:1)",
   "referenced_type" : "_ZTIN7android18trait_trivial_moveIcE6$valueE",
   "self_type" : "_ZTIN7android18trait_trivial_moveIcE6$valueE",
   "size" : 4,
   "source_file" : "system/core/libutils/include/utils/TypeHelpers.h",
   "underlying_type" : "_ZTIj"
  },
  {
   "alignment" : 4,
   "enum_fields" :
   [
    {
     "enum_field_value" : 1,
     "name" : "android::trait_trivial_move<double>::value"
    }
   ],
   "linker_set_key" : "_ZTIN7android18trait_trivial_moveIdE6$valueE",
   "name" : "android::trait_trivial_move<double>::(anonymous enum at system/core/libutils/include/utils/TypeHelpers.h:110:1)",
   "referenced_type" : "_ZTIN7android18trait_trivial_moveIdE6$valueE",
   "self_type" : "_ZTIN7android18trait_trivial_moveIdE6$valueE",
   "size" : 4,
   "source_file" : "system/core/libutils/include/utils/TypeHelpers.h",
   "underlying_type" : "_ZTIj"
  },
  {
   "alignment" : 4,
   "enum_fields" :
   [
    {
     "enum_field_value" : 1,
     "name" : "android::trait_trivial_move<float>::value"
    }
   ],
   "linker_set_key" : "_ZTIN7android18trait_trivial_moveIfE6$valueE",
   "name" : "android::trait_trivial_move<float>::(anonymous enum at system/core/libutils/include/utils/TypeHelpers.h:109:1)",
   "referenced_type" : "_ZTIN7android18trait_trivial_moveIfE6$valueE",
   "self_type" : "_ZTIN7android18trait_trivial_moveIfE6$valueE",
   "size" : 4,
   "source_file" : "system/core/libutils/include/utils/TypeHelpers.h",
   "underlying_type" : "_ZTIj"
  },
  {
   "alignment" : 4,
   "enum_fields" :
   [
    {
     "enum_field_value" : 1,
     "name" : "android::trait_trivial_move<unsigned char>::value"
    }
   ],
   "linker_set_key" : "_ZTIN7android18trait_trivial_moveIhE6$valueE",
   "name" : "android::trait_trivial_move<unsigned char>::(anonymous enum at system/core/libutils/include/utils/TypeHelpers.h:100:1)",
   "referenced_type" : "_ZTIN7android18trait_trivial_moveIhE6$valueE",
   "self_type" : "_ZTIN7android18trait_trivial_moveIhE6$valueE",
   "size" : 4,
   "source_file" : "system/core/libutils/include/utils/TypeHelpers.h",
   "underlying_type" : "_ZTIj"
  },
  {
   "alignment" : 4,
   "enum_fields" :
   [
    {
     "enum_field_value" : 1,
     "name" : "android::trait_trivial_move<int>::value"
    }
   ],
   "linker_set_key" : "_ZTIN7android18trait_trivial_moveIiE6$valueE",
   "name" : "android::trait_trivial_move<int>::(anonymous enum at system/core/libutils/include/utils/TypeHelpers.h:103:1)",
   "referenced_type" : "_ZTIN7android18trait_trivial_moveIiE6$valueE",
   "self_type" : "_ZTIN7android18trait_trivial_moveIiE6$valueE",
   "size" : 4,
   "source_file" : "system/core/libutils/include/utils/TypeHelpers.h",
   "underlying_type" : "_ZTIj"
  },
  {
   "alignment" : 4,
   "enum_fields" :
   [
    {
     "enum_field_value" : 1,
     "name" : "android::trait_trivial_move<unsigned int>::value"
    }
   ],
   "linker_set_key" : "_ZTIN7android18trait_trivial_moveIjE6$valueE",
   "name" : "android::trait_trivial_move<unsigned int>::(anonymous enum at system/core/libutils/include/utils/TypeHelpers.h:104:1)",
   "referenced_type" : "_ZTIN7android18trait_trivial_moveIjE6$valueE",
   "self_type" : "_ZTIN7android18trait_trivial_moveIjE6$valueE",
   "size" : 4,
   "source_file" : "system/core/libutils/include/utils/TypeHelpers.h",
   "underlying_type" : "_ZTIj"
  },
  {
   "alignment" : 4,
   "enum_fields" :
   [
    {
     "enum_field_value" : 1,
     "name" : "android::trait_trivial_move<long>::value"
    }
   ],
   "linker_set_key" : "_ZTIN7android18trait_trivial_moveIlE6$valueE",
   "name" : "android::trait_trivial_move<long>::(anonymous enum at system/core/libutils/include/utils/TypeHelpers.h:105:1)",
   "referenced_type" : "_ZTIN7android18trait_trivial_moveIlE6$valueE",
   "self_type" : "_ZTIN7android18trait_trivial_moveIlE6$valueE",
   "size" : 4,
   "source_file" : "system/core/libutils/include/utils/TypeHelpers.h",
   "underlying_type" : "_ZTIj"
  },
  {
   "alignment" : 4,
   "enum_fields" :
   [
    {
     "enum_field_value" : 1,
     "name" : "android::trait_trivial_move<unsigned long>::value"
    }
   ],
   "linker_set_key" : "_ZTIN7android18trait_trivial_moveImE6$valueE",
   "name" : "android::trait_trivial_move<unsigned long>::(anonymous enum at system/core/libutils/include/utils/TypeHelpers.h:106:1)",
   "referenced_type" : "_ZTIN7android18trait_trivial_moveImE6$valueE",
   "self_type" : "_ZTIN7android18trait_trivial_moveImE6$valueE",
   "size" : 4,
   "source_file" : "system/core/libutils/include/utils/TypeHelpers.h",
   "underlying_type" : "_ZTIj"
  },
  {
   "alignment" : 4,
   "enum_fields" :
   [
    {
     "enum_field_value" : 1,
     "name" : "android::trait_trivial_move<short>::value"
    }
   ],
   "linker_set_key" : "_ZTIN7android18trait_trivial_moveIsE6$valueE",
   "name" : "android::trait_trivial_move<short>::(anonymous enum at system/core/libutils/include/utils/TypeHelpers.h:101:1)",
   "referenced_type" : "_ZTIN7android18trait_trivial_moveIsE6$valueE",
   "self_type" : "_ZTIN7android18trait_trivial_moveIsE6$valueE",
   "size" : 4,
   "source_file" : "system/core/libutils/include/utils/TypeHelpers.h",
   "underlying_type" : "_ZTIj"
  },
  {
   "alignment" : 4,
   "enum_fields" :
   [
    {
     "enum_field_value" : 1,
     "name" : "android::trait_trivial_move<unsigned short>::value"
    }
   ],
   "linker_set_key" : "_ZTIN7android18trait_trivial_moveItE6$valueE",
   "name" : "android::trait_trivial_move<unsigned short>::(anonymous enum at system/core/libutils/include/utils/TypeHelpers.h:102:1)",
   "referenced_type" : "_ZTIN7android18trait_trivial_moveItE6$valueE",
   "self_type" : "_ZTIN7android18trait_trivial_moveItE6$valueE",
   "size" : 4,
   "source_file" : "system/core/libutils/include/utils/TypeHelpers.h",
   "underlying_type" : "_ZTIj"
  },
  {
   "alignment" : 4,
   "enum_fields" :
   [
    {
     "enum_field_value" : 1,
     "name" : "android::trait_trivial_move<void>::value"
    }
   ],
   "linker_set_key" : "_ZTIN7android18trait_trivial_moveIvE6$valueE",
   "name" : "android::trait_trivial_move<void>::(anonymous enum at system/core/libutils/include/utils/TypeHelpers.h:97:1)",
   "referenced_type" : "_ZTIN7android18trait_trivial_moveIvE6$valueE",
   "self_type" : "_ZTIN7android18trait_trivial_moveIvE6$valueE",
   "size" : 4,
   "source_file" : "system/core/libutils/include/utils/TypeHelpers.h",
   "underlying_type" : "_ZTIj"
  },
  {
   "alignment" : 4,
   "enum_fields" :
   [
    {
     "enum_field_value" : 1,
     "name" : "android::trait_trivial_move<long long>::value"
    }
   ],
   "linker_set_key" : "_ZTIN7android18trait_trivial_moveIxE6$valueE",
   "name" : "android::trait_trivial_move<long long>::(anonymous enum at system/core/libutils/include/utils/TypeHelpers.h:107:1)",
   "referenced_type" : "_ZTIN7android18trait_trivial_moveIxE6$valueE",
   "self_type" : "_ZTIN7android18trait_trivial_moveIxE6$valueE",
   "size" : 4,
   "source_file" : "system/core/libutils/include/utils/TypeHelpers.h",
   "underlying_type" : "_ZTIj"
  },
  {
   "alignment" : 4,
   "enum_fields" :
   [
    {
     "enum_field_value" : 1,
     "name" : "android::trait_trivial_move<unsigned long long>::value"
    }
   ],
   "linker_set_key" : "_ZTIN7android18trait_trivial_moveIyE6$valueE",
   "name" : "android::trait_trivial_move<unsigned long long>::(anonymous enum at system/core/libutils/include/utils/TypeHelpers.h:108:1)",
   "referenced_type" : "_ZTIN7android18trait_trivial_moveIyE6$valueE",
   "self_type" : "_ZTIN7android18trait_trivial_moveIyE6$valueE",
   "size" : 4,
   "source_file" : "system/core/libutils/include/utils/TypeHelpers.h",
   "underlying_type" : "_ZTIj"
  },
  {
   "alignment" : 4,
   "enum_fields" :
   [
    {
     "enum_field_value" : 1835625829,
     "name" : "android::kKeyMIMEType"
    },
    {
     "enum_field_value" : 2003395700,
     "name" : "android::kKeyWidth"
    },
    {
     "enum_field_value" : 1751476583,
     "name" : "android::kKeyHeight"
    },
    {
     "enum_field_value" : 1683450212,
     "name" : "android::kKeyDisplayWidth"
    },
    {
     "enum_field_value" : 1682466676,
     "name" : "android::kKeyDisplayHeight"
    },
    {
     "enum_field_value" : 1935766103,
     "name" : "android::kKeySARWidth"
    },
    {
     "enum_field_value" : 1935766088,
     "name" : "android::kKeySARHeight"
    },
    {
     "enum_field_value" : 1952997975,
     "name" : "android::kKeyThumbnailWidth"
    },
    {
     "enum_field_value" : 1952997960,
     "name" : "android::kKeyThumbnailHeight"
    },
    {
     "enum_field_value" : 1668444016,
     "name" : "android::kKeyCropRect"
    },
    {
     "enum_field_value" : 1919906881,
     "name" : "android::kKeyRotation"
    },
    {
     "enum_field_value" : 1768319350,
     "name" : "android::kKeyIFramesInterval"
    },
    {
     "enum_field_value" : 1937011300,
     "name" : "android::kKeyStride"
    },
    {
     "enum_field_value" : 1936484468,
     "name" : "android::kKeySliceHeight"
    },
    {
     "enum_field_value" : 593717358,
     "name" : "android::kKeyChannelCount"
    },
    {
     "enum_field_value" : 1667788397,
     "name" : "android::kKeyChannelMask"
    },
    {
     "enum_field_value" : 1936880741,
     "name" : "android::kKeySampleRate"
    },
    {
     "enum_field_value" : 1346588005,
     "name" : "android::kKeyPcmEncoding"
    },
    {
     "enum_field_value" : 1718775122,
     "name" : "android::kKeyFrameRate"
    },
    {
     "enum_field_value" : 1651668069,
     "name" : "android::kKeyBitRate"
    },
    {
     "enum_field_value" : 1836597874,
     "name" : "android::kKeyMaxBitRate"
    },
    {
     "enum_field_value" : 1651078259,
     "name" : "android::kKeyBitsPerSample"
    },
    {
     "enum_field_value" : 1937000548,
     "name" : "android::kKeyStreamHeader"
    },
    {
     "enum_field_value" : 1702061171,
     "name" : "android::kKeyESDS"
    },
    {
     "enum_field_value" : 1633772400,
     "name" : "android::kKeyAACProfile"
    },
    {
     "enum_field_value" : 1635148643,
     "name" : "android::kKeyAVCC"
    },
    {
     "enum_field_value" : 1752589155,
     "name" : "android::kKeyHVCC"
    },
    {
     "enum_field_value" : 1685480291,
     "name" : "android::kKeyDVCC"
    },
    {
     "enum_field_value" : 1635135843,
     "name" : "android::kKeyAV1C"
    },
    {
     "enum_field_value" : 1953003107,
     "name" : "android::kKeyThumbnailHVCC"
    },
    {
     "enum_field_value" : 1952544305,
     "name" : "android::kKeyThumbnailAV1C"
    },
    {
     "enum_field_value" : 1681012275,
     "name" : "android::kKeyD263"
    },
    {
     "enum_field_value" : 1869112434,
     "name" : "android::kKeyOpusHeader"
    },
    {
     "enum_field_value" : 1868787556,
     "name" : "android::kKeyOpusCodecDelay"
    },
    {
     "enum_field_value" : 1869836402,
     "name" : "android::kKeyOpusSeekPreRoll"
    },
    {
     "enum_field_value" : 1987066224,
     "name" : "android::kKeyVp9CodecPrivate"
    },
    {
     "enum_field_value" : 1937337955,
     "name" : "android::kKeyIsSyncFrame"
    },
    {
     "enum_field_value" : 1668247142,
     "name" : "android::kKeyIsCodecConfig"
    },
    {
     "enum_field_value" : 1836415076,
     "name" : "android::kKeyIsMuxerData"
    },
    {
     "enum_field_value" : 1717923699,
     "name" : "android::kKeyIsEndOfStream"
    },
    {
     "enum_field_value" : 1953066341,
     "name" : "android::kKeyTime"
    },
    {
     "enum_field_value" : 1684366164,
     "name" : "android::kKeyDecodingTime"
    },
    {
     "enum_field_value" : 1853124692,
     "name" : "android::kKeyNTPTime"
    },
    {
     "enum_field_value" : 1952543316,
     "name" : "android::kKeyTargetTime"
    },
    {
     "enum_field_value" : 1684436052,
     "name" : "android::kKeyDriftTime"
    },
    {
     "enum_field_value" : 1634624340,
     "name" : "android::kKeyAnchorTime"
    },
    {
     "enum_field_value" : 1685418593,
     "name" : "android::kKeyDuration"
    },
    {
     "enum_field_value" : 1885960294,
     "name" : "android::kKeyPixelFormat"
    },
    {
     "enum_field_value" : 1668246630,
     "name" : "android::kKeyColorFormat"
    },
    {
     "enum_field_value" : 1668246643,
     "name" : "android::kKeyColorSpace"
    },
    {
     "enum_field_value" : 1886546294,
     "name" : "android::kKeyPlatformPrivate"
    },
    {
     "enum_field_value" : 1684366147,
     "name" : "android::kKeyDecoderComponent"
    },
    {
     "enum_field_value" : 1650870596,
     "name" : "android::kKeyBufferID"
    },
    {
     "enum_field_value" : 1768845395,
     "name" : "android::kKeyMaxInputSize"
    },
    {
     "enum_field_value" : 1835104343,
     "name" : "android::kKeyMaxWidth"
    },
    {
     "enum_field_value" : 1835104328,
     "name" : "android::kKeyMaxHeight"
    },
    {
     "enum_field_value" : 1952997972,
     "name" : "android::kKeyThumbnailTime"
    },
    {
     "enum_field_value" : 1953646916,
     "name" : "android::kKeyTrackID"
    },
    {
     "enum_field_value" : 1701733220,
     "name" : "android::kKeyEncoderDelay"
    },
    {
     "enum_field_value" : 1701733232,
     "name" : "android::kKeyEncoderPadding"
    },
    {
     "enum_field_value" : 1634493045,
     "name" : "android::kKeyAlbum"
    },
    {
     "enum_field_value" : 1634890857,
     "name" : "android::kKeyArtist"
    },
    {
     "enum_field_value" : 1633776244,
     "name" : "android::kKeyAlbumArtist"
    },
    {
     "enum_field_value" : 1668246896,
     "name" : "android::kKeyComposer"
    },
    {
     "enum_field_value" : 1734700658,
     "name" : "android::kKeyGenre"
    },
    {
     "enum_field_value" : 1953068140,
     "name" : "android::kKeyTitle"
    },
    {
     "enum_field_value" : 2036687218,
     "name" : "android::kKeyYear"
    },
    {
     "enum_field_value" : 1634492993,
     "name" : "android::kKeyAlbumArt"
    },
    {
     "enum_field_value" : 1635087464,
     "name" : "android::kKeyAuthor"
    },
    {
     "enum_field_value" : 1667527794,
     "name" : "android::kKeyCDTrackNumber"
    },
    {
     "enum_field_value" : 1684960621,
     "name" : "android::kKeyDiscNumber"
    },
    {
     "enum_field_value" : 1684108389,
     "name" : "android::kKeyDate"
    },
    {
     "enum_field_value" : 2003986804,
     "name" : "android::kKeyWriter"
    },
    {
     "enum_field_value" : 1668311404,
     "name" : "android::kKeyCompilation"
    },
    {
     "enum_field_value" : 1819239200,
     "name" : "android::kKeyLocation"
    },
    {
     "enum_field_value" : 1953330028,
     "name" : "android::kKeyTimeScale"
    },
    {
     "enum_field_value" : 1667330118,
     "name" : "android::kKeyCaptureFramerate"
    },
    {
     "enum_field_value" : 1987080806,
     "name" : "android::kKeyVideoProfile"
    },
    {
     "enum_field_value" : 1986815350,
     "name" : "android::kKeyVideoLevel"
    },
    {
     "enum_field_value" : 843989324,
     "name" : "android::kKey2ByteNalLength"
    },
    {
     "enum_field_value" : 1718909296,
     "name" : "android::kKeyFileType"
    },
    {
     "enum_field_value" : 1953199213,
     "name" : "android::kKeyTrackTimeStatus"
    },
    {
     "enum_field_value" : 1920234083,
     "name" : "android::kKeyRealTimeRecording"
    },
    {
     "enum_field_value" : 1651207524,
     "name" : "android::kKeyBackgroundMode"
    },
    {
     "enum_field_value" : 1851941478,
     "name" : "android::kKeyNumBuffers"
    },
    {
     "enum_field_value" : 1635087436,
     "name" : "android::kKeyAutoLoop"
    },
    {
     "enum_field_value" : 1986096196,
     "name" : "android::kKeyValidSamples"
    },
    {
     "enum_field_value" : 1970172517,
     "name" : "android::kKeyIsUnreadable"
    },
    {
     "enum_field_value" : 1919250020,
     "name" : "android::kKeyRendered"
    },
    {
     "enum_field_value" : 1818324583,
     "name" : "android::kKeyMediaLanguage"
    },
    {
     "enum_field_value" : 1835101813,
     "name" : "android::kKeyManufacturer"
    },
    {
     "enum_field_value" : 1952807028,
     "name" : "android::kKeyTextFormatData"
    },
    {
     "enum_field_value" : 1936024437,
     "name" : "android::kKeyRequiresSecureBuffers"
    },
    {
     "enum_field_value" : 1633973363,
     "name" : "android::kKeyIsADTS"
    },
    {
     "enum_field_value" : 1633775476,
     "name" : "android::kKeyAACAOT"
    },
    {
     "enum_field_value" : 1752198249,
     "name" : "android::kKeyMpeghProfileLevelIndication"
    },
    {
     "enum_field_value" : 1752327020,
     "name" : "android::kKeyMpeghReferenceChannelLayout"
    },
    {
     "enum_field_value" : 1751347059,
     "name" : "android::kKeyMpeghCompatibleSets"
    },
    {
     "enum_field_value" : 1701733234,
     "name" : "android::kKeyEncryptedSizes"
    },
    {
     "enum_field_value" : 1886151017,
     "name" : "android::kKeyPlainSizes"
    },
    {
     "enum_field_value" : 1668446539,
     "name" : "android::kKeyCryptoKey"
    },
    {
     "enum_field_value" : 1668446537,
     "name" : "android::kKeyCryptoIV"
    },
    {
     "enum_field_value" : 1668446541,
     "name" : "android::kKeyCryptoMode"
    },
    {
     "enum_field_value" : 1668446547,
     "name" : "android::kKeyCryptoDefaultIVSize"
    },
    {
     "enum_field_value" : 1886614376,
     "name" : "android::kKeyPssh"
    },
    {
     "enum_field_value" : 1667328356,
     "name" : "android::kKeyCASystemID"
    },
    {
     "enum_field_value" : 1936025956,
     "name" : "android::kKeyCASessionID"
    },
    {
     "enum_field_value" : 1667327075,
     "name" : "android::kKeyCAPrivateData"
    },
    {
     "enum_field_value" : 1667394667,
     "name" : "android::kKeyEncryptedByteBlock"
    },
    {
     "enum_field_value" : 1935830123,
     "name" : "android::kKeySkipByteBlock"
    },
    {
     "enum_field_value" : 1635087471,
     "name" : "android::kKeyTrackIsAutoselect"
    },
    {
     "enum_field_value" : 1684434036,
     "name" : "android::kKeyTrackIsDefault"
    },
    {
     "enum_field_value" : 1718772580,
     "name" : "android::kKeyTrackIsForced"
    },
    {
     "enum_field_value" : 1936025888,
     "name" : "android::kKeySEI"
    },
    {
     "enum_field_value" : 1836086628,
     "name" : "android::kKeyMpegUserData"
    },
    {
     "enum_field_value" : 1751413331,
     "name" : "android::kKeyHdrStaticInfo"
    },
    {
     "enum_field_value" : 1751413316,
     "name" : "android::kKeyHdr10PlusInfo"
    },
    {
     "enum_field_value" : 1666346599,
     "name" : "android::kKeyColorRange"
    },
    {
     "enum_field_value" : 1666216557,
     "name" : "android::kKeyColorPrimaries"
    },
    {
     "enum_field_value" : 1950774638,
     "name" : "android::kKeyTransferFunction"
    },
    {
     "enum_field_value" : 1666020472,
     "name" : "android::kKeyColorMatrix"
    },
    {
     "enum_field_value" : 1766619506,
     "name" : "android::kKeyTemporalLayerId"
    },
    {
     "enum_field_value" : 1665956210,
     "name" : "android::kKeyTemporalLayerCount"
    },
    {
     "enum_field_value" : 1953066071,
     "name" : "android::kKeyTileWidth"
    },
    {
     "enum_field_value" : 1953066056,
     "name" : "android::kKeyTileHeight"
    },
    {
     "enum_field_value" : 1735550034,
     "name" : "android::kKeyGridRows"
    },
    {
     "enum_field_value" : 1735550019,
     "name" : "android::kKeyGridCols"
    },
    {
     "enum_field_value" : 1886547814,
     "name" : "android::kKeyIccProfile"
    },
    {
     "enum_field_value" : 1886546285,
     "name" : "android::kKeyIsPrimaryImage"
    },
    {
     "enum_field_value" : 1852207725,
     "name" : "android::kKeyFrameCount"
    },
    {
     "enum_field_value" : 1702391654,
     "name" : "android::kKeyExifOffset"
    },
    {
     "enum_field_value" : 1702392698,
     "name" : "android::kKeyExifSize"
    },
    {
     "enum_field_value" : 1952998514,
     "name" : "android::kKeyExifTiffOffset"
    },
    {
     "enum_field_value" : 2020437862,
     "name" : "android::kKeyXmpOffset"
    },
    {
     "enum_field_value" : 2020438906,
     "name" : "android::kKeyXmpSize"
    },
    {
     "enum_field_value" : 1885564258,
     "name" : "android::kKeyPcmBigEndian"
    },
    {
     "enum_field_value" : 1634495843,
     "name" : "android::kKeyAlacMagicCookie"
    },
    {
     "enum_field_value" : 1635083344,
     "name" : "android::kKeyAudioPresentationInfo"
    },
    {
     "enum_field_value" : 1668506672,
     "name" : "android::kKeyOpaqueCSD0"
    },
    {
     "enum_field_value" : 1668506673,
     "name" : "android::kKeyOpaqueCSD1"
    },
    {
     "enum_field_value" : 1668506674,
     "name" : "android::kKeyOpaqueCSD2"
    },
    {
     "enum_field_value" : 1751216195,
     "name" : "android::kKeyHapticChannelCount"
    },
    {
     "enum_field_value" : 878864740,
     "name" : "android::kKey4BitTrackIds"
    },
    {
     "enum_field_value" : 1852140916,
     "name" : "android::kKeyEmptyTrackMalFormed"
    },
    {
     "enum_field_value" : 1935044723,
     "name" : "android::kKeyVps"
    },
    {
     "enum_field_value" : 1934848115,
     "name" : "android::kKeySps"
    },
    {
     "enum_field_value" : 1934651507,
     "name" : "android::kKeyPps"
    },
    {
     "enum_field_value" : 1936091492,
     "name" : "android::kKeySelfID"
    },
    {
     "enum_field_value" : 1884584304,
     "name" : "android::kKeyPayloadType"
    },
    {
     "enum_field_value" : 1702392941,
     "name" : "android::kKeyRtpExtMap"
    },
    {
     "enum_field_value" : 1668706148,
     "name" : "android::kKeyRtpCvoDegrees"
    },
    {
     "enum_field_value" : 1685283696,
     "name" : "android::kKeyRtpDscp"
    },
    {
     "enum_field_value" : 1934517620,
     "name" : "android::kKeySocketNetwork"
    },
    {
     "enum_field_value" : 1936485743,
     "name" : "android::kKeySlowMotionMarkers"
    },
    {
     "enum_field_value" : 1936093030,
     "name" : "android::kKeySampleFileOffset"
    },
    {
     "enum_field_value" : 1819502947,
     "name" : "android::kKeyLastSampleIndexInChunk"
    },
    {
     "enum_field_value" : 1819501153,
     "name" : "android::kKeySampleTimeBeforeAppend"
    }
   ],
   "linker_set_key" : "_ZTIN7android19$kKey2ByteNalLengthE",
   "name" : "android::(anonymous enum at frameworks/av/media/libstagefright/include/media/stagefright/MetaDataBase.h:31:1)",
   "referenced_type" : "_ZTIN7android19$kKey2ByteNalLengthE",
   "self_type" : "_ZTIN7android19$kKey2ByteNalLengthE",
   "size" : 4,
   "source_file" : "frameworks/av/media/libstagefright/include/media/stagefright/MetaDataBase.h",
   "underlying_type" : "_ZTIj"
  },
  {
   "alignment" : 4,
   "enum_fields" :
   [
    {
     "enum_field_value" : 0,
     "name" : "android::ADebug::kDebugNone"
    },
    {
     "enum_field_value" : 1,
     "name" : "android::ADebug::kDebugLifeCycle"
    },
    {
     "enum_field_value" : 2,
     "name" : "android::ADebug::kDebugState"
    },
    {
     "enum_field_value" : 3,
     "name" : "android::ADebug::kDebugConfig"
    },
    {
     "enum_field_value" : 4,
     "name" : "android::ADebug::kDebugInternalState"
    },
    {
     "enum_field_value" : 5,
     "name" : "android::ADebug::kDebugAll"
    },
    {
     "enum_field_value" : 5,
     "name" : "android::ADebug::kDebugMax"
    }
   ],
   "linker_set_key" : "_ZTIN7android6ADebug5LevelE",
   "name" : "android::ADebug::Level",
   "referenced_type" : "_ZTIN7android6ADebug5LevelE",
   "self_type" : "_ZTIN7android6ADebug5LevelE",
   "size" : 4,
   "source_file" : "frameworks/av/media/libstagefright/foundation/include/media/stagefright/foundation/ADebug.h",
   "underlying_type" : "_ZTIj"
  },
  {
   "alignment" : 4,
   "enum_fields" :
   [
    {
     "enum_field_value" : 0,
     "name" : "android::traits<android::MetaDataBase::typed_data>::is_pointer"
    },
    {
     "enum_field_value" : 0,
     "name" : "android::traits<android::MetaDataBase::typed_data>::has_trivial_ctor"
    },
    {
     "enum_field_value" : 0,
     "name" : "android::traits<android::MetaDataBase::typed_data>::has_trivial_dtor"
    },
    {
     "enum_field_value" : 0,
     "name" : "android::traits<android::MetaDataBase::typed_data>::has_trivial_copy"
    },
    {
     "enum_field_value" : 0,
     "name" : "android::traits<android::MetaDataBase::typed_data>::has_trivial_move"
    }
   ],
   "linker_set_key" : "_ZTIN7android6traitsINS_12MetaDataBase10typed_dataEE17$has_trivial_copyE",
   "name" : "android::traits<typed_data>::(anonymous enum at system/core/libutils/include/utils/TypeHelpers.h:44:5)",
   "referenced_type" : "_ZTIN7android6traitsINS_12MetaDataBase10typed_dataEE17$has_trivial_copyE",
   "self_type" : "_ZTIN7android6traitsINS_12MetaDataBase10typed_dataEE17$has_trivial_copyE",
   "size" : 4,
   "source_file" : "system/core/libutils/include/utils/TypeHelpers.h",
   "underlying_type" : "_ZTIj"
  },
  {
   "alignment" : 4,
   "enum_fields" :
   [
    {
     "enum_field_value" : 0,
     "name" : "android::traits<android::key_value_pair_t<unsigned int, android::MetaDataBase::typed_data>>::is_pointer"
    },
    {
     "enum_field_value" : 0,
     "name" : "android::traits<android::key_value_pair_t<unsigned int, android::MetaDataBase::typed_data>>::has_trivial_ctor"
    },
    {
     "enum_field_value" : 0,
     "name" : "android::traits<android::key_value_pair_t<unsigned int, android::MetaDataBase::typed_data>>::has_trivial_dtor"
    },
    {
     "enum_field_value" : 0,
     "name" : "android::traits<android::key_value_pair_t<unsigned int, android::MetaDataBase::typed_data>>::has_trivial_copy"
    },
    {
     "enum_field_value" : 0,
     "name" : "android::traits<android::key_value_pair_t<unsigned int, android::MetaDataBase::typed_data>>::has_trivial_move"
    }
   ],
   "linker_set_key" : "_ZTIN7android6traitsINS_16key_value_pair_tIjNS_12MetaDataBase10typed_dataEEEE17$has_trivial_copyE",
   "name" : "android::traits<key_value_pair_t<unsigned int, typed_data>>::(anonymous enum at system/core/libutils/include/utils/TypeHelpers.h:44:5)",
   "referenced_type" : "_ZTIN7android6traitsINS_16key_value_pair_tIjNS_12MetaDataBase10typed_dataEEEE17$has_trivial_copyE",
   "self_type" : "_ZTIN7android6traitsINS_16key_value_pair_tIjNS_12MetaDataBase10typed_dataEEEE17$has_trivial_copyE",
   "size" : 4,
   "source_file" : "system/core/libutils/include/utils/TypeHelpers.h",
   "underlying_type" : "_ZTIj"
  },
  {
   "alignment" : 4,
   "enum_fields" :
   [
    {
     "enum_field_value" : 0,
     "name" : "android::traits<unsigned int>::is_pointer"
    },
    {
     "enum_field_value" : 1,
     "name" : "android::traits<unsigned int>::has_trivial_ctor"
    },
    {
     "enum_field_value" : 1,
     "name" : "android::traits<unsigned int>::has_trivial_dtor"
    },
    {
     "enum_field_value" : 1,
     "name" : "android::traits<unsigned int>::has_trivial_copy"
    },
    {
     "enum_field_value" : 1,
     "name" : "android::traits<unsigned int>::has_trivial_move"
    }
   ],
   "linker_set_key" : "_ZTIN7android6traitsIjE17$has_trivial_copyE",
   "name" : "android::traits<unsigned int>::(anonymous enum at system/core/libutils/include/utils/TypeHelpers.h:44:5)",
   "referenced_type" : "_ZTIN7android6traitsIjE17$has_trivial_copyE",
   "self_type" : "_ZTIN7android6traitsIjE17$has_trivial_copyE",
   "size" : 4,
   "source_file" : "system/core/libutils/include/utils/TypeHelpers.h",
   "underlying_type" : "_ZTIj"
  },
  {
   "access" : "protected",
   "alignment" : 4,
   "enum_fields" :
   [
    {
     "enum_field_value" : 1,
     "name" : "android::RefBase::FIRST_INC_STRONG"
    }
   ],
   "linker_set_key" : "_ZTIN7android7RefBase17$FIRST_INC_STRONGE",
   "name" : "android::RefBase::(anonymous enum at system/core/libutils/include/utils/RefBase.h:358:5)",
   "referenced_type" : "_ZTIN7android7RefBase17$FIRST_INC_STRONGE",
   "self_type" : "_ZTIN7android7RefBase17$FIRST_INC_STRONGE",
   "size" : 4,
   "source_file" : "system/core/libutils/include/utils/RefBase.h",
   "underlying_type" : "_ZTIj"
  },
  {
   "access" : "protected",
   "alignment" : 4,
   "enum_fields" :
   [
    {
     "enum_field_value" : 0,
     "name" : "android::RefBase::OBJECT_LIFETIME_STRONG"
    },
    {
     "enum_field_value" : 1,
     "name" : "android::RefBase::OBJECT_LIFETIME_WEAK"
    },
    {
     "enum_field_value" : 1,
     "name" : "android::RefBase::OBJECT_LIFETIME_MASK"
    }
   ],
   "linker_set_key" : "_ZTIN7android7RefBase21$OBJECT_LIFETIME_MASKE",
   "name" : "android::RefBase::(anonymous enum at system/core/libutils/include/utils/RefBase.h:349:5)",
   "referenced_type" : "_ZTIN7android7RefBase21$OBJECT_LIFETIME_MASKE",
   "self_type" : "_ZTIN7android7RefBase21$OBJECT_LIFETIME_MASKE",
   "size" : 4,
   "source_file" : "system/core/libutils/include/utils/RefBase.h",
   "underlying_type" : "_ZTIj"
  }
 ],
 "function_types" : [],
 "functions" :
 [
  {
   "function_name" : "android::splat_type",
   "linker_set_key" : "_ZN7android10splat_typeINS_16key_value_pair_tIjNS_12MetaDataBase10typed_dataEEEEEvPT_PKS5_j",
   "parameters" :
   [
    {
     "referenced_type" : "_ZTIPN7android16key_value_pair_tIjNS_12MetaDataBase10typed_dataEEE"
    },
    {
     "referenced_type" : "_ZTIPKN7android16key_value_pair_tIjNS_12MetaDataBase10typed_dataEEE"
    },
    {
     "referenced_type" : "_ZTIj"
    }
   ],
   "return_type" : "_ZTIv",
   "source_file" : "system/core/libutils/include/utils/TypeHelpers.h",
   "template_args" : [ "_ZTIN7android16key_value_pair_tIjNS_12MetaDataBase10typed_dataEEE" ]
  },
  {
   "function_name" : "android::KeyedVector<unsigned int, android::MetaDataBase::typed_data>::editValueAt",
   "linker_set_key" : "_ZN7android11KeyedVectorIjNS_12MetaDataBase10typed_dataEE11editValueAtEj",
   "parameters" :
   [
    {
     "is_this_ptr" : true,
     "referenced_type" : "_ZTIPN7android11KeyedVectorIjNS_12MetaDataBase10typed_dataEEE"
    },
    {
     "referenced_type" : "_ZTIj"
    }
   ],
   "return_type" : "_ZTIRN7android12MetaDataBase10typed_dataE",
   "source_file" : "system/core/libutils/include/utils/KeyedVector.h"
  },
  {
   "function_name" : "android::KeyedVector<unsigned int, android::MetaDataBase::typed_data>::removeItemsAt",
   "linker_set_key" : "_ZN7android11KeyedVectorIjNS_12MetaDataBase10typed_dataEE13removeItemsAtEjj",
   "parameters" :
   [
    {
     "is_this_ptr" : true,
     "referenced_type" : "_ZTIPN7android11KeyedVectorIjNS_12MetaDataBase10typed_dataEEE"
    },
    {
     "referenced_type" : "_ZTIj"
    },
    {
     "default_arg" : true,
     "referenced_type" : "_ZTIj"
    }
   ],
   "return_type" : "_ZTIi",
   "source_file" : "system/core/libutils/include/utils/KeyedVector.h"
  },
  {
   "function_name" : "android::KeyedVector<unsigned int, android::MetaDataBase::typed_data>::add",
   "linker_set_key" : "_ZN7android11KeyedVectorIjNS_12MetaDataBase10typed_dataEE3addERKjRKS2_",
   "parameters" :
   [
    {
     "is_this_ptr" : true,
     "referenced_type" : "_ZTIPN7android11KeyedVectorIjNS_12MetaDataBase10typed_dataEEE"
    },
    {
     "referenced_type" : "_ZTIRKj"
    },
    {
     "referenced_type" : "_ZTIRKN7android12MetaDataBase10typed_dataE"
    }
   ],
   "return_type" : "_ZTIi",
   "source_file" : "system/core/libutils/include/utils/KeyedVector.h"
  },
  {
   "function_name" : "android::KeyedVector<unsigned int, android::MetaDataBase::typed_data>::clear",
   "linker_set_key" : "_ZN7android11KeyedVectorIjNS_12MetaDataBase10typed_dataEE5clearEv",
   "parameters" :
   [
    {
     "is_this_ptr" : true,
     "referenced_type" : "_ZTIPN7android11KeyedVectorIjNS_12MetaDataBase10typed_dataEEE"
    }
   ],
   "return_type" : "_ZTIv",
   "source_file" : "system/core/libutils/include/utils/KeyedVector.h"
  },
  {
   "function_name" : "android::KeyedVector<unsigned int, android::MetaDataBase::typed_data>::KeyedVector",
   "linker_set_key" : "_ZN7android11KeyedVectorIjNS_12MetaDataBase10typed_dataEEC1Ev",
   "parameters" :
   [
    {
     "is_this_ptr" : true,
     "referenced_type" : "_ZTIPN7android11KeyedVectorIjNS_12MetaDataBase10typed_dataEEE"
    }
   ],
   "return_type" : "_ZTIv",
   "source_file" : "system/core/libutils/include/utils/KeyedVector.h"
  },
  {
   "function_name" : "android::KeyedVector<unsigned int, android::MetaDataBase::typed_data>::KeyedVector",
   "linker_set_key" : "_ZN7android11KeyedVectorIjNS_12MetaDataBase10typed_dataEEC2Ev",
   "parameters" :
   [
    {
     "is_this_ptr" : true,
     "referenced_type" : "_ZTIPN7android11KeyedVectorIjNS_12MetaDataBase10typed_dataEEE"
    }
   ],
   "return_type" : "_ZTIv",
   "source_file" : "system/core/libutils/include/utils/KeyedVector.h"
  },
  {
   "function_name" : "android::MetaDataBase::setCString",
   "linker_set_key" : "_ZN7android12MetaDataBase10setCStringEjPKc",
   "parameters" :
   [
    {
     "is_this_ptr" : true,
     "referenced_type" : "_ZTIPN7android12MetaDataBaseE"
    },
    {
     "referenced_type" : "_ZTIj"
    },
    {
     "referenced_type" : "_ZTIPKc"
    }
   ],
   "return_type" : "_ZTIb",
   "source_file" : "frameworks/av/media/libstagefright/include/media/stagefright/MetaDataBase.h"
  },
  {
   "function_name" : "android::MetaDataBase::setPointer",
   "linker_set_key" : "_ZN7android12MetaDataBase10setPointerEjPv",
   "parameters" :
   [
    {
     "is_this_ptr" : true,
     "referenced_type" : "_ZTIPN7android12MetaDataBaseE"
    },
    {
     "referenced_type" : "_ZTIj"
    },
    {
     "referenced_type" : "_ZTIPv"
    }
   ],
   "return_type" : "_ZTIb",
   "source_file" : "frameworks/av/media/libstagefright/include/media/stagefright/MetaDataBase.h"
  },
  {
   "function_name" : "android::MetaDataBase::clear",
   "linker_set_key" : "_ZN7android12MetaDataBase5clearEv",
   "parameters" :
   [
    {
     "is_this_ptr" : true,
     "referenced_type" : "_ZTIPN7android12MetaDataBaseE"
    }
   ],
   "return_type" : "_ZTIv",
   "source_file" : "frameworks/av/media/libstagefright/include/media/stagefright/MetaDataBase.h"
  },
  {
   "function_name" : "android::MetaDataBase::remove",
   "linker_set_key" : "_ZN7android12MetaDataBase6removeEj",
   "parameters" :
   [
    {
     "is_this_ptr" : true,
     "referenced_type" : "_ZTIPN7android12MetaDataBaseE"
    },
    {
     "referenced_type" : "_ZTIj"
    }
   ],
   "return_type" : "_ZTIb",
   "source_file" : "frameworks/av/media/libstagefright/include/media/stagefright/MetaDataBase.h"
  },
  {
   "function_name" : "android::MetaDataBase::setData",
   "linker_set_key" : "_ZN7android12MetaDataBase7setDataEjjPKvj",
   "parameters" :
   [
    {
     "is_this_ptr" : true,
     "referenced_type" : "_ZTIPN7android12MetaDataBaseE"
    },
    {
     "referenced_type" : "_ZTIj"
    },
    {
     "referenced_type" : "_ZTIj"
    },
    {
     "referenced_type" : "_ZTIPKv"
    },
    {
     "referenced_type" : "_ZTIj"
    }
   ],
   "return_type" : "_ZTIb",
   "source_file" : "frameworks/av/media/libstagefright/include/media/stagefright/MetaDataBase.h"
  },
  {
   "function_name" : "android::MetaDataBase::setRect",
   "linker_set_key" : "_ZN7android12MetaDataBase7setRectEjiiii",
   "parameters" :
   [
    {
     "is_this_ptr" : true,
     "referenced_type" : "_ZTIPN7android12MetaDataBaseE"
    },
    {
     "referenced_type" : "_ZTIj"
    },
    {
     "referenced_type" : "_ZTIi"
    },
    {
     "referenced_type" : "_ZTIi"
    },
    {
     "referenced_type" : "_ZTIi"
    },
    {
     "referenced_type" : "_ZTIi"
    }
   ],
   "return_type" : "_ZTIb",
   "source_file" : "frameworks/av/media/libstagefright/include/media/stagefright/MetaDataBase.h"
  },
  {
   "function_name" : "android::MetaDataBase::setFloat",
   "linker_set_key" : "_ZN7android12MetaDataBase8setFloatEjf",
   "parameters" :
   [
    {
     "is_this_ptr" : true,
     "referenced_type" : "_ZTIPN7android12MetaDataBaseE"
    },
    {
     "referenced_type" : "_ZTIj"
    },
    {
     "referenced_type" : "_ZTIf"
    }
   ],
   "return_type" : "_ZTIb",
   "source_file" : "frameworks/av/media/libstagefright/include/media/stagefright/MetaDataBase.h"
  },
  {
   "function_name" : "android::MetaDataBase::setInt32",
   "linker_set_key" : "_ZN7android12MetaDataBase8setInt32Eji",
   "parameters" :
   [
    {
     "is_this_ptr" : true,
     "referenced_type" : "_ZTIPN7android12MetaDataBaseE"
    },
    {
     "referenced_type" : "_ZTIj"
    },
    {
     "referenced_type" : "_ZTIi"
    }
   ],
   "return_type" : "_ZTIb",
   "source_file" : "frameworks/av/media/libstagefright/include/media/stagefright/MetaDataBase.h"
  },
  {
   "function_name" : "android::MetaDataBase::setInt64",
   "linker_set_key" : "_ZN7android12MetaDataBase8setInt64Ejx",
   "parameters" :
   [
    {
     "is_this_ptr" : true,
     "referenced_type" : "_ZTIPN7android12MetaDataBaseE"
    },
    {
     "referenced_type" : "_ZTIj"
    },
    {
     "referenced_type" : "_ZTIx"
    }
   ],
   "return_type" : "_ZTIb",
   "source_file" : "frameworks/av/media/libstagefright/include/media/stagefright/MetaDataBase.h"
  },
  {
   "function_name" : "android::MetaDataBase::MetaDataBase",
   "linker_set_key" : "_ZN7android12MetaDataBaseC1ERKS0_",
   "parameters" :
   [
    {
     "is_this_ptr" : true,
     "referenced_type" : "_ZTIPN7android12MetaDataBaseE"
    },
    {
     "referenced_type" : "_ZTIRKN7android12MetaDataBaseE"
    }
   ],
   "return_type" : "_ZTIv",
   "source_file" : "frameworks/av/media/libstagefright/include/media/stagefright/MetaDataBase.h"
  },
  {
   "function_name" : "android::MetaDataBase::MetaDataBase",
   "linker_set_key" : "_ZN7android12MetaDataBaseC1Ev",
   "parameters" :
   [
    {
     "is_this_ptr" : true,
     "referenced_type" : "_ZTIPN7android12MetaDataBaseE"
    }
   ],
   "return_type" : "_ZTIv",
   "source_file" : "frameworks/av/media/libstagefright/include/media/stagefright/MetaDataBase.h"
  },
  {
   "function_name" : "android::MetaDataBase::MetaDataBase",
   "linker_set_key" : "_ZN7android12MetaDataBaseC2ERKS0_",
   "parameters" :
   [
    {
     "is_this_ptr" : true,
     "referenced_type" : "_ZTIPN7android12MetaDataBaseE"
    },
    {
     "referenced_type" : "_ZTIRKN7android12MetaDataBaseE"
    }
   ],
   "return_type" : "_ZTIv",
   "source_file" : "frameworks/av/media/libstagefright/include/media/stagefright/MetaDataBase.h"
  },
  {
   "function_name" : "android::MetaDataBase::MetaDataBase",
   "linker_set_key" : "_ZN7android12MetaDataBaseC2Ev",
   "parameters" :
   [
    {
     "is_this_ptr" : true,
     "referenced_type" : "_ZTIPN7android12MetaDataBaseE"
    }
   ],
   "return_type" : "_ZTIv",
   "source_file" : "frameworks/av/media/libstagefright/include/media/stagefright/MetaDataBase.h"
  },
  {
   "function_name" : "android::MetaDataBase::~MetaDataBase",
   "linker_set_key" : "_ZN7android12MetaDataBaseD0Ev",
   "parameters" :
   [
    {
     "is_this_ptr" : true,
     "referenced_type" : "_ZTIPN7android12MetaDataBaseE"
    }
   ],
   "return_type" : "_ZTIv",
   "source_file" : "frameworks/av/media/libstagefright/include/media/stagefright/MetaDataBase.h"
  },
  {
   "function_name" : "android::MetaDataBase::~MetaDataBase",
   "linker_set_key" : "_ZN7android12MetaDataBaseD1Ev",
   "parameters" :
   [
    {
     "is_this_ptr" : true,
     "referenced_type" : "_ZTIPN7android12MetaDataBaseE"
    }
   ],
   "return_type" : "_ZTIv",
   "source_file" : "frameworks/av/media/libstagefright/include/media/stagefright/MetaDataBase.h"
  },
  {
   "function_name" : "android::MetaDataBase::~MetaDataBase",
   "linker_set_key" : "_ZN7android12MetaDataBaseD2Ev",
   "parameters" :
   [
    {
     "is_this_ptr" : true,
     "referenced_type" : "_ZTIPN7android12MetaDataBaseE"
    }
   ],
   "return_type" : "_ZTIv",
   "source_file" : "frameworks/av/media/libstagefright/include/media/stagefright/MetaDataBase.h"
  },
  {
   "function_name" : "android::MetaDataBase::operator=",
   "linker_set_key" : "_ZN7android12MetaDataBaseaSERKS0_",
   "parameters" :
   [
    {
     "is_this_ptr" : true,
     "referenced_type" : "_ZTIPN7android12MetaDataBaseE"
    },
    {
     "referenced_type" : "_ZTIRKN7android12MetaDataBaseE"
    }
   ],
   "return_type" : "_ZTIRN7android12MetaDataBaseE",
   "source_file" : "frameworks/av/media/libstagefright/include/media/stagefright/MetaDataBase.h"
  },
  {
   "function_name" : "android::SortedVector<android::key_value_pair_t<unsigned int, android::MetaDataBase::typed_data>>::editItemAt",
   "linker_set_key" : "_ZN7android12SortedVectorINS_16key_value_pair_tIjNS_12MetaDataBase10typed_dataEEEE10editItemAtEj",
   "parameters" :
   [
    {
     "is_this_ptr" : true,
     "referenced_type" : "_ZTIPN7android12SortedVectorINS_16key_value_pair_tIjNS_12MetaDataBase10typed_dataEEEEE"
    },
    {
     "referenced_type" : "_ZTIj"
    }
   ],
   "return_type" : "_ZTIRN7android16key_value_pair_tIjNS_12MetaDataBase10typed_dataEEE",
   "source_file" : "system/core/libutils/include/utils/SortedVector.h"
  },
  {
   "function_name" : "android::SortedVector<android::key_value_pair_t<unsigned int, android::MetaDataBase::typed_data>>::removeItemsAt",
   "linker_set_key" : "_ZN7android12SortedVectorINS_16key_value_pair_tIjNS_12MetaDataBase10typed_dataEEEE13removeItemsAtEjj",
   "parameters" :
   [
    {
     "is_this_ptr" : true,
     "referenced_type" : "_ZTIPN7android12SortedVectorINS_16key_value_pair_tIjNS_12MetaDataBase10typed_dataEEEEE"
    },
    {
     "referenced_type" : "_ZTIj"
    },
    {
     "default_arg" : true,
     "referenced_type" : "_ZTIj"
    }
   ],
   "return_type" : "_ZTIi",
   "source_file" : "system/core/libutils/include/utils/SortedVector.h"
  },
  {
   "function_name" : "android::SortedVector<android::key_value_pair_t<unsigned int, android::MetaDataBase::typed_data>>::add",
   "linker_set_key" : "_ZN7android12SortedVectorINS_16key_value_pair_tIjNS_12MetaDataBase10typed_dataEEEE3addERKS4_",
   "parameters" :
   [
    {
     "is_this_ptr" : true,
     "referenced_type" : "_ZTIPN7android12SortedVectorINS_16key_value_pair_tIjNS_12MetaDataBase10typed_dataEEEEE"
    },
    {
     "referenced_type" : "_ZTIRKN7android16key_value_pair_tIjNS_12MetaDataBase10typed_dataEEE"
    }
   ],
   "return_type" : "_ZTIi",
   "source_file" : "system/core/libutils/include/utils/SortedVector.h"
  },
  {
   "function_name" : "android::SortedVector<android::key_value_pair_t<unsigned int, android::MetaDataBase::typed_data>>::clear",
   "linker_set_key" : "_ZN7android12SortedVectorINS_16key_value_pair_tIjNS_12MetaDataBase10typed_dataEEEE5clearEv",
   "parameters" :
   [
    {
     "is_this_ptr" : true,
     "referenced_type" : "_ZTIPN7android12SortedVectorINS_16key_value_pair_tIjNS_12MetaDataBase10typed_dataEEEEE"
    }
   ],
   "return_type" : "_ZTIv",
   "source_file" : "system/core/libutils/include/utils/SortedVector.h"
  },
  {
   "function_name" : "android::SortedVector<android::key_value_pair_t<unsigned int, android::MetaDataBase::typed_data>>::SortedVector",
   "linker_set_key" : "_ZN7android12SortedVectorINS_16key_value_pair_tIjNS_12MetaDataBase10typed_dataEEEEC1Ev",
   "parameters" :
   [
    {
     "is_this_ptr" : true,
     "referenced_type" : "_ZTIPN7android12SortedVectorINS_16key_value_pair_tIjNS_12MetaDataBase10typed_dataEEEEE"
    }
   ],
   "return_type" : "_ZTIv",
   "source_file" : "system/core/libutils/include/utils/SortedVector.h"
  },
  {
   "function_name" : "android::SortedVector<android::key_value_pair_t<unsigned int, android::MetaDataBase::typed_data>>::SortedVector",
   "linker_set_key" : "_ZN7android12SortedVectorINS_16key_value_pair_tIjNS_12MetaDataBase10typed_dataEEEEC2Ev",
   "parameters" :
   [
    {
     "is_this_ptr" : true,
     "referenced_type" : "_ZTIPN7android12SortedVectorINS_16key_value_pair_tIjNS_12MetaDataBase10typed_dataEEEEE"
    }
   ],
   "return_type" : "_ZTIv",
   "source_file" : "system/core/libutils/include/utils/SortedVector.h"
  },
  {
   "function_name" : "android::SortedVector<android::key_value_pair_t<unsigned int, android::MetaDataBase::typed_data>>::~SortedVector",
   "linker_set_key" : "_ZN7android12SortedVectorINS_16key_value_pair_tIjNS_12MetaDataBase10typed_dataEEEED0Ev",
   "parameters" :
   [
    {
     "is_this_ptr" : true,
     "referenced_type" : "_ZTIPN7android12SortedVectorINS_16key_value_pair_tIjNS_12MetaDataBase10typed_dataEEEEE"
    }
   ],
   "return_type" : "_ZTIv",
   "source_file" : "system/core/libutils/include/utils/SortedVector.h"
  },
  {
   "function_name" : "android::SortedVector<android::key_value_pair_t<unsigned int, android::MetaDataBase::typed_data>>::~SortedVector",
   "linker_set_key" : "_ZN7android12SortedVectorINS_16key_value_pair_tIjNS_12MetaDataBase10typed_dataEEEED1Ev",
   "parameters" :
   [
    {
     "is_this_ptr" : true,
     "referenced_type" : "_ZTIPN7android12SortedVectorINS_16key_value_pair_tIjNS_12MetaDataBase10typed_dataEEEEE"
    }
   ],
   "return_type" : "_ZTIv",
   "source_file" : "system/core/libutils/include/utils/SortedVector.h"
  },
  {
   "function_name" : "android::SortedVector<android::key_value_pair_t<unsigned int, android::MetaDataBase::typed_data>>::~SortedVector",
   "linker_set_key" : "_ZN7android12SortedVectorINS_16key_value_pair_tIjNS_12MetaDataBase10typed_dataEEEED2Ev",
   "parameters" :
   [
    {
     "is_this_ptr" : true,
     "referenced_type" : "_ZTIPN7android12SortedVectorINS_16key_value_pair_tIjNS_12MetaDataBase10typed_dataEEEEE"
    }
   ],
   "return_type" : "_ZTIv",
   "source_file" : "system/core/libutils/include/utils/SortedVector.h"
  },
  {
   "function_name" : "android::SortedVector<android::key_value_pair_t<unsigned int, android::MetaDataBase::typed_data>>::operator=",
   "linker_set_key" : "_ZN7android12SortedVectorINS_16key_value_pair_tIjNS_12MetaDataBase10typed_dataEEEEaSERKS5_",
   "parameters" :
   [
    {
     "is_this_ptr" : true,
     "referenced_type" : "_ZTIPN7android12SortedVectorINS_16key_value_pair_tIjNS_12MetaDataBase10typed_dataEEEEE"
    },
    {
     "referenced_type" : "_ZTIRKN7android12SortedVectorINS_16key_value_pair_tIjNS_12MetaDataBase10typed_dataEEEEE"
    }
   ],
   "return_type" : "_ZTIRN7android12SortedVectorINS_16key_value_pair_tIjNS_12MetaDataBase10typed_dataEEEEE",
   "source_file" : "system/core/libutils/include/utils/SortedVector.h"
  },
  {
   "function_name" : "android::compare_type",
   "linker_set_key" : "_ZN7android12compare_typeERKNS_7String8ES2_",
   "parameters" :
   [
    {
     "referenced_type" : "_ZTIRKN7android7String8E"
    },
    {
     "referenced_type" : "_ZTIRKN7android7String8E"
    }
   ],
   "return_type" : "_ZTIi",
   "source_file" : "system/core/libutils/include/utils/String8.h"
  },
  {
   "function_name" : "android::compare_type",
   "linker_set_key" : "_ZN7android12compare_typeINS_16key_value_pair_tIjNS_12MetaDataBase10typed_dataEEEEEiRKT_S7_",
   "parameters" :
   [
    {
     "referenced_type" : "_ZTIRKN7android16key_value_pair_tIjNS_12MetaDataBase10typed_dataEEE"
    },
    {
     "referenced_type" : "_ZTIRKN7android16key_value_pair_tIjNS_12MetaDataBase10typed_dataEEE"
    }
   ],
   "return_type" : "_ZTIi",
   "source_file" : "system/core/libutils/include/utils/TypeHelpers.h",
   "template_args" : [ "_ZTIN7android16key_value_pair_tIjNS_12MetaDataBase10typed_dataEEE" ]
  },
  {
   "function_name" : "android::destroy_type",
   "linker_set_key" : "_ZN7android12destroy_typeINS_16key_value_pair_tIjNS_12MetaDataBase10typed_dataEEEEEvPT_j",
   "parameters" :
   [
    {
     "referenced_type" : "_ZTIPN7android16key_value_pair_tIjNS_12MetaDataBase10typed_dataEEE"
    },
    {
     "referenced_type" : "_ZTIj"
    }
   ],
   "return_type" : "_ZTIv",
   "source_file" : "system/core/libutils/include/utils/TypeHelpers.h",
   "template_args" : [ "_ZTIN7android16key_value_pair_tIjNS_12MetaDataBase10typed_dataEEE" ]
  },
  {
   "function_name" : "android::construct_type",
   "linker_set_key" : "_ZN7android14construct_typeINS_16key_value_pair_tIjNS_12MetaDataBase10typed_dataEEEEEvPT_j",
   "parameters" :
   [
    {
     "referenced_type" : "_ZTIPN7android16key_value_pair_tIjNS_12MetaDataBase10typed_dataEEE"
    },
    {
     "referenced_type" : "_ZTIj"
    }
   ],
   "return_type" : "_ZTIv",
   "source_file" : "system/core/libutils/include/utils/TypeHelpers.h",
   "template_args" : [ "_ZTIN7android16key_value_pair_tIjNS_12MetaDataBase10typed_dataEEE" ]
  },
  {
   "access" : "protected",
   "function_name" : "android::ReferenceRenamer::~ReferenceRenamer",
   "linker_set_key" : "_ZN7android16ReferenceRenamerD1Ev",
   "parameters" :
   [
    {
     "is_this_ptr" : true,
     "referenced_type" : "_ZTIPN7android16ReferenceRenamerE"
    }
   ],
   "return_type" : "_ZTIv",
   "source_file" : "system/core/libutils/include/utils/RefBase.h"
  },
  {
   "access" : "protected",
   "function_name" : "android::ReferenceRenamer::~ReferenceRenamer",
   "linker_set_key" : "_ZN7android16ReferenceRenamerD2Ev",
   "parameters" :
   [
    {
     "is_this_ptr" : true,
     "referenced_type" : "_ZTIPN7android16ReferenceRenamerE"
    }
   ],
   "return_type" : "_ZTIv",
   "source_file" : "system/core/libutils/include/utils/RefBase.h"
  },
  {
   "function_name" : "android::key_value_pair_t<unsigned int, android::MetaDataBase::typed_data>::key_value_pair_t",
   "linker_set_key" : "_ZN7android16key_value_pair_tIjNS_12MetaDataBase10typed_dataEEC1ERKS3_",
   "parameters" :
   [
    {
     "is_this_ptr" : true,
     "referenced_type" : "_ZTIPN7android16key_value_pair_tIjNS_12MetaDataBase10typed_dataEEE"
    },
    {
     "referenced_type" : "_ZTIRKN7android16key_value_pair_tIjNS_12MetaDataBase10typed_dataEEE"
    }
   ],
   "return_type" : "_ZTIv",
   "source_file" : "system/core/libutils/include/utils/TypeHelpers.h"
  },
  {
   "function_name" : "android::key_value_pair_t<unsigned int, android::MetaDataBase::typed_data>::key_value_pair_t",
   "linker_set_key" : "_ZN7android16key_value_pair_tIjNS_12MetaDataBase10typed_dataEEC1ERKj",
   "parameters" :
   [
    {
     "is_this_ptr" : true,
     "referenced_type" : "_ZTIPN7android16key_value_pair_tIjNS_12MetaDataBase10typed_dataEEE"
    },
    {
     "referenced_type" : "_ZTIRKj"
    }
   ],
   "return_type" : "_ZTIv",
   "source_file" : "system/core/libutils/include/utils/TypeHelpers.h"
  },
  {
   "function_name" : "android::key_value_pair_t<unsigned int, android::MetaDataBase::typed_data>::key_value_pair_t",
   "linker_set_key" : "_ZN7android16key_value_pair_tIjNS_12MetaDataBase10typed_dataEEC1ERKjRKS2_",
   "parameters" :
   [
    {
     "is_this_ptr" : true,
     "referenced_type" : "_ZTIPN7android16key_value_pair_tIjNS_12MetaDataBase10typed_dataEEE"
    },
    {
     "referenced_type" : "_ZTIRKj"
    },
    {
     "referenced_type" : "_ZTIRKN7android12MetaDataBase10typed_dataE"
    }
   ],
   "return_type" : "_ZTIv",
   "source_file" : "system/core/libutils/include/utils/TypeHelpers.h"
  },
  {
   "function_name" : "android::key_value_pair_t<unsigned int, android::MetaDataBase::typed_data>::key_value_pair_t",
   "linker_set_key" : "_ZN7android16key_value_pair_tIjNS_12MetaDataBase10typed_dataEEC1Ev",
   "parameters" :
   [
    {
     "is_this_ptr" : true,
     "referenced_type" : "_ZTIPN7android16key_value_pair_tIjNS_12MetaDataBase10typed_dataEEE"
    }
   ],
   "return_type" : "_ZTIv",
   "source_file" : "system/core/libutils/include/utils/TypeHelpers.h"
  },
  {
   "function_name" : "android::key_value_pair_t<unsigned int, android::MetaDataBase::typed_data>::key_value_pair_t",
   "linker_set_key" : "_ZN7android16key_value_pair_tIjNS_12MetaDataBase10typed_dataEEC2ERKS3_",
   "parameters" :
   [
    {
     "is_this_ptr" : true,
     "referenced_type" : "_ZTIPN7android16key_value_pair_tIjNS_12MetaDataBase10typed_dataEEE"
    },
    {
     "referenced_type" : "_ZTIRKN7android16key_value_pair_tIjNS_12MetaDataBase10typed_dataEEE"
    }
   ],
   "return_type" : "_ZTIv",
   "source_file" : "system/core/libutils/include/utils/TypeHelpers.h"
  },
  {
   "function_name" : "android::key_value_pair_t<unsigned int, android::MetaDataBase::typed_data>::key_value_pair_t",
   "linker_set_key" : "_ZN7android16key_value_pair_tIjNS_12MetaDataBase10typed_dataEEC2ERKj",
   "parameters" :
   [
    {
     "is_this_ptr" : true,
     "referenced_type" : "_ZTIPN7android16key_value_pair_tIjNS_12MetaDataBase10typed_dataEEE"
    },
    {
     "referenced_type" : "_ZTIRKj"
    }
   ],
   "return_type" : "_ZTIv",
   "source_file" : "system/core/libutils/include/utils/TypeHelpers.h"
  },
  {
   "function_name" : "android::key_value_pair_t<unsigned int, android::MetaDataBase::typed_data>::key_value_pair_t",
   "linker_set_key" : "_ZN7android16key_value_pair_tIjNS_12MetaDataBase10typed_dataEEC2ERKjRKS2_",
   "parameters" :
   [
    {
     "is_this_ptr" : true,
     "referenced_type" : "_ZTIPN7android16key_value_pair_tIjNS_12MetaDataBase10typed_dataEEE"
    },
    {
     "referenced_type" : "_ZTIRKj"
    },
    {
     "referenced_type" : "_ZTIRKN7android12MetaDataBase10typed_dataE"
    }
   ],
   "return_type" : "_ZTIv",
   "source_file" : "system/core/libutils/include/utils/TypeHelpers.h"
  },
  {
   "function_name" : "android::key_value_pair_t<unsigned int, android::MetaDataBase::typed_data>::key_value_pair_t",
   "linker_set_key" : "_ZN7android16key_value_pair_tIjNS_12MetaDataBase10typed_dataEEC2Ev",
   "parameters" :
   [
    {
     "is_this_ptr" : true,
     "referenced_type" : "_ZTIPN7android16key_value_pair_tIjNS_12MetaDataBase10typed_dataEEE"
    }
   ],
   "return_type" : "_ZTIv",
   "source_file" : "system/core/libutils/include/utils/TypeHelpers.h"
  },
  {
   "function_name" : "android::key_value_pair_t<unsigned int, android::MetaDataBase::typed_data>::operator=",
   "linker_set_key" : "_ZN7android16key_value_pair_tIjNS_12MetaDataBase10typed_dataEEaSERKS3_",
   "parameters" :
   [
    {
     "is_this_ptr" : true,
     "referenced_type" : "_ZTIPN7android16key_value_pair_tIjNS_12MetaDataBase10typed_dataEEE"
    },
    {
     "referenced_type" : "_ZTIRKN7android16key_value_pair_tIjNS_12MetaDataBase10typed_dataEEE"
    }
   ],
   "return_type" : "_ZTIRN7android16key_value_pair_tIjNS_12MetaDataBase10typed_dataEEE",
   "source_file" : "system/core/libutils/include/utils/TypeHelpers.h"
  },
  {
   "function_name" : "android::move_forward_type",
   "linker_set_key" : "_ZN7android17move_forward_typeINS_16key_value_pair_tIjNS_12MetaDataBase10typed_dataEEEEENSt3__19enable_ifIXntsr16use_trivial_moveIT_EE5valueEvE4typeEPS7_PKS7_j",
   "parameters" :
   [
    {
     "referenced_type" : "_ZTIPN7android16key_value_pair_tIjNS_12MetaDataBase10typed_dataEEE"
    },
    {
     "referenced_type" : "_ZTIPKN7android16key_value_pair_tIjNS_12MetaDataBase10typed_dataEEE"
    },
    {
     "default_arg" : true,
     "referenced_type" : "_ZTIj"
    }
   ],
   "return_type" : "_ZTIv",
   "source_file" : "system/core/libutils/include/utils/TypeHelpers.h",
   "template_args" : [ "_ZTIN7android16key_value_pair_tIjNS_12MetaDataBase10typed_dataEEE" ]
  },
  {
   "function_name" : "android::move_backward_type",
   "linker_set_key" : "_ZN7android18move_backward_typeINS_16key_value_pair_tIjNS_12MetaDataBase10typed_dataEEEEENSt3__19enable_ifIXntsr16use_trivial_moveIT_EE5valueEvE4typeEPS7_PKS7_j",
   "parameters" :
   [
    {
     "referenced_type" : "_ZTIPN7android16key_value_pair_tIjNS_12MetaDataBase10typed_dataEEE"
    },
    {
     "referenced_type" : "_ZTIPKN7android16key_value_pair_tIjNS_12MetaDataBase10typed_dataEEE"
    },
    {
     "default_arg" : true,
     "referenced_type" : "_ZTIj"
    }
   ],
   "return_type" : "_ZTIv",
   "source_file" : "system/core/libutils/include/utils/TypeHelpers.h",
   "template_args" : [ "_ZTIN7android16key_value_pair_tIjNS_12MetaDataBase10typed_dataEEE" ]
  },
  {
   "function_name" : "android::VirtualLightRefBase::~VirtualLightRefBase",
   "linker_set_key" : "_ZN7android19VirtualLightRefBaseD0Ev",
   "parameters" :
   [
    {
     "is_this_ptr" : true,
     "referenced_type" : "_ZTIPN7android19VirtualLightRefBaseE"
    }
   ],
   "return_type" : "_ZTIv",
   "source_file" : "system/core/libutils/include/utils/LightRefBase.h"
  },
  {
   "function_name" : "android::VirtualLightRefBase::~VirtualLightRefBase",
   "linker_set_key" : "_ZN7android19VirtualLightRefBaseD1Ev",
   "parameters" :
   [
    {
     "is_this_ptr" : true,
     "referenced_type" : "_ZTIPN7android19VirtualLightRefBaseE"
    }
   ],
   "return_type" : "_ZTIv",
   "source_file" : "system/core/libutils/include/utils/LightRefBase.h"
  },
  {
   "function_name" : "android::VirtualLightRefBase::~VirtualLightRefBase",
   "linker_set_key" : "_ZN7android19VirtualLightRefBaseD2Ev",
   "parameters" :
   [
    {
     "is_this_ptr" : true,
     "referenced_type" : "_ZTIPN7android19VirtualLightRefBaseE"
    }
   ],
   "return_type" : "_ZTIv",
   "source_file" : "system/core/libutils/include/utils/LightRefBase.h"
  },
  {
   "function_name" : "android::strictly_order_type",
   "linker_set_key" : "_ZN7android19strictly_order_typeERKNS_7String8ES2_",
   "parameters" :
   [
    {
     "referenced_type" : "_ZTIRKN7android7String8E"
    },
    {
     "referenced_type" : "_ZTIRKN7android7String8E"
    }
   ],
   "return_type" : "_ZTIi",
   "source_file" : "system/core/libutils/include/utils/String8.h"
  },
  {
   "function_name" : "android::strictly_order_type",
   "linker_set_key" : "_ZN7android19strictly_order_typeINS_16key_value_pair_tIjNS_12MetaDataBase10typed_dataEEEEEiRKT_S7_",
   "parameters" :
   [
    {
     "referenced_type" : "_ZTIRKN7android16key_value_pair_tIjNS_12MetaDataBase10typed_dataEEE"
    },
    {
     "referenced_type" : "_ZTIRKN7android16key_value_pair_tIjNS_12MetaDataBase10typed_dataEEE"
    }
   ],
   "return_type" : "_ZTIi",
   "source_file" : "system/core/libutils/include/utils/TypeHelpers.h",
   "template_args" : [ "_ZTIN7android16key_value_pair_tIjNS_12MetaDataBase10typed_dataEEE" ]
  },
  {
   "function_name" : "android::strictly_order_type",
   "linker_set_key" : "_ZN7android19strictly_order_typeIjEEiRKT_S3_",
   "parameters" :
   [
    {
     "referenced_type" : "_ZTIRKj"
    },
    {
     "referenced_type" : "_ZTIRKj"
    }
   ],
   "return_type" : "_ZTIi",
   "source_file" : "system/core/libutils/include/utils/TypeHelpers.h",
   "template_args" : [ "_ZTIj" ]
  },
  {
   "function_name" : "android::ADebug::isExperimentEnabled",
   "linker_set_key" : "_ZN7android6ADebug19isExperimentEnabledEPKcb",
   "parameters" :
   [
    {
     "referenced_type" : "_ZTIPKc"
    },
    {
     "default_arg" : true,
     "referenced_type" : "_ZTIb"
    }
   ],
   "return_type" : "_ZTIb",
   "source_file" : "frameworks/av/media/libstagefright/foundation/include/media/stagefright/foundation/ADebug.h"
  },
  {
   "function_name" : "android::AString::append",
   "linker_set_key" : "_ZN7android7AString6appendEc",
   "parameters" :
   [
    {
     "is_this_ptr" : true,
     "referenced_type" : "_ZTIPN7android7AStringE"
    },
    {
     "referenced_type" : "_ZTIc"
    }
   ],
   "return_type" : "_ZTIv",
   "source_file" : "frameworks/av/media/libstagefright/foundation/include/media/stagefright/foundation/AString.h"
  },
  {
   "function_name" : "android::RefBase::trackMe",
   "linker_set_key" : "_ZN7android7RefBase7trackMeEbb",
   "parameters" :
   [
    {
     "is_this_ptr" : true,
     "referenced_type" : "_ZTIPN7android7RefBaseE"
    },
    {
     "referenced_type" : "_ZTIb"
    },
    {
     "referenced_type" : "_ZTIb"
    }
   ],
   "return_type" : "_ZTIv",
   "source_file" : "system/core/libutils/include/utils/RefBase.h"
  },
  {
   "function_name" : "android::String8::appendPath",
   "linker_set_key" : "_ZN7android7String810appendPathERKS0_",
   "parameters" :
   [
    {
     "is_this_ptr" : true,
     "referenced_type" : "_ZTIPN7android7String8E"
    },
    {
     "referenced_type" : "_ZTIRKN7android7String8E"
    }
   ],
   "return_type" : "_ZTIRN7android7String8E",
   "source_file" : "system/core/libutils/include/utils/String8.h"
  },
  {
   "access" : "private",
   "function_name" : "android::String8::std_string",
   "linker_set_key" : "_ZN7android7String810std_stringERKS0_",
   "parameters" :
   [
    {
     "referenced_type" : "_ZTIRKN7android7String8E"
    }
   ],
   "return_type" : "_ZTINSt3__112basic_stringIcNS_11char_traitsIcEENS_9allocatorIcEEEE",
   "source_file" : "system/core/libutils/include/utils/String8.h"
  },
  {
   "function_name" : "android::String8::empty",
   "linker_set_key" : "_ZN7android7String85emptyEv",
   "return_type" : "_ZTIKN7android7String8E",
   "source_file" : "system/core/libutils/include/utils/String8.h"
  },
  {
   "function_name" : "android::String8::operator=",
   "linker_set_key" : "_ZN7android7String8aSEPKc",
   "parameters" :
   [
    {
     "is_this_ptr" : true,
     "referenced_type" : "_ZTIPN7android7String8E"
    },
    {
     "referenced_type" : "_ZTIPKc"
    }
   ],
   "return_type" : "_ZTIRN7android7String8E",
   "source_file" : "system/core/libutils/include/utils/String8.h"
  },
  {
   "function_name" : "android::String8::operator=",
   "linker_set_key" : "_ZN7android7String8aSERKS0_",
   "parameters" :
   [
    {
     "is_this_ptr" : true,
     "referenced_type" : "_ZTIPN7android7String8E"
    },
    {
     "referenced_type" : "_ZTIRKN7android7String8E"
    }
   ],
   "return_type" : "_ZTIRN7android7String8E",
   "source_file" : "system/core/libutils/include/utils/String8.h"
  },
  {
   "function_name" : "android::String8::operator+=",
   "linker_set_key" : "_ZN7android7String8pLEPKc",
   "parameters" :
   [
    {
     "is_this_ptr" : true,
     "referenced_type" : "_ZTIPN7android7String8E"
    },
    {
     "referenced_type" : "_ZTIPKc"
    }
   ],
   "return_type" : "_ZTIRN7android7String8E",
   "source_file" : "system/core/libutils/include/utils/String8.h"
  },
  {
   "function_name" : "android::String8::operator+=",
   "linker_set_key" : "_ZN7android7String8pLERKS0_",
   "parameters" :
   [
    {
     "is_this_ptr" : true,
     "referenced_type" : "_ZTIPN7android7String8E"
    },
    {
     "referenced_type" : "_ZTIRKN7android7String8E"
    }
   ],
   "return_type" : "_ZTIRN7android7String8E",
   "source_file" : "system/core/libutils/include/utils/String8.h"
  },
  {
   "function_name" : "android::copy_type",
   "linker_set_key" : "_ZN7android9copy_typeINS_16key_value_pair_tIjNS_12MetaDataBase10typed_dataEEEEENSt3__19enable_ifIXntsr6traitsIT_EE16has_trivial_copyEvE4typeEPS7_PKS7_j",
   "parameters" :
   [
    {
     "referenced_type" : "_ZTIPN7android16key_value_pair_tIjNS_12MetaDataBase10typed_dataEEE"
    },
    {
     "referenced_type" : "_ZTIPKN7android16key_value_pair_tIjNS_12MetaDataBase10typed_dataEEE"
    },
    {
     "referenced_type" : "_ZTIj"
    }
   ],
   "return_type" : "_ZTIv",
   "source_file" : "system/core/libutils/include/utils/TypeHelpers.h",
   "template_args" : [ "_ZTIN7android16key_value_pair_tIjNS_12MetaDataBase10typed_dataEEE" ]
  },
  {
   "function_name" : "android::hash_type",
   "linker_set_key" : "_ZN7android9hash_typeIaEEjRKT_",
   "parameters" :
   [
    {
     "referenced_type" : "_ZTIRKa"
    }
   ],
   "return_type" : "_ZTIj",
   "source_file" : "system/core/libutils/include/utils/TypeHelpers.h",
   "template_args" : [ "_ZTIa" ]
  },
  {
   "function_name" : "android::hash_type",
   "linker_set_key" : "_ZN7android9hash_typeIbEEjRKT_",
   "parameters" :
   [
    {
     "referenced_type" : "_ZTIRKb"
    }
   ],
   "return_type" : "_ZTIj",
   "source_file" : "system/core/libutils/include/utils/TypeHelpers.h",
   "template_args" : [ "_ZTIb" ]
  },
  {
   "function_name" : "android::hash_type",
   "linker_set_key" : "_ZN7android9hash_typeIdEEjRKT_",
   "parameters" :
   [
    {
     "referenced_type" : "_ZTIRKd"
    }
   ],
   "return_type" : "_ZTIj",
   "source_file" : "system/core/libutils/include/utils/TypeHelpers.h",
   "template_args" : [ "_ZTId" ]
  },
  {
   "function_name" : "android::hash_type",
   "linker_set_key" : "_ZN7android9hash_typeIfEEjRKT_",
   "parameters" :
   [
    {
     "referenced_type" : "_ZTIRKf"
    }
   ],
   "return_type" : "_ZTIj",
   "source_file" : "system/core/libutils/include/utils/TypeHelpers.h",
   "template_args" : [ "_ZTIf" ]
  },
  {
   "function_name" : "android::hash_type",
   "linker_set_key" : "_ZN7android9hash_typeIhEEjRKT_",
   "parameters" :
   [
    {
     "referenced_type" : "_ZTIRKh"
    }
   ],
   "return_type" : "_ZTIj",
   "source_file" : "system/core/libutils/include/utils/TypeHelpers.h",
   "template_args" : [ "_ZTIh" ]
  },
  {
   "function_name" : "android::hash_type",
   "linker_set_key" : "_ZN7android9hash_typeIiEEjRKT_",
   "parameters" :
   [
    {
     "referenced_type" : "_ZTIRKi"
    }
   ],
   "return_type" : "_ZTIj",
   "source_file" : "system/core/libutils/include/utils/TypeHelpers.h",
   "template_args" : [ "_ZTIi" ]
  },
  {
   "function_name" : "android::hash_type",
   "linker_set_key" : "_ZN7android9hash_typeIjEEjRKT_",
   "parameters" :
   [
    {
     "referenced_type" : "_ZTIRKj"
    }
   ],
   "return_type" : "_ZTIj",
   "source_file" : "system/core/libutils/include/utils/TypeHelpers.h",
   "template_args" : [ "_ZTIj" ]
  },
  {
   "function_name" : "android::hash_type",
   "linker_set_key" : "_ZN7android9hash_typeIsEEjRKT_",
   "parameters" :
   [
    {
     "referenced_type" : "_ZTIRKs"
    }
   ],
   "return_type" : "_ZTIj",
   "source_file" : "system/core/libutils/include/utils/TypeHelpers.h",
   "template_args" : [ "_ZTIs" ]
  },
  {
   "function_name" : "android::hash_type",
   "linker_set_key" : "_ZN7android9hash_typeItEEjRKT_",
   "parameters" :
   [
    {
     "referenced_type" : "_ZTIRKt"
    }
   ],
   "return_type" : "_ZTIj",
   "source_file" : "system/core/libutils/include/utils/TypeHelpers.h",
   "template_args" : [ "_ZTIt" ]
  },
  {
   "function_name" : "android::hash_type",
   "linker_set_key" : "_ZN7android9hash_typeIxEEjRKT_",
   "parameters" :
   [
    {
     "referenced_type" : "_ZTIRKx"
    }
   ],
   "return_type" : "_ZTIj",
   "source_file" : "system/core/libutils/include/utils/TypeHelpers.h",
   "template_args" : [ "_ZTIx" ]
  },
  {
   "function_name" : "android::hash_type",
   "linker_set_key" : "_ZN7android9hash_typeIyEEjRKT_",
   "parameters" :
   [
    {
     "referenced_type" : "_ZTIRKy"
    }
   ],
   "return_type" : "_ZTIj",
   "source_file" : "system/core/libutils/include/utils/TypeHelpers.h",
   "template_args" : [ "_ZTIy" ]
  },
  {
   "function_name" : "log_msg::id",
   "linker_set_key" : "_ZN7log_msg2idEv",
   "parameters" :
   [
    {
     "is_this_ptr" : true,
     "referenced_type" : "_ZTIP7log_msg"
    }
   ],
   "return_type" : "_ZTI6log_id",
   "source_file" : "system/logging/liblog/include_vndk/log/log_read.h"
  },
  {
   "function_name" : "log_msg::len",
   "linker_set_key" : "_ZN7log_msg3lenEv",
   "parameters" :
   [
    {
     "is_this_ptr" : true,
     "referenced_type" : "_ZTIP7log_msg"
    }
   ],
   "return_type" : "_ZTIj",
   "source_file" : "system/logging/liblog/include_vndk/log/log_read.h"
  },
  {
   "function_name" : "log_msg::msg",
   "linker_set_key" : "_ZN7log_msg3msgEv",
   "parameters" :
   [
    {
     "is_this_ptr" : true,
     "referenced_type" : "_ZTIP7log_msg"
    }
   ],
   "return_type" : "_ZTIPc",
   "source_file" : "system/logging/liblog/include_vndk/log/log_read.h"
  },
  {
   "function_name" : "android::VectorImpl::size",
   "linker_set_key" : "_ZNK7android10VectorImpl4sizeEv",
   "parameters" :
   [
    {
     "is_this_ptr" : true,
     "referenced_type" : "_ZTIPKN7android10VectorImplE"
    }
   ],
   "return_type" : "_ZTIj",
   "source_file" : "system/core/libutils/include/utils/VectorImpl.h"
  },
  {
   "function_name" : "android::VectorImpl::isEmpty",
   "linker_set_key" : "_ZNK7android10VectorImpl7isEmptyEv",
   "parameters" :
   [
    {
     "is_this_ptr" : true,
     "referenced_type" : "_ZTIPKN7android10VectorImplE"
    }
   ],
   "return_type" : "_ZTIb",
   "source_file" : "system/core/libutils/include/utils/VectorImpl.h"
  },
  {
   "function_name" : "android::VectorImpl::arrayImpl",
   "linker_set_key" : "_ZNK7android10VectorImpl9arrayImplEv",
   "parameters" :
   [
    {
     "is_this_ptr" : true,
     "referenced_type" : "_ZTIPKN7android10VectorImplE"
    }
   ],
   "return_type" : "_ZTIPKv",
   "source_file" : "system/core/libutils/include/utils/VectorImpl.h"
  },
  {
   "function_name" : "android::KeyedVector<unsigned int, android::MetaDataBase::typed_data>::indexOfKey",
   "linker_set_key" : "_ZNK7android11KeyedVectorIjNS_12MetaDataBase10typed_dataEE10indexOfKeyERKj",
   "parameters" :
   [
    {
     "is_this_ptr" : true,
     "referenced_type" : "_ZTIPKN7android11KeyedVectorIjNS_12MetaDataBase10typed_dataEEE"
    },
    {
     "referenced_type" : "_ZTIRKj"
    }
   ],
   "return_type" : "_ZTIi",
   "source_file" : "system/core/libutils/include/utils/KeyedVector.h"
  },
  {
   "function_name" : "android::KeyedVector<unsigned int, android::MetaDataBase::typed_data>::size",
   "linker_set_key" : "_ZNK7android11KeyedVectorIjNS_12MetaDataBase10typed_dataEE4sizeEv",
   "parameters" :
   [
    {
     "is_this_ptr" : true,
     "referenced_type" : "_ZTIPKN7android11KeyedVectorIjNS_12MetaDataBase10typed_dataEEE"
    }
   ],
   "return_type" : "_ZTIj",
   "source_file" : "system/core/libutils/include/utils/KeyedVector.h"
  },
  {
   "function_name" : "android::KeyedVector<unsigned int, android::MetaDataBase::typed_data>::keyAt",
   "linker_set_key" : "_ZNK7android11KeyedVectorIjNS_12MetaDataBase10typed_dataEE5keyAtEj",
   "parameters" :
   [
    {
     "is_this_ptr" : true,
     "referenced_type" : "_ZTIPKN7android11KeyedVectorIjNS_12MetaDataBase10typed_dataEEE"
    },
    {
     "referenced_type" : "_ZTIj"
    }
   ],
   "return_type" : "_ZTIRKj",
   "source_file" : "system/core/libutils/include/utils/KeyedVector.h"
  },
  {
   "function_name" : "android::KeyedVector<unsigned int, android::MetaDataBase::typed_data>::valueAt",
   "linker_set_key" : "_ZNK7android11KeyedVectorIjNS_12MetaDataBase10typed_dataEE7valueAtEj",
   "parameters" :
   [
    {
     "is_this_ptr" : true,
     "referenced_type" : "_ZTIPKN7android11KeyedVectorIjNS_12MetaDataBase10typed_dataEEE"
    },
    {
     "referenced_type" : "_ZTIj"
    }
   ],
   "return_type" : "_ZTIRKN7android12MetaDataBase10typed_dataE",
   "source_file" : "system/core/libutils/include/utils/KeyedVector.h"
  },
  {
   "function_name" : "android::MetaDataBase::findCString",
   "linker_set_key" : "_ZNK7android12MetaDataBase11findCStringEjPPKc",
   "parameters" :
   [
    {
     "is_this_ptr" : true,
     "referenced_type" : "_ZTIPKN7android12MetaDataBaseE"
    },
    {
     "referenced_type" : "_ZTIj"
    },
    {
     "referenced_type" : "_ZTIPPKc"
    }
   ],
   "return_type" : "_ZTIb",
   "source_file" : "frameworks/av/media/libstagefright/include/media/stagefright/MetaDataBase.h"
  },
  {
   "function_name" : "android::MetaDataBase::findPointer",
   "linker_set_key" : "_ZNK7android12MetaDataBase11findPointerEjPPv",
   "parameters" :
   [
    {
     "is_this_ptr" : true,
     "referenced_type" : "_ZTIPKN7android12MetaDataBaseE"
    },
    {
     "referenced_type" : "_ZTIj"
    },
    {
     "referenced_type" : "_ZTIPPv"
    }
   ],
   "return_type" : "_ZTIb",
   "source_file" : "frameworks/av/media/libstagefright/include/media/stagefright/MetaDataBase.h"
  },
  {
   "function_name" : "android::MetaDataBase::hasData",
   "linker_set_key" : "_ZNK7android12MetaDataBase7hasDataEj",
   "parameters" :
   [
    {
     "is_this_ptr" : true,
     "referenced_type" : "_ZTIPKN7android12MetaDataBaseE"
    },
    {
     "referenced_type" : "_ZTIj"
    }
   ],
   "return_type" : "_ZTIb",
   "source_file" : "frameworks/av/media/libstagefright/include/media/stagefright/MetaDataBase.h"
  },
  {
   "function_name" : "android::MetaDataBase::findData",
   "linker_set_key" : "_ZNK7android12MetaDataBase8findDataEjPjPPKvS1_",
   "parameters" :
   [
    {
     "is_this_ptr" : true,
     "referenced_type" : "_ZTIPKN7android12MetaDataBaseE"
    },
    {
     "referenced_type" : "_ZTIj"
    },
    {
     "referenced_type" : "_ZTIPj"
    },
    {
     "referenced_type" : "_ZTIPPKv"
    },
    {
     "referenced_type" : "_ZTIPj"
    }
   ],
   "return_type" : "_ZTIb",
   "source_file" : "frameworks/av/media/libstagefright/include/media/stagefright/MetaDataBase.h"
  },
  {
   "function_name" : "android::MetaDataBase::findRect",
   "linker_set_key" : "_ZNK7android12MetaDataBase8findRectEjPiS1_S1_S1_",
   "parameters" :
   [
    {
     "is_this_ptr" : true,
     "referenced_type" : "_ZTIPKN7android12MetaDataBaseE"
    },
    {
     "referenced_type" : "_ZTIj"
    },
    {
     "referenced_type" : "_ZTIPi"
    },
    {
     "referenced_type" : "_ZTIPi"
    },
    {
     "referenced_type" : "_ZTIPi"
    },
    {
     "referenced_type" : "_ZTIPi"
    }
   ],
   "return_type" : "_ZTIb",
   "source_file" : "frameworks/av/media/libstagefright/include/media/stagefright/MetaDataBase.h"
  },
  {
   "function_name" : "android::MetaDataBase::toString",
   "linker_set_key" : "_ZNK7android12MetaDataBase8toStringEv",
   "parameters" :
   [
    {
     "is_this_ptr" : true,
     "referenced_type" : "_ZTIPKN7android12MetaDataBaseE"
    }
   ],
   "return_type" : "_ZTIN7android7String8E",
   "source_file" : "frameworks/av/media/libstagefright/include/media/stagefright/MetaDataBase.h"
  },
  {
   "function_name" : "android::MetaDataBase::dumpToLog",
   "linker_set_key" : "_ZNK7android12MetaDataBase9dumpToLogEv",
   "parameters" :
   [
    {
     "is_this_ptr" : true,
     "referenced_type" : "_ZTIPKN7android12MetaDataBaseE"
    }
   ],
   "return_type" : "_ZTIv",
   "source_file" : "frameworks/av/media/libstagefright/include/media/stagefright/MetaDataBase.h"
  },
  {
   "function_name" : "android::MetaDataBase::findFloat",
   "linker_set_key" : "_ZNK7android12MetaDataBase9findFloatEjPf",
   "parameters" :
   [
    {
     "is_this_ptr" : true,
     "referenced_type" : "_ZTIPKN7android12MetaDataBaseE"
    },
    {
     "referenced_type" : "_ZTIj"
    },
    {
     "referenced_type" : "_ZTIPf"
    }
   ],
   "return_type" : "_ZTIb",
   "source_file" : "frameworks/av/media/libstagefright/include/media/stagefright/MetaDataBase.h"
  },
  {
   "function_name" : "android::MetaDataBase::findInt32",
   "linker_set_key" : "_ZNK7android12MetaDataBase9findInt32EjPi",
   "parameters" :
   [
    {
     "is_this_ptr" : true,
     "referenced_type" : "_ZTIPKN7android12MetaDataBaseE"
    },
    {
     "referenced_type" : "_ZTIj"
    },
    {
     "referenced_type" : "_ZTIPi"
    }
   ],
   "return_type" : "_ZTIb",
   "source_file" : "frameworks/av/media/libstagefright/include/media/stagefright/MetaDataBase.h"
  },
  {
   "function_name" : "android::MetaDataBase::findInt64",
   "linker_set_key" : "_ZNK7android12MetaDataBase9findInt64EjPx",
   "parameters" :
   [
    {
     "is_this_ptr" : true,
     "referenced_type" : "_ZTIPKN7android12MetaDataBaseE"
    },
    {
     "referenced_type" : "_ZTIj"
    },
    {
     "referenced_type" : "_ZTIPx"
    }
   ],
   "return_type" : "_ZTIb",
   "source_file" : "frameworks/av/media/libstagefright/include/media/stagefright/MetaDataBase.h"
  },
  {
   "access" : "protected",
   "function_name" : "android::SortedVector<android::key_value_pair_t<unsigned int, android::MetaDataBase::typed_data>>::do_compare",
   "linker_set_key" : "_ZNK7android12SortedVectorINS_16key_value_pair_tIjNS_12MetaDataBase10typed_dataEEEE10do_compareEPKvS7_",
   "parameters" :
   [
    {
     "is_this_ptr" : true,
     "referenced_type" : "_ZTIPKN7android12SortedVectorINS_16key_value_pair_tIjNS_12MetaDataBase10typed_dataEEEEE"
    },
    {
     "referenced_type" : "_ZTIPKv"
    },
    {
     "referenced_type" : "_ZTIPKv"
    }
   ],
   "return_type" : "_ZTIi",
   "source_file" : "system/core/libutils/include/utils/SortedVector.h"
  },
  {
   "access" : "protected",
   "function_name" : "android::SortedVector<android::key_value_pair_t<unsigned int, android::MetaDataBase::typed_data>>::do_destroy",
   "linker_set_key" : "_ZNK7android12SortedVectorINS_16key_value_pair_tIjNS_12MetaDataBase10typed_dataEEEE10do_destroyEPvj",
   "parameters" :
   [
    {
     "is_this_ptr" : true,
     "referenced_type" : "_ZTIPKN7android12SortedVectorINS_16key_value_pair_tIjNS_12MetaDataBase10typed_dataEEEEE"
    },
    {
     "referenced_type" : "_ZTIPv"
    },
    {
     "referenced_type" : "_ZTIj"
    }
   ],
   "return_type" : "_ZTIv",
   "source_file" : "system/core/libutils/include/utils/SortedVector.h"
  },
  {
   "access" : "protected",
   "function_name" : "android::SortedVector<android::key_value_pair_t<unsigned int, android::MetaDataBase::typed_data>>::do_construct",
   "linker_set_key" : "_ZNK7android12SortedVectorINS_16key_value_pair_tIjNS_12MetaDataBase10typed_dataEEEE12do_constructEPvj",
   "parameters" :
   [
    {
     "is_this_ptr" : true,
     "referenced_type" : "_ZTIPKN7android12SortedVectorINS_16key_value_pair_tIjNS_12MetaDataBase10typed_dataEEEEE"
    },
    {
     "referenced_type" : "_ZTIPv"
    },
    {
     "referenced_type" : "_ZTIj"
    }
   ],
   "return_type" : "_ZTIv",
   "source_file" : "system/core/libutils/include/utils/SortedVector.h"
  },
  {
   "access" : "protected",
   "function_name" : "android::SortedVector<android::key_value_pair_t<unsigned int, android::MetaDataBase::typed_data>>::do_move_forward",
   "linker_set_key" : "_ZNK7android12SortedVectorINS_16key_value_pair_tIjNS_12MetaDataBase10typed_dataEEEE15do_move_forwardEPvPKvj",
   "parameters" :
   [
    {
     "is_this_ptr" : true,
     "referenced_type" : "_ZTIPKN7android12SortedVectorINS_16key_value_pair_tIjNS_12MetaDataBase10typed_dataEEEEE"
    },
    {
     "referenced_type" : "_ZTIPv"
    },
    {
     "referenced_type" : "_ZTIPKv"
    },
    {
     "referenced_type" : "_ZTIj"
    }
   ],
   "return_type" : "_ZTIv",
   "source_file" : "system/core/libutils/include/utils/SortedVector.h"
  },
  {
   "access" : "protected",
   "function_name" : "android::SortedVector<android::key_value_pair_t<unsigned int, android::MetaDataBase::typed_data>>::do_move_backward",
   "linker_set_key" : "_ZNK7android12SortedVectorINS_16key_value_pair_tIjNS_12MetaDataBase10typed_dataEEEE16do_move_backwardEPvPKvj",
   "parameters" :
   [
    {
     "is_this_ptr" : true,
     "referenced_type" : "_ZTIPKN7android12SortedVectorINS_16key_value_pair_tIjNS_12MetaDataBase10typed_dataEEEEE"
    },
    {
     "referenced_type" : "_ZTIPv"
    },
    {
     "referenced_type" : "_ZTIPKv"
    },
    {
     "referenced_type" : "_ZTIj"
    }
   ],
   "return_type" : "_ZTIv",
   "source_file" : "system/core/libutils/include/utils/SortedVector.h"
  },
  {
   "function_name" : "android::SortedVector<android::key_value_pair_t<unsigned int, android::MetaDataBase::typed_data>>::size",
   "linker_set_key" : "_ZNK7android12SortedVectorINS_16key_value_pair_tIjNS_12MetaDataBase10typed_dataEEEE4sizeEv",
   "parameters" :
   [
    {
     "is_this_ptr" : true,
     "referenced_type" : "_ZTIPKN7android12SortedVectorINS_16key_value_pair_tIjNS_12MetaDataBase10typed_dataEEEEE"
    }
   ],
   "return_type" : "_ZTIj",
   "source_file" : "system/core/libutils/include/utils/SortedVector.h"
  },
  {
   "function_name" : "android::SortedVector<android::key_value_pair_t<unsigned int, android::MetaDataBase::typed_data>>::array",
   "linker_set_key" : "_ZNK7android12SortedVectorINS_16key_value_pair_tIjNS_12MetaDataBase10typed_dataEEEE5arrayEv",
   "parameters" :
   [
    {
     "is_this_ptr" : true,
     "referenced_type" : "_ZTIPKN7android12SortedVectorINS_16key_value_pair_tIjNS_12MetaDataBase10typed_dataEEEEE"
    }
   ],
   "return_type" : "_ZTIPKN7android16key_value_pair_tIjNS_12MetaDataBase10typed_dataEEE",
   "source_file" : "system/core/libutils/include/utils/SortedVector.h"
  },
  {
   "function_name" : "android::SortedVector<android::key_value_pair_t<unsigned int, android::MetaDataBase::typed_data>>::itemAt",
   "linker_set_key" : "_ZNK7android12SortedVectorINS_16key_value_pair_tIjNS_12MetaDataBase10typed_dataEEEE6itemAtEj",
   "parameters" :
   [
    {
     "is_this_ptr" : true,
     "referenced_type" : "_ZTIPKN7android12SortedVectorINS_16key_value_pair_tIjNS_12MetaDataBase10typed_dataEEEEE"
    },
    {
     "referenced_type" : "_ZTIj"
    }
   ],
   "return_type" : "_ZTIRKN7android16key_value_pair_tIjNS_12MetaDataBase10typed_dataEEE",
   "source_file" : "system/core/libutils/include/utils/SortedVector.h"
  },
  {
   "access" : "protected",
   "function_name" : "android::SortedVector<android::key_value_pair_t<unsigned int, android::MetaDataBase::typed_data>>::do_copy",
   "linker_set_key" : "_ZNK7android12SortedVectorINS_16key_value_pair_tIjNS_12MetaDataBase10typed_dataEEEE7do_copyEPvPKvj",
   "parameters" :
   [
    {
     "is_this_ptr" : true,
     "referenced_type" : "_ZTIPKN7android12SortedVectorINS_16key_value_pair_tIjNS_12MetaDataBase10typed_dataEEEEE"
    },
    {
     "referenced_type" : "_ZTIPv"
    },
    {
     "referenced_type" : "_ZTIPKv"
    },
    {
     "referenced_type" : "_ZTIj"
    }
   ],
   "return_type" : "_ZTIv",
   "source_file" : "system/core/libutils/include/utils/SortedVector.h"
  },
  {
   "function_name" : "android::SortedVector<android::key_value_pair_t<unsigned int, android::MetaDataBase::typed_data>>::indexOf",
   "linker_set_key" : "_ZNK7android12SortedVectorINS_16key_value_pair_tIjNS_12MetaDataBase10typed_dataEEEE7indexOfERKS4_",
   "parameters" :
   [
    {
     "is_this_ptr" : true,
     "referenced_type" : "_ZTIPKN7android12SortedVectorINS_16key_value_pair_tIjNS_12MetaDataBase10typed_dataEEEEE"
    },
    {
     "referenced_type" : "_ZTIRKN7android16key_value_pair_tIjNS_12MetaDataBase10typed_dataEEE"
    }
   ],
   "return_type" : "_ZTIi",
   "source_file" : "system/core/libutils/include/utils/SortedVector.h"
  },
  {
   "access" : "protected",
   "function_name" : "android::SortedVector<android::key_value_pair_t<unsigned int, android::MetaDataBase::typed_data>>::do_splat",
   "linker_set_key" : "_ZNK7android12SortedVectorINS_16key_value_pair_tIjNS_12MetaDataBase10typed_dataEEEE8do_splatEPvPKvj",
   "parameters" :
   [
    {
     "is_this_ptr" : true,
     "referenced_type" : "_ZTIPKN7android12SortedVectorINS_16key_value_pair_tIjNS_12MetaDataBase10typed_dataEEEEE"
    },
    {
     "referenced_type" : "_ZTIPv"
    },
    {
     "referenced_type" : "_ZTIPKv"
    },
    {
     "referenced_type" : "_ZTIj"
    }
   ],
   "return_type" : "_ZTIv",
   "source_file" : "system/core/libutils/include/utils/SortedVector.h"
  },
  {
   "function_name" : "android::SortedVector<android::key_value_pair_t<unsigned int, android::MetaDataBase::typed_data>>::operator[]",
   "linker_set_key" : "_ZNK7android12SortedVectorINS_16key_value_pair_tIjNS_12MetaDataBase10typed_dataEEEEixEj",
   "parameters" :
   [
    {
     "is_this_ptr" : true,
     "referenced_type" : "_ZTIPKN7android12SortedVectorINS_16key_value_pair_tIjNS_12MetaDataBase10typed_dataEEEEE"
    },
    {
     "referenced_type" : "_ZTIj"
    }
   ],
   "return_type" : "_ZTIRKN7android16key_value_pair_tIjNS_12MetaDataBase10typed_dataEEE",
   "source_file" : "system/core/libutils/include/utils/SortedVector.h"
  },
  {
   "function_name" : "android::key_value_pair_t<unsigned int, android::MetaDataBase::typed_data>::operator<",
   "linker_set_key" : "_ZNK7android16key_value_pair_tIjNS_12MetaDataBase10typed_dataEEltERKS3_",
   "parameters" :
   [
    {
     "is_this_ptr" : true,
     "referenced_type" : "_ZTIPKN7android16key_value_pair_tIjNS_12MetaDataBase10typed_dataEEE"
    },
    {
     "referenced_type" : "_ZTIRKN7android16key_value_pair_tIjNS_12MetaDataBase10typed_dataEEE"
    }
   ],
   "return_type" : "_ZTIb",
   "source_file" : "system/core/libutils/include/utils/TypeHelpers.h"
  },
  {
   "function_name" : "android::AString::operator!=",
   "linker_set_key" : "_ZNK7android7AStringneERKS0_",
   "parameters" :
   [
    {
     "is_this_ptr" : true,
     "referenced_type" : "_ZTIPKN7android7AStringE"
    },
    {
     "referenced_type" : "_ZTIRKN7android7AStringE"
    }
   ],
   "return_type" : "_ZTIb",
   "source_file" : "frameworks/av/media/libstagefright/foundation/include/media/stagefright/foundation/AString.h"
  },
  {
   "function_name" : "android::RefBase::printRefs",
   "linker_set_key" : "_ZNK7android7RefBase9printRefsEv",
   "parameters" :
   [
    {
     "is_this_ptr" : true,
     "referenced_type" : "_ZTIPKN7android7RefBaseE"
    }
   ],
   "return_type" : "_ZTIv",
   "source_file" : "system/core/libutils/include/utils/RefBase.h"
  },
  {
   "function_name" : "android::String8::appendPathCopy",
   "linker_set_key" : "_ZNK7android7String814appendPathCopyEPKc",
   "parameters" :
   [
    {
     "is_this_ptr" : true,
     "referenced_type" : "_ZTIPKN7android7String8E"
    },
    {
     "referenced_type" : "_ZTIPKc"
    }
   ],
   "return_type" : "_ZTIN7android7String8E",
   "source_file" : "system/core/libutils/include/utils/String8.h"
  },
  {
   "function_name" : "android::String8::appendPathCopy",
   "linker_set_key" : "_ZNK7android7String814appendPathCopyERKS0_",
   "parameters" :
   [
    {
     "is_this_ptr" : true,
     "referenced_type" : "_ZTIPKN7android7String8E"
    },
    {
     "referenced_type" : "_ZTIRKN7android7String8E"
    }
   ],
   "return_type" : "_ZTIN7android7String8E",
   "source_file" : "system/core/libutils/include/utils/String8.h"
  },
  {
   "function_name" : "android::String8::size",
   "linker_set_key" : "_ZNK7android7String84sizeEv",
   "parameters" :
   [
    {
     "is_this_ptr" : true,
     "referenced_type" : "_ZTIPKN7android7String8E"
    }
   ],
   "return_type" : "_ZTIj",
   "source_file" : "system/core/libutils/include/utils/String8.h"
  },
  {
   "function_name" : "android::String8::bytes",
   "linker_set_key" : "_ZNK7android7String85bytesEv",
   "parameters" :
   [
    {
     "is_this_ptr" : true,
     "referenced_type" : "_ZTIPKN7android7String8E"
    }
   ],
   "return_type" : "_ZTIj",
   "source_file" : "system/core/libutils/include/utils/String8.h"
  },
  {
   "function_name" : "android::String8::c_str",
   "linker_set_key" : "_ZNK7android7String85c_strEv",
   "parameters" :
   [
    {
     "is_this_ptr" : true,
     "referenced_type" : "_ZTIPKN7android7String8E"
    }
   ],
   "return_type" : "_ZTIPKc",
   "source_file" : "system/core/libutils/include/utils/String8.h"
  },
  {
   "function_name" : "android::String8::string",
   "linker_set_key" : "_ZNK7android7String86stringEv",
   "parameters" :
   [
    {
     "is_this_ptr" : true,
     "referenced_type" : "_ZTIPKN7android7String8E"
    }
   ],
   "return_type" : "_ZTIPKc",
   "source_file" : "system/core/libutils/include/utils/String8.h"
  },
  {
   "function_name" : "android::String8::compare",
   "linker_set_key" : "_ZNK7android7String87compareERKS0_",
   "parameters" :
   [
    {
     "is_this_ptr" : true,
     "referenced_type" : "_ZTIPKN7android7String8E"
    },
    {
     "referenced_type" : "_ZTIRKN7android7String8E"
    }
   ],
   "return_type" : "_ZTIi",
   "source_file" : "system/core/libutils/include/utils/String8.h"
  },
  {
   "function_name" : "android::String8::isEmpty",
   "linker_set_key" : "_ZNK7android7String87isEmptyEv",
   "parameters" :
   [
    {
     "is_this_ptr" : true,
     "referenced_type" : "_ZTIPKN7android7String8E"
    }
   ],
   "return_type" : "_ZTIb",
   "source_file" : "system/core/libutils/include/utils/String8.h"
  },
  {
   "function_name" : "android::String8::contains",
   "linker_set_key" : "_ZNK7android7String88containsEPKc",
   "parameters" :
   [
    {
     "is_this_ptr" : true,
     "referenced_type" : "_ZTIPKN7android7String8E"
    },
    {
     "referenced_type" : "_ZTIPKc"
    }
   ],
   "return_type" : "_ZTIb",
   "source_file" : "system/core/libutils/include/utils/String8.h"
  },
  {
   "function_name" : "android::String8::operator const char *",
   "linker_set_key" : "_ZNK7android7String8cvPKcEv",
   "parameters" :
   [
    {
     "is_this_ptr" : true,
     "referenced_type" : "_ZTIPKN7android7String8E"
    }
   ],
   "return_type" : "_ZTIPKc",
   "source_file" : "system/core/libutils/include/utils/String8.h"
  },
  {
   "function_name" : "android::String8::operator==",
   "linker_set_key" : "_ZNK7android7String8eqEPKc",
   "parameters" :
   [
    {
     "is_this_ptr" : true,
     "referenced_type" : "_ZTIPKN7android7String8E"
    },
    {
     "referenced_type" : "_ZTIPKc"
    }
   ],
   "return_type" : "_ZTIb",
   "source_file" : "system/core/libutils/include/utils/String8.h"
  },
  {
   "function_name" : "android::String8::operator==",
   "linker_set_key" : "_ZNK7android7String8eqERKS0_",
   "parameters" :
   [
    {
     "is_this_ptr" : true,
     "referenced_type" : "_ZTIPKN7android7String8E"
    },
    {
     "referenced_type" : "_ZTIRKN7android7String8E"
    }
   ],
   "return_type" : "_ZTIb",
   "source_file" : "system/core/libutils/include/utils/String8.h"
  },
  {
   "function_name" : "android::String8::operator>=",
   "linker_set_key" : "_ZNK7android7String8geEPKc",
   "parameters" :
   [
    {
     "is_this_ptr" : true,
     "referenced_type" : "_ZTIPKN7android7String8E"
    },
    {
     "referenced_type" : "_ZTIPKc"
    }
   ],
   "return_type" : "_ZTIb",
   "source_file" : "system/core/libutils/include/utils/String8.h"
  },
  {
   "function_name" : "android::String8::operator>=",
   "linker_set_key" : "_ZNK7android7String8geERKS0_",
   "parameters" :
   [
    {
     "is_this_ptr" : true,
     "referenced_type" : "_ZTIPKN7android7String8E"
    },
    {
     "referenced_type" : "_ZTIRKN7android7String8E"
    }
   ],
   "return_type" : "_ZTIb",
   "source_file" : "system/core/libutils/include/utils/String8.h"
  },
  {
   "function_name" : "android::String8::operator>",
   "linker_set_key" : "_ZNK7android7String8gtEPKc",
   "parameters" :
   [
    {
     "is_this_ptr" : true,
     "referenced_type" : "_ZTIPKN7android7String8E"
    },
    {
     "referenced_type" : "_ZTIPKc"
    }
   ],
   "return_type" : "_ZTIb",
   "source_file" : "system/core/libutils/include/utils/String8.h"
  },
  {
   "function_name" : "android::String8::operator>",
   "linker_set_key" : "_ZNK7android7String8gtERKS0_",
   "parameters" :
   [
    {
     "is_this_ptr" : true,
     "referenced_type" : "_ZTIPKN7android7String8E"
    },
    {
     "referenced_type" : "_ZTIRKN7android7String8E"
    }
   ],
   "return_type" : "_ZTIb",
   "source_file" : "system/core/libutils/include/utils/String8.h"
  },
  {
   "function_name" : "android::String8::operator<=",
   "linker_set_key" : "_ZNK7android7String8leEPKc",
   "parameters" :
   [
    {
     "is_this_ptr" : true,
     "referenced_type" : "_ZTIPKN7android7String8E"
    },
    {
     "referenced_type" : "_ZTIPKc"
    }
   ],
   "return_type" : "_ZTIb",
   "source_file" : "system/core/libutils/include/utils/String8.h"
  },
  {
   "function_name" : "android::String8::operator<=",
   "linker_set_key" : "_ZNK7android7String8leERKS0_",
   "parameters" :
   [
    {
     "is_this_ptr" : true,
     "referenced_type" : "_ZTIPKN7android7String8E"
    },
    {
     "referenced_type" : "_ZTIRKN7android7String8E"
    }
   ],
   "return_type" : "_ZTIb",
   "source_file" : "system/core/libutils/include/utils/String8.h"
  },
  {
   "function_name" : "android::String8::operator<",
   "linker_set_key" : "_ZNK7android7String8ltEPKc",
   "parameters" :
   [
    {
     "is_this_ptr" : true,
     "referenced_type" : "_ZTIPKN7android7String8E"
    },
    {
     "referenced_type" : "_ZTIPKc"
    }
   ],
   "return_type" : "_ZTIb",
   "source_file" : "system/core/libutils/include/utils/String8.h"
  },
  {
   "function_name" : "android::String8::operator<",
   "linker_set_key" : "_ZNK7android7String8ltERKS0_",
   "parameters" :
   [
    {
     "is_this_ptr" : true,
     "referenced_type" : "_ZTIPKN7android7String8E"
    },
    {
     "referenced_type" : "_ZTIRKN7android7String8E"
    }
   ],
   "return_type" : "_ZTIb",
   "source_file" : "system/core/libutils/include/utils/String8.h"
  },
  {
   "function_name" : "android::String8::operator!=",
   "linker_set_key" : "_ZNK7android7String8neEPKc",
   "parameters" :
   [
    {
     "is_this_ptr" : true,
     "referenced_type" : "_ZTIPKN7android7String8E"
    },
    {
     "referenced_type" : "_ZTIPKc"
    }
   ],
   "return_type" : "_ZTIb",
   "source_file" : "system/core/libutils/include/utils/String8.h"
  },
  {
   "function_name" : "android::String8::operator!=",
   "linker_set_key" : "_ZNK7android7String8neERKS0_",
   "parameters" :
   [
    {
     "is_this_ptr" : true,
     "referenced_type" : "_ZTIPKN7android7String8E"
    },
    {
     "referenced_type" : "_ZTIRKN7android7String8E"
    }
   ],
   "return_type" : "_ZTIb",
   "source_file" : "system/core/libutils/include/utils/String8.h"
  },
  {
   "function_name" : "android::String8::operator+",
   "linker_set_key" : "_ZNK7android7String8plEPKc",
   "parameters" :
   [
    {
     "is_this_ptr" : true,
     "referenced_type" : "_ZTIPKN7android7String8E"
    },
    {
     "referenced_type" : "_ZTIPKc"
    }
   ],
   "return_type" : "_ZTIN7android7String8E",
   "source_file" : "system/core/libutils/include/utils/String8.h"
  },
  {
   "function_name" : "android::String8::operator+",
   "linker_set_key" : "_ZNK7android7String8plERKS0_",
   "parameters" :
   [
    {
     "is_this_ptr" : true,
     "referenced_type" : "_ZTIPKN7android7String8E"
    },
    {
     "referenced_type" : "_ZTIRKN7android7String8E"
    }
   ],
   "return_type" : "_ZTIN7android7String8E",
   "source_file" : "system/core/libutils/include/utils/String8.h"
  },
  {
   "function_name" : "log_msg::nsec",
   "linker_set_key" : "_ZNK7log_msg4nsecEv",
   "parameters" :
   [
    {
     "is_this_ptr" : true,
     "referenced_type" : "_ZTIPK7log_msg"
    }
   ],
   "return_type" : "_ZTIy",
   "source_file" : "system/logging/liblog/include_vndk/log/log_read.h"
  }
 ],
 "global_vars" :
 [
  {
   "access" : "private",
   "linker_set_key" : "_ZN7android7AString12kEmptyStringE",
   "name" : "android::AString::kEmptyString",
   "referenced_type" : "_ZTIKPKc",
   "source_file" : "frameworks/av/media/libstagefright/foundation/include/media/stagefright/foundation/AString.h"
  },
  {
   "linker_set_key" : "_ZZN7android2sp18check_not_on_stackEPKvE13MIN_PAGE_MASK",
   "name" : "MIN_PAGE_MASK",
   "referenced_type" : "_ZTIKj",
   "source_file" : "system/core/libutils/include/utils/StrongPointer.h"
  },
  {
   "linker_set_key" : "_ZZN7android2sp18check_not_on_stackEPKvE13MIN_PAGE_SIZE",
   "name" : "MIN_PAGE_SIZE",
   "referenced_type" : "_ZTIKi",
   "source_file" : "system/core/libutils/include/utils/StrongPointer.h"
  }
 ],
 "lvalue_reference_types" :
 [
  {
   "alignment" : 4,
   "linker_set_key" : "_ZTIRKN7android12MetaDataBase10typed_dataE",
   "name" : "const android::MetaDataBase::typed_data &",
   "referenced_type" : "_ZTIKN7android12MetaDataBase10typed_dataE",
   "self_type" : "_ZTIRKN7android12MetaDataBase10typed_dataE",
   "size" : 4,
   "source_file" : "system/core/libutils/include/utils/TypeHelpers.h"
  },
  {
   "alignment" : 4,
   "linker_set_key" : "_ZTIRKN7android12MetaDataBaseE",
   "name" : "const android::MetaDataBase &",
   "referenced_type" : "_ZTIKN7android12MetaDataBaseE",
   "self_type" : "_ZTIRKN7android12MetaDataBaseE",
   "size" : 4,
   "source_file" : "frameworks/av/media/libstagefright/include/media/stagefright/MetaDataBase.h"
  },
  {
   "alignment" : 4,
   "linker_set_key" : "_ZTIRKN7android12SortedVectorINS_16key_value_pair_tIjNS_12MetaDataBase10typed_dataEEEEE",
   "name" : "const android::SortedVector<android::key_value_pair_t<unsigned int, android::MetaDataBase::typed_data>> &",
   "referenced_type" : "_ZTIKN7android12SortedVectorINS_16key_value_pair_tIjNS_12MetaDataBase10typed_dataEEEEE",
   "self_type" : "_ZTIRKN7android12SortedVectorINS_16key_value_pair_tIjNS_12MetaDataBase10typed_dataEEEEE",
   "size" : 4,
   "source_file" : "system/core/libutils/include/utils/SortedVector.h"
  },
  {
   "alignment" : 4,
   "linker_set_key" : "_ZTIRKN7android16key_value_pair_tIjNS_12MetaDataBase10typed_dataEEE",
   "name" : "const android::key_value_pair_t<unsigned int, android::MetaDataBase::typed_data> &",
   "referenced_type" : "_ZTIKN7android16key_value_pair_tIjNS_12MetaDataBase10typed_dataEEE",
   "self_type" : "_ZTIRKN7android16key_value_pair_tIjNS_12MetaDataBase10typed_dataEEE",
   "size" : 4,
   "source_file" : "system/core/libutils/include/utils/TypeHelpers.h"
  },
  {
   "alignment" : 4,
   "linker_set_key" : "_ZTIRKN7android7AStringE",
   "name" : "const android::AString &",
   "referenced_type" : "_ZTIKN7android7AStringE",
   "self_type" : "_ZTIRKN7android7AStringE",
   "size" : 4,
   "source_file" : "frameworks/av/media/libstagefright/foundation/include/media/stagefright/foundation/AString.h"
  },
  {
   "alignment" : 4,
   "linker_set_key" : "_ZTIRKN7android7String8E",
   "name" : "const android::String8 &",
   "referenced_type" : "_ZTIKN7android7String8E",
   "self_type" : "_ZTIRKN7android7String8E",
   "size" : 4,
   "source_file" : "system/core/libutils/include/utils/String8.h"
  },
  {
   "alignment" : 4,
   "linker_set_key" : "_ZTIRKa",
   "name" : "const signed char &",
   "referenced_type" : "_ZTIKa",
   "self_type" : "_ZTIRKa",
   "size" : 4,
   "source_file" : "system/core/libutils/include/utils/TypeHelpers.h"
  },
  {
   "alignment" : 4,
   "linker_set_key" : "_ZTIRKb",
   "name" : "const bool &",
   "referenced_type" : "_ZTIKb",
   "self_type" : "_ZTIRKb",
   "size" : 4,
   "source_file" : "system/core/libutils/include/utils/TypeHelpers.h"
  },
  {
   "alignment" : 4,
   "linker_set_key" : "_ZTIRKd",
   "name" : "const double &",
   "referenced_type" : "_ZTIKd",
   "self_type" : "_ZTIRKd",
   "size" : 4,
   "source_file" : "system/core/libutils/include/utils/TypeHelpers.h"
  },
  {
   "alignment" : 4,
   "linker_set_key" : "_ZTIRKf",
   "name" : "const float &",
   "referenced_type" : "_ZTIKf",
   "self_type" : "_ZTIRKf",
   "size" : 4,
   "source_file" : "system/core/libutils/include/utils/TypeHelpers.h"
  },
  {
   "alignment" : 4,
   "linker_set_key" : "_ZTIRKh",
   "name" : "const unsigned char &",
   "referenced_type" : "_ZTIKh",
   "self_type" : "_ZTIRKh",
   "size" : 4,
   "source_file" : "system/core/libutils/include/utils/TypeHelpers.h"
  },
  {
   "alignment" : 4,
   "linker_set_key" : "_ZTIRKi",
   "name" : "const int &",
   "referenced_type" : "_ZTIKi",
   "self_type" : "_ZTIRKi",
   "size" : 4,
   "source_file" : "system/core/libutils/include/utils/TypeHelpers.h"
  },
  {
   "alignment" : 4,
   "linker_set_key" : "_ZTIRKj",
   "name" : "const unsigned int &",
   "referenced_type" : "_ZTIKj",
   "self_type" : "_ZTIRKj",
   "size" : 4,
   "source_file" : "system/core/libutils/include/utils/TypeHelpers.h"
  },
  {
   "alignment" : 4,
   "linker_set_key" : "_ZTIRKs",
   "name" : "const short &",
   "referenced_type" : "_ZTIKs",
   "self_type" : "_ZTIRKs",
   "size" : 4,
   "source_file" : "system/core/libutils/include/utils/TypeHelpers.h"
  },
  {
   "alignment" : 4,
   "linker_set_key" : "_ZTIRKt",
   "name" : "const unsigned short &",
   "referenced_type" : "_ZTIKt",
   "self_type" : "_ZTIRKt",
   "size" : 4,
   "source_file" : "system/core/libutils/include/utils/TypeHelpers.h"
  },
  {
   "alignment" : 4,
   "linker_set_key" : "_ZTIRKx",
   "name" : "const long long &",
   "referenced_type" : "_ZTIKx",
   "self_type" : "_ZTIRKx",
   "size" : 4,
   "source_file" : "system/core/libutils/include/utils/TypeHelpers.h"
  },
  {
   "alignment" : 4,
   "linker_set_key" : "_ZTIRKy",
   "name" : "const unsigned long long &",
   "referenced_type" : "_ZTIKy",
   "self_type" : "_ZTIRKy",
   "size" : 4,
   "source_file" : "system/core/libutils/include/utils/TypeHelpers.h"
  },
  {
   "alignment" : 4,
   "linker_set_key" : "_ZTIRN7android12MetaDataBase10typed_dataE",
   "name" : "android::MetaDataBase::typed_data &",
   "referenced_type" : "_ZTIN7android12MetaDataBase10typed_dataE",
   "self_type" : "_ZTIRN7android12MetaDataBase10typed_dataE",
   "size" : 4,
   "source_file" : "system/core/libutils/include/utils/KeyedVector.h"
  },
  {
   "alignment" : 4,
   "linker_set_key" : "_ZTIRN7android12MetaDataBaseE",
   "name" : "android::MetaDataBase &",
   "referenced_type" : "_ZTIN7android12MetaDataBaseE",
   "self_type" : "_ZTIRN7android12MetaDataBaseE",
   "size" : 4,
   "source_file" : "frameworks/av/media/libstagefright/include/media/stagefright/MetaDataBase.h"
  },
  {
   "alignment" : 4,
   "linker_set_key" : "_ZTIRN7android12SortedVectorINS_16key_value_pair_tIjNS_12MetaDataBase10typed_dataEEEEE",
   "name" : "android::SortedVector<android::key_value_pair_t<unsigned int, android::MetaDataBase::typed_data>> &",
   "referenced_type" : "_ZTIN7android12SortedVectorINS_16key_value_pair_tIjNS_12MetaDataBase10typed_dataEEEEE",
   "self_type" : "_ZTIRN7android12SortedVectorINS_16key_value_pair_tIjNS_12MetaDataBase10typed_dataEEEEE",
   "size" : 4,
   "source_file" : "system/core/libutils/include/utils/SortedVector.h"
  },
  {
   "alignment" : 4,
   "linker_set_key" : "_ZTIRN7android16key_value_pair_tIjNS_12MetaDataBase10typed_dataEEE",
   "name" : "android::key_value_pair_t<unsigned int, android::MetaDataBase::typed_data> &",
   "referenced_type" : "_ZTIN7android16key_value_pair_tIjNS_12MetaDataBase10typed_dataEEE",
   "self_type" : "_ZTIRN7android16key_value_pair_tIjNS_12MetaDataBase10typed_dataEEE",
   "size" : 4,
   "source_file" : "system/core/libutils/include/utils/TypeHelpers.h"
  },
  {
   "alignment" : 4,
   "linker_set_key" : "_ZTIRN7android7String8E",
   "name" : "android::String8 &",
   "referenced_type" : "_ZTIN7android7String8E",
   "self_type" : "_ZTIRN7android7String8E",
   "size" : 4,
   "source_file" : "system/core/libutils/include/utils/String8.h"
  }
 ],
 "pointer_types" :
 [
  {
   "alignment" : 4,
   "linker_set_key" : "_ZTIP7log_msg",
   "name" : "log_msg *",
   "referenced_type" : "_ZTI7log_msg",
   "self_type" : "_ZTIP7log_msg",
   "size" : 4,
   "source_file" : "system/logging/liblog/include_vndk/log/log_read.h"
  },
  {
   "alignment" : 4,
   "linker_set_key" : "_ZTIPK7log_msg",
   "name" : "const log_msg *",
   "referenced_type" : "_ZTIK7log_msg",
   "self_type" : "_ZTIPK7log_msg",
   "size" : 4,
   "source_file" : "system/logging/liblog/include_vndk/log/log_read.h"
  },
  {
   "alignment" : 4,
   "linker_set_key" : "_ZTIPKN7android10VectorImplE",
   "name" : "const android::VectorImpl *",
   "referenced_type" : "_ZTIKN7android10VectorImplE",
   "self_type" : "_ZTIPKN7android10VectorImplE",
   "size" : 4,
   "source_file" : "system/core/libutils/include/utils/VectorImpl.h"
  },
  {
   "alignment" : 4,
   "linker_set_key" : "_ZTIPKN7android11KeyedVectorIjNS_12MetaDataBase10typed_dataEEE",
   "name" : "const android::KeyedVector<unsigned int, android::MetaDataBase::typed_data> *",
   "referenced_type" : "_ZTIKN7android11KeyedVectorIjNS_12MetaDataBase10typed_dataEEE",
   "self_type" : "_ZTIPKN7android11KeyedVectorIjNS_12MetaDataBase10typed_dataEEE",
   "size" : 4,
   "source_file" : "system/core/libutils/include/utils/KeyedVector.h"
  },
  {
   "alignment" : 4,
   "linker_set_key" : "_ZTIPKN7android12MetaDataBaseE",
   "name" : "const android::MetaDataBase *",
   "referenced_type" : "_ZTIKN7android12MetaDataBaseE",
   "self_type" : "_ZTIPKN7android12MetaDataBaseE",
   "size" : 4,
   "source_file" : "frameworks/av/media/libstagefright/include/media/stagefright/MetaDataBase.h"
  },
  {
   "alignment" : 4,
   "linker_set_key" : "_ZTIPKN7android12SortedVectorINS_16key_value_pair_tIjNS_12MetaDataBase10typed_dataEEEEE",
   "name" : "const android::SortedVector<android::key_value_pair_t<unsigned int, android::MetaDataBase::typed_data>> *",
   "referenced_type" : "_ZTIKN7android12SortedVectorINS_16key_value_pair_tIjNS_12MetaDataBase10typed_dataEEEEE",
   "self_type" : "_ZTIPKN7android12SortedVectorINS_16key_value_pair_tIjNS_12MetaDataBase10typed_dataEEEEE",
   "size" : 4,
   "source_file" : "system/core/libutils/include/utils/SortedVector.h"
  },
  {
   "alignment" : 4,
   "linker_set_key" : "_ZTIPKN7android16key_value_pair_tIjNS_12MetaDataBase10typed_dataEEE",
   "name" : "const android::key_value_pair_t<unsigned int, android::MetaDataBase::typed_data> *",
   "referenced_type" : "_ZTIKN7android16key_value_pair_tIjNS_12MetaDataBase10typed_dataEEE",
   "self_type" : "_ZTIPKN7android16key_value_pair_tIjNS_12MetaDataBase10typed_dataEEE",
   "size" : 4,
   "source_file" : "system/core/libutils/include/utils/TypeHelpers.h"
  },
  {
   "alignment" : 4,
   "linker_set_key" : "_ZTIPKN7android7AStringE",
   "name" : "const android::AString *",
   "referenced_type" : "_ZTIKN7android7AStringE",
   "self_type" : "_ZTIPKN7android7AStringE",
   "size" : 4,
   "source_file" : "frameworks/av/media/libstagefright/foundation/include/media/stagefright/foundation/AString.h"
  },
  {
   "alignment" : 4,
   "linker_set_key" : "_ZTIPKN7android7RefBaseE",
   "name" : "const android::RefBase *",
   "referenced_type" : "_ZTIKN7android7RefBaseE",
   "self_type" : "_ZTIPKN7android7RefBaseE",
   "size" : 4,
   "source_file" : "system/core/libutils/include/utils/RefBase.h"
  },
  {
   "alignment" : 4,
   "linker_set_key" : "_ZTIPKN7android7String8E",
   "name" : "const android::String8 *",
   "referenced_type" : "_ZTIKN7android7String8E",
   "self_type" : "_ZTIPKN7android7String8E",
   "size" : 4,
   "source_file" : "system/core/libutils/include/utils/String8.h"
  },
  {
   "alignment" : 4,
   "linker_set_key" : "_ZTIPKc",
   "name" : "const char *",
   "referenced_type" : "_ZTIKc",
   "self_type" : "_ZTIPKc",
   "size" : 4,
   "source_file" : "system/logging/liblog/include_vndk/android/log.h"
  },
  {
   "alignment" : 4,
   "linker_set_key" : "_ZTIPKv",
   "name" : "const void *",
   "referenced_type" : "_ZTIKv",
   "self_type" : "_ZTIPKv",
   "size" : 4,
   "source_file" : "system/core/libutils/include/utils/VectorImpl.h"
  },
  {
   "alignment" : 4,
   "linker_set_key" : "_ZTIPN7android11KeyedVectorIjNS_12MetaDataBase10typed_dataEEE",
   "name" : "android::KeyedVector<unsigned int, android::MetaDataBase::typed_data> *",
   "referenced_type" : "_ZTIN7android11KeyedVectorIjNS_12MetaDataBase10typed_dataEEE",
   "self_type" : "_ZTIPN7android11KeyedVectorIjNS_12MetaDataBase10typed_dataEEE",
   "size" : 4,
   "source_file" : "system/core/libutils/include/utils/KeyedVector.h"
  },
  {
   "alignment" : 4,
   "linker_set_key" : "_ZTIPN7android12MetaDataBase16MetaDataInternalE",
   "name" : "android::MetaDataBase::MetaDataInternal *",
   "referenced_type" : "_ZTIN7android12MetaDataBase16MetaDataInternalE",
   "self_type" : "_ZTIPN7android12MetaDataBase16MetaDataInternalE",
   "size" : 4,
   "source_file" : "frameworks/av/media/libstagefright/include/media/stagefright/MetaDataBase.h"
  },
  {
   "alignment" : 4,
   "linker_set_key" : "_ZTIPN7android12MetaDataBaseE",
   "name" : "android::MetaDataBase *",
   "referenced_type" : "_ZTIN7android12MetaDataBaseE",
   "self_type" : "_ZTIPN7android12MetaDataBaseE",
   "size" : 4,
   "source_file" : "frameworks/av/media/libstagefright/include/media/stagefright/MetaDataBase.h"
  },
  {
   "alignment" : 4,
   "linker_set_key" : "_ZTIPN7android12SortedVectorINS_16key_value_pair_tIjNS_12MetaDataBase10typed_dataEEEEE",
   "name" : "android::SortedVector<android::key_value_pair_t<unsigned int, android::MetaDataBase::typed_data>> *",
   "referenced_type" : "_ZTIN7android12SortedVectorINS_16key_value_pair_tIjNS_12MetaDataBase10typed_dataEEEEE",
   "self_type" : "_ZTIPN7android12SortedVectorINS_16key_value_pair_tIjNS_12MetaDataBase10typed_dataEEEEE",
   "size" : 4,
   "source_file" : "system/core/libutils/include/utils/SortedVector.h"
  },
  {
   "alignment" : 4,
   "linker_set_key" : "_ZTIPN7android16ReferenceRenamerE",
   "name" : "android::ReferenceRenamer *",
   "referenced_type" : "_ZTIN7android16ReferenceRenamerE",
   "self_type" : "_ZTIPN7android16ReferenceRenamerE",
   "size" : 4,
   "source_file" : "system/core/libutils/include/utils/RefBase.h"
  },
  {
   "alignment" : 4,
   "linker_set_key" : "_ZTIPN7android16key_value_pair_tIjNS_12MetaDataBase10typed_dataEEE",
   "name" : "android::key_value_pair_t<unsigned int, android::MetaDataBase::typed_data> *",
   "referenced_type" : "_ZTIN7android16key_value_pair_tIjNS_12MetaDataBase10typed_dataEEE",
   "self_type" : "_ZTIPN7android16key_value_pair_tIjNS_12MetaDataBase10typed_dataEEE",
   "size" : 4,
   "source_file" : "system/core/libutils/include/utils/TypeHelpers.h"
  },
  {
   "alignment" : 4,
   "linker_set_key" : "_ZTIPN7android19VirtualLightRefBaseE",
   "name" : "android::VirtualLightRefBase *",
   "referenced_type" : "_ZTIN7android19VirtualLightRefBaseE",
   "self_type" : "_ZTIPN7android19VirtualLightRefBaseE",
   "size" : 4,
   "source_file" : "system/core/libutils/include/utils/LightRefBase.h"
  },
  {
   "alignment" : 4,
   "linker_set_key" : "_ZTIPN7android7AStringE",
   "name" : "android::AString *",
   "referenced_type" : "_ZTIN7android7AStringE",
   "self_type" : "_ZTIPN7android7AStringE",
   "size" : 4,
   "source_file" : "frameworks/av/media/libstagefright/foundation/include/media/stagefright/foundation/AString.h"
  },
  {
   "alignment" : 4,
   "linker_set_key" : "_ZTIPN7android7RefBase12weakref_implE",
   "name" : "android::RefBase::weakref_impl *",
   "referenced_type" : "_ZTIN7android7RefBase12weakref_implE",
   "self_type" : "_ZTIPN7android7RefBase12weakref_implE",
   "size" : 4,
   "source_file" : "system/core/libutils/include/utils/RefBase.h"
  },
  {
   "alignment" : 4,
   "linker_set_key" : "_ZTIPN7android7RefBaseE",
   "name" : "android::RefBase *",
   "referenced_type" : "_ZTIN7android7RefBaseE",
   "self_type" : "_ZTIPN7android7RefBaseE",
   "size" : 4,
   "source_file" : "system/core/libutils/include/utils/RefBase.h"
  },
  {
   "alignment" : 4,
   "linker_set_key" : "_ZTIPN7android7String8E",
   "name" : "android::String8 *",
   "referenced_type" : "_ZTIN7android7String8E",
   "self_type" : "_ZTIPN7android7String8E",
   "size" : 4,
   "source_file" : "system/core/libutils/include/utils/String8.h"
  },
  {
   "alignment" : 4,
   "linker_set_key" : "_ZTIPPKc",
   "name" : "const char **",
   "referenced_type" : "_ZTIPKc",
   "self_type" : "_ZTIPPKc",
   "size" : 4,
   "source_file" : "frameworks/av/media/libstagefright/include/media/stagefright/MetaDataBase.h"
  },
  {
   "alignment" : 4,
   "linker_set_key" : "_ZTIPPKv",
   "name" : "const void **",
   "referenced_type" : "_ZTIPKv",
   "self_type" : "_ZTIPPKv",
   "size" : 4,
   "source_file" : "frameworks/av/media/libstagefright/include/media/stagefright/MetaDataBase.h"
  },
  {
   "alignment" : 4,
   "linker_set_key" : "_ZTIPPv",
   "name" : "void **",
   "referenced_type" : "_ZTIPv",
   "self_type" : "_ZTIPPv",
   "size" : 4,
   "source_file" : "frameworks/av/media/libstagefright/include/media/stagefright/MetaDataBase.h"
  },
  {
   "alignment" : 4,
   "linker_set_key" : "_ZTIPc",
   "name" : "char *",
   "referenced_type" : "_ZTIc",
   "self_type" : "_ZTIPc",
   "size" : 4,
   "source_file" : "system/logging/liblog/include_vndk/log/log_read.h"
  },
  {
   "alignment" : 4,
   "linker_set_key" : "_ZTIPf",
   "name" : "float *",
   "referenced_type" : "_ZTIf",
   "self_type" : "_ZTIPf",
   "size" : 4,
   "source_file" : "frameworks/av/media/libstagefright/include/media/stagefright/MetaDataBase.h"
  },
  {
   "alignment" : 4,
   "linker_set_key" : "_ZTIPi",
   "name" : "int *",
   "referenced_type" : "_ZTIi",
   "self_type" : "_ZTIPi",
   "size" : 4,
   "source_file" : "frameworks/av/media/libstagefright/include/media/stagefright/MetaDataBase.h"
  },
  {
   "alignment" : 4,
   "linker_set_key" : "_ZTIPj",
   "name" : "unsigned int *",
   "referenced_type" : "_ZTIj",
   "self_type" : "_ZTIPj",
   "size" : 4,
   "source_file" : "frameworks/av/media/libstagefright/include/media/stagefright/MetaDataBase.h"
  },
  {
   "alignment" : 4,
   "linker_set_key" : "_ZTIPv",
   "name" : "void *",
   "referenced_type" : "_ZTIv",
   "self_type" : "_ZTIPv",
   "size" : 4,
   "source_file" : "system/core/libutils/include/utils/VectorImpl.h"
  },
  {
   "alignment" : 4,
   "linker_set_key" : "_ZTIPx",
   "name" : "long long *",
   "referenced_type" : "_ZTIx",
   "self_type" : "_ZTIPx",
   "size" : 4,
   "source_file" : "frameworks/av/media/libstagefright/include/media/stagefright/MetaDataBase.h"
  }
 ],
 "qualified_types" :
 [
  {
   "alignment" : 4,
   "is_const" : true,
   "linker_set_key" : "_ZTIK7log_msg",
   "name" : "const log_msg",
   "referenced_type" : "_ZTI7log_msg",
   "self_type" : "_ZTIK7log_msg",
   "size" : 5124,
   "source_file" : "system/logging/liblog/include_vndk/log/log_read.h"
  },
  {
   "alignment" : 4,
   "is_const" : true,
   "linker_set_key" : "_ZTIKN7android10VectorImplE",
   "name" : "const android::VectorImpl",
   "referenced_type" : "_ZTIN7android10VectorImplE",
   "self_type" : "_ZTIKN7android10VectorImplE",
   "size" : 20,
   "source_file" : "system/core/libutils/include/utils/VectorImpl.h"
  },
  {
   "alignment" : 4,
   "is_const" : true,
   "linker_set_key" : "_ZTIKN7android11KeyedVectorIjNS_12MetaDataBase10typed_dataEEE",
   "name" : "const android::KeyedVector<unsigned int, android::MetaDataBase::typed_data>",
   "referenced_type" : "_ZTIN7android11KeyedVectorIjNS_12MetaDataBase10typed_dataEEE",
   "self_type" : "_ZTIKN7android11KeyedVectorIjNS_12MetaDataBase10typed_dataEEE",
   "size" : 20,
   "source_file" : "system/core/libutils/include/utils/KeyedVector.h"
  },
  {
   "alignment" : 4,
   "is_const" : true,
   "linker_set_key" : "_ZTIKN7android12MetaDataBase10typed_dataE",
   "name" : "const android::MetaDataBase::typed_data",
   "referenced_type" : "_ZTIN7android12MetaDataBase10typed_dataE",
   "self_type" : "_ZTIKN7android12MetaDataBase10typed_dataE",
   "size" : 12,
   "source_file" : "system/core/libutils/include/utils/TypeHelpers.h"
  },
  {
   "alignment" : 4,
   "is_const" : true,
   "linker_set_key" : "_ZTIKN7android12MetaDataBaseE",
   "name" : "const android::MetaDataBase",
   "referenced_type" : "_ZTIN7android12MetaDataBaseE",
   "self_type" : "_ZTIKN7android12MetaDataBaseE",
   "size" : 8,
   "source_file" : "frameworks/av/media/libstagefright/include/media/stagefright/MetaDataBase.h"
  },
  {
   "alignment" : 4,
   "is_const" : true,
   "linker_set_key" : "_ZTIKN7android12SortedVectorINS_16key_value_pair_tIjNS_12MetaDataBase10typed_dataEEEEE",
   "name" : "const android::SortedVector<android::key_value_pair_t<unsigned int, android::MetaDataBase::typed_data>>",
   "referenced_type" : "_ZTIN7android12SortedVectorINS_16key_value_pair_tIjNS_12MetaDataBase10typed_dataEEEEE",
   "self_type" : "_ZTIKN7android12SortedVectorINS_16key_value_pair_tIjNS_12MetaDataBase10typed_dataEEEEE",
   "size" : 20,
   "source_file" : "system/core/libutils/include/utils/SortedVector.h"
  },
  {
   "alignment" : 4,
   "is_const" : true,
   "linker_set_key" : "_ZTIKN7android16key_value_pair_tIjNS_12MetaDataBase10typed_dataEEE",
   "name" : "const android::key_value_pair_t<unsigned int, android::MetaDataBase::typed_data>",
   "referenced_type" : "_ZTIN7android16key_value_pair_tIjNS_12MetaDataBase10typed_dataEEE",
   "self_type" : "_ZTIKN7android16key_value_pair_tIjNS_12MetaDataBase10typed_dataEEE",
   "size" : 16,
   "source_file" : "system/core/libutils/include/utils/TypeHelpers.h"
  },
  {
   "alignment" : 4,
   "is_const" : true,
   "linker_set_key" : "_ZTIKN7android7AStringE",
   "name" : "const android::AString",
   "referenced_type" : "_ZTIN7android7AStringE",
   "self_type" : "_ZTIKN7android7AStringE",
   "size" : 12,
   "source_file" : "frameworks/av/media/libstagefright/foundation/include/media/stagefright/foundation/AString.h"
  },
  {
   "alignment" : 4,
   "is_const" : true,
   "linker_set_key" : "_ZTIKN7android7RefBaseE",
   "name" : "const android::RefBase",
   "referenced_type" : "_ZTIN7android7RefBaseE",
   "self_type" : "_ZTIKN7android7RefBaseE",
   "size" : 8,
   "source_file" : "system/core/libutils/include/utils/RefBase.h"
  },
  {
   "alignment" : 4,
   "is_const" : true,
   "linker_set_key" : "_ZTIKN7android7String8E",
   "name" : "const android::String8",
   "referenced_type" : "_ZTIN7android7String8E",
   "self_type" : "_ZTIKN7android7String8E",
   "size" : 4,
   "source_file" : "system/core/libutils/include/utils/String8.h"
  },
  {
   "alignment" : 4,
   "is_const" : true,
   "linker_set_key" : "_ZTIKPKc",
   "name" : "const char *const",
   "referenced_type" : "_ZTIPKc",
   "self_type" : "_ZTIKPKc",
   "size" : 4,
   "source_file" : "frameworks/av/media/libstagefright/foundation/include/media/stagefright/foundation/AString.h"
  },
  {
   "alignment" : 4,
   "is_const" : true,
   "linker_set_key" : "_ZTIKPN7android7RefBase12weakref_implE",
   "name" : "android::RefBase::weakref_impl *const",
   "referenced_type" : "_ZTIPN7android7RefBase12weakref_implE",
   "self_type" : "_ZTIKPN7android7RefBase12weakref_implE",
   "size" : 4,
   "source_file" : "system/core/libutils/include/utils/RefBase.h"
  },
  {
   "alignment" : 1,
   "is_const" : true,
   "linker_set_key" : "_ZTIKa",
   "name" : "const signed char",
   "referenced_type" : "_ZTIa",
   "self_type" : "_ZTIKa",
   "size" : 1,
   "source_file" : "system/core/libutils/include/utils/TypeHelpers.h"
  },
  {
   "alignment" : 1,
   "is_const" : true,
   "linker_set_key" : "_ZTIKb",
   "name" : "const bool",
   "referenced_type" : "_ZTIb",
   "self_type" : "_ZTIKb",
   "size" : 1,
   "source_file" : "system/core/libutils/include/utils/TypeHelpers.h"
  },
  {
   "alignment" : 1,
   "is_const" : true,
   "linker_set_key" : "_ZTIKc",
   "name" : "const char",
   "referenced_type" : "_ZTIc",
   "self_type" : "_ZTIKc",
   "size" : 1,
   "source_file" : "system/logging/liblog/include_vndk/android/log.h"
  },
  {
   "alignment" : 8,
   "is_const" : true,
   "linker_set_key" : "_ZTIKd",
   "name" : "const double",
   "referenced_type" : "_ZTId",
   "self_type" : "_ZTIKd",
   "size" : 8,
   "source_file" : "system/core/libutils/include/utils/TypeHelpers.h"
  },
  {
   "alignment" : 4,
   "is_const" : true,
   "linker_set_key" : "_ZTIKf",
   "name" : "const float",
   "referenced_type" : "_ZTIf",
   "self_type" : "_ZTIKf",
   "size" : 4,
   "source_file" : "system/core/libutils/include/utils/TypeHelpers.h"
  },
  {
   "alignment" : 1,
   "is_const" : true,
   "linker_set_key" : "_ZTIKh",
   "name" : "const unsigned char",
   "referenced_type" : "_ZTIh",
   "self_type" : "_ZTIKh",
   "size" : 1,
   "source_file" : "system/core/libutils/include/utils/TypeHelpers.h"
  },
  {
   "alignment" : 4,
   "is_const" : true,
   "linker_set_key" : "_ZTIKi",
   "name" : "const int",
   "referenced_type" : "_ZTIi",
   "self_type" : "_ZTIKi",
   "size" : 4,
   "source_file" : "system/core/libutils/include/utils/TypeHelpers.h"
  },
  {
   "alignment" : 4,
   "is_const" : true,
   "linker_set_key" : "_ZTIKj",
   "name" : "const unsigned int",
   "referenced_type" : "_ZTIj",
   "self_type" : "_ZTIKj",
   "size" : 4,
   "source_file" : "system/core/libutils/include/utils/TypeHelpers.h"
  },
  {
   "alignment" : 2,
   "is_const" : true,
   "linker_set_key" : "_ZTIKs",
   "name" : "const short",
   "referenced_type" : "_ZTIs",
   "self_type" : "_ZTIKs",
   "size" : 2,
   "source_file" : "system/core/libutils/include/utils/TypeHelpers.h"
  },
  {
   "alignment" : 2,
   "is_const" : true,
   "linker_set_key" : "_ZTIKt",
   "name" : "const unsigned short",
   "referenced_type" : "_ZTIt",
   "self_type" : "_ZTIKt",
   "size" : 2,
   "source_file" : "system/core/libutils/include/utils/TypeHelpers.h"
  },
  {
   "is_const" : true,
   "linker_set_key" : "_ZTIKv",
   "name" : "const void",
   "referenced_type" : "_ZTIv",
   "self_type" : "_ZTIKv",
   "source_file" : "system/core/libutils/include/utils/VectorImpl.h"
  },
  {
   "alignment" : 8,
   "is_const" : true,
   "linker_set_key" : "_ZTIKx",
   "name" : "const long long",
   "referenced_type" : "_ZTIx",
   "self_type" : "_ZTIKx",
   "size" : 8,
   "source_file" : "system/core/libutils/include/utils/TypeHelpers.h"
  },
  {
   "alignment" : 8,
   "is_const" : true,
   "linker_set_key" : "_ZTIKy",
   "name" : "const unsigned long long",
   "referenced_type" : "_ZTIy",
   "self_type" : "_ZTIKy",
   "size" : 8,
   "source_file" : "system/core/libutils/include/utils/TypeHelpers.h"
  }
 ],
 "record_types" :
 [
  {
   "alignment" : 4,
   "fields" :
   [
    {
     "field_name" : "len",
     "referenced_type" : "_ZTIt"
    },
    {
     "field_name" : "hdr_size",
     "field_offset" : 16,
     "referenced_type" : "_ZTIt"
    },
    {
     "field_name" : "pid",
     "field_offset" : 32,
     "referenced_type" : "_ZTIi"
    },
    {
     "field_name" : "tid",
     "field_offset" : 64,
     "referenced_type" : "_ZTIj"
    },
    {
     "field_name" : "sec",
     "field_offset" : 96,
     "referenced_type" : "_ZTIj"
    },
    {
     "field_name" : "nsec",
     "field_offset" : 128,
     "referenced_type" : "_ZTIj"
    },
    {
     "field_name" : "lid",
     "field_offset" : 160,
     "referenced_type" : "_ZTIj"
    },
    {
     "field_name" : "uid",
     "field_offset" : 192,
     "referenced_type" : "_ZTIj"
    }
   ],
   "linker_set_key" : "_ZTI12logger_entry",
   "name" : "logger_entry",
   "referenced_type" : "_ZTI12logger_entry",
   "self_type" : "_ZTI12logger_entry",
   "size" : 28,
   "source_file" : "system/logging/liblog/include_vndk/log/log_read.h"
  },
  {
   "alignment" : 4,
   "fields" :
   [
    {
     "field_name" : "struct_size",
     "referenced_type" : "_ZTIj"
    },
    {
     "field_name" : "buffer_id",
     "field_offset" : 32,
     "referenced_type" : "_ZTIi"
    },
    {
     "field_name" : "priority",
     "field_offset" : 64,
     "referenced_type" : "_ZTIi"
    },
    {
     "field_name" : "tag",
     "field_offset" : 96,
     "referenced_type" : "_ZTIPKc"
    },
    {
     "field_name" : "file",
     "field_offset" : 128,
     "referenced_type" : "_ZTIPKc"
    },
    {
     "field_name" : "line",
     "field_offset" : 160,
     "referenced_type" : "_ZTIj"
    },
    {
     "field_name" : "message",
     "field_offset" : 192,
     "referenced_type" : "_ZTIPKc"
    }
   ],
   "linker_set_key" : "_ZTI21__android_log_message",
   "name" : "__android_log_message",
   "referenced_type" : "_ZTI21__android_log_message",
   "self_type" : "_ZTI21__android_log_message",
   "size" : 28,
   "source_file" : "system/logging/liblog/include_vndk/android/log.h"
  },
  {
   "alignment" : 4,
   "fields" :
   [
    {
     "referenced_type" : "_ZTIN7log_msgUt_E"
    }
   ],
   "linker_set_key" : "_ZTI7log_msg",
   "name" : "log_msg",
   "referenced_type" : "_ZTI7log_msg",
   "self_type" : "_ZTI7log_msg",
   "size" : 5124,
   "source_file" : "system/logging/liblog/include_vndk/log/log_read.h"
  },
  {
   "alignment" : 1,
   "fields" :
   [
    {
     "field_name" : "tv_sec",
     "referenced_type" : "_ZTIj"
    },
    {
     "field_name" : "tv_nsec",
     "field_offset" : 32,
     "referenced_type" : "_ZTIj"
    }
   ],
   "linker_set_key" : "_ZTI8log_time",
   "name" : "log_time",
   "referenced_type" : "_ZTI8log_time",
   "self_type" : "_ZTI8log_time",
   "size" : 8,
   "source_file" : "system/logging/liblog/include_vndk/log/log_time.h"
  },
  {
   "alignment" : 4,
   "fields" :
   [
    {
     "access" : "private",
     "field_name" : "mStorage",
     "field_offset" : 32,
     "referenced_type" : "_ZTIPv"
    },
    {
     "access" : "private",
     "field_name" : "mCount",
     "field_offset" : 64,
     "referenced_type" : "_ZTIj"
    },
    {
     "access" : "private",
     "field_name" : "mFlags",
     "field_offset" : 96,
     "referenced_type" : "_ZTIKj"
    },
    {
     "access" : "private",
     "field_name" : "mItemSize",
     "field_offset" : 128,
     "referenced_type" : "_ZTIKj"
    }
   ],
   "linker_set_key" : "_ZTIN7android10VectorImplE",
   "name" : "android::VectorImpl",
   "record_kind" : "class",
   "referenced_type" : "_ZTIN7android10VectorImplE",
   "self_type" : "_ZTIN7android10VectorImplE",
   "size" : 20,
   "source_file" : "system/core/libutils/include/utils/VectorImpl.h",
   "vtable_components" :
   [
    {
     "kind" : "offset_to_top"
    },
    {
     "kind" : "rtti",
     "mangled_component_name" : "_ZTIN7android10VectorImplE"
    },
    {
     "kind" : "complete_dtor_pointer",
     "mangled_component_name" : "_ZN7android10VectorImplD1Ev"
    },
    {
     "kind" : "deleting_dtor_pointer",
     "mangled_component_name" : "_ZN7android10VectorImplD0Ev"
    },
    {
     "is_pure" : true,
     "mangled_component_name" : "_ZNK7android10VectorImpl12do_constructEPvj"
    },
    {
     "is_pure" : true,
     "mangled_component_name" : "_ZNK7android10VectorImpl10do_destroyEPvj"
    },
    {
     "is_pure" : true,
     "mangled_component_name" : "_ZNK7android10VectorImpl7do_copyEPvPKvj"
    },
    {
     "is_pure" : true,
     "mangled_component_name" : "_ZNK7android10VectorImpl8do_splatEPvPKvj"
    },
    {
     "is_pure" : true,
     "mangled_component_name" : "_ZNK7android10VectorImpl15do_move_forwardEPvPKvj"
    },
    {
     "is_pure" : true,
     "mangled_component_name" : "_ZNK7android10VectorImpl16do_move_backwardEPvPKvj"
    }
   ]
  },
  {
   "alignment" : 4,
   "fields" :
   [
    {
     "access" : "private",
     "field_name" : "mVector",
     "referenced_type" : "_ZTIN7android12SortedVectorINS_16key_value_pair_tIjNS_12MetaDataBase10typed_dataEEEEE"
    }
   ],
   "linker_set_key" : "_ZTIN7android11KeyedVectorIjNS_12MetaDataBase10typed_dataEEE",
   "name" : "android::KeyedVector<unsigned int, android::MetaDataBase::typed_data>",
   "record_kind" : "class",
   "referenced_type" : "_ZTIN7android11KeyedVectorIjNS_12MetaDataBase10typed_dataEEE",
   "self_type" : "_ZTIN7android11KeyedVectorIjNS_12MetaDataBase10typed_dataEEE",
   "size" : 20,
   "source_file" : "system/core/libutils/include/utils/KeyedVector.h",
   "template_args" : [ "_ZTIj", "_ZTIN7android12MetaDataBase10typed_dataE" ]
  },
  {
   "alignment" : 4,
   "fields" :
   [
    {
     "access" : "private",
     "field_name" : "mCount",
     "referenced_type" : "_ZTINSt3__16atomicIiEE"
    }
   ],
   "linker_set_key" : "_ZTIN7android12LightRefBaseINS_19VirtualLightRefBaseEEE",
   "name" : "android::LightRefBase<android::VirtualLightRefBase>",
   "record_kind" : "class",
   "referenced_type" : "_ZTIN7android12LightRefBaseINS_19VirtualLightRefBaseEEE",
   "self_type" : "_ZTIN7android12LightRefBaseINS_19VirtualLightRefBaseEEE",
   "size" : 4,
   "source_file" : "system/core/libutils/include/utils/LightRefBase.h",
   "template_args" : [ "_ZTIN7android19VirtualLightRefBaseE" ]
  },
  {
   "alignment" : 4,
   "fields" :
   [
    {
     "access" : "private",
     "field_name" : "mInternalData",
     "field_offset" : 32,
     "referenced_type" : "_ZTIPN7android12MetaDataBase16MetaDataInternalE"
    }
   ],
   "linker_set_key" : "_ZTIN7android12MetaDataBaseE",
   "name" : "android::MetaDataBase",
   "record_kind" : "class",
   "referenced_type" : "_ZTIN7android12MetaDataBaseE",
   "self_type" : "_ZTIN7android12MetaDataBaseE",
   "size" : 8,
   "source_file" : "frameworks/av/media/libstagefright/include/media/stagefright/MetaDataBase.h",
   "vtable_components" :
   [
    {
     "kind" : "offset_to_top"
    },
    {
     "kind" : "rtti",
     "mangled_component_name" : "_ZTIN7android12MetaDataBaseE"
    },
    {
     "kind" : "complete_dtor_pointer",
     "mangled_component_name" : "_ZN7android12MetaDataBaseD1Ev"
    },
    {
     "kind" : "deleting_dtor_pointer",
     "mangled_component_name" : "_ZN7android12MetaDataBaseD0Ev"
    }
   ]
  },
  {
   "alignment" : 4,
   "base_specifiers" :
   [
    {
     "access" : "private",
     "referenced_type" : "_ZTIN7android16SortedVectorImplE"
    }
   ],
   "linker_set_key" : "_ZTIN7android12SortedVectorINS_16key_value_pair_tIjNS_12MetaDataBase10typed_dataEEEEE",
   "name" : "android::SortedVector<android::key_value_pair_t<unsigned int, android::MetaDataBase::typed_data>>",
   "record_kind" : "class",
   "referenced_type" : "_ZTIN7android12SortedVectorINS_16key_value_pair_tIjNS_12MetaDataBase10typed_dataEEEEE",
   "self_type" : "_ZTIN7android12SortedVectorINS_16key_value_pair_tIjNS_12MetaDataBase10typed_dataEEEEE",
   "size" : 20,
   "source_file" : "system/core/libutils/include/utils/SortedVector.h",
   "template_args" : [ "_ZTIN7android16key_value_pair_tIjNS_12MetaDataBase10typed_dataEEE" ],
   "vtable_components" :
   [
    {
     "kind" : "offset_to_top"
    },
    {
     "kind" : "rtti",
     "mangled_component_name" : "_ZTIN7android12SortedVectorINS_16key_value_pair_tIjNS_12MetaDataBase10typed_dataEEEEE"
    },
    {
     "kind" : "complete_dtor_pointer",
     "mangled_component_name" : "_ZN7android12SortedVectorINS_16key_value_pair_tIjNS_12MetaDataBase10typed_dataEEEED1Ev"
    },
    {
     "kind" : "deleting_dtor_pointer",
     "mangled_component_name" : "_ZN7android12SortedVectorINS_16key_value_pair_tIjNS_12MetaDataBase10typed_dataEEEED0Ev"
    },
    {
     "mangled_component_name" : "_ZNK7android12SortedVectorINS_16key_value_pair_tIjNS_12MetaDataBase10typed_dataEEEE12do_constructEPvj"
    },
    {
     "mangled_component_name" : "_ZNK7android12SortedVectorINS_16key_value_pair_tIjNS_12MetaDataBase10typed_dataEEEE10do_destroyEPvj"
    },
    {
     "mangled_component_name" : "_ZNK7android12SortedVectorINS_16key_value_pair_tIjNS_12MetaDataBase10typed_dataEEEE7do_copyEPvPKvj"
    },
    {
     "mangled_component_name" : "_ZNK7android12SortedVectorINS_16key_value_pair_tIjNS_12MetaDataBase10typed_dataEEEE8do_splatEPvPKvj"
    },
    {
     "mangled_component_name" : "_ZNK7android12SortedVectorINS_16key_value_pair_tIjNS_12MetaDataBase10typed_dataEEEE15do_move_forwardEPvPKvj"
    },
    {
     "mangled_component_name" : "_ZNK7android12SortedVectorINS_16key_value_pair_tIjNS_12MetaDataBase10typed_dataEEEE16do_move_backwardEPvPKvj"
    },
    {
     "mangled_component_name" : "_ZNK7android12SortedVectorINS_16key_value_pair_tIjNS_12MetaDataBase10typed_dataEEEE10do_compareEPKvS7_"
    }
   ]
  },
  {
   "alignment" : 1,
   "linker_set_key" : "_ZTIN7android13trait_pointerINS_12MetaDataBase10typed_dataEEE",
   "name" : "android::trait_pointer<android::MetaDataBase::typed_data>",
   "referenced_type" : "_ZTIN7android13trait_pointerINS_12MetaDataBase10typed_dataEEE",
   "self_type" : "_ZTIN7android13trait_pointerINS_12MetaDataBase10typed_dataEEE",
   "size" : 1,
   "source_file" : "system/core/libutils/include/utils/TypeHelpers.h",
   "template_args" : [ "_ZTIN7android12MetaDataBase10typed_dataE" ]
  },
  {
   "alignment" : 1,
   "linker_set_key" : "_ZTIN7android13trait_pointerINS_16key_value_pair_tIjNS_12MetaDataBase10typed_dataEEEEE",
   "name" : "android::trait_pointer<android::key_value_pair_t<unsigned int, android::MetaDataBase::typed_data>>",
   "referenced_type" : "_ZTIN7android13trait_pointerINS_16key_value_pair_tIjNS_12MetaDataBase10typed_dataEEEEE",
   "self_type" : "_ZTIN7android13trait_pointerINS_16key_value_pair_tIjNS_12MetaDataBase10typed_dataEEEEE",
   "size" : 1,
   "source_file" : "system/core/libutils/include/utils/TypeHelpers.h",
   "template_args" : [ "_ZTIN7android16key_value_pair_tIjNS_12MetaDataBase10typed_dataEEE" ]
  },
  {
   "alignment" : 1,
   "linker_set_key" : "_ZTIN7android13trait_pointerIjEE",
   "name" : "android::trait_pointer<unsigned int>",
   "referenced_type" : "_ZTIN7android13trait_pointerIjEE",
   "self_type" : "_ZTIN7android13trait_pointerIjEE",
   "size" : 1,
   "source_file" : "system/core/libutils/include/utils/TypeHelpers.h",
   "template_args" : [ "_ZTIj" ]
  },
  {
   "alignment" : 1,
   "linker_set_key" : "_ZTIN7android14ReferenceMoverE",
   "name" : "android::ReferenceMover",
   "record_kind" : "class",
   "referenced_type" : "_ZTIN7android14ReferenceMoverE",
   "self_type" : "_ZTIN7android14ReferenceMoverE",
   "size" : 1,
   "source_file" : "system/core/libutils/include/utils/RefBase.h"
  },
  {
   "alignment" : 4,
   "linker_set_key" : "_ZTIN7android16ReferenceRenamerE",
   "name" : "android::ReferenceRenamer",
   "record_kind" : "class",
   "referenced_type" : "_ZTIN7android16ReferenceRenamerE",
   "self_type" : "_ZTIN7android16ReferenceRenamerE",
   "size" : 4,
   "source_file" : "system/core/libutils/include/utils/RefBase.h",
   "vtable_components" :
   [
    {
     "kind" : "offset_to_top"
    },
    {
     "kind" : "rtti",
     "mangled_component_name" : "_ZTIN7android16ReferenceRenamerE"
    },
    {
     "is_pure" : true,
     "mangled_component_name" : "_ZNK7android16ReferenceRenamerclEj"
    }
   ]
  },
  {
   "alignment" : 4,
   "base_specifiers" :
   [
    {
     "referenced_type" : "_ZTIN7android10VectorImplE"
    }
   ],
   "linker_set_key" : "_ZTIN7android16SortedVectorImplE",
   "name" : "android::SortedVectorImpl",
   "record_kind" : "class",
   "referenced_type" : "_ZTIN7android16SortedVectorImplE",
   "self_type" : "_ZTIN7android16SortedVectorImplE",
   "size" : 20,
   "source_file" : "system/core/libutils/include/utils/VectorImpl.h",
   "vtable_components" :
   [
    {
     "kind" : "offset_to_top"
    },
    {
     "kind" : "rtti",
     "mangled_component_name" : "_ZTIN7android16SortedVectorImplE"
    },
    {
     "kind" : "complete_dtor_pointer",
     "mangled_component_name" : "_ZN7android16SortedVectorImplD1Ev"
    },
    {
     "kind" : "deleting_dtor_pointer",
     "mangled_component_name" : "_ZN7android16SortedVectorImplD0Ev"
    },
    {
     "is_pure" : true,
     "mangled_component_name" : "_ZNK7android10VectorImpl12do_constructEPvj"
    },
    {
     "is_pure" : true,
     "mangled_component_name" : "_ZNK7android10VectorImpl10do_destroyEPvj"
    },
    {
     "is_pure" : true,
     "mangled_component_name" : "_ZNK7android10VectorImpl7do_copyEPvPKvj"
    },
    {
     "is_pure" : true,
     "mangled_component_name" : "_ZNK7android10VectorImpl8do_splatEPvPKvj"
    },
    {
     "is_pure" : true,
     "mangled_component_name" : "_ZNK7android10VectorImpl15do_move_forwardEPvPKvj"
    },
    {
     "is_pure" : true,
     "mangled_component_name" : "_ZNK7android10VectorImpl16do_move_backwardEPvPKvj"
    },
    {
     "is_pure" : true,
     "mangled_component_name" : "_ZNK7android16SortedVectorImpl10do_compareEPKvS2_"
    }
   ]
  },
  {
   "alignment" : 1,
   "linker_set_key" : "_ZTIN7android16aggregate_traitsIjNS_12MetaDataBase10typed_dataEEE",
   "name" : "android::aggregate_traits<unsigned int, android::MetaDataBase::typed_data>",
   "referenced_type" : "_ZTIN7android16aggregate_traitsIjNS_12MetaDataBase10typed_dataEEE",
   "self_type" : "_ZTIN7android16aggregate_traitsIjNS_12MetaDataBase10typed_dataEEE",
   "size" : 1,
   "source_file" : "system/core/libutils/include/utils/TypeHelpers.h",
   "template_args" : [ "_ZTIj", "_ZTIN7android12MetaDataBase10typed_dataE" ]
  },
  {
   "alignment" : 4,
   "fields" :
   [
    {
     "field_name" : "key",
     "referenced_type" : "_ZTIj"
    },
    {
     "field_name" : "value",
     "field_offset" : 32,
     "referenced_type" : "_ZTIN7android12MetaDataBase10typed_dataE"
    }
   ],
   "linker_set_key" : "_ZTIN7android16key_value_pair_tIjNS_12MetaDataBase10typed_dataEEE",
   "name" : "android::key_value_pair_t<unsigned int, android::MetaDataBase::typed_data>",
   "referenced_type" : "_ZTIN7android16key_value_pair_tIjNS_12MetaDataBase10typed_dataEEE",
   "self_type" : "_ZTIN7android16key_value_pair_tIjNS_12MetaDataBase10typed_dataEEE",
   "size" : 16,
   "source_file" : "system/core/libutils/include/utils/TypeHelpers.h",
   "template_args" : [ "_ZTIj", "_ZTIN7android12MetaDataBase10typed_dataE" ]
  },
  {
   "alignment" : 1,
   "base_specifiers" :
   [
    {
     "referenced_type" : "_ZTINSt3__117integral_constantIbLb0EEE"
    }
   ],
   "linker_set_key" : "_ZTIN7android16use_trivial_moveINS_16key_value_pair_tIjNS_12MetaDataBase10typed_dataEEEEE",
   "name" : "android::use_trivial_move<android::key_value_pair_t<unsigned int, android::MetaDataBase::typed_data>>",
   "referenced_type" : "_ZTIN7android16use_trivial_moveINS_16key_value_pair_tIjNS_12MetaDataBase10typed_dataEEEEE",
   "self_type" : "_ZTIN7android16use_trivial_moveINS_16key_value_pair_tIjNS_12MetaDataBase10typed_dataEEEEE",
   "size" : 1,
   "source_file" : "system/core/libutils/include/utils/TypeHelpers.h",
   "template_args" : [ "_ZTIN7android16key_value_pair_tIjNS_12MetaDataBase10typed_dataEEE" ]
  },
  {
   "alignment" : 1,
   "linker_set_key" : "_ZTIN7android18trait_trivial_copyINS_12MetaDataBase10typed_dataEEE",
   "name" : "android::trait_trivial_copy<android::MetaDataBase::typed_data>",
   "referenced_type" : "_ZTIN7android18trait_trivial_copyINS_12MetaDataBase10typed_dataEEE",
   "self_type" : "_ZTIN7android18trait_trivial_copyINS_12MetaDataBase10typed_dataEEE",
   "size" : 1,
   "source_file" : "system/core/libutils/include/utils/TypeHelpers.h",
   "template_args" : [ "_ZTIN7android12MetaDataBase10typed_dataE" ]
  },
  {
   "alignment" : 1,
   "linker_set_key" : "_ZTIN7android18trait_trivial_copyINS_16key_value_pair_tIjNS_12MetaDataBase10typed_dataEEEEE",
   "name" : "android::trait_trivial_copy<android::key_value_pair_t<unsigned int, android::MetaDataBase::typed_data>>",
   "referenced_type" : "_ZTIN7android18trait_trivial_copyINS_16key_value_pair_tIjNS_12MetaDataBase10typed_dataEEEEE",
   "self_type" : "_ZTIN7android18trait_trivial_copyINS_16key_value_pair_tIjNS_12MetaDataBase10typed_dataEEEEE",
   "size" : 1,
   "source_file" : "system/core/libutils/include/utils/TypeHelpers.h",
   "template_args" : [ "_ZTIN7android16key_value_pair_tIjNS_12MetaDataBase10typed_dataEEE" ]
  },
  {
   "alignment" : 1,
   "linker_set_key" : "_ZTIN7android18trait_trivial_copyIbEE",
   "name" : "android::trait_trivial_copy<bool>",
   "referenced_type" : "_ZTIN7android18trait_trivial_copyIbEE",
   "self_type" : "_ZTIN7android18trait_trivial_copyIbEE",
   "size" : 1,
   "source_file" : "system/core/libutils/include/utils/TypeHelpers.h",
   "template_args" : [ "_ZTIb" ]
  },
  {
   "alignment" : 1,
   "linker_set_key" : "_ZTIN7android18trait_trivial_copyIcEE",
   "name" : "android::trait_trivial_copy<char>",
   "referenced_type" : "_ZTIN7android18trait_trivial_copyIcEE",
   "self_type" : "_ZTIN7android18trait_trivial_copyIcEE",
   "size" : 1,
   "source_file" : "system/core/libutils/include/utils/TypeHelpers.h",
   "template_args" : [ "_ZTIc" ]
  },
  {
   "alignment" : 1,
   "linker_set_key" : "_ZTIN7android18trait_trivial_copyIdEE",
   "name" : "android::trait_trivial_copy<double>",
   "referenced_type" : "_ZTIN7android18trait_trivial_copyIdEE",
   "self_type" : "_ZTIN7android18trait_trivial_copyIdEE",
   "size" : 1,
   "source_file" : "system/core/libutils/include/utils/TypeHelpers.h",
   "template_args" : [ "_ZTId" ]
  },
  {
   "alignment" : 1,
   "linker_set_key" : "_ZTIN7android18trait_trivial_copyIfEE",
   "name" : "android::trait_trivial_copy<float>",
   "referenced_type" : "_ZTIN7android18trait_trivial_copyIfEE",
   "self_type" : "_ZTIN7android18trait_trivial_copyIfEE",
   "size" : 1,
   "source_file" : "system/core/libutils/include/utils/TypeHelpers.h",
   "template_args" : [ "_ZTIf" ]
  },
  {
   "alignment" : 1,
   "linker_set_key" : "_ZTIN7android18trait_trivial_copyIhEE",
   "name" : "android::trait_trivial_copy<unsigned char>",
   "referenced_type" : "_ZTIN7android18trait_trivial_copyIhEE",
   "self_type" : "_ZTIN7android18trait_trivial_copyIhEE",
   "size" : 1,
   "source_file" : "system/core/libutils/include/utils/TypeHelpers.h",
   "template_args" : [ "_ZTIh" ]
  },
  {
   "alignment" : 1,
   "linker_set_key" : "_ZTIN7android18trait_trivial_copyIiEE",
   "name" : "android::trait_trivial_copy<int>",
   "referenced_type" : "_ZTIN7android18trait_trivial_copyIiEE",
   "self_type" : "_ZTIN7android18trait_trivial_copyIiEE",
   "size" : 1,
   "source_file" : "system/core/libutils/include/utils/TypeHelpers.h",
   "template_args" : [ "_ZTIi" ]
  },
  {
   "alignment" : 1,
   "linker_set_key" : "_ZTIN7android18trait_trivial_copyIjEE",
   "name" : "android::trait_trivial_copy<unsigned int>",
   "referenced_type" : "_ZTIN7android18trait_trivial_copyIjEE",
   "self_type" : "_ZTIN7android18trait_trivial_copyIjEE",
   "size" : 1,
   "source_file" : "system/core/libutils/include/utils/TypeHelpers.h",
   "template_args" : [ "_ZTIj" ]
  },
  {
   "alignment" : 1,
   "linker_set_key" : "_ZTIN7android18trait_trivial_copyIlEE",
   "name" : "android::trait_trivial_copy<long>",
   "referenced_type" : "_ZTIN7android18trait_trivial_copyIlEE",
   "self_type" : "_ZTIN7android18trait_trivial_copyIlEE",
   "size" : 1,
   "source_file" : "system/core/libutils/include/utils/TypeHelpers.h",
   "template_args" : [ "_ZTIl" ]
  },
  {
   "alignment" : 1,
   "linker_set_key" : "_ZTIN7android18trait_trivial_copyImEE",
   "name" : "android::trait_trivial_copy<unsigned long>",
   "referenced_type" : "_ZTIN7android18trait_trivial_copyImEE",
   "self_type" : "_ZTIN7android18trait_trivial_copyImEE",
   "size" : 1,
   "source_file" : "system/core/libutils/include/utils/TypeHelpers.h",
   "template_args" : [ "_ZTIm" ]
  },
  {
   "alignment" : 1,
   "linker_set_key" : "_ZTIN7android18trait_trivial_copyIsEE",
   "name" : "android::trait_trivial_copy<short>",
   "referenced_type" : "_ZTIN7android18trait_trivial_copyIsEE",
   "self_type" : "_ZTIN7android18trait_trivial_copyIsEE",
   "size" : 1,
   "source_file" : "system/core/libutils/include/utils/TypeHelpers.h",
   "template_args" : [ "_ZTIs" ]
  },
  {
   "alignment" : 1,
   "linker_set_key" : "_ZTIN7android18trait_trivial_copyItEE",
   "name" : "android::trait_trivial_copy<unsigned short>",
   "referenced_type" : "_ZTIN7android18trait_trivial_copyItEE",
   "self_type" : "_ZTIN7android18trait_trivial_copyItEE",
   "size" : 1,
   "source_file" : "system/core/libutils/include/utils/TypeHelpers.h",
   "template_args" : [ "_ZTIt" ]
  },
  {
   "alignment" : 1,
   "linker_set_key" : "_ZTIN7android18trait_trivial_copyIvEE",
   "name" : "android::trait_trivial_copy<void>",
   "referenced_type" : "_ZTIN7android18trait_trivial_copyIvEE",
   "self_type" : "_ZTIN7android18trait_trivial_copyIvEE",
   "size" : 1,
   "source_file" : "system/core/libutils/include/utils/TypeHelpers.h",
   "template_args" : [ "_ZTIv" ]
  },
  {
   "alignment" : 1,
   "linker_set_key" : "_ZTIN7android18trait_trivial_copyIxEE",
   "name" : "android::trait_trivial_copy<long long>",
   "referenced_type" : "_ZTIN7android18trait_trivial_copyIxEE",
   "self_type" : "_ZTIN7android18trait_trivial_copyIxEE",
   "size" : 1,
   "source_file" : "system/core/libutils/include/utils/TypeHelpers.h",
   "template_args" : [ "_ZTIx" ]
  },
  {
   "alignment" : 1,
   "linker_set_key" : "_ZTIN7android18trait_trivial_copyIyEE",
   "name" : "android::trait_trivial_copy<unsigned long long>",
   "referenced_type" : "_ZTIN7android18trait_trivial_copyIyEE",
   "self_type" : "_ZTIN7android18trait_trivial_copyIyEE",
   "size" : 1,
   "source_file" : "system/core/libutils/include/utils/TypeHelpers.h",
   "template_args" : [ "_ZTIy" ]
  },
  {
   "alignment" : 1,
   "linker_set_key" : "_ZTIN7android18trait_trivial_ctorINS_12MetaDataBase10typed_dataEEE",
   "name" : "android::trait_trivial_ctor<android::MetaDataBase::typed_data>",
   "referenced_type" : "_ZTIN7android18trait_trivial_ctorINS_12MetaDataBase10typed_dataEEE",
   "self_type" : "_ZTIN7android18trait_trivial_ctorINS_12MetaDataBase10typed_dataEEE",
   "size" : 1,
   "source_file" : "system/core/libutils/include/utils/TypeHelpers.h",
   "template_args" : [ "_ZTIN7android12MetaDataBase10typed_dataE" ]
  },
  {
   "alignment" : 1,
   "linker_set_key" : "_ZTIN7android18trait_trivial_ctorINS_16key_value_pair_tIjNS_12MetaDataBase10typed_dataEEEEE",
   "name" : "android::trait_trivial_ctor<android::key_value_pair_t<unsigned int, android::MetaDataBase::typed_data>>",
   "referenced_type" : "_ZTIN7android18trait_trivial_ctorINS_16key_value_pair_tIjNS_12MetaDataBase10typed_dataEEEEE",
   "self_type" : "_ZTIN7android18trait_trivial_ctorINS_16key_value_pair_tIjNS_12MetaDataBase10typed_dataEEEEE",
   "size" : 1,
   "source_file" : "system/core/libutils/include/utils/TypeHelpers.h",
   "template_args" : [ "_ZTIN7android16key_value_pair_tIjNS_12MetaDataBase10typed_dataEEE" ]
  },
  {
   "alignment" : 1,
   "linker_set_key" : "_ZTIN7android18trait_trivial_ctorIbEE",
   "name" : "android::trait_trivial_ctor<bool>",
   "referenced_type" : "_ZTIN7android18trait_trivial_ctorIbEE",
   "self_type" : "_ZTIN7android18trait_trivial_ctorIbEE",
   "size" : 1,
   "source_file" : "system/core/libutils/include/utils/TypeHelpers.h",
   "template_args" : [ "_ZTIb" ]
  },
  {
   "alignment" : 1,
   "linker_set_key" : "_ZTIN7android18trait_trivial_ctorIcEE",
   "name" : "android::trait_trivial_ctor<char>",
   "referenced_type" : "_ZTIN7android18trait_trivial_ctorIcEE",
   "self_type" : "_ZTIN7android18trait_trivial_ctorIcEE",
   "size" : 1,
   "source_file" : "system/core/libutils/include/utils/TypeHelpers.h",
   "template_args" : [ "_ZTIc" ]
  },
  {
   "alignment" : 1,
   "linker_set_key" : "_ZTIN7android18trait_trivial_ctorIdEE",
   "name" : "android::trait_trivial_ctor<double>",
   "referenced_type" : "_ZTIN7android18trait_trivial_ctorIdEE",
   "self_type" : "_ZTIN7android18trait_trivial_ctorIdEE",
   "size" : 1,
   "source_file" : "system/core/libutils/include/utils/TypeHelpers.h",
   "template_args" : [ "_ZTId" ]
  },
  {
   "alignment" : 1,
   "linker_set_key" : "_ZTIN7android18trait_trivial_ctorIfEE",
   "name" : "android::trait_trivial_ctor<float>",
   "referenced_type" : "_ZTIN7android18trait_trivial_ctorIfEE",
   "self_type" : "_ZTIN7android18trait_trivial_ctorIfEE",
   "size" : 1,
   "source_file" : "system/core/libutils/include/utils/TypeHelpers.h",
   "template_args" : [ "_ZTIf" ]
  },
  {
   "alignment" : 1,
   "linker_set_key" : "_ZTIN7android18trait_trivial_ctorIhEE",
   "name" : "android::trait_trivial_ctor<unsigned char>",
   "referenced_type" : "_ZTIN7android18trait_trivial_ctorIhEE",
   "self_type" : "_ZTIN7android18trait_trivial_ctorIhEE",
   "size" : 1,
   "source_file" : "system/core/libutils/include/utils/TypeHelpers.h",
   "template_args" : [ "_ZTIh" ]
  },
  {
   "alignment" : 1,
   "linker_set_key" : "_ZTIN7android18trait_trivial_ctorIiEE",
   "name" : "android::trait_trivial_ctor<int>",
   "referenced_type" : "_ZTIN7android18trait_trivial_ctorIiEE",
   "self_type" : "_ZTIN7android18trait_trivial_ctorIiEE",
   "size" : 1,
   "source_file" : "system/core/libutils/include/utils/TypeHelpers.h",
   "template_args" : [ "_ZTIi" ]
  },
  {
   "alignment" : 1,
   "linker_set_key" : "_ZTIN7android18trait_trivial_ctorIjEE",
   "name" : "android::trait_trivial_ctor<unsigned int>",
   "referenced_type" : "_ZTIN7android18trait_trivial_ctorIjEE",
   "self_type" : "_ZTIN7android18trait_trivial_ctorIjEE",
   "size" : 1,
   "source_file" : "system/core/libutils/include/utils/TypeHelpers.h",
   "template_args" : [ "_ZTIj" ]
  },
  {
   "alignment" : 1,
   "linker_set_key" : "_ZTIN7android18trait_trivial_ctorIlEE",
   "name" : "android::trait_trivial_ctor<long>",
   "referenced_type" : "_ZTIN7android18trait_trivial_ctorIlEE",
   "self_type" : "_ZTIN7android18trait_trivial_ctorIlEE",
   "size" : 1,
   "source_file" : "system/core/libutils/include/utils/TypeHelpers.h",
   "template_args" : [ "_ZTIl" ]
  },
  {
   "alignment" : 1,
   "linker_set_key" : "_ZTIN7android18trait_trivial_ctorImEE",
   "name" : "android::trait_trivial_ctor<unsigned long>",
   "referenced_type" : "_ZTIN7android18trait_trivial_ctorImEE",
   "self_type" : "_ZTIN7android18trait_trivial_ctorImEE",
   "size" : 1,
   "source_file" : "system/core/libutils/include/utils/TypeHelpers.h",
   "template_args" : [ "_ZTIm" ]
  },
  {
   "alignment" : 1,
   "linker_set_key" : "_ZTIN7android18trait_trivial_ctorIsEE",
   "name" : "android::trait_trivial_ctor<short>",
   "referenced_type" : "_ZTIN7android18trait_trivial_ctorIsEE",
   "self_type" : "_ZTIN7android18trait_trivial_ctorIsEE",
   "size" : 1,
   "source_file" : "system/core/libutils/include/utils/TypeHelpers.h",
   "template_args" : [ "_ZTIs" ]
  },
  {
   "alignment" : 1,
   "linker_set_key" : "_ZTIN7android18trait_trivial_ctorItEE",
   "name" : "android::trait_trivial_ctor<unsigned short>",
   "referenced_type" : "_ZTIN7android18trait_trivial_ctorItEE",
   "self_type" : "_ZTIN7android18trait_trivial_ctorItEE",
   "size" : 1,
   "source_file" : "system/core/libutils/include/utils/TypeHelpers.h",
   "template_args" : [ "_ZTIt" ]
  },
  {
   "alignment" : 1,
   "linker_set_key" : "_ZTIN7android18trait_trivial_ctorIvEE",
   "name" : "android::trait_trivial_ctor<void>",
   "referenced_type" : "_ZTIN7android18trait_trivial_ctorIvEE",
   "self_type" : "_ZTIN7android18trait_trivial_ctorIvEE",
   "size" : 1,
   "source_file" : "system/core/libutils/include/utils/TypeHelpers.h",
   "template_args" : [ "_ZTIv" ]
  },
  {
   "alignment" : 1,
   "linker_set_key" : "_ZTIN7android18trait_trivial_ctorIxEE",
   "name" : "android::trait_trivial_ctor<long long>",
   "referenced_type" : "_ZTIN7android18trait_trivial_ctorIxEE",
   "self_type" : "_ZTIN7android18trait_trivial_ctorIxEE",
   "size" : 1,
   "source_file" : "system/core/libutils/include/utils/TypeHelpers.h",
   "template_args" : [ "_ZTIx" ]
  },
  {
   "alignment" : 1,
   "linker_set_key" : "_ZTIN7android18trait_trivial_ctorIyEE",
   "name" : "android::trait_trivial_ctor<unsigned long long>",
   "referenced_type" : "_ZTIN7android18trait_trivial_ctorIyEE",
   "self_type" : "_ZTIN7android18trait_trivial_ctorIyEE",
   "size" : 1,
   "source_file" : "system/core/libutils/include/utils/TypeHelpers.h",
   "template_args" : [ "_ZTIy" ]
  },
  {
   "alignment" : 1,
   "linker_set_key" : "_ZTIN7android18trait_trivial_dtorINS_12MetaDataBase10typed_dataEEE",
   "name" : "android::trait_trivial_dtor<android::MetaDataBase::typed_data>",
   "referenced_type" : "_ZTIN7android18trait_trivial_dtorINS_12MetaDataBase10typed_dataEEE",
   "self_type" : "_ZTIN7android18trait_trivial_dtorINS_12MetaDataBase10typed_dataEEE",
   "size" : 1,
   "source_file" : "system/core/libutils/include/utils/TypeHelpers.h",
   "template_args" : [ "_ZTIN7android12MetaDataBase10typed_dataE" ]
  },
  {
   "alignment" : 1,
   "linker_set_key" : "_ZTIN7android18trait_trivial_dtorINS_16key_value_pair_tIjNS_12MetaDataBase10typed_dataEEEEE",
   "name" : "android::trait_trivial_dtor<android::key_value_pair_t<unsigned int, android::MetaDataBase::typed_data>>",
   "referenced_type" : "_ZTIN7android18trait_trivial_dtorINS_16key_value_pair_tIjNS_12MetaDataBase10typed_dataEEEEE",
   "self_type" : "_ZTIN7android18trait_trivial_dtorINS_16key_value_pair_tIjNS_12MetaDataBase10typed_dataEEEEE",
   "size" : 1,
   "source_file" : "system/core/libutils/include/utils/TypeHelpers.h",
   "template_args" : [ "_ZTIN7android16key_value_pair_tIjNS_12MetaDataBase10typed_dataEEE" ]
  },
  {
   "alignment" : 1,
   "linker_set_key" : "_ZTIN7android18trait_trivial_dtorIbEE",
   "name" : "android::trait_trivial_dtor<bool>",
   "referenced_type" : "_ZTIN7android18trait_trivial_dtorIbEE",
   "self_type" : "_ZTIN7android18trait_trivial_dtorIbEE",
   "size" : 1,
   "source_file" : "system/core/libutils/include/utils/TypeHelpers.h",
   "template_args" : [ "_ZTIb" ]
  },
  {
   "alignment" : 1,
   "linker_set_key" : "_ZTIN7android18trait_trivial_dtorIcEE",
   "name" : "android::trait_trivial_dtor<char>",
   "referenced_type" : "_ZTIN7android18trait_trivial_dtorIcEE",
   "self_type" : "_ZTIN7android18trait_trivial_dtorIcEE",
   "size" : 1,
   "source_file" : "system/core/libutils/include/utils/TypeHelpers.h",
   "template_args" : [ "_ZTIc" ]
  },
  {
   "alignment" : 1,
   "linker_set_key" : "_ZTIN7android18trait_trivial_dtorIdEE",
   "name" : "android::trait_trivial_dtor<double>",
   "referenced_type" : "_ZTIN7android18trait_trivial_dtorIdEE",
   "self_type" : "_ZTIN7android18trait_trivial_dtorIdEE",
   "size" : 1,
   "source_file" : "system/core/libutils/include/utils/TypeHelpers.h",
   "template_args" : [ "_ZTId" ]
  },
  {
   "alignment" : 1,
   "linker_set_key" : "_ZTIN7android18trait_trivial_dtorIfEE",
   "name" : "android::trait_trivial_dtor<float>",
   "referenced_type" : "_ZTIN7android18trait_trivial_dtorIfEE",
   "self_type" : "_ZTIN7android18trait_trivial_dtorIfEE",
   "size" : 1,
   "source_file" : "system/core/libutils/include/utils/TypeHelpers.h",
   "template_args" : [ "_ZTIf" ]
  },
  {
   "alignment" : 1,
   "linker_set_key" : "_ZTIN7android18trait_trivial_dtorIhEE",
   "name" : "android::trait_trivial_dtor<unsigned char>",
   "referenced_type" : "_ZTIN7android18trait_trivial_dtorIhEE",
   "self_type" : "_ZTIN7android18trait_trivial_dtorIhEE",
   "size" : 1,
   "source_file" : "system/core/libutils/include/utils/TypeHelpers.h",
   "template_args" : [ "_ZTIh" ]
  },
  {
   "alignment" : 1,
   "linker_set_key" : "_ZTIN7android18trait_trivial_dtorIiEE",
   "name" : "android::trait_trivial_dtor<int>",
   "referenced_type" : "_ZTIN7android18trait_trivial_dtorIiEE",
   "self_type" : "_ZTIN7android18trait_trivial_dtorIiEE",
   "size" : 1,
   "source_file" : "system/core/libutils/include/utils/TypeHelpers.h",
   "template_args" : [ "_ZTIi" ]
  },
  {
   "alignment" : 1,
   "linker_set_key" : "_ZTIN7android18trait_trivial_dtorIjEE",
   "name" : "android::trait_trivial_dtor<unsigned int>",
   "referenced_type" : "_ZTIN7android18trait_trivial_dtorIjEE",
   "self_type" : "_ZTIN7android18trait_trivial_dtorIjEE",
   "size" : 1,
   "source_file" : "system/core/libutils/include/utils/TypeHelpers.h",
   "template_args" : [ "_ZTIj" ]
  },
  {
   "alignment" : 1,
   "linker_set_key" : "_ZTIN7android18trait_trivial_dtorIlEE",
   "name" : "android::trait_trivial_dtor<long>",
   "referenced_type" : "_ZTIN7android18trait_trivial_dtorIlEE",
   "self_type" : "_ZTIN7android18trait_trivial_dtorIlEE",
   "size" : 1,
   "source_file" : "system/core/libutils/include/utils/TypeHelpers.h",
   "template_args" : [ "_ZTIl" ]
  },
  {
   "alignment" : 1,
   "linker_set_key" : "_ZTIN7android18trait_trivial_dtorImEE",
   "name" : "android::trait_trivial_dtor<unsigned long>",
   "referenced_type" : "_ZTIN7android18trait_trivial_dtorImEE",
   "self_type" : "_ZTIN7android18trait_trivial_dtorImEE",
   "size" : 1,
   "source_file" : "system/core/libutils/include/utils/TypeHelpers.h",
   "template_args" : [ "_ZTIm" ]
  },
  {
   "alignment" : 1,
   "linker_set_key" : "_ZTIN7android18trait_trivial_dtorIsEE",
   "name" : "android::trait_trivial_dtor<short>",
   "referenced_type" : "_ZTIN7android18trait_trivial_dtorIsEE",
   "self_type" : "_ZTIN7android18trait_trivial_dtorIsEE",
   "size" : 1,
   "source_file" : "system/core/libutils/include/utils/TypeHelpers.h",
   "template_args" : [ "_ZTIs" ]
  },
  {
   "alignment" : 1,
   "linker_set_key" : "_ZTIN7android18trait_trivial_dtorItEE",
   "name" : "android::trait_trivial_dtor<unsigned short>",
   "referenced_type" : "_ZTIN7android18trait_trivial_dtorItEE",
   "self_type" : "_ZTIN7android18trait_trivial_dtorItEE",
   "size" : 1,
   "source_file" : "system/core/libutils/include/utils/TypeHelpers.h",
   "template_args" : [ "_ZTIt" ]
  },
  {
   "alignment" : 1,
   "linker_set_key" : "_ZTIN7android18trait_trivial_dtorIvEE",
   "name" : "android::trait_trivial_dtor<void>",
   "referenced_type" : "_ZTIN7android18trait_trivial_dtorIvEE",
   "self_type" : "_ZTIN7android18trait_trivial_dtorIvEE",
   "size" : 1,
   "source_file" : "system/core/libutils/include/utils/TypeHelpers.h",
   "template_args" : [ "_ZTIv" ]
  },
  {
   "alignment" : 1,
   "linker_set_key" : "_ZTIN7android18trait_trivial_dtorIxEE",
   "name" : "android::trait_trivial_dtor<long long>",
   "referenced_type" : "_ZTIN7android18trait_trivial_dtorIxEE",
   "self_type" : "_ZTIN7android18trait_trivial_dtorIxEE",
   "size" : 1,
   "source_file" : "system/core/libutils/include/utils/TypeHelpers.h",
   "template_args" : [ "_ZTIx" ]
  },
  {
   "alignment" : 1,
   "linker_set_key" : "_ZTIN7android18trait_trivial_dtorIyEE",
   "name" : "android::trait_trivial_dtor<unsigned long long>",
   "referenced_type" : "_ZTIN7android18trait_trivial_dtorIyEE",
   "self_type" : "_ZTIN7android18trait_trivial_dtorIyEE",
   "size" : 1,
   "source_file" : "system/core/libutils/include/utils/TypeHelpers.h",
   "template_args" : [ "_ZTIy" ]
  },
  {
   "alignment" : 1,
   "linker_set_key" : "_ZTIN7android18trait_trivial_moveINS_12MetaDataBase10typed_dataEEE",
   "name" : "android::trait_trivial_move<android::MetaDataBase::typed_data>",
   "referenced_type" : "_ZTIN7android18trait_trivial_moveINS_12MetaDataBase10typed_dataEEE",
   "self_type" : "_ZTIN7android18trait_trivial_moveINS_12MetaDataBase10typed_dataEEE",
   "size" : 1,
   "source_file" : "system/core/libutils/include/utils/TypeHelpers.h",
   "template_args" : [ "_ZTIN7android12MetaDataBase10typed_dataE" ]
  },
  {
   "alignment" : 1,
   "linker_set_key" : "_ZTIN7android18trait_trivial_moveINS_16key_value_pair_tIjNS_12MetaDataBase10typed_dataEEEEE",
   "name" : "android::trait_trivial_move<android::key_value_pair_t<unsigned int, android::MetaDataBase::typed_data>>",
   "referenced_type" : "_ZTIN7android18trait_trivial_moveINS_16key_value_pair_tIjNS_12MetaDataBase10typed_dataEEEEE",
   "self_type" : "_ZTIN7android18trait_trivial_moveINS_16key_value_pair_tIjNS_12MetaDataBase10typed_dataEEEEE",
   "size" : 1,
   "source_file" : "system/core/libutils/include/utils/TypeHelpers.h",
   "template_args" : [ "_ZTIN7android16key_value_pair_tIjNS_12MetaDataBase10typed_dataEEE" ]
  },
  {
   "alignment" : 1,
   "linker_set_key" : "_ZTIN7android18trait_trivial_moveINS_7String8EEE",
   "name" : "android::trait_trivial_move<android::String8>",
   "referenced_type" : "_ZTIN7android18trait_trivial_moveINS_7String8EEE",
   "self_type" : "_ZTIN7android18trait_trivial_moveINS_7String8EEE",
   "size" : 1,
   "source_file" : "system/core/libutils/include/utils/String8.h",
   "template_args" : [ "_ZTIN7android7String8E" ]
  },
  {
   "alignment" : 1,
   "linker_set_key" : "_ZTIN7android18trait_trivial_moveIbEE",
   "name" : "android::trait_trivial_move<bool>",
   "referenced_type" : "_ZTIN7android18trait_trivial_moveIbEE",
   "self_type" : "_ZTIN7android18trait_trivial_moveIbEE",
   "size" : 1,
   "source_file" : "system/core/libutils/include/utils/TypeHelpers.h",
   "template_args" : [ "_ZTIb" ]
  },
  {
   "alignment" : 1,
   "linker_set_key" : "_ZTIN7android18trait_trivial_moveIcEE",
   "name" : "android::trait_trivial_move<char>",
   "referenced_type" : "_ZTIN7android18trait_trivial_moveIcEE",
   "self_type" : "_ZTIN7android18trait_trivial_moveIcEE",
   "size" : 1,
   "source_file" : "system/core/libutils/include/utils/TypeHelpers.h",
   "template_args" : [ "_ZTIc" ]
  },
  {
   "alignment" : 1,
   "linker_set_key" : "_ZTIN7android18trait_trivial_moveIdEE",
   "name" : "android::trait_trivial_move<double>",
   "referenced_type" : "_ZTIN7android18trait_trivial_moveIdEE",
   "self_type" : "_ZTIN7android18trait_trivial_moveIdEE",
   "size" : 1,
   "source_file" : "system/core/libutils/include/utils/TypeHelpers.h",
   "template_args" : [ "_ZTId" ]
  },
  {
   "alignment" : 1,
   "linker_set_key" : "_ZTIN7android18trait_trivial_moveIfEE",
   "name" : "android::trait_trivial_move<float>",
   "referenced_type" : "_ZTIN7android18trait_trivial_moveIfEE",
   "self_type" : "_ZTIN7android18trait_trivial_moveIfEE",
   "size" : 1,
   "source_file" : "system/core/libutils/include/utils/TypeHelpers.h",
   "template_args" : [ "_ZTIf" ]
  },
  {
   "alignment" : 1,
   "linker_set_key" : "_ZTIN7android18trait_trivial_moveIhEE",
   "name" : "android::trait_trivial_move<unsigned char>",
   "referenced_type" : "_ZTIN7android18trait_trivial_moveIhEE",
   "self_type" : "_ZTIN7android18trait_trivial_moveIhEE",
   "size" : 1,
   "source_file" : "system/core/libutils/include/utils/TypeHelpers.h",
   "template_args" : [ "_ZTIh" ]
  },
  {
   "alignment" : 1,
   "linker_set_key" : "_ZTIN7android18trait_trivial_moveIiEE",
   "name" : "android::trait_trivial_move<int>",
   "referenced_type" : "_ZTIN7android18trait_trivial_moveIiEE",
   "self_type" : "_ZTIN7android18trait_trivial_moveIiEE",
   "size" : 1,
   "source_file" : "system/core/libutils/include/utils/TypeHelpers.h",
   "template_args" : [ "_ZTIi" ]
  },
  {
   "alignment" : 1,
   "linker_set_key" : "_ZTIN7android18trait_trivial_moveIjEE",
   "name" : "android::trait_trivial_move<unsigned int>",
   "referenced_type" : "_ZTIN7android18trait_trivial_moveIjEE",
   "self_type" : "_ZTIN7android18trait_trivial_moveIjEE",
   "size" : 1,
   "source_file" : "system/core/libutils/include/utils/TypeHelpers.h",
   "template_args" : [ "_ZTIj" ]
  },
  {
   "alignment" : 1,
   "linker_set_key" : "_ZTIN7android18trait_trivial_moveIlEE",
   "name" : "android::trait_trivial_move<long>",
   "referenced_type" : "_ZTIN7android18trait_trivial_moveIlEE",
   "self_type" : "_ZTIN7android18trait_trivial_moveIlEE",
   "size" : 1,
   "source_file" : "system/core/libutils/include/utils/TypeHelpers.h",
   "template_args" : [ "_ZTIl" ]
  },
  {
   "alignment" : 1,
   "linker_set_key" : "_ZTIN7android18trait_trivial_moveImEE",
   "name" : "android::trait_trivial_move<unsigned long>",
   "referenced_type" : "_ZTIN7android18trait_trivial_moveImEE",
   "self_type" : "_ZTIN7android18trait_trivial_moveImEE",
   "size" : 1,
   "source_file" : "system/core/libutils/include/utils/TypeHelpers.h",
   "template_args" : [ "_ZTIm" ]
  },
  {
   "alignment" : 1,
   "linker_set_key" : "_ZTIN7android18trait_trivial_moveIsEE",
   "name" : "android::trait_trivial_move<short>",
   "referenced_type" : "_ZTIN7android18trait_trivial_moveIsEE",
   "self_type" : "_ZTIN7android18trait_trivial_moveIsEE",
   "size" : 1,
   "source_file" : "system/core/libutils/include/utils/TypeHelpers.h",
   "template_args" : [ "_ZTIs" ]
  },
  {
   "alignment" : 1,
   "linker_set_key" : "_ZTIN7android18trait_trivial_moveItEE",
   "name" : "android::trait_trivial_move<unsigned short>",
   "referenced_type" : "_ZTIN7android18trait_trivial_moveItEE",
   "self_type" : "_ZTIN7android18trait_trivial_moveItEE",
   "size" : 1,
   "source_file" : "system/core/libutils/include/utils/TypeHelpers.h",
   "template_args" : [ "_ZTIt" ]
  },
  {
   "alignment" : 1,
   "linker_set_key" : "_ZTIN7android18trait_trivial_moveIvEE",
   "name" : "android::trait_trivial_move<void>",
   "referenced_type" : "_ZTIN7android18trait_trivial_moveIvEE",
   "self_type" : "_ZTIN7android18trait_trivial_moveIvEE",
   "size" : 1,
   "source_file" : "system/core/libutils/include/utils/TypeHelpers.h",
   "template_args" : [ "_ZTIv" ]
  },
  {
   "alignment" : 1,
   "linker_set_key" : "_ZTIN7android18trait_trivial_moveIxEE",
   "name" : "android::trait_trivial_move<long long>",
   "referenced_type" : "_ZTIN7android18trait_trivial_moveIxEE",
   "self_type" : "_ZTIN7android18trait_trivial_moveIxEE",
   "size" : 1,
   "source_file" : "system/core/libutils/include/utils/TypeHelpers.h",
   "template_args" : [ "_ZTIx" ]
  },
  {
   "alignment" : 1,
   "linker_set_key" : "_ZTIN7android18trait_trivial_moveIyEE",
   "name" : "android::trait_trivial_move<unsigned long long>",
   "referenced_type" : "_ZTIN7android18trait_trivial_moveIyEE",
   "self_type" : "_ZTIN7android18trait_trivial_moveIyEE",
   "size" : 1,
   "source_file" : "system/core/libutils/include/utils/TypeHelpers.h",
   "template_args" : [ "_ZTIy" ]
  },
  {
   "alignment" : 4,
   "base_specifiers" :
   [
    {
     "referenced_type" : "_ZTIN7android12LightRefBaseINS_19VirtualLightRefBaseEEE"
    }
   ],
   "linker_set_key" : "_ZTIN7android19VirtualLightRefBaseE",
   "name" : "android::VirtualLightRefBase",
   "record_kind" : "class",
   "referenced_type" : "_ZTIN7android19VirtualLightRefBaseE",
   "self_type" : "_ZTIN7android19VirtualLightRefBaseE",
   "size" : 8,
   "source_file" : "system/core/libutils/include/utils/LightRefBase.h",
   "vtable_components" :
   [
    {
     "kind" : "offset_to_top"
    },
    {
     "kind" : "rtti",
     "mangled_component_name" : "_ZTIN7android19VirtualLightRefBaseE"
    },
    {
     "kind" : "complete_dtor_pointer",
     "mangled_component_name" : "_ZN7android19VirtualLightRefBaseD1Ev"
    },
    {
     "kind" : "deleting_dtor_pointer",
     "mangled_component_name" : "_ZN7android19VirtualLightRefBaseD0Ev"
    }
   ]
  },
  {
   "alignment" : 1,
   "linker_set_key" : "_ZTIN7android6ADebugE",
   "name" : "android::ADebug",
   "referenced_type" : "_ZTIN7android6ADebugE",
   "self_type" : "_ZTIN7android6ADebugE",
   "size" : 1,
   "source_file" : "frameworks/av/media/libstagefright/foundation/include/media/stagefright/foundation/ADebug.h"
  },
  {
   "alignment" : 1,
   "linker_set_key" : "_ZTIN7android6traitsINS_12MetaDataBase10typed_dataEEE",
   "name" : "android::traits<android::MetaDataBase::typed_data>",
   "referenced_type" : "_ZTIN7android6traitsINS_12MetaDataBase10typed_dataEEE",
   "self_type" : "_ZTIN7android6traitsINS_12MetaDataBase10typed_dataEEE",
   "size" : 1,
   "source_file" : "system/core/libutils/include/utils/TypeHelpers.h",
   "template_args" : [ "_ZTIN7android12MetaDataBase10typed_dataE" ]
  },
  {
   "alignment" : 1,
   "linker_set_key" : "_ZTIN7android6traitsINS_16key_value_pair_tIjNS_12MetaDataBase10typed_dataEEEEE",
   "name" : "android::traits<android::key_value_pair_t<unsigned int, android::MetaDataBase::typed_data>>",
   "referenced_type" : "_ZTIN7android6traitsINS_16key_value_pair_tIjNS_12MetaDataBase10typed_dataEEEEE",
   "self_type" : "_ZTIN7android6traitsINS_16key_value_pair_tIjNS_12MetaDataBase10typed_dataEEEEE",
   "size" : 1,
   "source_file" : "system/core/libutils/include/utils/TypeHelpers.h",
   "template_args" : [ "_ZTIN7android16key_value_pair_tIjNS_12MetaDataBase10typed_dataEEE" ]
  },
  {
   "alignment" : 1,
   "linker_set_key" : "_ZTIN7android6traitsIjEE",
   "name" : "android::traits<unsigned int>",
   "referenced_type" : "_ZTIN7android6traitsIjEE",
   "self_type" : "_ZTIN7android6traitsIjEE",
   "size" : 1,
   "source_file" : "system/core/libutils/include/utils/TypeHelpers.h",
   "template_args" : [ "_ZTIj" ]
  },
  {
   "alignment" : 4,
   "fields" :
   [
    {
     "access" : "private",
     "field_name" : "mData",
     "referenced_type" : "_ZTIPc"
    },
    {
     "access" : "private",
     "field_name" : "mSize",
     "field_offset" : 32,
     "referenced_type" : "_ZTIj"
    },
    {
     "access" : "private",
     "field_name" : "mAllocSize",
     "field_offset" : 64,
     "referenced_type" : "_ZTIj"
    }
   ],
   "linker_set_key" : "_ZTIN7android7AStringE",
   "name" : "android::AString",
   "referenced_type" : "_ZTIN7android7AStringE",
   "self_type" : "_ZTIN7android7AStringE",
   "size" : 12,
   "source_file" : "frameworks/av/media/libstagefright/foundation/include/media/stagefright/foundation/AString.h"
  },
  {
   "alignment" : 1,
   "linker_set_key" : "_ZTIN7android7RefBase12weakref_typeE",
   "name" : "android::RefBase::weakref_type",
   "record_kind" : "class",
   "referenced_type" : "_ZTIN7android7RefBase12weakref_typeE",
   "self_type" : "_ZTIN7android7RefBase12weakref_typeE",
   "size" : 1,
   "source_file" : "system/core/libutils/include/utils/RefBase.h"
  },
  {
   "alignment" : 4,
   "fields" :
   [
    {
     "access" : "private",
     "field_name" : "mRefs",
     "field_offset" : 32,
     "referenced_type" : "_ZTIKPN7android7RefBase12weakref_implE"
    }
   ],
   "linker_set_key" : "_ZTIN7android7RefBaseE",
   "name" : "android::RefBase",
   "record_kind" : "class",
   "referenced_type" : "_ZTIN7android7RefBaseE",
   "self_type" : "_ZTIN7android7RefBaseE",
   "size" : 8,
   "source_file" : "system/core/libutils/include/utils/RefBase.h",
   "vtable_components" :
   [
    {
     "kind" : "offset_to_top"
    },
    {
     "kind" : "rtti",
     "mangled_component_name" : "_ZTIN7android7RefBaseE"
    },
    {
     "kind" : "complete_dtor_pointer",
     "mangled_component_name" : "_ZN7android7RefBaseD1Ev"
    },
    {
     "kind" : "deleting_dtor_pointer",
     "mangled_component_name" : "_ZN7android7RefBaseD0Ev"
    },
    {
     "mangled_component_name" : "_ZN7android7RefBase10onFirstRefEv"
    },
    {
     "mangled_component_name" : "_ZN7android7RefBase15onLastStrongRefEPKv"
    },
    {
     "mangled_component_name" : "_ZN7android7RefBase20onIncStrongAttemptedEjPKv"
    },
    {
     "mangled_component_name" : "_ZN7android7RefBase13onLastWeakRefEPKv"
    }
   ]
  },
  {
   "alignment" : 4,
   "fields" :
   [
    {
     "access" : "private",
     "field_name" : "mString",
     "referenced_type" : "_ZTIPKc"
    }
   ],
   "linker_set_key" : "_ZTIN7android7String8E",
   "name" : "android::String8",
   "record_kind" : "class",
   "referenced_type" : "_ZTIN7android7String8E",
   "self_type" : "_ZTIN7android7String8E",
   "size" : 4,
   "source_file" : "system/core/libutils/include/utils/String8.h"
  },
  {
   "alignment" : 4,
   "fields" :
   [
    {
     "field_name" : "buf",
     "referenced_type" : "_ZTIA5121_h"
    },
    {
     "field_name" : "entry",
     "referenced_type" : "_ZTI12logger_entry"
    }
   ],
   "is_anonymous" : true,
   "linker_set_key" : "_ZTIN7log_msgUt_E",
   "name" : "log_msg::(anonymous union at system/logging/liblog/include_vndk/log/log_read.h:58:3)",
   "record_kind" : "union",
   "referenced_type" : "_ZTIN7log_msgUt_E",
   "self_type" : "_ZTIN7log_msgUt_E",
   "size" : 5124,
   "source_file" : "system/logging/liblog/include_vndk/log/log_read.h"
  }
 ],
 "rvalue_reference_types" : []
}
