{
 "array_types" : [],
 "builtin_types" :
 [
  {
   "alignment" : 1,
   "is_integral" : true,
   "is_unsigned" : true,
   "linker_set_key" : "_ZTIc",
   "name" : "char",
   "referenced_type" : "_ZTIc",
   "self_type" : "_ZTIc",
   "size" : 1
  },
  {
   "alignment" : 1,
   "is_integral" : true,
   "is_unsigned" : true,
   "linker_set_key" : "_ZTIh",
   "name" : "unsigned char",
   "referenced_type" : "_ZTIh",
   "self_type" : "_ZTIh",
   "size" : 1
  },
  {
   "alignment" : 4,
   "is_integral" : true,
   "linker_set_key" : "_ZTIi",
   "name" : "int",
   "referenced_type" : "_ZTIi",
   "self_type" : "_ZTIi",
   "size" : 4
  },
  {
   "alignment" : 4,
   "is_integral" : true,
   "is_unsigned" : true,
   "linker_set_key" : "_ZTIj",
   "name" : "unsigned int",
   "referenced_type" : "_ZTIj",
   "self_type" : "_ZTIj",
   "size" : 4
  },
  {
   "linker_set_key" : "_ZTIv",
   "name" : "void",
   "referenced_type" : "_ZTIv",
   "self_type" : "_ZTIv"
  }
 ],
 "elf_functions" : [],
 "elf_objects" : [],
 "enum_types" :
 [
  {
   "alignment" : 4,
   "enum_fields" :
   [
    {
     "enum_field_value" : 1,
     "name" : "EXIF_FORMAT_BYTE"
    },
    {
     "enum_field_value" : 2,
     "name" : "EXIF_FORMAT_ASCII"
    },
    {
     "enum_field_value" : 3,
     "name" : "EXIF_FORMAT_SHORT"
    },
    {
     "enum_field_value" : 4,
     "name" : "EXIF_FORMAT_LONG"
    },
    {
     "enum_field_value" : 5,
     "name" : "EXIF_FORMAT_RATIONAL"
    },
    {
     "enum_field_value" : 6,
     "name" : "EXIF_FORMAT_SBYTE"
    },
    {
     "enum_field_value" : 7,
     "name" : "EXIF_FORMAT_UNDEFINED"
    },
    {
     "enum_field_value" : 8,
     "name" : "EXIF_FORMAT_SSHORT"
    },
    {
     "enum_field_value" : 9,
     "name" : "EXIF_FORMAT_SLONG"
    },
    {
     "enum_field_value" : 10,
     "name" : "EXIF_FORMAT_SRATIONAL"
    },
    {
     "enum_field_value" : 11,
     "name" : "EXIF_FORMAT_FLOAT"
    },
    {
     "enum_field_value" : 12,
     "name" : "EXIF_FORMAT_DOUBLE"
    }
   ],
   "linker_set_key" : "_ZTI10ExifFormat",
   "name" : "ExifFormat",
   "referenced_type" : "_ZTI10ExifFormat",
   "self_type" : "_ZTI10ExifFormat",
   "size" : 4,
   "source_file" : "external/libexif/libexif/exif-format.h",
   "underlying_type" : "_ZTIj"
  },
  {
   "alignment" : 4,
   "enum_fields" :
   [
    {
     "enum_field_value" : 0,
     "name" : "EXIF_LOG_CODE_NONE"
    },
    {
     "enum_field_value" : 1,
     "name" : "EXIF_LOG_CODE_DEBUG"
    },
    {
     "enum_field_value" : 2,
     "name" : "EXIF_LOG_CODE_NO_MEMORY"
    },
    {
     "enum_field_value" : 3,
     "name" : "EXIF_LOG_CODE_CORRUPT_DATA"
    }
   ],
   "linker_set_key" : "_ZTI11ExifLogCode",
   "name" : "ExifLogCode",
   "referenced_type" : "_ZTI11ExifLogCode",
   "self_type" : "_ZTI11ExifLogCode",
   "size" : 4,
   "source_file" : "external/libexif/libexif/exif-log.h",
   "underlying_type" : "_ZTIj"
  },
  {
   "alignment" : 4,
   "enum_fields" :
   [
    {
     "enum_field_value" : 0,
     "name" : "EXIF_BYTE_ORDER_MOTOROLA"
    },
    {
     "enum_field_value" : 1,
     "name" : "EXIF_BYTE_ORDER_INTEL"
    }
   ],
   "linker_set_key" : "_ZTI13ExifByteOrder",
   "name" : "ExifByteOrder",
   "referenced_type" : "_ZTI13ExifByteOrder",
   "self_type" : "_ZTI13ExifByteOrder",
   "size" : 4,
   "source_file" : "external/libexif/libexif/exif-byte-order.h",
   "underlying_type" : "_ZTIj"
  }
 ],
 "function_types" :
 [
  {
   "alignment" : 4,
   "linker_set_key" : "_ZTIFPKcP14_ExifMnoteDatajE",
   "name" : "const char *(_ExifMnoteData *, unsigned int)",
   "parameters" :
   [
    {
     "referenced_type" : "_ZTIP14_ExifMnoteData"
    },
    {
     "referenced_type" : "_ZTIj"
    }
   ],
   "referenced_type" : "_ZTIFPKcP14_ExifMnoteDatajE",
   "return_type" : "_ZTIPKc",
   "self_type" : "_ZTIFPKcP14_ExifMnoteDatajE",
   "source_file" : "external/libexif/libexif/exif-mnote-data-priv.h"
  },
  {
   "alignment" : 4,
   "linker_set_key" : "_ZTIFPcP14_ExifMnoteDatajS_jE",
   "name" : "char *(_ExifMnoteData *, unsigned int, char *, unsigned int)",
   "parameters" :
   [
    {
     "referenced_type" : "_ZTIP14_ExifMnoteData"
    },
    {
     "referenced_type" : "_ZTIj"
    },
    {
     "referenced_type" : "_ZTIPc"
    },
    {
     "referenced_type" : "_ZTIj"
    }
   ],
   "referenced_type" : "_ZTIFPcP14_ExifMnoteDatajS_jE",
   "return_type" : "_ZTIPc",
   "self_type" : "_ZTIFPcP14_ExifMnoteDatajS_jE",
   "source_file" : "external/libexif/libexif/exif-mnote-data-priv.h"
  },
  {
   "alignment" : 4,
   "linker_set_key" : "_ZTIFjP14_ExifMnoteDataE",
   "name" : "unsigned int (_ExifMnoteData *)",
   "parameters" :
   [
    {
     "referenced_type" : "_ZTIP14_ExifMnoteData"
    }
   ],
   "referenced_type" : "_ZTIFjP14_ExifMnoteDataE",
   "return_type" : "_ZTIj",
   "self_type" : "_ZTIFjP14_ExifMnoteDataE",
   "source_file" : "external/libexif/libexif/exif-mnote-data-priv.h"
  },
  {
   "alignment" : 4,
   "linker_set_key" : "_ZTIFjP14_ExifMnoteDatajE",
   "name" : "unsigned int (_ExifMnoteData *, unsigned int)",
   "parameters" :
   [
    {
     "referenced_type" : "_ZTIP14_ExifMnoteData"
    },
    {
     "referenced_type" : "_ZTIj"
    }
   ],
   "referenced_type" : "_ZTIFjP14_ExifMnoteDatajE",
   "return_type" : "_ZTIj",
   "self_type" : "_ZTIFjP14_ExifMnoteDatajE",
   "source_file" : "external/libexif/libexif/exif-mnote-data-priv.h"
  },
  {
   "alignment" : 4,
   "linker_set_key" : "_ZTIFvP14_ExifMnoteData13ExifByteOrderE",
   "name" : "void (_ExifMnoteData *, ExifByteOrder)",
   "parameters" :
   [
    {
     "referenced_type" : "_ZTIP14_ExifMnoteData"
    },
    {
     "referenced_type" : "_ZTI13ExifByteOrder"
    }
   ],
   "referenced_type" : "_ZTIFvP14_ExifMnoteData13ExifByteOrderE",
   "return_type" : "_ZTIv",
   "self_type" : "_ZTIFvP14_ExifMnoteData13ExifByteOrderE",
   "source_file" : "external/libexif/libexif/exif-mnote-data-priv.h"
  },
  {
   "alignment" : 4,
   "linker_set_key" : "_ZTIFvP14_ExifMnoteDataE",
   "name" : "void (_ExifMnoteData *)",
   "parameters" :
   [
    {
     "referenced_type" : "_ZTIP14_ExifMnoteData"
    }
   ],
   "referenced_type" : "_ZTIFvP14_ExifMnoteDataE",
   "return_type" : "_ZTIv",
   "self_type" : "_ZTIFvP14_ExifMnoteDataE",
   "source_file" : "external/libexif/libexif/exif-mnote-data-priv.h"
  },
  {
   "alignment" : 4,
   "linker_set_key" : "_ZTIFvP14_ExifMnoteDataPKhjE",
   "name" : "void (_ExifMnoteData *, const unsigned char *, unsigned int)",
   "parameters" :
   [
    {
     "referenced_type" : "_ZTIP14_ExifMnoteData"
    },
    {
     "referenced_type" : "_ZTIPKh"
    },
    {
     "referenced_type" : "_ZTIj"
    }
   ],
   "referenced_type" : "_ZTIFvP14_ExifMnoteDataPKhjE",
   "return_type" : "_ZTIv",
   "self_type" : "_ZTIFvP14_ExifMnoteDataPKhjE",
   "source_file" : "external/libexif/libexif/exif-mnote-data-priv.h"
  },
  {
   "alignment" : 4,
   "linker_set_key" : "_ZTIFvP14_ExifMnoteDataPPhPjE",
   "name" : "void (_ExifMnoteData *, unsigned char **, unsigned int *)",
   "parameters" :
   [
    {
     "referenced_type" : "_ZTIP14_ExifMnoteData"
    },
    {
     "referenced_type" : "_ZTIPPh"
    },
    {
     "referenced_type" : "_ZTIPj"
    }
   ],
   "referenced_type" : "_ZTIFvP14_ExifMnoteDataPPhPjE",
   "return_type" : "_ZTIv",
   "self_type" : "_ZTIFvP14_ExifMnoteDataPPhPjE",
   "source_file" : "external/libexif/libexif/exif-mnote-data-priv.h"
  },
  {
   "alignment" : 4,
   "linker_set_key" : "_ZTIFvP14_ExifMnoteDatajE",
   "name" : "void (_ExifMnoteData *, unsigned int)",
   "parameters" :
   [
    {
     "referenced_type" : "_ZTIP14_ExifMnoteData"
    },
    {
     "referenced_type" : "_ZTIj"
    }
   ],
   "referenced_type" : "_ZTIFvP14_ExifMnoteDatajE",
   "return_type" : "_ZTIv",
   "self_type" : "_ZTIFvP14_ExifMnoteDatajE",
   "source_file" : "external/libexif/libexif/exif-mnote-data-priv.h"
  }
 ],
 "functions" :
 [
  {
   "function_name" : "exif_mnote_data_construct",
   "linker_set_key" : "exif_mnote_data_construct",
   "parameters" :
   [
    {
     "referenced_type" : "_ZTIP14_ExifMnoteData"
    },
    {
     "referenced_type" : "_ZTIP8_ExifMem"
    }
   ],
   "return_type" : "_ZTIv",
   "source_file" : "external/libexif/libexif/exif-mnote-data-priv.h"
  },
  {
   "function_name" : "exif_mnote_data_count",
   "linker_set_key" : "exif_mnote_data_count",
   "parameters" :
   [
    {
     "referenced_type" : "_ZTIP14_ExifMnoteData"
    }
   ],
   "return_type" : "_ZTIj",
   "source_file" : "external/libexif/libexif/exif-mnote-data.h"
  },
  {
   "function_name" : "exif_mnote_data_get_description",
   "linker_set_key" : "exif_mnote_data_get_description",
   "parameters" :
   [
    {
     "referenced_type" : "_ZTIP14_ExifMnoteData"
    },
    {
     "referenced_type" : "_ZTIj"
    }
   ],
   "return_type" : "_ZTIPKc",
   "source_file" : "external/libexif/libexif/exif-mnote-data.h"
  },
  {
   "function_name" : "exif_mnote_data_get_id",
   "linker_set_key" : "exif_mnote_data_get_id",
   "parameters" :
   [
    {
     "referenced_type" : "_ZTIP14_ExifMnoteData"
    },
    {
     "referenced_type" : "_ZTIj"
    }
   ],
   "return_type" : "_ZTIj",
   "source_file" : "external/libexif/libexif/exif-mnote-data.h"
  },
  {
   "function_name" : "exif_mnote_data_get_name",
   "linker_set_key" : "exif_mnote_data_get_name",
   "parameters" :
   [
    {
     "referenced_type" : "_ZTIP14_ExifMnoteData"
    },
    {
     "referenced_type" : "_ZTIj"
    }
   ],
   "return_type" : "_ZTIPKc",
   "source_file" : "external/libexif/libexif/exif-mnote-data.h"
  },
  {
   "function_name" : "exif_mnote_data_get_title",
   "linker_set_key" : "exif_mnote_data_get_title",
   "parameters" :
   [
    {
     "referenced_type" : "_ZTIP14_ExifMnoteData"
    },
    {
     "referenced_type" : "_ZTIj"
    }
   ],
   "return_type" : "_ZTIPKc",
   "source_file" : "external/libexif/libexif/exif-mnote-data.h"
  },
  {
   "function_name" : "exif_mnote_data_get_value",
   "linker_set_key" : "exif_mnote_data_get_value",
   "parameters" :
   [
    {
     "referenced_type" : "_ZTIP14_ExifMnoteData"
    },
    {
     "referenced_type" : "_ZTIj"
    },
    {
     "referenced_type" : "_ZTIPc"
    },
    {
     "referenced_type" : "_ZTIj"
    }
   ],
   "return_type" : "_ZTIPc",
   "source_file" : "external/libexif/libexif/exif-mnote-data.h"
  },
  {
   "function_name" : "exif_mnote_data_load",
   "linker_set_key" : "exif_mnote_data_load",
   "parameters" :
   [
    {
     "referenced_type" : "_ZTIP14_ExifMnoteData"
    },
    {
     "referenced_type" : "_ZTIPKh"
    },
    {
     "referenced_type" : "_ZTIj"
    }
   ],
   "return_type" : "_ZTIv",
   "source_file" : "external/libexif/libexif/exif-mnote-data.h"
  },
  {
   "function_name" : "exif_mnote_data_log",
   "linker_set_key" : "exif_mnote_data_log",
   "parameters" :
   [
    {
     "referenced_type" : "_ZTIP14_ExifMnoteData"
    },
    {
     "referenced_type" : "_ZTIP8_ExifLog"
    }
   ],
   "return_type" : "_ZTIv",
   "source_file" : "external/libexif/libexif/exif-mnote-data.h"
  },
  {
   "function_name" : "exif_mnote_data_ref",
   "linker_set_key" : "exif_mnote_data_ref",
   "parameters" :
   [
    {
     "referenced_type" : "_ZTIP14_ExifMnoteData"
    }
   ],
   "return_type" : "_ZTIv",
   "source_file" : "external/libexif/libexif/exif-mnote-data.h"
  },
  {
   "function_name" : "exif_mnote_data_save",
   "linker_set_key" : "exif_mnote_data_save",
   "parameters" :
   [
    {
     "referenced_type" : "_ZTIP14_ExifMnoteData"
    },
    {
     "referenced_type" : "_ZTIPPh"
    },
    {
     "referenced_type" : "_ZTIPj"
    }
   ],
   "return_type" : "_ZTIv",
   "source_file" : "external/libexif/libexif/exif-mnote-data.h"
  },
  {
   "function_name" : "exif_mnote_data_set_byte_order",
   "linker_set_key" : "exif_mnote_data_set_byte_order",
   "parameters" :
   [
    {
     "referenced_type" : "_ZTIP14_ExifMnoteData"
    },
    {
     "referenced_type" : "_ZTI13ExifByteOrder"
    }
   ],
   "return_type" : "_ZTIv",
   "source_file" : "external/libexif/libexif/exif-mnote-data-priv.h"
  },
  {
   "function_name" : "exif_mnote_data_set_offset",
   "linker_set_key" : "exif_mnote_data_set_offset",
   "parameters" :
   [
    {
     "referenced_type" : "_ZTIP14_ExifMnoteData"
    },
    {
     "referenced_type" : "_ZTIj"
    }
   ],
   "return_type" : "_ZTIv",
   "source_file" : "external/libexif/libexif/exif-mnote-data-priv.h"
  },
  {
   "function_name" : "exif_mnote_data_unref",
   "linker_set_key" : "exif_mnote_data_unref",
   "parameters" :
   [
    {
     "referenced_type" : "_ZTIP14_ExifMnoteData"
    }
   ],
   "return_type" : "_ZTIv",
   "source_file" : "external/libexif/libexif/exif-mnote-data.h"
  }
 ],
 "global_vars" : [],
 "lvalue_reference_types" : [],
 "pointer_types" :
 [
  {
   "alignment" : 8,
   "linker_set_key" : "_ZTIP14_ExifMnoteData",
   "name" : "_ExifMnoteData *",
   "referenced_type" : "_ZTI14_ExifMnoteData",
   "self_type" : "_ZTIP14_ExifMnoteData",
   "size" : 8,
   "source_file" : "external/libexif/libexif/exif-mnote-data.h"
  },
  {
   "alignment" : 8,
   "linker_set_key" : "_ZTIP18_ExifMnoteDataPriv",
   "name" : "_ExifMnoteDataPriv *",
   "referenced_type" : "_ZTI18_ExifMnoteDataPriv",
   "self_type" : "_ZTIP18_ExifMnoteDataPriv",
   "size" : 8,
   "source_file" : "external/libexif/libexif/exif-mnote-data-priv.h"
  },
  {
   "alignment" : 8,
   "linker_set_key" : "_ZTIP8_ExifLog",
   "name" : "_ExifLog *",
   "referenced_type" : "_ZTI8_ExifLog",
   "self_type" : "_ZTIP8_ExifLog",
   "size" : 8,
   "source_file" : "external/libexif/libexif/exif-mnote-data.h"
  },
  {
   "alignment" : 8,
   "linker_set_key" : "_ZTIP8_ExifMem",
   "name" : "_ExifMem *",
   "referenced_type" : "_ZTI8_ExifMem",
   "self_type" : "_ZTIP8_ExifMem",
   "size" : 8,
   "source_file" : "external/libexif/libexif/exif-mnote-data-priv.h"
  },
  {
   "alignment" : 8,
   "linker_set_key" : "_ZTIPFPKcP14_ExifMnoteDatajE",
   "name" : "const char *(*)(_ExifMnoteData *, unsigned int)",
   "referenced_type" : "_ZTIFPKcP14_ExifMnoteDatajE",
   "self_type" : "_ZTIPFPKcP14_ExifMnoteDatajE",
   "size" : 8,
   "source_file" : "external/libexif/libexif/exif-mnote-data-priv.h"
  },
  {
   "alignment" : 8,
   "linker_set_key" : "_ZTIPFPcP14_ExifMnoteDatajS_jE",
   "name" : "char *(*)(_ExifMnoteData *, unsigned int, char *, unsigned int)",
   "referenced_type" : "_ZTIFPcP14_ExifMnoteDatajS_jE",
   "self_type" : "_ZTIPFPcP14_ExifMnoteDatajS_jE",
   "size" : 8,
   "source_file" : "external/libexif/libexif/exif-mnote-data-priv.h"
  },
  {
   "alignment" : 8,
   "linker_set_key" : "_ZTIPFjP14_ExifMnoteDataE",
   "name" : "unsigned int (*)(_ExifMnoteData *)",
   "referenced_type" : "_ZTIFjP14_ExifMnoteDataE",
   "self_type" : "_ZTIPFjP14_ExifMnoteDataE",
   "size" : 8,
   "source_file" : "external/libexif/libexif/exif-mnote-data-priv.h"
  },
  {
   "alignment" : 8,
   "linker_set_key" : "_ZTIPFjP14_ExifMnoteDatajE",
   "name" : "unsigned int (*)(_ExifMnoteData *, unsigned int)",
   "referenced_type" : "_ZTIFjP14_ExifMnoteDatajE",
   "self_type" : "_ZTIPFjP14_ExifMnoteDatajE",
   "size" : 8,
   "source_file" : "external/libexif/libexif/exif-mnote-data-priv.h"
  },
  {
   "alignment" : 8,
   "linker_set_key" : "_ZTIPFvP14_ExifMnoteData13ExifByteOrderE",
   "name" : "void (*)(_ExifMnoteData *, ExifByteOrder)",
   "referenced_type" : "_ZTIFvP14_ExifMnoteData13ExifByteOrderE",
   "self_type" : "_ZTIPFvP14_ExifMnoteData13ExifByteOrderE",
   "size" : 8,
   "source_file" : "external/libexif/libexif/exif-mnote-data-priv.h"
  },
  {
   "alignment" : 8,
   "linker_set_key" : "_ZTIPFvP14_ExifMnoteDataE",
   "name" : "void (*)(_ExifMnoteData *)",
   "referenced_type" : "_ZTIFvP14_ExifMnoteDataE",
   "self_type" : "_ZTIPFvP14_ExifMnoteDataE",
   "size" : 8,
   "source_file" : "external/libexif/libexif/exif-mnote-data-priv.h"
  },
  {
   "alignment" : 8,
   "linker_set_key" : "_ZTIPFvP14_ExifMnoteDataPKhjE",
   "name" : "void (*)(_ExifMnoteData *, const unsigned char *, unsigned int)",
   "referenced_type" : "_ZTIFvP14_ExifMnoteDataPKhjE",
   "self_type" : "_ZTIPFvP14_ExifMnoteDataPKhjE",
   "size" : 8,
   "source_file" : "external/libexif/libexif/exif-mnote-data-priv.h"
  },
  {
   "alignment" : 8,
   "linker_set_key" : "_ZTIPFvP14_ExifMnoteDataPPhPjE",
   "name" : "void (*)(_ExifMnoteData *, unsigned char **, unsigned int *)",
   "referenced_type" : "_ZTIFvP14_ExifMnoteDataPPhPjE",
   "self_type" : "_ZTIPFvP14_ExifMnoteDataPPhPjE",
   "size" : 8,
   "source_file" : "external/libexif/libexif/exif-mnote-data-priv.h"
  },
  {
   "alignment" : 8,
   "linker_set_key" : "_ZTIPFvP14_ExifMnoteDatajE",
   "name" : "void (*)(_ExifMnoteData *, unsigned int)",
   "referenced_type" : "_ZTIFvP14_ExifMnoteDatajE",
   "self_type" : "_ZTIPFvP14_ExifMnoteDatajE",
   "size" : 8,
   "source_file" : "external/libexif/libexif/exif-mnote-data-priv.h"
  },
  {
   "alignment" : 8,
   "linker_set_key" : "_ZTIPKc",
   "name" : "const char *",
   "referenced_type" : "_ZTIKc",
   "self_type" : "_ZTIPKc",
   "size" : 8,
   "source_file" : "external/libexif/libexif/exif-mnote-data.h"
  },
  {
   "alignment" : 8,
   "linker_set_key" : "_ZTIPKh",
   "name" : "const unsigned char *",
   "referenced_type" : "_ZTIKh",
   "self_type" : "_ZTIPKh",
   "size" : 8,
   "source_file" : "external/libexif/libexif/exif-mnote-data.h"
  },
  {
   "alignment" : 8,
   "linker_set_key" : "_ZTIPPh",
   "name" : "unsigned char **",
   "referenced_type" : "_ZTIPh",
   "self_type" : "_ZTIPPh",
   "size" : 8,
   "source_file" : "external/libexif/libexif/exif-mnote-data.h"
  },
  {
   "alignment" : 8,
   "linker_set_key" : "_ZTIPc",
   "name" : "char *",
   "referenced_type" : "_ZTIc",
   "self_type" : "_ZTIPc",
   "size" : 8,
   "source_file" : "external/libexif/libexif/exif-mnote-data.h"
  },
  {
   "alignment" : 8,
   "linker_set_key" : "_ZTIPh",
   "name" : "unsigned char *",
   "referenced_type" : "_ZTIh",
   "self_type" : "_ZTIPh",
   "size" : 8,
   "source_file" : "external/libexif/libexif/exif-mnote-data.h"
  },
  {
   "alignment" : 8,
   "linker_set_key" : "_ZTIPj",
   "name" : "unsigned int *",
   "referenced_type" : "_ZTIj",
   "self_type" : "_ZTIPj",
   "size" : 8,
   "source_file" : "external/libexif/libexif/exif-mnote-data.h"
  }
 ],
 "qualified_types" :
 [
  {
   "alignment" : 1,
   "is_const" : true,
   "linker_set_key" : "_ZTIKc",
   "name" : "const char",
   "referenced_type" : "_ZTIc",
   "self_type" : "_ZTIKc",
   "size" : 1,
   "source_file" : "external/libexif/libexif/exif-mnote-data.h"
  },
  {
   "alignment" : 1,
   "is_const" : true,
   "linker_set_key" : "_ZTIKh",
   "name" : "const unsigned char",
   "referenced_type" : "_ZTIh",
   "self_type" : "_ZTIKh",
   "size" : 1,
   "source_file" : "external/libexif/libexif/exif-mnote-data.h"
  }
 ],
 "record_types" :
 [
  {
   "alignment" : 4,
   "fields" :
   [
    {
     "field_name" : "numerator",
     "referenced_type" : "_ZTIj"
    },
    {
     "field_name" : "denominator",
     "field_offset" : 32,
     "referenced_type" : "_ZTIj"
    }
   ],
   "linker_set_key" : "_ZTI12ExifRational",
   "name" : "ExifRational",
   "referenced_type" : "_ZTI12ExifRational",
   "self_type" : "_ZTI12ExifRational",
   "size" : 8,
   "source_file" : "external/libexif/libexif/exif-utils.h"
  },
  {
   "alignment" : 4,
   "fields" :
   [
    {
     "field_name" : "numerator",
     "referenced_type" : "_ZTIi"
    },
    {
     "field_name" : "denominator",
     "field_offset" : 32,
     "referenced_type" : "_ZTIi"
    }
   ],
   "linker_set_key" : "_ZTI13ExifSRational",
   "name" : "ExifSRational",
   "referenced_type" : "_ZTI13ExifSRational",
   "self_type" : "_ZTI13ExifSRational",
   "size" : 8,
   "source_file" : "external/libexif/libexif/exif-utils.h"
  },
  {
   "alignment" : 8,
   "fields" :
   [
    {
     "field_name" : "priv",
     "referenced_type" : "_ZTIP18_ExifMnoteDataPriv"
    },
    {
     "field_name" : "methods",
     "field_offset" : 64,
     "referenced_type" : "_ZTI21_ExifMnoteDataMethods"
    },
    {
     "field_name" : "log",
     "field_offset" : 768,
     "referenced_type" : "_ZTIP8_ExifLog"
    },
    {
     "field_name" : "mem",
     "field_offset" : 832,
     "referenced_type" : "_ZTIP8_ExifMem"
    }
   ],
   "linker_set_key" : "_ZTI14_ExifMnoteData",
   "name" : "_ExifMnoteData",
   "referenced_type" : "_ZTI14_ExifMnoteData",
   "self_type" : "_ZTI14_ExifMnoteData",
   "size" : 112,
   "source_file" : "external/libexif/libexif/exif-mnote-data-priv.h"
  },
  {
   "alignment" : 8,
   "fields" :
   [
    {
     "field_name" : "free",
     "referenced_type" : "_ZTIPFvP14_ExifMnoteDataE"
    },
    {
     "field_name" : "save",
     "field_offset" : 64,
     "referenced_type" : "_ZTIPFvP14_ExifMnoteDataPPhPjE"
    },
    {
     "field_name" : "load",
     "field_offset" : 128,
     "referenced_type" : "_ZTIPFvP14_ExifMnoteDataPKhjE"
    },
    {
     "field_name" : "set_offset",
     "field_offset" : 192,
     "referenced_type" : "_ZTIPFvP14_ExifMnoteDatajE"
    },
    {
     "field_name" : "set_byte_order",
     "field_offset" : 256,
     "referenced_type" : "_ZTIPFvP14_ExifMnoteData13ExifByteOrderE"
    },
    {
     "field_name" : "count",
     "field_offset" : 320,
     "referenced_type" : "_ZTIPFjP14_ExifMnoteDataE"
    },
    {
     "field_name" : "get_id",
     "field_offset" : 384,
     "referenced_type" : "_ZTIPFjP14_ExifMnoteDatajE"
    },
    {
     "field_name" : "get_name",
     "field_offset" : 448,
     "referenced_type" : "_ZTIPFPKcP14_ExifMnoteDatajE"
    },
    {
     "field_name" : "get_title",
     "field_offset" : 512,
     "referenced_type" : "_ZTIPFPKcP14_ExifMnoteDatajE"
    },
    {
     "field_name" : "get_description",
     "field_offset" : 576,
     "referenced_type" : "_ZTIPFPKcP14_ExifMnoteDatajE"
    },
    {
     "field_name" : "get_value",
     "field_offset" : 640,
     "referenced_type" : "_ZTIPFPcP14_ExifMnoteDatajS_jE"
    }
   ],
   "linker_set_key" : "_ZTI21_ExifMnoteDataMethods",
   "name" : "_ExifMnoteDataMethods",
   "referenced_type" : "_ZTI21_ExifMnoteDataMethods",
   "self_type" : "_ZTI21_ExifMnoteDataMethods",
   "size" : 88,
   "source_file" : "external/libexif/libexif/exif-mnote-data-priv.h"
  }
 ],
 "rvalue_reference_types" : []
}
