{
 "array_types" : [],
 "builtin_types" :
 [
  {
   "alignment" : 1,
   "is_integral" : true,
   "is_unsigned" : true,
   "linker_set_key" : "_ZTIc",
   "name" : "char",
   "referenced_type" : "_ZTIc",
   "self_type" : "_ZTIc",
   "size" : 1
  },
  {
   "alignment" : 4,
   "is_integral" : true,
   "is_unsigned" : true,
   "linker_set_key" : "_ZTIj",
   "name" : "unsigned int",
   "referenced_type" : "_ZTIj",
   "self_type" : "_ZTIj",
   "size" : 4
  }
 ],
 "elf_functions" : [],
 "elf_objects" : [],
 "enum_types" :
 [
  {
   "alignment" : 4,
   "enum_fields" :
   [
    {
     "enum_field_value" : 0,
     "name" : "EXIF_DATA_TYPE_UNCOMPRESSED_CHUNKY"
    },
    {
     "enum_field_value" : 1,
     "name" : "EXIF_DATA_TYPE_UNCOMPRESSED_PLANAR"
    },
    {
     "enum_field_value" : 2,
     "name" : "EXIF_DATA_TYPE_UNCOMPRESSED_YCC"
    },
    {
     "enum_field_value" : 3,
     "name" : "EXIF_DATA_TYPE_COMPRESSED"
    },
    {
     "enum_field_value" : 4,
     "name" : "EXIF_DATA_TYPE_COUNT"
    },
    {
     "enum_field_value" : 4,
     "name" : "EXIF_DATA_TYPE_UNKNOWN"
    }
   ],
   "linker_set_key" : "_ZTI12ExifDataType",
   "name" : "ExifDataType",
   "referenced_type" : "_ZTI12ExifDataType",
   "self_type" : "_ZTI12ExifDataType",
   "size" : 4,
   "source_file" : "external/libexif/libexif/exif-data-type.h",
   "underlying_type" : "_ZTIj"
  },
  {
   "alignment" : 4,
   "enum_fields" :
   [
    {
     "enum_field_value" : 0,
     "name" : "EXIF_SUPPORT_LEVEL_UNKNOWN"
    },
    {
     "enum_field_value" : 1,
     "name" : "EXIF_SUPPORT_LEVEL_NOT_RECORDED"
    },
    {
     "enum_field_value" : 2,
     "name" : "EXIF_SUPPORT_LEVEL_MANDATORY"
    },
    {
     "enum_field_value" : 3,
     "name" : "EXIF_SUPPORT_LEVEL_OPTIONAL"
    }
   ],
   "linker_set_key" : "_ZTI16ExifSupportLevel",
   "name" : "ExifSupportLevel",
   "referenced_type" : "_ZTI16ExifSupportLevel",
   "self_type" : "_ZTI16ExifSupportLevel",
   "size" : 4,
   "source_file" : "external/libexif/libexif/exif-tag.h",
   "underlying_type" : "_ZTIj"
  },
  {
   "alignment" : 4,
   "enum_fields" :
   [
    {
     "enum_field_value" : 0,
     "name" : "EXIF_IFD_0"
    },
    {
     "enum_field_value" : 1,
     "name" : "EXIF_IFD_1"
    },
    {
     "enum_field_value" : 2,
     "name" : "EXIF_IFD_EXIF"
    },
    {
     "enum_field_value" : 3,
     "name" : "EXIF_IFD_GPS"
    },
    {
     "enum_field_value" : 4,
     "name" : "EXIF_IFD_INTEROPERABILITY"
    },
    {
     "enum_field_value" : 5,
     "name" : "EXIF_IFD_COUNT"
    }
   ],
   "linker_set_key" : "_ZTI7ExifIfd",
   "name" : "ExifIfd",
   "referenced_type" : "_ZTI7ExifIfd",
   "self_type" : "_ZTI7ExifIfd",
   "size" : 4,
   "source_file" : "external/libexif/libexif/exif-ifd.h",
   "underlying_type" : "_ZTIj"
  },
  {
   "alignment" : 4,
   "enum_fields" :
   [
    {
     "enum_field_value" : 1,
     "name" : "EXIF_TAG_INTEROPERABILITY_INDEX"
    },
    {
     "enum_field_value" : 2,
     "name" : "EXIF_TAG_INTEROPERABILITY_VERSION"
    },
    {
     "enum_field_value" : 254,
     "name" : "EXIF_TAG_NEW_SUBFILE_TYPE"
    },
    {
     "enum_field_value" : 256,
     "name" : "EXIF_TAG_IMAGE_WIDTH"
    },
    {
     "enum_field_value" : 257,
     "name" : "EXIF_TAG_IMAGE_LENGTH"
    },
    {
     "enum_field_value" : 258,
     "name" : "EXIF_TAG_BITS_PER_SAMPLE"
    },
    {
     "enum_field_value" : 259,
     "name" : "EXIF_TAG_COMPRESSION"
    },
    {
     "enum_field_value" : 262,
     "name" : "EXIF_TAG_PHOTOMETRIC_INTERPRETATION"
    },
    {
     "enum_field_value" : 266,
     "name" : "EXIF_TAG_FILL_ORDER"
    },
    {
     "enum_field_value" : 269,
     "name" : "EXIF_TAG_DOCUMENT_NAME"
    },
    {
     "enum_field_value" : 270,
     "name" : "EXIF_TAG_IMAGE_DESCRIPTION"
    },
    {
     "enum_field_value" : 271,
     "name" : "EXIF_TAG_MAKE"
    },
    {
     "enum_field_value" : 272,
     "name" : "EXIF_TAG_MODEL"
    },
    {
     "enum_field_value" : 273,
     "name" : "EXIF_TAG_STRIP_OFFSETS"
    },
    {
     "enum_field_value" : 274,
     "name" : "EXIF_TAG_ORIENTATION"
    },
    {
     "enum_field_value" : 277,
     "name" : "EXIF_TAG_SAMPLES_PER_PIXEL"
    },
    {
     "enum_field_value" : 278,
     "name" : "EXIF_TAG_ROWS_PER_STRIP"
    },
    {
     "enum_field_value" : 279,
     "name" : "EXIF_TAG_STRIP_BYTE_COUNTS"
    },
    {
     "enum_field_value" : 282,
     "name" : "EXIF_TAG_X_RESOLUTION"
    },
    {
     "enum_field_value" : 283,
     "name" : "EXIF_TAG_Y_RESOLUTION"
    },
    {
     "enum_field_value" : 284,
     "name" : "EXIF_TAG_PLANAR_CONFIGURATION"
    },
    {
     "enum_field_value" : 296,
     "name" : "EXIF_TAG_RESOLUTION_UNIT"
    },
    {
     "enum_field_value" : 301,
     "name" : "EXIF_TAG_TRANSFER_FUNCTION"
    },
    {
     "enum_field_value" : 305,
     "name" : "EXIF_TAG_SOFTWARE"
    },
    {
     "enum_field_value" : 306,
     "name" : "EXIF_TAG_DATE_TIME"
    },
    {
     "enum_field_value" : 315,
     "name" : "EXIF_TAG_ARTIST"
    },
    {
     "enum_field_value" : 318,
     "name" : "EXIF_TAG_WHITE_POINT"
    },
    {
     "enum_field_value" : 319,
     "name" : "EXIF_TAG_PRIMARY_CHROMATICITIES"
    },
    {
     "enum_field_value" : 330,
     "name" : "EXIF_TAG_SUB_IFDS"
    },
    {
     "enum_field_value" : 342,
     "name" : "EXIF_TAG_TRANSFER_RANGE"
    },
    {
     "enum_field_value" : 512,
     "name" : "EXIF_TAG_JPEG_PROC"
    },
    {
     "enum_field_value" : 513,
     "name" : "EXIF_TAG_JPEG_INTERCHANGE_FORMAT"
    },
    {
     "enum_field_value" : 514,
     "name" : "EXIF_TAG_JPEG_INTERCHANGE_FORMAT_LENGTH"
    },
    {
     "enum_field_value" : 529,
     "name" : "EXIF_TAG_YCBCR_COEFFICIENTS"
    },
    {
     "enum_field_value" : 530,
     "name" : "EXIF_TAG_YCBCR_SUB_SAMPLING"
    },
    {
     "enum_field_value" : 531,
     "name" : "EXIF_TAG_YCBCR_POSITIONING"
    },
    {
     "enum_field_value" : 532,
     "name" : "EXIF_TAG_REFERENCE_BLACK_WHITE"
    },
    {
     "enum_field_value" : 700,
     "name" : "EXIF_TAG_XML_PACKET"
    },
    {
     "enum_field_value" : 4096,
     "name" : "EXIF_TAG_RELATED_IMAGE_FILE_FORMAT"
    },
    {
     "enum_field_value" : 4097,
     "name" : "EXIF_TAG_RELATED_IMAGE_WIDTH"
    },
    {
     "enum_field_value" : 4098,
     "name" : "EXIF_TAG_RELATED_IMAGE_LENGTH"
    },
    {
     "enum_field_value" : 33421,
     "name" : "EXIF_TAG_CFA_REPEAT_PATTERN_DIM"
    },
    {
     "enum_field_value" : 33422,
     "name" : "EXIF_TAG_CFA_PATTERN"
    },
    {
     "enum_field_value" : 33423,
     "name" : "EXIF_TAG_BATTERY_LEVEL"
    },
    {
     "enum_field_value" : 33432,
     "name" : "EXIF_TAG_COPYRIGHT"
    },
    {
     "enum_field_value" : 33434,
     "name" : "EXIF_TAG_EXPOSURE_TIME"
    },
    {
     "enum_field_value" : 33437,
     "name" : "EXIF_TAG_FNUMBER"
    },
    {
     "enum_field_value" : 33723,
     "name" : "EXIF_TAG_IPTC_NAA"
    },
    {
     "enum_field_value" : 34377,
     "name" : "EXIF_TAG_IMAGE_RESOURCES"
    },
    {
     "enum_field_value" : 34665,
     "name" : "EXIF_TAG_EXIF_IFD_POINTER"
    },
    {
     "enum_field_value" : 34675,
     "name" : "EXIF_TAG_INTER_COLOR_PROFILE"
    },
    {
     "enum_field_value" : 34850,
     "name" : "EXIF_TAG_EXPOSURE_PROGRAM"
    },
    {
     "enum_field_value" : 34852,
     "name" : "EXIF_TAG_SPECTRAL_SENSITIVITY"
    },
    {
     "enum_field_value" : 34853,
     "name" : "EXIF_TAG_GPS_INFO_IFD_POINTER"
    },
    {
     "enum_field_value" : 34855,
     "name" : "EXIF_TAG_ISO_SPEED_RATINGS"
    },
    {
     "enum_field_value" : 34856,
     "name" : "EXIF_TAG_OECF"
    },
    {
     "enum_field_value" : 34858,
     "name" : "EXIF_TAG_TIME_ZONE_OFFSET"
    },
    {
     "enum_field_value" : 36864,
     "name" : "EXIF_TAG_EXIF_VERSION"
    },
    {
     "enum_field_value" : 36867,
     "name" : "EXIF_TAG_DATE_TIME_ORIGINAL"
    },
    {
     "enum_field_value" : 36868,
     "name" : "EXIF_TAG_DATE_TIME_DIGITIZED"
    },
    {
     "enum_field_value" : 37121,
     "name" : "EXIF_TAG_COMPONENTS_CONFIGURATION"
    },
    {
     "enum_field_value" : 37122,
     "name" : "EXIF_TAG_COMPRESSED_BITS_PER_PIXEL"
    },
    {
     "enum_field_value" : 37377,
     "name" : "EXIF_TAG_SHUTTER_SPEED_VALUE"
    },
    {
     "enum_field_value" : 37378,
     "name" : "EXIF_TAG_APERTURE_VALUE"
    },
    {
     "enum_field_value" : 37379,
     "name" : "EXIF_TAG_BRIGHTNESS_VALUE"
    },
    {
     "enum_field_value" : 37380,
     "name" : "EXIF_TAG_EXPOSURE_BIAS_VALUE"
    },
    {
     "enum_field_value" : 37381,
     "name" : "EXIF_TAG_MAX_APERTURE_VALUE"
    },
    {
     "enum_field_value" : 37382,
     "name" : "EXIF_TAG_SUBJECT_DISTANCE"
    },
    {
     "enum_field_value" : 37383,
     "name" : "EXIF_TAG_METERING_MODE"
    },
    {
     "enum_field_value" : 37384,
     "name" : "EXIF_TAG_LIGHT_SOURCE"
    },
    {
     "enum_field_value" : 37385,
     "name" : "EXIF_TAG_FLASH"
    },
    {
     "enum_field_value" : 37386,
     "name" : "EXIF_TAG_FOCAL_LENGTH"
    },
    {
     "enum_field_value" : 37396,
     "name" : "EXIF_TAG_SUBJECT_AREA"
    },
    {
     "enum_field_value" : 37398,
     "name" : "EXIF_TAG_TIFF_EP_STANDARD_ID"
    },
    {
     "enum_field_value" : 37500,
     "name" : "EXIF_TAG_MAKER_NOTE"
    },
    {
     "enum_field_value" : 37510,
     "name" : "EXIF_TAG_USER_COMMENT"
    },
    {
     "enum_field_value" : 37520,
     "name" : "EXIF_TAG_SUB_SEC_TIME"
    },
    {
     "enum_field_value" : 37521,
     "name" : "EXIF_TAG_SUB_SEC_TIME_ORIGINAL"
    },
    {
     "enum_field_value" : 37522,
     "name" : "EXIF_TAG_SUB_SEC_TIME_DIGITIZED"
    },
    {
     "enum_field_value" : 40091,
     "name" : "EXIF_TAG_XP_TITLE"
    },
    {
     "enum_field_value" : 40092,
     "name" : "EXIF_TAG_XP_COMMENT"
    },
    {
     "enum_field_value" : 40093,
     "name" : "EXIF_TAG_XP_AUTHOR"
    },
    {
     "enum_field_value" : 40094,
     "name" : "EXIF_TAG_XP_KEYWORDS"
    },
    {
     "enum_field_value" : 40095,
     "name" : "EXIF_TAG_XP_SUBJECT"
    },
    {
     "enum_field_value" : 40960,
     "name" : "EXIF_TAG_FLASH_PIX_VERSION"
    },
    {
     "enum_field_value" : 40961,
     "name" : "EXIF_TAG_COLOR_SPACE"
    },
    {
     "enum_field_value" : 40962,
     "name" : "EXIF_TAG_PIXEL_X_DIMENSION"
    },
    {
     "enum_field_value" : 40963,
     "name" : "EXIF_TAG_PIXEL_Y_DIMENSION"
    },
    {
     "enum_field_value" : 40964,
     "name" : "EXIF_TAG_RELATED_SOUND_FILE"
    },
    {
     "enum_field_value" : 40965,
     "name" : "EXIF_TAG_INTEROPERABILITY_IFD_POINTER"
    },
    {
     "enum_field_value" : 41483,
     "name" : "EXIF_TAG_FLASH_ENERGY"
    },
    {
     "enum_field_value" : 41484,
     "name" : "EXIF_TAG_SPATIAL_FREQUENCY_RESPONSE"
    },
    {
     "enum_field_value" : 41486,
     "name" : "EXIF_TAG_FOCAL_PLANE_X_RESOLUTION"
    },
    {
     "enum_field_value" : 41487,
     "name" : "EXIF_TAG_FOCAL_PLANE_Y_RESOLUTION"
    },
    {
     "enum_field_value" : 41488,
     "name" : "EXIF_TAG_FOCAL_PLANE_RESOLUTION_UNIT"
    },
    {
     "enum_field_value" : 41492,
     "name" : "EXIF_TAG_SUBJECT_LOCATION"
    },
    {
     "enum_field_value" : 41493,
     "name" : "EXIF_TAG_EXPOSURE_INDEX"
    },
    {
     "enum_field_value" : 41495,
     "name" : "EXIF_TAG_SENSING_METHOD"
    },
    {
     "enum_field_value" : 41728,
     "name" : "EXIF_TAG_FILE_SOURCE"
    },
    {
     "enum_field_value" : 41729,
     "name" : "EXIF_TAG_SCENE_TYPE"
    },
    {
     "enum_field_value" : 41730,
     "name" : "EXIF_TAG_NEW_CFA_PATTERN"
    },
    {
     "enum_field_value" : 41985,
     "name" : "EXIF_TAG_CUSTOM_RENDERED"
    },
    {
     "enum_field_value" : 41986,
     "name" : "EXIF_TAG_EXPOSURE_MODE"
    },
    {
     "enum_field_value" : 41987,
     "name" : "EXIF_TAG_WHITE_BALANCE"
    },
    {
     "enum_field_value" : 41988,
     "name" : "EXIF_TAG_DIGITAL_ZOOM_RATIO"
    },
    {
     "enum_field_value" : 41989,
     "name" : "EXIF_TAG_FOCAL_LENGTH_IN_35MM_FILM"
    },
    {
     "enum_field_value" : 41990,
     "name" : "EXIF_TAG_SCENE_CAPTURE_TYPE"
    },
    {
     "enum_field_value" : 41991,
     "name" : "EXIF_TAG_GAIN_CONTROL"
    },
    {
     "enum_field_value" : 41992,
     "name" : "EXIF_TAG_CONTRAST"
    },
    {
     "enum_field_value" : 41993,
     "name" : "EXIF_TAG_SATURATION"
    },
    {
     "enum_field_value" : 41994,
     "name" : "EXIF_TAG_SHARPNESS"
    },
    {
     "enum_field_value" : 41995,
     "name" : "EXIF_TAG_DEVICE_SETTING_DESCRIPTION"
    },
    {
     "enum_field_value" : 41996,
     "name" : "EXIF_TAG_SUBJECT_DISTANCE_RANGE"
    },
    {
     "enum_field_value" : 42016,
     "name" : "EXIF_TAG_IMAGE_UNIQUE_ID"
    },
    {
     "enum_field_value" : 42240,
     "name" : "EXIF_TAG_GAMMA"
    },
    {
     "enum_field_value" : 50341,
     "name" : "EXIF_TAG_PRINT_IMAGE_MATCHING"
    },
    {
     "enum_field_value" : 59932,
     "name" : "EXIF_TAG_PADDING"
    }
   ],
   "linker_set_key" : "_ZTI7ExifTag",
   "name" : "ExifTag",
   "referenced_type" : "_ZTI7ExifTag",
   "self_type" : "_ZTI7ExifTag",
   "size" : 4,
   "source_file" : "external/libexif/libexif/exif-tag.h",
   "underlying_type" : "_ZTIj"
  }
 ],
 "function_types" : [],
 "functions" :
 [
  {
   "function_name" : "exif_tag_from_name",
   "linker_set_key" : "exif_tag_from_name",
   "parameters" :
   [
    {
     "referenced_type" : "_ZTIPKc"
    }
   ],
   "return_type" : "_ZTI7ExifTag",
   "source_file" : "external/libexif/libexif/exif-tag.h"
  },
  {
   "function_name" : "exif_tag_get_description",
   "linker_set_key" : "exif_tag_get_description",
   "parameters" :
   [
    {
     "referenced_type" : "_ZTI7ExifTag"
    }
   ],
   "return_type" : "_ZTIPKc",
   "source_file" : "external/libexif/libexif/exif-tag.h"
  },
  {
   "function_name" : "exif_tag_get_description_in_ifd",
   "linker_set_key" : "exif_tag_get_description_in_ifd",
   "parameters" :
   [
    {
     "referenced_type" : "_ZTI7ExifTag"
    },
    {
     "referenced_type" : "_ZTI7ExifIfd"
    }
   ],
   "return_type" : "_ZTIPKc",
   "source_file" : "external/libexif/libexif/exif-tag.h"
  },
  {
   "function_name" : "exif_tag_get_name",
   "linker_set_key" : "exif_tag_get_name",
   "parameters" :
   [
    {
     "referenced_type" : "_ZTI7ExifTag"
    }
   ],
   "return_type" : "_ZTIPKc",
   "source_file" : "external/libexif/libexif/exif-tag.h"
  },
  {
   "function_name" : "exif_tag_get_name_in_ifd",
   "linker_set_key" : "exif_tag_get_name_in_ifd",
   "parameters" :
   [
    {
     "referenced_type" : "_ZTI7ExifTag"
    },
    {
     "referenced_type" : "_ZTI7ExifIfd"
    }
   ],
   "return_type" : "_ZTIPKc",
   "source_file" : "external/libexif/libexif/exif-tag.h"
  },
  {
   "function_name" : "exif_tag_get_support_level_in_ifd",
   "linker_set_key" : "exif_tag_get_support_level_in_ifd",
   "parameters" :
   [
    {
     "referenced_type" : "_ZTI7ExifTag"
    },
    {
     "referenced_type" : "_ZTI7ExifIfd"
    },
    {
     "referenced_type" : "_ZTI12ExifDataType"
    }
   ],
   "return_type" : "_ZTI16ExifSupportLevel",
   "source_file" : "external/libexif/libexif/exif-tag.h"
  },
  {
   "function_name" : "exif_tag_get_title",
   "linker_set_key" : "exif_tag_get_title",
   "parameters" :
   [
    {
     "referenced_type" : "_ZTI7ExifTag"
    }
   ],
   "return_type" : "_ZTIPKc",
   "source_file" : "external/libexif/libexif/exif-tag.h"
  },
  {
   "function_name" : "exif_tag_get_title_in_ifd",
   "linker_set_key" : "exif_tag_get_title_in_ifd",
   "parameters" :
   [
    {
     "referenced_type" : "_ZTI7ExifTag"
    },
    {
     "referenced_type" : "_ZTI7ExifIfd"
    }
   ],
   "return_type" : "_ZTIPKc",
   "source_file" : "external/libexif/libexif/exif-tag.h"
  },
  {
   "function_name" : "exif_tag_table_count",
   "linker_set_key" : "exif_tag_table_count",
   "return_type" : "_ZTIj",
   "source_file" : "external/libexif/libexif/exif-tag.h"
  },
  {
   "function_name" : "exif_tag_table_get_name",
   "linker_set_key" : "exif_tag_table_get_name",
   "parameters" :
   [
    {
     "referenced_type" : "_ZTIj"
    }
   ],
   "return_type" : "_ZTIPKc",
   "source_file" : "external/libexif/libexif/exif-tag.h"
  },
  {
   "function_name" : "exif_tag_table_get_tag",
   "linker_set_key" : "exif_tag_table_get_tag",
   "parameters" :
   [
    {
     "referenced_type" : "_ZTIj"
    }
   ],
   "return_type" : "_ZTI7ExifTag",
   "source_file" : "external/libexif/libexif/exif-tag.h"
  }
 ],
 "global_vars" : [],
 "lvalue_reference_types" : [],
 "pointer_types" :
 [
  {
   "alignment" : 8,
   "linker_set_key" : "_ZTIPKc",
   "name" : "const char *",
   "referenced_type" : "_ZTIKc",
   "self_type" : "_ZTIPKc",
   "size" : 8,
   "source_file" : "external/libexif/libexif/exif-tag.h"
  }
 ],
 "qualified_types" :
 [
  {
   "alignment" : 1,
   "is_const" : true,
   "linker_set_key" : "_ZTIKc",
   "name" : "const char",
   "referenced_type" : "_ZTIc",
   "self_type" : "_ZTIKc",
   "size" : 1,
   "source_file" : "external/libexif/libexif/exif-tag.h"
  }
 ],
 "record_types" : [],
 "rvalue_reference_types" : []
}
