{
 "array_types" : [],
 "builtin_types" :
 [
  {
   "alignment" : 1,
   "is_integral" : true,
   "is_unsigned" : true,
   "linker_set_key" : "_ZTIb",
   "name" : "bool",
   "referenced_type" : "_ZTIb",
   "self_type" : "_ZTIb",
   "size" : 1
  },
  {
   "alignment" : 4,
   "is_integral" : true,
   "linker_set_key" : "_ZTIi",
   "name" : "int",
   "referenced_type" : "_ZTIi",
   "self_type" : "_ZTIi",
   "size" : 4
  },
  {
   "alignment" : 4,
   "is_integral" : true,
   "is_unsigned" : true,
   "linker_set_key" : "_ZTIj",
   "name" : "unsigned int",
   "referenced_type" : "_ZTIj",
   "self_type" : "_ZTIj",
   "size" : 4
  },
  {
   "linker_set_key" : "_ZTIv",
   "name" : "void",
   "referenced_type" : "_ZTIv",
   "self_type" : "_ZTIv"
  }
 ],
 "elf_functions" : [],
 "elf_objects" : [],
 "enum_types" : [],
 "function_types" : [],
 "functions" :
 [
  {
   "function_name" : "android::IMountShutdownObserver::asInterface",
   "linker_set_key" : "_ZN7android22IMountShutdownObserver11asInterfaceERKNS_2spINS_7IBinderEEE",
   "parameters" :
   [
    {
     "referenced_type" : "_ZTIRKN7android2spINS_7IBinderEEE"
    }
   ],
   "return_type" : "_ZTIN7android2spINS_22IMountShutdownObserverEEE",
   "source_file" : "frameworks/base/libs/storage/include/storage/IMountShutdownObserver.h"
  },
  {
   "function_name" : "android::IMountShutdownObserver::getDefaultImpl",
   "linker_set_key" : "_ZN7android22IMountShutdownObserver14getDefaultImplEv",
   "return_type" : "_ZTIRKNSt3__110unique_ptrIN7android22IMountShutdownObserverENS_14default_deleteIS2_EEEE",
   "source_file" : "frameworks/base/libs/storage/include/storage/IMountShutdownObserver.h"
  },
  {
   "function_name" : "android::IMountShutdownObserver::setDefaultImpl",
   "linker_set_key" : "_ZN7android22IMountShutdownObserver14setDefaultImplENSt3__110unique_ptrIS0_NS1_14default_deleteIS0_EEEE",
   "parameters" :
   [
    {
     "referenced_type" : "_ZTINSt3__110unique_ptrIN7android22IMountShutdownObserverENS_14default_deleteIS2_EEEE"
    }
   ],
   "return_type" : "_ZTIb",
   "source_file" : "frameworks/base/libs/storage/include/storage/IMountShutdownObserver.h"
  },
  {
   "function_name" : "android::IMountShutdownObserver::IMountShutdownObserver",
   "linker_set_key" : "_ZN7android22IMountShutdownObserverC2Ev",
   "parameters" :
   [
    {
     "is_this_ptr" : true,
     "referenced_type" : "_ZTIPN7android22IMountShutdownObserverE"
    }
   ],
   "return_type" : "_ZTIv",
   "source_file" : "frameworks/base/libs/storage/include/storage/IMountShutdownObserver.h"
  },
  {
   "function_name" : "android::IMountShutdownObserver::~IMountShutdownObserver",
   "linker_set_key" : "_ZN7android22IMountShutdownObserverD0Ev",
   "parameters" :
   [
    {
     "is_this_ptr" : true,
     "referenced_type" : "_ZTIPN7android22IMountShutdownObserverE"
    }
   ],
   "return_type" : "_ZTIv",
   "source_file" : "frameworks/base/libs/storage/include/storage/IMountShutdownObserver.h"
  },
  {
   "function_name" : "android::IMountShutdownObserver::~IMountShutdownObserver",
   "linker_set_key" : "_ZN7android22IMountShutdownObserverD1Ev",
   "parameters" :
   [
    {
     "is_this_ptr" : true,
     "referenced_type" : "_ZTIPN7android22IMountShutdownObserverE"
    }
   ],
   "return_type" : "_ZTIv",
   "source_file" : "frameworks/base/libs/storage/include/storage/IMountShutdownObserver.h"
  },
  {
   "function_name" : "android::IMountShutdownObserver::~IMountShutdownObserver",
   "linker_set_key" : "_ZN7android22IMountShutdownObserverD2Ev",
   "parameters" :
   [
    {
     "is_this_ptr" : true,
     "referenced_type" : "_ZTIPN7android22IMountShutdownObserverE"
    }
   ],
   "return_type" : "_ZTIv",
   "source_file" : "frameworks/base/libs/storage/include/storage/IMountShutdownObserver.h"
  },
  {
   "function_name" : "android::BnMountShutdownObserver::onTransact",
   "linker_set_key" : "_ZN7android23BnMountShutdownObserver10onTransactEjRKNS_6ParcelEPS1_j",
   "parameters" :
   [
    {
     "is_this_ptr" : true,
     "referenced_type" : "_ZTIPN7android23BnMountShutdownObserverE"
    },
    {
     "referenced_type" : "_ZTIj"
    },
    {
     "referenced_type" : "_ZTIRKN7android6ParcelE"
    },
    {
     "referenced_type" : "_ZTIPN7android6ParcelE"
    },
    {
     "default_arg" : true,
     "referenced_type" : "_ZTIj"
    }
   ],
   "return_type" : "_ZTIi",
   "source_file" : "frameworks/base/libs/storage/include/storage/IMountShutdownObserver.h"
  },
  {
   "function_name" : "android::IMountShutdownObserver::getInterfaceDescriptor",
   "linker_set_key" : "_ZNK7android22IMountShutdownObserver22getInterfaceDescriptorEv",
   "parameters" :
   [
    {
     "is_this_ptr" : true,
     "referenced_type" : "_ZTIPKN7android22IMountShutdownObserverE"
    }
   ],
   "return_type" : "_ZTIRKN7android8String16E",
   "source_file" : "frameworks/base/libs/storage/include/storage/IMountShutdownObserver.h"
  },
  {
   "function_name" : "android::BnMountShutdownObserver::onTransact",
   "linker_set_key" : "_ZThn8_N7android23BnMountShutdownObserver10onTransactEjRKNS_6ParcelEPS1_j",
   "parameters" :
   [
    {
     "is_this_ptr" : true,
     "referenced_type" : "_ZTIPN7android23BnMountShutdownObserverE"
    },
    {
     "referenced_type" : "_ZTIj"
    },
    {
     "referenced_type" : "_ZTIRKN7android6ParcelE"
    },
    {
     "referenced_type" : "_ZTIPN7android6ParcelE"
    },
    {
     "default_arg" : true,
     "referenced_type" : "_ZTIj"
    }
   ],
   "return_type" : "_ZTIi",
   "source_file" : "frameworks/base/libs/storage/include/storage/IMountShutdownObserver.h"
  }
 ],
 "global_vars" :
 [
  {
   "linker_set_key" : "_ZN7android22IMountShutdownObserver10descriptorE",
   "name" : "android::IMountShutdownObserver::descriptor",
   "referenced_type" : "_ZTIKN7android8String16E",
   "source_file" : "frameworks/base/libs/storage/include/storage/IMountShutdownObserver.h"
  },
  {
   "access" : "private",
   "linker_set_key" : "_ZN7android22IMountShutdownObserver12default_implE",
   "name" : "android::IMountShutdownObserver::default_impl",
   "referenced_type" : "_ZTINSt3__110unique_ptrIN7android22IMountShutdownObserverENS_14default_deleteIS2_EEEE",
   "source_file" : "frameworks/base/libs/storage/include/storage/IMountShutdownObserver.h"
  }
 ],
 "lvalue_reference_types" :
 [
  {
   "alignment" : 8,
   "linker_set_key" : "_ZTIRKN7android2spINS_7IBinderEEE",
   "name" : "const android::sp<android::IBinder> &",
   "referenced_type" : "_ZTIKN7android2spINS_7IBinderEEE",
   "self_type" : "_ZTIRKN7android2spINS_7IBinderEEE",
   "size" : 8,
   "source_file" : "frameworks/base/libs/storage/include/storage/IMountShutdownObserver.h"
  },
  {
   "alignment" : 8,
   "linker_set_key" : "_ZTIRKN7android6ParcelE",
   "name" : "const android::Parcel &",
   "referenced_type" : "_ZTIKN7android6ParcelE",
   "self_type" : "_ZTIRKN7android6ParcelE",
   "size" : 8,
   "source_file" : "frameworks/base/libs/storage/include/storage/IMountShutdownObserver.h"
  },
  {
   "alignment" : 8,
   "linker_set_key" : "_ZTIRKN7android8String16E",
   "name" : "const android::String16 &",
   "referenced_type" : "_ZTIKN7android8String16E",
   "self_type" : "_ZTIRKN7android8String16E",
   "size" : 8,
   "source_file" : "frameworks/base/libs/storage/include/storage/IMountShutdownObserver.h"
  },
  {
   "alignment" : 8,
   "linker_set_key" : "_ZTIRKNSt3__110unique_ptrIN7android22IMountShutdownObserverENS_14default_deleteIS2_EEEE",
   "name" : "const std::unique_ptr<android::IMountShutdownObserver, std::default_delete<android::IMountShutdownObserver>> &",
   "referenced_type" : "_ZTIKNSt3__110unique_ptrIN7android22IMountShutdownObserverENS_14default_deleteIS2_EEEE",
   "self_type" : "_ZTIRKNSt3__110unique_ptrIN7android22IMountShutdownObserverENS_14default_deleteIS2_EEEE",
   "size" : 8,
   "source_file" : "frameworks/base/libs/storage/include/storage/IMountShutdownObserver.h"
  }
 ],
 "pointer_types" :
 [
  {
   "alignment" : 8,
   "linker_set_key" : "_ZTIPKN7android22IMountShutdownObserverE",
   "name" : "const android::IMountShutdownObserver *",
   "referenced_type" : "_ZTIKN7android22IMountShutdownObserverE",
   "self_type" : "_ZTIPKN7android22IMountShutdownObserverE",
   "size" : 8,
   "source_file" : "frameworks/base/libs/storage/include/storage/IMountShutdownObserver.h"
  },
  {
   "alignment" : 8,
   "linker_set_key" : "_ZTIPN7android22IMountShutdownObserverE",
   "name" : "android::IMountShutdownObserver *",
   "referenced_type" : "_ZTIN7android22IMountShutdownObserverE",
   "self_type" : "_ZTIPN7android22IMountShutdownObserverE",
   "size" : 8,
   "source_file" : "frameworks/base/libs/storage/include/storage/IMountShutdownObserver.h"
  },
  {
   "alignment" : 8,
   "linker_set_key" : "_ZTIPN7android23BnMountShutdownObserverE",
   "name" : "android::BnMountShutdownObserver *",
   "referenced_type" : "_ZTIN7android23BnMountShutdownObserverE",
   "self_type" : "_ZTIPN7android23BnMountShutdownObserverE",
   "size" : 8,
   "source_file" : "frameworks/base/libs/storage/include/storage/IMountShutdownObserver.h"
  },
  {
   "alignment" : 8,
   "linker_set_key" : "_ZTIPN7android6ParcelE",
   "name" : "android::Parcel *",
   "referenced_type" : "_ZTIN7android6ParcelE",
   "self_type" : "_ZTIPN7android6ParcelE",
   "size" : 8,
   "source_file" : "frameworks/base/libs/storage/include/storage/IMountShutdownObserver.h"
  }
 ],
 "qualified_types" :
 [
  {
   "alignment" : 8,
   "is_const" : true,
   "linker_set_key" : "_ZTIKN7android22IMountShutdownObserverE",
   "name" : "const android::IMountShutdownObserver",
   "referenced_type" : "_ZTIN7android22IMountShutdownObserverE",
   "self_type" : "_ZTIKN7android22IMountShutdownObserverE",
   "size" : 24,
   "source_file" : "frameworks/base/libs/storage/include/storage/IMountShutdownObserver.h"
  },
  {
   "alignment" : 8,
   "is_const" : true,
   "linker_set_key" : "_ZTIKN7android2spINS_7IBinderEEE",
   "name" : "const android::sp<android::IBinder>",
   "referenced_type" : "_ZTIN7android2spINS_7IBinderEEE",
   "self_type" : "_ZTIKN7android2spINS_7IBinderEEE",
   "size" : 8,
   "source_file" : "frameworks/base/libs/storage/include/storage/IMountShutdownObserver.h"
  },
  {
   "alignment" : 8,
   "is_const" : true,
   "linker_set_key" : "_ZTIKN7android6ParcelE",
   "name" : "const android::Parcel",
   "referenced_type" : "_ZTIN7android6ParcelE",
   "self_type" : "_ZTIKN7android6ParcelE",
   "size" : 120,
   "source_file" : "frameworks/base/libs/storage/include/storage/IMountShutdownObserver.h"
  },
  {
   "alignment" : 8,
   "is_const" : true,
   "linker_set_key" : "_ZTIKN7android8String16E",
   "name" : "const android::String16",
   "referenced_type" : "_ZTIN7android8String16E",
   "self_type" : "_ZTIKN7android8String16E",
   "size" : 8,
   "source_file" : "frameworks/base/libs/storage/include/storage/IMountShutdownObserver.h"
  },
  {
   "alignment" : 8,
   "is_const" : true,
   "linker_set_key" : "_ZTIKNSt3__110unique_ptrIN7android22IMountShutdownObserverENS_14default_deleteIS2_EEEE",
   "name" : "const std::unique_ptr<android::IMountShutdownObserver, std::default_delete<android::IMountShutdownObserver>>",
   "referenced_type" : "_ZTINSt3__110unique_ptrIN7android22IMountShutdownObserverENS_14default_deleteIS2_EEEE",
   "self_type" : "_ZTIKNSt3__110unique_ptrIN7android22IMountShutdownObserverENS_14default_deleteIS2_EEEE",
   "size" : 8,
   "source_file" : "frameworks/base/libs/storage/include/storage/IMountShutdownObserver.h"
  }
 ],
 "record_types" :
 [
  {
   "alignment" : 8,
   "base_specifiers" :
   [
    {
     "referenced_type" : "_ZTIN7android10IInterfaceE"
    }
   ],
   "linker_set_key" : "_ZTIN7android22IMountShutdownObserverE",
   "name" : "android::IMountShutdownObserver",
   "record_kind" : "class",
   "referenced_type" : "_ZTIN7android22IMountShutdownObserverE",
   "self_type" : "_ZTIN7android22IMountShutdownObserverE",
   "size" : 24,
   "source_file" : "frameworks/base/libs/storage/include/storage/IMountShutdownObserver.h",
   "vtable_components" :
   [
    {
     "component_value" : 8,
     "kind" : "vbase_offset"
    },
    {
     "kind" : "offset_to_top"
    },
    {
     "kind" : "rtti",
     "mangled_component_name" : "_ZTIN7android22IMountShutdownObserverE"
    },
    {
     "kind" : "complete_dtor_pointer",
     "mangled_component_name" : "_ZN7android22IMountShutdownObserverD1Ev"
    },
    {
     "kind" : "deleting_dtor_pointer",
     "mangled_component_name" : "_ZN7android22IMountShutdownObserverD0Ev"
    },
    {
     "is_pure" : true,
     "mangled_component_name" : "_ZN7android10IInterface10onAsBinderEv"
    },
    {
     "mangled_component_name" : "_ZNK7android22IMountShutdownObserver22getInterfaceDescriptorEv"
    },
    {
     "is_pure" : true,
     "mangled_component_name" : "_ZN7android22IMountShutdownObserver18onShutDownCompleteEi"
    },
    {
     "kind" : "vcall_offset"
    },
    {
     "kind" : "vcall_offset"
    },
    {
     "kind" : "vcall_offset"
    },
    {
     "kind" : "vcall_offset"
    },
    {
     "component_value" : -8,
     "kind" : "vcall_offset"
    },
    {
     "component_value" : -8,
     "kind" : "offset_to_top"
    },
    {
     "kind" : "rtti",
     "mangled_component_name" : "_ZTIN7android22IMountShutdownObserverE"
    },
    {
     "kind" : "complete_dtor_pointer",
     "mangled_component_name" : "_ZTv0_n24_N7android22IMountShutdownObserverD1Ev"
    },
    {
     "kind" : "deleting_dtor_pointer",
     "mangled_component_name" : "_ZTv0_n24_N7android22IMountShutdownObserverD0Ev"
    },
    {
     "mangled_component_name" : "_ZN7android7RefBase10onFirstRefEv"
    },
    {
     "mangled_component_name" : "_ZN7android7RefBase15onLastStrongRefEPKv"
    },
    {
     "mangled_component_name" : "_ZN7android7RefBase20onIncStrongAttemptedEjPKv"
    },
    {
     "mangled_component_name" : "_ZN7android7RefBase13onLastWeakRefEPKv"
    }
   ]
  },
  {
   "alignment" : 8,
   "base_specifiers" :
   [
    {
     "referenced_type" : "_ZTIN7android11BnInterfaceINS_22IMountShutdownObserverEEE"
    }
   ],
   "linker_set_key" : "_ZTIN7android23BnMountShutdownObserverE",
   "name" : "android::BnMountShutdownObserver",
   "record_kind" : "class",
   "referenced_type" : "_ZTIN7android23BnMountShutdownObserverE",
   "self_type" : "_ZTIN7android23BnMountShutdownObserverE",
   "size" : 48,
   "source_file" : "frameworks/base/libs/storage/include/storage/IMountShutdownObserver.h",
   "vtable_components" :
   [
    {
     "component_value" : 32,
     "kind" : "vbase_offset"
    },
    {
     "kind" : "offset_to_top"
    },
    {
     "kind" : "rtti",
     "mangled_component_name" : "_ZTIN7android23BnMountShutdownObserverE"
    },
    {
     "kind" : "complete_dtor_pointer",
     "mangled_component_name" : "_ZN7android23BnMountShutdownObserverD1Ev"
    },
    {
     "kind" : "deleting_dtor_pointer",
     "mangled_component_name" : "_ZN7android23BnMountShutdownObserverD0Ev"
    },
    {
     "mangled_component_name" : "_ZN7android11BnInterfaceINS_22IMountShutdownObserverEE10onAsBinderEv"
    },
    {
     "mangled_component_name" : "_ZNK7android11BnInterfaceINS_22IMountShutdownObserverEE22getInterfaceDescriptorEv"
    },
    {
     "is_pure" : true,
     "mangled_component_name" : "_ZN7android22IMountShutdownObserver18onShutDownCompleteEi"
    },
    {
     "mangled_component_name" : "_ZN7android11BnInterfaceINS_22IMountShutdownObserverEE19queryLocalInterfaceERKNS_8String16E"
    },
    {
     "mangled_component_name" : "_ZN7android23BnMountShutdownObserver10onTransactEjRKNS_6ParcelEPS1_j"
    },
    {
     "component_value" : 24,
     "kind" : "vbase_offset"
    },
    {
     "component_value" : -8,
     "kind" : "offset_to_top"
    },
    {
     "kind" : "rtti",
     "mangled_component_name" : "_ZTIN7android23BnMountShutdownObserverE"
    },
    {
     "mangled_component_name" : "_ZThn8_N7android11BnInterfaceINS_22IMountShutdownObserverEE19queryLocalInterfaceERKNS_8String16E"
    },
    {
     "mangled_component_name" : "_ZThn8_NK7android11BnInterfaceINS_22IMountShutdownObserverEE22getInterfaceDescriptorEv"
    },
    {
     "mangled_component_name" : "_ZNK7android7BBinder13isBinderAliveEv"
    },
    {
     "mangled_component_name" : "_ZN7android7BBinder10pingBinderEv"
    },
    {
     "mangled_component_name" : "_ZN7android7BBinder4dumpEiRKNS_6VectorINS_8String16EEE"
    },
    {
     "mangled_component_name" : "_ZN7android7BBinder8transactEjRKNS_6ParcelEPS1_j"
    },
    {
     "mangled_component_name" : "_ZN7android7BBinder11linkToDeathERKNS_2spINS_7IBinder14DeathRecipientEEEPvj"
    },
    {
     "mangled_component_name" : "_ZN7android7BBinder13unlinkToDeathERKNS_2wpINS_7IBinder14DeathRecipientEEEPvjPS4_"
    },
    {
     "mangled_component_name" : "_ZNK7android7IBinder13checkSubclassEPKv"
    },
    {
     "mangled_component_name" : "_ZN7android7BBinder12attachObjectEPKvPvS3_PFvS2_S3_S3_E"
    },
    {
     "mangled_component_name" : "_ZNK7android7BBinder10findObjectEPKv"
    },
    {
     "mangled_component_name" : "_ZN7android7BBinder12detachObjectEPKv"
    },
    {
     "mangled_component_name" : "_ZN7android7BBinder11localBinderEv"
    },
    {
     "mangled_component_name" : "_ZN7android7IBinder12remoteBinderEv"
    },
    {
     "kind" : "complete_dtor_pointer",
     "mangled_component_name" : "_ZThn8_N7android23BnMountShutdownObserverD1Ev"
    },
    {
     "kind" : "deleting_dtor_pointer",
     "mangled_component_name" : "_ZThn8_N7android23BnMountShutdownObserverD0Ev"
    },
    {
     "mangled_component_name" : "_ZThn8_N7android23BnMountShutdownObserver10onTransactEjRKNS_6ParcelEPS1_j"
    },
    {
     "kind" : "vcall_offset"
    },
    {
     "kind" : "vcall_offset"
    },
    {
     "kind" : "vcall_offset"
    },
    {
     "kind" : "vcall_offset"
    },
    {
     "component_value" : -32,
     "kind" : "vcall_offset"
    },
    {
     "component_value" : -32,
     "kind" : "offset_to_top"
    },
    {
     "kind" : "rtti",
     "mangled_component_name" : "_ZTIN7android23BnMountShutdownObserverE"
    },
    {
     "kind" : "complete_dtor_pointer",
     "mangled_component_name" : "_ZTv0_n24_N7android23BnMountShutdownObserverD1Ev"
    },
    {
     "kind" : "deleting_dtor_pointer",
     "mangled_component_name" : "_ZTv0_n24_N7android23BnMountShutdownObserverD0Ev"
    },
    {
     "mangled_component_name" : "_ZN7android7RefBase10onFirstRefEv"
    },
    {
     "mangled_component_name" : "_ZN7android7RefBase15onLastStrongRefEPKv"
    },
    {
     "mangled_component_name" : "_ZN7android7RefBase20onIncStrongAttemptedEjPKv"
    },
    {
     "mangled_component_name" : "_ZN7android7RefBase13onLastWeakRefEPKv"
    }
   ]
  }
 ],
 "rvalue_reference_types" : []
}
