{
 "array_types" : [],
 "builtin_types" :
 [
  {
   "alignment" : 1,
   "is_integral" : true,
   "is_unsigned" : true,
   "linker_set_key" : "_ZTIb",
   "name" : "bool",
   "referenced_type" : "_ZTIb",
   "self_type" : "_ZTIb",
   "size" : 1
  },
  {
   "alignment" : 1,
   "is_integral" : true,
   "is_unsigned" : true,
   "linker_set_key" : "_ZTIh",
   "name" : "unsigned char",
   "referenced_type" : "_ZTIh",
   "self_type" : "_ZTIh",
   "size" : 1
  },
  {
   "alignment" : 4,
   "is_integral" : true,
   "linker_set_key" : "_ZTIi",
   "name" : "int",
   "referenced_type" : "_ZTIi",
   "self_type" : "_ZTIi",
   "size" : 4
  },
  {
   "alignment" : 8,
   "is_integral" : true,
   "is_unsigned" : true,
   "linker_set_key" : "_ZTIm",
   "name" : "unsigned long",
   "referenced_type" : "_ZTIm",
   "self_type" : "_ZTIm",
   "size" : 8
  },
  {
   "linker_set_key" : "_ZTIv",
   "name" : "void",
   "referenced_type" : "_ZTIv",
   "self_type" : "_ZTIv"
  }
 ],
 "elf_functions" : [],
 "elf_objects" : [],
 "enum_types" : [],
 "function_types" : [],
 "functions" :
 [
  {
   "function_name" : "android::IMountService::asInterface",
   "linker_set_key" : "_ZN7android13IMountService11asInterfaceERKNS_2spINS_7IBinderEEE",
   "parameters" :
   [
    {
     "referenced_type" : "_ZTIRKN7android2spINS_7IBinderEEE"
    }
   ],
   "return_type" : "_ZTIN7android2spINS_13IMountServiceEEE",
   "source_file" : "frameworks/base/libs/storage/include/storage/IMountService.h"
  },
  {
   "function_name" : "android::IMountService::getDefaultImpl",
   "linker_set_key" : "_ZN7android13IMountService14getDefaultImplEv",
   "return_type" : "_ZTIRKNSt3__110unique_ptrIN7android13IMountServiceENS_14default_deleteIS2_EEEE",
   "source_file" : "frameworks/base/libs/storage/include/storage/IMountService.h"
  },
  {
   "function_name" : "android::IMountService::setDefaultImpl",
   "linker_set_key" : "_ZN7android13IMountService14setDefaultImplENSt3__110unique_ptrIS0_NS1_14default_deleteIS0_EEEE",
   "parameters" :
   [
    {
     "referenced_type" : "_ZTINSt3__110unique_ptrIN7android13IMountServiceENS_14default_deleteIS2_EEEE"
    }
   ],
   "return_type" : "_ZTIb",
   "source_file" : "frameworks/base/libs/storage/include/storage/IMountService.h"
  },
  {
   "function_name" : "android::IMountService::IMountService",
   "linker_set_key" : "_ZN7android13IMountServiceC2Ev",
   "parameters" :
   [
    {
     "is_this_ptr" : true,
     "referenced_type" : "_ZTIPN7android13IMountServiceE"
    }
   ],
   "return_type" : "_ZTIv",
   "source_file" : "frameworks/base/libs/storage/include/storage/IMountService.h"
  },
  {
   "function_name" : "android::IMountService::~IMountService",
   "linker_set_key" : "_ZN7android13IMountServiceD0Ev",
   "parameters" :
   [
    {
     "is_this_ptr" : true,
     "referenced_type" : "_ZTIPN7android13IMountServiceE"
    }
   ],
   "return_type" : "_ZTIv",
   "source_file" : "frameworks/base/libs/storage/include/storage/IMountService.h"
  },
  {
   "function_name" : "android::IMountService::~IMountService",
   "linker_set_key" : "_ZN7android13IMountServiceD1Ev",
   "parameters" :
   [
    {
     "is_this_ptr" : true,
     "referenced_type" : "_ZTIPN7android13IMountServiceE"
    }
   ],
   "return_type" : "_ZTIv",
   "source_file" : "frameworks/base/libs/storage/include/storage/IMountService.h"
  },
  {
   "function_name" : "android::IMountService::~IMountService",
   "linker_set_key" : "_ZN7android13IMountServiceD2Ev",
   "parameters" :
   [
    {
     "is_this_ptr" : true,
     "referenced_type" : "_ZTIPN7android13IMountServiceE"
    }
   ],
   "return_type" : "_ZTIv",
   "source_file" : "frameworks/base/libs/storage/include/storage/IMountService.h"
  },
  {
   "function_name" : "android::IMountService::getInterfaceDescriptor",
   "linker_set_key" : "_ZNK7android13IMountService22getInterfaceDescriptorEv",
   "parameters" :
   [
    {
     "is_this_ptr" : true,
     "referenced_type" : "_ZTIPKN7android13IMountServiceE"
    }
   ],
   "return_type" : "_ZTIRKN7android8String16E",
   "source_file" : "frameworks/base/libs/storage/include/storage/IMountService.h"
  }
 ],
 "global_vars" :
 [
  {
   "linker_set_key" : "_ZN7android13IMountService10descriptorE",
   "name" : "android::IMountService::descriptor",
   "referenced_type" : "_ZTIKN7android8String16E",
   "source_file" : "frameworks/base/libs/storage/include/storage/IMountService.h"
  },
  {
   "access" : "private",
   "linker_set_key" : "_ZN7android13IMountService12default_implE",
   "name" : "android::IMountService::default_impl",
   "referenced_type" : "_ZTINSt3__110unique_ptrIN7android13IMountServiceENS_14default_deleteIS2_EEEE",
   "source_file" : "frameworks/base/libs/storage/include/storage/IMountService.h"
  },
  {
   "linker_set_key" : "_ZN7android18IObbActionListener10descriptorE",
   "name" : "android::IObbActionListener::descriptor",
   "referenced_type" : "_ZTIKN7android8String16E",
   "source_file" : "frameworks/base/libs/storage/include/storage/IObbActionListener.h"
  },
  {
   "access" : "private",
   "linker_set_key" : "_ZN7android18IObbActionListener12default_implE",
   "name" : "android::IObbActionListener::default_impl",
   "referenced_type" : "_ZTINSt3__110unique_ptrIN7android18IObbActionListenerENS_14default_deleteIS2_EEEE",
   "source_file" : "frameworks/base/libs/storage/include/storage/IObbActionListener.h"
  },
  {
   "linker_set_key" : "_ZN7android21IMountServiceListener10descriptorE",
   "name" : "android::IMountServiceListener::descriptor",
   "referenced_type" : "_ZTIKN7android8String16E",
   "source_file" : "frameworks/base/libs/storage/include/storage/IMountServiceListener.h"
  },
  {
   "access" : "private",
   "linker_set_key" : "_ZN7android21IMountServiceListener12default_implE",
   "name" : "android::IMountServiceListener::default_impl",
   "referenced_type" : "_ZTINSt3__110unique_ptrIN7android21IMountServiceListenerENS_14default_deleteIS2_EEEE",
   "source_file" : "frameworks/base/libs/storage/include/storage/IMountServiceListener.h"
  },
  {
   "linker_set_key" : "_ZN7android22IMountShutdownObserver10descriptorE",
   "name" : "android::IMountShutdownObserver::descriptor",
   "referenced_type" : "_ZTIKN7android8String16E",
   "source_file" : "frameworks/base/libs/storage/include/storage/IMountShutdownObserver.h"
  },
  {
   "access" : "private",
   "linker_set_key" : "_ZN7android22IMountShutdownObserver12default_implE",
   "name" : "android::IMountShutdownObserver::default_impl",
   "referenced_type" : "_ZTINSt3__110unique_ptrIN7android22IMountShutdownObserverENS_14default_deleteIS2_EEEE",
   "source_file" : "frameworks/base/libs/storage/include/storage/IMountShutdownObserver.h"
  }
 ],
 "lvalue_reference_types" :
 [
  {
   "alignment" : 8,
   "linker_set_key" : "_ZTIRKN7android2spINS_7IBinderEEE",
   "name" : "const android::sp<android::IBinder> &",
   "referenced_type" : "_ZTIKN7android2spINS_7IBinderEEE",
   "self_type" : "_ZTIRKN7android2spINS_7IBinderEEE",
   "size" : 8,
   "source_file" : "frameworks/base/libs/storage/include/storage/IMountService.h"
  },
  {
   "alignment" : 8,
   "linker_set_key" : "_ZTIRKN7android8String16E",
   "name" : "const android::String16 &",
   "referenced_type" : "_ZTIKN7android8String16E",
   "self_type" : "_ZTIRKN7android8String16E",
   "size" : 8,
   "source_file" : "frameworks/base/libs/storage/include/storage/IMountService.h"
  },
  {
   "alignment" : 8,
   "linker_set_key" : "_ZTIRKNSt3__110unique_ptrIN7android13IMountServiceENS_14default_deleteIS2_EEEE",
   "name" : "const std::unique_ptr<android::IMountService, std::default_delete<android::IMountService>> &",
   "referenced_type" : "_ZTIKNSt3__110unique_ptrIN7android13IMountServiceENS_14default_deleteIS2_EEEE",
   "self_type" : "_ZTIRKNSt3__110unique_ptrIN7android13IMountServiceENS_14default_deleteIS2_EEEE",
   "size" : 8,
   "source_file" : "frameworks/base/libs/storage/include/storage/IMountService.h"
  }
 ],
 "pointer_types" :
 [
  {
   "alignment" : 8,
   "linker_set_key" : "_ZTIPKN7android13IMountServiceE",
   "name" : "const android::IMountService *",
   "referenced_type" : "_ZTIKN7android13IMountServiceE",
   "self_type" : "_ZTIPKN7android13IMountServiceE",
   "size" : 8,
   "source_file" : "frameworks/base/libs/storage/include/storage/IMountService.h"
  },
  {
   "alignment" : 8,
   "linker_set_key" : "_ZTIPKh",
   "name" : "const unsigned char *",
   "referenced_type" : "_ZTIKh",
   "self_type" : "_ZTIPKh",
   "size" : 8,
   "source_file" : "frameworks/base/libs/storage/include/storage/ObbInfo.h"
  },
  {
   "alignment" : 8,
   "linker_set_key" : "_ZTIPN7android13IMountServiceE",
   "name" : "android::IMountService *",
   "referenced_type" : "_ZTIN7android13IMountServiceE",
   "self_type" : "_ZTIPN7android13IMountServiceE",
   "size" : 8,
   "source_file" : "frameworks/base/libs/storage/include/storage/IMountService.h"
  }
 ],
 "qualified_types" :
 [
  {
   "alignment" : 8,
   "is_const" : true,
   "linker_set_key" : "_ZTIKN7android13IMountServiceE",
   "name" : "const android::IMountService",
   "referenced_type" : "_ZTIN7android13IMountServiceE",
   "self_type" : "_ZTIKN7android13IMountServiceE",
   "size" : 24,
   "source_file" : "frameworks/base/libs/storage/include/storage/IMountService.h"
  },
  {
   "alignment" : 8,
   "is_const" : true,
   "linker_set_key" : "_ZTIKN7android2spINS_7IBinderEEE",
   "name" : "const android::sp<android::IBinder>",
   "referenced_type" : "_ZTIN7android2spINS_7IBinderEEE",
   "self_type" : "_ZTIKN7android2spINS_7IBinderEEE",
   "size" : 8,
   "source_file" : "frameworks/base/libs/storage/include/storage/IMountService.h"
  },
  {
   "alignment" : 8,
   "is_const" : true,
   "linker_set_key" : "_ZTIKN7android8String16E",
   "name" : "const android::String16",
   "referenced_type" : "_ZTIN7android8String16E",
   "self_type" : "_ZTIKN7android8String16E",
   "size" : 8,
   "source_file" : "frameworks/base/libs/storage/include/storage/IMountServiceListener.h"
  },
  {
   "alignment" : 8,
   "is_const" : true,
   "linker_set_key" : "_ZTIKNSt3__110unique_ptrIN7android13IMountServiceENS_14default_deleteIS2_EEEE",
   "name" : "const std::unique_ptr<android::IMountService, std::default_delete<android::IMountService>>",
   "referenced_type" : "_ZTINSt3__110unique_ptrIN7android13IMountServiceENS_14default_deleteIS2_EEEE",
   "self_type" : "_ZTIKNSt3__110unique_ptrIN7android13IMountServiceENS_14default_deleteIS2_EEEE",
   "size" : 8,
   "source_file" : "frameworks/base/libs/storage/include/storage/IMountService.h"
  },
  {
   "alignment" : 1,
   "is_const" : true,
   "linker_set_key" : "_ZTIKh",
   "name" : "const unsigned char",
   "referenced_type" : "_ZTIh",
   "self_type" : "_ZTIKh",
   "size" : 1,
   "source_file" : "frameworks/base/libs/storage/include/storage/ObbInfo.h"
  }
 ],
 "record_types" :
 [
  {
   "alignment" : 8,
   "base_specifiers" :
   [
    {
     "referenced_type" : "_ZTIN7android10IInterfaceE"
    }
   ],
   "linker_set_key" : "_ZTIN7android13IMountServiceE",
   "name" : "android::IMountService",
   "record_kind" : "class",
   "referenced_type" : "_ZTIN7android13IMountServiceE",
   "self_type" : "_ZTIN7android13IMountServiceE",
   "size" : 24,
   "source_file" : "frameworks/base/libs/storage/include/storage/IMountService.h",
   "vtable_components" :
   [
    {
     "component_value" : 8,
     "kind" : "vbase_offset"
    },
    {
     "kind" : "offset_to_top"
    },
    {
     "kind" : "rtti",
     "mangled_component_name" : "_ZTIN7android13IMountServiceE"
    },
    {
     "kind" : "complete_dtor_pointer",
     "mangled_component_name" : "_ZN7android13IMountServiceD1Ev"
    },
    {
     "kind" : "deleting_dtor_pointer",
     "mangled_component_name" : "_ZN7android13IMountServiceD0Ev"
    },
    {
     "is_pure" : true,
     "mangled_component_name" : "_ZN7android10IInterface10onAsBinderEv"
    },
    {
     "mangled_component_name" : "_ZNK7android13IMountService22getInterfaceDescriptorEv"
    },
    {
     "is_pure" : true,
     "mangled_component_name" : "_ZN7android13IMountService16registerListenerERKNS_2spINS_21IMountServiceListenerEEE"
    },
    {
     "is_pure" : true,
     "mangled_component_name" : "_ZN7android13IMountService18unregisterListenerERKNS_2spINS_21IMountServiceListenerEEE"
    },
    {
     "is_pure" : true,
     "mangled_component_name" : "_ZN7android13IMountService25isUsbMassStorageConnectedEv"
    },
    {
     "is_pure" : true,
     "mangled_component_name" : "_ZN7android13IMountService24setUsbMassStorageEnabledEb"
    },
    {
     "is_pure" : true,
     "mangled_component_name" : "_ZN7android13IMountService23isUsbMassStorageEnabledEv"
    },
    {
     "is_pure" : true,
     "mangled_component_name" : "_ZN7android13IMountService11mountVolumeERKNS_8String16E"
    },
    {
     "is_pure" : true,
     "mangled_component_name" : "_ZN7android13IMountService13unmountVolumeERKNS_8String16Ebb"
    },
    {
     "is_pure" : true,
     "mangled_component_name" : "_ZN7android13IMountService12formatVolumeERKNS_8String16E"
    },
    {
     "is_pure" : true,
     "mangled_component_name" : "_ZN7android13IMountService15getStorageUsersERKNS_8String16EPPi"
    },
    {
     "is_pure" : true,
     "mangled_component_name" : "_ZN7android13IMountService14getVolumeStateERKNS_8String16E"
    },
    {
     "is_pure" : true,
     "mangled_component_name" : "_ZN7android13IMountService21createSecureContainerERKNS_8String16EiS3_S3_i"
    },
    {
     "is_pure" : true,
     "mangled_component_name" : "_ZN7android13IMountService23finalizeSecureContainerERKNS_8String16E"
    },
    {
     "is_pure" : true,
     "mangled_component_name" : "_ZN7android13IMountService22destroySecureContainerERKNS_8String16E"
    },
    {
     "is_pure" : true,
     "mangled_component_name" : "_ZN7android13IMountService20mountSecureContainerERKNS_8String16ES3_i"
    },
    {
     "is_pure" : true,
     "mangled_component_name" : "_ZN7android13IMountService22unmountSecureContainerERKNS_8String16Eb"
    },
    {
     "is_pure" : true,
     "mangled_component_name" : "_ZN7android13IMountService24isSecureContainerMountedERKNS_8String16E"
    },
    {
     "is_pure" : true,
     "mangled_component_name" : "_ZN7android13IMountService21renameSecureContainerERKNS_8String16ES3_"
    },
    {
     "is_pure" : true,
     "mangled_component_name" : "_ZN7android13IMountService22getSecureContainerPathERKNS_8String16ERS1_"
    },
    {
     "is_pure" : true,
     "mangled_component_name" : "_ZN7android13IMountService22getSecureContainerListERKNS_8String16ERPS1_"
    },
    {
     "is_pure" : true,
     "mangled_component_name" : "_ZN7android13IMountService8shutdownERKNS_2spINS_22IMountShutdownObserverEEE"
    },
    {
     "is_pure" : true,
     "mangled_component_name" : "_ZN7android13IMountService17finishMediaUpdateEv"
    },
    {
     "is_pure" : true,
     "mangled_component_name" : "_ZN7android13IMountService8mountObbERKNS_8String16ES3_S3_RKNS_2spINS_18IObbActionListenerEEEiRKNS4_INS_7ObbInfoEEE"
    },
    {
     "is_pure" : true,
     "mangled_component_name" : "_ZN7android13IMountService10unmountObbERKNS_8String16EbRKNS_2spINS_18IObbActionListenerEEEi"
    },
    {
     "is_pure" : true,
     "mangled_component_name" : "_ZN7android13IMountService12isObbMountedERKNS_8String16E"
    },
    {
     "is_pure" : true,
     "mangled_component_name" : "_ZN7android13IMountService17getMountedObbPathERKNS_8String16ERS1_"
    },
    {
     "is_pure" : true,
     "mangled_component_name" : "_ZN7android13IMountService14decryptStorageERKNS_8String16E"
    },
    {
     "is_pure" : true,
     "mangled_component_name" : "_ZN7android13IMountService14encryptStorageERKNS_8String16E"
    },
    {
     "kind" : "vcall_offset"
    },
    {
     "kind" : "vcall_offset"
    },
    {
     "kind" : "vcall_offset"
    },
    {
     "kind" : "vcall_offset"
    },
    {
     "component_value" : -8,
     "kind" : "vcall_offset"
    },
    {
     "component_value" : -8,
     "kind" : "offset_to_top"
    },
    {
     "kind" : "rtti",
     "mangled_component_name" : "_ZTIN7android13IMountServiceE"
    },
    {
     "kind" : "complete_dtor_pointer",
     "mangled_component_name" : "_ZTv0_n24_N7android13IMountServiceD1Ev"
    },
    {
     "kind" : "deleting_dtor_pointer",
     "mangled_component_name" : "_ZTv0_n24_N7android13IMountServiceD0Ev"
    },
    {
     "mangled_component_name" : "_ZN7android7RefBase10onFirstRefEv"
    },
    {
     "mangled_component_name" : "_ZN7android7RefBase15onLastStrongRefEPKv"
    },
    {
     "mangled_component_name" : "_ZN7android7RefBase20onIncStrongAttemptedEjPKv"
    },
    {
     "mangled_component_name" : "_ZN7android7RefBase13onLastWeakRefEPKv"
    }
   ]
  },
  {
   "alignment" : 8,
   "base_specifiers" :
   [
    {
     "referenced_type" : "_ZTIN7android11BnInterfaceINS_13IMountServiceEEE"
    }
   ],
   "linker_set_key" : "_ZTIN7android14BnMountServiceE",
   "name" : "android::BnMountService",
   "record_kind" : "class",
   "referenced_type" : "_ZTIN7android14BnMountServiceE",
   "self_type" : "_ZTIN7android14BnMountServiceE",
   "size" : 48,
   "source_file" : "frameworks/base/libs/storage/include/storage/IMountService.h",
   "vtable_components" :
   [
    {
     "component_value" : 32,
     "kind" : "vbase_offset"
    },
    {
     "kind" : "offset_to_top"
    },
    {
     "kind" : "rtti",
     "mangled_component_name" : "_ZTIN7android14BnMountServiceE"
    },
    {
     "kind" : "complete_dtor_pointer",
     "mangled_component_name" : "_ZN7android14BnMountServiceD1Ev"
    },
    {
     "kind" : "deleting_dtor_pointer",
     "mangled_component_name" : "_ZN7android14BnMountServiceD0Ev"
    },
    {
     "mangled_component_name" : "_ZN7android11BnInterfaceINS_13IMountServiceEE10onAsBinderEv"
    },
    {
     "mangled_component_name" : "_ZNK7android11BnInterfaceINS_13IMountServiceEE22getInterfaceDescriptorEv"
    },
    {
     "is_pure" : true,
     "mangled_component_name" : "_ZN7android13IMountService16registerListenerERKNS_2spINS_21IMountServiceListenerEEE"
    },
    {
     "is_pure" : true,
     "mangled_component_name" : "_ZN7android13IMountService18unregisterListenerERKNS_2spINS_21IMountServiceListenerEEE"
    },
    {
     "is_pure" : true,
     "mangled_component_name" : "_ZN7android13IMountService25isUsbMassStorageConnectedEv"
    },
    {
     "is_pure" : true,
     "mangled_component_name" : "_ZN7android13IMountService24setUsbMassStorageEnabledEb"
    },
    {
     "is_pure" : true,
     "mangled_component_name" : "_ZN7android13IMountService23isUsbMassStorageEnabledEv"
    },
    {
     "is_pure" : true,
     "mangled_component_name" : "_ZN7android13IMountService11mountVolumeERKNS_8String16E"
    },
    {
     "is_pure" : true,
     "mangled_component_name" : "_ZN7android13IMountService13unmountVolumeERKNS_8String16Ebb"
    },
    {
     "is_pure" : true,
     "mangled_component_name" : "_ZN7android13IMountService12formatVolumeERKNS_8String16E"
    },
    {
     "is_pure" : true,
     "mangled_component_name" : "_ZN7android13IMountService15getStorageUsersERKNS_8String16EPPi"
    },
    {
     "is_pure" : true,
     "mangled_component_name" : "_ZN7android13IMountService14getVolumeStateERKNS_8String16E"
    },
    {
     "is_pure" : true,
     "mangled_component_name" : "_ZN7android13IMountService21createSecureContainerERKNS_8String16EiS3_S3_i"
    },
    {
     "is_pure" : true,
     "mangled_component_name" : "_ZN7android13IMountService23finalizeSecureContainerERKNS_8String16E"
    },
    {
     "is_pure" : true,
     "mangled_component_name" : "_ZN7android13IMountService22destroySecureContainerERKNS_8String16E"
    },
    {
     "is_pure" : true,
     "mangled_component_name" : "_ZN7android13IMountService20mountSecureContainerERKNS_8String16ES3_i"
    },
    {
     "is_pure" : true,
     "mangled_component_name" : "_ZN7android13IMountService22unmountSecureContainerERKNS_8String16Eb"
    },
    {
     "is_pure" : true,
     "mangled_component_name" : "_ZN7android13IMountService24isSecureContainerMountedERKNS_8String16E"
    },
    {
     "is_pure" : true,
     "mangled_component_name" : "_ZN7android13IMountService21renameSecureContainerERKNS_8String16ES3_"
    },
    {
     "is_pure" : true,
     "mangled_component_name" : "_ZN7android13IMountService22getSecureContainerPathERKNS_8String16ERS1_"
    },
    {
     "is_pure" : true,
     "mangled_component_name" : "_ZN7android13IMountService22getSecureContainerListERKNS_8String16ERPS1_"
    },
    {
     "is_pure" : true,
     "mangled_component_name" : "_ZN7android13IMountService8shutdownERKNS_2spINS_22IMountShutdownObserverEEE"
    },
    {
     "is_pure" : true,
     "mangled_component_name" : "_ZN7android13IMountService17finishMediaUpdateEv"
    },
    {
     "is_pure" : true,
     "mangled_component_name" : "_ZN7android13IMountService8mountObbERKNS_8String16ES3_S3_RKNS_2spINS_18IObbActionListenerEEEiRKNS4_INS_7ObbInfoEEE"
    },
    {
     "is_pure" : true,
     "mangled_component_name" : "_ZN7android13IMountService10unmountObbERKNS_8String16EbRKNS_2spINS_18IObbActionListenerEEEi"
    },
    {
     "is_pure" : true,
     "mangled_component_name" : "_ZN7android13IMountService12isObbMountedERKNS_8String16E"
    },
    {
     "is_pure" : true,
     "mangled_component_name" : "_ZN7android13IMountService17getMountedObbPathERKNS_8String16ERS1_"
    },
    {
     "is_pure" : true,
     "mangled_component_name" : "_ZN7android13IMountService14decryptStorageERKNS_8String16E"
    },
    {
     "is_pure" : true,
     "mangled_component_name" : "_ZN7android13IMountService14encryptStorageERKNS_8String16E"
    },
    {
     "mangled_component_name" : "_ZN7android11BnInterfaceINS_13IMountServiceEE19queryLocalInterfaceERKNS_8String16E"
    },
    {
     "mangled_component_name" : "_ZN7android14BnMountService10onTransactEjRKNS_6ParcelEPS1_j"
    },
    {
     "component_value" : 24,
     "kind" : "vbase_offset"
    },
    {
     "component_value" : -8,
     "kind" : "offset_to_top"
    },
    {
     "kind" : "rtti",
     "mangled_component_name" : "_ZTIN7android14BnMountServiceE"
    },
    {
     "mangled_component_name" : "_ZThn8_N7android11BnInterfaceINS_13IMountServiceEE19queryLocalInterfaceERKNS_8String16E"
    },
    {
     "mangled_component_name" : "_ZThn8_NK7android11BnInterfaceINS_13IMountServiceEE22getInterfaceDescriptorEv"
    },
    {
     "mangled_component_name" : "_ZNK7android7BBinder13isBinderAliveEv"
    },
    {
     "mangled_component_name" : "_ZN7android7BBinder10pingBinderEv"
    },
    {
     "mangled_component_name" : "_ZN7android7BBinder4dumpEiRKNS_6VectorINS_8String16EEE"
    },
    {
     "mangled_component_name" : "_ZN7android7BBinder8transactEjRKNS_6ParcelEPS1_j"
    },
    {
     "mangled_component_name" : "_ZN7android7BBinder11linkToDeathERKNS_2spINS_7IBinder14DeathRecipientEEEPvj"
    },
    {
     "mangled_component_name" : "_ZN7android7BBinder13unlinkToDeathERKNS_2wpINS_7IBinder14DeathRecipientEEEPvjPS4_"
    },
    {
     "mangled_component_name" : "_ZNK7android7IBinder13checkSubclassEPKv"
    },
    {
     "mangled_component_name" : "_ZN7android7BBinder12attachObjectEPKvPvS3_PFvS2_S3_S3_E"
    },
    {
     "mangled_component_name" : "_ZNK7android7BBinder10findObjectEPKv"
    },
    {
     "mangled_component_name" : "_ZN7android7BBinder12detachObjectEPKv"
    },
    {
     "mangled_component_name" : "_ZN7android7BBinder11localBinderEv"
    },
    {
     "mangled_component_name" : "_ZN7android7IBinder12remoteBinderEv"
    },
    {
     "kind" : "complete_dtor_pointer",
     "mangled_component_name" : "_ZThn8_N7android14BnMountServiceD1Ev"
    },
    {
     "kind" : "deleting_dtor_pointer",
     "mangled_component_name" : "_ZThn8_N7android14BnMountServiceD0Ev"
    },
    {
     "mangled_component_name" : "_ZThn8_N7android14BnMountService10onTransactEjRKNS_6ParcelEPS1_j"
    },
    {
     "kind" : "vcall_offset"
    },
    {
     "kind" : "vcall_offset"
    },
    {
     "kind" : "vcall_offset"
    },
    {
     "kind" : "vcall_offset"
    },
    {
     "component_value" : -32,
     "kind" : "vcall_offset"
    },
    {
     "component_value" : -32,
     "kind" : "offset_to_top"
    },
    {
     "kind" : "rtti",
     "mangled_component_name" : "_ZTIN7android14BnMountServiceE"
    },
    {
     "kind" : "complete_dtor_pointer",
     "mangled_component_name" : "_ZTv0_n24_N7android14BnMountServiceD1Ev"
    },
    {
     "kind" : "deleting_dtor_pointer",
     "mangled_component_name" : "_ZTv0_n24_N7android14BnMountServiceD0Ev"
    },
    {
     "mangled_component_name" : "_ZN7android7RefBase10onFirstRefEv"
    },
    {
     "mangled_component_name" : "_ZN7android7RefBase15onLastStrongRefEPKv"
    },
    {
     "mangled_component_name" : "_ZN7android7RefBase20onIncStrongAttemptedEjPKv"
    },
    {
     "mangled_component_name" : "_ZN7android7RefBase13onLastWeakRefEPKv"
    }
   ]
  },
  {
   "alignment" : 8,
   "base_specifiers" :
   [
    {
     "referenced_type" : "_ZTIN7android10IInterfaceE"
    }
   ],
   "linker_set_key" : "_ZTIN7android18IObbActionListenerE",
   "name" : "android::IObbActionListener",
   "record_kind" : "class",
   "referenced_type" : "_ZTIN7android18IObbActionListenerE",
   "self_type" : "_ZTIN7android18IObbActionListenerE",
   "size" : 24,
   "source_file" : "frameworks/base/libs/storage/include/storage/IObbActionListener.h",
   "vtable_components" :
   [
    {
     "component_value" : 8,
     "kind" : "vbase_offset"
    },
    {
     "kind" : "offset_to_top"
    },
    {
     "kind" : "rtti",
     "mangled_component_name" : "_ZTIN7android18IObbActionListenerE"
    },
    {
     "kind" : "complete_dtor_pointer",
     "mangled_component_name" : "_ZN7android18IObbActionListenerD1Ev"
    },
    {
     "kind" : "deleting_dtor_pointer",
     "mangled_component_name" : "_ZN7android18IObbActionListenerD0Ev"
    },
    {
     "is_pure" : true,
     "mangled_component_name" : "_ZN7android10IInterface10onAsBinderEv"
    },
    {
     "mangled_component_name" : "_ZNK7android18IObbActionListener22getInterfaceDescriptorEv"
    },
    {
     "is_pure" : true,
     "mangled_component_name" : "_ZN7android18IObbActionListener11onObbResultERKNS_8String16Eii"
    },
    {
     "kind" : "vcall_offset"
    },
    {
     "kind" : "vcall_offset"
    },
    {
     "kind" : "vcall_offset"
    },
    {
     "kind" : "vcall_offset"
    },
    {
     "component_value" : -8,
     "kind" : "vcall_offset"
    },
    {
     "component_value" : -8,
     "kind" : "offset_to_top"
    },
    {
     "kind" : "rtti",
     "mangled_component_name" : "_ZTIN7android18IObbActionListenerE"
    },
    {
     "kind" : "complete_dtor_pointer",
     "mangled_component_name" : "_ZTv0_n24_N7android18IObbActionListenerD1Ev"
    },
    {
     "kind" : "deleting_dtor_pointer",
     "mangled_component_name" : "_ZTv0_n24_N7android18IObbActionListenerD0Ev"
    },
    {
     "mangled_component_name" : "_ZN7android7RefBase10onFirstRefEv"
    },
    {
     "mangled_component_name" : "_ZN7android7RefBase15onLastStrongRefEPKv"
    },
    {
     "mangled_component_name" : "_ZN7android7RefBase20onIncStrongAttemptedEjPKv"
    },
    {
     "mangled_component_name" : "_ZN7android7RefBase13onLastWeakRefEPKv"
    }
   ]
  },
  {
   "alignment" : 8,
   "base_specifiers" :
   [
    {
     "referenced_type" : "_ZTIN7android11BnInterfaceINS_18IObbActionListenerEEE"
    }
   ],
   "linker_set_key" : "_ZTIN7android19BnObbActionListenerE",
   "name" : "android::BnObbActionListener",
   "record_kind" : "class",
   "referenced_type" : "_ZTIN7android19BnObbActionListenerE",
   "self_type" : "_ZTIN7android19BnObbActionListenerE",
   "size" : 48,
   "source_file" : "frameworks/base/libs/storage/include/storage/IObbActionListener.h",
   "vtable_components" :
   [
    {
     "component_value" : 32,
     "kind" : "vbase_offset"
    },
    {
     "kind" : "offset_to_top"
    },
    {
     "kind" : "rtti",
     "mangled_component_name" : "_ZTIN7android19BnObbActionListenerE"
    },
    {
     "kind" : "complete_dtor_pointer",
     "mangled_component_name" : "_ZN7android19BnObbActionListenerD1Ev"
    },
    {
     "kind" : "deleting_dtor_pointer",
     "mangled_component_name" : "_ZN7android19BnObbActionListenerD0Ev"
    },
    {
     "mangled_component_name" : "_ZN7android11BnInterfaceINS_18IObbActionListenerEE10onAsBinderEv"
    },
    {
     "mangled_component_name" : "_ZNK7android11BnInterfaceINS_18IObbActionListenerEE22getInterfaceDescriptorEv"
    },
    {
     "is_pure" : true,
     "mangled_component_name" : "_ZN7android18IObbActionListener11onObbResultERKNS_8String16Eii"
    },
    {
     "mangled_component_name" : "_ZN7android11BnInterfaceINS_18IObbActionListenerEE19queryLocalInterfaceERKNS_8String16E"
    },
    {
     "mangled_component_name" : "_ZN7android19BnObbActionListener10onTransactEjRKNS_6ParcelEPS1_j"
    },
    {
     "component_value" : 24,
     "kind" : "vbase_offset"
    },
    {
     "component_value" : -8,
     "kind" : "offset_to_top"
    },
    {
     "kind" : "rtti",
     "mangled_component_name" : "_ZTIN7android19BnObbActionListenerE"
    },
    {
     "mangled_component_name" : "_ZThn8_N7android11BnInterfaceINS_18IObbActionListenerEE19queryLocalInterfaceERKNS_8String16E"
    },
    {
     "mangled_component_name" : "_ZThn8_NK7android11BnInterfaceINS_18IObbActionListenerEE22getInterfaceDescriptorEv"
    },
    {
     "mangled_component_name" : "_ZNK7android7BBinder13isBinderAliveEv"
    },
    {
     "mangled_component_name" : "_ZN7android7BBinder10pingBinderEv"
    },
    {
     "mangled_component_name" : "_ZN7android7BBinder4dumpEiRKNS_6VectorINS_8String16EEE"
    },
    {
     "mangled_component_name" : "_ZN7android7BBinder8transactEjRKNS_6ParcelEPS1_j"
    },
    {
     "mangled_component_name" : "_ZN7android7BBinder11linkToDeathERKNS_2spINS_7IBinder14DeathRecipientEEEPvj"
    },
    {
     "mangled_component_name" : "_ZN7android7BBinder13unlinkToDeathERKNS_2wpINS_7IBinder14DeathRecipientEEEPvjPS4_"
    },
    {
     "mangled_component_name" : "_ZNK7android7IBinder13checkSubclassEPKv"
    },
    {
     "mangled_component_name" : "_ZN7android7BBinder12attachObjectEPKvPvS3_PFvS2_S3_S3_E"
    },
    {
     "mangled_component_name" : "_ZNK7android7BBinder10findObjectEPKv"
    },
    {
     "mangled_component_name" : "_ZN7android7BBinder12detachObjectEPKv"
    },
    {
     "mangled_component_name" : "_ZN7android7BBinder11localBinderEv"
    },
    {
     "mangled_component_name" : "_ZN7android7IBinder12remoteBinderEv"
    },
    {
     "kind" : "complete_dtor_pointer",
     "mangled_component_name" : "_ZThn8_N7android19BnObbActionListenerD1Ev"
    },
    {
     "kind" : "deleting_dtor_pointer",
     "mangled_component_name" : "_ZThn8_N7android19BnObbActionListenerD0Ev"
    },
    {
     "mangled_component_name" : "_ZThn8_N7android19BnObbActionListener10onTransactEjRKNS_6ParcelEPS1_j"
    },
    {
     "kind" : "vcall_offset"
    },
    {
     "kind" : "vcall_offset"
    },
    {
     "kind" : "vcall_offset"
    },
    {
     "kind" : "vcall_offset"
    },
    {
     "component_value" : -32,
     "kind" : "vcall_offset"
    },
    {
     "component_value" : -32,
     "kind" : "offset_to_top"
    },
    {
     "kind" : "rtti",
     "mangled_component_name" : "_ZTIN7android19BnObbActionListenerE"
    },
    {
     "kind" : "complete_dtor_pointer",
     "mangled_component_name" : "_ZTv0_n24_N7android19BnObbActionListenerD1Ev"
    },
    {
     "kind" : "deleting_dtor_pointer",
     "mangled_component_name" : "_ZTv0_n24_N7android19BnObbActionListenerD0Ev"
    },
    {
     "mangled_component_name" : "_ZN7android7RefBase10onFirstRefEv"
    },
    {
     "mangled_component_name" : "_ZN7android7RefBase15onLastStrongRefEPKv"
    },
    {
     "mangled_component_name" : "_ZN7android7RefBase20onIncStrongAttemptedEjPKv"
    },
    {
     "mangled_component_name" : "_ZN7android7RefBase13onLastWeakRefEPKv"
    }
   ]
  },
  {
   "alignment" : 8,
   "base_specifiers" :
   [
    {
     "referenced_type" : "_ZTIN7android10IInterfaceE"
    }
   ],
   "linker_set_key" : "_ZTIN7android21IMountServiceListenerE",
   "name" : "android::IMountServiceListener",
   "record_kind" : "class",
   "referenced_type" : "_ZTIN7android21IMountServiceListenerE",
   "self_type" : "_ZTIN7android21IMountServiceListenerE",
   "size" : 24,
   "source_file" : "frameworks/base/libs/storage/include/storage/IMountServiceListener.h",
   "vtable_components" :
   [
    {
     "component_value" : 8,
     "kind" : "vbase_offset"
    },
    {
     "kind" : "offset_to_top"
    },
    {
     "kind" : "rtti",
     "mangled_component_name" : "_ZTIN7android21IMountServiceListenerE"
    },
    {
     "kind" : "complete_dtor_pointer",
     "mangled_component_name" : "_ZN7android21IMountServiceListenerD1Ev"
    },
    {
     "kind" : "deleting_dtor_pointer",
     "mangled_component_name" : "_ZN7android21IMountServiceListenerD0Ev"
    },
    {
     "is_pure" : true,
     "mangled_component_name" : "_ZN7android10IInterface10onAsBinderEv"
    },
    {
     "mangled_component_name" : "_ZNK7android21IMountServiceListener22getInterfaceDescriptorEv"
    },
    {
     "is_pure" : true,
     "mangled_component_name" : "_ZN7android21IMountServiceListener33onUsbMassStorageConnectionChangedEb"
    },
    {
     "is_pure" : true,
     "mangled_component_name" : "_ZN7android21IMountServiceListener21onStorageStateChangedERKNS_8String16ES3_S3_"
    },
    {
     "kind" : "vcall_offset"
    },
    {
     "kind" : "vcall_offset"
    },
    {
     "kind" : "vcall_offset"
    },
    {
     "kind" : "vcall_offset"
    },
    {
     "component_value" : -8,
     "kind" : "vcall_offset"
    },
    {
     "component_value" : -8,
     "kind" : "offset_to_top"
    },
    {
     "kind" : "rtti",
     "mangled_component_name" : "_ZTIN7android21IMountServiceListenerE"
    },
    {
     "kind" : "complete_dtor_pointer",
     "mangled_component_name" : "_ZTv0_n24_N7android21IMountServiceListenerD1Ev"
    },
    {
     "kind" : "deleting_dtor_pointer",
     "mangled_component_name" : "_ZTv0_n24_N7android21IMountServiceListenerD0Ev"
    },
    {
     "mangled_component_name" : "_ZN7android7RefBase10onFirstRefEv"
    },
    {
     "mangled_component_name" : "_ZN7android7RefBase15onLastStrongRefEPKv"
    },
    {
     "mangled_component_name" : "_ZN7android7RefBase20onIncStrongAttemptedEjPKv"
    },
    {
     "mangled_component_name" : "_ZN7android7RefBase13onLastWeakRefEPKv"
    }
   ]
  },
  {
   "alignment" : 8,
   "base_specifiers" :
   [
    {
     "referenced_type" : "_ZTIN7android11BnInterfaceINS_21IMountServiceListenerEEE"
    }
   ],
   "linker_set_key" : "_ZTIN7android22BnMountServiceListenerE",
   "name" : "android::BnMountServiceListener",
   "record_kind" : "class",
   "referenced_type" : "_ZTIN7android22BnMountServiceListenerE",
   "self_type" : "_ZTIN7android22BnMountServiceListenerE",
   "size" : 48,
   "source_file" : "frameworks/base/libs/storage/include/storage/IMountServiceListener.h",
   "vtable_components" :
   [
    {
     "component_value" : 32,
     "kind" : "vbase_offset"
    },
    {
     "kind" : "offset_to_top"
    },
    {
     "kind" : "rtti",
     "mangled_component_name" : "_ZTIN7android22BnMountServiceListenerE"
    },
    {
     "kind" : "complete_dtor_pointer",
     "mangled_component_name" : "_ZN7android22BnMountServiceListenerD1Ev"
    },
    {
     "kind" : "deleting_dtor_pointer",
     "mangled_component_name" : "_ZN7android22BnMountServiceListenerD0Ev"
    },
    {
     "mangled_component_name" : "_ZN7android11BnInterfaceINS_21IMountServiceListenerEE10onAsBinderEv"
    },
    {
     "mangled_component_name" : "_ZNK7android11BnInterfaceINS_21IMountServiceListenerEE22getInterfaceDescriptorEv"
    },
    {
     "is_pure" : true,
     "mangled_component_name" : "_ZN7android21IMountServiceListener33onUsbMassStorageConnectionChangedEb"
    },
    {
     "is_pure" : true,
     "mangled_component_name" : "_ZN7android21IMountServiceListener21onStorageStateChangedERKNS_8String16ES3_S3_"
    },
    {
     "mangled_component_name" : "_ZN7android11BnInterfaceINS_21IMountServiceListenerEE19queryLocalInterfaceERKNS_8String16E"
    },
    {
     "mangled_component_name" : "_ZN7android22BnMountServiceListener10onTransactEjRKNS_6ParcelEPS1_j"
    },
    {
     "component_value" : 24,
     "kind" : "vbase_offset"
    },
    {
     "component_value" : -8,
     "kind" : "offset_to_top"
    },
    {
     "kind" : "rtti",
     "mangled_component_name" : "_ZTIN7android22BnMountServiceListenerE"
    },
    {
     "mangled_component_name" : "_ZThn8_N7android11BnInterfaceINS_21IMountServiceListenerEE19queryLocalInterfaceERKNS_8String16E"
    },
    {
     "mangled_component_name" : "_ZThn8_NK7android11BnInterfaceINS_21IMountServiceListenerEE22getInterfaceDescriptorEv"
    },
    {
     "mangled_component_name" : "_ZNK7android7BBinder13isBinderAliveEv"
    },
    {
     "mangled_component_name" : "_ZN7android7BBinder10pingBinderEv"
    },
    {
     "mangled_component_name" : "_ZN7android7BBinder4dumpEiRKNS_6VectorINS_8String16EEE"
    },
    {
     "mangled_component_name" : "_ZN7android7BBinder8transactEjRKNS_6ParcelEPS1_j"
    },
    {
     "mangled_component_name" : "_ZN7android7BBinder11linkToDeathERKNS_2spINS_7IBinder14DeathRecipientEEEPvj"
    },
    {
     "mangled_component_name" : "_ZN7android7BBinder13unlinkToDeathERKNS_2wpINS_7IBinder14DeathRecipientEEEPvjPS4_"
    },
    {
     "mangled_component_name" : "_ZNK7android7IBinder13checkSubclassEPKv"
    },
    {
     "mangled_component_name" : "_ZN7android7BBinder12attachObjectEPKvPvS3_PFvS2_S3_S3_E"
    },
    {
     "mangled_component_name" : "_ZNK7android7BBinder10findObjectEPKv"
    },
    {
     "mangled_component_name" : "_ZN7android7BBinder12detachObjectEPKv"
    },
    {
     "mangled_component_name" : "_ZN7android7BBinder11localBinderEv"
    },
    {
     "mangled_component_name" : "_ZN7android7IBinder12remoteBinderEv"
    },
    {
     "kind" : "complete_dtor_pointer",
     "mangled_component_name" : "_ZThn8_N7android22BnMountServiceListenerD1Ev"
    },
    {
     "kind" : "deleting_dtor_pointer",
     "mangled_component_name" : "_ZThn8_N7android22BnMountServiceListenerD0Ev"
    },
    {
     "mangled_component_name" : "_ZThn8_N7android22BnMountServiceListener10onTransactEjRKNS_6ParcelEPS1_j"
    },
    {
     "kind" : "vcall_offset"
    },
    {
     "kind" : "vcall_offset"
    },
    {
     "kind" : "vcall_offset"
    },
    {
     "kind" : "vcall_offset"
    },
    {
     "component_value" : -32,
     "kind" : "vcall_offset"
    },
    {
     "component_value" : -32,
     "kind" : "offset_to_top"
    },
    {
     "kind" : "rtti",
     "mangled_component_name" : "_ZTIN7android22BnMountServiceListenerE"
    },
    {
     "kind" : "complete_dtor_pointer",
     "mangled_component_name" : "_ZTv0_n24_N7android22BnMountServiceListenerD1Ev"
    },
    {
     "kind" : "deleting_dtor_pointer",
     "mangled_component_name" : "_ZTv0_n24_N7android22BnMountServiceListenerD0Ev"
    },
    {
     "mangled_component_name" : "_ZN7android7RefBase10onFirstRefEv"
    },
    {
     "mangled_component_name" : "_ZN7android7RefBase15onLastStrongRefEPKv"
    },
    {
     "mangled_component_name" : "_ZN7android7RefBase20onIncStrongAttemptedEjPKv"
    },
    {
     "mangled_component_name" : "_ZN7android7RefBase13onLastWeakRefEPKv"
    }
   ]
  },
  {
   "alignment" : 8,
   "base_specifiers" :
   [
    {
     "referenced_type" : "_ZTIN7android10IInterfaceE"
    }
   ],
   "linker_set_key" : "_ZTIN7android22IMountShutdownObserverE",
   "name" : "android::IMountShutdownObserver",
   "record_kind" : "class",
   "referenced_type" : "_ZTIN7android22IMountShutdownObserverE",
   "self_type" : "_ZTIN7android22IMountShutdownObserverE",
   "size" : 24,
   "source_file" : "frameworks/base/libs/storage/include/storage/IMountShutdownObserver.h",
   "vtable_components" :
   [
    {
     "component_value" : 8,
     "kind" : "vbase_offset"
    },
    {
     "kind" : "offset_to_top"
    },
    {
     "kind" : "rtti",
     "mangled_component_name" : "_ZTIN7android22IMountShutdownObserverE"
    },
    {
     "kind" : "complete_dtor_pointer",
     "mangled_component_name" : "_ZN7android22IMountShutdownObserverD1Ev"
    },
    {
     "kind" : "deleting_dtor_pointer",
     "mangled_component_name" : "_ZN7android22IMountShutdownObserverD0Ev"
    },
    {
     "is_pure" : true,
     "mangled_component_name" : "_ZN7android10IInterface10onAsBinderEv"
    },
    {
     "mangled_component_name" : "_ZNK7android22IMountShutdownObserver22getInterfaceDescriptorEv"
    },
    {
     "is_pure" : true,
     "mangled_component_name" : "_ZN7android22IMountShutdownObserver18onShutDownCompleteEi"
    },
    {
     "kind" : "vcall_offset"
    },
    {
     "kind" : "vcall_offset"
    },
    {
     "kind" : "vcall_offset"
    },
    {
     "kind" : "vcall_offset"
    },
    {
     "component_value" : -8,
     "kind" : "vcall_offset"
    },
    {
     "component_value" : -8,
     "kind" : "offset_to_top"
    },
    {
     "kind" : "rtti",
     "mangled_component_name" : "_ZTIN7android22IMountShutdownObserverE"
    },
    {
     "kind" : "complete_dtor_pointer",
     "mangled_component_name" : "_ZTv0_n24_N7android22IMountShutdownObserverD1Ev"
    },
    {
     "kind" : "deleting_dtor_pointer",
     "mangled_component_name" : "_ZTv0_n24_N7android22IMountShutdownObserverD0Ev"
    },
    {
     "mangled_component_name" : "_ZN7android7RefBase10onFirstRefEv"
    },
    {
     "mangled_component_name" : "_ZN7android7RefBase15onLastStrongRefEPKv"
    },
    {
     "mangled_component_name" : "_ZN7android7RefBase20onIncStrongAttemptedEjPKv"
    },
    {
     "mangled_component_name" : "_ZN7android7RefBase13onLastWeakRefEPKv"
    }
   ]
  },
  {
   "alignment" : 8,
   "base_specifiers" :
   [
    {
     "referenced_type" : "_ZTIN7android11BnInterfaceINS_22IMountShutdownObserverEEE"
    }
   ],
   "linker_set_key" : "_ZTIN7android23BnMountShutdownObserverE",
   "name" : "android::BnMountShutdownObserver",
   "record_kind" : "class",
   "referenced_type" : "_ZTIN7android23BnMountShutdownObserverE",
   "self_type" : "_ZTIN7android23BnMountShutdownObserverE",
   "size" : 48,
   "source_file" : "frameworks/base/libs/storage/include/storage/IMountShutdownObserver.h",
   "vtable_components" :
   [
    {
     "component_value" : 32,
     "kind" : "vbase_offset"
    },
    {
     "kind" : "offset_to_top"
    },
    {
     "kind" : "rtti",
     "mangled_component_name" : "_ZTIN7android23BnMountShutdownObserverE"
    },
    {
     "kind" : "complete_dtor_pointer",
     "mangled_component_name" : "_ZN7android23BnMountShutdownObserverD1Ev"
    },
    {
     "kind" : "deleting_dtor_pointer",
     "mangled_component_name" : "_ZN7android23BnMountShutdownObserverD0Ev"
    },
    {
     "mangled_component_name" : "_ZN7android11BnInterfaceINS_22IMountShutdownObserverEE10onAsBinderEv"
    },
    {
     "mangled_component_name" : "_ZNK7android11BnInterfaceINS_22IMountShutdownObserverEE22getInterfaceDescriptorEv"
    },
    {
     "is_pure" : true,
     "mangled_component_name" : "_ZN7android22IMountShutdownObserver18onShutDownCompleteEi"
    },
    {
     "mangled_component_name" : "_ZN7android11BnInterfaceINS_22IMountShutdownObserverEE19queryLocalInterfaceERKNS_8String16E"
    },
    {
     "mangled_component_name" : "_ZN7android23BnMountShutdownObserver10onTransactEjRKNS_6ParcelEPS1_j"
    },
    {
     "component_value" : 24,
     "kind" : "vbase_offset"
    },
    {
     "component_value" : -8,
     "kind" : "offset_to_top"
    },
    {
     "kind" : "rtti",
     "mangled_component_name" : "_ZTIN7android23BnMountShutdownObserverE"
    },
    {
     "mangled_component_name" : "_ZThn8_N7android11BnInterfaceINS_22IMountShutdownObserverEE19queryLocalInterfaceERKNS_8String16E"
    },
    {
     "mangled_component_name" : "_ZThn8_NK7android11BnInterfaceINS_22IMountShutdownObserverEE22getInterfaceDescriptorEv"
    },
    {
     "mangled_component_name" : "_ZNK7android7BBinder13isBinderAliveEv"
    },
    {
     "mangled_component_name" : "_ZN7android7BBinder10pingBinderEv"
    },
    {
     "mangled_component_name" : "_ZN7android7BBinder4dumpEiRKNS_6VectorINS_8String16EEE"
    },
    {
     "mangled_component_name" : "_ZN7android7BBinder8transactEjRKNS_6ParcelEPS1_j"
    },
    {
     "mangled_component_name" : "_ZN7android7BBinder11linkToDeathERKNS_2spINS_7IBinder14DeathRecipientEEEPvj"
    },
    {
     "mangled_component_name" : "_ZN7android7BBinder13unlinkToDeathERKNS_2wpINS_7IBinder14DeathRecipientEEEPvjPS4_"
    },
    {
     "mangled_component_name" : "_ZNK7android7IBinder13checkSubclassEPKv"
    },
    {
     "mangled_component_name" : "_ZN7android7BBinder12attachObjectEPKvPvS3_PFvS2_S3_S3_E"
    },
    {
     "mangled_component_name" : "_ZNK7android7BBinder10findObjectEPKv"
    },
    {
     "mangled_component_name" : "_ZN7android7BBinder12detachObjectEPKv"
    },
    {
     "mangled_component_name" : "_ZN7android7BBinder11localBinderEv"
    },
    {
     "mangled_component_name" : "_ZN7android7IBinder12remoteBinderEv"
    },
    {
     "kind" : "complete_dtor_pointer",
     "mangled_component_name" : "_ZThn8_N7android23BnMountShutdownObserverD1Ev"
    },
    {
     "kind" : "deleting_dtor_pointer",
     "mangled_component_name" : "_ZThn8_N7android23BnMountShutdownObserverD0Ev"
    },
    {
     "mangled_component_name" : "_ZThn8_N7android23BnMountShutdownObserver10onTransactEjRKNS_6ParcelEPS1_j"
    },
    {
     "kind" : "vcall_offset"
    },
    {
     "kind" : "vcall_offset"
    },
    {
     "kind" : "vcall_offset"
    },
    {
     "kind" : "vcall_offset"
    },
    {
     "component_value" : -32,
     "kind" : "vcall_offset"
    },
    {
     "component_value" : -32,
     "kind" : "offset_to_top"
    },
    {
     "kind" : "rtti",
     "mangled_component_name" : "_ZTIN7android23BnMountShutdownObserverE"
    },
    {
     "kind" : "complete_dtor_pointer",
     "mangled_component_name" : "_ZTv0_n24_N7android23BnMountShutdownObserverD1Ev"
    },
    {
     "kind" : "deleting_dtor_pointer",
     "mangled_component_name" : "_ZTv0_n24_N7android23BnMountShutdownObserverD0Ev"
    },
    {
     "mangled_component_name" : "_ZN7android7RefBase10onFirstRefEv"
    },
    {
     "mangled_component_name" : "_ZN7android7RefBase15onLastStrongRefEPKv"
    },
    {
     "mangled_component_name" : "_ZN7android7RefBase20onIncStrongAttemptedEjPKv"
    },
    {
     "mangled_component_name" : "_ZN7android7RefBase13onLastWeakRefEPKv"
    }
   ]
  },
  {
   "alignment" : 8,
   "base_specifiers" :
   [
    {
     "referenced_type" : "_ZTIN7android10ParcelableE"
    },
    {
     "is_virtual" : true,
     "referenced_type" : "_ZTIN7android7RefBaseE"
    }
   ],
   "fields" :
   [
    {
     "access" : "private",
     "field_name" : "mFileName",
     "field_offset" : 64,
     "referenced_type" : "_ZTIKN7android8String16E"
    },
    {
     "access" : "private",
     "field_name" : "mPackageName",
     "field_offset" : 128,
     "referenced_type" : "_ZTIKN7android8String16E"
    },
    {
     "access" : "private",
     "field_name" : "mVersion",
     "field_offset" : 192,
     "referenced_type" : "_ZTIi"
    },
    {
     "access" : "private",
     "field_name" : "mFlags",
     "field_offset" : 224,
     "referenced_type" : "_ZTIi"
    },
    {
     "access" : "private",
     "field_name" : "mSaltSize",
     "field_offset" : 256,
     "referenced_type" : "_ZTIm"
    },
    {
     "access" : "private",
     "field_name" : "mSalt",
     "field_offset" : 320,
     "referenced_type" : "_ZTIPKh"
    }
   ],
   "linker_set_key" : "_ZTIN7android7ObbInfoE",
   "name" : "android::ObbInfo",
   "record_kind" : "class",
   "referenced_type" : "_ZTIN7android7ObbInfoE",
   "self_type" : "_ZTIN7android7ObbInfoE",
   "size" : 64,
   "source_file" : "frameworks/base/libs/storage/include/storage/ObbInfo.h",
   "vtable_components" :
   [
    {
     "component_value" : 48,
     "kind" : "vbase_offset"
    },
    {
     "kind" : "offset_to_top"
    },
    {
     "kind" : "rtti",
     "mangled_component_name" : "_ZTIN7android7ObbInfoE"
    },
    {
     "kind" : "complete_dtor_pointer",
     "mangled_component_name" : "_ZN7android7ObbInfoD1Ev"
    },
    {
     "kind" : "deleting_dtor_pointer",
     "mangled_component_name" : "_ZN7android7ObbInfoD0Ev"
    },
    {
     "mangled_component_name" : "_ZNK7android7ObbInfo13writeToParcelEPNS_6ParcelE"
    },
    {
     "mangled_component_name" : "_ZN7android7ObbInfo14readFromParcelEPKNS_6ParcelE"
    },
    {
     "mangled_component_name" : "_ZNK7android10Parcelable12getStabilityEv"
    },
    {
     "kind" : "vcall_offset"
    },
    {
     "kind" : "vcall_offset"
    },
    {
     "kind" : "vcall_offset"
    },
    {
     "kind" : "vcall_offset"
    },
    {
     "component_value" : -48,
     "kind" : "vcall_offset"
    },
    {
     "component_value" : -48,
     "kind" : "offset_to_top"
    },
    {
     "kind" : "rtti",
     "mangled_component_name" : "_ZTIN7android7ObbInfoE"
    },
    {
     "kind" : "complete_dtor_pointer",
     "mangled_component_name" : "_ZTv0_n24_N7android7ObbInfoD1Ev"
    },
    {
     "kind" : "deleting_dtor_pointer",
     "mangled_component_name" : "_ZTv0_n24_N7android7ObbInfoD0Ev"
    },
    {
     "mangled_component_name" : "_ZN7android7RefBase10onFirstRefEv"
    },
    {
     "mangled_component_name" : "_ZN7android7RefBase15onLastStrongRefEPKv"
    },
    {
     "mangled_component_name" : "_ZN7android7RefBase20onIncStrongAttemptedEjPKv"
    },
    {
     "mangled_component_name" : "_ZN7android7RefBase13onLastWeakRefEPKv"
    }
   ]
  }
 ],
 "rvalue_reference_types" : []
}
