{
 "array_types" : [],
 "builtin_types" :
 [
  {
   "alignment" : 1,
   "is_integral" : true,
   "is_unsigned" : true,
   "linker_set_key" : "_ZTIh",
   "name" : "unsigned char",
   "referenced_type" : "_ZTIh",
   "self_type" : "_ZTIh",
   "size" : 1
  },
  {
   "alignment" : 4,
   "is_integral" : true,
   "linker_set_key" : "_ZTIi",
   "name" : "int",
   "referenced_type" : "_ZTIi",
   "self_type" : "_ZTIi",
   "size" : 4
  },
  {
   "alignment" : 4,
   "is_integral" : true,
   "is_unsigned" : true,
   "linker_set_key" : "_ZTIj",
   "name" : "unsigned int",
   "referenced_type" : "_ZTIj",
   "self_type" : "_ZTIj",
   "size" : 4
  },
  {
   "linker_set_key" : "_ZTIv",
   "name" : "void",
   "referenced_type" : "_ZTIv",
   "self_type" : "_ZTIv"
  },
  {
   "alignment" : 8,
   "is_integral" : true,
   "linker_set_key" : "_ZTIx",
   "name" : "long long",
   "referenced_type" : "_ZTIx",
   "self_type" : "_ZTIx",
   "size" : 8
  },
  {
   "alignment" : 8,
   "is_integral" : true,
   "is_unsigned" : true,
   "linker_set_key" : "_ZTIy",
   "name" : "unsigned long long",
   "referenced_type" : "_ZTIy",
   "self_type" : "_ZTIy",
   "size" : 8
  }
 ],
 "elf_functions" : [],
 "elf_objects" : [],
 "enum_types" :
 [
  {
   "alignment" : 4,
   "enum_fields" :
   [
    {
     "enum_field_value" : 0,
     "name" : "SZ_SEEK_SET"
    },
    {
     "enum_field_value" : 1,
     "name" : "SZ_SEEK_CUR"
    },
    {
     "enum_field_value" : 2,
     "name" : "SZ_SEEK_END"
    }
   ],
   "linker_set_key" : "_ZTI7ESzSeek",
   "name" : "ESzSeek",
   "referenced_type" : "_ZTI7ESzSeek",
   "self_type" : "_ZTI7ESzSeek",
   "size" : 4,
   "source_file" : "external/lzma/C/7zTypes.h",
   "underlying_type" : "_ZTIj"
  }
 ],
 "function_types" :
 [
  {
   "alignment" : 4,
   "linker_set_key" : "_ZTIFPvPK8ISzAllocjE",
   "name" : "void *(const ISzAlloc *, unsigned int)",
   "parameters" :
   [
    {
     "referenced_type" : "_ZTIPK8ISzAlloc"
    },
    {
     "referenced_type" : "_ZTIj"
    }
   ],
   "referenced_type" : "_ZTIFPvPK8ISzAllocjE",
   "return_type" : "_ZTIPv",
   "self_type" : "_ZTIFPvPK8ISzAllocjE",
   "source_file" : "external/lzma/C/7zTypes.h"
  },
  {
   "alignment" : 4,
   "linker_set_key" : "_ZTIFhPK7IByteInE",
   "name" : "unsigned char (const IByteIn *)",
   "parameters" :
   [
    {
     "referenced_type" : "_ZTIPK7IByteIn"
    }
   ],
   "referenced_type" : "_ZTIFhPK7IByteInE",
   "return_type" : "_ZTIh",
   "self_type" : "_ZTIFhPK7IByteInE",
   "source_file" : "external/lzma/C/7zTypes.h"
  },
  {
   "alignment" : 4,
   "linker_set_key" : "_ZTIFiPK12ISeqInStreamPvPjE",
   "name" : "int (const ISeqInStream *, void *, unsigned int *)",
   "parameters" :
   [
    {
     "referenced_type" : "_ZTIPK12ISeqInStream"
    },
    {
     "referenced_type" : "_ZTIPv"
    },
    {
     "referenced_type" : "_ZTIPj"
    }
   ],
   "referenced_type" : "_ZTIFiPK12ISeqInStreamPvPjE",
   "return_type" : "_ZTIi",
   "self_type" : "_ZTIFiPK12ISeqInStreamPvPjE",
   "source_file" : "external/lzma/C/7zTypes.h"
  },
  {
   "alignment" : 4,
   "linker_set_key" : "_ZTIFiPK13ILookInStreamPPKvPjE",
   "name" : "int (const ILookInStream *, const void **, unsigned int *)",
   "parameters" :
   [
    {
     "referenced_type" : "_ZTIPK13ILookInStream"
    },
    {
     "referenced_type" : "_ZTIPPKv"
    },
    {
     "referenced_type" : "_ZTIPj"
    }
   ],
   "referenced_type" : "_ZTIFiPK13ILookInStreamPPKvPjE",
   "return_type" : "_ZTIi",
   "self_type" : "_ZTIFiPK13ILookInStreamPPKvPjE",
   "source_file" : "external/lzma/C/7zTypes.h"
  },
  {
   "alignment" : 4,
   "linker_set_key" : "_ZTIFiPK13ILookInStreamPvPjE",
   "name" : "int (const ILookInStream *, void *, unsigned int *)",
   "parameters" :
   [
    {
     "referenced_type" : "_ZTIPK13ILookInStream"
    },
    {
     "referenced_type" : "_ZTIPv"
    },
    {
     "referenced_type" : "_ZTIPj"
    }
   ],
   "referenced_type" : "_ZTIFiPK13ILookInStreamPvPjE",
   "return_type" : "_ZTIi",
   "self_type" : "_ZTIFiPK13ILookInStreamPvPjE",
   "source_file" : "external/lzma/C/7zTypes.h"
  },
  {
   "alignment" : 4,
   "linker_set_key" : "_ZTIFiPK13ILookInStreamPx7ESzSeekE",
   "name" : "int (const ILookInStream *, long long *, ESzSeek)",
   "parameters" :
   [
    {
     "referenced_type" : "_ZTIPK13ILookInStream"
    },
    {
     "referenced_type" : "_ZTIPx"
    },
    {
     "referenced_type" : "_ZTI7ESzSeek"
    }
   ],
   "referenced_type" : "_ZTIFiPK13ILookInStreamPx7ESzSeekE",
   "return_type" : "_ZTIi",
   "self_type" : "_ZTIFiPK13ILookInStreamPx7ESzSeekE",
   "source_file" : "external/lzma/C/7zTypes.h"
  },
  {
   "alignment" : 4,
   "linker_set_key" : "_ZTIFiPK13ILookInStreamjE",
   "name" : "int (const ILookInStream *, unsigned int)",
   "parameters" :
   [
    {
     "referenced_type" : "_ZTIPK13ILookInStream"
    },
    {
     "referenced_type" : "_ZTIj"
    }
   ],
   "referenced_type" : "_ZTIFiPK13ILookInStreamjE",
   "return_type" : "_ZTIi",
   "self_type" : "_ZTIFiPK13ILookInStreamjE",
   "source_file" : "external/lzma/C/7zTypes.h"
  },
  {
   "alignment" : 4,
   "linker_set_key" : "_ZTIFiPK13ISeekInStreamPvPjE",
   "name" : "int (const ISeekInStream *, void *, unsigned int *)",
   "parameters" :
   [
    {
     "referenced_type" : "_ZTIPK13ISeekInStream"
    },
    {
     "referenced_type" : "_ZTIPv"
    },
    {
     "referenced_type" : "_ZTIPj"
    }
   ],
   "referenced_type" : "_ZTIFiPK13ISeekInStreamPvPjE",
   "return_type" : "_ZTIi",
   "self_type" : "_ZTIFiPK13ISeekInStreamPvPjE",
   "source_file" : "external/lzma/C/7zTypes.h"
  },
  {
   "alignment" : 4,
   "linker_set_key" : "_ZTIFiPK13ISeekInStreamPx7ESzSeekE",
   "name" : "int (const ISeekInStream *, long long *, ESzSeek)",
   "parameters" :
   [
    {
     "referenced_type" : "_ZTIPK13ISeekInStream"
    },
    {
     "referenced_type" : "_ZTIPx"
    },
    {
     "referenced_type" : "_ZTI7ESzSeek"
    }
   ],
   "referenced_type" : "_ZTIFiPK13ISeekInStreamPx7ESzSeekE",
   "return_type" : "_ZTIi",
   "self_type" : "_ZTIFiPK13ISeekInStreamPx7ESzSeekE",
   "source_file" : "external/lzma/C/7zTypes.h"
  },
  {
   "alignment" : 4,
   "linker_set_key" : "_ZTIFiPK17ICompressProgressyyE",
   "name" : "int (const ICompressProgress *, unsigned long long, unsigned long long)",
   "parameters" :
   [
    {
     "referenced_type" : "_ZTIPK17ICompressProgress"
    },
    {
     "referenced_type" : "_ZTIy"
    },
    {
     "referenced_type" : "_ZTIy"
    }
   ],
   "referenced_type" : "_ZTIFiPK17ICompressProgressyyE",
   "return_type" : "_ZTIi",
   "self_type" : "_ZTIFiPK17ICompressProgressyyE",
   "source_file" : "external/lzma/C/7zTypes.h"
  },
  {
   "alignment" : 4,
   "linker_set_key" : "_ZTIFjPK13ISeqOutStreamPKvjE",
   "name" : "unsigned int (const ISeqOutStream *, const void *, unsigned int)",
   "parameters" :
   [
    {
     "referenced_type" : "_ZTIPK13ISeqOutStream"
    },
    {
     "referenced_type" : "_ZTIPKv"
    },
    {
     "referenced_type" : "_ZTIj"
    }
   ],
   "referenced_type" : "_ZTIFjPK13ISeqOutStreamPKvjE",
   "return_type" : "_ZTIj",
   "self_type" : "_ZTIFjPK13ISeqOutStreamPKvjE",
   "source_file" : "external/lzma/C/7zTypes.h"
  },
  {
   "alignment" : 4,
   "linker_set_key" : "_ZTIFvPK8IByteOuthE",
   "name" : "void (const IByteOut *, unsigned char)",
   "parameters" :
   [
    {
     "referenced_type" : "_ZTIPK8IByteOut"
    },
    {
     "referenced_type" : "_ZTIh"
    }
   ],
   "referenced_type" : "_ZTIFvPK8IByteOuthE",
   "return_type" : "_ZTIv",
   "self_type" : "_ZTIFvPK8IByteOuthE",
   "source_file" : "external/lzma/C/7zTypes.h"
  },
  {
   "alignment" : 4,
   "linker_set_key" : "_ZTIFvPK8ISzAllocPvE",
   "name" : "void (const ISzAlloc *, void *)",
   "parameters" :
   [
    {
     "referenced_type" : "_ZTIPK8ISzAlloc"
    },
    {
     "referenced_type" : "_ZTIPv"
    }
   ],
   "referenced_type" : "_ZTIFvPK8ISzAllocPvE",
   "return_type" : "_ZTIv",
   "self_type" : "_ZTIFvPK8ISzAllocPvE",
   "source_file" : "external/lzma/C/7zTypes.h"
  }
 ],
 "functions" :
 [
  {
   "function_name" : "Buf_Create",
   "linker_set_key" : "Buf_Create",
   "parameters" :
   [
    {
     "referenced_type" : "_ZTIP4CBuf"
    },
    {
     "referenced_type" : "_ZTIj"
    },
    {
     "referenced_type" : "_ZTIPK8ISzAlloc"
    }
   ],
   "return_type" : "_ZTIi",
   "source_file" : "external/lzma/C/7zBuf.h"
  },
  {
   "function_name" : "Buf_Free",
   "linker_set_key" : "Buf_Free",
   "parameters" :
   [
    {
     "referenced_type" : "_ZTIP4CBuf"
    },
    {
     "referenced_type" : "_ZTIPK8ISzAlloc"
    }
   ],
   "return_type" : "_ZTIv",
   "source_file" : "external/lzma/C/7zBuf.h"
  },
  {
   "function_name" : "Buf_Init",
   "linker_set_key" : "Buf_Init",
   "parameters" :
   [
    {
     "referenced_type" : "_ZTIP4CBuf"
    }
   ],
   "return_type" : "_ZTIv",
   "source_file" : "external/lzma/C/7zBuf.h"
  }
 ],
 "global_vars" : [],
 "lvalue_reference_types" : [],
 "pointer_types" :
 [
  {
   "alignment" : 4,
   "linker_set_key" : "_ZTIP4CBuf",
   "name" : "CBuf *",
   "referenced_type" : "_ZTI4CBuf",
   "self_type" : "_ZTIP4CBuf",
   "size" : 4,
   "source_file" : "external/lzma/C/7zBuf.h"
  },
  {
   "alignment" : 4,
   "linker_set_key" : "_ZTIPFPvPK8ISzAllocjE",
   "name" : "void *(*)(const ISzAlloc *, unsigned int)",
   "referenced_type" : "_ZTIFPvPK8ISzAllocjE",
   "self_type" : "_ZTIPFPvPK8ISzAllocjE",
   "size" : 4,
   "source_file" : "external/lzma/C/7zTypes.h"
  },
  {
   "alignment" : 4,
   "linker_set_key" : "_ZTIPFhPK7IByteInE",
   "name" : "unsigned char (*)(const IByteIn *)",
   "referenced_type" : "_ZTIFhPK7IByteInE",
   "self_type" : "_ZTIPFhPK7IByteInE",
   "size" : 4,
   "source_file" : "external/lzma/C/7zTypes.h"
  },
  {
   "alignment" : 4,
   "linker_set_key" : "_ZTIPFiPK12ISeqInStreamPvPjE",
   "name" : "int (*)(const ISeqInStream *, void *, unsigned int *)",
   "referenced_type" : "_ZTIFiPK12ISeqInStreamPvPjE",
   "self_type" : "_ZTIPFiPK12ISeqInStreamPvPjE",
   "size" : 4,
   "source_file" : "external/lzma/C/7zTypes.h"
  },
  {
   "alignment" : 4,
   "linker_set_key" : "_ZTIPFiPK13ILookInStreamPPKvPjE",
   "name" : "int (*)(const ILookInStream *, const void **, unsigned int *)",
   "referenced_type" : "_ZTIFiPK13ILookInStreamPPKvPjE",
   "self_type" : "_ZTIPFiPK13ILookInStreamPPKvPjE",
   "size" : 4,
   "source_file" : "external/lzma/C/7zTypes.h"
  },
  {
   "alignment" : 4,
   "linker_set_key" : "_ZTIPFiPK13ILookInStreamPvPjE",
   "name" : "int (*)(const ILookInStream *, void *, unsigned int *)",
   "referenced_type" : "_ZTIFiPK13ILookInStreamPvPjE",
   "self_type" : "_ZTIPFiPK13ILookInStreamPvPjE",
   "size" : 4,
   "source_file" : "external/lzma/C/7zTypes.h"
  },
  {
   "alignment" : 4,
   "linker_set_key" : "_ZTIPFiPK13ILookInStreamPx7ESzSeekE",
   "name" : "int (*)(const ILookInStream *, long long *, ESzSeek)",
   "referenced_type" : "_ZTIFiPK13ILookInStreamPx7ESzSeekE",
   "self_type" : "_ZTIPFiPK13ILookInStreamPx7ESzSeekE",
   "size" : 4,
   "source_file" : "external/lzma/C/7zTypes.h"
  },
  {
   "alignment" : 4,
   "linker_set_key" : "_ZTIPFiPK13ILookInStreamjE",
   "name" : "int (*)(const ILookInStream *, unsigned int)",
   "referenced_type" : "_ZTIFiPK13ILookInStreamjE",
   "self_type" : "_ZTIPFiPK13ILookInStreamjE",
   "size" : 4,
   "source_file" : "external/lzma/C/7zTypes.h"
  },
  {
   "alignment" : 4,
   "linker_set_key" : "_ZTIPFiPK13ISeekInStreamPvPjE",
   "name" : "int (*)(const ISeekInStream *, void *, unsigned int *)",
   "referenced_type" : "_ZTIFiPK13ISeekInStreamPvPjE",
   "self_type" : "_ZTIPFiPK13ISeekInStreamPvPjE",
   "size" : 4,
   "source_file" : "external/lzma/C/7zTypes.h"
  },
  {
   "alignment" : 4,
   "linker_set_key" : "_ZTIPFiPK13ISeekInStreamPx7ESzSeekE",
   "name" : "int (*)(const ISeekInStream *, long long *, ESzSeek)",
   "referenced_type" : "_ZTIFiPK13ISeekInStreamPx7ESzSeekE",
   "self_type" : "_ZTIPFiPK13ISeekInStreamPx7ESzSeekE",
   "size" : 4,
   "source_file" : "external/lzma/C/7zTypes.h"
  },
  {
   "alignment" : 4,
   "linker_set_key" : "_ZTIPFiPK17ICompressProgressyyE",
   "name" : "int (*)(const ICompressProgress *, unsigned long long, unsigned long long)",
   "referenced_type" : "_ZTIFiPK17ICompressProgressyyE",
   "self_type" : "_ZTIPFiPK17ICompressProgressyyE",
   "size" : 4,
   "source_file" : "external/lzma/C/7zTypes.h"
  },
  {
   "alignment" : 4,
   "linker_set_key" : "_ZTIPFjPK13ISeqOutStreamPKvjE",
   "name" : "unsigned int (*)(const ISeqOutStream *, const void *, unsigned int)",
   "referenced_type" : "_ZTIFjPK13ISeqOutStreamPKvjE",
   "self_type" : "_ZTIPFjPK13ISeqOutStreamPKvjE",
   "size" : 4,
   "source_file" : "external/lzma/C/7zTypes.h"
  },
  {
   "alignment" : 4,
   "linker_set_key" : "_ZTIPFvPK8IByteOuthE",
   "name" : "void (*)(const IByteOut *, unsigned char)",
   "referenced_type" : "_ZTIFvPK8IByteOuthE",
   "self_type" : "_ZTIPFvPK8IByteOuthE",
   "size" : 4,
   "source_file" : "external/lzma/C/7zTypes.h"
  },
  {
   "alignment" : 4,
   "linker_set_key" : "_ZTIPFvPK8ISzAllocPvE",
   "name" : "void (*)(const ISzAlloc *, void *)",
   "referenced_type" : "_ZTIFvPK8ISzAllocPvE",
   "self_type" : "_ZTIPFvPK8ISzAllocPvE",
   "size" : 4,
   "source_file" : "external/lzma/C/7zTypes.h"
  },
  {
   "alignment" : 4,
   "linker_set_key" : "_ZTIPK12ISeqInStream",
   "name" : "const ISeqInStream *",
   "referenced_type" : "_ZTIK12ISeqInStream",
   "self_type" : "_ZTIPK12ISeqInStream",
   "size" : 4,
   "source_file" : "external/lzma/C/7zTypes.h"
  },
  {
   "alignment" : 4,
   "linker_set_key" : "_ZTIPK13ILookInStream",
   "name" : "const ILookInStream *",
   "referenced_type" : "_ZTIK13ILookInStream",
   "self_type" : "_ZTIPK13ILookInStream",
   "size" : 4,
   "source_file" : "external/lzma/C/7zTypes.h"
  },
  {
   "alignment" : 4,
   "linker_set_key" : "_ZTIPK13ISeekInStream",
   "name" : "const ISeekInStream *",
   "referenced_type" : "_ZTIK13ISeekInStream",
   "self_type" : "_ZTIPK13ISeekInStream",
   "size" : 4,
   "source_file" : "external/lzma/C/7zTypes.h"
  },
  {
   "alignment" : 4,
   "linker_set_key" : "_ZTIPK13ISeqOutStream",
   "name" : "const ISeqOutStream *",
   "referenced_type" : "_ZTIK13ISeqOutStream",
   "self_type" : "_ZTIPK13ISeqOutStream",
   "size" : 4,
   "source_file" : "external/lzma/C/7zTypes.h"
  },
  {
   "alignment" : 4,
   "linker_set_key" : "_ZTIPK17ICompressProgress",
   "name" : "const ICompressProgress *",
   "referenced_type" : "_ZTIK17ICompressProgress",
   "self_type" : "_ZTIPK17ICompressProgress",
   "size" : 4,
   "source_file" : "external/lzma/C/7zTypes.h"
  },
  {
   "alignment" : 4,
   "linker_set_key" : "_ZTIPK7IByteIn",
   "name" : "const IByteIn *",
   "referenced_type" : "_ZTIK7IByteIn",
   "self_type" : "_ZTIPK7IByteIn",
   "size" : 4,
   "source_file" : "external/lzma/C/7zTypes.h"
  },
  {
   "alignment" : 4,
   "linker_set_key" : "_ZTIPK8IByteOut",
   "name" : "const IByteOut *",
   "referenced_type" : "_ZTIK8IByteOut",
   "self_type" : "_ZTIPK8IByteOut",
   "size" : 4,
   "source_file" : "external/lzma/C/7zTypes.h"
  },
  {
   "alignment" : 4,
   "linker_set_key" : "_ZTIPK8ISzAlloc",
   "name" : "const ISzAlloc *",
   "referenced_type" : "_ZTIK8ISzAlloc",
   "self_type" : "_ZTIPK8ISzAlloc",
   "size" : 4,
   "source_file" : "external/lzma/C/7zTypes.h"
  },
  {
   "alignment" : 4,
   "linker_set_key" : "_ZTIPKv",
   "name" : "const void *",
   "referenced_type" : "_ZTIKv",
   "self_type" : "_ZTIPKv",
   "size" : 4,
   "source_file" : "external/lzma/C/7zTypes.h"
  },
  {
   "alignment" : 4,
   "linker_set_key" : "_ZTIPPKv",
   "name" : "const void **",
   "referenced_type" : "_ZTIPKv",
   "self_type" : "_ZTIPPKv",
   "size" : 4,
   "source_file" : "external/lzma/C/7zTypes.h"
  },
  {
   "alignment" : 4,
   "linker_set_key" : "_ZTIPh",
   "name" : "unsigned char *",
   "referenced_type" : "_ZTIh",
   "self_type" : "_ZTIPh",
   "size" : 4,
   "source_file" : "external/lzma/C/7zTypes.h"
  },
  {
   "alignment" : 4,
   "linker_set_key" : "_ZTIPj",
   "name" : "unsigned int *",
   "referenced_type" : "_ZTIj",
   "self_type" : "_ZTIPj",
   "size" : 4,
   "source_file" : "external/lzma/C/7zTypes.h"
  },
  {
   "alignment" : 4,
   "linker_set_key" : "_ZTIPv",
   "name" : "void *",
   "referenced_type" : "_ZTIv",
   "self_type" : "_ZTIPv",
   "size" : 4,
   "source_file" : "external/lzma/C/7zTypes.h"
  },
  {
   "alignment" : 4,
   "linker_set_key" : "_ZTIPx",
   "name" : "long long *",
   "referenced_type" : "_ZTIx",
   "self_type" : "_ZTIPx",
   "size" : 4,
   "source_file" : "external/lzma/C/7zTypes.h"
  }
 ],
 "qualified_types" :
 [
  {
   "alignment" : 4,
   "is_const" : true,
   "linker_set_key" : "_ZTIK12ISeqInStream",
   "name" : "const ISeqInStream",
   "referenced_type" : "_ZTI12ISeqInStream",
   "self_type" : "_ZTIK12ISeqInStream",
   "size" : 4,
   "source_file" : "external/lzma/C/7zTypes.h"
  },
  {
   "alignment" : 4,
   "is_const" : true,
   "linker_set_key" : "_ZTIK13ILookInStream",
   "name" : "const ILookInStream",
   "referenced_type" : "_ZTI13ILookInStream",
   "self_type" : "_ZTIK13ILookInStream",
   "size" : 16,
   "source_file" : "external/lzma/C/7zTypes.h"
  },
  {
   "alignment" : 4,
   "is_const" : true,
   "linker_set_key" : "_ZTIK13ISeekInStream",
   "name" : "const ISeekInStream",
   "referenced_type" : "_ZTI13ISeekInStream",
   "self_type" : "_ZTIK13ISeekInStream",
   "size" : 8,
   "source_file" : "external/lzma/C/7zTypes.h"
  },
  {
   "alignment" : 4,
   "is_const" : true,
   "linker_set_key" : "_ZTIK13ISeqOutStream",
   "name" : "const ISeqOutStream",
   "referenced_type" : "_ZTI13ISeqOutStream",
   "self_type" : "_ZTIK13ISeqOutStream",
   "size" : 4,
   "source_file" : "external/lzma/C/7zTypes.h"
  },
  {
   "alignment" : 4,
   "is_const" : true,
   "linker_set_key" : "_ZTIK17ICompressProgress",
   "name" : "const ICompressProgress",
   "referenced_type" : "_ZTI17ICompressProgress",
   "self_type" : "_ZTIK17ICompressProgress",
   "size" : 4,
   "source_file" : "external/lzma/C/7zTypes.h"
  },
  {
   "alignment" : 4,
   "is_const" : true,
   "linker_set_key" : "_ZTIK7IByteIn",
   "name" : "const IByteIn",
   "referenced_type" : "_ZTI7IByteIn",
   "self_type" : "_ZTIK7IByteIn",
   "size" : 4,
   "source_file" : "external/lzma/C/7zTypes.h"
  },
  {
   "alignment" : 4,
   "is_const" : true,
   "linker_set_key" : "_ZTIK8IByteOut",
   "name" : "const IByteOut",
   "referenced_type" : "_ZTI8IByteOut",
   "self_type" : "_ZTIK8IByteOut",
   "size" : 4,
   "source_file" : "external/lzma/C/7zTypes.h"
  },
  {
   "alignment" : 4,
   "is_const" : true,
   "linker_set_key" : "_ZTIK8ISzAlloc",
   "name" : "const ISzAlloc",
   "referenced_type" : "_ZTI8ISzAlloc",
   "self_type" : "_ZTIK8ISzAlloc",
   "size" : 8,
   "source_file" : "external/lzma/C/7zTypes.h"
  },
  {
   "is_const" : true,
   "linker_set_key" : "_ZTIKv",
   "name" : "const void",
   "referenced_type" : "_ZTIv",
   "self_type" : "_ZTIKv",
   "source_file" : "external/lzma/C/7zTypes.h"
  }
 ],
 "record_types" :
 [
  {
   "alignment" : 4,
   "fields" :
   [
    {
     "field_name" : "vt",
     "referenced_type" : "_ZTI12ISeqInStream"
    },
    {
     "field_name" : "realStream",
     "field_offset" : 32,
     "referenced_type" : "_ZTIPK13ILookInStream"
    }
   ],
   "linker_set_key" : "_ZTI10CSecToLook",
   "name" : "CSecToLook",
   "referenced_type" : "_ZTI10CSecToLook",
   "self_type" : "_ZTI10CSecToLook",
   "size" : 8,
   "source_file" : "external/lzma/C/7zTypes.h"
  },
  {
   "alignment" : 4,
   "fields" :
   [
    {
     "field_name" : "vt",
     "referenced_type" : "_ZTI12ISeqInStream"
    },
    {
     "field_name" : "realStream",
     "field_offset" : 32,
     "referenced_type" : "_ZTIPK13ILookInStream"
    }
   ],
   "linker_set_key" : "_ZTI10CSecToRead",
   "name" : "CSecToRead",
   "referenced_type" : "_ZTI10CSecToRead",
   "self_type" : "_ZTI10CSecToRead",
   "size" : 8,
   "source_file" : "external/lzma/C/7zTypes.h"
  },
  {
   "alignment" : 4,
   "fields" :
   [
    {
     "field_name" : "vt",
     "referenced_type" : "_ZTI13ILookInStream"
    },
    {
     "field_name" : "realStream",
     "field_offset" : 128,
     "referenced_type" : "_ZTIPK13ISeekInStream"
    },
    {
     "field_name" : "pos",
     "field_offset" : 160,
     "referenced_type" : "_ZTIj"
    },
    {
     "field_name" : "size",
     "field_offset" : 192,
     "referenced_type" : "_ZTIj"
    },
    {
     "field_name" : "buf",
     "field_offset" : 224,
     "referenced_type" : "_ZTIPh"
    },
    {
     "field_name" : "bufSize",
     "field_offset" : 256,
     "referenced_type" : "_ZTIj"
    }
   ],
   "linker_set_key" : "_ZTI12CLookToRead2",
   "name" : "CLookToRead2",
   "referenced_type" : "_ZTI12CLookToRead2",
   "self_type" : "_ZTI12CLookToRead2",
   "size" : 36,
   "source_file" : "external/lzma/C/7zTypes.h"
  },
  {
   "alignment" : 4,
   "fields" :
   [
    {
     "field_name" : "Read",
     "referenced_type" : "_ZTIPFiPK12ISeqInStreamPvPjE"
    }
   ],
   "linker_set_key" : "_ZTI12ISeqInStream",
   "name" : "ISeqInStream",
   "referenced_type" : "_ZTI12ISeqInStream",
   "self_type" : "_ZTI12ISeqInStream",
   "size" : 4,
   "source_file" : "external/lzma/C/7zTypes.h"
  },
  {
   "alignment" : 4,
   "fields" :
   [
    {
     "field_name" : "Look",
     "referenced_type" : "_ZTIPFiPK13ILookInStreamPPKvPjE"
    },
    {
     "field_name" : "Skip",
     "field_offset" : 32,
     "referenced_type" : "_ZTIPFiPK13ILookInStreamjE"
    },
    {
     "field_name" : "Read",
     "field_offset" : 64,
     "referenced_type" : "_ZTIPFiPK13ILookInStreamPvPjE"
    },
    {
     "field_name" : "Seek",
     "field_offset" : 96,
     "referenced_type" : "_ZTIPFiPK13ILookInStreamPx7ESzSeekE"
    }
   ],
   "linker_set_key" : "_ZTI13ILookInStream",
   "name" : "ILookInStream",
   "referenced_type" : "_ZTI13ILookInStream",
   "self_type" : "_ZTI13ILookInStream",
   "size" : 16,
   "source_file" : "external/lzma/C/7zTypes.h"
  },
  {
   "alignment" : 4,
   "fields" :
   [
    {
     "field_name" : "Read",
     "referenced_type" : "_ZTIPFiPK13ISeekInStreamPvPjE"
    },
    {
     "field_name" : "Seek",
     "field_offset" : 32,
     "referenced_type" : "_ZTIPFiPK13ISeekInStreamPx7ESzSeekE"
    }
   ],
   "linker_set_key" : "_ZTI13ISeekInStream",
   "name" : "ISeekInStream",
   "referenced_type" : "_ZTI13ISeekInStream",
   "self_type" : "_ZTI13ISeekInStream",
   "size" : 8,
   "source_file" : "external/lzma/C/7zTypes.h"
  },
  {
   "alignment" : 4,
   "fields" :
   [
    {
     "field_name" : "Write",
     "referenced_type" : "_ZTIPFjPK13ISeqOutStreamPKvjE"
    }
   ],
   "linker_set_key" : "_ZTI13ISeqOutStream",
   "name" : "ISeqOutStream",
   "referenced_type" : "_ZTI13ISeqOutStream",
   "self_type" : "_ZTI13ISeqOutStream",
   "size" : 4,
   "source_file" : "external/lzma/C/7zTypes.h"
  },
  {
   "alignment" : 4,
   "fields" :
   [
    {
     "field_name" : "Progress",
     "referenced_type" : "_ZTIPFiPK17ICompressProgressyyE"
    }
   ],
   "linker_set_key" : "_ZTI17ICompressProgress",
   "name" : "ICompressProgress",
   "referenced_type" : "_ZTI17ICompressProgress",
   "self_type" : "_ZTI17ICompressProgress",
   "size" : 4,
   "source_file" : "external/lzma/C/7zTypes.h"
  },
  {
   "alignment" : 4,
   "fields" :
   [
    {
     "field_name" : "data",
     "referenced_type" : "_ZTIPh"
    },
    {
     "field_name" : "size",
     "field_offset" : 32,
     "referenced_type" : "_ZTIj"
    }
   ],
   "linker_set_key" : "_ZTI4CBuf",
   "name" : "CBuf",
   "referenced_type" : "_ZTI4CBuf",
   "self_type" : "_ZTI4CBuf",
   "size" : 8,
   "source_file" : "external/lzma/C/7zBuf.h"
  },
  {
   "alignment" : 4,
   "fields" :
   [
    {
     "field_name" : "data",
     "referenced_type" : "_ZTIPh"
    },
    {
     "field_name" : "size",
     "field_offset" : 32,
     "referenced_type" : "_ZTIj"
    },
    {
     "field_name" : "pos",
     "field_offset" : 64,
     "referenced_type" : "_ZTIj"
    }
   ],
   "linker_set_key" : "_ZTI7CDynBuf",
   "name" : "CDynBuf",
   "referenced_type" : "_ZTI7CDynBuf",
   "self_type" : "_ZTI7CDynBuf",
   "size" : 12,
   "source_file" : "external/lzma/C/7zBuf.h"
  },
  {
   "alignment" : 4,
   "fields" :
   [
    {
     "field_name" : "Read",
     "referenced_type" : "_ZTIPFhPK7IByteInE"
    }
   ],
   "linker_set_key" : "_ZTI7IByteIn",
   "name" : "IByteIn",
   "referenced_type" : "_ZTI7IByteIn",
   "self_type" : "_ZTI7IByteIn",
   "size" : 4,
   "source_file" : "external/lzma/C/7zTypes.h"
  },
  {
   "alignment" : 4,
   "fields" :
   [
    {
     "field_name" : "Write",
     "referenced_type" : "_ZTIPFvPK8IByteOuthE"
    }
   ],
   "linker_set_key" : "_ZTI8IByteOut",
   "name" : "IByteOut",
   "referenced_type" : "_ZTI8IByteOut",
   "self_type" : "_ZTI8IByteOut",
   "size" : 4,
   "source_file" : "external/lzma/C/7zTypes.h"
  },
  {
   "alignment" : 4,
   "fields" :
   [
    {
     "field_name" : "Alloc",
     "referenced_type" : "_ZTIPFPvPK8ISzAllocjE"
    },
    {
     "field_name" : "Free",
     "field_offset" : 32,
     "referenced_type" : "_ZTIPFvPK8ISzAllocPvE"
    }
   ],
   "linker_set_key" : "_ZTI8ISzAlloc",
   "name" : "ISzAlloc",
   "referenced_type" : "_ZTI8ISzAlloc",
   "self_type" : "_ZTI8ISzAlloc",
   "size" : 8,
   "source_file" : "external/lzma/C/7zTypes.h"
  }
 ],
 "rvalue_reference_types" : []
}
