{
 "array_types" :
 [
  {
   "alignment" : 1,
   "linker_set_key" : "_ZTIA127_N4llvm21AlignedCharArrayUnionIccccccccccEE",
   "name" : "llvm::AlignedCharArrayUnion<char, char, char, char, char, char, char, char, char, char> [127]",
   "referenced_type" : "_ZTIN4llvm21AlignedCharArrayUnionIccccccccccEE",
   "self_type" : "_ZTIA127_N4llvm21AlignedCharArrayUnionIccccccccccEE",
   "size" : 127,
   "source_file" : "external/llvm/include/llvm/ADT/SmallVector.h"
  },
  {
   "alignment" : 8,
   "linker_set_key" : "_ZTIA15_N4llvm21AlignedCharArrayUnionINSt3__110unique_ptrINS_12GCOVFunctionENS1_14default_deleteIS3_EEEEcccccccccEE",
   "name" : "llvm::AlignedCharArrayUnion<std::__1::unique_ptr<llvm::GCOVFunction, std::__1::default_delete<llvm::GCOVFunction>>, char, char, char, char, char, char, char, char, char> [15]",
   "referenced_type" : "_ZTIN4llvm21AlignedCharArrayUnionINSt3__110unique_ptrINS_12GCOVFunctionENS1_14default_deleteIS3_EEEEcccccccccEE",
   "self_type" : "_ZTIA15_N4llvm21AlignedCharArrayUnionINSt3__110unique_ptrINS_12GCOVFunctionENS1_14default_deleteIS3_EEEEcccccccccEE",
   "size" : 120,
   "source_file" : "external/llvm/include/llvm/ADT/SmallVector.h"
  },
  {
   "alignment" : 8,
   "linker_set_key" : "_ZTIA15_N4llvm21AlignedCharArrayUnionINSt3__110unique_ptrINS_8GCOVEdgeENS1_14default_deleteIS3_EEEEcccccccccEE",
   "name" : "llvm::AlignedCharArrayUnion<std::__1::unique_ptr<llvm::GCOVEdge, std::__1::default_delete<llvm::GCOVEdge>>, char, char, char, char, char, char, char, char, char> [15]",
   "referenced_type" : "_ZTIN4llvm21AlignedCharArrayUnionINSt3__110unique_ptrINS_8GCOVEdgeENS1_14default_deleteIS3_EEEEcccccccccEE",
   "self_type" : "_ZTIA15_N4llvm21AlignedCharArrayUnionINSt3__110unique_ptrINS_8GCOVEdgeENS1_14default_deleteIS3_EEEEcccccccccEE",
   "size" : 120,
   "source_file" : "external/llvm/include/llvm/ADT/SmallVector.h"
  },
  {
   "alignment" : 8,
   "linker_set_key" : "_ZTIA15_N4llvm21AlignedCharArrayUnionINSt3__110unique_ptrINS_9GCOVBlockENS1_14default_deleteIS3_EEEEcccccccccEE",
   "name" : "llvm::AlignedCharArrayUnion<std::__1::unique_ptr<llvm::GCOVBlock, std::__1::default_delete<llvm::GCOVBlock>>, char, char, char, char, char, char, char, char, char> [15]",
   "referenced_type" : "_ZTIN4llvm21AlignedCharArrayUnionINSt3__110unique_ptrINS_9GCOVBlockENS1_14default_deleteIS3_EEEEcccccccccEE",
   "self_type" : "_ZTIA15_N4llvm21AlignedCharArrayUnionINSt3__110unique_ptrINS_9GCOVBlockENS1_14default_deleteIS3_EEEEcccccccccEE",
   "size" : 120,
   "source_file" : "external/llvm/include/llvm/ADT/SmallVector.h"
  },
  {
   "alignment" : 8,
   "linker_set_key" : "_ZTIA15_N4llvm21AlignedCharArrayUnionIPNS_8GCOVEdgeEcccccccccEE",
   "name" : "llvm::AlignedCharArrayUnion<llvm::GCOVEdge *, char, char, char, char, char, char, char, char, char> [15]",
   "referenced_type" : "_ZTIN4llvm21AlignedCharArrayUnionIPNS_8GCOVEdgeEcccccccccEE",
   "self_type" : "_ZTIA15_N4llvm21AlignedCharArrayUnionIPNS_8GCOVEdgeEcccccccccEE",
   "size" : 120,
   "source_file" : "external/llvm/include/llvm/ADT/SmallVector.h"
  },
  {
   "alignment" : 4,
   "linker_set_key" : "_ZTIA15_N4llvm21AlignedCharArrayUnionIjcccccccccEE",
   "name" : "llvm::AlignedCharArrayUnion<unsigned int, char, char, char, char, char, char, char, char, char> [15]",
   "referenced_type" : "_ZTIN4llvm21AlignedCharArrayUnionIjcccccccccEE",
   "self_type" : "_ZTIA15_N4llvm21AlignedCharArrayUnionIjcccccccccEE",
   "size" : 60,
   "source_file" : "external/llvm/include/llvm/ADT/SmallVector.h"
  },
  {
   "alignment" : 8,
   "linker_set_key" : "_ZTIA15_N4llvm21AlignedCharArrayUnionImcccccccccEE",
   "name" : "llvm::AlignedCharArrayUnion<unsigned long, char, char, char, char, char, char, char, char, char> [15]",
   "referenced_type" : "_ZTIN4llvm21AlignedCharArrayUnionImcccccccccEE",
   "self_type" : "_ZTIA15_N4llvm21AlignedCharArrayUnionImcccccccccEE",
   "size" : 120,
   "source_file" : "external/llvm/include/llvm/ADT/SmallVector.h"
  },
  {
   "alignment" : 1,
   "linker_set_key" : "_ZTIA16_c",
   "name" : "char [16]",
   "referenced_type" : "_ZTIc",
   "self_type" : "_ZTIA16_c",
   "size" : 16,
   "source_file" : "external/llvm/include/llvm/Support/AlignOf.h"
  },
  {
   "alignment" : 1,
   "linker_set_key" : "_ZTIA1_c",
   "name" : "char [1]",
   "referenced_type" : "_ZTIc",
   "self_type" : "_ZTIA1_c",
   "size" : 1,
   "source_file" : "external/llvm/include/llvm/Support/AlignOf.h"
  },
  {
   "alignment" : 1,
   "linker_set_key" : "_ZTIA255_N4llvm21AlignedCharArrayUnionIccccccccccEE",
   "name" : "llvm::AlignedCharArrayUnion<char, char, char, char, char, char, char, char, char, char> [255]",
   "referenced_type" : "_ZTIN4llvm21AlignedCharArrayUnionIccccccccccEE",
   "self_type" : "_ZTIA255_N4llvm21AlignedCharArrayUnionIccccccccccEE",
   "size" : 255,
   "source_file" : "external/llvm/include/llvm/ADT/SmallVector.h"
  },
  {
   "alignment" : 1,
   "linker_set_key" : "_ZTIA256_h",
   "name" : "unsigned char [256]",
   "referenced_type" : "_ZTIh",
   "self_type" : "_ZTIA256_h",
   "size" : 256,
   "source_file" : "external/llvm/include/llvm/Support/MathExtras.h"
  },
  {
   "alignment" : 8,
   "linker_set_key" : "_ZTIA3_N4llvm21AlignedCharArrayUnionINSt3__14pairINS1_12basic_stringIcNS1_11char_traitsIcEENS1_9allocatorIcEEEENS_8FileInfo12GCOVCoverageEEEcccccccccEE",
   "name" : "llvm::AlignedCharArrayUnion<std::__1::pair<std::__1::basic_string<char>, llvm::FileInfo::GCOVCoverage>, char, char, char, char, char, char, char, char, char> [3]",
   "referenced_type" : "_ZTIN4llvm21AlignedCharArrayUnionINSt3__14pairINS1_12basic_stringIcNS1_11char_traitsIcEENS1_9allocatorIcEEEENS_8FileInfo12GCOVCoverageEEEcccccccccEE",
   "self_type" : "_ZTIA3_N4llvm21AlignedCharArrayUnionINSt3__14pairINS1_12basic_stringIcNS1_11char_traitsIcEENS1_9allocatorIcEEEENS_8FileInfo12GCOVCoverageEEEcccccccccEE",
   "size" : 192,
   "source_file" : "external/llvm/include/llvm/ADT/SmallVector.h"
  },
  {
   "alignment" : 8,
   "linker_set_key" : "_ZTIA3_N4llvm21AlignedCharArrayUnionIPKNS_9GCOVBlockEcccccccccEE",
   "name" : "llvm::AlignedCharArrayUnion<const llvm::GCOVBlock *, char, char, char, char, char, char, char, char, char> [3]",
   "referenced_type" : "_ZTIN4llvm21AlignedCharArrayUnionIPKNS_9GCOVBlockEcccccccccEE",
   "self_type" : "_ZTIA3_N4llvm21AlignedCharArrayUnionIPKNS_9GCOVBlockEcccccccccEE",
   "size" : 24,
   "source_file" : "external/llvm/include/llvm/ADT/SmallVector.h"
  },
  {
   "alignment" : 8,
   "linker_set_key" : "_ZTIA3_N4llvm21AlignedCharArrayUnionIPvcccccccccEE",
   "name" : "llvm::AlignedCharArrayUnion<void *, char, char, char, char, char, char, char, char, char> [3]",
   "referenced_type" : "_ZTIN4llvm21AlignedCharArrayUnionIPvcccccccccEE",
   "self_type" : "_ZTIA3_N4llvm21AlignedCharArrayUnionIPvcccccccccEE",
   "size" : 24,
   "source_file" : "external/llvm/include/llvm/ADT/SmallVector.h"
  },
  {
   "alignment" : 1,
   "linker_set_key" : "_ZTIA4_c",
   "name" : "char [4]",
   "referenced_type" : "_ZTIc",
   "self_type" : "_ZTIA4_c",
   "size" : 4,
   "source_file" : "external/llvm/include/llvm/Support/AlignOf.h"
  },
  {
   "alignment" : 1,
   "linker_set_key" : "_ZTIA64_c",
   "name" : "char [64]",
   "referenced_type" : "_ZTIc",
   "self_type" : "_ZTIA64_c",
   "size" : 64,
   "source_file" : "external/llvm/include/llvm/Support/AlignOf.h"
  },
  {
   "alignment" : 1,
   "linker_set_key" : "_ZTIA8_c",
   "name" : "char [8]",
   "referenced_type" : "_ZTIc",
   "self_type" : "_ZTIA8_c",
   "size" : 8,
   "source_file" : "external/llvm/include/llvm/Support/AlignOf.h"
  }
 ],
 "builtin_types" :
 [
  {
   "alignment" : 1,
   "is_integral" : true,
   "linker_set_key" : "_ZTIa",
   "name" : "signed char",
   "referenced_type" : "_ZTIa",
   "self_type" : "_ZTIa",
   "size" : 1
  },
  {
   "alignment" : 1,
   "is_integral" : true,
   "is_unsigned" : true,
   "linker_set_key" : "_ZTIb",
   "name" : "bool",
   "referenced_type" : "_ZTIb",
   "self_type" : "_ZTIb",
   "size" : 1
  },
  {
   "alignment" : 1,
   "is_integral" : true,
   "is_unsigned" : true,
   "linker_set_key" : "_ZTIc",
   "name" : "char",
   "referenced_type" : "_ZTIc",
   "self_type" : "_ZTIc",
   "size" : 1
  },
  {
   "alignment" : 8,
   "linker_set_key" : "_ZTId",
   "name" : "double",
   "referenced_type" : "_ZTId",
   "self_type" : "_ZTId",
   "size" : 8
  },
  {
   "alignment" : 4,
   "linker_set_key" : "_ZTIf",
   "name" : "float",
   "referenced_type" : "_ZTIf",
   "self_type" : "_ZTIf",
   "size" : 4
  },
  {
   "alignment" : 1,
   "is_integral" : true,
   "is_unsigned" : true,
   "linker_set_key" : "_ZTIh",
   "name" : "unsigned char",
   "referenced_type" : "_ZTIh",
   "self_type" : "_ZTIh",
   "size" : 1
  },
  {
   "alignment" : 4,
   "is_integral" : true,
   "linker_set_key" : "_ZTIi",
   "name" : "int",
   "referenced_type" : "_ZTIi",
   "self_type" : "_ZTIi",
   "size" : 4
  },
  {
   "alignment" : 4,
   "is_integral" : true,
   "is_unsigned" : true,
   "linker_set_key" : "_ZTIj",
   "name" : "unsigned int",
   "referenced_type" : "_ZTIj",
   "self_type" : "_ZTIj",
   "size" : 4
  },
  {
   "alignment" : 8,
   "is_integral" : true,
   "linker_set_key" : "_ZTIl",
   "name" : "long",
   "referenced_type" : "_ZTIl",
   "self_type" : "_ZTIl",
   "size" : 8
  },
  {
   "alignment" : 8,
   "is_integral" : true,
   "is_unsigned" : true,
   "linker_set_key" : "_ZTIm",
   "name" : "unsigned long",
   "referenced_type" : "_ZTIm",
   "self_type" : "_ZTIm",
   "size" : 8
  },
  {
   "alignment" : 2,
   "is_integral" : true,
   "linker_set_key" : "_ZTIs",
   "name" : "short",
   "referenced_type" : "_ZTIs",
   "self_type" : "_ZTIs",
   "size" : 2
  },
  {
   "alignment" : 2,
   "is_integral" : true,
   "is_unsigned" : true,
   "linker_set_key" : "_ZTIt",
   "name" : "unsigned short",
   "referenced_type" : "_ZTIt",
   "self_type" : "_ZTIt",
   "size" : 2
  },
  {
   "linker_set_key" : "_ZTIv",
   "name" : "void",
   "referenced_type" : "_ZTIv",
   "self_type" : "_ZTIv"
  },
  {
   "alignment" : 8,
   "is_integral" : true,
   "linker_set_key" : "_ZTIx",
   "name" : "long long",
   "referenced_type" : "_ZTIx",
   "self_type" : "_ZTIx",
   "size" : 8
  },
  {
   "alignment" : 8,
   "is_integral" : true,
   "is_unsigned" : true,
   "linker_set_key" : "_ZTIy",
   "name" : "unsigned long long",
   "referenced_type" : "_ZTIy",
   "self_type" : "_ZTIy",
   "size" : 8
  }
 ],
 "elf_functions" : [],
 "elf_objects" : [],
 "enum_types" :
 [
  {
   "access" : "private",
   "alignment" : 4,
   "enum_fields" :
   [
    {
     "enum_field_value" : 0,
     "name" : "llvm::raw_ostream::Unbuffered"
    },
    {
     "enum_field_value" : 1,
     "name" : "llvm::raw_ostream::InternalBuffer"
    },
    {
     "enum_field_value" : 2,
     "name" : "llvm::raw_ostream::ExternalBuffer"
    }
   ],
   "linker_set_key" : "_ZTIN4llvm11raw_ostream10BufferKindE",
   "name" : "llvm::raw_ostream::BufferKind",
   "referenced_type" : "_ZTIN4llvm11raw_ostream10BufferKindE",
   "self_type" : "_ZTIN4llvm11raw_ostream10BufferKindE",
   "size" : 4,
   "source_file" : "external/llvm/include/llvm/Support/raw_ostream.h",
   "underlying_type" : "_ZTIj"
  },
  {
   "alignment" : 4,
   "enum_fields" :
   [
    {
     "enum_field_value" : 0,
     "name" : "llvm::raw_ostream::BLACK"
    },
    {
     "enum_field_value" : 1,
     "name" : "llvm::raw_ostream::RED"
    },
    {
     "enum_field_value" : 2,
     "name" : "llvm::raw_ostream::GREEN"
    },
    {
     "enum_field_value" : 3,
     "name" : "llvm::raw_ostream::YELLOW"
    },
    {
     "enum_field_value" : 4,
     "name" : "llvm::raw_ostream::BLUE"
    },
    {
     "enum_field_value" : 5,
     "name" : "llvm::raw_ostream::MAGENTA"
    },
    {
     "enum_field_value" : 6,
     "name" : "llvm::raw_ostream::CYAN"
    },
    {
     "enum_field_value" : 7,
     "name" : "llvm::raw_ostream::WHITE"
    },
    {
     "enum_field_value" : 8,
     "name" : "llvm::raw_ostream::SAVEDCOLOR"
    }
   ],
   "linker_set_key" : "_ZTIN4llvm11raw_ostream6ColorsE",
   "name" : "llvm::raw_ostream::Colors",
   "referenced_type" : "_ZTIN4llvm11raw_ostream6ColorsE",
   "self_type" : "_ZTIN4llvm11raw_ostream6ColorsE",
   "size" : 4,
   "source_file" : "external/llvm/include/llvm/Support/raw_ostream.h",
   "underlying_type" : "_ZTIj"
  },
  {
   "alignment" : 4,
   "enum_fields" :
   [
    {
     "enum_field_value" : 0,
     "name" : "llvm::MemoryBuffer::MemoryBuffer_Malloc"
    },
    {
     "enum_field_value" : 1,
     "name" : "llvm::MemoryBuffer::MemoryBuffer_MMap"
    }
   ],
   "linker_set_key" : "_ZTIN4llvm12MemoryBuffer10BufferKindE",
   "name" : "llvm::MemoryBuffer::BufferKind",
   "referenced_type" : "_ZTIN4llvm12MemoryBuffer10BufferKindE",
   "self_type" : "_ZTIN4llvm12MemoryBuffer10BufferKindE",
   "size" : 4,
   "source_file" : "external/llvm/include/llvm/Support/MemoryBuffer.h",
   "underlying_type" : "_ZTIj"
  },
  {
   "alignment" : 4,
   "enum_fields" :
   [
    {
     "enum_field_value" : 0,
     "name" : "llvm::ZB_Undefined"
    },
    {
     "enum_field_value" : 1,
     "name" : "llvm::ZB_Max"
    },
    {
     "enum_field_value" : 2,
     "name" : "llvm::ZB_Width"
    }
   ],
   "linker_set_key" : "_ZTIN4llvm12ZeroBehaviorE",
   "name" : "llvm::ZeroBehavior",
   "referenced_type" : "_ZTIN4llvm12ZeroBehaviorE",
   "self_type" : "_ZTIN4llvm12ZeroBehaviorE",
   "size" : 4,
   "source_file" : "external/llvm/include/llvm/Support/MathExtras.h",
   "underlying_type" : "_ZTIj"
  },
  {
   "access" : "protected",
   "alignment" : 4,
   "enum_fields" :
   [
    {
     "enum_field_value" : 1,
     "name" : "llvm::iterator_facade_base<llvm::pointee_iterator<const std::__1::unique_ptr<llvm::GCOVBlock, std::__1::default_delete<llvm::GCOVBlock>> *, llvm::GCOVBlock>, std::__1::random_access_iterator_tag, llvm::GCOVBlock, long, llvm::GCOVBlock *, llvm::GCOVBlock &>::IsRandomAccess"
    },
    {
     "enum_field_value" : 1,
     "name" : "llvm::iterator_facade_base<llvm::pointee_iterator<const std::__1::unique_ptr<llvm::GCOVBlock, std::__1::default_delete<llvm::GCOVBlock>> *, llvm::GCOVBlock>, std::__1::random_access_iterator_tag, llvm::GCOVBlock, long, llvm::GCOVBlock *, llvm::GCOVBlock &>::IsBidirectional"
    }
   ],
   "linker_set_key" : "_ZTIN4llvm20iterator_facade_baseINS_16pointee_iteratorIPKNSt3__110unique_ptrINS_9GCOVBlockENS2_14default_deleteIS4_EEEES4_EENS2_26random_access_iterator_tagES4_lPS4_RS4_E16$IsBidirectionalE",
   "name" : "llvm::iterator_facade_base<pointee_iterator<const unique_ptr<GCOVBlock, default_delete<GCOVBlock>> *, GCOVBlock>, random_access_iterator_tag, GCOVBlock, long, GCOVBlock *, GCOVBlock &>::(anonymous enum at external/llvm/include/llvm/ADT/iterator.h:42:3)",
   "referenced_type" : "_ZTIN4llvm20iterator_facade_baseINS_16pointee_iteratorIPKNSt3__110unique_ptrINS_9GCOVBlockENS2_14default_deleteIS4_EEEES4_EENS2_26random_access_iterator_tagES4_lPS4_RS4_E16$IsBidirectionalE",
   "self_type" : "_ZTIN4llvm20iterator_facade_baseINS_16pointee_iteratorIPKNSt3__110unique_ptrINS_9GCOVBlockENS2_14default_deleteIS4_EEEES4_EENS2_26random_access_iterator_tagES4_lPS4_RS4_E16$IsBidirectionalE",
   "size" : 4,
   "source_file" : "external/llvm/include/llvm/ADT/iterator.h",
   "underlying_type" : "_ZTIj"
  },
  {
   "alignment" : 4,
   "enum_fields" :
   [
    {
     "enum_field_value" : 3,
     "name" : "llvm::PointerLikeTypeTraits<const llvm::GCOVFunction *>::NumLowBitsAvailable"
    }
   ],
   "linker_set_key" : "_ZTIN4llvm21PointerLikeTypeTraitsIPKNS_12GCOVFunctionEE20$NumLowBitsAvailableE",
   "name" : "llvm::PointerLikeTypeTraits<const GCOVFunction *>::(anonymous enum at external/llvm/include/llvm/Support/PointerLikeTypeTraits.h:76:3)",
   "referenced_type" : "_ZTIN4llvm21PointerLikeTypeTraitsIPKNS_12GCOVFunctionEE20$NumLowBitsAvailableE",
   "self_type" : "_ZTIN4llvm21PointerLikeTypeTraitsIPKNS_12GCOVFunctionEE20$NumLowBitsAvailableE",
   "size" : 4,
   "source_file" : "external/llvm/include/llvm/Support/PointerLikeTypeTraits.h",
   "underlying_type" : "_ZTIj"
  },
  {
   "alignment" : 4,
   "enum_fields" :
   [
    {
     "enum_field_value" : 3,
     "name" : "llvm::PointerLikeTypeTraits<llvm::GCOVFunction *>::NumLowBitsAvailable"
    }
   ],
   "linker_set_key" : "_ZTIN4llvm21PointerLikeTypeTraitsIPNS_12GCOVFunctionEE20$NumLowBitsAvailableE",
   "name" : "llvm::PointerLikeTypeTraits<GCOVFunction *>::(anonymous enum at external/llvm/include/llvm/Support/PointerLikeTypeTraits.h:45:3)",
   "referenced_type" : "_ZTIN4llvm21PointerLikeTypeTraitsIPNS_12GCOVFunctionEE20$NumLowBitsAvailableE",
   "self_type" : "_ZTIN4llvm21PointerLikeTypeTraitsIPNS_12GCOVFunctionEE20$NumLowBitsAvailableE",
   "size" : 4,
   "source_file" : "external/llvm/include/llvm/Support/PointerLikeTypeTraits.h",
   "underlying_type" : "_ZTIj"
  },
  {
   "alignment" : 4,
   "enum_fields" :
   [
    {
     "enum_field_value" : 2,
     "name" : "llvm::PointerLikeTypeTraits<llvm::StringMapEntryBase *>::NumLowBitsAvailable"
    }
   ],
   "linker_set_key" : "_ZTIN4llvm21PointerLikeTypeTraitsIPNS_18StringMapEntryBaseEE20$NumLowBitsAvailableE",
   "name" : "llvm::PointerLikeTypeTraits<StringMapEntryBase *>::(anonymous enum at external/llvm/include/llvm/Support/PointerLikeTypeTraits.h:45:3)",
   "referenced_type" : "_ZTIN4llvm21PointerLikeTypeTraitsIPNS_18StringMapEntryBaseEE20$NumLowBitsAvailableE",
   "self_type" : "_ZTIN4llvm21PointerLikeTypeTraitsIPNS_18StringMapEntryBaseEE20$NumLowBitsAvailableE",
   "size" : 4,
   "source_file" : "external/llvm/include/llvm/Support/PointerLikeTypeTraits.h",
   "underlying_type" : "_ZTIj"
  },
  {
   "alignment" : 4,
   "enum_fields" :
   [
    {
     "enum_field_value" : 2,
     "name" : "llvm::PointerLikeTypeTraits<void *>::NumLowBitsAvailable"
    }
   ],
   "linker_set_key" : "_ZTIN4llvm21PointerLikeTypeTraitsIPvE20$NumLowBitsAvailableE",
   "name" : "llvm::PointerLikeTypeTraits<void *>::(anonymous enum at external/llvm/include/llvm/Support/PointerLikeTypeTraits.h:62:3)",
   "referenced_type" : "_ZTIN4llvm21PointerLikeTypeTraitsIPvE20$NumLowBitsAvailableE",
   "self_type" : "_ZTIN4llvm21PointerLikeTypeTraitsIPvE20$NumLowBitsAvailableE",
   "size" : 4,
   "source_file" : "external/llvm/include/llvm/Support/PointerLikeTypeTraits.h",
   "underlying_type" : "_ZTIj"
  },
  {
   "alignment" : 4,
   "enum_fields" :
   [
    {
     "enum_field_value" : 0,
     "name" : "llvm::PointerLikeTypeTraits<unsigned long>::NumLowBitsAvailable"
    }
   ],
   "linker_set_key" : "_ZTIN4llvm21PointerLikeTypeTraitsImE20$NumLowBitsAvailableE",
   "name" : "llvm::PointerLikeTypeTraits<uintptr_t>::(anonymous enum at external/llvm/include/llvm/Support/PointerLikeTypeTraits.h:89:3)",
   "referenced_type" : "_ZTIN4llvm21PointerLikeTypeTraitsImE20$NumLowBitsAvailableE",
   "self_type" : "_ZTIN4llvm21PointerLikeTypeTraitsImE20$NumLowBitsAvailableE",
   "size" : 4,
   "source_file" : "external/llvm/include/llvm/Support/PointerLikeTypeTraits.h",
   "underlying_type" : "_ZTIj"
  },
  {
   "alignment" : 4,
   "enum_fields" :
   [
    {
     "enum_field_value" : 0,
     "name" : "llvm::sys::fs::AccessMode::Exist"
    },
    {
     "enum_field_value" : 1,
     "name" : "llvm::sys::fs::AccessMode::Write"
    },
    {
     "enum_field_value" : 2,
     "name" : "llvm::sys::fs::AccessMode::Execute"
    }
   ],
   "linker_set_key" : "_ZTIN4llvm3sys2fs10AccessModeE",
   "name" : "llvm::sys::fs::AccessMode",
   "referenced_type" : "_ZTIN4llvm3sys2fs10AccessModeE",
   "self_type" : "_ZTIN4llvm3sys2fs10AccessModeE",
   "size" : 4,
   "source_file" : "external/llvm/include/llvm/Support/FileSystem.h",
   "underlying_type" : "_ZTIi"
  },
  {
   "alignment" : 4,
   "enum_fields" :
   [
    {
     "enum_field_value" : 0,
     "name" : "llvm::sys::fs::file_magic::unknown"
    },
    {
     "enum_field_value" : 1,
     "name" : "llvm::sys::fs::file_magic::bitcode"
    },
    {
     "enum_field_value" : 2,
     "name" : "llvm::sys::fs::file_magic::archive"
    },
    {
     "enum_field_value" : 3,
     "name" : "llvm::sys::fs::file_magic::elf"
    },
    {
     "enum_field_value" : 4,
     "name" : "llvm::sys::fs::file_magic::elf_relocatable"
    },
    {
     "enum_field_value" : 5,
     "name" : "llvm::sys::fs::file_magic::elf_executable"
    },
    {
     "enum_field_value" : 6,
     "name" : "llvm::sys::fs::file_magic::elf_shared_object"
    },
    {
     "enum_field_value" : 7,
     "name" : "llvm::sys::fs::file_magic::elf_core"
    },
    {
     "enum_field_value" : 8,
     "name" : "llvm::sys::fs::file_magic::macho_object"
    },
    {
     "enum_field_value" : 9,
     "name" : "llvm::sys::fs::file_magic::macho_executable"
    },
    {
     "enum_field_value" : 10,
     "name" : "llvm::sys::fs::file_magic::macho_fixed_virtual_memory_shared_lib"
    },
    {
     "enum_field_value" : 11,
     "name" : "llvm::sys::fs::file_magic::macho_core"
    },
    {
     "enum_field_value" : 12,
     "name" : "llvm::sys::fs::file_magic::macho_preload_executable"
    },
    {
     "enum_field_value" : 13,
     "name" : "llvm::sys::fs::file_magic::macho_dynamically_linked_shared_lib"
    },
    {
     "enum_field_value" : 14,
     "name" : "llvm::sys::fs::file_magic::macho_dynamic_linker"
    },
    {
     "enum_field_value" : 15,
     "name" : "llvm::sys::fs::file_magic::macho_bundle"
    },
    {
     "enum_field_value" : 16,
     "name" : "llvm::sys::fs::file_magic::macho_dynamically_linked_shared_lib_stub"
    },
    {
     "enum_field_value" : 17,
     "name" : "llvm::sys::fs::file_magic::macho_dsym_companion"
    },
    {
     "enum_field_value" : 18,
     "name" : "llvm::sys::fs::file_magic::macho_kext_bundle"
    },
    {
     "enum_field_value" : 19,
     "name" : "llvm::sys::fs::file_magic::macho_universal_binary"
    },
    {
     "enum_field_value" : 20,
     "name" : "llvm::sys::fs::file_magic::coff_object"
    },
    {
     "enum_field_value" : 21,
     "name" : "llvm::sys::fs::file_magic::coff_import_library"
    },
    {
     "enum_field_value" : 22,
     "name" : "llvm::sys::fs::file_magic::pecoff_executable"
    },
    {
     "enum_field_value" : 23,
     "name" : "llvm::sys::fs::file_magic::windows_resource"
    }
   ],
   "linker_set_key" : "_ZTIN4llvm3sys2fs10file_magic4ImplE",
   "name" : "llvm::sys::fs::file_magic::Impl",
   "referenced_type" : "_ZTIN4llvm3sys2fs10file_magic4ImplE",
   "self_type" : "_ZTIN4llvm3sys2fs10file_magic4ImplE",
   "size" : 4,
   "source_file" : "external/llvm/include/llvm/Support/FileSystem.h",
   "underlying_type" : "_ZTIj"
  },
  {
   "alignment" : 4,
   "enum_fields" :
   [
    {
     "enum_field_value" : 0,
     "name" : "llvm::sys::fs::mapped_file_region::readonly"
    },
    {
     "enum_field_value" : 1,
     "name" : "llvm::sys::fs::mapped_file_region::readwrite"
    },
    {
     "enum_field_value" : 2,
     "name" : "llvm::sys::fs::mapped_file_region::priv"
    }
   ],
   "linker_set_key" : "_ZTIN4llvm3sys2fs18mapped_file_region7mapmodeE",
   "name" : "llvm::sys::fs::mapped_file_region::mapmode",
   "referenced_type" : "_ZTIN4llvm3sys2fs18mapped_file_region7mapmodeE",
   "self_type" : "_ZTIN4llvm3sys2fs18mapped_file_region7mapmodeE",
   "size" : 4,
   "source_file" : "external/llvm/include/llvm/Support/FileSystem.h",
   "underlying_type" : "_ZTIj"
  },
  {
   "alignment" : 4,
   "enum_fields" :
   [
    {
     "enum_field_value" : 0,
     "name" : "llvm::sys::fs::no_perms"
    },
    {
     "enum_field_value" : 256,
     "name" : "llvm::sys::fs::owner_read"
    },
    {
     "enum_field_value" : 128,
     "name" : "llvm::sys::fs::owner_write"
    },
    {
     "enum_field_value" : 64,
     "name" : "llvm::sys::fs::owner_exe"
    },
    {
     "enum_field_value" : 448,
     "name" : "llvm::sys::fs::owner_all"
    },
    {
     "enum_field_value" : 32,
     "name" : "llvm::sys::fs::group_read"
    },
    {
     "enum_field_value" : 16,
     "name" : "llvm::sys::fs::group_write"
    },
    {
     "enum_field_value" : 8,
     "name" : "llvm::sys::fs::group_exe"
    },
    {
     "enum_field_value" : 56,
     "name" : "llvm::sys::fs::group_all"
    },
    {
     "enum_field_value" : 4,
     "name" : "llvm::sys::fs::others_read"
    },
    {
     "enum_field_value" : 2,
     "name" : "llvm::sys::fs::others_write"
    },
    {
     "enum_field_value" : 1,
     "name" : "llvm::sys::fs::others_exe"
    },
    {
     "enum_field_value" : 7,
     "name" : "llvm::sys::fs::others_all"
    },
    {
     "enum_field_value" : 292,
     "name" : "llvm::sys::fs::all_read"
    },
    {
     "enum_field_value" : 146,
     "name" : "llvm::sys::fs::all_write"
    },
    {
     "enum_field_value" : 73,
     "name" : "llvm::sys::fs::all_exe"
    },
    {
     "enum_field_value" : 511,
     "name" : "llvm::sys::fs::all_all"
    },
    {
     "enum_field_value" : 2048,
     "name" : "llvm::sys::fs::set_uid_on_exe"
    },
    {
     "enum_field_value" : 1024,
     "name" : "llvm::sys::fs::set_gid_on_exe"
    },
    {
     "enum_field_value" : 512,
     "name" : "llvm::sys::fs::sticky_bit"
    },
    {
     "enum_field_value" : 65535,
     "name" : "llvm::sys::fs::perms_not_known"
    }
   ],
   "linker_set_key" : "_ZTIN4llvm3sys2fs5permsE",
   "name" : "llvm::sys::fs::perms",
   "referenced_type" : "_ZTIN4llvm3sys2fs5permsE",
   "self_type" : "_ZTIN4llvm3sys2fs5permsE",
   "size" : 4,
   "source_file" : "external/llvm/include/llvm/Support/FileSystem.h",
   "underlying_type" : "_ZTIj"
  },
  {
   "alignment" : 4,
   "enum_fields" :
   [
    {
     "enum_field_value" : 0,
     "name" : "llvm::sys::fs::F_None"
    },
    {
     "enum_field_value" : 1,
     "name" : "llvm::sys::fs::F_Excl"
    },
    {
     "enum_field_value" : 2,
     "name" : "llvm::sys::fs::F_Append"
    },
    {
     "enum_field_value" : 4,
     "name" : "llvm::sys::fs::F_Text"
    },
    {
     "enum_field_value" : 8,
     "name" : "llvm::sys::fs::F_RW"
    }
   ],
   "linker_set_key" : "_ZTIN4llvm3sys2fs9OpenFlagsE",
   "name" : "llvm::sys::fs::OpenFlags",
   "referenced_type" : "_ZTIN4llvm3sys2fs9OpenFlagsE",
   "self_type" : "_ZTIN4llvm3sys2fs9OpenFlagsE",
   "size" : 4,
   "source_file" : "external/llvm/include/llvm/Support/FileSystem.h",
   "underlying_type" : "_ZTIj"
  },
  {
   "alignment" : 4,
   "enum_fields" :
   [
    {
     "enum_field_value" : 0,
     "name" : "llvm::sys::fs::file_type::status_error"
    },
    {
     "enum_field_value" : 1,
     "name" : "llvm::sys::fs::file_type::file_not_found"
    },
    {
     "enum_field_value" : 2,
     "name" : "llvm::sys::fs::file_type::regular_file"
    },
    {
     "enum_field_value" : 3,
     "name" : "llvm::sys::fs::file_type::directory_file"
    },
    {
     "enum_field_value" : 4,
     "name" : "llvm::sys::fs::file_type::symlink_file"
    },
    {
     "enum_field_value" : 5,
     "name" : "llvm::sys::fs::file_type::block_file"
    },
    {
     "enum_field_value" : 6,
     "name" : "llvm::sys::fs::file_type::character_file"
    },
    {
     "enum_field_value" : 7,
     "name" : "llvm::sys::fs::file_type::fifo_file"
    },
    {
     "enum_field_value" : 8,
     "name" : "llvm::sys::fs::file_type::socket_file"
    },
    {
     "enum_field_value" : 9,
     "name" : "llvm::sys::fs::file_type::type_unknown"
    }
   ],
   "linker_set_key" : "_ZTIN4llvm3sys2fs9file_typeE",
   "name" : "llvm::sys::fs::file_type",
   "referenced_type" : "_ZTIN4llvm3sys2fs9file_typeE",
   "self_type" : "_ZTIN4llvm3sys2fs9file_typeE",
   "size" : 4,
   "source_file" : "external/llvm/include/llvm/Support/FileSystem.h",
   "underlying_type" : "_ZTIi"
  },
  {
   "alignment" : 4,
   "enum_fields" :
   [
    {
     "enum_field_value" : 16777216,
     "name" : "llvm::sys::Memory::MF_READ"
    },
    {
     "enum_field_value" : 33554432,
     "name" : "llvm::sys::Memory::MF_WRITE"
    },
    {
     "enum_field_value" : 67108864,
     "name" : "llvm::sys::Memory::MF_EXEC"
    }
   ],
   "linker_set_key" : "_ZTIN4llvm3sys6Memory15ProtectionFlagsE",
   "name" : "llvm::sys::Memory::ProtectionFlags",
   "referenced_type" : "_ZTIN4llvm3sys6Memory15ProtectionFlagsE",
   "self_type" : "_ZTIN4llvm3sys6Memory15ProtectionFlagsE",
   "size" : 4,
   "source_file" : "external/llvm/include/llvm/Support/Memory.h",
   "underlying_type" : "_ZTIj"
  },
  {
   "alignment" : 4,
   "enum_fields" :
   [
    {
     "enum_field_value" : 1000000000,
     "name" : "llvm::sys::TimeValue::NANOSECONDS_PER_SECOND"
    },
    {
     "enum_field_value" : 1000000,
     "name" : "llvm::sys::TimeValue::MICROSECONDS_PER_SECOND"
    },
    {
     "enum_field_value" : 1000,
     "name" : "llvm::sys::TimeValue::MILLISECONDS_PER_SECOND"
    },
    {
     "enum_field_value" : 1000,
     "name" : "llvm::sys::TimeValue::NANOSECONDS_PER_MICROSECOND"
    },
    {
     "enum_field_value" : 1000000,
     "name" : "llvm::sys::TimeValue::NANOSECONDS_PER_MILLISECOND"
    },
    {
     "enum_field_value" : 100,
     "name" : "llvm::sys::TimeValue::NANOSECONDS_PER_WIN32_TICK"
    }
   ],
   "linker_set_key" : "_ZTIN4llvm3sys9TimeValue15TimeConversionsE",
   "name" : "llvm::sys::TimeValue::TimeConversions",
   "referenced_type" : "_ZTIN4llvm3sys9TimeValue15TimeConversionsE",
   "self_type" : "_ZTIN4llvm3sys9TimeValue15TimeConversionsE",
   "size" : 4,
   "source_file" : "external/llvm/include/llvm/Support/TimeValue.h",
   "underlying_type" : "_ZTIj"
  },
  {
   "alignment" : 4,
   "enum_fields" :
   [
    {
     "enum_field_value" : 0,
     "name" : "llvm::GCOV::V402"
    },
    {
     "enum_field_value" : 1,
     "name" : "llvm::GCOV::V404"
    },
    {
     "enum_field_value" : 2,
     "name" : "llvm::GCOV::V704"
    }
   ],
   "linker_set_key" : "_ZTIN4llvm4GCOV11GCOVVersionE",
   "name" : "llvm::GCOV::GCOVVersion",
   "referenced_type" : "_ZTIN4llvm4GCOV11GCOVVersionE",
   "self_type" : "_ZTIN4llvm4GCOV11GCOVVersionE",
   "size" : 4,
   "source_file" : "external/llvm/include/llvm/Support/GCOV.h",
   "underlying_type" : "_ZTIj"
  },
  {
   "access" : "private",
   "alignment" : 1,
   "enum_fields" :
   [
    {
     "enum_field_value" : 0,
     "name" : "llvm::Twine::NullKind"
    },
    {
     "enum_field_value" : 1,
     "name" : "llvm::Twine::EmptyKind"
    },
    {
     "enum_field_value" : 2,
     "name" : "llvm::Twine::TwineKind"
    },
    {
     "enum_field_value" : 3,
     "name" : "llvm::Twine::CStringKind"
    },
    {
     "enum_field_value" : 4,
     "name" : "llvm::Twine::StdStringKind"
    },
    {
     "enum_field_value" : 5,
     "name" : "llvm::Twine::StringRefKind"
    },
    {
     "enum_field_value" : 6,
     "name" : "llvm::Twine::SmallStringKind"
    },
    {
     "enum_field_value" : 7,
     "name" : "llvm::Twine::CharKind"
    },
    {
     "enum_field_value" : 8,
     "name" : "llvm::Twine::DecUIKind"
    },
    {
     "enum_field_value" : 9,
     "name" : "llvm::Twine::DecIKind"
    },
    {
     "enum_field_value" : 10,
     "name" : "llvm::Twine::DecULKind"
    },
    {
     "enum_field_value" : 11,
     "name" : "llvm::Twine::DecLKind"
    },
    {
     "enum_field_value" : 12,
     "name" : "llvm::Twine::DecULLKind"
    },
    {
     "enum_field_value" : 13,
     "name" : "llvm::Twine::DecLLKind"
    },
    {
     "enum_field_value" : 14,
     "name" : "llvm::Twine::UHexKind"
    }
   ],
   "linker_set_key" : "_ZTIN4llvm5Twine8NodeKindE",
   "name" : "llvm::Twine::NodeKind",
   "referenced_type" : "_ZTIN4llvm5Twine8NodeKindE",
   "self_type" : "_ZTIN4llvm5Twine8NodeKindE",
   "size" : 1,
   "source_file" : "external/llvm/include/llvm/ADT/Twine.h",
   "underlying_type" : "_ZTIh"
  },
  {
   "alignment" : 4,
   "enum_fields" :
   [
    {
     "enum_field_value" : 0,
     "name" : "llvm::AlignOf<llvm::GCOVFunction>::Alignment_LessEqual_2Bytes"
    }
   ],
   "linker_set_key" : "_ZTIN4llvm7AlignOfINS_12GCOVFunctionEE27$Alignment_LessEqual_2BytesE",
   "name" : "llvm::AlignOf<GCOVFunction>::(anonymous enum at external/llvm/include/llvm/Support/AlignOf.h:91:3)",
   "referenced_type" : "_ZTIN4llvm7AlignOfINS_12GCOVFunctionEE27$Alignment_LessEqual_2BytesE",
   "self_type" : "_ZTIN4llvm7AlignOfINS_12GCOVFunctionEE27$Alignment_LessEqual_2BytesE",
   "size" : 4,
   "source_file" : "external/llvm/include/llvm/Support/AlignOf.h",
   "underlying_type" : "_ZTIj"
  },
  {
   "alignment" : 4,
   "enum_fields" :
   [
    {
     "enum_field_value" : 0,
     "name" : "llvm::AlignOf<llvm::GCOVFunction>::Alignment_LessEqual_4Bytes"
    }
   ],
   "linker_set_key" : "_ZTIN4llvm7AlignOfINS_12GCOVFunctionEE27$Alignment_LessEqual_4BytesE",
   "name" : "llvm::AlignOf<GCOVFunction>::(anonymous enum at external/llvm/include/llvm/Support/AlignOf.h:92:3)",
   "referenced_type" : "_ZTIN4llvm7AlignOfINS_12GCOVFunctionEE27$Alignment_LessEqual_4BytesE",
   "self_type" : "_ZTIN4llvm7AlignOfINS_12GCOVFunctionEE27$Alignment_LessEqual_4BytesE",
   "size" : 4,
   "source_file" : "external/llvm/include/llvm/Support/AlignOf.h",
   "underlying_type" : "_ZTIj"
  },
  {
   "alignment" : 4,
   "enum_fields" :
   [
    {
     "enum_field_value" : 1,
     "name" : "llvm::AlignOf<llvm::GCOVFunction>::Alignment_LessEqual_8Bytes"
    }
   ],
   "linker_set_key" : "_ZTIN4llvm7AlignOfINS_12GCOVFunctionEE27$Alignment_LessEqual_8BytesE",
   "name" : "llvm::AlignOf<GCOVFunction>::(anonymous enum at external/llvm/include/llvm/Support/AlignOf.h:93:3)",
   "referenced_type" : "_ZTIN4llvm7AlignOfINS_12GCOVFunctionEE27$Alignment_LessEqual_8BytesE",
   "self_type" : "_ZTIN4llvm7AlignOfINS_12GCOVFunctionEE27$Alignment_LessEqual_8BytesE",
   "size" : 4,
   "source_file" : "external/llvm/include/llvm/Support/AlignOf.h",
   "underlying_type" : "_ZTIj"
  },
  {
   "alignment" : 4,
   "enum_fields" :
   [
    {
     "enum_field_value" : 1,
     "name" : "llvm::AlignOf<llvm::GCOVFunction>::Alignment_LessEqual_16Bytes"
    }
   ],
   "linker_set_key" : "_ZTIN4llvm7AlignOfINS_12GCOVFunctionEE28$Alignment_LessEqual_16BytesE",
   "name" : "llvm::AlignOf<GCOVFunction>::(anonymous enum at external/llvm/include/llvm/Support/AlignOf.h:94:3)",
   "referenced_type" : "_ZTIN4llvm7AlignOfINS_12GCOVFunctionEE28$Alignment_LessEqual_16BytesE",
   "self_type" : "_ZTIN4llvm7AlignOfINS_12GCOVFunctionEE28$Alignment_LessEqual_16BytesE",
   "size" : 4,
   "source_file" : "external/llvm/include/llvm/Support/AlignOf.h",
   "underlying_type" : "_ZTIj"
  },
  {
   "alignment" : 4,
   "enum_fields" :
   [
    {
     "enum_field_value" : 1,
     "name" : "llvm::AlignOf<llvm::GCOVFunction>::Alignment_GreaterEqual_2Bytes"
    }
   ],
   "linker_set_key" : "_ZTIN4llvm7AlignOfINS_12GCOVFunctionEE30$Alignment_GreaterEqual_2BytesE",
   "name" : "llvm::AlignOf<GCOVFunction>::(anonymous enum at external/llvm/include/llvm/Support/AlignOf.h:86:3)",
   "referenced_type" : "_ZTIN4llvm7AlignOfINS_12GCOVFunctionEE30$Alignment_GreaterEqual_2BytesE",
   "self_type" : "_ZTIN4llvm7AlignOfINS_12GCOVFunctionEE30$Alignment_GreaterEqual_2BytesE",
   "size" : 4,
   "source_file" : "external/llvm/include/llvm/Support/AlignOf.h",
   "underlying_type" : "_ZTIj"
  },
  {
   "alignment" : 4,
   "enum_fields" :
   [
    {
     "enum_field_value" : 1,
     "name" : "llvm::AlignOf<llvm::GCOVFunction>::Alignment_GreaterEqual_4Bytes"
    }
   ],
   "linker_set_key" : "_ZTIN4llvm7AlignOfINS_12GCOVFunctionEE30$Alignment_GreaterEqual_4BytesE",
   "name" : "llvm::AlignOf<GCOVFunction>::(anonymous enum at external/llvm/include/llvm/Support/AlignOf.h:87:3)",
   "referenced_type" : "_ZTIN4llvm7AlignOfINS_12GCOVFunctionEE30$Alignment_GreaterEqual_4BytesE",
   "self_type" : "_ZTIN4llvm7AlignOfINS_12GCOVFunctionEE30$Alignment_GreaterEqual_4BytesE",
   "size" : 4,
   "source_file" : "external/llvm/include/llvm/Support/AlignOf.h",
   "underlying_type" : "_ZTIj"
  },
  {
   "alignment" : 4,
   "enum_fields" :
   [
    {
     "enum_field_value" : 1,
     "name" : "llvm::AlignOf<llvm::GCOVFunction>::Alignment_GreaterEqual_8Bytes"
    }
   ],
   "linker_set_key" : "_ZTIN4llvm7AlignOfINS_12GCOVFunctionEE30$Alignment_GreaterEqual_8BytesE",
   "name" : "llvm::AlignOf<GCOVFunction>::(anonymous enum at external/llvm/include/llvm/Support/AlignOf.h:88:3)",
   "referenced_type" : "_ZTIN4llvm7AlignOfINS_12GCOVFunctionEE30$Alignment_GreaterEqual_8BytesE",
   "self_type" : "_ZTIN4llvm7AlignOfINS_12GCOVFunctionEE30$Alignment_GreaterEqual_8BytesE",
   "size" : 4,
   "source_file" : "external/llvm/include/llvm/Support/AlignOf.h",
   "underlying_type" : "_ZTIj"
  },
  {
   "alignment" : 4,
   "enum_fields" :
   [
    {
     "enum_field_value" : 0,
     "name" : "llvm::AlignOf<llvm::GCOVFunction>::Alignment_GreaterEqual_16Bytes"
    }
   ],
   "linker_set_key" : "_ZTIN4llvm7AlignOfINS_12GCOVFunctionEE31$Alignment_GreaterEqual_16BytesE",
   "name" : "llvm::AlignOf<GCOVFunction>::(anonymous enum at external/llvm/include/llvm/Support/AlignOf.h:89:3)",
   "referenced_type" : "_ZTIN4llvm7AlignOfINS_12GCOVFunctionEE31$Alignment_GreaterEqual_16BytesE",
   "self_type" : "_ZTIN4llvm7AlignOfINS_12GCOVFunctionEE31$Alignment_GreaterEqual_16BytesE",
   "size" : 4,
   "source_file" : "external/llvm/include/llvm/Support/AlignOf.h",
   "underlying_type" : "_ZTIj"
  },
  {
   "alignment" : 4,
   "enum_fields" :
   [
    {
     "enum_field_value" : 0,
     "name" : "llvm::AlignOf<llvm::StringMapEntry<llvm::FileInfo::LineData>>::Alignment_LessEqual_2Bytes"
    }
   ],
   "linker_set_key" : "_ZTIN4llvm7AlignOfINS_14StringMapEntryINS_8FileInfo8LineDataEEEE27$Alignment_LessEqual_2BytesE",
   "name" : "llvm::AlignOf<StringMapEntry<LineData>>::(anonymous enum at external/llvm/include/llvm/Support/AlignOf.h:91:3)",
   "referenced_type" : "_ZTIN4llvm7AlignOfINS_14StringMapEntryINS_8FileInfo8LineDataEEEE27$Alignment_LessEqual_2BytesE",
   "self_type" : "_ZTIN4llvm7AlignOfINS_14StringMapEntryINS_8FileInfo8LineDataEEEE27$Alignment_LessEqual_2BytesE",
   "size" : 4,
   "source_file" : "external/llvm/include/llvm/Support/AlignOf.h",
   "underlying_type" : "_ZTIj"
  },
  {
   "alignment" : 4,
   "enum_fields" :
   [
    {
     "enum_field_value" : 0,
     "name" : "llvm::AlignOf<llvm::StringMapEntry<llvm::FileInfo::LineData>>::Alignment_LessEqual_4Bytes"
    }
   ],
   "linker_set_key" : "_ZTIN4llvm7AlignOfINS_14StringMapEntryINS_8FileInfo8LineDataEEEE27$Alignment_LessEqual_4BytesE",
   "name" : "llvm::AlignOf<StringMapEntry<LineData>>::(anonymous enum at external/llvm/include/llvm/Support/AlignOf.h:92:3)",
   "referenced_type" : "_ZTIN4llvm7AlignOfINS_14StringMapEntryINS_8FileInfo8LineDataEEEE27$Alignment_LessEqual_4BytesE",
   "self_type" : "_ZTIN4llvm7AlignOfINS_14StringMapEntryINS_8FileInfo8LineDataEEEE27$Alignment_LessEqual_4BytesE",
   "size" : 4,
   "source_file" : "external/llvm/include/llvm/Support/AlignOf.h",
   "underlying_type" : "_ZTIj"
  },
  {
   "alignment" : 4,
   "enum_fields" :
   [
    {
     "enum_field_value" : 1,
     "name" : "llvm::AlignOf<llvm::StringMapEntry<llvm::FileInfo::LineData>>::Alignment_LessEqual_8Bytes"
    }
   ],
   "linker_set_key" : "_ZTIN4llvm7AlignOfINS_14StringMapEntryINS_8FileInfo8LineDataEEEE27$Alignment_LessEqual_8BytesE",
   "name" : "llvm::AlignOf<StringMapEntry<LineData>>::(anonymous enum at external/llvm/include/llvm/Support/AlignOf.h:93:3)",
   "referenced_type" : "_ZTIN4llvm7AlignOfINS_14StringMapEntryINS_8FileInfo8LineDataEEEE27$Alignment_LessEqual_8BytesE",
   "self_type" : "_ZTIN4llvm7AlignOfINS_14StringMapEntryINS_8FileInfo8LineDataEEEE27$Alignment_LessEqual_8BytesE",
   "size" : 4,
   "source_file" : "external/llvm/include/llvm/Support/AlignOf.h",
   "underlying_type" : "_ZTIj"
  },
  {
   "alignment" : 4,
   "enum_fields" :
   [
    {
     "enum_field_value" : 1,
     "name" : "llvm::AlignOf<llvm::StringMapEntry<llvm::FileInfo::LineData>>::Alignment_LessEqual_16Bytes"
    }
   ],
   "linker_set_key" : "_ZTIN4llvm7AlignOfINS_14StringMapEntryINS_8FileInfo8LineDataEEEE28$Alignment_LessEqual_16BytesE",
   "name" : "llvm::AlignOf<StringMapEntry<LineData>>::(anonymous enum at external/llvm/include/llvm/Support/AlignOf.h:94:3)",
   "referenced_type" : "_ZTIN4llvm7AlignOfINS_14StringMapEntryINS_8FileInfo8LineDataEEEE28$Alignment_LessEqual_16BytesE",
   "self_type" : "_ZTIN4llvm7AlignOfINS_14StringMapEntryINS_8FileInfo8LineDataEEEE28$Alignment_LessEqual_16BytesE",
   "size" : 4,
   "source_file" : "external/llvm/include/llvm/Support/AlignOf.h",
   "underlying_type" : "_ZTIj"
  },
  {
   "alignment" : 4,
   "enum_fields" :
   [
    {
     "enum_field_value" : 1,
     "name" : "llvm::AlignOf<llvm::StringMapEntry<llvm::FileInfo::LineData>>::Alignment_GreaterEqual_2Bytes"
    }
   ],
   "linker_set_key" : "_ZTIN4llvm7AlignOfINS_14StringMapEntryINS_8FileInfo8LineDataEEEE30$Alignment_GreaterEqual_2BytesE",
   "name" : "llvm::AlignOf<StringMapEntry<LineData>>::(anonymous enum at external/llvm/include/llvm/Support/AlignOf.h:86:3)",
   "referenced_type" : "_ZTIN4llvm7AlignOfINS_14StringMapEntryINS_8FileInfo8LineDataEEEE30$Alignment_GreaterEqual_2BytesE",
   "self_type" : "_ZTIN4llvm7AlignOfINS_14StringMapEntryINS_8FileInfo8LineDataEEEE30$Alignment_GreaterEqual_2BytesE",
   "size" : 4,
   "source_file" : "external/llvm/include/llvm/Support/AlignOf.h",
   "underlying_type" : "_ZTIj"
  },
  {
   "alignment" : 4,
   "enum_fields" :
   [
    {
     "enum_field_value" : 1,
     "name" : "llvm::AlignOf<llvm::StringMapEntry<llvm::FileInfo::LineData>>::Alignment_GreaterEqual_4Bytes"
    }
   ],
   "linker_set_key" : "_ZTIN4llvm7AlignOfINS_14StringMapEntryINS_8FileInfo8LineDataEEEE30$Alignment_GreaterEqual_4BytesE",
   "name" : "llvm::AlignOf<StringMapEntry<LineData>>::(anonymous enum at external/llvm/include/llvm/Support/AlignOf.h:87:3)",
   "referenced_type" : "_ZTIN4llvm7AlignOfINS_14StringMapEntryINS_8FileInfo8LineDataEEEE30$Alignment_GreaterEqual_4BytesE",
   "self_type" : "_ZTIN4llvm7AlignOfINS_14StringMapEntryINS_8FileInfo8LineDataEEEE30$Alignment_GreaterEqual_4BytesE",
   "size" : 4,
   "source_file" : "external/llvm/include/llvm/Support/AlignOf.h",
   "underlying_type" : "_ZTIj"
  },
  {
   "alignment" : 4,
   "enum_fields" :
   [
    {
     "enum_field_value" : 1,
     "name" : "llvm::AlignOf<llvm::StringMapEntry<llvm::FileInfo::LineData>>::Alignment_GreaterEqual_8Bytes"
    }
   ],
   "linker_set_key" : "_ZTIN4llvm7AlignOfINS_14StringMapEntryINS_8FileInfo8LineDataEEEE30$Alignment_GreaterEqual_8BytesE",
   "name" : "llvm::AlignOf<StringMapEntry<LineData>>::(anonymous enum at external/llvm/include/llvm/Support/AlignOf.h:88:3)",
   "referenced_type" : "_ZTIN4llvm7AlignOfINS_14StringMapEntryINS_8FileInfo8LineDataEEEE30$Alignment_GreaterEqual_8BytesE",
   "self_type" : "_ZTIN4llvm7AlignOfINS_14StringMapEntryINS_8FileInfo8LineDataEEEE30$Alignment_GreaterEqual_8BytesE",
   "size" : 4,
   "source_file" : "external/llvm/include/llvm/Support/AlignOf.h",
   "underlying_type" : "_ZTIj"
  },
  {
   "alignment" : 4,
   "enum_fields" :
   [
    {
     "enum_field_value" : 0,
     "name" : "llvm::AlignOf<llvm::StringMapEntry<llvm::FileInfo::LineData>>::Alignment_GreaterEqual_16Bytes"
    }
   ],
   "linker_set_key" : "_ZTIN4llvm7AlignOfINS_14StringMapEntryINS_8FileInfo8LineDataEEEE31$Alignment_GreaterEqual_16BytesE",
   "name" : "llvm::AlignOf<StringMapEntry<LineData>>::(anonymous enum at external/llvm/include/llvm/Support/AlignOf.h:89:3)",
   "referenced_type" : "_ZTIN4llvm7AlignOfINS_14StringMapEntryINS_8FileInfo8LineDataEEEE31$Alignment_GreaterEqual_16BytesE",
   "self_type" : "_ZTIN4llvm7AlignOfINS_14StringMapEntryINS_8FileInfo8LineDataEEEE31$Alignment_GreaterEqual_16BytesE",
   "size" : 4,
   "source_file" : "external/llvm/include/llvm/Support/AlignOf.h",
   "underlying_type" : "_ZTIj"
  },
  {
   "alignment" : 4,
   "enum_fields" :
   [
    {
     "enum_field_value" : 0,
     "name" : "llvm::AlignOf<llvm::StringMapEntryBase>::Alignment_LessEqual_2Bytes"
    }
   ],
   "linker_set_key" : "_ZTIN4llvm7AlignOfINS_18StringMapEntryBaseEE27$Alignment_LessEqual_2BytesE",
   "name" : "llvm::AlignOf<StringMapEntryBase>::(anonymous enum at external/llvm/include/llvm/Support/AlignOf.h:91:3)",
   "referenced_type" : "_ZTIN4llvm7AlignOfINS_18StringMapEntryBaseEE27$Alignment_LessEqual_2BytesE",
   "self_type" : "_ZTIN4llvm7AlignOfINS_18StringMapEntryBaseEE27$Alignment_LessEqual_2BytesE",
   "size" : 4,
   "source_file" : "external/llvm/include/llvm/Support/AlignOf.h",
   "underlying_type" : "_ZTIj"
  },
  {
   "alignment" : 4,
   "enum_fields" :
   [
    {
     "enum_field_value" : 1,
     "name" : "llvm::AlignOf<llvm::StringMapEntryBase>::Alignment_LessEqual_4Bytes"
    }
   ],
   "linker_set_key" : "_ZTIN4llvm7AlignOfINS_18StringMapEntryBaseEE27$Alignment_LessEqual_4BytesE",
   "name" : "llvm::AlignOf<StringMapEntryBase>::(anonymous enum at external/llvm/include/llvm/Support/AlignOf.h:92:3)",
   "referenced_type" : "_ZTIN4llvm7AlignOfINS_18StringMapEntryBaseEE27$Alignment_LessEqual_4BytesE",
   "self_type" : "_ZTIN4llvm7AlignOfINS_18StringMapEntryBaseEE27$Alignment_LessEqual_4BytesE",
   "size" : 4,
   "source_file" : "external/llvm/include/llvm/Support/AlignOf.h",
   "underlying_type" : "_ZTIj"
  },
  {
   "alignment" : 4,
   "enum_fields" :
   [
    {
     "enum_field_value" : 1,
     "name" : "llvm::AlignOf<llvm::StringMapEntryBase>::Alignment_LessEqual_8Bytes"
    }
   ],
   "linker_set_key" : "_ZTIN4llvm7AlignOfINS_18StringMapEntryBaseEE27$Alignment_LessEqual_8BytesE",
   "name" : "llvm::AlignOf<StringMapEntryBase>::(anonymous enum at external/llvm/include/llvm/Support/AlignOf.h:93:3)",
   "referenced_type" : "_ZTIN4llvm7AlignOfINS_18StringMapEntryBaseEE27$Alignment_LessEqual_8BytesE",
   "self_type" : "_ZTIN4llvm7AlignOfINS_18StringMapEntryBaseEE27$Alignment_LessEqual_8BytesE",
   "size" : 4,
   "source_file" : "external/llvm/include/llvm/Support/AlignOf.h",
   "underlying_type" : "_ZTIj"
  },
  {
   "alignment" : 4,
   "enum_fields" :
   [
    {
     "enum_field_value" : 1,
     "name" : "llvm::AlignOf<llvm::StringMapEntryBase>::Alignment_LessEqual_16Bytes"
    }
   ],
   "linker_set_key" : "_ZTIN4llvm7AlignOfINS_18StringMapEntryBaseEE28$Alignment_LessEqual_16BytesE",
   "name" : "llvm::AlignOf<StringMapEntryBase>::(anonymous enum at external/llvm/include/llvm/Support/AlignOf.h:94:3)",
   "referenced_type" : "_ZTIN4llvm7AlignOfINS_18StringMapEntryBaseEE28$Alignment_LessEqual_16BytesE",
   "self_type" : "_ZTIN4llvm7AlignOfINS_18StringMapEntryBaseEE28$Alignment_LessEqual_16BytesE",
   "size" : 4,
   "source_file" : "external/llvm/include/llvm/Support/AlignOf.h",
   "underlying_type" : "_ZTIj"
  },
  {
   "alignment" : 4,
   "enum_fields" :
   [
    {
     "enum_field_value" : 1,
     "name" : "llvm::AlignOf<llvm::StringMapEntryBase>::Alignment_GreaterEqual_2Bytes"
    }
   ],
   "linker_set_key" : "_ZTIN4llvm7AlignOfINS_18StringMapEntryBaseEE30$Alignment_GreaterEqual_2BytesE",
   "name" : "llvm::AlignOf<StringMapEntryBase>::(anonymous enum at external/llvm/include/llvm/Support/AlignOf.h:86:3)",
   "referenced_type" : "_ZTIN4llvm7AlignOfINS_18StringMapEntryBaseEE30$Alignment_GreaterEqual_2BytesE",
   "self_type" : "_ZTIN4llvm7AlignOfINS_18StringMapEntryBaseEE30$Alignment_GreaterEqual_2BytesE",
   "size" : 4,
   "source_file" : "external/llvm/include/llvm/Support/AlignOf.h",
   "underlying_type" : "_ZTIj"
  },
  {
   "alignment" : 4,
   "enum_fields" :
   [
    {
     "enum_field_value" : 1,
     "name" : "llvm::AlignOf<llvm::StringMapEntryBase>::Alignment_GreaterEqual_4Bytes"
    }
   ],
   "linker_set_key" : "_ZTIN4llvm7AlignOfINS_18StringMapEntryBaseEE30$Alignment_GreaterEqual_4BytesE",
   "name" : "llvm::AlignOf<StringMapEntryBase>::(anonymous enum at external/llvm/include/llvm/Support/AlignOf.h:87:3)",
   "referenced_type" : "_ZTIN4llvm7AlignOfINS_18StringMapEntryBaseEE30$Alignment_GreaterEqual_4BytesE",
   "self_type" : "_ZTIN4llvm7AlignOfINS_18StringMapEntryBaseEE30$Alignment_GreaterEqual_4BytesE",
   "size" : 4,
   "source_file" : "external/llvm/include/llvm/Support/AlignOf.h",
   "underlying_type" : "_ZTIj"
  },
  {
   "alignment" : 4,
   "enum_fields" :
   [
    {
     "enum_field_value" : 0,
     "name" : "llvm::AlignOf<llvm::StringMapEntryBase>::Alignment_GreaterEqual_8Bytes"
    }
   ],
   "linker_set_key" : "_ZTIN4llvm7AlignOfINS_18StringMapEntryBaseEE30$Alignment_GreaterEqual_8BytesE",
   "name" : "llvm::AlignOf<StringMapEntryBase>::(anonymous enum at external/llvm/include/llvm/Support/AlignOf.h:88:3)",
   "referenced_type" : "_ZTIN4llvm7AlignOfINS_18StringMapEntryBaseEE30$Alignment_GreaterEqual_8BytesE",
   "self_type" : "_ZTIN4llvm7AlignOfINS_18StringMapEntryBaseEE30$Alignment_GreaterEqual_8BytesE",
   "size" : 4,
   "source_file" : "external/llvm/include/llvm/Support/AlignOf.h",
   "underlying_type" : "_ZTIj"
  },
  {
   "alignment" : 4,
   "enum_fields" :
   [
    {
     "enum_field_value" : 0,
     "name" : "llvm::AlignOf<llvm::StringMapEntryBase>::Alignment_GreaterEqual_16Bytes"
    }
   ],
   "linker_set_key" : "_ZTIN4llvm7AlignOfINS_18StringMapEntryBaseEE31$Alignment_GreaterEqual_16BytesE",
   "name" : "llvm::AlignOf<StringMapEntryBase>::(anonymous enum at external/llvm/include/llvm/Support/AlignOf.h:89:3)",
   "referenced_type" : "_ZTIN4llvm7AlignOfINS_18StringMapEntryBaseEE31$Alignment_GreaterEqual_16BytesE",
   "self_type" : "_ZTIN4llvm7AlignOfINS_18StringMapEntryBaseEE31$Alignment_GreaterEqual_16BytesE",
   "size" : 4,
   "source_file" : "external/llvm/include/llvm/Support/AlignOf.h",
   "underlying_type" : "_ZTIj"
  },
  {
   "alignment" : 4,
   "enum_fields" :
   [
    {
     "enum_field_value" : 0,
     "name" : "llvm::AlignOf<llvm::detail::AlignerImpl<std::__1::error_code, char, char, char, char, char, char, char, char, char>>::Alignment_LessEqual_2Bytes"
    }
   ],
   "linker_set_key" : "_ZTIN4llvm7AlignOfINS_6detail11AlignerImplINSt3__110error_codeEcccccccccEEE27$Alignment_LessEqual_2BytesE",
   "name" : "llvm::AlignOf<AlignerImpl<error_code, char, char, char, char, char, char, char, char, char>>::(anonymous enum at external/llvm/include/llvm/Support/AlignOf.h:91:3)",
   "referenced_type" : "_ZTIN4llvm7AlignOfINS_6detail11AlignerImplINSt3__110error_codeEcccccccccEEE27$Alignment_LessEqual_2BytesE",
   "self_type" : "_ZTIN4llvm7AlignOfINS_6detail11AlignerImplINSt3__110error_codeEcccccccccEEE27$Alignment_LessEqual_2BytesE",
   "size" : 4,
   "source_file" : "external/llvm/include/llvm/Support/AlignOf.h",
   "underlying_type" : "_ZTIj"
  },
  {
   "alignment" : 4,
   "enum_fields" :
   [
    {
     "enum_field_value" : 0,
     "name" : "llvm::AlignOf<llvm::detail::AlignerImpl<std::__1::error_code, char, char, char, char, char, char, char, char, char>>::Alignment_LessEqual_4Bytes"
    }
   ],
   "linker_set_key" : "_ZTIN4llvm7AlignOfINS_6detail11AlignerImplINSt3__110error_codeEcccccccccEEE27$Alignment_LessEqual_4BytesE",
   "name" : "llvm::AlignOf<AlignerImpl<error_code, char, char, char, char, char, char, char, char, char>>::(anonymous enum at external/llvm/include/llvm/Support/AlignOf.h:92:3)",
   "referenced_type" : "_ZTIN4llvm7AlignOfINS_6detail11AlignerImplINSt3__110error_codeEcccccccccEEE27$Alignment_LessEqual_4BytesE",
   "self_type" : "_ZTIN4llvm7AlignOfINS_6detail11AlignerImplINSt3__110error_codeEcccccccccEEE27$Alignment_LessEqual_4BytesE",
   "size" : 4,
   "source_file" : "external/llvm/include/llvm/Support/AlignOf.h",
   "underlying_type" : "_ZTIj"
  },
  {
   "alignment" : 4,
   "enum_fields" :
   [
    {
     "enum_field_value" : 1,
     "name" : "llvm::AlignOf<llvm::detail::AlignerImpl<std::__1::error_code, char, char, char, char, char, char, char, char, char>>::Alignment_LessEqual_8Bytes"
    }
   ],
   "linker_set_key" : "_ZTIN4llvm7AlignOfINS_6detail11AlignerImplINSt3__110error_codeEcccccccccEEE27$Alignment_LessEqual_8BytesE",
   "name" : "llvm::AlignOf<AlignerImpl<error_code, char, char, char, char, char, char, char, char, char>>::(anonymous enum at external/llvm/include/llvm/Support/AlignOf.h:93:3)",
   "referenced_type" : "_ZTIN4llvm7AlignOfINS_6detail11AlignerImplINSt3__110error_codeEcccccccccEEE27$Alignment_LessEqual_8BytesE",
   "self_type" : "_ZTIN4llvm7AlignOfINS_6detail11AlignerImplINSt3__110error_codeEcccccccccEEE27$Alignment_LessEqual_8BytesE",
   "size" : 4,
   "source_file" : "external/llvm/include/llvm/Support/AlignOf.h",
   "underlying_type" : "_ZTIj"
  },
  {
   "alignment" : 4,
   "enum_fields" :
   [
    {
     "enum_field_value" : 1,
     "name" : "llvm::AlignOf<llvm::detail::AlignerImpl<std::__1::error_code, char, char, char, char, char, char, char, char, char>>::Alignment_LessEqual_16Bytes"
    }
   ],
   "linker_set_key" : "_ZTIN4llvm7AlignOfINS_6detail11AlignerImplINSt3__110error_codeEcccccccccEEE28$Alignment_LessEqual_16BytesE",
   "name" : "llvm::AlignOf<AlignerImpl<error_code, char, char, char, char, char, char, char, char, char>>::(anonymous enum at external/llvm/include/llvm/Support/AlignOf.h:94:3)",
   "referenced_type" : "_ZTIN4llvm7AlignOfINS_6detail11AlignerImplINSt3__110error_codeEcccccccccEEE28$Alignment_LessEqual_16BytesE",
   "self_type" : "_ZTIN4llvm7AlignOfINS_6detail11AlignerImplINSt3__110error_codeEcccccccccEEE28$Alignment_LessEqual_16BytesE",
   "size" : 4,
   "source_file" : "external/llvm/include/llvm/Support/AlignOf.h",
   "underlying_type" : "_ZTIj"
  },
  {
   "alignment" : 4,
   "enum_fields" :
   [
    {
     "enum_field_value" : 1,
     "name" : "llvm::AlignOf<llvm::detail::AlignerImpl<std::__1::error_code, char, char, char, char, char, char, char, char, char>>::Alignment_GreaterEqual_2Bytes"
    }
   ],
   "linker_set_key" : "_ZTIN4llvm7AlignOfINS_6detail11AlignerImplINSt3__110error_codeEcccccccccEEE30$Alignment_GreaterEqual_2BytesE",
   "name" : "llvm::AlignOf<AlignerImpl<error_code, char, char, char, char, char, char, char, char, char>>::(anonymous enum at external/llvm/include/llvm/Support/AlignOf.h:86:3)",
   "referenced_type" : "_ZTIN4llvm7AlignOfINS_6detail11AlignerImplINSt3__110error_codeEcccccccccEEE30$Alignment_GreaterEqual_2BytesE",
   "self_type" : "_ZTIN4llvm7AlignOfINS_6detail11AlignerImplINSt3__110error_codeEcccccccccEEE30$Alignment_GreaterEqual_2BytesE",
   "size" : 4,
   "source_file" : "external/llvm/include/llvm/Support/AlignOf.h",
   "underlying_type" : "_ZTIj"
  },
  {
   "alignment" : 4,
   "enum_fields" :
   [
    {
     "enum_field_value" : 1,
     "name" : "llvm::AlignOf<llvm::detail::AlignerImpl<std::__1::error_code, char, char, char, char, char, char, char, char, char>>::Alignment_GreaterEqual_4Bytes"
    }
   ],
   "linker_set_key" : "_ZTIN4llvm7AlignOfINS_6detail11AlignerImplINSt3__110error_codeEcccccccccEEE30$Alignment_GreaterEqual_4BytesE",
   "name" : "llvm::AlignOf<AlignerImpl<error_code, char, char, char, char, char, char, char, char, char>>::(anonymous enum at external/llvm/include/llvm/Support/AlignOf.h:87:3)",
   "referenced_type" : "_ZTIN4llvm7AlignOfINS_6detail11AlignerImplINSt3__110error_codeEcccccccccEEE30$Alignment_GreaterEqual_4BytesE",
   "self_type" : "_ZTIN4llvm7AlignOfINS_6detail11AlignerImplINSt3__110error_codeEcccccccccEEE30$Alignment_GreaterEqual_4BytesE",
   "size" : 4,
   "source_file" : "external/llvm/include/llvm/Support/AlignOf.h",
   "underlying_type" : "_ZTIj"
  },
  {
   "alignment" : 4,
   "enum_fields" :
   [
    {
     "enum_field_value" : 1,
     "name" : "llvm::AlignOf<llvm::detail::AlignerImpl<std::__1::error_code, char, char, char, char, char, char, char, char, char>>::Alignment_GreaterEqual_8Bytes"
    }
   ],
   "linker_set_key" : "_ZTIN4llvm7AlignOfINS_6detail11AlignerImplINSt3__110error_codeEcccccccccEEE30$Alignment_GreaterEqual_8BytesE",
   "name" : "llvm::AlignOf<AlignerImpl<error_code, char, char, char, char, char, char, char, char, char>>::(anonymous enum at external/llvm/include/llvm/Support/AlignOf.h:88:3)",
   "referenced_type" : "_ZTIN4llvm7AlignOfINS_6detail11AlignerImplINSt3__110error_codeEcccccccccEEE30$Alignment_GreaterEqual_8BytesE",
   "self_type" : "_ZTIN4llvm7AlignOfINS_6detail11AlignerImplINSt3__110error_codeEcccccccccEEE30$Alignment_GreaterEqual_8BytesE",
   "size" : 4,
   "source_file" : "external/llvm/include/llvm/Support/AlignOf.h",
   "underlying_type" : "_ZTIj"
  },
  {
   "alignment" : 4,
   "enum_fields" :
   [
    {
     "enum_field_value" : 0,
     "name" : "llvm::AlignOf<llvm::detail::AlignerImpl<std::__1::error_code, char, char, char, char, char, char, char, char, char>>::Alignment_GreaterEqual_16Bytes"
    }
   ],
   "linker_set_key" : "_ZTIN4llvm7AlignOfINS_6detail11AlignerImplINSt3__110error_codeEcccccccccEEE31$Alignment_GreaterEqual_16BytesE",
   "name" : "llvm::AlignOf<AlignerImpl<error_code, char, char, char, char, char, char, char, char, char>>::(anonymous enum at external/llvm/include/llvm/Support/AlignOf.h:89:3)",
   "referenced_type" : "_ZTIN4llvm7AlignOfINS_6detail11AlignerImplINSt3__110error_codeEcccccccccEEE31$Alignment_GreaterEqual_16BytesE",
   "self_type" : "_ZTIN4llvm7AlignOfINS_6detail11AlignerImplINSt3__110error_codeEcccccccccEEE31$Alignment_GreaterEqual_16BytesE",
   "size" : 4,
   "source_file" : "external/llvm/include/llvm/Support/AlignOf.h",
   "underlying_type" : "_ZTIj"
  },
  {
   "alignment" : 4,
   "enum_fields" :
   [
    {
     "enum_field_value" : 0,
     "name" : "llvm::AlignOf<llvm::detail::AlignerImpl<std::__1::unique_ptr<llvm::GCOVFunction, std::__1::default_delete<llvm::GCOVFunction>>, char, char, char, char, char, char, char, char, char>>::Alignment_LessEqual_2Bytes"
    }
   ],
   "linker_set_key" : "_ZTIN4llvm7AlignOfINS_6detail11AlignerImplINSt3__110unique_ptrINS_12GCOVFunctionENS3_14default_deleteIS5_EEEEcccccccccEEE27$Alignment_LessEqual_2BytesE",
   "name" : "llvm::AlignOf<AlignerImpl<unique_ptr<GCOVFunction, default_delete<GCOVFunction>>, char, char, char, char, char, char, char, char, char>>::(anonymous enum at external/llvm/include/llvm/Support/AlignOf.h:91:3)",
   "referenced_type" : "_ZTIN4llvm7AlignOfINS_6detail11AlignerImplINSt3__110unique_ptrINS_12GCOVFunctionENS3_14default_deleteIS5_EEEEcccccccccEEE27$Alignment_LessEqual_2BytesE",
   "self_type" : "_ZTIN4llvm7AlignOfINS_6detail11AlignerImplINSt3__110unique_ptrINS_12GCOVFunctionENS3_14default_deleteIS5_EEEEcccccccccEEE27$Alignment_LessEqual_2BytesE",
   "size" : 4,
   "source_file" : "external/llvm/include/llvm/Support/AlignOf.h",
   "underlying_type" : "_ZTIj"
  },
  {
   "alignment" : 4,
   "enum_fields" :
   [
    {
     "enum_field_value" : 0,
     "name" : "llvm::AlignOf<llvm::detail::AlignerImpl<std::__1::unique_ptr<llvm::GCOVFunction, std::__1::default_delete<llvm::GCOVFunction>>, char, char, char, char, char, char, char, char, char>>::Alignment_LessEqual_4Bytes"
    }
   ],
   "linker_set_key" : "_ZTIN4llvm7AlignOfINS_6detail11AlignerImplINSt3__110unique_ptrINS_12GCOVFunctionENS3_14default_deleteIS5_EEEEcccccccccEEE27$Alignment_LessEqual_4BytesE",
   "name" : "llvm::AlignOf<AlignerImpl<unique_ptr<GCOVFunction, default_delete<GCOVFunction>>, char, char, char, char, char, char, char, char, char>>::(anonymous enum at external/llvm/include/llvm/Support/AlignOf.h:92:3)",
   "referenced_type" : "_ZTIN4llvm7AlignOfINS_6detail11AlignerImplINSt3__110unique_ptrINS_12GCOVFunctionENS3_14default_deleteIS5_EEEEcccccccccEEE27$Alignment_LessEqual_4BytesE",
   "self_type" : "_ZTIN4llvm7AlignOfINS_6detail11AlignerImplINSt3__110unique_ptrINS_12GCOVFunctionENS3_14default_deleteIS5_EEEEcccccccccEEE27$Alignment_LessEqual_4BytesE",
   "size" : 4,
   "source_file" : "external/llvm/include/llvm/Support/AlignOf.h",
   "underlying_type" : "_ZTIj"
  },
  {
   "alignment" : 4,
   "enum_fields" :
   [
    {
     "enum_field_value" : 1,
     "name" : "llvm::AlignOf<llvm::detail::AlignerImpl<std::__1::unique_ptr<llvm::GCOVFunction, std::__1::default_delete<llvm::GCOVFunction>>, char, char, char, char, char, char, char, char, char>>::Alignment_LessEqual_8Bytes"
    }
   ],
   "linker_set_key" : "_ZTIN4llvm7AlignOfINS_6detail11AlignerImplINSt3__110unique_ptrINS_12GCOVFunctionENS3_14default_deleteIS5_EEEEcccccccccEEE27$Alignment_LessEqual_8BytesE",
   "name" : "llvm::AlignOf<AlignerImpl<unique_ptr<GCOVFunction, default_delete<GCOVFunction>>, char, char, char, char, char, char, char, char, char>>::(anonymous enum at external/llvm/include/llvm/Support/AlignOf.h:93:3)",
   "referenced_type" : "_ZTIN4llvm7AlignOfINS_6detail11AlignerImplINSt3__110unique_ptrINS_12GCOVFunctionENS3_14default_deleteIS5_EEEEcccccccccEEE27$Alignment_LessEqual_8BytesE",
   "self_type" : "_ZTIN4llvm7AlignOfINS_6detail11AlignerImplINSt3__110unique_ptrINS_12GCOVFunctionENS3_14default_deleteIS5_EEEEcccccccccEEE27$Alignment_LessEqual_8BytesE",
   "size" : 4,
   "source_file" : "external/llvm/include/llvm/Support/AlignOf.h",
   "underlying_type" : "_ZTIj"
  },
  {
   "alignment" : 4,
   "enum_fields" :
   [
    {
     "enum_field_value" : 1,
     "name" : "llvm::AlignOf<llvm::detail::AlignerImpl<std::__1::unique_ptr<llvm::GCOVFunction, std::__1::default_delete<llvm::GCOVFunction>>, char, char, char, char, char, char, char, char, char>>::Alignment_LessEqual_16Bytes"
    }
   ],
   "linker_set_key" : "_ZTIN4llvm7AlignOfINS_6detail11AlignerImplINSt3__110unique_ptrINS_12GCOVFunctionENS3_14default_deleteIS5_EEEEcccccccccEEE28$Alignment_LessEqual_16BytesE",
   "name" : "llvm::AlignOf<AlignerImpl<unique_ptr<GCOVFunction, default_delete<GCOVFunction>>, char, char, char, char, char, char, char, char, char>>::(anonymous enum at external/llvm/include/llvm/Support/AlignOf.h:94:3)",
   "referenced_type" : "_ZTIN4llvm7AlignOfINS_6detail11AlignerImplINSt3__110unique_ptrINS_12GCOVFunctionENS3_14default_deleteIS5_EEEEcccccccccEEE28$Alignment_LessEqual_16BytesE",
   "self_type" : "_ZTIN4llvm7AlignOfINS_6detail11AlignerImplINSt3__110unique_ptrINS_12GCOVFunctionENS3_14default_deleteIS5_EEEEcccccccccEEE28$Alignment_LessEqual_16BytesE",
   "size" : 4,
   "source_file" : "external/llvm/include/llvm/Support/AlignOf.h",
   "underlying_type" : "_ZTIj"
  },
  {
   "alignment" : 4,
   "enum_fields" :
   [
    {
     "enum_field_value" : 1,
     "name" : "llvm::AlignOf<llvm::detail::AlignerImpl<std::__1::unique_ptr<llvm::GCOVFunction, std::__1::default_delete<llvm::GCOVFunction>>, char, char, char, char, char, char, char, char, char>>::Alignment_GreaterEqual_2Bytes"
    }
   ],
   "linker_set_key" : "_ZTIN4llvm7AlignOfINS_6detail11AlignerImplINSt3__110unique_ptrINS_12GCOVFunctionENS3_14default_deleteIS5_EEEEcccccccccEEE30$Alignment_GreaterEqual_2BytesE",
   "name" : "llvm::AlignOf<AlignerImpl<unique_ptr<GCOVFunction, default_delete<GCOVFunction>>, char, char, char, char, char, char, char, char, char>>::(anonymous enum at external/llvm/include/llvm/Support/AlignOf.h:86:3)",
   "referenced_type" : "_ZTIN4llvm7AlignOfINS_6detail11AlignerImplINSt3__110unique_ptrINS_12GCOVFunctionENS3_14default_deleteIS5_EEEEcccccccccEEE30$Alignment_GreaterEqual_2BytesE",
   "self_type" : "_ZTIN4llvm7AlignOfINS_6detail11AlignerImplINSt3__110unique_ptrINS_12GCOVFunctionENS3_14default_deleteIS5_EEEEcccccccccEEE30$Alignment_GreaterEqual_2BytesE",
   "size" : 4,
   "source_file" : "external/llvm/include/llvm/Support/AlignOf.h",
   "underlying_type" : "_ZTIj"
  },
  {
   "alignment" : 4,
   "enum_fields" :
   [
    {
     "enum_field_value" : 1,
     "name" : "llvm::AlignOf<llvm::detail::AlignerImpl<std::__1::unique_ptr<llvm::GCOVFunction, std::__1::default_delete<llvm::GCOVFunction>>, char, char, char, char, char, char, char, char, char>>::Alignment_GreaterEqual_4Bytes"
    }
   ],
   "linker_set_key" : "_ZTIN4llvm7AlignOfINS_6detail11AlignerImplINSt3__110unique_ptrINS_12GCOVFunctionENS3_14default_deleteIS5_EEEEcccccccccEEE30$Alignment_GreaterEqual_4BytesE",
   "name" : "llvm::AlignOf<AlignerImpl<unique_ptr<GCOVFunction, default_delete<GCOVFunction>>, char, char, char, char, char, char, char, char, char>>::(anonymous enum at external/llvm/include/llvm/Support/AlignOf.h:87:3)",
   "referenced_type" : "_ZTIN4llvm7AlignOfINS_6detail11AlignerImplINSt3__110unique_ptrINS_12GCOVFunctionENS3_14default_deleteIS5_EEEEcccccccccEEE30$Alignment_GreaterEqual_4BytesE",
   "self_type" : "_ZTIN4llvm7AlignOfINS_6detail11AlignerImplINSt3__110unique_ptrINS_12GCOVFunctionENS3_14default_deleteIS5_EEEEcccccccccEEE30$Alignment_GreaterEqual_4BytesE",
   "size" : 4,
   "source_file" : "external/llvm/include/llvm/Support/AlignOf.h",
   "underlying_type" : "_ZTIj"
  },
  {
   "alignment" : 4,
   "enum_fields" :
   [
    {
     "enum_field_value" : 1,
     "name" : "llvm::AlignOf<llvm::detail::AlignerImpl<std::__1::unique_ptr<llvm::GCOVFunction, std::__1::default_delete<llvm::GCOVFunction>>, char, char, char, char, char, char, char, char, char>>::Alignment_GreaterEqual_8Bytes"
    }
   ],
   "linker_set_key" : "_ZTIN4llvm7AlignOfINS_6detail11AlignerImplINSt3__110unique_ptrINS_12GCOVFunctionENS3_14default_deleteIS5_EEEEcccccccccEEE30$Alignment_GreaterEqual_8BytesE",
   "name" : "llvm::AlignOf<AlignerImpl<unique_ptr<GCOVFunction, default_delete<GCOVFunction>>, char, char, char, char, char, char, char, char, char>>::(anonymous enum at external/llvm/include/llvm/Support/AlignOf.h:88:3)",
   "referenced_type" : "_ZTIN4llvm7AlignOfINS_6detail11AlignerImplINSt3__110unique_ptrINS_12GCOVFunctionENS3_14default_deleteIS5_EEEEcccccccccEEE30$Alignment_GreaterEqual_8BytesE",
   "self_type" : "_ZTIN4llvm7AlignOfINS_6detail11AlignerImplINSt3__110unique_ptrINS_12GCOVFunctionENS3_14default_deleteIS5_EEEEcccccccccEEE30$Alignment_GreaterEqual_8BytesE",
   "size" : 4,
   "source_file" : "external/llvm/include/llvm/Support/AlignOf.h",
   "underlying_type" : "_ZTIj"
  },
  {
   "alignment" : 4,
   "enum_fields" :
   [
    {
     "enum_field_value" : 0,
     "name" : "llvm::AlignOf<llvm::detail::AlignerImpl<std::__1::unique_ptr<llvm::GCOVFunction, std::__1::default_delete<llvm::GCOVFunction>>, char, char, char, char, char, char, char, char, char>>::Alignment_GreaterEqual_16Bytes"
    }
   ],
   "linker_set_key" : "_ZTIN4llvm7AlignOfINS_6detail11AlignerImplINSt3__110unique_ptrINS_12GCOVFunctionENS3_14default_deleteIS5_EEEEcccccccccEEE31$Alignment_GreaterEqual_16BytesE",
   "name" : "llvm::AlignOf<AlignerImpl<unique_ptr<GCOVFunction, default_delete<GCOVFunction>>, char, char, char, char, char, char, char, char, char>>::(anonymous enum at external/llvm/include/llvm/Support/AlignOf.h:89:3)",
   "referenced_type" : "_ZTIN4llvm7AlignOfINS_6detail11AlignerImplINSt3__110unique_ptrINS_12GCOVFunctionENS3_14default_deleteIS5_EEEEcccccccccEEE31$Alignment_GreaterEqual_16BytesE",
   "self_type" : "_ZTIN4llvm7AlignOfINS_6detail11AlignerImplINSt3__110unique_ptrINS_12GCOVFunctionENS3_14default_deleteIS5_EEEEcccccccccEEE31$Alignment_GreaterEqual_16BytesE",
   "size" : 4,
   "source_file" : "external/llvm/include/llvm/Support/AlignOf.h",
   "underlying_type" : "_ZTIj"
  },
  {
   "alignment" : 4,
   "enum_fields" :
   [
    {
     "enum_field_value" : 0,
     "name" : "llvm::AlignOf<llvm::detail::AlignerImpl<std::__1::unique_ptr<llvm::MemoryBuffer, std::__1::default_delete<llvm::MemoryBuffer>>, char, char, char, char, char, char, char, char, char>>::Alignment_LessEqual_2Bytes"
    }
   ],
   "linker_set_key" : "_ZTIN4llvm7AlignOfINS_6detail11AlignerImplINSt3__110unique_ptrINS_12MemoryBufferENS3_14default_deleteIS5_EEEEcccccccccEEE27$Alignment_LessEqual_2BytesE",
   "name" : "llvm::AlignOf<AlignerImpl<unique_ptr<MemoryBuffer, default_delete<MemoryBuffer>>, char, char, char, char, char, char, char, char, char>>::(anonymous enum at external/llvm/include/llvm/Support/AlignOf.h:91:3)",
   "referenced_type" : "_ZTIN4llvm7AlignOfINS_6detail11AlignerImplINSt3__110unique_ptrINS_12MemoryBufferENS3_14default_deleteIS5_EEEEcccccccccEEE27$Alignment_LessEqual_2BytesE",
   "self_type" : "_ZTIN4llvm7AlignOfINS_6detail11AlignerImplINSt3__110unique_ptrINS_12MemoryBufferENS3_14default_deleteIS5_EEEEcccccccccEEE27$Alignment_LessEqual_2BytesE",
   "size" : 4,
   "source_file" : "external/llvm/include/llvm/Support/AlignOf.h",
   "underlying_type" : "_ZTIj"
  },
  {
   "alignment" : 4,
   "enum_fields" :
   [
    {
     "enum_field_value" : 0,
     "name" : "llvm::AlignOf<llvm::detail::AlignerImpl<std::__1::unique_ptr<llvm::MemoryBuffer, std::__1::default_delete<llvm::MemoryBuffer>>, char, char, char, char, char, char, char, char, char>>::Alignment_LessEqual_4Bytes"
    }
   ],
   "linker_set_key" : "_ZTIN4llvm7AlignOfINS_6detail11AlignerImplINSt3__110unique_ptrINS_12MemoryBufferENS3_14default_deleteIS5_EEEEcccccccccEEE27$Alignment_LessEqual_4BytesE",
   "name" : "llvm::AlignOf<AlignerImpl<unique_ptr<MemoryBuffer, default_delete<MemoryBuffer>>, char, char, char, char, char, char, char, char, char>>::(anonymous enum at external/llvm/include/llvm/Support/AlignOf.h:92:3)",
   "referenced_type" : "_ZTIN4llvm7AlignOfINS_6detail11AlignerImplINSt3__110unique_ptrINS_12MemoryBufferENS3_14default_deleteIS5_EEEEcccccccccEEE27$Alignment_LessEqual_4BytesE",
   "self_type" : "_ZTIN4llvm7AlignOfINS_6detail11AlignerImplINSt3__110unique_ptrINS_12MemoryBufferENS3_14default_deleteIS5_EEEEcccccccccEEE27$Alignment_LessEqual_4BytesE",
   "size" : 4,
   "source_file" : "external/llvm/include/llvm/Support/AlignOf.h",
   "underlying_type" : "_ZTIj"
  },
  {
   "alignment" : 4,
   "enum_fields" :
   [
    {
     "enum_field_value" : 1,
     "name" : "llvm::AlignOf<llvm::detail::AlignerImpl<std::__1::unique_ptr<llvm::MemoryBuffer, std::__1::default_delete<llvm::MemoryBuffer>>, char, char, char, char, char, char, char, char, char>>::Alignment_LessEqual_8Bytes"
    }
   ],
   "linker_set_key" : "_ZTIN4llvm7AlignOfINS_6detail11AlignerImplINSt3__110unique_ptrINS_12MemoryBufferENS3_14default_deleteIS5_EEEEcccccccccEEE27$Alignment_LessEqual_8BytesE",
   "name" : "llvm::AlignOf<AlignerImpl<unique_ptr<MemoryBuffer, default_delete<MemoryBuffer>>, char, char, char, char, char, char, char, char, char>>::(anonymous enum at external/llvm/include/llvm/Support/AlignOf.h:93:3)",
   "referenced_type" : "_ZTIN4llvm7AlignOfINS_6detail11AlignerImplINSt3__110unique_ptrINS_12MemoryBufferENS3_14default_deleteIS5_EEEEcccccccccEEE27$Alignment_LessEqual_8BytesE",
   "self_type" : "_ZTIN4llvm7AlignOfINS_6detail11AlignerImplINSt3__110unique_ptrINS_12MemoryBufferENS3_14default_deleteIS5_EEEEcccccccccEEE27$Alignment_LessEqual_8BytesE",
   "size" : 4,
   "source_file" : "external/llvm/include/llvm/Support/AlignOf.h",
   "underlying_type" : "_ZTIj"
  },
  {
   "alignment" : 4,
   "enum_fields" :
   [
    {
     "enum_field_value" : 1,
     "name" : "llvm::AlignOf<llvm::detail::AlignerImpl<std::__1::unique_ptr<llvm::MemoryBuffer, std::__1::default_delete<llvm::MemoryBuffer>>, char, char, char, char, char, char, char, char, char>>::Alignment_LessEqual_16Bytes"
    }
   ],
   "linker_set_key" : "_ZTIN4llvm7AlignOfINS_6detail11AlignerImplINSt3__110unique_ptrINS_12MemoryBufferENS3_14default_deleteIS5_EEEEcccccccccEEE28$Alignment_LessEqual_16BytesE",
   "name" : "llvm::AlignOf<AlignerImpl<unique_ptr<MemoryBuffer, default_delete<MemoryBuffer>>, char, char, char, char, char, char, char, char, char>>::(anonymous enum at external/llvm/include/llvm/Support/AlignOf.h:94:3)",
   "referenced_type" : "_ZTIN4llvm7AlignOfINS_6detail11AlignerImplINSt3__110unique_ptrINS_12MemoryBufferENS3_14default_deleteIS5_EEEEcccccccccEEE28$Alignment_LessEqual_16BytesE",
   "self_type" : "_ZTIN4llvm7AlignOfINS_6detail11AlignerImplINSt3__110unique_ptrINS_12MemoryBufferENS3_14default_deleteIS5_EEEEcccccccccEEE28$Alignment_LessEqual_16BytesE",
   "size" : 4,
   "source_file" : "external/llvm/include/llvm/Support/AlignOf.h",
   "underlying_type" : "_ZTIj"
  },
  {
   "alignment" : 4,
   "enum_fields" :
   [
    {
     "enum_field_value" : 1,
     "name" : "llvm::AlignOf<llvm::detail::AlignerImpl<std::__1::unique_ptr<llvm::MemoryBuffer, std::__1::default_delete<llvm::MemoryBuffer>>, char, char, char, char, char, char, char, char, char>>::Alignment_GreaterEqual_2Bytes"
    }
   ],
   "linker_set_key" : "_ZTIN4llvm7AlignOfINS_6detail11AlignerImplINSt3__110unique_ptrINS_12MemoryBufferENS3_14default_deleteIS5_EEEEcccccccccEEE30$Alignment_GreaterEqual_2BytesE",
   "name" : "llvm::AlignOf<AlignerImpl<unique_ptr<MemoryBuffer, default_delete<MemoryBuffer>>, char, char, char, char, char, char, char, char, char>>::(anonymous enum at external/llvm/include/llvm/Support/AlignOf.h:86:3)",
   "referenced_type" : "_ZTIN4llvm7AlignOfINS_6detail11AlignerImplINSt3__110unique_ptrINS_12MemoryBufferENS3_14default_deleteIS5_EEEEcccccccccEEE30$Alignment_GreaterEqual_2BytesE",
   "self_type" : "_ZTIN4llvm7AlignOfINS_6detail11AlignerImplINSt3__110unique_ptrINS_12MemoryBufferENS3_14default_deleteIS5_EEEEcccccccccEEE30$Alignment_GreaterEqual_2BytesE",
   "size" : 4,
   "source_file" : "external/llvm/include/llvm/Support/AlignOf.h",
   "underlying_type" : "_ZTIj"
  },
  {
   "alignment" : 4,
   "enum_fields" :
   [
    {
     "enum_field_value" : 1,
     "name" : "llvm::AlignOf<llvm::detail::AlignerImpl<std::__1::unique_ptr<llvm::MemoryBuffer, std::__1::default_delete<llvm::MemoryBuffer>>, char, char, char, char, char, char, char, char, char>>::Alignment_GreaterEqual_4Bytes"
    }
   ],
   "linker_set_key" : "_ZTIN4llvm7AlignOfINS_6detail11AlignerImplINSt3__110unique_ptrINS_12MemoryBufferENS3_14default_deleteIS5_EEEEcccccccccEEE30$Alignment_GreaterEqual_4BytesE",
   "name" : "llvm::AlignOf<AlignerImpl<unique_ptr<MemoryBuffer, default_delete<MemoryBuffer>>, char, char, char, char, char, char, char, char, char>>::(anonymous enum at external/llvm/include/llvm/Support/AlignOf.h:87:3)",
   "referenced_type" : "_ZTIN4llvm7AlignOfINS_6detail11AlignerImplINSt3__110unique_ptrINS_12MemoryBufferENS3_14default_deleteIS5_EEEEcccccccccEEE30$Alignment_GreaterEqual_4BytesE",
   "self_type" : "_ZTIN4llvm7AlignOfINS_6detail11AlignerImplINSt3__110unique_ptrINS_12MemoryBufferENS3_14default_deleteIS5_EEEEcccccccccEEE30$Alignment_GreaterEqual_4BytesE",
   "size" : 4,
   "source_file" : "external/llvm/include/llvm/Support/AlignOf.h",
   "underlying_type" : "_ZTIj"
  },
  {
   "alignment" : 4,
   "enum_fields" :
   [
    {
     "enum_field_value" : 1,
     "name" : "llvm::AlignOf<llvm::detail::AlignerImpl<std::__1::unique_ptr<llvm::MemoryBuffer, std::__1::default_delete<llvm::MemoryBuffer>>, char, char, char, char, char, char, char, char, char>>::Alignment_GreaterEqual_8Bytes"
    }
   ],
   "linker_set_key" : "_ZTIN4llvm7AlignOfINS_6detail11AlignerImplINSt3__110unique_ptrINS_12MemoryBufferENS3_14default_deleteIS5_EEEEcccccccccEEE30$Alignment_GreaterEqual_8BytesE",
   "name" : "llvm::AlignOf<AlignerImpl<unique_ptr<MemoryBuffer, default_delete<MemoryBuffer>>, char, char, char, char, char, char, char, char, char>>::(anonymous enum at external/llvm/include/llvm/Support/AlignOf.h:88:3)",
   "referenced_type" : "_ZTIN4llvm7AlignOfINS_6detail11AlignerImplINSt3__110unique_ptrINS_12MemoryBufferENS3_14default_deleteIS5_EEEEcccccccccEEE30$Alignment_GreaterEqual_8BytesE",
   "self_type" : "_ZTIN4llvm7AlignOfINS_6detail11AlignerImplINSt3__110unique_ptrINS_12MemoryBufferENS3_14default_deleteIS5_EEEEcccccccccEEE30$Alignment_GreaterEqual_8BytesE",
   "size" : 4,
   "source_file" : "external/llvm/include/llvm/Support/AlignOf.h",
   "underlying_type" : "_ZTIj"
  },
  {
   "alignment" : 4,
   "enum_fields" :
   [
    {
     "enum_field_value" : 0,
     "name" : "llvm::AlignOf<llvm::detail::AlignerImpl<std::__1::unique_ptr<llvm::MemoryBuffer, std::__1::default_delete<llvm::MemoryBuffer>>, char, char, char, char, char, char, char, char, char>>::Alignment_GreaterEqual_16Bytes"
    }
   ],
   "linker_set_key" : "_ZTIN4llvm7AlignOfINS_6detail11AlignerImplINSt3__110unique_ptrINS_12MemoryBufferENS3_14default_deleteIS5_EEEEcccccccccEEE31$Alignment_GreaterEqual_16BytesE",
   "name" : "llvm::AlignOf<AlignerImpl<unique_ptr<MemoryBuffer, default_delete<MemoryBuffer>>, char, char, char, char, char, char, char, char, char>>::(anonymous enum at external/llvm/include/llvm/Support/AlignOf.h:89:3)",
   "referenced_type" : "_ZTIN4llvm7AlignOfINS_6detail11AlignerImplINSt3__110unique_ptrINS_12MemoryBufferENS3_14default_deleteIS5_EEEEcccccccccEEE31$Alignment_GreaterEqual_16BytesE",
   "self_type" : "_ZTIN4llvm7AlignOfINS_6detail11AlignerImplINSt3__110unique_ptrINS_12MemoryBufferENS3_14default_deleteIS5_EEEEcccccccccEEE31$Alignment_GreaterEqual_16BytesE",
   "size" : 4,
   "source_file" : "external/llvm/include/llvm/Support/AlignOf.h",
   "underlying_type" : "_ZTIj"
  },
  {
   "alignment" : 4,
   "enum_fields" :
   [
    {
     "enum_field_value" : 0,
     "name" : "llvm::AlignOf<llvm::detail::AlignerImpl<std::__1::unique_ptr<llvm::GCOVEdge, std::__1::default_delete<llvm::GCOVEdge>>, char, char, char, char, char, char, char, char, char>>::Alignment_LessEqual_2Bytes"
    }
   ],
   "linker_set_key" : "_ZTIN4llvm7AlignOfINS_6detail11AlignerImplINSt3__110unique_ptrINS_8GCOVEdgeENS3_14default_deleteIS5_EEEEcccccccccEEE27$Alignment_LessEqual_2BytesE",
   "name" : "llvm::AlignOf<AlignerImpl<unique_ptr<GCOVEdge, default_delete<GCOVEdge>>, char, char, char, char, char, char, char, char, char>>::(anonymous enum at external/llvm/include/llvm/Support/AlignOf.h:91:3)",
   "referenced_type" : "_ZTIN4llvm7AlignOfINS_6detail11AlignerImplINSt3__110unique_ptrINS_8GCOVEdgeENS3_14default_deleteIS5_EEEEcccccccccEEE27$Alignment_LessEqual_2BytesE",
   "self_type" : "_ZTIN4llvm7AlignOfINS_6detail11AlignerImplINSt3__110unique_ptrINS_8GCOVEdgeENS3_14default_deleteIS5_EEEEcccccccccEEE27$Alignment_LessEqual_2BytesE",
   "size" : 4,
   "source_file" : "external/llvm/include/llvm/Support/AlignOf.h",
   "underlying_type" : "_ZTIj"
  },
  {
   "alignment" : 4,
   "enum_fields" :
   [
    {
     "enum_field_value" : 0,
     "name" : "llvm::AlignOf<llvm::detail::AlignerImpl<std::__1::unique_ptr<llvm::GCOVEdge, std::__1::default_delete<llvm::GCOVEdge>>, char, char, char, char, char, char, char, char, char>>::Alignment_LessEqual_4Bytes"
    }
   ],
   "linker_set_key" : "_ZTIN4llvm7AlignOfINS_6detail11AlignerImplINSt3__110unique_ptrINS_8GCOVEdgeENS3_14default_deleteIS5_EEEEcccccccccEEE27$Alignment_LessEqual_4BytesE",
   "name" : "llvm::AlignOf<AlignerImpl<unique_ptr<GCOVEdge, default_delete<GCOVEdge>>, char, char, char, char, char, char, char, char, char>>::(anonymous enum at external/llvm/include/llvm/Support/AlignOf.h:92:3)",
   "referenced_type" : "_ZTIN4llvm7AlignOfINS_6detail11AlignerImplINSt3__110unique_ptrINS_8GCOVEdgeENS3_14default_deleteIS5_EEEEcccccccccEEE27$Alignment_LessEqual_4BytesE",
   "self_type" : "_ZTIN4llvm7AlignOfINS_6detail11AlignerImplINSt3__110unique_ptrINS_8GCOVEdgeENS3_14default_deleteIS5_EEEEcccccccccEEE27$Alignment_LessEqual_4BytesE",
   "size" : 4,
   "source_file" : "external/llvm/include/llvm/Support/AlignOf.h",
   "underlying_type" : "_ZTIj"
  },
  {
   "alignment" : 4,
   "enum_fields" :
   [
    {
     "enum_field_value" : 1,
     "name" : "llvm::AlignOf<llvm::detail::AlignerImpl<std::__1::unique_ptr<llvm::GCOVEdge, std::__1::default_delete<llvm::GCOVEdge>>, char, char, char, char, char, char, char, char, char>>::Alignment_LessEqual_8Bytes"
    }
   ],
   "linker_set_key" : "_ZTIN4llvm7AlignOfINS_6detail11AlignerImplINSt3__110unique_ptrINS_8GCOVEdgeENS3_14default_deleteIS5_EEEEcccccccccEEE27$Alignment_LessEqual_8BytesE",
   "name" : "llvm::AlignOf<AlignerImpl<unique_ptr<GCOVEdge, default_delete<GCOVEdge>>, char, char, char, char, char, char, char, char, char>>::(anonymous enum at external/llvm/include/llvm/Support/AlignOf.h:93:3)",
   "referenced_type" : "_ZTIN4llvm7AlignOfINS_6detail11AlignerImplINSt3__110unique_ptrINS_8GCOVEdgeENS3_14default_deleteIS5_EEEEcccccccccEEE27$Alignment_LessEqual_8BytesE",
   "self_type" : "_ZTIN4llvm7AlignOfINS_6detail11AlignerImplINSt3__110unique_ptrINS_8GCOVEdgeENS3_14default_deleteIS5_EEEEcccccccccEEE27$Alignment_LessEqual_8BytesE",
   "size" : 4,
   "source_file" : "external/llvm/include/llvm/Support/AlignOf.h",
   "underlying_type" : "_ZTIj"
  },
  {
   "alignment" : 4,
   "enum_fields" :
   [
    {
     "enum_field_value" : 1,
     "name" : "llvm::AlignOf<llvm::detail::AlignerImpl<std::__1::unique_ptr<llvm::GCOVEdge, std::__1::default_delete<llvm::GCOVEdge>>, char, char, char, char, char, char, char, char, char>>::Alignment_LessEqual_16Bytes"
    }
   ],
   "linker_set_key" : "_ZTIN4llvm7AlignOfINS_6detail11AlignerImplINSt3__110unique_ptrINS_8GCOVEdgeENS3_14default_deleteIS5_EEEEcccccccccEEE28$Alignment_LessEqual_16BytesE",
   "name" : "llvm::AlignOf<AlignerImpl<unique_ptr<GCOVEdge, default_delete<GCOVEdge>>, char, char, char, char, char, char, char, char, char>>::(anonymous enum at external/llvm/include/llvm/Support/AlignOf.h:94:3)",
   "referenced_type" : "_ZTIN4llvm7AlignOfINS_6detail11AlignerImplINSt3__110unique_ptrINS_8GCOVEdgeENS3_14default_deleteIS5_EEEEcccccccccEEE28$Alignment_LessEqual_16BytesE",
   "self_type" : "_ZTIN4llvm7AlignOfINS_6detail11AlignerImplINSt3__110unique_ptrINS_8GCOVEdgeENS3_14default_deleteIS5_EEEEcccccccccEEE28$Alignment_LessEqual_16BytesE",
   "size" : 4,
   "source_file" : "external/llvm/include/llvm/Support/AlignOf.h",
   "underlying_type" : "_ZTIj"
  },
  {
   "alignment" : 4,
   "enum_fields" :
   [
    {
     "enum_field_value" : 1,
     "name" : "llvm::AlignOf<llvm::detail::AlignerImpl<std::__1::unique_ptr<llvm::GCOVEdge, std::__1::default_delete<llvm::GCOVEdge>>, char, char, char, char, char, char, char, char, char>>::Alignment_GreaterEqual_2Bytes"
    }
   ],
   "linker_set_key" : "_ZTIN4llvm7AlignOfINS_6detail11AlignerImplINSt3__110unique_ptrINS_8GCOVEdgeENS3_14default_deleteIS5_EEEEcccccccccEEE30$Alignment_GreaterEqual_2BytesE",
   "name" : "llvm::AlignOf<AlignerImpl<unique_ptr<GCOVEdge, default_delete<GCOVEdge>>, char, char, char, char, char, char, char, char, char>>::(anonymous enum at external/llvm/include/llvm/Support/AlignOf.h:86:3)",
   "referenced_type" : "_ZTIN4llvm7AlignOfINS_6detail11AlignerImplINSt3__110unique_ptrINS_8GCOVEdgeENS3_14default_deleteIS5_EEEEcccccccccEEE30$Alignment_GreaterEqual_2BytesE",
   "self_type" : "_ZTIN4llvm7AlignOfINS_6detail11AlignerImplINSt3__110unique_ptrINS_8GCOVEdgeENS3_14default_deleteIS5_EEEEcccccccccEEE30$Alignment_GreaterEqual_2BytesE",
   "size" : 4,
   "source_file" : "external/llvm/include/llvm/Support/AlignOf.h",
   "underlying_type" : "_ZTIj"
  },
  {
   "alignment" : 4,
   "enum_fields" :
   [
    {
     "enum_field_value" : 1,
     "name" : "llvm::AlignOf<llvm::detail::AlignerImpl<std::__1::unique_ptr<llvm::GCOVEdge, std::__1::default_delete<llvm::GCOVEdge>>, char, char, char, char, char, char, char, char, char>>::Alignment_GreaterEqual_4Bytes"
    }
   ],
   "linker_set_key" : "_ZTIN4llvm7AlignOfINS_6detail11AlignerImplINSt3__110unique_ptrINS_8GCOVEdgeENS3_14default_deleteIS5_EEEEcccccccccEEE30$Alignment_GreaterEqual_4BytesE",
   "name" : "llvm::AlignOf<AlignerImpl<unique_ptr<GCOVEdge, default_delete<GCOVEdge>>, char, char, char, char, char, char, char, char, char>>::(anonymous enum at external/llvm/include/llvm/Support/AlignOf.h:87:3)",
   "referenced_type" : "_ZTIN4llvm7AlignOfINS_6detail11AlignerImplINSt3__110unique_ptrINS_8GCOVEdgeENS3_14default_deleteIS5_EEEEcccccccccEEE30$Alignment_GreaterEqual_4BytesE",
   "self_type" : "_ZTIN4llvm7AlignOfINS_6detail11AlignerImplINSt3__110unique_ptrINS_8GCOVEdgeENS3_14default_deleteIS5_EEEEcccccccccEEE30$Alignment_GreaterEqual_4BytesE",
   "size" : 4,
   "source_file" : "external/llvm/include/llvm/Support/AlignOf.h",
   "underlying_type" : "_ZTIj"
  },
  {
   "alignment" : 4,
   "enum_fields" :
   [
    {
     "enum_field_value" : 1,
     "name" : "llvm::AlignOf<llvm::detail::AlignerImpl<std::__1::unique_ptr<llvm::GCOVEdge, std::__1::default_delete<llvm::GCOVEdge>>, char, char, char, char, char, char, char, char, char>>::Alignment_GreaterEqual_8Bytes"
    }
   ],
   "linker_set_key" : "_ZTIN4llvm7AlignOfINS_6detail11AlignerImplINSt3__110unique_ptrINS_8GCOVEdgeENS3_14default_deleteIS5_EEEEcccccccccEEE30$Alignment_GreaterEqual_8BytesE",
   "name" : "llvm::AlignOf<AlignerImpl<unique_ptr<GCOVEdge, default_delete<GCOVEdge>>, char, char, char, char, char, char, char, char, char>>::(anonymous enum at external/llvm/include/llvm/Support/AlignOf.h:88:3)",
   "referenced_type" : "_ZTIN4llvm7AlignOfINS_6detail11AlignerImplINSt3__110unique_ptrINS_8GCOVEdgeENS3_14default_deleteIS5_EEEEcccccccccEEE30$Alignment_GreaterEqual_8BytesE",
   "self_type" : "_ZTIN4llvm7AlignOfINS_6detail11AlignerImplINSt3__110unique_ptrINS_8GCOVEdgeENS3_14default_deleteIS5_EEEEcccccccccEEE30$Alignment_GreaterEqual_8BytesE",
   "size" : 4,
   "source_file" : "external/llvm/include/llvm/Support/AlignOf.h",
   "underlying_type" : "_ZTIj"
  },
  {
   "alignment" : 4,
   "enum_fields" :
   [
    {
     "enum_field_value" : 0,
     "name" : "llvm::AlignOf<llvm::detail::AlignerImpl<std::__1::unique_ptr<llvm::GCOVEdge, std::__1::default_delete<llvm::GCOVEdge>>, char, char, char, char, char, char, char, char, char>>::Alignment_GreaterEqual_16Bytes"
    }
   ],
   "linker_set_key" : "_ZTIN4llvm7AlignOfINS_6detail11AlignerImplINSt3__110unique_ptrINS_8GCOVEdgeENS3_14default_deleteIS5_EEEEcccccccccEEE31$Alignment_GreaterEqual_16BytesE",
   "name" : "llvm::AlignOf<AlignerImpl<unique_ptr<GCOVEdge, default_delete<GCOVEdge>>, char, char, char, char, char, char, char, char, char>>::(anonymous enum at external/llvm/include/llvm/Support/AlignOf.h:89:3)",
   "referenced_type" : "_ZTIN4llvm7AlignOfINS_6detail11AlignerImplINSt3__110unique_ptrINS_8GCOVEdgeENS3_14default_deleteIS5_EEEEcccccccccEEE31$Alignment_GreaterEqual_16BytesE",
   "self_type" : "_ZTIN4llvm7AlignOfINS_6detail11AlignerImplINSt3__110unique_ptrINS_8GCOVEdgeENS3_14default_deleteIS5_EEEEcccccccccEEE31$Alignment_GreaterEqual_16BytesE",
   "size" : 4,
   "source_file" : "external/llvm/include/llvm/Support/AlignOf.h",
   "underlying_type" : "_ZTIj"
  },
  {
   "alignment" : 4,
   "enum_fields" :
   [
    {
     "enum_field_value" : 0,
     "name" : "llvm::AlignOf<llvm::detail::AlignerImpl<std::__1::unique_ptr<llvm::GCOVBlock, std::__1::default_delete<llvm::GCOVBlock>>, char, char, char, char, char, char, char, char, char>>::Alignment_LessEqual_2Bytes"
    }
   ],
   "linker_set_key" : "_ZTIN4llvm7AlignOfINS_6detail11AlignerImplINSt3__110unique_ptrINS_9GCOVBlockENS3_14default_deleteIS5_EEEEcccccccccEEE27$Alignment_LessEqual_2BytesE",
   "name" : "llvm::AlignOf<AlignerImpl<unique_ptr<GCOVBlock, default_delete<GCOVBlock>>, char, char, char, char, char, char, char, char, char>>::(anonymous enum at external/llvm/include/llvm/Support/AlignOf.h:91:3)",
   "referenced_type" : "_ZTIN4llvm7AlignOfINS_6detail11AlignerImplINSt3__110unique_ptrINS_9GCOVBlockENS3_14default_deleteIS5_EEEEcccccccccEEE27$Alignment_LessEqual_2BytesE",
   "self_type" : "_ZTIN4llvm7AlignOfINS_6detail11AlignerImplINSt3__110unique_ptrINS_9GCOVBlockENS3_14default_deleteIS5_EEEEcccccccccEEE27$Alignment_LessEqual_2BytesE",
   "size" : 4,
   "source_file" : "external/llvm/include/llvm/Support/AlignOf.h",
   "underlying_type" : "_ZTIj"
  },
  {
   "alignment" : 4,
   "enum_fields" :
   [
    {
     "enum_field_value" : 0,
     "name" : "llvm::AlignOf<llvm::detail::AlignerImpl<std::__1::unique_ptr<llvm::GCOVBlock, std::__1::default_delete<llvm::GCOVBlock>>, char, char, char, char, char, char, char, char, char>>::Alignment_LessEqual_4Bytes"
    }
   ],
   "linker_set_key" : "_ZTIN4llvm7AlignOfINS_6detail11AlignerImplINSt3__110unique_ptrINS_9GCOVBlockENS3_14default_deleteIS5_EEEEcccccccccEEE27$Alignment_LessEqual_4BytesE",
   "name" : "llvm::AlignOf<AlignerImpl<unique_ptr<GCOVBlock, default_delete<GCOVBlock>>, char, char, char, char, char, char, char, char, char>>::(anonymous enum at external/llvm/include/llvm/Support/AlignOf.h:92:3)",
   "referenced_type" : "_ZTIN4llvm7AlignOfINS_6detail11AlignerImplINSt3__110unique_ptrINS_9GCOVBlockENS3_14default_deleteIS5_EEEEcccccccccEEE27$Alignment_LessEqual_4BytesE",
   "self_type" : "_ZTIN4llvm7AlignOfINS_6detail11AlignerImplINSt3__110unique_ptrINS_9GCOVBlockENS3_14default_deleteIS5_EEEEcccccccccEEE27$Alignment_LessEqual_4BytesE",
   "size" : 4,
   "source_file" : "external/llvm/include/llvm/Support/AlignOf.h",
   "underlying_type" : "_ZTIj"
  },
  {
   "alignment" : 4,
   "enum_fields" :
   [
    {
     "enum_field_value" : 1,
     "name" : "llvm::AlignOf<llvm::detail::AlignerImpl<std::__1::unique_ptr<llvm::GCOVBlock, std::__1::default_delete<llvm::GCOVBlock>>, char, char, char, char, char, char, char, char, char>>::Alignment_LessEqual_8Bytes"
    }
   ],
   "linker_set_key" : "_ZTIN4llvm7AlignOfINS_6detail11AlignerImplINSt3__110unique_ptrINS_9GCOVBlockENS3_14default_deleteIS5_EEEEcccccccccEEE27$Alignment_LessEqual_8BytesE",
   "name" : "llvm::AlignOf<AlignerImpl<unique_ptr<GCOVBlock, default_delete<GCOVBlock>>, char, char, char, char, char, char, char, char, char>>::(anonymous enum at external/llvm/include/llvm/Support/AlignOf.h:93:3)",
   "referenced_type" : "_ZTIN4llvm7AlignOfINS_6detail11AlignerImplINSt3__110unique_ptrINS_9GCOVBlockENS3_14default_deleteIS5_EEEEcccccccccEEE27$Alignment_LessEqual_8BytesE",
   "self_type" : "_ZTIN4llvm7AlignOfINS_6detail11AlignerImplINSt3__110unique_ptrINS_9GCOVBlockENS3_14default_deleteIS5_EEEEcccccccccEEE27$Alignment_LessEqual_8BytesE",
   "size" : 4,
   "source_file" : "external/llvm/include/llvm/Support/AlignOf.h",
   "underlying_type" : "_ZTIj"
  },
  {
   "alignment" : 4,
   "enum_fields" :
   [
    {
     "enum_field_value" : 1,
     "name" : "llvm::AlignOf<llvm::detail::AlignerImpl<std::__1::unique_ptr<llvm::GCOVBlock, std::__1::default_delete<llvm::GCOVBlock>>, char, char, char, char, char, char, char, char, char>>::Alignment_LessEqual_16Bytes"
    }
   ],
   "linker_set_key" : "_ZTIN4llvm7AlignOfINS_6detail11AlignerImplINSt3__110unique_ptrINS_9GCOVBlockENS3_14default_deleteIS5_EEEEcccccccccEEE28$Alignment_LessEqual_16BytesE",
   "name" : "llvm::AlignOf<AlignerImpl<unique_ptr<GCOVBlock, default_delete<GCOVBlock>>, char, char, char, char, char, char, char, char, char>>::(anonymous enum at external/llvm/include/llvm/Support/AlignOf.h:94:3)",
   "referenced_type" : "_ZTIN4llvm7AlignOfINS_6detail11AlignerImplINSt3__110unique_ptrINS_9GCOVBlockENS3_14default_deleteIS5_EEEEcccccccccEEE28$Alignment_LessEqual_16BytesE",
   "self_type" : "_ZTIN4llvm7AlignOfINS_6detail11AlignerImplINSt3__110unique_ptrINS_9GCOVBlockENS3_14default_deleteIS5_EEEEcccccccccEEE28$Alignment_LessEqual_16BytesE",
   "size" : 4,
   "source_file" : "external/llvm/include/llvm/Support/AlignOf.h",
   "underlying_type" : "_ZTIj"
  },
  {
   "alignment" : 4,
   "enum_fields" :
   [
    {
     "enum_field_value" : 1,
     "name" : "llvm::AlignOf<llvm::detail::AlignerImpl<std::__1::unique_ptr<llvm::GCOVBlock, std::__1::default_delete<llvm::GCOVBlock>>, char, char, char, char, char, char, char, char, char>>::Alignment_GreaterEqual_2Bytes"
    }
   ],
   "linker_set_key" : "_ZTIN4llvm7AlignOfINS_6detail11AlignerImplINSt3__110unique_ptrINS_9GCOVBlockENS3_14default_deleteIS5_EEEEcccccccccEEE30$Alignment_GreaterEqual_2BytesE",
   "name" : "llvm::AlignOf<AlignerImpl<unique_ptr<GCOVBlock, default_delete<GCOVBlock>>, char, char, char, char, char, char, char, char, char>>::(anonymous enum at external/llvm/include/llvm/Support/AlignOf.h:86:3)",
   "referenced_type" : "_ZTIN4llvm7AlignOfINS_6detail11AlignerImplINSt3__110unique_ptrINS_9GCOVBlockENS3_14default_deleteIS5_EEEEcccccccccEEE30$Alignment_GreaterEqual_2BytesE",
   "self_type" : "_ZTIN4llvm7AlignOfINS_6detail11AlignerImplINSt3__110unique_ptrINS_9GCOVBlockENS3_14default_deleteIS5_EEEEcccccccccEEE30$Alignment_GreaterEqual_2BytesE",
   "size" : 4,
   "source_file" : "external/llvm/include/llvm/Support/AlignOf.h",
   "underlying_type" : "_ZTIj"
  },
  {
   "alignment" : 4,
   "enum_fields" :
   [
    {
     "enum_field_value" : 1,
     "name" : "llvm::AlignOf<llvm::detail::AlignerImpl<std::__1::unique_ptr<llvm::GCOVBlock, std::__1::default_delete<llvm::GCOVBlock>>, char, char, char, char, char, char, char, char, char>>::Alignment_GreaterEqual_4Bytes"
    }
   ],
   "linker_set_key" : "_ZTIN4llvm7AlignOfINS_6detail11AlignerImplINSt3__110unique_ptrINS_9GCOVBlockENS3_14default_deleteIS5_EEEEcccccccccEEE30$Alignment_GreaterEqual_4BytesE",
   "name" : "llvm::AlignOf<AlignerImpl<unique_ptr<GCOVBlock, default_delete<GCOVBlock>>, char, char, char, char, char, char, char, char, char>>::(anonymous enum at external/llvm/include/llvm/Support/AlignOf.h:87:3)",
   "referenced_type" : "_ZTIN4llvm7AlignOfINS_6detail11AlignerImplINSt3__110unique_ptrINS_9GCOVBlockENS3_14default_deleteIS5_EEEEcccccccccEEE30$Alignment_GreaterEqual_4BytesE",
   "self_type" : "_ZTIN4llvm7AlignOfINS_6detail11AlignerImplINSt3__110unique_ptrINS_9GCOVBlockENS3_14default_deleteIS5_EEEEcccccccccEEE30$Alignment_GreaterEqual_4BytesE",
   "size" : 4,
   "source_file" : "external/llvm/include/llvm/Support/AlignOf.h",
   "underlying_type" : "_ZTIj"
  },
  {
   "alignment" : 4,
   "enum_fields" :
   [
    {
     "enum_field_value" : 1,
     "name" : "llvm::AlignOf<llvm::detail::AlignerImpl<std::__1::unique_ptr<llvm::GCOVBlock, std::__1::default_delete<llvm::GCOVBlock>>, char, char, char, char, char, char, char, char, char>>::Alignment_GreaterEqual_8Bytes"
    }
   ],
   "linker_set_key" : "_ZTIN4llvm7AlignOfINS_6detail11AlignerImplINSt3__110unique_ptrINS_9GCOVBlockENS3_14default_deleteIS5_EEEEcccccccccEEE30$Alignment_GreaterEqual_8BytesE",
   "name" : "llvm::AlignOf<AlignerImpl<unique_ptr<GCOVBlock, default_delete<GCOVBlock>>, char, char, char, char, char, char, char, char, char>>::(anonymous enum at external/llvm/include/llvm/Support/AlignOf.h:88:3)",
   "referenced_type" : "_ZTIN4llvm7AlignOfINS_6detail11AlignerImplINSt3__110unique_ptrINS_9GCOVBlockENS3_14default_deleteIS5_EEEEcccccccccEEE30$Alignment_GreaterEqual_8BytesE",
   "self_type" : "_ZTIN4llvm7AlignOfINS_6detail11AlignerImplINSt3__110unique_ptrINS_9GCOVBlockENS3_14default_deleteIS5_EEEEcccccccccEEE30$Alignment_GreaterEqual_8BytesE",
   "size" : 4,
   "source_file" : "external/llvm/include/llvm/Support/AlignOf.h",
   "underlying_type" : "_ZTIj"
  },
  {
   "alignment" : 4,
   "enum_fields" :
   [
    {
     "enum_field_value" : 0,
     "name" : "llvm::AlignOf<llvm::detail::AlignerImpl<std::__1::unique_ptr<llvm::GCOVBlock, std::__1::default_delete<llvm::GCOVBlock>>, char, char, char, char, char, char, char, char, char>>::Alignment_GreaterEqual_16Bytes"
    }
   ],
   "linker_set_key" : "_ZTIN4llvm7AlignOfINS_6detail11AlignerImplINSt3__110unique_ptrINS_9GCOVBlockENS3_14default_deleteIS5_EEEEcccccccccEEE31$Alignment_GreaterEqual_16BytesE",
   "name" : "llvm::AlignOf<AlignerImpl<unique_ptr<GCOVBlock, default_delete<GCOVBlock>>, char, char, char, char, char, char, char, char, char>>::(anonymous enum at external/llvm/include/llvm/Support/AlignOf.h:89:3)",
   "referenced_type" : "_ZTIN4llvm7AlignOfINS_6detail11AlignerImplINSt3__110unique_ptrINS_9GCOVBlockENS3_14default_deleteIS5_EEEEcccccccccEEE31$Alignment_GreaterEqual_16BytesE",
   "self_type" : "_ZTIN4llvm7AlignOfINS_6detail11AlignerImplINSt3__110unique_ptrINS_9GCOVBlockENS3_14default_deleteIS5_EEEEcccccccccEEE31$Alignment_GreaterEqual_16BytesE",
   "size" : 4,
   "source_file" : "external/llvm/include/llvm/Support/AlignOf.h",
   "underlying_type" : "_ZTIj"
  },
  {
   "alignment" : 4,
   "enum_fields" :
   [
    {
     "enum_field_value" : 0,
     "name" : "llvm::AlignOf<llvm::detail::AlignerImpl<std::__1::pair<std::__1::basic_string<char>, llvm::FileInfo::GCOVCoverage>, char, char, char, char, char, char, char, char, char>>::Alignment_LessEqual_2Bytes"
    }
   ],
   "linker_set_key" : "_ZTIN4llvm7AlignOfINS_6detail11AlignerImplINSt3__14pairINS3_12basic_stringIcNS3_11char_traitsIcEENS3_9allocatorIcEEEENS_8FileInfo12GCOVCoverageEEEcccccccccEEE27$Alignment_LessEqual_2BytesE",
   "name" : "llvm::AlignOf<AlignerImpl<pair<basic_string<char>, GCOVCoverage>, char, char, char, char, char, char, char, char, char>>::(anonymous enum at external/llvm/include/llvm/Support/AlignOf.h:91:3)",
   "referenced_type" : "_ZTIN4llvm7AlignOfINS_6detail11AlignerImplINSt3__14pairINS3_12basic_stringIcNS3_11char_traitsIcEENS3_9allocatorIcEEEENS_8FileInfo12GCOVCoverageEEEcccccccccEEE27$Alignment_LessEqual_2BytesE",
   "self_type" : "_ZTIN4llvm7AlignOfINS_6detail11AlignerImplINSt3__14pairINS3_12basic_stringIcNS3_11char_traitsIcEENS3_9allocatorIcEEEENS_8FileInfo12GCOVCoverageEEEcccccccccEEE27$Alignment_LessEqual_2BytesE",
   "size" : 4,
   "source_file" : "external/llvm/include/llvm/Support/AlignOf.h",
   "underlying_type" : "_ZTIj"
  },
  {
   "alignment" : 4,
   "enum_fields" :
   [
    {
     "enum_field_value" : 0,
     "name" : "llvm::AlignOf<llvm::detail::AlignerImpl<std::__1::pair<std::__1::basic_string<char>, llvm::FileInfo::GCOVCoverage>, char, char, char, char, char, char, char, char, char>>::Alignment_LessEqual_4Bytes"
    }
   ],
   "linker_set_key" : "_ZTIN4llvm7AlignOfINS_6detail11AlignerImplINSt3__14pairINS3_12basic_stringIcNS3_11char_traitsIcEENS3_9allocatorIcEEEENS_8FileInfo12GCOVCoverageEEEcccccccccEEE27$Alignment_LessEqual_4BytesE",
   "name" : "llvm::AlignOf<AlignerImpl<pair<basic_string<char>, GCOVCoverage>, char, char, char, char, char, char, char, char, char>>::(anonymous enum at external/llvm/include/llvm/Support/AlignOf.h:92:3)",
   "referenced_type" : "_ZTIN4llvm7AlignOfINS_6detail11AlignerImplINSt3__14pairINS3_12basic_stringIcNS3_11char_traitsIcEENS3_9allocatorIcEEEENS_8FileInfo12GCOVCoverageEEEcccccccccEEE27$Alignment_LessEqual_4BytesE",
   "self_type" : "_ZTIN4llvm7AlignOfINS_6detail11AlignerImplINSt3__14pairINS3_12basic_stringIcNS3_11char_traitsIcEENS3_9allocatorIcEEEENS_8FileInfo12GCOVCoverageEEEcccccccccEEE27$Alignment_LessEqual_4BytesE",
   "size" : 4,
   "source_file" : "external/llvm/include/llvm/Support/AlignOf.h",
   "underlying_type" : "_ZTIj"
  },
  {
   "alignment" : 4,
   "enum_fields" :
   [
    {
     "enum_field_value" : 1,
     "name" : "llvm::AlignOf<llvm::detail::AlignerImpl<std::__1::pair<std::__1::basic_string<char>, llvm::FileInfo::GCOVCoverage>, char, char, char, char, char, char, char, char, char>>::Alignment_LessEqual_8Bytes"
    }
   ],
   "linker_set_key" : "_ZTIN4llvm7AlignOfINS_6detail11AlignerImplINSt3__14pairINS3_12basic_stringIcNS3_11char_traitsIcEENS3_9allocatorIcEEEENS_8FileInfo12GCOVCoverageEEEcccccccccEEE27$Alignment_LessEqual_8BytesE",
   "name" : "llvm::AlignOf<AlignerImpl<pair<basic_string<char>, GCOVCoverage>, char, char, char, char, char, char, char, char, char>>::(anonymous enum at external/llvm/include/llvm/Support/AlignOf.h:93:3)",
   "referenced_type" : "_ZTIN4llvm7AlignOfINS_6detail11AlignerImplINSt3__14pairINS3_12basic_stringIcNS3_11char_traitsIcEENS3_9allocatorIcEEEENS_8FileInfo12GCOVCoverageEEEcccccccccEEE27$Alignment_LessEqual_8BytesE",
   "self_type" : "_ZTIN4llvm7AlignOfINS_6detail11AlignerImplINSt3__14pairINS3_12basic_stringIcNS3_11char_traitsIcEENS3_9allocatorIcEEEENS_8FileInfo12GCOVCoverageEEEcccccccccEEE27$Alignment_LessEqual_8BytesE",
   "size" : 4,
   "source_file" : "external/llvm/include/llvm/Support/AlignOf.h",
   "underlying_type" : "_ZTIj"
  },
  {
   "alignment" : 4,
   "enum_fields" :
   [
    {
     "enum_field_value" : 1,
     "name" : "llvm::AlignOf<llvm::detail::AlignerImpl<std::__1::pair<std::__1::basic_string<char>, llvm::FileInfo::GCOVCoverage>, char, char, char, char, char, char, char, char, char>>::Alignment_LessEqual_16Bytes"
    }
   ],
   "linker_set_key" : "_ZTIN4llvm7AlignOfINS_6detail11AlignerImplINSt3__14pairINS3_12basic_stringIcNS3_11char_traitsIcEENS3_9allocatorIcEEEENS_8FileInfo12GCOVCoverageEEEcccccccccEEE28$Alignment_LessEqual_16BytesE",
   "name" : "llvm::AlignOf<AlignerImpl<pair<basic_string<char>, GCOVCoverage>, char, char, char, char, char, char, char, char, char>>::(anonymous enum at external/llvm/include/llvm/Support/AlignOf.h:94:3)",
   "referenced_type" : "_ZTIN4llvm7AlignOfINS_6detail11AlignerImplINSt3__14pairINS3_12basic_stringIcNS3_11char_traitsIcEENS3_9allocatorIcEEEENS_8FileInfo12GCOVCoverageEEEcccccccccEEE28$Alignment_LessEqual_16BytesE",
   "self_type" : "_ZTIN4llvm7AlignOfINS_6detail11AlignerImplINSt3__14pairINS3_12basic_stringIcNS3_11char_traitsIcEENS3_9allocatorIcEEEENS_8FileInfo12GCOVCoverageEEEcccccccccEEE28$Alignment_LessEqual_16BytesE",
   "size" : 4,
   "source_file" : "external/llvm/include/llvm/Support/AlignOf.h",
   "underlying_type" : "_ZTIj"
  },
  {
   "alignment" : 4,
   "enum_fields" :
   [
    {
     "enum_field_value" : 1,
     "name" : "llvm::AlignOf<llvm::detail::AlignerImpl<std::__1::pair<std::__1::basic_string<char>, llvm::FileInfo::GCOVCoverage>, char, char, char, char, char, char, char, char, char>>::Alignment_GreaterEqual_2Bytes"
    }
   ],
   "linker_set_key" : "_ZTIN4llvm7AlignOfINS_6detail11AlignerImplINSt3__14pairINS3_12basic_stringIcNS3_11char_traitsIcEENS3_9allocatorIcEEEENS_8FileInfo12GCOVCoverageEEEcccccccccEEE30$Alignment_GreaterEqual_2BytesE",
   "name" : "llvm::AlignOf<AlignerImpl<pair<basic_string<char>, GCOVCoverage>, char, char, char, char, char, char, char, char, char>>::(anonymous enum at external/llvm/include/llvm/Support/AlignOf.h:86:3)",
   "referenced_type" : "_ZTIN4llvm7AlignOfINS_6detail11AlignerImplINSt3__14pairINS3_12basic_stringIcNS3_11char_traitsIcEENS3_9allocatorIcEEEENS_8FileInfo12GCOVCoverageEEEcccccccccEEE30$Alignment_GreaterEqual_2BytesE",
   "self_type" : "_ZTIN4llvm7AlignOfINS_6detail11AlignerImplINSt3__14pairINS3_12basic_stringIcNS3_11char_traitsIcEENS3_9allocatorIcEEEENS_8FileInfo12GCOVCoverageEEEcccccccccEEE30$Alignment_GreaterEqual_2BytesE",
   "size" : 4,
   "source_file" : "external/llvm/include/llvm/Support/AlignOf.h",
   "underlying_type" : "_ZTIj"
  },
  {
   "alignment" : 4,
   "enum_fields" :
   [
    {
     "enum_field_value" : 1,
     "name" : "llvm::AlignOf<llvm::detail::AlignerImpl<std::__1::pair<std::__1::basic_string<char>, llvm::FileInfo::GCOVCoverage>, char, char, char, char, char, char, char, char, char>>::Alignment_GreaterEqual_4Bytes"
    }
   ],
   "linker_set_key" : "_ZTIN4llvm7AlignOfINS_6detail11AlignerImplINSt3__14pairINS3_12basic_stringIcNS3_11char_traitsIcEENS3_9allocatorIcEEEENS_8FileInfo12GCOVCoverageEEEcccccccccEEE30$Alignment_GreaterEqual_4BytesE",
   "name" : "llvm::AlignOf<AlignerImpl<pair<basic_string<char>, GCOVCoverage>, char, char, char, char, char, char, char, char, char>>::(anonymous enum at external/llvm/include/llvm/Support/AlignOf.h:87:3)",
   "referenced_type" : "_ZTIN4llvm7AlignOfINS_6detail11AlignerImplINSt3__14pairINS3_12basic_stringIcNS3_11char_traitsIcEENS3_9allocatorIcEEEENS_8FileInfo12GCOVCoverageEEEcccccccccEEE30$Alignment_GreaterEqual_4BytesE",
   "self_type" : "_ZTIN4llvm7AlignOfINS_6detail11AlignerImplINSt3__14pairINS3_12basic_stringIcNS3_11char_traitsIcEENS3_9allocatorIcEEEENS_8FileInfo12GCOVCoverageEEEcccccccccEEE30$Alignment_GreaterEqual_4BytesE",
   "size" : 4,
   "source_file" : "external/llvm/include/llvm/Support/AlignOf.h",
   "underlying_type" : "_ZTIj"
  },
  {
   "alignment" : 4,
   "enum_fields" :
   [
    {
     "enum_field_value" : 1,
     "name" : "llvm::AlignOf<llvm::detail::AlignerImpl<std::__1::pair<std::__1::basic_string<char>, llvm::FileInfo::GCOVCoverage>, char, char, char, char, char, char, char, char, char>>::Alignment_GreaterEqual_8Bytes"
    }
   ],
   "linker_set_key" : "_ZTIN4llvm7AlignOfINS_6detail11AlignerImplINSt3__14pairINS3_12basic_stringIcNS3_11char_traitsIcEENS3_9allocatorIcEEEENS_8FileInfo12GCOVCoverageEEEcccccccccEEE30$Alignment_GreaterEqual_8BytesE",
   "name" : "llvm::AlignOf<AlignerImpl<pair<basic_string<char>, GCOVCoverage>, char, char, char, char, char, char, char, char, char>>::(anonymous enum at external/llvm/include/llvm/Support/AlignOf.h:88:3)",
   "referenced_type" : "_ZTIN4llvm7AlignOfINS_6detail11AlignerImplINSt3__14pairINS3_12basic_stringIcNS3_11char_traitsIcEENS3_9allocatorIcEEEENS_8FileInfo12GCOVCoverageEEEcccccccccEEE30$Alignment_GreaterEqual_8BytesE",
   "self_type" : "_ZTIN4llvm7AlignOfINS_6detail11AlignerImplINSt3__14pairINS3_12basic_stringIcNS3_11char_traitsIcEENS3_9allocatorIcEEEENS_8FileInfo12GCOVCoverageEEEcccccccccEEE30$Alignment_GreaterEqual_8BytesE",
   "size" : 4,
   "source_file" : "external/llvm/include/llvm/Support/AlignOf.h",
   "underlying_type" : "_ZTIj"
  },
  {
   "alignment" : 4,
   "enum_fields" :
   [
    {
     "enum_field_value" : 0,
     "name" : "llvm::AlignOf<llvm::detail::AlignerImpl<std::__1::pair<std::__1::basic_string<char>, llvm::FileInfo::GCOVCoverage>, char, char, char, char, char, char, char, char, char>>::Alignment_GreaterEqual_16Bytes"
    }
   ],
   "linker_set_key" : "_ZTIN4llvm7AlignOfINS_6detail11AlignerImplINSt3__14pairINS3_12basic_stringIcNS3_11char_traitsIcEENS3_9allocatorIcEEEENS_8FileInfo12GCOVCoverageEEEcccccccccEEE31$Alignment_GreaterEqual_16BytesE",
   "name" : "llvm::AlignOf<AlignerImpl<pair<basic_string<char>, GCOVCoverage>, char, char, char, char, char, char, char, char, char>>::(anonymous enum at external/llvm/include/llvm/Support/AlignOf.h:89:3)",
   "referenced_type" : "_ZTIN4llvm7AlignOfINS_6detail11AlignerImplINSt3__14pairINS3_12basic_stringIcNS3_11char_traitsIcEENS3_9allocatorIcEEEENS_8FileInfo12GCOVCoverageEEEcccccccccEEE31$Alignment_GreaterEqual_16BytesE",
   "self_type" : "_ZTIN4llvm7AlignOfINS_6detail11AlignerImplINSt3__14pairINS3_12basic_stringIcNS3_11char_traitsIcEENS3_9allocatorIcEEEENS_8FileInfo12GCOVCoverageEEEcccccccccEEE31$Alignment_GreaterEqual_16BytesE",
   "size" : 4,
   "source_file" : "external/llvm/include/llvm/Support/AlignOf.h",
   "underlying_type" : "_ZTIj"
  },
  {
   "alignment" : 4,
   "enum_fields" :
   [
    {
     "enum_field_value" : 0,
     "name" : "llvm::AlignOf<llvm::detail::AlignerImpl<std::__1::pair<void *, unsigned long>, char, char, char, char, char, char, char, char, char>>::Alignment_LessEqual_2Bytes"
    }
   ],
   "linker_set_key" : "_ZTIN4llvm7AlignOfINS_6detail11AlignerImplINSt3__14pairIPvmEEcccccccccEEE27$Alignment_LessEqual_2BytesE",
   "name" : "llvm::AlignOf<AlignerImpl<pair<void *, unsigned long>, char, char, char, char, char, char, char, char, char>>::(anonymous enum at external/llvm/include/llvm/Support/AlignOf.h:91:3)",
   "referenced_type" : "_ZTIN4llvm7AlignOfINS_6detail11AlignerImplINSt3__14pairIPvmEEcccccccccEEE27$Alignment_LessEqual_2BytesE",
   "self_type" : "_ZTIN4llvm7AlignOfINS_6detail11AlignerImplINSt3__14pairIPvmEEcccccccccEEE27$Alignment_LessEqual_2BytesE",
   "size" : 4,
   "source_file" : "external/llvm/include/llvm/Support/AlignOf.h",
   "underlying_type" : "_ZTIj"
  },
  {
   "alignment" : 4,
   "enum_fields" :
   [
    {
     "enum_field_value" : 0,
     "name" : "llvm::AlignOf<llvm::detail::AlignerImpl<std::__1::pair<void *, unsigned long>, char, char, char, char, char, char, char, char, char>>::Alignment_LessEqual_4Bytes"
    }
   ],
   "linker_set_key" : "_ZTIN4llvm7AlignOfINS_6detail11AlignerImplINSt3__14pairIPvmEEcccccccccEEE27$Alignment_LessEqual_4BytesE",
   "name" : "llvm::AlignOf<AlignerImpl<pair<void *, unsigned long>, char, char, char, char, char, char, char, char, char>>::(anonymous enum at external/llvm/include/llvm/Support/AlignOf.h:92:3)",
   "referenced_type" : "_ZTIN4llvm7AlignOfINS_6detail11AlignerImplINSt3__14pairIPvmEEcccccccccEEE27$Alignment_LessEqual_4BytesE",
   "self_type" : "_ZTIN4llvm7AlignOfINS_6detail11AlignerImplINSt3__14pairIPvmEEcccccccccEEE27$Alignment_LessEqual_4BytesE",
   "size" : 4,
   "source_file" : "external/llvm/include/llvm/Support/AlignOf.h",
   "underlying_type" : "_ZTIj"
  },
  {
   "alignment" : 4,
   "enum_fields" :
   [
    {
     "enum_field_value" : 1,
     "name" : "llvm::AlignOf<llvm::detail::AlignerImpl<std::__1::pair<void *, unsigned long>, char, char, char, char, char, char, char, char, char>>::Alignment_LessEqual_8Bytes"
    }
   ],
   "linker_set_key" : "_ZTIN4llvm7AlignOfINS_6detail11AlignerImplINSt3__14pairIPvmEEcccccccccEEE27$Alignment_LessEqual_8BytesE",
   "name" : "llvm::AlignOf<AlignerImpl<pair<void *, unsigned long>, char, char, char, char, char, char, char, char, char>>::(anonymous enum at external/llvm/include/llvm/Support/AlignOf.h:93:3)",
   "referenced_type" : "_ZTIN4llvm7AlignOfINS_6detail11AlignerImplINSt3__14pairIPvmEEcccccccccEEE27$Alignment_LessEqual_8BytesE",
   "self_type" : "_ZTIN4llvm7AlignOfINS_6detail11AlignerImplINSt3__14pairIPvmEEcccccccccEEE27$Alignment_LessEqual_8BytesE",
   "size" : 4,
   "source_file" : "external/llvm/include/llvm/Support/AlignOf.h",
   "underlying_type" : "_ZTIj"
  },
  {
   "alignment" : 4,
   "enum_fields" :
   [
    {
     "enum_field_value" : 1,
     "name" : "llvm::AlignOf<llvm::detail::AlignerImpl<std::__1::pair<void *, unsigned long>, char, char, char, char, char, char, char, char, char>>::Alignment_LessEqual_16Bytes"
    }
   ],
   "linker_set_key" : "_ZTIN4llvm7AlignOfINS_6detail11AlignerImplINSt3__14pairIPvmEEcccccccccEEE28$Alignment_LessEqual_16BytesE",
   "name" : "llvm::AlignOf<AlignerImpl<pair<void *, unsigned long>, char, char, char, char, char, char, char, char, char>>::(anonymous enum at external/llvm/include/llvm/Support/AlignOf.h:94:3)",
   "referenced_type" : "_ZTIN4llvm7AlignOfINS_6detail11AlignerImplINSt3__14pairIPvmEEcccccccccEEE28$Alignment_LessEqual_16BytesE",
   "self_type" : "_ZTIN4llvm7AlignOfINS_6detail11AlignerImplINSt3__14pairIPvmEEcccccccccEEE28$Alignment_LessEqual_16BytesE",
   "size" : 4,
   "source_file" : "external/llvm/include/llvm/Support/AlignOf.h",
   "underlying_type" : "_ZTIj"
  },
  {
   "alignment" : 4,
   "enum_fields" :
   [
    {
     "enum_field_value" : 1,
     "name" : "llvm::AlignOf<llvm::detail::AlignerImpl<std::__1::pair<void *, unsigned long>, char, char, char, char, char, char, char, char, char>>::Alignment_GreaterEqual_2Bytes"
    }
   ],
   "linker_set_key" : "_ZTIN4llvm7AlignOfINS_6detail11AlignerImplINSt3__14pairIPvmEEcccccccccEEE30$Alignment_GreaterEqual_2BytesE",
   "name" : "llvm::AlignOf<AlignerImpl<pair<void *, unsigned long>, char, char, char, char, char, char, char, char, char>>::(anonymous enum at external/llvm/include/llvm/Support/AlignOf.h:86:3)",
   "referenced_type" : "_ZTIN4llvm7AlignOfINS_6detail11AlignerImplINSt3__14pairIPvmEEcccccccccEEE30$Alignment_GreaterEqual_2BytesE",
   "self_type" : "_ZTIN4llvm7AlignOfINS_6detail11AlignerImplINSt3__14pairIPvmEEcccccccccEEE30$Alignment_GreaterEqual_2BytesE",
   "size" : 4,
   "source_file" : "external/llvm/include/llvm/Support/AlignOf.h",
   "underlying_type" : "_ZTIj"
  },
  {
   "alignment" : 4,
   "enum_fields" :
   [
    {
     "enum_field_value" : 1,
     "name" : "llvm::AlignOf<llvm::detail::AlignerImpl<std::__1::pair<void *, unsigned long>, char, char, char, char, char, char, char, char, char>>::Alignment_GreaterEqual_4Bytes"
    }
   ],
   "linker_set_key" : "_ZTIN4llvm7AlignOfINS_6detail11AlignerImplINSt3__14pairIPvmEEcccccccccEEE30$Alignment_GreaterEqual_4BytesE",
   "name" : "llvm::AlignOf<AlignerImpl<pair<void *, unsigned long>, char, char, char, char, char, char, char, char, char>>::(anonymous enum at external/llvm/include/llvm/Support/AlignOf.h:87:3)",
   "referenced_type" : "_ZTIN4llvm7AlignOfINS_6detail11AlignerImplINSt3__14pairIPvmEEcccccccccEEE30$Alignment_GreaterEqual_4BytesE",
   "self_type" : "_ZTIN4llvm7AlignOfINS_6detail11AlignerImplINSt3__14pairIPvmEEcccccccccEEE30$Alignment_GreaterEqual_4BytesE",
   "size" : 4,
   "source_file" : "external/llvm/include/llvm/Support/AlignOf.h",
   "underlying_type" : "_ZTIj"
  },
  {
   "alignment" : 4,
   "enum_fields" :
   [
    {
     "enum_field_value" : 1,
     "name" : "llvm::AlignOf<llvm::detail::AlignerImpl<std::__1::pair<void *, unsigned long>, char, char, char, char, char, char, char, char, char>>::Alignment_GreaterEqual_8Bytes"
    }
   ],
   "linker_set_key" : "_ZTIN4llvm7AlignOfINS_6detail11AlignerImplINSt3__14pairIPvmEEcccccccccEEE30$Alignment_GreaterEqual_8BytesE",
   "name" : "llvm::AlignOf<AlignerImpl<pair<void *, unsigned long>, char, char, char, char, char, char, char, char, char>>::(anonymous enum at external/llvm/include/llvm/Support/AlignOf.h:88:3)",
   "referenced_type" : "_ZTIN4llvm7AlignOfINS_6detail11AlignerImplINSt3__14pairIPvmEEcccccccccEEE30$Alignment_GreaterEqual_8BytesE",
   "self_type" : "_ZTIN4llvm7AlignOfINS_6detail11AlignerImplINSt3__14pairIPvmEEcccccccccEEE30$Alignment_GreaterEqual_8BytesE",
   "size" : 4,
   "source_file" : "external/llvm/include/llvm/Support/AlignOf.h",
   "underlying_type" : "_ZTIj"
  },
  {
   "alignment" : 4,
   "enum_fields" :
   [
    {
     "enum_field_value" : 0,
     "name" : "llvm::AlignOf<llvm::detail::AlignerImpl<std::__1::pair<void *, unsigned long>, char, char, char, char, char, char, char, char, char>>::Alignment_GreaterEqual_16Bytes"
    }
   ],
   "linker_set_key" : "_ZTIN4llvm7AlignOfINS_6detail11AlignerImplINSt3__14pairIPvmEEcccccccccEEE31$Alignment_GreaterEqual_16BytesE",
   "name" : "llvm::AlignOf<AlignerImpl<pair<void *, unsigned long>, char, char, char, char, char, char, char, char, char>>::(anonymous enum at external/llvm/include/llvm/Support/AlignOf.h:89:3)",
   "referenced_type" : "_ZTIN4llvm7AlignOfINS_6detail11AlignerImplINSt3__14pairIPvmEEcccccccccEEE31$Alignment_GreaterEqual_16BytesE",
   "self_type" : "_ZTIN4llvm7AlignOfINS_6detail11AlignerImplINSt3__14pairIPvmEEcccccccccEEE31$Alignment_GreaterEqual_16BytesE",
   "size" : 4,
   "source_file" : "external/llvm/include/llvm/Support/AlignOf.h",
   "underlying_type" : "_ZTIj"
  },
  {
   "alignment" : 4,
   "enum_fields" :
   [
    {
     "enum_field_value" : 0,
     "name" : "llvm::AlignOf<llvm::detail::AlignerImpl<const llvm::GCOVFunction *, char, char, char, char, char, char, char, char, char>>::Alignment_LessEqual_2Bytes"
    }
   ],
   "linker_set_key" : "_ZTIN4llvm7AlignOfINS_6detail11AlignerImplIPKNS_12GCOVFunctionEcccccccccEEE27$Alignment_LessEqual_2BytesE",
   "name" : "llvm::AlignOf<AlignerImpl<const GCOVFunction *, char, char, char, char, char, char, char, char, char>>::(anonymous enum at external/llvm/include/llvm/Support/AlignOf.h:91:3)",
   "referenced_type" : "_ZTIN4llvm7AlignOfINS_6detail11AlignerImplIPKNS_12GCOVFunctionEcccccccccEEE27$Alignment_LessEqual_2BytesE",
   "self_type" : "_ZTIN4llvm7AlignOfINS_6detail11AlignerImplIPKNS_12GCOVFunctionEcccccccccEEE27$Alignment_LessEqual_2BytesE",
   "size" : 4,
   "source_file" : "external/llvm/include/llvm/Support/AlignOf.h",
   "underlying_type" : "_ZTIj"
  },
  {
   "alignment" : 4,
   "enum_fields" :
   [
    {
     "enum_field_value" : 0,
     "name" : "llvm::AlignOf<llvm::detail::AlignerImpl<const llvm::GCOVFunction *, char, char, char, char, char, char, char, char, char>>::Alignment_LessEqual_4Bytes"
    }
   ],
   "linker_set_key" : "_ZTIN4llvm7AlignOfINS_6detail11AlignerImplIPKNS_12GCOVFunctionEcccccccccEEE27$Alignment_LessEqual_4BytesE",
   "name" : "llvm::AlignOf<AlignerImpl<const GCOVFunction *, char, char, char, char, char, char, char, char, char>>::(anonymous enum at external/llvm/include/llvm/Support/AlignOf.h:92:3)",
   "referenced_type" : "_ZTIN4llvm7AlignOfINS_6detail11AlignerImplIPKNS_12GCOVFunctionEcccccccccEEE27$Alignment_LessEqual_4BytesE",
   "self_type" : "_ZTIN4llvm7AlignOfINS_6detail11AlignerImplIPKNS_12GCOVFunctionEcccccccccEEE27$Alignment_LessEqual_4BytesE",
   "size" : 4,
   "source_file" : "external/llvm/include/llvm/Support/AlignOf.h",
   "underlying_type" : "_ZTIj"
  },
  {
   "alignment" : 4,
   "enum_fields" :
   [
    {
     "enum_field_value" : 1,
     "name" : "llvm::AlignOf<llvm::detail::AlignerImpl<const llvm::GCOVFunction *, char, char, char, char, char, char, char, char, char>>::Alignment_LessEqual_8Bytes"
    }
   ],
   "linker_set_key" : "_ZTIN4llvm7AlignOfINS_6detail11AlignerImplIPKNS_12GCOVFunctionEcccccccccEEE27$Alignment_LessEqual_8BytesE",
   "name" : "llvm::AlignOf<AlignerImpl<const GCOVFunction *, char, char, char, char, char, char, char, char, char>>::(anonymous enum at external/llvm/include/llvm/Support/AlignOf.h:93:3)",
   "referenced_type" : "_ZTIN4llvm7AlignOfINS_6detail11AlignerImplIPKNS_12GCOVFunctionEcccccccccEEE27$Alignment_LessEqual_8BytesE",
   "self_type" : "_ZTIN4llvm7AlignOfINS_6detail11AlignerImplIPKNS_12GCOVFunctionEcccccccccEEE27$Alignment_LessEqual_8BytesE",
   "size" : 4,
   "source_file" : "external/llvm/include/llvm/Support/AlignOf.h",
   "underlying_type" : "_ZTIj"
  },
  {
   "alignment" : 4,
   "enum_fields" :
   [
    {
     "enum_field_value" : 1,
     "name" : "llvm::AlignOf<llvm::detail::AlignerImpl<const llvm::GCOVFunction *, char, char, char, char, char, char, char, char, char>>::Alignment_LessEqual_16Bytes"
    }
   ],
   "linker_set_key" : "_ZTIN4llvm7AlignOfINS_6detail11AlignerImplIPKNS_12GCOVFunctionEcccccccccEEE28$Alignment_LessEqual_16BytesE",
   "name" : "llvm::AlignOf<AlignerImpl<const GCOVFunction *, char, char, char, char, char, char, char, char, char>>::(anonymous enum at external/llvm/include/llvm/Support/AlignOf.h:94:3)",
   "referenced_type" : "_ZTIN4llvm7AlignOfINS_6detail11AlignerImplIPKNS_12GCOVFunctionEcccccccccEEE28$Alignment_LessEqual_16BytesE",
   "self_type" : "_ZTIN4llvm7AlignOfINS_6detail11AlignerImplIPKNS_12GCOVFunctionEcccccccccEEE28$Alignment_LessEqual_16BytesE",
   "size" : 4,
   "source_file" : "external/llvm/include/llvm/Support/AlignOf.h",
   "underlying_type" : "_ZTIj"
  },
  {
   "alignment" : 4,
   "enum_fields" :
   [
    {
     "enum_field_value" : 1,
     "name" : "llvm::AlignOf<llvm::detail::AlignerImpl<const llvm::GCOVFunction *, char, char, char, char, char, char, char, char, char>>::Alignment_GreaterEqual_2Bytes"
    }
   ],
   "linker_set_key" : "_ZTIN4llvm7AlignOfINS_6detail11AlignerImplIPKNS_12GCOVFunctionEcccccccccEEE30$Alignment_GreaterEqual_2BytesE",
   "name" : "llvm::AlignOf<AlignerImpl<const GCOVFunction *, char, char, char, char, char, char, char, char, char>>::(anonymous enum at external/llvm/include/llvm/Support/AlignOf.h:86:3)",
   "referenced_type" : "_ZTIN4llvm7AlignOfINS_6detail11AlignerImplIPKNS_12GCOVFunctionEcccccccccEEE30$Alignment_GreaterEqual_2BytesE",
   "self_type" : "_ZTIN4llvm7AlignOfINS_6detail11AlignerImplIPKNS_12GCOVFunctionEcccccccccEEE30$Alignment_GreaterEqual_2BytesE",
   "size" : 4,
   "source_file" : "external/llvm/include/llvm/Support/AlignOf.h",
   "underlying_type" : "_ZTIj"
  },
  {
   "alignment" : 4,
   "enum_fields" :
   [
    {
     "enum_field_value" : 1,
     "name" : "llvm::AlignOf<llvm::detail::AlignerImpl<const llvm::GCOVFunction *, char, char, char, char, char, char, char, char, char>>::Alignment_GreaterEqual_4Bytes"
    }
   ],
   "linker_set_key" : "_ZTIN4llvm7AlignOfINS_6detail11AlignerImplIPKNS_12GCOVFunctionEcccccccccEEE30$Alignment_GreaterEqual_4BytesE",
   "name" : "llvm::AlignOf<AlignerImpl<const GCOVFunction *, char, char, char, char, char, char, char, char, char>>::(anonymous enum at external/llvm/include/llvm/Support/AlignOf.h:87:3)",
   "referenced_type" : "_ZTIN4llvm7AlignOfINS_6detail11AlignerImplIPKNS_12GCOVFunctionEcccccccccEEE30$Alignment_GreaterEqual_4BytesE",
   "self_type" : "_ZTIN4llvm7AlignOfINS_6detail11AlignerImplIPKNS_12GCOVFunctionEcccccccccEEE30$Alignment_GreaterEqual_4BytesE",
   "size" : 4,
   "source_file" : "external/llvm/include/llvm/Support/AlignOf.h",
   "underlying_type" : "_ZTIj"
  },
  {
   "alignment" : 4,
   "enum_fields" :
   [
    {
     "enum_field_value" : 1,
     "name" : "llvm::AlignOf<llvm::detail::AlignerImpl<const llvm::GCOVFunction *, char, char, char, char, char, char, char, char, char>>::Alignment_GreaterEqual_8Bytes"
    }
   ],
   "linker_set_key" : "_ZTIN4llvm7AlignOfINS_6detail11AlignerImplIPKNS_12GCOVFunctionEcccccccccEEE30$Alignment_GreaterEqual_8BytesE",
   "name" : "llvm::AlignOf<AlignerImpl<const GCOVFunction *, char, char, char, char, char, char, char, char, char>>::(anonymous enum at external/llvm/include/llvm/Support/AlignOf.h:88:3)",
   "referenced_type" : "_ZTIN4llvm7AlignOfINS_6detail11AlignerImplIPKNS_12GCOVFunctionEcccccccccEEE30$Alignment_GreaterEqual_8BytesE",
   "self_type" : "_ZTIN4llvm7AlignOfINS_6detail11AlignerImplIPKNS_12GCOVFunctionEcccccccccEEE30$Alignment_GreaterEqual_8BytesE",
   "size" : 4,
   "source_file" : "external/llvm/include/llvm/Support/AlignOf.h",
   "underlying_type" : "_ZTIj"
  },
  {
   "alignment" : 4,
   "enum_fields" :
   [
    {
     "enum_field_value" : 0,
     "name" : "llvm::AlignOf<llvm::detail::AlignerImpl<const llvm::GCOVFunction *, char, char, char, char, char, char, char, char, char>>::Alignment_GreaterEqual_16Bytes"
    }
   ],
   "linker_set_key" : "_ZTIN4llvm7AlignOfINS_6detail11AlignerImplIPKNS_12GCOVFunctionEcccccccccEEE31$Alignment_GreaterEqual_16BytesE",
   "name" : "llvm::AlignOf<AlignerImpl<const GCOVFunction *, char, char, char, char, char, char, char, char, char>>::(anonymous enum at external/llvm/include/llvm/Support/AlignOf.h:89:3)",
   "referenced_type" : "_ZTIN4llvm7AlignOfINS_6detail11AlignerImplIPKNS_12GCOVFunctionEcccccccccEEE31$Alignment_GreaterEqual_16BytesE",
   "self_type" : "_ZTIN4llvm7AlignOfINS_6detail11AlignerImplIPKNS_12GCOVFunctionEcccccccccEEE31$Alignment_GreaterEqual_16BytesE",
   "size" : 4,
   "source_file" : "external/llvm/include/llvm/Support/AlignOf.h",
   "underlying_type" : "_ZTIj"
  },
  {
   "alignment" : 4,
   "enum_fields" :
   [
    {
     "enum_field_value" : 0,
     "name" : "llvm::AlignOf<llvm::detail::AlignerImpl<const llvm::GCOVBlock *, char, char, char, char, char, char, char, char, char>>::Alignment_LessEqual_2Bytes"
    }
   ],
   "linker_set_key" : "_ZTIN4llvm7AlignOfINS_6detail11AlignerImplIPKNS_9GCOVBlockEcccccccccEEE27$Alignment_LessEqual_2BytesE",
   "name" : "llvm::AlignOf<AlignerImpl<const GCOVBlock *, char, char, char, char, char, char, char, char, char>>::(anonymous enum at external/llvm/include/llvm/Support/AlignOf.h:91:3)",
   "referenced_type" : "_ZTIN4llvm7AlignOfINS_6detail11AlignerImplIPKNS_9GCOVBlockEcccccccccEEE27$Alignment_LessEqual_2BytesE",
   "self_type" : "_ZTIN4llvm7AlignOfINS_6detail11AlignerImplIPKNS_9GCOVBlockEcccccccccEEE27$Alignment_LessEqual_2BytesE",
   "size" : 4,
   "source_file" : "external/llvm/include/llvm/Support/AlignOf.h",
   "underlying_type" : "_ZTIj"
  },
  {
   "alignment" : 4,
   "enum_fields" :
   [
    {
     "enum_field_value" : 0,
     "name" : "llvm::AlignOf<llvm::detail::AlignerImpl<const llvm::GCOVBlock *, char, char, char, char, char, char, char, char, char>>::Alignment_LessEqual_4Bytes"
    }
   ],
   "linker_set_key" : "_ZTIN4llvm7AlignOfINS_6detail11AlignerImplIPKNS_9GCOVBlockEcccccccccEEE27$Alignment_LessEqual_4BytesE",
   "name" : "llvm::AlignOf<AlignerImpl<const GCOVBlock *, char, char, char, char, char, char, char, char, char>>::(anonymous enum at external/llvm/include/llvm/Support/AlignOf.h:92:3)",
   "referenced_type" : "_ZTIN4llvm7AlignOfINS_6detail11AlignerImplIPKNS_9GCOVBlockEcccccccccEEE27$Alignment_LessEqual_4BytesE",
   "self_type" : "_ZTIN4llvm7AlignOfINS_6detail11AlignerImplIPKNS_9GCOVBlockEcccccccccEEE27$Alignment_LessEqual_4BytesE",
   "size" : 4,
   "source_file" : "external/llvm/include/llvm/Support/AlignOf.h",
   "underlying_type" : "_ZTIj"
  },
  {
   "alignment" : 4,
   "enum_fields" :
   [
    {
     "enum_field_value" : 1,
     "name" : "llvm::AlignOf<llvm::detail::AlignerImpl<const llvm::GCOVBlock *, char, char, char, char, char, char, char, char, char>>::Alignment_LessEqual_8Bytes"
    }
   ],
   "linker_set_key" : "_ZTIN4llvm7AlignOfINS_6detail11AlignerImplIPKNS_9GCOVBlockEcccccccccEEE27$Alignment_LessEqual_8BytesE",
   "name" : "llvm::AlignOf<AlignerImpl<const GCOVBlock *, char, char, char, char, char, char, char, char, char>>::(anonymous enum at external/llvm/include/llvm/Support/AlignOf.h:93:3)",
   "referenced_type" : "_ZTIN4llvm7AlignOfINS_6detail11AlignerImplIPKNS_9GCOVBlockEcccccccccEEE27$Alignment_LessEqual_8BytesE",
   "self_type" : "_ZTIN4llvm7AlignOfINS_6detail11AlignerImplIPKNS_9GCOVBlockEcccccccccEEE27$Alignment_LessEqual_8BytesE",
   "size" : 4,
   "source_file" : "external/llvm/include/llvm/Support/AlignOf.h",
   "underlying_type" : "_ZTIj"
  },
  {
   "alignment" : 4,
   "enum_fields" :
   [
    {
     "enum_field_value" : 1,
     "name" : "llvm::AlignOf<llvm::detail::AlignerImpl<const llvm::GCOVBlock *, char, char, char, char, char, char, char, char, char>>::Alignment_LessEqual_16Bytes"
    }
   ],
   "linker_set_key" : "_ZTIN4llvm7AlignOfINS_6detail11AlignerImplIPKNS_9GCOVBlockEcccccccccEEE28$Alignment_LessEqual_16BytesE",
   "name" : "llvm::AlignOf<AlignerImpl<const GCOVBlock *, char, char, char, char, char, char, char, char, char>>::(anonymous enum at external/llvm/include/llvm/Support/AlignOf.h:94:3)",
   "referenced_type" : "_ZTIN4llvm7AlignOfINS_6detail11AlignerImplIPKNS_9GCOVBlockEcccccccccEEE28$Alignment_LessEqual_16BytesE",
   "self_type" : "_ZTIN4llvm7AlignOfINS_6detail11AlignerImplIPKNS_9GCOVBlockEcccccccccEEE28$Alignment_LessEqual_16BytesE",
   "size" : 4,
   "source_file" : "external/llvm/include/llvm/Support/AlignOf.h",
   "underlying_type" : "_ZTIj"
  },
  {
   "alignment" : 4,
   "enum_fields" :
   [
    {
     "enum_field_value" : 1,
     "name" : "llvm::AlignOf<llvm::detail::AlignerImpl<const llvm::GCOVBlock *, char, char, char, char, char, char, char, char, char>>::Alignment_GreaterEqual_2Bytes"
    }
   ],
   "linker_set_key" : "_ZTIN4llvm7AlignOfINS_6detail11AlignerImplIPKNS_9GCOVBlockEcccccccccEEE30$Alignment_GreaterEqual_2BytesE",
   "name" : "llvm::AlignOf<AlignerImpl<const GCOVBlock *, char, char, char, char, char, char, char, char, char>>::(anonymous enum at external/llvm/include/llvm/Support/AlignOf.h:86:3)",
   "referenced_type" : "_ZTIN4llvm7AlignOfINS_6detail11AlignerImplIPKNS_9GCOVBlockEcccccccccEEE30$Alignment_GreaterEqual_2BytesE",
   "self_type" : "_ZTIN4llvm7AlignOfINS_6detail11AlignerImplIPKNS_9GCOVBlockEcccccccccEEE30$Alignment_GreaterEqual_2BytesE",
   "size" : 4,
   "source_file" : "external/llvm/include/llvm/Support/AlignOf.h",
   "underlying_type" : "_ZTIj"
  },
  {
   "alignment" : 4,
   "enum_fields" :
   [
    {
     "enum_field_value" : 1,
     "name" : "llvm::AlignOf<llvm::detail::AlignerImpl<const llvm::GCOVBlock *, char, char, char, char, char, char, char, char, char>>::Alignment_GreaterEqual_4Bytes"
    }
   ],
   "linker_set_key" : "_ZTIN4llvm7AlignOfINS_6detail11AlignerImplIPKNS_9GCOVBlockEcccccccccEEE30$Alignment_GreaterEqual_4BytesE",
   "name" : "llvm::AlignOf<AlignerImpl<const GCOVBlock *, char, char, char, char, char, char, char, char, char>>::(anonymous enum at external/llvm/include/llvm/Support/AlignOf.h:87:3)",
   "referenced_type" : "_ZTIN4llvm7AlignOfINS_6detail11AlignerImplIPKNS_9GCOVBlockEcccccccccEEE30$Alignment_GreaterEqual_4BytesE",
   "self_type" : "_ZTIN4llvm7AlignOfINS_6detail11AlignerImplIPKNS_9GCOVBlockEcccccccccEEE30$Alignment_GreaterEqual_4BytesE",
   "size" : 4,
   "source_file" : "external/llvm/include/llvm/Support/AlignOf.h",
   "underlying_type" : "_ZTIj"
  },
  {
   "alignment" : 4,
   "enum_fields" :
   [
    {
     "enum_field_value" : 1,
     "name" : "llvm::AlignOf<llvm::detail::AlignerImpl<const llvm::GCOVBlock *, char, char, char, char, char, char, char, char, char>>::Alignment_GreaterEqual_8Bytes"
    }
   ],
   "linker_set_key" : "_ZTIN4llvm7AlignOfINS_6detail11AlignerImplIPKNS_9GCOVBlockEcccccccccEEE30$Alignment_GreaterEqual_8BytesE",
   "name" : "llvm::AlignOf<AlignerImpl<const GCOVBlock *, char, char, char, char, char, char, char, char, char>>::(anonymous enum at external/llvm/include/llvm/Support/AlignOf.h:88:3)",
   "referenced_type" : "_ZTIN4llvm7AlignOfINS_6detail11AlignerImplIPKNS_9GCOVBlockEcccccccccEEE30$Alignment_GreaterEqual_8BytesE",
   "self_type" : "_ZTIN4llvm7AlignOfINS_6detail11AlignerImplIPKNS_9GCOVBlockEcccccccccEEE30$Alignment_GreaterEqual_8BytesE",
   "size" : 4,
   "source_file" : "external/llvm/include/llvm/Support/AlignOf.h",
   "underlying_type" : "_ZTIj"
  },
  {
   "alignment" : 4,
   "enum_fields" :
   [
    {
     "enum_field_value" : 0,
     "name" : "llvm::AlignOf<llvm::detail::AlignerImpl<const llvm::GCOVBlock *, char, char, char, char, char, char, char, char, char>>::Alignment_GreaterEqual_16Bytes"
    }
   ],
   "linker_set_key" : "_ZTIN4llvm7AlignOfINS_6detail11AlignerImplIPKNS_9GCOVBlockEcccccccccEEE31$Alignment_GreaterEqual_16BytesE",
   "name" : "llvm::AlignOf<AlignerImpl<const GCOVBlock *, char, char, char, char, char, char, char, char, char>>::(anonymous enum at external/llvm/include/llvm/Support/AlignOf.h:89:3)",
   "referenced_type" : "_ZTIN4llvm7AlignOfINS_6detail11AlignerImplIPKNS_9GCOVBlockEcccccccccEEE31$Alignment_GreaterEqual_16BytesE",
   "self_type" : "_ZTIN4llvm7AlignOfINS_6detail11AlignerImplIPKNS_9GCOVBlockEcccccccccEEE31$Alignment_GreaterEqual_16BytesE",
   "size" : 4,
   "source_file" : "external/llvm/include/llvm/Support/AlignOf.h",
   "underlying_type" : "_ZTIj"
  },
  {
   "alignment" : 4,
   "enum_fields" :
   [
    {
     "enum_field_value" : 0,
     "name" : "llvm::AlignOf<llvm::detail::AlignerImpl<llvm::GCOVEdge *, char, char, char, char, char, char, char, char, char>>::Alignment_LessEqual_2Bytes"
    }
   ],
   "linker_set_key" : "_ZTIN4llvm7AlignOfINS_6detail11AlignerImplIPNS_8GCOVEdgeEcccccccccEEE27$Alignment_LessEqual_2BytesE",
   "name" : "llvm::AlignOf<AlignerImpl<GCOVEdge *, char, char, char, char, char, char, char, char, char>>::(anonymous enum at external/llvm/include/llvm/Support/AlignOf.h:91:3)",
   "referenced_type" : "_ZTIN4llvm7AlignOfINS_6detail11AlignerImplIPNS_8GCOVEdgeEcccccccccEEE27$Alignment_LessEqual_2BytesE",
   "self_type" : "_ZTIN4llvm7AlignOfINS_6detail11AlignerImplIPNS_8GCOVEdgeEcccccccccEEE27$Alignment_LessEqual_2BytesE",
   "size" : 4,
   "source_file" : "external/llvm/include/llvm/Support/AlignOf.h",
   "underlying_type" : "_ZTIj"
  },
  {
   "alignment" : 4,
   "enum_fields" :
   [
    {
     "enum_field_value" : 0,
     "name" : "llvm::AlignOf<llvm::detail::AlignerImpl<llvm::GCOVEdge *, char, char, char, char, char, char, char, char, char>>::Alignment_LessEqual_4Bytes"
    }
   ],
   "linker_set_key" : "_ZTIN4llvm7AlignOfINS_6detail11AlignerImplIPNS_8GCOVEdgeEcccccccccEEE27$Alignment_LessEqual_4BytesE",
   "name" : "llvm::AlignOf<AlignerImpl<GCOVEdge *, char, char, char, char, char, char, char, char, char>>::(anonymous enum at external/llvm/include/llvm/Support/AlignOf.h:92:3)",
   "referenced_type" : "_ZTIN4llvm7AlignOfINS_6detail11AlignerImplIPNS_8GCOVEdgeEcccccccccEEE27$Alignment_LessEqual_4BytesE",
   "self_type" : "_ZTIN4llvm7AlignOfINS_6detail11AlignerImplIPNS_8GCOVEdgeEcccccccccEEE27$Alignment_LessEqual_4BytesE",
   "size" : 4,
   "source_file" : "external/llvm/include/llvm/Support/AlignOf.h",
   "underlying_type" : "_ZTIj"
  },
  {
   "alignment" : 4,
   "enum_fields" :
   [
    {
     "enum_field_value" : 1,
     "name" : "llvm::AlignOf<llvm::detail::AlignerImpl<llvm::GCOVEdge *, char, char, char, char, char, char, char, char, char>>::Alignment_LessEqual_8Bytes"
    }
   ],
   "linker_set_key" : "_ZTIN4llvm7AlignOfINS_6detail11AlignerImplIPNS_8GCOVEdgeEcccccccccEEE27$Alignment_LessEqual_8BytesE",
   "name" : "llvm::AlignOf<AlignerImpl<GCOVEdge *, char, char, char, char, char, char, char, char, char>>::(anonymous enum at external/llvm/include/llvm/Support/AlignOf.h:93:3)",
   "referenced_type" : "_ZTIN4llvm7AlignOfINS_6detail11AlignerImplIPNS_8GCOVEdgeEcccccccccEEE27$Alignment_LessEqual_8BytesE",
   "self_type" : "_ZTIN4llvm7AlignOfINS_6detail11AlignerImplIPNS_8GCOVEdgeEcccccccccEEE27$Alignment_LessEqual_8BytesE",
   "size" : 4,
   "source_file" : "external/llvm/include/llvm/Support/AlignOf.h",
   "underlying_type" : "_ZTIj"
  },
  {
   "alignment" : 4,
   "enum_fields" :
   [
    {
     "enum_field_value" : 1,
     "name" : "llvm::AlignOf<llvm::detail::AlignerImpl<llvm::GCOVEdge *, char, char, char, char, char, char, char, char, char>>::Alignment_LessEqual_16Bytes"
    }
   ],
   "linker_set_key" : "_ZTIN4llvm7AlignOfINS_6detail11AlignerImplIPNS_8GCOVEdgeEcccccccccEEE28$Alignment_LessEqual_16BytesE",
   "name" : "llvm::AlignOf<AlignerImpl<GCOVEdge *, char, char, char, char, char, char, char, char, char>>::(anonymous enum at external/llvm/include/llvm/Support/AlignOf.h:94:3)",
   "referenced_type" : "_ZTIN4llvm7AlignOfINS_6detail11AlignerImplIPNS_8GCOVEdgeEcccccccccEEE28$Alignment_LessEqual_16BytesE",
   "self_type" : "_ZTIN4llvm7AlignOfINS_6detail11AlignerImplIPNS_8GCOVEdgeEcccccccccEEE28$Alignment_LessEqual_16BytesE",
   "size" : 4,
   "source_file" : "external/llvm/include/llvm/Support/AlignOf.h",
   "underlying_type" : "_ZTIj"
  },
  {
   "alignment" : 4,
   "enum_fields" :
   [
    {
     "enum_field_value" : 1,
     "name" : "llvm::AlignOf<llvm::detail::AlignerImpl<llvm::GCOVEdge *, char, char, char, char, char, char, char, char, char>>::Alignment_GreaterEqual_2Bytes"
    }
   ],
   "linker_set_key" : "_ZTIN4llvm7AlignOfINS_6detail11AlignerImplIPNS_8GCOVEdgeEcccccccccEEE30$Alignment_GreaterEqual_2BytesE",
   "name" : "llvm::AlignOf<AlignerImpl<GCOVEdge *, char, char, char, char, char, char, char, char, char>>::(anonymous enum at external/llvm/include/llvm/Support/AlignOf.h:86:3)",
   "referenced_type" : "_ZTIN4llvm7AlignOfINS_6detail11AlignerImplIPNS_8GCOVEdgeEcccccccccEEE30$Alignment_GreaterEqual_2BytesE",
   "self_type" : "_ZTIN4llvm7AlignOfINS_6detail11AlignerImplIPNS_8GCOVEdgeEcccccccccEEE30$Alignment_GreaterEqual_2BytesE",
   "size" : 4,
   "source_file" : "external/llvm/include/llvm/Support/AlignOf.h",
   "underlying_type" : "_ZTIj"
  },
  {
   "alignment" : 4,
   "enum_fields" :
   [
    {
     "enum_field_value" : 1,
     "name" : "llvm::AlignOf<llvm::detail::AlignerImpl<llvm::GCOVEdge *, char, char, char, char, char, char, char, char, char>>::Alignment_GreaterEqual_4Bytes"
    }
   ],
   "linker_set_key" : "_ZTIN4llvm7AlignOfINS_6detail11AlignerImplIPNS_8GCOVEdgeEcccccccccEEE30$Alignment_GreaterEqual_4BytesE",
   "name" : "llvm::AlignOf<AlignerImpl<GCOVEdge *, char, char, char, char, char, char, char, char, char>>::(anonymous enum at external/llvm/include/llvm/Support/AlignOf.h:87:3)",
   "referenced_type" : "_ZTIN4llvm7AlignOfINS_6detail11AlignerImplIPNS_8GCOVEdgeEcccccccccEEE30$Alignment_GreaterEqual_4BytesE",
   "self_type" : "_ZTIN4llvm7AlignOfINS_6detail11AlignerImplIPNS_8GCOVEdgeEcccccccccEEE30$Alignment_GreaterEqual_4BytesE",
   "size" : 4,
   "source_file" : "external/llvm/include/llvm/Support/AlignOf.h",
   "underlying_type" : "_ZTIj"
  },
  {
   "alignment" : 4,
   "enum_fields" :
   [
    {
     "enum_field_value" : 1,
     "name" : "llvm::AlignOf<llvm::detail::AlignerImpl<llvm::GCOVEdge *, char, char, char, char, char, char, char, char, char>>::Alignment_GreaterEqual_8Bytes"
    }
   ],
   "linker_set_key" : "_ZTIN4llvm7AlignOfINS_6detail11AlignerImplIPNS_8GCOVEdgeEcccccccccEEE30$Alignment_GreaterEqual_8BytesE",
   "name" : "llvm::AlignOf<AlignerImpl<GCOVEdge *, char, char, char, char, char, char, char, char, char>>::(anonymous enum at external/llvm/include/llvm/Support/AlignOf.h:88:3)",
   "referenced_type" : "_ZTIN4llvm7AlignOfINS_6detail11AlignerImplIPNS_8GCOVEdgeEcccccccccEEE30$Alignment_GreaterEqual_8BytesE",
   "self_type" : "_ZTIN4llvm7AlignOfINS_6detail11AlignerImplIPNS_8GCOVEdgeEcccccccccEEE30$Alignment_GreaterEqual_8BytesE",
   "size" : 4,
   "source_file" : "external/llvm/include/llvm/Support/AlignOf.h",
   "underlying_type" : "_ZTIj"
  },
  {
   "alignment" : 4,
   "enum_fields" :
   [
    {
     "enum_field_value" : 0,
     "name" : "llvm::AlignOf<llvm::detail::AlignerImpl<llvm::GCOVEdge *, char, char, char, char, char, char, char, char, char>>::Alignment_GreaterEqual_16Bytes"
    }
   ],
   "linker_set_key" : "_ZTIN4llvm7AlignOfINS_6detail11AlignerImplIPNS_8GCOVEdgeEcccccccccEEE31$Alignment_GreaterEqual_16BytesE",
   "name" : "llvm::AlignOf<AlignerImpl<GCOVEdge *, char, char, char, char, char, char, char, char, char>>::(anonymous enum at external/llvm/include/llvm/Support/AlignOf.h:89:3)",
   "referenced_type" : "_ZTIN4llvm7AlignOfINS_6detail11AlignerImplIPNS_8GCOVEdgeEcccccccccEEE31$Alignment_GreaterEqual_16BytesE",
   "self_type" : "_ZTIN4llvm7AlignOfINS_6detail11AlignerImplIPNS_8GCOVEdgeEcccccccccEEE31$Alignment_GreaterEqual_16BytesE",
   "size" : 4,
   "source_file" : "external/llvm/include/llvm/Support/AlignOf.h",
   "underlying_type" : "_ZTIj"
  },
  {
   "alignment" : 4,
   "enum_fields" :
   [
    {
     "enum_field_value" : 0,
     "name" : "llvm::AlignOf<llvm::detail::AlignerImpl<void *, char, char, char, char, char, char, char, char, char>>::Alignment_LessEqual_2Bytes"
    }
   ],
   "linker_set_key" : "_ZTIN4llvm7AlignOfINS_6detail11AlignerImplIPvcccccccccEEE27$Alignment_LessEqual_2BytesE",
   "name" : "llvm::AlignOf<AlignerImpl<void *, char, char, char, char, char, char, char, char, char>>::(anonymous enum at external/llvm/include/llvm/Support/AlignOf.h:91:3)",
   "referenced_type" : "_ZTIN4llvm7AlignOfINS_6detail11AlignerImplIPvcccccccccEEE27$Alignment_LessEqual_2BytesE",
   "self_type" : "_ZTIN4llvm7AlignOfINS_6detail11AlignerImplIPvcccccccccEEE27$Alignment_LessEqual_2BytesE",
   "size" : 4,
   "source_file" : "external/llvm/include/llvm/Support/AlignOf.h",
   "underlying_type" : "_ZTIj"
  },
  {
   "alignment" : 4,
   "enum_fields" :
   [
    {
     "enum_field_value" : 0,
     "name" : "llvm::AlignOf<llvm::detail::AlignerImpl<void *, char, char, char, char, char, char, char, char, char>>::Alignment_LessEqual_4Bytes"
    }
   ],
   "linker_set_key" : "_ZTIN4llvm7AlignOfINS_6detail11AlignerImplIPvcccccccccEEE27$Alignment_LessEqual_4BytesE",
   "name" : "llvm::AlignOf<AlignerImpl<void *, char, char, char, char, char, char, char, char, char>>::(anonymous enum at external/llvm/include/llvm/Support/AlignOf.h:92:3)",
   "referenced_type" : "_ZTIN4llvm7AlignOfINS_6detail11AlignerImplIPvcccccccccEEE27$Alignment_LessEqual_4BytesE",
   "self_type" : "_ZTIN4llvm7AlignOfINS_6detail11AlignerImplIPvcccccccccEEE27$Alignment_LessEqual_4BytesE",
   "size" : 4,
   "source_file" : "external/llvm/include/llvm/Support/AlignOf.h",
   "underlying_type" : "_ZTIj"
  },
  {
   "alignment" : 4,
   "enum_fields" :
   [
    {
     "enum_field_value" : 1,
     "name" : "llvm::AlignOf<llvm::detail::AlignerImpl<void *, char, char, char, char, char, char, char, char, char>>::Alignment_LessEqual_8Bytes"
    }
   ],
   "linker_set_key" : "_ZTIN4llvm7AlignOfINS_6detail11AlignerImplIPvcccccccccEEE27$Alignment_LessEqual_8BytesE",
   "name" : "llvm::AlignOf<AlignerImpl<void *, char, char, char, char, char, char, char, char, char>>::(anonymous enum at external/llvm/include/llvm/Support/AlignOf.h:93:3)",
   "referenced_type" : "_ZTIN4llvm7AlignOfINS_6detail11AlignerImplIPvcccccccccEEE27$Alignment_LessEqual_8BytesE",
   "self_type" : "_ZTIN4llvm7AlignOfINS_6detail11AlignerImplIPvcccccccccEEE27$Alignment_LessEqual_8BytesE",
   "size" : 4,
   "source_file" : "external/llvm/include/llvm/Support/AlignOf.h",
   "underlying_type" : "_ZTIj"
  },
  {
   "alignment" : 4,
   "enum_fields" :
   [
    {
     "enum_field_value" : 1,
     "name" : "llvm::AlignOf<llvm::detail::AlignerImpl<void *, char, char, char, char, char, char, char, char, char>>::Alignment_LessEqual_16Bytes"
    }
   ],
   "linker_set_key" : "_ZTIN4llvm7AlignOfINS_6detail11AlignerImplIPvcccccccccEEE28$Alignment_LessEqual_16BytesE",
   "name" : "llvm::AlignOf<AlignerImpl<void *, char, char, char, char, char, char, char, char, char>>::(anonymous enum at external/llvm/include/llvm/Support/AlignOf.h:94:3)",
   "referenced_type" : "_ZTIN4llvm7AlignOfINS_6detail11AlignerImplIPvcccccccccEEE28$Alignment_LessEqual_16BytesE",
   "self_type" : "_ZTIN4llvm7AlignOfINS_6detail11AlignerImplIPvcccccccccEEE28$Alignment_LessEqual_16BytesE",
   "size" : 4,
   "source_file" : "external/llvm/include/llvm/Support/AlignOf.h",
   "underlying_type" : "_ZTIj"
  },
  {
   "alignment" : 4,
   "enum_fields" :
   [
    {
     "enum_field_value" : 1,
     "name" : "llvm::AlignOf<llvm::detail::AlignerImpl<void *, char, char, char, char, char, char, char, char, char>>::Alignment_GreaterEqual_2Bytes"
    }
   ],
   "linker_set_key" : "_ZTIN4llvm7AlignOfINS_6detail11AlignerImplIPvcccccccccEEE30$Alignment_GreaterEqual_2BytesE",
   "name" : "llvm::AlignOf<AlignerImpl<void *, char, char, char, char, char, char, char, char, char>>::(anonymous enum at external/llvm/include/llvm/Support/AlignOf.h:86:3)",
   "referenced_type" : "_ZTIN4llvm7AlignOfINS_6detail11AlignerImplIPvcccccccccEEE30$Alignment_GreaterEqual_2BytesE",
   "self_type" : "_ZTIN4llvm7AlignOfINS_6detail11AlignerImplIPvcccccccccEEE30$Alignment_GreaterEqual_2BytesE",
   "size" : 4,
   "source_file" : "external/llvm/include/llvm/Support/AlignOf.h",
   "underlying_type" : "_ZTIj"
  },
  {
   "alignment" : 4,
   "enum_fields" :
   [
    {
     "enum_field_value" : 1,
     "name" : "llvm::AlignOf<llvm::detail::AlignerImpl<void *, char, char, char, char, char, char, char, char, char>>::Alignment_GreaterEqual_4Bytes"
    }
   ],
   "linker_set_key" : "_ZTIN4llvm7AlignOfINS_6detail11AlignerImplIPvcccccccccEEE30$Alignment_GreaterEqual_4BytesE",
   "name" : "llvm::AlignOf<AlignerImpl<void *, char, char, char, char, char, char, char, char, char>>::(anonymous enum at external/llvm/include/llvm/Support/AlignOf.h:87:3)",
   "referenced_type" : "_ZTIN4llvm7AlignOfINS_6detail11AlignerImplIPvcccccccccEEE30$Alignment_GreaterEqual_4BytesE",
   "self_type" : "_ZTIN4llvm7AlignOfINS_6detail11AlignerImplIPvcccccccccEEE30$Alignment_GreaterEqual_4BytesE",
   "size" : 4,
   "source_file" : "external/llvm/include/llvm/Support/AlignOf.h",
   "underlying_type" : "_ZTIj"
  },
  {
   "alignment" : 4,
   "enum_fields" :
   [
    {
     "enum_field_value" : 1,
     "name" : "llvm::AlignOf<llvm::detail::AlignerImpl<void *, char, char, char, char, char, char, char, char, char>>::Alignment_GreaterEqual_8Bytes"
    }
   ],
   "linker_set_key" : "_ZTIN4llvm7AlignOfINS_6detail11AlignerImplIPvcccccccccEEE30$Alignment_GreaterEqual_8BytesE",
   "name" : "llvm::AlignOf<AlignerImpl<void *, char, char, char, char, char, char, char, char, char>>::(anonymous enum at external/llvm/include/llvm/Support/AlignOf.h:88:3)",
   "referenced_type" : "_ZTIN4llvm7AlignOfINS_6detail11AlignerImplIPvcccccccccEEE30$Alignment_GreaterEqual_8BytesE",
   "self_type" : "_ZTIN4llvm7AlignOfINS_6detail11AlignerImplIPvcccccccccEEE30$Alignment_GreaterEqual_8BytesE",
   "size" : 4,
   "source_file" : "external/llvm/include/llvm/Support/AlignOf.h",
   "underlying_type" : "_ZTIj"
  },
  {
   "alignment" : 4,
   "enum_fields" :
   [
    {
     "enum_field_value" : 0,
     "name" : "llvm::AlignOf<llvm::detail::AlignerImpl<void *, char, char, char, char, char, char, char, char, char>>::Alignment_GreaterEqual_16Bytes"
    }
   ],
   "linker_set_key" : "_ZTIN4llvm7AlignOfINS_6detail11AlignerImplIPvcccccccccEEE31$Alignment_GreaterEqual_16BytesE",
   "name" : "llvm::AlignOf<AlignerImpl<void *, char, char, char, char, char, char, char, char, char>>::(anonymous enum at external/llvm/include/llvm/Support/AlignOf.h:89:3)",
   "referenced_type" : "_ZTIN4llvm7AlignOfINS_6detail11AlignerImplIPvcccccccccEEE31$Alignment_GreaterEqual_16BytesE",
   "self_type" : "_ZTIN4llvm7AlignOfINS_6detail11AlignerImplIPvcccccccccEEE31$Alignment_GreaterEqual_16BytesE",
   "size" : 4,
   "source_file" : "external/llvm/include/llvm/Support/AlignOf.h",
   "underlying_type" : "_ZTIj"
  },
  {
   "alignment" : 4,
   "enum_fields" :
   [
    {
     "enum_field_value" : 1,
     "name" : "llvm::AlignOf<llvm::detail::AlignerImpl<char, char, char, char, char, char, char, char, char, char>>::Alignment_LessEqual_2Bytes"
    }
   ],
   "linker_set_key" : "_ZTIN4llvm7AlignOfINS_6detail11AlignerImplIccccccccccEEE27$Alignment_LessEqual_2BytesE",
   "name" : "llvm::AlignOf<AlignerImpl<char, char, char, char, char, char, char, char, char, char>>::(anonymous enum at external/llvm/include/llvm/Support/AlignOf.h:91:3)",
   "referenced_type" : "_ZTIN4llvm7AlignOfINS_6detail11AlignerImplIccccccccccEEE27$Alignment_LessEqual_2BytesE",
   "self_type" : "_ZTIN4llvm7AlignOfINS_6detail11AlignerImplIccccccccccEEE27$Alignment_LessEqual_2BytesE",
   "size" : 4,
   "source_file" : "external/llvm/include/llvm/Support/AlignOf.h",
   "underlying_type" : "_ZTIj"
  },
  {
   "alignment" : 4,
   "enum_fields" :
   [
    {
     "enum_field_value" : 1,
     "name" : "llvm::AlignOf<llvm::detail::AlignerImpl<char, char, char, char, char, char, char, char, char, char>>::Alignment_LessEqual_4Bytes"
    }
   ],
   "linker_set_key" : "_ZTIN4llvm7AlignOfINS_6detail11AlignerImplIccccccccccEEE27$Alignment_LessEqual_4BytesE",
   "name" : "llvm::AlignOf<AlignerImpl<char, char, char, char, char, char, char, char, char, char>>::(anonymous enum at external/llvm/include/llvm/Support/AlignOf.h:92:3)",
   "referenced_type" : "_ZTIN4llvm7AlignOfINS_6detail11AlignerImplIccccccccccEEE27$Alignment_LessEqual_4BytesE",
   "self_type" : "_ZTIN4llvm7AlignOfINS_6detail11AlignerImplIccccccccccEEE27$Alignment_LessEqual_4BytesE",
   "size" : 4,
   "source_file" : "external/llvm/include/llvm/Support/AlignOf.h",
   "underlying_type" : "_ZTIj"
  },
  {
   "alignment" : 4,
   "enum_fields" :
   [
    {
     "enum_field_value" : 1,
     "name" : "llvm::AlignOf<llvm::detail::AlignerImpl<char, char, char, char, char, char, char, char, char, char>>::Alignment_LessEqual_8Bytes"
    }
   ],
   "linker_set_key" : "_ZTIN4llvm7AlignOfINS_6detail11AlignerImplIccccccccccEEE27$Alignment_LessEqual_8BytesE",
   "name" : "llvm::AlignOf<AlignerImpl<char, char, char, char, char, char, char, char, char, char>>::(anonymous enum at external/llvm/include/llvm/Support/AlignOf.h:93:3)",
   "referenced_type" : "_ZTIN4llvm7AlignOfINS_6detail11AlignerImplIccccccccccEEE27$Alignment_LessEqual_8BytesE",
   "self_type" : "_ZTIN4llvm7AlignOfINS_6detail11AlignerImplIccccccccccEEE27$Alignment_LessEqual_8BytesE",
   "size" : 4,
   "source_file" : "external/llvm/include/llvm/Support/AlignOf.h",
   "underlying_type" : "_ZTIj"
  },
  {
   "alignment" : 4,
   "enum_fields" :
   [
    {
     "enum_field_value" : 1,
     "name" : "llvm::AlignOf<llvm::detail::AlignerImpl<char, char, char, char, char, char, char, char, char, char>>::Alignment_LessEqual_16Bytes"
    }
   ],
   "linker_set_key" : "_ZTIN4llvm7AlignOfINS_6detail11AlignerImplIccccccccccEEE28$Alignment_LessEqual_16BytesE",
   "name" : "llvm::AlignOf<AlignerImpl<char, char, char, char, char, char, char, char, char, char>>::(anonymous enum at external/llvm/include/llvm/Support/AlignOf.h:94:3)",
   "referenced_type" : "_ZTIN4llvm7AlignOfINS_6detail11AlignerImplIccccccccccEEE28$Alignment_LessEqual_16BytesE",
   "self_type" : "_ZTIN4llvm7AlignOfINS_6detail11AlignerImplIccccccccccEEE28$Alignment_LessEqual_16BytesE",
   "size" : 4,
   "source_file" : "external/llvm/include/llvm/Support/AlignOf.h",
   "underlying_type" : "_ZTIj"
  },
  {
   "alignment" : 4,
   "enum_fields" :
   [
    {
     "enum_field_value" : 0,
     "name" : "llvm::AlignOf<llvm::detail::AlignerImpl<char, char, char, char, char, char, char, char, char, char>>::Alignment_GreaterEqual_2Bytes"
    }
   ],
   "linker_set_key" : "_ZTIN4llvm7AlignOfINS_6detail11AlignerImplIccccccccccEEE30$Alignment_GreaterEqual_2BytesE",
   "name" : "llvm::AlignOf<AlignerImpl<char, char, char, char, char, char, char, char, char, char>>::(anonymous enum at external/llvm/include/llvm/Support/AlignOf.h:86:3)",
   "referenced_type" : "_ZTIN4llvm7AlignOfINS_6detail11AlignerImplIccccccccccEEE30$Alignment_GreaterEqual_2BytesE",
   "self_type" : "_ZTIN4llvm7AlignOfINS_6detail11AlignerImplIccccccccccEEE30$Alignment_GreaterEqual_2BytesE",
   "size" : 4,
   "source_file" : "external/llvm/include/llvm/Support/AlignOf.h",
   "underlying_type" : "_ZTIj"
  },
  {
   "alignment" : 4,
   "enum_fields" :
   [
    {
     "enum_field_value" : 0,
     "name" : "llvm::AlignOf<llvm::detail::AlignerImpl<char, char, char, char, char, char, char, char, char, char>>::Alignment_GreaterEqual_4Bytes"
    }
   ],
   "linker_set_key" : "_ZTIN4llvm7AlignOfINS_6detail11AlignerImplIccccccccccEEE30$Alignment_GreaterEqual_4BytesE",
   "name" : "llvm::AlignOf<AlignerImpl<char, char, char, char, char, char, char, char, char, char>>::(anonymous enum at external/llvm/include/llvm/Support/AlignOf.h:87:3)",
   "referenced_type" : "_ZTIN4llvm7AlignOfINS_6detail11AlignerImplIccccccccccEEE30$Alignment_GreaterEqual_4BytesE",
   "self_type" : "_ZTIN4llvm7AlignOfINS_6detail11AlignerImplIccccccccccEEE30$Alignment_GreaterEqual_4BytesE",
   "size" : 4,
   "source_file" : "external/llvm/include/llvm/Support/AlignOf.h",
   "underlying_type" : "_ZTIj"
  },
  {
   "alignment" : 4,
   "enum_fields" :
   [
    {
     "enum_field_value" : 0,
     "name" : "llvm::AlignOf<llvm::detail::AlignerImpl<char, char, char, char, char, char, char, char, char, char>>::Alignment_GreaterEqual_8Bytes"
    }
   ],
   "linker_set_key" : "_ZTIN4llvm7AlignOfINS_6detail11AlignerImplIccccccccccEEE30$Alignment_GreaterEqual_8BytesE",
   "name" : "llvm::AlignOf<AlignerImpl<char, char, char, char, char, char, char, char, char, char>>::(anonymous enum at external/llvm/include/llvm/Support/AlignOf.h:88:3)",
   "referenced_type" : "_ZTIN4llvm7AlignOfINS_6detail11AlignerImplIccccccccccEEE30$Alignment_GreaterEqual_8BytesE",
   "self_type" : "_ZTIN4llvm7AlignOfINS_6detail11AlignerImplIccccccccccEEE30$Alignment_GreaterEqual_8BytesE",
   "size" : 4,
   "source_file" : "external/llvm/include/llvm/Support/AlignOf.h",
   "underlying_type" : "_ZTIj"
  },
  {
   "alignment" : 4,
   "enum_fields" :
   [
    {
     "enum_field_value" : 0,
     "name" : "llvm::AlignOf<llvm::detail::AlignerImpl<char, char, char, char, char, char, char, char, char, char>>::Alignment_GreaterEqual_16Bytes"
    }
   ],
   "linker_set_key" : "_ZTIN4llvm7AlignOfINS_6detail11AlignerImplIccccccccccEEE31$Alignment_GreaterEqual_16BytesE",
   "name" : "llvm::AlignOf<AlignerImpl<char, char, char, char, char, char, char, char, char, char>>::(anonymous enum at external/llvm/include/llvm/Support/AlignOf.h:89:3)",
   "referenced_type" : "_ZTIN4llvm7AlignOfINS_6detail11AlignerImplIccccccccccEEE31$Alignment_GreaterEqual_16BytesE",
   "self_type" : "_ZTIN4llvm7AlignOfINS_6detail11AlignerImplIccccccccccEEE31$Alignment_GreaterEqual_16BytesE",
   "size" : 4,
   "source_file" : "external/llvm/include/llvm/Support/AlignOf.h",
   "underlying_type" : "_ZTIj"
  },
  {
   "alignment" : 4,
   "enum_fields" :
   [
    {
     "enum_field_value" : 0,
     "name" : "llvm::AlignOf<llvm::detail::AlignerImpl<unsigned int, char, char, char, char, char, char, char, char, char>>::Alignment_LessEqual_2Bytes"
    }
   ],
   "linker_set_key" : "_ZTIN4llvm7AlignOfINS_6detail11AlignerImplIjcccccccccEEE27$Alignment_LessEqual_2BytesE",
   "name" : "llvm::AlignOf<AlignerImpl<unsigned int, char, char, char, char, char, char, char, char, char>>::(anonymous enum at external/llvm/include/llvm/Support/AlignOf.h:91:3)",
   "referenced_type" : "_ZTIN4llvm7AlignOfINS_6detail11AlignerImplIjcccccccccEEE27$Alignment_LessEqual_2BytesE",
   "self_type" : "_ZTIN4llvm7AlignOfINS_6detail11AlignerImplIjcccccccccEEE27$Alignment_LessEqual_2BytesE",
   "size" : 4,
   "source_file" : "external/llvm/include/llvm/Support/AlignOf.h",
   "underlying_type" : "_ZTIj"
  },
  {
   "alignment" : 4,
   "enum_fields" :
   [
    {
     "enum_field_value" : 1,
     "name" : "llvm::AlignOf<llvm::detail::AlignerImpl<unsigned int, char, char, char, char, char, char, char, char, char>>::Alignment_LessEqual_4Bytes"
    }
   ],
   "linker_set_key" : "_ZTIN4llvm7AlignOfINS_6detail11AlignerImplIjcccccccccEEE27$Alignment_LessEqual_4BytesE",
   "name" : "llvm::AlignOf<AlignerImpl<unsigned int, char, char, char, char, char, char, char, char, char>>::(anonymous enum at external/llvm/include/llvm/Support/AlignOf.h:92:3)",
   "referenced_type" : "_ZTIN4llvm7AlignOfINS_6detail11AlignerImplIjcccccccccEEE27$Alignment_LessEqual_4BytesE",
   "self_type" : "_ZTIN4llvm7AlignOfINS_6detail11AlignerImplIjcccccccccEEE27$Alignment_LessEqual_4BytesE",
   "size" : 4,
   "source_file" : "external/llvm/include/llvm/Support/AlignOf.h",
   "underlying_type" : "_ZTIj"
  },
  {
   "alignment" : 4,
   "enum_fields" :
   [
    {
     "enum_field_value" : 1,
     "name" : "llvm::AlignOf<llvm::detail::AlignerImpl<unsigned int, char, char, char, char, char, char, char, char, char>>::Alignment_LessEqual_8Bytes"
    }
   ],
   "linker_set_key" : "_ZTIN4llvm7AlignOfINS_6detail11AlignerImplIjcccccccccEEE27$Alignment_LessEqual_8BytesE",
   "name" : "llvm::AlignOf<AlignerImpl<unsigned int, char, char, char, char, char, char, char, char, char>>::(anonymous enum at external/llvm/include/llvm/Support/AlignOf.h:93:3)",
   "referenced_type" : "_ZTIN4llvm7AlignOfINS_6detail11AlignerImplIjcccccccccEEE27$Alignment_LessEqual_8BytesE",
   "self_type" : "_ZTIN4llvm7AlignOfINS_6detail11AlignerImplIjcccccccccEEE27$Alignment_LessEqual_8BytesE",
   "size" : 4,
   "source_file" : "external/llvm/include/llvm/Support/AlignOf.h",
   "underlying_type" : "_ZTIj"
  },
  {
   "alignment" : 4,
   "enum_fields" :
   [
    {
     "enum_field_value" : 1,
     "name" : "llvm::AlignOf<llvm::detail::AlignerImpl<unsigned int, char, char, char, char, char, char, char, char, char>>::Alignment_LessEqual_16Bytes"
    }
   ],
   "linker_set_key" : "_ZTIN4llvm7AlignOfINS_6detail11AlignerImplIjcccccccccEEE28$Alignment_LessEqual_16BytesE",
   "name" : "llvm::AlignOf<AlignerImpl<unsigned int, char, char, char, char, char, char, char, char, char>>::(anonymous enum at external/llvm/include/llvm/Support/AlignOf.h:94:3)",
   "referenced_type" : "_ZTIN4llvm7AlignOfINS_6detail11AlignerImplIjcccccccccEEE28$Alignment_LessEqual_16BytesE",
   "self_type" : "_ZTIN4llvm7AlignOfINS_6detail11AlignerImplIjcccccccccEEE28$Alignment_LessEqual_16BytesE",
   "size" : 4,
   "source_file" : "external/llvm/include/llvm/Support/AlignOf.h",
   "underlying_type" : "_ZTIj"
  },
  {
   "alignment" : 4,
   "enum_fields" :
   [
    {
     "enum_field_value" : 1,
     "name" : "llvm::AlignOf<llvm::detail::AlignerImpl<unsigned int, char, char, char, char, char, char, char, char, char>>::Alignment_GreaterEqual_2Bytes"
    }
   ],
   "linker_set_key" : "_ZTIN4llvm7AlignOfINS_6detail11AlignerImplIjcccccccccEEE30$Alignment_GreaterEqual_2BytesE",
   "name" : "llvm::AlignOf<AlignerImpl<unsigned int, char, char, char, char, char, char, char, char, char>>::(anonymous enum at external/llvm/include/llvm/Support/AlignOf.h:86:3)",
   "referenced_type" : "_ZTIN4llvm7AlignOfINS_6detail11AlignerImplIjcccccccccEEE30$Alignment_GreaterEqual_2BytesE",
   "self_type" : "_ZTIN4llvm7AlignOfINS_6detail11AlignerImplIjcccccccccEEE30$Alignment_GreaterEqual_2BytesE",
   "size" : 4,
   "source_file" : "external/llvm/include/llvm/Support/AlignOf.h",
   "underlying_type" : "_ZTIj"
  },
  {
   "alignment" : 4,
   "enum_fields" :
   [
    {
     "enum_field_value" : 1,
     "name" : "llvm::AlignOf<llvm::detail::AlignerImpl<unsigned int, char, char, char, char, char, char, char, char, char>>::Alignment_GreaterEqual_4Bytes"
    }
   ],
   "linker_set_key" : "_ZTIN4llvm7AlignOfINS_6detail11AlignerImplIjcccccccccEEE30$Alignment_GreaterEqual_4BytesE",
   "name" : "llvm::AlignOf<AlignerImpl<unsigned int, char, char, char, char, char, char, char, char, char>>::(anonymous enum at external/llvm/include/llvm/Support/AlignOf.h:87:3)",
   "referenced_type" : "_ZTIN4llvm7AlignOfINS_6detail11AlignerImplIjcccccccccEEE30$Alignment_GreaterEqual_4BytesE",
   "self_type" : "_ZTIN4llvm7AlignOfINS_6detail11AlignerImplIjcccccccccEEE30$Alignment_GreaterEqual_4BytesE",
   "size" : 4,
   "source_file" : "external/llvm/include/llvm/Support/AlignOf.h",
   "underlying_type" : "_ZTIj"
  },
  {
   "alignment" : 4,
   "enum_fields" :
   [
    {
     "enum_field_value" : 0,
     "name" : "llvm::AlignOf<llvm::detail::AlignerImpl<unsigned int, char, char, char, char, char, char, char, char, char>>::Alignment_GreaterEqual_8Bytes"
    }
   ],
   "linker_set_key" : "_ZTIN4llvm7AlignOfINS_6detail11AlignerImplIjcccccccccEEE30$Alignment_GreaterEqual_8BytesE",
   "name" : "llvm::AlignOf<AlignerImpl<unsigned int, char, char, char, char, char, char, char, char, char>>::(anonymous enum at external/llvm/include/llvm/Support/AlignOf.h:88:3)",
   "referenced_type" : "_ZTIN4llvm7AlignOfINS_6detail11AlignerImplIjcccccccccEEE30$Alignment_GreaterEqual_8BytesE",
   "self_type" : "_ZTIN4llvm7AlignOfINS_6detail11AlignerImplIjcccccccccEEE30$Alignment_GreaterEqual_8BytesE",
   "size" : 4,
   "source_file" : "external/llvm/include/llvm/Support/AlignOf.h",
   "underlying_type" : "_ZTIj"
  },
  {
   "alignment" : 4,
   "enum_fields" :
   [
    {
     "enum_field_value" : 0,
     "name" : "llvm::AlignOf<llvm::detail::AlignerImpl<unsigned int, char, char, char, char, char, char, char, char, char>>::Alignment_GreaterEqual_16Bytes"
    }
   ],
   "linker_set_key" : "_ZTIN4llvm7AlignOfINS_6detail11AlignerImplIjcccccccccEEE31$Alignment_GreaterEqual_16BytesE",
   "name" : "llvm::AlignOf<AlignerImpl<unsigned int, char, char, char, char, char, char, char, char, char>>::(anonymous enum at external/llvm/include/llvm/Support/AlignOf.h:89:3)",
   "referenced_type" : "_ZTIN4llvm7AlignOfINS_6detail11AlignerImplIjcccccccccEEE31$Alignment_GreaterEqual_16BytesE",
   "self_type" : "_ZTIN4llvm7AlignOfINS_6detail11AlignerImplIjcccccccccEEE31$Alignment_GreaterEqual_16BytesE",
   "size" : 4,
   "source_file" : "external/llvm/include/llvm/Support/AlignOf.h",
   "underlying_type" : "_ZTIj"
  },
  {
   "alignment" : 4,
   "enum_fields" :
   [
    {
     "enum_field_value" : 0,
     "name" : "llvm::AlignOf<llvm::detail::AlignerImpl<unsigned long, char, char, char, char, char, char, char, char, char>>::Alignment_LessEqual_2Bytes"
    }
   ],
   "linker_set_key" : "_ZTIN4llvm7AlignOfINS_6detail11AlignerImplImcccccccccEEE27$Alignment_LessEqual_2BytesE",
   "name" : "llvm::AlignOf<AlignerImpl<unsigned long, char, char, char, char, char, char, char, char, char>>::(anonymous enum at external/llvm/include/llvm/Support/AlignOf.h:91:3)",
   "referenced_type" : "_ZTIN4llvm7AlignOfINS_6detail11AlignerImplImcccccccccEEE27$Alignment_LessEqual_2BytesE",
   "self_type" : "_ZTIN4llvm7AlignOfINS_6detail11AlignerImplImcccccccccEEE27$Alignment_LessEqual_2BytesE",
   "size" : 4,
   "source_file" : "external/llvm/include/llvm/Support/AlignOf.h",
   "underlying_type" : "_ZTIj"
  },
  {
   "alignment" : 4,
   "enum_fields" :
   [
    {
     "enum_field_value" : 0,
     "name" : "llvm::AlignOf<llvm::detail::AlignerImpl<unsigned long, char, char, char, char, char, char, char, char, char>>::Alignment_LessEqual_4Bytes"
    }
   ],
   "linker_set_key" : "_ZTIN4llvm7AlignOfINS_6detail11AlignerImplImcccccccccEEE27$Alignment_LessEqual_4BytesE",
   "name" : "llvm::AlignOf<AlignerImpl<unsigned long, char, char, char, char, char, char, char, char, char>>::(anonymous enum at external/llvm/include/llvm/Support/AlignOf.h:92:3)",
   "referenced_type" : "_ZTIN4llvm7AlignOfINS_6detail11AlignerImplImcccccccccEEE27$Alignment_LessEqual_4BytesE",
   "self_type" : "_ZTIN4llvm7AlignOfINS_6detail11AlignerImplImcccccccccEEE27$Alignment_LessEqual_4BytesE",
   "size" : 4,
   "source_file" : "external/llvm/include/llvm/Support/AlignOf.h",
   "underlying_type" : "_ZTIj"
  },
  {
   "alignment" : 4,
   "enum_fields" :
   [
    {
     "enum_field_value" : 1,
     "name" : "llvm::AlignOf<llvm::detail::AlignerImpl<unsigned long, char, char, char, char, char, char, char, char, char>>::Alignment_LessEqual_8Bytes"
    }
   ],
   "linker_set_key" : "_ZTIN4llvm7AlignOfINS_6detail11AlignerImplImcccccccccEEE27$Alignment_LessEqual_8BytesE",
   "name" : "llvm::AlignOf<AlignerImpl<unsigned long, char, char, char, char, char, char, char, char, char>>::(anonymous enum at external/llvm/include/llvm/Support/AlignOf.h:93:3)",
   "referenced_type" : "_ZTIN4llvm7AlignOfINS_6detail11AlignerImplImcccccccccEEE27$Alignment_LessEqual_8BytesE",
   "self_type" : "_ZTIN4llvm7AlignOfINS_6detail11AlignerImplImcccccccccEEE27$Alignment_LessEqual_8BytesE",
   "size" : 4,
   "source_file" : "external/llvm/include/llvm/Support/AlignOf.h",
   "underlying_type" : "_ZTIj"
  },
  {
   "alignment" : 4,
   "enum_fields" :
   [
    {
     "enum_field_value" : 1,
     "name" : "llvm::AlignOf<llvm::detail::AlignerImpl<unsigned long, char, char, char, char, char, char, char, char, char>>::Alignment_LessEqual_16Bytes"
    }
   ],
   "linker_set_key" : "_ZTIN4llvm7AlignOfINS_6detail11AlignerImplImcccccccccEEE28$Alignment_LessEqual_16BytesE",
   "name" : "llvm::AlignOf<AlignerImpl<unsigned long, char, char, char, char, char, char, char, char, char>>::(anonymous enum at external/llvm/include/llvm/Support/AlignOf.h:94:3)",
   "referenced_type" : "_ZTIN4llvm7AlignOfINS_6detail11AlignerImplImcccccccccEEE28$Alignment_LessEqual_16BytesE",
   "self_type" : "_ZTIN4llvm7AlignOfINS_6detail11AlignerImplImcccccccccEEE28$Alignment_LessEqual_16BytesE",
   "size" : 4,
   "source_file" : "external/llvm/include/llvm/Support/AlignOf.h",
   "underlying_type" : "_ZTIj"
  },
  {
   "alignment" : 4,
   "enum_fields" :
   [
    {
     "enum_field_value" : 1,
     "name" : "llvm::AlignOf<llvm::detail::AlignerImpl<unsigned long, char, char, char, char, char, char, char, char, char>>::Alignment_GreaterEqual_2Bytes"
    }
   ],
   "linker_set_key" : "_ZTIN4llvm7AlignOfINS_6detail11AlignerImplImcccccccccEEE30$Alignment_GreaterEqual_2BytesE",
   "name" : "llvm::AlignOf<AlignerImpl<unsigned long, char, char, char, char, char, char, char, char, char>>::(anonymous enum at external/llvm/include/llvm/Support/AlignOf.h:86:3)",
   "referenced_type" : "_ZTIN4llvm7AlignOfINS_6detail11AlignerImplImcccccccccEEE30$Alignment_GreaterEqual_2BytesE",
   "self_type" : "_ZTIN4llvm7AlignOfINS_6detail11AlignerImplImcccccccccEEE30$Alignment_GreaterEqual_2BytesE",
   "size" : 4,
   "source_file" : "external/llvm/include/llvm/Support/AlignOf.h",
   "underlying_type" : "_ZTIj"
  },
  {
   "alignment" : 4,
   "enum_fields" :
   [
    {
     "enum_field_value" : 1,
     "name" : "llvm::AlignOf<llvm::detail::AlignerImpl<unsigned long, char, char, char, char, char, char, char, char, char>>::Alignment_GreaterEqual_4Bytes"
    }
   ],
   "linker_set_key" : "_ZTIN4llvm7AlignOfINS_6detail11AlignerImplImcccccccccEEE30$Alignment_GreaterEqual_4BytesE",
   "name" : "llvm::AlignOf<AlignerImpl<unsigned long, char, char, char, char, char, char, char, char, char>>::(anonymous enum at external/llvm/include/llvm/Support/AlignOf.h:87:3)",
   "referenced_type" : "_ZTIN4llvm7AlignOfINS_6detail11AlignerImplImcccccccccEEE30$Alignment_GreaterEqual_4BytesE",
   "self_type" : "_ZTIN4llvm7AlignOfINS_6detail11AlignerImplImcccccccccEEE30$Alignment_GreaterEqual_4BytesE",
   "size" : 4,
   "source_file" : "external/llvm/include/llvm/Support/AlignOf.h",
   "underlying_type" : "_ZTIj"
  },
  {
   "alignment" : 4,
   "enum_fields" :
   [
    {
     "enum_field_value" : 1,
     "name" : "llvm::AlignOf<llvm::detail::AlignerImpl<unsigned long, char, char, char, char, char, char, char, char, char>>::Alignment_GreaterEqual_8Bytes"
    }
   ],
   "linker_set_key" : "_ZTIN4llvm7AlignOfINS_6detail11AlignerImplImcccccccccEEE30$Alignment_GreaterEqual_8BytesE",
   "name" : "llvm::AlignOf<AlignerImpl<unsigned long, char, char, char, char, char, char, char, char, char>>::(anonymous enum at external/llvm/include/llvm/Support/AlignOf.h:88:3)",
   "referenced_type" : "_ZTIN4llvm7AlignOfINS_6detail11AlignerImplImcccccccccEEE30$Alignment_GreaterEqual_8BytesE",
   "self_type" : "_ZTIN4llvm7AlignOfINS_6detail11AlignerImplImcccccccccEEE30$Alignment_GreaterEqual_8BytesE",
   "size" : 4,
   "source_file" : "external/llvm/include/llvm/Support/AlignOf.h",
   "underlying_type" : "_ZTIj"
  },
  {
   "alignment" : 4,
   "enum_fields" :
   [
    {
     "enum_field_value" : 0,
     "name" : "llvm::AlignOf<llvm::detail::AlignerImpl<unsigned long, char, char, char, char, char, char, char, char, char>>::Alignment_GreaterEqual_16Bytes"
    }
   ],
   "linker_set_key" : "_ZTIN4llvm7AlignOfINS_6detail11AlignerImplImcccccccccEEE31$Alignment_GreaterEqual_16BytesE",
   "name" : "llvm::AlignOf<AlignerImpl<unsigned long, char, char, char, char, char, char, char, char, char>>::(anonymous enum at external/llvm/include/llvm/Support/AlignOf.h:89:3)",
   "referenced_type" : "_ZTIN4llvm7AlignOfINS_6detail11AlignerImplImcccccccccEEE31$Alignment_GreaterEqual_16BytesE",
   "self_type" : "_ZTIN4llvm7AlignOfINS_6detail11AlignerImplImcccccccccEEE31$Alignment_GreaterEqual_16BytesE",
   "size" : 4,
   "source_file" : "external/llvm/include/llvm/Support/AlignOf.h",
   "underlying_type" : "_ZTIj"
  },
  {
   "alignment" : 4,
   "enum_fields" :
   [
    {
     "enum_field_value" : 0,
     "name" : "llvm::NoneType::None"
    }
   ],
   "linker_set_key" : "_ZTIN4llvm8NoneTypeE",
   "name" : "llvm::NoneType",
   "referenced_type" : "_ZTIN4llvm8NoneTypeE",
   "self_type" : "_ZTIN4llvm8NoneTypeE",
   "size" : 4,
   "source_file" : "external/llvm/include/llvm/ADT/None.h",
   "underlying_type" : "_ZTIi"
  }
 ],
 "function_types" :
 [
  {
   "alignment" : 4,
   "linker_set_key" : "_ZTIFvPvRKNSt3__112basic_stringIcNS0_11char_traitsIcEENS0_9allocatorIcEEEEbE",
   "name" : "void (void *, const std::__1::basic_string<char> &, bool)",
   "parameters" :
   [
    {
     "referenced_type" : "_ZTIPv"
    },
    {
     "referenced_type" : "_ZTIRKNSt3__112basic_stringIcNS_11char_traitsIcEENS_9allocatorIcEEEE"
    },
    {
     "referenced_type" : "_ZTIb"
    }
   ],
   "referenced_type" : "_ZTIFvPvRKNSt3__112basic_stringIcNS0_11char_traitsIcEENS0_9allocatorIcEEEEbE",
   "return_type" : "_ZTIv",
   "self_type" : "_ZTIFvPvRKNSt3__112basic_stringIcNS0_11char_traitsIcEENS0_9allocatorIcEEEEbE",
   "source_file" : "external/llvm/include/llvm/Support/ErrorHandling.h"
  }
 ],
 "functions" :
 [
  {
   "function_name" : "llvm::GCOVBuffer::readArcTag",
   "linker_set_key" : "_ZN4llvm10GCOVBuffer10readArcTagEv",
   "parameters" :
   [
    {
     "is_this_ptr" : true,
     "referenced_type" : "_ZTIPN4llvm10GCOVBufferE"
    }
   ],
   "return_type" : "_ZTIb",
   "source_file" : "external/llvm/include/llvm/Support/GCOV.h"
  },
  {
   "function_name" : "llvm::GCOVBuffer::readString",
   "linker_set_key" : "_ZN4llvm10GCOVBuffer10readStringERNS_9StringRefE",
   "parameters" :
   [
    {
     "is_this_ptr" : true,
     "referenced_type" : "_ZTIPN4llvm10GCOVBufferE"
    },
    {
     "referenced_type" : "_ZTIRN4llvm9StringRefE"
    }
   ],
   "return_type" : "_ZTIb",
   "source_file" : "external/llvm/include/llvm/Support/GCOV.h"
  },
  {
   "function_name" : "llvm::GCOVBuffer::readEdgeTag",
   "linker_set_key" : "_ZN4llvm10GCOVBuffer11readEdgeTagEv",
   "parameters" :
   [
    {
     "is_this_ptr" : true,
     "referenced_type" : "_ZTIPN4llvm10GCOVBufferE"
    }
   ],
   "return_type" : "_ZTIb",
   "source_file" : "external/llvm/include/llvm/Support/GCOV.h"
  },
  {
   "function_name" : "llvm::GCOVBuffer::readLineTag",
   "linker_set_key" : "_ZN4llvm10GCOVBuffer11readLineTagEv",
   "parameters" :
   [
    {
     "is_this_ptr" : true,
     "referenced_type" : "_ZTIPN4llvm10GCOVBufferE"
    }
   ],
   "return_type" : "_ZTIb",
   "source_file" : "external/llvm/include/llvm/Support/GCOV.h"
  },
  {
   "function_name" : "llvm::GCOVBuffer::readBlockTag",
   "linker_set_key" : "_ZN4llvm10GCOVBuffer12readBlockTagEv",
   "parameters" :
   [
    {
     "is_this_ptr" : true,
     "referenced_type" : "_ZTIPN4llvm10GCOVBufferE"
    }
   ],
   "return_type" : "_ZTIb",
   "source_file" : "external/llvm/include/llvm/Support/GCOV.h"
  },
  {
   "function_name" : "llvm::GCOVBuffer::advanceCursor",
   "linker_set_key" : "_ZN4llvm10GCOVBuffer13advanceCursorEj",
   "parameters" :
   [
    {
     "is_this_ptr" : true,
     "referenced_type" : "_ZTIPN4llvm10GCOVBufferE"
    },
    {
     "referenced_type" : "_ZTIj"
    }
   ],
   "return_type" : "_ZTIv",
   "source_file" : "external/llvm/include/llvm/Support/GCOV.h"
  },
  {
   "function_name" : "llvm::GCOVBuffer::readObjectTag",
   "linker_set_key" : "_ZN4llvm10GCOVBuffer13readObjectTagEv",
   "parameters" :
   [
    {
     "is_this_ptr" : true,
     "referenced_type" : "_ZTIPN4llvm10GCOVBufferE"
    }
   ],
   "return_type" : "_ZTIb",
   "source_file" : "external/llvm/include/llvm/Support/GCOV.h"
  },
  {
   "function_name" : "llvm::GCOVBuffer::readGCDAFormat",
   "linker_set_key" : "_ZN4llvm10GCOVBuffer14readGCDAFormatEv",
   "parameters" :
   [
    {
     "is_this_ptr" : true,
     "referenced_type" : "_ZTIPN4llvm10GCOVBufferE"
    }
   ],
   "return_type" : "_ZTIb",
   "source_file" : "external/llvm/include/llvm/Support/GCOV.h"
  },
  {
   "function_name" : "llvm::GCOVBuffer::readGCNOFormat",
   "linker_set_key" : "_ZN4llvm10GCOVBuffer14readGCNOFormatEv",
   "parameters" :
   [
    {
     "is_this_ptr" : true,
     "referenced_type" : "_ZTIPN4llvm10GCOVBufferE"
    }
   ],
   "return_type" : "_ZTIb",
   "source_file" : "external/llvm/include/llvm/Support/GCOV.h"
  },
  {
   "function_name" : "llvm::GCOVBuffer::readProgramTag",
   "linker_set_key" : "_ZN4llvm10GCOVBuffer14readProgramTagEv",
   "parameters" :
   [
    {
     "is_this_ptr" : true,
     "referenced_type" : "_ZTIPN4llvm10GCOVBufferE"
    }
   ],
   "return_type" : "_ZTIb",
   "source_file" : "external/llvm/include/llvm/Support/GCOV.h"
  },
  {
   "function_name" : "llvm::GCOVBuffer::readFunctionTag",
   "linker_set_key" : "_ZN4llvm10GCOVBuffer15readFunctionTagEv",
   "parameters" :
   [
    {
     "is_this_ptr" : true,
     "referenced_type" : "_ZTIPN4llvm10GCOVBufferE"
    }
   ],
   "return_type" : "_ZTIb",
   "source_file" : "external/llvm/include/llvm/Support/GCOV.h"
  },
  {
   "function_name" : "llvm::GCOVBuffer::readGCOVVersion",
   "linker_set_key" : "_ZN4llvm10GCOVBuffer15readGCOVVersionERNS_4GCOV11GCOVVersionE",
   "parameters" :
   [
    {
     "is_this_ptr" : true,
     "referenced_type" : "_ZTIPN4llvm10GCOVBufferE"
    },
    {
     "referenced_type" : "_ZTIRN4llvm4GCOV11GCOVVersionE"
    }
   ],
   "return_type" : "_ZTIb",
   "source_file" : "external/llvm/include/llvm/Support/GCOV.h"
  },
  {
   "function_name" : "llvm::GCOVBuffer::readInt",
   "linker_set_key" : "_ZN4llvm10GCOVBuffer7readIntERj",
   "parameters" :
   [
    {
     "is_this_ptr" : true,
     "referenced_type" : "_ZTIPN4llvm10GCOVBufferE"
    },
    {
     "referenced_type" : "_ZTIRj"
    }
   ],
   "return_type" : "_ZTIb",
   "source_file" : "external/llvm/include/llvm/Support/GCOV.h"
  },
  {
   "function_name" : "llvm::GCOVBuffer::readInt64",
   "linker_set_key" : "_ZN4llvm10GCOVBuffer9readInt64ERm",
   "parameters" :
   [
    {
     "is_this_ptr" : true,
     "referenced_type" : "_ZTIPN4llvm10GCOVBufferE"
    },
    {
     "referenced_type" : "_ZTIRm"
    }
   ],
   "return_type" : "_ZTIb",
   "source_file" : "external/llvm/include/llvm/Support/GCOV.h"
  },
  {
   "function_name" : "llvm::GCOVBuffer::GCOVBuffer",
   "linker_set_key" : "_ZN4llvm10GCOVBufferC1EPNS_12MemoryBufferE",
   "parameters" :
   [
    {
     "is_this_ptr" : true,
     "referenced_type" : "_ZTIPN4llvm10GCOVBufferE"
    },
    {
     "referenced_type" : "_ZTIPN4llvm12MemoryBufferE"
    }
   ],
   "return_type" : "_ZTIv",
   "source_file" : "external/llvm/include/llvm/Support/GCOV.h"
  },
  {
   "function_name" : "llvm::GCOVBuffer::GCOVBuffer",
   "linker_set_key" : "_ZN4llvm10GCOVBufferC2EPNS_12MemoryBufferE",
   "parameters" :
   [
    {
     "is_this_ptr" : true,
     "referenced_type" : "_ZTIPN4llvm10GCOVBufferE"
    },
    {
     "referenced_type" : "_ZTIPN4llvm12MemoryBufferE"
    }
   ],
   "return_type" : "_ZTIv",
   "source_file" : "external/llvm/include/llvm/Support/GCOV.h"
  },
  {
   "function_name" : "llvm::format_hex",
   "linker_set_key" : "_ZN4llvm10format_hexEmjb",
   "parameters" :
   [
    {
     "referenced_type" : "_ZTIm"
    },
    {
     "referenced_type" : "_ZTIj"
    },
    {
     "default_arg" : true,
     "referenced_type" : "_ZTIb"
    }
   ],
   "return_type" : "_ZTIN4llvm15FormattedNumberE",
   "source_file" : "external/llvm/include/llvm/Support/Format.h"
  },
  {
   "function_name" : "llvm::hash_value",
   "linker_set_key" : "_ZN4llvm10hash_valueERKNS_9hash_codeE",
   "parameters" :
   [
    {
     "referenced_type" : "_ZTIRKN4llvm9hash_codeE"
    }
   ],
   "return_type" : "_ZTIm",
   "source_file" : "external/llvm/include/llvm/ADT/Hashing.h"
  },
  {
   "function_name" : "llvm::make_range",
   "linker_set_key" : "_ZN4llvm10make_rangeINS_16pointee_iteratorIPKNSt3__110unique_ptrINS_9GCOVBlockENS2_14default_deleteIS4_EEEES4_EEEENS_14iterator_rangeIT_EESC_SC_",
   "parameters" :
   [
    {
     "referenced_type" : "_ZTIN4llvm16pointee_iteratorIPKNSt3__110unique_ptrINS_9GCOVBlockENS1_14default_deleteIS3_EEEES3_EE"
    },
    {
     "referenced_type" : "_ZTIN4llvm16pointee_iteratorIPKNSt3__110unique_ptrINS_9GCOVBlockENS1_14default_deleteIS3_EEEES3_EE"
    }
   ],
   "return_type" : "_ZTIN4llvm14iterator_rangeINS_16pointee_iteratorIPKNSt3__110unique_ptrINS_9GCOVBlockENS2_14default_deleteIS4_EEEES4_EEEE",
   "source_file" : "external/llvm/include/llvm/ADT/iterator_range.h",
   "template_args" :
   [
    "_ZTIN4llvm16pointee_iteratorIPKNSt3__110unique_ptrINS_9GCOVBlockENS1_14default_deleteIS3_EEEES3_EE"
   ]
  },
  {
   "function_name" : "llvm::make_range",
   "linker_set_key" : "_ZN4llvm10make_rangeIPKPNS_8GCOVEdgeEEENS_14iterator_rangeIT_EES6_S6_",
   "parameters" :
   [
    {
     "referenced_type" : "_ZTIPKPN4llvm8GCOVEdgeE"
    },
    {
     "referenced_type" : "_ZTIPKPN4llvm8GCOVEdgeE"
    }
   ],
   "return_type" : "_ZTIN4llvm14iterator_rangeIPKPNS_8GCOVEdgeEEE",
   "source_file" : "external/llvm/include/llvm/ADT/iterator_range.h",
   "template_args" : [ "_ZTIPKPN4llvm8GCOVEdgeE" ]
  },
  {
   "function_name" : "llvm::make_range",
   "linker_set_key" : "_ZN4llvm10make_rangeIPKhEENS_14iterator_rangeIT_EES4_S4_",
   "parameters" :
   [
    {
     "referenced_type" : "_ZTIPKh"
    },
    {
     "referenced_type" : "_ZTIPKh"
    }
   ],
   "return_type" : "_ZTIN4llvm14iterator_rangeIPKhEE",
   "source_file" : "external/llvm/include/llvm/ADT/iterator_range.h",
   "template_args" : [ "_ZTIPKh" ]
  },
  {
   "function_name" : "llvm::BitsToFloat",
   "linker_set_key" : "_ZN4llvm11BitsToFloatEj",
   "parameters" :
   [
    {
     "referenced_type" : "_ZTIj"
    }
   ],
   "return_type" : "_ZTIf",
   "source_file" : "external/llvm/include/llvm/Support/MathExtras.h"
  },
  {
   "function_name" : "llvm::ByteSwap_16",
   "linker_set_key" : "_ZN4llvm11ByteSwap_16Et",
   "parameters" :
   [
    {
     "referenced_type" : "_ZTIt"
    }
   ],
   "return_type" : "_ZTIt",
   "source_file" : "external/llvm/include/llvm/Support/MathExtras.h"
  },
  {
   "function_name" : "llvm::ByteSwap_32",
   "linker_set_key" : "_ZN4llvm11ByteSwap_32Ej",
   "parameters" :
   [
    {
     "referenced_type" : "_ZTIj"
    }
   ],
   "return_type" : "_ZTIj",
   "source_file" : "external/llvm/include/llvm/Support/MathExtras.h"
  },
  {
   "function_name" : "llvm::ByteSwap_64",
   "linker_set_key" : "_ZN4llvm11ByteSwap_64Em",
   "parameters" :
   [
    {
     "referenced_type" : "_ZTIm"
    }
   ],
   "return_type" : "_ZTIm",
   "source_file" : "external/llvm/include/llvm/Support/MathExtras.h"
  },
  {
   "function_name" : "llvm::FloatToBits",
   "linker_set_key" : "_ZN4llvm11FloatToBitsEf",
   "parameters" :
   [
    {
     "referenced_type" : "_ZTIf"
    }
   ],
   "return_type" : "_ZTIj",
   "source_file" : "external/llvm/include/llvm/Support/MathExtras.h"
  },
  {
   "function_name" : "llvm::FreeDeleter::operator()",
   "linker_set_key" : "_ZN4llvm11FreeDeleterclEPv",
   "parameters" :
   [
    {
     "is_this_ptr" : true,
     "referenced_type" : "_ZTIPN4llvm11FreeDeleterE"
    },
    {
     "referenced_type" : "_ZTIPv"
    }
   ],
   "return_type" : "_ZTIv",
   "source_file" : "external/llvm/include/llvm/ADT/STLExtras.h"
  },
  {
   "function_name" : "llvm::SmallString<128>::SmallString",
   "linker_set_key" : "_ZN4llvm11SmallStringILj128EEC1Ev",
   "parameters" :
   [
    {
     "is_this_ptr" : true,
     "referenced_type" : "_ZTIPN4llvm11SmallStringILj128EEE"
    }
   ],
   "return_type" : "_ZTIv",
   "source_file" : "external/llvm/include/llvm/ADT/SmallString.h"
  },
  {
   "function_name" : "llvm::SmallString<128>::SmallString",
   "linker_set_key" : "_ZN4llvm11SmallStringILj128EEC2Ev",
   "parameters" :
   [
    {
     "is_this_ptr" : true,
     "referenced_type" : "_ZTIPN4llvm11SmallStringILj128EEE"
    }
   ],
   "return_type" : "_ZTIv",
   "source_file" : "external/llvm/include/llvm/ADT/SmallString.h"
  },
  {
   "function_name" : "llvm::SmallString<256>::append",
   "linker_set_key" : "_ZN4llvm11SmallStringILj256EE6appendENS_9StringRefE",
   "parameters" :
   [
    {
     "is_this_ptr" : true,
     "referenced_type" : "_ZTIPN4llvm11SmallStringILj256EEE"
    },
    {
     "referenced_type" : "_ZTIN4llvm9StringRefE"
    }
   ],
   "return_type" : "_ZTIv",
   "source_file" : "external/llvm/include/llvm/ADT/SmallString.h"
  },
  {
   "function_name" : "llvm::SmallString<256>::append",
   "linker_set_key" : "_ZN4llvm11SmallStringILj256EE6appendIPKcEEvT_S5_",
   "parameters" :
   [
    {
     "is_this_ptr" : true,
     "referenced_type" : "_ZTIPN4llvm11SmallStringILj256EEE"
    },
    {
     "referenced_type" : "_ZTIPKc"
    },
    {
     "referenced_type" : "_ZTIPKc"
    }
   ],
   "return_type" : "_ZTIv",
   "source_file" : "external/llvm/include/llvm/ADT/SmallString.h",
   "template_args" : [ "_ZTIPKc" ]
  },
  {
   "function_name" : "llvm::SmallString<256>::SmallString",
   "linker_set_key" : "_ZN4llvm11SmallStringILj256EEC1ENS_9StringRefE",
   "parameters" :
   [
    {
     "is_this_ptr" : true,
     "referenced_type" : "_ZTIPN4llvm11SmallStringILj256EEE"
    },
    {
     "referenced_type" : "_ZTIN4llvm9StringRefE"
    }
   ],
   "return_type" : "_ZTIv",
   "source_file" : "external/llvm/include/llvm/ADT/SmallString.h"
  },
  {
   "function_name" : "llvm::SmallString<256>::SmallString",
   "linker_set_key" : "_ZN4llvm11SmallStringILj256EEC2ENS_9StringRefE",
   "parameters" :
   [
    {
     "is_this_ptr" : true,
     "referenced_type" : "_ZTIPN4llvm11SmallStringILj256EEE"
    },
    {
     "referenced_type" : "_ZTIN4llvm9StringRefE"
    }
   ],
   "return_type" : "_ZTIv",
   "source_file" : "external/llvm/include/llvm/ADT/SmallString.h"
  },
  {
   "function_name" : "llvm::SmallVector<std::__1::unique_ptr<llvm::GCOVFunction, std::__1::default_delete<llvm::GCOVFunction>>, 16>::SmallVector",
   "linker_set_key" : "_ZN4llvm11SmallVectorINSt3__110unique_ptrINS_12GCOVFunctionENS1_14default_deleteIS3_EEEELj16EEC1Ev",
   "parameters" :
   [
    {
     "is_this_ptr" : true,
     "referenced_type" : "_ZTIPN4llvm11SmallVectorINSt3__110unique_ptrINS_12GCOVFunctionENS1_14default_deleteIS3_EEEELj16EEE"
    }
   ],
   "return_type" : "_ZTIv",
   "source_file" : "external/llvm/include/llvm/ADT/SmallVector.h"
  },
  {
   "function_name" : "llvm::SmallVector<std::__1::unique_ptr<llvm::GCOVFunction, std::__1::default_delete<llvm::GCOVFunction>>, 16>::SmallVector",
   "linker_set_key" : "_ZN4llvm11SmallVectorINSt3__110unique_ptrINS_12GCOVFunctionENS1_14default_deleteIS3_EEEELj16EEC2Ev",
   "parameters" :
   [
    {
     "is_this_ptr" : true,
     "referenced_type" : "_ZTIPN4llvm11SmallVectorINSt3__110unique_ptrINS_12GCOVFunctionENS1_14default_deleteIS3_EEEELj16EEE"
    }
   ],
   "return_type" : "_ZTIv",
   "source_file" : "external/llvm/include/llvm/ADT/SmallVector.h"
  },
  {
   "function_name" : "llvm::SmallVector<std::__1::unique_ptr<llvm::GCOVEdge, std::__1::default_delete<llvm::GCOVEdge>>, 16>::SmallVector",
   "linker_set_key" : "_ZN4llvm11SmallVectorINSt3__110unique_ptrINS_8GCOVEdgeENS1_14default_deleteIS3_EEEELj16EEC1Ev",
   "parameters" :
   [
    {
     "is_this_ptr" : true,
     "referenced_type" : "_ZTIPN4llvm11SmallVectorINSt3__110unique_ptrINS_8GCOVEdgeENS1_14default_deleteIS3_EEEELj16EEE"
    }
   ],
   "return_type" : "_ZTIv",
   "source_file" : "external/llvm/include/llvm/ADT/SmallVector.h"
  },
  {
   "function_name" : "llvm::SmallVector<std::__1::unique_ptr<llvm::GCOVEdge, std::__1::default_delete<llvm::GCOVEdge>>, 16>::SmallVector",
   "linker_set_key" : "_ZN4llvm11SmallVectorINSt3__110unique_ptrINS_8GCOVEdgeENS1_14default_deleteIS3_EEEELj16EEC2Ev",
   "parameters" :
   [
    {
     "is_this_ptr" : true,
     "referenced_type" : "_ZTIPN4llvm11SmallVectorINSt3__110unique_ptrINS_8GCOVEdgeENS1_14default_deleteIS3_EEEELj16EEE"
    }
   ],
   "return_type" : "_ZTIv",
   "source_file" : "external/llvm/include/llvm/ADT/SmallVector.h"
  },
  {
   "function_name" : "llvm::SmallVector<std::__1::unique_ptr<llvm::GCOVBlock, std::__1::default_delete<llvm::GCOVBlock>>, 16>::SmallVector",
   "linker_set_key" : "_ZN4llvm11SmallVectorINSt3__110unique_ptrINS_9GCOVBlockENS1_14default_deleteIS3_EEEELj16EEC1Ev",
   "parameters" :
   [
    {
     "is_this_ptr" : true,
     "referenced_type" : "_ZTIPN4llvm11SmallVectorINSt3__110unique_ptrINS_9GCOVBlockENS1_14default_deleteIS3_EEEELj16EEE"
    }
   ],
   "return_type" : "_ZTIv",
   "source_file" : "external/llvm/include/llvm/ADT/SmallVector.h"
  },
  {
   "function_name" : "llvm::SmallVector<std::__1::unique_ptr<llvm::GCOVBlock, std::__1::default_delete<llvm::GCOVBlock>>, 16>::SmallVector",
   "linker_set_key" : "_ZN4llvm11SmallVectorINSt3__110unique_ptrINS_9GCOVBlockENS1_14default_deleteIS3_EEEELj16EEC2Ev",
   "parameters" :
   [
    {
     "is_this_ptr" : true,
     "referenced_type" : "_ZTIPN4llvm11SmallVectorINSt3__110unique_ptrINS_9GCOVBlockENS1_14default_deleteIS3_EEEELj16EEE"
    }
   ],
   "return_type" : "_ZTIv",
   "source_file" : "external/llvm/include/llvm/ADT/SmallVector.h"
  },
  {
   "function_name" : "llvm::SmallVector<std::__1::pair<std::__1::basic_string<char>, llvm::FileInfo::GCOVCoverage>, 4>::SmallVector",
   "linker_set_key" : "_ZN4llvm11SmallVectorINSt3__14pairINS1_12basic_stringIcNS1_11char_traitsIcEENS1_9allocatorIcEEEENS_8FileInfo12GCOVCoverageEEELj4EEC1Ev",
   "parameters" :
   [
    {
     "is_this_ptr" : true,
     "referenced_type" : "_ZTIPN4llvm11SmallVectorINSt3__14pairINS1_12basic_stringIcNS1_11char_traitsIcEENS1_9allocatorIcEEEENS_8FileInfo12GCOVCoverageEEELj4EEE"
    }
   ],
   "return_type" : "_ZTIv",
   "source_file" : "external/llvm/include/llvm/ADT/SmallVector.h"
  },
  {
   "function_name" : "llvm::SmallVector<std::__1::pair<std::__1::basic_string<char>, llvm::FileInfo::GCOVCoverage>, 4>::SmallVector",
   "linker_set_key" : "_ZN4llvm11SmallVectorINSt3__14pairINS1_12basic_stringIcNS1_11char_traitsIcEENS1_9allocatorIcEEEENS_8FileInfo12GCOVCoverageEEELj4EEC2Ev",
   "parameters" :
   [
    {
     "is_this_ptr" : true,
     "referenced_type" : "_ZTIPN4llvm11SmallVectorINSt3__14pairINS1_12basic_stringIcNS1_11char_traitsIcEENS1_9allocatorIcEEEENS_8FileInfo12GCOVCoverageEEELj4EEE"
    }
   ],
   "return_type" : "_ZTIv",
   "source_file" : "external/llvm/include/llvm/ADT/SmallVector.h"
  },
  {
   "function_name" : "llvm::SmallVector<const llvm::GCOVFunction *, 1>::SmallVector",
   "linker_set_key" : "_ZN4llvm11SmallVectorIPKNS_12GCOVFunctionELj1EEC1EOS4_",
   "parameters" :
   [
    {
     "is_this_ptr" : true,
     "referenced_type" : "_ZTIPN4llvm11SmallVectorIPKNS_12GCOVFunctionELj1EEE"
    },
    {
     "referenced_type" : "_ZTION4llvm11SmallVectorIPKNS_12GCOVFunctionELj1EEE"
    }
   ],
   "return_type" : "_ZTIv",
   "source_file" : "external/llvm/include/llvm/ADT/SmallVector.h"
  },
  {
   "function_name" : "llvm::SmallVector<const llvm::GCOVFunction *, 1>::SmallVector",
   "linker_set_key" : "_ZN4llvm11SmallVectorIPKNS_12GCOVFunctionELj1EEC1Ev",
   "parameters" :
   [
    {
     "is_this_ptr" : true,
     "referenced_type" : "_ZTIPN4llvm11SmallVectorIPKNS_12GCOVFunctionELj1EEE"
    }
   ],
   "return_type" : "_ZTIv",
   "source_file" : "external/llvm/include/llvm/ADT/SmallVector.h"
  },
  {
   "function_name" : "llvm::SmallVector<const llvm::GCOVFunction *, 1>::SmallVector",
   "linker_set_key" : "_ZN4llvm11SmallVectorIPKNS_12GCOVFunctionELj1EEC2EOS4_",
   "parameters" :
   [
    {
     "is_this_ptr" : true,
     "referenced_type" : "_ZTIPN4llvm11SmallVectorIPKNS_12GCOVFunctionELj1EEE"
    },
    {
     "referenced_type" : "_ZTION4llvm11SmallVectorIPKNS_12GCOVFunctionELj1EEE"
    }
   ],
   "return_type" : "_ZTIv",
   "source_file" : "external/llvm/include/llvm/ADT/SmallVector.h"
  },
  {
   "function_name" : "llvm::SmallVector<const llvm::GCOVFunction *, 1>::SmallVector",
   "linker_set_key" : "_ZN4llvm11SmallVectorIPKNS_12GCOVFunctionELj1EEC2Ev",
   "parameters" :
   [
    {
     "is_this_ptr" : true,
     "referenced_type" : "_ZTIPN4llvm11SmallVectorIPKNS_12GCOVFunctionELj1EEE"
    }
   ],
   "return_type" : "_ZTIv",
   "source_file" : "external/llvm/include/llvm/ADT/SmallVector.h"
  },
  {
   "function_name" : "llvm::SmallVector<const llvm::GCOVBlock *, 4>::SmallVector",
   "linker_set_key" : "_ZN4llvm11SmallVectorIPKNS_9GCOVBlockELj4EEC1EOS4_",
   "parameters" :
   [
    {
     "is_this_ptr" : true,
     "referenced_type" : "_ZTIPN4llvm11SmallVectorIPKNS_9GCOVBlockELj4EEE"
    },
    {
     "referenced_type" : "_ZTION4llvm11SmallVectorIPKNS_9GCOVBlockELj4EEE"
    }
   ],
   "return_type" : "_ZTIv",
   "source_file" : "external/llvm/include/llvm/ADT/SmallVector.h"
  },
  {
   "function_name" : "llvm::SmallVector<const llvm::GCOVBlock *, 4>::SmallVector",
   "linker_set_key" : "_ZN4llvm11SmallVectorIPKNS_9GCOVBlockELj4EEC1Ev",
   "parameters" :
   [
    {
     "is_this_ptr" : true,
     "referenced_type" : "_ZTIPN4llvm11SmallVectorIPKNS_9GCOVBlockELj4EEE"
    }
   ],
   "return_type" : "_ZTIv",
   "source_file" : "external/llvm/include/llvm/ADT/SmallVector.h"
  },
  {
   "function_name" : "llvm::SmallVector<const llvm::GCOVBlock *, 4>::SmallVector",
   "linker_set_key" : "_ZN4llvm11SmallVectorIPKNS_9GCOVBlockELj4EEC2EOS4_",
   "parameters" :
   [
    {
     "is_this_ptr" : true,
     "referenced_type" : "_ZTIPN4llvm11SmallVectorIPKNS_9GCOVBlockELj4EEE"
    },
    {
     "referenced_type" : "_ZTION4llvm11SmallVectorIPKNS_9GCOVBlockELj4EEE"
    }
   ],
   "return_type" : "_ZTIv",
   "source_file" : "external/llvm/include/llvm/ADT/SmallVector.h"
  },
  {
   "function_name" : "llvm::SmallVector<const llvm::GCOVBlock *, 4>::SmallVector",
   "linker_set_key" : "_ZN4llvm11SmallVectorIPKNS_9GCOVBlockELj4EEC2Ev",
   "parameters" :
   [
    {
     "is_this_ptr" : true,
     "referenced_type" : "_ZTIPN4llvm11SmallVectorIPKNS_9GCOVBlockELj4EEE"
    }
   ],
   "return_type" : "_ZTIv",
   "source_file" : "external/llvm/include/llvm/ADT/SmallVector.h"
  },
  {
   "function_name" : "llvm::SmallVector<llvm::GCOVEdge *, 16>::SmallVector",
   "linker_set_key" : "_ZN4llvm11SmallVectorIPNS_8GCOVEdgeELj16EEC1Ev",
   "parameters" :
   [
    {
     "is_this_ptr" : true,
     "referenced_type" : "_ZTIPN4llvm11SmallVectorIPNS_8GCOVEdgeELj16EEE"
    }
   ],
   "return_type" : "_ZTIv",
   "source_file" : "external/llvm/include/llvm/ADT/SmallVector.h"
  },
  {
   "function_name" : "llvm::SmallVector<llvm::GCOVEdge *, 16>::SmallVector",
   "linker_set_key" : "_ZN4llvm11SmallVectorIPNS_8GCOVEdgeELj16EEC2Ev",
   "parameters" :
   [
    {
     "is_this_ptr" : true,
     "referenced_type" : "_ZTIPN4llvm11SmallVectorIPNS_8GCOVEdgeELj16EEE"
    }
   ],
   "return_type" : "_ZTIv",
   "source_file" : "external/llvm/include/llvm/ADT/SmallVector.h"
  },
  {
   "function_name" : "llvm::SmallVector<char, 0>::SmallVector",
   "linker_set_key" : "_ZN4llvm11SmallVectorIcLj0EEC1Ev",
   "parameters" :
   [
    {
     "is_this_ptr" : true,
     "referenced_type" : "_ZTIPN4llvm11SmallVectorIcLj0EEE"
    }
   ],
   "return_type" : "_ZTIv",
   "source_file" : "external/llvm/include/llvm/ADT/SmallVector.h"
  },
  {
   "function_name" : "llvm::SmallVector<char, 0>::SmallVector",
   "linker_set_key" : "_ZN4llvm11SmallVectorIcLj0EEC2Ev",
   "parameters" :
   [
    {
     "is_this_ptr" : true,
     "referenced_type" : "_ZTIPN4llvm11SmallVectorIcLj0EEE"
    }
   ],
   "return_type" : "_ZTIv",
   "source_file" : "external/llvm/include/llvm/ADT/SmallVector.h"
  },
  {
   "function_name" : "llvm::SmallVector<char, 128>::SmallVector",
   "linker_set_key" : "_ZN4llvm11SmallVectorIcLj128EEC1Ev",
   "parameters" :
   [
    {
     "is_this_ptr" : true,
     "referenced_type" : "_ZTIPN4llvm11SmallVectorIcLj128EEE"
    }
   ],
   "return_type" : "_ZTIv",
   "source_file" : "external/llvm/include/llvm/ADT/SmallVector.h"
  },
  {
   "function_name" : "llvm::SmallVector<char, 128>::SmallVector",
   "linker_set_key" : "_ZN4llvm11SmallVectorIcLj128EEC2Ev",
   "parameters" :
   [
    {
     "is_this_ptr" : true,
     "referenced_type" : "_ZTIPN4llvm11SmallVectorIcLj128EEE"
    }
   ],
   "return_type" : "_ZTIv",
   "source_file" : "external/llvm/include/llvm/ADT/SmallVector.h"
  },
  {
   "function_name" : "llvm::SmallVector<char, 256>::SmallVector",
   "linker_set_key" : "_ZN4llvm11SmallVectorIcLj256EEC1IPKcEET_S5_",
   "parameters" :
   [
    {
     "is_this_ptr" : true,
     "referenced_type" : "_ZTIPN4llvm11SmallVectorIcLj256EEE"
    },
    {
     "referenced_type" : "_ZTIPKc"
    },
    {
     "referenced_type" : "_ZTIPKc"
    }
   ],
   "return_type" : "_ZTIv",
   "source_file" : "external/llvm/include/llvm/ADT/SmallVector.h",
   "template_args" : [ "_ZTIPKc" ]
  },
  {
   "function_name" : "llvm::SmallVector<char, 256>::SmallVector",
   "linker_set_key" : "_ZN4llvm11SmallVectorIcLj256EEC2IPKcEET_S5_",
   "parameters" :
   [
    {
     "is_this_ptr" : true,
     "referenced_type" : "_ZTIPN4llvm11SmallVectorIcLj256EEE"
    },
    {
     "referenced_type" : "_ZTIPKc"
    },
    {
     "referenced_type" : "_ZTIPKc"
    }
   ],
   "return_type" : "_ZTIv",
   "source_file" : "external/llvm/include/llvm/ADT/SmallVector.h",
   "template_args" : [ "_ZTIPKc" ]
  },
  {
   "function_name" : "llvm::SmallVector<unsigned int, 16>::SmallVector",
   "linker_set_key" : "_ZN4llvm11SmallVectorIjLj16EEC1Ev",
   "parameters" :
   [
    {
     "is_this_ptr" : true,
     "referenced_type" : "_ZTIPN4llvm11SmallVectorIjLj16EEE"
    }
   ],
   "return_type" : "_ZTIv",
   "source_file" : "external/llvm/include/llvm/ADT/SmallVector.h"
  },
  {
   "function_name" : "llvm::SmallVector<unsigned int, 16>::SmallVector",
   "linker_set_key" : "_ZN4llvm11SmallVectorIjLj16EEC2Ev",
   "parameters" :
   [
    {
     "is_this_ptr" : true,
     "referenced_type" : "_ZTIPN4llvm11SmallVectorIjLj16EEE"
    }
   ],
   "return_type" : "_ZTIv",
   "source_file" : "external/llvm/include/llvm/ADT/SmallVector.h"
  },
  {
   "function_name" : "llvm::SmallVector<unsigned long, 16>::SmallVector",
   "linker_set_key" : "_ZN4llvm11SmallVectorImLj16EEC1Ev",
   "parameters" :
   [
    {
     "is_this_ptr" : true,
     "referenced_type" : "_ZTIPN4llvm11SmallVectorImLj16EEE"
    }
   ],
   "return_type" : "_ZTIv",
   "source_file" : "external/llvm/include/llvm/ADT/SmallVector.h"
  },
  {
   "function_name" : "llvm::SmallVector<unsigned long, 16>::SmallVector",
   "linker_set_key" : "_ZN4llvm11SmallVectorImLj16EEC2Ev",
   "parameters" :
   [
    {
     "is_this_ptr" : true,
     "referenced_type" : "_ZTIPN4llvm11SmallVectorImLj16EEE"
    }
   ],
   "return_type" : "_ZTIv",
   "source_file" : "external/llvm/include/llvm/ADT/SmallVector.h"
  },
  {
   "function_name" : "llvm::make_unique",
   "linker_set_key" : "_ZN4llvm11make_uniqueINS_12GCOVFunctionEJRNS_8GCOVFileEEEENSt3__19enable_ifIXntsr3std8is_arrayIT_EE5valueENS4_10unique_ptrIS6_NS4_14default_deleteIS6_EEEEE4typeEDpOT0_",
   "parameters" :
   [
    {
     "referenced_type" : "_ZTIRN4llvm8GCOVFileE"
    }
   ],
   "return_type" : "_ZTINSt3__110unique_ptrIN4llvm12GCOVFunctionENS_14default_deleteIS2_EEEE",
   "source_file" : "external/llvm/include/llvm/ADT/STLExtras.h",
   "template_args" : [ "_ZTIN4llvm12GCOVFunctionE" ]
  },
  {
   "function_name" : "llvm::make_unique",
   "linker_set_key" : "_ZN4llvm11make_uniqueINS_14raw_fd_ostreamEJRNS_9StringRefERNSt3__110error_codeENS_3sys2fs9OpenFlagsEEEENS4_9enable_ifIXntsr3std8is_arrayIT_EE5valueENS4_10unique_ptrISB_NS4_14default_deleteISB_EEEEE4typeEDpOT0_",
   "parameters" :
   [
    {
     "referenced_type" : "_ZTIRN4llvm9StringRefE"
    },
    {
     "referenced_type" : "_ZTIRNSt3__110error_codeE"
    },
    {
     "referenced_type" : "_ZTION4llvm3sys2fs9OpenFlagsE"
    }
   ],
   "return_type" : "_ZTINSt3__110unique_ptrIN4llvm14raw_fd_ostreamENS_14default_deleteIS2_EEEE",
   "source_file" : "external/llvm/include/llvm/ADT/STLExtras.h",
   "template_args" : [ "_ZTIN4llvm14raw_fd_ostreamE" ]
  },
  {
   "function_name" : "llvm::make_unique",
   "linker_set_key" : "_ZN4llvm11make_uniqueINS_16raw_null_ostreamEJEEENSt3__19enable_ifIXntsr3std8is_arrayIT_EE5valueENS2_10unique_ptrIS4_NS2_14default_deleteIS4_EEEEE4typeEDpOT0_",
   "return_type" : "_ZTINSt3__110unique_ptrIN4llvm16raw_null_ostreamENS_14default_deleteIS2_EEEE",
   "source_file" : "external/llvm/include/llvm/ADT/STLExtras.h",
   "template_args" : [ "_ZTIN4llvm16raw_null_ostreamE" ]
  },
  {
   "function_name" : "llvm::make_unique",
   "linker_set_key" : "_ZN4llvm11make_uniqueINS_8GCOVEdgeEJRNS_9GCOVBlockES3_EEENSt3__19enable_ifIXntsr3std8is_arrayIT_EE5valueENS4_10unique_ptrIS6_NS4_14default_deleteIS6_EEEEE4typeEDpOT0_",
   "parameters" :
   [
    {
     "referenced_type" : "_ZTIRN4llvm9GCOVBlockE"
    },
    {
     "referenced_type" : "_ZTIRN4llvm9GCOVBlockE"
    }
   ],
   "return_type" : "_ZTINSt3__110unique_ptrIN4llvm8GCOVEdgeENS_14default_deleteIS2_EEEE",
   "source_file" : "external/llvm/include/llvm/ADT/STLExtras.h",
   "template_args" : [ "_ZTIN4llvm8GCOVEdgeE" ]
  },
  {
   "function_name" : "llvm::make_unique",
   "linker_set_key" : "_ZN4llvm11make_uniqueINS_9GCOVBlockEJRNS_12GCOVFunctionERjEEENSt3__19enable_ifIXntsr3std8is_arrayIT_EE5valueENS5_10unique_ptrIS7_NS5_14default_deleteIS7_EEEEE4typeEDpOT0_",
   "parameters" :
   [
    {
     "referenced_type" : "_ZTIRN4llvm12GCOVFunctionE"
    },
    {
     "referenced_type" : "_ZTIRj"
    }
   ],
   "return_type" : "_ZTINSt3__110unique_ptrIN4llvm9GCOVBlockENS_14default_deleteIS2_EEEE",
   "source_file" : "external/llvm/include/llvm/ADT/STLExtras.h",
   "template_args" : [ "_ZTIN4llvm9GCOVBlockE" ]
  },
  {
   "function_name" : "llvm::raw_ostream::resetColor",
   "linker_set_key" : "_ZN4llvm11raw_ostream10resetColorEv",
   "parameters" :
   [
    {
     "is_this_ptr" : true,
     "referenced_type" : "_ZTIPN4llvm11raw_ostreamE"
    }
   ],
   "return_type" : "_ZTIRN4llvm11raw_ostreamE",
   "source_file" : "external/llvm/include/llvm/Support/raw_ostream.h"
  },
  {
   "function_name" : "llvm::raw_ostream::changeColor",
   "linker_set_key" : "_ZN4llvm11raw_ostream11changeColorENS0_6ColorsEbb",
   "parameters" :
   [
    {
     "is_this_ptr" : true,
     "referenced_type" : "_ZTIPN4llvm11raw_ostreamE"
    },
    {
     "referenced_type" : "_ZTIN4llvm11raw_ostream6ColorsE"
    },
    {
     "default_arg" : true,
     "referenced_type" : "_ZTIb"
    },
    {
     "default_arg" : true,
     "referenced_type" : "_ZTIb"
    }
   ],
   "return_type" : "_ZTIRN4llvm11raw_ostreamE",
   "source_file" : "external/llvm/include/llvm/Support/raw_ostream.h"
  },
  {
   "function_name" : "llvm::raw_ostream::reverseColor",
   "linker_set_key" : "_ZN4llvm11raw_ostream12reverseColorEv",
   "parameters" :
   [
    {
     "is_this_ptr" : true,
     "referenced_type" : "_ZTIPN4llvm11raw_ostreamE"
    }
   ],
   "return_type" : "_ZTIRN4llvm11raw_ostreamE",
   "source_file" : "external/llvm/include/llvm/Support/raw_ostream.h"
  },
  {
   "function_name" : "llvm::raw_ostream::SetBufferSize",
   "linker_set_key" : "_ZN4llvm11raw_ostream13SetBufferSizeEm",
   "parameters" :
   [
    {
     "is_this_ptr" : true,
     "referenced_type" : "_ZTIPN4llvm11raw_ostreamE"
    },
    {
     "referenced_type" : "_ZTIm"
    }
   ],
   "return_type" : "_ZTIv",
   "source_file" : "external/llvm/include/llvm/Support/raw_ostream.h"
  },
  {
   "function_name" : "llvm::raw_ostream::SetUnbuffered",
   "linker_set_key" : "_ZN4llvm11raw_ostream13SetUnbufferedEv",
   "parameters" :
   [
    {
     "is_this_ptr" : true,
     "referenced_type" : "_ZTIPN4llvm11raw_ostreamE"
    }
   ],
   "return_type" : "_ZTIv",
   "source_file" : "external/llvm/include/llvm/Support/raw_ostream.h"
  },
  {
   "function_name" : "llvm::raw_ostream::flush",
   "linker_set_key" : "_ZN4llvm11raw_ostream5flushEv",
   "parameters" :
   [
    {
     "is_this_ptr" : true,
     "referenced_type" : "_ZTIPN4llvm11raw_ostreamE"
    }
   ],
   "return_type" : "_ZTIv",
   "source_file" : "external/llvm/include/llvm/Support/raw_ostream.h"
  },
  {
   "access" : "protected",
   "function_name" : "llvm::raw_ostream::SetBuffer",
   "linker_set_key" : "_ZN4llvm11raw_ostream9SetBufferEPcm",
   "parameters" :
   [
    {
     "is_this_ptr" : true,
     "referenced_type" : "_ZTIPN4llvm11raw_ostreamE"
    },
    {
     "referenced_type" : "_ZTIPc"
    },
    {
     "referenced_type" : "_ZTIm"
    }
   ],
   "return_type" : "_ZTIv",
   "source_file" : "external/llvm/include/llvm/Support/raw_ostream.h"
  },
  {
   "function_name" : "llvm::raw_ostream::raw_ostream",
   "linker_set_key" : "_ZN4llvm11raw_ostreamC2Eb",
   "parameters" :
   [
    {
     "is_this_ptr" : true,
     "referenced_type" : "_ZTIPN4llvm11raw_ostreamE"
    },
    {
     "default_arg" : true,
     "referenced_type" : "_ZTIb"
    }
   ],
   "return_type" : "_ZTIv",
   "source_file" : "external/llvm/include/llvm/Support/raw_ostream.h"
  },
  {
   "function_name" : "llvm::raw_ostream::operator<<",
   "linker_set_key" : "_ZN4llvm11raw_ostreamlsENS_9StringRefE",
   "parameters" :
   [
    {
     "is_this_ptr" : true,
     "referenced_type" : "_ZTIPN4llvm11raw_ostreamE"
    },
    {
     "referenced_type" : "_ZTIN4llvm9StringRefE"
    }
   ],
   "return_type" : "_ZTIRN4llvm11raw_ostreamE",
   "source_file" : "external/llvm/include/llvm/Support/raw_ostream.h"
  },
  {
   "function_name" : "llvm::raw_ostream::operator<<",
   "linker_set_key" : "_ZN4llvm11raw_ostreamlsEPKc",
   "parameters" :
   [
    {
     "is_this_ptr" : true,
     "referenced_type" : "_ZTIPN4llvm11raw_ostreamE"
    },
    {
     "referenced_type" : "_ZTIPKc"
    }
   ],
   "return_type" : "_ZTIRN4llvm11raw_ostreamE",
   "source_file" : "external/llvm/include/llvm/Support/raw_ostream.h"
  },
  {
   "function_name" : "llvm::raw_ostream::operator<<",
   "linker_set_key" : "_ZN4llvm11raw_ostreamlsERKNS_15SmallVectorImplIcEE",
   "parameters" :
   [
    {
     "is_this_ptr" : true,
     "referenced_type" : "_ZTIPN4llvm11raw_ostreamE"
    },
    {
     "referenced_type" : "_ZTIRKN4llvm15SmallVectorImplIcEE"
    }
   ],
   "return_type" : "_ZTIRN4llvm11raw_ostreamE",
   "source_file" : "external/llvm/include/llvm/Support/raw_ostream.h"
  },
  {
   "function_name" : "llvm::raw_ostream::operator<<",
   "linker_set_key" : "_ZN4llvm11raw_ostreamlsERKNSt3__112basic_stringIcNS1_11char_traitsIcEENS1_9allocatorIcEEEE",
   "parameters" :
   [
    {
     "is_this_ptr" : true,
     "referenced_type" : "_ZTIPN4llvm11raw_ostreamE"
    },
    {
     "referenced_type" : "_ZTIRKNSt3__112basic_stringIcNS_11char_traitsIcEENS_9allocatorIcEEEE"
    }
   ],
   "return_type" : "_ZTIRN4llvm11raw_ostreamE",
   "source_file" : "external/llvm/include/llvm/Support/raw_ostream.h"
  },
  {
   "function_name" : "llvm::raw_ostream::operator<<",
   "linker_set_key" : "_ZN4llvm11raw_ostreamlsEa",
   "parameters" :
   [
    {
     "is_this_ptr" : true,
     "referenced_type" : "_ZTIPN4llvm11raw_ostreamE"
    },
    {
     "referenced_type" : "_ZTIa"
    }
   ],
   "return_type" : "_ZTIRN4llvm11raw_ostreamE",
   "source_file" : "external/llvm/include/llvm/Support/raw_ostream.h"
  },
  {
   "function_name" : "llvm::raw_ostream::operator<<",
   "linker_set_key" : "_ZN4llvm11raw_ostreamlsEc",
   "parameters" :
   [
    {
     "is_this_ptr" : true,
     "referenced_type" : "_ZTIPN4llvm11raw_ostreamE"
    },
    {
     "referenced_type" : "_ZTIc"
    }
   ],
   "return_type" : "_ZTIRN4llvm11raw_ostreamE",
   "source_file" : "external/llvm/include/llvm/Support/raw_ostream.h"
  },
  {
   "function_name" : "llvm::raw_ostream::operator<<",
   "linker_set_key" : "_ZN4llvm11raw_ostreamlsEh",
   "parameters" :
   [
    {
     "is_this_ptr" : true,
     "referenced_type" : "_ZTIPN4llvm11raw_ostreamE"
    },
    {
     "referenced_type" : "_ZTIh"
    }
   ],
   "return_type" : "_ZTIRN4llvm11raw_ostreamE",
   "source_file" : "external/llvm/include/llvm/Support/raw_ostream.h"
  },
  {
   "function_name" : "llvm::raw_ostream::operator<<",
   "linker_set_key" : "_ZN4llvm11raw_ostreamlsEi",
   "parameters" :
   [
    {
     "is_this_ptr" : true,
     "referenced_type" : "_ZTIPN4llvm11raw_ostreamE"
    },
    {
     "referenced_type" : "_ZTIi"
    }
   ],
   "return_type" : "_ZTIRN4llvm11raw_ostreamE",
   "source_file" : "external/llvm/include/llvm/Support/raw_ostream.h"
  },
  {
   "function_name" : "llvm::raw_ostream::operator<<",
   "linker_set_key" : "_ZN4llvm11raw_ostreamlsEj",
   "parameters" :
   [
    {
     "is_this_ptr" : true,
     "referenced_type" : "_ZTIPN4llvm11raw_ostreamE"
    },
    {
     "referenced_type" : "_ZTIj"
    }
   ],
   "return_type" : "_ZTIRN4llvm11raw_ostreamE",
   "source_file" : "external/llvm/include/llvm/Support/raw_ostream.h"
  },
  {
   "function_name" : "llvm::BitsToDouble",
   "linker_set_key" : "_ZN4llvm12BitsToDoubleEm",
   "parameters" :
   [
    {
     "referenced_type" : "_ZTIm"
    }
   ],
   "return_type" : "_ZTId",
   "source_file" : "external/llvm/include/llvm/Support/MathExtras.h"
  },
  {
   "access" : "protected",
   "function_name" : "llvm::DenseMapBase<llvm::DenseMap<const llvm::GCOVFunction *, bool, llvm::DenseMapInfo<const llvm::GCOVFunction *>, llvm::detail::DenseMapPair<const llvm::GCOVFunction *, bool>>, const llvm::GCOVFunction *, bool, llvm::DenseMapInfo<const llvm::GCOVFunction *>, llvm::detail::DenseMapPair<const llvm::GCOVFunction *, bool>>::destroyAll",
   "linker_set_key" : "_ZN4llvm12DenseMapBaseINS_8DenseMapIPKNS_12GCOVFunctionEbNS_12DenseMapInfoIS4_EENS_6detail12DenseMapPairIS4_bEEEES4_bS6_S9_E10destroyAllEv",
   "parameters" :
   [
    {
     "is_this_ptr" : true,
     "referenced_type" : "_ZTIPN4llvm12DenseMapBaseINS_8DenseMapIPKNS_12GCOVFunctionEbNS_12DenseMapInfoIS4_EENS_6detail12DenseMapPairIS4_bEEEES4_bS6_S9_EE"
    }
   ],
   "return_type" : "_ZTIv",
   "source_file" : "external/llvm/include/llvm/ADT/DenseMap.h"
  },
  {
   "access" : "private",
   "function_name" : "llvm::DenseMapBase<llvm::DenseMap<const llvm::GCOVFunction *, bool, llvm::DenseMapInfo<const llvm::GCOVFunction *>, llvm::detail::DenseMapPair<const llvm::GCOVFunction *, bool>>, const llvm::GCOVFunction *, bool, llvm::DenseMapInfo<const llvm::GCOVFunction *>, llvm::detail::DenseMapPair<const llvm::GCOVFunction *, bool>>::getBuckets",
   "linker_set_key" : "_ZN4llvm12DenseMapBaseINS_8DenseMapIPKNS_12GCOVFunctionEbNS_12DenseMapInfoIS4_EENS_6detail12DenseMapPairIS4_bEEEES4_bS6_S9_E10getBucketsEv",
   "parameters" :
   [
    {
     "is_this_ptr" : true,
     "referenced_type" : "_ZTIPN4llvm12DenseMapBaseINS_8DenseMapIPKNS_12GCOVFunctionEbNS_12DenseMapInfoIS4_EENS_6detail12DenseMapPairIS4_bEEEES4_bS6_S9_EE"
    }
   ],
   "return_type" : "_ZTIPN4llvm6detail12DenseMapPairIPKNS_12GCOVFunctionEbEE",
   "source_file" : "external/llvm/include/llvm/ADT/DenseMap.h"
  },
  {
   "access" : "protected",
   "function_name" : "llvm::DenseMapBase<llvm::DenseMap<const llvm::GCOVFunction *, bool, llvm::DenseMapInfo<const llvm::GCOVFunction *>, llvm::detail::DenseMapPair<const llvm::GCOVFunction *, bool>>, const llvm::GCOVFunction *, bool, llvm::DenseMapInfo<const llvm::GCOVFunction *>, llvm::detail::DenseMapPair<const llvm::GCOVFunction *, bool>>::getEmptyKey",
   "linker_set_key" : "_ZN4llvm12DenseMapBaseINS_8DenseMapIPKNS_12GCOVFunctionEbNS_12DenseMapInfoIS4_EENS_6detail12DenseMapPairIS4_bEEEES4_bS6_S9_E11getEmptyKeyEv",
   "return_type" : "_ZTIKPKN4llvm12GCOVFunctionE",
   "source_file" : "external/llvm/include/llvm/ADT/DenseMap.h"
  },
  {
   "access" : "protected",
   "function_name" : "llvm::DenseMapBase<llvm::DenseMap<const llvm::GCOVFunction *, bool, llvm::DenseMapInfo<const llvm::GCOVFunction *>, llvm::detail::DenseMapPair<const llvm::GCOVFunction *, bool>>, const llvm::GCOVFunction *, bool, llvm::DenseMapInfo<const llvm::GCOVFunction *>, llvm::detail::DenseMapPair<const llvm::GCOVFunction *, bool>>::getHashValue",
   "linker_set_key" : "_ZN4llvm12DenseMapBaseINS_8DenseMapIPKNS_12GCOVFunctionEbNS_12DenseMapInfoIS4_EENS_6detail12DenseMapPairIS4_bEEEES4_bS6_S9_E12getHashValueERKS4_",
   "parameters" :
   [
    {
     "referenced_type" : "_ZTIRKPKN4llvm12GCOVFunctionE"
    }
   ],
   "return_type" : "_ZTIj",
   "source_file" : "external/llvm/include/llvm/ADT/DenseMap.h"
  },
  {
   "access" : "private",
   "function_name" : "llvm::DenseMapBase<llvm::DenseMap<const llvm::GCOVFunction *, bool, llvm::DenseMapInfo<const llvm::GCOVFunction *>, llvm::detail::DenseMapPair<const llvm::GCOVFunction *, bool>>, const llvm::GCOVFunction *, bool, llvm::DenseMapInfo<const llvm::GCOVFunction *>, llvm::detail::DenseMapPair<const llvm::GCOVFunction *, bool>>::getBucketsEnd",
   "linker_set_key" : "_ZN4llvm12DenseMapBaseINS_8DenseMapIPKNS_12GCOVFunctionEbNS_12DenseMapInfoIS4_EENS_6detail12DenseMapPairIS4_bEEEES4_bS6_S9_E13getBucketsEndEv",
   "parameters" :
   [
    {
     "is_this_ptr" : true,
     "referenced_type" : "_ZTIPN4llvm12DenseMapBaseINS_8DenseMapIPKNS_12GCOVFunctionEbNS_12DenseMapInfoIS4_EENS_6detail12DenseMapPairIS4_bEEEES4_bS6_S9_EE"
    }
   ],
   "return_type" : "_ZTIPN4llvm6detail12DenseMapPairIPKNS_12GCOVFunctionEbEE",
   "source_file" : "external/llvm/include/llvm/ADT/DenseMap.h"
  },
  {
   "access" : "private",
   "function_name" : "llvm::DenseMapBase<llvm::DenseMap<const llvm::GCOVFunction *, bool, llvm::DenseMapInfo<const llvm::GCOVFunction *>, llvm::detail::DenseMapPair<const llvm::GCOVFunction *, bool>>, const llvm::GCOVFunction *, bool, llvm::DenseMapInfo<const llvm::GCOVFunction *>, llvm::detail::DenseMapPair<const llvm::GCOVFunction *, bool>>::setNumEntries",
   "linker_set_key" : "_ZN4llvm12DenseMapBaseINS_8DenseMapIPKNS_12GCOVFunctionEbNS_12DenseMapInfoIS4_EENS_6detail12DenseMapPairIS4_bEEEES4_bS6_S9_E13setNumEntriesEj",
   "parameters" :
   [
    {
     "is_this_ptr" : true,
     "referenced_type" : "_ZTIPN4llvm12DenseMapBaseINS_8DenseMapIPKNS_12GCOVFunctionEbNS_12DenseMapInfoIS4_EENS_6detail12DenseMapPairIS4_bEEEES4_bS6_S9_EE"
    },
    {
     "referenced_type" : "_ZTIj"
    }
   ],
   "return_type" : "_ZTIv",
   "source_file" : "external/llvm/include/llvm/ADT/DenseMap.h"
  },
  {
   "access" : "private",
   "function_name" : "llvm::DenseMapBase<llvm::DenseMap<const llvm::GCOVFunction *, bool, llvm::DenseMapInfo<const llvm::GCOVFunction *>, llvm::detail::DenseMapPair<const llvm::GCOVFunction *, bool>>, const llvm::GCOVFunction *, bool, llvm::DenseMapInfo<const llvm::GCOVFunction *>, llvm::detail::DenseMapPair<const llvm::GCOVFunction *, bool>>::LookupBucketFor",
   "linker_set_key" : "_ZN4llvm12DenseMapBaseINS_8DenseMapIPKNS_12GCOVFunctionEbNS_12DenseMapInfoIS4_EENS_6detail12DenseMapPairIS4_bEEEES4_bS6_S9_E15LookupBucketForIS4_EEbRKT_RPS9_",
   "parameters" :
   [
    {
     "is_this_ptr" : true,
     "referenced_type" : "_ZTIPN4llvm12DenseMapBaseINS_8DenseMapIPKNS_12GCOVFunctionEbNS_12DenseMapInfoIS4_EENS_6detail12DenseMapPairIS4_bEEEES4_bS6_S9_EE"
    },
    {
     "referenced_type" : "_ZTIRKPKN4llvm12GCOVFunctionE"
    },
    {
     "referenced_type" : "_ZTIRPN4llvm6detail12DenseMapPairIPKNS_12GCOVFunctionEbEE"
    }
   ],
   "return_type" : "_ZTIb",
   "source_file" : "external/llvm/include/llvm/ADT/DenseMap.h",
   "template_args" : [ "_ZTIPKN4llvm12GCOVFunctionE" ]
  },
  {
   "access" : "protected",
   "function_name" : "llvm::DenseMapBase<llvm::DenseMap<const llvm::GCOVFunction *, bool, llvm::DenseMapInfo<const llvm::GCOVFunction *>, llvm::detail::DenseMapPair<const llvm::GCOVFunction *, bool>>, const llvm::GCOVFunction *, bool, llvm::DenseMapInfo<const llvm::GCOVFunction *>, llvm::detail::DenseMapPair<const llvm::GCOVFunction *, bool>>::getTombstoneKey",
   "linker_set_key" : "_ZN4llvm12DenseMapBaseINS_8DenseMapIPKNS_12GCOVFunctionEbNS_12DenseMapInfoIS4_EENS_6detail12DenseMapPairIS4_bEEEES4_bS6_S9_E15getTombstoneKeyEv",
   "return_type" : "_ZTIKPKN4llvm12GCOVFunctionE",
   "source_file" : "external/llvm/include/llvm/ADT/DenseMap.h"
  },
  {
   "function_name" : "llvm::DenseMapBase<llvm::DenseMap<const llvm::GCOVFunction *, bool, llvm::DenseMapInfo<const llvm::GCOVFunction *>, llvm::detail::DenseMapPair<const llvm::GCOVFunction *, bool>>, const llvm::GCOVFunction *, bool, llvm::DenseMapInfo<const llvm::GCOVFunction *>, llvm::detail::DenseMapPair<const llvm::GCOVFunction *, bool>>::FindAndConstruct",
   "linker_set_key" : "_ZN4llvm12DenseMapBaseINS_8DenseMapIPKNS_12GCOVFunctionEbNS_12DenseMapInfoIS4_EENS_6detail12DenseMapPairIS4_bEEEES4_bS6_S9_E16FindAndConstructERKS4_",
   "parameters" :
   [
    {
     "is_this_ptr" : true,
     "referenced_type" : "_ZTIPN4llvm12DenseMapBaseINS_8DenseMapIPKNS_12GCOVFunctionEbNS_12DenseMapInfoIS4_EENS_6detail12DenseMapPairIS4_bEEEES4_bS6_S9_EE"
    },
    {
     "referenced_type" : "_ZTIRKPKN4llvm12GCOVFunctionE"
    }
   ],
   "return_type" : "_ZTIRN4llvm6detail12DenseMapPairIPKNS_12GCOVFunctionEbEE",
   "source_file" : "external/llvm/include/llvm/ADT/DenseMap.h"
  },
  {
   "access" : "private",
   "function_name" : "llvm::DenseMapBase<llvm::DenseMap<const llvm::GCOVFunction *, bool, llvm::DenseMapInfo<const llvm::GCOVFunction *>, llvm::detail::DenseMapPair<const llvm::GCOVFunction *, bool>>, const llvm::GCOVFunction *, bool, llvm::DenseMapInfo<const llvm::GCOVFunction *>, llvm::detail::DenseMapPair<const llvm::GCOVFunction *, bool>>::InsertIntoBucket",
   "linker_set_key" : "_ZN4llvm12DenseMapBaseINS_8DenseMapIPKNS_12GCOVFunctionEbNS_12DenseMapInfoIS4_EENS_6detail12DenseMapPairIS4_bEEEES4_bS6_S9_E16InsertIntoBucketERKS4_ObPS9_",
   "parameters" :
   [
    {
     "is_this_ptr" : true,
     "referenced_type" : "_ZTIPN4llvm12DenseMapBaseINS_8DenseMapIPKNS_12GCOVFunctionEbNS_12DenseMapInfoIS4_EENS_6detail12DenseMapPairIS4_bEEEES4_bS6_S9_EE"
    },
    {
     "referenced_type" : "_ZTIRKPKN4llvm12GCOVFunctionE"
    },
    {
     "referenced_type" : "_ZTIOb"
    },
    {
     "referenced_type" : "_ZTIPN4llvm6detail12DenseMapPairIPKNS_12GCOVFunctionEbEE"
    }
   ],
   "return_type" : "_ZTIPN4llvm6detail12DenseMapPairIPKNS_12GCOVFunctionEbEE",
   "source_file" : "external/llvm/include/llvm/ADT/DenseMap.h"
  },
  {
   "access" : "private",
   "function_name" : "llvm::DenseMapBase<llvm::DenseMap<const llvm::GCOVFunction *, bool, llvm::DenseMapInfo<const llvm::GCOVFunction *>, llvm::detail::DenseMapPair<const llvm::GCOVFunction *, bool>>, const llvm::GCOVFunction *, bool, llvm::DenseMapInfo<const llvm::GCOVFunction *>, llvm::detail::DenseMapPair<const llvm::GCOVFunction *, bool>>::setNumTombstones",
   "linker_set_key" : "_ZN4llvm12DenseMapBaseINS_8DenseMapIPKNS_12GCOVFunctionEbNS_12DenseMapInfoIS4_EENS_6detail12DenseMapPairIS4_bEEEES4_bS6_S9_E16setNumTombstonesEj",
   "parameters" :
   [
    {
     "is_this_ptr" : true,
     "referenced_type" : "_ZTIPN4llvm12DenseMapBaseINS_8DenseMapIPKNS_12GCOVFunctionEbNS_12DenseMapInfoIS4_EENS_6detail12DenseMapPairIS4_bEEEES4_bS6_S9_EE"
    },
    {
     "referenced_type" : "_ZTIj"
    }
   ],
   "return_type" : "_ZTIv",
   "source_file" : "external/llvm/include/llvm/ADT/DenseMap.h"
  },
  {
   "access" : "protected",
   "function_name" : "llvm::DenseMapBase<llvm::DenseMap<const llvm::GCOVFunction *, bool, llvm::DenseMapInfo<const llvm::GCOVFunction *>, llvm::detail::DenseMapPair<const llvm::GCOVFunction *, bool>>, const llvm::GCOVFunction *, bool, llvm::DenseMapInfo<const llvm::GCOVFunction *>, llvm::detail::DenseMapPair<const llvm::GCOVFunction *, bool>>::moveFromOldBuckets",
   "linker_set_key" : "_ZN4llvm12DenseMapBaseINS_8DenseMapIPKNS_12GCOVFunctionEbNS_12DenseMapInfoIS4_EENS_6detail12DenseMapPairIS4_bEEEES4_bS6_S9_E18moveFromOldBucketsEPS9_SC_",
   "parameters" :
   [
    {
     "is_this_ptr" : true,
     "referenced_type" : "_ZTIPN4llvm12DenseMapBaseINS_8DenseMapIPKNS_12GCOVFunctionEbNS_12DenseMapInfoIS4_EENS_6detail12DenseMapPairIS4_bEEEES4_bS6_S9_EE"
    },
    {
     "referenced_type" : "_ZTIPN4llvm6detail12DenseMapPairIPKNS_12GCOVFunctionEbEE"
    },
    {
     "referenced_type" : "_ZTIPN4llvm6detail12DenseMapPairIPKNS_12GCOVFunctionEbEE"
    }
   ],
   "return_type" : "_ZTIv",
   "source_file" : "external/llvm/include/llvm/ADT/DenseMap.h"
  },
  {
   "access" : "private",
   "function_name" : "llvm::DenseMapBase<llvm::DenseMap<const llvm::GCOVFunction *, bool, llvm::DenseMapInfo<const llvm::GCOVFunction *>, llvm::detail::DenseMapPair<const llvm::GCOVFunction *, bool>>, const llvm::GCOVFunction *, bool, llvm::DenseMapInfo<const llvm::GCOVFunction *>, llvm::detail::DenseMapPair<const llvm::GCOVFunction *, bool>>::incrementNumEntries",
   "linker_set_key" : "_ZN4llvm12DenseMapBaseINS_8DenseMapIPKNS_12GCOVFunctionEbNS_12DenseMapInfoIS4_EENS_6detail12DenseMapPairIS4_bEEEES4_bS6_S9_E19incrementNumEntriesEv",
   "parameters" :
   [
    {
     "is_this_ptr" : true,
     "referenced_type" : "_ZTIPN4llvm12DenseMapBaseINS_8DenseMapIPKNS_12GCOVFunctionEbNS_12DenseMapInfoIS4_EENS_6detail12DenseMapPairIS4_bEEEES4_bS6_S9_EE"
    }
   ],
   "return_type" : "_ZTIv",
   "source_file" : "external/llvm/include/llvm/ADT/DenseMap.h"
  },
  {
   "access" : "private",
   "function_name" : "llvm::DenseMapBase<llvm::DenseMap<const llvm::GCOVFunction *, bool, llvm::DenseMapInfo<const llvm::GCOVFunction *>, llvm::detail::DenseMapPair<const llvm::GCOVFunction *, bool>>, const llvm::GCOVFunction *, bool, llvm::DenseMapInfo<const llvm::GCOVFunction *>, llvm::detail::DenseMapPair<const llvm::GCOVFunction *, bool>>::InsertIntoBucketImpl",
   "linker_set_key" : "_ZN4llvm12DenseMapBaseINS_8DenseMapIPKNS_12GCOVFunctionEbNS_12DenseMapInfoIS4_EENS_6detail12DenseMapPairIS4_bEEEES4_bS6_S9_E20InsertIntoBucketImplIS4_EEPS9_RKS4_RKT_SD_",
   "parameters" :
   [
    {
     "is_this_ptr" : true,
     "referenced_type" : "_ZTIPN4llvm12DenseMapBaseINS_8DenseMapIPKNS_12GCOVFunctionEbNS_12DenseMapInfoIS4_EENS_6detail12DenseMapPairIS4_bEEEES4_bS6_S9_EE"
    },
    {
     "referenced_type" : "_ZTIRKPKN4llvm12GCOVFunctionE"
    },
    {
     "referenced_type" : "_ZTIRKPKN4llvm12GCOVFunctionE"
    },
    {
     "referenced_type" : "_ZTIPN4llvm6detail12DenseMapPairIPKNS_12GCOVFunctionEbEE"
    }
   ],
   "return_type" : "_ZTIPN4llvm6detail12DenseMapPairIPKNS_12GCOVFunctionEbEE",
   "source_file" : "external/llvm/include/llvm/ADT/DenseMap.h",
   "template_args" : [ "_ZTIPKN4llvm12GCOVFunctionE" ]
  },
  {
   "access" : "private",
   "function_name" : "llvm::DenseMapBase<llvm::DenseMap<const llvm::GCOVFunction *, bool, llvm::DenseMapInfo<const llvm::GCOVFunction *>, llvm::detail::DenseMapPair<const llvm::GCOVFunction *, bool>>, const llvm::GCOVFunction *, bool, llvm::DenseMapInfo<const llvm::GCOVFunction *>, llvm::detail::DenseMapPair<const llvm::GCOVFunction *, bool>>::decrementNumTombstones",
   "linker_set_key" : "_ZN4llvm12DenseMapBaseINS_8DenseMapIPKNS_12GCOVFunctionEbNS_12DenseMapInfoIS4_EENS_6detail12DenseMapPairIS4_bEEEES4_bS6_S9_E22decrementNumTombstonesEv",
   "parameters" :
   [
    {
     "is_this_ptr" : true,
     "referenced_type" : "_ZTIPN4llvm12DenseMapBaseINS_8DenseMapIPKNS_12GCOVFunctionEbNS_12DenseMapInfoIS4_EENS_6detail12DenseMapPairIS4_bEEEES4_bS6_S9_EE"
    }
   ],
   "return_type" : "_ZTIv",
   "source_file" : "external/llvm/include/llvm/ADT/DenseMap.h"
  },
  {
   "access" : "protected",
   "function_name" : "llvm::DenseMapBase<llvm::DenseMap<const llvm::GCOVFunction *, bool, llvm::DenseMapInfo<const llvm::GCOVFunction *>, llvm::detail::DenseMapPair<const llvm::GCOVFunction *, bool>>, const llvm::GCOVFunction *, bool, llvm::DenseMapInfo<const llvm::GCOVFunction *>, llvm::detail::DenseMapPair<const llvm::GCOVFunction *, bool>>::getMinBucketToReserveForEntries",
   "linker_set_key" : "_ZN4llvm12DenseMapBaseINS_8DenseMapIPKNS_12GCOVFunctionEbNS_12DenseMapInfoIS4_EENS_6detail12DenseMapPairIS4_bEEEES4_bS6_S9_E31getMinBucketToReserveForEntriesEj",
   "parameters" :
   [
    {
     "is_this_ptr" : true,
     "referenced_type" : "_ZTIPN4llvm12DenseMapBaseINS_8DenseMapIPKNS_12GCOVFunctionEbNS_12DenseMapInfoIS4_EENS_6detail12DenseMapPairIS4_bEEEES4_bS6_S9_EE"
    },
    {
     "referenced_type" : "_ZTIj"
    }
   ],
   "return_type" : "_ZTIj",
   "source_file" : "external/llvm/include/llvm/ADT/DenseMap.h"
  },
  {
   "function_name" : "llvm::DenseMapBase<llvm::DenseMap<const llvm::GCOVFunction *, bool, llvm::DenseMapInfo<const llvm::GCOVFunction *>, llvm::detail::DenseMapPair<const llvm::GCOVFunction *, bool>>, const llvm::GCOVFunction *, bool, llvm::DenseMapInfo<const llvm::GCOVFunction *>, llvm::detail::DenseMapPair<const llvm::GCOVFunction *, bool>>::end",
   "linker_set_key" : "_ZN4llvm12DenseMapBaseINS_8DenseMapIPKNS_12GCOVFunctionEbNS_12DenseMapInfoIS4_EENS_6detail12DenseMapPairIS4_bEEEES4_bS6_S9_E3endEv",
   "parameters" :
   [
    {
     "is_this_ptr" : true,
     "referenced_type" : "_ZTIPN4llvm12DenseMapBaseINS_8DenseMapIPKNS_12GCOVFunctionEbNS_12DenseMapInfoIS4_EENS_6detail12DenseMapPairIS4_bEEEES4_bS6_S9_EE"
    }
   ],
   "return_type" : "_ZTIN4llvm16DenseMapIteratorIPKNS_12GCOVFunctionEbNS_12DenseMapInfoIS3_EENS_6detail12DenseMapPairIS3_bEELb0EEE",
   "source_file" : "external/llvm/include/llvm/ADT/DenseMap.h"
  },
  {
   "function_name" : "llvm::DenseMapBase<llvm::DenseMap<const llvm::GCOVFunction *, bool, llvm::DenseMapInfo<const llvm::GCOVFunction *>, llvm::detail::DenseMapPair<const llvm::GCOVFunction *, bool>>, const llvm::GCOVFunction *, bool, llvm::DenseMapInfo<const llvm::GCOVFunction *>, llvm::detail::DenseMapPair<const llvm::GCOVFunction *, bool>>::find",
   "linker_set_key" : "_ZN4llvm12DenseMapBaseINS_8DenseMapIPKNS_12GCOVFunctionEbNS_12DenseMapInfoIS4_EENS_6detail12DenseMapPairIS4_bEEEES4_bS6_S9_E4findERKS4_",
   "parameters" :
   [
    {
     "is_this_ptr" : true,
     "referenced_type" : "_ZTIPN4llvm12DenseMapBaseINS_8DenseMapIPKNS_12GCOVFunctionEbNS_12DenseMapInfoIS4_EENS_6detail12DenseMapPairIS4_bEEEES4_bS6_S9_EE"
    },
    {
     "referenced_type" : "_ZTIRKPKN4llvm12GCOVFunctionE"
    }
   ],
   "return_type" : "_ZTIN4llvm16DenseMapIteratorIPKNS_12GCOVFunctionEbNS_12DenseMapInfoIS3_EENS_6detail12DenseMapPairIS3_bEELb0EEE",
   "source_file" : "external/llvm/include/llvm/ADT/DenseMap.h"
  },
  {
   "access" : "private",
   "function_name" : "llvm::DenseMapBase<llvm::DenseMap<const llvm::GCOVFunction *, bool, llvm::DenseMapInfo<const llvm::GCOVFunction *>, llvm::detail::DenseMapPair<const llvm::GCOVFunction *, bool>>, const llvm::GCOVFunction *, bool, llvm::DenseMapInfo<const llvm::GCOVFunction *>, llvm::detail::DenseMapPair<const llvm::GCOVFunction *, bool>>::grow",
   "linker_set_key" : "_ZN4llvm12DenseMapBaseINS_8DenseMapIPKNS_12GCOVFunctionEbNS_12DenseMapInfoIS4_EENS_6detail12DenseMapPairIS4_bEEEES4_bS6_S9_E4growEj",
   "parameters" :
   [
    {
     "is_this_ptr" : true,
     "referenced_type" : "_ZTIPN4llvm12DenseMapBaseINS_8DenseMapIPKNS_12GCOVFunctionEbNS_12DenseMapInfoIS4_EENS_6detail12DenseMapPairIS4_bEEEES4_bS6_S9_EE"
    },
    {
     "referenced_type" : "_ZTIj"
    }
   ],
   "return_type" : "_ZTIv",
   "source_file" : "external/llvm/include/llvm/ADT/DenseMap.h"
  },
  {
   "access" : "protected",
   "function_name" : "llvm::DenseMapBase<llvm::DenseMap<const llvm::GCOVFunction *, bool, llvm::DenseMapInfo<const llvm::GCOVFunction *>, llvm::detail::DenseMapPair<const llvm::GCOVFunction *, bool>>, const llvm::GCOVFunction *, bool, llvm::DenseMapInfo<const llvm::GCOVFunction *>, llvm::detail::DenseMapPair<const llvm::GCOVFunction *, bool>>::initEmpty",
   "linker_set_key" : "_ZN4llvm12DenseMapBaseINS_8DenseMapIPKNS_12GCOVFunctionEbNS_12DenseMapInfoIS4_EENS_6detail12DenseMapPairIS4_bEEEES4_bS6_S9_E9initEmptyEv",
   "parameters" :
   [
    {
     "is_this_ptr" : true,
     "referenced_type" : "_ZTIPN4llvm12DenseMapBaseINS_8DenseMapIPKNS_12GCOVFunctionEbNS_12DenseMapInfoIS4_EENS_6detail12DenseMapPairIS4_bEEEES4_bS6_S9_EE"
    }
   ],
   "return_type" : "_ZTIv",
   "source_file" : "external/llvm/include/llvm/ADT/DenseMap.h"
  },
  {
   "access" : "protected",
   "function_name" : "llvm::DenseMapBase<llvm::DenseMap<const llvm::GCOVFunction *, bool, llvm::DenseMapInfo<const llvm::GCOVFunction *>, llvm::detail::DenseMapPair<const llvm::GCOVFunction *, bool>>, const llvm::GCOVFunction *, bool, llvm::DenseMapInfo<const llvm::GCOVFunction *>, llvm::detail::DenseMapPair<const llvm::GCOVFunction *, bool>>::DenseMapBase",
   "linker_set_key" : "_ZN4llvm12DenseMapBaseINS_8DenseMapIPKNS_12GCOVFunctionEbNS_12DenseMapInfoIS4_EENS_6detail12DenseMapPairIS4_bEEEES4_bS6_S9_EC1Ev",
   "parameters" :
   [
    {
     "is_this_ptr" : true,
     "referenced_type" : "_ZTIPN4llvm12DenseMapBaseINS_8DenseMapIPKNS_12GCOVFunctionEbNS_12DenseMapInfoIS4_EENS_6detail12DenseMapPairIS4_bEEEES4_bS6_S9_EE"
    }
   ],
   "return_type" : "_ZTIv",
   "source_file" : "external/llvm/include/llvm/ADT/DenseMap.h"
  },
  {
   "access" : "protected",
   "function_name" : "llvm::DenseMapBase<llvm::DenseMap<const llvm::GCOVFunction *, bool, llvm::DenseMapInfo<const llvm::GCOVFunction *>, llvm::detail::DenseMapPair<const llvm::GCOVFunction *, bool>>, const llvm::GCOVFunction *, bool, llvm::DenseMapInfo<const llvm::GCOVFunction *>, llvm::detail::DenseMapPair<const llvm::GCOVFunction *, bool>>::DenseMapBase",
   "linker_set_key" : "_ZN4llvm12DenseMapBaseINS_8DenseMapIPKNS_12GCOVFunctionEbNS_12DenseMapInfoIS4_EENS_6detail12DenseMapPairIS4_bEEEES4_bS6_S9_EC2Ev",
   "parameters" :
   [
    {
     "is_this_ptr" : true,
     "referenced_type" : "_ZTIPN4llvm12DenseMapBaseINS_8DenseMapIPKNS_12GCOVFunctionEbNS_12DenseMapInfoIS4_EENS_6detail12DenseMapPairIS4_bEEEES4_bS6_S9_EE"
    }
   ],
   "return_type" : "_ZTIv",
   "source_file" : "external/llvm/include/llvm/ADT/DenseMap.h"
  },
  {
   "function_name" : "llvm::DenseMapBase<llvm::DenseMap<const llvm::GCOVFunction *, bool, llvm::DenseMapInfo<const llvm::GCOVFunction *>, llvm::detail::DenseMapPair<const llvm::GCOVFunction *, bool>>, const llvm::GCOVFunction *, bool, llvm::DenseMapInfo<const llvm::GCOVFunction *>, llvm::detail::DenseMapPair<const llvm::GCOVFunction *, bool>>::operator[]",
   "linker_set_key" : "_ZN4llvm12DenseMapBaseINS_8DenseMapIPKNS_12GCOVFunctionEbNS_12DenseMapInfoIS4_EENS_6detail12DenseMapPairIS4_bEEEES4_bS6_S9_EixERKS4_",
   "parameters" :
   [
    {
     "is_this_ptr" : true,
     "referenced_type" : "_ZTIPN4llvm12DenseMapBaseINS_8DenseMapIPKNS_12GCOVFunctionEbNS_12DenseMapInfoIS4_EENS_6detail12DenseMapPairIS4_bEEEES4_bS6_S9_EE"
    },
    {
     "referenced_type" : "_ZTIRKPKN4llvm12GCOVFunctionE"
    }
   ],
   "return_type" : "_ZTIRb",
   "source_file" : "external/llvm/include/llvm/ADT/DenseMap.h"
  },
  {
   "access" : "protected",
   "function_name" : "llvm::DenseMapBase<llvm::DenseMap<const llvm::GCOVFunction *, unsigned int, llvm::DenseMapInfo<const llvm::GCOVFunction *>, llvm::detail::DenseMapPair<const llvm::GCOVFunction *, unsigned int>>, const llvm::GCOVFunction *, unsigned int, llvm::DenseMapInfo<const llvm::GCOVFunction *>, llvm::detail::DenseMapPair<const llvm::GCOVFunction *, unsigned int>>::destroyAll",
   "linker_set_key" : "_ZN4llvm12DenseMapBaseINS_8DenseMapIPKNS_12GCOVFunctionEjNS_12DenseMapInfoIS4_EENS_6detail12DenseMapPairIS4_jEEEES4_jS6_S9_E10destroyAllEv",
   "parameters" :
   [
    {
     "is_this_ptr" : true,
     "referenced_type" : "_ZTIPN4llvm12DenseMapBaseINS_8DenseMapIPKNS_12GCOVFunctionEjNS_12DenseMapInfoIS4_EENS_6detail12DenseMapPairIS4_jEEEES4_jS6_S9_EE"
    }
   ],
   "return_type" : "_ZTIv",
   "source_file" : "external/llvm/include/llvm/ADT/DenseMap.h"
  },
  {
   "access" : "private",
   "function_name" : "llvm::DenseMapBase<llvm::DenseMap<const llvm::GCOVFunction *, unsigned int, llvm::DenseMapInfo<const llvm::GCOVFunction *>, llvm::detail::DenseMapPair<const llvm::GCOVFunction *, unsigned int>>, const llvm::GCOVFunction *, unsigned int, llvm::DenseMapInfo<const llvm::GCOVFunction *>, llvm::detail::DenseMapPair<const llvm::GCOVFunction *, unsigned int>>::getBuckets",
   "linker_set_key" : "_ZN4llvm12DenseMapBaseINS_8DenseMapIPKNS_12GCOVFunctionEjNS_12DenseMapInfoIS4_EENS_6detail12DenseMapPairIS4_jEEEES4_jS6_S9_E10getBucketsEv",
   "parameters" :
   [
    {
     "is_this_ptr" : true,
     "referenced_type" : "_ZTIPN4llvm12DenseMapBaseINS_8DenseMapIPKNS_12GCOVFunctionEjNS_12DenseMapInfoIS4_EENS_6detail12DenseMapPairIS4_jEEEES4_jS6_S9_EE"
    }
   ],
   "return_type" : "_ZTIPN4llvm6detail12DenseMapPairIPKNS_12GCOVFunctionEjEE",
   "source_file" : "external/llvm/include/llvm/ADT/DenseMap.h"
  },
  {
   "access" : "protected",
   "function_name" : "llvm::DenseMapBase<llvm::DenseMap<const llvm::GCOVFunction *, unsigned int, llvm::DenseMapInfo<const llvm::GCOVFunction *>, llvm::detail::DenseMapPair<const llvm::GCOVFunction *, unsigned int>>, const llvm::GCOVFunction *, unsigned int, llvm::DenseMapInfo<const llvm::GCOVFunction *>, llvm::detail::DenseMapPair<const llvm::GCOVFunction *, unsigned int>>::getEmptyKey",
   "linker_set_key" : "_ZN4llvm12DenseMapBaseINS_8DenseMapIPKNS_12GCOVFunctionEjNS_12DenseMapInfoIS4_EENS_6detail12DenseMapPairIS4_jEEEES4_jS6_S9_E11getEmptyKeyEv",
   "return_type" : "_ZTIKPKN4llvm12GCOVFunctionE",
   "source_file" : "external/llvm/include/llvm/ADT/DenseMap.h"
  },
  {
   "access" : "protected",
   "function_name" : "llvm::DenseMapBase<llvm::DenseMap<const llvm::GCOVFunction *, unsigned int, llvm::DenseMapInfo<const llvm::GCOVFunction *>, llvm::detail::DenseMapPair<const llvm::GCOVFunction *, unsigned int>>, const llvm::GCOVFunction *, unsigned int, llvm::DenseMapInfo<const llvm::GCOVFunction *>, llvm::detail::DenseMapPair<const llvm::GCOVFunction *, unsigned int>>::getHashValue",
   "linker_set_key" : "_ZN4llvm12DenseMapBaseINS_8DenseMapIPKNS_12GCOVFunctionEjNS_12DenseMapInfoIS4_EENS_6detail12DenseMapPairIS4_jEEEES4_jS6_S9_E12getHashValueERKS4_",
   "parameters" :
   [
    {
     "referenced_type" : "_ZTIRKPKN4llvm12GCOVFunctionE"
    }
   ],
   "return_type" : "_ZTIj",
   "source_file" : "external/llvm/include/llvm/ADT/DenseMap.h"
  },
  {
   "access" : "private",
   "function_name" : "llvm::DenseMapBase<llvm::DenseMap<const llvm::GCOVFunction *, unsigned int, llvm::DenseMapInfo<const llvm::GCOVFunction *>, llvm::detail::DenseMapPair<const llvm::GCOVFunction *, unsigned int>>, const llvm::GCOVFunction *, unsigned int, llvm::DenseMapInfo<const llvm::GCOVFunction *>, llvm::detail::DenseMapPair<const llvm::GCOVFunction *, unsigned int>>::getBucketsEnd",
   "linker_set_key" : "_ZN4llvm12DenseMapBaseINS_8DenseMapIPKNS_12GCOVFunctionEjNS_12DenseMapInfoIS4_EENS_6detail12DenseMapPairIS4_jEEEES4_jS6_S9_E13getBucketsEndEv",
   "parameters" :
   [
    {
     "is_this_ptr" : true,
     "referenced_type" : "_ZTIPN4llvm12DenseMapBaseINS_8DenseMapIPKNS_12GCOVFunctionEjNS_12DenseMapInfoIS4_EENS_6detail12DenseMapPairIS4_jEEEES4_jS6_S9_EE"
    }
   ],
   "return_type" : "_ZTIPN4llvm6detail12DenseMapPairIPKNS_12GCOVFunctionEjEE",
   "source_file" : "external/llvm/include/llvm/ADT/DenseMap.h"
  },
  {
   "access" : "private",
   "function_name" : "llvm::DenseMapBase<llvm::DenseMap<const llvm::GCOVFunction *, unsigned int, llvm::DenseMapInfo<const llvm::GCOVFunction *>, llvm::detail::DenseMapPair<const llvm::GCOVFunction *, unsigned int>>, const llvm::GCOVFunction *, unsigned int, llvm::DenseMapInfo<const llvm::GCOVFunction *>, llvm::detail::DenseMapPair<const llvm::GCOVFunction *, unsigned int>>::setNumEntries",
   "linker_set_key" : "_ZN4llvm12DenseMapBaseINS_8DenseMapIPKNS_12GCOVFunctionEjNS_12DenseMapInfoIS4_EENS_6detail12DenseMapPairIS4_jEEEES4_jS6_S9_E13setNumEntriesEj",
   "parameters" :
   [
    {
     "is_this_ptr" : true,
     "referenced_type" : "_ZTIPN4llvm12DenseMapBaseINS_8DenseMapIPKNS_12GCOVFunctionEjNS_12DenseMapInfoIS4_EENS_6detail12DenseMapPairIS4_jEEEES4_jS6_S9_EE"
    },
    {
     "referenced_type" : "_ZTIj"
    }
   ],
   "return_type" : "_ZTIv",
   "source_file" : "external/llvm/include/llvm/ADT/DenseMap.h"
  },
  {
   "access" : "private",
   "function_name" : "llvm::DenseMapBase<llvm::DenseMap<const llvm::GCOVFunction *, unsigned int, llvm::DenseMapInfo<const llvm::GCOVFunction *>, llvm::detail::DenseMapPair<const llvm::GCOVFunction *, unsigned int>>, const llvm::GCOVFunction *, unsigned int, llvm::DenseMapInfo<const llvm::GCOVFunction *>, llvm::detail::DenseMapPair<const llvm::GCOVFunction *, unsigned int>>::LookupBucketFor",
   "linker_set_key" : "_ZN4llvm12DenseMapBaseINS_8DenseMapIPKNS_12GCOVFunctionEjNS_12DenseMapInfoIS4_EENS_6detail12DenseMapPairIS4_jEEEES4_jS6_S9_E15LookupBucketForIS4_EEbRKT_RPS9_",
   "parameters" :
   [
    {
     "is_this_ptr" : true,
     "referenced_type" : "_ZTIPN4llvm12DenseMapBaseINS_8DenseMapIPKNS_12GCOVFunctionEjNS_12DenseMapInfoIS4_EENS_6detail12DenseMapPairIS4_jEEEES4_jS6_S9_EE"
    },
    {
     "referenced_type" : "_ZTIRKPKN4llvm12GCOVFunctionE"
    },
    {
     "referenced_type" : "_ZTIRPN4llvm6detail12DenseMapPairIPKNS_12GCOVFunctionEjEE"
    }
   ],
   "return_type" : "_ZTIb",
   "source_file" : "external/llvm/include/llvm/ADT/DenseMap.h",
   "template_args" : [ "_ZTIPKN4llvm12GCOVFunctionE" ]
  },
  {
   "access" : "protected",
   "function_name" : "llvm::DenseMapBase<llvm::DenseMap<const llvm::GCOVFunction *, unsigned int, llvm::DenseMapInfo<const llvm::GCOVFunction *>, llvm::detail::DenseMapPair<const llvm::GCOVFunction *, unsigned int>>, const llvm::GCOVFunction *, unsigned int, llvm::DenseMapInfo<const llvm::GCOVFunction *>, llvm::detail::DenseMapPair<const llvm::GCOVFunction *, unsigned int>>::getTombstoneKey",
   "linker_set_key" : "_ZN4llvm12DenseMapBaseINS_8DenseMapIPKNS_12GCOVFunctionEjNS_12DenseMapInfoIS4_EENS_6detail12DenseMapPairIS4_jEEEES4_jS6_S9_E15getTombstoneKeyEv",
   "return_type" : "_ZTIKPKN4llvm12GCOVFunctionE",
   "source_file" : "external/llvm/include/llvm/ADT/DenseMap.h"
  },
  {
   "access" : "private",
   "function_name" : "llvm::DenseMapBase<llvm::DenseMap<const llvm::GCOVFunction *, unsigned int, llvm::DenseMapInfo<const llvm::GCOVFunction *>, llvm::detail::DenseMapPair<const llvm::GCOVFunction *, unsigned int>>, const llvm::GCOVFunction *, unsigned int, llvm::DenseMapInfo<const llvm::GCOVFunction *>, llvm::detail::DenseMapPair<const llvm::GCOVFunction *, unsigned int>>::InsertIntoBucket",
   "linker_set_key" : "_ZN4llvm12DenseMapBaseINS_8DenseMapIPKNS_12GCOVFunctionEjNS_12DenseMapInfoIS4_EENS_6detail12DenseMapPairIS4_jEEEES4_jS6_S9_E16InsertIntoBucketERKS4_RKjPS9_",
   "parameters" :
   [
    {
     "is_this_ptr" : true,
     "referenced_type" : "_ZTIPN4llvm12DenseMapBaseINS_8DenseMapIPKNS_12GCOVFunctionEjNS_12DenseMapInfoIS4_EENS_6detail12DenseMapPairIS4_jEEEES4_jS6_S9_EE"
    },
    {
     "referenced_type" : "_ZTIRKPKN4llvm12GCOVFunctionE"
    },
    {
     "referenced_type" : "_ZTIRKj"
    },
    {
     "referenced_type" : "_ZTIPN4llvm6detail12DenseMapPairIPKNS_12GCOVFunctionEjEE"
    }
   ],
   "return_type" : "_ZTIPN4llvm6detail12DenseMapPairIPKNS_12GCOVFunctionEjEE",
   "source_file" : "external/llvm/include/llvm/ADT/DenseMap.h"
  },
  {
   "access" : "private",
   "function_name" : "llvm::DenseMapBase<llvm::DenseMap<const llvm::GCOVFunction *, unsigned int, llvm::DenseMapInfo<const llvm::GCOVFunction *>, llvm::detail::DenseMapPair<const llvm::GCOVFunction *, unsigned int>>, const llvm::GCOVFunction *, unsigned int, llvm::DenseMapInfo<const llvm::GCOVFunction *>, llvm::detail::DenseMapPair<const llvm::GCOVFunction *, unsigned int>>::setNumTombstones",
   "linker_set_key" : "_ZN4llvm12DenseMapBaseINS_8DenseMapIPKNS_12GCOVFunctionEjNS_12DenseMapInfoIS4_EENS_6detail12DenseMapPairIS4_jEEEES4_jS6_S9_E16setNumTombstonesEj",
   "parameters" :
   [
    {
     "is_this_ptr" : true,
     "referenced_type" : "_ZTIPN4llvm12DenseMapBaseINS_8DenseMapIPKNS_12GCOVFunctionEjNS_12DenseMapInfoIS4_EENS_6detail12DenseMapPairIS4_jEEEES4_jS6_S9_EE"
    },
    {
     "referenced_type" : "_ZTIj"
    }
   ],
   "return_type" : "_ZTIv",
   "source_file" : "external/llvm/include/llvm/ADT/DenseMap.h"
  },
  {
   "access" : "protected",
   "function_name" : "llvm::DenseMapBase<llvm::DenseMap<const llvm::GCOVFunction *, unsigned int, llvm::DenseMapInfo<const llvm::GCOVFunction *>, llvm::detail::DenseMapPair<const llvm::GCOVFunction *, unsigned int>>, const llvm::GCOVFunction *, unsigned int, llvm::DenseMapInfo<const llvm::GCOVFunction *>, llvm::detail::DenseMapPair<const llvm::GCOVFunction *, unsigned int>>::moveFromOldBuckets",
   "linker_set_key" : "_ZN4llvm12DenseMapBaseINS_8DenseMapIPKNS_12GCOVFunctionEjNS_12DenseMapInfoIS4_EENS_6detail12DenseMapPairIS4_jEEEES4_jS6_S9_E18moveFromOldBucketsEPS9_SC_",
   "parameters" :
   [
    {
     "is_this_ptr" : true,
     "referenced_type" : "_ZTIPN4llvm12DenseMapBaseINS_8DenseMapIPKNS_12GCOVFunctionEjNS_12DenseMapInfoIS4_EENS_6detail12DenseMapPairIS4_jEEEES4_jS6_S9_EE"
    },
    {
     "referenced_type" : "_ZTIPN4llvm6detail12DenseMapPairIPKNS_12GCOVFunctionEjEE"
    },
    {
     "referenced_type" : "_ZTIPN4llvm6detail12DenseMapPairIPKNS_12GCOVFunctionEjEE"
    }
   ],
   "return_type" : "_ZTIv",
   "source_file" : "external/llvm/include/llvm/ADT/DenseMap.h"
  },
  {
   "access" : "private",
   "function_name" : "llvm::DenseMapBase<llvm::DenseMap<const llvm::GCOVFunction *, unsigned int, llvm::DenseMapInfo<const llvm::GCOVFunction *>, llvm::detail::DenseMapPair<const llvm::GCOVFunction *, unsigned int>>, const llvm::GCOVFunction *, unsigned int, llvm::DenseMapInfo<const llvm::GCOVFunction *>, llvm::detail::DenseMapPair<const llvm::GCOVFunction *, unsigned int>>::incrementNumEntries",
   "linker_set_key" : "_ZN4llvm12DenseMapBaseINS_8DenseMapIPKNS_12GCOVFunctionEjNS_12DenseMapInfoIS4_EENS_6detail12DenseMapPairIS4_jEEEES4_jS6_S9_E19incrementNumEntriesEv",
   "parameters" :
   [
    {
     "is_this_ptr" : true,
     "referenced_type" : "_ZTIPN4llvm12DenseMapBaseINS_8DenseMapIPKNS_12GCOVFunctionEjNS_12DenseMapInfoIS4_EENS_6detail12DenseMapPairIS4_jEEEES4_jS6_S9_EE"
    }
   ],
   "return_type" : "_ZTIv",
   "source_file" : "external/llvm/include/llvm/ADT/DenseMap.h"
  },
  {
   "access" : "private",
   "function_name" : "llvm::DenseMapBase<llvm::DenseMap<const llvm::GCOVFunction *, unsigned int, llvm::DenseMapInfo<const llvm::GCOVFunction *>, llvm::detail::DenseMapPair<const llvm::GCOVFunction *, unsigned int>>, const llvm::GCOVFunction *, unsigned int, llvm::DenseMapInfo<const llvm::GCOVFunction *>, llvm::detail::DenseMapPair<const llvm::GCOVFunction *, unsigned int>>::InsertIntoBucketImpl",
   "linker_set_key" : "_ZN4llvm12DenseMapBaseINS_8DenseMapIPKNS_12GCOVFunctionEjNS_12DenseMapInfoIS4_EENS_6detail12DenseMapPairIS4_jEEEES4_jS6_S9_E20InsertIntoBucketImplIS4_EEPS9_RKS4_RKT_SD_",
   "parameters" :
   [
    {
     "is_this_ptr" : true,
     "referenced_type" : "_ZTIPN4llvm12DenseMapBaseINS_8DenseMapIPKNS_12GCOVFunctionEjNS_12DenseMapInfoIS4_EENS_6detail12DenseMapPairIS4_jEEEES4_jS6_S9_EE"
    },
    {
     "referenced_type" : "_ZTIRKPKN4llvm12GCOVFunctionE"
    },
    {
     "referenced_type" : "_ZTIRKPKN4llvm12GCOVFunctionE"
    },
    {
     "referenced_type" : "_ZTIPN4llvm6detail12DenseMapPairIPKNS_12GCOVFunctionEjEE"
    }
   ],
   "return_type" : "_ZTIPN4llvm6detail12DenseMapPairIPKNS_12GCOVFunctionEjEE",
   "source_file" : "external/llvm/include/llvm/ADT/DenseMap.h",
   "template_args" : [ "_ZTIPKN4llvm12GCOVFunctionE" ]
  },
  {
   "access" : "private",
   "function_name" : "llvm::DenseMapBase<llvm::DenseMap<const llvm::GCOVFunction *, unsigned int, llvm::DenseMapInfo<const llvm::GCOVFunction *>, llvm::detail::DenseMapPair<const llvm::GCOVFunction *, unsigned int>>, const llvm::GCOVFunction *, unsigned int, llvm::DenseMapInfo<const llvm::GCOVFunction *>, llvm::detail::DenseMapPair<const llvm::GCOVFunction *, unsigned int>>::decrementNumTombstones",
   "linker_set_key" : "_ZN4llvm12DenseMapBaseINS_8DenseMapIPKNS_12GCOVFunctionEjNS_12DenseMapInfoIS4_EENS_6detail12DenseMapPairIS4_jEEEES4_jS6_S9_E22decrementNumTombstonesEv",
   "parameters" :
   [
    {
     "is_this_ptr" : true,
     "referenced_type" : "_ZTIPN4llvm12DenseMapBaseINS_8DenseMapIPKNS_12GCOVFunctionEjNS_12DenseMapInfoIS4_EENS_6detail12DenseMapPairIS4_jEEEES4_jS6_S9_EE"
    }
   ],
   "return_type" : "_ZTIv",
   "source_file" : "external/llvm/include/llvm/ADT/DenseMap.h"
  },
  {
   "access" : "protected",
   "function_name" : "llvm::DenseMapBase<llvm::DenseMap<const llvm::GCOVFunction *, unsigned int, llvm::DenseMapInfo<const llvm::GCOVFunction *>, llvm::detail::DenseMapPair<const llvm::GCOVFunction *, unsigned int>>, const llvm::GCOVFunction *, unsigned int, llvm::DenseMapInfo<const llvm::GCOVFunction *>, llvm::detail::DenseMapPair<const llvm::GCOVFunction *, unsigned int>>::getMinBucketToReserveForEntries",
   "linker_set_key" : "_ZN4llvm12DenseMapBaseINS_8DenseMapIPKNS_12GCOVFunctionEjNS_12DenseMapInfoIS4_EENS_6detail12DenseMapPairIS4_jEEEES4_jS6_S9_E31getMinBucketToReserveForEntriesEj",
   "parameters" :
   [
    {
     "is_this_ptr" : true,
     "referenced_type" : "_ZTIPN4llvm12DenseMapBaseINS_8DenseMapIPKNS_12GCOVFunctionEjNS_12DenseMapInfoIS4_EENS_6detail12DenseMapPairIS4_jEEEES4_jS6_S9_EE"
    },
    {
     "referenced_type" : "_ZTIj"
    }
   ],
   "return_type" : "_ZTIj",
   "source_file" : "external/llvm/include/llvm/ADT/DenseMap.h"
  },
  {
   "function_name" : "llvm::DenseMapBase<llvm::DenseMap<const llvm::GCOVFunction *, unsigned int, llvm::DenseMapInfo<const llvm::GCOVFunction *>, llvm::detail::DenseMapPair<const llvm::GCOVFunction *, unsigned int>>, const llvm::GCOVFunction *, unsigned int, llvm::DenseMapInfo<const llvm::GCOVFunction *>, llvm::detail::DenseMapPair<const llvm::GCOVFunction *, unsigned int>>::end",
   "linker_set_key" : "_ZN4llvm12DenseMapBaseINS_8DenseMapIPKNS_12GCOVFunctionEjNS_12DenseMapInfoIS4_EENS_6detail12DenseMapPairIS4_jEEEES4_jS6_S9_E3endEv",
   "parameters" :
   [
    {
     "is_this_ptr" : true,
     "referenced_type" : "_ZTIPN4llvm12DenseMapBaseINS_8DenseMapIPKNS_12GCOVFunctionEjNS_12DenseMapInfoIS4_EENS_6detail12DenseMapPairIS4_jEEEES4_jS6_S9_EE"
    }
   ],
   "return_type" : "_ZTIN4llvm16DenseMapIteratorIPKNS_12GCOVFunctionEjNS_12DenseMapInfoIS3_EENS_6detail12DenseMapPairIS3_jEELb0EEE",
   "source_file" : "external/llvm/include/llvm/ADT/DenseMap.h"
  },
  {
   "function_name" : "llvm::DenseMapBase<llvm::DenseMap<const llvm::GCOVFunction *, unsigned int, llvm::DenseMapInfo<const llvm::GCOVFunction *>, llvm::detail::DenseMapPair<const llvm::GCOVFunction *, unsigned int>>, const llvm::GCOVFunction *, unsigned int, llvm::DenseMapInfo<const llvm::GCOVFunction *>, llvm::detail::DenseMapPair<const llvm::GCOVFunction *, unsigned int>>::find",
   "linker_set_key" : "_ZN4llvm12DenseMapBaseINS_8DenseMapIPKNS_12GCOVFunctionEjNS_12DenseMapInfoIS4_EENS_6detail12DenseMapPairIS4_jEEEES4_jS6_S9_E4findERKS4_",
   "parameters" :
   [
    {
     "is_this_ptr" : true,
     "referenced_type" : "_ZTIPN4llvm12DenseMapBaseINS_8DenseMapIPKNS_12GCOVFunctionEjNS_12DenseMapInfoIS4_EENS_6detail12DenseMapPairIS4_jEEEES4_jS6_S9_EE"
    },
    {
     "referenced_type" : "_ZTIRKPKN4llvm12GCOVFunctionE"
    }
   ],
   "return_type" : "_ZTIN4llvm16DenseMapIteratorIPKNS_12GCOVFunctionEjNS_12DenseMapInfoIS3_EENS_6detail12DenseMapPairIS3_jEELb0EEE",
   "source_file" : "external/llvm/include/llvm/ADT/DenseMap.h"
  },
  {
   "access" : "private",
   "function_name" : "llvm::DenseMapBase<llvm::DenseMap<const llvm::GCOVFunction *, unsigned int, llvm::DenseMapInfo<const llvm::GCOVFunction *>, llvm::detail::DenseMapPair<const llvm::GCOVFunction *, unsigned int>>, const llvm::GCOVFunction *, unsigned int, llvm::DenseMapInfo<const llvm::GCOVFunction *>, llvm::detail::DenseMapPair<const llvm::GCOVFunction *, unsigned int>>::grow",
   "linker_set_key" : "_ZN4llvm12DenseMapBaseINS_8DenseMapIPKNS_12GCOVFunctionEjNS_12DenseMapInfoIS4_EENS_6detail12DenseMapPairIS4_jEEEES4_jS6_S9_E4growEj",
   "parameters" :
   [
    {
     "is_this_ptr" : true,
     "referenced_type" : "_ZTIPN4llvm12DenseMapBaseINS_8DenseMapIPKNS_12GCOVFunctionEjNS_12DenseMapInfoIS4_EENS_6detail12DenseMapPairIS4_jEEEES4_jS6_S9_EE"
    },
    {
     "referenced_type" : "_ZTIj"
    }
   ],
   "return_type" : "_ZTIv",
   "source_file" : "external/llvm/include/llvm/ADT/DenseMap.h"
  },
  {
   "function_name" : "llvm::DenseMapBase<llvm::DenseMap<const llvm::GCOVFunction *, unsigned int, llvm::DenseMapInfo<const llvm::GCOVFunction *>, llvm::detail::DenseMapPair<const llvm::GCOVFunction *, unsigned int>>, const llvm::GCOVFunction *, unsigned int, llvm::DenseMapInfo<const llvm::GCOVFunction *>, llvm::detail::DenseMapPair<const llvm::GCOVFunction *, unsigned int>>::insert",
   "linker_set_key" : "_ZN4llvm12DenseMapBaseINS_8DenseMapIPKNS_12GCOVFunctionEjNS_12DenseMapInfoIS4_EENS_6detail12DenseMapPairIS4_jEEEES4_jS6_S9_E6insertERKNSt3__14pairIS4_jEE",
   "parameters" :
   [
    {
     "is_this_ptr" : true,
     "referenced_type" : "_ZTIPN4llvm12DenseMapBaseINS_8DenseMapIPKNS_12GCOVFunctionEjNS_12DenseMapInfoIS4_EENS_6detail12DenseMapPairIS4_jEEEES4_jS6_S9_EE"
    },
    {
     "referenced_type" : "_ZTIRKNSt3__14pairIPKN4llvm12GCOVFunctionEjEE"
    }
   ],
   "return_type" : "_ZTINSt3__14pairIN4llvm16DenseMapIteratorIPKNS1_12GCOVFunctionEjNS1_12DenseMapInfoIS5_EENS1_6detail12DenseMapPairIS5_jEELb0EEEbEE",
   "source_file" : "external/llvm/include/llvm/ADT/DenseMap.h"
  },
  {
   "access" : "protected",
   "function_name" : "llvm::DenseMapBase<llvm::DenseMap<const llvm::GCOVFunction *, unsigned int, llvm::DenseMapInfo<const llvm::GCOVFunction *>, llvm::detail::DenseMapPair<const llvm::GCOVFunction *, unsigned int>>, const llvm::GCOVFunction *, unsigned int, llvm::DenseMapInfo<const llvm::GCOVFunction *>, llvm::detail::DenseMapPair<const llvm::GCOVFunction *, unsigned int>>::initEmpty",
   "linker_set_key" : "_ZN4llvm12DenseMapBaseINS_8DenseMapIPKNS_12GCOVFunctionEjNS_12DenseMapInfoIS4_EENS_6detail12DenseMapPairIS4_jEEEES4_jS6_S9_E9initEmptyEv",
   "parameters" :
   [
    {
     "is_this_ptr" : true,
     "referenced_type" : "_ZTIPN4llvm12DenseMapBaseINS_8DenseMapIPKNS_12GCOVFunctionEjNS_12DenseMapInfoIS4_EENS_6detail12DenseMapPairIS4_jEEEES4_jS6_S9_EE"
    }
   ],
   "return_type" : "_ZTIv",
   "source_file" : "external/llvm/include/llvm/ADT/DenseMap.h"
  },
  {
   "access" : "protected",
   "function_name" : "llvm::DenseMapBase<llvm::DenseMap<const llvm::GCOVFunction *, unsigned int, llvm::DenseMapInfo<const llvm::GCOVFunction *>, llvm::detail::DenseMapPair<const llvm::GCOVFunction *, unsigned int>>, const llvm::GCOVFunction *, unsigned int, llvm::DenseMapInfo<const llvm::GCOVFunction *>, llvm::detail::DenseMapPair<const llvm::GCOVFunction *, unsigned int>>::DenseMapBase",
   "linker_set_key" : "_ZN4llvm12DenseMapBaseINS_8DenseMapIPKNS_12GCOVFunctionEjNS_12DenseMapInfoIS4_EENS_6detail12DenseMapPairIS4_jEEEES4_jS6_S9_EC1Ev",
   "parameters" :
   [
    {
     "is_this_ptr" : true,
     "referenced_type" : "_ZTIPN4llvm12DenseMapBaseINS_8DenseMapIPKNS_12GCOVFunctionEjNS_12DenseMapInfoIS4_EENS_6detail12DenseMapPairIS4_jEEEES4_jS6_S9_EE"
    }
   ],
   "return_type" : "_ZTIv",
   "source_file" : "external/llvm/include/llvm/ADT/DenseMap.h"
  },
  {
   "access" : "protected",
   "function_name" : "llvm::DenseMapBase<llvm::DenseMap<const llvm::GCOVFunction *, unsigned int, llvm::DenseMapInfo<const llvm::GCOVFunction *>, llvm::detail::DenseMapPair<const llvm::GCOVFunction *, unsigned int>>, const llvm::GCOVFunction *, unsigned int, llvm::DenseMapInfo<const llvm::GCOVFunction *>, llvm::detail::DenseMapPair<const llvm::GCOVFunction *, unsigned int>>::DenseMapBase",
   "linker_set_key" : "_ZN4llvm12DenseMapBaseINS_8DenseMapIPKNS_12GCOVFunctionEjNS_12DenseMapInfoIS4_EENS_6detail12DenseMapPairIS4_jEEEES4_jS6_S9_EC2Ev",
   "parameters" :
   [
    {
     "is_this_ptr" : true,
     "referenced_type" : "_ZTIPN4llvm12DenseMapBaseINS_8DenseMapIPKNS_12GCOVFunctionEjNS_12DenseMapInfoIS4_EENS_6detail12DenseMapPairIS4_jEEEES4_jS6_S9_EE"
    }
   ],
   "return_type" : "_ZTIv",
   "source_file" : "external/llvm/include/llvm/ADT/DenseMap.h"
  },
  {
   "access" : "protected",
   "function_name" : "llvm::DenseMapBase<llvm::DenseMap<unsigned int, llvm::SmallVector<const llvm::GCOVFunction *, 1>, llvm::DenseMapInfo<unsigned int>, llvm::detail::DenseMapPair<unsigned int, llvm::SmallVector<const llvm::GCOVFunction *, 1>>>, unsigned int, llvm::SmallVector<const llvm::GCOVFunction *, 1>, llvm::DenseMapInfo<unsigned int>, llvm::detail::DenseMapPair<unsigned int, llvm::SmallVector<const llvm::GCOVFunction *, 1>>>::destroyAll",
   "linker_set_key" : "_ZN4llvm12DenseMapBaseINS_8DenseMapIjNS_11SmallVectorIPKNS_12GCOVFunctionELj1EEENS_12DenseMapInfoIjEENS_6detail12DenseMapPairIjS6_EEEEjS6_S8_SB_E10destroyAllEv",
   "parameters" :
   [
    {
     "is_this_ptr" : true,
     "referenced_type" : "_ZTIPN4llvm12DenseMapBaseINS_8DenseMapIjNS_11SmallVectorIPKNS_12GCOVFunctionELj1EEENS_12DenseMapInfoIjEENS_6detail12DenseMapPairIjS6_EEEEjS6_S8_SB_EE"
    }
   ],
   "return_type" : "_ZTIv",
   "source_file" : "external/llvm/include/llvm/ADT/DenseMap.h"
  },
  {
   "access" : "private",
   "function_name" : "llvm::DenseMapBase<llvm::DenseMap<unsigned int, llvm::SmallVector<const llvm::GCOVFunction *, 1>, llvm::DenseMapInfo<unsigned int>, llvm::detail::DenseMapPair<unsigned int, llvm::SmallVector<const llvm::GCOVFunction *, 1>>>, unsigned int, llvm::SmallVector<const llvm::GCOVFunction *, 1>, llvm::DenseMapInfo<unsigned int>, llvm::detail::DenseMapPair<unsigned int, llvm::SmallVector<const llvm::GCOVFunction *, 1>>>::getBuckets",
   "linker_set_key" : "_ZN4llvm12DenseMapBaseINS_8DenseMapIjNS_11SmallVectorIPKNS_12GCOVFunctionELj1EEENS_12DenseMapInfoIjEENS_6detail12DenseMapPairIjS6_EEEEjS6_S8_SB_E10getBucketsEv",
   "parameters" :
   [
    {
     "is_this_ptr" : true,
     "referenced_type" : "_ZTIPN4llvm12DenseMapBaseINS_8DenseMapIjNS_11SmallVectorIPKNS_12GCOVFunctionELj1EEENS_12DenseMapInfoIjEENS_6detail12DenseMapPairIjS6_EEEEjS6_S8_SB_EE"
    }
   ],
   "return_type" : "_ZTIPN4llvm6detail12DenseMapPairIjNS_11SmallVectorIPKNS_12GCOVFunctionELj1EEEEE",
   "source_file" : "external/llvm/include/llvm/ADT/DenseMap.h"
  },
  {
   "access" : "protected",
   "function_name" : "llvm::DenseMapBase<llvm::DenseMap<unsigned int, llvm::SmallVector<const llvm::GCOVFunction *, 1>, llvm::DenseMapInfo<unsigned int>, llvm::detail::DenseMapPair<unsigned int, llvm::SmallVector<const llvm::GCOVFunction *, 1>>>, unsigned int, llvm::SmallVector<const llvm::GCOVFunction *, 1>, llvm::DenseMapInfo<unsigned int>, llvm::detail::DenseMapPair<unsigned int, llvm::SmallVector<const llvm::GCOVFunction *, 1>>>::getEmptyKey",
   "linker_set_key" : "_ZN4llvm12DenseMapBaseINS_8DenseMapIjNS_11SmallVectorIPKNS_12GCOVFunctionELj1EEENS_12DenseMapInfoIjEENS_6detail12DenseMapPairIjS6_EEEEjS6_S8_SB_E11getEmptyKeyEv",
   "return_type" : "_ZTIKj",
   "source_file" : "external/llvm/include/llvm/ADT/DenseMap.h"
  },
  {
   "access" : "protected",
   "function_name" : "llvm::DenseMapBase<llvm::DenseMap<unsigned int, llvm::SmallVector<const llvm::GCOVFunction *, 1>, llvm::DenseMapInfo<unsigned int>, llvm::detail::DenseMapPair<unsigned int, llvm::SmallVector<const llvm::GCOVFunction *, 1>>>, unsigned int, llvm::SmallVector<const llvm::GCOVFunction *, 1>, llvm::DenseMapInfo<unsigned int>, llvm::detail::DenseMapPair<unsigned int, llvm::SmallVector<const llvm::GCOVFunction *, 1>>>::getHashValue",
   "linker_set_key" : "_ZN4llvm12DenseMapBaseINS_8DenseMapIjNS_11SmallVectorIPKNS_12GCOVFunctionELj1EEENS_12DenseMapInfoIjEENS_6detail12DenseMapPairIjS6_EEEEjS6_S8_SB_E12getHashValueERKj",
   "parameters" :
   [
    {
     "referenced_type" : "_ZTIRKj"
    }
   ],
   "return_type" : "_ZTIj",
   "source_file" : "external/llvm/include/llvm/ADT/DenseMap.h"
  },
  {
   "access" : "private",
   "function_name" : "llvm::DenseMapBase<llvm::DenseMap<unsigned int, llvm::SmallVector<const llvm::GCOVFunction *, 1>, llvm::DenseMapInfo<unsigned int>, llvm::detail::DenseMapPair<unsigned int, llvm::SmallVector<const llvm::GCOVFunction *, 1>>>, unsigned int, llvm::SmallVector<const llvm::GCOVFunction *, 1>, llvm::DenseMapInfo<unsigned int>, llvm::detail::DenseMapPair<unsigned int, llvm::SmallVector<const llvm::GCOVFunction *, 1>>>::getBucketsEnd",
   "linker_set_key" : "_ZN4llvm12DenseMapBaseINS_8DenseMapIjNS_11SmallVectorIPKNS_12GCOVFunctionELj1EEENS_12DenseMapInfoIjEENS_6detail12DenseMapPairIjS6_EEEEjS6_S8_SB_E13getBucketsEndEv",
   "parameters" :
   [
    {
     "is_this_ptr" : true,
     "referenced_type" : "_ZTIPN4llvm12DenseMapBaseINS_8DenseMapIjNS_11SmallVectorIPKNS_12GCOVFunctionELj1EEENS_12DenseMapInfoIjEENS_6detail12DenseMapPairIjS6_EEEEjS6_S8_SB_EE"
    }
   ],
   "return_type" : "_ZTIPN4llvm6detail12DenseMapPairIjNS_11SmallVectorIPKNS_12GCOVFunctionELj1EEEEE",
   "source_file" : "external/llvm/include/llvm/ADT/DenseMap.h"
  },
  {
   "access" : "private",
   "function_name" : "llvm::DenseMapBase<llvm::DenseMap<unsigned int, llvm::SmallVector<const llvm::GCOVFunction *, 1>, llvm::DenseMapInfo<unsigned int>, llvm::detail::DenseMapPair<unsigned int, llvm::SmallVector<const llvm::GCOVFunction *, 1>>>, unsigned int, llvm::SmallVector<const llvm::GCOVFunction *, 1>, llvm::DenseMapInfo<unsigned int>, llvm::detail::DenseMapPair<unsigned int, llvm::SmallVector<const llvm::GCOVFunction *, 1>>>::setNumEntries",
   "linker_set_key" : "_ZN4llvm12DenseMapBaseINS_8DenseMapIjNS_11SmallVectorIPKNS_12GCOVFunctionELj1EEENS_12DenseMapInfoIjEENS_6detail12DenseMapPairIjS6_EEEEjS6_S8_SB_E13setNumEntriesEj",
   "parameters" :
   [
    {
     "is_this_ptr" : true,
     "referenced_type" : "_ZTIPN4llvm12DenseMapBaseINS_8DenseMapIjNS_11SmallVectorIPKNS_12GCOVFunctionELj1EEENS_12DenseMapInfoIjEENS_6detail12DenseMapPairIjS6_EEEEjS6_S8_SB_EE"
    },
    {
     "referenced_type" : "_ZTIj"
    }
   ],
   "return_type" : "_ZTIv",
   "source_file" : "external/llvm/include/llvm/ADT/DenseMap.h"
  },
  {
   "access" : "private",
   "function_name" : "llvm::DenseMapBase<llvm::DenseMap<unsigned int, llvm::SmallVector<const llvm::GCOVFunction *, 1>, llvm::DenseMapInfo<unsigned int>, llvm::detail::DenseMapPair<unsigned int, llvm::SmallVector<const llvm::GCOVFunction *, 1>>>, unsigned int, llvm::SmallVector<const llvm::GCOVFunction *, 1>, llvm::DenseMapInfo<unsigned int>, llvm::detail::DenseMapPair<unsigned int, llvm::SmallVector<const llvm::GCOVFunction *, 1>>>::LookupBucketFor",
   "linker_set_key" : "_ZN4llvm12DenseMapBaseINS_8DenseMapIjNS_11SmallVectorIPKNS_12GCOVFunctionELj1EEENS_12DenseMapInfoIjEENS_6detail12DenseMapPairIjS6_EEEEjS6_S8_SB_E15LookupBucketForIjEEbRKT_RPSB_",
   "parameters" :
   [
    {
     "is_this_ptr" : true,
     "referenced_type" : "_ZTIPN4llvm12DenseMapBaseINS_8DenseMapIjNS_11SmallVectorIPKNS_12GCOVFunctionELj1EEENS_12DenseMapInfoIjEENS_6detail12DenseMapPairIjS6_EEEEjS6_S8_SB_EE"
    },
    {
     "referenced_type" : "_ZTIRKj"
    },
    {
     "referenced_type" : "_ZTIRPN4llvm6detail12DenseMapPairIjNS_11SmallVectorIPKNS_12GCOVFunctionELj1EEEEE"
    }
   ],
   "return_type" : "_ZTIb",
   "source_file" : "external/llvm/include/llvm/ADT/DenseMap.h",
   "template_args" : [ "_ZTIj" ]
  },
  {
   "access" : "protected",
   "function_name" : "llvm::DenseMapBase<llvm::DenseMap<unsigned int, llvm::SmallVector<const llvm::GCOVFunction *, 1>, llvm::DenseMapInfo<unsigned int>, llvm::detail::DenseMapPair<unsigned int, llvm::SmallVector<const llvm::GCOVFunction *, 1>>>, unsigned int, llvm::SmallVector<const llvm::GCOVFunction *, 1>, llvm::DenseMapInfo<unsigned int>, llvm::detail::DenseMapPair<unsigned int, llvm::SmallVector<const llvm::GCOVFunction *, 1>>>::getTombstoneKey",
   "linker_set_key" : "_ZN4llvm12DenseMapBaseINS_8DenseMapIjNS_11SmallVectorIPKNS_12GCOVFunctionELj1EEENS_12DenseMapInfoIjEENS_6detail12DenseMapPairIjS6_EEEEjS6_S8_SB_E15getTombstoneKeyEv",
   "return_type" : "_ZTIKj",
   "source_file" : "external/llvm/include/llvm/ADT/DenseMap.h"
  },
  {
   "function_name" : "llvm::DenseMapBase<llvm::DenseMap<unsigned int, llvm::SmallVector<const llvm::GCOVFunction *, 1>, llvm::DenseMapInfo<unsigned int>, llvm::detail::DenseMapPair<unsigned int, llvm::SmallVector<const llvm::GCOVFunction *, 1>>>, unsigned int, llvm::SmallVector<const llvm::GCOVFunction *, 1>, llvm::DenseMapInfo<unsigned int>, llvm::detail::DenseMapPair<unsigned int, llvm::SmallVector<const llvm::GCOVFunction *, 1>>>::FindAndConstruct",
   "linker_set_key" : "_ZN4llvm12DenseMapBaseINS_8DenseMapIjNS_11SmallVectorIPKNS_12GCOVFunctionELj1EEENS_12DenseMapInfoIjEENS_6detail12DenseMapPairIjS6_EEEEjS6_S8_SB_E16FindAndConstructEOj",
   "parameters" :
   [
    {
     "is_this_ptr" : true,
     "referenced_type" : "_ZTIPN4llvm12DenseMapBaseINS_8DenseMapIjNS_11SmallVectorIPKNS_12GCOVFunctionELj1EEENS_12DenseMapInfoIjEENS_6detail12DenseMapPairIjS6_EEEEjS6_S8_SB_EE"
    },
    {
     "referenced_type" : "_ZTIOj"
    }
   ],
   "return_type" : "_ZTIRN4llvm6detail12DenseMapPairIjNS_11SmallVectorIPKNS_12GCOVFunctionELj1EEEEE",
   "source_file" : "external/llvm/include/llvm/ADT/DenseMap.h"
  },
  {
   "access" : "private",
   "function_name" : "llvm::DenseMapBase<llvm::DenseMap<unsigned int, llvm::SmallVector<const llvm::GCOVFunction *, 1>, llvm::DenseMapInfo<unsigned int>, llvm::detail::DenseMapPair<unsigned int, llvm::SmallVector<const llvm::GCOVFunction *, 1>>>, unsigned int, llvm::SmallVector<const llvm::GCOVFunction *, 1>, llvm::DenseMapInfo<unsigned int>, llvm::detail::DenseMapPair<unsigned int, llvm::SmallVector<const llvm::GCOVFunction *, 1>>>::InsertIntoBucket",
   "linker_set_key" : "_ZN4llvm12DenseMapBaseINS_8DenseMapIjNS_11SmallVectorIPKNS_12GCOVFunctionELj1EEENS_12DenseMapInfoIjEENS_6detail12DenseMapPairIjS6_EEEEjS6_S8_SB_E16InsertIntoBucketEOjOS6_PSB_",
   "parameters" :
   [
    {
     "is_this_ptr" : true,
     "referenced_type" : "_ZTIPN4llvm12DenseMapBaseINS_8DenseMapIjNS_11SmallVectorIPKNS_12GCOVFunctionELj1EEENS_12DenseMapInfoIjEENS_6detail12DenseMapPairIjS6_EEEEjS6_S8_SB_EE"
    },
    {
     "referenced_type" : "_ZTIOj"
    },
    {
     "referenced_type" : "_ZTION4llvm11SmallVectorIPKNS_12GCOVFunctionELj1EEE"
    },
    {
     "referenced_type" : "_ZTIPN4llvm6detail12DenseMapPairIjNS_11SmallVectorIPKNS_12GCOVFunctionELj1EEEEE"
    }
   ],
   "return_type" : "_ZTIPN4llvm6detail12DenseMapPairIjNS_11SmallVectorIPKNS_12GCOVFunctionELj1EEEEE",
   "source_file" : "external/llvm/include/llvm/ADT/DenseMap.h"
  },
  {
   "access" : "private",
   "function_name" : "llvm::DenseMapBase<llvm::DenseMap<unsigned int, llvm::SmallVector<const llvm::GCOVFunction *, 1>, llvm::DenseMapInfo<unsigned int>, llvm::detail::DenseMapPair<unsigned int, llvm::SmallVector<const llvm::GCOVFunction *, 1>>>, unsigned int, llvm::SmallVector<const llvm::GCOVFunction *, 1>, llvm::DenseMapInfo<unsigned int>, llvm::detail::DenseMapPair<unsigned int, llvm::SmallVector<const llvm::GCOVFunction *, 1>>>::setNumTombstones",
   "linker_set_key" : "_ZN4llvm12DenseMapBaseINS_8DenseMapIjNS_11SmallVectorIPKNS_12GCOVFunctionELj1EEENS_12DenseMapInfoIjEENS_6detail12DenseMapPairIjS6_EEEEjS6_S8_SB_E16setNumTombstonesEj",
   "parameters" :
   [
    {
     "is_this_ptr" : true,
     "referenced_type" : "_ZTIPN4llvm12DenseMapBaseINS_8DenseMapIjNS_11SmallVectorIPKNS_12GCOVFunctionELj1EEENS_12DenseMapInfoIjEENS_6detail12DenseMapPairIjS6_EEEEjS6_S8_SB_EE"
    },
    {
     "referenced_type" : "_ZTIj"
    }
   ],
   "return_type" : "_ZTIv",
   "source_file" : "external/llvm/include/llvm/ADT/DenseMap.h"
  },
  {
   "access" : "protected",
   "function_name" : "llvm::DenseMapBase<llvm::DenseMap<unsigned int, llvm::SmallVector<const llvm::GCOVFunction *, 1>, llvm::DenseMapInfo<unsigned int>, llvm::detail::DenseMapPair<unsigned int, llvm::SmallVector<const llvm::GCOVFunction *, 1>>>, unsigned int, llvm::SmallVector<const llvm::GCOVFunction *, 1>, llvm::DenseMapInfo<unsigned int>, llvm::detail::DenseMapPair<unsigned int, llvm::SmallVector<const llvm::GCOVFunction *, 1>>>::moveFromOldBuckets",
   "linker_set_key" : "_ZN4llvm12DenseMapBaseINS_8DenseMapIjNS_11SmallVectorIPKNS_12GCOVFunctionELj1EEENS_12DenseMapInfoIjEENS_6detail12DenseMapPairIjS6_EEEEjS6_S8_SB_E18moveFromOldBucketsEPSB_SE_",
   "parameters" :
   [
    {
     "is_this_ptr" : true,
     "referenced_type" : "_ZTIPN4llvm12DenseMapBaseINS_8DenseMapIjNS_11SmallVectorIPKNS_12GCOVFunctionELj1EEENS_12DenseMapInfoIjEENS_6detail12DenseMapPairIjS6_EEEEjS6_S8_SB_EE"
    },
    {
     "referenced_type" : "_ZTIPN4llvm6detail12DenseMapPairIjNS_11SmallVectorIPKNS_12GCOVFunctionELj1EEEEE"
    },
    {
     "referenced_type" : "_ZTIPN4llvm6detail12DenseMapPairIjNS_11SmallVectorIPKNS_12GCOVFunctionELj1EEEEE"
    }
   ],
   "return_type" : "_ZTIv",
   "source_file" : "external/llvm/include/llvm/ADT/DenseMap.h"
  },
  {
   "access" : "private",
   "function_name" : "llvm::DenseMapBase<llvm::DenseMap<unsigned int, llvm::SmallVector<const llvm::GCOVFunction *, 1>, llvm::DenseMapInfo<unsigned int>, llvm::detail::DenseMapPair<unsigned int, llvm::SmallVector<const llvm::GCOVFunction *, 1>>>, unsigned int, llvm::SmallVector<const llvm::GCOVFunction *, 1>, llvm::DenseMapInfo<unsigned int>, llvm::detail::DenseMapPair<unsigned int, llvm::SmallVector<const llvm::GCOVFunction *, 1>>>::incrementNumEntries",
   "linker_set_key" : "_ZN4llvm12DenseMapBaseINS_8DenseMapIjNS_11SmallVectorIPKNS_12GCOVFunctionELj1EEENS_12DenseMapInfoIjEENS_6detail12DenseMapPairIjS6_EEEEjS6_S8_SB_E19incrementNumEntriesEv",
   "parameters" :
   [
    {
     "is_this_ptr" : true,
     "referenced_type" : "_ZTIPN4llvm12DenseMapBaseINS_8DenseMapIjNS_11SmallVectorIPKNS_12GCOVFunctionELj1EEENS_12DenseMapInfoIjEENS_6detail12DenseMapPairIjS6_EEEEjS6_S8_SB_EE"
    }
   ],
   "return_type" : "_ZTIv",
   "source_file" : "external/llvm/include/llvm/ADT/DenseMap.h"
  },
  {
   "access" : "private",
   "function_name" : "llvm::DenseMapBase<llvm::DenseMap<unsigned int, llvm::SmallVector<const llvm::GCOVFunction *, 1>, llvm::DenseMapInfo<unsigned int>, llvm::detail::DenseMapPair<unsigned int, llvm::SmallVector<const llvm::GCOVFunction *, 1>>>, unsigned int, llvm::SmallVector<const llvm::GCOVFunction *, 1>, llvm::DenseMapInfo<unsigned int>, llvm::detail::DenseMapPair<unsigned int, llvm::SmallVector<const llvm::GCOVFunction *, 1>>>::InsertIntoBucketImpl",
   "linker_set_key" : "_ZN4llvm12DenseMapBaseINS_8DenseMapIjNS_11SmallVectorIPKNS_12GCOVFunctionELj1EEENS_12DenseMapInfoIjEENS_6detail12DenseMapPairIjS6_EEEEjS6_S8_SB_E20InsertIntoBucketImplIjEEPSB_RKjRKT_SF_",
   "parameters" :
   [
    {
     "is_this_ptr" : true,
     "referenced_type" : "_ZTIPN4llvm12DenseMapBaseINS_8DenseMapIjNS_11SmallVectorIPKNS_12GCOVFunctionELj1EEENS_12DenseMapInfoIjEENS_6detail12DenseMapPairIjS6_EEEEjS6_S8_SB_EE"
    },
    {
     "referenced_type" : "_ZTIRKj"
    },
    {
     "referenced_type" : "_ZTIRKj"
    },
    {
     "referenced_type" : "_ZTIPN4llvm6detail12DenseMapPairIjNS_11SmallVectorIPKNS_12GCOVFunctionELj1EEEEE"
    }
   ],
   "return_type" : "_ZTIPN4llvm6detail12DenseMapPairIjNS_11SmallVectorIPKNS_12GCOVFunctionELj1EEEEE",
   "source_file" : "external/llvm/include/llvm/ADT/DenseMap.h",
   "template_args" : [ "_ZTIj" ]
  },
  {
   "access" : "private",
   "function_name" : "llvm::DenseMapBase<llvm::DenseMap<unsigned int, llvm::SmallVector<const llvm::GCOVFunction *, 1>, llvm::DenseMapInfo<unsigned int>, llvm::detail::DenseMapPair<unsigned int, llvm::SmallVector<const llvm::GCOVFunction *, 1>>>, unsigned int, llvm::SmallVector<const llvm::GCOVFunction *, 1>, llvm::DenseMapInfo<unsigned int>, llvm::detail::DenseMapPair<unsigned int, llvm::SmallVector<const llvm::GCOVFunction *, 1>>>::decrementNumTombstones",
   "linker_set_key" : "_ZN4llvm12DenseMapBaseINS_8DenseMapIjNS_11SmallVectorIPKNS_12GCOVFunctionELj1EEENS_12DenseMapInfoIjEENS_6detail12DenseMapPairIjS6_EEEEjS6_S8_SB_E22decrementNumTombstonesEv",
   "parameters" :
   [
    {
     "is_this_ptr" : true,
     "referenced_type" : "_ZTIPN4llvm12DenseMapBaseINS_8DenseMapIjNS_11SmallVectorIPKNS_12GCOVFunctionELj1EEENS_12DenseMapInfoIjEENS_6detail12DenseMapPairIjS6_EEEEjS6_S8_SB_EE"
    }
   ],
   "return_type" : "_ZTIv",
   "source_file" : "external/llvm/include/llvm/ADT/DenseMap.h"
  },
  {
   "access" : "protected",
   "function_name" : "llvm::DenseMapBase<llvm::DenseMap<unsigned int, llvm::SmallVector<const llvm::GCOVFunction *, 1>, llvm::DenseMapInfo<unsigned int>, llvm::detail::DenseMapPair<unsigned int, llvm::SmallVector<const llvm::GCOVFunction *, 1>>>, unsigned int, llvm::SmallVector<const llvm::GCOVFunction *, 1>, llvm::DenseMapInfo<unsigned int>, llvm::detail::DenseMapPair<unsigned int, llvm::SmallVector<const llvm::GCOVFunction *, 1>>>::getMinBucketToReserveForEntries",
   "linker_set_key" : "_ZN4llvm12DenseMapBaseINS_8DenseMapIjNS_11SmallVectorIPKNS_12GCOVFunctionELj1EEENS_12DenseMapInfoIjEENS_6detail12DenseMapPairIjS6_EEEEjS6_S8_SB_E31getMinBucketToReserveForEntriesEj",
   "parameters" :
   [
    {
     "is_this_ptr" : true,
     "referenced_type" : "_ZTIPN4llvm12DenseMapBaseINS_8DenseMapIjNS_11SmallVectorIPKNS_12GCOVFunctionELj1EEENS_12DenseMapInfoIjEENS_6detail12DenseMapPairIjS6_EEEEjS6_S8_SB_EE"
    },
    {
     "referenced_type" : "_ZTIj"
    }
   ],
   "return_type" : "_ZTIj",
   "source_file" : "external/llvm/include/llvm/ADT/DenseMap.h"
  },
  {
   "access" : "private",
   "function_name" : "llvm::DenseMapBase<llvm::DenseMap<unsigned int, llvm::SmallVector<const llvm::GCOVFunction *, 1>, llvm::DenseMapInfo<unsigned int>, llvm::detail::DenseMapPair<unsigned int, llvm::SmallVector<const llvm::GCOVFunction *, 1>>>, unsigned int, llvm::SmallVector<const llvm::GCOVFunction *, 1>, llvm::DenseMapInfo<unsigned int>, llvm::detail::DenseMapPair<unsigned int, llvm::SmallVector<const llvm::GCOVFunction *, 1>>>::grow",
   "linker_set_key" : "_ZN4llvm12DenseMapBaseINS_8DenseMapIjNS_11SmallVectorIPKNS_12GCOVFunctionELj1EEENS_12DenseMapInfoIjEENS_6detail12DenseMapPairIjS6_EEEEjS6_S8_SB_E4growEj",
   "parameters" :
   [
    {
     "is_this_ptr" : true,
     "referenced_type" : "_ZTIPN4llvm12DenseMapBaseINS_8DenseMapIjNS_11SmallVectorIPKNS_12GCOVFunctionELj1EEENS_12DenseMapInfoIjEENS_6detail12DenseMapPairIjS6_EEEEjS6_S8_SB_EE"
    },
    {
     "referenced_type" : "_ZTIj"
    }
   ],
   "return_type" : "_ZTIv",
   "source_file" : "external/llvm/include/llvm/ADT/DenseMap.h"
  },
  {
   "access" : "protected",
   "function_name" : "llvm::DenseMapBase<llvm::DenseMap<unsigned int, llvm::SmallVector<const llvm::GCOVFunction *, 1>, llvm::DenseMapInfo<unsigned int>, llvm::detail::DenseMapPair<unsigned int, llvm::SmallVector<const llvm::GCOVFunction *, 1>>>, unsigned int, llvm::SmallVector<const llvm::GCOVFunction *, 1>, llvm::DenseMapInfo<unsigned int>, llvm::detail::DenseMapPair<unsigned int, llvm::SmallVector<const llvm::GCOVFunction *, 1>>>::initEmpty",
   "linker_set_key" : "_ZN4llvm12DenseMapBaseINS_8DenseMapIjNS_11SmallVectorIPKNS_12GCOVFunctionELj1EEENS_12DenseMapInfoIjEENS_6detail12DenseMapPairIjS6_EEEEjS6_S8_SB_E9initEmptyEv",
   "parameters" :
   [
    {
     "is_this_ptr" : true,
     "referenced_type" : "_ZTIPN4llvm12DenseMapBaseINS_8DenseMapIjNS_11SmallVectorIPKNS_12GCOVFunctionELj1EEENS_12DenseMapInfoIjEENS_6detail12DenseMapPairIjS6_EEEEjS6_S8_SB_EE"
    }
   ],
   "return_type" : "_ZTIv",
   "source_file" : "external/llvm/include/llvm/ADT/DenseMap.h"
  },
  {
   "access" : "protected",
   "function_name" : "llvm::DenseMapBase<llvm::DenseMap<unsigned int, llvm::SmallVector<const llvm::GCOVFunction *, 1>, llvm::DenseMapInfo<unsigned int>, llvm::detail::DenseMapPair<unsigned int, llvm::SmallVector<const llvm::GCOVFunction *, 1>>>, unsigned int, llvm::SmallVector<const llvm::GCOVFunction *, 1>, llvm::DenseMapInfo<unsigned int>, llvm::detail::DenseMapPair<unsigned int, llvm::SmallVector<const llvm::GCOVFunction *, 1>>>::DenseMapBase",
   "linker_set_key" : "_ZN4llvm12DenseMapBaseINS_8DenseMapIjNS_11SmallVectorIPKNS_12GCOVFunctionELj1EEENS_12DenseMapInfoIjEENS_6detail12DenseMapPairIjS6_EEEEjS6_S8_SB_EC1Ev",
   "parameters" :
   [
    {
     "is_this_ptr" : true,
     "referenced_type" : "_ZTIPN4llvm12DenseMapBaseINS_8DenseMapIjNS_11SmallVectorIPKNS_12GCOVFunctionELj1EEENS_12DenseMapInfoIjEENS_6detail12DenseMapPairIjS6_EEEEjS6_S8_SB_EE"
    }
   ],
   "return_type" : "_ZTIv",
   "source_file" : "external/llvm/include/llvm/ADT/DenseMap.h"
  },
  {
   "access" : "protected",
   "function_name" : "llvm::DenseMapBase<llvm::DenseMap<unsigned int, llvm::SmallVector<const llvm::GCOVFunction *, 1>, llvm::DenseMapInfo<unsigned int>, llvm::detail::DenseMapPair<unsigned int, llvm::SmallVector<const llvm::GCOVFunction *, 1>>>, unsigned int, llvm::SmallVector<const llvm::GCOVFunction *, 1>, llvm::DenseMapInfo<unsigned int>, llvm::detail::DenseMapPair<unsigned int, llvm::SmallVector<const llvm::GCOVFunction *, 1>>>::DenseMapBase",
   "linker_set_key" : "_ZN4llvm12DenseMapBaseINS_8DenseMapIjNS_11SmallVectorIPKNS_12GCOVFunctionELj1EEENS_12DenseMapInfoIjEENS_6detail12DenseMapPairIjS6_EEEEjS6_S8_SB_EC2Ev",
   "parameters" :
   [
    {
     "is_this_ptr" : true,
     "referenced_type" : "_ZTIPN4llvm12DenseMapBaseINS_8DenseMapIjNS_11SmallVectorIPKNS_12GCOVFunctionELj1EEENS_12DenseMapInfoIjEENS_6detail12DenseMapPairIjS6_EEEEjS6_S8_SB_EE"
    }
   ],
   "return_type" : "_ZTIv",
   "source_file" : "external/llvm/include/llvm/ADT/DenseMap.h"
  },
  {
   "function_name" : "llvm::DenseMapBase<llvm::DenseMap<unsigned int, llvm::SmallVector<const llvm::GCOVFunction *, 1>, llvm::DenseMapInfo<unsigned int>, llvm::detail::DenseMapPair<unsigned int, llvm::SmallVector<const llvm::GCOVFunction *, 1>>>, unsigned int, llvm::SmallVector<const llvm::GCOVFunction *, 1>, llvm::DenseMapInfo<unsigned int>, llvm::detail::DenseMapPair<unsigned int, llvm::SmallVector<const llvm::GCOVFunction *, 1>>>::operator[]",
   "linker_set_key" : "_ZN4llvm12DenseMapBaseINS_8DenseMapIjNS_11SmallVectorIPKNS_12GCOVFunctionELj1EEENS_12DenseMapInfoIjEENS_6detail12DenseMapPairIjS6_EEEEjS6_S8_SB_EixEOj",
   "parameters" :
   [
    {
     "is_this_ptr" : true,
     "referenced_type" : "_ZTIPN4llvm12DenseMapBaseINS_8DenseMapIjNS_11SmallVectorIPKNS_12GCOVFunctionELj1EEENS_12DenseMapInfoIjEENS_6detail12DenseMapPairIjS6_EEEEjS6_S8_SB_EE"
    },
    {
     "referenced_type" : "_ZTIOj"
    }
   ],
   "return_type" : "_ZTIRN4llvm11SmallVectorIPKNS_12GCOVFunctionELj1EEE",
   "source_file" : "external/llvm/include/llvm/ADT/DenseMap.h"
  },
  {
   "access" : "protected",
   "function_name" : "llvm::DenseMapBase<llvm::DenseMap<unsigned int, llvm::SmallVector<const llvm::GCOVBlock *, 4>, llvm::DenseMapInfo<unsigned int>, llvm::detail::DenseMapPair<unsigned int, llvm::SmallVector<const llvm::GCOVBlock *, 4>>>, unsigned int, llvm::SmallVector<const llvm::GCOVBlock *, 4>, llvm::DenseMapInfo<unsigned int>, llvm::detail::DenseMapPair<unsigned int, llvm::SmallVector<const llvm::GCOVBlock *, 4>>>::destroyAll",
   "linker_set_key" : "_ZN4llvm12DenseMapBaseINS_8DenseMapIjNS_11SmallVectorIPKNS_9GCOVBlockELj4EEENS_12DenseMapInfoIjEENS_6detail12DenseMapPairIjS6_EEEEjS6_S8_SB_E10destroyAllEv",
   "parameters" :
   [
    {
     "is_this_ptr" : true,
     "referenced_type" : "_ZTIPN4llvm12DenseMapBaseINS_8DenseMapIjNS_11SmallVectorIPKNS_9GCOVBlockELj4EEENS_12DenseMapInfoIjEENS_6detail12DenseMapPairIjS6_EEEEjS6_S8_SB_EE"
    }
   ],
   "return_type" : "_ZTIv",
   "source_file" : "external/llvm/include/llvm/ADT/DenseMap.h"
  },
  {
   "access" : "private",
   "function_name" : "llvm::DenseMapBase<llvm::DenseMap<unsigned int, llvm::SmallVector<const llvm::GCOVBlock *, 4>, llvm::DenseMapInfo<unsigned int>, llvm::detail::DenseMapPair<unsigned int, llvm::SmallVector<const llvm::GCOVBlock *, 4>>>, unsigned int, llvm::SmallVector<const llvm::GCOVBlock *, 4>, llvm::DenseMapInfo<unsigned int>, llvm::detail::DenseMapPair<unsigned int, llvm::SmallVector<const llvm::GCOVBlock *, 4>>>::getBuckets",
   "linker_set_key" : "_ZN4llvm12DenseMapBaseINS_8DenseMapIjNS_11SmallVectorIPKNS_9GCOVBlockELj4EEENS_12DenseMapInfoIjEENS_6detail12DenseMapPairIjS6_EEEEjS6_S8_SB_E10getBucketsEv",
   "parameters" :
   [
    {
     "is_this_ptr" : true,
     "referenced_type" : "_ZTIPN4llvm12DenseMapBaseINS_8DenseMapIjNS_11SmallVectorIPKNS_9GCOVBlockELj4EEENS_12DenseMapInfoIjEENS_6detail12DenseMapPairIjS6_EEEEjS6_S8_SB_EE"
    }
   ],
   "return_type" : "_ZTIPN4llvm6detail12DenseMapPairIjNS_11SmallVectorIPKNS_9GCOVBlockELj4EEEEE",
   "source_file" : "external/llvm/include/llvm/ADT/DenseMap.h"
  },
  {
   "access" : "protected",
   "function_name" : "llvm::DenseMapBase<llvm::DenseMap<unsigned int, llvm::SmallVector<const llvm::GCOVBlock *, 4>, llvm::DenseMapInfo<unsigned int>, llvm::detail::DenseMapPair<unsigned int, llvm::SmallVector<const llvm::GCOVBlock *, 4>>>, unsigned int, llvm::SmallVector<const llvm::GCOVBlock *, 4>, llvm::DenseMapInfo<unsigned int>, llvm::detail::DenseMapPair<unsigned int, llvm::SmallVector<const llvm::GCOVBlock *, 4>>>::getEmptyKey",
   "linker_set_key" : "_ZN4llvm12DenseMapBaseINS_8DenseMapIjNS_11SmallVectorIPKNS_9GCOVBlockELj4EEENS_12DenseMapInfoIjEENS_6detail12DenseMapPairIjS6_EEEEjS6_S8_SB_E11getEmptyKeyEv",
   "return_type" : "_ZTIKj",
   "source_file" : "external/llvm/include/llvm/ADT/DenseMap.h"
  },
  {
   "access" : "protected",
   "function_name" : "llvm::DenseMapBase<llvm::DenseMap<unsigned int, llvm::SmallVector<const llvm::GCOVBlock *, 4>, llvm::DenseMapInfo<unsigned int>, llvm::detail::DenseMapPair<unsigned int, llvm::SmallVector<const llvm::GCOVBlock *, 4>>>, unsigned int, llvm::SmallVector<const llvm::GCOVBlock *, 4>, llvm::DenseMapInfo<unsigned int>, llvm::detail::DenseMapPair<unsigned int, llvm::SmallVector<const llvm::GCOVBlock *, 4>>>::getHashValue",
   "linker_set_key" : "_ZN4llvm12DenseMapBaseINS_8DenseMapIjNS_11SmallVectorIPKNS_9GCOVBlockELj4EEENS_12DenseMapInfoIjEENS_6detail12DenseMapPairIjS6_EEEEjS6_S8_SB_E12getHashValueERKj",
   "parameters" :
   [
    {
     "referenced_type" : "_ZTIRKj"
    }
   ],
   "return_type" : "_ZTIj",
   "source_file" : "external/llvm/include/llvm/ADT/DenseMap.h"
  },
  {
   "access" : "private",
   "function_name" : "llvm::DenseMapBase<llvm::DenseMap<unsigned int, llvm::SmallVector<const llvm::GCOVBlock *, 4>, llvm::DenseMapInfo<unsigned int>, llvm::detail::DenseMapPair<unsigned int, llvm::SmallVector<const llvm::GCOVBlock *, 4>>>, unsigned int, llvm::SmallVector<const llvm::GCOVBlock *, 4>, llvm::DenseMapInfo<unsigned int>, llvm::detail::DenseMapPair<unsigned int, llvm::SmallVector<const llvm::GCOVBlock *, 4>>>::getBucketsEnd",
   "linker_set_key" : "_ZN4llvm12DenseMapBaseINS_8DenseMapIjNS_11SmallVectorIPKNS_9GCOVBlockELj4EEENS_12DenseMapInfoIjEENS_6detail12DenseMapPairIjS6_EEEEjS6_S8_SB_E13getBucketsEndEv",
   "parameters" :
   [
    {
     "is_this_ptr" : true,
     "referenced_type" : "_ZTIPN4llvm12DenseMapBaseINS_8DenseMapIjNS_11SmallVectorIPKNS_9GCOVBlockELj4EEENS_12DenseMapInfoIjEENS_6detail12DenseMapPairIjS6_EEEEjS6_S8_SB_EE"
    }
   ],
   "return_type" : "_ZTIPN4llvm6detail12DenseMapPairIjNS_11SmallVectorIPKNS_9GCOVBlockELj4EEEEE",
   "source_file" : "external/llvm/include/llvm/ADT/DenseMap.h"
  },
  {
   "access" : "private",
   "function_name" : "llvm::DenseMapBase<llvm::DenseMap<unsigned int, llvm::SmallVector<const llvm::GCOVBlock *, 4>, llvm::DenseMapInfo<unsigned int>, llvm::detail::DenseMapPair<unsigned int, llvm::SmallVector<const llvm::GCOVBlock *, 4>>>, unsigned int, llvm::SmallVector<const llvm::GCOVBlock *, 4>, llvm::DenseMapInfo<unsigned int>, llvm::detail::DenseMapPair<unsigned int, llvm::SmallVector<const llvm::GCOVBlock *, 4>>>::setNumEntries",
   "linker_set_key" : "_ZN4llvm12DenseMapBaseINS_8DenseMapIjNS_11SmallVectorIPKNS_9GCOVBlockELj4EEENS_12DenseMapInfoIjEENS_6detail12DenseMapPairIjS6_EEEEjS6_S8_SB_E13setNumEntriesEj",
   "parameters" :
   [
    {
     "is_this_ptr" : true,
     "referenced_type" : "_ZTIPN4llvm12DenseMapBaseINS_8DenseMapIjNS_11SmallVectorIPKNS_9GCOVBlockELj4EEENS_12DenseMapInfoIjEENS_6detail12DenseMapPairIjS6_EEEEjS6_S8_SB_EE"
    },
    {
     "referenced_type" : "_ZTIj"
    }
   ],
   "return_type" : "_ZTIv",
   "source_file" : "external/llvm/include/llvm/ADT/DenseMap.h"
  },
  {
   "access" : "private",
   "function_name" : "llvm::DenseMapBase<llvm::DenseMap<unsigned int, llvm::SmallVector<const llvm::GCOVBlock *, 4>, llvm::DenseMapInfo<unsigned int>, llvm::detail::DenseMapPair<unsigned int, llvm::SmallVector<const llvm::GCOVBlock *, 4>>>, unsigned int, llvm::SmallVector<const llvm::GCOVBlock *, 4>, llvm::DenseMapInfo<unsigned int>, llvm::detail::DenseMapPair<unsigned int, llvm::SmallVector<const llvm::GCOVBlock *, 4>>>::LookupBucketFor",
   "linker_set_key" : "_ZN4llvm12DenseMapBaseINS_8DenseMapIjNS_11SmallVectorIPKNS_9GCOVBlockELj4EEENS_12DenseMapInfoIjEENS_6detail12DenseMapPairIjS6_EEEEjS6_S8_SB_E15LookupBucketForIjEEbRKT_RPSB_",
   "parameters" :
   [
    {
     "is_this_ptr" : true,
     "referenced_type" : "_ZTIPN4llvm12DenseMapBaseINS_8DenseMapIjNS_11SmallVectorIPKNS_9GCOVBlockELj4EEENS_12DenseMapInfoIjEENS_6detail12DenseMapPairIjS6_EEEEjS6_S8_SB_EE"
    },
    {
     "referenced_type" : "_ZTIRKj"
    },
    {
     "referenced_type" : "_ZTIRPN4llvm6detail12DenseMapPairIjNS_11SmallVectorIPKNS_9GCOVBlockELj4EEEEE"
    }
   ],
   "return_type" : "_ZTIb",
   "source_file" : "external/llvm/include/llvm/ADT/DenseMap.h",
   "template_args" : [ "_ZTIj" ]
  },
  {
   "access" : "protected",
   "function_name" : "llvm::DenseMapBase<llvm::DenseMap<unsigned int, llvm::SmallVector<const llvm::GCOVBlock *, 4>, llvm::DenseMapInfo<unsigned int>, llvm::detail::DenseMapPair<unsigned int, llvm::SmallVector<const llvm::GCOVBlock *, 4>>>, unsigned int, llvm::SmallVector<const llvm::GCOVBlock *, 4>, llvm::DenseMapInfo<unsigned int>, llvm::detail::DenseMapPair<unsigned int, llvm::SmallVector<const llvm::GCOVBlock *, 4>>>::getTombstoneKey",
   "linker_set_key" : "_ZN4llvm12DenseMapBaseINS_8DenseMapIjNS_11SmallVectorIPKNS_9GCOVBlockELj4EEENS_12DenseMapInfoIjEENS_6detail12DenseMapPairIjS6_EEEEjS6_S8_SB_E15getTombstoneKeyEv",
   "return_type" : "_ZTIKj",
   "source_file" : "external/llvm/include/llvm/ADT/DenseMap.h"
  },
  {
   "function_name" : "llvm::DenseMapBase<llvm::DenseMap<unsigned int, llvm::SmallVector<const llvm::GCOVBlock *, 4>, llvm::DenseMapInfo<unsigned int>, llvm::detail::DenseMapPair<unsigned int, llvm::SmallVector<const llvm::GCOVBlock *, 4>>>, unsigned int, llvm::SmallVector<const llvm::GCOVBlock *, 4>, llvm::DenseMapInfo<unsigned int>, llvm::detail::DenseMapPair<unsigned int, llvm::SmallVector<const llvm::GCOVBlock *, 4>>>::FindAndConstruct",
   "linker_set_key" : "_ZN4llvm12DenseMapBaseINS_8DenseMapIjNS_11SmallVectorIPKNS_9GCOVBlockELj4EEENS_12DenseMapInfoIjEENS_6detail12DenseMapPairIjS6_EEEEjS6_S8_SB_E16FindAndConstructEOj",
   "parameters" :
   [
    {
     "is_this_ptr" : true,
     "referenced_type" : "_ZTIPN4llvm12DenseMapBaseINS_8DenseMapIjNS_11SmallVectorIPKNS_9GCOVBlockELj4EEENS_12DenseMapInfoIjEENS_6detail12DenseMapPairIjS6_EEEEjS6_S8_SB_EE"
    },
    {
     "referenced_type" : "_ZTIOj"
    }
   ],
   "return_type" : "_ZTIRN4llvm6detail12DenseMapPairIjNS_11SmallVectorIPKNS_9GCOVBlockELj4EEEEE",
   "source_file" : "external/llvm/include/llvm/ADT/DenseMap.h"
  },
  {
   "access" : "private",
   "function_name" : "llvm::DenseMapBase<llvm::DenseMap<unsigned int, llvm::SmallVector<const llvm::GCOVBlock *, 4>, llvm::DenseMapInfo<unsigned int>, llvm::detail::DenseMapPair<unsigned int, llvm::SmallVector<const llvm::GCOVBlock *, 4>>>, unsigned int, llvm::SmallVector<const llvm::GCOVBlock *, 4>, llvm::DenseMapInfo<unsigned int>, llvm::detail::DenseMapPair<unsigned int, llvm::SmallVector<const llvm::GCOVBlock *, 4>>>::InsertIntoBucket",
   "linker_set_key" : "_ZN4llvm12DenseMapBaseINS_8DenseMapIjNS_11SmallVectorIPKNS_9GCOVBlockELj4EEENS_12DenseMapInfoIjEENS_6detail12DenseMapPairIjS6_EEEEjS6_S8_SB_E16InsertIntoBucketEOjOS6_PSB_",
   "parameters" :
   [
    {
     "is_this_ptr" : true,
     "referenced_type" : "_ZTIPN4llvm12DenseMapBaseINS_8DenseMapIjNS_11SmallVectorIPKNS_9GCOVBlockELj4EEENS_12DenseMapInfoIjEENS_6detail12DenseMapPairIjS6_EEEEjS6_S8_SB_EE"
    },
    {
     "referenced_type" : "_ZTIOj"
    },
    {
     "referenced_type" : "_ZTION4llvm11SmallVectorIPKNS_9GCOVBlockELj4EEE"
    },
    {
     "referenced_type" : "_ZTIPN4llvm6detail12DenseMapPairIjNS_11SmallVectorIPKNS_9GCOVBlockELj4EEEEE"
    }
   ],
   "return_type" : "_ZTIPN4llvm6detail12DenseMapPairIjNS_11SmallVectorIPKNS_9GCOVBlockELj4EEEEE",
   "source_file" : "external/llvm/include/llvm/ADT/DenseMap.h"
  },
  {
   "access" : "private",
   "function_name" : "llvm::DenseMapBase<llvm::DenseMap<unsigned int, llvm::SmallVector<const llvm::GCOVBlock *, 4>, llvm::DenseMapInfo<unsigned int>, llvm::detail::DenseMapPair<unsigned int, llvm::SmallVector<const llvm::GCOVBlock *, 4>>>, unsigned int, llvm::SmallVector<const llvm::GCOVBlock *, 4>, llvm::DenseMapInfo<unsigned int>, llvm::detail::DenseMapPair<unsigned int, llvm::SmallVector<const llvm::GCOVBlock *, 4>>>::setNumTombstones",
   "linker_set_key" : "_ZN4llvm12DenseMapBaseINS_8DenseMapIjNS_11SmallVectorIPKNS_9GCOVBlockELj4EEENS_12DenseMapInfoIjEENS_6detail12DenseMapPairIjS6_EEEEjS6_S8_SB_E16setNumTombstonesEj",
   "parameters" :
   [
    {
     "is_this_ptr" : true,
     "referenced_type" : "_ZTIPN4llvm12DenseMapBaseINS_8DenseMapIjNS_11SmallVectorIPKNS_9GCOVBlockELj4EEENS_12DenseMapInfoIjEENS_6detail12DenseMapPairIjS6_EEEEjS6_S8_SB_EE"
    },
    {
     "referenced_type" : "_ZTIj"
    }
   ],
   "return_type" : "_ZTIv",
   "source_file" : "external/llvm/include/llvm/ADT/DenseMap.h"
  },
  {
   "access" : "protected",
   "function_name" : "llvm::DenseMapBase<llvm::DenseMap<unsigned int, llvm::SmallVector<const llvm::GCOVBlock *, 4>, llvm::DenseMapInfo<unsigned int>, llvm::detail::DenseMapPair<unsigned int, llvm::SmallVector<const llvm::GCOVBlock *, 4>>>, unsigned int, llvm::SmallVector<const llvm::GCOVBlock *, 4>, llvm::DenseMapInfo<unsigned int>, llvm::detail::DenseMapPair<unsigned int, llvm::SmallVector<const llvm::GCOVBlock *, 4>>>::moveFromOldBuckets",
   "linker_set_key" : "_ZN4llvm12DenseMapBaseINS_8DenseMapIjNS_11SmallVectorIPKNS_9GCOVBlockELj4EEENS_12DenseMapInfoIjEENS_6detail12DenseMapPairIjS6_EEEEjS6_S8_SB_E18moveFromOldBucketsEPSB_SE_",
   "parameters" :
   [
    {
     "is_this_ptr" : true,
     "referenced_type" : "_ZTIPN4llvm12DenseMapBaseINS_8DenseMapIjNS_11SmallVectorIPKNS_9GCOVBlockELj4EEENS_12DenseMapInfoIjEENS_6detail12DenseMapPairIjS6_EEEEjS6_S8_SB_EE"
    },
    {
     "referenced_type" : "_ZTIPN4llvm6detail12DenseMapPairIjNS_11SmallVectorIPKNS_9GCOVBlockELj4EEEEE"
    },
    {
     "referenced_type" : "_ZTIPN4llvm6detail12DenseMapPairIjNS_11SmallVectorIPKNS_9GCOVBlockELj4EEEEE"
    }
   ],
   "return_type" : "_ZTIv",
   "source_file" : "external/llvm/include/llvm/ADT/DenseMap.h"
  },
  {
   "access" : "private",
   "function_name" : "llvm::DenseMapBase<llvm::DenseMap<unsigned int, llvm::SmallVector<const llvm::GCOVBlock *, 4>, llvm::DenseMapInfo<unsigned int>, llvm::detail::DenseMapPair<unsigned int, llvm::SmallVector<const llvm::GCOVBlock *, 4>>>, unsigned int, llvm::SmallVector<const llvm::GCOVBlock *, 4>, llvm::DenseMapInfo<unsigned int>, llvm::detail::DenseMapPair<unsigned int, llvm::SmallVector<const llvm::GCOVBlock *, 4>>>::incrementNumEntries",
   "linker_set_key" : "_ZN4llvm12DenseMapBaseINS_8DenseMapIjNS_11SmallVectorIPKNS_9GCOVBlockELj4EEENS_12DenseMapInfoIjEENS_6detail12DenseMapPairIjS6_EEEEjS6_S8_SB_E19incrementNumEntriesEv",
   "parameters" :
   [
    {
     "is_this_ptr" : true,
     "referenced_type" : "_ZTIPN4llvm12DenseMapBaseINS_8DenseMapIjNS_11SmallVectorIPKNS_9GCOVBlockELj4EEENS_12DenseMapInfoIjEENS_6detail12DenseMapPairIjS6_EEEEjS6_S8_SB_EE"
    }
   ],
   "return_type" : "_ZTIv",
   "source_file" : "external/llvm/include/llvm/ADT/DenseMap.h"
  },
  {
   "access" : "private",
   "function_name" : "llvm::DenseMapBase<llvm::DenseMap<unsigned int, llvm::SmallVector<const llvm::GCOVBlock *, 4>, llvm::DenseMapInfo<unsigned int>, llvm::detail::DenseMapPair<unsigned int, llvm::SmallVector<const llvm::GCOVBlock *, 4>>>, unsigned int, llvm::SmallVector<const llvm::GCOVBlock *, 4>, llvm::DenseMapInfo<unsigned int>, llvm::detail::DenseMapPair<unsigned int, llvm::SmallVector<const llvm::GCOVBlock *, 4>>>::InsertIntoBucketImpl",
   "linker_set_key" : "_ZN4llvm12DenseMapBaseINS_8DenseMapIjNS_11SmallVectorIPKNS_9GCOVBlockELj4EEENS_12DenseMapInfoIjEENS_6detail12DenseMapPairIjS6_EEEEjS6_S8_SB_E20InsertIntoBucketImplIjEEPSB_RKjRKT_SF_",
   "parameters" :
   [
    {
     "is_this_ptr" : true,
     "referenced_type" : "_ZTIPN4llvm12DenseMapBaseINS_8DenseMapIjNS_11SmallVectorIPKNS_9GCOVBlockELj4EEENS_12DenseMapInfoIjEENS_6detail12DenseMapPairIjS6_EEEEjS6_S8_SB_EE"
    },
    {
     "referenced_type" : "_ZTIRKj"
    },
    {
     "referenced_type" : "_ZTIRKj"
    },
    {
     "referenced_type" : "_ZTIPN4llvm6detail12DenseMapPairIjNS_11SmallVectorIPKNS_9GCOVBlockELj4EEEEE"
    }
   ],
   "return_type" : "_ZTIPN4llvm6detail12DenseMapPairIjNS_11SmallVectorIPKNS_9GCOVBlockELj4EEEEE",
   "source_file" : "external/llvm/include/llvm/ADT/DenseMap.h",
   "template_args" : [ "_ZTIj" ]
  },
  {
   "access" : "private",
   "function_name" : "llvm::DenseMapBase<llvm::DenseMap<unsigned int, llvm::SmallVector<const llvm::GCOVBlock *, 4>, llvm::DenseMapInfo<unsigned int>, llvm::detail::DenseMapPair<unsigned int, llvm::SmallVector<const llvm::GCOVBlock *, 4>>>, unsigned int, llvm::SmallVector<const llvm::GCOVBlock *, 4>, llvm::DenseMapInfo<unsigned int>, llvm::detail::DenseMapPair<unsigned int, llvm::SmallVector<const llvm::GCOVBlock *, 4>>>::decrementNumTombstones",
   "linker_set_key" : "_ZN4llvm12DenseMapBaseINS_8DenseMapIjNS_11SmallVectorIPKNS_9GCOVBlockELj4EEENS_12DenseMapInfoIjEENS_6detail12DenseMapPairIjS6_EEEEjS6_S8_SB_E22decrementNumTombstonesEv",
   "parameters" :
   [
    {
     "is_this_ptr" : true,
     "referenced_type" : "_ZTIPN4llvm12DenseMapBaseINS_8DenseMapIjNS_11SmallVectorIPKNS_9GCOVBlockELj4EEENS_12DenseMapInfoIjEENS_6detail12DenseMapPairIjS6_EEEEjS6_S8_SB_EE"
    }
   ],
   "return_type" : "_ZTIv",
   "source_file" : "external/llvm/include/llvm/ADT/DenseMap.h"
  },
  {
   "access" : "protected",
   "function_name" : "llvm::DenseMapBase<llvm::DenseMap<unsigned int, llvm::SmallVector<const llvm::GCOVBlock *, 4>, llvm::DenseMapInfo<unsigned int>, llvm::detail::DenseMapPair<unsigned int, llvm::SmallVector<const llvm::GCOVBlock *, 4>>>, unsigned int, llvm::SmallVector<const llvm::GCOVBlock *, 4>, llvm::DenseMapInfo<unsigned int>, llvm::detail::DenseMapPair<unsigned int, llvm::SmallVector<const llvm::GCOVBlock *, 4>>>::getMinBucketToReserveForEntries",
   "linker_set_key" : "_ZN4llvm12DenseMapBaseINS_8DenseMapIjNS_11SmallVectorIPKNS_9GCOVBlockELj4EEENS_12DenseMapInfoIjEENS_6detail12DenseMapPairIjS6_EEEEjS6_S8_SB_E31getMinBucketToReserveForEntriesEj",
   "parameters" :
   [
    {
     "is_this_ptr" : true,
     "referenced_type" : "_ZTIPN4llvm12DenseMapBaseINS_8DenseMapIjNS_11SmallVectorIPKNS_9GCOVBlockELj4EEENS_12DenseMapInfoIjEENS_6detail12DenseMapPairIjS6_EEEEjS6_S8_SB_EE"
    },
    {
     "referenced_type" : "_ZTIj"
    }
   ],
   "return_type" : "_ZTIj",
   "source_file" : "external/llvm/include/llvm/ADT/DenseMap.h"
  },
  {
   "access" : "private",
   "function_name" : "llvm::DenseMapBase<llvm::DenseMap<unsigned int, llvm::SmallVector<const llvm::GCOVBlock *, 4>, llvm::DenseMapInfo<unsigned int>, llvm::detail::DenseMapPair<unsigned int, llvm::SmallVector<const llvm::GCOVBlock *, 4>>>, unsigned int, llvm::SmallVector<const llvm::GCOVBlock *, 4>, llvm::DenseMapInfo<unsigned int>, llvm::detail::DenseMapPair<unsigned int, llvm::SmallVector<const llvm::GCOVBlock *, 4>>>::grow",
   "linker_set_key" : "_ZN4llvm12DenseMapBaseINS_8DenseMapIjNS_11SmallVectorIPKNS_9GCOVBlockELj4EEENS_12DenseMapInfoIjEENS_6detail12DenseMapPairIjS6_EEEEjS6_S8_SB_E4growEj",
   "parameters" :
   [
    {
     "is_this_ptr" : true,
     "referenced_type" : "_ZTIPN4llvm12DenseMapBaseINS_8DenseMapIjNS_11SmallVectorIPKNS_9GCOVBlockELj4EEENS_12DenseMapInfoIjEENS_6detail12DenseMapPairIjS6_EEEEjS6_S8_SB_EE"
    },
    {
     "referenced_type" : "_ZTIj"
    }
   ],
   "return_type" : "_ZTIv",
   "source_file" : "external/llvm/include/llvm/ADT/DenseMap.h"
  },
  {
   "access" : "protected",
   "function_name" : "llvm::DenseMapBase<llvm::DenseMap<unsigned int, llvm::SmallVector<const llvm::GCOVBlock *, 4>, llvm::DenseMapInfo<unsigned int>, llvm::detail::DenseMapPair<unsigned int, llvm::SmallVector<const llvm::GCOVBlock *, 4>>>, unsigned int, llvm::SmallVector<const llvm::GCOVBlock *, 4>, llvm::DenseMapInfo<unsigned int>, llvm::detail::DenseMapPair<unsigned int, llvm::SmallVector<const llvm::GCOVBlock *, 4>>>::initEmpty",
   "linker_set_key" : "_ZN4llvm12DenseMapBaseINS_8DenseMapIjNS_11SmallVectorIPKNS_9GCOVBlockELj4EEENS_12DenseMapInfoIjEENS_6detail12DenseMapPairIjS6_EEEEjS6_S8_SB_E9initEmptyEv",
   "parameters" :
   [
    {
     "is_this_ptr" : true,
     "referenced_type" : "_ZTIPN4llvm12DenseMapBaseINS_8DenseMapIjNS_11SmallVectorIPKNS_9GCOVBlockELj4EEENS_12DenseMapInfoIjEENS_6detail12DenseMapPairIjS6_EEEEjS6_S8_SB_EE"
    }
   ],
   "return_type" : "_ZTIv",
   "source_file" : "external/llvm/include/llvm/ADT/DenseMap.h"
  },
  {
   "access" : "protected",
   "function_name" : "llvm::DenseMapBase<llvm::DenseMap<unsigned int, llvm::SmallVector<const llvm::GCOVBlock *, 4>, llvm::DenseMapInfo<unsigned int>, llvm::detail::DenseMapPair<unsigned int, llvm::SmallVector<const llvm::GCOVBlock *, 4>>>, unsigned int, llvm::SmallVector<const llvm::GCOVBlock *, 4>, llvm::DenseMapInfo<unsigned int>, llvm::detail::DenseMapPair<unsigned int, llvm::SmallVector<const llvm::GCOVBlock *, 4>>>::DenseMapBase",
   "linker_set_key" : "_ZN4llvm12DenseMapBaseINS_8DenseMapIjNS_11SmallVectorIPKNS_9GCOVBlockELj4EEENS_12DenseMapInfoIjEENS_6detail12DenseMapPairIjS6_EEEEjS6_S8_SB_EC1Ev",
   "parameters" :
   [
    {
     "is_this_ptr" : true,
     "referenced_type" : "_ZTIPN4llvm12DenseMapBaseINS_8DenseMapIjNS_11SmallVectorIPKNS_9GCOVBlockELj4EEENS_12DenseMapInfoIjEENS_6detail12DenseMapPairIjS6_EEEEjS6_S8_SB_EE"
    }
   ],
   "return_type" : "_ZTIv",
   "source_file" : "external/llvm/include/llvm/ADT/DenseMap.h"
  },
  {
   "access" : "protected",
   "function_name" : "llvm::DenseMapBase<llvm::DenseMap<unsigned int, llvm::SmallVector<const llvm::GCOVBlock *, 4>, llvm::DenseMapInfo<unsigned int>, llvm::detail::DenseMapPair<unsigned int, llvm::SmallVector<const llvm::GCOVBlock *, 4>>>, unsigned int, llvm::SmallVector<const llvm::GCOVBlock *, 4>, llvm::DenseMapInfo<unsigned int>, llvm::detail::DenseMapPair<unsigned int, llvm::SmallVector<const llvm::GCOVBlock *, 4>>>::DenseMapBase",
   "linker_set_key" : "_ZN4llvm12DenseMapBaseINS_8DenseMapIjNS_11SmallVectorIPKNS_9GCOVBlockELj4EEENS_12DenseMapInfoIjEENS_6detail12DenseMapPairIjS6_EEEEjS6_S8_SB_EC2Ev",
   "parameters" :
   [
    {
     "is_this_ptr" : true,
     "referenced_type" : "_ZTIPN4llvm12DenseMapBaseINS_8DenseMapIjNS_11SmallVectorIPKNS_9GCOVBlockELj4EEENS_12DenseMapInfoIjEENS_6detail12DenseMapPairIjS6_EEEEjS6_S8_SB_EE"
    }
   ],
   "return_type" : "_ZTIv",
   "source_file" : "external/llvm/include/llvm/ADT/DenseMap.h"
  },
  {
   "function_name" : "llvm::DenseMapBase<llvm::DenseMap<unsigned int, llvm::SmallVector<const llvm::GCOVBlock *, 4>, llvm::DenseMapInfo<unsigned int>, llvm::detail::DenseMapPair<unsigned int, llvm::SmallVector<const llvm::GCOVBlock *, 4>>>, unsigned int, llvm::SmallVector<const llvm::GCOVBlock *, 4>, llvm::DenseMapInfo<unsigned int>, llvm::detail::DenseMapPair<unsigned int, llvm::SmallVector<const llvm::GCOVBlock *, 4>>>::operator[]",
   "linker_set_key" : "_ZN4llvm12DenseMapBaseINS_8DenseMapIjNS_11SmallVectorIPKNS_9GCOVBlockELj4EEENS_12DenseMapInfoIjEENS_6detail12DenseMapPairIjS6_EEEEjS6_S8_SB_EixEOj",
   "parameters" :
   [
    {
     "is_this_ptr" : true,
     "referenced_type" : "_ZTIPN4llvm12DenseMapBaseINS_8DenseMapIjNS_11SmallVectorIPKNS_9GCOVBlockELj4EEENS_12DenseMapInfoIjEENS_6detail12DenseMapPairIjS6_EEEEjS6_S8_SB_EE"
    },
    {
     "referenced_type" : "_ZTIOj"
    }
   ],
   "return_type" : "_ZTIRN4llvm11SmallVectorIPKNS_9GCOVBlockELj4EEE",
   "source_file" : "external/llvm/include/llvm/ADT/DenseMap.h"
  },
  {
   "function_name" : "llvm::DenseMapInfo<llvm::StringRef>::getEmptyKey",
   "linker_set_key" : "_ZN4llvm12DenseMapInfoINS_9StringRefEE11getEmptyKeyEv",
   "return_type" : "_ZTIN4llvm9StringRefE",
   "source_file" : "external/llvm/include/llvm/ADT/DenseMapInfo.h"
  },
  {
   "function_name" : "llvm::DenseMapInfo<llvm::StringRef>::getHashValue",
   "linker_set_key" : "_ZN4llvm12DenseMapInfoINS_9StringRefEE12getHashValueES1_",
   "parameters" :
   [
    {
     "referenced_type" : "_ZTIN4llvm9StringRefE"
    }
   ],
   "return_type" : "_ZTIj",
   "source_file" : "external/llvm/include/llvm/ADT/DenseMapInfo.h"
  },
  {
   "function_name" : "llvm::DenseMapInfo<llvm::StringRef>::getTombstoneKey",
   "linker_set_key" : "_ZN4llvm12DenseMapInfoINS_9StringRefEE15getTombstoneKeyEv",
   "return_type" : "_ZTIN4llvm9StringRefE",
   "source_file" : "external/llvm/include/llvm/ADT/DenseMapInfo.h"
  },
  {
   "function_name" : "llvm::DenseMapInfo<llvm::StringRef>::isEqual",
   "linker_set_key" : "_ZN4llvm12DenseMapInfoINS_9StringRefEE7isEqualES1_S1_",
   "parameters" :
   [
    {
     "referenced_type" : "_ZTIN4llvm9StringRefE"
    },
    {
     "referenced_type" : "_ZTIN4llvm9StringRefE"
    }
   ],
   "return_type" : "_ZTIb",
   "source_file" : "external/llvm/include/llvm/ADT/DenseMapInfo.h"
  },
  {
   "function_name" : "llvm::DenseMapInfo<const llvm::GCOVFunction *>::getEmptyKey",
   "linker_set_key" : "_ZN4llvm12DenseMapInfoIPKNS_12GCOVFunctionEE11getEmptyKeyEv",
   "return_type" : "_ZTIPKN4llvm12GCOVFunctionE",
   "source_file" : "external/llvm/include/llvm/ADT/DenseMapInfo.h"
  },
  {
   "function_name" : "llvm::DenseMapInfo<const llvm::GCOVFunction *>::getHashValue",
   "linker_set_key" : "_ZN4llvm12DenseMapInfoIPKNS_12GCOVFunctionEE12getHashValueES3_",
   "parameters" :
   [
    {
     "referenced_type" : "_ZTIPKN4llvm12GCOVFunctionE"
    }
   ],
   "return_type" : "_ZTIj",
   "source_file" : "external/llvm/include/llvm/ADT/DenseMapInfo.h"
  },
  {
   "function_name" : "llvm::DenseMapInfo<const llvm::GCOVFunction *>::getTombstoneKey",
   "linker_set_key" : "_ZN4llvm12DenseMapInfoIPKNS_12GCOVFunctionEE15getTombstoneKeyEv",
   "return_type" : "_ZTIPKN4llvm12GCOVFunctionE",
   "source_file" : "external/llvm/include/llvm/ADT/DenseMapInfo.h"
  },
  {
   "function_name" : "llvm::DenseMapInfo<const llvm::GCOVFunction *>::isEqual",
   "linker_set_key" : "_ZN4llvm12DenseMapInfoIPKNS_12GCOVFunctionEE7isEqualES3_S3_",
   "parameters" :
   [
    {
     "referenced_type" : "_ZTIPKN4llvm12GCOVFunctionE"
    },
    {
     "referenced_type" : "_ZTIPKN4llvm12GCOVFunctionE"
    }
   ],
   "return_type" : "_ZTIb",
   "source_file" : "external/llvm/include/llvm/ADT/DenseMapInfo.h"
  },
  {
   "function_name" : "llvm::DenseMapInfo<char>::getEmptyKey",
   "linker_set_key" : "_ZN4llvm12DenseMapInfoIcE11getEmptyKeyEv",
   "return_type" : "_ZTIc",
   "source_file" : "external/llvm/include/llvm/ADT/DenseMapInfo.h"
  },
  {
   "function_name" : "llvm::DenseMapInfo<char>::getHashValue",
   "linker_set_key" : "_ZN4llvm12DenseMapInfoIcE12getHashValueERKc",
   "parameters" :
   [
    {
     "referenced_type" : "_ZTIRKc"
    }
   ],
   "return_type" : "_ZTIj",
   "source_file" : "external/llvm/include/llvm/ADT/DenseMapInfo.h"
  },
  {
   "function_name" : "llvm::DenseMapInfo<char>::getTombstoneKey",
   "linker_set_key" : "_ZN4llvm12DenseMapInfoIcE15getTombstoneKeyEv",
   "return_type" : "_ZTIc",
   "source_file" : "external/llvm/include/llvm/ADT/DenseMapInfo.h"
  },
  {
   "function_name" : "llvm::DenseMapInfo<char>::isEqual",
   "linker_set_key" : "_ZN4llvm12DenseMapInfoIcE7isEqualERKcS3_",
   "parameters" :
   [
    {
     "referenced_type" : "_ZTIRKc"
    },
    {
     "referenced_type" : "_ZTIRKc"
    }
   ],
   "return_type" : "_ZTIb",
   "source_file" : "external/llvm/include/llvm/ADT/DenseMapInfo.h"
  },
  {
   "function_name" : "llvm::DenseMapInfo<int>::getEmptyKey",
   "linker_set_key" : "_ZN4llvm12DenseMapInfoIiE11getEmptyKeyEv",
   "return_type" : "_ZTIi",
   "source_file" : "external/llvm/include/llvm/ADT/DenseMapInfo.h"
  },
  {
   "function_name" : "llvm::DenseMapInfo<int>::getHashValue",
   "linker_set_key" : "_ZN4llvm12DenseMapInfoIiE12getHashValueERKi",
   "parameters" :
   [
    {
     "referenced_type" : "_ZTIRKi"
    }
   ],
   "return_type" : "_ZTIj",
   "source_file" : "external/llvm/include/llvm/ADT/DenseMapInfo.h"
  },
  {
   "function_name" : "llvm::DenseMapInfo<int>::getTombstoneKey",
   "linker_set_key" : "_ZN4llvm12DenseMapInfoIiE15getTombstoneKeyEv",
   "return_type" : "_ZTIi",
   "source_file" : "external/llvm/include/llvm/ADT/DenseMapInfo.h"
  },
  {
   "function_name" : "llvm::DenseMapInfo<int>::isEqual",
   "linker_set_key" : "_ZN4llvm12DenseMapInfoIiE7isEqualERKiS3_",
   "parameters" :
   [
    {
     "referenced_type" : "_ZTIRKi"
    },
    {
     "referenced_type" : "_ZTIRKi"
    }
   ],
   "return_type" : "_ZTIb",
   "source_file" : "external/llvm/include/llvm/ADT/DenseMapInfo.h"
  },
  {
   "function_name" : "llvm::DenseMapInfo<unsigned int>::getEmptyKey",
   "linker_set_key" : "_ZN4llvm12DenseMapInfoIjE11getEmptyKeyEv",
   "return_type" : "_ZTIj",
   "source_file" : "external/llvm/include/llvm/ADT/DenseMapInfo.h"
  },
  {
   "function_name" : "llvm::DenseMapInfo<unsigned int>::getHashValue",
   "linker_set_key" : "_ZN4llvm12DenseMapInfoIjE12getHashValueERKj",
   "parameters" :
   [
    {
     "referenced_type" : "_ZTIRKj"
    }
   ],
   "return_type" : "_ZTIj",
   "source_file" : "external/llvm/include/llvm/ADT/DenseMapInfo.h"
  },
  {
   "function_name" : "llvm::DenseMapInfo<unsigned int>::getTombstoneKey",
   "linker_set_key" : "_ZN4llvm12DenseMapInfoIjE15getTombstoneKeyEv",
   "return_type" : "_ZTIj",
   "source_file" : "external/llvm/include/llvm/ADT/DenseMapInfo.h"
  },
  {
   "function_name" : "llvm::DenseMapInfo<unsigned int>::isEqual",
   "linker_set_key" : "_ZN4llvm12DenseMapInfoIjE7isEqualERKjS3_",
   "parameters" :
   [
    {
     "referenced_type" : "_ZTIRKj"
    },
    {
     "referenced_type" : "_ZTIRKj"
    }
   ],
   "return_type" : "_ZTIb",
   "source_file" : "external/llvm/include/llvm/ADT/DenseMapInfo.h"
  },
  {
   "function_name" : "llvm::DenseMapInfo<long>::getEmptyKey",
   "linker_set_key" : "_ZN4llvm12DenseMapInfoIlE11getEmptyKeyEv",
   "return_type" : "_ZTIl",
   "source_file" : "external/llvm/include/llvm/ADT/DenseMapInfo.h"
  },
  {
   "function_name" : "llvm::DenseMapInfo<long>::getHashValue",
   "linker_set_key" : "_ZN4llvm12DenseMapInfoIlE12getHashValueERKl",
   "parameters" :
   [
    {
     "referenced_type" : "_ZTIRKl"
    }
   ],
   "return_type" : "_ZTIj",
   "source_file" : "external/llvm/include/llvm/ADT/DenseMapInfo.h"
  },
  {
   "function_name" : "llvm::DenseMapInfo<long>::getTombstoneKey",
   "linker_set_key" : "_ZN4llvm12DenseMapInfoIlE15getTombstoneKeyEv",
   "return_type" : "_ZTIl",
   "source_file" : "external/llvm/include/llvm/ADT/DenseMapInfo.h"
  },
  {
   "function_name" : "llvm::DenseMapInfo<long>::isEqual",
   "linker_set_key" : "_ZN4llvm12DenseMapInfoIlE7isEqualERKlS3_",
   "parameters" :
   [
    {
     "referenced_type" : "_ZTIRKl"
    },
    {
     "referenced_type" : "_ZTIRKl"
    }
   ],
   "return_type" : "_ZTIb",
   "source_file" : "external/llvm/include/llvm/ADT/DenseMapInfo.h"
  },
  {
   "function_name" : "llvm::DenseMapInfo<unsigned long>::getEmptyKey",
   "linker_set_key" : "_ZN4llvm12DenseMapInfoImE11getEmptyKeyEv",
   "return_type" : "_ZTIm",
   "source_file" : "external/llvm/include/llvm/ADT/DenseMapInfo.h"
  },
  {
   "function_name" : "llvm::DenseMapInfo<unsigned long>::getHashValue",
   "linker_set_key" : "_ZN4llvm12DenseMapInfoImE12getHashValueERKm",
   "parameters" :
   [
    {
     "referenced_type" : "_ZTIRKm"
    }
   ],
   "return_type" : "_ZTIj",
   "source_file" : "external/llvm/include/llvm/ADT/DenseMapInfo.h"
  },
  {
   "function_name" : "llvm::DenseMapInfo<unsigned long>::getTombstoneKey",
   "linker_set_key" : "_ZN4llvm12DenseMapInfoImE15getTombstoneKeyEv",
   "return_type" : "_ZTIm",
   "source_file" : "external/llvm/include/llvm/ADT/DenseMapInfo.h"
  },
  {
   "function_name" : "llvm::DenseMapInfo<unsigned long>::isEqual",
   "linker_set_key" : "_ZN4llvm12DenseMapInfoImE7isEqualERKmS3_",
   "parameters" :
   [
    {
     "referenced_type" : "_ZTIRKm"
    },
    {
     "referenced_type" : "_ZTIRKm"
    }
   ],
   "return_type" : "_ZTIb",
   "source_file" : "external/llvm/include/llvm/ADT/DenseMapInfo.h"
  },
  {
   "function_name" : "llvm::DenseMapInfo<long long>::getEmptyKey",
   "linker_set_key" : "_ZN4llvm12DenseMapInfoIxE11getEmptyKeyEv",
   "return_type" : "_ZTIx",
   "source_file" : "external/llvm/include/llvm/ADT/DenseMapInfo.h"
  },
  {
   "function_name" : "llvm::DenseMapInfo<long long>::getHashValue",
   "linker_set_key" : "_ZN4llvm12DenseMapInfoIxE12getHashValueERKx",
   "parameters" :
   [
    {
     "referenced_type" : "_ZTIRKx"
    }
   ],
   "return_type" : "_ZTIj",
   "source_file" : "external/llvm/include/llvm/ADT/DenseMapInfo.h"
  },
  {
   "function_name" : "llvm::DenseMapInfo<long long>::getTombstoneKey",
   "linker_set_key" : "_ZN4llvm12DenseMapInfoIxE15getTombstoneKeyEv",
   "return_type" : "_ZTIx",
   "source_file" : "external/llvm/include/llvm/ADT/DenseMapInfo.h"
  },
  {
   "function_name" : "llvm::DenseMapInfo<long long>::isEqual",
   "linker_set_key" : "_ZN4llvm12DenseMapInfoIxE7isEqualERKxS3_",
   "parameters" :
   [
    {
     "referenced_type" : "_ZTIRKx"
    },
    {
     "referenced_type" : "_ZTIRKx"
    }
   ],
   "return_type" : "_ZTIb",
   "source_file" : "external/llvm/include/llvm/ADT/DenseMapInfo.h"
  },
  {
   "function_name" : "llvm::DenseMapInfo<unsigned long long>::getEmptyKey",
   "linker_set_key" : "_ZN4llvm12DenseMapInfoIyE11getEmptyKeyEv",
   "return_type" : "_ZTIy",
   "source_file" : "external/llvm/include/llvm/ADT/DenseMapInfo.h"
  },
  {
   "function_name" : "llvm::DenseMapInfo<unsigned long long>::getHashValue",
   "linker_set_key" : "_ZN4llvm12DenseMapInfoIyE12getHashValueERKy",
   "parameters" :
   [
    {
     "referenced_type" : "_ZTIRKy"
    }
   ],
   "return_type" : "_ZTIj",
   "source_file" : "external/llvm/include/llvm/ADT/DenseMapInfo.h"
  },
  {
   "function_name" : "llvm::DenseMapInfo<unsigned long long>::getTombstoneKey",
   "linker_set_key" : "_ZN4llvm12DenseMapInfoIyE15getTombstoneKeyEv",
   "return_type" : "_ZTIy",
   "source_file" : "external/llvm/include/llvm/ADT/DenseMapInfo.h"
  },
  {
   "function_name" : "llvm::DenseMapInfo<unsigned long long>::isEqual",
   "linker_set_key" : "_ZN4llvm12DenseMapInfoIyE7isEqualERKyS3_",
   "parameters" :
   [
    {
     "referenced_type" : "_ZTIRKy"
    },
    {
     "referenced_type" : "_ZTIRKy"
    }
   ],
   "return_type" : "_ZTIb",
   "source_file" : "external/llvm/include/llvm/ADT/DenseMapInfo.h"
  },
  {
   "function_name" : "llvm::DoubleToBits",
   "linker_set_key" : "_ZN4llvm12DoubleToBitsEd",
   "parameters" :
   [
    {
     "referenced_type" : "_ZTId"
    }
   ],
   "return_type" : "_ZTIm",
   "source_file" : "external/llvm/include/llvm/Support/MathExtras.h"
  },
  {
   "function_name" : "llvm::GCOVFunction::collectLineCounts",
   "linker_set_key" : "_ZN4llvm12GCOVFunction17collectLineCountsERNS_8FileInfoE",
   "parameters" :
   [
    {
     "is_this_ptr" : true,
     "referenced_type" : "_ZTIPN4llvm12GCOVFunctionE"
    },
    {
     "referenced_type" : "_ZTIRN4llvm8FileInfoE"
    }
   ],
   "return_type" : "_ZTIv",
   "source_file" : "external/llvm/include/llvm/Support/GCOV.h"
  },
  {
   "function_name" : "llvm::GCOVFunction::readGCDA",
   "linker_set_key" : "_ZN4llvm12GCOVFunction8readGCDAERNS_10GCOVBufferENS_4GCOV11GCOVVersionE",
   "parameters" :
   [
    {
     "is_this_ptr" : true,
     "referenced_type" : "_ZTIPN4llvm12GCOVFunctionE"
    },
    {
     "referenced_type" : "_ZTIRN4llvm10GCOVBufferE"
    },
    {
     "referenced_type" : "_ZTIN4llvm4GCOV11GCOVVersionE"
    }
   ],
   "return_type" : "_ZTIb",
   "source_file" : "external/llvm/include/llvm/Support/GCOV.h"
  },
  {
   "function_name" : "llvm::GCOVFunction::readGCNO",
   "linker_set_key" : "_ZN4llvm12GCOVFunction8readGCNOERNS_10GCOVBufferENS_4GCOV11GCOVVersionE",
   "parameters" :
   [
    {
     "is_this_ptr" : true,
     "referenced_type" : "_ZTIPN4llvm12GCOVFunctionE"
    },
    {
     "referenced_type" : "_ZTIRN4llvm10GCOVBufferE"
    },
    {
     "referenced_type" : "_ZTIN4llvm4GCOV11GCOVVersionE"
    }
   ],
   "return_type" : "_ZTIb",
   "source_file" : "external/llvm/include/llvm/Support/GCOV.h"
  },
  {
   "function_name" : "llvm::GCOVFunction::GCOVFunction",
   "linker_set_key" : "_ZN4llvm12GCOVFunctionC1ERNS_8GCOVFileE",
   "parameters" :
   [
    {
     "is_this_ptr" : true,
     "referenced_type" : "_ZTIPN4llvm12GCOVFunctionE"
    },
    {
     "referenced_type" : "_ZTIRN4llvm8GCOVFileE"
    }
   ],
   "return_type" : "_ZTIv",
   "source_file" : "external/llvm/include/llvm/Support/GCOV.h"
  },
  {
   "function_name" : "llvm::GCOVFunction::GCOVFunction",
   "linker_set_key" : "_ZN4llvm12GCOVFunctionC2ERNS_8GCOVFileE",
   "parameters" :
   [
    {
     "is_this_ptr" : true,
     "referenced_type" : "_ZTIPN4llvm12GCOVFunctionE"
    },
    {
     "referenced_type" : "_ZTIRN4llvm8GCOVFileE"
    }
   ],
   "return_type" : "_ZTIv",
   "source_file" : "external/llvm/include/llvm/Support/GCOV.h"
  },
  {
   "function_name" : "llvm::Log2_32_Ceil",
   "linker_set_key" : "_ZN4llvm12Log2_32_CeilEj",
   "parameters" :
   [
    {
     "referenced_type" : "_ZTIj"
    }
   ],
   "return_type" : "_ZTIj",
   "source_file" : "external/llvm/include/llvm/Support/MathExtras.h"
  },
  {
   "function_name" : "llvm::Log2_64_Ceil",
   "linker_set_key" : "_ZN4llvm12Log2_64_CeilEm",
   "parameters" :
   [
    {
     "referenced_type" : "_ZTIm"
    }
   ],
   "return_type" : "_ZTIj",
   "source_file" : "external/llvm/include/llvm/Support/MathExtras.h"
  },
  {
   "access" : "protected",
   "function_name" : "llvm::MemoryBuffer::MemoryBuffer",
   "linker_set_key" : "_ZN4llvm12MemoryBufferC2Ev",
   "parameters" :
   [
    {
     "is_this_ptr" : true,
     "referenced_type" : "_ZTIPN4llvm12MemoryBufferE"
    }
   ],
   "return_type" : "_ZTIv",
   "source_file" : "external/llvm/include/llvm/Support/MemoryBuffer.h"
  },
  {
   "function_name" : "llvm::NextPowerOf2",
   "linker_set_key" : "_ZN4llvm12NextPowerOf2Em",
   "parameters" :
   [
    {
     "referenced_type" : "_ZTIm"
    }
   ],
   "return_type" : "_ZTIm",
   "source_file" : "external/llvm/include/llvm/Support/MathExtras.h"
  },
  {
   "function_name" : "llvm::SignExtend32",
   "linker_set_key" : "_ZN4llvm12SignExtend32Ejj",
   "parameters" :
   [
    {
     "referenced_type" : "_ZTIj"
    },
    {
     "referenced_type" : "_ZTIj"
    }
   ],
   "return_type" : "_ZTIi",
   "source_file" : "external/llvm/include/llvm/Support/MathExtras.h"
  },
  {
   "function_name" : "llvm::SignExtend64",
   "linker_set_key" : "_ZN4llvm12SignExtend64Emj",
   "parameters" :
   [
    {
     "referenced_type" : "_ZTIm"
    },
    {
     "referenced_type" : "_ZTIj"
    }
   ],
   "return_type" : "_ZTIl",
   "source_file" : "external/llvm/include/llvm/Support/MathExtras.h"
  },
  {
   "function_name" : "llvm::left_justify",
   "linker_set_key" : "_ZN4llvm12left_justifyENS_9StringRefEj",
   "parameters" :
   [
    {
     "referenced_type" : "_ZTIN4llvm9StringRefE"
    },
    {
     "referenced_type" : "_ZTIj"
    }
   ],
   "return_type" : "_ZTIN4llvm15FormattedStringE",
   "source_file" : "external/llvm/include/llvm/Support/Format.h"
  },
  {
   "function_name" : "llvm::PowerOf2Floor",
   "linker_set_key" : "_ZN4llvm13PowerOf2FloorEm",
   "parameters" :
   [
    {
     "referenced_type" : "_ZTIm"
    }
   ],
   "return_type" : "_ZTIm",
   "source_file" : "external/llvm/include/llvm/Support/MathExtras.h"
  },
  {
   "function_name" : "llvm::StringMapImpl::getTombstoneVal",
   "linker_set_key" : "_ZN4llvm13StringMapImpl15getTombstoneValEv",
   "return_type" : "_ZTIPN4llvm18StringMapEntryBaseE",
   "source_file" : "external/llvm/include/llvm/ADT/StringMap.h"
  },
  {
   "function_name" : "llvm::StringMapImpl::swap",
   "linker_set_key" : "_ZN4llvm13StringMapImpl4swapERS0_",
   "parameters" :
   [
    {
     "is_this_ptr" : true,
     "referenced_type" : "_ZTIPN4llvm13StringMapImplE"
    },
    {
     "referenced_type" : "_ZTIRN4llvm13StringMapImplE"
    }
   ],
   "return_type" : "_ZTIv",
   "source_file" : "external/llvm/include/llvm/ADT/StringMap.h"
  },
  {
   "access" : "protected",
   "function_name" : "llvm::StringMapImpl::StringMapImpl",
   "linker_set_key" : "_ZN4llvm13StringMapImplC1EOS0_",
   "parameters" :
   [
    {
     "is_this_ptr" : true,
     "referenced_type" : "_ZTIPN4llvm13StringMapImplE"
    },
    {
     "referenced_type" : "_ZTION4llvm13StringMapImplE"
    }
   ],
   "return_type" : "_ZTIv",
   "source_file" : "external/llvm/include/llvm/ADT/StringMap.h"
  },
  {
   "access" : "protected",
   "function_name" : "llvm::StringMapImpl::StringMapImpl",
   "linker_set_key" : "_ZN4llvm13StringMapImplC1Ej",
   "parameters" :
   [
    {
     "is_this_ptr" : true,
     "referenced_type" : "_ZTIPN4llvm13StringMapImplE"
    },
    {
     "referenced_type" : "_ZTIj"
    }
   ],
   "return_type" : "_ZTIv",
   "source_file" : "external/llvm/include/llvm/ADT/StringMap.h"
  },
  {
   "access" : "protected",
   "function_name" : "llvm::StringMapImpl::StringMapImpl",
   "linker_set_key" : "_ZN4llvm13StringMapImplC2EOS0_",
   "parameters" :
   [
    {
     "is_this_ptr" : true,
     "referenced_type" : "_ZTIPN4llvm13StringMapImplE"
    },
    {
     "referenced_type" : "_ZTION4llvm13StringMapImplE"
    }
   ],
   "return_type" : "_ZTIv",
   "source_file" : "external/llvm/include/llvm/ADT/StringMap.h"
  },
  {
   "access" : "protected",
   "function_name" : "llvm::StringMapImpl::StringMapImpl",
   "linker_set_key" : "_ZN4llvm13StringMapImplC2Ej",
   "parameters" :
   [
    {
     "is_this_ptr" : true,
     "referenced_type" : "_ZTIPN4llvm13StringMapImplE"
    },
    {
     "referenced_type" : "_ZTIj"
    }
   ],
   "return_type" : "_ZTIv",
   "source_file" : "external/llvm/include/llvm/ADT/StringMap.h"
  },
  {
   "function_name" : "llvm::format_object<double, unsigned int>::format_object",
   "linker_set_key" : "_ZN4llvm13format_objectIJdjEEC1EPKcRKdRKj",
   "parameters" :
   [
    {
     "is_this_ptr" : true,
     "referenced_type" : "_ZTIPN4llvm13format_objectIJdjEEE"
    },
    {
     "referenced_type" : "_ZTIPKc"
    },
    {
     "referenced_type" : "_ZTIRKd"
    },
    {
     "referenced_type" : "_ZTIRKj"
    }
   ],
   "return_type" : "_ZTIv",
   "source_file" : "external/llvm/include/llvm/Support/Format.h"
  },
  {
   "function_name" : "llvm::format_object<double, unsigned int>::format_object",
   "linker_set_key" : "_ZN4llvm13format_objectIJdjEEC2EPKcRKdRKj",
   "parameters" :
   [
    {
     "is_this_ptr" : true,
     "referenced_type" : "_ZTIPN4llvm13format_objectIJdjEEE"
    },
    {
     "referenced_type" : "_ZTIPKc"
    },
    {
     "referenced_type" : "_ZTIRKd"
    },
    {
     "referenced_type" : "_ZTIRKj"
    }
   ],
   "return_type" : "_ZTIv",
   "source_file" : "external/llvm/include/llvm/Support/Format.h"
  },
  {
   "function_name" : "llvm::format_object<unsigned int>::format_object",
   "linker_set_key" : "_ZN4llvm13format_objectIJjEEC1EPKcRKj",
   "parameters" :
   [
    {
     "is_this_ptr" : true,
     "referenced_type" : "_ZTIPN4llvm13format_objectIJjEEE"
    },
    {
     "referenced_type" : "_ZTIPKc"
    },
    {
     "referenced_type" : "_ZTIRKj"
    }
   ],
   "return_type" : "_ZTIv",
   "source_file" : "external/llvm/include/llvm/Support/Format.h"
  },
  {
   "function_name" : "llvm::format_object<unsigned int>::format_object",
   "linker_set_key" : "_ZN4llvm13format_objectIJjEEC2EPKcRKj",
   "parameters" :
   [
    {
     "is_this_ptr" : true,
     "referenced_type" : "_ZTIPN4llvm13format_objectIJjEEE"
    },
    {
     "referenced_type" : "_ZTIPKc"
    },
    {
     "referenced_type" : "_ZTIRKj"
    }
   ],
   "return_type" : "_ZTIv",
   "source_file" : "external/llvm/include/llvm/Support/Format.h"
  },
  {
   "function_name" : "llvm::format_object<unsigned int, unsigned int>::format_object",
   "linker_set_key" : "_ZN4llvm13format_objectIJjjEEC1EPKcRKjS5_",
   "parameters" :
   [
    {
     "is_this_ptr" : true,
     "referenced_type" : "_ZTIPN4llvm13format_objectIJjjEEE"
    },
    {
     "referenced_type" : "_ZTIPKc"
    },
    {
     "referenced_type" : "_ZTIRKj"
    },
    {
     "referenced_type" : "_ZTIRKj"
    }
   ],
   "return_type" : "_ZTIv",
   "source_file" : "external/llvm/include/llvm/Support/Format.h"
  },
  {
   "function_name" : "llvm::format_object<unsigned int, unsigned int>::format_object",
   "linker_set_key" : "_ZN4llvm13format_objectIJjjEEC2EPKcRKjS5_",
   "parameters" :
   [
    {
     "is_this_ptr" : true,
     "referenced_type" : "_ZTIPN4llvm13format_objectIJjjEEE"
    },
    {
     "referenced_type" : "_ZTIPKc"
    },
    {
     "referenced_type" : "_ZTIRKj"
    },
    {
     "referenced_type" : "_ZTIRKj"
    }
   ],
   "return_type" : "_ZTIv",
   "source_file" : "external/llvm/include/llvm/Support/Format.h"
  },
  {
   "function_name" : "llvm::format_object<unsigned long>::format_object",
   "linker_set_key" : "_ZN4llvm13format_objectIJmEEC1EPKcRKm",
   "parameters" :
   [
    {
     "is_this_ptr" : true,
     "referenced_type" : "_ZTIPN4llvm13format_objectIJmEEE"
    },
    {
     "referenced_type" : "_ZTIPKc"
    },
    {
     "referenced_type" : "_ZTIRKm"
    }
   ],
   "return_type" : "_ZTIv",
   "source_file" : "external/llvm/include/llvm/Support/Format.h"
  },
  {
   "function_name" : "llvm::format_object<unsigned long>::format_object",
   "linker_set_key" : "_ZN4llvm13format_objectIJmEEC2EPKcRKm",
   "parameters" :
   [
    {
     "is_this_ptr" : true,
     "referenced_type" : "_ZTIPN4llvm13format_objectIJmEEE"
    },
    {
     "referenced_type" : "_ZTIPKc"
    },
    {
     "referenced_type" : "_ZTIRKm"
    }
   ],
   "return_type" : "_ZTIv",
   "source_file" : "external/llvm/include/llvm/Support/Format.h"
  },
  {
   "function_name" : "llvm::isPowerOf2_32",
   "linker_set_key" : "_ZN4llvm13isPowerOf2_32Ej",
   "parameters" :
   [
    {
     "referenced_type" : "_ZTIj"
    }
   ],
   "return_type" : "_ZTIb",
   "source_file" : "external/llvm/include/llvm/Support/MathExtras.h"
  },
  {
   "function_name" : "llvm::isPowerOf2_64",
   "linker_set_key" : "_ZN4llvm13isPowerOf2_64Em",
   "parameters" :
   [
    {
     "referenced_type" : "_ZTIm"
    }
   ],
   "return_type" : "_ZTIb",
   "source_file" : "external/llvm/include/llvm/Support/MathExtras.h"
  },
  {
   "function_name" : "llvm::right_justify",
   "linker_set_key" : "_ZN4llvm13right_justifyENS_9StringRefEj",
   "parameters" :
   [
    {
     "referenced_type" : "_ZTIN4llvm9StringRefE"
    },
    {
     "referenced_type" : "_ZTIj"
    }
   ],
   "return_type" : "_ZTIN4llvm15FormattedStringE",
   "source_file" : "external/llvm/include/llvm/Support/Format.h"
  },
  {
   "function_name" : "llvm::DebugEpochBase::HandleBase::HandleBase",
   "linker_set_key" : "_ZN4llvm14DebugEpochBase10HandleBaseC1EPKS0_",
   "parameters" :
   [
    {
     "is_this_ptr" : true,
     "referenced_type" : "_ZTIPN4llvm14DebugEpochBase10HandleBaseE"
    },
    {
     "referenced_type" : "_ZTIPKN4llvm14DebugEpochBaseE"
    }
   ],
   "return_type" : "_ZTIv",
   "source_file" : "external/llvm/include/llvm/ADT/EpochTracker.h"
  },
  {
   "function_name" : "llvm::DebugEpochBase::HandleBase::HandleBase",
   "linker_set_key" : "_ZN4llvm14DebugEpochBase10HandleBaseC1Ev",
   "parameters" :
   [
    {
     "is_this_ptr" : true,
     "referenced_type" : "_ZTIPN4llvm14DebugEpochBase10HandleBaseE"
    }
   ],
   "return_type" : "_ZTIv",
   "source_file" : "external/llvm/include/llvm/ADT/EpochTracker.h"
  },
  {
   "function_name" : "llvm::DebugEpochBase::HandleBase::HandleBase",
   "linker_set_key" : "_ZN4llvm14DebugEpochBase10HandleBaseC2EPKS0_",
   "parameters" :
   [
    {
     "is_this_ptr" : true,
     "referenced_type" : "_ZTIPN4llvm14DebugEpochBase10HandleBaseE"
    },
    {
     "referenced_type" : "_ZTIPKN4llvm14DebugEpochBaseE"
    }
   ],
   "return_type" : "_ZTIv",
   "source_file" : "external/llvm/include/llvm/ADT/EpochTracker.h"
  },
  {
   "function_name" : "llvm::DebugEpochBase::HandleBase::HandleBase",
   "linker_set_key" : "_ZN4llvm14DebugEpochBase10HandleBaseC2Ev",
   "parameters" :
   [
    {
     "is_this_ptr" : true,
     "referenced_type" : "_ZTIPN4llvm14DebugEpochBase10HandleBaseE"
    }
   ],
   "return_type" : "_ZTIv",
   "source_file" : "external/llvm/include/llvm/ADT/EpochTracker.h"
  },
  {
   "function_name" : "llvm::DebugEpochBase::incrementEpoch",
   "linker_set_key" : "_ZN4llvm14DebugEpochBase14incrementEpochEv",
   "parameters" :
   [
    {
     "is_this_ptr" : true,
     "referenced_type" : "_ZTIPN4llvm14DebugEpochBaseE"
    }
   ],
   "return_type" : "_ZTIv",
   "source_file" : "external/llvm/include/llvm/ADT/EpochTracker.h"
  },
  {
   "function_name" : "llvm::RefCountedBase<llvm::sys::fs::detail::DirIterState>::RefCountedBase",
   "linker_set_key" : "_ZN4llvm14RefCountedBaseINS_3sys2fs6detail12DirIterStateEEC1Ev",
   "parameters" :
   [
    {
     "is_this_ptr" : true,
     "referenced_type" : "_ZTIPN4llvm14RefCountedBaseINS_3sys2fs6detail12DirIterStateEEE"
    }
   ],
   "return_type" : "_ZTIv",
   "source_file" : "external/llvm/include/llvm/ADT/IntrusiveRefCntPtr.h"
  },
  {
   "function_name" : "llvm::RefCountedBase<llvm::sys::fs::detail::DirIterState>::RefCountedBase",
   "linker_set_key" : "_ZN4llvm14RefCountedBaseINS_3sys2fs6detail12DirIterStateEEC2Ev",
   "parameters" :
   [
    {
     "is_this_ptr" : true,
     "referenced_type" : "_ZTIPN4llvm14RefCountedBaseINS_3sys2fs6detail12DirIterStateEEE"
    }
   ],
   "return_type" : "_ZTIv",
   "source_file" : "external/llvm/include/llvm/ADT/IntrusiveRefCntPtr.h"
  },
  {
   "function_name" : "llvm::RefCountedBase<llvm::sys::fs::detail::RecDirIterState>::RefCountedBase",
   "linker_set_key" : "_ZN4llvm14RefCountedBaseINS_3sys2fs6detail15RecDirIterStateEEC1Ev",
   "parameters" :
   [
    {
     "is_this_ptr" : true,
     "referenced_type" : "_ZTIPN4llvm14RefCountedBaseINS_3sys2fs6detail15RecDirIterStateEEE"
    }
   ],
   "return_type" : "_ZTIv",
   "source_file" : "external/llvm/include/llvm/ADT/IntrusiveRefCntPtr.h"
  },
  {
   "function_name" : "llvm::RefCountedBase<llvm::sys::fs::detail::RecDirIterState>::RefCountedBase",
   "linker_set_key" : "_ZN4llvm14RefCountedBaseINS_3sys2fs6detail15RecDirIterStateEEC2Ev",
   "parameters" :
   [
    {
     "is_this_ptr" : true,
     "referenced_type" : "_ZTIPN4llvm14RefCountedBaseINS_3sys2fs6detail15RecDirIterStateEEE"
    }
   ],
   "return_type" : "_ZTIv",
   "source_file" : "external/llvm/include/llvm/ADT/IntrusiveRefCntPtr.h"
  },
  {
   "function_name" : "llvm::StringMapEntry<llvm::FileInfo::LineData>::Create",
   "linker_set_key" : "_ZN4llvm14StringMapEntryINS_8FileInfo8LineDataEE6CreateINS_15MallocAllocatorEJEEEPS3_NS_9StringRefERT_DpOT0_",
   "parameters" :
   [
    {
     "referenced_type" : "_ZTIN4llvm9StringRefE"
    },
    {
     "referenced_type" : "_ZTIRN4llvm15MallocAllocatorE"
    }
   ],
   "return_type" : "_ZTIPN4llvm14StringMapEntryINS_8FileInfo8LineDataEEE",
   "source_file" : "external/llvm/include/llvm/ADT/StringMap.h",
   "template_args" : [ "_ZTIN4llvm15MallocAllocatorE" ]
  },
  {
   "function_name" : "llvm::StringMapEntry<llvm::FileInfo::LineData>::Destroy",
   "linker_set_key" : "_ZN4llvm14StringMapEntryINS_8FileInfo8LineDataEE7DestroyINS_15MallocAllocatorEEEvRT_",
   "parameters" :
   [
    {
     "is_this_ptr" : true,
     "referenced_type" : "_ZTIPN4llvm14StringMapEntryINS_8FileInfo8LineDataEEE"
    },
    {
     "referenced_type" : "_ZTIRN4llvm15MallocAllocatorE"
    }
   ],
   "return_type" : "_ZTIv",
   "source_file" : "external/llvm/include/llvm/ADT/StringMap.h",
   "template_args" : [ "_ZTIN4llvm15MallocAllocatorE" ]
  },
  {
   "function_name" : "llvm::StringMapEntry<llvm::FileInfo::LineData>::StringMapEntry",
   "linker_set_key" : "_ZN4llvm14StringMapEntryINS_8FileInfo8LineDataEEC1Ej",
   "parameters" :
   [
    {
     "is_this_ptr" : true,
     "referenced_type" : "_ZTIPN4llvm14StringMapEntryINS_8FileInfo8LineDataEEE"
    },
    {
     "referenced_type" : "_ZTIj"
    }
   ],
   "return_type" : "_ZTIv",
   "source_file" : "external/llvm/include/llvm/ADT/StringMap.h"
  },
  {
   "function_name" : "llvm::StringMapEntry<llvm::FileInfo::LineData>::StringMapEntry",
   "linker_set_key" : "_ZN4llvm14StringMapEntryINS_8FileInfo8LineDataEEC2Ej",
   "parameters" :
   [
    {
     "is_this_ptr" : true,
     "referenced_type" : "_ZTIPN4llvm14StringMapEntryINS_8FileInfo8LineDataEEE"
    },
    {
     "referenced_type" : "_ZTIj"
    }
   ],
   "return_type" : "_ZTIv",
   "source_file" : "external/llvm/include/llvm/ADT/StringMap.h"
  },
  {
   "function_name" : "llvm::buffer_ostream::buffer_ostream",
   "linker_set_key" : "_ZN4llvm14buffer_ostreamC1ERNS_11raw_ostreamE",
   "parameters" :
   [
    {
     "is_this_ptr" : true,
     "referenced_type" : "_ZTIPN4llvm14buffer_ostreamE"
    },
    {
     "referenced_type" : "_ZTIRN4llvm11raw_ostreamE"
    }
   ],
   "return_type" : "_ZTIv",
   "source_file" : "external/llvm/include/llvm/Support/raw_ostream.h"
  },
  {
   "function_name" : "llvm::buffer_ostream::buffer_ostream",
   "linker_set_key" : "_ZN4llvm14buffer_ostreamC2ERNS_11raw_ostreamE",
   "parameters" :
   [
    {
     "is_this_ptr" : true,
     "referenced_type" : "_ZTIPN4llvm14buffer_ostreamE"
    },
    {
     "referenced_type" : "_ZTIRN4llvm11raw_ostreamE"
    }
   ],
   "return_type" : "_ZTIv",
   "source_file" : "external/llvm/include/llvm/Support/raw_ostream.h"
  },
  {
   "function_name" : "llvm::buffer_ostream::~buffer_ostream",
   "linker_set_key" : "_ZN4llvm14buffer_ostreamD0Ev",
   "parameters" :
   [
    {
     "is_this_ptr" : true,
     "referenced_type" : "_ZTIPN4llvm14buffer_ostreamE"
    }
   ],
   "return_type" : "_ZTIv",
   "source_file" : "external/llvm/include/llvm/Support/raw_ostream.h"
  },
  {
   "function_name" : "llvm::buffer_ostream::~buffer_ostream",
   "linker_set_key" : "_ZN4llvm14buffer_ostreamD1Ev",
   "parameters" :
   [
    {
     "is_this_ptr" : true,
     "referenced_type" : "_ZTIPN4llvm14buffer_ostreamE"
    }
   ],
   "return_type" : "_ZTIv",
   "source_file" : "external/llvm/include/llvm/Support/raw_ostream.h"
  },
  {
   "function_name" : "llvm::buffer_ostream::~buffer_ostream",
   "linker_set_key" : "_ZN4llvm14buffer_ostreamD2Ev",
   "parameters" :
   [
    {
     "is_this_ptr" : true,
     "referenced_type" : "_ZTIPN4llvm14buffer_ostreamE"
    }
   ],
   "return_type" : "_ZTIv",
   "source_file" : "external/llvm/include/llvm/Support/raw_ostream.h"
  },
  {
   "function_name" : "llvm::format_decimal",
   "linker_set_key" : "_ZN4llvm14format_decimalElj",
   "parameters" :
   [
    {
     "referenced_type" : "_ZTIl"
    },
    {
     "referenced_type" : "_ZTIj"
    }
   ],
   "return_type" : "_ZTIN4llvm15FormattedNumberE",
   "source_file" : "external/llvm/include/llvm/Support/Format.h"
  },
  {
   "function_name" : "llvm::iterator_range<llvm::pointee_iterator<const std::__1::unique_ptr<llvm::GCOVBlock, std::__1::default_delete<llvm::GCOVBlock>> *, llvm::GCOVBlock>>::iterator_range",
   "linker_set_key" : "_ZN4llvm14iterator_rangeINS_16pointee_iteratorIPKNSt3__110unique_ptrINS_9GCOVBlockENS2_14default_deleteIS4_EEEES4_EEEC1ESA_SA_",
   "parameters" :
   [
    {
     "is_this_ptr" : true,
     "referenced_type" : "_ZTIPN4llvm14iterator_rangeINS_16pointee_iteratorIPKNSt3__110unique_ptrINS_9GCOVBlockENS2_14default_deleteIS4_EEEES4_EEEE"
    },
    {
     "referenced_type" : "_ZTIN4llvm16pointee_iteratorIPKNSt3__110unique_ptrINS_9GCOVBlockENS1_14default_deleteIS3_EEEES3_EE"
    },
    {
     "referenced_type" : "_ZTIN4llvm16pointee_iteratorIPKNSt3__110unique_ptrINS_9GCOVBlockENS1_14default_deleteIS3_EEEES3_EE"
    }
   ],
   "return_type" : "_ZTIv",
   "source_file" : "external/llvm/include/llvm/ADT/iterator_range.h"
  },
  {
   "function_name" : "llvm::iterator_range<llvm::pointee_iterator<const std::__1::unique_ptr<llvm::GCOVBlock, std::__1::default_delete<llvm::GCOVBlock>> *, llvm::GCOVBlock>>::iterator_range",
   "linker_set_key" : "_ZN4llvm14iterator_rangeINS_16pointee_iteratorIPKNSt3__110unique_ptrINS_9GCOVBlockENS2_14default_deleteIS4_EEEES4_EEEC2ESA_SA_",
   "parameters" :
   [
    {
     "is_this_ptr" : true,
     "referenced_type" : "_ZTIPN4llvm14iterator_rangeINS_16pointee_iteratorIPKNSt3__110unique_ptrINS_9GCOVBlockENS2_14default_deleteIS4_EEEES4_EEEE"
    },
    {
     "referenced_type" : "_ZTIN4llvm16pointee_iteratorIPKNSt3__110unique_ptrINS_9GCOVBlockENS1_14default_deleteIS3_EEEES3_EE"
    },
    {
     "referenced_type" : "_ZTIN4llvm16pointee_iteratorIPKNSt3__110unique_ptrINS_9GCOVBlockENS1_14default_deleteIS3_EEEES3_EE"
    }
   ],
   "return_type" : "_ZTIv",
   "source_file" : "external/llvm/include/llvm/ADT/iterator_range.h"
  },
  {
   "function_name" : "llvm::iterator_range<llvm::GCOVEdge *const *>::iterator_range",
   "linker_set_key" : "_ZN4llvm14iterator_rangeIPKPNS_8GCOVEdgeEEC1ES4_S4_",
   "parameters" :
   [
    {
     "is_this_ptr" : true,
     "referenced_type" : "_ZTIPN4llvm14iterator_rangeIPKPNS_8GCOVEdgeEEE"
    },
    {
     "referenced_type" : "_ZTIPKPN4llvm8GCOVEdgeE"
    },
    {
     "referenced_type" : "_ZTIPKPN4llvm8GCOVEdgeE"
    }
   ],
   "return_type" : "_ZTIv",
   "source_file" : "external/llvm/include/llvm/ADT/iterator_range.h"
  },
  {
   "function_name" : "llvm::iterator_range<llvm::GCOVEdge *const *>::iterator_range",
   "linker_set_key" : "_ZN4llvm14iterator_rangeIPKPNS_8GCOVEdgeEEC2ES4_S4_",
   "parameters" :
   [
    {
     "is_this_ptr" : true,
     "referenced_type" : "_ZTIPN4llvm14iterator_rangeIPKPNS_8GCOVEdgeEEE"
    },
    {
     "referenced_type" : "_ZTIPKPN4llvm8GCOVEdgeE"
    },
    {
     "referenced_type" : "_ZTIPKPN4llvm8GCOVEdgeE"
    }
   ],
   "return_type" : "_ZTIv",
   "source_file" : "external/llvm/include/llvm/ADT/iterator_range.h"
  },
  {
   "function_name" : "llvm::iterator_range<const unsigned char *>::iterator_range",
   "linker_set_key" : "_ZN4llvm14iterator_rangeIPKhEC1ES2_S2_",
   "parameters" :
   [
    {
     "is_this_ptr" : true,
     "referenced_type" : "_ZTIPN4llvm14iterator_rangeIPKhEE"
    },
    {
     "referenced_type" : "_ZTIPKh"
    },
    {
     "referenced_type" : "_ZTIPKh"
    }
   ],
   "return_type" : "_ZTIv",
   "source_file" : "external/llvm/include/llvm/ADT/iterator_range.h"
  },
  {
   "function_name" : "llvm::iterator_range<const unsigned char *>::iterator_range",
   "linker_set_key" : "_ZN4llvm14iterator_rangeIPKhEC2ES2_S2_",
   "parameters" :
   [
    {
     "is_this_ptr" : true,
     "referenced_type" : "_ZTIPN4llvm14iterator_rangeIPKhEE"
    },
    {
     "referenced_type" : "_ZTIPKh"
    },
    {
     "referenced_type" : "_ZTIPKh"
    }
   ],
   "return_type" : "_ZTIv",
   "source_file" : "external/llvm/include/llvm/ADT/iterator_range.h"
  },
  {
   "function_name" : "llvm::raw_fd_ostream::clear_error",
   "linker_set_key" : "_ZN4llvm14raw_fd_ostream11clear_errorEv",
   "parameters" :
   [
    {
     "is_this_ptr" : true,
     "referenced_type" : "_ZTIPN4llvm14raw_fd_ostreamE"
    }
   ],
   "return_type" : "_ZTIv",
   "source_file" : "external/llvm/include/llvm/Support/raw_ostream.h"
  },
  {
   "access" : "private",
   "function_name" : "llvm::raw_fd_ostream::error_detected",
   "linker_set_key" : "_ZN4llvm14raw_fd_ostream14error_detectedEv",
   "parameters" :
   [
    {
     "is_this_ptr" : true,
     "referenced_type" : "_ZTIPN4llvm14raw_fd_ostreamE"
    }
   ],
   "return_type" : "_ZTIv",
   "source_file" : "external/llvm/include/llvm/Support/raw_ostream.h"
  },
  {
   "function_name" : "llvm::raw_fd_ostream::supportsSeeking",
   "linker_set_key" : "_ZN4llvm14raw_fd_ostream15supportsSeekingEv",
   "parameters" :
   [
    {
     "is_this_ptr" : true,
     "referenced_type" : "_ZTIPN4llvm14raw_fd_ostreamE"
    }
   ],
   "return_type" : "_ZTIb",
   "source_file" : "external/llvm/include/llvm/Support/raw_ostream.h"
  },
  {
   "function_name" : "llvm::FormattedNumber::FormattedNumber",
   "linker_set_key" : "_ZN4llvm15FormattedNumberC1Emljbbb",
   "parameters" :
   [
    {
     "is_this_ptr" : true,
     "referenced_type" : "_ZTIPN4llvm15FormattedNumberE"
    },
    {
     "referenced_type" : "_ZTIm"
    },
    {
     "referenced_type" : "_ZTIl"
    },
    {
     "referenced_type" : "_ZTIj"
    },
    {
     "referenced_type" : "_ZTIb"
    },
    {
     "referenced_type" : "_ZTIb"
    },
    {
     "referenced_type" : "_ZTIb"
    }
   ],
   "return_type" : "_ZTIv",
   "source_file" : "external/llvm/include/llvm/Support/Format.h"
  },
  {
   "function_name" : "llvm::FormattedNumber::FormattedNumber",
   "linker_set_key" : "_ZN4llvm15FormattedNumberC2Emljbbb",
   "parameters" :
   [
    {
     "is_this_ptr" : true,
     "referenced_type" : "_ZTIPN4llvm15FormattedNumberE"
    },
    {
     "referenced_type" : "_ZTIm"
    },
    {
     "referenced_type" : "_ZTIl"
    },
    {
     "referenced_type" : "_ZTIj"
    },
    {
     "referenced_type" : "_ZTIb"
    },
    {
     "referenced_type" : "_ZTIb"
    },
    {
     "referenced_type" : "_ZTIb"
    }
   ],
   "return_type" : "_ZTIv",
   "source_file" : "external/llvm/include/llvm/Support/Format.h"
  },
  {
   "function_name" : "llvm::FormattedString::FormattedString",
   "linker_set_key" : "_ZN4llvm15FormattedStringC1ENS_9StringRefEjb",
   "parameters" :
   [
    {
     "is_this_ptr" : true,
     "referenced_type" : "_ZTIPN4llvm15FormattedStringE"
    },
    {
     "referenced_type" : "_ZTIN4llvm9StringRefE"
    },
    {
     "referenced_type" : "_ZTIj"
    },
    {
     "referenced_type" : "_ZTIb"
    }
   ],
   "return_type" : "_ZTIv",
   "source_file" : "external/llvm/include/llvm/Support/Format.h"
  },
  {
   "function_name" : "llvm::FormattedString::FormattedString",
   "linker_set_key" : "_ZN4llvm15FormattedStringC2ENS_9StringRefEjb",
   "parameters" :
   [
    {
     "is_this_ptr" : true,
     "referenced_type" : "_ZTIPN4llvm15FormattedStringE"
    },
    {
     "referenced_type" : "_ZTIN4llvm9StringRefE"
    },
    {
     "referenced_type" : "_ZTIj"
    },
    {
     "referenced_type" : "_ZTIb"
    }
   ],
   "return_type" : "_ZTIv",
   "source_file" : "external/llvm/include/llvm/Support/Format.h"
  },
  {
   "function_name" : "llvm::MallocAllocator::Deallocate",
   "linker_set_key" : "_ZN4llvm15MallocAllocator10DeallocateEPKvm",
   "parameters" :
   [
    {
     "is_this_ptr" : true,
     "referenced_type" : "_ZTIPN4llvm15MallocAllocatorE"
    },
    {
     "referenced_type" : "_ZTIPKv"
    },
    {
     "referenced_type" : "_ZTIm"
    }
   ],
   "return_type" : "_ZTIv",
   "source_file" : "external/llvm/include/llvm/Support/Allocator.h"
  },
  {
   "function_name" : "llvm::MallocAllocator::Reset",
   "linker_set_key" : "_ZN4llvm15MallocAllocator5ResetEv",
   "parameters" :
   [
    {
     "is_this_ptr" : true,
     "referenced_type" : "_ZTIPN4llvm15MallocAllocatorE"
    }
   ],
   "return_type" : "_ZTIv",
   "source_file" : "external/llvm/include/llvm/Support/Allocator.h"
  },
  {
   "function_name" : "llvm::MallocAllocator::Allocate",
   "linker_set_key" : "_ZN4llvm15MallocAllocator8AllocateEmm",
   "parameters" :
   [
    {
     "is_this_ptr" : true,
     "referenced_type" : "_ZTIPN4llvm15MallocAllocatorE"
    },
    {
     "referenced_type" : "_ZTIm"
    },
    {
     "referenced_type" : "_ZTIm"
    }
   ],
   "return_type" : "_ZTIPv",
   "source_file" : "external/llvm/include/llvm/Support/Allocator.h"
  },
  {
   "function_name" : "llvm::MemoryBufferRef::MemoryBufferRef",
   "linker_set_key" : "_ZN4llvm15MemoryBufferRefC1ENS_9StringRefES1_",
   "parameters" :
   [
    {
     "is_this_ptr" : true,
     "referenced_type" : "_ZTIPN4llvm15MemoryBufferRefE"
    },
    {
     "referenced_type" : "_ZTIN4llvm9StringRefE"
    },
    {
     "referenced_type" : "_ZTIN4llvm9StringRefE"
    }
   ],
   "return_type" : "_ZTIv",
   "source_file" : "external/llvm/include/llvm/Support/MemoryBuffer.h"
  },
  {
   "function_name" : "llvm::MemoryBufferRef::MemoryBufferRef",
   "linker_set_key" : "_ZN4llvm15MemoryBufferRefC1ERNS_12MemoryBufferE",
   "parameters" :
   [
    {
     "is_this_ptr" : true,
     "referenced_type" : "_ZTIPN4llvm15MemoryBufferRefE"
    },
    {
     "referenced_type" : "_ZTIRN4llvm12MemoryBufferE"
    }
   ],
   "return_type" : "_ZTIv",
   "source_file" : "external/llvm/include/llvm/Support/MemoryBuffer.h"
  },
  {
   "function_name" : "llvm::MemoryBufferRef::MemoryBufferRef",
   "linker_set_key" : "_ZN4llvm15MemoryBufferRefC1Ev",
   "parameters" :
   [
    {
     "is_this_ptr" : true,
     "referenced_type" : "_ZTIPN4llvm15MemoryBufferRefE"
    }
   ],
   "return_type" : "_ZTIv",
   "source_file" : "external/llvm/include/llvm/Support/MemoryBuffer.h"
  },
  {
   "function_name" : "llvm::MemoryBufferRef::MemoryBufferRef",
   "linker_set_key" : "_ZN4llvm15MemoryBufferRefC2ENS_9StringRefES1_",
   "parameters" :
   [
    {
     "is_this_ptr" : true,
     "referenced_type" : "_ZTIPN4llvm15MemoryBufferRefE"
    },
    {
     "referenced_type" : "_ZTIN4llvm9StringRefE"
    },
    {
     "referenced_type" : "_ZTIN4llvm9StringRefE"
    }
   ],
   "return_type" : "_ZTIv",
   "source_file" : "external/llvm/include/llvm/Support/MemoryBuffer.h"
  },
  {
   "function_name" : "llvm::MemoryBufferRef::MemoryBufferRef",
   "linker_set_key" : "_ZN4llvm15MemoryBufferRefC2ERNS_12MemoryBufferE",
   "parameters" :
   [
    {
     "is_this_ptr" : true,
     "referenced_type" : "_ZTIPN4llvm15MemoryBufferRefE"
    },
    {
     "referenced_type" : "_ZTIRN4llvm12MemoryBufferE"
    }
   ],
   "return_type" : "_ZTIv",
   "source_file" : "external/llvm/include/llvm/Support/MemoryBuffer.h"
  },
  {
   "function_name" : "llvm::MemoryBufferRef::MemoryBufferRef",
   "linker_set_key" : "_ZN4llvm15MemoryBufferRefC2Ev",
   "parameters" :
   [
    {
     "is_this_ptr" : true,
     "referenced_type" : "_ZTIPN4llvm15MemoryBufferRefE"
    }
   ],
   "return_type" : "_ZTIv",
   "source_file" : "external/llvm/include/llvm/Support/MemoryBuffer.h"
  },
  {
   "access" : "protected",
   "function_name" : "llvm::SmallVectorBase::SmallVectorBase",
   "linker_set_key" : "_ZN4llvm15SmallVectorBaseC1EPvm",
   "parameters" :
   [
    {
     "is_this_ptr" : true,
     "referenced_type" : "_ZTIPN4llvm15SmallVectorBaseE"
    },
    {
     "referenced_type" : "_ZTIPv"
    },
    {
     "referenced_type" : "_ZTIm"
    }
   ],
   "return_type" : "_ZTIv",
   "source_file" : "external/llvm/include/llvm/ADT/SmallVector.h"
  },
  {
   "access" : "protected",
   "function_name" : "llvm::SmallVectorBase::SmallVectorBase",
   "linker_set_key" : "_ZN4llvm15SmallVectorBaseC2EPvm",
   "parameters" :
   [
    {
     "is_this_ptr" : true,
     "referenced_type" : "_ZTIPN4llvm15SmallVectorBaseE"
    },
    {
     "referenced_type" : "_ZTIPv"
    },
    {
     "referenced_type" : "_ZTIm"
    }
   ],
   "return_type" : "_ZTIv",
   "source_file" : "external/llvm/include/llvm/ADT/SmallVector.h"
  },
  {
   "access" : "protected",
   "function_name" : "llvm::SmallVectorImpl<std::__1::unique_ptr<llvm::GCOVFunction, std::__1::default_delete<llvm::GCOVFunction>>>::SmallVectorImpl",
   "linker_set_key" : "_ZN4llvm15SmallVectorImplINSt3__110unique_ptrINS_12GCOVFunctionENS1_14default_deleteIS3_EEEEEC1Ej",
   "parameters" :
   [
    {
     "is_this_ptr" : true,
     "referenced_type" : "_ZTIPN4llvm15SmallVectorImplINSt3__110unique_ptrINS_12GCOVFunctionENS1_14default_deleteIS3_EEEEEE"
    },
    {
     "referenced_type" : "_ZTIj"
    }
   ],
   "return_type" : "_ZTIv",
   "source_file" : "external/llvm/include/llvm/ADT/SmallVector.h"
  },
  {
   "access" : "protected",
   "function_name" : "llvm::SmallVectorImpl<std::__1::unique_ptr<llvm::GCOVFunction, std::__1::default_delete<llvm::GCOVFunction>>>::SmallVectorImpl",
   "linker_set_key" : "_ZN4llvm15SmallVectorImplINSt3__110unique_ptrINS_12GCOVFunctionENS1_14default_deleteIS3_EEEEEC2Ej",
   "parameters" :
   [
    {
     "is_this_ptr" : true,
     "referenced_type" : "_ZTIPN4llvm15SmallVectorImplINSt3__110unique_ptrINS_12GCOVFunctionENS1_14default_deleteIS3_EEEEEE"
    },
    {
     "referenced_type" : "_ZTIj"
    }
   ],
   "return_type" : "_ZTIv",
   "source_file" : "external/llvm/include/llvm/ADT/SmallVector.h"
  },
  {
   "function_name" : "llvm::SmallVectorImpl<std::__1::unique_ptr<llvm::GCOVFunction, std::__1::default_delete<llvm::GCOVFunction>>>::~SmallVectorImpl",
   "linker_set_key" : "_ZN4llvm15SmallVectorImplINSt3__110unique_ptrINS_12GCOVFunctionENS1_14default_deleteIS3_EEEEED1Ev",
   "parameters" :
   [
    {
     "is_this_ptr" : true,
     "referenced_type" : "_ZTIPN4llvm15SmallVectorImplINSt3__110unique_ptrINS_12GCOVFunctionENS1_14default_deleteIS3_EEEEEE"
    }
   ],
   "return_type" : "_ZTIv",
   "source_file" : "external/llvm/include/llvm/ADT/SmallVector.h"
  },
  {
   "function_name" : "llvm::SmallVectorImpl<std::__1::unique_ptr<llvm::GCOVFunction, std::__1::default_delete<llvm::GCOVFunction>>>::~SmallVectorImpl",
   "linker_set_key" : "_ZN4llvm15SmallVectorImplINSt3__110unique_ptrINS_12GCOVFunctionENS1_14default_deleteIS3_EEEEED2Ev",
   "parameters" :
   [
    {
     "is_this_ptr" : true,
     "referenced_type" : "_ZTIPN4llvm15SmallVectorImplINSt3__110unique_ptrINS_12GCOVFunctionENS1_14default_deleteIS3_EEEEEE"
    }
   ],
   "return_type" : "_ZTIv",
   "source_file" : "external/llvm/include/llvm/ADT/SmallVector.h"
  },
  {
   "access" : "protected",
   "function_name" : "llvm::SmallVectorImpl<std::__1::unique_ptr<llvm::GCOVEdge, std::__1::default_delete<llvm::GCOVEdge>>>::SmallVectorImpl",
   "linker_set_key" : "_ZN4llvm15SmallVectorImplINSt3__110unique_ptrINS_8GCOVEdgeENS1_14default_deleteIS3_EEEEEC1Ej",
   "parameters" :
   [
    {
     "is_this_ptr" : true,
     "referenced_type" : "_ZTIPN4llvm15SmallVectorImplINSt3__110unique_ptrINS_8GCOVEdgeENS1_14default_deleteIS3_EEEEEE"
    },
    {
     "referenced_type" : "_ZTIj"
    }
   ],
   "return_type" : "_ZTIv",
   "source_file" : "external/llvm/include/llvm/ADT/SmallVector.h"
  },
  {
   "access" : "protected",
   "function_name" : "llvm::SmallVectorImpl<std::__1::unique_ptr<llvm::GCOVEdge, std::__1::default_delete<llvm::GCOVEdge>>>::SmallVectorImpl",
   "linker_set_key" : "_ZN4llvm15SmallVectorImplINSt3__110unique_ptrINS_8GCOVEdgeENS1_14default_deleteIS3_EEEEEC2Ej",
   "parameters" :
   [
    {
     "is_this_ptr" : true,
     "referenced_type" : "_ZTIPN4llvm15SmallVectorImplINSt3__110unique_ptrINS_8GCOVEdgeENS1_14default_deleteIS3_EEEEEE"
    },
    {
     "referenced_type" : "_ZTIj"
    }
   ],
   "return_type" : "_ZTIv",
   "source_file" : "external/llvm/include/llvm/ADT/SmallVector.h"
  },
  {
   "function_name" : "llvm::SmallVectorImpl<std::__1::unique_ptr<llvm::GCOVEdge, std::__1::default_delete<llvm::GCOVEdge>>>::~SmallVectorImpl",
   "linker_set_key" : "_ZN4llvm15SmallVectorImplINSt3__110unique_ptrINS_8GCOVEdgeENS1_14default_deleteIS3_EEEEED1Ev",
   "parameters" :
   [
    {
     "is_this_ptr" : true,
     "referenced_type" : "_ZTIPN4llvm15SmallVectorImplINSt3__110unique_ptrINS_8GCOVEdgeENS1_14default_deleteIS3_EEEEEE"
    }
   ],
   "return_type" : "_ZTIv",
   "source_file" : "external/llvm/include/llvm/ADT/SmallVector.h"
  },
  {
   "function_name" : "llvm::SmallVectorImpl<std::__1::unique_ptr<llvm::GCOVEdge, std::__1::default_delete<llvm::GCOVEdge>>>::~SmallVectorImpl",
   "linker_set_key" : "_ZN4llvm15SmallVectorImplINSt3__110unique_ptrINS_8GCOVEdgeENS1_14default_deleteIS3_EEEEED2Ev",
   "parameters" :
   [
    {
     "is_this_ptr" : true,
     "referenced_type" : "_ZTIPN4llvm15SmallVectorImplINSt3__110unique_ptrINS_8GCOVEdgeENS1_14default_deleteIS3_EEEEEE"
    }
   ],
   "return_type" : "_ZTIv",
   "source_file" : "external/llvm/include/llvm/ADT/SmallVector.h"
  },
  {
   "access" : "protected",
   "function_name" : "llvm::SmallVectorImpl<std::__1::unique_ptr<llvm::GCOVBlock, std::__1::default_delete<llvm::GCOVBlock>>>::SmallVectorImpl",
   "linker_set_key" : "_ZN4llvm15SmallVectorImplINSt3__110unique_ptrINS_9GCOVBlockENS1_14default_deleteIS3_EEEEEC1Ej",
   "parameters" :
   [
    {
     "is_this_ptr" : true,
     "referenced_type" : "_ZTIPN4llvm15SmallVectorImplINSt3__110unique_ptrINS_9GCOVBlockENS1_14default_deleteIS3_EEEEEE"
    },
    {
     "referenced_type" : "_ZTIj"
    }
   ],
   "return_type" : "_ZTIv",
   "source_file" : "external/llvm/include/llvm/ADT/SmallVector.h"
  },
  {
   "access" : "protected",
   "function_name" : "llvm::SmallVectorImpl<std::__1::unique_ptr<llvm::GCOVBlock, std::__1::default_delete<llvm::GCOVBlock>>>::SmallVectorImpl",
   "linker_set_key" : "_ZN4llvm15SmallVectorImplINSt3__110unique_ptrINS_9GCOVBlockENS1_14default_deleteIS3_EEEEEC2Ej",
   "parameters" :
   [
    {
     "is_this_ptr" : true,
     "referenced_type" : "_ZTIPN4llvm15SmallVectorImplINSt3__110unique_ptrINS_9GCOVBlockENS1_14default_deleteIS3_EEEEEE"
    },
    {
     "referenced_type" : "_ZTIj"
    }
   ],
   "return_type" : "_ZTIv",
   "source_file" : "external/llvm/include/llvm/ADT/SmallVector.h"
  },
  {
   "function_name" : "llvm::SmallVectorImpl<std::__1::unique_ptr<llvm::GCOVBlock, std::__1::default_delete<llvm::GCOVBlock>>>::~SmallVectorImpl",
   "linker_set_key" : "_ZN4llvm15SmallVectorImplINSt3__110unique_ptrINS_9GCOVBlockENS1_14default_deleteIS3_EEEEED1Ev",
   "parameters" :
   [
    {
     "is_this_ptr" : true,
     "referenced_type" : "_ZTIPN4llvm15SmallVectorImplINSt3__110unique_ptrINS_9GCOVBlockENS1_14default_deleteIS3_EEEEEE"
    }
   ],
   "return_type" : "_ZTIv",
   "source_file" : "external/llvm/include/llvm/ADT/SmallVector.h"
  },
  {
   "function_name" : "llvm::SmallVectorImpl<std::__1::unique_ptr<llvm::GCOVBlock, std::__1::default_delete<llvm::GCOVBlock>>>::~SmallVectorImpl",
   "linker_set_key" : "_ZN4llvm15SmallVectorImplINSt3__110unique_ptrINS_9GCOVBlockENS1_14default_deleteIS3_EEEEED2Ev",
   "parameters" :
   [
    {
     "is_this_ptr" : true,
     "referenced_type" : "_ZTIPN4llvm15SmallVectorImplINSt3__110unique_ptrINS_9GCOVBlockENS1_14default_deleteIS3_EEEEEE"
    }
   ],
   "return_type" : "_ZTIv",
   "source_file" : "external/llvm/include/llvm/ADT/SmallVector.h"
  },
  {
   "access" : "protected",
   "function_name" : "llvm::SmallVectorImpl<std::__1::pair<std::__1::basic_string<char>, llvm::FileInfo::GCOVCoverage>>::SmallVectorImpl",
   "linker_set_key" : "_ZN4llvm15SmallVectorImplINSt3__14pairINS1_12basic_stringIcNS1_11char_traitsIcEENS1_9allocatorIcEEEENS_8FileInfo12GCOVCoverageEEEEC1Ej",
   "parameters" :
   [
    {
     "is_this_ptr" : true,
     "referenced_type" : "_ZTIPN4llvm15SmallVectorImplINSt3__14pairINS1_12basic_stringIcNS1_11char_traitsIcEENS1_9allocatorIcEEEENS_8FileInfo12GCOVCoverageEEEEE"
    },
    {
     "referenced_type" : "_ZTIj"
    }
   ],
   "return_type" : "_ZTIv",
   "source_file" : "external/llvm/include/llvm/ADT/SmallVector.h"
  },
  {
   "access" : "protected",
   "function_name" : "llvm::SmallVectorImpl<std::__1::pair<std::__1::basic_string<char>, llvm::FileInfo::GCOVCoverage>>::SmallVectorImpl",
   "linker_set_key" : "_ZN4llvm15SmallVectorImplINSt3__14pairINS1_12basic_stringIcNS1_11char_traitsIcEENS1_9allocatorIcEEEENS_8FileInfo12GCOVCoverageEEEEC2Ej",
   "parameters" :
   [
    {
     "is_this_ptr" : true,
     "referenced_type" : "_ZTIPN4llvm15SmallVectorImplINSt3__14pairINS1_12basic_stringIcNS1_11char_traitsIcEENS1_9allocatorIcEEEENS_8FileInfo12GCOVCoverageEEEEE"
    },
    {
     "referenced_type" : "_ZTIj"
    }
   ],
   "return_type" : "_ZTIv",
   "source_file" : "external/llvm/include/llvm/ADT/SmallVector.h"
  },
  {
   "function_name" : "llvm::SmallVectorImpl<std::__1::pair<std::__1::basic_string<char>, llvm::FileInfo::GCOVCoverage>>::~SmallVectorImpl",
   "linker_set_key" : "_ZN4llvm15SmallVectorImplINSt3__14pairINS1_12basic_stringIcNS1_11char_traitsIcEENS1_9allocatorIcEEEENS_8FileInfo12GCOVCoverageEEEED1Ev",
   "parameters" :
   [
    {
     "is_this_ptr" : true,
     "referenced_type" : "_ZTIPN4llvm15SmallVectorImplINSt3__14pairINS1_12basic_stringIcNS1_11char_traitsIcEENS1_9allocatorIcEEEENS_8FileInfo12GCOVCoverageEEEEE"
    }
   ],
   "return_type" : "_ZTIv",
   "source_file" : "external/llvm/include/llvm/ADT/SmallVector.h"
  },
  {
   "function_name" : "llvm::SmallVectorImpl<std::__1::pair<std::__1::basic_string<char>, llvm::FileInfo::GCOVCoverage>>::~SmallVectorImpl",
   "linker_set_key" : "_ZN4llvm15SmallVectorImplINSt3__14pairINS1_12basic_stringIcNS1_11char_traitsIcEENS1_9allocatorIcEEEENS_8FileInfo12GCOVCoverageEEEED2Ev",
   "parameters" :
   [
    {
     "is_this_ptr" : true,
     "referenced_type" : "_ZTIPN4llvm15SmallVectorImplINSt3__14pairINS1_12basic_stringIcNS1_11char_traitsIcEENS1_9allocatorIcEEEENS_8FileInfo12GCOVCoverageEEEEE"
    }
   ],
   "return_type" : "_ZTIv",
   "source_file" : "external/llvm/include/llvm/ADT/SmallVector.h"
  },
  {
   "function_name" : "llvm::SmallVectorImpl<const llvm::GCOVFunction *>::clear",
   "linker_set_key" : "_ZN4llvm15SmallVectorImplIPKNS_12GCOVFunctionEE5clearEv",
   "parameters" :
   [
    {
     "is_this_ptr" : true,
     "referenced_type" : "_ZTIPN4llvm15SmallVectorImplIPKNS_12GCOVFunctionEEE"
    }
   ],
   "return_type" : "_ZTIv",
   "source_file" : "external/llvm/include/llvm/ADT/SmallVector.h"
  },
  {
   "access" : "protected",
   "function_name" : "llvm::SmallVectorImpl<const llvm::GCOVFunction *>::SmallVectorImpl",
   "linker_set_key" : "_ZN4llvm15SmallVectorImplIPKNS_12GCOVFunctionEEC1Ej",
   "parameters" :
   [
    {
     "is_this_ptr" : true,
     "referenced_type" : "_ZTIPN4llvm15SmallVectorImplIPKNS_12GCOVFunctionEEE"
    },
    {
     "referenced_type" : "_ZTIj"
    }
   ],
   "return_type" : "_ZTIv",
   "source_file" : "external/llvm/include/llvm/ADT/SmallVector.h"
  },
  {
   "access" : "protected",
   "function_name" : "llvm::SmallVectorImpl<const llvm::GCOVFunction *>::SmallVectorImpl",
   "linker_set_key" : "_ZN4llvm15SmallVectorImplIPKNS_12GCOVFunctionEEC2Ej",
   "parameters" :
   [
    {
     "is_this_ptr" : true,
     "referenced_type" : "_ZTIPN4llvm15SmallVectorImplIPKNS_12GCOVFunctionEEE"
    },
    {
     "referenced_type" : "_ZTIj"
    }
   ],
   "return_type" : "_ZTIv",
   "source_file" : "external/llvm/include/llvm/ADT/SmallVector.h"
  },
  {
   "function_name" : "llvm::SmallVectorImpl<const llvm::GCOVFunction *>::~SmallVectorImpl",
   "linker_set_key" : "_ZN4llvm15SmallVectorImplIPKNS_12GCOVFunctionEED1Ev",
   "parameters" :
   [
    {
     "is_this_ptr" : true,
     "referenced_type" : "_ZTIPN4llvm15SmallVectorImplIPKNS_12GCOVFunctionEEE"
    }
   ],
   "return_type" : "_ZTIv",
   "source_file" : "external/llvm/include/llvm/ADT/SmallVector.h"
  },
  {
   "function_name" : "llvm::SmallVectorImpl<const llvm::GCOVFunction *>::~SmallVectorImpl",
   "linker_set_key" : "_ZN4llvm15SmallVectorImplIPKNS_12GCOVFunctionEED2Ev",
   "parameters" :
   [
    {
     "is_this_ptr" : true,
     "referenced_type" : "_ZTIPN4llvm15SmallVectorImplIPKNS_12GCOVFunctionEEE"
    }
   ],
   "return_type" : "_ZTIv",
   "source_file" : "external/llvm/include/llvm/ADT/SmallVector.h"
  },
  {
   "function_name" : "llvm::SmallVectorImpl<const llvm::GCOVFunction *>::operator=",
   "linker_set_key" : "_ZN4llvm15SmallVectorImplIPKNS_12GCOVFunctionEEaSEOS4_",
   "parameters" :
   [
    {
     "is_this_ptr" : true,
     "referenced_type" : "_ZTIPN4llvm15SmallVectorImplIPKNS_12GCOVFunctionEEE"
    },
    {
     "referenced_type" : "_ZTION4llvm15SmallVectorImplIPKNS_12GCOVFunctionEEE"
    }
   ],
   "return_type" : "_ZTIRN4llvm15SmallVectorImplIPKNS_12GCOVFunctionEEE",
   "source_file" : "external/llvm/include/llvm/ADT/SmallVector.h"
  },
  {
   "function_name" : "llvm::SmallVectorImpl<const llvm::GCOVBlock *>::clear",
   "linker_set_key" : "_ZN4llvm15SmallVectorImplIPKNS_9GCOVBlockEE5clearEv",
   "parameters" :
   [
    {
     "is_this_ptr" : true,
     "referenced_type" : "_ZTIPN4llvm15SmallVectorImplIPKNS_9GCOVBlockEEE"
    }
   ],
   "return_type" : "_ZTIv",
   "source_file" : "external/llvm/include/llvm/ADT/SmallVector.h"
  },
  {
   "access" : "protected",
   "function_name" : "llvm::SmallVectorImpl<const llvm::GCOVBlock *>::SmallVectorImpl",
   "linker_set_key" : "_ZN4llvm15SmallVectorImplIPKNS_9GCOVBlockEEC1Ej",
   "parameters" :
   [
    {
     "is_this_ptr" : true,
     "referenced_type" : "_ZTIPN4llvm15SmallVectorImplIPKNS_9GCOVBlockEEE"
    },
    {
     "referenced_type" : "_ZTIj"
    }
   ],
   "return_type" : "_ZTIv",
   "source_file" : "external/llvm/include/llvm/ADT/SmallVector.h"
  },
  {
   "access" : "protected",
   "function_name" : "llvm::SmallVectorImpl<const llvm::GCOVBlock *>::SmallVectorImpl",
   "linker_set_key" : "_ZN4llvm15SmallVectorImplIPKNS_9GCOVBlockEEC2Ej",
   "parameters" :
   [
    {
     "is_this_ptr" : true,
     "referenced_type" : "_ZTIPN4llvm15SmallVectorImplIPKNS_9GCOVBlockEEE"
    },
    {
     "referenced_type" : "_ZTIj"
    }
   ],
   "return_type" : "_ZTIv",
   "source_file" : "external/llvm/include/llvm/ADT/SmallVector.h"
  },
  {
   "function_name" : "llvm::SmallVectorImpl<const llvm::GCOVBlock *>::~SmallVectorImpl",
   "linker_set_key" : "_ZN4llvm15SmallVectorImplIPKNS_9GCOVBlockEED1Ev",
   "parameters" :
   [
    {
     "is_this_ptr" : true,
     "referenced_type" : "_ZTIPN4llvm15SmallVectorImplIPKNS_9GCOVBlockEEE"
    }
   ],
   "return_type" : "_ZTIv",
   "source_file" : "external/llvm/include/llvm/ADT/SmallVector.h"
  },
  {
   "function_name" : "llvm::SmallVectorImpl<const llvm::GCOVBlock *>::~SmallVectorImpl",
   "linker_set_key" : "_ZN4llvm15SmallVectorImplIPKNS_9GCOVBlockEED2Ev",
   "parameters" :
   [
    {
     "is_this_ptr" : true,
     "referenced_type" : "_ZTIPN4llvm15SmallVectorImplIPKNS_9GCOVBlockEEE"
    }
   ],
   "return_type" : "_ZTIv",
   "source_file" : "external/llvm/include/llvm/ADT/SmallVector.h"
  },
  {
   "function_name" : "llvm::SmallVectorImpl<const llvm::GCOVBlock *>::operator=",
   "linker_set_key" : "_ZN4llvm15SmallVectorImplIPKNS_9GCOVBlockEEaSEOS4_",
   "parameters" :
   [
    {
     "is_this_ptr" : true,
     "referenced_type" : "_ZTIPN4llvm15SmallVectorImplIPKNS_9GCOVBlockEEE"
    },
    {
     "referenced_type" : "_ZTION4llvm15SmallVectorImplIPKNS_9GCOVBlockEEE"
    }
   ],
   "return_type" : "_ZTIRN4llvm15SmallVectorImplIPKNS_9GCOVBlockEEE",
   "source_file" : "external/llvm/include/llvm/ADT/SmallVector.h"
  },
  {
   "function_name" : "llvm::SmallVectorImpl<llvm::GCOVEdge *>::clear",
   "linker_set_key" : "_ZN4llvm15SmallVectorImplIPNS_8GCOVEdgeEE5clearEv",
   "parameters" :
   [
    {
     "is_this_ptr" : true,
     "referenced_type" : "_ZTIPN4llvm15SmallVectorImplIPNS_8GCOVEdgeEEE"
    }
   ],
   "return_type" : "_ZTIv",
   "source_file" : "external/llvm/include/llvm/ADT/SmallVector.h"
  },
  {
   "access" : "protected",
   "function_name" : "llvm::SmallVectorImpl<llvm::GCOVEdge *>::SmallVectorImpl",
   "linker_set_key" : "_ZN4llvm15SmallVectorImplIPNS_8GCOVEdgeEEC1Ej",
   "parameters" :
   [
    {
     "is_this_ptr" : true,
     "referenced_type" : "_ZTIPN4llvm15SmallVectorImplIPNS_8GCOVEdgeEEE"
    },
    {
     "referenced_type" : "_ZTIj"
    }
   ],
   "return_type" : "_ZTIv",
   "source_file" : "external/llvm/include/llvm/ADT/SmallVector.h"
  },
  {
   "access" : "protected",
   "function_name" : "llvm::SmallVectorImpl<llvm::GCOVEdge *>::SmallVectorImpl",
   "linker_set_key" : "_ZN4llvm15SmallVectorImplIPNS_8GCOVEdgeEEC2Ej",
   "parameters" :
   [
    {
     "is_this_ptr" : true,
     "referenced_type" : "_ZTIPN4llvm15SmallVectorImplIPNS_8GCOVEdgeEEE"
    },
    {
     "referenced_type" : "_ZTIj"
    }
   ],
   "return_type" : "_ZTIv",
   "source_file" : "external/llvm/include/llvm/ADT/SmallVector.h"
  },
  {
   "function_name" : "llvm::SmallVectorImpl<llvm::GCOVEdge *>::~SmallVectorImpl",
   "linker_set_key" : "_ZN4llvm15SmallVectorImplIPNS_8GCOVEdgeEED1Ev",
   "parameters" :
   [
    {
     "is_this_ptr" : true,
     "referenced_type" : "_ZTIPN4llvm15SmallVectorImplIPNS_8GCOVEdgeEEE"
    }
   ],
   "return_type" : "_ZTIv",
   "source_file" : "external/llvm/include/llvm/ADT/SmallVector.h"
  },
  {
   "function_name" : "llvm::SmallVectorImpl<llvm::GCOVEdge *>::~SmallVectorImpl",
   "linker_set_key" : "_ZN4llvm15SmallVectorImplIPNS_8GCOVEdgeEED2Ev",
   "parameters" :
   [
    {
     "is_this_ptr" : true,
     "referenced_type" : "_ZTIPN4llvm15SmallVectorImplIPNS_8GCOVEdgeEEE"
    }
   ],
   "return_type" : "_ZTIv",
   "source_file" : "external/llvm/include/llvm/ADT/SmallVector.h"
  },
  {
   "function_name" : "llvm::SmallVectorImpl<char>::append",
   "linker_set_key" : "_ZN4llvm15SmallVectorImplIcE6appendIPKcEEvT_S5_",
   "parameters" :
   [
    {
     "is_this_ptr" : true,
     "referenced_type" : "_ZTIPN4llvm15SmallVectorImplIcEE"
    },
    {
     "referenced_type" : "_ZTIPKc"
    },
    {
     "referenced_type" : "_ZTIPKc"
    }
   ],
   "return_type" : "_ZTIv",
   "source_file" : "external/llvm/include/llvm/ADT/SmallVector.h",
   "template_args" : [ "_ZTIPKc" ]
  },
  {
   "access" : "protected",
   "function_name" : "llvm::SmallVectorImpl<char>::SmallVectorImpl",
   "linker_set_key" : "_ZN4llvm15SmallVectorImplIcEC1Ej",
   "parameters" :
   [
    {
     "is_this_ptr" : true,
     "referenced_type" : "_ZTIPN4llvm15SmallVectorImplIcEE"
    },
    {
     "referenced_type" : "_ZTIj"
    }
   ],
   "return_type" : "_ZTIv",
   "source_file" : "external/llvm/include/llvm/ADT/SmallVector.h"
  },
  {
   "access" : "protected",
   "function_name" : "llvm::SmallVectorImpl<char>::SmallVectorImpl",
   "linker_set_key" : "_ZN4llvm15SmallVectorImplIcEC2Ej",
   "parameters" :
   [
    {
     "is_this_ptr" : true,
     "referenced_type" : "_ZTIPN4llvm15SmallVectorImplIcEE"
    },
    {
     "referenced_type" : "_ZTIj"
    }
   ],
   "return_type" : "_ZTIv",
   "source_file" : "external/llvm/include/llvm/ADT/SmallVector.h"
  },
  {
   "function_name" : "llvm::SmallVectorImpl<char>::~SmallVectorImpl",
   "linker_set_key" : "_ZN4llvm15SmallVectorImplIcED1Ev",
   "parameters" :
   [
    {
     "is_this_ptr" : true,
     "referenced_type" : "_ZTIPN4llvm15SmallVectorImplIcEE"
    }
   ],
   "return_type" : "_ZTIv",
   "source_file" : "external/llvm/include/llvm/ADT/SmallVector.h"
  },
  {
   "function_name" : "llvm::SmallVectorImpl<char>::~SmallVectorImpl",
   "linker_set_key" : "_ZN4llvm15SmallVectorImplIcED2Ev",
   "parameters" :
   [
    {
     "is_this_ptr" : true,
     "referenced_type" : "_ZTIPN4llvm15SmallVectorImplIcEE"
    }
   ],
   "return_type" : "_ZTIv",
   "source_file" : "external/llvm/include/llvm/ADT/SmallVector.h"
  },
  {
   "function_name" : "llvm::SmallVectorImpl<unsigned int>::clear",
   "linker_set_key" : "_ZN4llvm15SmallVectorImplIjE5clearEv",
   "parameters" :
   [
    {
     "is_this_ptr" : true,
     "referenced_type" : "_ZTIPN4llvm15SmallVectorImplIjEE"
    }
   ],
   "return_type" : "_ZTIv",
   "source_file" : "external/llvm/include/llvm/ADT/SmallVector.h"
  },
  {
   "access" : "protected",
   "function_name" : "llvm::SmallVectorImpl<unsigned int>::SmallVectorImpl",
   "linker_set_key" : "_ZN4llvm15SmallVectorImplIjEC1Ej",
   "parameters" :
   [
    {
     "is_this_ptr" : true,
     "referenced_type" : "_ZTIPN4llvm15SmallVectorImplIjEE"
    },
    {
     "referenced_type" : "_ZTIj"
    }
   ],
   "return_type" : "_ZTIv",
   "source_file" : "external/llvm/include/llvm/ADT/SmallVector.h"
  },
  {
   "access" : "protected",
   "function_name" : "llvm::SmallVectorImpl<unsigned int>::SmallVectorImpl",
   "linker_set_key" : "_ZN4llvm15SmallVectorImplIjEC2Ej",
   "parameters" :
   [
    {
     "is_this_ptr" : true,
     "referenced_type" : "_ZTIPN4llvm15SmallVectorImplIjEE"
    },
    {
     "referenced_type" : "_ZTIj"
    }
   ],
   "return_type" : "_ZTIv",
   "source_file" : "external/llvm/include/llvm/ADT/SmallVector.h"
  },
  {
   "function_name" : "llvm::SmallVectorImpl<unsigned int>::~SmallVectorImpl",
   "linker_set_key" : "_ZN4llvm15SmallVectorImplIjED1Ev",
   "parameters" :
   [
    {
     "is_this_ptr" : true,
     "referenced_type" : "_ZTIPN4llvm15SmallVectorImplIjEE"
    }
   ],
   "return_type" : "_ZTIv",
   "source_file" : "external/llvm/include/llvm/ADT/SmallVector.h"
  },
  {
   "function_name" : "llvm::SmallVectorImpl<unsigned int>::~SmallVectorImpl",
   "linker_set_key" : "_ZN4llvm15SmallVectorImplIjED2Ev",
   "parameters" :
   [
    {
     "is_this_ptr" : true,
     "referenced_type" : "_ZTIPN4llvm15SmallVectorImplIjEE"
    }
   ],
   "return_type" : "_ZTIv",
   "source_file" : "external/llvm/include/llvm/ADT/SmallVector.h"
  },
  {
   "access" : "protected",
   "function_name" : "llvm::SmallVectorImpl<unsigned long>::SmallVectorImpl",
   "linker_set_key" : "_ZN4llvm15SmallVectorImplImEC1Ej",
   "parameters" :
   [
    {
     "is_this_ptr" : true,
     "referenced_type" : "_ZTIPN4llvm15SmallVectorImplImEE"
    },
    {
     "referenced_type" : "_ZTIj"
    }
   ],
   "return_type" : "_ZTIv",
   "source_file" : "external/llvm/include/llvm/ADT/SmallVector.h"
  },
  {
   "access" : "protected",
   "function_name" : "llvm::SmallVectorImpl<unsigned long>::SmallVectorImpl",
   "linker_set_key" : "_ZN4llvm15SmallVectorImplImEC2Ej",
   "parameters" :
   [
    {
     "is_this_ptr" : true,
     "referenced_type" : "_ZTIPN4llvm15SmallVectorImplImEE"
    },
    {
     "referenced_type" : "_ZTIj"
    }
   ],
   "return_type" : "_ZTIv",
   "source_file" : "external/llvm/include/llvm/ADT/SmallVector.h"
  },
  {
   "function_name" : "llvm::SmallVectorImpl<unsigned long>::~SmallVectorImpl",
   "linker_set_key" : "_ZN4llvm15SmallVectorImplImED1Ev",
   "parameters" :
   [
    {
     "is_this_ptr" : true,
     "referenced_type" : "_ZTIPN4llvm15SmallVectorImplImEE"
    }
   ],
   "return_type" : "_ZTIv",
   "source_file" : "external/llvm/include/llvm/ADT/SmallVector.h"
  },
  {
   "function_name" : "llvm::SmallVectorImpl<unsigned long>::~SmallVectorImpl",
   "linker_set_key" : "_ZN4llvm15SmallVectorImplImED2Ev",
   "parameters" :
   [
    {
     "is_this_ptr" : true,
     "referenced_type" : "_ZTIPN4llvm15SmallVectorImplImEE"
    }
   ],
   "return_type" : "_ZTIv",
   "source_file" : "external/llvm/include/llvm/ADT/SmallVector.h"
  },
  {
   "access" : "private",
   "function_name" : "llvm::DenseMapIterator<const llvm::GCOVFunction *, bool, llvm::DenseMapInfo<const llvm::GCOVFunction *>, llvm::detail::DenseMapPair<const llvm::GCOVFunction *, bool>, false>::AdvancePastEmptyBuckets",
   "linker_set_key" : "_ZN4llvm16DenseMapIteratorIPKNS_12GCOVFunctionEbNS_12DenseMapInfoIS3_EENS_6detail12DenseMapPairIS3_bEELb0EE23AdvancePastEmptyBucketsEv",
   "parameters" :
   [
    {
     "is_this_ptr" : true,
     "referenced_type" : "_ZTIPN4llvm16DenseMapIteratorIPKNS_12GCOVFunctionEbNS_12DenseMapInfoIS3_EENS_6detail12DenseMapPairIS3_bEELb0EEE"
    }
   ],
   "return_type" : "_ZTIv",
   "source_file" : "external/llvm/include/llvm/ADT/DenseMap.h"
  },
  {
   "function_name" : "llvm::DenseMapIterator<const llvm::GCOVFunction *, bool, llvm::DenseMapInfo<const llvm::GCOVFunction *>, llvm::detail::DenseMapPair<const llvm::GCOVFunction *, bool>, false>::DenseMapIterator",
   "linker_set_key" : "_ZN4llvm16DenseMapIteratorIPKNS_12GCOVFunctionEbNS_12DenseMapInfoIS3_EENS_6detail12DenseMapPairIS3_bEELb0EEC1EPS8_SA_RKNS_14DebugEpochBaseEb",
   "parameters" :
   [
    {
     "is_this_ptr" : true,
     "referenced_type" : "_ZTIPN4llvm16DenseMapIteratorIPKNS_12GCOVFunctionEbNS_12DenseMapInfoIS3_EENS_6detail12DenseMapPairIS3_bEELb0EEE"
    },
    {
     "referenced_type" : "_ZTIPN4llvm6detail12DenseMapPairIPKNS_12GCOVFunctionEbEE"
    },
    {
     "referenced_type" : "_ZTIPN4llvm6detail12DenseMapPairIPKNS_12GCOVFunctionEbEE"
    },
    {
     "referenced_type" : "_ZTIRKN4llvm14DebugEpochBaseE"
    },
    {
     "default_arg" : true,
     "referenced_type" : "_ZTIb"
    }
   ],
   "return_type" : "_ZTIv",
   "source_file" : "external/llvm/include/llvm/ADT/DenseMap.h"
  },
  {
   "function_name" : "llvm::DenseMapIterator<const llvm::GCOVFunction *, bool, llvm::DenseMapInfo<const llvm::GCOVFunction *>, llvm::detail::DenseMapPair<const llvm::GCOVFunction *, bool>, false>::DenseMapIterator",
   "linker_set_key" : "_ZN4llvm16DenseMapIteratorIPKNS_12GCOVFunctionEbNS_12DenseMapInfoIS3_EENS_6detail12DenseMapPairIS3_bEELb0EEC2EPS8_SA_RKNS_14DebugEpochBaseEb",
   "parameters" :
   [
    {
     "is_this_ptr" : true,
     "referenced_type" : "_ZTIPN4llvm16DenseMapIteratorIPKNS_12GCOVFunctionEbNS_12DenseMapInfoIS3_EENS_6detail12DenseMapPairIS3_bEELb0EEE"
    },
    {
     "referenced_type" : "_ZTIPN4llvm6detail12DenseMapPairIPKNS_12GCOVFunctionEbEE"
    },
    {
     "referenced_type" : "_ZTIPN4llvm6detail12DenseMapPairIPKNS_12GCOVFunctionEbEE"
    },
    {
     "referenced_type" : "_ZTIRKN4llvm14DebugEpochBaseE"
    },
    {
     "default_arg" : true,
     "referenced_type" : "_ZTIb"
    }
   ],
   "return_type" : "_ZTIv",
   "source_file" : "external/llvm/include/llvm/ADT/DenseMap.h"
  },
  {
   "function_name" : "llvm::DenseMapIterator<const llvm::GCOVFunction *, bool, llvm::DenseMapInfo<const llvm::GCOVFunction *>, llvm::detail::DenseMapPair<const llvm::GCOVFunction *, bool>, true>::DenseMapIterator",
   "linker_set_key" : "_ZN4llvm16DenseMapIteratorIPKNS_12GCOVFunctionEbNS_12DenseMapInfoIS3_EENS_6detail12DenseMapPairIS3_bEELb1EEC1ILb0EvEERKNS0_IS3_bS5_S8_XT_EEE",
   "parameters" :
   [
    {
     "is_this_ptr" : true,
     "referenced_type" : "_ZTIPN4llvm16DenseMapIteratorIPKNS_12GCOVFunctionEbNS_12DenseMapInfoIS3_EENS_6detail12DenseMapPairIS3_bEELb1EEE"
    },
    {
     "referenced_type" : "_ZTIRKN4llvm16DenseMapIteratorIPKNS_12GCOVFunctionEbNS_12DenseMapInfoIS3_EENS_6detail12DenseMapPairIS3_bEELb0EEE"
    }
   ],
   "return_type" : "_ZTIv",
   "source_file" : "external/llvm/include/llvm/ADT/DenseMap.h",
   "template_args" : [ "_ZTIv" ]
  },
  {
   "function_name" : "llvm::DenseMapIterator<const llvm::GCOVFunction *, bool, llvm::DenseMapInfo<const llvm::GCOVFunction *>, llvm::detail::DenseMapPair<const llvm::GCOVFunction *, bool>, true>::DenseMapIterator",
   "linker_set_key" : "_ZN4llvm16DenseMapIteratorIPKNS_12GCOVFunctionEbNS_12DenseMapInfoIS3_EENS_6detail12DenseMapPairIS3_bEELb1EEC2ILb0EvEERKNS0_IS3_bS5_S8_XT_EEE",
   "parameters" :
   [
    {
     "is_this_ptr" : true,
     "referenced_type" : "_ZTIPN4llvm16DenseMapIteratorIPKNS_12GCOVFunctionEbNS_12DenseMapInfoIS3_EENS_6detail12DenseMapPairIS3_bEELb1EEE"
    },
    {
     "referenced_type" : "_ZTIRKN4llvm16DenseMapIteratorIPKNS_12GCOVFunctionEbNS_12DenseMapInfoIS3_EENS_6detail12DenseMapPairIS3_bEELb0EEE"
    }
   ],
   "return_type" : "_ZTIv",
   "source_file" : "external/llvm/include/llvm/ADT/DenseMap.h",
   "template_args" : [ "_ZTIv" ]
  },
  {
   "access" : "private",
   "function_name" : "llvm::DenseMapIterator<const llvm::GCOVFunction *, unsigned int, llvm::DenseMapInfo<const llvm::GCOVFunction *>, llvm::detail::DenseMapPair<const llvm::GCOVFunction *, unsigned int>, false>::AdvancePastEmptyBuckets",
   "linker_set_key" : "_ZN4llvm16DenseMapIteratorIPKNS_12GCOVFunctionEjNS_12DenseMapInfoIS3_EENS_6detail12DenseMapPairIS3_jEELb0EE23AdvancePastEmptyBucketsEv",
   "parameters" :
   [
    {
     "is_this_ptr" : true,
     "referenced_type" : "_ZTIPN4llvm16DenseMapIteratorIPKNS_12GCOVFunctionEjNS_12DenseMapInfoIS3_EENS_6detail12DenseMapPairIS3_jEELb0EEE"
    }
   ],
   "return_type" : "_ZTIv",
   "source_file" : "external/llvm/include/llvm/ADT/DenseMap.h"
  },
  {
   "function_name" : "llvm::DenseMapIterator<const llvm::GCOVFunction *, unsigned int, llvm::DenseMapInfo<const llvm::GCOVFunction *>, llvm::detail::DenseMapPair<const llvm::GCOVFunction *, unsigned int>, false>::DenseMapIterator",
   "linker_set_key" : "_ZN4llvm16DenseMapIteratorIPKNS_12GCOVFunctionEjNS_12DenseMapInfoIS3_EENS_6detail12DenseMapPairIS3_jEELb0EEC1EPS8_SA_RKNS_14DebugEpochBaseEb",
   "parameters" :
   [
    {
     "is_this_ptr" : true,
     "referenced_type" : "_ZTIPN4llvm16DenseMapIteratorIPKNS_12GCOVFunctionEjNS_12DenseMapInfoIS3_EENS_6detail12DenseMapPairIS3_jEELb0EEE"
    },
    {
     "referenced_type" : "_ZTIPN4llvm6detail12DenseMapPairIPKNS_12GCOVFunctionEjEE"
    },
    {
     "referenced_type" : "_ZTIPN4llvm6detail12DenseMapPairIPKNS_12GCOVFunctionEjEE"
    },
    {
     "referenced_type" : "_ZTIRKN4llvm14DebugEpochBaseE"
    },
    {
     "default_arg" : true,
     "referenced_type" : "_ZTIb"
    }
   ],
   "return_type" : "_ZTIv",
   "source_file" : "external/llvm/include/llvm/ADT/DenseMap.h"
  },
  {
   "function_name" : "llvm::DenseMapIterator<const llvm::GCOVFunction *, unsigned int, llvm::DenseMapInfo<const llvm::GCOVFunction *>, llvm::detail::DenseMapPair<const llvm::GCOVFunction *, unsigned int>, false>::DenseMapIterator",
   "linker_set_key" : "_ZN4llvm16DenseMapIteratorIPKNS_12GCOVFunctionEjNS_12DenseMapInfoIS3_EENS_6detail12DenseMapPairIS3_jEELb0EEC2EPS8_SA_RKNS_14DebugEpochBaseEb",
   "parameters" :
   [
    {
     "is_this_ptr" : true,
     "referenced_type" : "_ZTIPN4llvm16DenseMapIteratorIPKNS_12GCOVFunctionEjNS_12DenseMapInfoIS3_EENS_6detail12DenseMapPairIS3_jEELb0EEE"
    },
    {
     "referenced_type" : "_ZTIPN4llvm6detail12DenseMapPairIPKNS_12GCOVFunctionEjEE"
    },
    {
     "referenced_type" : "_ZTIPN4llvm6detail12DenseMapPairIPKNS_12GCOVFunctionEjEE"
    },
    {
     "referenced_type" : "_ZTIRKN4llvm14DebugEpochBaseE"
    },
    {
     "default_arg" : true,
     "referenced_type" : "_ZTIb"
    }
   ],
   "return_type" : "_ZTIv",
   "source_file" : "external/llvm/include/llvm/ADT/DenseMap.h"
  },
  {
   "function_name" : "llvm::DenseMapIterator<const llvm::GCOVFunction *, unsigned int, llvm::DenseMapInfo<const llvm::GCOVFunction *>, llvm::detail::DenseMapPair<const llvm::GCOVFunction *, unsigned int>, true>::DenseMapIterator",
   "linker_set_key" : "_ZN4llvm16DenseMapIteratorIPKNS_12GCOVFunctionEjNS_12DenseMapInfoIS3_EENS_6detail12DenseMapPairIS3_jEELb1EEC1ILb0EvEERKNS0_IS3_jS5_S8_XT_EEE",
   "parameters" :
   [
    {
     "is_this_ptr" : true,
     "referenced_type" : "_ZTIPN4llvm16DenseMapIteratorIPKNS_12GCOVFunctionEjNS_12DenseMapInfoIS3_EENS_6detail12DenseMapPairIS3_jEELb1EEE"
    },
    {
     "referenced_type" : "_ZTIRKN4llvm16DenseMapIteratorIPKNS_12GCOVFunctionEjNS_12DenseMapInfoIS3_EENS_6detail12DenseMapPairIS3_jEELb0EEE"
    }
   ],
   "return_type" : "_ZTIv",
   "source_file" : "external/llvm/include/llvm/ADT/DenseMap.h",
   "template_args" : [ "_ZTIv" ]
  },
  {
   "function_name" : "llvm::DenseMapIterator<const llvm::GCOVFunction *, unsigned int, llvm::DenseMapInfo<const llvm::GCOVFunction *>, llvm::detail::DenseMapPair<const llvm::GCOVFunction *, unsigned int>, true>::DenseMapIterator",
   "linker_set_key" : "_ZN4llvm16DenseMapIteratorIPKNS_12GCOVFunctionEjNS_12DenseMapInfoIS3_EENS_6detail12DenseMapPairIS3_jEELb1EEC2ILb0EvEERKNS0_IS3_jS5_S8_XT_EEE",
   "parameters" :
   [
    {
     "is_this_ptr" : true,
     "referenced_type" : "_ZTIPN4llvm16DenseMapIteratorIPKNS_12GCOVFunctionEjNS_12DenseMapInfoIS3_EENS_6detail12DenseMapPairIS3_jEELb1EEE"
    },
    {
     "referenced_type" : "_ZTIRKN4llvm16DenseMapIteratorIPKNS_12GCOVFunctionEjNS_12DenseMapInfoIS3_EENS_6detail12DenseMapPairIS3_jEELb0EEE"
    }
   ],
   "return_type" : "_ZTIv",
   "source_file" : "external/llvm/include/llvm/ADT/DenseMap.h",
   "template_args" : [ "_ZTIv" ]
  },
  {
   "access" : "private",
   "function_name" : "llvm::DenseMapIterator<unsigned int, llvm::SmallVector<const llvm::GCOVFunction *, 1>, llvm::DenseMapInfo<unsigned int>, llvm::detail::DenseMapPair<unsigned int, llvm::SmallVector<const llvm::GCOVFunction *, 1>>, true>::AdvancePastEmptyBuckets",
   "linker_set_key" : "_ZN4llvm16DenseMapIteratorIjNS_11SmallVectorIPKNS_12GCOVFunctionELj1EEENS_12DenseMapInfoIjEENS_6detail12DenseMapPairIjS5_EELb1EE23AdvancePastEmptyBucketsEv",
   "parameters" :
   [
    {
     "is_this_ptr" : true,
     "referenced_type" : "_ZTIPN4llvm16DenseMapIteratorIjNS_11SmallVectorIPKNS_12GCOVFunctionELj1EEENS_12DenseMapInfoIjEENS_6detail12DenseMapPairIjS5_EELb1EEE"
    }
   ],
   "return_type" : "_ZTIv",
   "source_file" : "external/llvm/include/llvm/ADT/DenseMap.h"
  },
  {
   "function_name" : "llvm::DenseMapIterator<unsigned int, llvm::SmallVector<const llvm::GCOVFunction *, 1>, llvm::DenseMapInfo<unsigned int>, llvm::detail::DenseMapPair<unsigned int, llvm::SmallVector<const llvm::GCOVFunction *, 1>>, true>::DenseMapIterator",
   "linker_set_key" : "_ZN4llvm16DenseMapIteratorIjNS_11SmallVectorIPKNS_12GCOVFunctionELj1EEENS_12DenseMapInfoIjEENS_6detail12DenseMapPairIjS5_EELb1EEC1EPKSA_SD_RKNS_14DebugEpochBaseEb",
   "parameters" :
   [
    {
     "is_this_ptr" : true,
     "referenced_type" : "_ZTIPN4llvm16DenseMapIteratorIjNS_11SmallVectorIPKNS_12GCOVFunctionELj1EEENS_12DenseMapInfoIjEENS_6detail12DenseMapPairIjS5_EELb1EEE"
    },
    {
     "referenced_type" : "_ZTIPKN4llvm6detail12DenseMapPairIjNS_11SmallVectorIPKNS_12GCOVFunctionELj1EEEEE"
    },
    {
     "referenced_type" : "_ZTIPKN4llvm6detail12DenseMapPairIjNS_11SmallVectorIPKNS_12GCOVFunctionELj1EEEEE"
    },
    {
     "referenced_type" : "_ZTIRKN4llvm14DebugEpochBaseE"
    },
    {
     "default_arg" : true,
     "referenced_type" : "_ZTIb"
    }
   ],
   "return_type" : "_ZTIv",
   "source_file" : "external/llvm/include/llvm/ADT/DenseMap.h"
  },
  {
   "function_name" : "llvm::DenseMapIterator<unsigned int, llvm::SmallVector<const llvm::GCOVFunction *, 1>, llvm::DenseMapInfo<unsigned int>, llvm::detail::DenseMapPair<unsigned int, llvm::SmallVector<const llvm::GCOVFunction *, 1>>, true>::DenseMapIterator",
   "linker_set_key" : "_ZN4llvm16DenseMapIteratorIjNS_11SmallVectorIPKNS_12GCOVFunctionELj1EEENS_12DenseMapInfoIjEENS_6detail12DenseMapPairIjS5_EELb1EEC2EPKSA_SD_RKNS_14DebugEpochBaseEb",
   "parameters" :
   [
    {
     "is_this_ptr" : true,
     "referenced_type" : "_ZTIPN4llvm16DenseMapIteratorIjNS_11SmallVectorIPKNS_12GCOVFunctionELj1EEENS_12DenseMapInfoIjEENS_6detail12DenseMapPairIjS5_EELb1EEE"
    },
    {
     "referenced_type" : "_ZTIPKN4llvm6detail12DenseMapPairIjNS_11SmallVectorIPKNS_12GCOVFunctionELj1EEEEE"
    },
    {
     "referenced_type" : "_ZTIPKN4llvm6detail12DenseMapPairIjNS_11SmallVectorIPKNS_12GCOVFunctionELj1EEEEE"
    },
    {
     "referenced_type" : "_ZTIRKN4llvm14DebugEpochBaseE"
    },
    {
     "default_arg" : true,
     "referenced_type" : "_ZTIb"
    }
   ],
   "return_type" : "_ZTIv",
   "source_file" : "external/llvm/include/llvm/ADT/DenseMap.h"
  },
  {
   "access" : "private",
   "function_name" : "llvm::DenseMapIterator<unsigned int, llvm::SmallVector<const llvm::GCOVBlock *, 4>, llvm::DenseMapInfo<unsigned int>, llvm::detail::DenseMapPair<unsigned int, llvm::SmallVector<const llvm::GCOVBlock *, 4>>, true>::AdvancePastEmptyBuckets",
   "linker_set_key" : "_ZN4llvm16DenseMapIteratorIjNS_11SmallVectorIPKNS_9GCOVBlockELj4EEENS_12DenseMapInfoIjEENS_6detail12DenseMapPairIjS5_EELb1EE23AdvancePastEmptyBucketsEv",
   "parameters" :
   [
    {
     "is_this_ptr" : true,
     "referenced_type" : "_ZTIPN4llvm16DenseMapIteratorIjNS_11SmallVectorIPKNS_9GCOVBlockELj4EEENS_12DenseMapInfoIjEENS_6detail12DenseMapPairIjS5_EELb1EEE"
    }
   ],
   "return_type" : "_ZTIv",
   "source_file" : "external/llvm/include/llvm/ADT/DenseMap.h"
  },
  {
   "function_name" : "llvm::DenseMapIterator<unsigned int, llvm::SmallVector<const llvm::GCOVBlock *, 4>, llvm::DenseMapInfo<unsigned int>, llvm::detail::DenseMapPair<unsigned int, llvm::SmallVector<const llvm::GCOVBlock *, 4>>, true>::DenseMapIterator",
   "linker_set_key" : "_ZN4llvm16DenseMapIteratorIjNS_11SmallVectorIPKNS_9GCOVBlockELj4EEENS_12DenseMapInfoIjEENS_6detail12DenseMapPairIjS5_EELb1EEC1EPKSA_SD_RKNS_14DebugEpochBaseEb",
   "parameters" :
   [
    {
     "is_this_ptr" : true,
     "referenced_type" : "_ZTIPN4llvm16DenseMapIteratorIjNS_11SmallVectorIPKNS_9GCOVBlockELj4EEENS_12DenseMapInfoIjEENS_6detail12DenseMapPairIjS5_EELb1EEE"
    },
    {
     "referenced_type" : "_ZTIPKN4llvm6detail12DenseMapPairIjNS_11SmallVectorIPKNS_9GCOVBlockELj4EEEEE"
    },
    {
     "referenced_type" : "_ZTIPKN4llvm6detail12DenseMapPairIjNS_11SmallVectorIPKNS_9GCOVBlockELj4EEEEE"
    },
    {
     "referenced_type" : "_ZTIRKN4llvm14DebugEpochBaseE"
    },
    {
     "default_arg" : true,
     "referenced_type" : "_ZTIb"
    }
   ],
   "return_type" : "_ZTIv",
   "source_file" : "external/llvm/include/llvm/ADT/DenseMap.h"
  },
  {
   "function_name" : "llvm::DenseMapIterator<unsigned int, llvm::SmallVector<const llvm::GCOVBlock *, 4>, llvm::DenseMapInfo<unsigned int>, llvm::detail::DenseMapPair<unsigned int, llvm::SmallVector<const llvm::GCOVBlock *, 4>>, true>::DenseMapIterator",
   "linker_set_key" : "_ZN4llvm16DenseMapIteratorIjNS_11SmallVectorIPKNS_9GCOVBlockELj4EEENS_12DenseMapInfoIjEENS_6detail12DenseMapPairIjS5_EELb1EEC2EPKSA_SD_RKNS_14DebugEpochBaseEb",
   "parameters" :
   [
    {
     "is_this_ptr" : true,
     "referenced_type" : "_ZTIPN4llvm16DenseMapIteratorIjNS_11SmallVectorIPKNS_9GCOVBlockELj4EEENS_12DenseMapInfoIjEENS_6detail12DenseMapPairIjS5_EELb1EEE"
    },
    {
     "referenced_type" : "_ZTIPKN4llvm6detail12DenseMapPairIjNS_11SmallVectorIPKNS_9GCOVBlockELj4EEEEE"
    },
    {
     "referenced_type" : "_ZTIPKN4llvm6detail12DenseMapPairIjNS_11SmallVectorIPKNS_9GCOVBlockELj4EEEEE"
    },
    {
     "referenced_type" : "_ZTIRKN4llvm14DebugEpochBaseE"
    },
    {
     "default_arg" : true,
     "referenced_type" : "_ZTIb"
    }
   ],
   "return_type" : "_ZTIv",
   "source_file" : "external/llvm/include/llvm/ADT/DenseMap.h"
  },
  {
   "function_name" : "llvm::isShiftedMask_32",
   "linker_set_key" : "_ZN4llvm16isShiftedMask_32Ej",
   "parameters" :
   [
    {
     "referenced_type" : "_ZTIj"
    }
   ],
   "return_type" : "_ZTIb",
   "source_file" : "external/llvm/include/llvm/Support/MathExtras.h"
  },
  {
   "function_name" : "llvm::isShiftedMask_64",
   "linker_set_key" : "_ZN4llvm16isShiftedMask_64Em",
   "parameters" :
   [
    {
     "referenced_type" : "_ZTIm"
    }
   ],
   "return_type" : "_ZTIb",
   "source_file" : "external/llvm/include/llvm/Support/MathExtras.h"
  },
  {
   "function_name" : "llvm::pointee_iterator<const std::__1::unique_ptr<llvm::GCOVBlock, std::__1::default_delete<llvm::GCOVBlock>> *, llvm::GCOVBlock>::pointee_iterator",
   "linker_set_key" : "_ZN4llvm16pointee_iteratorIPKNSt3__110unique_ptrINS_9GCOVBlockENS1_14default_deleteIS3_EEEES3_EC1Ev",
   "parameters" :
   [
    {
     "is_this_ptr" : true,
     "referenced_type" : "_ZTIPN4llvm16pointee_iteratorIPKNSt3__110unique_ptrINS_9GCOVBlockENS1_14default_deleteIS3_EEEES3_EE"
    }
   ],
   "return_type" : "_ZTIv",
   "source_file" : "external/llvm/include/llvm/ADT/iterator.h"
  },
  {
   "function_name" : "llvm::pointee_iterator<const std::__1::unique_ptr<llvm::GCOVBlock, std::__1::default_delete<llvm::GCOVBlock>> *, llvm::GCOVBlock>::pointee_iterator",
   "linker_set_key" : "_ZN4llvm16pointee_iteratorIPKNSt3__110unique_ptrINS_9GCOVBlockENS1_14default_deleteIS3_EEEES3_EC1IS8_EEOT_",
   "parameters" :
   [
    {
     "is_this_ptr" : true,
     "referenced_type" : "_ZTIPN4llvm16pointee_iteratorIPKNSt3__110unique_ptrINS_9GCOVBlockENS1_14default_deleteIS3_EEEES3_EE"
    },
    {
     "referenced_type" : "_ZTIOPKNSt3__110unique_ptrIN4llvm9GCOVBlockENS_14default_deleteIS2_EEEE"
    }
   ],
   "return_type" : "_ZTIv",
   "source_file" : "external/llvm/include/llvm/ADT/iterator.h",
   "template_args" :
   [
    "_ZTIPKNSt3__110unique_ptrIN4llvm9GCOVBlockENS_14default_deleteIS2_EEEE"
   ]
  },
  {
   "function_name" : "llvm::pointee_iterator<const std::__1::unique_ptr<llvm::GCOVBlock, std::__1::default_delete<llvm::GCOVBlock>> *, llvm::GCOVBlock>::pointee_iterator",
   "linker_set_key" : "_ZN4llvm16pointee_iteratorIPKNSt3__110unique_ptrINS_9GCOVBlockENS1_14default_deleteIS3_EEEES3_EC2Ev",
   "parameters" :
   [
    {
     "is_this_ptr" : true,
     "referenced_type" : "_ZTIPN4llvm16pointee_iteratorIPKNSt3__110unique_ptrINS_9GCOVBlockENS1_14default_deleteIS3_EEEES3_EE"
    }
   ],
   "return_type" : "_ZTIv",
   "source_file" : "external/llvm/include/llvm/ADT/iterator.h"
  },
  {
   "function_name" : "llvm::pointee_iterator<const std::__1::unique_ptr<llvm::GCOVBlock, std::__1::default_delete<llvm::GCOVBlock>> *, llvm::GCOVBlock>::pointee_iterator",
   "linker_set_key" : "_ZN4llvm16pointee_iteratorIPKNSt3__110unique_ptrINS_9GCOVBlockENS1_14default_deleteIS3_EEEES3_EC2IS8_EEOT_",
   "parameters" :
   [
    {
     "is_this_ptr" : true,
     "referenced_type" : "_ZTIPN4llvm16pointee_iteratorIPKNSt3__110unique_ptrINS_9GCOVBlockENS1_14default_deleteIS3_EEEES3_EE"
    },
    {
     "referenced_type" : "_ZTIOPKNSt3__110unique_ptrIN4llvm9GCOVBlockENS_14default_deleteIS2_EEEE"
    }
   ],
   "return_type" : "_ZTIv",
   "source_file" : "external/llvm/include/llvm/ADT/iterator.h",
   "template_args" :
   [
    "_ZTIPKNSt3__110unique_ptrIN4llvm9GCOVBlockENS_14default_deleteIS2_EEEE"
   ]
  },
  {
   "function_name" : "llvm::raw_null_ostream::raw_null_ostream",
   "linker_set_key" : "_ZN4llvm16raw_null_ostreamC1Ev",
   "parameters" :
   [
    {
     "is_this_ptr" : true,
     "referenced_type" : "_ZTIPN4llvm16raw_null_ostreamE"
    }
   ],
   "return_type" : "_ZTIv",
   "source_file" : "external/llvm/include/llvm/Support/raw_ostream.h"
  },
  {
   "function_name" : "llvm::raw_null_ostream::raw_null_ostream",
   "linker_set_key" : "_ZN4llvm16raw_null_ostreamC2Ev",
   "parameters" :
   [
    {
     "is_this_ptr" : true,
     "referenced_type" : "_ZTIPN4llvm16raw_null_ostreamE"
    }
   ],
   "return_type" : "_ZTIv",
   "source_file" : "external/llvm/include/llvm/Support/raw_ostream.h"
  },
  {
   "function_name" : "llvm::OffsetToAlignment",
   "linker_set_key" : "_ZN4llvm17OffsetToAlignmentEmm",
   "parameters" :
   [
    {
     "referenced_type" : "_ZTIm"
    },
    {
     "referenced_type" : "_ZTIm"
    }
   ],
   "return_type" : "_ZTIm",
   "source_file" : "external/llvm/include/llvm/Support/MathExtras.h"
  },
  {
   "function_name" : "llvm::StringMapIterator<llvm::FileInfo::LineData>::StringMapIterator",
   "linker_set_key" : "_ZN4llvm17StringMapIteratorINS_8FileInfo8LineDataEEC1EPPNS_18StringMapEntryBaseEb",
   "parameters" :
   [
    {
     "is_this_ptr" : true,
     "referenced_type" : "_ZTIPN4llvm17StringMapIteratorINS_8FileInfo8LineDataEEE"
    },
    {
     "referenced_type" : "_ZTIPPN4llvm18StringMapEntryBaseE"
    },
    {
     "default_arg" : true,
     "referenced_type" : "_ZTIb"
    }
   ],
   "return_type" : "_ZTIv",
   "source_file" : "external/llvm/include/llvm/ADT/StringMap.h"
  },
  {
   "function_name" : "llvm::StringMapIterator<llvm::FileInfo::LineData>::StringMapIterator",
   "linker_set_key" : "_ZN4llvm17StringMapIteratorINS_8FileInfo8LineDataEEC2EPPNS_18StringMapEntryBaseEb",
   "parameters" :
   [
    {
     "is_this_ptr" : true,
     "referenced_type" : "_ZTIPN4llvm17StringMapIteratorINS_8FileInfo8LineDataEEE"
    },
    {
     "referenced_type" : "_ZTIPPN4llvm18StringMapEntryBaseE"
    },
    {
     "default_arg" : true,
     "referenced_type" : "_ZTIb"
    }
   ],
   "return_type" : "_ZTIv",
   "source_file" : "external/llvm/include/llvm/ADT/StringMap.h"
  },
  {
   "function_name" : "llvm::countLeadingZeros",
   "linker_set_key" : "_ZN4llvm17countLeadingZerosIjEEmT_NS_12ZeroBehaviorE",
   "parameters" :
   [
    {
     "referenced_type" : "_ZTIj"
    },
    {
     "default_arg" : true,
     "referenced_type" : "_ZTIN4llvm12ZeroBehaviorE"
    }
   ],
   "return_type" : "_ZTIm",
   "source_file" : "external/llvm/include/llvm/Support/MathExtras.h",
   "template_args" : [ "_ZTIj" ]
  },
  {
   "function_name" : "llvm::countLeadingZeros",
   "linker_set_key" : "_ZN4llvm17countLeadingZerosImEEmT_NS_12ZeroBehaviorE",
   "parameters" :
   [
    {
     "referenced_type" : "_ZTIm"
    },
    {
     "default_arg" : true,
     "referenced_type" : "_ZTIN4llvm12ZeroBehaviorE"
    }
   ],
   "return_type" : "_ZTIm",
   "source_file" : "external/llvm/include/llvm/Support/MathExtras.h",
   "template_args" : [ "_ZTIm" ]
  },
  {
   "function_name" : "llvm::raw_pwrite_stream::pwrite",
   "linker_set_key" : "_ZN4llvm17raw_pwrite_stream6pwriteEPKcmm",
   "parameters" :
   [
    {
     "is_this_ptr" : true,
     "referenced_type" : "_ZTIPN4llvm17raw_pwrite_streamE"
    },
    {
     "referenced_type" : "_ZTIPKc"
    },
    {
     "referenced_type" : "_ZTIm"
    },
    {
     "referenced_type" : "_ZTIm"
    }
   ],
   "return_type" : "_ZTIv",
   "source_file" : "external/llvm/include/llvm/Support/raw_ostream.h"
  },
  {
   "function_name" : "llvm::raw_pwrite_stream::raw_pwrite_stream",
   "linker_set_key" : "_ZN4llvm17raw_pwrite_streamC2Eb",
   "parameters" :
   [
    {
     "is_this_ptr" : true,
     "referenced_type" : "_ZTIPN4llvm17raw_pwrite_streamE"
    },
    {
     "default_arg" : true,
     "referenced_type" : "_ZTIb"
    }
   ],
   "return_type" : "_ZTIv",
   "source_file" : "external/llvm/include/llvm/Support/raw_ostream.h"
  },
  {
   "function_name" : "llvm::IntrusiveRefCntPtr<llvm::sys::fs::detail::DirIterState>::swap",
   "linker_set_key" : "_ZN4llvm18IntrusiveRefCntPtrINS_3sys2fs6detail12DirIterStateEE4swapERS5_",
   "parameters" :
   [
    {
     "is_this_ptr" : true,
     "referenced_type" : "_ZTIPN4llvm18IntrusiveRefCntPtrINS_3sys2fs6detail12DirIterStateEEE"
    },
    {
     "referenced_type" : "_ZTIRN4llvm18IntrusiveRefCntPtrINS_3sys2fs6detail12DirIterStateEEE"
    }
   ],
   "return_type" : "_ZTIv",
   "source_file" : "external/llvm/include/llvm/ADT/IntrusiveRefCntPtr.h"
  },
  {
   "access" : "private",
   "function_name" : "llvm::IntrusiveRefCntPtr<llvm::sys::fs::detail::DirIterState>::retain",
   "linker_set_key" : "_ZN4llvm18IntrusiveRefCntPtrINS_3sys2fs6detail12DirIterStateEE6retainEv",
   "parameters" :
   [
    {
     "is_this_ptr" : true,
     "referenced_type" : "_ZTIPN4llvm18IntrusiveRefCntPtrINS_3sys2fs6detail12DirIterStateEEE"
    }
   ],
   "return_type" : "_ZTIv",
   "source_file" : "external/llvm/include/llvm/ADT/IntrusiveRefCntPtr.h"
  },
  {
   "access" : "private",
   "function_name" : "llvm::IntrusiveRefCntPtr<llvm::sys::fs::detail::DirIterState>::release",
   "linker_set_key" : "_ZN4llvm18IntrusiveRefCntPtrINS_3sys2fs6detail12DirIterStateEE7releaseEv",
   "parameters" :
   [
    {
     "is_this_ptr" : true,
     "referenced_type" : "_ZTIPN4llvm18IntrusiveRefCntPtrINS_3sys2fs6detail12DirIterStateEEE"
    }
   ],
   "return_type" : "_ZTIv",
   "source_file" : "external/llvm/include/llvm/ADT/IntrusiveRefCntPtr.h"
  },
  {
   "function_name" : "llvm::IntrusiveRefCntPtr<llvm::sys::fs::detail::DirIterState>::IntrusiveRefCntPtr",
   "linker_set_key" : "_ZN4llvm18IntrusiveRefCntPtrINS_3sys2fs6detail12DirIterStateEEC1EOS5_",
   "parameters" :
   [
    {
     "is_this_ptr" : true,
     "referenced_type" : "_ZTIPN4llvm18IntrusiveRefCntPtrINS_3sys2fs6detail12DirIterStateEEE"
    },
    {
     "referenced_type" : "_ZTION4llvm18IntrusiveRefCntPtrINS_3sys2fs6detail12DirIterStateEEE"
    }
   ],
   "return_type" : "_ZTIv",
   "source_file" : "external/llvm/include/llvm/ADT/IntrusiveRefCntPtr.h"
  },
  {
   "function_name" : "llvm::IntrusiveRefCntPtr<llvm::sys::fs::detail::DirIterState>::IntrusiveRefCntPtr",
   "linker_set_key" : "_ZN4llvm18IntrusiveRefCntPtrINS_3sys2fs6detail12DirIterStateEEC1EPS4_",
   "parameters" :
   [
    {
     "is_this_ptr" : true,
     "referenced_type" : "_ZTIPN4llvm18IntrusiveRefCntPtrINS_3sys2fs6detail12DirIterStateEEE"
    },
    {
     "referenced_type" : "_ZTIPN4llvm3sys2fs6detail12DirIterStateE"
    }
   ],
   "return_type" : "_ZTIv",
   "source_file" : "external/llvm/include/llvm/ADT/IntrusiveRefCntPtr.h"
  },
  {
   "function_name" : "llvm::IntrusiveRefCntPtr<llvm::sys::fs::detail::DirIterState>::IntrusiveRefCntPtr",
   "linker_set_key" : "_ZN4llvm18IntrusiveRefCntPtrINS_3sys2fs6detail12DirIterStateEEC1ERKS5_",
   "parameters" :
   [
    {
     "is_this_ptr" : true,
     "referenced_type" : "_ZTIPN4llvm18IntrusiveRefCntPtrINS_3sys2fs6detail12DirIterStateEEE"
    },
    {
     "referenced_type" : "_ZTIRKN4llvm18IntrusiveRefCntPtrINS_3sys2fs6detail12DirIterStateEEE"
    }
   ],
   "return_type" : "_ZTIv",
   "source_file" : "external/llvm/include/llvm/ADT/IntrusiveRefCntPtr.h"
  },
  {
   "function_name" : "llvm::IntrusiveRefCntPtr<llvm::sys::fs::detail::DirIterState>::IntrusiveRefCntPtr",
   "linker_set_key" : "_ZN4llvm18IntrusiveRefCntPtrINS_3sys2fs6detail12DirIterStateEEC1Ev",
   "parameters" :
   [
    {
     "is_this_ptr" : true,
     "referenced_type" : "_ZTIPN4llvm18IntrusiveRefCntPtrINS_3sys2fs6detail12DirIterStateEEE"
    }
   ],
   "return_type" : "_ZTIv",
   "source_file" : "external/llvm/include/llvm/ADT/IntrusiveRefCntPtr.h"
  },
  {
   "function_name" : "llvm::IntrusiveRefCntPtr<llvm::sys::fs::detail::DirIterState>::IntrusiveRefCntPtr",
   "linker_set_key" : "_ZN4llvm18IntrusiveRefCntPtrINS_3sys2fs6detail12DirIterStateEEC2EOS5_",
   "parameters" :
   [
    {
     "is_this_ptr" : true,
     "referenced_type" : "_ZTIPN4llvm18IntrusiveRefCntPtrINS_3sys2fs6detail12DirIterStateEEE"
    },
    {
     "referenced_type" : "_ZTION4llvm18IntrusiveRefCntPtrINS_3sys2fs6detail12DirIterStateEEE"
    }
   ],
   "return_type" : "_ZTIv",
   "source_file" : "external/llvm/include/llvm/ADT/IntrusiveRefCntPtr.h"
  },
  {
   "function_name" : "llvm::IntrusiveRefCntPtr<llvm::sys::fs::detail::DirIterState>::IntrusiveRefCntPtr",
   "linker_set_key" : "_ZN4llvm18IntrusiveRefCntPtrINS_3sys2fs6detail12DirIterStateEEC2EPS4_",
   "parameters" :
   [
    {
     "is_this_ptr" : true,
     "referenced_type" : "_ZTIPN4llvm18IntrusiveRefCntPtrINS_3sys2fs6detail12DirIterStateEEE"
    },
    {
     "referenced_type" : "_ZTIPN4llvm3sys2fs6detail12DirIterStateE"
    }
   ],
   "return_type" : "_ZTIv",
   "source_file" : "external/llvm/include/llvm/ADT/IntrusiveRefCntPtr.h"
  },
  {
   "function_name" : "llvm::IntrusiveRefCntPtr<llvm::sys::fs::detail::DirIterState>::IntrusiveRefCntPtr",
   "linker_set_key" : "_ZN4llvm18IntrusiveRefCntPtrINS_3sys2fs6detail12DirIterStateEEC2ERKS5_",
   "parameters" :
   [
    {
     "is_this_ptr" : true,
     "referenced_type" : "_ZTIPN4llvm18IntrusiveRefCntPtrINS_3sys2fs6detail12DirIterStateEEE"
    },
    {
     "referenced_type" : "_ZTIRKN4llvm18IntrusiveRefCntPtrINS_3sys2fs6detail12DirIterStateEEE"
    }
   ],
   "return_type" : "_ZTIv",
   "source_file" : "external/llvm/include/llvm/ADT/IntrusiveRefCntPtr.h"
  },
  {
   "function_name" : "llvm::IntrusiveRefCntPtr<llvm::sys::fs::detail::DirIterState>::IntrusiveRefCntPtr",
   "linker_set_key" : "_ZN4llvm18IntrusiveRefCntPtrINS_3sys2fs6detail12DirIterStateEEC2Ev",
   "parameters" :
   [
    {
     "is_this_ptr" : true,
     "referenced_type" : "_ZTIPN4llvm18IntrusiveRefCntPtrINS_3sys2fs6detail12DirIterStateEEE"
    }
   ],
   "return_type" : "_ZTIv",
   "source_file" : "external/llvm/include/llvm/ADT/IntrusiveRefCntPtr.h"
  },
  {
   "function_name" : "llvm::IntrusiveRefCntPtr<llvm::sys::fs::detail::DirIterState>::~IntrusiveRefCntPtr",
   "linker_set_key" : "_ZN4llvm18IntrusiveRefCntPtrINS_3sys2fs6detail12DirIterStateEED1Ev",
   "parameters" :
   [
    {
     "is_this_ptr" : true,
     "referenced_type" : "_ZTIPN4llvm18IntrusiveRefCntPtrINS_3sys2fs6detail12DirIterStateEEE"
    }
   ],
   "return_type" : "_ZTIv",
   "source_file" : "external/llvm/include/llvm/ADT/IntrusiveRefCntPtr.h"
  },
  {
   "function_name" : "llvm::IntrusiveRefCntPtr<llvm::sys::fs::detail::DirIterState>::~IntrusiveRefCntPtr",
   "linker_set_key" : "_ZN4llvm18IntrusiveRefCntPtrINS_3sys2fs6detail12DirIterStateEED2Ev",
   "parameters" :
   [
    {
     "is_this_ptr" : true,
     "referenced_type" : "_ZTIPN4llvm18IntrusiveRefCntPtrINS_3sys2fs6detail12DirIterStateEEE"
    }
   ],
   "return_type" : "_ZTIv",
   "source_file" : "external/llvm/include/llvm/ADT/IntrusiveRefCntPtr.h"
  },
  {
   "function_name" : "llvm::IntrusiveRefCntPtr<llvm::sys::fs::detail::DirIterState>::operator=",
   "linker_set_key" : "_ZN4llvm18IntrusiveRefCntPtrINS_3sys2fs6detail12DirIterStateEEaSES5_",
   "parameters" :
   [
    {
     "is_this_ptr" : true,
     "referenced_type" : "_ZTIPN4llvm18IntrusiveRefCntPtrINS_3sys2fs6detail12DirIterStateEEE"
    },
    {
     "referenced_type" : "_ZTIN4llvm18IntrusiveRefCntPtrINS_3sys2fs6detail12DirIterStateEEE"
    }
   ],
   "return_type" : "_ZTIRN4llvm18IntrusiveRefCntPtrINS_3sys2fs6detail12DirIterStateEEE",
   "source_file" : "external/llvm/include/llvm/ADT/IntrusiveRefCntPtr.h"
  },
  {
   "function_name" : "llvm::IntrusiveRefCntPtr<llvm::sys::fs::detail::RecDirIterState>::reset",
   "linker_set_key" : "_ZN4llvm18IntrusiveRefCntPtrINS_3sys2fs6detail15RecDirIterStateEE5resetEv",
   "parameters" :
   [
    {
     "is_this_ptr" : true,
     "referenced_type" : "_ZTIPN4llvm18IntrusiveRefCntPtrINS_3sys2fs6detail15RecDirIterStateEEE"
    }
   ],
   "return_type" : "_ZTIv",
   "source_file" : "external/llvm/include/llvm/ADT/IntrusiveRefCntPtr.h"
  },
  {
   "access" : "private",
   "function_name" : "llvm::IntrusiveRefCntPtr<llvm::sys::fs::detail::RecDirIterState>::retain",
   "linker_set_key" : "_ZN4llvm18IntrusiveRefCntPtrINS_3sys2fs6detail15RecDirIterStateEE6retainEv",
   "parameters" :
   [
    {
     "is_this_ptr" : true,
     "referenced_type" : "_ZTIPN4llvm18IntrusiveRefCntPtrINS_3sys2fs6detail15RecDirIterStateEEE"
    }
   ],
   "return_type" : "_ZTIv",
   "source_file" : "external/llvm/include/llvm/ADT/IntrusiveRefCntPtr.h"
  },
  {
   "access" : "private",
   "function_name" : "llvm::IntrusiveRefCntPtr<llvm::sys::fs::detail::RecDirIterState>::release",
   "linker_set_key" : "_ZN4llvm18IntrusiveRefCntPtrINS_3sys2fs6detail15RecDirIterStateEE7releaseEv",
   "parameters" :
   [
    {
     "is_this_ptr" : true,
     "referenced_type" : "_ZTIPN4llvm18IntrusiveRefCntPtrINS_3sys2fs6detail15RecDirIterStateEEE"
    }
   ],
   "return_type" : "_ZTIv",
   "source_file" : "external/llvm/include/llvm/ADT/IntrusiveRefCntPtr.h"
  },
  {
   "function_name" : "llvm::IntrusiveRefCntPtr<llvm::sys::fs::detail::RecDirIterState>::IntrusiveRefCntPtr",
   "linker_set_key" : "_ZN4llvm18IntrusiveRefCntPtrINS_3sys2fs6detail15RecDirIterStateEEC1EPS4_",
   "parameters" :
   [
    {
     "is_this_ptr" : true,
     "referenced_type" : "_ZTIPN4llvm18IntrusiveRefCntPtrINS_3sys2fs6detail15RecDirIterStateEEE"
    },
    {
     "referenced_type" : "_ZTIPN4llvm3sys2fs6detail15RecDirIterStateE"
    }
   ],
   "return_type" : "_ZTIv",
   "source_file" : "external/llvm/include/llvm/ADT/IntrusiveRefCntPtr.h"
  },
  {
   "function_name" : "llvm::IntrusiveRefCntPtr<llvm::sys::fs::detail::RecDirIterState>::IntrusiveRefCntPtr",
   "linker_set_key" : "_ZN4llvm18IntrusiveRefCntPtrINS_3sys2fs6detail15RecDirIterStateEEC1Ev",
   "parameters" :
   [
    {
     "is_this_ptr" : true,
     "referenced_type" : "_ZTIPN4llvm18IntrusiveRefCntPtrINS_3sys2fs6detail15RecDirIterStateEEE"
    }
   ],
   "return_type" : "_ZTIv",
   "source_file" : "external/llvm/include/llvm/ADT/IntrusiveRefCntPtr.h"
  },
  {
   "function_name" : "llvm::IntrusiveRefCntPtr<llvm::sys::fs::detail::RecDirIterState>::IntrusiveRefCntPtr",
   "linker_set_key" : "_ZN4llvm18IntrusiveRefCntPtrINS_3sys2fs6detail15RecDirIterStateEEC2EPS4_",
   "parameters" :
   [
    {
     "is_this_ptr" : true,
     "referenced_type" : "_ZTIPN4llvm18IntrusiveRefCntPtrINS_3sys2fs6detail15RecDirIterStateEEE"
    },
    {
     "referenced_type" : "_ZTIPN4llvm3sys2fs6detail15RecDirIterStateE"
    }
   ],
   "return_type" : "_ZTIv",
   "source_file" : "external/llvm/include/llvm/ADT/IntrusiveRefCntPtr.h"
  },
  {
   "function_name" : "llvm::IntrusiveRefCntPtr<llvm::sys::fs::detail::RecDirIterState>::IntrusiveRefCntPtr",
   "linker_set_key" : "_ZN4llvm18IntrusiveRefCntPtrINS_3sys2fs6detail15RecDirIterStateEEC2Ev",
   "parameters" :
   [
    {
     "is_this_ptr" : true,
     "referenced_type" : "_ZTIPN4llvm18IntrusiveRefCntPtrINS_3sys2fs6detail15RecDirIterStateEEE"
    }
   ],
   "return_type" : "_ZTIv",
   "source_file" : "external/llvm/include/llvm/ADT/IntrusiveRefCntPtr.h"
  },
  {
   "function_name" : "llvm::IntrusiveRefCntPtr<llvm::sys::fs::detail::RecDirIterState>::~IntrusiveRefCntPtr",
   "linker_set_key" : "_ZN4llvm18IntrusiveRefCntPtrINS_3sys2fs6detail15RecDirIterStateEED1Ev",
   "parameters" :
   [
    {
     "is_this_ptr" : true,
     "referenced_type" : "_ZTIPN4llvm18IntrusiveRefCntPtrINS_3sys2fs6detail15RecDirIterStateEEE"
    }
   ],
   "return_type" : "_ZTIv",
   "source_file" : "external/llvm/include/llvm/ADT/IntrusiveRefCntPtr.h"
  },
  {
   "function_name" : "llvm::IntrusiveRefCntPtr<llvm::sys::fs::detail::RecDirIterState>::~IntrusiveRefCntPtr",
   "linker_set_key" : "_ZN4llvm18IntrusiveRefCntPtrINS_3sys2fs6detail15RecDirIterStateEED2Ev",
   "parameters" :
   [
    {
     "is_this_ptr" : true,
     "referenced_type" : "_ZTIPN4llvm18IntrusiveRefCntPtrINS_3sys2fs6detail15RecDirIterStateEEE"
    }
   ],
   "return_type" : "_ZTIv",
   "source_file" : "external/llvm/include/llvm/ADT/IntrusiveRefCntPtr.h"
  },
  {
   "access" : "protected",
   "function_name" : "llvm::RefCountedBaseVPTR::RefCountedBaseVPTR",
   "linker_set_key" : "_ZN4llvm18RefCountedBaseVPTRC1ERKS0_",
   "parameters" :
   [
    {
     "is_this_ptr" : true,
     "referenced_type" : "_ZTIPN4llvm18RefCountedBaseVPTRE"
    },
    {
     "referenced_type" : "_ZTIRKN4llvm18RefCountedBaseVPTRE"
    }
   ],
   "return_type" : "_ZTIv",
   "source_file" : "external/llvm/include/llvm/ADT/IntrusiveRefCntPtr.h"
  },
  {
   "access" : "protected",
   "function_name" : "llvm::RefCountedBaseVPTR::RefCountedBaseVPTR",
   "linker_set_key" : "_ZN4llvm18RefCountedBaseVPTRC1Ev",
   "parameters" :
   [
    {
     "is_this_ptr" : true,
     "referenced_type" : "_ZTIPN4llvm18RefCountedBaseVPTRE"
    }
   ],
   "return_type" : "_ZTIv",
   "source_file" : "external/llvm/include/llvm/ADT/IntrusiveRefCntPtr.h"
  },
  {
   "access" : "protected",
   "function_name" : "llvm::RefCountedBaseVPTR::RefCountedBaseVPTR",
   "linker_set_key" : "_ZN4llvm18RefCountedBaseVPTRC2ERKS0_",
   "parameters" :
   [
    {
     "is_this_ptr" : true,
     "referenced_type" : "_ZTIPN4llvm18RefCountedBaseVPTRE"
    },
    {
     "referenced_type" : "_ZTIRKN4llvm18RefCountedBaseVPTRE"
    }
   ],
   "return_type" : "_ZTIv",
   "source_file" : "external/llvm/include/llvm/ADT/IntrusiveRefCntPtr.h"
  },
  {
   "access" : "protected",
   "function_name" : "llvm::RefCountedBaseVPTR::RefCountedBaseVPTR",
   "linker_set_key" : "_ZN4llvm18RefCountedBaseVPTRC2Ev",
   "parameters" :
   [
    {
     "is_this_ptr" : true,
     "referenced_type" : "_ZTIPN4llvm18RefCountedBaseVPTRE"
    }
   ],
   "return_type" : "_ZTIv",
   "source_file" : "external/llvm/include/llvm/ADT/IntrusiveRefCntPtr.h"
  },
  {
   "access" : "protected",
   "function_name" : "llvm::RefCountedBaseVPTR::~RefCountedBaseVPTR",
   "linker_set_key" : "_ZN4llvm18RefCountedBaseVPTRD0Ev",
   "parameters" :
   [
    {
     "is_this_ptr" : true,
     "referenced_type" : "_ZTIPN4llvm18RefCountedBaseVPTRE"
    }
   ],
   "return_type" : "_ZTIv",
   "source_file" : "external/llvm/include/llvm/ADT/IntrusiveRefCntPtr.h"
  },
  {
   "access" : "protected",
   "function_name" : "llvm::RefCountedBaseVPTR::~RefCountedBaseVPTR",
   "linker_set_key" : "_ZN4llvm18RefCountedBaseVPTRD1Ev",
   "parameters" :
   [
    {
     "is_this_ptr" : true,
     "referenced_type" : "_ZTIPN4llvm18RefCountedBaseVPTRE"
    }
   ],
   "return_type" : "_ZTIv",
   "source_file" : "external/llvm/include/llvm/ADT/IntrusiveRefCntPtr.h"
  },
  {
   "access" : "protected",
   "function_name" : "llvm::RefCountedBaseVPTR::~RefCountedBaseVPTR",
   "linker_set_key" : "_ZN4llvm18RefCountedBaseVPTRD2Ev",
   "parameters" :
   [
    {
     "is_this_ptr" : true,
     "referenced_type" : "_ZTIPN4llvm18RefCountedBaseVPTRE"
    }
   ],
   "return_type" : "_ZTIv",
   "source_file" : "external/llvm/include/llvm/ADT/IntrusiveRefCntPtr.h"
  },
  {
   "function_name" : "llvm::StringMapEntryBase::StringMapEntryBase",
   "linker_set_key" : "_ZN4llvm18StringMapEntryBaseC1Ej",
   "parameters" :
   [
    {
     "is_this_ptr" : true,
     "referenced_type" : "_ZTIPN4llvm18StringMapEntryBaseE"
    },
    {
     "referenced_type" : "_ZTIj"
    }
   ],
   "return_type" : "_ZTIv",
   "source_file" : "external/llvm/include/llvm/ADT/StringMap.h"
  },
  {
   "function_name" : "llvm::StringMapEntryBase::StringMapEntryBase",
   "linker_set_key" : "_ZN4llvm18StringMapEntryBaseC2Ej",
   "parameters" :
   [
    {
     "is_this_ptr" : true,
     "referenced_type" : "_ZTIPN4llvm18StringMapEntryBaseE"
    },
    {
     "referenced_type" : "_ZTIj"
    }
   ],
   "return_type" : "_ZTIv",
   "source_file" : "external/llvm/include/llvm/ADT/StringMap.h"
  },
  {
   "function_name" : "llvm::format_object_base::format_object_base",
   "linker_set_key" : "_ZN4llvm18format_object_baseC2EPKc",
   "parameters" :
   [
    {
     "is_this_ptr" : true,
     "referenced_type" : "_ZTIPN4llvm18format_object_baseE"
    },
    {
     "referenced_type" : "_ZTIPKc"
    }
   ],
   "return_type" : "_ZTIv",
   "source_file" : "external/llvm/include/llvm/Support/Format.h"
  },
  {
   "access" : "protected",
   "function_name" : "llvm::format_object_base::format_object_base",
   "linker_set_key" : "_ZN4llvm18format_object_baseC2ERKS0_",
   "parameters" :
   [
    {
     "is_this_ptr" : true,
     "referenced_type" : "_ZTIPN4llvm18format_object_baseE"
    },
    {
     "referenced_type" : "_ZTIRKN4llvm18format_object_baseE"
    }
   ],
   "return_type" : "_ZTIv",
   "source_file" : "external/llvm/include/llvm/Support/Format.h"
  },
  {
   "access" : "protected",
   "function_name" : "llvm::format_object_base::~format_object_base",
   "linker_set_key" : "_ZN4llvm18format_object_baseD1Ev",
   "parameters" :
   [
    {
     "is_this_ptr" : true,
     "referenced_type" : "_ZTIPN4llvm18format_object_baseE"
    }
   ],
   "return_type" : "_ZTIv",
   "source_file" : "external/llvm/include/llvm/Support/Format.h"
  },
  {
   "access" : "protected",
   "function_name" : "llvm::format_object_base::~format_object_base",
   "linker_set_key" : "_ZN4llvm18format_object_baseD2Ev",
   "parameters" :
   [
    {
     "is_this_ptr" : true,
     "referenced_type" : "_ZTIPN4llvm18format_object_baseE"
    }
   ],
   "return_type" : "_ZTIv",
   "source_file" : "external/llvm/include/llvm/Support/Format.h"
  },
  {
   "function_name" : "llvm::raw_string_ostream::str",
   "linker_set_key" : "_ZN4llvm18raw_string_ostream3strEv",
   "parameters" :
   [
    {
     "is_this_ptr" : true,
     "referenced_type" : "_ZTIPN4llvm18raw_string_ostreamE"
    }
   ],
   "return_type" : "_ZTIRNSt3__112basic_stringIcNS_11char_traitsIcEENS_9allocatorIcEEEE",
   "source_file" : "external/llvm/include/llvm/Support/raw_ostream.h"
  },
  {
   "function_name" : "llvm::raw_string_ostream::raw_string_ostream",
   "linker_set_key" : "_ZN4llvm18raw_string_ostreamC1ERNSt3__112basic_stringIcNS1_11char_traitsIcEENS1_9allocatorIcEEEE",
   "parameters" :
   [
    {
     "is_this_ptr" : true,
     "referenced_type" : "_ZTIPN4llvm18raw_string_ostreamE"
    },
    {
     "referenced_type" : "_ZTIRNSt3__112basic_stringIcNS_11char_traitsIcEENS_9allocatorIcEEEE"
    }
   ],
   "return_type" : "_ZTIv",
   "source_file" : "external/llvm/include/llvm/Support/raw_ostream.h"
  },
  {
   "function_name" : "llvm::raw_string_ostream::raw_string_ostream",
   "linker_set_key" : "_ZN4llvm18raw_string_ostreamC2ERNSt3__112basic_stringIcNS1_11char_traitsIcEENS1_9allocatorIcEEEE",
   "parameters" :
   [
    {
     "is_this_ptr" : true,
     "referenced_type" : "_ZTIPN4llvm18raw_string_ostreamE"
    },
    {
     "referenced_type" : "_ZTIRNSt3__112basic_stringIcNS_11char_traitsIcEENS_9allocatorIcEEEE"
    }
   ],
   "return_type" : "_ZTIv",
   "source_file" : "external/llvm/include/llvm/Support/raw_ostream.h"
  },
  {
   "function_name" : "llvm::alignmentAdjustment",
   "linker_set_key" : "_ZN4llvm19alignmentAdjustmentEPKvm",
   "parameters" :
   [
    {
     "referenced_type" : "_ZTIPKv"
    },
    {
     "referenced_type" : "_ZTIm"
    }
   ],
   "return_type" : "_ZTIm",
   "source_file" : "external/llvm/include/llvm/Support/MathExtras.h"
  },
  {
   "function_name" : "llvm::raw_svector_ostream::str",
   "linker_set_key" : "_ZN4llvm19raw_svector_ostream3strEv",
   "parameters" :
   [
    {
     "is_this_ptr" : true,
     "referenced_type" : "_ZTIPN4llvm19raw_svector_ostreamE"
    }
   ],
   "return_type" : "_ZTIN4llvm9StringRefE",
   "source_file" : "external/llvm/include/llvm/Support/raw_ostream.h"
  },
  {
   "function_name" : "llvm::raw_svector_ostream::raw_svector_ostream",
   "linker_set_key" : "_ZN4llvm19raw_svector_ostreamC1ERNS_15SmallVectorImplIcEE",
   "parameters" :
   [
    {
     "is_this_ptr" : true,
     "referenced_type" : "_ZTIPN4llvm19raw_svector_ostreamE"
    },
    {
     "referenced_type" : "_ZTIRN4llvm15SmallVectorImplIcEE"
    }
   ],
   "return_type" : "_ZTIv",
   "source_file" : "external/llvm/include/llvm/Support/raw_ostream.h"
  },
  {
   "function_name" : "llvm::raw_svector_ostream::raw_svector_ostream",
   "linker_set_key" : "_ZN4llvm19raw_svector_ostreamC2ERNS_15SmallVectorImplIcEE",
   "parameters" :
   [
    {
     "is_this_ptr" : true,
     "referenced_type" : "_ZTIPN4llvm19raw_svector_ostreamE"
    },
    {
     "referenced_type" : "_ZTIRN4llvm15SmallVectorImplIcEE"
    }
   ],
   "return_type" : "_ZTIv",
   "source_file" : "external/llvm/include/llvm/Support/raw_ostream.h"
  },
  {
   "function_name" : "llvm::raw_svector_ostream::~raw_svector_ostream",
   "linker_set_key" : "_ZN4llvm19raw_svector_ostreamD0Ev",
   "parameters" :
   [
    {
     "is_this_ptr" : true,
     "referenced_type" : "_ZTIPN4llvm19raw_svector_ostreamE"
    }
   ],
   "return_type" : "_ZTIv",
   "source_file" : "external/llvm/include/llvm/Support/raw_ostream.h"
  },
  {
   "function_name" : "llvm::raw_svector_ostream::~raw_svector_ostream",
   "linker_set_key" : "_ZN4llvm19raw_svector_ostreamD1Ev",
   "parameters" :
   [
    {
     "is_this_ptr" : true,
     "referenced_type" : "_ZTIPN4llvm19raw_svector_ostreamE"
    }
   ],
   "return_type" : "_ZTIv",
   "source_file" : "external/llvm/include/llvm/Support/raw_ostream.h"
  },
  {
   "function_name" : "llvm::raw_svector_ostream::~raw_svector_ostream",
   "linker_set_key" : "_ZN4llvm19raw_svector_ostreamD2Ev",
   "parameters" :
   [
    {
     "is_this_ptr" : true,
     "referenced_type" : "_ZTIPN4llvm19raw_svector_ostreamE"
    }
   ],
   "return_type" : "_ZTIv",
   "source_file" : "external/llvm/include/llvm/Support/raw_ostream.h"
  },
  {
   "function_name" : "llvm::format_hex_no_prefix",
   "linker_set_key" : "_ZN4llvm20format_hex_no_prefixEmjb",
   "parameters" :
   [
    {
     "referenced_type" : "_ZTIm"
    },
    {
     "referenced_type" : "_ZTIj"
    },
    {
     "default_arg" : true,
     "referenced_type" : "_ZTIb"
    }
   ],
   "return_type" : "_ZTIN4llvm15FormattedNumberE",
   "source_file" : "external/llvm/include/llvm/Support/Format.h"
  },
  {
   "function_name" : "llvm::PointerLikeTypeTraits<void *>::getAsVoidPointer",
   "linker_set_key" : "_ZN4llvm21PointerLikeTypeTraitsIPvE16getAsVoidPointerES1_",
   "parameters" :
   [
    {
     "referenced_type" : "_ZTIPv"
    }
   ],
   "return_type" : "_ZTIPv",
   "source_file" : "external/llvm/include/llvm/Support/PointerLikeTypeTraits.h"
  },
  {
   "function_name" : "llvm::PointerLikeTypeTraits<void *>::getFromVoidPointer",
   "linker_set_key" : "_ZN4llvm21PointerLikeTypeTraitsIPvE18getFromVoidPointerES1_",
   "parameters" :
   [
    {
     "referenced_type" : "_ZTIPv"
    }
   ],
   "return_type" : "_ZTIPv",
   "source_file" : "external/llvm/include/llvm/Support/PointerLikeTypeTraits.h"
  },
  {
   "function_name" : "llvm::PointerLikeTypeTraits<unsigned long>::getAsVoidPointer",
   "linker_set_key" : "_ZN4llvm21PointerLikeTypeTraitsImE16getAsVoidPointerEm",
   "parameters" :
   [
    {
     "referenced_type" : "_ZTIm"
    }
   ],
   "return_type" : "_ZTIPv",
   "source_file" : "external/llvm/include/llvm/Support/PointerLikeTypeTraits.h"
  },
  {
   "function_name" : "llvm::PointerLikeTypeTraits<unsigned long>::getFromVoidPointer",
   "linker_set_key" : "_ZN4llvm21PointerLikeTypeTraitsImE18getFromVoidPointerEPv",
   "parameters" :
   [
    {
     "referenced_type" : "_ZTIPv"
    }
   ],
   "return_type" : "_ZTIm",
   "source_file" : "external/llvm/include/llvm/Support/PointerLikeTypeTraits.h"
  },
  {
   "access" : "protected",
   "function_name" : "llvm::iterator_adaptor_base<llvm::pointee_iterator<const std::__1::unique_ptr<llvm::GCOVBlock, std::__1::default_delete<llvm::GCOVBlock>> *, llvm::GCOVBlock>, const std::__1::unique_ptr<llvm::GCOVBlock, std::__1::default_delete<llvm::GCOVBlock>> *, std::__1::random_access_iterator_tag, llvm::GCOVBlock, long, llvm::GCOVBlock *, llvm::GCOVBlock &, std::__1::iterator_traits<const std::__1::unique_ptr<llvm::GCOVBlock, std::__1::default_delete<llvm::GCOVBlock>> *>>::iterator_adaptor_base",
   "linker_set_key" : "_ZN4llvm21iterator_adaptor_baseINS_16pointee_iteratorIPKNSt3__110unique_ptrINS_9GCOVBlockENS2_14default_deleteIS4_EEEES4_EES9_NS2_26random_access_iterator_tagES4_lPS4_RS4_NS2_15iterator_traitsIS9_EEEC1Ev",
   "parameters" :
   [
    {
     "is_this_ptr" : true,
     "referenced_type" : "_ZTIPN4llvm21iterator_adaptor_baseINS_16pointee_iteratorIPKNSt3__110unique_ptrINS_9GCOVBlockENS2_14default_deleteIS4_EEEES4_EES9_NS2_26random_access_iterator_tagES4_lPS4_RS4_NS2_15iterator_traitsIS9_EEEE"
    }
   ],
   "return_type" : "_ZTIv",
   "source_file" : "external/llvm/include/llvm/ADT/iterator.h"
  },
  {
   "access" : "protected",
   "function_name" : "llvm::iterator_adaptor_base<llvm::pointee_iterator<const std::__1::unique_ptr<llvm::GCOVBlock, std::__1::default_delete<llvm::GCOVBlock>> *, llvm::GCOVBlock>, const std::__1::unique_ptr<llvm::GCOVBlock, std::__1::default_delete<llvm::GCOVBlock>> *, std::__1::random_access_iterator_tag, llvm::GCOVBlock, long, llvm::GCOVBlock *, llvm::GCOVBlock &, std::__1::iterator_traits<const std::__1::unique_ptr<llvm::GCOVBlock, std::__1::default_delete<llvm::GCOVBlock>> *>>::iterator_adaptor_base",
   "linker_set_key" : "_ZN4llvm21iterator_adaptor_baseINS_16pointee_iteratorIPKNSt3__110unique_ptrINS_9GCOVBlockENS2_14default_deleteIS4_EEEES4_EES9_NS2_26random_access_iterator_tagES4_lPS4_RS4_NS2_15iterator_traitsIS9_EEEC1IS9_EEOT_NS2_9enable_ifIXntsr3std10is_base_ofINS2_9remove_cvINS2_16remove_referenceISI_E4typeEE4typeESA_EE5valueEiE4typeE",
   "parameters" :
   [
    {
     "is_this_ptr" : true,
     "referenced_type" : "_ZTIPN4llvm21iterator_adaptor_baseINS_16pointee_iteratorIPKNSt3__110unique_ptrINS_9GCOVBlockENS2_14default_deleteIS4_EEEES4_EES9_NS2_26random_access_iterator_tagES4_lPS4_RS4_NS2_15iterator_traitsIS9_EEEE"
    },
    {
     "referenced_type" : "_ZTIOPKNSt3__110unique_ptrIN4llvm9GCOVBlockENS_14default_deleteIS2_EEEE"
    },
    {
     "default_arg" : true,
     "referenced_type" : "_ZTIi"
    }
   ],
   "return_type" : "_ZTIv",
   "source_file" : "external/llvm/include/llvm/ADT/iterator.h",
   "template_args" :
   [
    "_ZTIPKNSt3__110unique_ptrIN4llvm9GCOVBlockENS_14default_deleteIS2_EEEE"
   ]
  },
  {
   "access" : "protected",
   "function_name" : "llvm::iterator_adaptor_base<llvm::pointee_iterator<const std::__1::unique_ptr<llvm::GCOVBlock, std::__1::default_delete<llvm::GCOVBlock>> *, llvm::GCOVBlock>, const std::__1::unique_ptr<llvm::GCOVBlock, std::__1::default_delete<llvm::GCOVBlock>> *, std::__1::random_access_iterator_tag, llvm::GCOVBlock, long, llvm::GCOVBlock *, llvm::GCOVBlock &, std::__1::iterator_traits<const std::__1::unique_ptr<llvm::GCOVBlock, std::__1::default_delete<llvm::GCOVBlock>> *>>::iterator_adaptor_base",
   "linker_set_key" : "_ZN4llvm21iterator_adaptor_baseINS_16pointee_iteratorIPKNSt3__110unique_ptrINS_9GCOVBlockENS2_14default_deleteIS4_EEEES4_EES9_NS2_26random_access_iterator_tagES4_lPS4_RS4_NS2_15iterator_traitsIS9_EEEC2Ev",
   "parameters" :
   [
    {
     "is_this_ptr" : true,
     "referenced_type" : "_ZTIPN4llvm21iterator_adaptor_baseINS_16pointee_iteratorIPKNSt3__110unique_ptrINS_9GCOVBlockENS2_14default_deleteIS4_EEEES4_EES9_NS2_26random_access_iterator_tagES4_lPS4_RS4_NS2_15iterator_traitsIS9_EEEE"
    }
   ],
   "return_type" : "_ZTIv",
   "source_file" : "external/llvm/include/llvm/ADT/iterator.h"
  },
  {
   "access" : "protected",
   "function_name" : "llvm::iterator_adaptor_base<llvm::pointee_iterator<const std::__1::unique_ptr<llvm::GCOVBlock, std::__1::default_delete<llvm::GCOVBlock>> *, llvm::GCOVBlock>, const std::__1::unique_ptr<llvm::GCOVBlock, std::__1::default_delete<llvm::GCOVBlock>> *, std::__1::random_access_iterator_tag, llvm::GCOVBlock, long, llvm::GCOVBlock *, llvm::GCOVBlock &, std::__1::iterator_traits<const std::__1::unique_ptr<llvm::GCOVBlock, std::__1::default_delete<llvm::GCOVBlock>> *>>::iterator_adaptor_base",
   "linker_set_key" : "_ZN4llvm21iterator_adaptor_baseINS_16pointee_iteratorIPKNSt3__110unique_ptrINS_9GCOVBlockENS2_14default_deleteIS4_EEEES4_EES9_NS2_26random_access_iterator_tagES4_lPS4_RS4_NS2_15iterator_traitsIS9_EEEC2IS9_EEOT_NS2_9enable_ifIXntsr3std10is_base_ofINS2_9remove_cvINS2_16remove_referenceISI_E4typeEE4typeESA_EE5valueEiE4typeE",
   "parameters" :
   [
    {
     "is_this_ptr" : true,
     "referenced_type" : "_ZTIPN4llvm21iterator_adaptor_baseINS_16pointee_iteratorIPKNSt3__110unique_ptrINS_9GCOVBlockENS2_14default_deleteIS4_EEEES4_EES9_NS2_26random_access_iterator_tagES4_lPS4_RS4_NS2_15iterator_traitsIS9_EEEE"
    },
    {
     "referenced_type" : "_ZTIOPKNSt3__110unique_ptrIN4llvm9GCOVBlockENS_14default_deleteIS2_EEEE"
    },
    {
     "default_arg" : true,
     "referenced_type" : "_ZTIi"
    }
   ],
   "return_type" : "_ZTIv",
   "source_file" : "external/llvm/include/llvm/ADT/iterator.h",
   "template_args" :
   [
    "_ZTIPKNSt3__110unique_ptrIN4llvm9GCOVBlockENS_14default_deleteIS2_EEEE"
   ]
  },
  {
   "function_name" : "llvm::iterator_adaptor_base<llvm::pointee_iterator<const std::__1::unique_ptr<llvm::GCOVBlock, std::__1::default_delete<llvm::GCOVBlock>> *, llvm::GCOVBlock>, const std::__1::unique_ptr<llvm::GCOVBlock, std::__1::default_delete<llvm::GCOVBlock>> *, std::__1::random_access_iterator_tag, llvm::GCOVBlock, long, llvm::GCOVBlock *, llvm::GCOVBlock &, std::__1::iterator_traits<const std::__1::unique_ptr<llvm::GCOVBlock, std::__1::default_delete<llvm::GCOVBlock>> *>>::operator++",
   "linker_set_key" : "_ZN4llvm21iterator_adaptor_baseINS_16pointee_iteratorIPKNSt3__110unique_ptrINS_9GCOVBlockENS2_14default_deleteIS4_EEEES4_EES9_NS2_26random_access_iterator_tagES4_lPS4_RS4_NS2_15iterator_traitsIS9_EEEppEv",
   "parameters" :
   [
    {
     "is_this_ptr" : true,
     "referenced_type" : "_ZTIPN4llvm21iterator_adaptor_baseINS_16pointee_iteratorIPKNSt3__110unique_ptrINS_9GCOVBlockENS2_14default_deleteIS4_EEEES4_EES9_NS2_26random_access_iterator_tagES4_lPS4_RS4_NS2_15iterator_traitsIS9_EEEE"
    }
   ],
   "return_type" : "_ZTIRN4llvm16pointee_iteratorIPKNSt3__110unique_ptrINS_9GCOVBlockENS1_14default_deleteIS3_EEEES3_EE",
   "source_file" : "external/llvm/include/llvm/ADT/iterator.h"
  },
  {
   "function_name" : "llvm::IntrusiveRefCntPtrInfo<llvm::sys::fs::detail::DirIterState>::retain",
   "linker_set_key" : "_ZN4llvm22IntrusiveRefCntPtrInfoINS_3sys2fs6detail12DirIterStateEE6retainEPS4_",
   "parameters" :
   [
    {
     "referenced_type" : "_ZTIPN4llvm3sys2fs6detail12DirIterStateE"
    }
   ],
   "return_type" : "_ZTIv",
   "source_file" : "external/llvm/include/llvm/ADT/IntrusiveRefCntPtr.h"
  },
  {
   "function_name" : "llvm::IntrusiveRefCntPtrInfo<llvm::sys::fs::detail::DirIterState>::release",
   "linker_set_key" : "_ZN4llvm22IntrusiveRefCntPtrInfoINS_3sys2fs6detail12DirIterStateEE7releaseEPS4_",
   "parameters" :
   [
    {
     "referenced_type" : "_ZTIPN4llvm3sys2fs6detail12DirIterStateE"
    }
   ],
   "return_type" : "_ZTIv",
   "source_file" : "external/llvm/include/llvm/ADT/IntrusiveRefCntPtr.h"
  },
  {
   "function_name" : "llvm::IntrusiveRefCntPtrInfo<llvm::sys::fs::detail::RecDirIterState>::retain",
   "linker_set_key" : "_ZN4llvm22IntrusiveRefCntPtrInfoINS_3sys2fs6detail15RecDirIterStateEE6retainEPS4_",
   "parameters" :
   [
    {
     "referenced_type" : "_ZTIPN4llvm3sys2fs6detail15RecDirIterStateE"
    }
   ],
   "return_type" : "_ZTIv",
   "source_file" : "external/llvm/include/llvm/ADT/IntrusiveRefCntPtr.h"
  },
  {
   "function_name" : "llvm::IntrusiveRefCntPtrInfo<llvm::sys::fs::detail::RecDirIterState>::release",
   "linker_set_key" : "_ZN4llvm22IntrusiveRefCntPtrInfoINS_3sys2fs6detail15RecDirIterStateEE7releaseEPS4_",
   "parameters" :
   [
    {
     "referenced_type" : "_ZTIPN4llvm3sys2fs6detail15RecDirIterStateE"
    }
   ],
   "return_type" : "_ZTIv",
   "source_file" : "external/llvm/include/llvm/ADT/IntrusiveRefCntPtr.h"
  },
  {
   "access" : "private",
   "function_name" : "llvm::StringMapConstIterator<llvm::FileInfo::LineData>::AdvancePastEmptyBuckets",
   "linker_set_key" : "_ZN4llvm22StringMapConstIteratorINS_8FileInfo8LineDataEE23AdvancePastEmptyBucketsEv",
   "parameters" :
   [
    {
     "is_this_ptr" : true,
     "referenced_type" : "_ZTIPN4llvm22StringMapConstIteratorINS_8FileInfo8LineDataEEE"
    }
   ],
   "return_type" : "_ZTIv",
   "source_file" : "external/llvm/include/llvm/ADT/StringMap.h"
  },
  {
   "function_name" : "llvm::StringMapConstIterator<llvm::FileInfo::LineData>::StringMapConstIterator",
   "linker_set_key" : "_ZN4llvm22StringMapConstIteratorINS_8FileInfo8LineDataEEC1EPPNS_18StringMapEntryBaseEb",
   "parameters" :
   [
    {
     "is_this_ptr" : true,
     "referenced_type" : "_ZTIPN4llvm22StringMapConstIteratorINS_8FileInfo8LineDataEEE"
    },
    {
     "referenced_type" : "_ZTIPPN4llvm18StringMapEntryBaseE"
    },
    {
     "default_arg" : true,
     "referenced_type" : "_ZTIb"
    }
   ],
   "return_type" : "_ZTIv",
   "source_file" : "external/llvm/include/llvm/ADT/StringMap.h"
  },
  {
   "function_name" : "llvm::StringMapConstIterator<llvm::FileInfo::LineData>::StringMapConstIterator",
   "linker_set_key" : "_ZN4llvm22StringMapConstIteratorINS_8FileInfo8LineDataEEC2EPPNS_18StringMapEntryBaseEb",
   "parameters" :
   [
    {
     "is_this_ptr" : true,
     "referenced_type" : "_ZTIPN4llvm22StringMapConstIteratorINS_8FileInfo8LineDataEEE"
    },
    {
     "referenced_type" : "_ZTIPPN4llvm18StringMapEntryBaseE"
    },
    {
     "default_arg" : true,
     "referenced_type" : "_ZTIb"
    }
   ],
   "return_type" : "_ZTIv",
   "source_file" : "external/llvm/include/llvm/ADT/StringMap.h"
  },
  {
   "function_name" : "llvm::StringMapConstIterator<llvm::FileInfo::LineData>::operator++",
   "linker_set_key" : "_ZN4llvm22StringMapConstIteratorINS_8FileInfo8LineDataEEppEv",
   "parameters" :
   [
    {
     "is_this_ptr" : true,
     "referenced_type" : "_ZTIPN4llvm22StringMapConstIteratorINS_8FileInfo8LineDataEEE"
    }
   ],
   "return_type" : "_ZTIRN4llvm22StringMapConstIteratorINS_8FileInfo8LineDataEEE",
   "source_file" : "external/llvm/include/llvm/ADT/StringMap.h"
  },
  {
   "function_name" : "llvm::GreatestCommonDivisor64",
   "linker_set_key" : "_ZN4llvm23GreatestCommonDivisor64Emm",
   "parameters" :
   [
    {
     "referenced_type" : "_ZTIm"
    },
    {
     "referenced_type" : "_ZTIm"
    }
   ],
   "return_type" : "_ZTIm",
   "source_file" : "external/llvm/include/llvm/Support/MathExtras.h"
  },
  {
   "function_name" : "llvm::ScopedFatalErrorHandler::ScopedFatalErrorHandler",
   "linker_set_key" : "_ZN4llvm23ScopedFatalErrorHandlerC1EPFvPvRKNSt3__112basic_stringIcNS2_11char_traitsIcEENS2_9allocatorIcEEEEbES1_",
   "parameters" :
   [
    {
     "is_this_ptr" : true,
     "referenced_type" : "_ZTIPN4llvm23ScopedFatalErrorHandlerE"
    },
    {
     "referenced_type" : "_ZTIPFvPvRKNSt3__112basic_stringIcNS0_11char_traitsIcEENS0_9allocatorIcEEEEbE"
    },
    {
     "default_arg" : true,
     "referenced_type" : "_ZTIPv"
    }
   ],
   "return_type" : "_ZTIv",
   "source_file" : "external/llvm/include/llvm/Support/ErrorHandling.h"
  },
  {
   "function_name" : "llvm::ScopedFatalErrorHandler::ScopedFatalErrorHandler",
   "linker_set_key" : "_ZN4llvm23ScopedFatalErrorHandlerC2EPFvPvRKNSt3__112basic_stringIcNS2_11char_traitsIcEENS2_9allocatorIcEEEEbES1_",
   "parameters" :
   [
    {
     "is_this_ptr" : true,
     "referenced_type" : "_ZTIPN4llvm23ScopedFatalErrorHandlerE"
    },
    {
     "referenced_type" : "_ZTIPFvPvRKNSt3__112basic_stringIcNS0_11char_traitsIcEENS0_9allocatorIcEEEEbE"
    },
    {
     "default_arg" : true,
     "referenced_type" : "_ZTIPv"
    }
   ],
   "return_type" : "_ZTIv",
   "source_file" : "external/llvm/include/llvm/Support/ErrorHandling.h"
  },
  {
   "function_name" : "llvm::ScopedFatalErrorHandler::~ScopedFatalErrorHandler",
   "linker_set_key" : "_ZN4llvm23ScopedFatalErrorHandlerD1Ev",
   "parameters" :
   [
    {
     "is_this_ptr" : true,
     "referenced_type" : "_ZTIPN4llvm23ScopedFatalErrorHandlerE"
    }
   ],
   "return_type" : "_ZTIv",
   "source_file" : "external/llvm/include/llvm/Support/ErrorHandling.h"
  },
  {
   "function_name" : "llvm::ScopedFatalErrorHandler::~ScopedFatalErrorHandler",
   "linker_set_key" : "_ZN4llvm23ScopedFatalErrorHandlerD2Ev",
   "parameters" :
   [
    {
     "is_this_ptr" : true,
     "referenced_type" : "_ZTIPN4llvm23ScopedFatalErrorHandlerE"
    }
   ],
   "return_type" : "_ZTIv",
   "source_file" : "external/llvm/include/llvm/Support/ErrorHandling.h"
  },
  {
   "access" : "protected",
   "function_name" : "llvm::SmallVectorTemplateBase<std::__1::unique_ptr<llvm::GCOVFunction, std::__1::default_delete<llvm::GCOVFunction>>, false>::destroy_range",
   "linker_set_key" : "_ZN4llvm23SmallVectorTemplateBaseINSt3__110unique_ptrINS_12GCOVFunctionENS1_14default_deleteIS3_EEEELb0EE13destroy_rangeEPS6_S8_",
   "parameters" :
   [
    {
     "referenced_type" : "_ZTIPNSt3__110unique_ptrIN4llvm12GCOVFunctionENS_14default_deleteIS2_EEEE"
    },
    {
     "referenced_type" : "_ZTIPNSt3__110unique_ptrIN4llvm12GCOVFunctionENS_14default_deleteIS2_EEEE"
    }
   ],
   "return_type" : "_ZTIv",
   "source_file" : "external/llvm/include/llvm/ADT/SmallVector.h"
  },
  {
   "access" : "protected",
   "function_name" : "llvm::SmallVectorTemplateBase<std::__1::unique_ptr<llvm::GCOVFunction, std::__1::default_delete<llvm::GCOVFunction>>, false>::uninitialized_move",
   "linker_set_key" : "_ZN4llvm23SmallVectorTemplateBaseINSt3__110unique_ptrINS_12GCOVFunctionENS1_14default_deleteIS3_EEEELb0EE18uninitialized_moveIPS6_S9_EEvT_SA_T0_",
   "parameters" :
   [
    {
     "referenced_type" : "_ZTIPNSt3__110unique_ptrIN4llvm12GCOVFunctionENS_14default_deleteIS2_EEEE"
    },
    {
     "referenced_type" : "_ZTIPNSt3__110unique_ptrIN4llvm12GCOVFunctionENS_14default_deleteIS2_EEEE"
    },
    {
     "referenced_type" : "_ZTIPNSt3__110unique_ptrIN4llvm12GCOVFunctionENS_14default_deleteIS2_EEEE"
    }
   ],
   "return_type" : "_ZTIv",
   "source_file" : "external/llvm/include/llvm/ADT/SmallVector.h",
   "template_args" :
   [
    "_ZTIPNSt3__110unique_ptrIN4llvm12GCOVFunctionENS_14default_deleteIS2_EEEE",
    "_ZTIPNSt3__110unique_ptrIN4llvm12GCOVFunctionENS_14default_deleteIS2_EEEE"
   ]
  },
  {
   "access" : "protected",
   "function_name" : "llvm::SmallVectorTemplateBase<std::__1::unique_ptr<llvm::GCOVFunction, std::__1::default_delete<llvm::GCOVFunction>>, false>::grow",
   "linker_set_key" : "_ZN4llvm23SmallVectorTemplateBaseINSt3__110unique_ptrINS_12GCOVFunctionENS1_14default_deleteIS3_EEEELb0EE4growEm",
   "parameters" :
   [
    {
     "is_this_ptr" : true,
     "referenced_type" : "_ZTIPN4llvm23SmallVectorTemplateBaseINSt3__110unique_ptrINS_12GCOVFunctionENS1_14default_deleteIS3_EEEELb0EEE"
    },
    {
     "default_arg" : true,
     "referenced_type" : "_ZTIm"
    }
   ],
   "return_type" : "_ZTIv",
   "source_file" : "external/llvm/include/llvm/ADT/SmallVector.h"
  },
  {
   "function_name" : "llvm::SmallVectorTemplateBase<std::__1::unique_ptr<llvm::GCOVFunction, std::__1::default_delete<llvm::GCOVFunction>>, false>::push_back",
   "linker_set_key" : "_ZN4llvm23SmallVectorTemplateBaseINSt3__110unique_ptrINS_12GCOVFunctionENS1_14default_deleteIS3_EEEELb0EE9push_backEOS6_",
   "parameters" :
   [
    {
     "is_this_ptr" : true,
     "referenced_type" : "_ZTIPN4llvm23SmallVectorTemplateBaseINSt3__110unique_ptrINS_12GCOVFunctionENS1_14default_deleteIS3_EEEELb0EEE"
    },
    {
     "referenced_type" : "_ZTIONSt3__110unique_ptrIN4llvm12GCOVFunctionENS_14default_deleteIS2_EEEE"
    }
   ],
   "return_type" : "_ZTIv",
   "source_file" : "external/llvm/include/llvm/ADT/SmallVector.h"
  },
  {
   "access" : "protected",
   "function_name" : "llvm::SmallVectorTemplateBase<std::__1::unique_ptr<llvm::GCOVFunction, std::__1::default_delete<llvm::GCOVFunction>>, false>::SmallVectorTemplateBase",
   "linker_set_key" : "_ZN4llvm23SmallVectorTemplateBaseINSt3__110unique_ptrINS_12GCOVFunctionENS1_14default_deleteIS3_EEEELb0EEC1Em",
   "parameters" :
   [
    {
     "is_this_ptr" : true,
     "referenced_type" : "_ZTIPN4llvm23SmallVectorTemplateBaseINSt3__110unique_ptrINS_12GCOVFunctionENS1_14default_deleteIS3_EEEELb0EEE"
    },
    {
     "referenced_type" : "_ZTIm"
    }
   ],
   "return_type" : "_ZTIv",
   "source_file" : "external/llvm/include/llvm/ADT/SmallVector.h"
  },
  {
   "access" : "protected",
   "function_name" : "llvm::SmallVectorTemplateBase<std::__1::unique_ptr<llvm::GCOVFunction, std::__1::default_delete<llvm::GCOVFunction>>, false>::SmallVectorTemplateBase",
   "linker_set_key" : "_ZN4llvm23SmallVectorTemplateBaseINSt3__110unique_ptrINS_12GCOVFunctionENS1_14default_deleteIS3_EEEELb0EEC2Em",
   "parameters" :
   [
    {
     "is_this_ptr" : true,
     "referenced_type" : "_ZTIPN4llvm23SmallVectorTemplateBaseINSt3__110unique_ptrINS_12GCOVFunctionENS1_14default_deleteIS3_EEEELb0EEE"
    },
    {
     "referenced_type" : "_ZTIm"
    }
   ],
   "return_type" : "_ZTIv",
   "source_file" : "external/llvm/include/llvm/ADT/SmallVector.h"
  },
  {
   "access" : "protected",
   "function_name" : "llvm::SmallVectorTemplateBase<std::__1::unique_ptr<llvm::GCOVEdge, std::__1::default_delete<llvm::GCOVEdge>>, false>::destroy_range",
   "linker_set_key" : "_ZN4llvm23SmallVectorTemplateBaseINSt3__110unique_ptrINS_8GCOVEdgeENS1_14default_deleteIS3_EEEELb0EE13destroy_rangeEPS6_S8_",
   "parameters" :
   [
    {
     "referenced_type" : "_ZTIPNSt3__110unique_ptrIN4llvm8GCOVEdgeENS_14default_deleteIS2_EEEE"
    },
    {
     "referenced_type" : "_ZTIPNSt3__110unique_ptrIN4llvm8GCOVEdgeENS_14default_deleteIS2_EEEE"
    }
   ],
   "return_type" : "_ZTIv",
   "source_file" : "external/llvm/include/llvm/ADT/SmallVector.h"
  },
  {
   "access" : "protected",
   "function_name" : "llvm::SmallVectorTemplateBase<std::__1::unique_ptr<llvm::GCOVEdge, std::__1::default_delete<llvm::GCOVEdge>>, false>::uninitialized_move",
   "linker_set_key" : "_ZN4llvm23SmallVectorTemplateBaseINSt3__110unique_ptrINS_8GCOVEdgeENS1_14default_deleteIS3_EEEELb0EE18uninitialized_moveIPS6_S9_EEvT_SA_T0_",
   "parameters" :
   [
    {
     "referenced_type" : "_ZTIPNSt3__110unique_ptrIN4llvm8GCOVEdgeENS_14default_deleteIS2_EEEE"
    },
    {
     "referenced_type" : "_ZTIPNSt3__110unique_ptrIN4llvm8GCOVEdgeENS_14default_deleteIS2_EEEE"
    },
    {
     "referenced_type" : "_ZTIPNSt3__110unique_ptrIN4llvm8GCOVEdgeENS_14default_deleteIS2_EEEE"
    }
   ],
   "return_type" : "_ZTIv",
   "source_file" : "external/llvm/include/llvm/ADT/SmallVector.h",
   "template_args" :
   [
    "_ZTIPNSt3__110unique_ptrIN4llvm8GCOVEdgeENS_14default_deleteIS2_EEEE",
    "_ZTIPNSt3__110unique_ptrIN4llvm8GCOVEdgeENS_14default_deleteIS2_EEEE"
   ]
  },
  {
   "access" : "protected",
   "function_name" : "llvm::SmallVectorTemplateBase<std::__1::unique_ptr<llvm::GCOVEdge, std::__1::default_delete<llvm::GCOVEdge>>, false>::grow",
   "linker_set_key" : "_ZN4llvm23SmallVectorTemplateBaseINSt3__110unique_ptrINS_8GCOVEdgeENS1_14default_deleteIS3_EEEELb0EE4growEm",
   "parameters" :
   [
    {
     "is_this_ptr" : true,
     "referenced_type" : "_ZTIPN4llvm23SmallVectorTemplateBaseINSt3__110unique_ptrINS_8GCOVEdgeENS1_14default_deleteIS3_EEEELb0EEE"
    },
    {
     "default_arg" : true,
     "referenced_type" : "_ZTIm"
    }
   ],
   "return_type" : "_ZTIv",
   "source_file" : "external/llvm/include/llvm/ADT/SmallVector.h"
  },
  {
   "function_name" : "llvm::SmallVectorTemplateBase<std::__1::unique_ptr<llvm::GCOVEdge, std::__1::default_delete<llvm::GCOVEdge>>, false>::push_back",
   "linker_set_key" : "_ZN4llvm23SmallVectorTemplateBaseINSt3__110unique_ptrINS_8GCOVEdgeENS1_14default_deleteIS3_EEEELb0EE9push_backEOS6_",
   "parameters" :
   [
    {
     "is_this_ptr" : true,
     "referenced_type" : "_ZTIPN4llvm23SmallVectorTemplateBaseINSt3__110unique_ptrINS_8GCOVEdgeENS1_14default_deleteIS3_EEEELb0EEE"
    },
    {
     "referenced_type" : "_ZTIONSt3__110unique_ptrIN4llvm8GCOVEdgeENS_14default_deleteIS2_EEEE"
    }
   ],
   "return_type" : "_ZTIv",
   "source_file" : "external/llvm/include/llvm/ADT/SmallVector.h"
  },
  {
   "access" : "protected",
   "function_name" : "llvm::SmallVectorTemplateBase<std::__1::unique_ptr<llvm::GCOVEdge, std::__1::default_delete<llvm::GCOVEdge>>, false>::SmallVectorTemplateBase",
   "linker_set_key" : "_ZN4llvm23SmallVectorTemplateBaseINSt3__110unique_ptrINS_8GCOVEdgeENS1_14default_deleteIS3_EEEELb0EEC1Em",
   "parameters" :
   [
    {
     "is_this_ptr" : true,
     "referenced_type" : "_ZTIPN4llvm23SmallVectorTemplateBaseINSt3__110unique_ptrINS_8GCOVEdgeENS1_14default_deleteIS3_EEEELb0EEE"
    },
    {
     "referenced_type" : "_ZTIm"
    }
   ],
   "return_type" : "_ZTIv",
   "source_file" : "external/llvm/include/llvm/ADT/SmallVector.h"
  },
  {
   "access" : "protected",
   "function_name" : "llvm::SmallVectorTemplateBase<std::__1::unique_ptr<llvm::GCOVEdge, std::__1::default_delete<llvm::GCOVEdge>>, false>::SmallVectorTemplateBase",
   "linker_set_key" : "_ZN4llvm23SmallVectorTemplateBaseINSt3__110unique_ptrINS_8GCOVEdgeENS1_14default_deleteIS3_EEEELb0EEC2Em",
   "parameters" :
   [
    {
     "is_this_ptr" : true,
     "referenced_type" : "_ZTIPN4llvm23SmallVectorTemplateBaseINSt3__110unique_ptrINS_8GCOVEdgeENS1_14default_deleteIS3_EEEELb0EEE"
    },
    {
     "referenced_type" : "_ZTIm"
    }
   ],
   "return_type" : "_ZTIv",
   "source_file" : "external/llvm/include/llvm/ADT/SmallVector.h"
  },
  {
   "access" : "protected",
   "function_name" : "llvm::SmallVectorTemplateBase<std::__1::unique_ptr<llvm::GCOVBlock, std::__1::default_delete<llvm::GCOVBlock>>, false>::destroy_range",
   "linker_set_key" : "_ZN4llvm23SmallVectorTemplateBaseINSt3__110unique_ptrINS_9GCOVBlockENS1_14default_deleteIS3_EEEELb0EE13destroy_rangeEPS6_S8_",
   "parameters" :
   [
    {
     "referenced_type" : "_ZTIPNSt3__110unique_ptrIN4llvm9GCOVBlockENS_14default_deleteIS2_EEEE"
    },
    {
     "referenced_type" : "_ZTIPNSt3__110unique_ptrIN4llvm9GCOVBlockENS_14default_deleteIS2_EEEE"
    }
   ],
   "return_type" : "_ZTIv",
   "source_file" : "external/llvm/include/llvm/ADT/SmallVector.h"
  },
  {
   "access" : "protected",
   "function_name" : "llvm::SmallVectorTemplateBase<std::__1::unique_ptr<llvm::GCOVBlock, std::__1::default_delete<llvm::GCOVBlock>>, false>::uninitialized_move",
   "linker_set_key" : "_ZN4llvm23SmallVectorTemplateBaseINSt3__110unique_ptrINS_9GCOVBlockENS1_14default_deleteIS3_EEEELb0EE18uninitialized_moveIPS6_S9_EEvT_SA_T0_",
   "parameters" :
   [
    {
     "referenced_type" : "_ZTIPNSt3__110unique_ptrIN4llvm9GCOVBlockENS_14default_deleteIS2_EEEE"
    },
    {
     "referenced_type" : "_ZTIPNSt3__110unique_ptrIN4llvm9GCOVBlockENS_14default_deleteIS2_EEEE"
    },
    {
     "referenced_type" : "_ZTIPNSt3__110unique_ptrIN4llvm9GCOVBlockENS_14default_deleteIS2_EEEE"
    }
   ],
   "return_type" : "_ZTIv",
   "source_file" : "external/llvm/include/llvm/ADT/SmallVector.h",
   "template_args" :
   [
    "_ZTIPNSt3__110unique_ptrIN4llvm9GCOVBlockENS_14default_deleteIS2_EEEE",
    "_ZTIPNSt3__110unique_ptrIN4llvm9GCOVBlockENS_14default_deleteIS2_EEEE"
   ]
  },
  {
   "access" : "protected",
   "function_name" : "llvm::SmallVectorTemplateBase<std::__1::unique_ptr<llvm::GCOVBlock, std::__1::default_delete<llvm::GCOVBlock>>, false>::grow",
   "linker_set_key" : "_ZN4llvm23SmallVectorTemplateBaseINSt3__110unique_ptrINS_9GCOVBlockENS1_14default_deleteIS3_EEEELb0EE4growEm",
   "parameters" :
   [
    {
     "is_this_ptr" : true,
     "referenced_type" : "_ZTIPN4llvm23SmallVectorTemplateBaseINSt3__110unique_ptrINS_9GCOVBlockENS1_14default_deleteIS3_EEEELb0EEE"
    },
    {
     "default_arg" : true,
     "referenced_type" : "_ZTIm"
    }
   ],
   "return_type" : "_ZTIv",
   "source_file" : "external/llvm/include/llvm/ADT/SmallVector.h"
  },
  {
   "function_name" : "llvm::SmallVectorTemplateBase<std::__1::unique_ptr<llvm::GCOVBlock, std::__1::default_delete<llvm::GCOVBlock>>, false>::push_back",
   "linker_set_key" : "_ZN4llvm23SmallVectorTemplateBaseINSt3__110unique_ptrINS_9GCOVBlockENS1_14default_deleteIS3_EEEELb0EE9push_backEOS6_",
   "parameters" :
   [
    {
     "is_this_ptr" : true,
     "referenced_type" : "_ZTIPN4llvm23SmallVectorTemplateBaseINSt3__110unique_ptrINS_9GCOVBlockENS1_14default_deleteIS3_EEEELb0EEE"
    },
    {
     "referenced_type" : "_ZTIONSt3__110unique_ptrIN4llvm9GCOVBlockENS_14default_deleteIS2_EEEE"
    }
   ],
   "return_type" : "_ZTIv",
   "source_file" : "external/llvm/include/llvm/ADT/SmallVector.h"
  },
  {
   "access" : "protected",
   "function_name" : "llvm::SmallVectorTemplateBase<std::__1::unique_ptr<llvm::GCOVBlock, std::__1::default_delete<llvm::GCOVBlock>>, false>::SmallVectorTemplateBase",
   "linker_set_key" : "_ZN4llvm23SmallVectorTemplateBaseINSt3__110unique_ptrINS_9GCOVBlockENS1_14default_deleteIS3_EEEELb0EEC1Em",
   "parameters" :
   [
    {
     "is_this_ptr" : true,
     "referenced_type" : "_ZTIPN4llvm23SmallVectorTemplateBaseINSt3__110unique_ptrINS_9GCOVBlockENS1_14default_deleteIS3_EEEELb0EEE"
    },
    {
     "referenced_type" : "_ZTIm"
    }
   ],
   "return_type" : "_ZTIv",
   "source_file" : "external/llvm/include/llvm/ADT/SmallVector.h"
  },
  {
   "access" : "protected",
   "function_name" : "llvm::SmallVectorTemplateBase<std::__1::unique_ptr<llvm::GCOVBlock, std::__1::default_delete<llvm::GCOVBlock>>, false>::SmallVectorTemplateBase",
   "linker_set_key" : "_ZN4llvm23SmallVectorTemplateBaseINSt3__110unique_ptrINS_9GCOVBlockENS1_14default_deleteIS3_EEEELb0EEC2Em",
   "parameters" :
   [
    {
     "is_this_ptr" : true,
     "referenced_type" : "_ZTIPN4llvm23SmallVectorTemplateBaseINSt3__110unique_ptrINS_9GCOVBlockENS1_14default_deleteIS3_EEEELb0EEE"
    },
    {
     "referenced_type" : "_ZTIm"
    }
   ],
   "return_type" : "_ZTIv",
   "source_file" : "external/llvm/include/llvm/ADT/SmallVector.h"
  },
  {
   "access" : "protected",
   "function_name" : "llvm::SmallVectorTemplateBase<std::__1::pair<std::__1::basic_string<char>, llvm::FileInfo::GCOVCoverage>, false>::destroy_range",
   "linker_set_key" : "_ZN4llvm23SmallVectorTemplateBaseINSt3__14pairINS1_12basic_stringIcNS1_11char_traitsIcEENS1_9allocatorIcEEEENS_8FileInfo12GCOVCoverageEEELb0EE13destroy_rangeEPSB_SD_",
   "parameters" :
   [
    {
     "referenced_type" : "_ZTIPNSt3__14pairINS_12basic_stringIcNS_11char_traitsIcEENS_9allocatorIcEEEEN4llvm8FileInfo12GCOVCoverageEEE"
    },
    {
     "referenced_type" : "_ZTIPNSt3__14pairINS_12basic_stringIcNS_11char_traitsIcEENS_9allocatorIcEEEEN4llvm8FileInfo12GCOVCoverageEEE"
    }
   ],
   "return_type" : "_ZTIv",
   "source_file" : "external/llvm/include/llvm/ADT/SmallVector.h"
  },
  {
   "access" : "protected",
   "function_name" : "llvm::SmallVectorTemplateBase<std::__1::pair<std::__1::basic_string<char>, llvm::FileInfo::GCOVCoverage>, false>::uninitialized_move",
   "linker_set_key" : "_ZN4llvm23SmallVectorTemplateBaseINSt3__14pairINS1_12basic_stringIcNS1_11char_traitsIcEENS1_9allocatorIcEEEENS_8FileInfo12GCOVCoverageEEELb0EE18uninitialized_moveIPSB_SE_EEvT_SF_T0_",
   "parameters" :
   [
    {
     "referenced_type" : "_ZTIPNSt3__14pairINS_12basic_stringIcNS_11char_traitsIcEENS_9allocatorIcEEEEN4llvm8FileInfo12GCOVCoverageEEE"
    },
    {
     "referenced_type" : "_ZTIPNSt3__14pairINS_12basic_stringIcNS_11char_traitsIcEENS_9allocatorIcEEEEN4llvm8FileInfo12GCOVCoverageEEE"
    },
    {
     "referenced_type" : "_ZTIPNSt3__14pairINS_12basic_stringIcNS_11char_traitsIcEENS_9allocatorIcEEEEN4llvm8FileInfo12GCOVCoverageEEE"
    }
   ],
   "return_type" : "_ZTIv",
   "source_file" : "external/llvm/include/llvm/ADT/SmallVector.h",
   "template_args" :
   [
    "_ZTIPNSt3__14pairINS_12basic_stringIcNS_11char_traitsIcEENS_9allocatorIcEEEEN4llvm8FileInfo12GCOVCoverageEEE",
    "_ZTIPNSt3__14pairINS_12basic_stringIcNS_11char_traitsIcEENS_9allocatorIcEEEEN4llvm8FileInfo12GCOVCoverageEEE"
   ]
  },
  {
   "access" : "protected",
   "function_name" : "llvm::SmallVectorTemplateBase<std::__1::pair<std::__1::basic_string<char>, llvm::FileInfo::GCOVCoverage>, false>::grow",
   "linker_set_key" : "_ZN4llvm23SmallVectorTemplateBaseINSt3__14pairINS1_12basic_stringIcNS1_11char_traitsIcEENS1_9allocatorIcEEEENS_8FileInfo12GCOVCoverageEEELb0EE4growEm",
   "parameters" :
   [
    {
     "is_this_ptr" : true,
     "referenced_type" : "_ZTIPN4llvm23SmallVectorTemplateBaseINSt3__14pairINS1_12basic_stringIcNS1_11char_traitsIcEENS1_9allocatorIcEEEENS_8FileInfo12GCOVCoverageEEELb0EEE"
    },
    {
     "default_arg" : true,
     "referenced_type" : "_ZTIm"
    }
   ],
   "return_type" : "_ZTIv",
   "source_file" : "external/llvm/include/llvm/ADT/SmallVector.h"
  },
  {
   "function_name" : "llvm::SmallVectorTemplateBase<std::__1::pair<std::__1::basic_string<char>, llvm::FileInfo::GCOVCoverage>, false>::push_back",
   "linker_set_key" : "_ZN4llvm23SmallVectorTemplateBaseINSt3__14pairINS1_12basic_stringIcNS1_11char_traitsIcEENS1_9allocatorIcEEEENS_8FileInfo12GCOVCoverageEEELb0EE9push_backEOSB_",
   "parameters" :
   [
    {
     "is_this_ptr" : true,
     "referenced_type" : "_ZTIPN4llvm23SmallVectorTemplateBaseINSt3__14pairINS1_12basic_stringIcNS1_11char_traitsIcEENS1_9allocatorIcEEEENS_8FileInfo12GCOVCoverageEEELb0EEE"
    },
    {
     "referenced_type" : "_ZTIONSt3__14pairINS_12basic_stringIcNS_11char_traitsIcEENS_9allocatorIcEEEEN4llvm8FileInfo12GCOVCoverageEEE"
    }
   ],
   "return_type" : "_ZTIv",
   "source_file" : "external/llvm/include/llvm/ADT/SmallVector.h"
  },
  {
   "access" : "protected",
   "function_name" : "llvm::SmallVectorTemplateBase<std::__1::pair<std::__1::basic_string<char>, llvm::FileInfo::GCOVCoverage>, false>::SmallVectorTemplateBase",
   "linker_set_key" : "_ZN4llvm23SmallVectorTemplateBaseINSt3__14pairINS1_12basic_stringIcNS1_11char_traitsIcEENS1_9allocatorIcEEEENS_8FileInfo12GCOVCoverageEEELb0EEC1Em",
   "parameters" :
   [
    {
     "is_this_ptr" : true,
     "referenced_type" : "_ZTIPN4llvm23SmallVectorTemplateBaseINSt3__14pairINS1_12basic_stringIcNS1_11char_traitsIcEENS1_9allocatorIcEEEENS_8FileInfo12GCOVCoverageEEELb0EEE"
    },
    {
     "referenced_type" : "_ZTIm"
    }
   ],
   "return_type" : "_ZTIv",
   "source_file" : "external/llvm/include/llvm/ADT/SmallVector.h"
  },
  {
   "access" : "protected",
   "function_name" : "llvm::SmallVectorTemplateBase<std::__1::pair<std::__1::basic_string<char>, llvm::FileInfo::GCOVCoverage>, false>::SmallVectorTemplateBase",
   "linker_set_key" : "_ZN4llvm23SmallVectorTemplateBaseINSt3__14pairINS1_12basic_stringIcNS1_11char_traitsIcEENS1_9allocatorIcEEEENS_8FileInfo12GCOVCoverageEEELb0EEC2Em",
   "parameters" :
   [
    {
     "is_this_ptr" : true,
     "referenced_type" : "_ZTIPN4llvm23SmallVectorTemplateBaseINSt3__14pairINS1_12basic_stringIcNS1_11char_traitsIcEENS1_9allocatorIcEEEENS_8FileInfo12GCOVCoverageEEELb0EEE"
    },
    {
     "referenced_type" : "_ZTIm"
    }
   ],
   "return_type" : "_ZTIv",
   "source_file" : "external/llvm/include/llvm/ADT/SmallVector.h"
  },
  {
   "access" : "protected",
   "function_name" : "llvm::SmallVectorTemplateBase<const llvm::GCOVFunction *, true>::destroy_range",
   "linker_set_key" : "_ZN4llvm23SmallVectorTemplateBaseIPKNS_12GCOVFunctionELb1EE13destroy_rangeEPS3_S5_",
   "parameters" :
   [
    {
     "referenced_type" : "_ZTIPPKN4llvm12GCOVFunctionE"
    },
    {
     "referenced_type" : "_ZTIPPKN4llvm12GCOVFunctionE"
    }
   ],
   "return_type" : "_ZTIv",
   "source_file" : "external/llvm/include/llvm/ADT/SmallVector.h"
  },
  {
   "access" : "protected",
   "function_name" : "llvm::SmallVectorTemplateBase<const llvm::GCOVFunction *, true>::uninitialized_copy",
   "linker_set_key" : "_ZN4llvm23SmallVectorTemplateBaseIPKNS_12GCOVFunctionELb1EE18uninitialized_copyIS3_S3_EEvPT_S7_PT0_PNSt3__19enable_ifIXsr3std7is_sameINSA_12remove_constIS6_E4typeES8_EE5valueEvE4typeE",
   "parameters" :
   [
    {
     "referenced_type" : "_ZTIPPKN4llvm12GCOVFunctionE"
    },
    {
     "referenced_type" : "_ZTIPPKN4llvm12GCOVFunctionE"
    },
    {
     "referenced_type" : "_ZTIPPKN4llvm12GCOVFunctionE"
    },
    {
     "default_arg" : true,
     "referenced_type" : "_ZTIPv"
    }
   ],
   "return_type" : "_ZTIv",
   "source_file" : "external/llvm/include/llvm/ADT/SmallVector.h",
   "template_args" : [ "_ZTIPKN4llvm12GCOVFunctionE", "_ZTIPKN4llvm12GCOVFunctionE" ]
  },
  {
   "access" : "protected",
   "function_name" : "llvm::SmallVectorTemplateBase<const llvm::GCOVFunction *, true>::uninitialized_move",
   "linker_set_key" : "_ZN4llvm23SmallVectorTemplateBaseIPKNS_12GCOVFunctionELb1EE18uninitialized_moveIPS3_S6_EEvT_S7_T0_",
   "parameters" :
   [
    {
     "referenced_type" : "_ZTIPPKN4llvm12GCOVFunctionE"
    },
    {
     "referenced_type" : "_ZTIPPKN4llvm12GCOVFunctionE"
    },
    {
     "referenced_type" : "_ZTIPPKN4llvm12GCOVFunctionE"
    }
   ],
   "return_type" : "_ZTIv",
   "source_file" : "external/llvm/include/llvm/ADT/SmallVector.h",
   "template_args" : [ "_ZTIPPKN4llvm12GCOVFunctionE", "_ZTIPPKN4llvm12GCOVFunctionE" ]
  },
  {
   "access" : "protected",
   "function_name" : "llvm::SmallVectorTemplateBase<const llvm::GCOVFunction *, true>::grow",
   "linker_set_key" : "_ZN4llvm23SmallVectorTemplateBaseIPKNS_12GCOVFunctionELb1EE4growEm",
   "parameters" :
   [
    {
     "is_this_ptr" : true,
     "referenced_type" : "_ZTIPN4llvm23SmallVectorTemplateBaseIPKNS_12GCOVFunctionELb1EEE"
    },
    {
     "default_arg" : true,
     "referenced_type" : "_ZTIm"
    }
   ],
   "return_type" : "_ZTIv",
   "source_file" : "external/llvm/include/llvm/ADT/SmallVector.h"
  },
  {
   "function_name" : "llvm::SmallVectorTemplateBase<const llvm::GCOVFunction *, true>::push_back",
   "linker_set_key" : "_ZN4llvm23SmallVectorTemplateBaseIPKNS_12GCOVFunctionELb1EE9push_backERKS3_",
   "parameters" :
   [
    {
     "is_this_ptr" : true,
     "referenced_type" : "_ZTIPN4llvm23SmallVectorTemplateBaseIPKNS_12GCOVFunctionELb1EEE"
    },
    {
     "referenced_type" : "_ZTIRKPKN4llvm12GCOVFunctionE"
    }
   ],
   "return_type" : "_ZTIv",
   "source_file" : "external/llvm/include/llvm/ADT/SmallVector.h"
  },
  {
   "access" : "protected",
   "function_name" : "llvm::SmallVectorTemplateBase<const llvm::GCOVFunction *, true>::SmallVectorTemplateBase",
   "linker_set_key" : "_ZN4llvm23SmallVectorTemplateBaseIPKNS_12GCOVFunctionELb1EEC1Em",
   "parameters" :
   [
    {
     "is_this_ptr" : true,
     "referenced_type" : "_ZTIPN4llvm23SmallVectorTemplateBaseIPKNS_12GCOVFunctionELb1EEE"
    },
    {
     "referenced_type" : "_ZTIm"
    }
   ],
   "return_type" : "_ZTIv",
   "source_file" : "external/llvm/include/llvm/ADT/SmallVector.h"
  },
  {
   "access" : "protected",
   "function_name" : "llvm::SmallVectorTemplateBase<const llvm::GCOVFunction *, true>::SmallVectorTemplateBase",
   "linker_set_key" : "_ZN4llvm23SmallVectorTemplateBaseIPKNS_12GCOVFunctionELb1EEC2Em",
   "parameters" :
   [
    {
     "is_this_ptr" : true,
     "referenced_type" : "_ZTIPN4llvm23SmallVectorTemplateBaseIPKNS_12GCOVFunctionELb1EEE"
    },
    {
     "referenced_type" : "_ZTIm"
    }
   ],
   "return_type" : "_ZTIv",
   "source_file" : "external/llvm/include/llvm/ADT/SmallVector.h"
  },
  {
   "access" : "protected",
   "function_name" : "llvm::SmallVectorTemplateBase<const llvm::GCOVBlock *, true>::destroy_range",
   "linker_set_key" : "_ZN4llvm23SmallVectorTemplateBaseIPKNS_9GCOVBlockELb1EE13destroy_rangeEPS3_S5_",
   "parameters" :
   [
    {
     "referenced_type" : "_ZTIPPKN4llvm9GCOVBlockE"
    },
    {
     "referenced_type" : "_ZTIPPKN4llvm9GCOVBlockE"
    }
   ],
   "return_type" : "_ZTIv",
   "source_file" : "external/llvm/include/llvm/ADT/SmallVector.h"
  },
  {
   "access" : "protected",
   "function_name" : "llvm::SmallVectorTemplateBase<const llvm::GCOVBlock *, true>::uninitialized_copy",
   "linker_set_key" : "_ZN4llvm23SmallVectorTemplateBaseIPKNS_9GCOVBlockELb1EE18uninitialized_copyIS3_S3_EEvPT_S7_PT0_PNSt3__19enable_ifIXsr3std7is_sameINSA_12remove_constIS6_E4typeES8_EE5valueEvE4typeE",
   "parameters" :
   [
    {
     "referenced_type" : "_ZTIPPKN4llvm9GCOVBlockE"
    },
    {
     "referenced_type" : "_ZTIPPKN4llvm9GCOVBlockE"
    },
    {
     "referenced_type" : "_ZTIPPKN4llvm9GCOVBlockE"
    },
    {
     "default_arg" : true,
     "referenced_type" : "_ZTIPv"
    }
   ],
   "return_type" : "_ZTIv",
   "source_file" : "external/llvm/include/llvm/ADT/SmallVector.h",
   "template_args" : [ "_ZTIPKN4llvm9GCOVBlockE", "_ZTIPKN4llvm9GCOVBlockE" ]
  },
  {
   "access" : "protected",
   "function_name" : "llvm::SmallVectorTemplateBase<const llvm::GCOVBlock *, true>::uninitialized_move",
   "linker_set_key" : "_ZN4llvm23SmallVectorTemplateBaseIPKNS_9GCOVBlockELb1EE18uninitialized_moveIPS3_S6_EEvT_S7_T0_",
   "parameters" :
   [
    {
     "referenced_type" : "_ZTIPPKN4llvm9GCOVBlockE"
    },
    {
     "referenced_type" : "_ZTIPPKN4llvm9GCOVBlockE"
    },
    {
     "referenced_type" : "_ZTIPPKN4llvm9GCOVBlockE"
    }
   ],
   "return_type" : "_ZTIv",
   "source_file" : "external/llvm/include/llvm/ADT/SmallVector.h",
   "template_args" : [ "_ZTIPPKN4llvm9GCOVBlockE", "_ZTIPPKN4llvm9GCOVBlockE" ]
  },
  {
   "access" : "protected",
   "function_name" : "llvm::SmallVectorTemplateBase<const llvm::GCOVBlock *, true>::grow",
   "linker_set_key" : "_ZN4llvm23SmallVectorTemplateBaseIPKNS_9GCOVBlockELb1EE4growEm",
   "parameters" :
   [
    {
     "is_this_ptr" : true,
     "referenced_type" : "_ZTIPN4llvm23SmallVectorTemplateBaseIPKNS_9GCOVBlockELb1EEE"
    },
    {
     "default_arg" : true,
     "referenced_type" : "_ZTIm"
    }
   ],
   "return_type" : "_ZTIv",
   "source_file" : "external/llvm/include/llvm/ADT/SmallVector.h"
  },
  {
   "function_name" : "llvm::SmallVectorTemplateBase<const llvm::GCOVBlock *, true>::push_back",
   "linker_set_key" : "_ZN4llvm23SmallVectorTemplateBaseIPKNS_9GCOVBlockELb1EE9push_backERKS3_",
   "parameters" :
   [
    {
     "is_this_ptr" : true,
     "referenced_type" : "_ZTIPN4llvm23SmallVectorTemplateBaseIPKNS_9GCOVBlockELb1EEE"
    },
    {
     "referenced_type" : "_ZTIRKPKN4llvm9GCOVBlockE"
    }
   ],
   "return_type" : "_ZTIv",
   "source_file" : "external/llvm/include/llvm/ADT/SmallVector.h"
  },
  {
   "access" : "protected",
   "function_name" : "llvm::SmallVectorTemplateBase<const llvm::GCOVBlock *, true>::SmallVectorTemplateBase",
   "linker_set_key" : "_ZN4llvm23SmallVectorTemplateBaseIPKNS_9GCOVBlockELb1EEC1Em",
   "parameters" :
   [
    {
     "is_this_ptr" : true,
     "referenced_type" : "_ZTIPN4llvm23SmallVectorTemplateBaseIPKNS_9GCOVBlockELb1EEE"
    },
    {
     "referenced_type" : "_ZTIm"
    }
   ],
   "return_type" : "_ZTIv",
   "source_file" : "external/llvm/include/llvm/ADT/SmallVector.h"
  },
  {
   "access" : "protected",
   "function_name" : "llvm::SmallVectorTemplateBase<const llvm::GCOVBlock *, true>::SmallVectorTemplateBase",
   "linker_set_key" : "_ZN4llvm23SmallVectorTemplateBaseIPKNS_9GCOVBlockELb1EEC2Em",
   "parameters" :
   [
    {
     "is_this_ptr" : true,
     "referenced_type" : "_ZTIPN4llvm23SmallVectorTemplateBaseIPKNS_9GCOVBlockELb1EEE"
    },
    {
     "referenced_type" : "_ZTIm"
    }
   ],
   "return_type" : "_ZTIv",
   "source_file" : "external/llvm/include/llvm/ADT/SmallVector.h"
  },
  {
   "access" : "protected",
   "function_name" : "llvm::SmallVectorTemplateBase<llvm::GCOVEdge *, true>::destroy_range",
   "linker_set_key" : "_ZN4llvm23SmallVectorTemplateBaseIPNS_8GCOVEdgeELb1EE13destroy_rangeEPS2_S4_",
   "parameters" :
   [
    {
     "referenced_type" : "_ZTIPPN4llvm8GCOVEdgeE"
    },
    {
     "referenced_type" : "_ZTIPPN4llvm8GCOVEdgeE"
    }
   ],
   "return_type" : "_ZTIv",
   "source_file" : "external/llvm/include/llvm/ADT/SmallVector.h"
  },
  {
   "access" : "protected",
   "function_name" : "llvm::SmallVectorTemplateBase<llvm::GCOVEdge *, true>::grow",
   "linker_set_key" : "_ZN4llvm23SmallVectorTemplateBaseIPNS_8GCOVEdgeELb1EE4growEm",
   "parameters" :
   [
    {
     "is_this_ptr" : true,
     "referenced_type" : "_ZTIPN4llvm23SmallVectorTemplateBaseIPNS_8GCOVEdgeELb1EEE"
    },
    {
     "default_arg" : true,
     "referenced_type" : "_ZTIm"
    }
   ],
   "return_type" : "_ZTIv",
   "source_file" : "external/llvm/include/llvm/ADT/SmallVector.h"
  },
  {
   "function_name" : "llvm::SmallVectorTemplateBase<llvm::GCOVEdge *, true>::push_back",
   "linker_set_key" : "_ZN4llvm23SmallVectorTemplateBaseIPNS_8GCOVEdgeELb1EE9push_backERKS2_",
   "parameters" :
   [
    {
     "is_this_ptr" : true,
     "referenced_type" : "_ZTIPN4llvm23SmallVectorTemplateBaseIPNS_8GCOVEdgeELb1EEE"
    },
    {
     "referenced_type" : "_ZTIRKPN4llvm8GCOVEdgeE"
    }
   ],
   "return_type" : "_ZTIv",
   "source_file" : "external/llvm/include/llvm/ADT/SmallVector.h"
  },
  {
   "access" : "protected",
   "function_name" : "llvm::SmallVectorTemplateBase<llvm::GCOVEdge *, true>::SmallVectorTemplateBase",
   "linker_set_key" : "_ZN4llvm23SmallVectorTemplateBaseIPNS_8GCOVEdgeELb1EEC1Em",
   "parameters" :
   [
    {
     "is_this_ptr" : true,
     "referenced_type" : "_ZTIPN4llvm23SmallVectorTemplateBaseIPNS_8GCOVEdgeELb1EEE"
    },
    {
     "referenced_type" : "_ZTIm"
    }
   ],
   "return_type" : "_ZTIv",
   "source_file" : "external/llvm/include/llvm/ADT/SmallVector.h"
  },
  {
   "access" : "protected",
   "function_name" : "llvm::SmallVectorTemplateBase<llvm::GCOVEdge *, true>::SmallVectorTemplateBase",
   "linker_set_key" : "_ZN4llvm23SmallVectorTemplateBaseIPNS_8GCOVEdgeELb1EEC2Em",
   "parameters" :
   [
    {
     "is_this_ptr" : true,
     "referenced_type" : "_ZTIPN4llvm23SmallVectorTemplateBaseIPNS_8GCOVEdgeELb1EEE"
    },
    {
     "referenced_type" : "_ZTIm"
    }
   ],
   "return_type" : "_ZTIv",
   "source_file" : "external/llvm/include/llvm/ADT/SmallVector.h"
  },
  {
   "access" : "protected",
   "function_name" : "llvm::SmallVectorTemplateBase<char, true>::destroy_range",
   "linker_set_key" : "_ZN4llvm23SmallVectorTemplateBaseIcLb1EE13destroy_rangeEPcS2_",
   "parameters" :
   [
    {
     "referenced_type" : "_ZTIPc"
    },
    {
     "referenced_type" : "_ZTIPc"
    }
   ],
   "return_type" : "_ZTIv",
   "source_file" : "external/llvm/include/llvm/ADT/SmallVector.h"
  },
  {
   "access" : "protected",
   "function_name" : "llvm::SmallVectorTemplateBase<char, true>::uninitialized_copy",
   "linker_set_key" : "_ZN4llvm23SmallVectorTemplateBaseIcLb1EE18uninitialized_copyIKccEEvPT_S5_PT0_PNSt3__19enable_ifIXsr3std7is_sameINS8_12remove_constIS4_E4typeES6_EE5valueEvE4typeE",
   "parameters" :
   [
    {
     "referenced_type" : "_ZTIPKc"
    },
    {
     "referenced_type" : "_ZTIPKc"
    },
    {
     "referenced_type" : "_ZTIPc"
    },
    {
     "default_arg" : true,
     "referenced_type" : "_ZTIPv"
    }
   ],
   "return_type" : "_ZTIv",
   "source_file" : "external/llvm/include/llvm/ADT/SmallVector.h",
   "template_args" : [ "_ZTIKc", "_ZTIc" ]
  },
  {
   "access" : "protected",
   "function_name" : "llvm::SmallVectorTemplateBase<char, true>::grow",
   "linker_set_key" : "_ZN4llvm23SmallVectorTemplateBaseIcLb1EE4growEm",
   "parameters" :
   [
    {
     "is_this_ptr" : true,
     "referenced_type" : "_ZTIPN4llvm23SmallVectorTemplateBaseIcLb1EEE"
    },
    {
     "default_arg" : true,
     "referenced_type" : "_ZTIm"
    }
   ],
   "return_type" : "_ZTIv",
   "source_file" : "external/llvm/include/llvm/ADT/SmallVector.h"
  },
  {
   "function_name" : "llvm::SmallVectorTemplateBase<char, true>::push_back",
   "linker_set_key" : "_ZN4llvm23SmallVectorTemplateBaseIcLb1EE9push_backERKc",
   "parameters" :
   [
    {
     "is_this_ptr" : true,
     "referenced_type" : "_ZTIPN4llvm23SmallVectorTemplateBaseIcLb1EEE"
    },
    {
     "referenced_type" : "_ZTIRKc"
    }
   ],
   "return_type" : "_ZTIv",
   "source_file" : "external/llvm/include/llvm/ADT/SmallVector.h"
  },
  {
   "access" : "protected",
   "function_name" : "llvm::SmallVectorTemplateBase<char, true>::SmallVectorTemplateBase",
   "linker_set_key" : "_ZN4llvm23SmallVectorTemplateBaseIcLb1EEC1Em",
   "parameters" :
   [
    {
     "is_this_ptr" : true,
     "referenced_type" : "_ZTIPN4llvm23SmallVectorTemplateBaseIcLb1EEE"
    },
    {
     "referenced_type" : "_ZTIm"
    }
   ],
   "return_type" : "_ZTIv",
   "source_file" : "external/llvm/include/llvm/ADT/SmallVector.h"
  },
  {
   "access" : "protected",
   "function_name" : "llvm::SmallVectorTemplateBase<char, true>::SmallVectorTemplateBase",
   "linker_set_key" : "_ZN4llvm23SmallVectorTemplateBaseIcLb1EEC2Em",
   "parameters" :
   [
    {
     "is_this_ptr" : true,
     "referenced_type" : "_ZTIPN4llvm23SmallVectorTemplateBaseIcLb1EEE"
    },
    {
     "referenced_type" : "_ZTIm"
    }
   ],
   "return_type" : "_ZTIv",
   "source_file" : "external/llvm/include/llvm/ADT/SmallVector.h"
  },
  {
   "access" : "protected",
   "function_name" : "llvm::SmallVectorTemplateBase<unsigned int, true>::destroy_range",
   "linker_set_key" : "_ZN4llvm23SmallVectorTemplateBaseIjLb1EE13destroy_rangeEPjS2_",
   "parameters" :
   [
    {
     "referenced_type" : "_ZTIPj"
    },
    {
     "referenced_type" : "_ZTIPj"
    }
   ],
   "return_type" : "_ZTIv",
   "source_file" : "external/llvm/include/llvm/ADT/SmallVector.h"
  },
  {
   "access" : "protected",
   "function_name" : "llvm::SmallVectorTemplateBase<unsigned int, true>::grow",
   "linker_set_key" : "_ZN4llvm23SmallVectorTemplateBaseIjLb1EE4growEm",
   "parameters" :
   [
    {
     "is_this_ptr" : true,
     "referenced_type" : "_ZTIPN4llvm23SmallVectorTemplateBaseIjLb1EEE"
    },
    {
     "default_arg" : true,
     "referenced_type" : "_ZTIm"
    }
   ],
   "return_type" : "_ZTIv",
   "source_file" : "external/llvm/include/llvm/ADT/SmallVector.h"
  },
  {
   "function_name" : "llvm::SmallVectorTemplateBase<unsigned int, true>::push_back",
   "linker_set_key" : "_ZN4llvm23SmallVectorTemplateBaseIjLb1EE9push_backERKj",
   "parameters" :
   [
    {
     "is_this_ptr" : true,
     "referenced_type" : "_ZTIPN4llvm23SmallVectorTemplateBaseIjLb1EEE"
    },
    {
     "referenced_type" : "_ZTIRKj"
    }
   ],
   "return_type" : "_ZTIv",
   "source_file" : "external/llvm/include/llvm/ADT/SmallVector.h"
  },
  {
   "access" : "protected",
   "function_name" : "llvm::SmallVectorTemplateBase<unsigned int, true>::SmallVectorTemplateBase",
   "linker_set_key" : "_ZN4llvm23SmallVectorTemplateBaseIjLb1EEC1Em",
   "parameters" :
   [
    {
     "is_this_ptr" : true,
     "referenced_type" : "_ZTIPN4llvm23SmallVectorTemplateBaseIjLb1EEE"
    },
    {
     "referenced_type" : "_ZTIm"
    }
   ],
   "return_type" : "_ZTIv",
   "source_file" : "external/llvm/include/llvm/ADT/SmallVector.h"
  },
  {
   "access" : "protected",
   "function_name" : "llvm::SmallVectorTemplateBase<unsigned int, true>::SmallVectorTemplateBase",
   "linker_set_key" : "_ZN4llvm23SmallVectorTemplateBaseIjLb1EEC2Em",
   "parameters" :
   [
    {
     "is_this_ptr" : true,
     "referenced_type" : "_ZTIPN4llvm23SmallVectorTemplateBaseIjLb1EEE"
    },
    {
     "referenced_type" : "_ZTIm"
    }
   ],
   "return_type" : "_ZTIv",
   "source_file" : "external/llvm/include/llvm/ADT/SmallVector.h"
  },
  {
   "access" : "protected",
   "function_name" : "llvm::SmallVectorTemplateBase<unsigned long, true>::destroy_range",
   "linker_set_key" : "_ZN4llvm23SmallVectorTemplateBaseImLb1EE13destroy_rangeEPmS2_",
   "parameters" :
   [
    {
     "referenced_type" : "_ZTIPm"
    },
    {
     "referenced_type" : "_ZTIPm"
    }
   ],
   "return_type" : "_ZTIv",
   "source_file" : "external/llvm/include/llvm/ADT/SmallVector.h"
  },
  {
   "access" : "protected",
   "function_name" : "llvm::SmallVectorTemplateBase<unsigned long, true>::grow",
   "linker_set_key" : "_ZN4llvm23SmallVectorTemplateBaseImLb1EE4growEm",
   "parameters" :
   [
    {
     "is_this_ptr" : true,
     "referenced_type" : "_ZTIPN4llvm23SmallVectorTemplateBaseImLb1EEE"
    },
    {
     "default_arg" : true,
     "referenced_type" : "_ZTIm"
    }
   ],
   "return_type" : "_ZTIv",
   "source_file" : "external/llvm/include/llvm/ADT/SmallVector.h"
  },
  {
   "function_name" : "llvm::SmallVectorTemplateBase<unsigned long, true>::push_back",
   "linker_set_key" : "_ZN4llvm23SmallVectorTemplateBaseImLb1EE9push_backERKm",
   "parameters" :
   [
    {
     "is_this_ptr" : true,
     "referenced_type" : "_ZTIPN4llvm23SmallVectorTemplateBaseImLb1EEE"
    },
    {
     "referenced_type" : "_ZTIRKm"
    }
   ],
   "return_type" : "_ZTIv",
   "source_file" : "external/llvm/include/llvm/ADT/SmallVector.h"
  },
  {
   "access" : "protected",
   "function_name" : "llvm::SmallVectorTemplateBase<unsigned long, true>::SmallVectorTemplateBase",
   "linker_set_key" : "_ZN4llvm23SmallVectorTemplateBaseImLb1EEC1Em",
   "parameters" :
   [
    {
     "is_this_ptr" : true,
     "referenced_type" : "_ZTIPN4llvm23SmallVectorTemplateBaseImLb1EEE"
    },
    {
     "referenced_type" : "_ZTIm"
    }
   ],
   "return_type" : "_ZTIv",
   "source_file" : "external/llvm/include/llvm/ADT/SmallVector.h"
  },
  {
   "access" : "protected",
   "function_name" : "llvm::SmallVectorTemplateBase<unsigned long, true>::SmallVectorTemplateBase",
   "linker_set_key" : "_ZN4llvm23SmallVectorTemplateBaseImLb1EEC2Em",
   "parameters" :
   [
    {
     "is_this_ptr" : true,
     "referenced_type" : "_ZTIPN4llvm23SmallVectorTemplateBaseImLb1EEE"
    },
    {
     "referenced_type" : "_ZTIm"
    }
   ],
   "return_type" : "_ZTIv",
   "source_file" : "external/llvm/include/llvm/ADT/SmallVector.h"
  },
  {
   "function_name" : "llvm::SmallVectorTemplateCommon<std::__1::unique_ptr<llvm::GCOVFunction, std::__1::default_delete<llvm::GCOVFunction>>, void>::end",
   "linker_set_key" : "_ZN4llvm25SmallVectorTemplateCommonINSt3__110unique_ptrINS_12GCOVFunctionENS1_14default_deleteIS3_EEEEvE3endEv",
   "parameters" :
   [
    {
     "is_this_ptr" : true,
     "referenced_type" : "_ZTIPN4llvm25SmallVectorTemplateCommonINSt3__110unique_ptrINS_12GCOVFunctionENS1_14default_deleteIS3_EEEEvEE"
    }
   ],
   "return_type" : "_ZTIPNSt3__110unique_ptrIN4llvm12GCOVFunctionENS_14default_deleteIS2_EEEE",
   "source_file" : "external/llvm/include/llvm/ADT/SmallVector.h"
  },
  {
   "function_name" : "llvm::SmallVectorTemplateCommon<std::__1::unique_ptr<llvm::GCOVFunction, std::__1::default_delete<llvm::GCOVFunction>>, void>::begin",
   "linker_set_key" : "_ZN4llvm25SmallVectorTemplateCommonINSt3__110unique_ptrINS_12GCOVFunctionENS1_14default_deleteIS3_EEEEvE5beginEv",
   "parameters" :
   [
    {
     "is_this_ptr" : true,
     "referenced_type" : "_ZTIPN4llvm25SmallVectorTemplateCommonINSt3__110unique_ptrINS_12GCOVFunctionENS1_14default_deleteIS3_EEEEvEE"
    }
   ],
   "return_type" : "_ZTIPNSt3__110unique_ptrIN4llvm12GCOVFunctionENS_14default_deleteIS2_EEEE",
   "source_file" : "external/llvm/include/llvm/ADT/SmallVector.h"
  },
  {
   "access" : "protected",
   "function_name" : "llvm::SmallVectorTemplateCommon<std::__1::unique_ptr<llvm::GCOVFunction, std::__1::default_delete<llvm::GCOVFunction>>, void>::setEnd",
   "linker_set_key" : "_ZN4llvm25SmallVectorTemplateCommonINSt3__110unique_ptrINS_12GCOVFunctionENS1_14default_deleteIS3_EEEEvE6setEndEPS6_",
   "parameters" :
   [
    {
     "is_this_ptr" : true,
     "referenced_type" : "_ZTIPN4llvm25SmallVectorTemplateCommonINSt3__110unique_ptrINS_12GCOVFunctionENS1_14default_deleteIS3_EEEEvEE"
    },
    {
     "referenced_type" : "_ZTIPNSt3__110unique_ptrIN4llvm12GCOVFunctionENS_14default_deleteIS2_EEEE"
    }
   ],
   "return_type" : "_ZTIv",
   "source_file" : "external/llvm/include/llvm/ADT/SmallVector.h"
  },
  {
   "access" : "protected",
   "function_name" : "llvm::SmallVectorTemplateCommon<std::__1::unique_ptr<llvm::GCOVFunction, std::__1::default_delete<llvm::GCOVFunction>>, void>::SmallVectorTemplateCommon",
   "linker_set_key" : "_ZN4llvm25SmallVectorTemplateCommonINSt3__110unique_ptrINS_12GCOVFunctionENS1_14default_deleteIS3_EEEEvEC1Em",
   "parameters" :
   [
    {
     "is_this_ptr" : true,
     "referenced_type" : "_ZTIPN4llvm25SmallVectorTemplateCommonINSt3__110unique_ptrINS_12GCOVFunctionENS1_14default_deleteIS3_EEEEvEE"
    },
    {
     "referenced_type" : "_ZTIm"
    }
   ],
   "return_type" : "_ZTIv",
   "source_file" : "external/llvm/include/llvm/ADT/SmallVector.h"
  },
  {
   "access" : "protected",
   "function_name" : "llvm::SmallVectorTemplateCommon<std::__1::unique_ptr<llvm::GCOVFunction, std::__1::default_delete<llvm::GCOVFunction>>, void>::SmallVectorTemplateCommon",
   "linker_set_key" : "_ZN4llvm25SmallVectorTemplateCommonINSt3__110unique_ptrINS_12GCOVFunctionENS1_14default_deleteIS3_EEEEvEC2Em",
   "parameters" :
   [
    {
     "is_this_ptr" : true,
     "referenced_type" : "_ZTIPN4llvm25SmallVectorTemplateCommonINSt3__110unique_ptrINS_12GCOVFunctionENS1_14default_deleteIS3_EEEEvEE"
    },
    {
     "referenced_type" : "_ZTIm"
    }
   ],
   "return_type" : "_ZTIv",
   "source_file" : "external/llvm/include/llvm/ADT/SmallVector.h"
  },
  {
   "function_name" : "llvm::SmallVectorTemplateCommon<std::__1::unique_ptr<llvm::GCOVFunction, std::__1::default_delete<llvm::GCOVFunction>>, void>::operator[]",
   "linker_set_key" : "_ZN4llvm25SmallVectorTemplateCommonINSt3__110unique_ptrINS_12GCOVFunctionENS1_14default_deleteIS3_EEEEvEixEm",
   "parameters" :
   [
    {
     "is_this_ptr" : true,
     "referenced_type" : "_ZTIPN4llvm25SmallVectorTemplateCommonINSt3__110unique_ptrINS_12GCOVFunctionENS1_14default_deleteIS3_EEEEvEE"
    },
    {
     "referenced_type" : "_ZTIm"
    }
   ],
   "return_type" : "_ZTIRNSt3__110unique_ptrIN4llvm12GCOVFunctionENS_14default_deleteIS2_EEEE",
   "source_file" : "external/llvm/include/llvm/ADT/SmallVector.h"
  },
  {
   "function_name" : "llvm::SmallVectorTemplateCommon<std::__1::unique_ptr<llvm::GCOVEdge, std::__1::default_delete<llvm::GCOVEdge>>, void>::end",
   "linker_set_key" : "_ZN4llvm25SmallVectorTemplateCommonINSt3__110unique_ptrINS_8GCOVEdgeENS1_14default_deleteIS3_EEEEvE3endEv",
   "parameters" :
   [
    {
     "is_this_ptr" : true,
     "referenced_type" : "_ZTIPN4llvm25SmallVectorTemplateCommonINSt3__110unique_ptrINS_8GCOVEdgeENS1_14default_deleteIS3_EEEEvEE"
    }
   ],
   "return_type" : "_ZTIPNSt3__110unique_ptrIN4llvm8GCOVEdgeENS_14default_deleteIS2_EEEE",
   "source_file" : "external/llvm/include/llvm/ADT/SmallVector.h"
  },
  {
   "function_name" : "llvm::SmallVectorTemplateCommon<std::__1::unique_ptr<llvm::GCOVEdge, std::__1::default_delete<llvm::GCOVEdge>>, void>::back",
   "linker_set_key" : "_ZN4llvm25SmallVectorTemplateCommonINSt3__110unique_ptrINS_8GCOVEdgeENS1_14default_deleteIS3_EEEEvE4backEv",
   "parameters" :
   [
    {
     "is_this_ptr" : true,
     "referenced_type" : "_ZTIPN4llvm25SmallVectorTemplateCommonINSt3__110unique_ptrINS_8GCOVEdgeENS1_14default_deleteIS3_EEEEvEE"
    }
   ],
   "return_type" : "_ZTIRNSt3__110unique_ptrIN4llvm8GCOVEdgeENS_14default_deleteIS2_EEEE",
   "source_file" : "external/llvm/include/llvm/ADT/SmallVector.h"
  },
  {
   "function_name" : "llvm::SmallVectorTemplateCommon<std::__1::unique_ptr<llvm::GCOVEdge, std::__1::default_delete<llvm::GCOVEdge>>, void>::begin",
   "linker_set_key" : "_ZN4llvm25SmallVectorTemplateCommonINSt3__110unique_ptrINS_8GCOVEdgeENS1_14default_deleteIS3_EEEEvE5beginEv",
   "parameters" :
   [
    {
     "is_this_ptr" : true,
     "referenced_type" : "_ZTIPN4llvm25SmallVectorTemplateCommonINSt3__110unique_ptrINS_8GCOVEdgeENS1_14default_deleteIS3_EEEEvEE"
    }
   ],
   "return_type" : "_ZTIPNSt3__110unique_ptrIN4llvm8GCOVEdgeENS_14default_deleteIS2_EEEE",
   "source_file" : "external/llvm/include/llvm/ADT/SmallVector.h"
  },
  {
   "access" : "protected",
   "function_name" : "llvm::SmallVectorTemplateCommon<std::__1::unique_ptr<llvm::GCOVEdge, std::__1::default_delete<llvm::GCOVEdge>>, void>::setEnd",
   "linker_set_key" : "_ZN4llvm25SmallVectorTemplateCommonINSt3__110unique_ptrINS_8GCOVEdgeENS1_14default_deleteIS3_EEEEvE6setEndEPS6_",
   "parameters" :
   [
    {
     "is_this_ptr" : true,
     "referenced_type" : "_ZTIPN4llvm25SmallVectorTemplateCommonINSt3__110unique_ptrINS_8GCOVEdgeENS1_14default_deleteIS3_EEEEvEE"
    },
    {
     "referenced_type" : "_ZTIPNSt3__110unique_ptrIN4llvm8GCOVEdgeENS_14default_deleteIS2_EEEE"
    }
   ],
   "return_type" : "_ZTIv",
   "source_file" : "external/llvm/include/llvm/ADT/SmallVector.h"
  },
  {
   "access" : "protected",
   "function_name" : "llvm::SmallVectorTemplateCommon<std::__1::unique_ptr<llvm::GCOVEdge, std::__1::default_delete<llvm::GCOVEdge>>, void>::SmallVectorTemplateCommon",
   "linker_set_key" : "_ZN4llvm25SmallVectorTemplateCommonINSt3__110unique_ptrINS_8GCOVEdgeENS1_14default_deleteIS3_EEEEvEC1Em",
   "parameters" :
   [
    {
     "is_this_ptr" : true,
     "referenced_type" : "_ZTIPN4llvm25SmallVectorTemplateCommonINSt3__110unique_ptrINS_8GCOVEdgeENS1_14default_deleteIS3_EEEEvEE"
    },
    {
     "referenced_type" : "_ZTIm"
    }
   ],
   "return_type" : "_ZTIv",
   "source_file" : "external/llvm/include/llvm/ADT/SmallVector.h"
  },
  {
   "access" : "protected",
   "function_name" : "llvm::SmallVectorTemplateCommon<std::__1::unique_ptr<llvm::GCOVEdge, std::__1::default_delete<llvm::GCOVEdge>>, void>::SmallVectorTemplateCommon",
   "linker_set_key" : "_ZN4llvm25SmallVectorTemplateCommonINSt3__110unique_ptrINS_8GCOVEdgeENS1_14default_deleteIS3_EEEEvEC2Em",
   "parameters" :
   [
    {
     "is_this_ptr" : true,
     "referenced_type" : "_ZTIPN4llvm25SmallVectorTemplateCommonINSt3__110unique_ptrINS_8GCOVEdgeENS1_14default_deleteIS3_EEEEvEE"
    },
    {
     "referenced_type" : "_ZTIm"
    }
   ],
   "return_type" : "_ZTIv",
   "source_file" : "external/llvm/include/llvm/ADT/SmallVector.h"
  },
  {
   "function_name" : "llvm::SmallVectorTemplateCommon<std::__1::unique_ptr<llvm::GCOVBlock, std::__1::default_delete<llvm::GCOVBlock>>, void>::end",
   "linker_set_key" : "_ZN4llvm25SmallVectorTemplateCommonINSt3__110unique_ptrINS_9GCOVBlockENS1_14default_deleteIS3_EEEEvE3endEv",
   "parameters" :
   [
    {
     "is_this_ptr" : true,
     "referenced_type" : "_ZTIPN4llvm25SmallVectorTemplateCommonINSt3__110unique_ptrINS_9GCOVBlockENS1_14default_deleteIS3_EEEEvEE"
    }
   ],
   "return_type" : "_ZTIPNSt3__110unique_ptrIN4llvm9GCOVBlockENS_14default_deleteIS2_EEEE",
   "source_file" : "external/llvm/include/llvm/ADT/SmallVector.h"
  },
  {
   "function_name" : "llvm::SmallVectorTemplateCommon<std::__1::unique_ptr<llvm::GCOVBlock, std::__1::default_delete<llvm::GCOVBlock>>, void>::begin",
   "linker_set_key" : "_ZN4llvm25SmallVectorTemplateCommonINSt3__110unique_ptrINS_9GCOVBlockENS1_14default_deleteIS3_EEEEvE5beginEv",
   "parameters" :
   [
    {
     "is_this_ptr" : true,
     "referenced_type" : "_ZTIPN4llvm25SmallVectorTemplateCommonINSt3__110unique_ptrINS_9GCOVBlockENS1_14default_deleteIS3_EEEEvEE"
    }
   ],
   "return_type" : "_ZTIPNSt3__110unique_ptrIN4llvm9GCOVBlockENS_14default_deleteIS2_EEEE",
   "source_file" : "external/llvm/include/llvm/ADT/SmallVector.h"
  },
  {
   "access" : "protected",
   "function_name" : "llvm::SmallVectorTemplateCommon<std::__1::unique_ptr<llvm::GCOVBlock, std::__1::default_delete<llvm::GCOVBlock>>, void>::setEnd",
   "linker_set_key" : "_ZN4llvm25SmallVectorTemplateCommonINSt3__110unique_ptrINS_9GCOVBlockENS1_14default_deleteIS3_EEEEvE6setEndEPS6_",
   "parameters" :
   [
    {
     "is_this_ptr" : true,
     "referenced_type" : "_ZTIPN4llvm25SmallVectorTemplateCommonINSt3__110unique_ptrINS_9GCOVBlockENS1_14default_deleteIS3_EEEEvEE"
    },
    {
     "referenced_type" : "_ZTIPNSt3__110unique_ptrIN4llvm9GCOVBlockENS_14default_deleteIS2_EEEE"
    }
   ],
   "return_type" : "_ZTIv",
   "source_file" : "external/llvm/include/llvm/ADT/SmallVector.h"
  },
  {
   "access" : "protected",
   "function_name" : "llvm::SmallVectorTemplateCommon<std::__1::unique_ptr<llvm::GCOVBlock, std::__1::default_delete<llvm::GCOVBlock>>, void>::SmallVectorTemplateCommon",
   "linker_set_key" : "_ZN4llvm25SmallVectorTemplateCommonINSt3__110unique_ptrINS_9GCOVBlockENS1_14default_deleteIS3_EEEEvEC1Em",
   "parameters" :
   [
    {
     "is_this_ptr" : true,
     "referenced_type" : "_ZTIPN4llvm25SmallVectorTemplateCommonINSt3__110unique_ptrINS_9GCOVBlockENS1_14default_deleteIS3_EEEEvEE"
    },
    {
     "referenced_type" : "_ZTIm"
    }
   ],
   "return_type" : "_ZTIv",
   "source_file" : "external/llvm/include/llvm/ADT/SmallVector.h"
  },
  {
   "access" : "protected",
   "function_name" : "llvm::SmallVectorTemplateCommon<std::__1::unique_ptr<llvm::GCOVBlock, std::__1::default_delete<llvm::GCOVBlock>>, void>::SmallVectorTemplateCommon",
   "linker_set_key" : "_ZN4llvm25SmallVectorTemplateCommonINSt3__110unique_ptrINS_9GCOVBlockENS1_14default_deleteIS3_EEEEvEC2Em",
   "parameters" :
   [
    {
     "is_this_ptr" : true,
     "referenced_type" : "_ZTIPN4llvm25SmallVectorTemplateCommonINSt3__110unique_ptrINS_9GCOVBlockENS1_14default_deleteIS3_EEEEvEE"
    },
    {
     "referenced_type" : "_ZTIm"
    }
   ],
   "return_type" : "_ZTIv",
   "source_file" : "external/llvm/include/llvm/ADT/SmallVector.h"
  },
  {
   "function_name" : "llvm::SmallVectorTemplateCommon<std::__1::unique_ptr<llvm::GCOVBlock, std::__1::default_delete<llvm::GCOVBlock>>, void>::operator[]",
   "linker_set_key" : "_ZN4llvm25SmallVectorTemplateCommonINSt3__110unique_ptrINS_9GCOVBlockENS1_14default_deleteIS3_EEEEvEixEm",
   "parameters" :
   [
    {
     "is_this_ptr" : true,
     "referenced_type" : "_ZTIPN4llvm25SmallVectorTemplateCommonINSt3__110unique_ptrINS_9GCOVBlockENS1_14default_deleteIS3_EEEEvEE"
    },
    {
     "referenced_type" : "_ZTIm"
    }
   ],
   "return_type" : "_ZTIRNSt3__110unique_ptrIN4llvm9GCOVBlockENS_14default_deleteIS2_EEEE",
   "source_file" : "external/llvm/include/llvm/ADT/SmallVector.h"
  },
  {
   "function_name" : "llvm::SmallVectorTemplateCommon<std::__1::pair<std::__1::basic_string<char>, llvm::FileInfo::GCOVCoverage>, void>::end",
   "linker_set_key" : "_ZN4llvm25SmallVectorTemplateCommonINSt3__14pairINS1_12basic_stringIcNS1_11char_traitsIcEENS1_9allocatorIcEEEENS_8FileInfo12GCOVCoverageEEEvE3endEv",
   "parameters" :
   [
    {
     "is_this_ptr" : true,
     "referenced_type" : "_ZTIPN4llvm25SmallVectorTemplateCommonINSt3__14pairINS1_12basic_stringIcNS1_11char_traitsIcEENS1_9allocatorIcEEEENS_8FileInfo12GCOVCoverageEEEvEE"
    }
   ],
   "return_type" : "_ZTIPNSt3__14pairINS_12basic_stringIcNS_11char_traitsIcEENS_9allocatorIcEEEEN4llvm8FileInfo12GCOVCoverageEEE",
   "source_file" : "external/llvm/include/llvm/ADT/SmallVector.h"
  },
  {
   "function_name" : "llvm::SmallVectorTemplateCommon<std::__1::pair<std::__1::basic_string<char>, llvm::FileInfo::GCOVCoverage>, void>::begin",
   "linker_set_key" : "_ZN4llvm25SmallVectorTemplateCommonINSt3__14pairINS1_12basic_stringIcNS1_11char_traitsIcEENS1_9allocatorIcEEEENS_8FileInfo12GCOVCoverageEEEvE5beginEv",
   "parameters" :
   [
    {
     "is_this_ptr" : true,
     "referenced_type" : "_ZTIPN4llvm25SmallVectorTemplateCommonINSt3__14pairINS1_12basic_stringIcNS1_11char_traitsIcEENS1_9allocatorIcEEEENS_8FileInfo12GCOVCoverageEEEvEE"
    }
   ],
   "return_type" : "_ZTIPNSt3__14pairINS_12basic_stringIcNS_11char_traitsIcEENS_9allocatorIcEEEEN4llvm8FileInfo12GCOVCoverageEEE",
   "source_file" : "external/llvm/include/llvm/ADT/SmallVector.h"
  },
  {
   "access" : "protected",
   "function_name" : "llvm::SmallVectorTemplateCommon<std::__1::pair<std::__1::basic_string<char>, llvm::FileInfo::GCOVCoverage>, void>::setEnd",
   "linker_set_key" : "_ZN4llvm25SmallVectorTemplateCommonINSt3__14pairINS1_12basic_stringIcNS1_11char_traitsIcEENS1_9allocatorIcEEEENS_8FileInfo12GCOVCoverageEEEvE6setEndEPSB_",
   "parameters" :
   [
    {
     "is_this_ptr" : true,
     "referenced_type" : "_ZTIPN4llvm25SmallVectorTemplateCommonINSt3__14pairINS1_12basic_stringIcNS1_11char_traitsIcEENS1_9allocatorIcEEEENS_8FileInfo12GCOVCoverageEEEvEE"
    },
    {
     "referenced_type" : "_ZTIPNSt3__14pairINS_12basic_stringIcNS_11char_traitsIcEENS_9allocatorIcEEEEN4llvm8FileInfo12GCOVCoverageEEE"
    }
   ],
   "return_type" : "_ZTIv",
   "source_file" : "external/llvm/include/llvm/ADT/SmallVector.h"
  },
  {
   "access" : "protected",
   "function_name" : "llvm::SmallVectorTemplateCommon<std::__1::pair<std::__1::basic_string<char>, llvm::FileInfo::GCOVCoverage>, void>::SmallVectorTemplateCommon",
   "linker_set_key" : "_ZN4llvm25SmallVectorTemplateCommonINSt3__14pairINS1_12basic_stringIcNS1_11char_traitsIcEENS1_9allocatorIcEEEENS_8FileInfo12GCOVCoverageEEEvEC1Em",
   "parameters" :
   [
    {
     "is_this_ptr" : true,
     "referenced_type" : "_ZTIPN4llvm25SmallVectorTemplateCommonINSt3__14pairINS1_12basic_stringIcNS1_11char_traitsIcEENS1_9allocatorIcEEEENS_8FileInfo12GCOVCoverageEEEvEE"
    },
    {
     "referenced_type" : "_ZTIm"
    }
   ],
   "return_type" : "_ZTIv",
   "source_file" : "external/llvm/include/llvm/ADT/SmallVector.h"
  },
  {
   "access" : "protected",
   "function_name" : "llvm::SmallVectorTemplateCommon<std::__1::pair<std::__1::basic_string<char>, llvm::FileInfo::GCOVCoverage>, void>::SmallVectorTemplateCommon",
   "linker_set_key" : "_ZN4llvm25SmallVectorTemplateCommonINSt3__14pairINS1_12basic_stringIcNS1_11char_traitsIcEENS1_9allocatorIcEEEENS_8FileInfo12GCOVCoverageEEEvEC2Em",
   "parameters" :
   [
    {
     "is_this_ptr" : true,
     "referenced_type" : "_ZTIPN4llvm25SmallVectorTemplateCommonINSt3__14pairINS1_12basic_stringIcNS1_11char_traitsIcEENS1_9allocatorIcEEEENS_8FileInfo12GCOVCoverageEEEvEE"
    },
    {
     "referenced_type" : "_ZTIm"
    }
   ],
   "return_type" : "_ZTIv",
   "source_file" : "external/llvm/include/llvm/ADT/SmallVector.h"
  },
  {
   "access" : "protected",
   "function_name" : "llvm::SmallVectorTemplateCommon<const llvm::GCOVFunction *, void>::resetToSmall",
   "linker_set_key" : "_ZN4llvm25SmallVectorTemplateCommonIPKNS_12GCOVFunctionEvE12resetToSmallEv",
   "parameters" :
   [
    {
     "is_this_ptr" : true,
     "referenced_type" : "_ZTIPN4llvm25SmallVectorTemplateCommonIPKNS_12GCOVFunctionEvEE"
    }
   ],
   "return_type" : "_ZTIv",
   "source_file" : "external/llvm/include/llvm/ADT/SmallVector.h"
  },
  {
   "function_name" : "llvm::SmallVectorTemplateCommon<const llvm::GCOVFunction *, void>::end",
   "linker_set_key" : "_ZN4llvm25SmallVectorTemplateCommonIPKNS_12GCOVFunctionEvE3endEv",
   "parameters" :
   [
    {
     "is_this_ptr" : true,
     "referenced_type" : "_ZTIPN4llvm25SmallVectorTemplateCommonIPKNS_12GCOVFunctionEvEE"
    }
   ],
   "return_type" : "_ZTIPPKN4llvm12GCOVFunctionE",
   "source_file" : "external/llvm/include/llvm/ADT/SmallVector.h"
  },
  {
   "function_name" : "llvm::SmallVectorTemplateCommon<const llvm::GCOVFunction *, void>::begin",
   "linker_set_key" : "_ZN4llvm25SmallVectorTemplateCommonIPKNS_12GCOVFunctionEvE5beginEv",
   "parameters" :
   [
    {
     "is_this_ptr" : true,
     "referenced_type" : "_ZTIPN4llvm25SmallVectorTemplateCommonIPKNS_12GCOVFunctionEvEE"
    }
   ],
   "return_type" : "_ZTIPPKN4llvm12GCOVFunctionE",
   "source_file" : "external/llvm/include/llvm/ADT/SmallVector.h"
  },
  {
   "access" : "protected",
   "function_name" : "llvm::SmallVectorTemplateCommon<const llvm::GCOVFunction *, void>::setEnd",
   "linker_set_key" : "_ZN4llvm25SmallVectorTemplateCommonIPKNS_12GCOVFunctionEvE6setEndEPS3_",
   "parameters" :
   [
    {
     "is_this_ptr" : true,
     "referenced_type" : "_ZTIPN4llvm25SmallVectorTemplateCommonIPKNS_12GCOVFunctionEvEE"
    },
    {
     "referenced_type" : "_ZTIPPKN4llvm12GCOVFunctionE"
    }
   ],
   "return_type" : "_ZTIv",
   "source_file" : "external/llvm/include/llvm/ADT/SmallVector.h"
  },
  {
   "access" : "protected",
   "function_name" : "llvm::SmallVectorTemplateCommon<const llvm::GCOVFunction *, void>::grow_pod",
   "linker_set_key" : "_ZN4llvm25SmallVectorTemplateCommonIPKNS_12GCOVFunctionEvE8grow_podEmm",
   "parameters" :
   [
    {
     "is_this_ptr" : true,
     "referenced_type" : "_ZTIPN4llvm25SmallVectorTemplateCommonIPKNS_12GCOVFunctionEvEE"
    },
    {
     "referenced_type" : "_ZTIm"
    },
    {
     "referenced_type" : "_ZTIm"
    }
   ],
   "return_type" : "_ZTIv",
   "source_file" : "external/llvm/include/llvm/ADT/SmallVector.h"
  },
  {
   "access" : "protected",
   "function_name" : "llvm::SmallVectorTemplateCommon<const llvm::GCOVFunction *, void>::SmallVectorTemplateCommon",
   "linker_set_key" : "_ZN4llvm25SmallVectorTemplateCommonIPKNS_12GCOVFunctionEvEC1Em",
   "parameters" :
   [
    {
     "is_this_ptr" : true,
     "referenced_type" : "_ZTIPN4llvm25SmallVectorTemplateCommonIPKNS_12GCOVFunctionEvEE"
    },
    {
     "referenced_type" : "_ZTIm"
    }
   ],
   "return_type" : "_ZTIv",
   "source_file" : "external/llvm/include/llvm/ADT/SmallVector.h"
  },
  {
   "access" : "protected",
   "function_name" : "llvm::SmallVectorTemplateCommon<const llvm::GCOVFunction *, void>::SmallVectorTemplateCommon",
   "linker_set_key" : "_ZN4llvm25SmallVectorTemplateCommonIPKNS_12GCOVFunctionEvEC2Em",
   "parameters" :
   [
    {
     "is_this_ptr" : true,
     "referenced_type" : "_ZTIPN4llvm25SmallVectorTemplateCommonIPKNS_12GCOVFunctionEvEE"
    },
    {
     "referenced_type" : "_ZTIm"
    }
   ],
   "return_type" : "_ZTIv",
   "source_file" : "external/llvm/include/llvm/ADT/SmallVector.h"
  },
  {
   "access" : "protected",
   "function_name" : "llvm::SmallVectorTemplateCommon<const llvm::GCOVBlock *, void>::resetToSmall",
   "linker_set_key" : "_ZN4llvm25SmallVectorTemplateCommonIPKNS_9GCOVBlockEvE12resetToSmallEv",
   "parameters" :
   [
    {
     "is_this_ptr" : true,
     "referenced_type" : "_ZTIPN4llvm25SmallVectorTemplateCommonIPKNS_9GCOVBlockEvEE"
    }
   ],
   "return_type" : "_ZTIv",
   "source_file" : "external/llvm/include/llvm/ADT/SmallVector.h"
  },
  {
   "function_name" : "llvm::SmallVectorTemplateCommon<const llvm::GCOVBlock *, void>::end",
   "linker_set_key" : "_ZN4llvm25SmallVectorTemplateCommonIPKNS_9GCOVBlockEvE3endEv",
   "parameters" :
   [
    {
     "is_this_ptr" : true,
     "referenced_type" : "_ZTIPN4llvm25SmallVectorTemplateCommonIPKNS_9GCOVBlockEvEE"
    }
   ],
   "return_type" : "_ZTIPPKN4llvm9GCOVBlockE",
   "source_file" : "external/llvm/include/llvm/ADT/SmallVector.h"
  },
  {
   "function_name" : "llvm::SmallVectorTemplateCommon<const llvm::GCOVBlock *, void>::begin",
   "linker_set_key" : "_ZN4llvm25SmallVectorTemplateCommonIPKNS_9GCOVBlockEvE5beginEv",
   "parameters" :
   [
    {
     "is_this_ptr" : true,
     "referenced_type" : "_ZTIPN4llvm25SmallVectorTemplateCommonIPKNS_9GCOVBlockEvEE"
    }
   ],
   "return_type" : "_ZTIPPKN4llvm9GCOVBlockE",
   "source_file" : "external/llvm/include/llvm/ADT/SmallVector.h"
  },
  {
   "access" : "protected",
   "function_name" : "llvm::SmallVectorTemplateCommon<const llvm::GCOVBlock *, void>::setEnd",
   "linker_set_key" : "_ZN4llvm25SmallVectorTemplateCommonIPKNS_9GCOVBlockEvE6setEndEPS3_",
   "parameters" :
   [
    {
     "is_this_ptr" : true,
     "referenced_type" : "_ZTIPN4llvm25SmallVectorTemplateCommonIPKNS_9GCOVBlockEvEE"
    },
    {
     "referenced_type" : "_ZTIPPKN4llvm9GCOVBlockE"
    }
   ],
   "return_type" : "_ZTIv",
   "source_file" : "external/llvm/include/llvm/ADT/SmallVector.h"
  },
  {
   "access" : "protected",
   "function_name" : "llvm::SmallVectorTemplateCommon<const llvm::GCOVBlock *, void>::grow_pod",
   "linker_set_key" : "_ZN4llvm25SmallVectorTemplateCommonIPKNS_9GCOVBlockEvE8grow_podEmm",
   "parameters" :
   [
    {
     "is_this_ptr" : true,
     "referenced_type" : "_ZTIPN4llvm25SmallVectorTemplateCommonIPKNS_9GCOVBlockEvEE"
    },
    {
     "referenced_type" : "_ZTIm"
    },
    {
     "referenced_type" : "_ZTIm"
    }
   ],
   "return_type" : "_ZTIv",
   "source_file" : "external/llvm/include/llvm/ADT/SmallVector.h"
  },
  {
   "access" : "protected",
   "function_name" : "llvm::SmallVectorTemplateCommon<const llvm::GCOVBlock *, void>::SmallVectorTemplateCommon",
   "linker_set_key" : "_ZN4llvm25SmallVectorTemplateCommonIPKNS_9GCOVBlockEvEC1Em",
   "parameters" :
   [
    {
     "is_this_ptr" : true,
     "referenced_type" : "_ZTIPN4llvm25SmallVectorTemplateCommonIPKNS_9GCOVBlockEvEE"
    },
    {
     "referenced_type" : "_ZTIm"
    }
   ],
   "return_type" : "_ZTIv",
   "source_file" : "external/llvm/include/llvm/ADT/SmallVector.h"
  },
  {
   "access" : "protected",
   "function_name" : "llvm::SmallVectorTemplateCommon<const llvm::GCOVBlock *, void>::SmallVectorTemplateCommon",
   "linker_set_key" : "_ZN4llvm25SmallVectorTemplateCommonIPKNS_9GCOVBlockEvEC2Em",
   "parameters" :
   [
    {
     "is_this_ptr" : true,
     "referenced_type" : "_ZTIPN4llvm25SmallVectorTemplateCommonIPKNS_9GCOVBlockEvEE"
    },
    {
     "referenced_type" : "_ZTIm"
    }
   ],
   "return_type" : "_ZTIv",
   "source_file" : "external/llvm/include/llvm/ADT/SmallVector.h"
  },
  {
   "function_name" : "llvm::SmallVectorTemplateCommon<llvm::GCOVEdge *, void>::end",
   "linker_set_key" : "_ZN4llvm25SmallVectorTemplateCommonIPNS_8GCOVEdgeEvE3endEv",
   "parameters" :
   [
    {
     "is_this_ptr" : true,
     "referenced_type" : "_ZTIPN4llvm25SmallVectorTemplateCommonIPNS_8GCOVEdgeEvEE"
    }
   ],
   "return_type" : "_ZTIPPN4llvm8GCOVEdgeE",
   "source_file" : "external/llvm/include/llvm/ADT/SmallVector.h"
  },
  {
   "function_name" : "llvm::SmallVectorTemplateCommon<llvm::GCOVEdge *, void>::back",
   "linker_set_key" : "_ZN4llvm25SmallVectorTemplateCommonIPNS_8GCOVEdgeEvE4backEv",
   "parameters" :
   [
    {
     "is_this_ptr" : true,
     "referenced_type" : "_ZTIPN4llvm25SmallVectorTemplateCommonIPNS_8GCOVEdgeEvEE"
    }
   ],
   "return_type" : "_ZTIRPN4llvm8GCOVEdgeE",
   "source_file" : "external/llvm/include/llvm/ADT/SmallVector.h"
  },
  {
   "function_name" : "llvm::SmallVectorTemplateCommon<llvm::GCOVEdge *, void>::begin",
   "linker_set_key" : "_ZN4llvm25SmallVectorTemplateCommonIPNS_8GCOVEdgeEvE5beginEv",
   "parameters" :
   [
    {
     "is_this_ptr" : true,
     "referenced_type" : "_ZTIPN4llvm25SmallVectorTemplateCommonIPNS_8GCOVEdgeEvEE"
    }
   ],
   "return_type" : "_ZTIPPN4llvm8GCOVEdgeE",
   "source_file" : "external/llvm/include/llvm/ADT/SmallVector.h"
  },
  {
   "access" : "protected",
   "function_name" : "llvm::SmallVectorTemplateCommon<llvm::GCOVEdge *, void>::setEnd",
   "linker_set_key" : "_ZN4llvm25SmallVectorTemplateCommonIPNS_8GCOVEdgeEvE6setEndEPS2_",
   "parameters" :
   [
    {
     "is_this_ptr" : true,
     "referenced_type" : "_ZTIPN4llvm25SmallVectorTemplateCommonIPNS_8GCOVEdgeEvEE"
    },
    {
     "referenced_type" : "_ZTIPPN4llvm8GCOVEdgeE"
    }
   ],
   "return_type" : "_ZTIv",
   "source_file" : "external/llvm/include/llvm/ADT/SmallVector.h"
  },
  {
   "access" : "protected",
   "function_name" : "llvm::SmallVectorTemplateCommon<llvm::GCOVEdge *, void>::grow_pod",
   "linker_set_key" : "_ZN4llvm25SmallVectorTemplateCommonIPNS_8GCOVEdgeEvE8grow_podEmm",
   "parameters" :
   [
    {
     "is_this_ptr" : true,
     "referenced_type" : "_ZTIPN4llvm25SmallVectorTemplateCommonIPNS_8GCOVEdgeEvEE"
    },
    {
     "referenced_type" : "_ZTIm"
    },
    {
     "referenced_type" : "_ZTIm"
    }
   ],
   "return_type" : "_ZTIv",
   "source_file" : "external/llvm/include/llvm/ADT/SmallVector.h"
  },
  {
   "access" : "protected",
   "function_name" : "llvm::SmallVectorTemplateCommon<llvm::GCOVEdge *, void>::SmallVectorTemplateCommon",
   "linker_set_key" : "_ZN4llvm25SmallVectorTemplateCommonIPNS_8GCOVEdgeEvEC1Em",
   "parameters" :
   [
    {
     "is_this_ptr" : true,
     "referenced_type" : "_ZTIPN4llvm25SmallVectorTemplateCommonIPNS_8GCOVEdgeEvEE"
    },
    {
     "referenced_type" : "_ZTIm"
    }
   ],
   "return_type" : "_ZTIv",
   "source_file" : "external/llvm/include/llvm/ADT/SmallVector.h"
  },
  {
   "access" : "protected",
   "function_name" : "llvm::SmallVectorTemplateCommon<llvm::GCOVEdge *, void>::SmallVectorTemplateCommon",
   "linker_set_key" : "_ZN4llvm25SmallVectorTemplateCommonIPNS_8GCOVEdgeEvEC2Em",
   "parameters" :
   [
    {
     "is_this_ptr" : true,
     "referenced_type" : "_ZTIPN4llvm25SmallVectorTemplateCommonIPNS_8GCOVEdgeEvEE"
    },
    {
     "referenced_type" : "_ZTIm"
    }
   ],
   "return_type" : "_ZTIv",
   "source_file" : "external/llvm/include/llvm/ADT/SmallVector.h"
  },
  {
   "function_name" : "llvm::SmallVectorTemplateCommon<llvm::GCOVEdge *, void>::operator[]",
   "linker_set_key" : "_ZN4llvm25SmallVectorTemplateCommonIPNS_8GCOVEdgeEvEixEm",
   "parameters" :
   [
    {
     "is_this_ptr" : true,
     "referenced_type" : "_ZTIPN4llvm25SmallVectorTemplateCommonIPNS_8GCOVEdgeEvEE"
    },
    {
     "referenced_type" : "_ZTIm"
    }
   ],
   "return_type" : "_ZTIRPN4llvm8GCOVEdgeE",
   "source_file" : "external/llvm/include/llvm/ADT/SmallVector.h"
  },
  {
   "access" : "protected",
   "function_name" : "llvm::SmallVectorTemplateCommon<char, void>::capacity_ptr",
   "linker_set_key" : "_ZN4llvm25SmallVectorTemplateCommonIcvE12capacity_ptrEv",
   "parameters" :
   [
    {
     "is_this_ptr" : true,
     "referenced_type" : "_ZTIPN4llvm25SmallVectorTemplateCommonIcvEE"
    }
   ],
   "return_type" : "_ZTIPc",
   "source_file" : "external/llvm/include/llvm/ADT/SmallVector.h"
  },
  {
   "function_name" : "llvm::SmallVectorTemplateCommon<char, void>::end",
   "linker_set_key" : "_ZN4llvm25SmallVectorTemplateCommonIcvE3endEv",
   "parameters" :
   [
    {
     "is_this_ptr" : true,
     "referenced_type" : "_ZTIPN4llvm25SmallVectorTemplateCommonIcvEE"
    }
   ],
   "return_type" : "_ZTIPc",
   "source_file" : "external/llvm/include/llvm/ADT/SmallVector.h"
  },
  {
   "function_name" : "llvm::SmallVectorTemplateCommon<char, void>::data",
   "linker_set_key" : "_ZN4llvm25SmallVectorTemplateCommonIcvE4dataEv",
   "parameters" :
   [
    {
     "is_this_ptr" : true,
     "referenced_type" : "_ZTIPN4llvm25SmallVectorTemplateCommonIcvEE"
    }
   ],
   "return_type" : "_ZTIPc",
   "source_file" : "external/llvm/include/llvm/ADT/SmallVector.h"
  },
  {
   "function_name" : "llvm::SmallVectorTemplateCommon<char, void>::begin",
   "linker_set_key" : "_ZN4llvm25SmallVectorTemplateCommonIcvE5beginEv",
   "parameters" :
   [
    {
     "is_this_ptr" : true,
     "referenced_type" : "_ZTIPN4llvm25SmallVectorTemplateCommonIcvEE"
    }
   ],
   "return_type" : "_ZTIPc",
   "source_file" : "external/llvm/include/llvm/ADT/SmallVector.h"
  },
  {
   "access" : "protected",
   "function_name" : "llvm::SmallVectorTemplateCommon<char, void>::setEnd",
   "linker_set_key" : "_ZN4llvm25SmallVectorTemplateCommonIcvE6setEndEPc",
   "parameters" :
   [
    {
     "is_this_ptr" : true,
     "referenced_type" : "_ZTIPN4llvm25SmallVectorTemplateCommonIcvEE"
    },
    {
     "referenced_type" : "_ZTIPc"
    }
   ],
   "return_type" : "_ZTIv",
   "source_file" : "external/llvm/include/llvm/ADT/SmallVector.h"
  },
  {
   "access" : "protected",
   "function_name" : "llvm::SmallVectorTemplateCommon<char, void>::grow_pod",
   "linker_set_key" : "_ZN4llvm25SmallVectorTemplateCommonIcvE8grow_podEmm",
   "parameters" :
   [
    {
     "is_this_ptr" : true,
     "referenced_type" : "_ZTIPN4llvm25SmallVectorTemplateCommonIcvEE"
    },
    {
     "referenced_type" : "_ZTIm"
    },
    {
     "referenced_type" : "_ZTIm"
    }
   ],
   "return_type" : "_ZTIv",
   "source_file" : "external/llvm/include/llvm/ADT/SmallVector.h"
  },
  {
   "access" : "protected",
   "function_name" : "llvm::SmallVectorTemplateCommon<char, void>::SmallVectorTemplateCommon",
   "linker_set_key" : "_ZN4llvm25SmallVectorTemplateCommonIcvEC1Em",
   "parameters" :
   [
    {
     "is_this_ptr" : true,
     "referenced_type" : "_ZTIPN4llvm25SmallVectorTemplateCommonIcvEE"
    },
    {
     "referenced_type" : "_ZTIm"
    }
   ],
   "return_type" : "_ZTIv",
   "source_file" : "external/llvm/include/llvm/ADT/SmallVector.h"
  },
  {
   "access" : "protected",
   "function_name" : "llvm::SmallVectorTemplateCommon<char, void>::SmallVectorTemplateCommon",
   "linker_set_key" : "_ZN4llvm25SmallVectorTemplateCommonIcvEC2Em",
   "parameters" :
   [
    {
     "is_this_ptr" : true,
     "referenced_type" : "_ZTIPN4llvm25SmallVectorTemplateCommonIcvEE"
    },
    {
     "referenced_type" : "_ZTIm"
    }
   ],
   "return_type" : "_ZTIv",
   "source_file" : "external/llvm/include/llvm/ADT/SmallVector.h"
  },
  {
   "function_name" : "llvm::SmallVectorTemplateCommon<unsigned int, void>::end",
   "linker_set_key" : "_ZN4llvm25SmallVectorTemplateCommonIjvE3endEv",
   "parameters" :
   [
    {
     "is_this_ptr" : true,
     "referenced_type" : "_ZTIPN4llvm25SmallVectorTemplateCommonIjvEE"
    }
   ],
   "return_type" : "_ZTIPj",
   "source_file" : "external/llvm/include/llvm/ADT/SmallVector.h"
  },
  {
   "function_name" : "llvm::SmallVectorTemplateCommon<unsigned int, void>::begin",
   "linker_set_key" : "_ZN4llvm25SmallVectorTemplateCommonIjvE5beginEv",
   "parameters" :
   [
    {
     "is_this_ptr" : true,
     "referenced_type" : "_ZTIPN4llvm25SmallVectorTemplateCommonIjvEE"
    }
   ],
   "return_type" : "_ZTIPj",
   "source_file" : "external/llvm/include/llvm/ADT/SmallVector.h"
  },
  {
   "access" : "protected",
   "function_name" : "llvm::SmallVectorTemplateCommon<unsigned int, void>::setEnd",
   "linker_set_key" : "_ZN4llvm25SmallVectorTemplateCommonIjvE6setEndEPj",
   "parameters" :
   [
    {
     "is_this_ptr" : true,
     "referenced_type" : "_ZTIPN4llvm25SmallVectorTemplateCommonIjvEE"
    },
    {
     "referenced_type" : "_ZTIPj"
    }
   ],
   "return_type" : "_ZTIv",
   "source_file" : "external/llvm/include/llvm/ADT/SmallVector.h"
  },
  {
   "access" : "protected",
   "function_name" : "llvm::SmallVectorTemplateCommon<unsigned int, void>::grow_pod",
   "linker_set_key" : "_ZN4llvm25SmallVectorTemplateCommonIjvE8grow_podEmm",
   "parameters" :
   [
    {
     "is_this_ptr" : true,
     "referenced_type" : "_ZTIPN4llvm25SmallVectorTemplateCommonIjvEE"
    },
    {
     "referenced_type" : "_ZTIm"
    },
    {
     "referenced_type" : "_ZTIm"
    }
   ],
   "return_type" : "_ZTIv",
   "source_file" : "external/llvm/include/llvm/ADT/SmallVector.h"
  },
  {
   "access" : "protected",
   "function_name" : "llvm::SmallVectorTemplateCommon<unsigned int, void>::SmallVectorTemplateCommon",
   "linker_set_key" : "_ZN4llvm25SmallVectorTemplateCommonIjvEC1Em",
   "parameters" :
   [
    {
     "is_this_ptr" : true,
     "referenced_type" : "_ZTIPN4llvm25SmallVectorTemplateCommonIjvEE"
    },
    {
     "referenced_type" : "_ZTIm"
    }
   ],
   "return_type" : "_ZTIv",
   "source_file" : "external/llvm/include/llvm/ADT/SmallVector.h"
  },
  {
   "access" : "protected",
   "function_name" : "llvm::SmallVectorTemplateCommon<unsigned int, void>::SmallVectorTemplateCommon",
   "linker_set_key" : "_ZN4llvm25SmallVectorTemplateCommonIjvEC2Em",
   "parameters" :
   [
    {
     "is_this_ptr" : true,
     "referenced_type" : "_ZTIPN4llvm25SmallVectorTemplateCommonIjvEE"
    },
    {
     "referenced_type" : "_ZTIm"
    }
   ],
   "return_type" : "_ZTIv",
   "source_file" : "external/llvm/include/llvm/ADT/SmallVector.h"
  },
  {
   "function_name" : "llvm::SmallVectorTemplateCommon<unsigned long, void>::end",
   "linker_set_key" : "_ZN4llvm25SmallVectorTemplateCommonImvE3endEv",
   "parameters" :
   [
    {
     "is_this_ptr" : true,
     "referenced_type" : "_ZTIPN4llvm25SmallVectorTemplateCommonImvEE"
    }
   ],
   "return_type" : "_ZTIPm",
   "source_file" : "external/llvm/include/llvm/ADT/SmallVector.h"
  },
  {
   "function_name" : "llvm::SmallVectorTemplateCommon<unsigned long, void>::begin",
   "linker_set_key" : "_ZN4llvm25SmallVectorTemplateCommonImvE5beginEv",
   "parameters" :
   [
    {
     "is_this_ptr" : true,
     "referenced_type" : "_ZTIPN4llvm25SmallVectorTemplateCommonImvEE"
    }
   ],
   "return_type" : "_ZTIPm",
   "source_file" : "external/llvm/include/llvm/ADT/SmallVector.h"
  },
  {
   "access" : "protected",
   "function_name" : "llvm::SmallVectorTemplateCommon<unsigned long, void>::setEnd",
   "linker_set_key" : "_ZN4llvm25SmallVectorTemplateCommonImvE6setEndEPm",
   "parameters" :
   [
    {
     "is_this_ptr" : true,
     "referenced_type" : "_ZTIPN4llvm25SmallVectorTemplateCommonImvEE"
    },
    {
     "referenced_type" : "_ZTIPm"
    }
   ],
   "return_type" : "_ZTIv",
   "source_file" : "external/llvm/include/llvm/ADT/SmallVector.h"
  },
  {
   "access" : "protected",
   "function_name" : "llvm::SmallVectorTemplateCommon<unsigned long, void>::grow_pod",
   "linker_set_key" : "_ZN4llvm25SmallVectorTemplateCommonImvE8grow_podEmm",
   "parameters" :
   [
    {
     "is_this_ptr" : true,
     "referenced_type" : "_ZTIPN4llvm25SmallVectorTemplateCommonImvEE"
    },
    {
     "referenced_type" : "_ZTIm"
    },
    {
     "referenced_type" : "_ZTIm"
    }
   ],
   "return_type" : "_ZTIv",
   "source_file" : "external/llvm/include/llvm/ADT/SmallVector.h"
  },
  {
   "access" : "protected",
   "function_name" : "llvm::SmallVectorTemplateCommon<unsigned long, void>::SmallVectorTemplateCommon",
   "linker_set_key" : "_ZN4llvm25SmallVectorTemplateCommonImvEC1Em",
   "parameters" :
   [
    {
     "is_this_ptr" : true,
     "referenced_type" : "_ZTIPN4llvm25SmallVectorTemplateCommonImvEE"
    },
    {
     "referenced_type" : "_ZTIm"
    }
   ],
   "return_type" : "_ZTIv",
   "source_file" : "external/llvm/include/llvm/ADT/SmallVector.h"
  },
  {
   "access" : "protected",
   "function_name" : "llvm::SmallVectorTemplateCommon<unsigned long, void>::SmallVectorTemplateCommon",
   "linker_set_key" : "_ZN4llvm25SmallVectorTemplateCommonImvEC2Em",
   "parameters" :
   [
    {
     "is_this_ptr" : true,
     "referenced_type" : "_ZTIPN4llvm25SmallVectorTemplateCommonImvEE"
    },
    {
     "referenced_type" : "_ZTIm"
    }
   ],
   "return_type" : "_ZTIv",
   "source_file" : "external/llvm/include/llvm/ADT/SmallVector.h"
  },
  {
   "function_name" : "llvm::sys::MemoryBlock::MemoryBlock",
   "linker_set_key" : "_ZN4llvm3sys11MemoryBlockC1EPvm",
   "parameters" :
   [
    {
     "is_this_ptr" : true,
     "referenced_type" : "_ZTIPN4llvm3sys11MemoryBlockE"
    },
    {
     "referenced_type" : "_ZTIPv"
    },
    {
     "referenced_type" : "_ZTIm"
    }
   ],
   "return_type" : "_ZTIv",
   "source_file" : "external/llvm/include/llvm/Support/Memory.h"
  },
  {
   "function_name" : "llvm::sys::MemoryBlock::MemoryBlock",
   "linker_set_key" : "_ZN4llvm3sys11MemoryBlockC1Ev",
   "parameters" :
   [
    {
     "is_this_ptr" : true,
     "referenced_type" : "_ZTIPN4llvm3sys11MemoryBlockE"
    }
   ],
   "return_type" : "_ZTIv",
   "source_file" : "external/llvm/include/llvm/Support/Memory.h"
  },
  {
   "function_name" : "llvm::sys::MemoryBlock::MemoryBlock",
   "linker_set_key" : "_ZN4llvm3sys11MemoryBlockC2EPvm",
   "parameters" :
   [
    {
     "is_this_ptr" : true,
     "referenced_type" : "_ZTIPN4llvm3sys11MemoryBlockE"
    },
    {
     "referenced_type" : "_ZTIPv"
    },
    {
     "referenced_type" : "_ZTIm"
    }
   ],
   "return_type" : "_ZTIv",
   "source_file" : "external/llvm/include/llvm/Support/Memory.h"
  },
  {
   "function_name" : "llvm::sys::MemoryBlock::MemoryBlock",
   "linker_set_key" : "_ZN4llvm3sys11MemoryBlockC2Ev",
   "parameters" :
   [
    {
     "is_this_ptr" : true,
     "referenced_type" : "_ZTIPN4llvm3sys11MemoryBlockE"
    }
   ],
   "return_type" : "_ZTIv",
   "source_file" : "external/llvm/include/llvm/Support/Memory.h"
  },
  {
   "function_name" : "llvm::sys::swapByteOrder",
   "linker_set_key" : "_ZN4llvm3sys13swapByteOrderIjEEvRT_",
   "parameters" :
   [
    {
     "referenced_type" : "_ZTIRj"
    }
   ],
   "return_type" : "_ZTIv",
   "source_file" : "external/llvm/include/llvm/Support/SwapByteOrder.h",
   "template_args" : [ "_ZTIj" ]
  },
  {
   "function_name" : "llvm::sys::swapByteOrder",
   "linker_set_key" : "_ZN4llvm3sys13swapByteOrderImEEvRT_",
   "parameters" :
   [
    {
     "referenced_type" : "_ZTIRm"
    }
   ],
   "return_type" : "_ZTIv",
   "source_file" : "external/llvm/include/llvm/Support/SwapByteOrder.h",
   "template_args" : [ "_ZTIm" ]
  },
  {
   "function_name" : "llvm::sys::getSwappedBytes",
   "linker_set_key" : "_ZN4llvm3sys15getSwappedBytesEa",
   "parameters" :
   [
    {
     "referenced_type" : "_ZTIa"
    }
   ],
   "return_type" : "_ZTIa",
   "source_file" : "external/llvm/include/llvm/Support/SwapByteOrder.h"
  },
  {
   "function_name" : "llvm::sys::getSwappedBytes",
   "linker_set_key" : "_ZN4llvm3sys15getSwappedBytesEc",
   "parameters" :
   [
    {
     "referenced_type" : "_ZTIc"
    }
   ],
   "return_type" : "_ZTIc",
   "source_file" : "external/llvm/include/llvm/Support/SwapByteOrder.h"
  },
  {
   "function_name" : "llvm::sys::getSwappedBytes",
   "linker_set_key" : "_ZN4llvm3sys15getSwappedBytesEd",
   "parameters" :
   [
    {
     "referenced_type" : "_ZTId"
    }
   ],
   "return_type" : "_ZTId",
   "source_file" : "external/llvm/include/llvm/Support/SwapByteOrder.h"
  },
  {
   "function_name" : "llvm::sys::getSwappedBytes",
   "linker_set_key" : "_ZN4llvm3sys15getSwappedBytesEf",
   "parameters" :
   [
    {
     "referenced_type" : "_ZTIf"
    }
   ],
   "return_type" : "_ZTIf",
   "source_file" : "external/llvm/include/llvm/Support/SwapByteOrder.h"
  },
  {
   "function_name" : "llvm::sys::getSwappedBytes",
   "linker_set_key" : "_ZN4llvm3sys15getSwappedBytesEh",
   "parameters" :
   [
    {
     "referenced_type" : "_ZTIh"
    }
   ],
   "return_type" : "_ZTIh",
   "source_file" : "external/llvm/include/llvm/Support/SwapByteOrder.h"
  },
  {
   "function_name" : "llvm::sys::getSwappedBytes",
   "linker_set_key" : "_ZN4llvm3sys15getSwappedBytesEi",
   "parameters" :
   [
    {
     "referenced_type" : "_ZTIi"
    }
   ],
   "return_type" : "_ZTIi",
   "source_file" : "external/llvm/include/llvm/Support/SwapByteOrder.h"
  },
  {
   "function_name" : "llvm::sys::getSwappedBytes",
   "linker_set_key" : "_ZN4llvm3sys15getSwappedBytesEj",
   "parameters" :
   [
    {
     "referenced_type" : "_ZTIj"
    }
   ],
   "return_type" : "_ZTIj",
   "source_file" : "external/llvm/include/llvm/Support/SwapByteOrder.h"
  },
  {
   "function_name" : "llvm::sys::getSwappedBytes",
   "linker_set_key" : "_ZN4llvm3sys15getSwappedBytesEl",
   "parameters" :
   [
    {
     "referenced_type" : "_ZTIl"
    }
   ],
   "return_type" : "_ZTIl",
   "source_file" : "external/llvm/include/llvm/Support/SwapByteOrder.h"
  },
  {
   "function_name" : "llvm::sys::getSwappedBytes",
   "linker_set_key" : "_ZN4llvm3sys15getSwappedBytesEm",
   "parameters" :
   [
    {
     "referenced_type" : "_ZTIm"
    }
   ],
   "return_type" : "_ZTIm",
   "source_file" : "external/llvm/include/llvm/Support/SwapByteOrder.h"
  },
  {
   "function_name" : "llvm::sys::getSwappedBytes",
   "linker_set_key" : "_ZN4llvm3sys15getSwappedBytesEs",
   "parameters" :
   [
    {
     "referenced_type" : "_ZTIs"
    }
   ],
   "return_type" : "_ZTIs",
   "source_file" : "external/llvm/include/llvm/Support/SwapByteOrder.h"
  },
  {
   "function_name" : "llvm::sys::getSwappedBytes",
   "linker_set_key" : "_ZN4llvm3sys15getSwappedBytesEt",
   "parameters" :
   [
    {
     "referenced_type" : "_ZTIt"
    }
   ],
   "return_type" : "_ZTIt",
   "source_file" : "external/llvm/include/llvm/Support/SwapByteOrder.h"
  },
  {
   "function_name" : "llvm::sys::getSwappedBytes",
   "linker_set_key" : "_ZN4llvm3sys15getSwappedBytesEx",
   "parameters" :
   [
    {
     "referenced_type" : "_ZTIx"
    }
   ],
   "return_type" : "_ZTIx",
   "source_file" : "external/llvm/include/llvm/Support/SwapByteOrder.h"
  },
  {
   "function_name" : "llvm::sys::getSwappedBytes",
   "linker_set_key" : "_ZN4llvm3sys15getSwappedBytesEy",
   "parameters" :
   [
    {
     "referenced_type" : "_ZTIy"
    }
   ],
   "return_type" : "_ZTIy",
   "source_file" : "external/llvm/include/llvm/Support/SwapByteOrder.h"
  },
  {
   "function_name" : "llvm::sys::SwapByteOrder_16",
   "linker_set_key" : "_ZN4llvm3sys16SwapByteOrder_16Et",
   "parameters" :
   [
    {
     "referenced_type" : "_ZTIt"
    }
   ],
   "return_type" : "_ZTIt",
   "source_file" : "external/llvm/include/llvm/Support/SwapByteOrder.h"
  },
  {
   "function_name" : "llvm::sys::SwapByteOrder_32",
   "linker_set_key" : "_ZN4llvm3sys16SwapByteOrder_32Ej",
   "parameters" :
   [
    {
     "referenced_type" : "_ZTIj"
    }
   ],
   "return_type" : "_ZTIj",
   "source_file" : "external/llvm/include/llvm/Support/SwapByteOrder.h"
  },
  {
   "function_name" : "llvm::sys::SwapByteOrder_64",
   "linker_set_key" : "_ZN4llvm3sys16SwapByteOrder_64Em",
   "parameters" :
   [
    {
     "referenced_type" : "_ZTIm"
    }
   ],
   "return_type" : "_ZTIm",
   "source_file" : "external/llvm/include/llvm/Support/SwapByteOrder.h"
  },
  {
   "function_name" : "llvm::sys::OwningMemoryBlock::OwningMemoryBlock",
   "linker_set_key" : "_ZN4llvm3sys17OwningMemoryBlockC1ENS0_11MemoryBlockE",
   "parameters" :
   [
    {
     "is_this_ptr" : true,
     "referenced_type" : "_ZTIPN4llvm3sys17OwningMemoryBlockE"
    },
    {
     "referenced_type" : "_ZTIN4llvm3sys11MemoryBlockE"
    }
   ],
   "return_type" : "_ZTIv",
   "source_file" : "external/llvm/include/llvm/Support/Memory.h"
  },
  {
   "function_name" : "llvm::sys::OwningMemoryBlock::OwningMemoryBlock",
   "linker_set_key" : "_ZN4llvm3sys17OwningMemoryBlockC1EOS1_",
   "parameters" :
   [
    {
     "is_this_ptr" : true,
     "referenced_type" : "_ZTIPN4llvm3sys17OwningMemoryBlockE"
    },
    {
     "referenced_type" : "_ZTION4llvm3sys17OwningMemoryBlockE"
    }
   ],
   "return_type" : "_ZTIv",
   "source_file" : "external/llvm/include/llvm/Support/Memory.h"
  },
  {
   "function_name" : "llvm::sys::OwningMemoryBlock::OwningMemoryBlock",
   "linker_set_key" : "_ZN4llvm3sys17OwningMemoryBlockC1Ev",
   "parameters" :
   [
    {
     "is_this_ptr" : true,
     "referenced_type" : "_ZTIPN4llvm3sys17OwningMemoryBlockE"
    }
   ],
   "return_type" : "_ZTIv",
   "source_file" : "external/llvm/include/llvm/Support/Memory.h"
  },
  {
   "function_name" : "llvm::sys::OwningMemoryBlock::OwningMemoryBlock",
   "linker_set_key" : "_ZN4llvm3sys17OwningMemoryBlockC2ENS0_11MemoryBlockE",
   "parameters" :
   [
    {
     "is_this_ptr" : true,
     "referenced_type" : "_ZTIPN4llvm3sys17OwningMemoryBlockE"
    },
    {
     "referenced_type" : "_ZTIN4llvm3sys11MemoryBlockE"
    }
   ],
   "return_type" : "_ZTIv",
   "source_file" : "external/llvm/include/llvm/Support/Memory.h"
  },
  {
   "function_name" : "llvm::sys::OwningMemoryBlock::OwningMemoryBlock",
   "linker_set_key" : "_ZN4llvm3sys17OwningMemoryBlockC2EOS1_",
   "parameters" :
   [
    {
     "is_this_ptr" : true,
     "referenced_type" : "_ZTIPN4llvm3sys17OwningMemoryBlockE"
    },
    {
     "referenced_type" : "_ZTION4llvm3sys17OwningMemoryBlockE"
    }
   ],
   "return_type" : "_ZTIv",
   "source_file" : "external/llvm/include/llvm/Support/Memory.h"
  },
  {
   "function_name" : "llvm::sys::OwningMemoryBlock::OwningMemoryBlock",
   "linker_set_key" : "_ZN4llvm3sys17OwningMemoryBlockC2Ev",
   "parameters" :
   [
    {
     "is_this_ptr" : true,
     "referenced_type" : "_ZTIPN4llvm3sys17OwningMemoryBlockE"
    }
   ],
   "return_type" : "_ZTIv",
   "source_file" : "external/llvm/include/llvm/Support/Memory.h"
  },
  {
   "function_name" : "llvm::sys::OwningMemoryBlock::~OwningMemoryBlock",
   "linker_set_key" : "_ZN4llvm3sys17OwningMemoryBlockD1Ev",
   "parameters" :
   [
    {
     "is_this_ptr" : true,
     "referenced_type" : "_ZTIPN4llvm3sys17OwningMemoryBlockE"
    }
   ],
   "return_type" : "_ZTIv",
   "source_file" : "external/llvm/include/llvm/Support/Memory.h"
  },
  {
   "function_name" : "llvm::sys::OwningMemoryBlock::~OwningMemoryBlock",
   "linker_set_key" : "_ZN4llvm3sys17OwningMemoryBlockD2Ev",
   "parameters" :
   [
    {
     "is_this_ptr" : true,
     "referenced_type" : "_ZTIPN4llvm3sys17OwningMemoryBlockE"
    }
   ],
   "return_type" : "_ZTIv",
   "source_file" : "external/llvm/include/llvm/Support/Memory.h"
  },
  {
   "function_name" : "llvm::sys::OwningMemoryBlock::operator=",
   "linker_set_key" : "_ZN4llvm3sys17OwningMemoryBlockaSEOS1_",
   "parameters" :
   [
    {
     "is_this_ptr" : true,
     "referenced_type" : "_ZTIPN4llvm3sys17OwningMemoryBlockE"
    },
    {
     "referenced_type" : "_ZTION4llvm3sys17OwningMemoryBlockE"
    }
   ],
   "return_type" : "_ZTIRN4llvm3sys17OwningMemoryBlockE",
   "source_file" : "external/llvm/include/llvm/Support/Memory.h"
  },
  {
   "function_name" : "llvm::sys::fs::equivalent",
   "linker_set_key" : "_ZN4llvm3sys2fs10equivalentERKNS_5TwineES4_",
   "parameters" :
   [
    {
     "referenced_type" : "_ZTIRKN4llvm5TwineE"
    },
    {
     "referenced_type" : "_ZTIRKN4llvm5TwineE"
    }
   ],
   "return_type" : "_ZTIb",
   "source_file" : "external/llvm/include/llvm/Support/FileSystem.h"
  },
  {
   "function_name" : "llvm::sys::fs::file_magic::file_magic",
   "linker_set_key" : "_ZN4llvm3sys2fs10file_magicC1ENS2_4ImplE",
   "parameters" :
   [
    {
     "is_this_ptr" : true,
     "referenced_type" : "_ZTIPN4llvm3sys2fs10file_magicE"
    },
    {
     "referenced_type" : "_ZTIN4llvm3sys2fs10file_magic4ImplE"
    }
   ],
   "return_type" : "_ZTIv",
   "source_file" : "external/llvm/include/llvm/Support/FileSystem.h"
  },
  {
   "function_name" : "llvm::sys::fs::file_magic::file_magic",
   "linker_set_key" : "_ZN4llvm3sys2fs10file_magicC1Ev",
   "parameters" :
   [
    {
     "is_this_ptr" : true,
     "referenced_type" : "_ZTIPN4llvm3sys2fs10file_magicE"
    }
   ],
   "return_type" : "_ZTIv",
   "source_file" : "external/llvm/include/llvm/Support/FileSystem.h"
  },
  {
   "function_name" : "llvm::sys::fs::file_magic::file_magic",
   "linker_set_key" : "_ZN4llvm3sys2fs10file_magicC2ENS2_4ImplE",
   "parameters" :
   [
    {
     "is_this_ptr" : true,
     "referenced_type" : "_ZTIPN4llvm3sys2fs10file_magicE"
    },
    {
     "referenced_type" : "_ZTIN4llvm3sys2fs10file_magic4ImplE"
    }
   ],
   "return_type" : "_ZTIv",
   "source_file" : "external/llvm/include/llvm/Support/FileSystem.h"
  },
  {
   "function_name" : "llvm::sys::fs::file_magic::file_magic",
   "linker_set_key" : "_ZN4llvm3sys2fs10file_magicC2Ev",
   "parameters" :
   [
    {
     "is_this_ptr" : true,
     "referenced_type" : "_ZTIPN4llvm3sys2fs10file_magicE"
    }
   ],
   "return_type" : "_ZTIv",
   "source_file" : "external/llvm/include/llvm/Support/FileSystem.h"
  },
  {
   "function_name" : "llvm::sys::fs::file_status::permissions",
   "linker_set_key" : "_ZN4llvm3sys2fs11file_status11permissionsENS1_5permsE",
   "parameters" :
   [
    {
     "is_this_ptr" : true,
     "referenced_type" : "_ZTIPN4llvm3sys2fs11file_statusE"
    },
    {
     "referenced_type" : "_ZTIN4llvm3sys2fs5permsE"
    }
   ],
   "return_type" : "_ZTIv",
   "source_file" : "external/llvm/include/llvm/Support/FileSystem.h"
  },
  {
   "function_name" : "llvm::sys::fs::file_status::type",
   "linker_set_key" : "_ZN4llvm3sys2fs11file_status4typeENS1_9file_typeE",
   "parameters" :
   [
    {
     "is_this_ptr" : true,
     "referenced_type" : "_ZTIPN4llvm3sys2fs11file_statusE"
    },
    {
     "referenced_type" : "_ZTIN4llvm3sys2fs9file_typeE"
    }
   ],
   "return_type" : "_ZTIv",
   "source_file" : "external/llvm/include/llvm/Support/FileSystem.h"
  },
  {
   "function_name" : "llvm::sys::fs::file_status::file_status",
   "linker_set_key" : "_ZN4llvm3sys2fs11file_statusC1ENS1_9file_typeE",
   "parameters" :
   [
    {
     "is_this_ptr" : true,
     "referenced_type" : "_ZTIPN4llvm3sys2fs11file_statusE"
    },
    {
     "referenced_type" : "_ZTIN4llvm3sys2fs9file_typeE"
    }
   ],
