{
 "array_types" : [],
 "builtin_types" :
 [
  {
   "alignment" : 1,
   "is_integral" : true,
   "is_unsigned" : true,
   "linker_set_key" : "_ZTIb",
   "name" : "bool",
   "referenced_type" : "_ZTIb",
   "self_type" : "_ZTIb",
   "size" : 1
  },
  {
   "alignment" : 1,
   "is_integral" : true,
   "is_unsigned" : true,
   "linker_set_key" : "_ZTIc",
   "name" : "char",
   "referenced_type" : "_ZTIc",
   "self_type" : "_ZTIc",
   "size" : 1
  },
  {
   "alignment" : 1,
   "is_integral" : true,
   "is_unsigned" : true,
   "linker_set_key" : "_ZTIh",
   "name" : "unsigned char",
   "referenced_type" : "_ZTIh",
   "self_type" : "_ZTIh",
   "size" : 1
  },
  {
   "alignment" : 4,
   "is_integral" : true,
   "linker_set_key" : "_ZTIi",
   "name" : "int",
   "referenced_type" : "_ZTIi",
   "self_type" : "_ZTIi",
   "size" : 4
  },
  {
   "alignment" : 4,
   "is_integral" : true,
   "is_unsigned" : true,
   "linker_set_key" : "_ZTIj",
   "name" : "unsigned int",
   "referenced_type" : "_ZTIj",
   "self_type" : "_ZTIj",
   "size" : 4
  },
  {
   "alignment" : 8,
   "is_integral" : true,
   "linker_set_key" : "_ZTIl",
   "name" : "long",
   "referenced_type" : "_ZTIl",
   "self_type" : "_ZTIl",
   "size" : 8
  },
  {
   "alignment" : 8,
   "is_integral" : true,
   "is_unsigned" : true,
   "linker_set_key" : "_ZTIm",
   "name" : "unsigned long",
   "referenced_type" : "_ZTIm",
   "self_type" : "_ZTIm",
   "size" : 8
  },
  {
   "alignment" : 2,
   "is_integral" : true,
   "is_unsigned" : true,
   "linker_set_key" : "_ZTIt",
   "name" : "unsigned short",
   "referenced_type" : "_ZTIt",
   "self_type" : "_ZTIt",
   "size" : 2
  },
  {
   "linker_set_key" : "_ZTIv",
   "name" : "void",
   "referenced_type" : "_ZTIv",
   "self_type" : "_ZTIv"
  }
 ],
 "elf_functions" : [],
 "elf_objects" : [],
 "enum_types" :
 [
  {
   "alignment" : 8,
   "enum_fields" :
   [
    {
     "enum_field_value" : -8,
     "name" : "llvm::PointerIntPairInfo<llvm::User *, 1, llvm::PointerLikeTypeTraits<llvm::User *>>::PointerBitMask"
    },
    {
     "enum_field_value" : 2,
     "name" : "llvm::PointerIntPairInfo<llvm::User *, 1, llvm::PointerLikeTypeTraits<llvm::User *>>::IntShift"
    },
    {
     "enum_field_value" : 1,
     "name" : "llvm::PointerIntPairInfo<llvm::User *, 1, llvm::PointerLikeTypeTraits<llvm::User *>>::IntMask"
    },
    {
     "enum_field_value" : 4,
     "name" : "llvm::PointerIntPairInfo<llvm::User *, 1, llvm::PointerLikeTypeTraits<llvm::User *>>::ShiftedIntMask"
    }
   ],
   "linker_set_key" : "_ZTIN4llvm18PointerIntPairInfoIPNS_4UserELj1ENS_21PointerLikeTypeTraitsIS2_EEE8$IntMaskE",
   "name" : "llvm::PointerIntPairInfo<User *, 1, PointerLikeTypeTraits<User *>>::(anonymous enum at external/llvm/include/llvm/ADT/PointerIntPair.h:131:3)",
   "referenced_type" : "_ZTIN4llvm18PointerIntPairInfoIPNS_4UserELj1ENS_21PointerLikeTypeTraitsIS2_EEE8$IntMaskE",
   "self_type" : "_ZTIN4llvm18PointerIntPairInfoIPNS_4UserELj1ENS_21PointerLikeTypeTraitsIS2_EEE8$IntMaskE",
   "size" : 8,
   "source_file" : "external/llvm/include/llvm/ADT/PointerIntPair.h",
   "underlying_type" : "_ZTIm"
  },
  {
   "alignment" : 8,
   "enum_fields" :
   [
    {
     "enum_field_value" : -4,
     "name" : "llvm::PointerIntPairInfo<llvm::Use **, 2, llvm::PointerLikeTypeTraits<llvm::Use **>>::PointerBitMask"
    },
    {
     "enum_field_value" : 0,
     "name" : "llvm::PointerIntPairInfo<llvm::Use **, 2, llvm::PointerLikeTypeTraits<llvm::Use **>>::IntShift"
    },
    {
     "enum_field_value" : 3,
     "name" : "llvm::PointerIntPairInfo<llvm::Use **, 2, llvm::PointerLikeTypeTraits<llvm::Use **>>::IntMask"
    },
    {
     "enum_field_value" : 3,
     "name" : "llvm::PointerIntPairInfo<llvm::Use **, 2, llvm::PointerLikeTypeTraits<llvm::Use **>>::ShiftedIntMask"
    }
   ],
   "linker_set_key" : "_ZTIN4llvm18PointerIntPairInfoIPPNS_3UseELj2ENS_21PointerLikeTypeTraitsIS3_EEE8$IntMaskE",
   "name" : "llvm::PointerIntPairInfo<Use **, 2, PointerLikeTypeTraits<Use **>>::(anonymous enum at external/llvm/include/llvm/ADT/PointerIntPair.h:131:3)",
   "referenced_type" : "_ZTIN4llvm18PointerIntPairInfoIPPNS_3UseELj2ENS_21PointerLikeTypeTraitsIS3_EEE8$IntMaskE",
   "self_type" : "_ZTIN4llvm18PointerIntPairInfoIPPNS_3UseELj2ENS_21PointerLikeTypeTraitsIS3_EEE8$IntMaskE",
   "size" : 8,
   "source_file" : "external/llvm/include/llvm/ADT/PointerIntPair.h",
   "underlying_type" : "_ZTIm"
  },
  {
   "access" : "protected",
   "alignment" : 4,
   "enum_fields" :
   [
    {
     "enum_field_value" : 1,
     "name" : "llvm::iterator_facade_base<llvm::User::value_op_iterator, std::__1::random_access_iterator_tag, llvm::Value *, long, llvm::Value *, llvm::Value *>::IsRandomAccess"
    },
    {
     "enum_field_value" : 1,
     "name" : "llvm::iterator_facade_base<llvm::User::value_op_iterator, std::__1::random_access_iterator_tag, llvm::Value *, long, llvm::Value *, llvm::Value *>::IsBidirectional"
    }
   ],
   "linker_set_key" : "_ZTIN4llvm20iterator_facade_baseINS_4User17value_op_iteratorENSt3__126random_access_iterator_tagEPNS_5ValueElS6_S6_E16$IsBidirectionalE",
   "name" : "llvm::iterator_facade_base<value_op_iterator, random_access_iterator_tag, Value *, long, Value *, Value *>::(anonymous enum at external/llvm/include/llvm/ADT/iterator.h:42:3)",
   "referenced_type" : "_ZTIN4llvm20iterator_facade_baseINS_4User17value_op_iteratorENSt3__126random_access_iterator_tagEPNS_5ValueElS6_S6_E16$IsBidirectionalE",
   "self_type" : "_ZTIN4llvm20iterator_facade_baseINS_4User17value_op_iteratorENSt3__126random_access_iterator_tagEPNS_5ValueElS6_S6_E16$IsBidirectionalE",
   "size" : 4,
   "source_file" : "external/llvm/include/llvm/ADT/iterator.h",
   "underlying_type" : "_ZTIj"
  },
  {
   "alignment" : 4,
   "enum_fields" :
   [
    {
     "enum_field_value" : 3,
     "name" : "llvm::PointerLikeTypeTraits<llvm::User *>::NumLowBitsAvailable"
    }
   ],
   "linker_set_key" : "_ZTIN4llvm21PointerLikeTypeTraitsIPNS_4UserEE20$NumLowBitsAvailableE",
   "name" : "llvm::PointerLikeTypeTraits<User *>::(anonymous enum at external/llvm/include/llvm/Support/PointerLikeTypeTraits.h:45:3)",
   "referenced_type" : "_ZTIN4llvm21PointerLikeTypeTraitsIPNS_4UserEE20$NumLowBitsAvailableE",
   "self_type" : "_ZTIN4llvm21PointerLikeTypeTraitsIPNS_4UserEE20$NumLowBitsAvailableE",
   "size" : 4,
   "source_file" : "external/llvm/include/llvm/Support/PointerLikeTypeTraits.h",
   "underlying_type" : "_ZTIj"
  },
  {
   "alignment" : 4,
   "enum_fields" :
   [
    {
     "enum_field_value" : 2,
     "name" : "llvm::PointerLikeTypeTraits<llvm::Value *>::NumLowBitsAvailable"
    }
   ],
   "linker_set_key" : "_ZTIN4llvm21PointerLikeTypeTraitsIPNS_5ValueEE20$NumLowBitsAvailableE",
   "name" : "llvm::PointerLikeTypeTraits<Value *>::(anonymous enum at external/llvm/include/llvm/IR/Value.h:795:3)",
   "referenced_type" : "_ZTIN4llvm21PointerLikeTypeTraitsIPNS_5ValueEE20$NumLowBitsAvailableE",
   "self_type" : "_ZTIN4llvm21PointerLikeTypeTraitsIPNS_5ValueEE20$NumLowBitsAvailableE",
   "size" : 4,
   "source_file" : "external/llvm/include/llvm/IR/Value.h",
   "underlying_type" : "_ZTIj"
  },
  {
   "alignment" : 4,
   "enum_fields" :
   [
    {
     "enum_field_value" : 2,
     "name" : "llvm::PointerLikeTypeTraits<llvm::Use **>::NumLowBitsAvailable"
    }
   ],
   "linker_set_key" : "_ZTIN4llvm21PointerLikeTypeTraitsIPPNS_3UseEE20$NumLowBitsAvailableE",
   "name" : "llvm::PointerLikeTypeTraits<Use **>::(anonymous enum at external/llvm/include/llvm/IR/Use.h:46:3)",
   "referenced_type" : "_ZTIN4llvm21PointerLikeTypeTraitsIPPNS_3UseEE20$NumLowBitsAvailableE",
   "self_type" : "_ZTIN4llvm21PointerLikeTypeTraitsIPPNS_3UseEE20$NumLowBitsAvailableE",
   "size" : 4,
   "source_file" : "external/llvm/include/llvm/IR/Use.h",
   "underlying_type" : "_ZTIj"
  },
  {
   "alignment" : 4,
   "enum_fields" :
   [
    {
     "enum_field_value" : 2,
     "name" : "llvm::PointerLikeTypeTraits<void *>::NumLowBitsAvailable"
    }
   ],
   "linker_set_key" : "_ZTIN4llvm21PointerLikeTypeTraitsIPvE20$NumLowBitsAvailableE",
   "name" : "llvm::PointerLikeTypeTraits<void *>::(anonymous enum at external/llvm/include/llvm/Support/PointerLikeTypeTraits.h:62:3)",
   "referenced_type" : "_ZTIN4llvm21PointerLikeTypeTraitsIPvE20$NumLowBitsAvailableE",
   "self_type" : "_ZTIN4llvm21PointerLikeTypeTraitsIPvE20$NumLowBitsAvailableE",
   "size" : 4,
   "source_file" : "external/llvm/include/llvm/Support/PointerLikeTypeTraits.h",
   "underlying_type" : "_ZTIj"
  },
  {
   "alignment" : 4,
   "enum_fields" :
   [
    {
     "enum_field_value" : 0,
     "name" : "llvm::PointerLikeTypeTraits<unsigned long>::NumLowBitsAvailable"
    }
   ],
   "linker_set_key" : "_ZTIN4llvm21PointerLikeTypeTraitsImE20$NumLowBitsAvailableE",
   "name" : "llvm::PointerLikeTypeTraits<uintptr_t>::(anonymous enum at external/llvm/include/llvm/Support/PointerLikeTypeTraits.h:89:3)",
   "referenced_type" : "_ZTIN4llvm21PointerLikeTypeTraitsImE20$NumLowBitsAvailableE",
   "self_type" : "_ZTIN4llvm21PointerLikeTypeTraitsImE20$NumLowBitsAvailableE",
   "size" : 4,
   "source_file" : "external/llvm/include/llvm/Support/PointerLikeTypeTraits.h",
   "underlying_type" : "_ZTIj"
  },
  {
   "access" : "private",
   "alignment" : 4,
   "enum_fields" :
   [
    {
     "enum_field_value" : 0,
     "name" : "llvm::Use::zeroDigitTag"
    },
    {
     "enum_field_value" : 1,
     "name" : "llvm::Use::oneDigitTag"
    },
    {
     "enum_field_value" : 2,
     "name" : "llvm::Use::stopTag"
    },
    {
     "enum_field_value" : 3,
     "name" : "llvm::Use::fullStopTag"
    }
   ],
   "linker_set_key" : "_ZTIN4llvm3Use10PrevPtrTagE",
   "name" : "llvm::Use::PrevPtrTag",
   "referenced_type" : "_ZTIN4llvm3Use10PrevPtrTagE",
   "self_type" : "_ZTIN4llvm3Use10PrevPtrTagE",
   "size" : 4,
   "source_file" : "external/llvm/include/llvm/IR/Use.h",
   "underlying_type" : "_ZTIj"
  },
  {
   "access" : "protected",
   "alignment" : 4,
   "enum_fields" :
   [
    {
     "enum_field_value" : 28,
     "name" : "llvm::Value::NumUserOperandsBits"
    }
   ],
   "linker_set_key" : "_ZTIN4llvm5Value20$NumUserOperandsBitsE",
   "name" : "llvm::Value::(anonymous enum at external/llvm/include/llvm/IR/Value.h:109:3)",
   "referenced_type" : "_ZTIN4llvm5Value20$NumUserOperandsBitsE",
   "self_type" : "_ZTIN4llvm5Value20$NumUserOperandsBitsE",
   "size" : 4,
   "source_file" : "external/llvm/include/llvm/IR/Value.h",
   "underlying_type" : "_ZTIj"
  },
  {
   "alignment" : 4,
   "enum_fields" :
   [
    {
     "enum_field_value" : 0,
     "name" : "llvm::Value::ArgumentVal"
    },
    {
     "enum_field_value" : 1,
     "name" : "llvm::Value::BasicBlockVal"
    },
    {
     "enum_field_value" : 2,
     "name" : "llvm::Value::MemoryUseVal"
    },
    {
     "enum_field_value" : 3,
     "name" : "llvm::Value::MemoryDefVal"
    },
    {
     "enum_field_value" : 4,
     "name" : "llvm::Value::MemoryPhiVal"
    },
    {
     "enum_field_value" : 5,
     "name" : "llvm::Value::FunctionVal"
    },
    {
     "enum_field_value" : 6,
     "name" : "llvm::Value::GlobalAliasVal"
    },
    {
     "enum_field_value" : 7,
     "name" : "llvm::Value::GlobalIFuncVal"
    },
    {
     "enum_field_value" : 8,
     "name" : "llvm::Value::GlobalVariableVal"
    },
    {
     "enum_field_value" : 9,
     "name" : "llvm::Value::BlockAddressVal"
    },
    {
     "enum_field_value" : 10,
     "name" : "llvm::Value::ConstantExprVal"
    },
    {
     "enum_field_value" : 11,
     "name" : "llvm::Value::ConstantArrayVal"
    },
    {
     "enum_field_value" : 12,
     "name" : "llvm::Value::ConstantStructVal"
    },
    {
     "enum_field_value" : 13,
     "name" : "llvm::Value::ConstantVectorVal"
    },
    {
     "enum_field_value" : 14,
     "name" : "llvm::Value::UndefValueVal"
    },
    {
     "enum_field_value" : 15,
     "name" : "llvm::Value::ConstantAggregateZeroVal"
    },
    {
     "enum_field_value" : 16,
     "name" : "llvm::Value::ConstantDataArrayVal"
    },
    {
     "enum_field_value" : 17,
     "name" : "llvm::Value::ConstantDataVectorVal"
    },
    {
     "enum_field_value" : 18,
     "name" : "llvm::Value::ConstantIntVal"
    },
    {
     "enum_field_value" : 19,
     "name" : "llvm::Value::ConstantFPVal"
    },
    {
     "enum_field_value" : 20,
     "name" : "llvm::Value::ConstantPointerNullVal"
    },
    {
     "enum_field_value" : 21,
     "name" : "llvm::Value::ConstantTokenNoneVal"
    },
    {
     "enum_field_value" : 22,
     "name" : "llvm::Value::MetadataAsValueVal"
    },
    {
     "enum_field_value" : 23,
     "name" : "llvm::Value::InlineAsmVal"
    },
    {
     "enum_field_value" : 24,
     "name" : "llvm::Value::InstructionVal"
    },
    {
     "enum_field_value" : 5,
     "name" : "llvm::Value::ConstantFirstVal"
    },
    {
     "enum_field_value" : 21,
     "name" : "llvm::Value::ConstantLastVal"
    },
    {
     "enum_field_value" : 14,
     "name" : "llvm::Value::ConstantDataFirstVal"
    },
    {
     "enum_field_value" : 21,
     "name" : "llvm::Value::ConstantDataLastVal"
    },
    {
     "enum_field_value" : 11,
     "name" : "llvm::Value::ConstantAggregateFirstVal"
    },
    {
     "enum_field_value" : 13,
     "name" : "llvm::Value::ConstantAggregateLastVal"
    }
   ],
   "linker_set_key" : "_ZTIN4llvm5Value7ValueTyE",
   "name" : "llvm::Value::ValueTy",
   "referenced_type" : "_ZTIN4llvm5Value7ValueTyE",
   "self_type" : "_ZTIN4llvm5Value7ValueTyE",
   "size" : 4,
   "source_file" : "external/llvm/include/llvm/IR/Value.h",
   "underlying_type" : "_ZTIj"
  },
  {
   "alignment" : 4,
   "enum_fields" :
   [
    {
     "enum_field_value" : 0,
     "name" : "llvm::AlignOf<llvm::Use>::Alignment_LessEqual_2Bytes"
    }
   ],
   "linker_set_key" : "_ZTIN4llvm7AlignOfINS_3UseEE27$Alignment_LessEqual_2BytesE",
   "name" : "llvm::AlignOf<Use>::(anonymous enum at external/llvm/include/llvm/Support/AlignOf.h:91:3)",
   "referenced_type" : "_ZTIN4llvm7AlignOfINS_3UseEE27$Alignment_LessEqual_2BytesE",
   "self_type" : "_ZTIN4llvm7AlignOfINS_3UseEE27$Alignment_LessEqual_2BytesE",
   "size" : 4,
   "source_file" : "external/llvm/include/llvm/Support/AlignOf.h",
   "underlying_type" : "_ZTIj"
  },
  {
   "alignment" : 4,
   "enum_fields" :
   [
    {
     "enum_field_value" : 0,
     "name" : "llvm::AlignOf<llvm::Use>::Alignment_LessEqual_4Bytes"
    }
   ],
   "linker_set_key" : "_ZTIN4llvm7AlignOfINS_3UseEE27$Alignment_LessEqual_4BytesE",
   "name" : "llvm::AlignOf<Use>::(anonymous enum at external/llvm/include/llvm/Support/AlignOf.h:92:3)",
   "referenced_type" : "_ZTIN4llvm7AlignOfINS_3UseEE27$Alignment_LessEqual_4BytesE",
   "self_type" : "_ZTIN4llvm7AlignOfINS_3UseEE27$Alignment_LessEqual_4BytesE",
   "size" : 4,
   "source_file" : "external/llvm/include/llvm/Support/AlignOf.h",
   "underlying_type" : "_ZTIj"
  },
  {
   "alignment" : 4,
   "enum_fields" :
   [
    {
     "enum_field_value" : 1,
     "name" : "llvm::AlignOf<llvm::Use>::Alignment_LessEqual_8Bytes"
    }
   ],
   "linker_set_key" : "_ZTIN4llvm7AlignOfINS_3UseEE27$Alignment_LessEqual_8BytesE",
   "name" : "llvm::AlignOf<Use>::(anonymous enum at external/llvm/include/llvm/Support/AlignOf.h:93:3)",
   "referenced_type" : "_ZTIN4llvm7AlignOfINS_3UseEE27$Alignment_LessEqual_8BytesE",
   "self_type" : "_ZTIN4llvm7AlignOfINS_3UseEE27$Alignment_LessEqual_8BytesE",
   "size" : 4,
   "source_file" : "external/llvm/include/llvm/Support/AlignOf.h",
   "underlying_type" : "_ZTIj"
  },
  {
   "alignment" : 4,
   "enum_fields" :
   [
    {
     "enum_field_value" : 1,
     "name" : "llvm::AlignOf<llvm::Use>::Alignment_LessEqual_16Bytes"
    }
   ],
   "linker_set_key" : "_ZTIN4llvm7AlignOfINS_3UseEE28$Alignment_LessEqual_16BytesE",
   "name" : "llvm::AlignOf<Use>::(anonymous enum at external/llvm/include/llvm/Support/AlignOf.h:94:3)",
   "referenced_type" : "_ZTIN4llvm7AlignOfINS_3UseEE28$Alignment_LessEqual_16BytesE",
   "self_type" : "_ZTIN4llvm7AlignOfINS_3UseEE28$Alignment_LessEqual_16BytesE",
   "size" : 4,
   "source_file" : "external/llvm/include/llvm/Support/AlignOf.h",
   "underlying_type" : "_ZTIj"
  },
  {
   "alignment" : 4,
   "enum_fields" :
   [
    {
     "enum_field_value" : 1,
     "name" : "llvm::AlignOf<llvm::Use>::Alignment_GreaterEqual_2Bytes"
    }
   ],
   "linker_set_key" : "_ZTIN4llvm7AlignOfINS_3UseEE30$Alignment_GreaterEqual_2BytesE",
   "name" : "llvm::AlignOf<Use>::(anonymous enum at external/llvm/include/llvm/Support/AlignOf.h:86:3)",
   "referenced_type" : "_ZTIN4llvm7AlignOfINS_3UseEE30$Alignment_GreaterEqual_2BytesE",
   "self_type" : "_ZTIN4llvm7AlignOfINS_3UseEE30$Alignment_GreaterEqual_2BytesE",
   "size" : 4,
   "source_file" : "external/llvm/include/llvm/Support/AlignOf.h",
   "underlying_type" : "_ZTIj"
  },
  {
   "alignment" : 4,
   "enum_fields" :
   [
    {
     "enum_field_value" : 1,
     "name" : "llvm::AlignOf<llvm::Use>::Alignment_GreaterEqual_4Bytes"
    }
   ],
   "linker_set_key" : "_ZTIN4llvm7AlignOfINS_3UseEE30$Alignment_GreaterEqual_4BytesE",
   "name" : "llvm::AlignOf<Use>::(anonymous enum at external/llvm/include/llvm/Support/AlignOf.h:87:3)",
   "referenced_type" : "_ZTIN4llvm7AlignOfINS_3UseEE30$Alignment_GreaterEqual_4BytesE",
   "self_type" : "_ZTIN4llvm7AlignOfINS_3UseEE30$Alignment_GreaterEqual_4BytesE",
   "size" : 4,
   "source_file" : "external/llvm/include/llvm/Support/AlignOf.h",
   "underlying_type" : "_ZTIj"
  },
  {
   "alignment" : 4,
   "enum_fields" :
   [
    {
     "enum_field_value" : 1,
     "name" : "llvm::AlignOf<llvm::Use>::Alignment_GreaterEqual_8Bytes"
    }
   ],
   "linker_set_key" : "_ZTIN4llvm7AlignOfINS_3UseEE30$Alignment_GreaterEqual_8BytesE",
   "name" : "llvm::AlignOf<Use>::(anonymous enum at external/llvm/include/llvm/Support/AlignOf.h:88:3)",
   "referenced_type" : "_ZTIN4llvm7AlignOfINS_3UseEE30$Alignment_GreaterEqual_8BytesE",
   "self_type" : "_ZTIN4llvm7AlignOfINS_3UseEE30$Alignment_GreaterEqual_8BytesE",
   "size" : 4,
   "source_file" : "external/llvm/include/llvm/Support/AlignOf.h",
   "underlying_type" : "_ZTIj"
  },
  {
   "alignment" : 4,
   "enum_fields" :
   [
    {
     "enum_field_value" : 0,
     "name" : "llvm::AlignOf<llvm::Use>::Alignment_GreaterEqual_16Bytes"
    }
   ],
   "linker_set_key" : "_ZTIN4llvm7AlignOfINS_3UseEE31$Alignment_GreaterEqual_16BytesE",
   "name" : "llvm::AlignOf<Use>::(anonymous enum at external/llvm/include/llvm/Support/AlignOf.h:89:3)",
   "referenced_type" : "_ZTIN4llvm7AlignOfINS_3UseEE31$Alignment_GreaterEqual_16BytesE",
   "self_type" : "_ZTIN4llvm7AlignOfINS_3UseEE31$Alignment_GreaterEqual_16BytesE",
   "size" : 4,
   "source_file" : "external/llvm/include/llvm/Support/AlignOf.h",
   "underlying_type" : "_ZTIj"
  },
  {
   "alignment" : 4,
   "enum_fields" :
   [
    {
     "enum_field_value" : 0,
     "name" : "llvm::AlignOf<llvm::User>::Alignment_LessEqual_2Bytes"
    }
   ],
   "linker_set_key" : "_ZTIN4llvm7AlignOfINS_4UserEE27$Alignment_LessEqual_2BytesE",
   "name" : "llvm::AlignOf<User>::(anonymous enum at external/llvm/include/llvm/Support/AlignOf.h:91:3)",
   "referenced_type" : "_ZTIN4llvm7AlignOfINS_4UserEE27$Alignment_LessEqual_2BytesE",
   "self_type" : "_ZTIN4llvm7AlignOfINS_4UserEE27$Alignment_LessEqual_2BytesE",
   "size" : 4,
   "source_file" : "external/llvm/include/llvm/Support/AlignOf.h",
   "underlying_type" : "_ZTIj"
  },
  {
   "alignment" : 4,
   "enum_fields" :
   [
    {
     "enum_field_value" : 0,
     "name" : "llvm::AlignOf<llvm::User>::Alignment_LessEqual_4Bytes"
    }
   ],
   "linker_set_key" : "_ZTIN4llvm7AlignOfINS_4UserEE27$Alignment_LessEqual_4BytesE",
   "name" : "llvm::AlignOf<User>::(anonymous enum at external/llvm/include/llvm/Support/AlignOf.h:92:3)",
   "referenced_type" : "_ZTIN4llvm7AlignOfINS_4UserEE27$Alignment_LessEqual_4BytesE",
   "self_type" : "_ZTIN4llvm7AlignOfINS_4UserEE27$Alignment_LessEqual_4BytesE",
   "size" : 4,
   "source_file" : "external/llvm/include/llvm/Support/AlignOf.h",
   "underlying_type" : "_ZTIj"
  },
  {
   "alignment" : 4,
   "enum_fields" :
   [
    {
     "enum_field_value" : 1,
     "name" : "llvm::AlignOf<llvm::User>::Alignment_LessEqual_8Bytes"
    }
   ],
   "linker_set_key" : "_ZTIN4llvm7AlignOfINS_4UserEE27$Alignment_LessEqual_8BytesE",
   "name" : "llvm::AlignOf<User>::(anonymous enum at external/llvm/include/llvm/Support/AlignOf.h:93:3)",
   "referenced_type" : "_ZTIN4llvm7AlignOfINS_4UserEE27$Alignment_LessEqual_8BytesE",
   "self_type" : "_ZTIN4llvm7AlignOfINS_4UserEE27$Alignment_LessEqual_8BytesE",
   "size" : 4,
   "source_file" : "external/llvm/include/llvm/Support/AlignOf.h",
   "underlying_type" : "_ZTIj"
  },
  {
   "alignment" : 4,
   "enum_fields" :
   [
    {
     "enum_field_value" : 1,
     "name" : "llvm::AlignOf<llvm::User>::Alignment_LessEqual_16Bytes"
    }
   ],
   "linker_set_key" : "_ZTIN4llvm7AlignOfINS_4UserEE28$Alignment_LessEqual_16BytesE",
   "name" : "llvm::AlignOf<User>::(anonymous enum at external/llvm/include/llvm/Support/AlignOf.h:94:3)",
   "referenced_type" : "_ZTIN4llvm7AlignOfINS_4UserEE28$Alignment_LessEqual_16BytesE",
   "self_type" : "_ZTIN4llvm7AlignOfINS_4UserEE28$Alignment_LessEqual_16BytesE",
   "size" : 4,
   "source_file" : "external/llvm/include/llvm/Support/AlignOf.h",
   "underlying_type" : "_ZTIj"
  },
  {
   "alignment" : 4,
   "enum_fields" :
   [
    {
     "enum_field_value" : 1,
     "name" : "llvm::AlignOf<llvm::User>::Alignment_GreaterEqual_2Bytes"
    }
   ],
   "linker_set_key" : "_ZTIN4llvm7AlignOfINS_4UserEE30$Alignment_GreaterEqual_2BytesE",
   "name" : "llvm::AlignOf<User>::(anonymous enum at external/llvm/include/llvm/Support/AlignOf.h:86:3)",
   "referenced_type" : "_ZTIN4llvm7AlignOfINS_4UserEE30$Alignment_GreaterEqual_2BytesE",
   "self_type" : "_ZTIN4llvm7AlignOfINS_4UserEE30$Alignment_GreaterEqual_2BytesE",
   "size" : 4,
   "source_file" : "external/llvm/include/llvm/Support/AlignOf.h",
   "underlying_type" : "_ZTIj"
  },
  {
   "alignment" : 4,
   "enum_fields" :
   [
    {
     "enum_field_value" : 1,
     "name" : "llvm::AlignOf<llvm::User>::Alignment_GreaterEqual_4Bytes"
    }
   ],
   "linker_set_key" : "_ZTIN4llvm7AlignOfINS_4UserEE30$Alignment_GreaterEqual_4BytesE",
   "name" : "llvm::AlignOf<User>::(anonymous enum at external/llvm/include/llvm/Support/AlignOf.h:87:3)",
   "referenced_type" : "_ZTIN4llvm7AlignOfINS_4UserEE30$Alignment_GreaterEqual_4BytesE",
   "self_type" : "_ZTIN4llvm7AlignOfINS_4UserEE30$Alignment_GreaterEqual_4BytesE",
   "size" : 4,
   "source_file" : "external/llvm/include/llvm/Support/AlignOf.h",
   "underlying_type" : "_ZTIj"
  },
  {
   "alignment" : 4,
   "enum_fields" :
   [
    {
     "enum_field_value" : 1,
     "name" : "llvm::AlignOf<llvm::User>::Alignment_GreaterEqual_8Bytes"
    }
   ],
   "linker_set_key" : "_ZTIN4llvm7AlignOfINS_4UserEE30$Alignment_GreaterEqual_8BytesE",
   "name" : "llvm::AlignOf<User>::(anonymous enum at external/llvm/include/llvm/Support/AlignOf.h:88:3)",
   "referenced_type" : "_ZTIN4llvm7AlignOfINS_4UserEE30$Alignment_GreaterEqual_8BytesE",
   "self_type" : "_ZTIN4llvm7AlignOfINS_4UserEE30$Alignment_GreaterEqual_8BytesE",
   "size" : 4,
   "source_file" : "external/llvm/include/llvm/Support/AlignOf.h",
   "underlying_type" : "_ZTIj"
  },
  {
   "alignment" : 4,
   "enum_fields" :
   [
    {
     "enum_field_value" : 0,
     "name" : "llvm::AlignOf<llvm::User>::Alignment_GreaterEqual_16Bytes"
    }
   ],
   "linker_set_key" : "_ZTIN4llvm7AlignOfINS_4UserEE31$Alignment_GreaterEqual_16BytesE",
   "name" : "llvm::AlignOf<User>::(anonymous enum at external/llvm/include/llvm/Support/AlignOf.h:89:3)",
   "referenced_type" : "_ZTIN4llvm7AlignOfINS_4UserEE31$Alignment_GreaterEqual_16BytesE",
   "self_type" : "_ZTIN4llvm7AlignOfINS_4UserEE31$Alignment_GreaterEqual_16BytesE",
   "size" : 4,
   "source_file" : "external/llvm/include/llvm/Support/AlignOf.h",
   "underlying_type" : "_ZTIj"
  },
  {
   "alignment" : 4,
   "enum_fields" :
   [
    {
     "enum_field_value" : 0,
     "name" : "llvm::AlignOf<llvm::Use *>::Alignment_LessEqual_2Bytes"
    }
   ],
   "linker_set_key" : "_ZTIN4llvm7AlignOfIPNS_3UseEE27$Alignment_LessEqual_2BytesE",
   "name" : "llvm::AlignOf<Use *>::(anonymous enum at external/llvm/include/llvm/Support/AlignOf.h:91:3)",
   "referenced_type" : "_ZTIN4llvm7AlignOfIPNS_3UseEE27$Alignment_LessEqual_2BytesE",
   "self_type" : "_ZTIN4llvm7AlignOfIPNS_3UseEE27$Alignment_LessEqual_2BytesE",
   "size" : 4,
   "source_file" : "external/llvm/include/llvm/Support/AlignOf.h",
   "underlying_type" : "_ZTIj"
  },
  {
   "alignment" : 4,
   "enum_fields" :
   [
    {
     "enum_field_value" : 0,
     "name" : "llvm::AlignOf<llvm::Use *>::Alignment_LessEqual_4Bytes"
    }
   ],
   "linker_set_key" : "_ZTIN4llvm7AlignOfIPNS_3UseEE27$Alignment_LessEqual_4BytesE",
   "name" : "llvm::AlignOf<Use *>::(anonymous enum at external/llvm/include/llvm/Support/AlignOf.h:92:3)",
   "referenced_type" : "_ZTIN4llvm7AlignOfIPNS_3UseEE27$Alignment_LessEqual_4BytesE",
   "self_type" : "_ZTIN4llvm7AlignOfIPNS_3UseEE27$Alignment_LessEqual_4BytesE",
   "size" : 4,
   "source_file" : "external/llvm/include/llvm/Support/AlignOf.h",
   "underlying_type" : "_ZTIj"
  },
  {
   "alignment" : 4,
   "enum_fields" :
   [
    {
     "enum_field_value" : 1,
     "name" : "llvm::AlignOf<llvm::Use *>::Alignment_LessEqual_8Bytes"
    }
   ],
   "linker_set_key" : "_ZTIN4llvm7AlignOfIPNS_3UseEE27$Alignment_LessEqual_8BytesE",
   "name" : "llvm::AlignOf<Use *>::(anonymous enum at external/llvm/include/llvm/Support/AlignOf.h:93:3)",
   "referenced_type" : "_ZTIN4llvm7AlignOfIPNS_3UseEE27$Alignment_LessEqual_8BytesE",
   "self_type" : "_ZTIN4llvm7AlignOfIPNS_3UseEE27$Alignment_LessEqual_8BytesE",
   "size" : 4,
   "source_file" : "external/llvm/include/llvm/Support/AlignOf.h",
   "underlying_type" : "_ZTIj"
  },
  {
   "alignment" : 4,
   "enum_fields" :
   [
    {
     "enum_field_value" : 1,
     "name" : "llvm::AlignOf<llvm::Use *>::Alignment_LessEqual_16Bytes"
    }
   ],
   "linker_set_key" : "_ZTIN4llvm7AlignOfIPNS_3UseEE28$Alignment_LessEqual_16BytesE",
   "name" : "llvm::AlignOf<Use *>::(anonymous enum at external/llvm/include/llvm/Support/AlignOf.h:94:3)",
   "referenced_type" : "_ZTIN4llvm7AlignOfIPNS_3UseEE28$Alignment_LessEqual_16BytesE",
   "self_type" : "_ZTIN4llvm7AlignOfIPNS_3UseEE28$Alignment_LessEqual_16BytesE",
   "size" : 4,
   "source_file" : "external/llvm/include/llvm/Support/AlignOf.h",
   "underlying_type" : "_ZTIj"
  },
  {
   "alignment" : 4,
   "enum_fields" :
   [
    {
     "enum_field_value" : 1,
     "name" : "llvm::AlignOf<llvm::Use *>::Alignment_GreaterEqual_2Bytes"
    }
   ],
   "linker_set_key" : "_ZTIN4llvm7AlignOfIPNS_3UseEE30$Alignment_GreaterEqual_2BytesE",
   "name" : "llvm::AlignOf<Use *>::(anonymous enum at external/llvm/include/llvm/Support/AlignOf.h:86:3)",
   "referenced_type" : "_ZTIN4llvm7AlignOfIPNS_3UseEE30$Alignment_GreaterEqual_2BytesE",
   "self_type" : "_ZTIN4llvm7AlignOfIPNS_3UseEE30$Alignment_GreaterEqual_2BytesE",
   "size" : 4,
   "source_file" : "external/llvm/include/llvm/Support/AlignOf.h",
   "underlying_type" : "_ZTIj"
  },
  {
   "alignment" : 4,
   "enum_fields" :
   [
    {
     "enum_field_value" : 1,
     "name" : "llvm::AlignOf<llvm::Use *>::Alignment_GreaterEqual_4Bytes"
    }
   ],
   "linker_set_key" : "_ZTIN4llvm7AlignOfIPNS_3UseEE30$Alignment_GreaterEqual_4BytesE",
   "name" : "llvm::AlignOf<Use *>::(anonymous enum at external/llvm/include/llvm/Support/AlignOf.h:87:3)",
   "referenced_type" : "_ZTIN4llvm7AlignOfIPNS_3UseEE30$Alignment_GreaterEqual_4BytesE",
   "self_type" : "_ZTIN4llvm7AlignOfIPNS_3UseEE30$Alignment_GreaterEqual_4BytesE",
   "size" : 4,
   "source_file" : "external/llvm/include/llvm/Support/AlignOf.h",
   "underlying_type" : "_ZTIj"
  },
  {
   "alignment" : 4,
   "enum_fields" :
   [
    {
     "enum_field_value" : 1,
     "name" : "llvm::AlignOf<llvm::Use *>::Alignment_GreaterEqual_8Bytes"
    }
   ],
   "linker_set_key" : "_ZTIN4llvm7AlignOfIPNS_3UseEE30$Alignment_GreaterEqual_8BytesE",
   "name" : "llvm::AlignOf<Use *>::(anonymous enum at external/llvm/include/llvm/Support/AlignOf.h:88:3)",
   "referenced_type" : "_ZTIN4llvm7AlignOfIPNS_3UseEE30$Alignment_GreaterEqual_8BytesE",
   "self_type" : "_ZTIN4llvm7AlignOfIPNS_3UseEE30$Alignment_GreaterEqual_8BytesE",
   "size" : 4,
   "source_file" : "external/llvm/include/llvm/Support/AlignOf.h",
   "underlying_type" : "_ZTIj"
  },
  {
   "alignment" : 4,
   "enum_fields" :
   [
    {
     "enum_field_value" : 0,
     "name" : "llvm::AlignOf<llvm::Use *>::Alignment_GreaterEqual_16Bytes"
    }
   ],
   "linker_set_key" : "_ZTIN4llvm7AlignOfIPNS_3UseEE31$Alignment_GreaterEqual_16BytesE",
   "name" : "llvm::AlignOf<Use *>::(anonymous enum at external/llvm/include/llvm/Support/AlignOf.h:89:3)",
   "referenced_type" : "_ZTIN4llvm7AlignOfIPNS_3UseEE31$Alignment_GreaterEqual_16BytesE",
   "self_type" : "_ZTIN4llvm7AlignOfIPNS_3UseEE31$Alignment_GreaterEqual_16BytesE",
   "size" : 4,
   "source_file" : "external/llvm/include/llvm/Support/AlignOf.h",
   "underlying_type" : "_ZTIj"
  }
 ],
 "function_types" :
 [
  {
   "alignment" : 4,
   "linker_set_key" : "_ZTIFvPvRKNSt3__112basic_stringIcNS0_11char_traitsIcEENS0_9allocatorIcEEEEbE",
   "name" : "void (void *, const std::__1::basic_string<char> &, bool)",
   "parameters" :
   [
    {
     "referenced_type" : "_ZTIPv"
    },
    {
     "referenced_type" : "_ZTIRKNSt3__112basic_stringIcNS_11char_traitsIcEENS_9allocatorIcEEEE"
    },
    {
     "referenced_type" : "_ZTIb"
    }
   ],
   "referenced_type" : "_ZTIFvPvRKNSt3__112basic_stringIcNS0_11char_traitsIcEENS0_9allocatorIcEEEEbE",
   "return_type" : "_ZTIv",
   "self_type" : "_ZTIFvPvRKNSt3__112basic_stringIcNS0_11char_traitsIcEENS0_9allocatorIcEEEEbE",
   "source_file" : "external/llvm/include/llvm/Support/ErrorHandling.h"
  }
 ],
 "functions" :
 [
  {
   "function_name" : "llvm::make_range",
   "linker_set_key" : "_ZN4llvm10make_rangeINS_4User17value_op_iteratorEEENS_14iterator_rangeIT_EES4_S4_",
   "parameters" :
   [
    {
     "referenced_type" : "_ZTIN4llvm4User17value_op_iteratorE"
    },
    {
     "referenced_type" : "_ZTIN4llvm4User17value_op_iteratorE"
    }
   ],
   "return_type" : "_ZTIN4llvm14iterator_rangeINS_4User17value_op_iteratorEEE",
   "source_file" : "external/llvm/include/llvm/ADT/iterator_range.h",
   "template_args" : [ "_ZTIN4llvm4User17value_op_iteratorE" ]
  },
  {
   "function_name" : "llvm::make_range",
   "linker_set_key" : "_ZN4llvm10make_rangeINS_5Value17use_iterator_implIKNS_3UseEEEEENS_14iterator_rangeIT_EES7_S7_",
   "parameters" :
   [
    {
     "referenced_type" : "_ZTIN4llvm5Value17use_iterator_implIKNS_3UseEEE"
    },
    {
     "referenced_type" : "_ZTIN4llvm5Value17use_iterator_implIKNS_3UseEEE"
    }
   ],
   "return_type" : "_ZTIN4llvm14iterator_rangeINS_5Value17use_iterator_implIKNS_3UseEEEEE",
   "source_file" : "external/llvm/include/llvm/ADT/iterator_range.h",
   "template_args" : [ "_ZTIN4llvm5Value17use_iterator_implIKNS_3UseEEE" ]
  },
  {
   "function_name" : "llvm::make_range",
   "linker_set_key" : "_ZN4llvm10make_rangeINS_5Value17use_iterator_implINS_3UseEEEEENS_14iterator_rangeIT_EES6_S6_",
   "parameters" :
   [
    {
     "referenced_type" : "_ZTIN4llvm5Value17use_iterator_implINS_3UseEEE"
    },
    {
     "referenced_type" : "_ZTIN4llvm5Value17use_iterator_implINS_3UseEEE"
    }
   ],
   "return_type" : "_ZTIN4llvm14iterator_rangeINS_5Value17use_iterator_implINS_3UseEEEEE",
   "source_file" : "external/llvm/include/llvm/ADT/iterator_range.h",
   "template_args" : [ "_ZTIN4llvm5Value17use_iterator_implINS_3UseEEE" ]
  },
  {
   "function_name" : "llvm::make_range",
   "linker_set_key" : "_ZN4llvm10make_rangeINS_5Value18user_iterator_implIKNS_4UserEEEEENS_14iterator_rangeIT_EES7_S7_",
   "parameters" :
   [
    {
     "referenced_type" : "_ZTIN4llvm5Value18user_iterator_implIKNS_4UserEEE"
    },
    {
     "referenced_type" : "_ZTIN4llvm5Value18user_iterator_implIKNS_4UserEEE"
    }
   ],
   "return_type" : "_ZTIN4llvm14iterator_rangeINS_5Value18user_iterator_implIKNS_4UserEEEEE",
   "source_file" : "external/llvm/include/llvm/ADT/iterator_range.h",
   "template_args" : [ "_ZTIN4llvm5Value18user_iterator_implIKNS_4UserEEE" ]
  },
  {
   "function_name" : "llvm::make_range",
   "linker_set_key" : "_ZN4llvm10make_rangeINS_5Value18user_iterator_implINS_4UserEEEEENS_14iterator_rangeIT_EES6_S6_",
   "parameters" :
   [
    {
     "referenced_type" : "_ZTIN4llvm5Value18user_iterator_implINS_4UserEEE"
    },
    {
     "referenced_type" : "_ZTIN4llvm5Value18user_iterator_implINS_4UserEEE"
    }
   ],
   "return_type" : "_ZTIN4llvm14iterator_rangeINS_5Value18user_iterator_implINS_4UserEEEEE",
   "source_file" : "external/llvm/include/llvm/ADT/iterator_range.h",
   "template_args" : [ "_ZTIN4llvm5Value18user_iterator_implINS_4UserEEE" ]
  },
  {
   "function_name" : "llvm::isa_impl_cl<llvm::GlobalAlias, const llvm::Value>::doit",
   "linker_set_key" : "_ZN4llvm11isa_impl_clINS_11GlobalAliasEKNS_5ValueEE4doitERS3_",
   "parameters" :
   [
    {
     "referenced_type" : "_ZTIRKN4llvm5ValueE"
    }
   ],
   "return_type" : "_ZTIb",
   "source_file" : "external/llvm/include/llvm/Support/Casting.h"
  },
  {
   "function_name" : "llvm::isa_impl_cl<llvm::GlobalIFunc, const llvm::Value>::doit",
   "linker_set_key" : "_ZN4llvm11isa_impl_clINS_11GlobalIFuncEKNS_5ValueEE4doitERS3_",
   "parameters" :
   [
    {
     "referenced_type" : "_ZTIRKN4llvm5ValueE"
    }
   ],
   "return_type" : "_ZTIb",
   "source_file" : "external/llvm/include/llvm/Support/Casting.h"
  },
  {
   "function_name" : "llvm::isa_impl_cl<llvm::Instruction, const llvm::Value *>::doit",
   "linker_set_key" : "_ZN4llvm11isa_impl_clINS_11InstructionEPKNS_5ValueEE4doitES4_",
   "parameters" :
   [
    {
     "referenced_type" : "_ZTIPKN4llvm5ValueE"
    }
   ],
   "return_type" : "_ZTIb",
   "source_file" : "external/llvm/include/llvm/Support/Casting.h"
  },
  {
   "function_name" : "llvm::isa_impl_cl<llvm::GlobalObject, const llvm::Value>::doit",
   "linker_set_key" : "_ZN4llvm11isa_impl_clINS_12GlobalObjectEKNS_5ValueEE4doitERS3_",
   "parameters" :
   [
    {
     "referenced_type" : "_ZTIRKN4llvm5ValueE"
    }
   ],
   "return_type" : "_ZTIb",
   "source_file" : "external/llvm/include/llvm/Support/Casting.h"
  },
  {
   "function_name" : "llvm::isa_impl_cl<llvm::GlobalVariable, const llvm::Value>::doit",
   "linker_set_key" : "_ZN4llvm11isa_impl_clINS_14GlobalVariableEKNS_5ValueEE4doitERS3_",
   "parameters" :
   [
    {
     "referenced_type" : "_ZTIRKN4llvm5ValueE"
    }
   ],
   "return_type" : "_ZTIb",
   "source_file" : "external/llvm/include/llvm/Support/Casting.h"
  },
  {
   "function_name" : "llvm::isa_impl_cl<llvm::GlobalIndirectSymbol, const llvm::Value>::doit",
   "linker_set_key" : "_ZN4llvm11isa_impl_clINS_20GlobalIndirectSymbolEKNS_5ValueEE4doitERS3_",
   "parameters" :
   [
    {
     "referenced_type" : "_ZTIRKN4llvm5ValueE"
    }
   ],
   "return_type" : "_ZTIb",
   "source_file" : "external/llvm/include/llvm/Support/Casting.h"
  },
  {
   "function_name" : "llvm::isa_impl_cl<llvm::Constant, const llvm::Value *>::doit",
   "linker_set_key" : "_ZN4llvm11isa_impl_clINS_8ConstantEPKNS_5ValueEE4doitES4_",
   "parameters" :
   [
    {
     "referenced_type" : "_ZTIPKN4llvm5ValueE"
    }
   ],
   "return_type" : "_ZTIb",
   "source_file" : "external/llvm/include/llvm/Support/Casting.h"
  },
  {
   "function_name" : "llvm::isa_impl_cl<llvm::Function, const llvm::Value>::doit",
   "linker_set_key" : "_ZN4llvm11isa_impl_clINS_8FunctionEKNS_5ValueEE4doitERS3_",
   "parameters" :
   [
    {
     "referenced_type" : "_ZTIRKN4llvm5ValueE"
    }
   ],
   "return_type" : "_ZTIb",
   "source_file" : "external/llvm/include/llvm/Support/Casting.h"
  },
  {
   "function_name" : "llvm::isa_impl_wrap<llvm::GlobalAlias, const llvm::Value, const llvm::Value>::doit",
   "linker_set_key" : "_ZN4llvm13isa_impl_wrapINS_11GlobalAliasEKNS_5ValueES3_E4doitERS3_",
   "parameters" :
   [
    {
     "referenced_type" : "_ZTIRKN4llvm5ValueE"
    }
   ],
   "return_type" : "_ZTIb",
   "source_file" : "external/llvm/include/llvm/Support/Casting.h"
  },
  {
   "function_name" : "llvm::isa_impl_wrap<llvm::GlobalIFunc, const llvm::Value, const llvm::Value>::doit",
   "linker_set_key" : "_ZN4llvm13isa_impl_wrapINS_11GlobalIFuncEKNS_5ValueES3_E4doitERS3_",
   "parameters" :
   [
    {
     "referenced_type" : "_ZTIRKN4llvm5ValueE"
    }
   ],
   "return_type" : "_ZTIb",
   "source_file" : "external/llvm/include/llvm/Support/Casting.h"
  },
  {
   "function_name" : "llvm::isa_impl_wrap<llvm::Instruction, const llvm::Value *const, const llvm::Value *>::doit",
   "linker_set_key" : "_ZN4llvm13isa_impl_wrapINS_11InstructionEKPKNS_5ValueES4_E4doitERS5_",
   "parameters" :
   [
    {
     "referenced_type" : "_ZTIRKPKN4llvm5ValueE"
    }
   ],
   "return_type" : "_ZTIb",
   "source_file" : "external/llvm/include/llvm/Support/Casting.h"
  },
  {
   "function_name" : "llvm::isa_impl_wrap<llvm::Instruction, const llvm::Value *, const llvm::Value *>::doit",
   "linker_set_key" : "_ZN4llvm13isa_impl_wrapINS_11InstructionEPKNS_5ValueES4_E4doitERKS4_",
   "parameters" :
   [
    {
     "referenced_type" : "_ZTIRKPKN4llvm5ValueE"
    }
   ],
   "return_type" : "_ZTIb",
   "source_file" : "external/llvm/include/llvm/Support/Casting.h"
  },
  {
   "function_name" : "llvm::isa_impl_wrap<llvm::GlobalObject, const llvm::Value, const llvm::Value>::doit",
   "linker_set_key" : "_ZN4llvm13isa_impl_wrapINS_12GlobalObjectEKNS_5ValueES3_E4doitERS3_",
   "parameters" :
   [
    {
     "referenced_type" : "_ZTIRKN4llvm5ValueE"
    }
   ],
   "return_type" : "_ZTIb",
   "source_file" : "external/llvm/include/llvm/Support/Casting.h"
  },
  {
   "function_name" : "llvm::isa_impl_wrap<llvm::GlobalVariable, const llvm::Value, const llvm::Value>::doit",
   "linker_set_key" : "_ZN4llvm13isa_impl_wrapINS_14GlobalVariableEKNS_5ValueES3_E4doitERS3_",
   "parameters" :
   [
    {
     "referenced_type" : "_ZTIRKN4llvm5ValueE"
    }
   ],
   "return_type" : "_ZTIb",
   "source_file" : "external/llvm/include/llvm/Support/Casting.h"
  },
  {
   "function_name" : "llvm::isa_impl_wrap<llvm::GlobalIndirectSymbol, const llvm::Value, const llvm::Value>::doit",
   "linker_set_key" : "_ZN4llvm13isa_impl_wrapINS_20GlobalIndirectSymbolEKNS_5ValueES3_E4doitERS3_",
   "parameters" :
   [
    {
     "referenced_type" : "_ZTIRKN4llvm5ValueE"
    }
   ],
   "return_type" : "_ZTIb",
   "source_file" : "external/llvm/include/llvm/Support/Casting.h"
  },
  {
   "function_name" : "llvm::isa_impl_wrap<llvm::Constant, const llvm::Value *const, const llvm::Value *>::doit",
   "linker_set_key" : "_ZN4llvm13isa_impl_wrapINS_8ConstantEKPKNS_5ValueES4_E4doitERS5_",
   "parameters" :
   [
    {
     "referenced_type" : "_ZTIRKPKN4llvm5ValueE"
    }
   ],
   "return_type" : "_ZTIb",
   "source_file" : "external/llvm/include/llvm/Support/Casting.h"
  },
  {
   "function_name" : "llvm::isa_impl_wrap<llvm::Constant, const llvm::Value *, const llvm::Value *>::doit",
   "linker_set_key" : "_ZN4llvm13isa_impl_wrapINS_8ConstantEPKNS_5ValueES4_E4doitERKS4_",
   "parameters" :
   [
    {
     "referenced_type" : "_ZTIRKPKN4llvm5ValueE"
    }
   ],
   "return_type" : "_ZTIb",
   "source_file" : "external/llvm/include/llvm/Support/Casting.h"
  },
  {
   "function_name" : "llvm::isa_impl_wrap<llvm::Function, const llvm::Value, const llvm::Value>::doit",
   "linker_set_key" : "_ZN4llvm13isa_impl_wrapINS_8FunctionEKNS_5ValueES3_E4doitERS3_",
   "parameters" :
   [
    {
     "referenced_type" : "_ZTIRKN4llvm5ValueE"
    }
   ],
   "return_type" : "_ZTIb",
   "source_file" : "external/llvm/include/llvm/Support/Casting.h"
  },
  {
   "function_name" : "llvm::simplify_type<const llvm::Use>::getSimplifiedValue",
   "linker_set_key" : "_ZN4llvm13simplify_typeIKNS_3UseEE18getSimplifiedValueERS2_",
   "parameters" :
   [
    {
     "referenced_type" : "_ZTIRKN4llvm3UseE"
    }
   ],
   "return_type" : "_ZTIPN4llvm5ValueE",
   "source_file" : "external/llvm/include/llvm/IR/Use.h"
  },
  {
   "function_name" : "llvm::simplify_type<const llvm::Value *const>::getSimplifiedValue",
   "linker_set_key" : "_ZN4llvm13simplify_typeIKPKNS_5ValueEE18getSimplifiedValueERS4_",
   "parameters" :
   [
    {
     "referenced_type" : "_ZTIRKPKN4llvm5ValueE"
    }
   ],
   "return_type" : "_ZTIPKN4llvm5ValueE",
   "source_file" : "external/llvm/include/llvm/Support/Casting.h"
  },
  {
   "function_name" : "llvm::simplify_type<llvm::Use>::getSimplifiedValue",
   "linker_set_key" : "_ZN4llvm13simplify_typeINS_3UseEE18getSimplifiedValueERS1_",
   "parameters" :
   [
    {
     "referenced_type" : "_ZTIRN4llvm3UseE"
    }
   ],
   "return_type" : "_ZTIPN4llvm5ValueE",
   "source_file" : "external/llvm/include/llvm/IR/Use.h"
  },
  {
   "function_name" : "llvm::simplify_type<const llvm::Use *>::getSimplifiedValue",
   "linker_set_key" : "_ZN4llvm13simplify_typeIPKNS_3UseEE18getSimplifiedValueERS3_",
   "parameters" :
   [
    {
     "referenced_type" : "_ZTIRPKN4llvm3UseE"
    }
   ],
   "return_type" : "_ZTIPN4llvm5ValueE",
   "source_file" : "external/llvm/include/llvm/IR/User.h"
  },
  {
   "function_name" : "llvm::simplify_type<const llvm::Value *>::getSimplifiedValue",
   "linker_set_key" : "_ZN4llvm13simplify_typeIPKNS_5ValueEE18getSimplifiedValueERS3_",
   "parameters" :
   [
    {
     "referenced_type" : "_ZTIRPKN4llvm5ValueE"
    }
   ],
   "return_type" : "_ZTIRPKN4llvm5ValueE",
   "source_file" : "external/llvm/include/llvm/Support/Casting.h"
  },
  {
   "function_name" : "llvm::simplify_type<llvm::Use *>::getSimplifiedValue",
   "linker_set_key" : "_ZN4llvm13simplify_typeIPNS_3UseEE18getSimplifiedValueERS2_",
   "parameters" :
   [
    {
     "referenced_type" : "_ZTIRPN4llvm3UseE"
    }
   ],
   "return_type" : "_ZTIPN4llvm5ValueE",
   "source_file" : "external/llvm/include/llvm/IR/User.h"
  },
  {
   "function_name" : "llvm::PointerIntPair<llvm::Use **, 2, llvm::Use::PrevPtrTag, llvm::PointerLikeTypeTraits<llvm::Use **>, llvm::PointerIntPairInfo<llvm::Use **, 2, llvm::PointerLikeTypeTraits<llvm::Use **>>>::setPointer",
   "linker_set_key" : "_ZN4llvm14PointerIntPairIPPNS_3UseELj2ENS1_10PrevPtrTagENS_21PointerLikeTypeTraitsIS3_EENS_18PointerIntPairInfoIS3_Lj2ES6_EEE10setPointerES3_",
   "parameters" :
   [
    {
     "is_this_ptr" : true,
     "referenced_type" : "_ZTIPN4llvm14PointerIntPairIPPNS_3UseELj2ENS1_10PrevPtrTagENS_21PointerLikeTypeTraitsIS3_EENS_18PointerIntPairInfoIS3_Lj2ES6_EEEE"
    },
    {
     "referenced_type" : "_ZTIPPN4llvm3UseE"
    }
   ],
   "return_type" : "_ZTIv",
   "source_file" : "external/llvm/include/llvm/ADT/PointerIntPair.h"
  },
  {
   "function_name" : "llvm::PointerIntPair<llvm::Use **, 2, llvm::Use::PrevPtrTag, llvm::PointerLikeTypeTraits<llvm::Use **>, llvm::PointerIntPairInfo<llvm::Use **, 2, llvm::PointerLikeTypeTraits<llvm::Use **>>>::setInt",
   "linker_set_key" : "_ZN4llvm14PointerIntPairIPPNS_3UseELj2ENS1_10PrevPtrTagENS_21PointerLikeTypeTraitsIS3_EENS_18PointerIntPairInfoIS3_Lj2ES6_EEE6setIntES4_",
   "parameters" :
   [
    {
     "is_this_ptr" : true,
     "referenced_type" : "_ZTIPN4llvm14PointerIntPairIPPNS_3UseELj2ENS1_10PrevPtrTagENS_21PointerLikeTypeTraitsIS3_EENS_18PointerIntPairInfoIS3_Lj2ES6_EEEE"
    },
    {
     "referenced_type" : "_ZTIN4llvm3Use10PrevPtrTagE"
    }
   ],
   "return_type" : "_ZTIv",
   "source_file" : "external/llvm/include/llvm/ADT/PointerIntPair.h"
  },
  {
   "function_name" : "llvm::PointerIntPair<llvm::Use **, 2, llvm::Use::PrevPtrTag, llvm::PointerLikeTypeTraits<llvm::Use **>, llvm::PointerIntPairInfo<llvm::Use **, 2, llvm::PointerLikeTypeTraits<llvm::Use **>>>::PointerIntPair",
   "linker_set_key" : "_ZN4llvm14PointerIntPairIPPNS_3UseELj2ENS1_10PrevPtrTagENS_21PointerLikeTypeTraitsIS3_EENS_18PointerIntPairInfoIS3_Lj2ES6_EEEC1Ev",
   "parameters" :
   [
    {
     "is_this_ptr" : true,
     "referenced_type" : "_ZTIPN4llvm14PointerIntPairIPPNS_3UseELj2ENS1_10PrevPtrTagENS_21PointerLikeTypeTraitsIS3_EENS_18PointerIntPairInfoIS3_Lj2ES6_EEEE"
    }
   ],
   "return_type" : "_ZTIv",
   "source_file" : "external/llvm/include/llvm/ADT/PointerIntPair.h"
  },
  {
   "function_name" : "llvm::PointerIntPair<llvm::Use **, 2, llvm::Use::PrevPtrTag, llvm::PointerLikeTypeTraits<llvm::Use **>, llvm::PointerIntPairInfo<llvm::Use **, 2, llvm::PointerLikeTypeTraits<llvm::Use **>>>::PointerIntPair",
   "linker_set_key" : "_ZN4llvm14PointerIntPairIPPNS_3UseELj2ENS1_10PrevPtrTagENS_21PointerLikeTypeTraitsIS3_EENS_18PointerIntPairInfoIS3_Lj2ES6_EEEC2Ev",
   "parameters" :
   [
    {
     "is_this_ptr" : true,
     "referenced_type" : "_ZTIPN4llvm14PointerIntPairIPPNS_3UseELj2ENS1_10PrevPtrTagENS_21PointerLikeTypeTraitsIS3_EENS_18PointerIntPairInfoIS3_Lj2ES6_EEEE"
    }
   ],
   "return_type" : "_ZTIv",
   "source_file" : "external/llvm/include/llvm/ADT/PointerIntPair.h"
  },
  {
   "function_name" : "llvm::iterator_range<llvm::User::value_op_iterator>::iterator_range",
   "linker_set_key" : "_ZN4llvm14iterator_rangeINS_4User17value_op_iteratorEEC1ES2_S2_",
   "parameters" :
   [
    {
     "is_this_ptr" : true,
     "referenced_type" : "_ZTIPN4llvm14iterator_rangeINS_4User17value_op_iteratorEEE"
    },
    {
     "referenced_type" : "_ZTIN4llvm4User17value_op_iteratorE"
    },
    {
     "referenced_type" : "_ZTIN4llvm4User17value_op_iteratorE"
    }
   ],
   "return_type" : "_ZTIv",
   "source_file" : "external/llvm/include/llvm/ADT/iterator_range.h"
  },
  {
   "function_name" : "llvm::iterator_range<llvm::User::value_op_iterator>::iterator_range",
   "linker_set_key" : "_ZN4llvm14iterator_rangeINS_4User17value_op_iteratorEEC2ES2_S2_",
   "parameters" :
   [
    {
     "is_this_ptr" : true,
     "referenced_type" : "_ZTIPN4llvm14iterator_rangeINS_4User17value_op_iteratorEEE"
    },
    {
     "referenced_type" : "_ZTIN4llvm4User17value_op_iteratorE"
    },
    {
     "referenced_type" : "_ZTIN4llvm4User17value_op_iteratorE"
    }
   ],
   "return_type" : "_ZTIv",
   "source_file" : "external/llvm/include/llvm/ADT/iterator_range.h"
  },
  {
   "function_name" : "llvm::iterator_range<llvm::Value::use_iterator_impl<const llvm::Use>>::iterator_range",
   "linker_set_key" : "_ZN4llvm14iterator_rangeINS_5Value17use_iterator_implIKNS_3UseEEEEC1ES5_S5_",
   "parameters" :
   [
    {
     "is_this_ptr" : true,
     "referenced_type" : "_ZTIPN4llvm14iterator_rangeINS_5Value17use_iterator_implIKNS_3UseEEEEE"
    },
    {
     "referenced_type" : "_ZTIN4llvm5Value17use_iterator_implIKNS_3UseEEE"
    },
    {
     "referenced_type" : "_ZTIN4llvm5Value17use_iterator_implIKNS_3UseEEE"
    }
   ],
   "return_type" : "_ZTIv",
   "source_file" : "external/llvm/include/llvm/ADT/iterator_range.h"
  },
  {
   "function_name" : "llvm::iterator_range<llvm::Value::use_iterator_impl<const llvm::Use>>::iterator_range",
   "linker_set_key" : "_ZN4llvm14iterator_rangeINS_5Value17use_iterator_implIKNS_3UseEEEEC2ES5_S5_",
   "parameters" :
   [
    {
     "is_this_ptr" : true,
     "referenced_type" : "_ZTIPN4llvm14iterator_rangeINS_5Value17use_iterator_implIKNS_3UseEEEEE"
    },
    {
     "referenced_type" : "_ZTIN4llvm5Value17use_iterator_implIKNS_3UseEEE"
    },
    {
     "referenced_type" : "_ZTIN4llvm5Value17use_iterator_implIKNS_3UseEEE"
    }
   ],
   "return_type" : "_ZTIv",
   "source_file" : "external/llvm/include/llvm/ADT/iterator_range.h"
  },
  {
   "function_name" : "llvm::iterator_range<llvm::Value::use_iterator_impl<llvm::Use>>::iterator_range",
   "linker_set_key" : "_ZN4llvm14iterator_rangeINS_5Value17use_iterator_implINS_3UseEEEEC1ES4_S4_",
   "parameters" :
   [
    {
     "is_this_ptr" : true,
     "referenced_type" : "_ZTIPN4llvm14iterator_rangeINS_5Value17use_iterator_implINS_3UseEEEEE"
    },
    {
     "referenced_type" : "_ZTIN4llvm5Value17use_iterator_implINS_3UseEEE"
    },
    {
     "referenced_type" : "_ZTIN4llvm5Value17use_iterator_implINS_3UseEEE"
    }
   ],
   "return_type" : "_ZTIv",
   "source_file" : "external/llvm/include/llvm/ADT/iterator_range.h"
  },
  {
   "function_name" : "llvm::iterator_range<llvm::Value::use_iterator_impl<llvm::Use>>::iterator_range",
   "linker_set_key" : "_ZN4llvm14iterator_rangeINS_5Value17use_iterator_implINS_3UseEEEEC2ES4_S4_",
   "parameters" :
   [
    {
     "is_this_ptr" : true,
     "referenced_type" : "_ZTIPN4llvm14iterator_rangeINS_5Value17use_iterator_implINS_3UseEEEEE"
    },
    {
     "referenced_type" : "_ZTIN4llvm5Value17use_iterator_implINS_3UseEEE"
    },
    {
     "referenced_type" : "_ZTIN4llvm5Value17use_iterator_implINS_3UseEEE"
    }
   ],
   "return_type" : "_ZTIv",
   "source_file" : "external/llvm/include/llvm/ADT/iterator_range.h"
  },
  {
   "function_name" : "llvm::iterator_range<llvm::Value::user_iterator_impl<const llvm::User>>::iterator_range",
   "linker_set_key" : "_ZN4llvm14iterator_rangeINS_5Value18user_iterator_implIKNS_4UserEEEEC1ES5_S5_",
   "parameters" :
   [
    {
     "is_this_ptr" : true,
     "referenced_type" : "_ZTIPN4llvm14iterator_rangeINS_5Value18user_iterator_implIKNS_4UserEEEEE"
    },
    {
     "referenced_type" : "_ZTIN4llvm5Value18user_iterator_implIKNS_4UserEEE"
    },
    {
     "referenced_type" : "_ZTIN4llvm5Value18user_iterator_implIKNS_4UserEEE"
    }
   ],
   "return_type" : "_ZTIv",
   "source_file" : "external/llvm/include/llvm/ADT/iterator_range.h"
  },
  {
   "function_name" : "llvm::iterator_range<llvm::Value::user_iterator_impl<const llvm::User>>::iterator_range",
   "linker_set_key" : "_ZN4llvm14iterator_rangeINS_5Value18user_iterator_implIKNS_4UserEEEEC2ES5_S5_",
   "parameters" :
   [
    {
     "is_this_ptr" : true,
     "referenced_type" : "_ZTIPN4llvm14iterator_rangeINS_5Value18user_iterator_implIKNS_4UserEEEEE"
    },
    {
     "referenced_type" : "_ZTIN4llvm5Value18user_iterator_implIKNS_4UserEEE"
    },
    {
     "referenced_type" : "_ZTIN4llvm5Value18user_iterator_implIKNS_4UserEEE"
    }
   ],
   "return_type" : "_ZTIv",
   "source_file" : "external/llvm/include/llvm/ADT/iterator_range.h"
  },
  {
   "function_name" : "llvm::iterator_range<llvm::Value::user_iterator_impl<llvm::User>>::iterator_range",
   "linker_set_key" : "_ZN4llvm14iterator_rangeINS_5Value18user_iterator_implINS_4UserEEEEC1ES4_S4_",
   "parameters" :
   [
    {
     "is_this_ptr" : true,
     "referenced_type" : "_ZTIPN4llvm14iterator_rangeINS_5Value18user_iterator_implINS_4UserEEEEE"
    },
    {
     "referenced_type" : "_ZTIN4llvm5Value18user_iterator_implINS_4UserEEE"
    },
    {
     "referenced_type" : "_ZTIN4llvm5Value18user_iterator_implINS_4UserEEE"
    }
   ],
   "return_type" : "_ZTIv",
   "source_file" : "external/llvm/include/llvm/ADT/iterator_range.h"
  },
  {
   "function_name" : "llvm::iterator_range<llvm::Value::user_iterator_impl<llvm::User>>::iterator_range",
   "linker_set_key" : "_ZN4llvm14iterator_rangeINS_5Value18user_iterator_implINS_4UserEEEEC2ES4_S4_",
   "parameters" :
   [
    {
     "is_this_ptr" : true,
     "referenced_type" : "_ZTIPN4llvm14iterator_rangeINS_5Value18user_iterator_implINS_4UserEEEEE"
    },
    {
     "referenced_type" : "_ZTIN4llvm5Value18user_iterator_implINS_4UserEEE"
    },
    {
     "referenced_type" : "_ZTIN4llvm5Value18user_iterator_implINS_4UserEEE"
    }
   ],
   "return_type" : "_ZTIv",
   "source_file" : "external/llvm/include/llvm/ADT/iterator_range.h"
  },
  {
   "function_name" : "llvm::iterator_range<const llvm::Use *>::iterator_range",
   "linker_set_key" : "_ZN4llvm14iterator_rangeIPKNS_3UseEEC1ES3_S3_",
   "parameters" :
   [
    {
     "is_this_ptr" : true,
     "referenced_type" : "_ZTIPN4llvm14iterator_rangeIPKNS_3UseEEE"
    },
    {
     "referenced_type" : "_ZTIPKN4llvm3UseE"
    },
    {
     "referenced_type" : "_ZTIPKN4llvm3UseE"
    }
   ],
   "return_type" : "_ZTIv",
   "source_file" : "external/llvm/include/llvm/ADT/iterator_range.h"
  },
  {
   "function_name" : "llvm::iterator_range<const llvm::Use *>::iterator_range",
   "linker_set_key" : "_ZN4llvm14iterator_rangeIPKNS_3UseEEC2ES3_S3_",
   "parameters" :
   [
    {
     "is_this_ptr" : true,
     "referenced_type" : "_ZTIPN4llvm14iterator_rangeIPKNS_3UseEEE"
    },
    {
     "referenced_type" : "_ZTIPKN4llvm3UseE"
    },
    {
     "referenced_type" : "_ZTIPKN4llvm3UseE"
    }
   ],
   "return_type" : "_ZTIv",
   "source_file" : "external/llvm/include/llvm/ADT/iterator_range.h"
  },
  {
   "function_name" : "llvm::iterator_range<llvm::Use *>::iterator_range",
   "linker_set_key" : "_ZN4llvm14iterator_rangeIPNS_3UseEEC1ES2_S2_",
   "parameters" :
   [
    {
     "is_this_ptr" : true,
     "referenced_type" : "_ZTIPN4llvm14iterator_rangeIPNS_3UseEEE"
    },
    {
     "referenced_type" : "_ZTIPN4llvm3UseE"
    },
    {
     "referenced_type" : "_ZTIPN4llvm3UseE"
    }
   ],
   "return_type" : "_ZTIv",
   "source_file" : "external/llvm/include/llvm/ADT/iterator_range.h"
  },
  {
   "function_name" : "llvm::iterator_range<llvm::Use *>::iterator_range",
   "linker_set_key" : "_ZN4llvm14iterator_rangeIPNS_3UseEEC2ES2_S2_",
   "parameters" :
   [
    {
     "is_this_ptr" : true,
     "referenced_type" : "_ZTIPN4llvm14iterator_rangeIPNS_3UseEEE"
    },
    {
     "referenced_type" : "_ZTIPN4llvm3UseE"
    },
    {
     "referenced_type" : "_ZTIPN4llvm3UseE"
    }
   ],
   "return_type" : "_ZTIv",
   "source_file" : "external/llvm/include/llvm/ADT/iterator_range.h"
  },
  {
   "function_name" : "llvm::PointerIntPairInfo<llvm::User *, 1, llvm::PointerLikeTypeTraits<llvm::User *>>::getPointer",
   "linker_set_key" : "_ZN4llvm18PointerIntPairInfoIPNS_4UserELj1ENS_21PointerLikeTypeTraitsIS2_EEE10getPointerEl",
   "parameters" :
   [
    {
     "referenced_type" : "_ZTIl"
    }
   ],
   "return_type" : "_ZTIPN4llvm4UserE",
   "source_file" : "external/llvm/include/llvm/ADT/PointerIntPair.h"
  },
  {
   "function_name" : "llvm::PointerIntPairInfo<llvm::User *, 1, llvm::PointerLikeTypeTraits<llvm::User *>>::getInt",
   "linker_set_key" : "_ZN4llvm18PointerIntPairInfoIPNS_4UserELj1ENS_21PointerLikeTypeTraitsIS2_EEE6getIntEl",
   "parameters" :
   [
    {
     "referenced_type" : "_ZTIl"
    }
   ],
   "return_type" : "_ZTIl",
   "source_file" : "external/llvm/include/llvm/ADT/PointerIntPair.h"
  },
  {
   "function_name" : "llvm::PointerIntPairInfo<llvm::Use **, 2, llvm::PointerLikeTypeTraits<llvm::Use **>>::getPointer",
   "linker_set_key" : "_ZN4llvm18PointerIntPairInfoIPPNS_3UseELj2ENS_21PointerLikeTypeTraitsIS3_EEE10getPointerEl",
   "parameters" :
   [
    {
     "referenced_type" : "_ZTIl"
    }
   ],
   "return_type" : "_ZTIPPN4llvm3UseE",
   "source_file" : "external/llvm/include/llvm/ADT/PointerIntPair.h"
  },
  {
   "function_name" : "llvm::PointerIntPairInfo<llvm::Use **, 2, llvm::PointerLikeTypeTraits<llvm::Use **>>::updatePointer",
   "linker_set_key" : "_ZN4llvm18PointerIntPairInfoIPPNS_3UseELj2ENS_21PointerLikeTypeTraitsIS3_EEE13updatePointerElS3_",
   "parameters" :
   [
    {
     "referenced_type" : "_ZTIl"
    },
    {
     "referenced_type" : "_ZTIPPN4llvm3UseE"
    }
   ],
   "return_type" : "_ZTIl",
   "source_file" : "external/llvm/include/llvm/ADT/PointerIntPair.h"
  },
  {
   "function_name" : "llvm::PointerIntPairInfo<llvm::Use **, 2, llvm::PointerLikeTypeTraits<llvm::Use **>>::getInt",
   "linker_set_key" : "_ZN4llvm18PointerIntPairInfoIPPNS_3UseELj2ENS_21PointerLikeTypeTraitsIS3_EEE6getIntEl",
   "parameters" :
   [
    {
     "referenced_type" : "_ZTIl"
    }
   ],
   "return_type" : "_ZTIl",
   "source_file" : "external/llvm/include/llvm/ADT/PointerIntPair.h"
  },
  {
   "function_name" : "llvm::PointerIntPairInfo<llvm::Use **, 2, llvm::PointerLikeTypeTraits<llvm::Use **>>::updateInt",
   "linker_set_key" : "_ZN4llvm18PointerIntPairInfoIPPNS_3UseELj2ENS_21PointerLikeTypeTraitsIS3_EEE9updateIntEll",
   "parameters" :
   [
    {
     "referenced_type" : "_ZTIl"
    },
    {
     "referenced_type" : "_ZTIl"
    }
   ],
   "return_type" : "_ZTIl",
   "source_file" : "external/llvm/include/llvm/ADT/PointerIntPair.h"
  },
  {
   "function_name" : "llvm::PointerLikeTypeTraits<llvm::User *>::getFromVoidPointer",
   "linker_set_key" : "_ZN4llvm21PointerLikeTypeTraitsIPNS_4UserEE18getFromVoidPointerEPv",
   "parameters" :
   [
    {
     "referenced_type" : "_ZTIPv"
    }
   ],
   "return_type" : "_ZTIPN4llvm4UserE",
   "source_file" : "external/llvm/include/llvm/Support/PointerLikeTypeTraits.h"
  },
  {
   "function_name" : "llvm::PointerLikeTypeTraits<llvm::Value *>::getAsVoidPointer",
   "linker_set_key" : "_ZN4llvm21PointerLikeTypeTraitsIPNS_5ValueEE16getAsVoidPointerES2_",
   "parameters" :
   [
    {
     "referenced_type" : "_ZTIPN4llvm5ValueE"
    }
   ],
   "return_type" : "_ZTIPv",
   "source_file" : "external/llvm/include/llvm/IR/Value.h"
  },
  {
   "function_name" : "llvm::PointerLikeTypeTraits<llvm::Value *>::getFromVoidPointer",
   "linker_set_key" : "_ZN4llvm21PointerLikeTypeTraitsIPNS_5ValueEE18getFromVoidPointerEPv",
   "parameters" :
   [
    {
     "referenced_type" : "_ZTIPv"
    }
   ],
   "return_type" : "_ZTIPN4llvm5ValueE",
   "source_file" : "external/llvm/include/llvm/IR/Value.h"
  },
  {
   "function_name" : "llvm::PointerLikeTypeTraits<llvm::Use **>::getAsVoidPointer",
   "linker_set_key" : "_ZN4llvm21PointerLikeTypeTraitsIPPNS_3UseEE16getAsVoidPointerES3_",
   "parameters" :
   [
    {
     "referenced_type" : "_ZTIPPN4llvm3UseE"
    }
   ],
   "return_type" : "_ZTIPv",
   "source_file" : "external/llvm/include/llvm/IR/Use.h"
  },
  {
   "function_name" : "llvm::PointerLikeTypeTraits<llvm::Use **>::getFromVoidPointer",
   "linker_set_key" : "_ZN4llvm21PointerLikeTypeTraitsIPPNS_3UseEE18getFromVoidPointerEPv",
   "parameters" :
   [
    {
     "referenced_type" : "_ZTIPv"
    }
   ],
   "return_type" : "_ZTIPPN4llvm3UseE",
   "source_file" : "external/llvm/include/llvm/IR/Use.h"
  },
  {
   "function_name" : "llvm::PointerLikeTypeTraits<void *>::getAsVoidPointer",
   "linker_set_key" : "_ZN4llvm21PointerLikeTypeTraitsIPvE16getAsVoidPointerES1_",
   "parameters" :
   [
    {
     "referenced_type" : "_ZTIPv"
    }
   ],
   "return_type" : "_ZTIPv",
   "source_file" : "external/llvm/include/llvm/Support/PointerLikeTypeTraits.h"
  },
  {
   "function_name" : "llvm::PointerLikeTypeTraits<void *>::getFromVoidPointer",
   "linker_set_key" : "_ZN4llvm21PointerLikeTypeTraitsIPvE18getFromVoidPointerES1_",
   "parameters" :
   [
    {
     "referenced_type" : "_ZTIPv"
    }
   ],
   "return_type" : "_ZTIPv",
   "source_file" : "external/llvm/include/llvm/Support/PointerLikeTypeTraits.h"
  },
  {
   "function_name" : "llvm::PointerLikeTypeTraits<unsigned long>::getAsVoidPointer",
   "linker_set_key" : "_ZN4llvm21PointerLikeTypeTraitsImE16getAsVoidPointerEm",
   "parameters" :
   [
    {
     "referenced_type" : "_ZTIm"
    }
   ],
   "return_type" : "_ZTIPv",
   "source_file" : "external/llvm/include/llvm/Support/PointerLikeTypeTraits.h"
  },
  {
   "function_name" : "llvm::PointerLikeTypeTraits<unsigned long>::getFromVoidPointer",
   "linker_set_key" : "_ZN4llvm21PointerLikeTypeTraitsImE18getFromVoidPointerEPv",
   "parameters" :
   [
    {
     "referenced_type" : "_ZTIPv"
    }
   ],
   "return_type" : "_ZTIm",
   "source_file" : "external/llvm/include/llvm/Support/PointerLikeTypeTraits.h"
  },
  {
   "access" : "protected",
   "function_name" : "llvm::iterator_adaptor_base<llvm::User::value_op_iterator, llvm::Use *, std::__1::random_access_iterator_tag, llvm::Value *, long, llvm::Value *, llvm::Value *, std::__1::iterator_traits<llvm::Use *>>::iterator_adaptor_base",
   "linker_set_key" : "_ZN4llvm21iterator_adaptor_baseINS_4User17value_op_iteratorEPNS_3UseENSt3__126random_access_iterator_tagEPNS_5ValueElS8_S8_NS5_15iterator_traitsIS4_EEEC1Ev",
   "parameters" :
   [
    {
     "is_this_ptr" : true,
     "referenced_type" : "_ZTIPN4llvm21iterator_adaptor_baseINS_4User17value_op_iteratorEPNS_3UseENSt3__126random_access_iterator_tagEPNS_5ValueElS8_S8_NS5_15iterator_traitsIS4_EEEE"
    }
   ],
   "return_type" : "_ZTIv",
   "source_file" : "external/llvm/include/llvm/ADT/iterator.h"
  },
  {
   "access" : "protected",
   "function_name" : "llvm::iterator_adaptor_base<llvm::User::value_op_iterator, llvm::Use *, std::__1::random_access_iterator_tag, llvm::Value *, long, llvm::Value *, llvm::Value *, std::__1::iterator_traits<llvm::Use *>>::iterator_adaptor_base",
   "linker_set_key" : "_ZN4llvm21iterator_adaptor_baseINS_4User17value_op_iteratorEPNS_3UseENSt3__126random_access_iterator_tagEPNS_5ValueElS8_S8_NS5_15iterator_traitsIS4_EEEC1IRS4_EEOT_NS5_9enable_ifIXntsr3std10is_base_ofINS5_9remove_cvINS5_16remove_referenceISE_E4typeEE4typeES2_EE5valueEiE4typeE",
   "parameters" :
   [
    {
     "is_this_ptr" : true,
     "referenced_type" : "_ZTIPN4llvm21iterator_adaptor_baseINS_4User17value_op_iteratorEPNS_3UseENSt3__126random_access_iterator_tagEPNS_5ValueElS8_S8_NS5_15iterator_traitsIS4_EEEE"
    },
    {
     "referenced_type" : "_ZTIRPN4llvm3UseE"
    },
    {
     "default_arg" : true,
     "referenced_type" : "_ZTIi"
    }
   ],
   "return_type" : "_ZTIv",
   "source_file" : "external/llvm/include/llvm/ADT/iterator.h",
   "template_args" : [ "_ZTIRPN4llvm3UseE" ]
  },
  {
   "access" : "protected",
   "function_name" : "llvm::iterator_adaptor_base<llvm::User::value_op_iterator, llvm::Use *, std::__1::random_access_iterator_tag, llvm::Value *, long, llvm::Value *, llvm::Value *, std::__1::iterator_traits<llvm::Use *>>::iterator_adaptor_base",
   "linker_set_key" : "_ZN4llvm21iterator_adaptor_baseINS_4User17value_op_iteratorEPNS_3UseENSt3__126random_access_iterator_tagEPNS_5ValueElS8_S8_NS5_15iterator_traitsIS4_EEEC2Ev",
   "parameters" :
   [
    {
     "is_this_ptr" : true,
     "referenced_type" : "_ZTIPN4llvm21iterator_adaptor_baseINS_4User17value_op_iteratorEPNS_3UseENSt3__126random_access_iterator_tagEPNS_5ValueElS8_S8_NS5_15iterator_traitsIS4_EEEE"
    }
   ],
   "return_type" : "_ZTIv",
   "source_file" : "external/llvm/include/llvm/ADT/iterator.h"
  },
  {
   "access" : "protected",
   "function_name" : "llvm::iterator_adaptor_base<llvm::User::value_op_iterator, llvm::Use *, std::__1::random_access_iterator_tag, llvm::Value *, long, llvm::Value *, llvm::Value *, std::__1::iterator_traits<llvm::Use *>>::iterator_adaptor_base",
   "linker_set_key" : "_ZN4llvm21iterator_adaptor_baseINS_4User17value_op_iteratorEPNS_3UseENSt3__126random_access_iterator_tagEPNS_5ValueElS8_S8_NS5_15iterator_traitsIS4_EEEC2IRS4_EEOT_NS5_9enable_ifIXntsr3std10is_base_ofINS5_9remove_cvINS5_16remove_referenceISE_E4typeEE4typeES2_EE5valueEiE4typeE",
   "parameters" :
   [
    {
     "is_this_ptr" : true,
     "referenced_type" : "_ZTIPN4llvm21iterator_adaptor_baseINS_4User17value_op_iteratorEPNS_3UseENSt3__126random_access_iterator_tagEPNS_5ValueElS8_S8_NS5_15iterator_traitsIS4_EEEE"
    },
    {
     "referenced_type" : "_ZTIRPN4llvm3UseE"
    },
    {
     "default_arg" : true,
     "referenced_type" : "_ZTIi"
    }
   ],
   "return_type" : "_ZTIv",
   "source_file" : "external/llvm/include/llvm/ADT/iterator.h",
   "template_args" : [ "_ZTIRPN4llvm3UseE" ]
  },
  {
   "function_name" : "llvm::ScopedFatalErrorHandler::ScopedFatalErrorHandler",
   "linker_set_key" : "_ZN4llvm23ScopedFatalErrorHandlerC1EPFvPvRKNSt3__112basic_stringIcNS2_11char_traitsIcEENS2_9allocatorIcEEEEbES1_",
   "parameters" :
   [
    {
     "is_this_ptr" : true,
     "referenced_type" : "_ZTIPN4llvm23ScopedFatalErrorHandlerE"
    },
    {
     "referenced_type" : "_ZTIPFvPvRKNSt3__112basic_stringIcNS0_11char_traitsIcEENS0_9allocatorIcEEEEbE"
    },
    {
     "default_arg" : true,
     "referenced_type" : "_ZTIPv"
    }
   ],
   "return_type" : "_ZTIv",
   "source_file" : "external/llvm/include/llvm/Support/ErrorHandling.h"
  },
  {
   "function_name" : "llvm::ScopedFatalErrorHandler::ScopedFatalErrorHandler",
   "linker_set_key" : "_ZN4llvm23ScopedFatalErrorHandlerC2EPFvPvRKNSt3__112basic_stringIcNS2_11char_traitsIcEENS2_9allocatorIcEEEEbES1_",
   "parameters" :
   [
    {
     "is_this_ptr" : true,
     "referenced_type" : "_ZTIPN4llvm23ScopedFatalErrorHandlerE"
    },
    {
     "referenced_type" : "_ZTIPFvPvRKNSt3__112basic_stringIcNS0_11char_traitsIcEENS0_9allocatorIcEEEEbE"
    },
    {
     "default_arg" : true,
     "referenced_type" : "_ZTIPv"
    }
   ],
   "return_type" : "_ZTIv",
   "source_file" : "external/llvm/include/llvm/Support/ErrorHandling.h"
  },
  {
   "function_name" : "llvm::ScopedFatalErrorHandler::~ScopedFatalErrorHandler",
   "linker_set_key" : "_ZN4llvm23ScopedFatalErrorHandlerD1Ev",
   "parameters" :
   [
    {
     "is_this_ptr" : true,
     "referenced_type" : "_ZTIPN4llvm23ScopedFatalErrorHandlerE"
    }
   ],
   "return_type" : "_ZTIv",
   "source_file" : "external/llvm/include/llvm/Support/ErrorHandling.h"
  },
  {
   "function_name" : "llvm::ScopedFatalErrorHandler::~ScopedFatalErrorHandler",
   "linker_set_key" : "_ZN4llvm23ScopedFatalErrorHandlerD2Ev",
   "parameters" :
   [
    {
     "is_this_ptr" : true,
     "referenced_type" : "_ZTIPN4llvm23ScopedFatalErrorHandlerE"
    }
   ],
   "return_type" : "_ZTIv",
   "source_file" : "external/llvm/include/llvm/Support/ErrorHandling.h"
  },
  {
   "access" : "private",
   "function_name" : "llvm::Use::removeFromList",
   "linker_set_key" : "_ZN4llvm3Use14removeFromListEv",
   "parameters" :
   [
    {
     "is_this_ptr" : true,
     "referenced_type" : "_ZTIPN4llvm3UseE"
    }
   ],
   "return_type" : "_ZTIv",
   "source_file" : "external/llvm/include/llvm/IR/Use.h"
  },
  {
   "function_name" : "llvm::Use::set",
   "linker_set_key" : "_ZN4llvm3Use3setEPNS_5ValueE",
   "parameters" :
   [
    {
     "is_this_ptr" : true,
     "referenced_type" : "_ZTIPN4llvm3UseE"
    },
    {
     "referenced_type" : "_ZTIPN4llvm5ValueE"
    }
   ],
   "return_type" : "_ZTIv",
   "source_file" : "external/llvm/include/llvm/IR/Use.h"
  },
  {
   "function_name" : "llvm::Use::zap",
   "linker_set_key" : "_ZN4llvm3Use3zapEPS0_PKS0_b",
   "parameters" :
   [
    {
     "referenced_type" : "_ZTIPN4llvm3UseE"
    },
    {
     "referenced_type" : "_ZTIPKN4llvm3UseE"
    },
    {
     "default_arg" : true,
     "referenced_type" : "_ZTIb"
    }
   ],
   "return_type" : "_ZTIv",
   "source_file" : "external/llvm/include/llvm/IR/Use.h"
  },
  {
   "function_name" : "llvm::Use::swap",
   "linker_set_key" : "_ZN4llvm3Use4swapERS0_",
   "parameters" :
   [
    {
     "is_this_ptr" : true,
     "referenced_type" : "_ZTIPN4llvm3UseE"
    },
    {
     "referenced_type" : "_ZTIRN4llvm3UseE"
    }
   ],
   "return_type" : "_ZTIv",
   "source_file" : "external/llvm/include/llvm/IR/Use.h"
  },
  {
   "access" : "private",
   "function_name" : "llvm::Use::setPrev",
   "linker_set_key" : "_ZN4llvm3Use7setPrevEPPS0_",
   "parameters" :
   [
    {
     "is_this_ptr" : true,
     "referenced_type" : "_ZTIPN4llvm3UseE"
    },
    {
     "referenced_type" : "_ZTIPPN4llvm3UseE"
    }
   ],
   "return_type" : "_ZTIv",
   "source_file" : "external/llvm/include/llvm/IR/Use.h"
  },
  {
   "function_name" : "llvm::Use::initTags",
   "linker_set_key" : "_ZN4llvm3Use8initTagsEPS0_S1_",
   "parameters" :
   [
    {
     "referenced_type" : "_ZTIPN4llvm3UseE"
    },
    {
     "referenced_type" : "_ZTIPN4llvm3UseE"
    }
   ],
   "return_type" : "_ZTIPN4llvm3UseE",
   "source_file" : "external/llvm/include/llvm/IR/Use.h"
  },
  {
   "access" : "private",
   "function_name" : "llvm::Use::addToList",
   "linker_set_key" : "_ZN4llvm3Use9addToListEPPS0_",
   "parameters" :
   [
    {
     "is_this_ptr" : true,
     "referenced_type" : "_ZTIPN4llvm3UseE"
    },
    {
     "referenced_type" : "_ZTIPPN4llvm3UseE"
    }
   ],
   "return_type" : "_ZTIv",
   "source_file" : "external/llvm/include/llvm/IR/Use.h"
  },
  {
   "access" : "private",
   "function_name" : "llvm::Use::Use",
   "linker_set_key" : "_ZN4llvm3UseC1ENS0_10PrevPtrTagE",
   "parameters" :
   [
    {
     "is_this_ptr" : true,
     "referenced_type" : "_ZTIPN4llvm3UseE"
    },
    {
     "referenced_type" : "_ZTIN4llvm3Use10PrevPtrTagE"
    }
   ],
   "return_type" : "_ZTIv",
   "source_file" : "external/llvm/include/llvm/IR/Use.h"
  },
  {
   "access" : "private",
   "function_name" : "llvm::Use::Use",
   "linker_set_key" : "_ZN4llvm3UseC2ENS0_10PrevPtrTagE",
   "parameters" :
   [
    {
     "is_this_ptr" : true,
     "referenced_type" : "_ZTIPN4llvm3UseE"
    },
    {
     "referenced_type" : "_ZTIN4llvm3Use10PrevPtrTagE"
    }
   ],
   "return_type" : "_ZTIv",
   "source_file" : "external/llvm/include/llvm/IR/Use.h"
  },
  {
   "access" : "private",
   "function_name" : "llvm::Use::~Use",
   "linker_set_key" : "_ZN4llvm3UseD1Ev",
   "parameters" :
   [
    {
     "is_this_ptr" : true,
     "referenced_type" : "_ZTIPN4llvm3UseE"
    }
   ],
   "return_type" : "_ZTIv",
   "source_file" : "external/llvm/include/llvm/IR/Use.h"
  },
  {
   "access" : "private",
   "function_name" : "llvm::Use::~Use",
   "linker_set_key" : "_ZN4llvm3UseD2Ev",
   "parameters" :
   [
    {
     "is_this_ptr" : true,
     "referenced_type" : "_ZTIPN4llvm3UseE"
    }
   ],
   "return_type" : "_ZTIv",
   "source_file" : "external/llvm/include/llvm/IR/Use.h"
  },
  {
   "function_name" : "llvm::Use::operator=",
   "linker_set_key" : "_ZN4llvm3UseaSEPNS_5ValueE",
   "parameters" :
   [
    {
     "is_this_ptr" : true,
     "referenced_type" : "_ZTIPN4llvm3UseE"
    },
    {
     "referenced_type" : "_ZTIPN4llvm5ValueE"
    }
   ],
   "return_type" : "_ZTIPN4llvm5ValueE",
   "source_file" : "external/llvm/include/llvm/IR/Use.h"
  },
  {
   "function_name" : "llvm::Use::operator=",
   "linker_set_key" : "_ZN4llvm3UseaSERKS0_",
   "parameters" :
   [
    {
     "is_this_ptr" : true,
     "referenced_type" : "_ZTIPN4llvm3UseE"
    },
    {
     "referenced_type" : "_ZTIRKN4llvm3UseE"
    }
   ],
   "return_type" : "_ZTIRKN4llvm3UseE",
   "source_file" : "external/llvm/include/llvm/IR/Use.h"
  },
  {
   "function_name" : "llvm::Use::operator->",
   "linker_set_key" : "_ZN4llvm3UseptEv",
   "parameters" :
   [
    {
     "is_this_ptr" : true,
     "referenced_type" : "_ZTIPN4llvm3UseE"
    }
   ],
   "return_type" : "_ZTIPN4llvm5ValueE",
   "source_file" : "external/llvm/include/llvm/IR/Use.h"
  },
  {
   "function_name" : "llvm::isa",
   "linker_set_key" : "_ZN4llvm3isaINS_11GlobalAliasENS_5ValueEEEbRKT0_",
   "parameters" :
   [
    {
     "referenced_type" : "_ZTIRKN4llvm5ValueE"
    }
   ],
   "return_type" : "_ZTIb",
   "source_file" : "external/llvm/include/llvm/Support/Casting.h",
   "template_args" : [ "_ZTIN4llvm11GlobalAliasE", "_ZTIN4llvm5ValueE" ]
  },
  {
   "function_name" : "llvm::isa",
   "linker_set_key" : "_ZN4llvm3isaINS_11GlobalIFuncENS_5ValueEEEbRKT0_",
   "parameters" :
   [
    {
     "referenced_type" : "_ZTIRKN4llvm5ValueE"
    }
   ],
   "return_type" : "_ZTIb",
   "source_file" : "external/llvm/include/llvm/Support/Casting.h",
   "template_args" : [ "_ZTIN4llvm11GlobalIFuncE", "_ZTIN4llvm5ValueE" ]
  },
  {
   "function_name" : "llvm::isa",
   "linker_set_key" : "_ZN4llvm3isaINS_11InstructionEPKNS_5ValueEEEbRKT0_",
   "parameters" :
   [
    {
     "referenced_type" : "_ZTIRKPKN4llvm5ValueE"
    }
   ],
   "return_type" : "_ZTIb",
   "source_file" : "external/llvm/include/llvm/Support/Casting.h",
   "template_args" : [ "_ZTIN4llvm11InstructionE", "_ZTIPKN4llvm5ValueE" ]
  },
  {
   "function_name" : "llvm::isa",
   "linker_set_key" : "_ZN4llvm3isaINS_12GlobalObjectENS_5ValueEEEbRKT0_",
   "parameters" :
   [
    {
     "referenced_type" : "_ZTIRKN4llvm5ValueE"
    }
   ],
   "return_type" : "_ZTIb",
   "source_file" : "external/llvm/include/llvm/Support/Casting.h",
   "template_args" : [ "_ZTIN4llvm12GlobalObjectE", "_ZTIN4llvm5ValueE" ]
  },
  {
   "function_name" : "llvm::isa",
   "linker_set_key" : "_ZN4llvm3isaINS_14GlobalVariableENS_5ValueEEEbRKT0_",
   "parameters" :
   [
    {
     "referenced_type" : "_ZTIRKN4llvm5ValueE"
    }
   ],
   "return_type" : "_ZTIb",
   "source_file" : "external/llvm/include/llvm/Support/Casting.h",
   "template_args" : [ "_ZTIN4llvm14GlobalVariableE", "_ZTIN4llvm5ValueE" ]
  },
  {
   "function_name" : "llvm::isa",
   "linker_set_key" : "_ZN4llvm3isaINS_20GlobalIndirectSymbolENS_5ValueEEEbRKT0_",
   "parameters" :
   [
    {
     "referenced_type" : "_ZTIRKN4llvm5ValueE"
    }
   ],
   "return_type" : "_ZTIb",
   "source_file" : "external/llvm/include/llvm/Support/Casting.h",
   "template_args" : [ "_ZTIN4llvm20GlobalIndirectSymbolE", "_ZTIN4llvm5ValueE" ]
  },
  {
   "function_name" : "llvm::isa",
   "linker_set_key" : "_ZN4llvm3isaINS_8ConstantEPKNS_5ValueEEEbRKT0_",
   "parameters" :
   [
    {
     "referenced_type" : "_ZTIRKPKN4llvm5ValueE"
    }
   ],
   "return_type" : "_ZTIb",
   "source_file" : "external/llvm/include/llvm/Support/Casting.h",
   "template_args" : [ "_ZTIN4llvm8ConstantE", "_ZTIPKN4llvm5ValueE" ]
  },
  {
   "function_name" : "llvm::isa",
   "linker_set_key" : "_ZN4llvm3isaINS_8FunctionENS_5ValueEEEbRKT0_",
   "parameters" :
   [
    {
     "referenced_type" : "_ZTIRKN4llvm5ValueE"
    }
   ],
   "return_type" : "_ZTIb",
   "source_file" : "external/llvm/include/llvm/Support/Casting.h",
   "template_args" : [ "_ZTIN4llvm8FunctionE", "_ZTIN4llvm5ValueE" ]
  },
  {
   "function_name" : "llvm::User::setOperand",
   "linker_set_key" : "_ZN4llvm4User10setOperandEjPNS_5ValueE",
   "parameters" :
   [
    {
     "is_this_ptr" : true,
     "referenced_type" : "_ZTIPN4llvm4UserE"
    },
    {
     "referenced_type" : "_ZTIj"
    },
    {
     "referenced_type" : "_ZTIPN4llvm5ValueE"
    }
   ],
   "return_type" : "_ZTIv",
   "source_file" : "external/llvm/include/llvm/IR/User.h"
  },
  {
   "function_name" : "llvm::User::value_op_end",
   "linker_set_key" : "_ZN4llvm4User12value_op_endEv",
   "parameters" :
   [
    {
     "is_this_ptr" : true,
     "referenced_type" : "_ZTIPN4llvm4UserE"
    }
   ],
   "return_type" : "_ZTIN4llvm4User17value_op_iteratorE",
   "source_file" : "external/llvm/include/llvm/IR/User.h"
  },
  {
   "function_name" : "llvm::User::getOperandUse",
   "linker_set_key" : "_ZN4llvm4User13getOperandUseEj",
   "parameters" :
   [
    {
     "is_this_ptr" : true,
     "referenced_type" : "_ZTIPN4llvm4UserE"
    },
    {
     "referenced_type" : "_ZTIj"
    }
   ],
   "return_type" : "_ZTIRN4llvm3UseE",
   "source_file" : "external/llvm/include/llvm/IR/User.h"
  },
  {
   "function_name" : "llvm::User::getOperandList",
   "linker_set_key" : "_ZN4llvm4User14getOperandListEv",
   "parameters" :
   [
    {
     "is_this_ptr" : true,
     "referenced_type" : "_ZTIPN4llvm4UserE"
    }
   ],
   "return_type" : "_ZTIPN4llvm3UseE",
   "source_file" : "external/llvm/include/llvm/IR/User.h"
  },
  {
   "function_name" : "llvm::User::operand_values",
   "linker_set_key" : "_ZN4llvm4User14operand_valuesEv",
   "parameters" :
   [
    {
     "is_this_ptr" : true,
     "referenced_type" : "_ZTIPN4llvm4UserE"
    }
   ],
   "return_type" : "_ZTIN4llvm14iterator_rangeINS_4User17value_op_iteratorEEE",
   "source_file" : "external/llvm/include/llvm/IR/User.h"
  },
  {
   "access" : "private",
   "function_name" : "llvm::User::setOperandList",
   "linker_set_key" : "_ZN4llvm4User14setOperandListEPNS_3UseE",
   "parameters" :
   [
    {
     "is_this_ptr" : true,
     "referenced_type" : "_ZTIPN4llvm4UserE"
    },
    {
     "referenced_type" : "_ZTIPN4llvm3UseE"
    }
   ],
   "return_type" : "_ZTIv",
   "source_file" : "external/llvm/include/llvm/IR/User.h"
  },
  {
   "function_name" : "llvm::User::value_op_begin",
   "linker_set_key" : "_ZN4llvm4User14value_op_beginEv",
   "parameters" :
   [
    {
     "is_this_ptr" : true,
     "referenced_type" : "_ZTIPN4llvm4UserE"
    }
   ],
   "return_type" : "_ZTIN4llvm4User17value_op_iteratorE",
   "source_file" : "external/llvm/include/llvm/IR/User.h"
  },
  {
   "function_name" : "llvm::User::dropAllReferences",
   "linker_set_key" : "_ZN4llvm4User17dropAllReferencesEv",
   "parameters" :
   [
    {
     "is_this_ptr" : true,
     "referenced_type" : "_ZTIPN4llvm4UserE"
    }
   ],
   "return_type" : "_ZTIv",
   "source_file" : "external/llvm/include/llvm/IR/User.h"
  },
  {
   "function_name" : "llvm::User::value_op_iterator::value_op_iterator",
   "linker_set_key" : "_ZN4llvm4User17value_op_iteratorC1EPNS_3UseE",
   "parameters" :
   [
    {
     "is_this_ptr" : true,
     "referenced_type" : "_ZTIPN4llvm4User17value_op_iteratorE"
    },
    {
     "default_arg" : true,
     "referenced_type" : "_ZTIPN4llvm3UseE"
    }
   ],
   "return_type" : "_ZTIv",
   "source_file" : "external/llvm/include/llvm/IR/User.h"
  },
  {
   "function_name" : "llvm::User::value_op_iterator::value_op_iterator",
   "linker_set_key" : "_ZN4llvm4User17value_op_iteratorC2EPNS_3UseE",
   "parameters" :
   [
    {
     "is_this_ptr" : true,
     "referenced_type" : "_ZTIPN4llvm4User17value_op_iteratorE"
    },
    {
     "default_arg" : true,
     "referenced_type" : "_ZTIPN4llvm3UseE"
    }
   ],
   "return_type" : "_ZTIv",
   "source_file" : "external/llvm/include/llvm/IR/User.h"
  },
  {
   "access" : "private",
   "function_name" : "llvm::User::getHungOffOperands",
   "linker_set_key" : "_ZN4llvm4User18getHungOffOperandsEv",
   "parameters" :
   [
    {
     "is_this_ptr" : true,
     "referenced_type" : "_ZTIPN4llvm4UserE"
    }
   ],
   "return_type" : "_ZTIRPN4llvm3UseE",
   "source_file" : "external/llvm/include/llvm/IR/User.h"
  },
  {
   "access" : "private",
   "function_name" : "llvm::User::getIntrusiveOperands",
   "linker_set_key" : "_ZN4llvm4User20getIntrusiveOperandsEv",
   "parameters" :
   [
    {
     "is_this_ptr" : true,
     "referenced_type" : "_ZTIPN4llvm4UserE"
    }
   ],
   "return_type" : "_ZTIPN4llvm3UseE",
   "source_file" : "external/llvm/include/llvm/IR/User.h"
  },
  {
   "function_name" : "llvm::User::setNumHungOffUseOperands",
   "linker_set_key" : "_ZN4llvm4User24setNumHungOffUseOperandsEj",
   "parameters" :
   [
    {
     "is_this_ptr" : true,
     "referenced_type" : "_ZTIPN4llvm4UserE"
    },
    {
     "referenced_type" : "_ZTIj"
    }
   ],
   "return_type" : "_ZTIv",
   "source_file" : "external/llvm/include/llvm/IR/User.h"
  },
  {
   "function_name" : "llvm::User::setGlobalVariableNumOperands",
   "linker_set_key" : "_ZN4llvm4User28setGlobalVariableNumOperandsEj",
   "parameters" :
   [
    {
     "is_this_ptr" : true,
     "referenced_type" : "_ZTIPN4llvm4UserE"
    },
    {
     "referenced_type" : "_ZTIj"
    }
   ],
   "return_type" : "_ZTIv",
   "source_file" : "external/llvm/include/llvm/IR/User.h"
  },
  {
   "function_name" : "llvm::User::op_end",
   "linker_set_key" : "_ZN4llvm4User6op_endEv",
   "parameters" :
   [
    {
     "is_this_ptr" : true,
     "referenced_type" : "_ZTIPN4llvm4UserE"
    }
   ],
   "return_type" : "_ZTIPN4llvm3UseE",
   "source_file" : "external/llvm/include/llvm/IR/User.h"
  },
  {
   "function_name" : "llvm::User::classof",
   "linker_set_key" : "_ZN4llvm4User7classofEPKNS_5ValueE",
   "parameters" :
   [
    {
     "referenced_type" : "_ZTIPKN4llvm5ValueE"
    }
   ],
   "return_type" : "_ZTIb",
   "source_file" : "external/llvm/include/llvm/IR/User.h"
  },
  {
   "function_name" : "llvm::User::op_begin",
   "linker_set_key" : "_ZN4llvm4User8op_beginEv",
   "parameters" :
   [
    {
     "is_this_ptr" : true,
     "referenced_type" : "_ZTIPN4llvm4UserE"
    }
   ],
   "return_type" : "_ZTIPN4llvm3UseE",
   "source_file" : "external/llvm/include/llvm/IR/User.h"
  },
  {
   "function_name" : "llvm::User::operands",
   "linker_set_key" : "_ZN4llvm4User8operandsEv",
   "parameters" :
   [
    {
     "is_this_ptr" : true,
     "referenced_type" : "_ZTIPN4llvm4UserE"
    }
   ],
   "return_type" : "_ZTIN4llvm14iterator_rangeIPNS_3UseEEE",
   "source_file" : "external/llvm/include/llvm/IR/User.h"
  },
  {
   "access" : "protected",
   "function_name" : "llvm::User::User",
   "linker_set_key" : "_ZN4llvm4UserC1EPNS_4TypeEjPNS_3UseEj",
   "parameters" :
   [
    {
     "is_this_ptr" : true,
     "referenced_type" : "_ZTIPN4llvm4UserE"
    },
    {
     "referenced_type" : "_ZTIPN4llvm4TypeE"
    },
    {
     "referenced_type" : "_ZTIj"
    },
    {
     "referenced_type" : "_ZTIPN4llvm3UseE"
    },
    {
     "referenced_type" : "_ZTIj"
    }
   ],
   "return_type" : "_ZTIv",
   "source_file" : "external/llvm/include/llvm/IR/User.h"
  },
  {
   "access" : "protected",
   "function_name" : "llvm::User::User",
   "linker_set_key" : "_ZN4llvm4UserC2EPNS_4TypeEjPNS_3UseEj",
   "parameters" :
   [
    {
     "is_this_ptr" : true,
     "referenced_type" : "_ZTIPN4llvm4UserE"
    },
    {
     "referenced_type" : "_ZTIPN4llvm4TypeE"
    },
    {
     "referenced_type" : "_ZTIj"
    },
    {
     "referenced_type" : "_ZTIPN4llvm3UseE"
    },
    {
     "referenced_type" : "_ZTIj"
    }
   ],
   "return_type" : "_ZTIv",
   "source_file" : "external/llvm/include/llvm/IR/User.h"
  },
  {
   "function_name" : "llvm::User::~User",
   "linker_set_key" : "_ZN4llvm4UserD0Ev",
   "parameters" :
   [
    {
     "is_this_ptr" : true,
     "referenced_type" : "_ZTIPN4llvm4UserE"
    }
   ],
   "return_type" : "_ZTIv",
   "source_file" : "external/llvm/include/llvm/IR/User.h"
  },
  {
   "function_name" : "llvm::User::~User",
   "linker_set_key" : "_ZN4llvm4UserD1Ev",
   "parameters" :
   [
    {
     "is_this_ptr" : true,
     "referenced_type" : "_ZTIPN4llvm4UserE"
    }
   ],
   "return_type" : "_ZTIv",
   "source_file" : "external/llvm/include/llvm/IR/User.h"
  },
  {
   "function_name" : "llvm::User::~User",
   "linker_set_key" : "_ZN4llvm4UserD2Ev",
   "parameters" :
   [
    {
     "is_this_ptr" : true,
     "referenced_type" : "_ZTIPN4llvm4UserE"
    }
   ],
   "return_type" : "_ZTIv",
   "source_file" : "external/llvm/include/llvm/IR/User.h"
  },
  {
   "function_name" : "llvm::User::operator delete",
   "linker_set_key" : "_ZN4llvm4UserdlEPvj",
   "parameters" :
   [
    {
     "referenced_type" : "_ZTIPv"
    },
    {
     "referenced_type" : "_ZTIj"
    }
   ],
   "return_type" : "_ZTIv",
   "source_file" : "external/llvm/include/llvm/IR/User.h"
  },
  {
   "function_name" : "llvm::User::operator delete",
   "linker_set_key" : "_ZN4llvm4UserdlEPvjb",
   "parameters" :
   [
    {
     "referenced_type" : "_ZTIPv"
    },
    {
     "referenced_type" : "_ZTIj"
    },
    {
     "referenced_type" : "_ZTIb"
    }
   ],
   "return_type" : "_ZTIv",
   "source_file" : "external/llvm/include/llvm/IR/User.h"
  },
  {
   "function_name" : "llvm::wrap",
   "linker_set_key" : "_ZN4llvm4wrapEPKNS_3UseE",
   "parameters" :
   [
    {
     "referenced_type" : "_ZTIPKN4llvm3UseE"
    }
   ],
   "return_type" : "_ZTIP13LLVMOpaqueUse",
   "source_file" : "external/llvm/include/llvm/IR/Use.h"
  },
  {
   "function_name" : "llvm::wrap",
   "linker_set_key" : "_ZN4llvm4wrapEPKNS_5ValueE",
   "parameters" :
   [
    {
     "referenced_type" : "_ZTIPKN4llvm5ValueE"
    }
   ],
   "return_type" : "_ZTIP15LLVMOpaqueValue",
   "source_file" : "external/llvm/include/llvm/IR/Value.h"
  },
  {
   "function_name" : "llvm::wrap",
   "linker_set_key" : "_ZN4llvm4wrapEPPKNS_5ValueE",
   "parameters" :
   [
    {
     "referenced_type" : "_ZTIPPKN4llvm5ValueE"
    }
   ],
   "return_type" : "_ZTIPP15LLVMOpaqueValue",
   "source_file" : "external/llvm/include/llvm/IR/Value.h"
  },
  {
   "function_name" : "llvm::Value::mutateType",
   "linker_set_key" : "_ZN4llvm5Value10mutateTypeEPNS_4TypeE",
   "parameters" :
   [
    {
     "is_this_ptr" : true,
     "referenced_type" : "_ZTIPN4llvm5ValueE"
    },
    {
     "referenced_type" : "_ZTIPN4llvm4TypeE"
    }
   ],
   "return_type" : "_ZTIv",
   "source_file" : "external/llvm/include/llvm/IR/Value.h"
  },
  {
   "function_name" : "llvm::Value::user_begin",
   "linker_set_key" : "_ZN4llvm5Value10user_beginEv",
   "parameters" :
   [
    {
     "is_this_ptr" : true,
     "referenced_type" : "_ZTIPN4llvm5ValueE"
    }
   ],
   "return_type" : "_ZTIN4llvm5Value18user_iterator_implINS_4UserEEE",
   "source_file" : "external/llvm/include/llvm/IR/Value.h"
  },
  {
   "function_name" : "llvm::Value::materialized_uses",
   "linker_set_key" : "_ZN4llvm5Value17materialized_usesEv",
   "parameters" :
   [
    {
     "is_this_ptr" : true,
     "referenced_type" : "_ZTIPN4llvm5ValueE"
    }
   ],
   "return_type" : "_ZTIN4llvm14iterator_rangeINS_5Value17use_iterator_implINS_3UseEEEEE",
   "source_file" : "external/llvm/include/llvm/IR/Value.h"
  },
  {
   "access" : "private",
   "function_name" : "llvm::Value::use_iterator_impl<const llvm::Use>::use_iterator_impl",
   "linker_set_key" : "_ZN4llvm5Value17use_iterator_implIKNS_3UseEEC1EPS3_",
   "parameters" :
   [
    {
     "is_this_ptr" : true,
     "referenced_type" : "_ZTIPN4llvm5Value17use_iterator_implIKNS_3UseEEE"
    },
    {
     "referenced_type" : "_ZTIPKN4llvm3UseE"
    }
   ],
   "return_type" : "_ZTIv",
   "source_file" : "external/llvm/include/llvm/IR/Value.h"
  },
  {
   "function_name" : "llvm::Value::use_iterator_impl<const llvm::Use>::use_iterator_impl",
   "linker_set_key" : "_ZN4llvm5Value17use_iterator_implIKNS_3UseEEC1Ev",
   "parameters" :
   [
    {
     "is_this_ptr" : true,
     "referenced_type" : "_ZTIPN4llvm5Value17use_iterator_implIKNS_3UseEEE"
    }
   ],
   "return_type" : "_ZTIv",
   "source_file" : "external/llvm/include/llvm/IR/Value.h"
  },
  {
   "access" : "private",
   "function_name" : "llvm::Value::use_iterator_impl<const llvm::Use>::use_iterator_impl",
   "linker_set_key" : "_ZN4llvm5Value17use_iterator_implIKNS_3UseEEC2EPS3_",
   "parameters" :
   [
    {
     "is_this_ptr" : true,
     "referenced_type" : "_ZTIPN4llvm5Value17use_iterator_implIKNS_3UseEEE"
    },
    {
     "referenced_type" : "_ZTIPKN4llvm3UseE"
    }
   ],
   "return_type" : "_ZTIv",
   "source_file" : "external/llvm/include/llvm/IR/Value.h"
  },
  {
   "function_name" : "llvm::Value::use_iterator_impl<const llvm::Use>::use_iterator_impl",
   "linker_set_key" : "_ZN4llvm5Value17use_iterator_implIKNS_3UseEEC2Ev",
   "parameters" :
   [
    {
     "is_this_ptr" : true,
     "referenced_type" : "_ZTIPN4llvm5Value17use_iterator_implIKNS_3UseEEE"
    }
   ],
   "return_type" : "_ZTIv",
   "source_file" : "external/llvm/include/llvm/IR/Value.h"
  },
  {
   "function_name" : "llvm::Value::use_iterator_impl<const llvm::Use>::operator++",
   "linker_set_key" : "_ZN4llvm5Value17use_iterator_implIKNS_3UseEEppEv",
   "parameters" :
   [
    {
     "is_this_ptr" : true,
     "referenced_type" : "_ZTIPN4llvm5Value17use_iterator_implIKNS_3UseEEE"
    }
   ],
   "return_type" : "_ZTIRN4llvm5Value17use_iterator_implIKNS_3UseEEE",
   "source_file" : "external/llvm/include/llvm/IR/Value.h"
  },
  {
   "access" : "private",
   "function_name" : "llvm::Value::use_iterator_impl<llvm::Use>::use_iterator_impl",
   "linker_set_key" : "_ZN4llvm5Value17use_iterator_implINS_3UseEEC1EPS2_",
   "parameters" :
   [
    {
     "is_this_ptr" : true,
     "referenced_type" : "_ZTIPN4llvm5Value17use_iterator_implINS_3UseEEE"
    },
    {
     "referenced_type" : "_ZTIPN4llvm3UseE"
    }
   ],
   "return_type" : "_ZTIv",
   "source_file" : "external/llvm/include/llvm/IR/Value.h"
  },
  {
   "function_name" : "llvm::Value::use_iterator_impl<llvm::Use>::use_iterator_impl",
   "linker_set_key" : "_ZN4llvm5Value17use_iterator_implINS_3UseEEC1Ev",
   "parameters" :
   [
    {
     "is_this_ptr" : true,
     "referenced_type" : "_ZTIPN4llvm5Value17use_iterator_implINS_3UseEEE"
    }
   ],
   "return_type" : "_ZTIv",
   "source_file" : "external/llvm/include/llvm/IR/Value.h"
  },
  {
   "access" : "private",
   "function_name" : "llvm::Value::use_iterator_impl<llvm::Use>::use_iterator_impl",
   "linker_set_key" : "_ZN4llvm5Value17use_iterator_implINS_3UseEEC2EPS2_",
   "parameters" :
   [
    {
     "is_this_ptr" : true,
     "referenced_type" : "_ZTIPN4llvm5Value17use_iterator_implINS_3UseEEE"
    },
    {
     "referenced_type" : "_ZTIPN4llvm3UseE"
    }
   ],
   "return_type" : "_ZTIv",
   "source_file" : "external/llvm/include/llvm/IR/Value.h"
  },
  {
   "function_name" : "llvm::Value::use_iterator_impl<llvm::Use>::use_iterator_impl",
   "linker_set_key" : "_ZN4llvm5Value17use_iterator_implINS_3UseEEC2Ev",
   "parameters" :
   [
    {
     "is_this_ptr" : true,
     "referenced_type" : "_ZTIPN4llvm5Value17use_iterator_implINS_3UseEEE"
    }
   ],
   "return_type" : "_ZTIv",
   "source_file" : "external/llvm/include/llvm/IR/Value.h"
  },
  {
   "function_name" : "llvm::Value::materialized_users",
   "linker_set_key" : "_ZN4llvm5Value18materialized_usersEv",
   "parameters" :
   [
    {
     "is_this_ptr" : true,
     "referenced_type" : "_ZTIPN4llvm5ValueE"
    }
   ],
   "return_type" : "_ZTIN4llvm14iterator_rangeINS_5Value18user_iterator_implINS_4UserEEEEE",
   "source_file" : "external/llvm/include/llvm/IR/Value.h"
  },
  {
   "access" : "private",
   "function_name" : "llvm::Value::user_iterator_impl<const llvm::User>::user_iterator_impl",
   "linker_set_key" : "_ZN4llvm5Value18user_iterator_implIKNS_4UserEEC1EPNS_3UseE",
   "parameters" :
   [
    {
     "is_this_ptr" : true,
     "referenced_type" : "_ZTIPN4llvm5Value18user_iterator_implIKNS_4UserEEE"
    },
    {
     "referenced_type" : "_ZTIPN4llvm3UseE"
    }
   ],
   "return_type" : "_ZTIv",
   "source_file" : "external/llvm/include/llvm/IR/Value.h"
  },
  {
   "function_name" : "llvm::Value::user_iterator_impl<const llvm::User>::user_iterator_impl",
   "linker_set_key" : "_ZN4llvm5Value18user_iterator_implIKNS_4UserEEC1Ev",
   "parameters" :
   [
    {
     "is_this_ptr" : true,
     "referenced_type" : "_ZTIPN4llvm5Value18user_iterator_implIKNS_4UserEEE"
    }
   ],
   "return_type" : "_ZTIv",
   "source_file" : "external/llvm/include/llvm/IR/Value.h"
  },
  {
   "access" : "private",
   "function_name" : "llvm::Value::user_iterator_impl<const llvm::User>::user_iterator_impl",
   "linker_set_key" : "_ZN4llvm5Value18user_iterator_implIKNS_4UserEEC2EPNS_3UseE",
   "parameters" :
   [
    {
     "is_this_ptr" : true,
     "referenced_type" : "_ZTIPN4llvm5Value18user_iterator_implIKNS_4UserEEE"
    },
    {
     "referenced_type" : "_ZTIPN4llvm3UseE"
    }
   ],
   "return_type" : "_ZTIv",
   "source_file" : "external/llvm/include/llvm/IR/Value.h"
  },
  {
   "function_name" : "llvm::Value::user_iterator_impl<const llvm::User>::user_iterator_impl",
   "linker_set_key" : "_ZN4llvm5Value18user_iterator_implIKNS_4UserEEC2Ev",
   "parameters" :
   [
    {
     "is_this_ptr" : true,
     "referenced_type" : "_ZTIPN4llvm5Value18user_iterator_implIKNS_4UserEEE"
    }
   ],
   "return_type" : "_ZTIv",
   "source_file" : "external/llvm/include/llvm/IR/Value.h"
  },
  {
   "access" : "private",
   "function_name" : "llvm::Value::user_iterator_impl<llvm::User>::user_iterator_impl",
   "linker_set_key" : "_ZN4llvm5Value18user_iterator_implINS_4UserEEC1EPNS_3UseE",
   "parameters" :
   [
    {
     "is_this_ptr" : true,
     "referenced_type" : "_ZTIPN4llvm5Value18user_iterator_implINS_4UserEEE"
    },
    {
     "referenced_type" : "_ZTIPN4llvm3UseE"
    }
   ],
   "return_type" : "_ZTIv",
   "source_file" : "external/llvm/include/llvm/IR/Value.h"
  },
  {
   "function_name" : "llvm::Value::user_iterator_impl<llvm::User>::user_iterator_impl",
   "linker_set_key" : "_ZN4llvm5Value18user_iterator_implINS_4UserEEC1Ev",
   "parameters" :
   [
    {
     "is_this_ptr" : true,
     "referenced_type" : "_ZTIPN4llvm5Value18user_iterator_implINS_4UserEEE"
    }
   ],
   "return_type" : "_ZTIv",
   "source_file" : "external/llvm/include/llvm/IR/Value.h"
  },
  {
   "access" : "private",
   "function_name" : "llvm::Value::user_iterator_impl<llvm::User>::user_iterator_impl",
   "linker_set_key" : "_ZN4llvm5Value18user_iterator_implINS_4UserEEC2EPNS_3UseE",
   "parameters" :
   [
    {
     "is_this_ptr" : true,
     "referenced_type" : "_ZTIPN4llvm5Value18user_iterator_implINS_4UserEEE"
    },
    {
     "referenced_type" : "_ZTIPN4llvm3UseE"
    }
   ],
   "return_type" : "_ZTIv",
   "source_file" : "external/llvm/include/llvm/IR/Value.h"
  },
  {
   "function_name" : "llvm::Value::user_iterator_impl<llvm::User>::user_iterator_impl",
   "linker_set_key" : "_ZN4llvm5Value18user_iterator_implINS_4UserEEC2Ev",
   "parameters" :
   [
    {
     "is_this_ptr" : true,
     "referenced_type" : "_ZTIPN4llvm5Value18user_iterator_implINS_4UserEEE"
    }
   ],
   "return_type" : "_ZTIv",
   "source_file" : "external/llvm/include/llvm/IR/Value.h"
  },
  {
   "access" : "protected",
   "function_name" : "llvm::Value::setValueSubclassData",
   "linker_set_key" : "_ZN4llvm5Value20setValueSubclassDataEt",
   "parameters" :
   [
    {
     "is_this_ptr" : true,
     "referenced_type" : "_ZTIPN4llvm5ValueE"
    },
    {
     "referenced_type" : "_ZTIt"
    }
   ],
   "return_type" : "_ZTIv",
   "source_file" : "external/llvm/include/llvm/IR/Value.h"
  },
  {
   "function_name" : "llvm::Value::materialized_use_begin",
   "linker_set_key" : "_ZN4llvm5Value22materialized_use_beginEv",
   "parameters" :
   [
    {
     "is_this_ptr" : true,
     "referenced_type" : "_ZTIPN4llvm5ValueE"
    }
   ],
   "return_type" : "_ZTIN4llvm5Value17use_iterator_implINS_3UseEEE",
   "source_file" : "external/llvm/include/llvm/IR/Value.h"
  },
  {
   "function_name" : "llvm::Value::materialized_user_begin",
   "linker_set_key" : "_ZN4llvm5Value23materialized_user_beginEv",
   "parameters" :
   [
    {
     "is_this_ptr" : true,
     "referenced_type" : "_ZTIPN4llvm5ValueE"
    }
   ],
   "return_type" : "_ZTIN4llvm5Value18user_iterator_implINS_4UserEEE",
   "source_file" : "external/llvm/include/llvm/IR/Value.h"
  },
  {
   "function_name" : "llvm::Value::clearSubclassOptionalData",
   "linker_set_key" : "_ZN4llvm5Value25clearSubclassOptionalDataEv",
   "parameters" :
   [
    {
     "is_this_ptr" : true,
     "referenced_type" : "_ZTIPN4llvm5ValueE"
    }
   ],
   "return_type" : "_ZTIv",
   "source_file" : "external/llvm/include/llvm/IR/Value.h"
  },
  {
   "function_name" : "llvm::Value::intersectOptionalDataWith",
   "linker_set_key" : "_ZN4llvm5Value25intersectOptionalDataWithEPKS0_",
   "parameters" :
   [
    {
     "is_this_ptr" : true,
     "referenced_type" : "_ZTIPN4llvm5ValueE"
    },
    {
     "referenced_type" : "_ZTIPKN4llvm5ValueE"
    }
   ],
   "return_type" : "_ZTIv",
   "source_file" : "external/llvm/include/llvm/IR/Value.h"
  },
  {
   "function_name" : "llvm::Value::uses",
   "linker_set_key" : "_ZN4llvm5Value4usesEv",
   "parameters" :
   [
    {
     "is_this_ptr" : true,
     "referenced_type" : "_ZTIPN4llvm5ValueE"
    }
   ],
   "return_type" : "_ZTIN4llvm14iterator_rangeINS_5Value17use_iterator_implINS_3UseEEEEE",
   "source_file" : "external/llvm/include/llvm/IR/Value.h"
  },
  {
   "function_name" : "llvm::Value::users",
   "linker_set_key" : "_ZN4llvm5Value5usersEv",
   "parameters" :
   [
    {
     "is_this_ptr" : true,
     "referenced_type" : "_ZTIPN4llvm5ValueE"
    }
   ],
   "return_type" : "_ZTIN4llvm14iterator_rangeINS_5Value18user_iterator_implINS_4UserEEEEE",
   "source_file" : "external/llvm/include/llvm/IR/Value.h"
  },
  {
   "function_name" : "llvm::Value::addUse",
   "linker_set_key" : "_ZN4llvm5Value6addUseERNS_3UseE",
   "parameters" :
   [
    {
     "is_this_ptr" : true,
     "referenced_type" : "_ZTIPN4llvm5ValueE"
    },
    {
     "referenced_type" : "_ZTIRN4llvm3UseE"
    }
   ],
   "return_type" : "_ZTIv",
   "source_file" : "external/llvm/include/llvm/IR/Value.h"
  },
  {
   "function_name" : "llvm::Value::use_end",
   "linker_set_key" : "_ZN4llvm5Value7use_endEv",
   "parameters" :
   [
    {
     "is_this_ptr" : true,
     "referenced_type" : "_ZTIPN4llvm5ValueE"
    }
   ],
   "return_type" : "_ZTIN4llvm5Value17use_iterator_implINS_3UseEEE",
   "source_file" : "external/llvm/include/llvm/IR/Value.h"
  },
  {
   "function_name" : "llvm::Value::user_end",
   "linker_set_key" : "_ZN4llvm5Value8user_endEv",
   "parameters" :
   [
    {
     "is_this_ptr" : true,
     "referenced_type" : "_ZTIPN4llvm5ValueE"
    }
   ],
   "return_type" : "_ZTIN4llvm5Value18user_iterator_implINS_4UserEEE",
   "source_file" : "external/llvm/include/llvm/IR/Value.h"
  },
  {
   "function_name" : "llvm::Value::use_begin",
   "linker_set_key" : "_ZN4llvm5Value9use_beginEv",
   "parameters" :
   [
    {
     "is_this_ptr" : true,
     "referenced_type" : "_ZTIPN4llvm5ValueE"
    }
   ],
   "return_type" : "_ZTIN4llvm5Value17use_iterator_implINS_3UseEEE",
   "source_file" : "external/llvm/include/llvm/IR/Value.h"
  },
  {
   "function_name" : "llvm::Value::user_back",
   "linker_set_key" : "_ZN4llvm5Value9user_backEv",
   "parameters" :
   [
    {
     "is_this_ptr" : true,
     "referenced_type" : "_ZTIPN4llvm5ValueE"
    }
   ],
   "return_type" : "_ZTIPN4llvm4UserE",
   "source_file" : "external/llvm/include/llvm/IR/Value.h"
  },
  {
   "function_name" : "llvm::unwrap",
   "linker_set_key" : "_ZN4llvm6unwrapEP13LLVMOpaqueUse",
   "parameters" :
   [
    {
     "referenced_type" : "_ZTIP13LLVMOpaqueUse"
    }
   ],
   "return_type" : "_ZTIPN4llvm3UseE",
   "source_file" : "external/llvm/include/llvm/IR/Use.h"
  },
  {
   "function_name" : "llvm::unwrap",
   "linker_set_key" : "_ZN4llvm6unwrapEP15LLVMOpaqueValue",
   "parameters" :
   [
    {
     "referenced_type" : "_ZTIP15LLVMOpaqueValue"
    }
   ],
   "return_type" : "_ZTIPN4llvm5ValueE",
   "source_file" : "external/llvm/include/llvm/IR/Value.h"
  },
  {
   "function_name" : "llvm::unwrap",
   "linker_set_key" : "_ZN4llvm6unwrapEPP15LLVMOpaqueValue",
   "parameters" :
   [
    {
     "referenced_type" : "_ZTIPP15LLVMOpaqueValue"
    }
   ],
   "return_type" : "_ZTIPPN4llvm5ValueE",
   "source_file" : "external/llvm/include/llvm/IR/Value.h"
  },
  {
   "function_name" : "llvm::isa_impl<llvm::BasicBlock, llvm::Value, void>::doit",
   "linker_set_key" : "_ZN4llvm8isa_implINS_10BasicBlockENS_5ValueEvE4doitERKS2_",
   "parameters" :
   [
    {
     "referenced_type" : "_ZTIRKN4llvm5ValueE"
    }
   ],
   "return_type" : "_ZTIb",
   "source_file" : "external/llvm/include/llvm/IR/Value.h"
  },
  {
   "function_name" : "llvm::isa_impl<llvm::GlobalAlias, llvm::Value, void>::doit",
   "linker_set_key" : "_ZN4llvm8isa_implINS_11GlobalAliasENS_5ValueEvE4doitERKS2_",
   "parameters" :
   [
    {
     "referenced_type" : "_ZTIRKN4llvm5ValueE"
    }
   ],
   "return_type" : "_ZTIb",
   "source_file" : "external/llvm/include/llvm/IR/Value.h"
  },
  {
   "function_name" : "llvm::isa_impl<llvm::GlobalIFunc, llvm::Value, void>::doit",
   "linker_set_key" : "_ZN4llvm8isa_implINS_11GlobalIFuncENS_5ValueEvE4doitERKS2_",
   "parameters" :
   [
    {
     "referenced_type" : "_ZTIRKN4llvm5ValueE"
    }
   ],
   "return_type" : "_ZTIb",
   "source_file" : "external/llvm/include/llvm/IR/Value.h"
  },
  {
   "function_name" : "llvm::isa_impl<llvm::GlobalValue, llvm::Value, void>::doit",
   "linker_set_key" : "_ZN4llvm8isa_implINS_11GlobalValueENS_5ValueEvE4doitERKS2_",
   "parameters" :
   [
    {
     "referenced_type" : "_ZTIRKN4llvm5ValueE"
    }
   ],
   "return_type" : "_ZTIb",
   "source_file" : "external/llvm/include/llvm/IR/Value.h"
  },
  {
   "function_name" : "llvm::isa_impl<llvm::Instruction, llvm::Value, void>::doit",
   "linker_set_key" : "_ZN4llvm8isa_implINS_11InstructionENS_5ValueEvE4doitERKS2_",
   "parameters" :
   [
    {
     "referenced_type" : "_ZTIRKN4llvm5ValueE"
    }
   ],
   "return_type" : "_ZTIb",
   "source_file" : "external/llvm/include/llvm/IR/Value.h"
  },
  {
   "function_name" : "llvm::isa_impl<llvm::ConstantData, llvm::Value, void>::doit",
   "linker_set_key" : "_ZN4llvm8isa_implINS_12ConstantDataENS_5ValueEvE4doitERKS2_",
   "parameters" :
   [
    {
     "referenced_type" : "_ZTIRKN4llvm5ValueE"
    }
   ],
   "return_type" : "_ZTIb",
   "source_file" : "external/llvm/include/llvm/IR/Value.h"
  },
  {
   "function_name" : "llvm::isa_impl<llvm::GlobalObject, llvm::Value, void>::doit",
   "linker_set_key" : "_ZN4llvm8isa_implINS_12GlobalObjectENS_5ValueEvE4doitERKS2_",
   "parameters" :
   [
    {
     "referenced_type" : "_ZTIRKN4llvm5ValueE"
    }
   ],
   "return_type" : "_ZTIb",
   "source_file" : "external/llvm/include/llvm/IR/Value.h"
  },
  {
   "function_name" : "llvm::isa_impl<llvm::GlobalVariable, llvm::Value, void>::doit",
   "linker_set_key" : "_ZN4llvm8isa_implINS_14GlobalVariableENS_5ValueEvE4doitERKS2_",
   "parameters" :
   [
    {
     "referenced_type" : "_ZTIRKN4llvm5ValueE"
    }
   ],
   "return_type" : "_ZTIb",
   "source_file" : "external/llvm/include/llvm/IR/Value.h"
  },
  {
   "function_name" : "llvm::isa_impl<llvm::ConstantAggregate, llvm::Value, void>::doit",
   "linker_set_key" : "_ZN4llvm8isa_implINS_17ConstantAggregateENS_5ValueEvE4doitERKS2_",
   "parameters" :
   [
    {
     "referenced_type" : "_ZTIRKN4llvm5ValueE"
    }
   ],
   "return_type" : "_ZTIb",
   "source_file" : "external/llvm/include/llvm/IR/Value.h"
  },
  {
   "function_name" : "llvm::isa_impl<llvm::GlobalIndirectSymbol, llvm::Value, void>::doit",
   "linker_set_key" : "_ZN4llvm8isa_implINS_20GlobalIndirectSymbolENS_5ValueEvE4doitERKS2_",
   "parameters" :
   [
    {
     "referenced_type" : "_ZTIRKN4llvm5ValueE"
    }
   ],
   "return_type" : "_ZTIb",
   "source_file" : "external/llvm/include/llvm/IR/Value.h"
  },
  {
   "function_name" : "llvm::isa_impl<llvm::Argument, llvm::Value, void>::doit",
   "linker_set_key" : "_ZN4llvm8isa_implINS_8ArgumentENS_5ValueEvE4doitERKS2_",
   "parameters" :
   [
    {
     "referenced_type" : "_ZTIRKN4llvm5ValueE"
    }
   ],
   "return_type" : "_ZTIb",
   "source_file" : "external/llvm/include/llvm/IR/Value.h"
  },
  {
   "function_name" : "llvm::isa_impl<llvm::Constant, llvm::Value, void>::doit",
   "linker_set_key" : "_ZN4llvm8isa_implINS_8ConstantENS_5ValueEvE4doitERKS2_",
   "parameters" :
   [
    {
     "referenced_type" : "_ZTIRKN4llvm5ValueE"
    }
   ],
   "return_type" : "_ZTIb",
   "source_file" : "external/llvm/include/llvm/IR/Value.h"
  },
  {
   "function_name" : "llvm::isa_impl<llvm::Function, llvm::Value, void>::doit",
   "linker_set_key" : "_ZN4llvm8isa_implINS_8FunctionENS_5ValueEvE4doitERKS2_",
   "parameters" :
   [
    {
     "referenced_type" : "_ZTIRKN4llvm5ValueE"
    }
   ],
   "return_type" : "_ZTIb",
   "source_file" : "external/llvm/include/llvm/IR/Value.h"
  },
  {
   "function_name" : "llvm::isa_impl<llvm::InlineAsm, llvm::Value, void>::doit",
   "linker_set_key" : "_ZN4llvm8isa_implINS_9InlineAsmENS_5ValueEvE4doitERKS2_",
   "parameters" :
   [
    {
     "referenced_type" : "_ZTIRKN4llvm5ValueE"
    }
   ],
   "return_type" : "_ZTIb",
   "source_file" : "external/llvm/include/llvm/IR/Value.h"
  },
  {
   "function_name" : "llvm::operator<<",
   "linker_set_key" : "_ZN4llvmlsERNS_11raw_ostreamERKNS_5ValueE",
   "parameters" :
   [
    {
     "referenced_type" : "_ZTIRN4llvm11raw_ostreamE"
    },
    {
     "referenced_type" : "_ZTIRKN4llvm5ValueE"
    }
   ],
   "return_type" : "_ZTIRN4llvm11raw_ostreamE",
   "source_file" : "external/llvm/include/llvm/IR/Value.h"
  },
  {
   "function_name" : "llvm::operator+",
   "linker_set_key" : "_ZN4llvmplET2_RKT_",
   "parameters" :
   [
    {
     "referenced_type" : "_ZTIT2_"
    },
    {
     "referenced_type" : "_ZTIRKT_"
    }
   ],
   "return_type" : "_ZTIT_",
   "source_file" : "external/llvm/include/llvm/ADT/iterator.h"
  },
  {
   "function_name" : "llvm::PointerIntPair<llvm::User *, 1, unsigned int, llvm::PointerLikeTypeTraits<llvm::User *>, llvm::PointerIntPairInfo<llvm::User *, 1, llvm::PointerLikeTypeTraits<llvm::User *>>>::getPointer",
   "linker_set_key" : "_ZNK4llvm14PointerIntPairIPNS_4UserELj1EjNS_21PointerLikeTypeTraitsIS2_EENS_18PointerIntPairInfoIS2_Lj1ES4_EEE10getPointerEv",
   "parameters" :
   [
    {
     "is_this_ptr" : true,
     "referenced_type" : "_ZTIPKN4llvm14PointerIntPairIPNS_4UserELj1EjNS_21PointerLikeTypeTraitsIS2_EENS_18PointerIntPairInfoIS2_Lj1ES4_EEEE"
    }
   ],
   "return_type" : "_ZTIPN4llvm4UserE",
   "source_file" : "external/llvm/include/llvm/ADT/PointerIntPair.h"
  },
  {
   "function_name" : "llvm::PointerIntPair<llvm::User *, 1, unsigned int, llvm::PointerLikeTypeTraits<llvm::User *>, llvm::PointerIntPairInfo<llvm::User *, 1, llvm::PointerLikeTypeTraits<llvm::User *>>>::getInt",
   "linker_set_key" : "_ZNK4llvm14PointerIntPairIPNS_4UserELj1EjNS_21PointerLikeTypeTraitsIS2_EENS_18PointerIntPairInfoIS2_Lj1ES4_EEE6getIntEv",
   "parameters" :
   [
    {
     "is_this_ptr" : true,
     "referenced_type" : "_ZTIPKN4llvm14PointerIntPairIPNS_4UserELj1EjNS_21PointerLikeTypeTraitsIS2_EENS_18PointerIntPairInfoIS2_Lj1ES4_EEEE"
    }
   ],
   "return_type" : "_ZTIj",
   "source_file" : "external/llvm/include/llvm/ADT/PointerIntPair.h"
  },
  {
   "function_name" : "llvm::PointerIntPair<llvm::Use **, 2, llvm::Use::PrevPtrTag, llvm::PointerLikeTypeTraits<llvm::Use **>, llvm::PointerIntPairInfo<llvm::Use **, 2, llvm::PointerLikeTypeTraits<llvm::Use **>>>::getPointer",
   "linker_set_key" : "_ZNK4llvm14PointerIntPairIPPNS_3UseELj2ENS1_10PrevPtrTagENS_21PointerLikeTypeTraitsIS3_EENS_18PointerIntPairInfoIS3_Lj2ES6_EEE10getPointerEv",
   "parameters" :
   [
    {
     "is_this_ptr" : true,
     "referenced_type" : "_ZTIPKN4llvm14PointerIntPairIPPNS_3UseELj2ENS1_10PrevPtrTagENS_21PointerLikeTypeTraitsIS3_EENS_18PointerIntPairInfoIS3_Lj2ES6_EEEE"
    }
   ],
   "return_type" : "_ZTIPPN4llvm3UseE",
   "source_file" : "external/llvm/include/llvm/ADT/PointerIntPair.h"
  },
  {
   "function_name" : "llvm::PointerIntPair<llvm::Use **, 2, llvm::Use::PrevPtrTag, llvm::PointerLikeTypeTraits<llvm::Use **>, llvm::PointerIntPairInfo<llvm::Use **, 2, llvm::PointerLikeTypeTraits<llvm::Use **>>>::getInt",
   "linker_set_key" : "_ZNK4llvm14PointerIntPairIPPNS_3UseELj2ENS1_10PrevPtrTagENS_21PointerLikeTypeTraitsIS3_EENS_18PointerIntPairInfoIS3_Lj2ES6_EEE6getIntEv",
   "parameters" :
   [
    {
     "is_this_ptr" : true,
     "referenced_type" : "_ZTIPKN4llvm14PointerIntPairIPPNS_3UseELj2ENS1_10PrevPtrTagENS_21PointerLikeTypeTraitsIS3_EENS_18PointerIntPairInfoIS3_Lj2ES6_EEEE"
    }
   ],
   "return_type" : "_ZTIN4llvm3Use10PrevPtrTagE",
   "source_file" : "external/llvm/include/llvm/ADT/PointerIntPair.h"
  },
  {
   "function_name" : "llvm::iterator_range<llvm::Use *>::end",
   "linker_set_key" : "_ZNK4llvm14iterator_rangeIPNS_3UseEE3endEv",
   "parameters" :
   [
    {
     "is_this_ptr" : true,
     "referenced_type" : "_ZTIPKN4llvm14iterator_rangeIPNS_3UseEEE"
    }
   ],
   "return_type" : "_ZTIPN4llvm3UseE",
   "source_file" : "external/llvm/include/llvm/ADT/iterator_range.h"
  },
  {
   "function_name" : "llvm::iterator_range<llvm::Use *>::begin",
   "linker_set_key" : "_ZNK4llvm14iterator_rangeIPNS_3UseEE5beginEv",
   "parameters" :
   [
    {
     "is_this_ptr" : true,
     "referenced_type" : "_ZTIPKN4llvm14iterator_rangeIPNS_3UseEEE"
    }
   ],
   "return_type" : "_ZTIPN4llvm3UseE",
   "source_file" : "external/llvm/include/llvm/ADT/iterator_range.h"
  },
  {
   "function_name" : "llvm::Use::getOperandNo",
   "linker_set_key" : "_ZNK4llvm3Use12getOperandNoEv",
   "parameters" :
   [
    {
     "is_this_ptr" : true,
     "referenced_type" : "_ZTIPKN4llvm3UseE"
    }
   ],
   "return_type" : "_ZTIj",
   "source_file" : "external/llvm/include/llvm/IR/Use.h"
  },
  {
   "access" : "private",
   "function_name" : "llvm::Use::getImpliedUser",
   "linker_set_key" : "_ZNK4llvm3Use14getImpliedUserEv",
   "parameters" :
   [
    {
     "is_this_ptr" : true,
     "referenced_type" : "_ZTIPKN4llvm3UseE"
    }
   ],
   "return_type" : "_ZTIPKN4llvm3UseE",
   "source_file" : "external/llvm/include/llvm/IR/Use.h"
  },
  {
   "function_name" : "llvm::Use::get",
   "linker_set_key" : "_ZNK4llvm3Use3getEv",
   "parameters" :
   [
    {
     "is_this_ptr" : true,
     "referenced_type" : "_ZTIPKN4llvm3UseE"
    }
   ],
   "return_type" : "_ZTIPN4llvm5ValueE",
   "source_file" : "external/llvm/include/llvm/IR/Use.h"
  },
  {
   "function_name" : "llvm::Use::getNext",
   "linker_set_key" : "_ZNK4llvm3Use7getNextEv",
   "parameters" :
   [
    {
     "is_this_ptr" : true,
     "referenced_type" : "_ZTIPKN4llvm3UseE"
    }
   ],
   "return_type" : "_ZTIPN4llvm3UseE",
   "source_file" : "external/llvm/include/llvm/IR/Use.h"
  },
  {
   "function_name" : "llvm::Use::getUser",
   "linker_set_key" : "_ZNK4llvm3Use7getUserEv",
   "parameters" :
   [
    {
     "is_this_ptr" : true,
     "referenced_type" : "_ZTIPKN4llvm3UseE"
    }
   ],
   "return_type" : "_ZTIPN4llvm4UserE",
   "source_file" : "external/llvm/include/llvm/IR/Use.h"
  },
  {
   "function_name" : "llvm::Use::operator llvm::Value *",
   "linker_set_key" : "_ZNK4llvm3UsecvPNS_5ValueEEv",
   "parameters" :
   [
    {
     "is_this_ptr" : true,
     "referenced_type" : "_ZTIPKN4llvm3UseE"
    }
   ],
   "return_type" : "_ZTIPN4llvm5ValueE",
   "source_file" : "external/llvm/include/llvm/IR/Use.h"
  },
  {
   "function_name" : "llvm::Use::operator->",
   "linker_set_key" : "_ZNK4llvm3UseptEv",
   "parameters" :
   [
    {
     "is_this_ptr" : true,
     "referenced_type" : "_ZTIPKN4llvm3UseE"
    }
   ],
   "return_type" : "_ZTIPKN4llvm5ValueE",
   "source_file" : "external/llvm/include/llvm/IR/Use.h"
  },
  {
   "function_name" : "llvm::User::getOperand",
   "linker_set_key" : "_ZNK4llvm4User10getOperandEj",
   "parameters" :
   [
    {
     "is_this_ptr" : true,
     "referenced_type" : "_ZTIPKN4llvm4UserE"
    },
    {
     "referenced_type" : "_ZTIj"
    }
   ],
   "return_type" : "_ZTIPN4llvm5ValueE",
   "source_file" : "external/llvm/include/llvm/IR/User.h"
  },
  {
   "function_name" : "llvm::User::getOperandUse",
   "linker_set_key" : "_ZNK4llvm4User13getOperandUseEj",
   "parameters" :
   [
    {
     "is_this_ptr" : true,
     "referenced_type" : "_ZTIPKN4llvm4UserE"
    },
    {
     "referenced_type" : "_ZTIj"
    }
   ],
   "return_type" : "_ZTIRKN4llvm3UseE",
   "source_file" : "external/llvm/include/llvm/IR/User.h"
  },
  {
   "function_name" : "llvm::User::getNumOperands",
   "linker_set_key" : "_ZNK4llvm4User14getNumOperandsEv",
   "parameters" :
   [
    {
     "is_this_ptr" : true,
     "referenced_type" : "_ZTIPKN4llvm4UserE"
    }
   ],
   "return_type" : "_ZTIj",
   "source_file" : "external/llvm/include/llvm/IR/User.h"
  },
  {
   "function_name" : "llvm::User::getOperandList",
   "linker_set_key" : "_ZNK4llvm4User14getOperandListEv",
   "parameters" :
   [
    {
     "is_this_ptr" : true,
     "referenced_type" : "_ZTIPKN4llvm4UserE"
    }
   ],
   "return_type" : "_ZTIPKN4llvm3UseE",
   "source_file" : "external/llvm/include/llvm/IR/User.h"
  },
  {
   "function_name" : "llvm::User::value_op_iterator::operator*",
   "linker_set_key" : "_ZNK4llvm4User17value_op_iteratordeEv",
   "parameters" :
   [
    {
     "is_this_ptr" : true,
     "referenced_type" : "_ZTIPKN4llvm4User17value_op_iteratorE"
    }
   ],
   "return_type" : "_ZTIPN4llvm5ValueE",
   "source_file" : "external/llvm/include/llvm/IR/User.h"
  },
  {
   "function_name" : "llvm::User::value_op_iterator::operator->",
   "linker_set_key" : "_ZNK4llvm4User17value_op_iteratorptEv",
   "parameters" :
   [
    {
     "is_this_ptr" : true,
     "referenced_type" : "_ZTIPKN4llvm4User17value_op_iteratorE"
    }
   ],
   "return_type" : "_ZTIPN4llvm5ValueE",
   "source_file" : "external/llvm/include/llvm/IR/User.h"
  },
  {
   "function_name" : "llvm::User::op_end",
   "linker_set_key" : "_ZNK4llvm4User6op_endEv",
   "parameters" :
   [
    {
     "is_this_ptr" : true,
     "referenced_type" : "_ZTIPKN4llvm4UserE"
    }
   ],
   "return_type" : "_ZTIPKN4llvm3UseE",
   "source_file" : "external/llvm/include/llvm/IR/User.h"
  },
  {
   "function_name" : "llvm::User::op_begin",
   "linker_set_key" : "_ZNK4llvm4User8op_beginEv",
   "parameters" :
   [
    {
     "is_this_ptr" : true,
     "referenced_type" : "_ZTIPKN4llvm4UserE"
    }
   ],
   "return_type" : "_ZTIPKN4llvm3UseE",
   "source_file" : "external/llvm/include/llvm/IR/User.h"
  },
  {
   "function_name" : "llvm::User::operands",
   "linker_set_key" : "_ZNK4llvm4User8operandsEv",
   "parameters" :
   [
    {
     "is_this_ptr" : true,
     "referenced_type" : "_ZTIPKN4llvm4UserE"
    }
   ],
   "return_type" : "_ZTIN4llvm14iterator_rangeIPKNS_3UseEEE",
   "source_file" : "external/llvm/include/llvm/IR/User.h"
  },
  {
   "function_name" : "llvm::Value::getValueID",
   "linker_set_key" : "_ZNK4llvm5Value10getValueIDEv",
   "parameters" :
   [
    {
     "is_this_ptr" : true,
     "referenced_type" : "_ZTIPKN4llvm5ValueE"
    }
   ],
   "return_type" : "_ZTIj",
   "source_file" : "external/llvm/include/llvm/IR/Value.h"
  },
  {
   "function_name" : "llvm::Value::user_begin",
   "linker_set_key" : "_ZNK4llvm5Value10user_beginEv",
   "parameters" :
   [
    {
     "is_this_ptr" : true,
     "referenced_type" : "_ZTIPKN4llvm5ValueE"
    }
   ],
   "return_type" : "_ZTIN4llvm5Value18user_iterator_implIKNS_4UserEEE",
   "source_file" : "external/llvm/include/llvm/IR/Value.h"
  },
  {
   "function_name" : "llvm::Value::user_empty",
   "linker_set_key" : "_ZNK4llvm5Value10user_emptyEv",
   "parameters" :
   [
    {
     "is_this_ptr" : true,
     "referenced_type" : "_ZTIPKN4llvm5ValueE"
    }
   ],
   "return_type" : "_ZTIb",
   "source_file" : "external/llvm/include/llvm/IR/Value.h"
  },
  {
   "function_name" : "llvm::Value::hasValueHandle",
   "linker_set_key" : "_ZNK4llvm5Value14hasValueHandleEv",
   "parameters" :
   [
    {
     "is_this_ptr" : true,
     "referenced_type" : "_ZTIPKN4llvm5ValueE"
    }
   ],
   "return_type" : "_ZTIb",
   "source_file" : "external/llvm/include/llvm/IR/Value.h"
  },
  {
   "function_name" : "llvm::Value::DoPHITranslation",
   "linker_set_key" : "_ZNK4llvm5Value16DoPHITranslationEPKNS_10BasicBlockES3_",
   "parameters" :
   [
    {
     "is_this_ptr" : true,
     "referenced_type" : "_ZTIPKN4llvm5ValueE"
    },
    {
     "referenced_type" : "_ZTIPKN4llvm10BasicBlockE"
    },
    {
     "referenced_type" : "_ZTIPKN4llvm10BasicBlockE"
    }
   ],
   "return_type" : "_ZTIPKN4llvm5ValueE",
   "source_file" : "external/llvm/include/llvm/IR/Value.h"
  },
  {
   "function_name" : "llvm::Value::isUsedByMetadata",
   "linker_set_key" : "_ZNK4llvm5Value16isUsedByMetadataEv",
   "parameters" :
   [
    {
     "is_this_ptr" : true,
     "referenced_type" : "_ZTIPKN4llvm5ValueE"
    }
   ],
   "return_type" : "_ZTIb",
   "source_file" : "external/llvm/include/llvm/IR/Value.h"
  },
  {
   "function_name" : "llvm::Value::materialized_uses",
   "linker_set_key" : "_ZNK4llvm5Value17materialized_usesEv",
   "parameters" :
   [
    {
     "is_this_ptr" : true,
     "referenced_type" : "_ZTIPKN4llvm5ValueE"
    }
   ],
   "return_type" : "_ZTIN4llvm14iterator_rangeINS_5Value17use_iterator_implIKNS_3UseEEEEE",
   "source_file" : "external/llvm/include/llvm/IR/Value.h"
  },
  {
   "function_name" : "llvm::Value::stripPointerCasts",
   "linker_set_key" : "_ZNK4llvm5Value17stripPointerCastsEv",
   "parameters" :
   [
    {
     "is_this_ptr" : true,
     "referenced_type" : "_ZTIPKN4llvm5ValueE"
    }
   ],
   "return_type" : "_ZTIPKN4llvm5ValueE",
   "source_file" : "external/llvm/include/llvm/IR/Value.h"
  },
  {
   "function_name" : "llvm::Value::use_iterator_impl<const llvm::Use>::operator==",
   "linker_set_key" : "_ZNK4llvm5Value17use_iterator_implIKNS_3UseEEeqERKS4_",
   "parameters" :
   [
    {
     "is_this_ptr" : true,
     "referenced_type" : "_ZTIPKN4llvm5Value17use_iterator_implIKNS_3UseEEE"
    },
    {
     "referenced_type" : "_ZTIRKN4llvm5Value17use_iterator_implIKNS_3UseEEE"
    }
   ],
   "return_type" : "_ZTIb",
   "source_file" : "external/llvm/include/llvm/IR/Value.h"
  },
  {
   "function_name" : "llvm::Value::use_iterator_impl<llvm::Use>::operator*",
   "linker_set_key" : "_ZNK4llvm5Value17use_iterator_implINS_3UseEEdeEv",
   "parameters" :
   [
    {
     "is_this_ptr" : true,
     "referenced_type" : "_ZTIPKN4llvm5Value17use_iterator_implINS_3UseEEE"
    }
   ],
   "return_type" : "_ZTIRN4llvm3UseE",
   "source_file" : "external/llvm/include/llvm/IR/Value.h"
  },
  {
   "function_name" : "llvm::Value::use_iterator_impl<llvm::Use>::operator->",
   "linker_set_key" : "_ZNK4llvm5Value17use_iterator_implINS_3UseEEptEv",
   "parameters" :
   [
    {
     "is_this_ptr" : true,
     "referenced_type" : "_ZTIPKN4llvm5Value17use_iterator_implINS_3UseEEE"
    }
   ],
   "return_type" : "_ZTIPN4llvm3UseE",
   "source_file" : "external/llvm/include/llvm/IR/Value.h"
  },
  {
   "function_name" : "llvm::Value::materialized_users",
   "linker_set_key" : "_ZNK4llvm5Value18materialized_usersEv",
   "parameters" :
   [
    {
     "is_this_ptr" : true,
     "referenced_type" : "_ZTIPKN4llvm5ValueE"
    }
   ],
   "return_type" : "_ZTIN4llvm14iterator_rangeINS_5Value18user_iterator_implIKNS_4UserEEEEE",
   "source_file" : "external/llvm/include/llvm/IR/Value.h"
  },
  {
   "function_name" : "llvm::Value::user_iterator_impl<const llvm::User>::operator*",
   "linker_set_key" : "_ZNK4llvm5Value18user_iterator_implIKNS_4UserEEdeEv",
   "parameters" :
   [
    {
     "is_this_ptr" : true,
     "referenced_type" : "_ZTIPKN4llvm5Value18user_iterator_implIKNS_4UserEEE"
    }
   ],
   "return_type" : "_ZTIPKN4llvm4UserE",
   "source_file" : "external/llvm/include/llvm/IR/Value.h"
  },
  {
   "function_name" : "llvm::Value::user_iterator_impl<llvm::User>::operator*",
   "linker_set_key" : "_ZNK4llvm5Value18user_iterator_implINS_4UserEEdeEv",
   "parameters" :
   [
    {
     "is_this_ptr" : true,
     "referenced_type" : "_ZTIPKN4llvm5Value18user_iterator_implINS_4UserEEE"
    }
   ],
   "return_type" : "_ZTIPN4llvm4UserE",
   "source_file" : "external/llvm/include/llvm/IR/Value.h"
  },
  {
   "function_name" : "llvm::Value::stripInBoundsOffsets",
   "linker_set_key" : "_ZNK4llvm5Value20stripInBoundsOffsetsEv",
   "parameters" :
   [
    {
     "is_this_ptr" : true,
     "referenced_type" : "_ZTIPKN4llvm5ValueE"
    }
   ],
   "return_type" : "_ZTIPKN4llvm5ValueE",
   "source_file" : "external/llvm/include/llvm/IR/Value.h"
  },
  {
   "function_name" : "llvm::Value::materialized_use_begin",
   "linker_set_key" : "_ZNK4llvm5Value22materialized_use_beginEv",
   "parameters" :
   [
    {
     "is_this_ptr" : true,
     "referenced_type" : "_ZTIPKN4llvm5ValueE"
    }
   ],
   "return_type" : "_ZTIN4llvm5Value17use_iterator_implIKNS_3UseEEE",
   "source_file" : "external/llvm/include/llvm/IR/Value.h"
  },
  {
   "function_name" : "llvm::Value::materialized_user_begin",
   "linker_set_key" : "_ZNK4llvm5Value23materialized_user_beginEv",
   "parameters" :
   [
    {
     "is_this_ptr" : true,
     "referenced_type" : "_ZTIPKN4llvm5ValueE"
    }
   ],
   "return_type" : "_ZTIN4llvm5Value18user_iterator_implIKNS_4UserEEE",
   "source_file" : "external/llvm/include/llvm/IR/Value.h"
  },
  {
   "access" : "protected",
   "function_name" : "llvm::Value::getSubclassDataFromValue",
   "linker_set_key" : "_ZNK4llvm5Value24getSubclassDataFromValueEv",
   "parameters" :
   [
    {
     "is_this_ptr" : true,
     "referenced_type" : "_ZTIPKN4llvm5ValueE"
    }
   ],
   "return_type" : "_ZTIt",
   "source_file" : "external/llvm/include/llvm/IR/Value.h"
  },
  {
   "function_name" : "llvm::Value::getRawSubclassOptionalData",
   "linker_set_key" : "_ZNK4llvm5Value26getRawSubclassOptionalDataEv",
   "parameters" :
   [
    {
     "is_this_ptr" : true,
     "referenced_type" : "_ZTIPKN4llvm5ValueE"
    }
   ],
   "return_type" : "_ZTIj",
   "source_file" : "external/llvm/include/llvm/IR/Value.h"
  },
  {
   "function_name" : "llvm::Value::hasSameSubclassOptionalData",
   "linker_set_key" : "_ZNK4llvm5Value27hasSameSubclassOptionalDataEPKS0_",
   "parameters" :
   [
    {
     "is_this_ptr" : true,
     "referenced_type" : "_ZTIPKN4llvm5ValueE"
    },
    {
     "referenced_type" : "_ZTIPKN4llvm5ValueE"
    }
   ],
   "return_type" : "_ZTIb",
   "source_file" : "external/llvm/include/llvm/IR/Value.h"
  },
  {
   "function_name" : "llvm::Value::stripInBoundsConstantOffsets",
   "linker_set_key" : "_ZNK4llvm5Value28stripInBoundsConstantOffsetsEv",
   "parameters" :
   [
    {
     "is_this_ptr" : true,
     "referenced_type" : "_ZTIPKN4llvm5ValueE"
    }
   ],
   "return_type" : "_ZTIPKN4llvm5ValueE",
   "source_file" : "external/llvm/include/llvm/IR/Value.h"
  },
  {
   "function_name" : "llvm::Value::stripPointerCastsNoFollowAliases",
   "linker_set_key" : "_ZNK4llvm5Value32stripPointerCastsNoFollowAliasesEv",
   "parameters" :
   [
    {
     "is_this_ptr" : true,
     "referenced_type" : "_ZTIPKN4llvm5ValueE"
    }
   ],
   "return_type" : "_ZTIPKN4llvm5ValueE",
   "source_file" : "external/llvm/include/llvm/IR/Value.h"
  },
  {
   "function_name" : "llvm::Value::stripAndAccumulateInBoundsConstantOffsets",
   "linker_set_key" : "_ZNK4llvm5Value41stripAndAccumulateInBoundsConstantOffsetsERKNS_10DataLayoutERNS_5APIntE",
   "parameters" :
   [
    {
     "is_this_ptr" : true,
     "referenced_type" : "_ZTIPKN4llvm5ValueE"
    },
    {
     "referenced_type" : "_ZTIRKN4llvm10DataLayoutE"
    },
    {
     "referenced_type" : "_ZTIRN4llvm5APIntE"
    }
   ],
   "return_type" : "_ZTIPKN4llvm5ValueE",
   "source_file" : "external/llvm/include/llvm/IR/Value.h"
  },
  {
   "function_name" : "llvm::Value::uses",
   "linker_set_key" : "_ZNK4llvm5Value4usesEv",
   "parameters" :
   [
    {
     "is_this_ptr" : true,
     "referenced_type" : "_ZTIPKN4llvm5ValueE"
    }
   ],
   "return_type" : "_ZTIN4llvm14iterator_rangeINS_5Value17use_iterator_implIKNS_3UseEEEEE",
   "source_file" : "external/llvm/include/llvm/IR/Value.h"
  },
  {
   "function_name" : "llvm::Value::users",
   "linker_set_key" : "_ZNK4llvm5Value5usersEv",
   "parameters" :
   [
    {
     "is_this_ptr" : true,
     "referenced_type" : "_ZTIPKN4llvm5ValueE"
    }
   ],
   "return_type" : "_ZTIN4llvm14iterator_rangeINS_5Value18user_iterator_implIKNS_4UserEEEEE",
   "source_file" : "external/llvm/include/llvm/IR/Value.h"
  },
  {
   "function_name" : "llvm::Value::getType",
   "linker_set_key" : "_ZNK4llvm5Value7getTypeEv",
   "parameters" :
   [
    {
     "is_this_ptr" : true,
     "referenced_type" : "_ZTIPKN4llvm5ValueE"
    }
   ],
   "return_type" : "_ZTIPN4llvm4TypeE",
   "source_file" : "external/llvm/include/llvm/IR/Value.h"
  },
  {
   "function_name" : "llvm::Value::hasName",
   "linker_set_key" : "_ZNK4llvm5Value7hasNameEv",
   "parameters" :
   [
    {
     "is_this_ptr" : true,
     "referenced_type" : "_ZTIPKN4llvm5ValueE"
    }
   ],
   "return_type" : "_ZTIb",
   "source_file" : "external/llvm/include/llvm/IR/Value.h"
  },
  {
   "function_name" : "llvm::Value::use_end",
   "linker_set_key" : "_ZNK4llvm5Value7use_endEv",
   "parameters" :
   [
    {
     "is_this_ptr" : true,
     "referenced_type" : "_ZTIPKN4llvm5ValueE"
    }
   ],
   "return_type" : "_ZTIN4llvm5Value17use_iterator_implIKNS_3UseEEE",
   "source_file" : "external/llvm/include/llvm/IR/Value.h"
  },
  {
   "function_name" : "llvm::Value::user_end",
   "linker_set_key" : "_ZNK4llvm5Value8user_endEv",
   "parameters" :
   [
    {
     "is_this_ptr" : true,
     "referenced_type" : "_ZTIPKN4llvm5ValueE"
    }
   ],
   "return_type" : "_ZTIN4llvm5Value18user_iterator_implIKNS_4UserEEE",
   "source_file" : "external/llvm/include/llvm/IR/Value.h"
  },
  {
   "function_name" : "llvm::Value::hasOneUse",
   "linker_set_key" : "_ZNK4llvm5Value9hasOneUseEv",
   "parameters" :
   [
    {
     "is_this_ptr" : true,
     "referenced_type" : "_ZTIPKN4llvm5ValueE"
    }
   ],
   "return_type" : "_ZTIb",
   "source_file" : "external/llvm/include/llvm/IR/Value.h"
  },
  {
   "function_name" : "llvm::Value::use_begin",
   "linker_set_key" : "_ZNK4llvm5Value9use_beginEv",
   "parameters" :
   [
    {
     "is_this_ptr" : true,
     "referenced_type" : "_ZTIPKN4llvm5ValueE"
    }
   ],
   "return_type" : "_ZTIN4llvm5Value17use_iterator_implIKNS_3UseEEE",
   "source_file" : "external/llvm/include/llvm/IR/Value.h"
  },
  {
   "function_name" : "llvm::Value::use_empty",
   "linker_set_key" : "_ZNK4llvm5Value9use_emptyEv",
   "parameters" :
   [
    {
     "is_this_ptr" : true,
     "referenced_type" : "_ZTIPKN4llvm5ValueE"
    }
   ],
   "return_type" : "_ZTIb",
   "source_file" : "external/llvm/include/llvm/IR/Value.h"
  },
  {
   "function_name" : "llvm::Value::user_back",
   "linker_set_key" : "_ZNK4llvm5Value9user_backEv",
   "parameters" :
   [
    {
     "is_this_ptr" : true,
     "referenced_type" : "_ZTIPKN4llvm5ValueE"
    }
   ],
   "return_type" : "_ZTIPKN4llvm4UserE",
   "source_file" : "external/llvm/include/llvm/IR/Value.h"
  }
 ],
 "global_vars" :
 [
  {
   "linker_set_key" : "_ZN4llvm14is_simple_type5valueE",
   "name" : "llvm::is_simple_type::value",
   "referenced_type" : "_ZTIKb",
   "source_file" : "external/llvm/include/llvm/Support/Casting.h"
  },
  {
   "linker_set_key" : "_ZN4llvm19is_integral_or_enum5valueE",
   "name" : "llvm::is_integral_or_enum::value",
   "referenced_type" : "_ZTIKb",
   "source_file" : "external/llvm/include/llvm/Support/type_traits.h"
  },
  {
   "linker_set_key" : "_ZN4llvm5Value16MaximumAlignmentE",
   "name" : "llvm::Value::MaximumAlignment",
   "referenced_type" : "_ZTIKj",
   "source_file" : "external/llvm/include/llvm/IR/Value.h"
  },
  {
   "linker_set_key" : "_ZN4llvm5Value20MaxAlignmentExponentE",
   "name" : "llvm::Value::MaxAlignmentExponent",
   "referenced_type" : "_ZTIKj",
   "source_file" : "external/llvm/include/llvm/IR/Value.h"
  },
  {
   "linker_set_key" : "_ZN4llvm7AlignOf9AlignmentE",
   "name" : "llvm::AlignOf::Alignment",
   "referenced_type" : "_ZTIKj",
   "source_file" : "external/llvm/include/llvm/Support/AlignOf.h"
  },
  {
   "linker_set_key" : "_ZN4llvm7AlignOfINS_3UseEE9AlignmentE",
   "name" : "llvm::AlignOf<llvm::Use>::Alignment",
   "referenced_type" : "_ZTIKj",
   "source_file" : "external/llvm/include/llvm/Support/AlignOf.h"
  },
  {
   "linker_set_key" : "_ZN4llvm7AlignOfINS_4UserEE9AlignmentE",
   "name" : "llvm::AlignOf<llvm::User>::Alignment",
   "referenced_type" : "_ZTIKj",
   "source_file" : "external/llvm/include/llvm/Support/AlignOf.h"
  },
  {
   "linker_set_key" : "_ZN4llvm7AlignOfIPNS_3UseEE9AlignmentE",
   "name" : "llvm::AlignOf<llvm::Use *>::Alignment",
   "referenced_type" : "_ZTIKj",
   "source_file" : "external/llvm/include/llvm/Support/AlignOf.h"
  },
  {
   "linker_set_key" : "_ZN4llvm9isPodLike5valueE",
   "name" : "llvm::isPodLike::value",
   "referenced_type" : "_ZTIKb",
   "source_file" : "external/llvm/include/llvm/Support/type_traits.h"
  },
  {
   "linker_set_key" : "_ZN4llvm9isPodLikeINS_14PointerIntPairIT_XT0_ET1_NS_21PointerLikeTypeTraitsIS2_EENS_18PointerIntPairInfoIS2_XT0_ES5_EEEEE5valueE",
   "name" : "llvm::isPodLike<PointerIntPair<type-parameter-0-0, IntBits, type-parameter-0-2, PointerLikeTypeTraits<type-parameter-0-0>, PointerIntPairInfo<type-parameter-0-0, IntBits, PointerLikeTypeTraits<type-parameter-0-0>>>>::value",
   "referenced_type" : "_ZTIKb",
   "source_file" : "external/llvm/include/llvm/ADT/PointerIntPair.h"
  },
  {
   "linker_set_key" : "_ZN4llvm9isPodLikeINSt3__14pairIT_T0_EEE5valueE",
   "name" : "llvm::isPodLike<pair<type-parameter-0-0, type-parameter-0-1>>::value",
   "referenced_type" : "_ZTIKb",
   "source_file" : "external/llvm/include/llvm/Support/type_traits.h"
  }
 ],
 "lvalue_reference_types" :
 [
  {
   "alignment" : 8,
   "linker_set_key" : "_ZTIRKN4llvm10DataLayoutE",
   "name" : "const llvm::DataLayout &",
   "referenced_type" : "_ZTIKN4llvm10DataLayoutE",
   "self_type" : "_ZTIRKN4llvm10DataLayoutE",
   "size" : 8,
   "source_file" : "external/llvm/include/llvm/IR/Value.h"
  },
  {
   "alignment" : 8,
   "linker_set_key" : "_ZTIRKN4llvm3UseE",
   "name" : "const llvm::Use &",
   "referenced_type" : "_ZTIKN4llvm3UseE",
   "self_type" : "_ZTIRKN4llvm3UseE",
   "size" : 8,
   "source_file" : "external/llvm/include/llvm/IR/Use.h"
  },
  {
   "alignment" : 8,
   "linker_set_key" : "_ZTIRKN4llvm5Value17use_iterator_implIKNS_3UseEEE",
   "name" : "const llvm::Value::use_iterator_impl<const llvm::Use> &",
   "referenced_type" : "_ZTIKN4llvm5Value17use_iterator_implIKNS_3UseEEE",
   "self_type" : "_ZTIRKN4llvm5Value17use_iterator_implIKNS_3UseEEE",
   "size" : 8,
   "source_file" : "external/llvm/include/llvm/IR/Value.h"
  },
  {
   "alignment" : 8,
   "linker_set_key" : "_ZTIRKN4llvm5ValueE",
   "name" : "const llvm::Value &",
   "referenced_type" : "_ZTIKN4llvm5ValueE",
   "self_type" : "_ZTIRKN4llvm5ValueE",
   "size" : 8,
   "source_file" : "external/llvm/include/llvm/Support/Casting.h"
  },
  {
   "alignment" : 8,
   "linker_set_key" : "_ZTIRKNSt3__112basic_stringIcNS_11char_traitsIcEENS_9allocatorIcEEEE",
   "name" : "const std::basic_string<char, std::char_traits<char>, std::allocator<char>> &",
   "referenced_type" : "_ZTIKNSt3__112basic_stringIcNS_11char_traitsIcEENS_9allocatorIcEEEE",
   "self_type" : "_ZTIRKNSt3__112basic_stringIcNS_11char_traitsIcEENS_9allocatorIcEEEE",
   "size" : 8,
   "source_file" : "external/llvm/include/llvm/Support/ErrorHandling.h"
  },
  {
   "alignment" : 8,
   "linker_set_key" : "_ZTIRKPKN4llvm5ValueE",
   "name" : "const llvm::Value *const &",
   "referenced_type" : "_ZTIKPKN4llvm5ValueE",
   "self_type" : "_ZTIRKPKN4llvm5ValueE",
   "size" : 8,
   "source_file" : "external/llvm/include/llvm/Support/Casting.h"
  },
  {
   "linker_set_key" : "_ZTIRKT_",
   "name" : "const type-parameter-0-0 &",
   "referenced_type" : "_ZTIKT_",
   "self_type" : "_ZTIRKT_",
   "source_file" : "external/llvm/include/llvm/ADT/iterator.h"
  },
  {
   "alignment" : 8,
   "linker_set_key" : "_ZTIRN4llvm11raw_ostreamE",
   "name" : "llvm::raw_ostream &",
   "referenced_type" : "_ZTIN4llvm11raw_ostreamE",
   "self_type" : "_ZTIRN4llvm11raw_ostreamE",
   "size" : 8,
   "source_file" : "external/llvm/include/llvm/IR/Value.h"
  },
  {
   "alignment" : 8,
   "linker_set_key" : "_ZTIRN4llvm3UseE",
   "name" : "llvm::Use &",
   "referenced_type" : "_ZTIN4llvm3UseE",
   "self_type" : "_ZTIRN4llvm3UseE",
   "size" : 8,
   "source_file" : "external/llvm/include/llvm/IR/Use.h"
  },
  {
   "alignment" : 8,
   "linker_set_key" : "_ZTIRN4llvm5APIntE",
   "name" : "llvm::APInt &",
   "referenced_type" : "_ZTIN4llvm5APIntE",
   "self_type" : "_ZTIRN4llvm5APIntE",
   "size" : 8,
   "source_file" : "external/llvm/include/llvm/IR/Value.h"
  },
  {
   "alignment" : 8,
   "linker_set_key" : "_ZTIRN4llvm5Value17use_iterator_implIKNS_3UseEEE",
   "name" : "llvm::Value::use_iterator_impl<const llvm::Use> &",
   "referenced_type" : "_ZTIN4llvm5Value17use_iterator_implIKNS_3UseEEE",
   "self_type" : "_ZTIRN4llvm5Value17use_iterator_implIKNS_3UseEEE",
   "size" : 8,
   "source_file" : "external/llvm/include/llvm/IR/Value.h"
  },
  {
   "alignment" : 8,
   "linker_set_key" : "_ZTIRPKN4llvm3UseE",
   "name" : "const llvm::Use *&",
   "referenced_type" : "_ZTIPKN4llvm3UseE",
   "self_type" : "_ZTIRPKN4llvm3UseE",
   "size" : 8,
   "source_file" : "external/llvm/include/llvm/IR/User.h"
  },
  {
   "alignment" : 8,
   "linker_set_key" : "_ZTIRPKN4llvm5ValueE",
   "name" : "const llvm::Value *&",
   "referenced_type" : "_ZTIPKN4llvm5ValueE",
   "self_type" : "_ZTIRPKN4llvm5ValueE",
   "size" : 8,
   "source_file" : "external/llvm/include/llvm/Support/Casting.h"
  },
  {
   "alignment" : 8,
   "linker_set_key" : "_ZTIRPN4llvm3UseE",
   "name" : "llvm::Use *&",
   "referenced_type" : "_ZTIPN4llvm3UseE",
   "self_type" : "_ZTIRPN4llvm3UseE",
   "size" : 8,
   "source_file" : "external/llvm/include/llvm/ADT/iterator.h"
  }
 ],
 "pointer_types" :
 [
  {
   "alignment" : 8,
   "linker_set_key" : "_ZTIP13LLVMOpaqueUse",
   "name" : "LLVMOpaqueUse *",
   "referenced_type" : "_ZTI13LLVMOpaqueUse",
   "self_type" : "_ZTIP13LLVMOpaqueUse",
   "size" : 8,
   "source_file" : "external/llvm/include/llvm/IR/Use.h"
  },
  {
   "alignment" : 8,
   "linker_set_key" : "_ZTIP15LLVMOpaqueValue",
   "name" : "LLVMOpaqueValue *",
   "referenced_type" : "_ZTI15LLVMOpaqueValue",
   "self_type" : "_ZTIP15LLVMOpaqueValue",
   "size" : 8,
   "source_file" : "external/llvm/include/llvm/IR/Value.h"
  },
  {
   "alignment" : 8,
   "linker_set_key" : "_ZTIPFvPvRKNSt3__112basic_stringIcNS0_11char_traitsIcEENS0_9allocatorIcEEEEbE",
   "name" : "void (*)(void *, const std::__1::basic_string<char> &, bool)",
   "referenced_type" : "_ZTIFvPvRKNSt3__112basic_stringIcNS0_11char_traitsIcEENS0_9allocatorIcEEEEbE",
   "self_type" : "_ZTIPFvPvRKNSt3__112basic_stringIcNS0_11char_traitsIcEENS0_9allocatorIcEEEEbE",
   "size" : 8,
   "source_file" : "external/llvm/include/llvm/Support/ErrorHandling.h"
  },
  {
   "alignment" : 8,
   "linker_set_key" : "_ZTIPKN4llvm10BasicBlockE",
   "name" : "const llvm::BasicBlock *",
   "referenced_type" : "_ZTIKN4llvm10BasicBlockE",
   "self_type" : "_ZTIPKN4llvm10BasicBlockE",
   "size" : 8,
   "source_file" : "external/llvm/include/llvm/IR/Value.h"
  },
  {
   "alignment" : 8,
   "linker_set_key" : "_ZTIPKN4llvm14PointerIntPairIPNS_4UserELj1EjNS_21PointerLikeTypeTraitsIS2_EENS_18PointerIntPairInfoIS2_Lj1ES4_EEEE",
   "name" : "const llvm::PointerIntPair<llvm::User *, 1, unsigned int, llvm::PointerLikeTypeTraits<llvm::User *>, llvm::PointerIntPairInfo<llvm::User *, 1, llvm::PointerLikeTypeTraits<llvm::User *>>> *",
   "referenced_type" : "_ZTIKN4llvm14PointerIntPairIPNS_4UserELj1EjNS_21PointerLikeTypeTraitsIS2_EENS_18PointerIntPairInfoIS2_Lj1ES4_EEEE",
   "self_type" : "_ZTIPKN4llvm14PointerIntPairIPNS_4UserELj1EjNS_21PointerLikeTypeTraitsIS2_EENS_18PointerIntPairInfoIS2_Lj1ES4_EEEE",
   "size" : 8,
   "source_file" : "external/llvm/include/llvm/ADT/PointerIntPair.h"
  },
  {
   "alignment" : 8,
   "linker_set_key" : "_ZTIPKN4llvm14PointerIntPairIPPNS_3UseELj2ENS1_10PrevPtrTagENS_21PointerLikeTypeTraitsIS3_EENS_18PointerIntPairInfoIS3_Lj2ES6_EEEE",
   "name" : "const llvm::PointerIntPair<llvm::Use **, 2, llvm::Use::PrevPtrTag, llvm::PointerLikeTypeTraits<llvm::Use **>, llvm::PointerIntPairInfo<llvm::Use **, 2, llvm::PointerLikeTypeTraits<llvm::Use **>>> *",
   "referenced_type" : "_ZTIKN4llvm14PointerIntPairIPPNS_3UseELj2ENS1_10PrevPtrTagENS_21PointerLikeTypeTraitsIS3_EENS_18PointerIntPairInfoIS3_Lj2ES6_EEEE",
   "self_type" : "_ZTIPKN4llvm14PointerIntPairIPPNS_3UseELj2ENS1_10PrevPtrTagENS_21PointerLikeTypeTraitsIS3_EENS_18PointerIntPairInfoIS3_Lj2ES6_EEEE",
   "size" : 8,
   "source_file" : "external/llvm/include/llvm/ADT/PointerIntPair.h"
  },
  {
   "alignment" : 8,
   "linker_set_key" : "_ZTIPKN4llvm14iterator_rangeIPNS_3UseEEE",
   "name" : "const llvm::iterator_range<llvm::Use *> *",
   "referenced_type" : "_ZTIKN4llvm14iterator_rangeIPNS_3UseEEE",
   "self_type" : "_ZTIPKN4llvm14iterator_rangeIPNS_3UseEEE",
   "size" : 8,
   "source_file" : "external/llvm/include/llvm/ADT/iterator_range.h"
  },
  {
   "alignment" : 8,
   "linker_set_key" : "_ZTIPKN4llvm3UseE",
   "name" : "const llvm::Use *",
   "referenced_type" : "_ZTIKN4llvm3UseE",
   "self_type" : "_ZTIPKN4llvm3UseE",
   "size" : 8,
   "source_file" : "external/llvm/include/llvm/IR/Use.h"
  },
  {
   "alignment" : 8,
   "linker_set_key" : "_ZTIPKN4llvm4User17value_op_iteratorE",
   "name" : "const llvm::User::value_op_iterator *",
   "referenced_type" : "_ZTIKN4llvm4User17value_op_iteratorE",
   "self_type" : "_ZTIPKN4llvm4User17value_op_iteratorE",
   "size" : 8,
   "source_file" : "external/llvm/include/llvm/IR/User.h"
  },
  {
   "alignment" : 8,
   "linker_set_key" : "_ZTIPKN4llvm4UserE",
   "name" : "const llvm::User *",
   "referenced_type" : "_ZTIKN4llvm4UserE",
   "self_type" : "_ZTIPKN4llvm4UserE",
   "size" : 8,
   "source_file" : "external/llvm/include/llvm/IR/Value.h"
  },
  {
   "alignment" : 8,
   "linker_set_key" : "_ZTIPKN4llvm5Value17use_iterator_implIKNS_3UseEEE",
   "name" : "const llvm::Value::use_iterator_impl<const llvm::Use> *",
   "referenced_type" : "_ZTIKN4llvm5Value17use_iterator_implIKNS_3UseEEE",
   "self_type" : "_ZTIPKN4llvm5Value17use_iterator_implIKNS_3UseEEE",
   "size" : 8,
   "source_file" : "external/llvm/include/llvm/IR/Value.h"
  },
  {
   "alignment" : 8,
   "linker_set_key" : "_ZTIPKN4llvm5Value17use_iterator_implINS_3UseEEE",
   "name" : "const llvm::Value::use_iterator_impl<llvm::Use> *",
   "referenced_type" : "_ZTIKN4llvm5Value17use_iterator_implINS_3UseEEE",
   "self_type" : "_ZTIPKN4llvm5Value17use_iterator_implINS_3UseEEE",
   "size" : 8,
   "source_file" : "external/llvm/include/llvm/IR/Value.h"
  },
  {
   "alignment" : 8,
   "linker_set_key" : "_ZTIPKN4llvm5Value18user_iterator_implIKNS_4UserEEE",
   "name" : "const llvm::Value::user_iterator_impl<const llvm::User> *",
   "referenced_type" : "_ZTIKN4llvm5Value18user_iterator_implIKNS_4UserEEE",
   "self_type" : "_ZTIPKN4llvm5Value18user_iterator_implIKNS_4UserEEE",
   "size" : 8,
   "source_file" : "external/llvm/include/llvm/IR/Value.h"
  },
  {
   "alignment" : 8,
   "linker_set_key" : "_ZTIPKN4llvm5Value18user_iterator_implINS_4UserEEE",
   "name" : "const llvm::Value::user_iterator_impl<llvm::User> *",
   "referenced_type" : "_ZTIKN4llvm5Value18user_iterator_implINS_4UserEEE",
   "self_type" : "_ZTIPKN4llvm5Value18user_iterator_implINS_4UserEEE",
   "size" : 8,
   "source_file" : "external/llvm/include/llvm/IR/Value.h"
  },
  {
   "alignment" : 8,
   "linker_set_key" : "_ZTIPKN4llvm5ValueE",
   "name" : "const llvm::Value *",
   "referenced_type" : "_ZTIKN4llvm5ValueE",
   "self_type" : "_ZTIPKN4llvm5ValueE",
   "size" : 8,
   "source_file" : "external/llvm/include/llvm/Support/type_traits.h"
  },
  {
   "alignment" : 8,
   "linker_set_key" : "_ZTIPN4llvm14PointerIntPairIPPNS_3UseELj2ENS1_10PrevPtrTagENS_21PointerLikeTypeTraitsIS3_EENS_18PointerIntPairInfoIS3_Lj2ES6_EEEE",
   "name" : "llvm::PointerIntPair<llvm::Use **, 2, llvm::Use::PrevPtrTag, llvm::PointerLikeTypeTraits<llvm::Use **>, llvm::PointerIntPairInfo<llvm::Use **, 2, llvm::PointerLikeTypeTraits<llvm::Use **>>> *",
   "referenced_type" : "_ZTIN4llvm14PointerIntPairIPPNS_3UseELj2ENS1_10PrevPtrTagENS_21PointerLikeTypeTraitsIS3_EENS_18PointerIntPairInfoIS3_Lj2ES6_EEEE",
   "self_type" : "_ZTIPN4llvm14PointerIntPairIPPNS_3UseELj2ENS1_10PrevPtrTagENS_21PointerLikeTypeTraitsIS3_EENS_18PointerIntPairInfoIS3_Lj2ES6_EEEE",
   "size" : 8,
   "source_file" : "external/llvm/include/llvm/ADT/PointerIntPair.h"
  },
  {
   "alignment" : 8,
   "linker_set_key" : "_ZTIPN4llvm14iterator_rangeINS_4User17value_op_iteratorEEE",
   "name" : "llvm::iterator_range<llvm::User::value_op_iterator> *",
   "referenced_type" : "_ZTIN4llvm14iterator_rangeINS_4User17value_op_iteratorEEE",
   "self_type" : "_ZTIPN4llvm14iterator_rangeINS_4User17value_op_iteratorEEE",
   "size" : 8,
   "source_file" : "external/llvm/include/llvm/ADT/iterator_range.h"
  },
  {
   "alignment" : 8,
   "linker_set_key" : "_ZTIPN4llvm14iterator_rangeINS_5Value17use_iterator_implIKNS_3UseEEEEE",
   "name" : "llvm::iterator_range<llvm::Value::use_iterator_impl<const llvm::Use>> *",
   "referenced_type" : "_ZTIN4llvm14iterator_rangeINS_5Value17use_iterator_implIKNS_3UseEEEEE",
   "self_type" : "_ZTIPN4llvm14iterator_rangeINS_5Value17use_iterator_implIKNS_3UseEEEEE",
   "size" : 8,
   "source_file" : "external/llvm/include/llvm/ADT/iterator_range.h"
  },
  {
   "alignment" : 8,
   "linker_set_key" : "_ZTIPN4llvm14iterator_rangeINS_5Value17use_iterator_implINS_3UseEEEEE",
   "name" : "llvm::iterator_range<llvm::Value::use_iterator_impl<llvm::Use>> *",
   "referenced_type" : "_ZTIN4llvm14iterator_rangeINS_5Value17use_iterator_implINS_3UseEEEEE",
   "self_type" : "_ZTIPN4llvm14iterator_rangeINS_5Value17use_iterator_implINS_3UseEEEEE",
   "size" : 8,
   "source_file" : "external/llvm/include/llvm/ADT/iterator_range.h"
  },
  {
   "alignment" : 8,
   "linker_set_key" : "_ZTIPN4llvm14iterator_rangeINS_5Value18user_iterator_implIKNS_4UserEEEEE",
   "name" : "llvm::iterator_range<llvm::Value::user_iterator_impl<const llvm::User>> *",
   "referenced_type" : "_ZTIN4llvm14iterator_rangeINS_5Value18user_iterator_implIKNS_4UserEEEEE",
   "self_type" : "_ZTIPN4llvm14iterator_rangeINS_5Value18user_iterator_implIKNS_4UserEEEEE",
   "size" : 8,
   "source_file" : "external/llvm/include/llvm/ADT/iterator_range.h"
  },
  {
   "alignment" : 8,
   "linker_set_key" : "_ZTIPN4llvm14iterator_rangeINS_5Value18user_iterator_implINS_4UserEEEEE",
   "name" : "llvm::iterator_range<llvm::Value::user_iterator_impl<llvm::User>> *",
   "referenced_type" : "_ZTIN4llvm14iterator_rangeINS_5Value18user_iterator_implINS_4UserEEEEE",
   "self_type" : "_ZTIPN4llvm14iterator_rangeINS_5Value18user_iterator_implINS_4UserEEEEE",
   "size" : 8,
   "source_file" : "external/llvm/include/llvm/ADT/iterator_range.h"
  },
  {
   "alignment" : 8,
   "linker_set_key" : "_ZTIPN4llvm14iterator_rangeIPKNS_3UseEEE",
   "name" : "llvm::iterator_range<const llvm::Use *> *",
   "referenced_type" : "_ZTIN4llvm14iterator_rangeIPKNS_3UseEEE",
   "self_type" : "_ZTIPN4llvm14iterator_rangeIPKNS_3UseEEE",
   "size" : 8,
   "source_file" : "external/llvm/include/llvm/ADT/iterator_range.h"
  },
  {
   "alignment" : 8,
   "linker_set_key" : "_ZTIPN4llvm14iterator_rangeIPNS_3UseEEE",
   "name" : "llvm::iterator_range<llvm::Use *> *",
   "referenced_type" : "_ZTIN4llvm14iterator_rangeIPNS_3UseEEE",
   "self_type" : "_ZTIPN4llvm14iterator_rangeIPNS_3UseEEE",
   "size" : 8,
   "source_file" : "external/llvm/include/llvm/ADT/iterator_range.h"
  },
  {
   "alignment" : 8,
   "linker_set_key" : "_ZTIPN4llvm21iterator_adaptor_baseINS_4User17value_op_iteratorEPNS_3UseENSt3__126random_access_iterator_tagEPNS_5ValueElS8_S8_NS5_15iterator_traitsIS4_EEEE",
   "name" : "llvm::iterator_adaptor_base<llvm::User::value_op_iterator, llvm::Use *, std::random_access_iterator_tag, llvm::Value *, long, llvm::Value *, llvm::Value *, std::iterator_traits<llvm::Use *>> *",
   "referenced_type" : "_ZTIN4llvm21iterator_adaptor_baseINS_4User17value_op_iteratorEPNS_3UseENSt3__126random_access_iterator_tagEPNS_5ValueElS8_S8_NS5_15iterator_traitsIS4_EEEE",
   "self_type" : "_ZTIPN4llvm21iterator_adaptor_baseINS_4User17value_op_iteratorEPNS_3UseENSt3__126random_access_iterator_tagEPNS_5ValueElS8_S8_NS5_15iterator_traitsIS4_EEEE",
   "size" : 8,
   "source_file" : "external/llvm/include/llvm/ADT/iterator.h"
  },
  {
   "alignment" : 8,
   "linker_set_key" : "_ZTIPN4llvm23ScopedFatalErrorHandlerE",
   "name" : "llvm::ScopedFatalErrorHandler *",
   "referenced_type" : "_ZTIN4llvm23ScopedFatalErrorHandlerE",
   "self_type" : "_ZTIPN4llvm23ScopedFatalErrorHandlerE",
   "size" : 8,
   "source_file" : "external/llvm/include/llvm/Support/ErrorHandling.h"
  },
  {
   "alignment" : 8,
   "linker_set_key" : "_ZTIPN4llvm3UseE",
   "name" : "llvm::Use *",
   "referenced_type" : "_ZTIN4llvm3UseE",
   "self_type" : "_ZTIPN4llvm3UseE",
   "size" : 8,
   "source_file" : "external/llvm/include/llvm/Support/AlignOf.h"
  },
  {
   "alignment" : 8,
   "linker_set_key" : "_ZTIPN4llvm4TypeE",
   "name" : "llvm::Type *",
   "referenced_type" : "_ZTIN4llvm4TypeE",
   "self_type" : "_ZTIPN4llvm4TypeE",
   "size" : 8,
   "source_file" : "external/llvm/include/llvm/IR/Value.h"
  },
  {
   "alignment" : 8,
   "linker_set_key" : "_ZTIPN4llvm4User17value_op_iteratorE",
   "name" : "llvm::User::value_op_iterator *",
   "referenced_type" : "_ZTIN4llvm4User17value_op_iteratorE",
   "self_type" : "_ZTIPN4llvm4User17value_op_iteratorE",
   "size" : 8,
   "source_file" : "external/llvm/include/llvm/IR/User.h"
  },
  {
   "alignment" : 8,
   "linker_set_key" : "_ZTIPN4llvm4UserE",
   "name" : "llvm::User *",
   "referenced_type" : "_ZTIN4llvm4UserE",
   "self_type" : "_ZTIPN4llvm4UserE",
   "size" : 8,
   "source_file" : "external/llvm/include/llvm/Support/PointerLikeTypeTraits.h"
  },
  {
   "alignment" : 8,
   "linker_set_key" : "_ZTIPN4llvm5Value17use_iterator_implIKNS_3UseEEE",
   "name" : "llvm::Value::use_iterator_impl<const llvm::Use> *",
   "referenced_type" : "_ZTIN4llvm5Value17use_iterator_implIKNS_3UseEEE",
   "self_type" : "_ZTIPN4llvm5Value17use_iterator_implIKNS_3UseEEE",
   "size" : 8,
   "source_file" : "external/llvm/include/llvm/IR/Value.h"
  },
  {
   "alignment" : 8,
   "linker_set_key" : "_ZTIPN4llvm5Value17use_iterator_implINS_3UseEEE",
   "name" : "llvm::Value::use_iterator_impl<llvm::Use> *",
   "referenced_type" : "_ZTIN4llvm5Value17use_iterator_implINS_3UseEEE",
   "self_type" : "_ZTIPN4llvm5Value17use_iterator_implINS_3UseEEE",
   "size" : 8,
   "source_file" : "external/llvm/include/llvm/IR/Value.h"
  },
  {
   "alignment" : 8,
   "linker_set_key" : "_ZTIPN4llvm5Value18user_iterator_implIKNS_4UserEEE",
   "name" : "llvm::Value::user_iterator_impl<const llvm::User> *",
   "referenced_type" : "_ZTIN4llvm5Value18user_iterator_implIKNS_4UserEEE",
   "self_type" : "_ZTIPN4llvm5Value18user_iterator_implIKNS_4UserEEE",
   "size" : 8,
   "source_file" : "external/llvm/include/llvm/IR/Value.h"
  },
  {
   "alignment" : 8,
   "linker_set_key" : "_ZTIPN4llvm5Value18user_iterator_implINS_4UserEEE",
   "name" : "llvm::Value::user_iterator_impl<llvm::User> *",
   "referenced_type" : "_ZTIN4llvm5Value18user_iterator_implINS_4UserEEE",
   "self_type" : "_ZTIPN4llvm5Value18user_iterator_implINS_4UserEEE",
   "size" : 8,
   "source_file" : "external/llvm/include/llvm/IR/Value.h"
  },
  {
   "alignment" : 8,
   "linker_set_key" : "_ZTIPN4llvm5ValueE",
   "name" : "llvm::Value *",
   "referenced_type" : "_ZTIN4llvm5ValueE",
   "self_type" : "_ZTIPN4llvm5ValueE",
   "size" : 8,
   "source_file" : "external/llvm/include/llvm/IR/Use.h"
  },
  {
   "alignment" : 8,
   "linker_set_key" : "_ZTIPP15LLVMOpaqueValue",
   "name" : "LLVMOpaqueValue **",
   "referenced_type" : "_ZTIP15LLVMOpaqueValue",
   "self_type" : "_ZTIPP15LLVMOpaqueValue",
   "size" : 8,
   "source_file" : "external/llvm/include/llvm/IR/Value.h"
  },
  {
   "alignment" : 8,
   "linker_set_key" : "_ZTIPPKN4llvm5ValueE",
   "name" : "const llvm::Value **",
   "referenced_type" : "_ZTIPKN4llvm5ValueE",
   "self_type" : "_ZTIPPKN4llvm5ValueE",
   "size" : 8,
   "source_file" : "external/llvm/include/llvm/IR/Value.h"
  },
  {
   "alignment" : 8,
   "linker_set_key" : "_ZTIPPN4llvm3UseE",
   "name" : "llvm::Use **",
   "referenced_type" : "_ZTIPN4llvm3UseE",
   "self_type" : "_ZTIPPN4llvm3UseE",
   "size" : 8,
   "source_file" : "external/llvm/include/llvm/ADT/PointerIntPair.h"
  },
  {
   "alignment" : 8,
   "linker_set_key" : "_ZTIPPN4llvm5ValueE",
   "name" : "llvm::Value **",
   "referenced_type" : "_ZTIPN4llvm5ValueE",
   "self_type" : "_ZTIPPN4llvm5ValueE",
   "size" : 8,
   "source_file" : "external/llvm/include/llvm/IR/Value.h"
  },
  {
   "alignment" : 8,
   "linker_set_key" : "_ZTIPv",
   "name" : "void *",
   "referenced_type" : "_ZTIv",
   "self_type" : "_ZTIPv",
   "size" : 8,
   "source_file" : "external/llvm/include/llvm/Support/PointerLikeTypeTraits.h"
  }
 ],
 "qualified_types" :
 [
  {
   "is_const" : true,
   "linker_set_key" : "_ZTIKN4llvm10BasicBlockE",
   "name" : "const llvm::BasicBlock",
   "referenced_type" : "_ZTIN4llvm10BasicBlockE",
   "self_type" : "_ZTIKN4llvm10BasicBlockE",
   "source_file" : "external/llvm/include/llvm/IR/Value.h"
  },
  {
   "is_const" : true,
   "linker_set_key" : "_ZTIKN4llvm10DataLayoutE",
   "name" : "const llvm::DataLayout",
   "referenced_type" : "_ZTIN4llvm10DataLayoutE",
   "self_type" : "_ZTIKN4llvm10DataLayoutE",
   "source_file" : "external/llvm/include/llvm/IR/Value.h"
  },
  {
   "alignment" : 8,
   "is_const" : true,
   "linker_set_key" : "_ZTIKN4llvm14PointerIntPairIPNS_4UserELj1EjNS_21PointerLikeTypeTraitsIS2_EENS_18PointerIntPairInfoIS2_Lj1ES4_EEEE",
   "name" : "const llvm::PointerIntPair<llvm::User *, 1, unsigned int, llvm::PointerLikeTypeTraits<llvm::User *>, llvm::PointerIntPairInfo<llvm::User *, 1, llvm::PointerLikeTypeTraits<llvm::User *>>>",
   "referenced_type" : "_ZTIN4llvm14PointerIntPairIPNS_4UserELj1EjNS_21PointerLikeTypeTraitsIS2_EENS_18PointerIntPairInfoIS2_Lj1ES4_EEEE",
   "self_type" : "_ZTIKN4llvm14PointerIntPairIPNS_4UserELj1EjNS_21PointerLikeTypeTraitsIS2_EENS_18PointerIntPairInfoIS2_Lj1ES4_EEEE",
   "size" : 8,
   "source_file" : "external/llvm/include/llvm/ADT/PointerIntPair.h"
  },
  {
   "alignment" : 8,
   "is_const" : true,
   "linker_set_key" : "_ZTIKN4llvm14PointerIntPairIPPNS_3UseELj2ENS1_10PrevPtrTagENS_21PointerLikeTypeTraitsIS3_EENS_18PointerIntPairInfoIS3_Lj2ES6_EEEE",
   "name" : "const llvm::PointerIntPair<llvm::Use **, 2, llvm::Use::PrevPtrTag, llvm::PointerLikeTypeTraits<llvm::Use **>, llvm::PointerIntPairInfo<llvm::Use **, 2, llvm::PointerLikeTypeTraits<llvm::Use **>>>",
   "referenced_type" : "_ZTIN4llvm14PointerIntPairIPPNS_3UseELj2ENS1_10PrevPtrTagENS_21PointerLikeTypeTraitsIS3_EENS_18PointerIntPairInfoIS3_Lj2ES6_EEEE",
   "self_type" : "_ZTIKN4llvm14PointerIntPairIPPNS_3UseELj2ENS1_10PrevPtrTagENS_21PointerLikeTypeTraitsIS3_EENS_18PointerIntPairInfoIS3_Lj2ES6_EEEE",
   "size" : 8,
   "source_file" : "external/llvm/include/llvm/ADT/PointerIntPair.h"
  },
  {
   "alignment" : 8,
   "is_const" : true,
   "linker_set_key" : "_ZTIKN4llvm14iterator_rangeIPNS_3UseEEE",
   "name" : "const llvm::iterator_range<llvm::Use *>",
   "referenced_type" : "_ZTIN4llvm14iterator_rangeIPNS_3UseEEE",
   "self_type" : "_ZTIKN4llvm14iterator_rangeIPNS_3UseEEE",
   "size" : 16,
   "source_file" : "external/llvm/include/llvm/ADT/iterator_range.h"
  },
  {
   "alignment" : 8,
   "is_const" : true,
   "linker_set_key" : "_ZTIKN4llvm3UseE",
   "name" : "const llvm::Use",
   "referenced_type" : "_ZTIN4llvm3UseE",
   "self_type" : "_ZTIKN4llvm3UseE",
   "size" : 24,
   "source_file" : "external/llvm/include/llvm/IR/Use.h"
  },
  {
   "alignment" : 8,
   "is_const" : true,
   "linker_set_key" : "_ZTIKN4llvm4User17value_op_iteratorE",
   "name" : "const llvm::User::value_op_iterator",
   "referenced_type" : "_ZTIN4llvm4User17value_op_iteratorE",
   "self_type" : "_ZTIKN4llvm4User17value_op_iteratorE",
   "size" : 8,
   "source_file" : "external/llvm/include/llvm/IR/User.h"
  },
  {
   "alignment" : 8,
   "is_const" : true,
   "linker_set_key" : "_ZTIKN4llvm4UserE",
   "name" : "const llvm::User",
   "referenced_type" : "_ZTIN4llvm4UserE",
   "self_type" : "_ZTIKN4llvm4UserE",
   "size" : 32,
   "source_file" : "external/llvm/include/llvm/IR/Value.h"
  },
  {
   "alignment" : 8,
   "is_const" : true,
   "linker_set_key" : "_ZTIKN4llvm5Value17use_iterator_implIKNS_3UseEEE",
   "name" : "const llvm::Value::use_iterator_impl<const llvm::Use>",
   "referenced_type" : "_ZTIN4llvm5Value17use_iterator_implIKNS_3UseEEE",
   "self_type" : "_ZTIKN4llvm5Value17use_iterator_implIKNS_3UseEEE",
   "size" : 8,
   "source_file" : "external/llvm/include/llvm/IR/Value.h"
  },
  {
   "alignment" : 8,
   "is_const" : true,
   "linker_set_key" : "_ZTIKN4llvm5Value17use_iterator_implINS_3UseEEE",
   "name" : "const llvm::Value::use_iterator_impl<llvm::Use>",
   "referenced_type" : "_ZTIN4llvm5Value17use_iterator_implINS_3UseEEE",
   "self_type" : "_ZTIKN4llvm5Value17use_iterator_implINS_3UseEEE",
   "size" : 8,
   "source_file" : "external/llvm/include/llvm/IR/Value.h"
  },
  {
   "alignment" : 8,
   "is_const" : true,
   "linker_set_key" : "_ZTIKN4llvm5Value18user_iterator_implIKNS_4UserEEE",
   "name" : "const llvm::Value::user_iterator_impl<const llvm::User>",
   "referenced_type" : "_ZTIN4llvm5Value18user_iterator_implIKNS_4UserEEE",
   "self_type" : "_ZTIKN4llvm5Value18user_iterator_implIKNS_4UserEEE",
   "size" : 8,
   "source_file" : "external/llvm/include/llvm/IR/Value.h"
  },
  {
   "alignment" : 8,
   "is_const" : true,
   "linker_set_key" : "_ZTIKN4llvm5Value18user_iterator_implINS_4UserEEE",
   "name" : "const llvm::Value::user_iterator_impl<llvm::User>",
   "referenced_type" : "_ZTIN4llvm5Value18user_iterator_implINS_4UserEEE",
   "self_type" : "_ZTIKN4llvm5Value18user_iterator_implINS_4UserEEE",
   "size" : 8,
   "source_file" : "external/llvm/include/llvm/IR/Value.h"
  },
  {
   "alignment" : 8,
   "is_const" : true,
   "linker_set_key" : "_ZTIKN4llvm5ValueE",
   "name" : "const llvm::Value",
   "referenced_type" : "_ZTIN4llvm5ValueE",
   "self_type" : "_ZTIKN4llvm5ValueE",
   "size" : 32,
   "source_file" : "external/llvm/include/llvm/Support/type_traits.h"
  },
  {
   "alignment" : 8,
   "is_const" : true,
   "linker_set_key" : "_ZTIKNSt3__112basic_stringIcNS_11char_traitsIcEENS_9allocatorIcEEEE",
   "name" : "const std::basic_string<char, std::char_traits<char>, std::allocator<char>>",
   "referenced_type" : "_ZTINSt3__112basic_stringIcNS_11char_traitsIcEENS_9allocatorIcEEEE",
   "self_type" : "_ZTIKNSt3__112basic_stringIcNS_11char_traitsIcEENS_9allocatorIcEEEE",
   "size" : 24,
   "source_file" : "external/llvm/include/llvm/Support/ErrorHandling.h"
  },
  {
   "alignment" : 8,
   "is_const" : true,
   "linker_set_key" : "_ZTIKPKN4llvm5ValueE",
   "name" : "const llvm::Value *const",
   "referenced_type" : "_ZTIPKN4llvm5ValueE",
   "self_type" : "_ZTIKPKN4llvm5ValueE",
   "size" : 8,
   "source_file" : "external/llvm/include/llvm/Support/Casting.h"
  },
  {
   "is_const" : true,
   "linker_set_key" : "_ZTIKT_",
   "name" : "const type-parameter-0-0",
   "referenced_type" : "_ZTIT_",
   "self_type" : "_ZTIKT_",
   "source_file" : "external/llvm/include/llvm/ADT/iterator.h"
  },
  {
   "alignment" : 1,
   "is_const" : true,
   "linker_set_key" : "_ZTIKb",
   "name" : "const bool",
   "referenced_type" : "_ZTIb",
   "self_type" : "_ZTIKb",
   "size" : 1,
   "source_file" : "external/llvm/include/llvm/ADT/PointerIntPair.h"
  },
  {
   "alignment" : 1,
   "is_const" : true,
   "linker_set_key" : "_ZTIKh",
   "name" : "const unsigned char",
   "referenced_type" : "_ZTIh",
   "self_type" : "_ZTIKh",
   "size" : 1,
   "source_file" : "external/llvm/include/llvm/IR/Value.h"
  },
  {
   "alignment" : 4,
   "is_const" : true,
   "linker_set_key" : "_ZTIKj",
   "name" : "const unsigned int",
   "referenced_type" : "_ZTIj",
   "self_type" : "_ZTIKj",
   "size" : 4,
   "source_file" : "external/llvm/include/llvm/Support/AlignOf.h"
  }
 ],
 "record_types" :
 [
  {
   "alignment" : 1,
   "linker_set_key" : "_ZTIN4llvm11isa_impl_clINS_11GlobalAliasEKNS_5ValueEEE",
   "name" : "llvm::isa_impl_cl<llvm::GlobalAlias, const llvm::Value>",
   "referenced_type" : "_ZTIN4llvm11isa_impl_clINS_11GlobalAliasEKNS_5ValueEEE",
   "self_type" : "_ZTIN4llvm11isa_impl_clINS_11GlobalAliasEKNS_5ValueEEE",
   "size" : 1,
   "source_file" : "external/llvm/include/llvm/Support/Casting.h",
   "template_args" : [ "_ZTIN4llvm11GlobalAliasE", "_ZTIKN4llvm5ValueE" ]
  },
  {
   "alignment" : 1,
   "linker_set_key" : "_ZTIN4llvm11isa_impl_clINS_11GlobalIFuncEKNS_5ValueEEE",
   "name" : "llvm::isa_impl_cl<llvm::GlobalIFunc, const llvm::Value>",
   "referenced_type" : "_ZTIN4llvm11isa_impl_clINS_11GlobalIFuncEKNS_5ValueEEE",
   "self_type" : "_ZTIN4llvm11isa_impl_clINS_11GlobalIFuncEKNS_5ValueEEE",
   "size" : 1,
   "source_file" : "external/llvm/include/llvm/Support/Casting.h",
   "template_args" : [ "_ZTIN4llvm11GlobalIFuncE", "_ZTIKN4llvm5ValueE" ]
  },
  {
   "alignment" : 1,
   "linker_set_key" : "_ZTIN4llvm11isa_impl_clINS_11InstructionEPKNS_5ValueEEE",
   "name" : "llvm::isa_impl_cl<llvm::Instruction, const llvm::Value *>",
   "referenced_type" : "_ZTIN4llvm11isa_impl_clINS_11InstructionEPKNS_5ValueEEE",
   "self_type" : "_ZTIN4llvm11isa_impl_clINS_11InstructionEPKNS_5ValueEEE",
   "size" : 1,
   "source_file" : "external/llvm/include/llvm/Support/Casting.h",
   "template_args" : [ "_ZTIN4llvm11InstructionE", "_ZTIPKN4llvm5ValueE" ]
  },
  {
   "alignment" : 1,
   "linker_set_key" : "_ZTIN4llvm11isa_impl_clINS_12GlobalObjectEKNS_5ValueEEE",
   "name" : "llvm::isa_impl_cl<llvm::GlobalObject, const llvm::Value>",
   "referenced_type" : "_ZTIN4llvm11isa_impl_clINS_12GlobalObjectEKNS_5ValueEEE",
   "self_type" : "_ZTIN4llvm11isa_impl_clINS_12GlobalObjectEKNS_5ValueEEE",
   "size" : 1,
   "source_file" : "external/llvm/include/llvm/Support/Casting.h",
   "template_args" : [ "_ZTIN4llvm12GlobalObjectE", "_ZTIKN4llvm5ValueE" ]
  },
  {
   "alignment" : 1,
   "linker_set_key" : "_ZTIN4llvm11isa_impl_clINS_14GlobalVariableEKNS_5ValueEEE",
   "name" : "llvm::isa_impl_cl<llvm::GlobalVariable, const llvm::Value>",
   "referenced_type" : "_ZTIN4llvm11isa_impl_clINS_14GlobalVariableEKNS_5ValueEEE",
   "self_type" : "_ZTIN4llvm11isa_impl_clINS_14GlobalVariableEKNS_5ValueEEE",
   "size" : 1,
   "source_file" : "external/llvm/include/llvm/Support/Casting.h",
   "template_args" : [ "_ZTIN4llvm14GlobalVariableE", "_ZTIKN4llvm5ValueE" ]
  },
  {
   "alignment" : 1,
   "linker_set_key" : "_ZTIN4llvm11isa_impl_clINS_20GlobalIndirectSymbolEKNS_5ValueEEE",
   "name" : "llvm::isa_impl_cl<llvm::GlobalIndirectSymbol, const llvm::Value>",
   "referenced_type" : "_ZTIN4llvm11isa_impl_clINS_20GlobalIndirectSymbolEKNS_5ValueEEE",
   "self_type" : "_ZTIN4llvm11isa_impl_clINS_20GlobalIndirectSymbolEKNS_5ValueEEE",
   "size" : 1,
   "source_file" : "external/llvm/include/llvm/Support/Casting.h",
   "template_args" : [ "_ZTIN4llvm20GlobalIndirectSymbolE", "_ZTIKN4llvm5ValueE" ]
  },
  {
   "alignment" : 1,
   "linker_set_key" : "_ZTIN4llvm11isa_impl_clINS_8ConstantEPKNS_5ValueEEE",
   "name" : "llvm::isa_impl_cl<llvm::Constant, const llvm::Value *>",
   "referenced_type" : "_ZTIN4llvm11isa_impl_clINS_8ConstantEPKNS_5ValueEEE",
   "self_type" : "_ZTIN4llvm11isa_impl_clINS_8ConstantEPKNS_5ValueEEE",
   "size" : 1,
   "source_file" : "external/llvm/include/llvm/Support/Casting.h",
   "template_args" : [ "_ZTIN4llvm8ConstantE", "_ZTIPKN4llvm5ValueE" ]
  },
  {
   "alignment" : 1,
   "linker_set_key" : "_ZTIN4llvm11isa_impl_clINS_8FunctionEKNS_5ValueEEE",
   "name" : "llvm::isa_impl_cl<llvm::Function, const llvm::Value>",
   "referenced_type" : "_ZTIN4llvm11isa_impl_clINS_8FunctionEKNS_5ValueEEE",
   "self_type" : "_ZTIN4llvm11isa_impl_clINS_8FunctionEKNS_5ValueEEE",
   "size" : 1,
   "source_file" : "external/llvm/include/llvm/Support/Casting.h",
   "template_args" : [ "_ZTIN4llvm8FunctionE", "_ZTIKN4llvm5ValueE" ]
  },
  {
   "alignment" : 1,
   "linker_set_key" : "_ZTIN4llvm13isa_impl_wrapINS_11GlobalAliasEKNS_5ValueES3_EE",
   "name" : "llvm::isa_impl_wrap<llvm::GlobalAlias, const llvm::Value, const llvm::Value>",
   "referenced_type" : "_ZTIN4llvm13isa_impl_wrapINS_11GlobalAliasEKNS_5ValueES3_EE",
   "self_type" : "_ZTIN4llvm13isa_impl_wrapINS_11GlobalAliasEKNS_5ValueES3_EE",
   "size" : 1,
   "source_file" : "external/llvm/include/llvm/Support/Casting.h",
   "template_args" :
   [
    "_ZTIN4llvm11GlobalAliasE",
    "_ZTIKN4llvm5ValueE",
    "_ZTIKN4llvm5ValueE"
   ]
  },
  {
   "alignment" : 1,
   "linker_set_key" : "_ZTIN4llvm13isa_impl_wrapINS_11GlobalIFuncEKNS_5ValueES3_EE",
   "name" : "llvm::isa_impl_wrap<llvm::GlobalIFunc, const llvm::Value, const llvm::Value>",
   "referenced_type" : "_ZTIN4llvm13isa_impl_wrapINS_11GlobalIFuncEKNS_5ValueES3_EE",
   "self_type" : "_ZTIN4llvm13isa_impl_wrapINS_11GlobalIFuncEKNS_5ValueES3_EE",
   "size" : 1,
   "source_file" : "external/llvm/include/llvm/Support/Casting.h",
   "template_args" :
   [
    "_ZTIN4llvm11GlobalIFuncE",
    "_ZTIKN4llvm5ValueE",
    "_ZTIKN4llvm5ValueE"
   ]
  },
  {
   "alignment" : 1,
   "linker_set_key" : "_ZTIN4llvm13isa_impl_wrapINS_11InstructionEKPKNS_5ValueES4_EE",
   "name" : "llvm::isa_impl_wrap<llvm::Instruction, const llvm::Value *const, const llvm::Value *>",
   "referenced_type" : "_ZTIN4llvm13isa_impl_wrapINS_11InstructionEKPKNS_5ValueES4_EE",
   "self_type" : "_ZTIN4llvm13isa_impl_wrapINS_11InstructionEKPKNS_5ValueES4_EE",
   "size" : 1,
   "source_file" : "external/llvm/include/llvm/Support/Casting.h",
   "template_args" :
   [
    "_ZTIN4llvm11InstructionE",
    "_ZTIKPKN4llvm5ValueE",
    "_ZTIPKN4llvm5ValueE"
   ]
  },
  {
   "alignment" : 1,
   "linker_set_key" : "_ZTIN4llvm13isa_impl_wrapINS_11InstructionEPKNS_5ValueES4_EE",
   "name" : "llvm::isa_impl_wrap<llvm::Instruction, const llvm::Value *, const llvm::Value *>",
   "referenced_type" : "_ZTIN4llvm13isa_impl_wrapINS_11InstructionEPKNS_5ValueES4_EE",
   "self_type" : "_ZTIN4llvm13isa_impl_wrapINS_11InstructionEPKNS_5ValueES4_EE",
   "size" : 1,
   "source_file" : "external/llvm/include/llvm/Support/Casting.h",
   "template_args" :
   [
    "_ZTIN4llvm11InstructionE",
    "_ZTIPKN4llvm5ValueE",
    "_ZTIPKN4llvm5ValueE"
   ]
  },
  {
   "alignment" : 1,
   "linker_set_key" : "_ZTIN4llvm13isa_impl_wrapINS_12GlobalObjectEKNS_5ValueES3_EE",
   "name" : "llvm::isa_impl_wrap<llvm::GlobalObject, const llvm::Value, const llvm::Value>",
   "referenced_type" : "_ZTIN4llvm13isa_impl_wrapINS_12GlobalObjectEKNS_5ValueES3_EE",
   "self_type" : "_ZTIN4llvm13isa_impl_wrapINS_12GlobalObjectEKNS_5ValueES3_EE",
   "size" : 1,
   "source_file" : "external/llvm/include/llvm/Support/Casting.h",
   "template_args" :
   [
    "_ZTIN4llvm12GlobalObjectE",
    "_ZTIKN4llvm5ValueE",
    "_ZTIKN4llvm5ValueE"
   ]
  },
  {
   "alignment" : 1,
   "linker_set_key" : "_ZTIN4llvm13isa_impl_wrapINS_14GlobalVariableEKNS_5ValueES3_EE",
   "name" : "llvm::isa_impl_wrap<llvm::GlobalVariable, const llvm::Value, const llvm::Value>",
   "referenced_type" : "_ZTIN4llvm13isa_impl_wrapINS_14GlobalVariableEKNS_5ValueES3_EE",
   "self_type" : "_ZTIN4llvm13isa_impl_wrapINS_14GlobalVariableEKNS_5ValueES3_EE",
   "size" : 1,
   "source_file" : "external/llvm/include/llvm/Support/Casting.h",
   "template_args" :
   [
    "_ZTIN4llvm14GlobalVariableE",
    "_ZTIKN4llvm5ValueE",
    "_ZTIKN4llvm5ValueE"
   ]
  },
  {
   "alignment" : 1,
   "linker_set_key" : "_ZTIN4llvm13isa_impl_wrapINS_20GlobalIndirectSymbolEKNS_5ValueES3_EE",
   "name" : "llvm::isa_impl_wrap<llvm::GlobalIndirectSymbol, const llvm::Value, const llvm::Value>",
   "referenced_type" : "_ZTIN4llvm13isa_impl_wrapINS_20GlobalIndirectSymbolEKNS_5ValueES3_EE",
   "self_type" : "_ZTIN4llvm13isa_impl_wrapINS_20GlobalIndirectSymbolEKNS_5ValueES3_EE",
   "size" : 1,
   "source_file" : "external/llvm/include/llvm/Support/Casting.h",
   "template_args" :
   [
    "_ZTIN4llvm20GlobalIndirectSymbolE",
    "_ZTIKN4llvm5ValueE",
    "_ZTIKN4llvm5ValueE"
   ]
  },
  {
   "alignment" : 1,
   "linker_set_key" : "_ZTIN4llvm13isa_impl_wrapINS_8ConstantEKPKNS_5ValueES4_EE",
   "name" : "llvm::isa_impl_wrap<llvm::Constant, const llvm::Value *const, const llvm::Value *>",
   "referenced_type" : "_ZTIN4llvm13isa_impl_wrapINS_8ConstantEKPKNS_5ValueES4_EE",
   "self_type" : "_ZTIN4llvm13isa_impl_wrapINS_8ConstantEKPKNS_5ValueES4_EE",
   "size" : 1,
   "source_file" : "external/llvm/include/llvm/Support/Casting.h",
   "template_args" : [ "_ZTIN4llvm8ConstantE", "_ZTIKPKN4llvm5ValueE", "_ZTIPKN4llvm5ValueE" ]
  },
  {
   "alignment" : 1,
   "linker_set_key" : "_ZTIN4llvm13isa_impl_wrapINS_8ConstantEPKNS_5ValueES4_EE",
   "name" : "llvm::isa_impl_wrap<llvm::Constant, const llvm::Value *, const llvm::Value *>",
   "referenced_type" : "_ZTIN4llvm13isa_impl_wrapINS_8ConstantEPKNS_5ValueES4_EE",
   "self_type" : "_ZTIN4llvm13isa_impl_wrapINS_8ConstantEPKNS_5ValueES4_EE",
   "size" : 1,
   "source_file" : "external/llvm/include/llvm/Support/Casting.h",
   "template_args" : [ "_ZTIN4llvm8ConstantE", "_ZTIPKN4llvm5ValueE", "_ZTIPKN4llvm5ValueE" ]
  },
  {
   "alignment" : 1,
   "linker_set_key" : "_ZTIN4llvm13isa_impl_wrapINS_8FunctionEKNS_5ValueES3_EE",
   "name" : "llvm::isa_impl_wrap<llvm::Function, const llvm::Value, const llvm::Value>",
   "referenced_type" : "_ZTIN4llvm13isa_impl_wrapINS_8FunctionEKNS_5ValueES3_EE",
   "self_type" : "_ZTIN4llvm13isa_impl_wrapINS_8FunctionEKNS_5ValueES3_EE",
   "size" : 1,
   "source_file" : "external/llvm/include/llvm/Support/Casting.h",
   "template_args" : [ "_ZTIN4llvm8FunctionE", "_ZTIKN4llvm5ValueE", "_ZTIKN4llvm5ValueE" ]
  },
  {
   "alignment" : 1,
   "linker_set_key" : "_ZTIN4llvm13simplify_typeIKNS_3UseEEE",
   "name" : "llvm::simplify_type<const llvm::Use>",
   "referenced_type" : "_ZTIN4llvm13simplify_typeIKNS_3UseEEE",
   "self_type" : "_ZTIN4llvm13simplify_typeIKNS_3UseEEE",
   "size" : 1,
   "source_file" : "external/llvm/include/llvm/IR/Use.h",
   "template_args" : [ "_ZTIKN4llvm3UseE" ]
  },
  {
   "alignment" : 1,
   "linker_set_key" : "_ZTIN4llvm13simplify_typeIKNS_5ValueEEE",
   "name" : "llvm::simplify_type<const llvm::Value>",
   "referenced_type" : "_ZTIN4llvm13simplify_typeIKNS_5ValueEEE",
   "self_type" : "_ZTIN4llvm13simplify_typeIKNS_5ValueEEE",
   "size" : 1,
   "source_file" : "external/llvm/include/llvm/Support/Casting.h",
   "template_args" : [ "_ZTIKN4llvm5ValueE" ]
  },
  {
   "alignment" : 1,
   "linker_set_key" : "_ZTIN4llvm13simplify_typeIKPKNS_5ValueEEE",
   "name" : "llvm::simplify_type<const llvm::Value *const>",
   "referenced_type" : "_ZTIN4llvm13simplify_typeIKPKNS_5ValueEEE",
   "self_type" : "_ZTIN4llvm13simplify_typeIKPKNS_5ValueEEE",
   "size" : 1,
   "source_file" : "external/llvm/include/llvm/Support/Casting.h",
   "template_args" : [ "_ZTIKPKN4llvm5ValueE" ]
  },
  {
   "alignment" : 1,
   "linker_set_key" : "_ZTIN4llvm13simplify_typeINS_3UseEEE",
   "name" : "llvm::simplify_type<llvm::Use>",
   "referenced_type" : "_ZTIN4llvm13simplify_typeINS_3UseEEE",
   "self_type" : "_ZTIN4llvm13simplify_typeINS_3UseEEE",
   "size" : 1,
   "source_file" : "external/llvm/include/llvm/IR/Use.h",
   "template_args" : [ "_ZTIN4llvm3UseE" ]
  },
  {
   "alignment" : 1,
   "linker_set_key" : "_ZTIN4llvm13simplify_typeINS_5ValueEEE",
   "name" : "llvm::simplify_type<llvm::Value>",
   "referenced_type" : "_ZTIN4llvm13simplify_typeINS_5ValueEEE",
   "self_type" : "_ZTIN4llvm13simplify_typeINS_5ValueEEE",
   "size" : 1,
   "source_file" : "external/llvm/include/llvm/Support/Casting.h",
   "template_args" : [ "_ZTIN4llvm5ValueE" ]
  },
  {
   "alignment" : 1,
   "linker_set_key" : "_ZTIN4llvm13simplify_typeIPKNS_3UseEEE",
   "name" : "llvm::simplify_type<const llvm::Use *>",
   "referenced_type" : "_ZTIN4llvm13simplify_typeIPKNS_3UseEEE",
   "self_type" : "_ZTIN4llvm13simplify_typeIPKNS_3UseEEE",
   "size" : 1,
   "source_file" : "external/llvm/include/llvm/IR/User.h",
   "template_args" : [ "_ZTIPKN4llvm3UseE" ]
  },
  {
   "alignment" : 1,
   "linker_set_key" : "_ZTIN4llvm13simplify_typeIPKNS_5ValueEEE",
   "name" : "llvm::simplify_type<const llvm::Value *>",
   "referenced_type" : "_ZTIN4llvm13simplify_typeIPKNS_5ValueEEE",
   "self_type" : "_ZTIN4llvm13simplify_typeIPKNS_5ValueEEE",
   "size" : 1,
   "source_file" : "external/llvm/include/llvm/Support/Casting.h",
   "template_args" : [ "_ZTIPKN4llvm5ValueE" ]
  },
  {
   "alignment" : 1,
   "linker_set_key" : "_ZTIN4llvm13simplify_typeIPNS_3UseEEE",
   "name" : "llvm::simplify_type<llvm::Use *>",
   "referenced_type" : "_ZTIN4llvm13simplify_typeIPNS_3UseEEE",
   "self_type" : "_ZTIN4llvm13simplify_typeIPNS_3UseEEE",
   "size" : 1,
   "source_file" : "external/llvm/include/llvm/IR/User.h",
   "template_args" : [ "_ZTIPN4llvm3UseE" ]
  },
  {
   "alignment" : 8,
   "fields" :
   [
    {
     "access" : "private",
     "field_name" : "Value",
     "referenced_type" : "_ZTIl"
    }
   ],
   "linker_set_key" : "_ZTIN4llvm14PointerIntPairIPNS_4UserELj1EjNS_21PointerLikeTypeTraitsIS2_EENS_18PointerIntPairInfoIS2_Lj1ES4_EEEE",
   "name" : "llvm::PointerIntPair<llvm::User *, 1, unsigned int, llvm::PointerLikeTypeTraits<llvm::User *>, llvm::PointerIntPairInfo<llvm::User *, 1, llvm::PointerLikeTypeTraits<llvm::User *>>>",
   "record_kind" : "class",
   "referenced_type" : "_ZTIN4llvm14PointerIntPairIPNS_4UserELj1EjNS_21PointerLikeTypeTraitsIS2_EENS_18PointerIntPairInfoIS2_Lj1ES4_EEEE",
   "self_type" : "_ZTIN4llvm14PointerIntPairIPNS_4UserELj1EjNS_21PointerLikeTypeTraitsIS2_EENS_18PointerIntPairInfoIS2_Lj1ES4_EEEE",
   "size" : 8,
   "source_file" : "external/llvm/include/llvm/ADT/PointerIntPair.h",
   "template_args" :
   [
    "_ZTIPN4llvm4UserE",
    "_ZTIj",
    "_ZTIN4llvm21PointerLikeTypeTraitsIPNS_4UserEEE",
    "_ZTIN4llvm18PointerIntPairInfoIPNS_4UserELj1ENS_21PointerLikeTypeTraitsIS2_EEEE"
   ]
  },
  {
   "alignment" : 8,
   "fields" :
   [
    {
     "access" : "private",
     "field_name" : "Value",
     "referenced_type" : "_ZTIl"
    }
   ],
   "linker_set_key" : "_ZTIN4llvm14PointerIntPairIPPNS_3UseELj2ENS1_10PrevPtrTagENS_21PointerLikeTypeTraitsIS3_EENS_18PointerIntPairInfoIS3_Lj2ES6_EEEE",
   "name" : "llvm::PointerIntPair<llvm::Use **, 2, llvm::Use::PrevPtrTag, llvm::PointerLikeTypeTraits<llvm::Use **>, llvm::PointerIntPairInfo<llvm::Use **, 2, llvm::PointerLikeTypeTraits<llvm::Use **>>>",
   "record_kind" : "class",
   "referenced_type" : "_ZTIN4llvm14PointerIntPairIPPNS_3UseELj2ENS1_10PrevPtrTagENS_21PointerLikeTypeTraitsIS3_EENS_18PointerIntPairInfoIS3_Lj2ES6_EEEE",
   "self_type" : "_ZTIN4llvm14PointerIntPairIPPNS_3UseELj2ENS1_10PrevPtrTagENS_21PointerLikeTypeTraitsIS3_EENS_18PointerIntPairInfoIS3_Lj2ES6_EEEE",
   "size" : 8,
   "source_file" : "external/llvm/include/llvm/ADT/PointerIntPair.h",
   "template_args" :
   [
    "_ZTIPPN4llvm3UseE",
    "_ZTIN4llvm3Use10PrevPtrTagE",
    "_ZTIN4llvm21PointerLikeTypeTraitsIPPNS_3UseEEE",
    "_ZTIN4llvm18PointerIntPairInfoIPPNS_3UseELj2ENS_21PointerLikeTypeTraitsIS3_EEEE"
   ]
  },
  {
   "alignment" : 8,
   "fields" :
   [
    {
     "access" : "private",
     "field_name" : "begin_iterator",
     "referenced_type" : "_ZTIN4llvm4User17value_op_iteratorE"
    },
    {
     "access" : "private",
     "field_name" : "end_iterator",
     "field_offset" : 64,
     "referenced_type" : "_ZTIN4llvm4User17value_op_iteratorE"
    }
   ],
   "linker_set_key" : "_ZTIN4llvm14iterator_rangeINS_4User17value_op_iteratorEEE",
   "name" : "llvm::iterator_range<llvm::User::value_op_iterator>",
   "record_kind" : "class",
   "referenced_type" : "_ZTIN4llvm14iterator_rangeINS_4User17value_op_iteratorEEE",
   "self_type" : "_ZTIN4llvm14iterator_rangeINS_4User17value_op_iteratorEEE",
   "size" : 16,
   "source_file" : "external/llvm/include/llvm/ADT/iterator_range.h",
   "template_args" : [ "_ZTIN4llvm4User17value_op_iteratorE" ]
  },
  {
   "alignment" : 8,
   "fields" :
   [
    {
     "access" : "private",
     "field_name" : "begin_iterator",
     "referenced_type" : "_ZTIN4llvm5Value17use_iterator_implIKNS_3UseEEE"
    },
    {
     "access" : "private",
     "field_name" : "end_iterator",
     "field_offset" : 64,
     "referenced_type" : "_ZTIN4llvm5Value17use_iterator_implIKNS_3UseEEE"
    }
   ],
   "linker_set_key" : "_ZTIN4llvm14iterator_rangeINS_5Value17use_iterator_implIKNS_3UseEEEEE",
   "name" : "llvm::iterator_range<llvm::Value::use_iterator_impl<const llvm::Use>>",
   "record_kind" : "class",
   "referenced_type" : "_ZTIN4llvm14iterator_rangeINS_5Value17use_iterator_implIKNS_3UseEEEEE",
   "self_type" : "_ZTIN4llvm14iterator_rangeINS_5Value17use_iterator_implIKNS_3UseEEEEE",
   "size" : 16,
   "source_file" : "external/llvm/include/llvm/ADT/iterator_range.h",
   "template_args" : [ "_ZTIN4llvm5Value17use_iterator_implIKNS_3UseEEE" ]
  },
  {
   "alignment" : 8,
   "fields" :
   [
    {
     "access" : "private",
     "field_name" : "begin_iterator",
     "referenced_type" : "_ZTIN4llvm5Value17use_iterator_implINS_3UseEEE"
    },
    {
     "access" : "private",
     "field_name" : "end_iterator",
     "field_offset" : 64,
     "referenced_type" : "_ZTIN4llvm5Value17use_iterator_implINS_3UseEEE"
    }
   ],
   "linker_set_key" : "_ZTIN4llvm14iterator_rangeINS_5Value17use_iterator_implINS_3UseEEEEE",
   "name" : "llvm::iterator_range<llvm::Value::use_iterator_impl<llvm::Use>>",
   "record_kind" : "class",
   "referenced_type" : "_ZTIN4llvm14iterator_rangeINS_5Value17use_iterator_implINS_3UseEEEEE",
   "self_type" : "_ZTIN4llvm14iterator_rangeINS_5Value17use_iterator_implINS_3UseEEEEE",
   "size" : 16,
   "source_file" : "external/llvm/include/llvm/ADT/iterator_range.h",
   "template_args" : [ "_ZTIN4llvm5Value17use_iterator_implINS_3UseEEE" ]
  },
  {
   "alignment" : 8,
   "fields" :
   [
    {
     "access" : "private",
     "field_name" : "begin_iterator",
     "referenced_type" : "_ZTIN4llvm5Value18user_iterator_implIKNS_4UserEEE"
    },
    {
     "access" : "private",
     "field_name" : "end_iterator",
     "field_offset" : 64,
     "referenced_type" : "_ZTIN4llvm5Value18user_iterator_implIKNS_4UserEEE"
    }
   ],
   "linker_set_key" : "_ZTIN4llvm14iterator_rangeINS_5Value18user_iterator_implIKNS_4UserEEEEE",
   "name" : "llvm::iterator_range<llvm::Value::user_iterator_impl<const llvm::User>>",
   "record_kind" : "class",
   "referenced_type" : "_ZTIN4llvm14iterator_rangeINS_5Value18user_iterator_implIKNS_4UserEEEEE",
   "self_type" : "_ZTIN4llvm14iterator_rangeINS_5Value18user_iterator_implIKNS_4UserEEEEE",
   "size" : 16,
   "source_file" : "external/llvm/include/llvm/ADT/iterator_range.h",
   "template_args" : [ "_ZTIN4llvm5Value18user_iterator_implIKNS_4UserEEE" ]
  },
  {
   "alignment" : 8,
   "fields" :
   [
    {
     "access" : "private",
     "field_name" : "begin_iterator",
     "referenced_type" : "_ZTIN4llvm5Value18user_iterator_implINS_4UserEEE"
    },
    {
     "access" : "private",
     "field_name" : "end_iterator",
     "field_offset" : 64,
     "referenced_type" : "_ZTIN4llvm5Value18user_iterator_implINS_4UserEEE"
    }
   ],
   "linker_set_key" : "_ZTIN4llvm14iterator_rangeINS_5Value18user_iterator_implINS_4UserEEEEE",
   "name" : "llvm::iterator_range<llvm::Value::user_iterator_impl<llvm::User>>",
   "record_kind" : "class",
   "referenced_type" : "_ZTIN4llvm14iterator_rangeINS_5Value18user_iterator_implINS_4UserEEEEE",
   "self_type" : "_ZTIN4llvm14iterator_rangeINS_5Value18user_iterator_implINS_4UserEEEEE",
   "size" : 16,
   "source_file" : "external/llvm/include/llvm/ADT/iterator_range.h",
   "template_args" : [ "_ZTIN4llvm5Value18user_iterator_implINS_4UserEEE" ]
  },
  {
   "alignment" : 8,
   "fields" :
   [
    {
     "access" : "private",
     "field_name" : "begin_iterator",
     "referenced_type" : "_ZTIPKN4llvm3UseE"
    },
    {
     "access" : "private",
     "field_name" : "end_iterator",
     "field_offset" : 64,
     "referenced_type" : "_ZTIPKN4llvm3UseE"
    }
   ],
   "linker_set_key" : "_ZTIN4llvm14iterator_rangeIPKNS_3UseEEE",
   "name" : "llvm::iterator_range<const llvm::Use *>",
   "record_kind" : "class",
   "referenced_type" : "_ZTIN4llvm14iterator_rangeIPKNS_3UseEEE",
   "self_type" : "_ZTIN4llvm14iterator_rangeIPKNS_3UseEEE",
   "size" : 16,
   "source_file" : "external/llvm/include/llvm/ADT/iterator_range.h",
   "template_args" : [ "_ZTIPKN4llvm3UseE" ]
  },
  {
   "alignment" : 8,
   "fields" :
   [
    {
     "access" : "private",
     "field_name" : "begin_iterator",
     "referenced_type" : "_ZTIPN4llvm3UseE"
    },
    {
     "access" : "private",
     "field_name" : "end_iterator",
     "field_offset" : 64,
     "referenced_type" : "_ZTIPN4llvm3UseE"
    }
   ],
   "linker_set_key" : "_ZTIN4llvm14iterator_rangeIPNS_3UseEEE",
   "name" : "llvm::iterator_range<llvm::Use *>",
   "record_kind" : "class",
   "referenced_type" : "_ZTIN4llvm14iterator_rangeIPNS_3UseEEE",
   "self_type" : "_ZTIN4llvm14iterator_rangeIPNS_3UseEEE",
   "size" : 16,
   "source_file" : "external/llvm/include/llvm/ADT/iterator_range.h",
   "template_args" : [ "_ZTIPN4llvm3UseE" ]
  },
  {
   "alignment" : 1,
   "linker_set_key" : "_ZTIN4llvm18PointerIntPairInfoIPNS_4UserELj1ENS_21PointerLikeTypeTraitsIS2_EEEE",
   "name" : "llvm::PointerIntPairInfo<llvm::User *, 1, llvm::PointerLikeTypeTraits<llvm::User *>>",
   "referenced_type" : "_ZTIN4llvm18PointerIntPairInfoIPNS_4UserELj1ENS_21PointerLikeTypeTraitsIS2_EEEE",
   "self_type" : "_ZTIN4llvm18PointerIntPairInfoIPNS_4UserELj1ENS_21PointerLikeTypeTraitsIS2_EEEE",
   "size" : 1,
   "source_file" : "external/llvm/include/llvm/ADT/PointerIntPair.h",
   "template_args" : [ "_ZTIPN4llvm4UserE", "_ZTIN4llvm21PointerLikeTypeTraitsIPNS_4UserEEE" ]
  },
  {
   "alignment" : 1,
   "linker_set_key" : "_ZTIN4llvm18PointerIntPairInfoIPPNS_3UseELj2ENS_21PointerLikeTypeTraitsIS3_EEEE",
   "name" : "llvm::PointerIntPairInfo<llvm::Use **, 2, llvm::PointerLikeTypeTraits<llvm::Use **>>",
   "referenced_type" : "_ZTIN4llvm18PointerIntPairInfoIPPNS_3UseELj2ENS_21PointerLikeTypeTraitsIS3_EEEE",
   "self_type" : "_ZTIN4llvm18PointerIntPairInfoIPPNS_3UseELj2ENS_21PointerLikeTypeTraitsIS3_EEEE",
   "size" : 1,
   "source_file" : "external/llvm/include/llvm/ADT/PointerIntPair.h",
   "template_args" : [ "_ZTIPPN4llvm3UseE", "_ZTIN4llvm21PointerLikeTypeTraitsIPPNS_3UseEEE" ]
  },
  {
   "alignment" : 1,
   "base_specifiers" :
   [
    {
     "referenced_type" : "_ZTINSt3__18iteratorINS_26random_access_iterator_tagEPN4llvm5ValueElS4_S4_EE"
    }
   ],
   "linker_set_key" : "_ZTIN4llvm20iterator_facade_baseINS_4User17value_op_iteratorENSt3__126random_access_iterator_tagEPNS_5ValueElS6_S6_EE",
   "name" : "llvm::iterator_facade_base<llvm::User::value_op_iterator, std::random_access_iterator_tag, llvm::Value *, long, llvm::Value *, llvm::Value *>",
   "record_kind" : "class",
   "referenced_type" : "_ZTIN4llvm20iterator_facade_baseINS_4User17value_op_iteratorENSt3__126random_access_iterator_tagEPNS_5ValueElS6_S6_EE",
   "self_type" : "_ZTIN4llvm20iterator_facade_baseINS_4User17value_op_iteratorENSt3__126random_access_iterator_tagEPNS_5ValueElS6_S6_EE",
   "size" : 1,
   "source_file" : "external/llvm/include/llvm/ADT/iterator.h",
   "template_args" :
   [
    "_ZTIN4llvm4User17value_op_iteratorE",
    "_ZTINSt3__126random_access_iterator_tagE",
    "_ZTIPN4llvm5ValueE",
    "_ZTIl",
    "_ZTIPN4llvm5ValueE",
    "_ZTIPN4llvm5ValueE"
   ]
  },
  {
   "alignment" : 1,
   "linker_set_key" : "_ZTIN4llvm21PointerLikeTypeTraitsIPNS_4UserEEE",
   "name" : "llvm::PointerLikeTypeTraits<llvm::User *>",
   "record_kind" : "class",
   "referenced_type" : "_ZTIN4llvm21PointerLikeTypeTraitsIPNS_4UserEEE",
   "self_type" : "_ZTIN4llvm21PointerLikeTypeTraitsIPNS_4UserEEE",
   "size" : 1,
   "source_file" : "external/llvm/include/llvm/Support/PointerLikeTypeTraits.h",
   "template_args" : [ "_ZTIPN4llvm4UserE" ]
  },
  {
   "alignment" : 1,
   "linker_set_key" : "_ZTIN4llvm21PointerLikeTypeTraitsIPNS_5ValueEEE",
   "name" : "llvm::PointerLikeTypeTraits<llvm::Value *>",
   "record_kind" : "class",
   "referenced_type" : "_ZTIN4llvm21PointerLikeTypeTraitsIPNS_5ValueEEE",
   "self_type" : "_ZTIN4llvm21PointerLikeTypeTraitsIPNS_5ValueEEE",
   "size" : 1,
   "source_file" : "external/llvm/include/llvm/IR/Value.h",
   "template_args" : [ "_ZTIPN4llvm5ValueE" ]
  },
  {
   "alignment" : 1,
   "linker_set_key" : "_ZTIN4llvm21PointerLikeTypeTraitsIPPNS_3UseEEE",
   "name" : "llvm::PointerLikeTypeTraits<llvm::Use **>",
   "record_kind" : "class",
   "referenced_type" : "_ZTIN4llvm21PointerLikeTypeTraitsIPPNS_3UseEEE",
   "self_type" : "_ZTIN4llvm21PointerLikeTypeTraitsIPPNS_3UseEEE",
   "size" : 1,
   "source_file" : "external/llvm/include/llvm/IR/Use.h",
   "template_args" : [ "_ZTIPPN4llvm3UseE" ]
  },
  {
   "alignment" : 1,
   "linker_set_key" : "_ZTIN4llvm21PointerLikeTypeTraitsIPvEE",
   "name" : "llvm::PointerLikeTypeTraits<void *>",
   "record_kind" : "class",
   "referenced_type" : "_ZTIN4llvm21PointerLikeTypeTraitsIPvEE",
   "self_type" : "_ZTIN4llvm21PointerLikeTypeTraitsIPvEE",
   "size" : 1,
   "source_file" : "external/llvm/include/llvm/Support/PointerLikeTypeTraits.h",
   "template_args" : [ "_ZTIPv" ]
  },
  {
   "alignment" : 1,
   "linker_set_key" : "_ZTIN4llvm21PointerLikeTypeTraitsImEE",
   "name" : "llvm::PointerLikeTypeTraits<uintptr_t>",
   "record_kind" : "class",
   "referenced_type" : "_ZTIN4llvm21PointerLikeTypeTraitsImEE",
   "self_type" : "_ZTIN4llvm21PointerLikeTypeTraitsImEE",
   "size" : 1,
   "source_file" : "external/llvm/include/llvm/Support/PointerLikeTypeTraits.h",
   "template_args" : [ "_ZTIm" ]
  },
  {
   "alignment" : 8,
   "base_specifiers" :
   [
    {
     "referenced_type" : "_ZTIN4llvm20iterator_facade_baseINS_4User17value_op_iteratorENSt3__126random_access_iterator_tagEPNS_5ValueElS6_S6_EE"
    }
   ],
   "fields" :
   [
    {
     "access" : "protected",
     "field_name" : "I",
     "referenced_type" : "_ZTIPN4llvm3UseE"
    }
   ],
   "linker_set_key" : "_ZTIN4llvm21iterator_adaptor_baseINS_4User17value_op_iteratorEPNS_3UseENSt3__126random_access_iterator_tagEPNS_5ValueElS8_S8_NS5_15iterator_traitsIS4_EEEE",
   "name" : "llvm::iterator_adaptor_base<llvm::User::value_op_iterator, llvm::Use *, std::random_access_iterator_tag, llvm::Value *, long, llvm::Value *, llvm::Value *, std::iterator_traits<llvm::Use *>>",
   "record_kind" : "class",
   "referenced_type" : "_ZTIN4llvm21iterator_adaptor_baseINS_4User17value_op_iteratorEPNS_3UseENSt3__126random_access_iterator_tagEPNS_5ValueElS8_S8_NS5_15iterator_traitsIS4_EEEE",
   "self_type" : "_ZTIN4llvm21iterator_adaptor_baseINS_4User17value_op_iteratorEPNS_3UseENSt3__126random_access_iterator_tagEPNS_5ValueElS8_S8_NS5_15iterator_traitsIS4_EEEE",
   "size" : 8,
   "source_file" : "external/llvm/include/llvm/ADT/iterator.h",
   "template_args" :
   [
    "_ZTIN4llvm4User17value_op_iteratorE",
    "_ZTIPN4llvm3UseE",
    "_ZTINSt3__126random_access_iterator_tagE",
    "_ZTIPN4llvm5ValueE",
    "_ZTIl",
    "_ZTIPN4llvm5ValueE",
    "_ZTIPN4llvm5ValueE",
    "_ZTINSt3__115iterator_traitsIPN4llvm3UseEEE"
   ]
  },
  {
   "alignment" : 1,
   "linker_set_key" : "_ZTIN4llvm22add_const_past_pointerINS_5ValueEvEE",
   "name" : "llvm::add_const_past_pointer<llvm::Value, void>",
   "referenced_type" : "_ZTIN4llvm22add_const_past_pointerINS_5ValueEvEE",
   "self_type" : "_ZTIN4llvm22add_const_past_pointerINS_5ValueEvEE",
   "size" : 1,
   "source_file" : "external/llvm/include/llvm/Support/type_traits.h",
   "template_args" : [ "_ZTIN4llvm5ValueE", "_ZTIv" ]
  },
  {
   "alignment" : 1,
   "linker_set_key" : "_ZTIN4llvm22add_const_past_pointerIPKNS_5ValueEvEE",
   "name" : "llvm::add_const_past_pointer<const llvm::Value *, void>",
   "referenced_type" : "_ZTIN4llvm22add_const_past_pointerIPKNS_5ValueEvEE",
   "self_type" : "_ZTIN4llvm22add_const_past_pointerIPKNS_5ValueEvEE",
   "size" : 1,
   "source_file" : "external/llvm/include/llvm/Support/type_traits.h",
   "template_args" : [ "_ZTIPKN4llvm5ValueE", "_ZTIv" ]
  },
  {
   "alignment" : 1,
   "linker_set_key" : "_ZTIN4llvm23ScopedFatalErrorHandlerE",
   "name" : "llvm::ScopedFatalErrorHandler",
   "referenced_type" : "_ZTIN4llvm23ScopedFatalErrorHandlerE",
   "self_type" : "_ZTIN4llvm23ScopedFatalErrorHandlerE",
   "size" : 1,
   "source_file" : "external/llvm/include/llvm/Support/ErrorHandling.h"
  },
  {
   "alignment" : 1,
   "linker_set_key" : "_ZTIN4llvm35add_lvalue_reference_if_not_pointerIKNS_5ValueEvEE",
   "name" : "llvm::add_lvalue_reference_if_not_pointer<const llvm::Value, void>",
   "referenced_type" : "_ZTIN4llvm35add_lvalue_reference_if_not_pointerIKNS_5ValueEvEE",
   "self_type" : "_ZTIN4llvm35add_lvalue_reference_if_not_pointerIKNS_5ValueEvEE",
   "size" : 1,
   "source_file" : "external/llvm/include/llvm/Support/type_traits.h",
   "template_args" : [ "_ZTIKN4llvm5ValueE", "_ZTIv" ]
  },
  {
   "alignment" : 1,
   "linker_set_key" : "_ZTIN4llvm35add_lvalue_reference_if_not_pointerIPKNS_5ValueEvEE",
   "name" : "llvm::add_lvalue_reference_if_not_pointer<const llvm::Value *, void>",
   "referenced_type" : "_ZTIN4llvm35add_lvalue_reference_if_not_pointerIPKNS_5ValueEvEE",
   "self_type" : "_ZTIN4llvm35add_lvalue_reference_if_not_pointerIPKNS_5ValueEvEE",
   "size" : 1,
   "source_file" : "external/llvm/include/llvm/Support/type_traits.h",
   "template_args" : [ "_ZTIPKN4llvm5ValueE", "_ZTIv" ]
  },
  {
   "alignment" : 8,
   "fields" :
   [
    {
     "access" : "private",
     "field_name" : "Val",
     "referenced_type" : "_ZTIPN4llvm5ValueE"
    },
    {
     "access" : "private",
     "field_name" : "Next",
     "field_offset" : 64,
     "referenced_type" : "_ZTIPN4llvm3UseE"
    },
    {
     "access" : "private",
     "field_name" : "Prev",
     "field_offset" : 128,
     "referenced_type" : "_ZTIN4llvm14PointerIntPairIPPNS_3UseELj2ENS1_10PrevPtrTagENS_21PointerLikeTypeTraitsIS3_EENS_18PointerIntPairInfoIS3_Lj2ES6_EEEE"
    }
   ],
   "linker_set_key" : "_ZTIN4llvm3UseE",
   "name" : "llvm::Use",
   "record_kind" : "class",
   "referenced_type" : "_ZTIN4llvm3UseE",
   "self_type" : "_ZTIN4llvm3UseE",
   "size" : 24,
   "source_file" : "external/llvm/include/llvm/IR/Use.h"
  },
  {
   "alignment" : 8,
   "base_specifiers" :
   [
    {
     "referenced_type" : "_ZTIN4llvm21iterator_adaptor_baseINS_4User17value_op_iteratorEPNS_3UseENSt3__126random_access_iterator_tagEPNS_5ValueElS8_S8_NS5_15iterator_traitsIS4_EEEE"
    }
   ],
   "linker_set_key" : "_ZTIN4llvm4User17value_op_iteratorE",
   "name" : "llvm::User::value_op_iterator",
   "referenced_type" : "_ZTIN4llvm4User17value_op_iteratorE",
   "self_type" : "_ZTIN4llvm4User17value_op_iteratorE",
   "size" : 8,
   "source_file" : "external/llvm/include/llvm/IR/User.h"
  },
  {
   "alignment" : 8,
   "base_specifiers" :
   [
    {
     "referenced_type" : "_ZTIN4llvm5ValueE"
    }
   ],
   "linker_set_key" : "_ZTIN4llvm4UserE",
   "name" : "llvm::User",
   "record_kind" : "class",
   "referenced_type" : "_ZTIN4llvm4UserE",
   "self_type" : "_ZTIN4llvm4UserE",
   "size" : 32,
   "source_file" : "external/llvm/include/llvm/IR/User.h",
   "vtable_components" :
   [
    {
     "kind" : "offset_to_top"
    },
    {
     "kind" : "rtti",
     "mangled_component_name" : "_ZTIN4llvm4UserE"
    },
    {
     "kind" : "complete_dtor_pointer",
     "mangled_component_name" : "_ZN4llvm4UserD1Ev"
    },
    {
     "kind" : "deleting_dtor_pointer",
     "mangled_component_name" : "_ZN4llvm4UserD0Ev"
    },
    {
     "mangled_component_name" : "_ZN4llvm4User6anchorEv"
    }
   ]
  },
  {
   "alignment" : 8,
   "base_specifiers" :
   [
    {
     "referenced_type" : "_ZTINSt3__18iteratorINS_20forward_iterator_tagEPKN4llvm3UseElPS5_RS5_EE"
    }
   ],
   "fields" :
   [
    {
     "access" : "private",
     "field_name" : "U",
     "referenced_type" : "_ZTIPKN4llvm3UseE"
    }
   ],
   "linker_set_key" : "_ZTIN4llvm5Value17use_iterator_implIKNS_3UseEEE",
   "name" : "llvm::Value::use_iterator_impl<const llvm::Use>",
   "record_kind" : "class",
   "referenced_type" : "_ZTIN4llvm5Value17use_iterator_implIKNS_3UseEEE",
   "self_type" : "_ZTIN4llvm5Value17use_iterator_implIKNS_3UseEEE",
   "size" : 8,
   "source_file" : "external/llvm/include/llvm/IR/Value.h",
   "template_args" : [ "_ZTIKN4llvm3UseE" ]
  },
  {
   "alignment" : 8,
   "base_specifiers" :
   [
    {
     "referenced_type" : "_ZTINSt3__18iteratorINS_20forward_iterator_tagEPN4llvm3UseElPS4_RS4_EE"
    }
   ],
   "fields" :
   [
    {
     "access" : "private",
     "field_name" : "U",
     "referenced_type" : "_ZTIPN4llvm3UseE"
    }
   ],
   "linker_set_key" : "_ZTIN4llvm5Value17use_iterator_implINS_3UseEEE",
   "name" : "llvm::Value::use_iterator_impl<llvm::Use>",
   "record_kind" : "class",
   "referenced_type" : "_ZTIN4llvm5Value17use_iterator_implINS_3UseEEE",
   "self_type" : "_ZTIN4llvm5Value17use_iterator_implINS_3UseEEE",
   "size" : 8,
   "source_file" : "external/llvm/include/llvm/IR/Value.h",
   "template_args" : [ "_ZTIN4llvm3UseE" ]
  },
  {
   "alignment" : 8,
   "base_specifiers" :
   [
    {
     "referenced_type" : "_ZTINSt3__18iteratorINS_20forward_iterator_tagEPKN4llvm4UserElPS5_RS5_EE"
    }
   ],
   "fields" :
   [
    {
     "access" : "private",
     "field_name" : "UI",
     "referenced_type" : "_ZTIN4llvm5Value17use_iterator_implINS_3UseEEE"
    }
   ],
   "linker_set_key" : "_ZTIN4llvm5Value18user_iterator_implIKNS_4UserEEE",
   "name" : "llvm::Value::user_iterator_impl<const llvm::User>",
   "record_kind" : "class",
   "referenced_type" : "_ZTIN4llvm5Value18user_iterator_implIKNS_4UserEEE",
   "self_type" : "_ZTIN4llvm5Value18user_iterator_implIKNS_4UserEEE",
   "size" : 8,
   "source_file" : "external/llvm/include/llvm/IR/Value.h",
   "template_args" : [ "_ZTIKN4llvm4UserE" ]
  },
  {
   "alignment" : 8,
   "base_specifiers" :
   [
    {
     "referenced_type" : "_ZTINSt3__18iteratorINS_20forward_iterator_tagEPN4llvm4UserElPS4_RS4_EE"
    }
   ],
   "fields" :
   [
    {
     "access" : "private",
     "field_name" : "UI",
     "referenced_type" : "_ZTIN4llvm5Value17use_iterator_implINS_3UseEEE"
    }
   ],
   "linker_set_key" : "_ZTIN4llvm5Value18user_iterator_implINS_4UserEEE",
   "name" : "llvm::Value::user_iterator_impl<llvm::User>",
   "record_kind" : "class",
   "referenced_type" : "_ZTIN4llvm5Value18user_iterator_implINS_4UserEEE",
   "self_type" : "_ZTIN4llvm5Value18user_iterator_implINS_4UserEEE",
   "size" : 8,
   "source_file" : "external/llvm/include/llvm/IR/Value.h",
   "template_args" : [ "_ZTIN4llvm4UserE" ]
  },
  {
   "alignment" : 8,
   "fields" :
   [
    {
     "access" : "private",
     "field_name" : "VTy",
     "field_offset" : 64,
     "referenced_type" : "_ZTIPN4llvm4TypeE"
    },
    {
     "access" : "private",
     "field_name" : "UseList",
     "field_offset" : 128,
     "referenced_type" : "_ZTIPN4llvm3UseE"
    },
    {
     "access" : "private",
     "field_name" : "SubclassID",
     "field_offset" : 192,
     "referenced_type" : "_ZTIKh"
    },
    {
     "access" : "private",
     "field_name" : "HasValueHandle",
     "field_offset" : 200,
     "referenced_type" : "_ZTIh"
    },
    {
     "access" : "protected",
     "field_name" : "SubclassOptionalData",
     "field_offset" : 201,
     "referenced_type" : "_ZTIh"
    },
    {
     "access" : "private",
     "field_name" : "SubclassData",
     "field_offset" : 208,
     "referenced_type" : "_ZTIt"
    },
    {
     "access" : "protected",
     "field_name" : "NumUserOperands",
     "field_offset" : 224,
     "referenced_type" : "_ZTIj"
    },
    {
     "access" : "protected",
     "field_name" : "IsUsedByMD",
     "field_offset" : 252,
     "referenced_type" : "_ZTIj"
    },
    {
     "access" : "protected",
     "field_name" : "HasName",
     "field_offset" : 253,
     "referenced_type" : "_ZTIj"
    },
    {
     "access" : "protected",
     "field_name" : "HasHungOffUses",
     "field_offset" : 254,
     "referenced_type" : "_ZTIj"
    },
    {
     "access" : "protected",
     "field_name" : "HasDescriptor",
     "field_offset" : 255,
     "referenced_type" : "_ZTIj"
    }
   ],
   "linker_set_key" : "_ZTIN4llvm5ValueE",
   "name" : "llvm::Value",
   "record_kind" : "class",
   "referenced_type" : "_ZTIN4llvm5ValueE",
   "self_type" : "_ZTIN4llvm5ValueE",
   "size" : 32,
   "source_file" : "external/llvm/include/llvm/IR/Value.h",
   "vtable_components" :
   [
    {
     "kind" : "offset_to_top"
    },
    {
     "kind" : "rtti",
     "mangled_component_name" : "_ZTIN4llvm5ValueE"
    },
    {
     "kind" : "complete_dtor_pointer",
     "mangled_component_name" : "_ZN4llvm5ValueD1Ev"
    },
    {
     "kind" : "deleting_dtor_pointer",
     "mangled_component_name" : "_ZN4llvm5ValueD0Ev"
    }
   ]
  },
  {
   "alignment" : 1,
   "base_specifiers" :
   [
    {
     "referenced_type" : "_ZTINSt3__117integral_constantImLm0EEE"
    }
   ],
   "linker_set_key" : "_ZTIN4llvm6detail12ConstantLog2ILm1EEE",
   "name" : "llvm::detail::ConstantLog2<1>",
   "referenced_type" : "_ZTIN4llvm6detail12ConstantLog2ILm1EEE",
   "self_type" : "_ZTIN4llvm6detail12ConstantLog2ILm1EEE",
   "size" : 1,
   "source_file" : "external/llvm/include/llvm/Support/PointerLikeTypeTraits.h"
  },
  {
   "alignment" : 1,
   "base_specifiers" :
   [
    {
     "referenced_type" : "_ZTINSt3__117integral_constantImLm1EEE"
    }
   ],
   "linker_set_key" : "_ZTIN4llvm6detail12ConstantLog2ILm2EEE",
   "name" : "llvm::detail::ConstantLog2<2>",
   "referenced_type" : "_ZTIN4llvm6detail12ConstantLog2ILm2EEE",
   "self_type" : "_ZTIN4llvm6detail12ConstantLog2ILm2EEE",
   "size" : 1,
   "source_file" : "external/llvm/include/llvm/Support/PointerLikeTypeTraits.h"
  },
  {
   "alignment" : 1,
   "base_specifiers" :
   [
    {
     "referenced_type" : "_ZTINSt3__117integral_constantImLm2EEE"
    }
   ],
   "linker_set_key" : "_ZTIN4llvm6detail12ConstantLog2ILm4EEE",
   "name" : "llvm::detail::ConstantLog2<4>",
   "referenced_type" : "_ZTIN4llvm6detail12ConstantLog2ILm4EEE",
   "self_type" : "_ZTIN4llvm6detail12ConstantLog2ILm4EEE",
   "size" : 1,
   "source_file" : "external/llvm/include/llvm/Support/PointerLikeTypeTraits.h"
  },
  {
   "alignment" : 1,
   "base_specifiers" :
   [
    {
     "referenced_type" : "_ZTINSt3__117integral_constantImLm3EEE"
    }
   ],
   "linker_set_key" : "_ZTIN4llvm6detail12ConstantLog2ILm8EEE",
   "name" : "llvm::detail::ConstantLog2<8>",
   "referenced_type" : "_ZTIN4llvm6detail12ConstantLog2ILm8EEE",
   "self_type" : "_ZTIN4llvm6detail12ConstantLog2ILm8EEE",
   "size" : 1,
   "source_file" : "external/llvm/include/llvm/Support/PointerLikeTypeTraits.h"
  },
  {
   "alignment" : 8,
   "fields" :
   [
    {
     "field_name" : "x",
     "referenced_type" : "_ZTIc"
    },
    {
     "field_name" : "t",
     "field_offset" : 64,
     "referenced_type" : "_ZTIN4llvm3UseE"
    }
   ],
   "linker_set_key" : "_ZTIN4llvm6detail17AlignmentCalcImplINS_3UseELb0EEE",
   "name" : "llvm::detail::AlignmentCalcImpl<llvm::Use, false>",
   "referenced_type" : "_ZTIN4llvm6detail17AlignmentCalcImplINS_3UseELb0EEE",
   "self_type" : "_ZTIN4llvm6detail17AlignmentCalcImplINS_3UseELb0EEE",
   "size" : 32,
   "source_file" : "external/llvm/include/llvm/Support/AlignOf.h",
   "template_args" : [ "_ZTIN4llvm3UseE" ]
  },
  {
   "alignment" : 8,
   "fields" :
   [
    {
     "field_name" : "x",
     "referenced_type" : "_ZTIc"
    },
    {
     "field_name" : "t",
     "field_offset" : 64,
     "referenced_type" : "_ZTIN4llvm4UserE"
    }
   ],
   "linker_set_key" : "_ZTIN4llvm6detail17AlignmentCalcImplINS_4UserELb0EEE",
   "name" : "llvm::detail::AlignmentCalcImpl<llvm::User, false>",
   "referenced_type" : "_ZTIN4llvm6detail17AlignmentCalcImplINS_4UserELb0EEE",
   "self_type" : "_ZTIN4llvm6detail17AlignmentCalcImplINS_4UserELb0EEE",
   "size" : 40,
   "source_file" : "external/llvm/include/llvm/Support/AlignOf.h",
   "template_args" : [ "_ZTIN4llvm4UserE" ]
  },
  {
   "alignment" : 8,
   "fields" :
   [
    {
     "field_name" : "x",
     "referenced_type" : "_ZTIc"
    },
    {
     "field_name" : "t",
     "field_offset" : 64,
     "referenced_type" : "_ZTIPN4llvm3UseE"
    }
   ],
   "linker_set_key" : "_ZTIN4llvm6detail17AlignmentCalcImplIPNS_3UseELb0EEE",
   "name" : "llvm::detail::AlignmentCalcImpl<llvm::Use *, false>",
   "referenced_type" : "_ZTIN4llvm6detail17AlignmentCalcImplIPNS_3UseELb0EEE",
   "self_type" : "_ZTIN4llvm6detail17AlignmentCalcImplIPNS_3UseELb0EEE",
   "size" : 16,
   "source_file" : "external/llvm/include/llvm/Support/AlignOf.h",
   "template_args" : [ "_ZTIPN4llvm3UseE" ]
  },
  {
   "alignment" : 8,
   "linker_set_key" : "_ZTIN4llvm6detail21AlignmentCalcImplBaseE",
   "name" : "llvm::detail::AlignmentCalcImplBase",
   "referenced_type" : "_ZTIN4llvm6detail21AlignmentCalcImplBaseE",
   "self_type" : "_ZTIN4llvm6detail21AlignmentCalcImplBaseE",
   "size" : 8,
   "source_file" : "external/llvm/include/llvm/Support/AlignOf.h",
   "vtable_components" :
   [
    {
     "kind" : "offset_to_top"
    },
    {
     "kind" : "rtti",
     "mangled_component_name" : "_ZTIN4llvm6detail21AlignmentCalcImplBaseE"
    },
    {
     "is_pure" : true,
     "kind" : "complete_dtor_pointer",
     "mangled_component_name" : "_ZN4llvm6detail21AlignmentCalcImplBaseD1Ev"
    },
    {
     "is_pure" : true,
     "kind" : "deleting_dtor_pointer",
     "mangled_component_name" : "_ZN4llvm6detail21AlignmentCalcImplBaseD0Ev"
    }
   ]
  },
  {
   "alignment" : 1,
   "linker_set_key" : "_ZTIN4llvm7AlignOfINS_3UseEEE",
   "name" : "llvm::AlignOf<llvm::Use>",
   "referenced_type" : "_ZTIN4llvm7AlignOfINS_3UseEEE",
   "self_type" : "_ZTIN4llvm7AlignOfINS_3UseEEE",
   "size" : 1,
   "source_file" : "external/llvm/include/llvm/Support/AlignOf.h",
   "template_args" : [ "_ZTIN4llvm3UseE" ]
  },
  {
   "alignment" : 1,
   "linker_set_key" : "_ZTIN4llvm7AlignOfINS_4UserEEE",
   "name" : "llvm::AlignOf<llvm::User>",
   "referenced_type" : "_ZTIN4llvm7AlignOfINS_4UserEEE",
   "self_type" : "_ZTIN4llvm7AlignOfINS_4UserEEE",
   "size" : 1,
   "source_file" : "external/llvm/include/llvm/Support/AlignOf.h",
   "template_args" : [ "_ZTIN4llvm4UserE" ]
  },
  {
   "alignment" : 1,
   "linker_set_key" : "_ZTIN4llvm7AlignOfIPNS_3UseEEE",
   "name" : "llvm::AlignOf<llvm::Use *>",
   "referenced_type" : "_ZTIN4llvm7AlignOfIPNS_3UseEEE",
   "self_type" : "_ZTIN4llvm7AlignOfIPNS_3UseEEE",
   "size" : 1,
   "source_file" : "external/llvm/include/llvm/Support/AlignOf.h",
   "template_args" : [ "_ZTIPN4llvm3UseE" ]
  },
  {
   "alignment" : 1,
   "linker_set_key" : "_ZTIN4llvm8isa_implINS_10BasicBlockENS_5ValueEvEE",
   "name" : "llvm::isa_impl<llvm::BasicBlock, llvm::Value, void>",
   "referenced_type" : "_ZTIN4llvm8isa_implINS_10BasicBlockENS_5ValueEvEE",
   "self_type" : "_ZTIN4llvm8isa_implINS_10BasicBlockENS_5ValueEvEE",
   "size" : 1,
   "source_file" : "external/llvm/include/llvm/IR/Value.h",
   "template_args" : [ "_ZTIN4llvm10BasicBlockE", "_ZTIN4llvm5ValueE", "_ZTIv" ]
  },
  {
   "alignment" : 1,
   "linker_set_key" : "_ZTIN4llvm8isa_implINS_11GlobalAliasENS_5ValueEvEE",
   "name" : "llvm::isa_impl<llvm::GlobalAlias, llvm::Value, void>",
   "referenced_type" : "_ZTIN4llvm8isa_implINS_11GlobalAliasENS_5ValueEvEE",
   "self_type" : "_ZTIN4llvm8isa_implINS_11GlobalAliasENS_5ValueEvEE",
   "size" : 1,
   "source_file" : "external/llvm/include/llvm/IR/Value.h",
   "template_args" : [ "_ZTIN4llvm11GlobalAliasE", "_ZTIN4llvm5ValueE", "_ZTIv" ]
  },
  {
   "alignment" : 1,
   "linker_set_key" : "_ZTIN4llvm8isa_implINS_11GlobalIFuncENS_5ValueEvEE",
   "name" : "llvm::isa_impl<llvm::GlobalIFunc, llvm::Value, void>",
   "referenced_type" : "_ZTIN4llvm8isa_implINS_11GlobalIFuncENS_5ValueEvEE",
   "self_type" : "_ZTIN4llvm8isa_implINS_11GlobalIFuncENS_5ValueEvEE",
   "size" : 1,
   "source_file" : "external/llvm/include/llvm/IR/Value.h",
   "template_args" : [ "_ZTIN4llvm11GlobalIFuncE", "_ZTIN4llvm5ValueE", "_ZTIv" ]
  },
  {
   "alignment" : 1,
   "linker_set_key" : "_ZTIN4llvm8isa_implINS_11GlobalValueENS_5ValueEvEE",
   "name" : "llvm::isa_impl<llvm::GlobalValue, llvm::Value, void>",
   "referenced_type" : "_ZTIN4llvm8isa_implINS_11GlobalValueENS_5ValueEvEE",
   "self_type" : "_ZTIN4llvm8isa_implINS_11GlobalValueENS_5ValueEvEE",
   "size" : 1,
   "source_file" : "external/llvm/include/llvm/IR/Value.h",
   "template_args" : [ "_ZTIN4llvm11GlobalValueE", "_ZTIN4llvm5ValueE", "_ZTIv" ]
  },
  {
   "alignment" : 1,
   "linker_set_key" : "_ZTIN4llvm8isa_implINS_11InstructionENS_5ValueEvEE",
   "name" : "llvm::isa_impl<llvm::Instruction, llvm::Value, void>",
   "referenced_type" : "_ZTIN4llvm8isa_implINS_11InstructionENS_5ValueEvEE",
   "self_type" : "_ZTIN4llvm8isa_implINS_11InstructionENS_5ValueEvEE",
   "size" : 1,
   "source_file" : "external/llvm/include/llvm/IR/Value.h",
   "template_args" : [ "_ZTIN4llvm11InstructionE", "_ZTIN4llvm5ValueE", "_ZTIv" ]
  },
  {
   "alignment" : 1,
   "linker_set_key" : "_ZTIN4llvm8isa_implINS_12ConstantDataENS_5ValueEvEE",
   "name" : "llvm::isa_impl<llvm::ConstantData, llvm::Value, void>",
   "referenced_type" : "_ZTIN4llvm8isa_implINS_12ConstantDataENS_5ValueEvEE",
   "self_type" : "_ZTIN4llvm8isa_implINS_12ConstantDataENS_5ValueEvEE",
   "size" : 1,
   "source_file" : "external/llvm/include/llvm/IR/Value.h",
   "template_args" : [ "_ZTIN4llvm12ConstantDataE", "_ZTIN4llvm5ValueE", "_ZTIv" ]
  },
  {
   "alignment" : 1,
   "linker_set_key" : "_ZTIN4llvm8isa_implINS_12GlobalObjectENS_5ValueEvEE",
   "name" : "llvm::isa_impl<llvm::GlobalObject, llvm::Value, void>",
   "referenced_type" : "_ZTIN4llvm8isa_implINS_12GlobalObjectENS_5ValueEvEE",
   "self_type" : "_ZTIN4llvm8isa_implINS_12GlobalObjectENS_5ValueEvEE",
   "size" : 1,
   "source_file" : "external/llvm/include/llvm/IR/Value.h",
   "template_args" : [ "_ZTIN4llvm12GlobalObjectE", "_ZTIN4llvm5ValueE", "_ZTIv" ]
  },
  {
   "alignment" : 1,
   "linker_set_key" : "_ZTIN4llvm8isa_implINS_14GlobalVariableENS_5ValueEvEE",
   "name" : "llvm::isa_impl<llvm::GlobalVariable, llvm::Value, void>",
   "referenced_type" : "_ZTIN4llvm8isa_implINS_14GlobalVariableENS_5ValueEvEE",
   "self_type" : "_ZTIN4llvm8isa_implINS_14GlobalVariableENS_5ValueEvEE",
   "size" : 1,
   "source_file" : "external/llvm/include/llvm/IR/Value.h",
   "template_args" : [ "_ZTIN4llvm14GlobalVariableE", "_ZTIN4llvm5ValueE", "_ZTIv" ]
  },
  {
   "alignment" : 1,
   "linker_set_key" : "_ZTIN4llvm8isa_implINS_17ConstantAggregateENS_5ValueEvEE",
   "name" : "llvm::isa_impl<llvm::ConstantAggregate, llvm::Value, void>",
   "referenced_type" : "_ZTIN4llvm8isa_implINS_17ConstantAggregateENS_5ValueEvEE",
   "self_type" : "_ZTIN4llvm8isa_implINS_17ConstantAggregateENS_5ValueEvEE",
   "size" : 1,
   "source_file" : "external/llvm/include/llvm/IR/Value.h",
   "template_args" : [ "_ZTIN4llvm17ConstantAggregateE", "_ZTIN4llvm5ValueE", "_ZTIv" ]
  },
  {
   "alignment" : 1,
   "linker_set_key" : "_ZTIN4llvm8isa_implINS_20GlobalIndirectSymbolENS_5ValueEvEE",
   "name" : "llvm::isa_impl<llvm::GlobalIndirectSymbol, llvm::Value, void>",
   "referenced_type" : "_ZTIN4llvm8isa_implINS_20GlobalIndirectSymbolENS_5ValueEvEE",
   "self_type" : "_ZTIN4llvm8isa_implINS_20GlobalIndirectSymbolENS_5ValueEvEE",
   "size" : 1,
   "source_file" : "external/llvm/include/llvm/IR/Value.h",
   "template_args" : [ "_ZTIN4llvm20GlobalIndirectSymbolE", "_ZTIN4llvm5ValueE", "_ZTIv" ]
  },
  {
   "alignment" : 1,
   "linker_set_key" : "_ZTIN4llvm8isa_implINS_8ArgumentENS_5ValueEvEE",
   "name" : "llvm::isa_impl<llvm::Argument, llvm::Value, void>",
   "referenced_type" : "_ZTIN4llvm8isa_implINS_8ArgumentENS_5ValueEvEE",
   "self_type" : "_ZTIN4llvm8isa_implINS_8ArgumentENS_5ValueEvEE",
   "size" : 1,
   "source_file" : "external/llvm/include/llvm/IR/Value.h",
   "template_args" : [ "_ZTIN4llvm8ArgumentE", "_ZTIN4llvm5ValueE", "_ZTIv" ]
  },
  {
   "alignment" : 1,
   "linker_set_key" : "_ZTIN4llvm8isa_implINS_8ConstantENS_5ValueEvEE",
   "name" : "llvm::isa_impl<llvm::Constant, llvm::Value, void>",
   "referenced_type" : "_ZTIN4llvm8isa_implINS_8ConstantENS_5ValueEvEE",
   "self_type" : "_ZTIN4llvm8isa_implINS_8ConstantENS_5ValueEvEE",
   "size" : 1,
   "source_file" : "external/llvm/include/llvm/IR/Value.h",
   "template_args" : [ "_ZTIN4llvm8ConstantE", "_ZTIN4llvm5ValueE", "_ZTIv" ]
  },
  {
   "alignment" : 1,
   "linker_set_key" : "_ZTIN4llvm8isa_implINS_8FunctionENS_5ValueEvEE",
   "name" : "llvm::isa_impl<llvm::Function, llvm::Value, void>",
   "referenced_type" : "_ZTIN4llvm8isa_implINS_8FunctionENS_5ValueEvEE",
   "self_type" : "_ZTIN4llvm8isa_implINS_8FunctionENS_5ValueEvEE",
   "size" : 1,
   "source_file" : "external/llvm/include/llvm/IR/Value.h",
   "template_args" : [ "_ZTIN4llvm8FunctionE", "_ZTIN4llvm5ValueE", "_ZTIv" ]
  },
  {
   "alignment" : 1,
   "linker_set_key" : "_ZTIN4llvm8isa_implINS_9InlineAsmENS_5ValueEvEE",
   "name" : "llvm::isa_impl<llvm::InlineAsm, llvm::Value, void>",
   "referenced_type" : "_ZTIN4llvm8isa_implINS_9InlineAsmENS_5ValueEvEE",
   "self_type" : "_ZTIN4llvm8isa_implINS_9InlineAsmENS_5ValueEvEE",
   "size" : 1,
   "source_file" : "external/llvm/include/llvm/IR/Value.h",
   "template_args" : [ "_ZTIN4llvm9InlineAsmE", "_ZTIN4llvm5ValueE", "_ZTIv" ]
  }
 ],
 "rvalue_reference_types" : []
}
