{
 "array_types" :
 [
  {
   "alignment" : 1,
   "linker_set_key" : "_ZTIA16_c",
   "name" : "char [16]",
   "referenced_type" : "_ZTIc",
   "self_type" : "_ZTIA16_c",
   "size" : 16,
   "source_file" : "external/llvm/include/llvm/Support/AlignOf.h"
  },
  {
   "alignment" : 1,
   "linker_set_key" : "_ZTIA1_c",
   "name" : "char [1]",
   "referenced_type" : "_ZTIc",
   "self_type" : "_ZTIA1_c",
   "size" : 1,
   "source_file" : "external/llvm/include/llvm/Support/AlignOf.h"
  },
  {
   "alignment" : 1,
   "linker_set_key" : "_ZTIA24_c",
   "name" : "char [24]",
   "referenced_type" : "_ZTIc",
   "self_type" : "_ZTIA24_c",
   "size" : 24,
   "source_file" : "external/llvm/include/llvm/Support/AlignOf.h"
  },
  {
   "alignment" : 1,
   "linker_set_key" : "_ZTIA256_h",
   "name" : "unsigned char [256]",
   "referenced_type" : "_ZTIh",
   "self_type" : "_ZTIA256_h",
   "size" : 256,
   "source_file" : "external/llvm/include/llvm/Support/MathExtras.h"
  },
  {
   "alignment" : 8,
   "linker_set_key" : "_ZTIA3_N4llvm21AlignedCharArrayUnionINSt3__14pairIPKcNS2_IiS4_EEEEcccccccccEE",
   "name" : "llvm::AlignedCharArrayUnion<std::__1::pair<const char *, std::__1::pair<int, const char *>>, char, char, char, char, char, char, char, char, char> [3]",
   "referenced_type" : "_ZTIN4llvm21AlignedCharArrayUnionINSt3__14pairIPKcNS2_IiS4_EEEEcccccccccEE",
   "self_type" : "_ZTIA3_N4llvm21AlignedCharArrayUnionINSt3__14pairIPKcNS2_IiS4_EEEEcccccccccEE",
   "size" : 72,
   "source_file" : "external/llvm/include/llvm/ADT/SmallVector.h"
  },
  {
   "alignment" : 8,
   "linker_set_key" : "_ZTIA3_N4llvm21AlignedCharArrayUnionIPNS_2cl6OptionEcccccccccEE",
   "name" : "llvm::AlignedCharArrayUnion<llvm::cl::Option *, char, char, char, char, char, char, char, char, char> [3]",
   "referenced_type" : "_ZTIN4llvm21AlignedCharArrayUnionIPNS_2cl6OptionEcccccccccEE",
   "self_type" : "_ZTIA3_N4llvm21AlignedCharArrayUnionIPNS_2cl6OptionEcccccccccEE",
   "size" : 24,
   "source_file" : "external/llvm/include/llvm/ADT/SmallVector.h"
  },
  {
   "alignment" : 8,
   "linker_set_key" : "_ZTIA3_N4llvm21AlignedCharArrayUnionIPvcccccccccEE",
   "name" : "llvm::AlignedCharArrayUnion<void *, char, char, char, char, char, char, char, char, char> [3]",
   "referenced_type" : "_ZTIN4llvm21AlignedCharArrayUnionIPvcccccccccEE",
   "self_type" : "_ZTIA3_N4llvm21AlignedCharArrayUnionIPvcccccccccEE",
   "size" : 24,
   "source_file" : "external/llvm/include/llvm/ADT/SmallVector.h"
  },
  {
   "alignment" : 8,
   "linker_set_key" : "_ZTIA4_PKv",
   "name" : "const void *[4]",
   "referenced_type" : "_ZTIPKv",
   "self_type" : "_ZTIA4_PKv",
   "size" : 32,
   "source_file" : "external/llvm/include/llvm/ADT/SmallPtrSet.h"
  },
  {
   "alignment" : 1,
   "linker_set_key" : "_ZTIA64_c",
   "name" : "char [64]",
   "referenced_type" : "_ZTIc",
   "self_type" : "_ZTIA64_c",
   "size" : 64,
   "source_file" : "external/llvm/include/llvm/ADT/Hashing.h"
  },
  {
   "alignment" : 1,
   "linker_set_key" : "_ZTIA8_c",
   "name" : "char [8]",
   "referenced_type" : "_ZTIc",
   "self_type" : "_ZTIA8_c",
   "size" : 8,
   "source_file" : "external/llvm/include/llvm/Support/AlignOf.h"
  }
 ],
 "builtin_types" :
 [
  {
   "alignment" : 1,
   "is_integral" : true,
   "linker_set_key" : "_ZTIa",
   "name" : "signed char",
   "referenced_type" : "_ZTIa",
   "self_type" : "_ZTIa",
   "size" : 1
  },
  {
   "alignment" : 1,
   "is_integral" : true,
   "is_unsigned" : true,
   "linker_set_key" : "_ZTIb",
   "name" : "bool",
   "referenced_type" : "_ZTIb",
   "self_type" : "_ZTIb",
   "size" : 1
  },
  {
   "alignment" : 1,
   "is_integral" : true,
   "is_unsigned" : true,
   "linker_set_key" : "_ZTIc",
   "name" : "char",
   "referenced_type" : "_ZTIc",
   "self_type" : "_ZTIc",
   "size" : 1
  },
  {
   "alignment" : 8,
   "linker_set_key" : "_ZTId",
   "name" : "double",
   "referenced_type" : "_ZTId",
   "self_type" : "_ZTId",
   "size" : 8
  },
  {
   "alignment" : 4,
   "linker_set_key" : "_ZTIf",
   "name" : "float",
   "referenced_type" : "_ZTIf",
   "self_type" : "_ZTIf",
   "size" : 4
  },
  {
   "alignment" : 1,
   "is_integral" : true,
   "is_unsigned" : true,
   "linker_set_key" : "_ZTIh",
   "name" : "unsigned char",
   "referenced_type" : "_ZTIh",
   "self_type" : "_ZTIh",
   "size" : 1
  },
  {
   "alignment" : 4,
   "is_integral" : true,
   "linker_set_key" : "_ZTIi",
   "name" : "int",
   "referenced_type" : "_ZTIi",
   "self_type" : "_ZTIi",
   "size" : 4
  },
  {
   "alignment" : 4,
   "is_integral" : true,
   "is_unsigned" : true,
   "linker_set_key" : "_ZTIj",
   "name" : "unsigned int",
   "referenced_type" : "_ZTIj",
   "self_type" : "_ZTIj",
   "size" : 4
  },
  {
   "alignment" : 8,
   "is_integral" : true,
   "linker_set_key" : "_ZTIl",
   "name" : "long",
   "referenced_type" : "_ZTIl",
   "self_type" : "_ZTIl",
   "size" : 8
  },
  {
   "alignment" : 8,
   "is_integral" : true,
   "is_unsigned" : true,
   "linker_set_key" : "_ZTIm",
   "name" : "unsigned long",
   "referenced_type" : "_ZTIm",
   "self_type" : "_ZTIm",
   "size" : 8
  },
  {
   "alignment" : 2,
   "is_integral" : true,
   "linker_set_key" : "_ZTIs",
   "name" : "short",
   "referenced_type" : "_ZTIs",
   "self_type" : "_ZTIs",
   "size" : 2
  },
  {
   "alignment" : 2,
   "is_integral" : true,
   "is_unsigned" : true,
   "linker_set_key" : "_ZTIt",
   "name" : "unsigned short",
   "referenced_type" : "_ZTIt",
   "self_type" : "_ZTIt",
   "size" : 2
  },
  {
   "linker_set_key" : "_ZTIv",
   "name" : "void",
   "referenced_type" : "_ZTIv",
   "self_type" : "_ZTIv"
  },
  {
   "alignment" : 8,
   "is_integral" : true,
   "linker_set_key" : "_ZTIx",
   "name" : "long long",
   "referenced_type" : "_ZTIx",
   "self_type" : "_ZTIx",
   "size" : 8
  },
  {
   "alignment" : 8,
   "is_integral" : true,
   "is_unsigned" : true,
   "linker_set_key" : "_ZTIy",
   "name" : "unsigned long long",
   "referenced_type" : "_ZTIy",
   "self_type" : "_ZTIy",
   "size" : 8
  }
 ],
 "elf_functions" : [],
 "elf_objects" : [],
 "enum_types" :
 [
  {
   "access" : "private",
   "alignment" : 4,
   "enum_fields" :
   [
    {
     "enum_field_value" : 1,
     "name" : "llvm::StructType::SCDB_HasBody"
    },
    {
     "enum_field_value" : 2,
     "name" : "llvm::StructType::SCDB_Packed"
    },
    {
     "enum_field_value" : 4,
     "name" : "llvm::StructType::SCDB_IsLiteral"
    },
    {
     "enum_field_value" : 8,
     "name" : "llvm::StructType::SCDB_IsSized"
    }
   ],
   "linker_set_key" : "_ZTIN4llvm10StructType13$SCDB_HasBodyE",
   "name" : "llvm::StructType::(anonymous enum at external/llvm/include/llvm/IR/DerivedTypes.h:201:3)",
   "referenced_type" : "_ZTIN4llvm10StructType13$SCDB_HasBodyE",
   "self_type" : "_ZTIN4llvm10StructType13$SCDB_HasBodyE",
   "size" : 4,
   "source_file" : "external/llvm/include/llvm/IR/DerivedTypes.h",
   "underlying_type" : "_ZTIj"
  },
  {
   "alignment" : 4,
   "enum_fields" :
   [
    {
     "enum_field_value" : 1,
     "name" : "llvm::IntegerType::MIN_INT_BITS"
    },
    {
     "enum_field_value" : 8388607,
     "name" : "llvm::IntegerType::MAX_INT_BITS"
    }
   ],
   "linker_set_key" : "_ZTIN4llvm11IntegerType13$MAX_INT_BITSE",
   "name" : "llvm::IntegerType::(anonymous enum at external/llvm/include/llvm/IR/DerivedTypes.h:47:3)",
   "referenced_type" : "_ZTIN4llvm11IntegerType13$MAX_INT_BITSE",
   "self_type" : "_ZTIN4llvm11IntegerType13$MAX_INT_BITSE",
   "size" : 4,
   "source_file" : "external/llvm/include/llvm/IR/DerivedTypes.h",
   "underlying_type" : "_ZTIj"
  },
  {
   "alignment" : 4,
   "enum_fields" :
   [
    {
     "enum_field_value" : 0,
     "name" : "llvm::LLVMContext::MD_dbg"
    },
    {
     "enum_field_value" : 1,
     "name" : "llvm::LLVMContext::MD_tbaa"
    },
    {
     "enum_field_value" : 2,
     "name" : "llvm::LLVMContext::MD_prof"
    },
    {
     "enum_field_value" : 3,
     "name" : "llvm::LLVMContext::MD_fpmath"
    },
    {
     "enum_field_value" : 4,
     "name" : "llvm::LLVMContext::MD_range"
    },
    {
     "enum_field_value" : 5,
     "name" : "llvm::LLVMContext::MD_tbaa_struct"
    },
    {
     "enum_field_value" : 6,
     "name" : "llvm::LLVMContext::MD_invariant_load"
    },
    {
     "enum_field_value" : 7,
     "name" : "llvm::LLVMContext::MD_alias_scope"
    },
    {
     "enum_field_value" : 8,
     "name" : "llvm::LLVMContext::MD_noalias"
    },
    {
     "enum_field_value" : 9,
     "name" : "llvm::LLVMContext::MD_nontemporal"
    },
    {
     "enum_field_value" : 10,
     "name" : "llvm::LLVMContext::MD_mem_parallel_loop_access"
    },
    {
     "enum_field_value" : 11,
     "name" : "llvm::LLVMContext::MD_nonnull"
    },
    {
     "enum_field_value" : 12,
     "name" : "llvm::LLVMContext::MD_dereferenceable"
    },
    {
     "enum_field_value" : 13,
     "name" : "llvm::LLVMContext::MD_dereferenceable_or_null"
    },
    {
     "enum_field_value" : 14,
     "name" : "llvm::LLVMContext::MD_make_implicit"
    },
    {
     "enum_field_value" : 15,
     "name" : "llvm::LLVMContext::MD_unpredictable"
    },
    {
     "enum_field_value" : 16,
     "name" : "llvm::LLVMContext::MD_invariant_group"
    },
    {
     "enum_field_value" : 17,
     "name" : "llvm::LLVMContext::MD_align"
    },
    {
     "enum_field_value" : 18,
     "name" : "llvm::LLVMContext::MD_loop"
    },
    {
     "enum_field_value" : 19,
     "name" : "llvm::LLVMContext::MD_type"
    }
   ],
   "linker_set_key" : "_ZTIN4llvm11LLVMContext15$MD_alias_scopeE",
   "name" : "llvm::LLVMContext::(anonymous enum at external/llvm/include/llvm/IR/LLVMContext.h:51:3)",
   "referenced_type" : "_ZTIN4llvm11LLVMContext15$MD_alias_scopeE",
   "self_type" : "_ZTIN4llvm11LLVMContext15$MD_alias_scopeE",
   "size" : 4,
   "source_file" : "external/llvm/include/llvm/IR/LLVMContext.h",
   "underlying_type" : "_ZTIj"
  },
  {
   "alignment" : 4,
   "enum_fields" :
   [
    {
     "enum_field_value" : 0,
     "name" : "llvm::LLVMContext::OB_deopt"
    },
    {
     "enum_field_value" : 1,
     "name" : "llvm::LLVMContext::OB_funclet"
    },
    {
     "enum_field_value" : 2,
     "name" : "llvm::LLVMContext::OB_gc_transition"
    }
   ],
   "linker_set_key" : "_ZTIN4llvm11LLVMContext9$OB_deoptE",
   "name" : "llvm::LLVMContext::(anonymous enum at external/llvm/include/llvm/IR/LLVMContext.h:78:3)",
   "referenced_type" : "_ZTIN4llvm11LLVMContext9$OB_deoptE",
   "self_type" : "_ZTIN4llvm11LLVMContext9$OB_deoptE",
   "size" : 4,
   "source_file" : "external/llvm/include/llvm/IR/LLVMContext.h",
   "underlying_type" : "_ZTIj"
  },
  {
   "access" : "private",
   "alignment" : 4,
   "enum_fields" :
   [
    {
     "enum_field_value" : 4,
     "name" : "llvm::SmallPtrSet<llvm::cl::SubCommand *, 4>::SmallSizePowTwo"
    }
   ],
   "linker_set_key" : "_ZTIN4llvm11SmallPtrSetIPNS_2cl10SubCommandELj4EE16$SmallSizePowTwoE",
   "name" : "llvm::SmallPtrSet<SubCommand *, 4>::(anonymous enum at external/llvm/include/llvm/ADT/SmallPtrSet.h:362:3)",
   "referenced_type" : "_ZTIN4llvm11SmallPtrSetIPNS_2cl10SubCommandELj4EE16$SmallSizePowTwoE",
   "self_type" : "_ZTIN4llvm11SmallPtrSetIPNS_2cl10SubCommandELj4EE16$SmallSizePowTwoE",
   "size" : 4,
   "source_file" : "external/llvm/include/llvm/ADT/SmallPtrSet.h",
   "underlying_type" : "_ZTIj"
  },
  {
   "alignment" : 4,
   "enum_fields" :
   [
    {
     "enum_field_value" : 0,
     "name" : "llvm::ZB_Undefined"
    },
    {
     "enum_field_value" : 1,
     "name" : "llvm::ZB_Max"
    },
    {
     "enum_field_value" : 2,
     "name" : "llvm::ZB_Width"
    }
   ],
   "linker_set_key" : "_ZTIN4llvm12ZeroBehaviorE",
   "name" : "llvm::ZeroBehavior",
   "referenced_type" : "_ZTIN4llvm12ZeroBehaviorE",
   "self_type" : "_ZTIN4llvm12ZeroBehaviorE",
   "size" : 4,
   "source_file" : "external/llvm/include/llvm/Support/MathExtras.h",
   "underlying_type" : "_ZTIj"
  },
  {
   "alignment" : 4,
   "enum_fields" :
   [
    {
     "enum_field_value" : 0,
     "name" : "llvm::lfExactlyZero"
    },
    {
     "enum_field_value" : 1,
     "name" : "llvm::lfLessThanHalf"
    },
    {
     "enum_field_value" : 2,
     "name" : "llvm::lfExactlyHalf"
    },
    {
     "enum_field_value" : 3,
     "name" : "llvm::lfMoreThanHalf"
    }
   ],
   "linker_set_key" : "_ZTIN4llvm12lostFractionE",
   "name" : "llvm::lostFraction",
   "referenced_type" : "_ZTIN4llvm12lostFractionE",
   "self_type" : "_ZTIN4llvm12lostFractionE",
   "size" : 4,
   "source_file" : "external/llvm/include/llvm/ADT/APFloat.h",
   "underlying_type" : "_ZTIj"
  },
  {
   "alignment" : 4,
   "enum_fields" :
   [
    {
     "enum_field_value" : 4,
     "name" : "llvm::RoundUpToPowerOfTwo<4>::Val"
    }
   ],
   "linker_set_key" : "_ZTIN4llvm19RoundUpToPowerOfTwoILj4EE4$ValE",
   "name" : "llvm::RoundUpToPowerOfTwo<4>::(anonymous enum at external/llvm/include/llvm/ADT/SmallPtrSet.h:285:3)",
   "referenced_type" : "_ZTIN4llvm19RoundUpToPowerOfTwoILj4EE4$ValE",
   "self_type" : "_ZTIN4llvm19RoundUpToPowerOfTwoILj4EE4$ValE",
   "size" : 4,
   "source_file" : "external/llvm/include/llvm/ADT/SmallPtrSet.h",
   "underlying_type" : "_ZTIj"
  },
  {
   "alignment" : 4,
   "enum_fields" :
   [
    {
     "enum_field_value" : 4,
     "name" : "llvm::RoundUpToPowerOfTwoH<4, true>::Val"
    }
   ],
   "linker_set_key" : "_ZTIN4llvm20RoundUpToPowerOfTwoHILj4ELb1EE4$ValE",
   "name" : "llvm::RoundUpToPowerOfTwoH<4, true>::(anonymous enum at external/llvm/include/llvm/ADT/SmallPtrSet.h:272:3)",
   "referenced_type" : "_ZTIN4llvm20RoundUpToPowerOfTwoHILj4ELb1EE4$ValE",
   "self_type" : "_ZTIN4llvm20RoundUpToPowerOfTwoHILj4ELb1EE4$ValE",
   "size" : 4,
   "source_file" : "external/llvm/include/llvm/ADT/SmallPtrSet.h",
   "underlying_type" : "_ZTIj"
  },
  {
   "alignment" : 4,
   "enum_fields" :
   [
    {
     "enum_field_value" : 2,
     "name" : "llvm::PointerLikeTypeTraits<llvm::StringMapEntryBase *>::NumLowBitsAvailable"
    }
   ],
   "linker_set_key" : "_ZTIN4llvm21PointerLikeTypeTraitsIPNS_18StringMapEntryBaseEE20$NumLowBitsAvailableE",
   "name" : "llvm::PointerLikeTypeTraits<StringMapEntryBase *>::(anonymous enum at external/llvm/include/llvm/Support/PointerLikeTypeTraits.h:45:3)",
   "referenced_type" : "_ZTIN4llvm21PointerLikeTypeTraitsIPNS_18StringMapEntryBaseEE20$NumLowBitsAvailableE",
   "self_type" : "_ZTIN4llvm21PointerLikeTypeTraitsIPNS_18StringMapEntryBaseEE20$NumLowBitsAvailableE",
   "size" : 4,
   "source_file" : "external/llvm/include/llvm/Support/PointerLikeTypeTraits.h",
   "underlying_type" : "_ZTIj"
  },
  {
   "alignment" : 4,
   "enum_fields" :
   [
    {
     "enum_field_value" : 3,
     "name" : "llvm::PointerLikeTypeTraits<llvm::cl::SubCommand *>::NumLowBitsAvailable"
    }
   ],
   "linker_set_key" : "_ZTIN4llvm21PointerLikeTypeTraitsIPNS_2cl10SubCommandEE20$NumLowBitsAvailableE",
   "name" : "llvm::PointerLikeTypeTraits<SubCommand *>::(anonymous enum at external/llvm/include/llvm/Support/PointerLikeTypeTraits.h:45:3)",
   "referenced_type" : "_ZTIN4llvm21PointerLikeTypeTraitsIPNS_2cl10SubCommandEE20$NumLowBitsAvailableE",
   "self_type" : "_ZTIN4llvm21PointerLikeTypeTraitsIPNS_2cl10SubCommandEE20$NumLowBitsAvailableE",
   "size" : 4,
   "source_file" : "external/llvm/include/llvm/Support/PointerLikeTypeTraits.h",
   "underlying_type" : "_ZTIj"
  },
  {
   "alignment" : 4,
   "enum_fields" :
   [
    {
     "enum_field_value" : 2,
     "name" : "llvm::PointerLikeTypeTraits<void *>::NumLowBitsAvailable"
    }
   ],
   "linker_set_key" : "_ZTIN4llvm21PointerLikeTypeTraitsIPvE20$NumLowBitsAvailableE",
   "name" : "llvm::PointerLikeTypeTraits<void *>::(anonymous enum at external/llvm/include/llvm/Support/PointerLikeTypeTraits.h:62:3)",
   "referenced_type" : "_ZTIN4llvm21PointerLikeTypeTraitsIPvE20$NumLowBitsAvailableE",
   "self_type" : "_ZTIN4llvm21PointerLikeTypeTraitsIPvE20$NumLowBitsAvailableE",
   "size" : 4,
   "source_file" : "external/llvm/include/llvm/Support/PointerLikeTypeTraits.h",
   "underlying_type" : "_ZTIj"
  },
  {
   "alignment" : 4,
   "enum_fields" :
   [
    {
     "enum_field_value" : 0,
     "name" : "llvm::PointerLikeTypeTraits<unsigned long>::NumLowBitsAvailable"
    }
   ],
   "linker_set_key" : "_ZTIN4llvm21PointerLikeTypeTraitsImE20$NumLowBitsAvailableE",
   "name" : "llvm::PointerLikeTypeTraits<uintptr_t>::(anonymous enum at external/llvm/include/llvm/Support/PointerLikeTypeTraits.h:89:3)",
   "referenced_type" : "_ZTIN4llvm21PointerLikeTypeTraitsImE20$NumLowBitsAvailableE",
   "self_type" : "_ZTIN4llvm21PointerLikeTypeTraitsImE20$NumLowBitsAvailableE",
   "size" : 4,
   "source_file" : "external/llvm/include/llvm/Support/PointerLikeTypeTraits.h",
   "underlying_type" : "_ZTIj"
  },
  {
   "alignment" : 4,
   "enum_fields" :
   [
    {
     "enum_field_value" : 0,
     "name" : "llvm::cl::NotHidden"
    },
    {
     "enum_field_value" : 1,
     "name" : "llvm::cl::Hidden"
    },
    {
     "enum_field_value" : 2,
     "name" : "llvm::cl::ReallyHidden"
    }
   ],
   "linker_set_key" : "_ZTIN4llvm2cl12OptionHiddenE",
   "name" : "llvm::cl::OptionHidden",
   "referenced_type" : "_ZTIN4llvm2cl12OptionHiddenE",
   "self_type" : "_ZTIN4llvm2cl12OptionHiddenE",
   "size" : 4,
   "source_file" : "external/llvm/include/llvm/Support/CommandLine.h",
   "underlying_type" : "_ZTIj"
  },
  {
   "alignment" : 4,
   "enum_fields" :
   [
    {
     "enum_field_value" : 1,
     "name" : "llvm::cl::ValueOptional"
    },
    {
     "enum_field_value" : 2,
     "name" : "llvm::cl::ValueRequired"
    },
    {
     "enum_field_value" : 3,
     "name" : "llvm::cl::ValueDisallowed"
    }
   ],
   "linker_set_key" : "_ZTIN4llvm2cl13ValueExpectedE",
   "name" : "llvm::cl::ValueExpected",
   "referenced_type" : "_ZTIN4llvm2cl13ValueExpectedE",
   "self_type" : "_ZTIN4llvm2cl13ValueExpectedE",
   "size" : 4,
   "source_file" : "external/llvm/include/llvm/Support/CommandLine.h",
   "underlying_type" : "_ZTIj"
  },
  {
   "alignment" : 4,
   "enum_fields" :
   [
    {
     "enum_field_value" : 0,
     "name" : "llvm::cl::BOU_UNSET"
    },
    {
     "enum_field_value" : 1,
     "name" : "llvm::cl::BOU_TRUE"
    },
    {
     "enum_field_value" : 2,
     "name" : "llvm::cl::BOU_FALSE"
    }
   ],
   "linker_set_key" : "_ZTIN4llvm2cl13boolOrDefaultE",
   "name" : "llvm::cl::boolOrDefault",
   "referenced_type" : "_ZTIN4llvm2cl13boolOrDefaultE",
   "self_type" : "_ZTIN4llvm2cl13boolOrDefaultE",
   "size" : 4,
   "source_file" : "external/llvm/include/llvm/Support/CommandLine.h",
   "underlying_type" : "_ZTIj"
  },
  {
   "alignment" : 4,
   "enum_fields" :
   [
    {
     "enum_field_value" : 0,
     "name" : "llvm::cl::NormalFormatting"
    },
    {
     "enum_field_value" : 1,
     "name" : "llvm::cl::Positional"
    },
    {
     "enum_field_value" : 2,
     "name" : "llvm::cl::Prefix"
    },
    {
     "enum_field_value" : 3,
     "name" : "llvm::cl::Grouping"
    }
   ],
   "linker_set_key" : "_ZTIN4llvm2cl15FormattingFlagsE",
   "name" : "llvm::cl::FormattingFlags",
   "referenced_type" : "_ZTIN4llvm2cl15FormattingFlagsE",
   "self_type" : "_ZTIN4llvm2cl15FormattingFlagsE",
   "size" : 4,
   "source_file" : "external/llvm/include/llvm/Support/CommandLine.h",
   "underlying_type" : "_ZTIj"
  },
  {
   "alignment" : 4,
   "enum_fields" :
   [
    {
     "enum_field_value" : 0,
     "name" : "llvm::cl::Optional"
    },
    {
     "enum_field_value" : 1,
     "name" : "llvm::cl::ZeroOrMore"
    },
    {
     "enum_field_value" : 2,
     "name" : "llvm::cl::Required"
    },
    {
     "enum_field_value" : 3,
     "name" : "llvm::cl::OneOrMore"
    },
    {
     "enum_field_value" : 4,
     "name" : "llvm::cl::ConsumeAfter"
    }
   ],
   "linker_set_key" : "_ZTIN4llvm2cl18NumOccurrencesFlagE",
   "name" : "llvm::cl::NumOccurrencesFlag",
   "referenced_type" : "_ZTIN4llvm2cl18NumOccurrencesFlagE",
   "self_type" : "_ZTIN4llvm2cl18NumOccurrencesFlagE",
   "size" : 4,
   "source_file" : "external/llvm/include/llvm/Support/CommandLine.h",
   "underlying_type" : "_ZTIj"
  },
  {
   "alignment" : 4,
   "enum_fields" :
   [
    {
     "enum_field_value" : 1,
     "name" : "llvm::cl::CommaSeparated"
    },
    {
     "enum_field_value" : 2,
     "name" : "llvm::cl::PositionalEatsArgs"
    },
    {
     "enum_field_value" : 4,
     "name" : "llvm::cl::Sink"
    }
   ],
   "linker_set_key" : "_ZTIN4llvm2cl9MiscFlagsE",
   "name" : "llvm::cl::MiscFlags",
   "referenced_type" : "_ZTIN4llvm2cl9MiscFlagsE",
   "self_type" : "_ZTIN4llvm2cl9MiscFlagsE",
   "size" : 4,
   "source_file" : "external/llvm/include/llvm/Support/CommandLine.h",
   "underlying_type" : "_ZTIj"
  },
  {
   "alignment" : 1,
   "enum_fields" :
   [
    {
     "enum_field_value" : -1,
     "name" : "llvm::MVT::INVALID_SIMPLE_VALUE_TYPE"
    },
    {
     "enum_field_value" : 0,
     "name" : "llvm::MVT::Other"
    },
    {
     "enum_field_value" : 1,
     "name" : "llvm::MVT::i1"
    },
    {
     "enum_field_value" : 2,
     "name" : "llvm::MVT::i8"
    },
    {
     "enum_field_value" : 3,
     "name" : "llvm::MVT::i16"
    },
    {
     "enum_field_value" : 4,
     "name" : "llvm::MVT::i32"
    },
    {
     "enum_field_value" : 5,
     "name" : "llvm::MVT::i64"
    },
    {
     "enum_field_value" : 6,
     "name" : "llvm::MVT::i128"
    },
    {
     "enum_field_value" : 1,
     "name" : "llvm::MVT::FIRST_INTEGER_VALUETYPE"
    },
    {
     "enum_field_value" : 6,
     "name" : "llvm::MVT::LAST_INTEGER_VALUETYPE"
    },
    {
     "enum_field_value" : 7,
     "name" : "llvm::MVT::f16"
    },
    {
     "enum_field_value" : 8,
     "name" : "llvm::MVT::f32"
    },
    {
     "enum_field_value" : 9,
     "name" : "llvm::MVT::f64"
    },
    {
     "enum_field_value" : 10,
     "name" : "llvm::MVT::f80"
    },
    {
     "enum_field_value" : 11,
     "name" : "llvm::MVT::f128"
    },
    {
     "enum_field_value" : 12,
     "name" : "llvm::MVT::ppcf128"
    },
    {
     "enum_field_value" : 7,
     "name" : "llvm::MVT::FIRST_FP_VALUETYPE"
    },
    {
     "enum_field_value" : 12,
     "name" : "llvm::MVT::LAST_FP_VALUETYPE"
    },
    {
     "enum_field_value" : 13,
     "name" : "llvm::MVT::v2i1"
    },
    {
     "enum_field_value" : 14,
     "name" : "llvm::MVT::v4i1"
    },
    {
     "enum_field_value" : 15,
     "name" : "llvm::MVT::v8i1"
    },
    {
     "enum_field_value" : 16,
     "name" : "llvm::MVT::v16i1"
    },
    {
     "enum_field_value" : 17,
     "name" : "llvm::MVT::v32i1"
    },
    {
     "enum_field_value" : 18,
     "name" : "llvm::MVT::v64i1"
    },
    {
     "enum_field_value" : 19,
     "name" : "llvm::MVT::v512i1"
    },
    {
     "enum_field_value" : 20,
     "name" : "llvm::MVT::v1024i1"
    },
    {
     "enum_field_value" : 21,
     "name" : "llvm::MVT::v1i8"
    },
    {
     "enum_field_value" : 22,
     "name" : "llvm::MVT::v2i8"
    },
    {
     "enum_field_value" : 23,
     "name" : "llvm::MVT::v4i8"
    },
    {
     "enum_field_value" : 24,
     "name" : "llvm::MVT::v8i8"
    },
    {
     "enum_field_value" : 25,
     "name" : "llvm::MVT::v16i8"
    },
    {
     "enum_field_value" : 26,
     "name" : "llvm::MVT::v32i8"
    },
    {
     "enum_field_value" : 27,
     "name" : "llvm::MVT::v64i8"
    },
    {
     "enum_field_value" : 28,
     "name" : "llvm::MVT::v128i8"
    },
    {
     "enum_field_value" : 29,
     "name" : "llvm::MVT::v256i8"
    },
    {
     "enum_field_value" : 30,
     "name" : "llvm::MVT::v1i16"
    },
    {
     "enum_field_value" : 31,
     "name" : "llvm::MVT::v2i16"
    },
    {
     "enum_field_value" : 32,
     "name" : "llvm::MVT::v4i16"
    },
    {
     "enum_field_value" : 33,
     "name" : "llvm::MVT::v8i16"
    },
    {
     "enum_field_value" : 34,
     "name" : "llvm::MVT::v16i16"
    },
    {
     "enum_field_value" : 35,
     "name" : "llvm::MVT::v32i16"
    },
    {
     "enum_field_value" : 36,
     "name" : "llvm::MVT::v64i16"
    },
    {
     "enum_field_value" : 37,
     "name" : "llvm::MVT::v128i16"
    },
    {
     "enum_field_value" : 38,
     "name" : "llvm::MVT::v1i32"
    },
    {
     "enum_field_value" : 39,
     "name" : "llvm::MVT::v2i32"
    },
    {
     "enum_field_value" : 40,
     "name" : "llvm::MVT::v4i32"
    },
    {
     "enum_field_value" : 41,
     "name" : "llvm::MVT::v8i32"
    },
    {
     "enum_field_value" : 42,
     "name" : "llvm::MVT::v16i32"
    },
    {
     "enum_field_value" : 43,
     "name" : "llvm::MVT::v32i32"
    },
    {
     "enum_field_value" : 44,
     "name" : "llvm::MVT::v64i32"
    },
    {
     "enum_field_value" : 45,
     "name" : "llvm::MVT::v1i64"
    },
    {
     "enum_field_value" : 46,
     "name" : "llvm::MVT::v2i64"
    },
    {
     "enum_field_value" : 47,
     "name" : "llvm::MVT::v4i64"
    },
    {
     "enum_field_value" : 48,
     "name" : "llvm::MVT::v8i64"
    },
    {
     "enum_field_value" : 49,
     "name" : "llvm::MVT::v16i64"
    },
    {
     "enum_field_value" : 50,
     "name" : "llvm::MVT::v32i64"
    },
    {
     "enum_field_value" : 51,
     "name" : "llvm::MVT::v1i128"
    },
    {
     "enum_field_value" : 13,
     "name" : "llvm::MVT::FIRST_INTEGER_VECTOR_VALUETYPE"
    },
    {
     "enum_field_value" : 51,
     "name" : "llvm::MVT::LAST_INTEGER_VECTOR_VALUETYPE"
    },
    {
     "enum_field_value" : 52,
     "name" : "llvm::MVT::v2f16"
    },
    {
     "enum_field_value" : 53,
     "name" : "llvm::MVT::v4f16"
    },
    {
     "enum_field_value" : 54,
     "name" : "llvm::MVT::v8f16"
    },
    {
     "enum_field_value" : 55,
     "name" : "llvm::MVT::v1f32"
    },
    {
     "enum_field_value" : 56,
     "name" : "llvm::MVT::v2f32"
    },
    {
     "enum_field_value" : 57,
     "name" : "llvm::MVT::v4f32"
    },
    {
     "enum_field_value" : 58,
     "name" : "llvm::MVT::v8f32"
    },
    {
     "enum_field_value" : 59,
     "name" : "llvm::MVT::v16f32"
    },
    {
     "enum_field_value" : 60,
     "name" : "llvm::MVT::v1f64"
    },
    {
     "enum_field_value" : 61,
     "name" : "llvm::MVT::v2f64"
    },
    {
     "enum_field_value" : 62,
     "name" : "llvm::MVT::v4f64"
    },
    {
     "enum_field_value" : 63,
     "name" : "llvm::MVT::v8f64"
    },
    {
     "enum_field_value" : 52,
     "name" : "llvm::MVT::FIRST_FP_VECTOR_VALUETYPE"
    },
    {
     "enum_field_value" : 63,
     "name" : "llvm::MVT::LAST_FP_VECTOR_VALUETYPE"
    },
    {
     "enum_field_value" : 13,
     "name" : "llvm::MVT::FIRST_VECTOR_VALUETYPE"
    },
    {
     "enum_field_value" : 63,
     "name" : "llvm::MVT::LAST_VECTOR_VALUETYPE"
    },
    {
     "enum_field_value" : 64,
     "name" : "llvm::MVT::x86mmx"
    },
    {
     "enum_field_value" : 65,
     "name" : "llvm::MVT::Glue"
    },
    {
     "enum_field_value" : 66,
     "name" : "llvm::MVT::isVoid"
    },
    {
     "enum_field_value" : 67,
     "name" : "llvm::MVT::Untyped"
    },
    {
     "enum_field_value" : 0,
     "name" : "llvm::MVT::FIRST_VALUETYPE"
    },
    {
     "enum_field_value" : 68,
     "name" : "llvm::MVT::LAST_VALUETYPE"
    },
    {
     "enum_field_value" : 96,
     "name" : "llvm::MVT::MAX_ALLOWED_VALUETYPE"
    },
    {
     "enum_field_value" : 120,
     "name" : "llvm::MVT::token"
    },
    {
     "enum_field_value" : 121,
     "name" : "llvm::MVT::Metadata"
    },
    {
     "enum_field_value" : 122,
     "name" : "llvm::MVT::iPTRAny"
    },
    {
     "enum_field_value" : 123,
     "name" : "llvm::MVT::vAny"
    },
    {
     "enum_field_value" : 124,
     "name" : "llvm::MVT::fAny"
    },
    {
     "enum_field_value" : 125,
     "name" : "llvm::MVT::iAny"
    },
    {
     "enum_field_value" : 126,
     "name" : "llvm::MVT::iPTR"
    },
    {
     "enum_field_value" : 127,
     "name" : "llvm::MVT::Any"
    }
   ],
   "linker_set_key" : "_ZTIN4llvm3MVT15SimpleValueTypeE",
   "name" : "llvm::MVT::SimpleValueType",
   "referenced_type" : "_ZTIN4llvm3MVT15SimpleValueTypeE",
   "self_type" : "_ZTIN4llvm3MVT15SimpleValueTypeE",
   "size" : 1,
   "source_file" : "external/llvm/include/llvm/CodeGen/MachineValueType.h",
   "underlying_type" : "_ZTIa"
  },
  {
   "alignment" : 4,
   "enum_fields" :
   [
    {
     "enum_field_value" : 16777216,
     "name" : "llvm::sys::Memory::MF_READ"
    },
    {
     "enum_field_value" : 33554432,
     "name" : "llvm::sys::Memory::MF_WRITE"
    },
    {
     "enum_field_value" : 67108864,
     "name" : "llvm::sys::Memory::MF_EXEC"
    }
   ],
   "linker_set_key" : "_ZTIN4llvm3sys6Memory15ProtectionFlagsE",
   "name" : "llvm::sys::Memory::ProtectionFlags",
   "referenced_type" : "_ZTIN4llvm3sys6Memory15ProtectionFlagsE",
   "self_type" : "_ZTIN4llvm3sys6Memory15ProtectionFlagsE",
   "size" : 4,
   "source_file" : "external/llvm/include/llvm/Support/Memory.h",
   "underlying_type" : "_ZTIj"
  },
  {
   "alignment" : 4,
   "enum_fields" :
   [
    {
     "enum_field_value" : 0,
     "name" : "llvm::Type::VoidTyID"
    },
    {
     "enum_field_value" : 1,
     "name" : "llvm::Type::HalfTyID"
    },
    {
     "enum_field_value" : 2,
     "name" : "llvm::Type::FloatTyID"
    },
    {
     "enum_field_value" : 3,
     "name" : "llvm::Type::DoubleTyID"
    },
    {
     "enum_field_value" : 4,
     "name" : "llvm::Type::X86_FP80TyID"
    },
    {
     "enum_field_value" : 5,
     "name" : "llvm::Type::FP128TyID"
    },
    {
     "enum_field_value" : 6,
     "name" : "llvm::Type::PPC_FP128TyID"
    },
    {
     "enum_field_value" : 7,
     "name" : "llvm::Type::LabelTyID"
    },
    {
     "enum_field_value" : 8,
     "name" : "llvm::Type::MetadataTyID"
    },
    {
     "enum_field_value" : 9,
     "name" : "llvm::Type::X86_MMXTyID"
    },
    {
     "enum_field_value" : 10,
     "name" : "llvm::Type::TokenTyID"
    },
    {
     "enum_field_value" : 11,
     "name" : "llvm::Type::IntegerTyID"
    },
    {
     "enum_field_value" : 12,
     "name" : "llvm::Type::FunctionTyID"
    },
    {
     "enum_field_value" : 13,
     "name" : "llvm::Type::StructTyID"
    },
    {
     "enum_field_value" : 14,
     "name" : "llvm::Type::ArrayTyID"
    },
    {
     "enum_field_value" : 15,
     "name" : "llvm::Type::PointerTyID"
    },
    {
     "enum_field_value" : 16,
     "name" : "llvm::Type::VectorTyID"
    }
   ],
   "linker_set_key" : "_ZTIN4llvm4Type6TypeIDE",
   "name" : "llvm::Type::TypeID",
   "referenced_type" : "_ZTIN4llvm4Type6TypeIDE",
   "self_type" : "_ZTIN4llvm4Type6TypeIDE",
   "size" : 4,
   "source_file" : "external/llvm/include/llvm/IR/Type.h",
   "underlying_type" : "_ZTIj"
  },
  {
   "access" : "private",
   "alignment" : 4,
   "enum_fields" :
   [
    {
     "enum_field_value" : 64,
     "name" : "llvm::APInt::APINT_BITS_PER_WORD"
    },
    {
     "enum_field_value" : 8,
     "name" : "llvm::APInt::APINT_WORD_SIZE"
    }
   ],
   "linker_set_key" : "_ZTIN4llvm5APInt20$APINT_BITS_PER_WORDE",
   "name" : "llvm::APInt::(anonymous enum at external/llvm/include/llvm/ADT/APInt.h:84:3)",
   "referenced_type" : "_ZTIN4llvm5APInt20$APINT_BITS_PER_WORDE",
   "self_type" : "_ZTIN4llvm5APInt20$APINT_BITS_PER_WORDE",
   "size" : 4,
   "source_file" : "external/llvm/include/llvm/ADT/APInt.h",
   "underlying_type" : "_ZTIj"
  },
  {
   "access" : "private",
   "alignment" : 1,
   "enum_fields" :
   [
    {
     "enum_field_value" : 0,
     "name" : "llvm::Twine::NullKind"
    },
    {
     "enum_field_value" : 1,
     "name" : "llvm::Twine::EmptyKind"
    },
    {
     "enum_field_value" : 2,
     "name" : "llvm::Twine::TwineKind"
    },
    {
     "enum_field_value" : 3,
     "name" : "llvm::Twine::CStringKind"
    },
    {
     "enum_field_value" : 4,
     "name" : "llvm::Twine::StdStringKind"
    },
    {
     "enum_field_value" : 5,
     "name" : "llvm::Twine::StringRefKind"
    },
    {
     "enum_field_value" : 6,
     "name" : "llvm::Twine::SmallStringKind"
    },
    {
     "enum_field_value" : 7,
     "name" : "llvm::Twine::CharKind"
    },
    {
     "enum_field_value" : 8,
     "name" : "llvm::Twine::DecUIKind"
    },
    {
     "enum_field_value" : 9,
     "name" : "llvm::Twine::DecIKind"
    },
    {
     "enum_field_value" : 10,
     "name" : "llvm::Twine::DecULKind"
    },
    {
     "enum_field_value" : 11,
     "name" : "llvm::Twine::DecLKind"
    },
    {
     "enum_field_value" : 12,
     "name" : "llvm::Twine::DecULLKind"
    },
    {
     "enum_field_value" : 13,
     "name" : "llvm::Twine::DecLLKind"
    },
    {
     "enum_field_value" : 14,
     "name" : "llvm::Twine::UHexKind"
    }
   ],
   "linker_set_key" : "_ZTIN4llvm5Twine8NodeKindE",
   "name" : "llvm::Twine::NodeKind",
   "referenced_type" : "_ZTIN4llvm5Twine8NodeKindE",
   "self_type" : "_ZTIN4llvm5Twine8NodeKindE",
   "size" : 1,
   "source_file" : "external/llvm/include/llvm/ADT/Twine.h",
   "underlying_type" : "_ZTIh"
  },
  {
   "alignment" : 4,
   "enum_fields" :
   [
    {
     "enum_field_value" : 0,
     "name" : "llvm::APFloat::fcInfinity"
    },
    {
     "enum_field_value" : 1,
     "name" : "llvm::APFloat::fcNaN"
    },
    {
     "enum_field_value" : 2,
     "name" : "llvm::APFloat::fcNormal"
    },
    {
     "enum_field_value" : 3,
     "name" : "llvm::APFloat::fcZero"
    }
   ],
   "linker_set_key" : "_ZTIN4llvm7APFloat11fltCategoryE",
   "name" : "llvm::APFloat::fltCategory",
   "referenced_type" : "_ZTIN4llvm7APFloat11fltCategoryE",
   "self_type" : "_ZTIN4llvm7APFloat11fltCategoryE",
   "size" : 4,
   "source_file" : "external/llvm/include/llvm/ADT/APFloat.h",
   "underlying_type" : "_ZTIj"
  },
  {
   "alignment" : 4,
   "enum_fields" :
   [
    {
     "enum_field_value" : 0,
     "name" : "llvm::APFloat::rmNearestTiesToEven"
    },
    {
     "enum_field_value" : 1,
     "name" : "llvm::APFloat::rmTowardPositive"
    },
    {
     "enum_field_value" : 2,
     "name" : "llvm::APFloat::rmTowardNegative"
    },
    {
     "enum_field_value" : 3,
     "name" : "llvm::APFloat::rmTowardZero"
    },
    {
     "enum_field_value" : 4,
     "name" : "llvm::APFloat::rmNearestTiesToAway"
    }
   ],
   "linker_set_key" : "_ZTIN4llvm7APFloat12roundingModeE",
   "name" : "llvm::APFloat::roundingMode",
   "referenced_type" : "_ZTIN4llvm7APFloat12roundingModeE",
   "self_type" : "_ZTIN4llvm7APFloat12roundingModeE",
   "size" : 4,
   "source_file" : "external/llvm/include/llvm/ADT/APFloat.h",
   "underlying_type" : "_ZTIj"
  },
  {
   "alignment" : 4,
   "enum_fields" :
   [
    {
     "enum_field_value" : -2147483647,
     "name" : "llvm::APFloat::IEK_Zero"
    },
    {
     "enum_field_value" : -2147483648,
     "name" : "llvm::APFloat::IEK_NaN"
    },
    {
     "enum_field_value" : 2147483647,
     "name" : "llvm::APFloat::IEK_Inf"
    }
   ],
   "linker_set_key" : "_ZTIN4llvm7APFloat15IlogbErrorKindsE",
   "name" : "llvm::APFloat::IlogbErrorKinds",
   "referenced_type" : "_ZTIN4llvm7APFloat15IlogbErrorKindsE",
   "self_type" : "_ZTIN4llvm7APFloat15IlogbErrorKindsE",
   "size" : 4,
   "source_file" : "external/llvm/include/llvm/ADT/APFloat.h",
   "underlying_type" : "_ZTIi"
  },
  {
   "alignment" : 4,
   "enum_fields" :
   [
    {
     "enum_field_value" : 0,
     "name" : "llvm::APFloat::uninitialized"
    }
   ],
   "linker_set_key" : "_ZTIN4llvm7APFloat16uninitializedTagE",
   "name" : "llvm::APFloat::uninitializedTag",
   "referenced_type" : "_ZTIN4llvm7APFloat16uninitializedTagE",
   "self_type" : "_ZTIN4llvm7APFloat16uninitializedTagE",
   "size" : 4,
   "source_file" : "external/llvm/include/llvm/ADT/APFloat.h",
   "underlying_type" : "_ZTIj"
  },
  {
   "alignment" : 4,
   "enum_fields" :
   [
    {
     "enum_field_value" : 0,
     "name" : "llvm::APFloat::opOK"
    },
    {
     "enum_field_value" : 1,
     "name" : "llvm::APFloat::opInvalidOp"
    },
    {
     "enum_field_value" : 2,
     "name" : "llvm::APFloat::opDivByZero"
    },
    {
     "enum_field_value" : 4,
     "name" : "llvm::APFloat::opOverflow"
    },
    {
     "enum_field_value" : 8,
     "name" : "llvm::APFloat::opUnderflow"
    },
    {
     "enum_field_value" : 16,
     "name" : "llvm::APFloat::opInexact"
    }
   ],
   "linker_set_key" : "_ZTIN4llvm7APFloat8opStatusE",
   "name" : "llvm::APFloat::opStatus",
   "referenced_type" : "_ZTIN4llvm7APFloat8opStatusE",
   "self_type" : "_ZTIN4llvm7APFloat8opStatusE",
   "size" : 4,
   "source_file" : "external/llvm/include/llvm/ADT/APFloat.h",
   "underlying_type" : "_ZTIj"
  },
  {
   "alignment" : 4,
   "enum_fields" :
   [
    {
     "enum_field_value" : 0,
     "name" : "llvm::APFloat::cmpLessThan"
    },
    {
     "enum_field_value" : 1,
     "name" : "llvm::APFloat::cmpEqual"
    },
    {
     "enum_field_value" : 2,
     "name" : "llvm::APFloat::cmpGreaterThan"
    },
    {
     "enum_field_value" : 3,
     "name" : "llvm::APFloat::cmpUnordered"
    }
   ],
   "linker_set_key" : "_ZTIN4llvm7APFloat9cmpResultE",
   "name" : "llvm::APFloat::cmpResult",
   "referenced_type" : "_ZTIN4llvm7APFloat9cmpResultE",
   "self_type" : "_ZTIN4llvm7APFloat9cmpResultE",
   "size" : 4,
   "source_file" : "external/llvm/include/llvm/ADT/APFloat.h",
   "underlying_type" : "_ZTIj"
  },
  {
   "alignment" : 4,
   "enum_fields" :
   [
    {
     "enum_field_value" : 0,
     "name" : "llvm::AlignOf<llvm::FunctionType>::Alignment_LessEqual_2Bytes"
    }
   ],
   "linker_set_key" : "_ZTIN4llvm7AlignOfINS_12FunctionTypeEE27$Alignment_LessEqual_2BytesE",
   "name" : "llvm::AlignOf<FunctionType>::(anonymous enum at external/llvm/include/llvm/Support/AlignOf.h:91:3)",
   "referenced_type" : "_ZTIN4llvm7AlignOfINS_12FunctionTypeEE27$Alignment_LessEqual_2BytesE",
   "self_type" : "_ZTIN4llvm7AlignOfINS_12FunctionTypeEE27$Alignment_LessEqual_2BytesE",
   "size" : 4,
   "source_file" : "external/llvm/include/llvm/Support/AlignOf.h",
   "underlying_type" : "_ZTIj"
  },
  {
   "alignment" : 4,
   "enum_fields" :
   [
    {
     "enum_field_value" : 0,
     "name" : "llvm::AlignOf<llvm::FunctionType>::Alignment_LessEqual_4Bytes"
    }
   ],
   "linker_set_key" : "_ZTIN4llvm7AlignOfINS_12FunctionTypeEE27$Alignment_LessEqual_4BytesE",
   "name" : "llvm::AlignOf<FunctionType>::(anonymous enum at external/llvm/include/llvm/Support/AlignOf.h:92:3)",
   "referenced_type" : "_ZTIN4llvm7AlignOfINS_12FunctionTypeEE27$Alignment_LessEqual_4BytesE",
   "self_type" : "_ZTIN4llvm7AlignOfINS_12FunctionTypeEE27$Alignment_LessEqual_4BytesE",
   "size" : 4,
   "source_file" : "external/llvm/include/llvm/Support/AlignOf.h",
   "underlying_type" : "_ZTIj"
  },
  {
   "alignment" : 4,
   "enum_fields" :
   [
    {
     "enum_field_value" : 1,
     "name" : "llvm::AlignOf<llvm::FunctionType>::Alignment_LessEqual_8Bytes"
    }
   ],
   "linker_set_key" : "_ZTIN4llvm7AlignOfINS_12FunctionTypeEE27$Alignment_LessEqual_8BytesE",
   "name" : "llvm::AlignOf<FunctionType>::(anonymous enum at external/llvm/include/llvm/Support/AlignOf.h:93:3)",
   "referenced_type" : "_ZTIN4llvm7AlignOfINS_12FunctionTypeEE27$Alignment_LessEqual_8BytesE",
   "self_type" : "_ZTIN4llvm7AlignOfINS_12FunctionTypeEE27$Alignment_LessEqual_8BytesE",
   "size" : 4,
   "source_file" : "external/llvm/include/llvm/Support/AlignOf.h",
   "underlying_type" : "_ZTIj"
  },
  {
   "alignment" : 4,
   "enum_fields" :
   [
    {
     "enum_field_value" : 1,
     "name" : "llvm::AlignOf<llvm::FunctionType>::Alignment_LessEqual_16Bytes"
    }
   ],
   "linker_set_key" : "_ZTIN4llvm7AlignOfINS_12FunctionTypeEE28$Alignment_LessEqual_16BytesE",
   "name" : "llvm::AlignOf<FunctionType>::(anonymous enum at external/llvm/include/llvm/Support/AlignOf.h:94:3)",
   "referenced_type" : "_ZTIN4llvm7AlignOfINS_12FunctionTypeEE28$Alignment_LessEqual_16BytesE",
   "self_type" : "_ZTIN4llvm7AlignOfINS_12FunctionTypeEE28$Alignment_LessEqual_16BytesE",
   "size" : 4,
   "source_file" : "external/llvm/include/llvm/Support/AlignOf.h",
   "underlying_type" : "_ZTIj"
  },
  {
   "alignment" : 4,
   "enum_fields" :
   [
    {
     "enum_field_value" : 1,
     "name" : "llvm::AlignOf<llvm::FunctionType>::Alignment_GreaterEqual_2Bytes"
    }
   ],
   "linker_set_key" : "_ZTIN4llvm7AlignOfINS_12FunctionTypeEE30$Alignment_GreaterEqual_2BytesE",
   "name" : "llvm::AlignOf<FunctionType>::(anonymous enum at external/llvm/include/llvm/Support/AlignOf.h:86:3)",
   "referenced_type" : "_ZTIN4llvm7AlignOfINS_12FunctionTypeEE30$Alignment_GreaterEqual_2BytesE",
   "self_type" : "_ZTIN4llvm7AlignOfINS_12FunctionTypeEE30$Alignment_GreaterEqual_2BytesE",
   "size" : 4,
   "source_file" : "external/llvm/include/llvm/Support/AlignOf.h",
   "underlying_type" : "_ZTIj"
  },
  {
   "alignment" : 4,
   "enum_fields" :
   [
    {
     "enum_field_value" : 1,
     "name" : "llvm::AlignOf<llvm::FunctionType>::Alignment_GreaterEqual_4Bytes"
    }
   ],
   "linker_set_key" : "_ZTIN4llvm7AlignOfINS_12FunctionTypeEE30$Alignment_GreaterEqual_4BytesE",
   "name" : "llvm::AlignOf<FunctionType>::(anonymous enum at external/llvm/include/llvm/Support/AlignOf.h:87:3)",
   "referenced_type" : "_ZTIN4llvm7AlignOfINS_12FunctionTypeEE30$Alignment_GreaterEqual_4BytesE",
   "self_type" : "_ZTIN4llvm7AlignOfINS_12FunctionTypeEE30$Alignment_GreaterEqual_4BytesE",
   "size" : 4,
   "source_file" : "external/llvm/include/llvm/Support/AlignOf.h",
   "underlying_type" : "_ZTIj"
  },
  {
   "alignment" : 4,
   "enum_fields" :
   [
    {
     "enum_field_value" : 1,
     "name" : "llvm::AlignOf<llvm::FunctionType>::Alignment_GreaterEqual_8Bytes"
    }
   ],
   "linker_set_key" : "_ZTIN4llvm7AlignOfINS_12FunctionTypeEE30$Alignment_GreaterEqual_8BytesE",
   "name" : "llvm::AlignOf<FunctionType>::(anonymous enum at external/llvm/include/llvm/Support/AlignOf.h:88:3)",
   "referenced_type" : "_ZTIN4llvm7AlignOfINS_12FunctionTypeEE30$Alignment_GreaterEqual_8BytesE",
   "self_type" : "_ZTIN4llvm7AlignOfINS_12FunctionTypeEE30$Alignment_GreaterEqual_8BytesE",
   "size" : 4,
   "source_file" : "external/llvm/include/llvm/Support/AlignOf.h",
   "underlying_type" : "_ZTIj"
  },
  {
   "alignment" : 4,
   "enum_fields" :
   [
    {
     "enum_field_value" : 0,
     "name" : "llvm::AlignOf<llvm::FunctionType>::Alignment_GreaterEqual_16Bytes"
    }
   ],
   "linker_set_key" : "_ZTIN4llvm7AlignOfINS_12FunctionTypeEE31$Alignment_GreaterEqual_16BytesE",
   "name" : "llvm::AlignOf<FunctionType>::(anonymous enum at external/llvm/include/llvm/Support/AlignOf.h:89:3)",
   "referenced_type" : "_ZTIN4llvm7AlignOfINS_12FunctionTypeEE31$Alignment_GreaterEqual_16BytesE",
   "self_type" : "_ZTIN4llvm7AlignOfINS_12FunctionTypeEE31$Alignment_GreaterEqual_16BytesE",
   "size" : 4,
   "source_file" : "external/llvm/include/llvm/Support/AlignOf.h",
   "underlying_type" : "_ZTIj"
  },
  {
   "alignment" : 4,
   "enum_fields" :
   [
    {
     "enum_field_value" : 0,
     "name" : "llvm::AlignOf<llvm::StringMapEntryBase>::Alignment_LessEqual_2Bytes"
    }
   ],
   "linker_set_key" : "_ZTIN4llvm7AlignOfINS_18StringMapEntryBaseEE27$Alignment_LessEqual_2BytesE",
   "name" : "llvm::AlignOf<StringMapEntryBase>::(anonymous enum at external/llvm/include/llvm/Support/AlignOf.h:91:3)",
   "referenced_type" : "_ZTIN4llvm7AlignOfINS_18StringMapEntryBaseEE27$Alignment_LessEqual_2BytesE",
   "self_type" : "_ZTIN4llvm7AlignOfINS_18StringMapEntryBaseEE27$Alignment_LessEqual_2BytesE",
   "size" : 4,
   "source_file" : "external/llvm/include/llvm/Support/AlignOf.h",
   "underlying_type" : "_ZTIj"
  },
  {
   "alignment" : 4,
   "enum_fields" :
   [
    {
     "enum_field_value" : 1,
     "name" : "llvm::AlignOf<llvm::StringMapEntryBase>::Alignment_LessEqual_4Bytes"
    }
   ],
   "linker_set_key" : "_ZTIN4llvm7AlignOfINS_18StringMapEntryBaseEE27$Alignment_LessEqual_4BytesE",
   "name" : "llvm::AlignOf<StringMapEntryBase>::(anonymous enum at external/llvm/include/llvm/Support/AlignOf.h:92:3)",
   "referenced_type" : "_ZTIN4llvm7AlignOfINS_18StringMapEntryBaseEE27$Alignment_LessEqual_4BytesE",
   "self_type" : "_ZTIN4llvm7AlignOfINS_18StringMapEntryBaseEE27$Alignment_LessEqual_4BytesE",
   "size" : 4,
   "source_file" : "external/llvm/include/llvm/Support/AlignOf.h",
   "underlying_type" : "_ZTIj"
  },
  {
   "alignment" : 4,
   "enum_fields" :
   [
    {
     "enum_field_value" : 1,
     "name" : "llvm::AlignOf<llvm::StringMapEntryBase>::Alignment_LessEqual_8Bytes"
    }
   ],
   "linker_set_key" : "_ZTIN4llvm7AlignOfINS_18StringMapEntryBaseEE27$Alignment_LessEqual_8BytesE",
   "name" : "llvm::AlignOf<StringMapEntryBase>::(anonymous enum at external/llvm/include/llvm/Support/AlignOf.h:93:3)",
   "referenced_type" : "_ZTIN4llvm7AlignOfINS_18StringMapEntryBaseEE27$Alignment_LessEqual_8BytesE",
   "self_type" : "_ZTIN4llvm7AlignOfINS_18StringMapEntryBaseEE27$Alignment_LessEqual_8BytesE",
   "size" : 4,
   "source_file" : "external/llvm/include/llvm/Support/AlignOf.h",
   "underlying_type" : "_ZTIj"
  },
  {
   "alignment" : 4,
   "enum_fields" :
   [
    {
     "enum_field_value" : 1,
     "name" : "llvm::AlignOf<llvm::StringMapEntryBase>::Alignment_LessEqual_16Bytes"
    }
   ],
   "linker_set_key" : "_ZTIN4llvm7AlignOfINS_18StringMapEntryBaseEE28$Alignment_LessEqual_16BytesE",
   "name" : "llvm::AlignOf<StringMapEntryBase>::(anonymous enum at external/llvm/include/llvm/Support/AlignOf.h:94:3)",
   "referenced_type" : "_ZTIN4llvm7AlignOfINS_18StringMapEntryBaseEE28$Alignment_LessEqual_16BytesE",
   "self_type" : "_ZTIN4llvm7AlignOfINS_18StringMapEntryBaseEE28$Alignment_LessEqual_16BytesE",
   "size" : 4,
   "source_file" : "external/llvm/include/llvm/Support/AlignOf.h",
   "underlying_type" : "_ZTIj"
  },
  {
   "alignment" : 4,
   "enum_fields" :
   [
    {
     "enum_field_value" : 1,
     "name" : "llvm::AlignOf<llvm::StringMapEntryBase>::Alignment_GreaterEqual_2Bytes"
    }
   ],
   "linker_set_key" : "_ZTIN4llvm7AlignOfINS_18StringMapEntryBaseEE30$Alignment_GreaterEqual_2BytesE",
   "name" : "llvm::AlignOf<StringMapEntryBase>::(anonymous enum at external/llvm/include/llvm/Support/AlignOf.h:86:3)",
   "referenced_type" : "_ZTIN4llvm7AlignOfINS_18StringMapEntryBaseEE30$Alignment_GreaterEqual_2BytesE",
   "self_type" : "_ZTIN4llvm7AlignOfINS_18StringMapEntryBaseEE30$Alignment_GreaterEqual_2BytesE",
   "size" : 4,
   "source_file" : "external/llvm/include/llvm/Support/AlignOf.h",
   "underlying_type" : "_ZTIj"
  },
  {
   "alignment" : 4,
   "enum_fields" :
   [
    {
     "enum_field_value" : 1,
     "name" : "llvm::AlignOf<llvm::StringMapEntryBase>::Alignment_GreaterEqual_4Bytes"
    }
   ],
   "linker_set_key" : "_ZTIN4llvm7AlignOfINS_18StringMapEntryBaseEE30$Alignment_GreaterEqual_4BytesE",
   "name" : "llvm::AlignOf<StringMapEntryBase>::(anonymous enum at external/llvm/include/llvm/Support/AlignOf.h:87:3)",
   "referenced_type" : "_ZTIN4llvm7AlignOfINS_18StringMapEntryBaseEE30$Alignment_GreaterEqual_4BytesE",
   "self_type" : "_ZTIN4llvm7AlignOfINS_18StringMapEntryBaseEE30$Alignment_GreaterEqual_4BytesE",
   "size" : 4,
   "source_file" : "external/llvm/include/llvm/Support/AlignOf.h",
   "underlying_type" : "_ZTIj"
  },
  {
   "alignment" : 4,
   "enum_fields" :
   [
    {
     "enum_field_value" : 0,
     "name" : "llvm::AlignOf<llvm::StringMapEntryBase>::Alignment_GreaterEqual_8Bytes"
    }
   ],
   "linker_set_key" : "_ZTIN4llvm7AlignOfINS_18StringMapEntryBaseEE30$Alignment_GreaterEqual_8BytesE",
   "name" : "llvm::AlignOf<StringMapEntryBase>::(anonymous enum at external/llvm/include/llvm/Support/AlignOf.h:88:3)",
   "referenced_type" : "_ZTIN4llvm7AlignOfINS_18StringMapEntryBaseEE30$Alignment_GreaterEqual_8BytesE",
   "self_type" : "_ZTIN4llvm7AlignOfINS_18StringMapEntryBaseEE30$Alignment_GreaterEqual_8BytesE",
   "size" : 4,
   "source_file" : "external/llvm/include/llvm/Support/AlignOf.h",
   "underlying_type" : "_ZTIj"
  },
  {
   "alignment" : 4,
   "enum_fields" :
   [
    {
     "enum_field_value" : 0,
     "name" : "llvm::AlignOf<llvm::StringMapEntryBase>::Alignment_GreaterEqual_16Bytes"
    }
   ],
   "linker_set_key" : "_ZTIN4llvm7AlignOfINS_18StringMapEntryBaseEE31$Alignment_GreaterEqual_16BytesE",
   "name" : "llvm::AlignOf<StringMapEntryBase>::(anonymous enum at external/llvm/include/llvm/Support/AlignOf.h:89:3)",
   "referenced_type" : "_ZTIN4llvm7AlignOfINS_18StringMapEntryBaseEE31$Alignment_GreaterEqual_16BytesE",
   "self_type" : "_ZTIN4llvm7AlignOfINS_18StringMapEntryBaseEE31$Alignment_GreaterEqual_16BytesE",
   "size" : 4,
   "source_file" : "external/llvm/include/llvm/Support/AlignOf.h",
   "underlying_type" : "_ZTIj"
  },
  {
   "alignment" : 4,
   "enum_fields" :
   [
    {
     "enum_field_value" : 0,
     "name" : "llvm::AlignOf<llvm::cl::SubCommand>::Alignment_LessEqual_2Bytes"
    }
   ],
   "linker_set_key" : "_ZTIN4llvm7AlignOfINS_2cl10SubCommandEE27$Alignment_LessEqual_2BytesE",
   "name" : "llvm::AlignOf<SubCommand>::(anonymous enum at external/llvm/include/llvm/Support/AlignOf.h:91:3)",
   "referenced_type" : "_ZTIN4llvm7AlignOfINS_2cl10SubCommandEE27$Alignment_LessEqual_2BytesE",
   "self_type" : "_ZTIN4llvm7AlignOfINS_2cl10SubCommandEE27$Alignment_LessEqual_2BytesE",
   "size" : 4,
   "source_file" : "external/llvm/include/llvm/Support/AlignOf.h",
   "underlying_type" : "_ZTIj"
  },
  {
   "alignment" : 4,
   "enum_fields" :
   [
    {
     "enum_field_value" : 0,
     "name" : "llvm::AlignOf<llvm::cl::SubCommand>::Alignment_LessEqual_4Bytes"
    }
   ],
   "linker_set_key" : "_ZTIN4llvm7AlignOfINS_2cl10SubCommandEE27$Alignment_LessEqual_4BytesE",
   "name" : "llvm::AlignOf<SubCommand>::(anonymous enum at external/llvm/include/llvm/Support/AlignOf.h:92:3)",
   "referenced_type" : "_ZTIN4llvm7AlignOfINS_2cl10SubCommandEE27$Alignment_LessEqual_4BytesE",
   "self_type" : "_ZTIN4llvm7AlignOfINS_2cl10SubCommandEE27$Alignment_LessEqual_4BytesE",
   "size" : 4,
   "source_file" : "external/llvm/include/llvm/Support/AlignOf.h",
   "underlying_type" : "_ZTIj"
  },
  {
   "alignment" : 4,
   "enum_fields" :
   [
    {
     "enum_field_value" : 1,
     "name" : "llvm::AlignOf<llvm::cl::SubCommand>::Alignment_LessEqual_8Bytes"
    }
   ],
   "linker_set_key" : "_ZTIN4llvm7AlignOfINS_2cl10SubCommandEE27$Alignment_LessEqual_8BytesE",
   "name" : "llvm::AlignOf<SubCommand>::(anonymous enum at external/llvm/include/llvm/Support/AlignOf.h:93:3)",
   "referenced_type" : "_ZTIN4llvm7AlignOfINS_2cl10SubCommandEE27$Alignment_LessEqual_8BytesE",
   "self_type" : "_ZTIN4llvm7AlignOfINS_2cl10SubCommandEE27$Alignment_LessEqual_8BytesE",
   "size" : 4,
   "source_file" : "external/llvm/include/llvm/Support/AlignOf.h",
   "underlying_type" : "_ZTIj"
  },
  {
   "alignment" : 4,
   "enum_fields" :
   [
    {
     "enum_field_value" : 1,
     "name" : "llvm::AlignOf<llvm::cl::SubCommand>::Alignment_LessEqual_16Bytes"
    }
   ],
   "linker_set_key" : "_ZTIN4llvm7AlignOfINS_2cl10SubCommandEE28$Alignment_LessEqual_16BytesE",
   "name" : "llvm::AlignOf<SubCommand>::(anonymous enum at external/llvm/include/llvm/Support/AlignOf.h:94:3)",
   "referenced_type" : "_ZTIN4llvm7AlignOfINS_2cl10SubCommandEE28$Alignment_LessEqual_16BytesE",
   "self_type" : "_ZTIN4llvm7AlignOfINS_2cl10SubCommandEE28$Alignment_LessEqual_16BytesE",
   "size" : 4,
   "source_file" : "external/llvm/include/llvm/Support/AlignOf.h",
   "underlying_type" : "_ZTIj"
  },
  {
   "alignment" : 4,
   "enum_fields" :
   [
    {
     "enum_field_value" : 1,
     "name" : "llvm::AlignOf<llvm::cl::SubCommand>::Alignment_GreaterEqual_2Bytes"
    }
   ],
   "linker_set_key" : "_ZTIN4llvm7AlignOfINS_2cl10SubCommandEE30$Alignment_GreaterEqual_2BytesE",
   "name" : "llvm::AlignOf<SubCommand>::(anonymous enum at external/llvm/include/llvm/Support/AlignOf.h:86:3)",
   "referenced_type" : "_ZTIN4llvm7AlignOfINS_2cl10SubCommandEE30$Alignment_GreaterEqual_2BytesE",
   "self_type" : "_ZTIN4llvm7AlignOfINS_2cl10SubCommandEE30$Alignment_GreaterEqual_2BytesE",
   "size" : 4,
   "source_file" : "external/llvm/include/llvm/Support/AlignOf.h",
   "underlying_type" : "_ZTIj"
  },
  {
   "alignment" : 4,
   "enum_fields" :
   [
    {
     "enum_field_value" : 1,
     "name" : "llvm::AlignOf<llvm::cl::SubCommand>::Alignment_GreaterEqual_4Bytes"
    }
   ],
   "linker_set_key" : "_ZTIN4llvm7AlignOfINS_2cl10SubCommandEE30$Alignment_GreaterEqual_4BytesE",
   "name" : "llvm::AlignOf<SubCommand>::(anonymous enum at external/llvm/include/llvm/Support/AlignOf.h:87:3)",
   "referenced_type" : "_ZTIN4llvm7AlignOfINS_2cl10SubCommandEE30$Alignment_GreaterEqual_4BytesE",
   "self_type" : "_ZTIN4llvm7AlignOfINS_2cl10SubCommandEE30$Alignment_GreaterEqual_4BytesE",
   "size" : 4,
   "source_file" : "external/llvm/include/llvm/Support/AlignOf.h",
   "underlying_type" : "_ZTIj"
  },
  {
   "alignment" : 4,
   "enum_fields" :
   [
    {
     "enum_field_value" : 1,
     "name" : "llvm::AlignOf<llvm::cl::SubCommand>::Alignment_GreaterEqual_8Bytes"
    }
   ],
   "linker_set_key" : "_ZTIN4llvm7AlignOfINS_2cl10SubCommandEE30$Alignment_GreaterEqual_8BytesE",
   "name" : "llvm::AlignOf<SubCommand>::(anonymous enum at external/llvm/include/llvm/Support/AlignOf.h:88:3)",
   "referenced_type" : "_ZTIN4llvm7AlignOfINS_2cl10SubCommandEE30$Alignment_GreaterEqual_8BytesE",
   "self_type" : "_ZTIN4llvm7AlignOfINS_2cl10SubCommandEE30$Alignment_GreaterEqual_8BytesE",
   "size" : 4,
   "source_file" : "external/llvm/include/llvm/Support/AlignOf.h",
   "underlying_type" : "_ZTIj"
  },
  {
   "alignment" : 4,
   "enum_fields" :
   [
    {
     "enum_field_value" : 0,
     "name" : "llvm::AlignOf<llvm::cl::SubCommand>::Alignment_GreaterEqual_16Bytes"
    }
   ],
   "linker_set_key" : "_ZTIN4llvm7AlignOfINS_2cl10SubCommandEE31$Alignment_GreaterEqual_16BytesE",
   "name" : "llvm::AlignOf<SubCommand>::(anonymous enum at external/llvm/include/llvm/Support/AlignOf.h:89:3)",
   "referenced_type" : "_ZTIN4llvm7AlignOfINS_2cl10SubCommandEE31$Alignment_GreaterEqual_16BytesE",
   "self_type" : "_ZTIN4llvm7AlignOfINS_2cl10SubCommandEE31$Alignment_GreaterEqual_16BytesE",
   "size" : 4,
   "source_file" : "external/llvm/include/llvm/Support/AlignOf.h",
   "underlying_type" : "_ZTIj"
  },
  {
   "alignment" : 4,
   "enum_fields" :
   [
    {
     "enum_field_value" : 0,
     "name" : "llvm::AlignOf<llvm::detail::AlignerImpl<llvm::StringRef, char, char, char, char, char, char, char, char, char>>::Alignment_LessEqual_2Bytes"
    }
   ],
   "linker_set_key" : "_ZTIN4llvm7AlignOfINS_6detail11AlignerImplINS_9StringRefEcccccccccEEE27$Alignment_LessEqual_2BytesE",
   "name" : "llvm::AlignOf<AlignerImpl<StringRef, char, char, char, char, char, char, char, char, char>>::(anonymous enum at external/llvm/include/llvm/Support/AlignOf.h:91:3)",
   "referenced_type" : "_ZTIN4llvm7AlignOfINS_6detail11AlignerImplINS_9StringRefEcccccccccEEE27$Alignment_LessEqual_2BytesE",
   "self_type" : "_ZTIN4llvm7AlignOfINS_6detail11AlignerImplINS_9StringRefEcccccccccEEE27$Alignment_LessEqual_2BytesE",
   "size" : 4,
   "source_file" : "external/llvm/include/llvm/Support/AlignOf.h",
   "underlying_type" : "_ZTIj"
  },
  {
   "alignment" : 4,
   "enum_fields" :
   [
    {
     "enum_field_value" : 0,
     "name" : "llvm::AlignOf<llvm::detail::AlignerImpl<llvm::StringRef, char, char, char, char, char, char, char, char, char>>::Alignment_LessEqual_4Bytes"
    }
   ],
   "linker_set_key" : "_ZTIN4llvm7AlignOfINS_6detail11AlignerImplINS_9StringRefEcccccccccEEE27$Alignment_LessEqual_4BytesE",
   "name" : "llvm::AlignOf<AlignerImpl<StringRef, char, char, char, char, char, char, char, char, char>>::(anonymous enum at external/llvm/include/llvm/Support/AlignOf.h:92:3)",
   "referenced_type" : "_ZTIN4llvm7AlignOfINS_6detail11AlignerImplINS_9StringRefEcccccccccEEE27$Alignment_LessEqual_4BytesE",
   "self_type" : "_ZTIN4llvm7AlignOfINS_6detail11AlignerImplINS_9StringRefEcccccccccEEE27$Alignment_LessEqual_4BytesE",
   "size" : 4,
   "source_file" : "external/llvm/include/llvm/Support/AlignOf.h",
   "underlying_type" : "_ZTIj"
  },
  {
   "alignment" : 4,
   "enum_fields" :
   [
    {
     "enum_field_value" : 1,
     "name" : "llvm::AlignOf<llvm::detail::AlignerImpl<llvm::StringRef, char, char, char, char, char, char, char, char, char>>::Alignment_LessEqual_8Bytes"
    }
   ],
   "linker_set_key" : "_ZTIN4llvm7AlignOfINS_6detail11AlignerImplINS_9StringRefEcccccccccEEE27$Alignment_LessEqual_8BytesE",
   "name" : "llvm::AlignOf<AlignerImpl<StringRef, char, char, char, char, char, char, char, char, char>>::(anonymous enum at external/llvm/include/llvm/Support/AlignOf.h:93:3)",
   "referenced_type" : "_ZTIN4llvm7AlignOfINS_6detail11AlignerImplINS_9StringRefEcccccccccEEE27$Alignment_LessEqual_8BytesE",
   "self_type" : "_ZTIN4llvm7AlignOfINS_6detail11AlignerImplINS_9StringRefEcccccccccEEE27$Alignment_LessEqual_8BytesE",
   "size" : 4,
   "source_file" : "external/llvm/include/llvm/Support/AlignOf.h",
   "underlying_type" : "_ZTIj"
  },
  {
   "alignment" : 4,
   "enum_fields" :
   [
    {
     "enum_field_value" : 1,
     "name" : "llvm::AlignOf<llvm::detail::AlignerImpl<llvm::StringRef, char, char, char, char, char, char, char, char, char>>::Alignment_LessEqual_16Bytes"
    }
   ],
   "linker_set_key" : "_ZTIN4llvm7AlignOfINS_6detail11AlignerImplINS_9StringRefEcccccccccEEE28$Alignment_LessEqual_16BytesE",
   "name" : "llvm::AlignOf<AlignerImpl<StringRef, char, char, char, char, char, char, char, char, char>>::(anonymous enum at external/llvm/include/llvm/Support/AlignOf.h:94:3)",
   "referenced_type" : "_ZTIN4llvm7AlignOfINS_6detail11AlignerImplINS_9StringRefEcccccccccEEE28$Alignment_LessEqual_16BytesE",
   "self_type" : "_ZTIN4llvm7AlignOfINS_6detail11AlignerImplINS_9StringRefEcccccccccEEE28$Alignment_LessEqual_16BytesE",
   "size" : 4,
   "source_file" : "external/llvm/include/llvm/Support/AlignOf.h",
   "underlying_type" : "_ZTIj"
  },
  {
   "alignment" : 4,
   "enum_fields" :
   [
    {
     "enum_field_value" : 1,
     "name" : "llvm::AlignOf<llvm::detail::AlignerImpl<llvm::StringRef, char, char, char, char, char, char, char, char, char>>::Alignment_GreaterEqual_2Bytes"
    }
   ],
   "linker_set_key" : "_ZTIN4llvm7AlignOfINS_6detail11AlignerImplINS_9StringRefEcccccccccEEE30$Alignment_GreaterEqual_2BytesE",
   "name" : "llvm::AlignOf<AlignerImpl<StringRef, char, char, char, char, char, char, char, char, char>>::(anonymous enum at external/llvm/include/llvm/Support/AlignOf.h:86:3)",
   "referenced_type" : "_ZTIN4llvm7AlignOfINS_6detail11AlignerImplINS_9StringRefEcccccccccEEE30$Alignment_GreaterEqual_2BytesE",
   "self_type" : "_ZTIN4llvm7AlignOfINS_6detail11AlignerImplINS_9StringRefEcccccccccEEE30$Alignment_GreaterEqual_2BytesE",
   "size" : 4,
   "source_file" : "external/llvm/include/llvm/Support/AlignOf.h",
   "underlying_type" : "_ZTIj"
  },
  {
   "alignment" : 4,
   "enum_fields" :
   [
    {
     "enum_field_value" : 1,
     "name" : "llvm::AlignOf<llvm::detail::AlignerImpl<llvm::StringRef, char, char, char, char, char, char, char, char, char>>::Alignment_GreaterEqual_4Bytes"
    }
   ],
   "linker_set_key" : "_ZTIN4llvm7AlignOfINS_6detail11AlignerImplINS_9StringRefEcccccccccEEE30$Alignment_GreaterEqual_4BytesE",
   "name" : "llvm::AlignOf<AlignerImpl<StringRef, char, char, char, char, char, char, char, char, char>>::(anonymous enum at external/llvm/include/llvm/Support/AlignOf.h:87:3)",
   "referenced_type" : "_ZTIN4llvm7AlignOfINS_6detail11AlignerImplINS_9StringRefEcccccccccEEE30$Alignment_GreaterEqual_4BytesE",
   "self_type" : "_ZTIN4llvm7AlignOfINS_6detail11AlignerImplINS_9StringRefEcccccccccEEE30$Alignment_GreaterEqual_4BytesE",
   "size" : 4,
   "source_file" : "external/llvm/include/llvm/Support/AlignOf.h",
   "underlying_type" : "_ZTIj"
  },
  {
   "alignment" : 4,
   "enum_fields" :
   [
    {
     "enum_field_value" : 1,
     "name" : "llvm::AlignOf<llvm::detail::AlignerImpl<llvm::StringRef, char, char, char, char, char, char, char, char, char>>::Alignment_GreaterEqual_8Bytes"
    }
   ],
   "linker_set_key" : "_ZTIN4llvm7AlignOfINS_6detail11AlignerImplINS_9StringRefEcccccccccEEE30$Alignment_GreaterEqual_8BytesE",
   "name" : "llvm::AlignOf<AlignerImpl<StringRef, char, char, char, char, char, char, char, char, char>>::(anonymous enum at external/llvm/include/llvm/Support/AlignOf.h:88:3)",
   "referenced_type" : "_ZTIN4llvm7AlignOfINS_6detail11AlignerImplINS_9StringRefEcccccccccEEE30$Alignment_GreaterEqual_8BytesE",
   "self_type" : "_ZTIN4llvm7AlignOfINS_6detail11AlignerImplINS_9StringRefEcccccccccEEE30$Alignment_GreaterEqual_8BytesE",
   "size" : 4,
   "source_file" : "external/llvm/include/llvm/Support/AlignOf.h",
   "underlying_type" : "_ZTIj"
  },
  {
   "alignment" : 4,
   "enum_fields" :
   [
    {
     "enum_field_value" : 0,
     "name" : "llvm::AlignOf<llvm::detail::AlignerImpl<llvm::StringRef, char, char, char, char, char, char, char, char, char>>::Alignment_GreaterEqual_16Bytes"
    }
   ],
   "linker_set_key" : "_ZTIN4llvm7AlignOfINS_6detail11AlignerImplINS_9StringRefEcccccccccEEE31$Alignment_GreaterEqual_16BytesE",
   "name" : "llvm::AlignOf<AlignerImpl<StringRef, char, char, char, char, char, char, char, char, char>>::(anonymous enum at external/llvm/include/llvm/Support/AlignOf.h:89:3)",
   "referenced_type" : "_ZTIN4llvm7AlignOfINS_6detail11AlignerImplINS_9StringRefEcccccccccEEE31$Alignment_GreaterEqual_16BytesE",
   "self_type" : "_ZTIN4llvm7AlignOfINS_6detail11AlignerImplINS_9StringRefEcccccccccEEE31$Alignment_GreaterEqual_16BytesE",
   "size" : 4,
   "source_file" : "external/llvm/include/llvm/Support/AlignOf.h",
   "underlying_type" : "_ZTIj"
  },
  {
   "alignment" : 4,
   "enum_fields" :
   [
    {
     "enum_field_value" : 0,
     "name" : "llvm::AlignOf<llvm::detail::AlignerImpl<std::__1::pair<const char *, std::__1::pair<int, const char *>>, char, char, char, char, char, char, char, char, char>>::Alignment_LessEqual_2Bytes"
    }
   ],
   "linker_set_key" : "_ZTIN4llvm7AlignOfINS_6detail11AlignerImplINSt3__14pairIPKcNS4_IiS6_EEEEcccccccccEEE27$Alignment_LessEqual_2BytesE",
   "name" : "llvm::AlignOf<AlignerImpl<pair<const char *, pair<int, const char *>>, char, char, char, char, char, char, char, char, char>>::(anonymous enum at external/llvm/include/llvm/Support/AlignOf.h:91:3)",
   "referenced_type" : "_ZTIN4llvm7AlignOfINS_6detail11AlignerImplINSt3__14pairIPKcNS4_IiS6_EEEEcccccccccEEE27$Alignment_LessEqual_2BytesE",
   "self_type" : "_ZTIN4llvm7AlignOfINS_6detail11AlignerImplINSt3__14pairIPKcNS4_IiS6_EEEEcccccccccEEE27$Alignment_LessEqual_2BytesE",
   "size" : 4,
   "source_file" : "external/llvm/include/llvm/Support/AlignOf.h",
   "underlying_type" : "_ZTIj"
  },
  {
   "alignment" : 4,
   "enum_fields" :
   [
    {
     "enum_field_value" : 0,
     "name" : "llvm::AlignOf<llvm::detail::AlignerImpl<std::__1::pair<const char *, std::__1::pair<int, const char *>>, char, char, char, char, char, char, char, char, char>>::Alignment_LessEqual_4Bytes"
    }
   ],
   "linker_set_key" : "_ZTIN4llvm7AlignOfINS_6detail11AlignerImplINSt3__14pairIPKcNS4_IiS6_EEEEcccccccccEEE27$Alignment_LessEqual_4BytesE",
   "name" : "llvm::AlignOf<AlignerImpl<pair<const char *, pair<int, const char *>>, char, char, char, char, char, char, char, char, char>>::(anonymous enum at external/llvm/include/llvm/Support/AlignOf.h:92:3)",
   "referenced_type" : "_ZTIN4llvm7AlignOfINS_6detail11AlignerImplINSt3__14pairIPKcNS4_IiS6_EEEEcccccccccEEE27$Alignment_LessEqual_4BytesE",
   "self_type" : "_ZTIN4llvm7AlignOfINS_6detail11AlignerImplINSt3__14pairIPKcNS4_IiS6_EEEEcccccccccEEE27$Alignment_LessEqual_4BytesE",
   "size" : 4,
   "source_file" : "external/llvm/include/llvm/Support/AlignOf.h",
   "underlying_type" : "_ZTIj"
  },
  {
   "alignment" : 4,
   "enum_fields" :
   [
    {
     "enum_field_value" : 1,
     "name" : "llvm::AlignOf<llvm::detail::AlignerImpl<std::__1::pair<const char *, std::__1::pair<int, const char *>>, char, char, char, char, char, char, char, char, char>>::Alignment_LessEqual_8Bytes"
    }
   ],
   "linker_set_key" : "_ZTIN4llvm7AlignOfINS_6detail11AlignerImplINSt3__14pairIPKcNS4_IiS6_EEEEcccccccccEEE27$Alignment_LessEqual_8BytesE",
   "name" : "llvm::AlignOf<AlignerImpl<pair<const char *, pair<int, const char *>>, char, char, char, char, char, char, char, char, char>>::(anonymous enum at external/llvm/include/llvm/Support/AlignOf.h:93:3)",
   "referenced_type" : "_ZTIN4llvm7AlignOfINS_6detail11AlignerImplINSt3__14pairIPKcNS4_IiS6_EEEEcccccccccEEE27$Alignment_LessEqual_8BytesE",
   "self_type" : "_ZTIN4llvm7AlignOfINS_6detail11AlignerImplINSt3__14pairIPKcNS4_IiS6_EEEEcccccccccEEE27$Alignment_LessEqual_8BytesE",
   "size" : 4,
   "source_file" : "external/llvm/include/llvm/Support/AlignOf.h",
   "underlying_type" : "_ZTIj"
  },
  {
   "alignment" : 4,
   "enum_fields" :
   [
    {
     "enum_field_value" : 1,
     "name" : "llvm::AlignOf<llvm::detail::AlignerImpl<std::__1::pair<const char *, std::__1::pair<int, const char *>>, char, char, char, char, char, char, char, char, char>>::Alignment_LessEqual_16Bytes"
    }
   ],
   "linker_set_key" : "_ZTIN4llvm7AlignOfINS_6detail11AlignerImplINSt3__14pairIPKcNS4_IiS6_EEEEcccccccccEEE28$Alignment_LessEqual_16BytesE",
   "name" : "llvm::AlignOf<AlignerImpl<pair<const char *, pair<int, const char *>>, char, char, char, char, char, char, char, char, char>>::(anonymous enum at external/llvm/include/llvm/Support/AlignOf.h:94:3)",
   "referenced_type" : "_ZTIN4llvm7AlignOfINS_6detail11AlignerImplINSt3__14pairIPKcNS4_IiS6_EEEEcccccccccEEE28$Alignment_LessEqual_16BytesE",
   "self_type" : "_ZTIN4llvm7AlignOfINS_6detail11AlignerImplINSt3__14pairIPKcNS4_IiS6_EEEEcccccccccEEE28$Alignment_LessEqual_16BytesE",
   "size" : 4,
   "source_file" : "external/llvm/include/llvm/Support/AlignOf.h",
   "underlying_type" : "_ZTIj"
  },
  {
   "alignment" : 4,
   "enum_fields" :
   [
    {
     "enum_field_value" : 1,
     "name" : "llvm::AlignOf<llvm::detail::AlignerImpl<std::__1::pair<const char *, std::__1::pair<int, const char *>>, char, char, char, char, char, char, char, char, char>>::Alignment_GreaterEqual_2Bytes"
    }
   ],
   "linker_set_key" : "_ZTIN4llvm7AlignOfINS_6detail11AlignerImplINSt3__14pairIPKcNS4_IiS6_EEEEcccccccccEEE30$Alignment_GreaterEqual_2BytesE",
   "name" : "llvm::AlignOf<AlignerImpl<pair<const char *, pair<int, const char *>>, char, char, char, char, char, char, char, char, char>>::(anonymous enum at external/llvm/include/llvm/Support/AlignOf.h:86:3)",
   "referenced_type" : "_ZTIN4llvm7AlignOfINS_6detail11AlignerImplINSt3__14pairIPKcNS4_IiS6_EEEEcccccccccEEE30$Alignment_GreaterEqual_2BytesE",
   "self_type" : "_ZTIN4llvm7AlignOfINS_6detail11AlignerImplINSt3__14pairIPKcNS4_IiS6_EEEEcccccccccEEE30$Alignment_GreaterEqual_2BytesE",
   "size" : 4,
   "source_file" : "external/llvm/include/llvm/Support/AlignOf.h",
   "underlying_type" : "_ZTIj"
  },
  {
   "alignment" : 4,
   "enum_fields" :
   [
    {
     "enum_field_value" : 1,
     "name" : "llvm::AlignOf<llvm::detail::AlignerImpl<std::__1::pair<const char *, std::__1::pair<int, const char *>>, char, char, char, char, char, char, char, char, char>>::Alignment_GreaterEqual_4Bytes"
    }
   ],
   "linker_set_key" : "_ZTIN4llvm7AlignOfINS_6detail11AlignerImplINSt3__14pairIPKcNS4_IiS6_EEEEcccccccccEEE30$Alignment_GreaterEqual_4BytesE",
   "name" : "llvm::AlignOf<AlignerImpl<pair<const char *, pair<int, const char *>>, char, char, char, char, char, char, char, char, char>>::(anonymous enum at external/llvm/include/llvm/Support/AlignOf.h:87:3)",
   "referenced_type" : "_ZTIN4llvm7AlignOfINS_6detail11AlignerImplINSt3__14pairIPKcNS4_IiS6_EEEEcccccccccEEE30$Alignment_GreaterEqual_4BytesE",
   "self_type" : "_ZTIN4llvm7AlignOfINS_6detail11AlignerImplINSt3__14pairIPKcNS4_IiS6_EEEEcccccccccEEE30$Alignment_GreaterEqual_4BytesE",
   "size" : 4,
   "source_file" : "external/llvm/include/llvm/Support/AlignOf.h",
   "underlying_type" : "_ZTIj"
  },
  {
   "alignment" : 4,
   "enum_fields" :
   [
    {
     "enum_field_value" : 1,
     "name" : "llvm::AlignOf<llvm::detail::AlignerImpl<std::__1::pair<const char *, std::__1::pair<int, const char *>>, char, char, char, char, char, char, char, char, char>>::Alignment_GreaterEqual_8Bytes"
    }
   ],
   "linker_set_key" : "_ZTIN4llvm7AlignOfINS_6detail11AlignerImplINSt3__14pairIPKcNS4_IiS6_EEEEcccccccccEEE30$Alignment_GreaterEqual_8BytesE",
   "name" : "llvm::AlignOf<AlignerImpl<pair<const char *, pair<int, const char *>>, char, char, char, char, char, char, char, char, char>>::(anonymous enum at external/llvm/include/llvm/Support/AlignOf.h:88:3)",
   "referenced_type" : "_ZTIN4llvm7AlignOfINS_6detail11AlignerImplINSt3__14pairIPKcNS4_IiS6_EEEEcccccccccEEE30$Alignment_GreaterEqual_8BytesE",
   "self_type" : "_ZTIN4llvm7AlignOfINS_6detail11AlignerImplINSt3__14pairIPKcNS4_IiS6_EEEEcccccccccEEE30$Alignment_GreaterEqual_8BytesE",
   "size" : 4,
   "source_file" : "external/llvm/include/llvm/Support/AlignOf.h",
   "underlying_type" : "_ZTIj"
  },
  {
   "alignment" : 4,
   "enum_fields" :
   [
    {
     "enum_field_value" : 0,
     "name" : "llvm::AlignOf<llvm::detail::AlignerImpl<std::__1::pair<const char *, std::__1::pair<int, const char *>>, char, char, char, char, char, char, char, char, char>>::Alignment_GreaterEqual_16Bytes"
    }
   ],
   "linker_set_key" : "_ZTIN4llvm7AlignOfINS_6detail11AlignerImplINSt3__14pairIPKcNS4_IiS6_EEEEcccccccccEEE31$Alignment_GreaterEqual_16BytesE",
   "name" : "llvm::AlignOf<AlignerImpl<pair<const char *, pair<int, const char *>>, char, char, char, char, char, char, char, char, char>>::(anonymous enum at external/llvm/include/llvm/Support/AlignOf.h:89:3)",
   "referenced_type" : "_ZTIN4llvm7AlignOfINS_6detail11AlignerImplINSt3__14pairIPKcNS4_IiS6_EEEEcccccccccEEE31$Alignment_GreaterEqual_16BytesE",
   "self_type" : "_ZTIN4llvm7AlignOfINS_6detail11AlignerImplINSt3__14pairIPKcNS4_IiS6_EEEEcccccccccEEE31$Alignment_GreaterEqual_16BytesE",
   "size" : 4,
   "source_file" : "external/llvm/include/llvm/Support/AlignOf.h",
   "underlying_type" : "_ZTIj"
  },
  {
   "alignment" : 4,
   "enum_fields" :
   [
    {
     "enum_field_value" : 0,
     "name" : "llvm::AlignOf<llvm::detail::AlignerImpl<std::__1::pair<void *, unsigned long>, char, char, char, char, char, char, char, char, char>>::Alignment_LessEqual_2Bytes"
    }
   ],
   "linker_set_key" : "_ZTIN4llvm7AlignOfINS_6detail11AlignerImplINSt3__14pairIPvmEEcccccccccEEE27$Alignment_LessEqual_2BytesE",
   "name" : "llvm::AlignOf<AlignerImpl<pair<void *, unsigned long>, char, char, char, char, char, char, char, char, char>>::(anonymous enum at external/llvm/include/llvm/Support/AlignOf.h:91:3)",
   "referenced_type" : "_ZTIN4llvm7AlignOfINS_6detail11AlignerImplINSt3__14pairIPvmEEcccccccccEEE27$Alignment_LessEqual_2BytesE",
   "self_type" : "_ZTIN4llvm7AlignOfINS_6detail11AlignerImplINSt3__14pairIPvmEEcccccccccEEE27$Alignment_LessEqual_2BytesE",
   "size" : 4,
   "source_file" : "external/llvm/include/llvm/Support/AlignOf.h",
   "underlying_type" : "_ZTIj"
  },
  {
   "alignment" : 4,
   "enum_fields" :
   [
    {
     "enum_field_value" : 0,
     "name" : "llvm::AlignOf<llvm::detail::AlignerImpl<std::__1::pair<void *, unsigned long>, char, char, char, char, char, char, char, char, char>>::Alignment_LessEqual_4Bytes"
    }
   ],
   "linker_set_key" : "_ZTIN4llvm7AlignOfINS_6detail11AlignerImplINSt3__14pairIPvmEEcccccccccEEE27$Alignment_LessEqual_4BytesE",
   "name" : "llvm::AlignOf<AlignerImpl<pair<void *, unsigned long>, char, char, char, char, char, char, char, char, char>>::(anonymous enum at external/llvm/include/llvm/Support/AlignOf.h:92:3)",
   "referenced_type" : "_ZTIN4llvm7AlignOfINS_6detail11AlignerImplINSt3__14pairIPvmEEcccccccccEEE27$Alignment_LessEqual_4BytesE",
   "self_type" : "_ZTIN4llvm7AlignOfINS_6detail11AlignerImplINSt3__14pairIPvmEEcccccccccEEE27$Alignment_LessEqual_4BytesE",
   "size" : 4,
   "source_file" : "external/llvm/include/llvm/Support/AlignOf.h",
   "underlying_type" : "_ZTIj"
  },
  {
   "alignment" : 4,
   "enum_fields" :
   [
    {
     "enum_field_value" : 1,
     "name" : "llvm::AlignOf<llvm::detail::AlignerImpl<std::__1::pair<void *, unsigned long>, char, char, char, char, char, char, char, char, char>>::Alignment_LessEqual_8Bytes"
    }
   ],
   "linker_set_key" : "_ZTIN4llvm7AlignOfINS_6detail11AlignerImplINSt3__14pairIPvmEEcccccccccEEE27$Alignment_LessEqual_8BytesE",
   "name" : "llvm::AlignOf<AlignerImpl<pair<void *, unsigned long>, char, char, char, char, char, char, char, char, char>>::(anonymous enum at external/llvm/include/llvm/Support/AlignOf.h:93:3)",
   "referenced_type" : "_ZTIN4llvm7AlignOfINS_6detail11AlignerImplINSt3__14pairIPvmEEcccccccccEEE27$Alignment_LessEqual_8BytesE",
   "self_type" : "_ZTIN4llvm7AlignOfINS_6detail11AlignerImplINSt3__14pairIPvmEEcccccccccEEE27$Alignment_LessEqual_8BytesE",
   "size" : 4,
   "source_file" : "external/llvm/include/llvm/Support/AlignOf.h",
   "underlying_type" : "_ZTIj"
  },
  {
   "alignment" : 4,
   "enum_fields" :
   [
    {
     "enum_field_value" : 1,
     "name" : "llvm::AlignOf<llvm::detail::AlignerImpl<std::__1::pair<void *, unsigned long>, char, char, char, char, char, char, char, char, char>>::Alignment_LessEqual_16Bytes"
    }
   ],
   "linker_set_key" : "_ZTIN4llvm7AlignOfINS_6detail11AlignerImplINSt3__14pairIPvmEEcccccccccEEE28$Alignment_LessEqual_16BytesE",
   "name" : "llvm::AlignOf<AlignerImpl<pair<void *, unsigned long>, char, char, char, char, char, char, char, char, char>>::(anonymous enum at external/llvm/include/llvm/Support/AlignOf.h:94:3)",
   "referenced_type" : "_ZTIN4llvm7AlignOfINS_6detail11AlignerImplINSt3__14pairIPvmEEcccccccccEEE28$Alignment_LessEqual_16BytesE",
   "self_type" : "_ZTIN4llvm7AlignOfINS_6detail11AlignerImplINSt3__14pairIPvmEEcccccccccEEE28$Alignment_LessEqual_16BytesE",
   "size" : 4,
   "source_file" : "external/llvm/include/llvm/Support/AlignOf.h",
   "underlying_type" : "_ZTIj"
  },
  {
   "alignment" : 4,
   "enum_fields" :
   [
    {
     "enum_field_value" : 1,
     "name" : "llvm::AlignOf<llvm::detail::AlignerImpl<std::__1::pair<void *, unsigned long>, char, char, char, char, char, char, char, char, char>>::Alignment_GreaterEqual_2Bytes"
    }
   ],
   "linker_set_key" : "_ZTIN4llvm7AlignOfINS_6detail11AlignerImplINSt3__14pairIPvmEEcccccccccEEE30$Alignment_GreaterEqual_2BytesE",
   "name" : "llvm::AlignOf<AlignerImpl<pair<void *, unsigned long>, char, char, char, char, char, char, char, char, char>>::(anonymous enum at external/llvm/include/llvm/Support/AlignOf.h:86:3)",
   "referenced_type" : "_ZTIN4llvm7AlignOfINS_6detail11AlignerImplINSt3__14pairIPvmEEcccccccccEEE30$Alignment_GreaterEqual_2BytesE",
   "self_type" : "_ZTIN4llvm7AlignOfINS_6detail11AlignerImplINSt3__14pairIPvmEEcccccccccEEE30$Alignment_GreaterEqual_2BytesE",
   "size" : 4,
   "source_file" : "external/llvm/include/llvm/Support/AlignOf.h",
   "underlying_type" : "_ZTIj"
  },
  {
   "alignment" : 4,
   "enum_fields" :
   [
    {
     "enum_field_value" : 1,
     "name" : "llvm::AlignOf<llvm::detail::AlignerImpl<std::__1::pair<void *, unsigned long>, char, char, char, char, char, char, char, char, char>>::Alignment_GreaterEqual_4Bytes"
    }
   ],
   "linker_set_key" : "_ZTIN4llvm7AlignOfINS_6detail11AlignerImplINSt3__14pairIPvmEEcccccccccEEE30$Alignment_GreaterEqual_4BytesE",
   "name" : "llvm::AlignOf<AlignerImpl<pair<void *, unsigned long>, char, char, char, char, char, char, char, char, char>>::(anonymous enum at external/llvm/include/llvm/Support/AlignOf.h:87:3)",
   "referenced_type" : "_ZTIN4llvm7AlignOfINS_6detail11AlignerImplINSt3__14pairIPvmEEcccccccccEEE30$Alignment_GreaterEqual_4BytesE",
   "self_type" : "_ZTIN4llvm7AlignOfINS_6detail11AlignerImplINSt3__14pairIPvmEEcccccccccEEE30$Alignment_GreaterEqual_4BytesE",
   "size" : 4,
   "source_file" : "external/llvm/include/llvm/Support/AlignOf.h",
   "underlying_type" : "_ZTIj"
  },
  {
   "alignment" : 4,
   "enum_fields" :
   [
    {
     "enum_field_value" : 1,
     "name" : "llvm::AlignOf<llvm::detail::AlignerImpl<std::__1::pair<void *, unsigned long>, char, char, char, char, char, char, char, char, char>>::Alignment_GreaterEqual_8Bytes"
    }
   ],
   "linker_set_key" : "_ZTIN4llvm7AlignOfINS_6detail11AlignerImplINSt3__14pairIPvmEEcccccccccEEE30$Alignment_GreaterEqual_8BytesE",
   "name" : "llvm::AlignOf<AlignerImpl<pair<void *, unsigned long>, char, char, char, char, char, char, char, char, char>>::(anonymous enum at external/llvm/include/llvm/Support/AlignOf.h:88:3)",
   "referenced_type" : "_ZTIN4llvm7AlignOfINS_6detail11AlignerImplINSt3__14pairIPvmEEcccccccccEEE30$Alignment_GreaterEqual_8BytesE",
   "self_type" : "_ZTIN4llvm7AlignOfINS_6detail11AlignerImplINSt3__14pairIPvmEEcccccccccEEE30$Alignment_GreaterEqual_8BytesE",
   "size" : 4,
   "source_file" : "external/llvm/include/llvm/Support/AlignOf.h",
   "underlying_type" : "_ZTIj"
  },
  {
   "alignment" : 4,
   "enum_fields" :
   [
    {
     "enum_field_value" : 0,
     "name" : "llvm::AlignOf<llvm::detail::AlignerImpl<std::__1::pair<void *, unsigned long>, char, char, char, char, char, char, char, char, char>>::Alignment_GreaterEqual_16Bytes"
    }
   ],
   "linker_set_key" : "_ZTIN4llvm7AlignOfINS_6detail11AlignerImplINSt3__14pairIPvmEEcccccccccEEE31$Alignment_GreaterEqual_16BytesE",
   "name" : "llvm::AlignOf<AlignerImpl<pair<void *, unsigned long>, char, char, char, char, char, char, char, char, char>>::(anonymous enum at external/llvm/include/llvm/Support/AlignOf.h:89:3)",
   "referenced_type" : "_ZTIN4llvm7AlignOfINS_6detail11AlignerImplINSt3__14pairIPvmEEcccccccccEEE31$Alignment_GreaterEqual_16BytesE",
   "self_type" : "_ZTIN4llvm7AlignOfINS_6detail11AlignerImplINSt3__14pairIPvmEEcccccccccEEE31$Alignment_GreaterEqual_16BytesE",
   "size" : 4,
   "source_file" : "external/llvm/include/llvm/Support/AlignOf.h",
   "underlying_type" : "_ZTIj"
  },
  {
   "alignment" : 4,
   "enum_fields" :
   [
    {
     "enum_field_value" : 0,
     "name" : "llvm::AlignOf<llvm::detail::AlignerImpl<llvm::cl::Option *, char, char, char, char, char, char, char, char, char>>::Alignment_LessEqual_2Bytes"
    }
   ],
   "linker_set_key" : "_ZTIN4llvm7AlignOfINS_6detail11AlignerImplIPNS_2cl6OptionEcccccccccEEE27$Alignment_LessEqual_2BytesE",
   "name" : "llvm::AlignOf<AlignerImpl<Option *, char, char, char, char, char, char, char, char, char>>::(anonymous enum at external/llvm/include/llvm/Support/AlignOf.h:91:3)",
   "referenced_type" : "_ZTIN4llvm7AlignOfINS_6detail11AlignerImplIPNS_2cl6OptionEcccccccccEEE27$Alignment_LessEqual_2BytesE",
   "self_type" : "_ZTIN4llvm7AlignOfINS_6detail11AlignerImplIPNS_2cl6OptionEcccccccccEEE27$Alignment_LessEqual_2BytesE",
   "size" : 4,
   "source_file" : "external/llvm/include/llvm/Support/AlignOf.h",
   "underlying_type" : "_ZTIj"
  },
  {
   "alignment" : 4,
   "enum_fields" :
   [
    {
     "enum_field_value" : 0,
     "name" : "llvm::AlignOf<llvm::detail::AlignerImpl<llvm::cl::Option *, char, char, char, char, char, char, char, char, char>>::Alignment_LessEqual_4Bytes"
    }
   ],
   "linker_set_key" : "_ZTIN4llvm7AlignOfINS_6detail11AlignerImplIPNS_2cl6OptionEcccccccccEEE27$Alignment_LessEqual_4BytesE",
   "name" : "llvm::AlignOf<AlignerImpl<Option *, char, char, char, char, char, char, char, char, char>>::(anonymous enum at external/llvm/include/llvm/Support/AlignOf.h:92:3)",
   "referenced_type" : "_ZTIN4llvm7AlignOfINS_6detail11AlignerImplIPNS_2cl6OptionEcccccccccEEE27$Alignment_LessEqual_4BytesE",
   "self_type" : "_ZTIN4llvm7AlignOfINS_6detail11AlignerImplIPNS_2cl6OptionEcccccccccEEE27$Alignment_LessEqual_4BytesE",
   "size" : 4,
   "source_file" : "external/llvm/include/llvm/Support/AlignOf.h",
   "underlying_type" : "_ZTIj"
  },
  {
   "alignment" : 4,
   "enum_fields" :
   [
    {
     "enum_field_value" : 1,
     "name" : "llvm::AlignOf<llvm::detail::AlignerImpl<llvm::cl::Option *, char, char, char, char, char, char, char, char, char>>::Alignment_LessEqual_8Bytes"
    }
   ],
   "linker_set_key" : "_ZTIN4llvm7AlignOfINS_6detail11AlignerImplIPNS_2cl6OptionEcccccccccEEE27$Alignment_LessEqual_8BytesE",
   "name" : "llvm::AlignOf<AlignerImpl<Option *, char, char, char, char, char, char, char, char, char>>::(anonymous enum at external/llvm/include/llvm/Support/AlignOf.h:93:3)",
   "referenced_type" : "_ZTIN4llvm7AlignOfINS_6detail11AlignerImplIPNS_2cl6OptionEcccccccccEEE27$Alignment_LessEqual_8BytesE",
   "self_type" : "_ZTIN4llvm7AlignOfINS_6detail11AlignerImplIPNS_2cl6OptionEcccccccccEEE27$Alignment_LessEqual_8BytesE",
   "size" : 4,
   "source_file" : "external/llvm/include/llvm/Support/AlignOf.h",
   "underlying_type" : "_ZTIj"
  },
  {
   "alignment" : 4,
   "enum_fields" :
   [
    {
     "enum_field_value" : 1,
     "name" : "llvm::AlignOf<llvm::detail::AlignerImpl<llvm::cl::Option *, char, char, char, char, char, char, char, char, char>>::Alignment_LessEqual_16Bytes"
    }
   ],
   "linker_set_key" : "_ZTIN4llvm7AlignOfINS_6detail11AlignerImplIPNS_2cl6OptionEcccccccccEEE28$Alignment_LessEqual_16BytesE",
   "name" : "llvm::AlignOf<AlignerImpl<Option *, char, char, char, char, char, char, char, char, char>>::(anonymous enum at external/llvm/include/llvm/Support/AlignOf.h:94:3)",
   "referenced_type" : "_ZTIN4llvm7AlignOfINS_6detail11AlignerImplIPNS_2cl6OptionEcccccccccEEE28$Alignment_LessEqual_16BytesE",
   "self_type" : "_ZTIN4llvm7AlignOfINS_6detail11AlignerImplIPNS_2cl6OptionEcccccccccEEE28$Alignment_LessEqual_16BytesE",
   "size" : 4,
   "source_file" : "external/llvm/include/llvm/Support/AlignOf.h",
   "underlying_type" : "_ZTIj"
  },
  {
   "alignment" : 4,
   "enum_fields" :
   [
    {
     "enum_field_value" : 1,
     "name" : "llvm::AlignOf<llvm::detail::AlignerImpl<llvm::cl::Option *, char, char, char, char, char, char, char, char, char>>::Alignment_GreaterEqual_2Bytes"
    }
   ],
   "linker_set_key" : "_ZTIN4llvm7AlignOfINS_6detail11AlignerImplIPNS_2cl6OptionEcccccccccEEE30$Alignment_GreaterEqual_2BytesE",
   "name" : "llvm::AlignOf<AlignerImpl<Option *, char, char, char, char, char, char, char, char, char>>::(anonymous enum at external/llvm/include/llvm/Support/AlignOf.h:86:3)",
   "referenced_type" : "_ZTIN4llvm7AlignOfINS_6detail11AlignerImplIPNS_2cl6OptionEcccccccccEEE30$Alignment_GreaterEqual_2BytesE",
   "self_type" : "_ZTIN4llvm7AlignOfINS_6detail11AlignerImplIPNS_2cl6OptionEcccccccccEEE30$Alignment_GreaterEqual_2BytesE",
   "size" : 4,
   "source_file" : "external/llvm/include/llvm/Support/AlignOf.h",
   "underlying_type" : "_ZTIj"
  },
  {
   "alignment" : 4,
   "enum_fields" :
   [
    {
     "enum_field_value" : 1,
     "name" : "llvm::AlignOf<llvm::detail::AlignerImpl<llvm::cl::Option *, char, char, char, char, char, char, char, char, char>>::Alignment_GreaterEqual_4Bytes"
    }
   ],
   "linker_set_key" : "_ZTIN4llvm7AlignOfINS_6detail11AlignerImplIPNS_2cl6OptionEcccccccccEEE30$Alignment_GreaterEqual_4BytesE",
   "name" : "llvm::AlignOf<AlignerImpl<Option *, char, char, char, char, char, char, char, char, char>>::(anonymous enum at external/llvm/include/llvm/Support/AlignOf.h:87:3)",
   "referenced_type" : "_ZTIN4llvm7AlignOfINS_6detail11AlignerImplIPNS_2cl6OptionEcccccccccEEE30$Alignment_GreaterEqual_4BytesE",
   "self_type" : "_ZTIN4llvm7AlignOfINS_6detail11AlignerImplIPNS_2cl6OptionEcccccccccEEE30$Alignment_GreaterEqual_4BytesE",
   "size" : 4,
   "source_file" : "external/llvm/include/llvm/Support/AlignOf.h",
   "underlying_type" : "_ZTIj"
  },
  {
   "alignment" : 4,
   "enum_fields" :
   [
    {
     "enum_field_value" : 1,
     "name" : "llvm::AlignOf<llvm::detail::AlignerImpl<llvm::cl::Option *, char, char, char, char, char, char, char, char, char>>::Alignment_GreaterEqual_8Bytes"
    }
   ],
   "linker_set_key" : "_ZTIN4llvm7AlignOfINS_6detail11AlignerImplIPNS_2cl6OptionEcccccccccEEE30$Alignment_GreaterEqual_8BytesE",
   "name" : "llvm::AlignOf<AlignerImpl<Option *, char, char, char, char, char, char, char, char, char>>::(anonymous enum at external/llvm/include/llvm/Support/AlignOf.h:88:3)",
   "referenced_type" : "_ZTIN4llvm7AlignOfINS_6detail11AlignerImplIPNS_2cl6OptionEcccccccccEEE30$Alignment_GreaterEqual_8BytesE",
   "self_type" : "_ZTIN4llvm7AlignOfINS_6detail11AlignerImplIPNS_2cl6OptionEcccccccccEEE30$Alignment_GreaterEqual_8BytesE",
   "size" : 4,
   "source_file" : "external/llvm/include/llvm/Support/AlignOf.h",
   "underlying_type" : "_ZTIj"
  },
  {
   "alignment" : 4,
   "enum_fields" :
   [
    {
     "enum_field_value" : 0,
     "name" : "llvm::AlignOf<llvm::detail::AlignerImpl<llvm::cl::Option *, char, char, char, char, char, char, char, char, char>>::Alignment_GreaterEqual_16Bytes"
    }
   ],
   "linker_set_key" : "_ZTIN4llvm7AlignOfINS_6detail11AlignerImplIPNS_2cl6OptionEcccccccccEEE31$Alignment_GreaterEqual_16BytesE",
   "name" : "llvm::AlignOf<AlignerImpl<Option *, char, char, char, char, char, char, char, char, char>>::(anonymous enum at external/llvm/include/llvm/Support/AlignOf.h:89:3)",
   "referenced_type" : "_ZTIN4llvm7AlignOfINS_6detail11AlignerImplIPNS_2cl6OptionEcccccccccEEE31$Alignment_GreaterEqual_16BytesE",
   "self_type" : "_ZTIN4llvm7AlignOfINS_6detail11AlignerImplIPNS_2cl6OptionEcccccccccEEE31$Alignment_GreaterEqual_16BytesE",
   "size" : 4,
   "source_file" : "external/llvm/include/llvm/Support/AlignOf.h",
   "underlying_type" : "_ZTIj"
  },
  {
   "alignment" : 4,
   "enum_fields" :
   [
    {
     "enum_field_value" : 0,
     "name" : "llvm::AlignOf<llvm::detail::AlignerImpl<void *, char, char, char, char, char, char, char, char, char>>::Alignment_LessEqual_2Bytes"
    }
   ],
   "linker_set_key" : "_ZTIN4llvm7AlignOfINS_6detail11AlignerImplIPvcccccccccEEE27$Alignment_LessEqual_2BytesE",
   "name" : "llvm::AlignOf<AlignerImpl<void *, char, char, char, char, char, char, char, char, char>>::(anonymous enum at external/llvm/include/llvm/Support/AlignOf.h:91:3)",
   "referenced_type" : "_ZTIN4llvm7AlignOfINS_6detail11AlignerImplIPvcccccccccEEE27$Alignment_LessEqual_2BytesE",
   "self_type" : "_ZTIN4llvm7AlignOfINS_6detail11AlignerImplIPvcccccccccEEE27$Alignment_LessEqual_2BytesE",
   "size" : 4,
   "source_file" : "external/llvm/include/llvm/Support/AlignOf.h",
   "underlying_type" : "_ZTIj"
  },
  {
   "alignment" : 4,
   "enum_fields" :
   [
    {
     "enum_field_value" : 0,
     "name" : "llvm::AlignOf<llvm::detail::AlignerImpl<void *, char, char, char, char, char, char, char, char, char>>::Alignment_LessEqual_4Bytes"
    }
   ],
   "linker_set_key" : "_ZTIN4llvm7AlignOfINS_6detail11AlignerImplIPvcccccccccEEE27$Alignment_LessEqual_4BytesE",
   "name" : "llvm::AlignOf<AlignerImpl<void *, char, char, char, char, char, char, char, char, char>>::(anonymous enum at external/llvm/include/llvm/Support/AlignOf.h:92:3)",
   "referenced_type" : "_ZTIN4llvm7AlignOfINS_6detail11AlignerImplIPvcccccccccEEE27$Alignment_LessEqual_4BytesE",
   "self_type" : "_ZTIN4llvm7AlignOfINS_6detail11AlignerImplIPvcccccccccEEE27$Alignment_LessEqual_4BytesE",
   "size" : 4,
   "source_file" : "external/llvm/include/llvm/Support/AlignOf.h",
   "underlying_type" : "_ZTIj"
  },
  {
   "alignment" : 4,
   "enum_fields" :
   [
    {
     "enum_field_value" : 1,
     "name" : "llvm::AlignOf<llvm::detail::AlignerImpl<void *, char, char, char, char, char, char, char, char, char>>::Alignment_LessEqual_8Bytes"
    }
   ],
   "linker_set_key" : "_ZTIN4llvm7AlignOfINS_6detail11AlignerImplIPvcccccccccEEE27$Alignment_LessEqual_8BytesE",
   "name" : "llvm::AlignOf<AlignerImpl<void *, char, char, char, char, char, char, char, char, char>>::(anonymous enum at external/llvm/include/llvm/Support/AlignOf.h:93:3)",
   "referenced_type" : "_ZTIN4llvm7AlignOfINS_6detail11AlignerImplIPvcccccccccEEE27$Alignment_LessEqual_8BytesE",
   "self_type" : "_ZTIN4llvm7AlignOfINS_6detail11AlignerImplIPvcccccccccEEE27$Alignment_LessEqual_8BytesE",
   "size" : 4,
   "source_file" : "external/llvm/include/llvm/Support/AlignOf.h",
   "underlying_type" : "_ZTIj"
  },
  {
   "alignment" : 4,
   "enum_fields" :
   [
    {
     "enum_field_value" : 1,
     "name" : "llvm::AlignOf<llvm::detail::AlignerImpl<void *, char, char, char, char, char, char, char, char, char>>::Alignment_LessEqual_16Bytes"
    }
   ],
   "linker_set_key" : "_ZTIN4llvm7AlignOfINS_6detail11AlignerImplIPvcccccccccEEE28$Alignment_LessEqual_16BytesE",
   "name" : "llvm::AlignOf<AlignerImpl<void *, char, char, char, char, char, char, char, char, char>>::(anonymous enum at external/llvm/include/llvm/Support/AlignOf.h:94:3)",
   "referenced_type" : "_ZTIN4llvm7AlignOfINS_6detail11AlignerImplIPvcccccccccEEE28$Alignment_LessEqual_16BytesE",
   "self_type" : "_ZTIN4llvm7AlignOfINS_6detail11AlignerImplIPvcccccccccEEE28$Alignment_LessEqual_16BytesE",
   "size" : 4,
   "source_file" : "external/llvm/include/llvm/Support/AlignOf.h",
   "underlying_type" : "_ZTIj"
  },
  {
   "alignment" : 4,
   "enum_fields" :
   [
    {
     "enum_field_value" : 1,
     "name" : "llvm::AlignOf<llvm::detail::AlignerImpl<void *, char, char, char, char, char, char, char, char, char>>::Alignment_GreaterEqual_2Bytes"
    }
   ],
   "linker_set_key" : "_ZTIN4llvm7AlignOfINS_6detail11AlignerImplIPvcccccccccEEE30$Alignment_GreaterEqual_2BytesE",
   "name" : "llvm::AlignOf<AlignerImpl<void *, char, char, char, char, char, char, char, char, char>>::(anonymous enum at external/llvm/include/llvm/Support/AlignOf.h:86:3)",
   "referenced_type" : "_ZTIN4llvm7AlignOfINS_6detail11AlignerImplIPvcccccccccEEE30$Alignment_GreaterEqual_2BytesE",
   "self_type" : "_ZTIN4llvm7AlignOfINS_6detail11AlignerImplIPvcccccccccEEE30$Alignment_GreaterEqual_2BytesE",
   "size" : 4,
   "source_file" : "external/llvm/include/llvm/Support/AlignOf.h",
   "underlying_type" : "_ZTIj"
  },
  {
   "alignment" : 4,
   "enum_fields" :
   [
    {
     "enum_field_value" : 1,
     "name" : "llvm::AlignOf<llvm::detail::AlignerImpl<void *, char, char, char, char, char, char, char, char, char>>::Alignment_GreaterEqual_4Bytes"
    }
   ],
   "linker_set_key" : "_ZTIN4llvm7AlignOfINS_6detail11AlignerImplIPvcccccccccEEE30$Alignment_GreaterEqual_4BytesE",
   "name" : "llvm::AlignOf<AlignerImpl<void *, char, char, char, char, char, char, char, char, char>>::(anonymous enum at external/llvm/include/llvm/Support/AlignOf.h:87:3)",
   "referenced_type" : "_ZTIN4llvm7AlignOfINS_6detail11AlignerImplIPvcccccccccEEE30$Alignment_GreaterEqual_4BytesE",
   "self_type" : "_ZTIN4llvm7AlignOfINS_6detail11AlignerImplIPvcccccccccEEE30$Alignment_GreaterEqual_4BytesE",
   "size" : 4,
   "source_file" : "external/llvm/include/llvm/Support/AlignOf.h",
   "underlying_type" : "_ZTIj"
  },
  {
   "alignment" : 4,
   "enum_fields" :
   [
    {
     "enum_field_value" : 1,
     "name" : "llvm::AlignOf<llvm::detail::AlignerImpl<void *, char, char, char, char, char, char, char, char, char>>::Alignment_GreaterEqual_8Bytes"
    }
   ],
   "linker_set_key" : "_ZTIN4llvm7AlignOfINS_6detail11AlignerImplIPvcccccccccEEE30$Alignment_GreaterEqual_8BytesE",
   "name" : "llvm::AlignOf<AlignerImpl<void *, char, char, char, char, char, char, char, char, char>>::(anonymous enum at external/llvm/include/llvm/Support/AlignOf.h:88:3)",
   "referenced_type" : "_ZTIN4llvm7AlignOfINS_6detail11AlignerImplIPvcccccccccEEE30$Alignment_GreaterEqual_8BytesE",
   "self_type" : "_ZTIN4llvm7AlignOfINS_6detail11AlignerImplIPvcccccccccEEE30$Alignment_GreaterEqual_8BytesE",
   "size" : 4,
   "source_file" : "external/llvm/include/llvm/Support/AlignOf.h",
   "underlying_type" : "_ZTIj"
  },
  {
   "alignment" : 4,
   "enum_fields" :
   [
    {
     "enum_field_value" : 0,
     "name" : "llvm::AlignOf<llvm::detail::AlignerImpl<void *, char, char, char, char, char, char, char, char, char>>::Alignment_GreaterEqual_16Bytes"
    }
   ],
   "linker_set_key" : "_ZTIN4llvm7AlignOfINS_6detail11AlignerImplIPvcccccccccEEE31$Alignment_GreaterEqual_16BytesE",
   "name" : "llvm::AlignOf<AlignerImpl<void *, char, char, char, char, char, char, char, char, char>>::(anonymous enum at external/llvm/include/llvm/Support/AlignOf.h:89:3)",
   "referenced_type" : "_ZTIN4llvm7AlignOfINS_6detail11AlignerImplIPvcccccccccEEE31$Alignment_GreaterEqual_16BytesE",
   "self_type" : "_ZTIN4llvm7AlignOfINS_6detail11AlignerImplIPvcccccccccEEE31$Alignment_GreaterEqual_16BytesE",
   "size" : 4,
   "source_file" : "external/llvm/include/llvm/Support/AlignOf.h",
   "underlying_type" : "_ZTIj"
  },
  {
   "alignment" : 4,
   "enum_fields" :
   [
    {
     "enum_field_value" : 1,
     "name" : "llvm::AlignOf<llvm::detail::AlignerImpl<char, char, char, char, char, char, char, char, char, char>>::Alignment_LessEqual_2Bytes"
    }
   ],
   "linker_set_key" : "_ZTIN4llvm7AlignOfINS_6detail11AlignerImplIccccccccccEEE27$Alignment_LessEqual_2BytesE",
   "name" : "llvm::AlignOf<AlignerImpl<char, char, char, char, char, char, char, char, char, char>>::(anonymous enum at external/llvm/include/llvm/Support/AlignOf.h:91:3)",
   "referenced_type" : "_ZTIN4llvm7AlignOfINS_6detail11AlignerImplIccccccccccEEE27$Alignment_LessEqual_2BytesE",
   "self_type" : "_ZTIN4llvm7AlignOfINS_6detail11AlignerImplIccccccccccEEE27$Alignment_LessEqual_2BytesE",
   "size" : 4,
   "source_file" : "external/llvm/include/llvm/Support/AlignOf.h",
   "underlying_type" : "_ZTIj"
  },
  {
   "alignment" : 4,
   "enum_fields" :
   [
    {
     "enum_field_value" : 1,
     "name" : "llvm::AlignOf<llvm::detail::AlignerImpl<char, char, char, char, char, char, char, char, char, char>>::Alignment_LessEqual_4Bytes"
    }
   ],
   "linker_set_key" : "_ZTIN4llvm7AlignOfINS_6detail11AlignerImplIccccccccccEEE27$Alignment_LessEqual_4BytesE",
   "name" : "llvm::AlignOf<AlignerImpl<char, char, char, char, char, char, char, char, char, char>>::(anonymous enum at external/llvm/include/llvm/Support/AlignOf.h:92:3)",
   "referenced_type" : "_ZTIN4llvm7AlignOfINS_6detail11AlignerImplIccccccccccEEE27$Alignment_LessEqual_4BytesE",
   "self_type" : "_ZTIN4llvm7AlignOfINS_6detail11AlignerImplIccccccccccEEE27$Alignment_LessEqual_4BytesE",
   "size" : 4,
   "source_file" : "external/llvm/include/llvm/Support/AlignOf.h",
   "underlying_type" : "_ZTIj"
  },
  {
   "alignment" : 4,
   "enum_fields" :
   [
    {
     "enum_field_value" : 1,
     "name" : "llvm::AlignOf<llvm::detail::AlignerImpl<char, char, char, char, char, char, char, char, char, char>>::Alignment_LessEqual_8Bytes"
    }
   ],
   "linker_set_key" : "_ZTIN4llvm7AlignOfINS_6detail11AlignerImplIccccccccccEEE27$Alignment_LessEqual_8BytesE",
   "name" : "llvm::AlignOf<AlignerImpl<char, char, char, char, char, char, char, char, char, char>>::(anonymous enum at external/llvm/include/llvm/Support/AlignOf.h:93:3)",
   "referenced_type" : "_ZTIN4llvm7AlignOfINS_6detail11AlignerImplIccccccccccEEE27$Alignment_LessEqual_8BytesE",
   "self_type" : "_ZTIN4llvm7AlignOfINS_6detail11AlignerImplIccccccccccEEE27$Alignment_LessEqual_8BytesE",
   "size" : 4,
   "source_file" : "external/llvm/include/llvm/Support/AlignOf.h",
   "underlying_type" : "_ZTIj"
  },
  {
   "alignment" : 4,
   "enum_fields" :
   [
    {
     "enum_field_value" : 1,
     "name" : "llvm::AlignOf<llvm::detail::AlignerImpl<char, char, char, char, char, char, char, char, char, char>>::Alignment_LessEqual_16Bytes"
    }
   ],
   "linker_set_key" : "_ZTIN4llvm7AlignOfINS_6detail11AlignerImplIccccccccccEEE28$Alignment_LessEqual_16BytesE",
   "name" : "llvm::AlignOf<AlignerImpl<char, char, char, char, char, char, char, char, char, char>>::(anonymous enum at external/llvm/include/llvm/Support/AlignOf.h:94:3)",
   "referenced_type" : "_ZTIN4llvm7AlignOfINS_6detail11AlignerImplIccccccccccEEE28$Alignment_LessEqual_16BytesE",
   "self_type" : "_ZTIN4llvm7AlignOfINS_6detail11AlignerImplIccccccccccEEE28$Alignment_LessEqual_16BytesE",
   "size" : 4,
   "source_file" : "external/llvm/include/llvm/Support/AlignOf.h",
   "underlying_type" : "_ZTIj"
  },
  {
   "alignment" : 4,
   "enum_fields" :
   [
    {
     "enum_field_value" : 0,
     "name" : "llvm::AlignOf<llvm::detail::AlignerImpl<char, char, char, char, char, char, char, char, char, char>>::Alignment_GreaterEqual_2Bytes"
    }
   ],
   "linker_set_key" : "_ZTIN4llvm7AlignOfINS_6detail11AlignerImplIccccccccccEEE30$Alignment_GreaterEqual_2BytesE",
   "name" : "llvm::AlignOf<AlignerImpl<char, char, char, char, char, char, char, char, char, char>>::(anonymous enum at external/llvm/include/llvm/Support/AlignOf.h:86:3)",
   "referenced_type" : "_ZTIN4llvm7AlignOfINS_6detail11AlignerImplIccccccccccEEE30$Alignment_GreaterEqual_2BytesE",
   "self_type" : "_ZTIN4llvm7AlignOfINS_6detail11AlignerImplIccccccccccEEE30$Alignment_GreaterEqual_2BytesE",
   "size" : 4,
   "source_file" : "external/llvm/include/llvm/Support/AlignOf.h",
   "underlying_type" : "_ZTIj"
  },
  {
   "alignment" : 4,
   "enum_fields" :
   [
    {
     "enum_field_value" : 0,
     "name" : "llvm::AlignOf<llvm::detail::AlignerImpl<char, char, char, char, char, char, char, char, char, char>>::Alignment_GreaterEqual_4Bytes"
    }
   ],
   "linker_set_key" : "_ZTIN4llvm7AlignOfINS_6detail11AlignerImplIccccccccccEEE30$Alignment_GreaterEqual_4BytesE",
   "name" : "llvm::AlignOf<AlignerImpl<char, char, char, char, char, char, char, char, char, char>>::(anonymous enum at external/llvm/include/llvm/Support/AlignOf.h:87:3)",
   "referenced_type" : "_ZTIN4llvm7AlignOfINS_6detail11AlignerImplIccccccccccEEE30$Alignment_GreaterEqual_4BytesE",
   "self_type" : "_ZTIN4llvm7AlignOfINS_6detail11AlignerImplIccccccccccEEE30$Alignment_GreaterEqual_4BytesE",
   "size" : 4,
   "source_file" : "external/llvm/include/llvm/Support/AlignOf.h",
   "underlying_type" : "_ZTIj"
  },
  {
   "alignment" : 4,
   "enum_fields" :
   [
    {
     "enum_field_value" : 0,
     "name" : "llvm::AlignOf<llvm::detail::AlignerImpl<char, char, char, char, char, char, char, char, char, char>>::Alignment_GreaterEqual_8Bytes"
    }
   ],
   "linker_set_key" : "_ZTIN4llvm7AlignOfINS_6detail11AlignerImplIccccccccccEEE30$Alignment_GreaterEqual_8BytesE",
   "name" : "llvm::AlignOf<AlignerImpl<char, char, char, char, char, char, char, char, char, char>>::(anonymous enum at external/llvm/include/llvm/Support/AlignOf.h:88:3)",
   "referenced_type" : "_ZTIN4llvm7AlignOfINS_6detail11AlignerImplIccccccccccEEE30$Alignment_GreaterEqual_8BytesE",
   "self_type" : "_ZTIN4llvm7AlignOfINS_6detail11AlignerImplIccccccccccEEE30$Alignment_GreaterEqual_8BytesE",
   "size" : 4,
   "source_file" : "external/llvm/include/llvm/Support/AlignOf.h",
   "underlying_type" : "_ZTIj"
  },
  {
   "alignment" : 4,
   "enum_fields" :
   [
    {
     "enum_field_value" : 0,
     "name" : "llvm::AlignOf<llvm::detail::AlignerImpl<char, char, char, char, char, char, char, char, char, char>>::Alignment_GreaterEqual_16Bytes"
    }
   ],
   "linker_set_key" : "_ZTIN4llvm7AlignOfINS_6detail11AlignerImplIccccccccccEEE31$Alignment_GreaterEqual_16BytesE",
   "name" : "llvm::AlignOf<AlignerImpl<char, char, char, char, char, char, char, char, char, char>>::(anonymous enum at external/llvm/include/llvm/Support/AlignOf.h:89:3)",
   "referenced_type" : "_ZTIN4llvm7AlignOfINS_6detail11AlignerImplIccccccccccEEE31$Alignment_GreaterEqual_16BytesE",
   "self_type" : "_ZTIN4llvm7AlignOfINS_6detail11AlignerImplIccccccccccEEE31$Alignment_GreaterEqual_16BytesE",
   "size" : 4,
   "source_file" : "external/llvm/include/llvm/Support/AlignOf.h",
   "underlying_type" : "_ZTIj"
  },
  {
   "alignment" : 4,
   "enum_fields" :
   [
    {
     "enum_field_value" : 0,
     "name" : "llvm::AlignOf<llvm::Type *>::Alignment_LessEqual_2Bytes"
    }
   ],
   "linker_set_key" : "_ZTIN4llvm7AlignOfIPNS_4TypeEE27$Alignment_LessEqual_2BytesE",
   "name" : "llvm::AlignOf<Type *>::(anonymous enum at external/llvm/include/llvm/Support/AlignOf.h:91:3)",
   "referenced_type" : "_ZTIN4llvm7AlignOfIPNS_4TypeEE27$Alignment_LessEqual_2BytesE",
   "self_type" : "_ZTIN4llvm7AlignOfIPNS_4TypeEE27$Alignment_LessEqual_2BytesE",
   "size" : 4,
   "source_file" : "external/llvm/include/llvm/Support/AlignOf.h",
   "underlying_type" : "_ZTIj"
  },
  {
   "alignment" : 4,
   "enum_fields" :
   [
    {
     "enum_field_value" : 0,
     "name" : "llvm::AlignOf<llvm::Type *>::Alignment_LessEqual_4Bytes"
    }
   ],
   "linker_set_key" : "_ZTIN4llvm7AlignOfIPNS_4TypeEE27$Alignment_LessEqual_4BytesE",
   "name" : "llvm::AlignOf<Type *>::(anonymous enum at external/llvm/include/llvm/Support/AlignOf.h:92:3)",
   "referenced_type" : "_ZTIN4llvm7AlignOfIPNS_4TypeEE27$Alignment_LessEqual_4BytesE",
   "self_type" : "_ZTIN4llvm7AlignOfIPNS_4TypeEE27$Alignment_LessEqual_4BytesE",
   "size" : 4,
   "source_file" : "external/llvm/include/llvm/Support/AlignOf.h",
   "underlying_type" : "_ZTIj"
  },
  {
   "alignment" : 4,
   "enum_fields" :
   [
    {
     "enum_field_value" : 1,
     "name" : "llvm::AlignOf<llvm::Type *>::Alignment_LessEqual_8Bytes"
    }
   ],
   "linker_set_key" : "_ZTIN4llvm7AlignOfIPNS_4TypeEE27$Alignment_LessEqual_8BytesE",
   "name" : "llvm::AlignOf<Type *>::(anonymous enum at external/llvm/include/llvm/Support/AlignOf.h:93:3)",
   "referenced_type" : "_ZTIN4llvm7AlignOfIPNS_4TypeEE27$Alignment_LessEqual_8BytesE",
   "self_type" : "_ZTIN4llvm7AlignOfIPNS_4TypeEE27$Alignment_LessEqual_8BytesE",
   "size" : 4,
   "source_file" : "external/llvm/include/llvm/Support/AlignOf.h",
   "underlying_type" : "_ZTIj"
  },
  {
   "alignment" : 4,
   "enum_fields" :
   [
    {
     "enum_field_value" : 1,
     "name" : "llvm::AlignOf<llvm::Type *>::Alignment_LessEqual_16Bytes"
    }
   ],
   "linker_set_key" : "_ZTIN4llvm7AlignOfIPNS_4TypeEE28$Alignment_LessEqual_16BytesE",
   "name" : "llvm::AlignOf<Type *>::(anonymous enum at external/llvm/include/llvm/Support/AlignOf.h:94:3)",
   "referenced_type" : "_ZTIN4llvm7AlignOfIPNS_4TypeEE28$Alignment_LessEqual_16BytesE",
   "self_type" : "_ZTIN4llvm7AlignOfIPNS_4TypeEE28$Alignment_LessEqual_16BytesE",
   "size" : 4,
   "source_file" : "external/llvm/include/llvm/Support/AlignOf.h",
   "underlying_type" : "_ZTIj"
  },
  {
   "alignment" : 4,
   "enum_fields" :
   [
    {
     "enum_field_value" : 1,
     "name" : "llvm::AlignOf<llvm::Type *>::Alignment_GreaterEqual_2Bytes"
    }
   ],
   "linker_set_key" : "_ZTIN4llvm7AlignOfIPNS_4TypeEE30$Alignment_GreaterEqual_2BytesE",
   "name" : "llvm::AlignOf<Type *>::(anonymous enum at external/llvm/include/llvm/Support/AlignOf.h:86:3)",
   "referenced_type" : "_ZTIN4llvm7AlignOfIPNS_4TypeEE30$Alignment_GreaterEqual_2BytesE",
   "self_type" : "_ZTIN4llvm7AlignOfIPNS_4TypeEE30$Alignment_GreaterEqual_2BytesE",
   "size" : 4,
   "source_file" : "external/llvm/include/llvm/Support/AlignOf.h",
   "underlying_type" : "_ZTIj"
  },
  {
   "alignment" : 4,
   "enum_fields" :
   [
    {
     "enum_field_value" : 1,
     "name" : "llvm::AlignOf<llvm::Type *>::Alignment_GreaterEqual_4Bytes"
    }
   ],
   "linker_set_key" : "_ZTIN4llvm7AlignOfIPNS_4TypeEE30$Alignment_GreaterEqual_4BytesE",
   "name" : "llvm::AlignOf<Type *>::(anonymous enum at external/llvm/include/llvm/Support/AlignOf.h:87:3)",
   "referenced_type" : "_ZTIN4llvm7AlignOfIPNS_4TypeEE30$Alignment_GreaterEqual_4BytesE",
   "self_type" : "_ZTIN4llvm7AlignOfIPNS_4TypeEE30$Alignment_GreaterEqual_4BytesE",
   "size" : 4,
   "source_file" : "external/llvm/include/llvm/Support/AlignOf.h",
   "underlying_type" : "_ZTIj"
  },
  {
   "alignment" : 4,
   "enum_fields" :
   [
    {
     "enum_field_value" : 1,
     "name" : "llvm::AlignOf<llvm::Type *>::Alignment_GreaterEqual_8Bytes"
    }
   ],
   "linker_set_key" : "_ZTIN4llvm7AlignOfIPNS_4TypeEE30$Alignment_GreaterEqual_8BytesE",
   "name" : "llvm::AlignOf<Type *>::(anonymous enum at external/llvm/include/llvm/Support/AlignOf.h:88:3)",
   "referenced_type" : "_ZTIN4llvm7AlignOfIPNS_4TypeEE30$Alignment_GreaterEqual_8BytesE",
   "self_type" : "_ZTIN4llvm7AlignOfIPNS_4TypeEE30$Alignment_GreaterEqual_8BytesE",
   "size" : 4,
   "source_file" : "external/llvm/include/llvm/Support/AlignOf.h",
   "underlying_type" : "_ZTIj"
  },
  {
   "alignment" : 4,
   "enum_fields" :
   [
    {
     "enum_field_value" : 0,
     "name" : "llvm::AlignOf<llvm::Type *>::Alignment_GreaterEqual_16Bytes"
    }
   ],
   "linker_set_key" : "_ZTIN4llvm7AlignOfIPNS_4TypeEE31$Alignment_GreaterEqual_16BytesE",
   "name" : "llvm::AlignOf<Type *>::(anonymous enum at external/llvm/include/llvm/Support/AlignOf.h:89:3)",
   "referenced_type" : "_ZTIN4llvm7AlignOfIPNS_4TypeEE31$Alignment_GreaterEqual_16BytesE",
   "self_type" : "_ZTIN4llvm7AlignOfIPNS_4TypeEE31$Alignment_GreaterEqual_16BytesE",
   "size" : 4,
   "source_file" : "external/llvm/include/llvm/Support/AlignOf.h",
   "underlying_type" : "_ZTIj"
  },
  {
   "alignment" : 4,
   "enum_fields" :
   [
    {
     "enum_field_value" : 0,
     "name" : "llvm::NoneType::None"
    }
   ],
   "linker_set_key" : "_ZTIN4llvm8NoneTypeE",
   "name" : "llvm::NoneType",
   "referenced_type" : "_ZTIN4llvm8NoneTypeE",
   "self_type" : "_ZTIN4llvm8NoneTypeE",
   "size" : 4,
   "source_file" : "external/llvm/include/llvm/ADT/None.h",
   "underlying_type" : "_ZTIi"
  }
 ],
 "function_types" :
 [
  {
   "alignment" : 4,
   "linker_set_key" : "_ZTIFvPvE",
   "name" : "void (void *)",
   "parameters" :
   [
    {
     "referenced_type" : "_ZTIPv"
    }
   ],
   "referenced_type" : "_ZTIFvPvE",
   "return_type" : "_ZTIv",
   "self_type" : "_ZTIFvPvE",
   "source_file" : "external/llvm/include/llvm/Support/ManagedStatic.h"
  },
  {
   "alignment" : 4,
   "linker_set_key" : "_ZTIFvPvRKNSt3__112basic_stringIcNS0_11char_traitsIcEENS0_9allocatorIcEEEEbE",
   "name" : "void (void *, const std::__1::basic_string<char> &, bool)",
   "parameters" :
   [
    {
     "referenced_type" : "_ZTIPv"
    },
    {
     "referenced_type" : "_ZTIRKNSt3__112basic_stringIcNS_11char_traitsIcEENS_9allocatorIcEEEE"
    },
    {
     "referenced_type" : "_ZTIb"
    }
   ],
   "referenced_type" : "_ZTIFvPvRKNSt3__112basic_stringIcNS0_11char_traitsIcEENS0_9allocatorIcEEEEbE",
   "return_type" : "_ZTIv",
   "self_type" : "_ZTIFvPvRKNSt3__112basic_stringIcNS0_11char_traitsIcEENS0_9allocatorIcEEEEbE",
   "source_file" : "external/llvm/include/llvm/Support/ErrorHandling.h"
  }
 ],
 "functions" :
 [
  {
   "function_name" : "llvm::StructType::classof",
   "linker_set_key" : "_ZN4llvm10StructType7classofEPKNS_4TypeE",
   "parameters" :
   [
    {
     "referenced_type" : "_ZTIPKN4llvm4TypeE"
    }
   ],
   "return_type" : "_ZTIb",
   "source_file" : "external/llvm/include/llvm/IR/DerivedTypes.h"
  },
  {
   "access" : "private",
   "function_name" : "llvm::StructType::StructType",
   "linker_set_key" : "_ZN4llvm10StructTypeC1ERNS_11LLVMContextE",
   "parameters" :
   [
    {
     "is_this_ptr" : true,
     "referenced_type" : "_ZTIPN4llvm10StructTypeE"
    },
    {
     "referenced_type" : "_ZTIRN4llvm11LLVMContextE"
    }
   ],
   "return_type" : "_ZTIv",
   "source_file" : "external/llvm/include/llvm/IR/DerivedTypes.h"
  },
  {
   "access" : "private",
   "function_name" : "llvm::StructType::StructType",
   "linker_set_key" : "_ZN4llvm10StructTypeC2ERNS_11LLVMContextE",
   "parameters" :
   [
    {
     "is_this_ptr" : true,
     "referenced_type" : "_ZTIPN4llvm10StructTypeE"
    },
    {
     "referenced_type" : "_ZTIRN4llvm11LLVMContextE"
    }
   ],
   "return_type" : "_ZTIv",
   "source_file" : "external/llvm/include/llvm/IR/DerivedTypes.h"
  },
  {
   "function_name" : "llvm::VectorType::getInteger",
   "linker_set_key" : "_ZN4llvm10VectorType10getIntegerEPS0_",
   "parameters" :
   [
    {
     "referenced_type" : "_ZTIPN4llvm10VectorTypeE"
    }
   ],
   "return_type" : "_ZTIPN4llvm10VectorTypeE",
   "source_file" : "external/llvm/include/llvm/IR/DerivedTypes.h"
  },
  {
   "function_name" : "llvm::VectorType::getHalfElementsVectorType",
   "linker_set_key" : "_ZN4llvm10VectorType25getHalfElementsVectorTypeEPS0_",
   "parameters" :
   [
    {
     "referenced_type" : "_ZTIPN4llvm10VectorTypeE"
    }
   ],
   "return_type" : "_ZTIPN4llvm10VectorTypeE",
   "source_file" : "external/llvm/include/llvm/IR/DerivedTypes.h"
  },
  {
   "function_name" : "llvm::VectorType::getDoubleElementsVectorType",
   "linker_set_key" : "_ZN4llvm10VectorType27getDoubleElementsVectorTypeEPS0_",
   "parameters" :
   [
    {
     "referenced_type" : "_ZTIPN4llvm10VectorTypeE"
    }
   ],
   "return_type" : "_ZTIPN4llvm10VectorTypeE",
   "source_file" : "external/llvm/include/llvm/IR/DerivedTypes.h"
  },
  {
   "function_name" : "llvm::VectorType::getExtendedElementVectorType",
   "linker_set_key" : "_ZN4llvm10VectorType28getExtendedElementVectorTypeEPS0_",
   "parameters" :
   [
    {
     "referenced_type" : "_ZTIPN4llvm10VectorTypeE"
    }
   ],
   "return_type" : "_ZTIPN4llvm10VectorTypeE",
   "source_file" : "external/llvm/include/llvm/IR/DerivedTypes.h"
  },
  {
   "function_name" : "llvm::VectorType::getTruncatedElementVectorType",
   "linker_set_key" : "_ZN4llvm10VectorType29getTruncatedElementVectorTypeEPS0_",
   "parameters" :
   [
    {
     "referenced_type" : "_ZTIPN4llvm10VectorTypeE"
    }
   ],
   "return_type" : "_ZTIPN4llvm10VectorTypeE",
   "source_file" : "external/llvm/include/llvm/IR/DerivedTypes.h"
  },
  {
   "function_name" : "llvm::VectorType::classof",
   "linker_set_key" : "_ZN4llvm10VectorType7classofEPKNS_4TypeE",
   "parameters" :
   [
    {
     "referenced_type" : "_ZTIPKN4llvm4TypeE"
    }
   ],
   "return_type" : "_ZTIb",
   "source_file" : "external/llvm/include/llvm/IR/DerivedTypes.h"
  },
  {
   "function_name" : "llvm::hash_value",
   "linker_set_key" : "_ZN4llvm10hash_valueERKNS_9hash_codeE",
   "parameters" :
   [
    {
     "referenced_type" : "_ZTIRKN4llvm9hash_codeE"
    }
   ],
   "return_type" : "_ZTIm",
   "source_file" : "external/llvm/include/llvm/ADT/Hashing.h"
  },
  {
   "function_name" : "llvm::make_range",
   "linker_set_key" : "_ZN4llvm10make_rangeIPKhEENS_14iterator_rangeIT_EES4_S4_",
   "parameters" :
   [
    {
     "referenced_type" : "_ZTIPKh"
    },
    {
     "referenced_type" : "_ZTIPKh"
    }
   ],
   "return_type" : "_ZTIN4llvm14iterator_rangeIPKhEE",
   "source_file" : "external/llvm/include/llvm/ADT/iterator_range.h",
   "template_args" : [ "_ZTIPKh" ]
  },
  {
   "function_name" : "llvm::BitsToFloat",
   "linker_set_key" : "_ZN4llvm11BitsToFloatEj",
   "parameters" :
   [
    {
     "referenced_type" : "_ZTIj"
    }
   ],
   "return_type" : "_ZTIf",
   "source_file" : "external/llvm/include/llvm/Support/MathExtras.h"
  },
  {
   "function_name" : "llvm::ByteSwap_16",
   "linker_set_key" : "_ZN4llvm11ByteSwap_16Et",
   "parameters" :
   [
    {
     "referenced_type" : "_ZTIt"
    }
   ],
   "return_type" : "_ZTIt",
   "source_file" : "external/llvm/include/llvm/Support/MathExtras.h"
  },
  {
   "function_name" : "llvm::ByteSwap_32",
   "linker_set_key" : "_ZN4llvm11ByteSwap_32Ej",
   "parameters" :
   [
    {
     "referenced_type" : "_ZTIj"
    }
   ],
   "return_type" : "_ZTIj",
   "source_file" : "external/llvm/include/llvm/Support/MathExtras.h"
  },
  {
   "function_name" : "llvm::ByteSwap_64",
   "linker_set_key" : "_ZN4llvm11ByteSwap_64Em",
   "parameters" :
   [
    {
     "referenced_type" : "_ZTIm"
    }
   ],
   "return_type" : "_ZTIm",
   "source_file" : "external/llvm/include/llvm/Support/MathExtras.h"
  },
  {
   "function_name" : "llvm::FloatToBits",
   "linker_set_key" : "_ZN4llvm11FloatToBitsEf",
   "parameters" :
   [
    {
     "referenced_type" : "_ZTIf"
    }
   ],
   "return_type" : "_ZTIj",
   "source_file" : "external/llvm/include/llvm/Support/MathExtras.h"
  },
  {
   "function_name" : "llvm::GraphTraits<const llvm::Type *>::child_begin",
   "linker_set_key" : "_ZN4llvm11GraphTraitsIPKNS_4TypeEE11child_beginES3_",
   "parameters" :
   [
    {
     "referenced_type" : "_ZTIPKN4llvm4TypeE"
    }
   ],
   "return_type" : "_ZTIPKPN4llvm4TypeE",
   "source_file" : "external/llvm/include/llvm/IR/Type.h"
  },
  {
   "function_name" : "llvm::GraphTraits<const llvm::Type *>::getEntryNode",
   "linker_set_key" : "_ZN4llvm11GraphTraitsIPKNS_4TypeEE12getEntryNodeES3_",
   "parameters" :
   [
    {
     "referenced_type" : "_ZTIPKN4llvm4TypeE"
    }
   ],
   "return_type" : "_ZTIPKN4llvm4TypeE",
   "source_file" : "external/llvm/include/llvm/IR/Type.h"
  },
  {
   "function_name" : "llvm::GraphTraits<const llvm::Type *>::child_end",
   "linker_set_key" : "_ZN4llvm11GraphTraitsIPKNS_4TypeEE9child_endES3_",
   "parameters" :
   [
    {
     "referenced_type" : "_ZTIPKN4llvm4TypeE"
    }
   ],
   "return_type" : "_ZTIPKPN4llvm4TypeE",
   "source_file" : "external/llvm/include/llvm/IR/Type.h"
  },
  {
   "function_name" : "llvm::GraphTraits<llvm::Type *>::child_begin",
   "linker_set_key" : "_ZN4llvm11GraphTraitsIPNS_4TypeEE11child_beginES2_",
   "parameters" :
   [
    {
     "referenced_type" : "_ZTIPN4llvm4TypeE"
    }
   ],
   "return_type" : "_ZTIPKPN4llvm4TypeE",
   "source_file" : "external/llvm/include/llvm/IR/Type.h"
  },
  {
   "function_name" : "llvm::GraphTraits<llvm::Type *>::getEntryNode",
   "linker_set_key" : "_ZN4llvm11GraphTraitsIPNS_4TypeEE12getEntryNodeES2_",
   "parameters" :
   [
    {
     "referenced_type" : "_ZTIPN4llvm4TypeE"
    }
   ],
   "return_type" : "_ZTIPN4llvm4TypeE",
   "source_file" : "external/llvm/include/llvm/IR/Type.h"
  },
  {
   "function_name" : "llvm::GraphTraits<llvm::Type *>::child_end",
   "linker_set_key" : "_ZN4llvm11GraphTraitsIPNS_4TypeEE9child_endES2_",
   "parameters" :
   [
    {
     "referenced_type" : "_ZTIPN4llvm4TypeE"
    }
   ],
   "return_type" : "_ZTIPKPN4llvm4TypeE",
   "source_file" : "external/llvm/include/llvm/IR/Type.h"
  },
  {
   "function_name" : "llvm::IntegerType::classof",
   "linker_set_key" : "_ZN4llvm11IntegerType7classofEPKNS_4TypeE",
   "parameters" :
   [
    {
     "referenced_type" : "_ZTIPKN4llvm4TypeE"
    }
   ],
   "return_type" : "_ZTIb",
   "source_file" : "external/llvm/include/llvm/IR/DerivedTypes.h"
  },
  {
   "access" : "protected",
   "function_name" : "llvm::IntegerType::IntegerType",
   "linker_set_key" : "_ZN4llvm11IntegerTypeC1ERNS_11LLVMContextEj",
   "parameters" :
   [
    {
     "is_this_ptr" : true,
     "referenced_type" : "_ZTIPN4llvm11IntegerTypeE"
    },
    {
     "referenced_type" : "_ZTIRN4llvm11LLVMContextE"
    },
    {
     "referenced_type" : "_ZTIj"
    }
   ],
   "return_type" : "_ZTIv",
   "source_file" : "external/llvm/include/llvm/IR/DerivedTypes.h"
  },
  {
   "access" : "protected",
   "function_name" : "llvm::IntegerType::IntegerType",
   "linker_set_key" : "_ZN4llvm11IntegerTypeC2ERNS_11LLVMContextEj",
   "parameters" :
   [
    {
     "is_this_ptr" : true,
     "referenced_type" : "_ZTIPN4llvm11IntegerTypeE"
    },
    {
     "referenced_type" : "_ZTIRN4llvm11LLVMContextE"
    },
    {
     "referenced_type" : "_ZTIj"
    }
   ],
   "return_type" : "_ZTIv",
   "source_file" : "external/llvm/include/llvm/IR/DerivedTypes.h"
  },
  {
   "function_name" : "llvm::PointerType::classof",
   "linker_set_key" : "_ZN4llvm11PointerType7classofEPKNS_4TypeE",
   "parameters" :
   [
    {
     "referenced_type" : "_ZTIPKN4llvm4TypeE"
    }
   ],
   "return_type" : "_ZTIb",
   "source_file" : "external/llvm/include/llvm/IR/DerivedTypes.h"
  },
  {
   "function_name" : "llvm::PointerType::getUnqual",
   "linker_set_key" : "_ZN4llvm11PointerType9getUnqualEPNS_4TypeE",
   "parameters" :
   [
    {
     "referenced_type" : "_ZTIPN4llvm4TypeE"
    }
   ],
   "return_type" : "_ZTIPN4llvm11PointerTypeE",
   "source_file" : "external/llvm/include/llvm/IR/DerivedTypes.h"
  },
  {
   "function_name" : "llvm::SmallPtrSet<llvm::cl::SubCommand *, 4>::SmallPtrSet",
   "linker_set_key" : "_ZN4llvm11SmallPtrSetIPNS_2cl10SubCommandELj4EEC1Ev",
   "parameters" :
   [
    {
     "is_this_ptr" : true,
     "referenced_type" : "_ZTIPN4llvm11SmallPtrSetIPNS_2cl10SubCommandELj4EEE"
    }
   ],
   "return_type" : "_ZTIv",
   "source_file" : "external/llvm/include/llvm/ADT/SmallPtrSet.h"
  },
  {
   "function_name" : "llvm::SmallPtrSet<llvm::cl::SubCommand *, 4>::SmallPtrSet",
   "linker_set_key" : "_ZN4llvm11SmallPtrSetIPNS_2cl10SubCommandELj4EEC2Ev",
   "parameters" :
   [
    {
     "is_this_ptr" : true,
     "referenced_type" : "_ZTIPN4llvm11SmallPtrSetIPNS_2cl10SubCommandELj4EEE"
    }
   ],
   "return_type" : "_ZTIv",
   "source_file" : "external/llvm/include/llvm/ADT/SmallPtrSet.h"
  },
  {
   "function_name" : "llvm::SmallPtrSet<llvm::cl::SubCommand *, 4>::operator=",
   "linker_set_key" : "_ZN4llvm11SmallPtrSetIPNS_2cl10SubCommandELj4EEaSERKS4_",
   "parameters" :
   [
    {
     "is_this_ptr" : true,
     "referenced_type" : "_ZTIPN4llvm11SmallPtrSetIPNS_2cl10SubCommandELj4EEE"
    },
    {
     "referenced_type" : "_ZTIRKN4llvm11SmallPtrSetIPNS_2cl10SubCommandELj4EEE"
    }
   ],
   "return_type" : "_ZTIRN4llvm11SmallPtrSetIPNS_2cl10SubCommandELj4EEE",
   "source_file" : "external/llvm/include/llvm/ADT/SmallPtrSet.h"
  },
  {
   "function_name" : "llvm::SmallVector<llvm::cl::Option *, 4>::SmallVector",
   "linker_set_key" : "_ZN4llvm11SmallVectorIPNS_2cl6OptionELj4EEC1Ev",
   "parameters" :
   [
    {
     "is_this_ptr" : true,
     "referenced_type" : "_ZTIPN4llvm11SmallVectorIPNS_2cl6OptionELj4EEE"
    }
   ],
   "return_type" : "_ZTIv",
   "source_file" : "external/llvm/include/llvm/ADT/SmallVector.h"
  },
  {
   "function_name" : "llvm::SmallVector<llvm::cl::Option *, 4>::SmallVector",
   "linker_set_key" : "_ZN4llvm11SmallVectorIPNS_2cl6OptionELj4EEC2Ev",
   "parameters" :
   [
    {
     "is_this_ptr" : true,
     "referenced_type" : "_ZTIPN4llvm11SmallVectorIPNS_2cl6OptionELj4EEE"
    }
   ],
   "return_type" : "_ZTIv",
   "source_file" : "external/llvm/include/llvm/ADT/SmallVector.h"
  },
  {
   "function_name" : "llvm::isa_impl_cl<llvm::VectorType, const llvm::Type *>::doit",
   "linker_set_key" : "_ZN4llvm11isa_impl_clINS_10VectorTypeEPKNS_4TypeEE4doitES4_",
   "parameters" :
   [
    {
     "referenced_type" : "_ZTIPKN4llvm4TypeE"
    }
   ],
   "return_type" : "_ZTIb",
   "source_file" : "external/llvm/include/llvm/Support/Casting.h"
  },
  {
   "function_name" : "llvm::isa_impl_cl<llvm::IntegerType, const llvm::Type *>::doit",
   "linker_set_key" : "_ZN4llvm11isa_impl_clINS_11IntegerTypeEPKNS_4TypeEE4doitES4_",
   "parameters" :
   [
    {
     "referenced_type" : "_ZTIPKN4llvm4TypeE"
    }
   ],
   "return_type" : "_ZTIb",
   "source_file" : "external/llvm/include/llvm/Support/Casting.h"
  },
  {
   "function_name" : "llvm::BitsToDouble",
   "linker_set_key" : "_ZN4llvm12BitsToDoubleEm",
   "parameters" :
   [
    {
     "referenced_type" : "_ZTIm"
    }
   ],
   "return_type" : "_ZTId",
   "source_file" : "external/llvm/include/llvm/Support/MathExtras.h"
  },
  {
   "access" : "protected",
   "function_name" : "llvm::DenseMapBase<llvm::DenseMap<void *, llvm::cl::Option *, llvm::DenseMapInfo<void *>, llvm::detail::DenseMapPair<void *, llvm::cl::Option *>>, void *, llvm::cl::Option *, llvm::DenseMapInfo<void *>, llvm::detail::DenseMapPair<void *, llvm::cl::Option *>>::destroyAll",
   "linker_set_key" : "_ZN4llvm12DenseMapBaseINS_8DenseMapIPvPNS_2cl6OptionENS_12DenseMapInfoIS2_EENS_6detail12DenseMapPairIS2_S5_EEEES2_S5_S7_SA_E10destroyAllEv",
   "parameters" :
   [
    {
     "is_this_ptr" : true,
     "referenced_type" : "_ZTIPN4llvm12DenseMapBaseINS_8DenseMapIPvPNS_2cl6OptionENS_12DenseMapInfoIS2_EENS_6detail12DenseMapPairIS2_S5_EEEES2_S5_S7_SA_EE"
    }
   ],
   "return_type" : "_ZTIv",
   "source_file" : "external/llvm/include/llvm/ADT/DenseMap.h"
  },
  {
   "access" : "private",
   "function_name" : "llvm::DenseMapBase<llvm::DenseMap<void *, llvm::cl::Option *, llvm::DenseMapInfo<void *>, llvm::detail::DenseMapPair<void *, llvm::cl::Option *>>, void *, llvm::cl::Option *, llvm::DenseMapInfo<void *>, llvm::detail::DenseMapPair<void *, llvm::cl::Option *>>::getBuckets",
   "linker_set_key" : "_ZN4llvm12DenseMapBaseINS_8DenseMapIPvPNS_2cl6OptionENS_12DenseMapInfoIS2_EENS_6detail12DenseMapPairIS2_S5_EEEES2_S5_S7_SA_E10getBucketsEv",
   "parameters" :
   [
    {
     "is_this_ptr" : true,
     "referenced_type" : "_ZTIPN4llvm12DenseMapBaseINS_8DenseMapIPvPNS_2cl6OptionENS_12DenseMapInfoIS2_EENS_6detail12DenseMapPairIS2_S5_EEEES2_S5_S7_SA_EE"
    }
   ],
   "return_type" : "_ZTIPN4llvm6detail12DenseMapPairIPvPNS_2cl6OptionEEE",
   "source_file" : "external/llvm/include/llvm/ADT/DenseMap.h"
  },
  {
   "access" : "protected",
   "function_name" : "llvm::DenseMapBase<llvm::DenseMap<void *, llvm::cl::Option *, llvm::DenseMapInfo<void *>, llvm::detail::DenseMapPair<void *, llvm::cl::Option *>>, void *, llvm::cl::Option *, llvm::DenseMapInfo<void *>, llvm::detail::DenseMapPair<void *, llvm::cl::Option *>>::getEmptyKey",
   "linker_set_key" : "_ZN4llvm12DenseMapBaseINS_8DenseMapIPvPNS_2cl6OptionENS_12DenseMapInfoIS2_EENS_6detail12DenseMapPairIS2_S5_EEEES2_S5_S7_SA_E11getEmptyKeyEv",
   "return_type" : "_ZTIKPv",
   "source_file" : "external/llvm/include/llvm/ADT/DenseMap.h"
  },
  {
   "access" : "private",
   "function_name" : "llvm::DenseMapBase<llvm::DenseMap<void *, llvm::cl::Option *, llvm::DenseMapInfo<void *>, llvm::detail::DenseMapPair<void *, llvm::cl::Option *>>, void *, llvm::cl::Option *, llvm::DenseMapInfo<void *>, llvm::detail::DenseMapPair<void *, llvm::cl::Option *>>::getBucketsEnd",
   "linker_set_key" : "_ZN4llvm12DenseMapBaseINS_8DenseMapIPvPNS_2cl6OptionENS_12DenseMapInfoIS2_EENS_6detail12DenseMapPairIS2_S5_EEEES2_S5_S7_SA_E13getBucketsEndEv",
   "parameters" :
   [
    {
     "is_this_ptr" : true,
     "referenced_type" : "_ZTIPN4llvm12DenseMapBaseINS_8DenseMapIPvPNS_2cl6OptionENS_12DenseMapInfoIS2_EENS_6detail12DenseMapPairIS2_S5_EEEES2_S5_S7_SA_EE"
    }
   ],
   "return_type" : "_ZTIPN4llvm6detail12DenseMapPairIPvPNS_2cl6OptionEEE",
   "source_file" : "external/llvm/include/llvm/ADT/DenseMap.h"
  },
  {
   "access" : "private",
   "function_name" : "llvm::DenseMapBase<llvm::DenseMap<void *, llvm::cl::Option *, llvm::DenseMapInfo<void *>, llvm::detail::DenseMapPair<void *, llvm::cl::Option *>>, void *, llvm::cl::Option *, llvm::DenseMapInfo<void *>, llvm::detail::DenseMapPair<void *, llvm::cl::Option *>>::setNumEntries",
   "linker_set_key" : "_ZN4llvm12DenseMapBaseINS_8DenseMapIPvPNS_2cl6OptionENS_12DenseMapInfoIS2_EENS_6detail12DenseMapPairIS2_S5_EEEES2_S5_S7_SA_E13setNumEntriesEj",
   "parameters" :
   [
    {
     "is_this_ptr" : true,
     "referenced_type" : "_ZTIPN4llvm12DenseMapBaseINS_8DenseMapIPvPNS_2cl6OptionENS_12DenseMapInfoIS2_EENS_6detail12DenseMapPairIS2_S5_EEEES2_S5_S7_SA_EE"
    },
    {
     "referenced_type" : "_ZTIj"
    }
   ],
   "return_type" : "_ZTIv",
   "source_file" : "external/llvm/include/llvm/ADT/DenseMap.h"
  },
  {
   "access" : "protected",
   "function_name" : "llvm::DenseMapBase<llvm::DenseMap<void *, llvm::cl::Option *, llvm::DenseMapInfo<void *>, llvm::detail::DenseMapPair<void *, llvm::cl::Option *>>, void *, llvm::cl::Option *, llvm::DenseMapInfo<void *>, llvm::detail::DenseMapPair<void *, llvm::cl::Option *>>::getTombstoneKey",
   "linker_set_key" : "_ZN4llvm12DenseMapBaseINS_8DenseMapIPvPNS_2cl6OptionENS_12DenseMapInfoIS2_EENS_6detail12DenseMapPairIS2_S5_EEEES2_S5_S7_SA_E15getTombstoneKeyEv",
   "return_type" : "_ZTIKPv",
   "source_file" : "external/llvm/include/llvm/ADT/DenseMap.h"
  },
  {
   "access" : "private",
   "function_name" : "llvm::DenseMapBase<llvm::DenseMap<void *, llvm::cl::Option *, llvm::DenseMapInfo<void *>, llvm::detail::DenseMapPair<void *, llvm::cl::Option *>>, void *, llvm::cl::Option *, llvm::DenseMapInfo<void *>, llvm::detail::DenseMapPair<void *, llvm::cl::Option *>>::setNumTombstones",
   "linker_set_key" : "_ZN4llvm12DenseMapBaseINS_8DenseMapIPvPNS_2cl6OptionENS_12DenseMapInfoIS2_EENS_6detail12DenseMapPairIS2_S5_EEEES2_S5_S7_SA_E16setNumTombstonesEj",
   "parameters" :
   [
    {
     "is_this_ptr" : true,
     "referenced_type" : "_ZTIPN4llvm12DenseMapBaseINS_8DenseMapIPvPNS_2cl6OptionENS_12DenseMapInfoIS2_EENS_6detail12DenseMapPairIS2_S5_EEEES2_S5_S7_SA_EE"
    },
    {
     "referenced_type" : "_ZTIj"
    }
   ],
   "return_type" : "_ZTIv",
   "source_file" : "external/llvm/include/llvm/ADT/DenseMap.h"
  },
  {
   "access" : "protected",
   "function_name" : "llvm::DenseMapBase<llvm::DenseMap<void *, llvm::cl::Option *, llvm::DenseMapInfo<void *>, llvm::detail::DenseMapPair<void *, llvm::cl::Option *>>, void *, llvm::cl::Option *, llvm::DenseMapInfo<void *>, llvm::detail::DenseMapPair<void *, llvm::cl::Option *>>::getMinBucketToReserveForEntries",
   "linker_set_key" : "_ZN4llvm12DenseMapBaseINS_8DenseMapIPvPNS_2cl6OptionENS_12DenseMapInfoIS2_EENS_6detail12DenseMapPairIS2_S5_EEEES2_S5_S7_SA_E31getMinBucketToReserveForEntriesEj",
   "parameters" :
   [
    {
     "is_this_ptr" : true,
     "referenced_type" : "_ZTIPN4llvm12DenseMapBaseINS_8DenseMapIPvPNS_2cl6OptionENS_12DenseMapInfoIS2_EENS_6detail12DenseMapPairIS2_S5_EEEES2_S5_S7_SA_EE"
    },
    {
     "referenced_type" : "_ZTIj"
    }
   ],
   "return_type" : "_ZTIj",
   "source_file" : "external/llvm/include/llvm/ADT/DenseMap.h"
  },
  {
   "access" : "protected",
   "function_name" : "llvm::DenseMapBase<llvm::DenseMap<void *, llvm::cl::Option *, llvm::DenseMapInfo<void *>, llvm::detail::DenseMapPair<void *, llvm::cl::Option *>>, void *, llvm::cl::Option *, llvm::DenseMapInfo<void *>, llvm::detail::DenseMapPair<void *, llvm::cl::Option *>>::initEmpty",
   "linker_set_key" : "_ZN4llvm12DenseMapBaseINS_8DenseMapIPvPNS_2cl6OptionENS_12DenseMapInfoIS2_EENS_6detail12DenseMapPairIS2_S5_EEEES2_S5_S7_SA_E9initEmptyEv",
   "parameters" :
   [
    {
     "is_this_ptr" : true,
     "referenced_type" : "_ZTIPN4llvm12DenseMapBaseINS_8DenseMapIPvPNS_2cl6OptionENS_12DenseMapInfoIS2_EENS_6detail12DenseMapPairIS2_S5_EEEES2_S5_S7_SA_EE"
    }
   ],
   "return_type" : "_ZTIv",
   "source_file" : "external/llvm/include/llvm/ADT/DenseMap.h"
  },
  {
   "access" : "protected",
   "function_name" : "llvm::DenseMapBase<llvm::DenseMap<void *, llvm::cl::Option *, llvm::DenseMapInfo<void *>, llvm::detail::DenseMapPair<void *, llvm::cl::Option *>>, void *, llvm::cl::Option *, llvm::DenseMapInfo<void *>, llvm::detail::DenseMapPair<void *, llvm::cl::Option *>>::DenseMapBase",
   "linker_set_key" : "_ZN4llvm12DenseMapBaseINS_8DenseMapIPvPNS_2cl6OptionENS_12DenseMapInfoIS2_EENS_6detail12DenseMapPairIS2_S5_EEEES2_S5_S7_SA_EC1Ev",
   "parameters" :
   [
    {
     "is_this_ptr" : true,
     "referenced_type" : "_ZTIPN4llvm12DenseMapBaseINS_8DenseMapIPvPNS_2cl6OptionENS_12DenseMapInfoIS2_EENS_6detail12DenseMapPairIS2_S5_EEEES2_S5_S7_SA_EE"
    }
   ],
   "return_type" : "_ZTIv",
   "source_file" : "external/llvm/include/llvm/ADT/DenseMap.h"
  },
  {
   "access" : "protected",
   "function_name" : "llvm::DenseMapBase<llvm::DenseMap<void *, llvm::cl::Option *, llvm::DenseMapInfo<void *>, llvm::detail::DenseMapPair<void *, llvm::cl::Option *>>, void *, llvm::cl::Option *, llvm::DenseMapInfo<void *>, llvm::detail::DenseMapPair<void *, llvm::cl::Option *>>::DenseMapBase",
   "linker_set_key" : "_ZN4llvm12DenseMapBaseINS_8DenseMapIPvPNS_2cl6OptionENS_12DenseMapInfoIS2_EENS_6detail12DenseMapPairIS2_S5_EEEES2_S5_S7_SA_EC2Ev",
   "parameters" :
   [
    {
     "is_this_ptr" : true,
     "referenced_type" : "_ZTIPN4llvm12DenseMapBaseINS_8DenseMapIPvPNS_2cl6OptionENS_12DenseMapInfoIS2_EENS_6detail12DenseMapPairIS2_S5_EEEES2_S5_S7_SA_EE"
    }
   ],
   "return_type" : "_ZTIv",
   "source_file" : "external/llvm/include/llvm/ADT/DenseMap.h"
  },
  {
   "function_name" : "llvm::DenseMapInfo<llvm::StringRef>::getEmptyKey",
   "linker_set_key" : "_ZN4llvm12DenseMapInfoINS_9StringRefEE11getEmptyKeyEv",
   "return_type" : "_ZTIN4llvm9StringRefE",
   "source_file" : "external/llvm/include/llvm/ADT/DenseMapInfo.h"
  },
  {
   "function_name" : "llvm::DenseMapInfo<llvm::StringRef>::getHashValue",
   "linker_set_key" : "_ZN4llvm12DenseMapInfoINS_9StringRefEE12getHashValueES1_",
   "parameters" :
   [
    {
     "referenced_type" : "_ZTIN4llvm9StringRefE"
    }
   ],
   "return_type" : "_ZTIj",
   "source_file" : "external/llvm/include/llvm/ADT/DenseMapInfo.h"
  },
  {
   "function_name" : "llvm::DenseMapInfo<llvm::StringRef>::getTombstoneKey",
   "linker_set_key" : "_ZN4llvm12DenseMapInfoINS_9StringRefEE15getTombstoneKeyEv",
   "return_type" : "_ZTIN4llvm9StringRefE",
   "source_file" : "external/llvm/include/llvm/ADT/DenseMapInfo.h"
  },
  {
   "function_name" : "llvm::DenseMapInfo<llvm::StringRef>::isEqual",
   "linker_set_key" : "_ZN4llvm12DenseMapInfoINS_9StringRefEE7isEqualES1_S1_",
   "parameters" :
   [
    {
     "referenced_type" : "_ZTIN4llvm9StringRefE"
    },
    {
     "referenced_type" : "_ZTIN4llvm9StringRefE"
    }
   ],
   "return_type" : "_ZTIb",
   "source_file" : "external/llvm/include/llvm/ADT/DenseMapInfo.h"
  },
  {
   "function_name" : "llvm::DenseMapInfo<void *>::getEmptyKey",
   "linker_set_key" : "_ZN4llvm12DenseMapInfoIPvE11getEmptyKeyEv",
   "return_type" : "_ZTIPv",
   "source_file" : "external/llvm/include/llvm/ADT/DenseMapInfo.h"
  },
  {
   "function_name" : "llvm::DenseMapInfo<void *>::getTombstoneKey",
   "linker_set_key" : "_ZN4llvm12DenseMapInfoIPvE15getTombstoneKeyEv",
   "return_type" : "_ZTIPv",
   "source_file" : "external/llvm/include/llvm/ADT/DenseMapInfo.h"
  },
  {
   "function_name" : "llvm::DenseMapInfo<void *>::isEqual",
   "linker_set_key" : "_ZN4llvm12DenseMapInfoIPvE7isEqualEPKvS4_",
   "parameters" :
   [
    {
     "referenced_type" : "_ZTIPKv"
    },
    {
     "referenced_type" : "_ZTIPKv"
    }
   ],
   "return_type" : "_ZTIb",
   "source_file" : "external/llvm/include/llvm/ADT/DenseMapInfo.h"
  },
  {
   "function_name" : "llvm::DenseMapInfo<char>::getEmptyKey",
   "linker_set_key" : "_ZN4llvm12DenseMapInfoIcE11getEmptyKeyEv",
   "return_type" : "_ZTIc",
   "source_file" : "external/llvm/include/llvm/ADT/DenseMapInfo.h"
  },
  {
   "function_name" : "llvm::DenseMapInfo<char>::getHashValue",
   "linker_set_key" : "_ZN4llvm12DenseMapInfoIcE12getHashValueERKc",
   "parameters" :
   [
    {
     "referenced_type" : "_ZTIRKc"
    }
   ],
   "return_type" : "_ZTIj",
   "source_file" : "external/llvm/include/llvm/ADT/DenseMapInfo.h"
  },
  {
   "function_name" : "llvm::DenseMapInfo<char>::getTombstoneKey",
   "linker_set_key" : "_ZN4llvm12DenseMapInfoIcE15getTombstoneKeyEv",
   "return_type" : "_ZTIc",
   "source_file" : "external/llvm/include/llvm/ADT/DenseMapInfo.h"
  },
  {
   "function_name" : "llvm::DenseMapInfo<char>::isEqual",
   "linker_set_key" : "_ZN4llvm12DenseMapInfoIcE7isEqualERKcS3_",
   "parameters" :
   [
    {
     "referenced_type" : "_ZTIRKc"
    },
    {
     "referenced_type" : "_ZTIRKc"
    }
   ],
   "return_type" : "_ZTIb",
   "source_file" : "external/llvm/include/llvm/ADT/DenseMapInfo.h"
  },
  {
   "function_name" : "llvm::DenseMapInfo<int>::getEmptyKey",
   "linker_set_key" : "_ZN4llvm12DenseMapInfoIiE11getEmptyKeyEv",
   "return_type" : "_ZTIi",
   "source_file" : "external/llvm/include/llvm/ADT/DenseMapInfo.h"
  },
  {
   "function_name" : "llvm::DenseMapInfo<int>::getHashValue",
   "linker_set_key" : "_ZN4llvm12DenseMapInfoIiE12getHashValueERKi",
   "parameters" :
   [
    {
     "referenced_type" : "_ZTIRKi"
    }
   ],
   "return_type" : "_ZTIj",
   "source_file" : "external/llvm/include/llvm/ADT/DenseMapInfo.h"
  },
  {
   "function_name" : "llvm::DenseMapInfo<int>::getTombstoneKey",
   "linker_set_key" : "_ZN4llvm12DenseMapInfoIiE15getTombstoneKeyEv",
   "return_type" : "_ZTIi",
   "source_file" : "external/llvm/include/llvm/ADT/DenseMapInfo.h"
  },
  {
   "function_name" : "llvm::DenseMapInfo<int>::isEqual",
   "linker_set_key" : "_ZN4llvm12DenseMapInfoIiE7isEqualERKiS3_",
   "parameters" :
   [
    {
     "referenced_type" : "_ZTIRKi"
    },
    {
     "referenced_type" : "_ZTIRKi"
    }
   ],
   "return_type" : "_ZTIb",
   "source_file" : "external/llvm/include/llvm/ADT/DenseMapInfo.h"
  },
  {
   "function_name" : "llvm::DenseMapInfo<unsigned int>::getEmptyKey",
   "linker_set_key" : "_ZN4llvm12DenseMapInfoIjE11getEmptyKeyEv",
   "return_type" : "_ZTIj",
   "source_file" : "external/llvm/include/llvm/ADT/DenseMapInfo.h"
  },
  {
   "function_name" : "llvm::DenseMapInfo<unsigned int>::getHashValue",
   "linker_set_key" : "_ZN4llvm12DenseMapInfoIjE12getHashValueERKj",
   "parameters" :
   [
    {
     "referenced_type" : "_ZTIRKj"
    }
   ],
   "return_type" : "_ZTIj",
   "source_file" : "external/llvm/include/llvm/ADT/DenseMapInfo.h"
  },
  {
   "function_name" : "llvm::DenseMapInfo<unsigned int>::getTombstoneKey",
   "linker_set_key" : "_ZN4llvm12DenseMapInfoIjE15getTombstoneKeyEv",
   "return_type" : "_ZTIj",
   "source_file" : "external/llvm/include/llvm/ADT/DenseMapInfo.h"
  },
  {
   "function_name" : "llvm::DenseMapInfo<unsigned int>::isEqual",
   "linker_set_key" : "_ZN4llvm12DenseMapInfoIjE7isEqualERKjS3_",
   "parameters" :
   [
    {
     "referenced_type" : "_ZTIRKj"
    },
    {
     "referenced_type" : "_ZTIRKj"
    }
   ],
   "return_type" : "_ZTIb",
   "source_file" : "external/llvm/include/llvm/ADT/DenseMapInfo.h"
  },
  {
   "function_name" : "llvm::DenseMapInfo<long>::getEmptyKey",
   "linker_set_key" : "_ZN4llvm12DenseMapInfoIlE11getEmptyKeyEv",
   "return_type" : "_ZTIl",
   "source_file" : "external/llvm/include/llvm/ADT/DenseMapInfo.h"
  },
  {
   "function_name" : "llvm::DenseMapInfo<long>::getHashValue",
   "linker_set_key" : "_ZN4llvm12DenseMapInfoIlE12getHashValueERKl",
   "parameters" :
   [
    {
     "referenced_type" : "_ZTIRKl"
    }
   ],
   "return_type" : "_ZTIj",
   "source_file" : "external/llvm/include/llvm/ADT/DenseMapInfo.h"
  },
  {
   "function_name" : "llvm::DenseMapInfo<long>::getTombstoneKey",
   "linker_set_key" : "_ZN4llvm12DenseMapInfoIlE15getTombstoneKeyEv",
   "return_type" : "_ZTIl",
   "source_file" : "external/llvm/include/llvm/ADT/DenseMapInfo.h"
  },
  {
   "function_name" : "llvm::DenseMapInfo<long>::isEqual",
   "linker_set_key" : "_ZN4llvm12DenseMapInfoIlE7isEqualERKlS3_",
   "parameters" :
   [
    {
     "referenced_type" : "_ZTIRKl"
    },
    {
     "referenced_type" : "_ZTIRKl"
    }
   ],
   "return_type" : "_ZTIb",
   "source_file" : "external/llvm/include/llvm/ADT/DenseMapInfo.h"
  },
  {
   "function_name" : "llvm::DenseMapInfo<unsigned long>::getEmptyKey",
   "linker_set_key" : "_ZN4llvm12DenseMapInfoImE11getEmptyKeyEv",
   "return_type" : "_ZTIm",
   "source_file" : "external/llvm/include/llvm/ADT/DenseMapInfo.h"
  },
  {
   "function_name" : "llvm::DenseMapInfo<unsigned long>::getHashValue",
   "linker_set_key" : "_ZN4llvm12DenseMapInfoImE12getHashValueERKm",
   "parameters" :
   [
    {
     "referenced_type" : "_ZTIRKm"
    }
   ],
   "return_type" : "_ZTIj",
   "source_file" : "external/llvm/include/llvm/ADT/DenseMapInfo.h"
  },
  {
   "function_name" : "llvm::DenseMapInfo<unsigned long>::getTombstoneKey",
   "linker_set_key" : "_ZN4llvm12DenseMapInfoImE15getTombstoneKeyEv",
   "return_type" : "_ZTIm",
   "source_file" : "external/llvm/include/llvm/ADT/DenseMapInfo.h"
  },
  {
   "function_name" : "llvm::DenseMapInfo<unsigned long>::isEqual",
   "linker_set_key" : "_ZN4llvm12DenseMapInfoImE7isEqualERKmS3_",
   "parameters" :
   [
    {
     "referenced_type" : "_ZTIRKm"
    },
    {
     "referenced_type" : "_ZTIRKm"
    }
   ],
   "return_type" : "_ZTIb",
   "source_file" : "external/llvm/include/llvm/ADT/DenseMapInfo.h"
  },
  {
   "function_name" : "llvm::DenseMapInfo<long long>::getEmptyKey",
   "linker_set_key" : "_ZN4llvm12DenseMapInfoIxE11getEmptyKeyEv",
   "return_type" : "_ZTIx",
   "source_file" : "external/llvm/include/llvm/ADT/DenseMapInfo.h"
  },
  {
   "function_name" : "llvm::DenseMapInfo<long long>::getHashValue",
   "linker_set_key" : "_ZN4llvm12DenseMapInfoIxE12getHashValueERKx",
   "parameters" :
   [
    {
     "referenced_type" : "_ZTIRKx"
    }
   ],
   "return_type" : "_ZTIj",
   "source_file" : "external/llvm/include/llvm/ADT/DenseMapInfo.h"
  },
  {
   "function_name" : "llvm::DenseMapInfo<long long>::getTombstoneKey",
   "linker_set_key" : "_ZN4llvm12DenseMapInfoIxE15getTombstoneKeyEv",
   "return_type" : "_ZTIx",
   "source_file" : "external/llvm/include/llvm/ADT/DenseMapInfo.h"
  },
  {
   "function_name" : "llvm::DenseMapInfo<long long>::isEqual",
   "linker_set_key" : "_ZN4llvm12DenseMapInfoIxE7isEqualERKxS3_",
   "parameters" :
   [
    {
     "referenced_type" : "_ZTIRKx"
    },
    {
     "referenced_type" : "_ZTIRKx"
    }
   ],
   "return_type" : "_ZTIb",
   "source_file" : "external/llvm/include/llvm/ADT/DenseMapInfo.h"
  },
  {
   "function_name" : "llvm::DenseMapInfo<unsigned long long>::getEmptyKey",
   "linker_set_key" : "_ZN4llvm12DenseMapInfoIyE11getEmptyKeyEv",
   "return_type" : "_ZTIy",
   "source_file" : "external/llvm/include/llvm/ADT/DenseMapInfo.h"
  },
  {
   "function_name" : "llvm::DenseMapInfo<unsigned long long>::getHashValue",
   "linker_set_key" : "_ZN4llvm12DenseMapInfoIyE12getHashValueERKy",
   "parameters" :
   [
    {
     "referenced_type" : "_ZTIRKy"
    }
   ],
   "return_type" : "_ZTIj",
   "source_file" : "external/llvm/include/llvm/ADT/DenseMapInfo.h"
  },
  {
   "function_name" : "llvm::DenseMapInfo<unsigned long long>::getTombstoneKey",
   "linker_set_key" : "_ZN4llvm12DenseMapInfoIyE15getTombstoneKeyEv",
   "return_type" : "_ZTIy",
   "source_file" : "external/llvm/include/llvm/ADT/DenseMapInfo.h"
  },
  {
   "function_name" : "llvm::DenseMapInfo<unsigned long long>::isEqual",
   "linker_set_key" : "_ZN4llvm12DenseMapInfoIyE7isEqualERKyS3_",
   "parameters" :
   [
    {
     "referenced_type" : "_ZTIRKy"
    },
    {
     "referenced_type" : "_ZTIRKy"
    }
   ],
   "return_type" : "_ZTIb",
   "source_file" : "external/llvm/include/llvm/ADT/DenseMapInfo.h"
  },
  {
   "function_name" : "llvm::DoubleToBits",
   "linker_set_key" : "_ZN4llvm12DoubleToBitsEd",
   "parameters" :
   [
    {
     "referenced_type" : "_ZTId"
    }
   ],
   "return_type" : "_ZTIm",
   "source_file" : "external/llvm/include/llvm/Support/MathExtras.h"
  },
  {
   "function_name" : "llvm::FunctionType::classof",
   "linker_set_key" : "_ZN4llvm12FunctionType7classofEPKNS_4TypeE",
   "parameters" :
   [
    {
     "referenced_type" : "_ZTIPKN4llvm4TypeE"
    }
   ],
   "return_type" : "_ZTIb",
   "source_file" : "external/llvm/include/llvm/IR/DerivedTypes.h"
  },
  {
   "function_name" : "llvm::Log2_32_Ceil",
   "linker_set_key" : "_ZN4llvm12Log2_32_CeilEj",
   "parameters" :
   [
    {
     "referenced_type" : "_ZTIj"
    }
   ],
   "return_type" : "_ZTIj",
   "source_file" : "external/llvm/include/llvm/Support/MathExtras.h"
  },
  {
   "function_name" : "llvm::Log2_64_Ceil",
   "linker_set_key" : "_ZN4llvm12Log2_64_CeilEm",
   "parameters" :
   [
    {
     "referenced_type" : "_ZTIm"
    }
   ],
   "return_type" : "_ZTIj",
   "source_file" : "external/llvm/include/llvm/Support/MathExtras.h"
  },
  {
   "function_name" : "llvm::NextPowerOf2",
   "linker_set_key" : "_ZN4llvm12NextPowerOf2Em",
   "parameters" :
   [
    {
     "referenced_type" : "_ZTIm"
    }
   ],
   "return_type" : "_ZTIm",
   "source_file" : "external/llvm/include/llvm/Support/MathExtras.h"
  },
  {
   "function_name" : "llvm::SignExtend32",
   "linker_set_key" : "_ZN4llvm12SignExtend32Ejj",
   "parameters" :
   [
    {
     "referenced_type" : "_ZTIj"
    },
    {
     "referenced_type" : "_ZTIj"
    }
   ],
   "return_type" : "_ZTIi",
   "source_file" : "external/llvm/include/llvm/Support/MathExtras.h"
  },
  {
   "function_name" : "llvm::SignExtend64",
   "linker_set_key" : "_ZN4llvm12SignExtend64Emj",
   "parameters" :
   [
    {
     "referenced_type" : "_ZTIm"
    },
    {
     "referenced_type" : "_ZTIj"
    }
   ],
   "return_type" : "_ZTIl",
   "source_file" : "external/llvm/include/llvm/Support/MathExtras.h"
  },
  {
   "function_name" : "llvm::makeArrayRef",
   "linker_set_key" : "_ZN4llvm12makeArrayRefIPNS_4TypeEEENS_8ArrayRefIT_EEPKS4_S7_",
   "parameters" :
   [
    {
     "referenced_type" : "_ZTIPKPN4llvm4TypeE"
    },
    {
     "referenced_type" : "_ZTIPKPN4llvm4TypeE"
    }
   ],
   "return_type" : "_ZTIN4llvm8ArrayRefIPNS_4TypeEEE",
   "source_file" : "external/llvm/include/llvm/ADT/ArrayRef.h",
   "template_args" : [ "_ZTIPN4llvm4TypeE" ]
  },
  {
   "function_name" : "llvm::CompositeType::classof",
   "linker_set_key" : "_ZN4llvm13CompositeType7classofEPKNS_4TypeE",
   "parameters" :
   [
    {
     "referenced_type" : "_ZTIPKN4llvm4TypeE"
    }
   ],
   "return_type" : "_ZTIb",
   "source_file" : "external/llvm/include/llvm/IR/DerivedTypes.h"
  },
  {
   "access" : "protected",
   "function_name" : "llvm::CompositeType::CompositeType",
   "linker_set_key" : "_ZN4llvm13CompositeTypeC1ERNS_11LLVMContextENS_4Type6TypeIDE",
   "parameters" :
   [
    {
     "is_this_ptr" : true,
     "referenced_type" : "_ZTIPN4llvm13CompositeTypeE"
    },
    {
     "referenced_type" : "_ZTIRN4llvm11LLVMContextE"
    },
    {
     "referenced_type" : "_ZTIN4llvm4Type6TypeIDE"
    }
   ],
   "return_type" : "_ZTIv",
   "source_file" : "external/llvm/include/llvm/IR/DerivedTypes.h"
  },
  {
   "access" : "protected",
   "function_name" : "llvm::CompositeType::CompositeType",
   "linker_set_key" : "_ZN4llvm13CompositeTypeC2ERNS_11LLVMContextENS_4Type6TypeIDE",
   "parameters" :
   [
    {
     "is_this_ptr" : true,
     "referenced_type" : "_ZTIPN4llvm13CompositeTypeE"
    },
    {
     "referenced_type" : "_ZTIRN4llvm11LLVMContextE"
    },
    {
     "referenced_type" : "_ZTIN4llvm4Type6TypeIDE"
    }
   ],
   "return_type" : "_ZTIv",
   "source_file" : "external/llvm/include/llvm/IR/DerivedTypes.h"
  },
  {
   "function_name" : "llvm::ManagedStatic<llvm::cl::SubCommand>::operator*",
   "linker_set_key" : "_ZN4llvm13ManagedStaticINS_2cl10SubCommandEEdeEv",
   "parameters" :
   [
    {
     "is_this_ptr" : true,
     "referenced_type" : "_ZTIPN4llvm13ManagedStaticINS_2cl10SubCommandEEE"
    }
   ],
   "return_type" : "_ZTIRN4llvm2cl10SubCommandE",
   "source_file" : "external/llvm/include/llvm/Support/ManagedStatic.h"
  },
  {
   "function_name" : "llvm::PowerOf2Floor",
   "linker_set_key" : "_ZN4llvm13PowerOf2FloorEm",
   "parameters" :
   [
    {
     "referenced_type" : "_ZTIm"
    }
   ],
   "return_type" : "_ZTIm",
   "source_file" : "external/llvm/include/llvm/Support/MathExtras.h"
  },
  {
   "function_name" : "llvm::StringMapImpl::getTombstoneVal",
   "linker_set_key" : "_ZN4llvm13StringMapImpl15getTombstoneValEv",
   "return_type" : "_ZTIPN4llvm18StringMapEntryBaseE",
   "source_file" : "external/llvm/include/llvm/ADT/StringMap.h"
  },
  {
   "function_name" : "llvm::StringMapImpl::swap",
   "linker_set_key" : "_ZN4llvm13StringMapImpl4swapERS0_",
   "parameters" :
   [
    {
     "is_this_ptr" : true,
     "referenced_type" : "_ZTIPN4llvm13StringMapImplE"
    },
    {
     "referenced_type" : "_ZTIRN4llvm13StringMapImplE"
    }
   ],
   "return_type" : "_ZTIv",
   "source_file" : "external/llvm/include/llvm/ADT/StringMap.h"
  },
  {
   "access" : "protected",
   "function_name" : "llvm::StringMapImpl::StringMapImpl",
   "linker_set_key" : "_ZN4llvm13StringMapImplC1EOS0_",
   "parameters" :
   [
    {
     "is_this_ptr" : true,
     "referenced_type" : "_ZTIPN4llvm13StringMapImplE"
    },
    {
     "referenced_type" : "_ZTION4llvm13StringMapImplE"
    }
   ],
   "return_type" : "_ZTIv",
   "source_file" : "external/llvm/include/llvm/ADT/StringMap.h"
  },
  {
   "access" : "protected",
   "function_name" : "llvm::StringMapImpl::StringMapImpl",
   "linker_set_key" : "_ZN4llvm13StringMapImplC1Ej",
   "parameters" :
   [
    {
     "is_this_ptr" : true,
     "referenced_type" : "_ZTIPN4llvm13StringMapImplE"
    },
    {
     "referenced_type" : "_ZTIj"
    }
   ],
   "return_type" : "_ZTIv",
   "source_file" : "external/llvm/include/llvm/ADT/StringMap.h"
  },
  {
   "access" : "protected",
   "function_name" : "llvm::StringMapImpl::StringMapImpl",
   "linker_set_key" : "_ZN4llvm13StringMapImplC2EOS0_",
   "parameters" :
   [
    {
     "is_this_ptr" : true,
     "referenced_type" : "_ZTIPN4llvm13StringMapImplE"
    },
    {
     "referenced_type" : "_ZTION4llvm13StringMapImplE"
    }
   ],
   "return_type" : "_ZTIv",
   "source_file" : "external/llvm/include/llvm/ADT/StringMap.h"
  },
  {
   "access" : "protected",
   "function_name" : "llvm::StringMapImpl::StringMapImpl",
   "linker_set_key" : "_ZN4llvm13StringMapImplC2Ej",
   "parameters" :
   [
    {
     "is_this_ptr" : true,
     "referenced_type" : "_ZTIPN4llvm13StringMapImplE"
    },
    {
     "referenced_type" : "_ZTIj"
    }
   ],
   "return_type" : "_ZTIv",
   "source_file" : "external/llvm/include/llvm/ADT/StringMap.h"
  },
  {
   "function_name" : "llvm::isPowerOf2_32",
   "linker_set_key" : "_ZN4llvm13isPowerOf2_32Ej",
   "parameters" :
   [
    {
     "referenced_type" : "_ZTIj"
    }
   ],
   "return_type" : "_ZTIb",
   "source_file" : "external/llvm/include/llvm/Support/MathExtras.h"
  },
  {
   "function_name" : "llvm::isPowerOf2_64",
   "linker_set_key" : "_ZN4llvm13isPowerOf2_64Em",
   "parameters" :
   [
    {
     "referenced_type" : "_ZTIm"
    }
   ],
   "return_type" : "_ZTIb",
   "source_file" : "external/llvm/include/llvm/Support/MathExtras.h"
  },
  {
   "function_name" : "llvm::isa_impl_wrap<llvm::VectorType, llvm::Type *const, const llvm::Type *>::doit",
   "linker_set_key" : "_ZN4llvm13isa_impl_wrapINS_10VectorTypeEKPNS_4TypeEPKS2_E4doitERS4_",
   "parameters" :
   [
    {
     "referenced_type" : "_ZTIRKPN4llvm4TypeE"
    }
   ],
   "return_type" : "_ZTIb",
   "source_file" : "external/llvm/include/llvm/Support/Casting.h"
  },
  {
   "function_name" : "llvm::isa_impl_wrap<llvm::VectorType, const llvm::Type *, const llvm::Type *>::doit",
   "linker_set_key" : "_ZN4llvm13isa_impl_wrapINS_10VectorTypeEPKNS_4TypeES4_E4doitERKS4_",
   "parameters" :
   [
    {
     "referenced_type" : "_ZTIRKPKN4llvm4TypeE"
    }
   ],
   "return_type" : "_ZTIb",
   "source_file" : "external/llvm/include/llvm/Support/Casting.h"
  },
  {
   "function_name" : "llvm::isa_impl_wrap<llvm::IntegerType, llvm::Type *const, const llvm::Type *>::doit",
   "linker_set_key" : "_ZN4llvm13isa_impl_wrapINS_11IntegerTypeEKPNS_4TypeEPKS2_E4doitERS4_",
   "parameters" :
   [
    {
     "referenced_type" : "_ZTIRKPN4llvm4TypeE"
    }
   ],
   "return_type" : "_ZTIb",
   "source_file" : "external/llvm/include/llvm/Support/Casting.h"
  },
  {
   "function_name" : "llvm::isa_impl_wrap<llvm::IntegerType, const llvm::Type *, const llvm::Type *>::doit",
   "linker_set_key" : "_ZN4llvm13isa_impl_wrapINS_11IntegerTypeEPKNS_4TypeES4_E4doitERKS4_",
   "parameters" :
   [
    {
     "referenced_type" : "_ZTIRKPKN4llvm4TypeE"
    }
   ],
   "return_type" : "_ZTIb",
   "source_file" : "external/llvm/include/llvm/Support/Casting.h"
  },
  {
   "function_name" : "llvm::simplify_type<llvm::Type *const>::getSimplifiedValue",
   "linker_set_key" : "_ZN4llvm13simplify_typeIKPNS_4TypeEE18getSimplifiedValueERS3_",
   "parameters" :
   [
    {
     "referenced_type" : "_ZTIRKPN4llvm4TypeE"
    }
   ],
   "return_type" : "_ZTIPKN4llvm4TypeE",
   "source_file" : "external/llvm/include/llvm/Support/Casting.h"
  },
  {
   "function_name" : "llvm::simplify_type<llvm::Type *>::getSimplifiedValue",
   "linker_set_key" : "_ZN4llvm13simplify_typeIPNS_4TypeEE18getSimplifiedValueERS2_",
   "parameters" :
   [
    {
     "referenced_type" : "_ZTIRPN4llvm4TypeE"
    }
   ],
   "return_type" : "_ZTIRPN4llvm4TypeE",
   "source_file" : "external/llvm/include/llvm/Support/Casting.h"
  },
  {
   "function_name" : "llvm::DebugEpochBase::HandleBase::HandleBase",
   "linker_set_key" : "_ZN4llvm14DebugEpochBase10HandleBaseC1EPKS0_",
   "parameters" :
   [
    {
     "is_this_ptr" : true,
     "referenced_type" : "_ZTIPN4llvm14DebugEpochBase10HandleBaseE"
    },
    {
     "referenced_type" : "_ZTIPKN4llvm14DebugEpochBaseE"
    }
   ],
   "return_type" : "_ZTIv",
   "source_file" : "external/llvm/include/llvm/ADT/EpochTracker.h"
  },
  {
   "function_name" : "llvm::DebugEpochBase::HandleBase::HandleBase",
   "linker_set_key" : "_ZN4llvm14DebugEpochBase10HandleBaseC1Ev",
   "parameters" :
   [
    {
     "is_this_ptr" : true,
     "referenced_type" : "_ZTIPN4llvm14DebugEpochBase10HandleBaseE"
    }
   ],
   "return_type" : "_ZTIv",
   "source_file" : "external/llvm/include/llvm/ADT/EpochTracker.h"
  },
  {
   "function_name" : "llvm::DebugEpochBase::HandleBase::HandleBase",
   "linker_set_key" : "_ZN4llvm14DebugEpochBase10HandleBaseC2EPKS0_",
   "parameters" :
   [
    {
     "is_this_ptr" : true,
     "referenced_type" : "_ZTIPN4llvm14DebugEpochBase10HandleBaseE"
    },
    {
     "referenced_type" : "_ZTIPKN4llvm14DebugEpochBaseE"
    }
   ],
   "return_type" : "_ZTIv",
   "source_file" : "external/llvm/include/llvm/ADT/EpochTracker.h"
  },
  {
   "function_name" : "llvm::DebugEpochBase::HandleBase::HandleBase",
   "linker_set_key" : "_ZN4llvm14DebugEpochBase10HandleBaseC2Ev",
   "parameters" :
   [
    {
     "is_this_ptr" : true,
     "referenced_type" : "_ZTIPN4llvm14DebugEpochBase10HandleBaseE"
    }
   ],
   "return_type" : "_ZTIv",
   "source_file" : "external/llvm/include/llvm/ADT/EpochTracker.h"
  },
  {
   "function_name" : "llvm::DebugEpochBase::incrementEpoch",
   "linker_set_key" : "_ZN4llvm14DebugEpochBase14incrementEpochEv",
   "parameters" :
   [
    {
     "is_this_ptr" : true,
     "referenced_type" : "_ZTIPN4llvm14DebugEpochBaseE"
    }
   ],
   "return_type" : "_ZTIv",
   "source_file" : "external/llvm/include/llvm/ADT/EpochTracker.h"
  },
  {
   "function_name" : "llvm::OptionRegistry::OptionRegistry",
   "linker_set_key" : "_ZN4llvm14OptionRegistryC1Ev",
   "parameters" :
   [
    {
     "is_this_ptr" : true,
     "referenced_type" : "_ZTIPN4llvm14OptionRegistryE"
    }
   ],
   "return_type" : "_ZTIv",
   "source_file" : "external/llvm/include/llvm/Support/Options.h"
  },
  {
   "function_name" : "llvm::OptionRegistry::OptionRegistry",
   "linker_set_key" : "_ZN4llvm14OptionRegistryC2Ev",
   "parameters" :
   [
    {
     "is_this_ptr" : true,
     "referenced_type" : "_ZTIPN4llvm14OptionRegistryE"
    }
   ],
   "return_type" : "_ZTIv",
   "source_file" : "external/llvm/include/llvm/Support/Options.h"
  },
  {
   "function_name" : "llvm::SequentialType::classof",
   "linker_set_key" : "_ZN4llvm14SequentialType7classofEPKNS_4TypeE",
   "parameters" :
   [
    {
     "referenced_type" : "_ZTIPKN4llvm4TypeE"
    }
   ],
   "return_type" : "_ZTIb",
   "source_file" : "external/llvm/include/llvm/IR/DerivedTypes.h"
  },
  {
   "access" : "protected",
   "function_name" : "llvm::SequentialType::SequentialType",
   "linker_set_key" : "_ZN4llvm14SequentialTypeC1ENS_4Type6TypeIDEPS1_",
   "parameters" :
   [
    {
     "is_this_ptr" : true,
     "referenced_type" : "_ZTIPN4llvm14SequentialTypeE"
    },
    {
     "referenced_type" : "_ZTIN4llvm4Type6TypeIDE"
    },
    {
     "referenced_type" : "_ZTIPN4llvm4TypeE"
    }
   ],
   "return_type" : "_ZTIv",
   "source_file" : "external/llvm/include/llvm/IR/DerivedTypes.h"
  },
  {
   "access" : "protected",
   "function_name" : "llvm::SequentialType::SequentialType",
   "linker_set_key" : "_ZN4llvm14SequentialTypeC2ENS_4Type6TypeIDEPS1_",
   "parameters" :
   [
    {
     "is_this_ptr" : true,
     "referenced_type" : "_ZTIPN4llvm14SequentialTypeE"
    },
    {
     "referenced_type" : "_ZTIN4llvm4Type6TypeIDE"
    },
    {
     "referenced_type" : "_ZTIPN4llvm4TypeE"
    }
   ],
   "return_type" : "_ZTIv",
   "source_file" : "external/llvm/include/llvm/IR/DerivedTypes.h"
  },
  {
   "function_name" : "llvm::StringMapEntry<llvm::cl::Option *>::Destroy",
   "linker_set_key" : "_ZN4llvm14StringMapEntryIPNS_2cl6OptionEE7DestroyINS_15MallocAllocatorEEEvRT_",
   "parameters" :
   [
    {
     "is_this_ptr" : true,
     "referenced_type" : "_ZTIPN4llvm14StringMapEntryIPNS_2cl6OptionEEE"
    },
    {
     "referenced_type" : "_ZTIRN4llvm15MallocAllocatorE"
    }
   ],
   "return_type" : "_ZTIv",
   "source_file" : "external/llvm/include/llvm/ADT/StringMap.h",
   "template_args" : [ "_ZTIN4llvm15MallocAllocatorE" ]
  },
  {
   "function_name" : "llvm::iterator_range<llvm::MVT::mvt_iterator>::iterator_range",
   "linker_set_key" : "_ZN4llvm14iterator_rangeINS_3MVT12mvt_iteratorEEC1ES2_S2_",
   "parameters" :
   [
    {
     "is_this_ptr" : true,
     "referenced_type" : "_ZTIPN4llvm14iterator_rangeINS_3MVT12mvt_iteratorEEE"
    },
    {
     "referenced_type" : "_ZTIN4llvm3MVT12mvt_iteratorE"
    },
    {
     "referenced_type" : "_ZTIN4llvm3MVT12mvt_iteratorE"
    }
   ],
   "return_type" : "_ZTIv",
   "source_file" : "external/llvm/include/llvm/ADT/iterator_range.h"
  },
  {
   "function_name" : "llvm::iterator_range<llvm::MVT::mvt_iterator>::iterator_range",
   "linker_set_key" : "_ZN4llvm14iterator_rangeINS_3MVT12mvt_iteratorEEC2ES2_S2_",
   "parameters" :
   [
    {
     "is_this_ptr" : true,
     "referenced_type" : "_ZTIPN4llvm14iterator_rangeINS_3MVT12mvt_iteratorEEE"
    },
    {
     "referenced_type" : "_ZTIN4llvm3MVT12mvt_iteratorE"
    },
    {
     "referenced_type" : "_ZTIN4llvm3MVT12mvt_iteratorE"
    }
   ],
   "return_type" : "_ZTIv",
   "source_file" : "external/llvm/include/llvm/ADT/iterator_range.h"
  },
  {
   "function_name" : "llvm::iterator_range<const unsigned char *>::iterator_range",
   "linker_set_key" : "_ZN4llvm14iterator_rangeIPKhEC1ES2_S2_",
   "parameters" :
   [
    {
     "is_this_ptr" : true,
     "referenced_type" : "_ZTIPN4llvm14iterator_rangeIPKhEE"
    },
    {
     "referenced_type" : "_ZTIPKh"
    },
    {
     "referenced_type" : "_ZTIPKh"
    }
   ],
   "return_type" : "_ZTIv",
   "source_file" : "external/llvm/include/llvm/ADT/iterator_range.h"
  },
  {
   "function_name" : "llvm::iterator_range<const unsigned char *>::iterator_range",
   "linker_set_key" : "_ZN4llvm14iterator_rangeIPKhEC2ES2_S2_",
   "parameters" :
   [
    {
     "is_this_ptr" : true,
     "referenced_type" : "_ZTIPN4llvm14iterator_rangeIPKhEE"
    },
    {
     "referenced_type" : "_ZTIPKh"
    },
    {
     "referenced_type" : "_ZTIPKh"
    }
   ],
   "return_type" : "_ZTIv",
   "source_file" : "external/llvm/include/llvm/ADT/iterator_range.h"
  },
  {
   "function_name" : "llvm::object_creator",
   "linker_set_key" : "_ZN4llvm14object_creatorINS_2cl10SubCommandEEEPvv",
   "return_type" : "_ZTIPv",
   "source_file" : "external/llvm/include/llvm/Support/ManagedStatic.h",
   "template_args" : [ "_ZTIN4llvm2cl10SubCommandE" ]
  },
  {
   "function_name" : "llvm::object_deleter<llvm::cl::SubCommand>::call",
   "linker_set_key" : "_ZN4llvm14object_deleterINS_2cl10SubCommandEE4callEPv",
   "parameters" :
   [
    {
     "referenced_type" : "_ZTIPv"
    }
   ],
   "return_type" : "_ZTIv",
   "source_file" : "external/llvm/include/llvm/Support/ManagedStatic.h"
  },
  {
   "function_name" : "llvm::MallocAllocator::Deallocate",
   "linker_set_key" : "_ZN4llvm15MallocAllocator10DeallocateEPKvm",
   "parameters" :
   [
    {
     "is_this_ptr" : true,
     "referenced_type" : "_ZTIPN4llvm15MallocAllocatorE"
    },
    {
     "referenced_type" : "_ZTIPKv"
    },
    {
     "referenced_type" : "_ZTIm"
    }
   ],
   "return_type" : "_ZTIv",
   "source_file" : "external/llvm/include/llvm/Support/Allocator.h"
  },
  {
   "function_name" : "llvm::MallocAllocator::Reset",
   "linker_set_key" : "_ZN4llvm15MallocAllocator5ResetEv",
   "parameters" :
   [
    {
     "is_this_ptr" : true,
     "referenced_type" : "_ZTIPN4llvm15MallocAllocatorE"
    }
   ],
   "return_type" : "_ZTIv",
   "source_file" : "external/llvm/include/llvm/Support/Allocator.h"
  },
  {
   "function_name" : "llvm::MallocAllocator::Allocate",
   "linker_set_key" : "_ZN4llvm15MallocAllocator8AllocateEmm",
   "parameters" :
   [
    {
     "is_this_ptr" : true,
     "referenced_type" : "_ZTIPN4llvm15MallocAllocatorE"
    },
    {
     "referenced_type" : "_ZTIm"
    },
    {
     "referenced_type" : "_ZTIm"
    }
   ],
   "return_type" : "_ZTIPv",
   "source_file" : "external/llvm/include/llvm/Support/Allocator.h"
  },
  {
   "function_name" : "llvm::SmallPtrSetImpl<llvm::cl::SubCommand *>::insert",
   "linker_set_key" : "_ZN4llvm15SmallPtrSetImplIPNS_2cl10SubCommandEE6insertES3_",
   "parameters" :
   [
    {
     "is_this_ptr" : true,
     "referenced_type" : "_ZTIPN4llvm15SmallPtrSetImplIPNS_2cl10SubCommandEEE"
    },
    {
     "referenced_type" : "_ZTIPN4llvm2cl10SubCommandE"
    }
   ],
   "return_type" : "_ZTINSt3__14pairIN4llvm19SmallPtrSetIteratorIPNS1_2cl10SubCommandEEEbEE",
   "source_file" : "external/llvm/include/llvm/ADT/SmallPtrSet.h"
  },
  {
   "access" : "protected",
   "function_name" : "llvm::SmallPtrSetImpl<llvm::cl::SubCommand *>::SmallPtrSetImpl",
   "linker_set_key" : "_ZN4llvm15SmallPtrSetImplIPNS_2cl10SubCommandEEC1EPPKvj",
   "parameters" :
   [
    {
     "is_this_ptr" : true,
     "referenced_type" : "_ZTIPN4llvm15SmallPtrSetImplIPNS_2cl10SubCommandEEE"
    },
    {
     "referenced_type" : "_ZTIPPKv"
    },
    {
     "referenced_type" : "_ZTIj"
    }
   ],
   "return_type" : "_ZTIv",
   "source_file" : "external/llvm/include/llvm/ADT/SmallPtrSet.h"
  },
  {
   "access" : "protected",
   "function_name" : "llvm::SmallPtrSetImpl<llvm::cl::SubCommand *>::SmallPtrSetImpl",
   "linker_set_key" : "_ZN4llvm15SmallPtrSetImplIPNS_2cl10SubCommandEEC2EPPKvj",
   "parameters" :
   [
    {
     "is_this_ptr" : true,
     "referenced_type" : "_ZTIPN4llvm15SmallPtrSetImplIPNS_2cl10SubCommandEEE"
    },
    {
     "referenced_type" : "_ZTIPPKv"
    },
    {
     "referenced_type" : "_ZTIj"
    }
   ],
   "return_type" : "_ZTIv",
   "source_file" : "external/llvm/include/llvm/ADT/SmallPtrSet.h"
  },
  {
   "access" : "protected",
   "function_name" : "llvm::SmallVectorBase::SmallVectorBase",
   "linker_set_key" : "_ZN4llvm15SmallVectorBaseC1EPvm",
   "parameters" :
   [
    {
     "is_this_ptr" : true,
     "referenced_type" : "_ZTIPN4llvm15SmallVectorBaseE"
    },
    {
     "referenced_type" : "_ZTIPv"
    },
    {
     "referenced_type" : "_ZTIm"
    }
   ],
   "return_type" : "_ZTIv",
   "source_file" : "external/llvm/include/llvm/ADT/SmallVector.h"
  },
  {
   "access" : "protected",
   "function_name" : "llvm::SmallVectorBase::SmallVectorBase",
   "linker_set_key" : "_ZN4llvm15SmallVectorBaseC2EPvm",
   "parameters" :
   [
    {
     "is_this_ptr" : true,
     "referenced_type" : "_ZTIPN4llvm15SmallVectorBaseE"
    },
    {
     "referenced_type" : "_ZTIPv"
    },
    {
     "referenced_type" : "_ZTIm"
    }
   ],
   "return_type" : "_ZTIv",
   "source_file" : "external/llvm/include/llvm/ADT/SmallVector.h"
  },
  {
   "access" : "protected",
   "function_name" : "llvm::SmallVectorImpl<llvm::cl::Option *>::SmallVectorImpl",
   "linker_set_key" : "_ZN4llvm15SmallVectorImplIPNS_2cl6OptionEEC1Ej",
   "parameters" :
   [
    {
     "is_this_ptr" : true,
     "referenced_type" : "_ZTIPN4llvm15SmallVectorImplIPNS_2cl6OptionEEE"
    },
    {
     "referenced_type" : "_ZTIj"
    }
   ],
   "return_type" : "_ZTIv",
   "source_file" : "external/llvm/include/llvm/ADT/SmallVector.h"
  },
  {
   "access" : "protected",
   "function_name" : "llvm::SmallVectorImpl<llvm::cl::Option *>::SmallVectorImpl",
   "linker_set_key" : "_ZN4llvm15SmallVectorImplIPNS_2cl6OptionEEC2Ej",
   "parameters" :
   [
    {
     "is_this_ptr" : true,
     "referenced_type" : "_ZTIPN4llvm15SmallVectorImplIPNS_2cl6OptionEEE"
    },
    {
     "referenced_type" : "_ZTIj"
    }
   ],
   "return_type" : "_ZTIv",
   "source_file" : "external/llvm/include/llvm/ADT/SmallVector.h"
  },
  {
   "function_name" : "llvm::SmallVectorImpl<llvm::cl::Option *>::~SmallVectorImpl",
   "linker_set_key" : "_ZN4llvm15SmallVectorImplIPNS_2cl6OptionEED1Ev",
   "parameters" :
   [
    {
     "is_this_ptr" : true,
     "referenced_type" : "_ZTIPN4llvm15SmallVectorImplIPNS_2cl6OptionEEE"
    }
   ],
   "return_type" : "_ZTIv",
   "source_file" : "external/llvm/include/llvm/ADT/SmallVector.h"
  },
  {
   "function_name" : "llvm::SmallVectorImpl<llvm::cl::Option *>::~SmallVectorImpl",
   "linker_set_key" : "_ZN4llvm15SmallVectorImplIPNS_2cl6OptionEED2Ev",
   "parameters" :
   [
    {
     "is_this_ptr" : true,
     "referenced_type" : "_ZTIPN4llvm15SmallVectorImplIPNS_2cl6OptionEEE"
    }
   ],
   "return_type" : "_ZTIv",
   "source_file" : "external/llvm/include/llvm/ADT/SmallVector.h"
  },
  {
   "function_name" : "llvm::countPopulation",
   "linker_set_key" : "_ZN4llvm15countPopulationImEEjT_",
   "parameters" :
   [
    {
     "referenced_type" : "_ZTIm"
    }
   ],
   "return_type" : "_ZTIj",
   "source_file" : "external/llvm/include/llvm/Support/MathExtras.h",
   "template_args" : [ "_ZTIm" ]
  },
  {
   "function_name" : "llvm::cast_convert_val<llvm::StructType, const llvm::Type *, const llvm::Type *>::doit",
   "linker_set_key" : "_ZN4llvm16cast_convert_valINS_10StructTypeEPKNS_4TypeES4_E4doitERKS4_",
   "parameters" :
   [
    {
     "referenced_type" : "_ZTIRKPKN4llvm4TypeE"
    }
   ],
   "return_type" : "_ZTIPKN4llvm10StructTypeE",
   "source_file" : "external/llvm/include/llvm/Support/Casting.h"
  },
  {
   "function_name" : "llvm::cast_convert_val<llvm::VectorType, const llvm::Type *, const llvm::Type *>::doit",
   "linker_set_key" : "_ZN4llvm16cast_convert_valINS_10VectorTypeEPKNS_4TypeES4_E4doitERKS4_",
   "parameters" :
   [
    {
     "referenced_type" : "_ZTIRKPKN4llvm4TypeE"
    }
   ],
   "return_type" : "_ZTIPKN4llvm10VectorTypeE",
   "source_file" : "external/llvm/include/llvm/Support/Casting.h"
  },
  {
   "function_name" : "llvm::cast_convert_val<llvm::VectorType, llvm::Type *, llvm::Type *>::doit",
   "linker_set_key" : "_ZN4llvm16cast_convert_valINS_10VectorTypeEPNS_4TypeES3_E4doitERKS3_",
   "parameters" :
   [
    {
     "referenced_type" : "_ZTIRKPN4llvm4TypeE"
    }
   ],
   "return_type" : "_ZTIPN4llvm10VectorTypeE",
   "source_file" : "external/llvm/include/llvm/Support/Casting.h"
  },
  {
   "function_name" : "llvm::cast_convert_val<llvm::IntegerType, const llvm::Type *, const llvm::Type *>::doit",
   "linker_set_key" : "_ZN4llvm16cast_convert_valINS_11IntegerTypeEPKNS_4TypeES4_E4doitERKS4_",
   "parameters" :
   [
    {
     "referenced_type" : "_ZTIRKPKN4llvm4TypeE"
    }
   ],
   "return_type" : "_ZTIPKN4llvm11IntegerTypeE",
   "source_file" : "external/llvm/include/llvm/Support/Casting.h"
  },
  {
   "function_name" : "llvm::cast_convert_val<llvm::IntegerType, llvm::Type *, llvm::Type *>::doit",
   "linker_set_key" : "_ZN4llvm16cast_convert_valINS_11IntegerTypeEPNS_4TypeES3_E4doitERKS3_",
   "parameters" :
   [
    {
     "referenced_type" : "_ZTIRKPN4llvm4TypeE"
    }
   ],
   "return_type" : "_ZTIPN4llvm11IntegerTypeE",
   "source_file" : "external/llvm/include/llvm/Support/Casting.h"
  },
  {
   "function_name" : "llvm::cast_convert_val<llvm::PointerType, llvm::Type *, llvm::Type *>::doit",
   "linker_set_key" : "_ZN4llvm16cast_convert_valINS_11PointerTypeEPNS_4TypeES3_E4doitERKS3_",
   "parameters" :
   [
    {
     "referenced_type" : "_ZTIRKPN4llvm4TypeE"
    }
   ],
   "return_type" : "_ZTIPN4llvm11PointerTypeE",
   "source_file" : "external/llvm/include/llvm/Support/Casting.h"
  },
  {
   "function_name" : "llvm::cast_convert_val<llvm::FunctionType, const llvm::Type *, const llvm::Type *>::doit",
   "linker_set_key" : "_ZN4llvm16cast_convert_valINS_12FunctionTypeEPKNS_4TypeES4_E4doitERKS4_",
   "parameters" :
   [
    {
     "referenced_type" : "_ZTIRKPKN4llvm4TypeE"
    }
   ],
   "return_type" : "_ZTIPKN4llvm12FunctionTypeE",
   "source_file" : "external/llvm/include/llvm/Support/Casting.h"
  },
  {
   "function_name" : "llvm::cast_convert_val<llvm::ArrayType, const llvm::Type *, const llvm::Type *>::doit",
   "linker_set_key" : "_ZN4llvm16cast_convert_valINS_9ArrayTypeEPKNS_4TypeES4_E4doitERKS4_",
   "parameters" :
   [
    {
     "referenced_type" : "_ZTIRKPKN4llvm4TypeE"
    }
   ],
   "return_type" : "_ZTIPKN4llvm9ArrayTypeE",
   "source_file" : "external/llvm/include/llvm/Support/Casting.h"
  },
  {
   "function_name" : "llvm::isShiftedMask_32",
   "linker_set_key" : "_ZN4llvm16isShiftedMask_32Ej",
   "parameters" :
   [
    {
     "referenced_type" : "_ZTIj"
    }
   ],
   "return_type" : "_ZTIb",
   "source_file" : "external/llvm/include/llvm/Support/MathExtras.h"
  },
  {
   "function_name" : "llvm::isShiftedMask_64",
   "linker_set_key" : "_ZN4llvm16isShiftedMask_64Em",
   "parameters" :
   [
    {
     "referenced_type" : "_ZTIm"
    }
   ],
   "return_type" : "_ZTIb",
   "source_file" : "external/llvm/include/llvm/Support/MathExtras.h"
  },
  {
   "function_name" : "llvm::OffsetToAlignment",
   "linker_set_key" : "_ZN4llvm17OffsetToAlignmentEmm",
   "parameters" :
   [
    {
     "referenced_type" : "_ZTIm"
    },
    {
     "referenced_type" : "_ZTIm"
    }
   ],
   "return_type" : "_ZTIm",
   "source_file" : "external/llvm/include/llvm/Support/MathExtras.h"
  },
  {
   "function_name" : "llvm::countLeadingZeros",
   "linker_set_key" : "_ZN4llvm17countLeadingZerosIjEEmT_NS_12ZeroBehaviorE",
   "parameters" :
   [
    {
     "referenced_type" : "_ZTIj"
    },
    {
     "default_arg" : true,
     "referenced_type" : "_ZTIN4llvm12ZeroBehaviorE"
    }
   ],
   "return_type" : "_ZTIm",
   "source_file" : "external/llvm/include/llvm/Support/MathExtras.h",
   "template_args" : [ "_ZTIj" ]
  },
  {
   "function_name" : "llvm::countLeadingZeros",
   "linker_set_key" : "_ZN4llvm17countLeadingZerosImEEmT_NS_12ZeroBehaviorE",
   "parameters" :
   [
    {
     "referenced_type" : "_ZTIm"
    },
    {
     "default_arg" : true,
     "referenced_type" : "_ZTIN4llvm12ZeroBehaviorE"
    }
   ],
   "return_type" : "_ZTIm",
   "source_file" : "external/llvm/include/llvm/Support/MathExtras.h",
   "template_args" : [ "_ZTIm" ]
  },
  {
   "function_name" : "llvm::countTrailingOnes",
   "linker_set_key" : "_ZN4llvm17countTrailingOnesImEEmT_NS_12ZeroBehaviorE",
   "parameters" :
   [
    {
     "referenced_type" : "_ZTIm"
    },
    {
     "default_arg" : true,
     "referenced_type" : "_ZTIN4llvm12ZeroBehaviorE"
    }
   ],
   "return_type" : "_ZTIm",
   "source_file" : "external/llvm/include/llvm/Support/MathExtras.h",
   "template_args" : [ "_ZTIm" ]
  },
  {
   "function_name" : "llvm::llvm_shutdown_obj::llvm_shutdown_obj",
   "linker_set_key" : "_ZN4llvm17llvm_shutdown_objC1Ev",
   "parameters" :
   [
    {
     "is_this_ptr" : true,
     "referenced_type" : "_ZTIPN4llvm17llvm_shutdown_objE"
    }
   ],
   "return_type" : "_ZTIv",
   "source_file" : "external/llvm/include/llvm/Support/ManagedStatic.h"
  },
  {
   "function_name" : "llvm::llvm_shutdown_obj::llvm_shutdown_obj",
   "linker_set_key" : "_ZN4llvm17llvm_shutdown_objC2Ev",
   "parameters" :
   [
    {
     "is_this_ptr" : true,
     "referenced_type" : "_ZTIPN4llvm17llvm_shutdown_objE"
    }
   ],
   "return_type" : "_ZTIv",
   "source_file" : "external/llvm/include/llvm/Support/ManagedStatic.h"
  },
  {
   "function_name" : "llvm::llvm_shutdown_obj::~llvm_shutdown_obj",
   "linker_set_key" : "_ZN4llvm17llvm_shutdown_objD1Ev",
   "parameters" :
   [
    {
     "is_this_ptr" : true,
     "referenced_type" : "_ZTIPN4llvm17llvm_shutdown_objE"
    }
   ],
   "return_type" : "_ZTIv",
   "source_file" : "external/llvm/include/llvm/Support/ManagedStatic.h"
  },
  {
   "function_name" : "llvm::llvm_shutdown_obj::~llvm_shutdown_obj",
   "linker_set_key" : "_ZN4llvm17llvm_shutdown_objD2Ev",
   "parameters" :
   [
    {
     "is_this_ptr" : true,
     "referenced_type" : "_ZTIPN4llvm17llvm_shutdown_objE"
    }
   ],
   "return_type" : "_ZTIv",
   "source_file" : "external/llvm/include/llvm/Support/ManagedStatic.h"
  },
  {
   "function_name" : "llvm::StringMapEntryBase::StringMapEntryBase",
   "linker_set_key" : "_ZN4llvm18StringMapEntryBaseC1Ej",
   "parameters" :
   [
    {
     "is_this_ptr" : true,
     "referenced_type" : "_ZTIPN4llvm18StringMapEntryBaseE"
    },
    {
     "referenced_type" : "_ZTIj"
    }
   ],
   "return_type" : "_ZTIv",
   "source_file" : "external/llvm/include/llvm/ADT/StringMap.h"
  },
  {
   "function_name" : "llvm::StringMapEntryBase::StringMapEntryBase",
   "linker_set_key" : "_ZN4llvm18StringMapEntryBaseC2Ej",
   "parameters" :
   [
    {
     "is_this_ptr" : true,
     "referenced_type" : "_ZTIPN4llvm18StringMapEntryBaseE"
    },
    {
     "referenced_type" : "_ZTIj"
    }
   ],
   "return_type" : "_ZTIv",
   "source_file" : "external/llvm/include/llvm/ADT/StringMap.h"
  },
  {
   "function_name" : "llvm::countTrailingZeros",
   "linker_set_key" : "_ZN4llvm18countTrailingZerosImEEmT_NS_12ZeroBehaviorE",
   "parameters" :
   [
    {
     "referenced_type" : "_ZTIm"
    },
    {
     "default_arg" : true,
     "referenced_type" : "_ZTIN4llvm12ZeroBehaviorE"
    }
   ],
   "return_type" : "_ZTIm",
   "source_file" : "external/llvm/include/llvm/Support/MathExtras.h",
   "template_args" : [ "_ZTIm" ]
  },
  {
   "access" : "protected",
   "function_name" : "llvm::SmallPtrSetImplBase::insert_imp",
   "linker_set_key" : "_ZN4llvm19SmallPtrSetImplBase10insert_impEPKv",
   "parameters" :
   [
    {
     "is_this_ptr" : true,
     "referenced_type" : "_ZTIPN4llvm19SmallPtrSetImplBaseE"
    },
    {
     "referenced_type" : "_ZTIPKv"
    }
   ],
   "return_type" : "_ZTINSt3__14pairIPKPKvbEE",
   "source_file" : "external/llvm/include/llvm/ADT/SmallPtrSet.h"
  },
  {
   "access" : "protected",
   "function_name" : "llvm::SmallPtrSetImplBase::getEmptyMarker",
   "linker_set_key" : "_ZN4llvm19SmallPtrSetImplBase14getEmptyMarkerEv",
   "return_type" : "_ZTIPv",
   "source_file" : "external/llvm/include/llvm/ADT/SmallPtrSet.h"
  },
  {
   "access" : "protected",
   "function_name" : "llvm::SmallPtrSetImplBase::getTombstoneMarker",
   "linker_set_key" : "_ZN4llvm19SmallPtrSetImplBase18getTombstoneMarkerEv",
   "return_type" : "_ZTIPv",
   "source_file" : "external/llvm/include/llvm/ADT/SmallPtrSet.h"
  },
  {
   "function_name" : "llvm::SmallPtrSetImplBase::clear",
   "linker_set_key" : "_ZN4llvm19SmallPtrSetImplBase5clearEv",
   "parameters" :
   [
    {
     "is_this_ptr" : true,
     "referenced_type" : "_ZTIPN4llvm19SmallPtrSetImplBaseE"
    }
   ],
   "return_type" : "_ZTIv",
   "source_file" : "external/llvm/include/llvm/ADT/SmallPtrSet.h"
  },
  {
   "access" : "protected",
   "function_name" : "llvm::SmallPtrSetImplBase::SmallPtrSetImplBase",
   "linker_set_key" : "_ZN4llvm19SmallPtrSetImplBaseC1EPPKvj",
   "parameters" :
   [
    {
     "is_this_ptr" : true,
     "referenced_type" : "_ZTIPN4llvm19SmallPtrSetImplBaseE"
    },
    {
     "referenced_type" : "_ZTIPPKv"
    },
    {
     "referenced_type" : "_ZTIj"
    }
   ],
   "return_type" : "_ZTIv",
   "source_file" : "external/llvm/include/llvm/ADT/SmallPtrSet.h"
  },
  {
   "access" : "protected",
   "function_name" : "llvm::SmallPtrSetImplBase::SmallPtrSetImplBase",
   "linker_set_key" : "_ZN4llvm19SmallPtrSetImplBaseC2EPPKvj",
   "parameters" :
   [
    {
     "is_this_ptr" : true,
     "referenced_type" : "_ZTIPN4llvm19SmallPtrSetImplBaseE"
    },
    {
     "referenced_type" : "_ZTIPPKv"
    },
    {
     "referenced_type" : "_ZTIj"
    }
   ],
   "return_type" : "_ZTIv",
   "source_file" : "external/llvm/include/llvm/ADT/SmallPtrSet.h"
  },
  {
   "access" : "protected",
   "function_name" : "llvm::SmallPtrSetImplBase::~SmallPtrSetImplBase",
   "linker_set_key" : "_ZN4llvm19SmallPtrSetImplBaseD1Ev",
   "parameters" :
   [
    {
     "is_this_ptr" : true,
     "referenced_type" : "_ZTIPN4llvm19SmallPtrSetImplBaseE"
    }
   ],
   "return_type" : "_ZTIv",
   "source_file" : "external/llvm/include/llvm/ADT/SmallPtrSet.h"
  },
  {
   "access" : "protected",
   "function_name" : "llvm::SmallPtrSetImplBase::~SmallPtrSetImplBase",
   "linker_set_key" : "_ZN4llvm19SmallPtrSetImplBaseD2Ev",
   "parameters" :
   [
    {
     "is_this_ptr" : true,
     "referenced_type" : "_ZTIPN4llvm19SmallPtrSetImplBaseE"
    }
   ],
   "return_type" : "_ZTIv",
   "source_file" : "external/llvm/include/llvm/ADT/SmallPtrSet.h"
  },
  {
   "function_name" : "llvm::SmallPtrSetIterator<llvm::cl::SubCommand *>::SmallPtrSetIterator",
   "linker_set_key" : "_ZN4llvm19SmallPtrSetIteratorIPNS_2cl10SubCommandEEC1EPKPKvS8_",
   "parameters" :
   [
    {
     "is_this_ptr" : true,
     "referenced_type" : "_ZTIPN4llvm19SmallPtrSetIteratorIPNS_2cl10SubCommandEEE"
    },
    {
     "referenced_type" : "_ZTIPKPKv"
    },
    {
     "referenced_type" : "_ZTIPKPKv"
    }
   ],
   "return_type" : "_ZTIv",
   "source_file" : "external/llvm/include/llvm/ADT/SmallPtrSet.h"
  },
  {
   "function_name" : "llvm::SmallPtrSetIterator<llvm::cl::SubCommand *>::SmallPtrSetIterator",
   "linker_set_key" : "_ZN4llvm19SmallPtrSetIteratorIPNS_2cl10SubCommandEEC2EPKPKvS8_",
   "parameters" :
   [
    {
     "is_this_ptr" : true,
     "referenced_type" : "_ZTIPN4llvm19SmallPtrSetIteratorIPNS_2cl10SubCommandEEE"
    },
    {
     "referenced_type" : "_ZTIPKPKv"
    },
    {
     "referenced_type" : "_ZTIPKPKv"
    }
   ],
   "return_type" : "_ZTIv",
   "source_file" : "external/llvm/include/llvm/ADT/SmallPtrSet.h"
  },
  {
   "function_name" : "llvm::SmallPtrSetIterator<llvm::cl::SubCommand *>::operator++",
   "linker_set_key" : "_ZN4llvm19SmallPtrSetIteratorIPNS_2cl10SubCommandEEppEv",
   "parameters" :
   [
    {
     "is_this_ptr" : true,
     "referenced_type" : "_ZTIPN4llvm19SmallPtrSetIteratorIPNS_2cl10SubCommandEEE"
    }
   ],
   "return_type" : "_ZTIRN4llvm19SmallPtrSetIteratorIPNS_2cl10SubCommandEEE",
   "source_file" : "external/llvm/include/llvm/ADT/SmallPtrSet.h"
  },
  {
   "function_name" : "llvm::alignmentAdjustment",
   "linker_set_key" : "_ZN4llvm19alignmentAdjustmentEPKvm",
   "parameters" :
   [
    {
     "referenced_type" : "_ZTIPKv"
    },
    {
     "referenced_type" : "_ZTIm"
    }
   ],
   "return_type" : "_ZTIm",
   "source_file" : "external/llvm/include/llvm/Support/MathExtras.h"
  },
  {
   "function_name" : "llvm::PointerLikeTypeTraits<llvm::cl::SubCommand *>::getAsVoidPointer",
   "linker_set_key" : "_ZN4llvm21PointerLikeTypeTraitsIPNS_2cl10SubCommandEE16getAsVoidPointerES3_",
   "parameters" :
   [
    {
     "referenced_type" : "_ZTIPN4llvm2cl10SubCommandE"
    }
   ],
   "return_type" : "_ZTIPv",
   "source_file" : "external/llvm/include/llvm/Support/PointerLikeTypeTraits.h"
  },
  {
   "function_name" : "llvm::PointerLikeTypeTraits<llvm::cl::SubCommand *>::getFromVoidPointer",
   "linker_set_key" : "_ZN4llvm21PointerLikeTypeTraitsIPNS_2cl10SubCommandEE18getFromVoidPointerEPv",
   "parameters" :
   [
    {
     "referenced_type" : "_ZTIPv"
    }
   ],
   "return_type" : "_ZTIPN4llvm2cl10SubCommandE",
   "source_file" : "external/llvm/include/llvm/Support/PointerLikeTypeTraits.h"
  },
  {
   "function_name" : "llvm::PointerLikeTypeTraits<void *>::getAsVoidPointer",
   "linker_set_key" : "_ZN4llvm21PointerLikeTypeTraitsIPvE16getAsVoidPointerES1_",
   "parameters" :
   [
    {
     "referenced_type" : "_ZTIPv"
    }
   ],
   "return_type" : "_ZTIPv",
   "source_file" : "external/llvm/include/llvm/Support/PointerLikeTypeTraits.h"
  },
  {
   "function_name" : "llvm::PointerLikeTypeTraits<void *>::getFromVoidPointer",
   "linker_set_key" : "_ZN4llvm21PointerLikeTypeTraitsIPvE18getFromVoidPointerES1_",
   "parameters" :
   [
    {
     "referenced_type" : "_ZTIPv"
    }
   ],
   "return_type" : "_ZTIPv",
   "source_file" : "external/llvm/include/llvm/Support/PointerLikeTypeTraits.h"
  },
  {
   "function_name" : "llvm::PointerLikeTypeTraits<unsigned long>::getAsVoidPointer",
   "linker_set_key" : "_ZN4llvm21PointerLikeTypeTraitsImE16getAsVoidPointerEm",
   "parameters" :
   [
    {
     "referenced_type" : "_ZTIm"
    }
   ],
   "return_type" : "_ZTIPv",
   "source_file" : "external/llvm/include/llvm/Support/PointerLikeTypeTraits.h"
  },
  {
   "function_name" : "llvm::PointerLikeTypeTraits<unsigned long>::getFromVoidPointer",
   "linker_set_key" : "_ZN4llvm21PointerLikeTypeTraitsImE18getFromVoidPointerEPv",
   "parameters" :
   [
    {
     "referenced_type" : "_ZTIPv"
    }
   ],
   "return_type" : "_ZTIm",
   "source_file" : "external/llvm/include/llvm/Support/PointerLikeTypeTraits.h"
  },
  {
   "function_name" : "llvm::GreatestCommonDivisor64",
   "linker_set_key" : "_ZN4llvm23GreatestCommonDivisor64Emm",
   "parameters" :
   [
    {
     "referenced_type" : "_ZTIm"
    },
    {
     "referenced_type" : "_ZTIm"
    }
   ],
   "return_type" : "_ZTIm",
   "source_file" : "external/llvm/include/llvm/Support/MathExtras.h"
  },
  {
   "function_name" : "llvm::ScopedFatalErrorHandler::ScopedFatalErrorHandler",
   "linker_set_key" : "_ZN4llvm23ScopedFatalErrorHandlerC1EPFvPvRKNSt3__112basic_stringIcNS2_11char_traitsIcEENS2_9allocatorIcEEEEbES1_",
   "parameters" :
   [
    {
     "is_this_ptr" : true,
     "referenced_type" : "_ZTIPN4llvm23ScopedFatalErrorHandlerE"
    },
    {
     "referenced_type" : "_ZTIPFvPvRKNSt3__112basic_stringIcNS0_11char_traitsIcEENS0_9allocatorIcEEEEbE"
    },
    {
     "default_arg" : true,
     "referenced_type" : "_ZTIPv"
    }
   ],
   "return_type" : "_ZTIv",
   "source_file" : "external/llvm/include/llvm/Support/ErrorHandling.h"
  },
  {
   "function_name" : "llvm::ScopedFatalErrorHandler::ScopedFatalErrorHandler",
   "linker_set_key" : "_ZN4llvm23ScopedFatalErrorHandlerC2EPFvPvRKNSt3__112basic_stringIcNS2_11char_traitsIcEENS2_9allocatorIcEEEEbES1_",
   "parameters" :
   [
    {
     "is_this_ptr" : true,
     "referenced_type" : "_ZTIPN4llvm23ScopedFatalErrorHandlerE"
    },
    {
     "referenced_type" : "_ZTIPFvPvRKNSt3__112basic_stringIcNS0_11char_traitsIcEENS0_9allocatorIcEEEEbE"
    },
    {
     "default_arg" : true,
     "referenced_type" : "_ZTIPv"
    }
   ],
   "return_type" : "_ZTIv",
   "source_file" : "external/llvm/include/llvm/Support/ErrorHandling.h"
  },
  {
   "function_name" : "llvm::ScopedFatalErrorHandler::~ScopedFatalErrorHandler",
   "linker_set_key" : "_ZN4llvm23ScopedFatalErrorHandlerD1Ev",
   "parameters" :
   [
    {
     "is_this_ptr" : true,
     "referenced_type" : "_ZTIPN4llvm23ScopedFatalErrorHandlerE"
    }
   ],
   "return_type" : "_ZTIv",
   "source_file" : "external/llvm/include/llvm/Support/ErrorHandling.h"
  },
  {
   "function_name" : "llvm::ScopedFatalErrorHandler::~ScopedFatalErrorHandler",
   "linker_set_key" : "_ZN4llvm23ScopedFatalErrorHandlerD2Ev",
   "parameters" :
   [
    {
     "is_this_ptr" : true,
     "referenced_type" : "_ZTIPN4llvm23ScopedFatalErrorHandlerE"
    }
   ],
   "return_type" : "_ZTIv",
   "source_file" : "external/llvm/include/llvm/Support/ErrorHandling.h"
  },
  {
   "access" : "protected",
   "function_name" : "llvm::SmallPtrSetIteratorImpl::AdvanceIfNotValid",
   "linker_set_key" : "_ZN4llvm23SmallPtrSetIteratorImpl17AdvanceIfNotValidEv",
   "parameters" :
   [
    {
     "is_this_ptr" : true,
     "referenced_type" : "_ZTIPN4llvm23SmallPtrSetIteratorImplE"
    }
   ],
   "return_type" : "_ZTIv",
   "source_file" : "external/llvm/include/llvm/ADT/SmallPtrSet.h"
  },
  {
   "function_name" : "llvm::SmallPtrSetIteratorImpl::SmallPtrSetIteratorImpl",
   "linker_set_key" : "_ZN4llvm23SmallPtrSetIteratorImplC1EPKPKvS4_",
   "parameters" :
   [
    {
     "is_this_ptr" : true,
     "referenced_type" : "_ZTIPN4llvm23SmallPtrSetIteratorImplE"
    },
    {
     "referenced_type" : "_ZTIPKPKv"
    },
    {
     "referenced_type" : "_ZTIPKPKv"
    }
   ],
   "return_type" : "_ZTIv",
   "source_file" : "external/llvm/include/llvm/ADT/SmallPtrSet.h"
  },
  {
   "function_name" : "llvm::SmallPtrSetIteratorImpl::SmallPtrSetIteratorImpl",
   "linker_set_key" : "_ZN4llvm23SmallPtrSetIteratorImplC2EPKPKvS4_",
   "parameters" :
   [
    {
     "is_this_ptr" : true,
     "referenced_type" : "_ZTIPN4llvm23SmallPtrSetIteratorImplE"
    },
    {
     "referenced_type" : "_ZTIPKPKv"
    },
    {
     "referenced_type" : "_ZTIPKPKv"
    }
   ],
   "return_type" : "_ZTIv",
   "source_file" : "external/llvm/include/llvm/ADT/SmallPtrSet.h"
  },
  {
   "access" : "protected",
   "function_name" : "llvm::SmallVectorTemplateBase<llvm::StringRef, true>::grow",
   "linker_set_key" : "_ZN4llvm23SmallVectorTemplateBaseINS_9StringRefELb1EE4growEm",
   "parameters" :
   [
    {
     "is_this_ptr" : true,
     "referenced_type" : "_ZTIPN4llvm23SmallVectorTemplateBaseINS_9StringRefELb1EEE"
    },
    {
     "default_arg" : true,
     "referenced_type" : "_ZTIm"
    }
   ],
   "return_type" : "_ZTIv",
   "source_file" : "external/llvm/include/llvm/ADT/SmallVector.h"
  },
  {
   "function_name" : "llvm::SmallVectorTemplateBase<llvm::StringRef, true>::push_back",
   "linker_set_key" : "_ZN4llvm23SmallVectorTemplateBaseINS_9StringRefELb1EE9push_backERKS1_",
   "parameters" :
   [
    {
     "is_this_ptr" : true,
     "referenced_type" : "_ZTIPN4llvm23SmallVectorTemplateBaseINS_9StringRefELb1EEE"
    },
    {
     "referenced_type" : "_ZTIRKN4llvm9StringRefE"
    }
   ],
   "return_type" : "_ZTIv",
   "source_file" : "external/llvm/include/llvm/ADT/SmallVector.h"
  },
  {
   "access" : "protected",
   "function_name" : "llvm::SmallVectorTemplateBase<llvm::cl::Option *, true>::destroy_range",
   "linker_set_key" : "_ZN4llvm23SmallVectorTemplateBaseIPNS_2cl6OptionELb1EE13destroy_rangeEPS3_S5_",
   "parameters" :
   [
    {
     "referenced_type" : "_ZTIPPN4llvm2cl6OptionE"
    },
    {
     "referenced_type" : "_ZTIPPN4llvm2cl6OptionE"
    }
   ],
   "return_type" : "_ZTIv",
   "source_file" : "external/llvm/include/llvm/ADT/SmallVector.h"
  },
  {
   "access" : "protected",
   "function_name" : "llvm::SmallVectorTemplateBase<llvm::cl::Option *, true>::SmallVectorTemplateBase",
   "linker_set_key" : "_ZN4llvm23SmallVectorTemplateBaseIPNS_2cl6OptionELb1EEC1Em",
   "parameters" :
   [
    {
     "is_this_ptr" : true,
     "referenced_type" : "_ZTIPN4llvm23SmallVectorTemplateBaseIPNS_2cl6OptionELb1EEE"
    },
    {
     "referenced_type" : "_ZTIm"
    }
   ],
   "return_type" : "_ZTIv",
   "source_file" : "external/llvm/include/llvm/ADT/SmallVector.h"
  },
  {
   "access" : "protected",
   "function_name" : "llvm::SmallVectorTemplateBase<llvm::cl::Option *, true>::SmallVectorTemplateBase",
   "linker_set_key" : "_ZN4llvm23SmallVectorTemplateBaseIPNS_2cl6OptionELb1EEC2Em",
   "parameters" :
   [
    {
     "is_this_ptr" : true,
     "referenced_type" : "_ZTIPN4llvm23SmallVectorTemplateBaseIPNS_2cl6OptionELb1EEE"
    },
    {
     "referenced_type" : "_ZTIm"
    }
   ],
   "return_type" : "_ZTIv",
   "source_file" : "external/llvm/include/llvm/ADT/SmallVector.h"
  },
  {
   "function_name" : "llvm::SmallVectorTemplateCommon<llvm::StringRef, void>::end",
   "linker_set_key" : "_ZN4llvm25SmallVectorTemplateCommonINS_9StringRefEvE3endEv",
   "parameters" :
   [
    {
     "is_this_ptr" : true,
     "referenced_type" : "_ZTIPN4llvm25SmallVectorTemplateCommonINS_9StringRefEvEE"
    }
   ],
   "return_type" : "_ZTIPN4llvm9StringRefE",
   "source_file" : "external/llvm/include/llvm/ADT/SmallVector.h"
  },
  {
   "access" : "protected",
   "function_name" : "llvm::SmallVectorTemplateCommon<llvm::StringRef, void>::setEnd",
   "linker_set_key" : "_ZN4llvm25SmallVectorTemplateCommonINS_9StringRefEvE6setEndEPS1_",
   "parameters" :
   [
    {
     "is_this_ptr" : true,
     "referenced_type" : "_ZTIPN4llvm25SmallVectorTemplateCommonINS_9StringRefEvEE"
    },
    {
     "referenced_type" : "_ZTIPN4llvm9StringRefE"
    }
   ],
   "return_type" : "_ZTIv",
   "source_file" : "external/llvm/include/llvm/ADT/SmallVector.h"
  },
  {
   "access" : "protected",
   "function_name" : "llvm::SmallVectorTemplateCommon<llvm::StringRef, void>::grow_pod",
   "linker_set_key" : "_ZN4llvm25SmallVectorTemplateCommonINS_9StringRefEvE8grow_podEmm",
   "parameters" :
   [
    {
     "is_this_ptr" : true,
     "referenced_type" : "_ZTIPN4llvm25SmallVectorTemplateCommonINS_9StringRefEvEE"
    },
    {
     "referenced_type" : "_ZTIm"
    },
    {
     "referenced_type" : "_ZTIm"
    }
   ],
   "return_type" : "_ZTIv",
   "source_file" : "external/llvm/include/llvm/ADT/SmallVector.h"
  },
  {
   "function_name" : "llvm::SmallVectorTemplateCommon<llvm::cl::Option *, void>::end",
   "linker_set_key" : "_ZN4llvm25SmallVectorTemplateCommonIPNS_2cl6OptionEvE3endEv",
   "parameters" :
   [
    {
     "is_this_ptr" : true,
     "referenced_type" : "_ZTIPN4llvm25SmallVectorTemplateCommonIPNS_2cl6OptionEvEE"
    }
   ],
   "return_type" : "_ZTIPPN4llvm2cl6OptionE",
   "source_file" : "external/llvm/include/llvm/ADT/SmallVector.h"
  },
  {
   "function_name" : "llvm::SmallVectorTemplateCommon<llvm::cl::Option *, void>::begin",
   "linker_set_key" : "_ZN4llvm25SmallVectorTemplateCommonIPNS_2cl6OptionEvE5beginEv",
   "parameters" :
   [
    {
     "is_this_ptr" : true,
     "referenced_type" : "_ZTIPN4llvm25SmallVectorTemplateCommonIPNS_2cl6OptionEvEE"
    }
   ],
   "return_type" : "_ZTIPPN4llvm2cl6OptionE",
   "source_file" : "external/llvm/include/llvm/ADT/SmallVector.h"
  },
  {
   "access" : "protected",
   "function_name" : "llvm::SmallVectorTemplateCommon<llvm::cl::Option *, void>::SmallVectorTemplateCommon",
   "linker_set_key" : "_ZN4llvm25SmallVectorTemplateCommonIPNS_2cl6OptionEvEC1Em",
   "parameters" :
   [
    {
     "is_this_ptr" : true,
     "referenced_type" : "_ZTIPN4llvm25SmallVectorTemplateCommonIPNS_2cl6OptionEvEE"
    },
    {
     "referenced_type" : "_ZTIm"
    }
   ],
   "return_type" : "_ZTIv",
   "source_file" : "external/llvm/include/llvm/ADT/SmallVector.h"
  },
  {
   "access" : "protected",
   "function_name" : "llvm::SmallVectorTemplateCommon<llvm::cl::Option *, void>::SmallVectorTemplateCommon",
   "linker_set_key" : "_ZN4llvm25SmallVectorTemplateCommonIPNS_2cl6OptionEvEC2Em",
   "parameters" :
   [
    {
     "is_this_ptr" : true,
     "referenced_type" : "_ZTIPN4llvm25SmallVectorTemplateCommonIPNS_2cl6OptionEvEE"
    },
    {
     "referenced_type" : "_ZTIm"
    }
   ],
   "return_type" : "_ZTIv",
   "source_file" : "external/llvm/include/llvm/ADT/SmallVector.h"
  },
  {
   "function_name" : "llvm::SmallVectorTemplateCommon<char, void>::data",
   "linker_set_key" : "_ZN4llvm25SmallVectorTemplateCommonIcvE4dataEv",
   "parameters" :
   [
    {
     "is_this_ptr" : true,
     "referenced_type" : "_ZTIPN4llvm25SmallVectorTemplateCommonIcvEE"
    }
   ],
   "return_type" : "_ZTIPc",
   "source_file" : "external/llvm/include/llvm/ADT/SmallVector.h"
  },
  {
   "function_name" : "llvm::SmallVectorTemplateCommon<char, void>::begin",
   "linker_set_key" : "_ZN4llvm25SmallVectorTemplateCommonIcvE5beginEv",
   "parameters" :
   [
    {
     "is_this_ptr" : true,
     "referenced_type" : "_ZTIPN4llvm25SmallVectorTemplateCommonIcvEE"
    }
   ],
   "return_type" : "_ZTIPc",
   "source_file" : "external/llvm/include/llvm/ADT/SmallVector.h"
  },
  {
   "function_name" : "llvm::cl::SubCommand::SubCommand",
   "linker_set_key" : "_ZN4llvm2cl10SubCommandC1EPKcS3_",
   "parameters" :
   [
    {
     "is_this_ptr" : true,
     "referenced_type" : "_ZTIPN4llvm2cl10SubCommandE"
    },
    {
     "referenced_type" : "_ZTIKPKc"
    },
    {
     "default_arg" : true,
     "referenced_type" : "_ZTIKPKc"
    }
   ],
   "return_type" : "_ZTIv",
   "source_file" : "external/llvm/include/llvm/Support/CommandLine.h"
  },
  {
   "function_name" : "llvm::cl::SubCommand::SubCommand",
   "linker_set_key" : "_ZN4llvm2cl10SubCommandC1Ev",
   "parameters" :
   [
    {
     "is_this_ptr" : true,
     "referenced_type" : "_ZTIPN4llvm2cl10SubCommandE"
    }
   ],
   "return_type" : "_ZTIv",
   "source_file" : "external/llvm/include/llvm/Support/CommandLine.h"
  },
  {
   "function_name" : "llvm::cl::SubCommand::SubCommand",
   "linker_set_key" : "_ZN4llvm2cl10SubCommandC2EPKcS3_",
   "parameters" :
   [
    {
     "is_this_ptr" : true,
     "referenced_type" : "_ZTIPN4llvm2cl10SubCommandE"
    },
    {
     "referenced_type" : "_ZTIKPKc"
    },
    {
     "default_arg" : true,
     "referenced_type" : "_ZTIKPKc"
    }
   ],
   "return_type" : "_ZTIv",
   "source_file" : "external/llvm/include/llvm/Support/CommandLine.h"
  },
  {
   "function_name" : "llvm::cl::SubCommand::SubCommand",
   "linker_set_key" : "_ZN4llvm2cl10SubCommandC2Ev",
   "parameters" :
   [
    {
     "is_this_ptr" : true,
     "referenced_type" : "_ZTIPN4llvm2cl10SubCommandE"
    }
   ],
   "return_type" : "_ZTIv",
   "source_file" : "external/llvm/include/llvm/Support/CommandLine.h"
  },
  {
   "function_name" : "llvm::cl::applicator<llvm::cl::OptionHidden>::opt",
   "linker_set_key" : "_ZN4llvm2cl10applicatorINS0_12OptionHiddenEE3optES2_RNS0_6OptionE",
   "parameters" :
   [
    {
     "referenced_type" : "_ZTIN4llvm2cl12OptionHiddenE"
    },
    {
     "referenced_type" : "_ZTIRN4llvm2cl6OptionE"
    }
   ],
   "return_type" : "_ZTIv",
   "source_file" : "external/llvm/include/llvm/Support/CommandLine.h"
  },
  {
   "function_name" : "llvm::cl::applicator<llvm::cl::ValueExpected>::opt",
   "linker_set_key" : "_ZN4llvm2cl10applicatorINS0_13ValueExpectedEE3optES2_RNS0_6OptionE",
   "parameters" :
   [
    {
     "referenced_type" : "_ZTIN4llvm2cl13ValueExpectedE"
    },
    {
     "referenced_type" : "_ZTIRN4llvm2cl6OptionE"
    }
   ],
   "return_type" : "_ZTIv",
   "source_file" : "external/llvm/include/llvm/Support/CommandLine.h"
  },
  {
   "function_name" : "llvm::cl::applicator<llvm::cl::FormattingFlags>::opt",
   "linker_set_key" : "_ZN4llvm2cl10applicatorINS0_15FormattingFlagsEE3optES2_RNS0_6OptionE",
   "parameters" :
   [
    {
     "referenced_type" : "_ZTIN4llvm2cl15FormattingFlagsE"
    },
    {
     "referenced_type" : "_ZTIRN4llvm2cl6OptionE"
    }
   ],
   "return_type" : "_ZTIv",
   "source_file" : "external/llvm/include/llvm/Support/CommandLine.h"
  },
  {
   "function_name" : "llvm::cl::applicator<llvm::cl::NumOccurrencesFlag>::opt",
   "linker_set_key" : "_ZN4llvm2cl10applicatorINS0_18NumOccurrencesFlagEE3optES2_RNS0_6OptionE",
   "parameters" :
   [
    {
     "referenced_type" : "_ZTIN4llvm2cl18NumOccurrencesFlagE"
    },
    {
     "referenced_type" : "_ZTIRN4llvm2cl6OptionE"
    }
   ],
   "return_type" : "_ZTIv",
   "source_file" : "external/llvm/include/llvm/Support/CommandLine.h"
  },
  {
   "function_name" : "llvm::cl::applicator<llvm::cl::MiscFlags>::opt",
   "linker_set_key" : "_ZN4llvm2cl10applicatorINS0_9MiscFlagsEE3optES2_RNS0_6OptionE",
   "parameters" :
   [
    {
     "referenced_type" : "_ZTIN4llvm2cl9MiscFlagsE"
    },
    {
     "referenced_type" : "_ZTIRN4llvm2cl6OptionE"
    }
   ],
   "return_type" : "_ZTIv",
   "source_file" : "external/llvm/include/llvm/Support/CommandLine.h"
  },
  {
   "function_name" : "llvm::cl::value_desc::value_desc",
   "linker_set_key" : "_ZN4llvm2cl10value_descC1EPKc",
   "parameters" :
   [
    {
     "is_this_ptr" : true,
     "referenced_type" : "_ZTIPN4llvm2cl10value_descE"
    },
    {
     "referenced_type" : "_ZTIPKc"
    }
   ],
   "return_type" : "_ZTIv",
   "source_file" : "external/llvm/include/llvm/Support/CommandLine.h"
  },
  {
   "function_name" : "llvm::cl::value_desc::value_desc",
   "linker_set_key" : "_ZN4llvm2cl10value_descC2EPKc",
   "parameters" :
   [
    {
     "is_this_ptr" : true,
     "referenced_type" : "_ZTIPN4llvm2cl10value_descE"
    },
    {
     "referenced_type" : "_ZTIPKc"
    }
   ],
   "return_type" : "_ZTIv",
   "source_file" : "external/llvm/include/llvm/Support/CommandLine.h"
  },
  {
   "function_name" : "llvm::cl::OptionValue<llvm::cl::boolOrDefault>::OptionValue",
   "linker_set_key" : "_ZN4llvm2cl11OptionValueINS0_13boolOrDefaultEEC1ERKS2_",
   "parameters" :
   [
    {
     "is_this_ptr" : true,
     "referenced_type" : "_ZTIPN4llvm2cl11OptionValueINS0_13boolOrDefaultEEE"
    },
    {
     "referenced_type" : "_ZTIRKN4llvm2cl13boolOrDefaultE"
    }
   ],
   "return_type" : "_ZTIv",
   "source_file" : "external/llvm/include/llvm/Support/CommandLine.h"
  },
  {
   "function_name" : "llvm::cl::OptionValue<llvm::cl::boolOrDefault>::OptionValue",
   "linker_set_key" : "_ZN4llvm2cl11OptionValueINS0_13boolOrDefaultEEC1Ev",
   "parameters" :
   [
    {
     "is_this_ptr" : true,
     "referenced_type" : "_ZTIPN4llvm2cl11OptionValueINS0_13boolOrDefaultEEE"
    }
   ],
   "return_type" : "_ZTIv",
   "source_file" : "external/llvm/include/llvm/Support/CommandLine.h"
  },
  {
   "function_name" : "llvm::cl::OptionValue<llvm::cl::boolOrDefault>::OptionValue",
   "linker_set_key" : "_ZN4llvm2cl11OptionValueINS0_13boolOrDefaultEEC2ERKS2_",
   "parameters" :
   [
    {
     "is_this_ptr" : true,
     "referenced_type" : "_ZTIPN4llvm2cl11OptionValueINS0_13boolOrDefaultEEE"
    },
    {
     "referenced_type" : "_ZTIRKN4llvm2cl13boolOrDefaultE"
    }
   ],
   "return_type" : "_ZTIv",
   "source_file" : "external/llvm/include/llvm/Support/CommandLine.h"
  },
  {
   "function_name" : "llvm::cl::OptionValue<llvm::cl::boolOrDefault>::OptionValue",
   "linker_set_key" : "_ZN4llvm2cl11OptionValueINS0_13boolOrDefaultEEC2Ev",
   "parameters" :
   [
    {
     "is_this_ptr" : true,
     "referenced_type" : "_ZTIPN4llvm2cl11OptionValueINS0_13boolOrDefaultEEE"
    }
   ],
   "return_type" : "_ZTIv",
   "source_file" : "external/llvm/include/llvm/Support/CommandLine.h"
  },
  {
   "function_name" : "llvm::cl::OptionValue<llvm::cl::boolOrDefault>::operator=",
   "linker_set_key" : "_ZN4llvm2cl11OptionValueINS0_13boolOrDefaultEEaSERKS2_",
   "parameters" :
   [
    {
     "is_this_ptr" : true,
     "referenced_type" : "_ZTIPN4llvm2cl11OptionValueINS0_13boolOrDefaultEEE"
    },
    {
     "referenced_type" : "_ZTIRKN4llvm2cl13boolOrDefaultE"
    }
   ],
   "return_type" : "_ZTIRN4llvm2cl11OptionValueINS0_13boolOrDefaultEEE",
   "source_file" : "external/llvm/include/llvm/Support/CommandLine.h"
  },
  {
   "function_name" : "llvm::cl::OptionValue<std::__1::basic_string<char>>::OptionValue",
   "linker_set_key" : "_ZN4llvm2cl11OptionValueINSt3__112basic_stringIcNS2_11char_traitsIcEENS2_9allocatorIcEEEEEC1ERKS8_",
   "parameters" :
   [
    {
     "is_this_ptr" : true,
     "referenced_type" : "_ZTIPN4llvm2cl11OptionValueINSt3__112basic_stringIcNS2_11char_traitsIcEENS2_9allocatorIcEEEEEE"
    },
    {
     "referenced_type" : "_ZTIRKNSt3__112basic_stringIcNS_11char_traitsIcEENS_9allocatorIcEEEE"
    }
   ],
   "return_type" : "_ZTIv",
   "source_file" : "external/llvm/include/llvm/Support/CommandLine.h"
  },
  {
   "function_name" : "llvm::cl::OptionValue<std::__1::basic_string<char>>::OptionValue",
   "linker_set_key" : "_ZN4llvm2cl11OptionValueINSt3__112basic_stringIcNS2_11char_traitsIcEENS2_9allocatorIcEEEEEC1Ev",
   "parameters" :
   [
    {
     "is_this_ptr" : true,
     "referenced_type" : "_ZTIPN4llvm2cl11OptionValueINSt3__112basic_stringIcNS2_11char_traitsIcEENS2_9allocatorIcEEEEEE"
    }
   ],
   "return_type" : "_ZTIv",
   "source_file" : "external/llvm/include/llvm/Support/CommandLine.h"
  },
  {
   "function_name" : "llvm::cl::OptionValue<std::__1::basic_string<char>>::OptionValue",
   "linker_set_key" : "_ZN4llvm2cl11OptionValueINSt3__112basic_stringIcNS2_11char_traitsIcEENS2_9allocatorIcEEEEEC2ERKS8_",
   "parameters" :
   [
    {
     "is_this_ptr" : true,
     "referenced_type" : "_ZTIPN4llvm2cl11OptionValueINSt3__112basic_stringIcNS2_11char_traitsIcEENS2_9allocatorIcEEEEEE"
    },
    {
     "referenced_type" : "_ZTIRKNSt3__112basic_stringIcNS_11char_traitsIcEENS_9allocatorIcEEEE"
    }
   ],
   "return_type" : "_ZTIv",
   "source_file" : "external/llvm/include/llvm/Support/CommandLine.h"
  },
  {
   "function_name" : "llvm::cl::OptionValue<std::__1::basic_string<char>>::OptionValue",
   "linker_set_key" : "_ZN4llvm2cl11OptionValueINSt3__112basic_stringIcNS2_11char_traitsIcEENS2_9allocatorIcEEEEEC2Ev",
   "parameters" :
   [
    {
     "is_this_ptr" : true,
     "referenced_type" : "_ZTIPN4llvm2cl11OptionValueINSt3__112basic_stringIcNS2_11char_traitsIcEENS2_9allocatorIcEEEEEE"
    }
   ],
   "return_type" : "_ZTIv",
   "source_file" : "external/llvm/include/llvm/Support/CommandLine.h"
  },
  {
   "function_name" : "llvm::cl::OptionValue<std::__1::basic_string<char>>::operator=",
   "linker_set_key" : "_ZN4llvm2cl11OptionValueINSt3__112basic_stringIcNS2_11char_traitsIcEENS2_9allocatorIcEEEEEaSERKS8_",
   "parameters" :
   [
    {
     "is_this_ptr" : true,
     "referenced_type" : "_ZTIPN4llvm2cl11OptionValueINSt3__112basic_stringIcNS2_11char_traitsIcEENS2_9allocatorIcEEEEEE"
    },
    {
     "referenced_type" : "_ZTIRKNSt3__112basic_stringIcNS_11char_traitsIcEENS_9allocatorIcEEEE"
    }
   ],
   "return_type" : "_ZTIRN4llvm2cl11OptionValueINSt3__112basic_stringIcNS2_11char_traitsIcEENS2_9allocatorIcEEEEEE",
   "source_file" : "external/llvm/include/llvm/Support/CommandLine.h"
  },
  {
   "function_name" : "llvm::cl::OptionValue<bool>::OptionValue",
   "linker_set_key" : "_ZN4llvm2cl11OptionValueIbEC1Ev",
   "parameters" :
   [
    {
     "is_this_ptr" : true,
     "referenced_type" : "_ZTIPN4llvm2cl11OptionValueIbEE"
    }
   ],
   "return_type" : "_ZTIv",
   "source_file" : "external/llvm/include/llvm/Support/CommandLine.h"
  },
  {
   "function_name" : "llvm::cl::OptionValue<bool>::OptionValue",
   "linker_set_key" : "_ZN4llvm2cl11OptionValueIbEC2Ev",
   "parameters" :
   [
    {
     "is_this_ptr" : true,
     "referenced_type" : "_ZTIPN4llvm2cl11OptionValueIbEE"
    }
   ],
   "return_type" : "_ZTIv",
   "source_file" : "external/llvm/include/llvm/Support/CommandLine.h"
  },
  {
   "function_name" : "llvm::cl::OptionValue<char>::OptionValue",
   "linker_set_key" : "_ZN4llvm2cl11OptionValueIcEC1Ev",
   "parameters" :
   [
    {
     "is_this_ptr" : true,
     "referenced_type" : "_ZTIPN4llvm2cl11OptionValueIcEE"
    }
   ],
   "return_type" : "_ZTIv",
   "source_file" : "external/llvm/include/llvm/Support/CommandLine.h"
  },
  {
   "function_name" : "llvm::cl::OptionValue<char>::OptionValue",
   "linker_set_key" : "_ZN4llvm2cl11OptionValueIcEC2Ev",
   "parameters" :
   [
    {
     "is_this_ptr" : true,
     "referenced_type" : "_ZTIPN4llvm2cl11OptionValueIcEE"
    }
   ],
   "return_type" : "_ZTIv",
   "source_file" : "external/llvm/include/llvm/Support/CommandLine.h"
  },
  {
   "function_name" : "llvm::cl::OptionValue<int>::OptionValue",
   "linker_set_key" : "_ZN4llvm2cl11OptionValueIiEC1Ev",
   "parameters" :
   [
    {
     "is_this_ptr" : true,
     "referenced_type" : "_ZTIPN4llvm2cl11OptionValueIiEE"
    }
   ],
   "return_type" : "_ZTIv",
   "source_file" : "external/llvm/include/llvm/Support/CommandLine.h"
  },
  {
   "function_name" : "llvm::cl::OptionValue<int>::OptionValue",
   "linker_set_key" : "_ZN4llvm2cl11OptionValueIiEC2Ev",
   "parameters" :
   [
    {
     "is_this_ptr" : true,
     "referenced_type" : "_ZTIPN4llvm2cl11OptionValueIiEE"
    }
   ],
   "return_type" : "_ZTIv",
   "source_file" : "external/llvm/include/llvm/Support/CommandLine.h"
  },
  {
   "function_name" : "llvm::cl::OptionValue<unsigned int>::OptionValue",
   "linker_set_key" : "_ZN4llvm2cl11OptionValueIjEC1Ev",
   "parameters" :
   [
    {
     "is_this_ptr" : true,
     "referenced_type" : "_ZTIPN4llvm2cl11OptionValueIjEE"
    }
   ],
   "return_type" : "_ZTIv",
   "source_file" : "external/llvm/include/llvm/Support/CommandLine.h"
  },
  {
   "function_name" : "llvm::cl::OptionValue<unsigned int>::OptionValue",
   "linker_set_key" : "_ZN4llvm2cl11OptionValueIjEC2Ev",
   "parameters" :
   [
    {
     "is_this_ptr" : true,
     "referenced_type" : "_ZTIPN4llvm2cl11OptionValueIjEE"
    }
   ],
   "return_type" : "_ZTIv",
   "source_file" : "external/llvm/include/llvm/Support/CommandLine.h"
  },
  {
   "function_name" : "llvm::cl::basic_parser<llvm::cl::boolOrDefault>::basic_parser",
   "linker_set_key" : "_ZN4llvm2cl12basic_parserINS0_13boolOrDefaultEEC1ERNS0_6OptionE",
   "parameters" :
   [
    {
     "is_this_ptr" : true,
     "referenced_type" : "_ZTIPN4llvm2cl12basic_parserINS0_13boolOrDefaultEEE"
    },
    {
     "referenced_type" : "_ZTIRN4llvm2cl6OptionE"
    }
   ],
   "return_type" : "_ZTIv",
   "source_file" : "external/llvm/include/llvm/Support/CommandLine.h"
  },
  {
   "function_name" : "llvm::cl::basic_parser<llvm::cl::boolOrDefault>::basic_parser",
   "linker_set_key" : "_ZN4llvm2cl12basic_parserINS0_13boolOrDefaultEEC2ERNS0_6OptionE",
   "parameters" :
   [
    {
     "is_this_ptr" : true,
     "referenced_type" : "_ZTIPN4llvm2cl12basic_parserINS0_13boolOrDefaultEEE"
    },
    {
     "referenced_type" : "_ZTIRN4llvm2cl6OptionE"
    }
   ],
   "return_type" : "_ZTIv",
   "source_file" : "external/llvm/include/llvm/Support/CommandLine.h"
  },
  {
   "access" : "protected",
   "function_name" : "llvm::cl::basic_parser<llvm::cl::boolOrDefault>::~basic_parser",
   "linker_set_key" : "_ZN4llvm2cl12basic_parserINS0_13boolOrDefaultEED1Ev",
   "parameters" :
   [
    {
     "is_this_ptr" : true,
     "referenced_type" : "_ZTIPN4llvm2cl12basic_parserINS0_13boolOrDefaultEEE"
    }
   ],
   "return_type" : "_ZTIv",
   "source_file" : "external/llvm/include/llvm/Support/CommandLine.h"
  },
  {
   "access" : "protected",
   "function_name" : "llvm::cl::basic_parser<llvm::cl::boolOrDefault>::~basic_parser",
   "linker_set_key" : "_ZN4llvm2cl12basic_parserINS0_13boolOrDefaultEED2Ev",
   "parameters" :
   [
    {
     "is_this_ptr" : true,
     "referenced_type" : "_ZTIPN4llvm2cl12basic_parserINS0_13boolOrDefaultEEE"
    }
   ],
   "return_type" : "_ZTIv",
   "source_file" : "external/llvm/include/llvm/Support/CommandLine.h"
  },
  {
   "function_name" : "llvm::cl::basic_parser<std::__1::basic_string<char>>::basic_parser",
   "linker_set_key" : "_ZN4llvm2cl12basic_parserINSt3__112basic_stringIcNS2_11char_traitsIcEENS2_9allocatorIcEEEEEC1ERNS0_6OptionE",
   "parameters" :
   [
    {
     "is_this_ptr" : true,
     "referenced_type" : "_ZTIPN4llvm2cl12basic_parserINSt3__112basic_stringIcNS2_11char_traitsIcEENS2_9allocatorIcEEEEEE"
    },
    {
     "referenced_type" : "_ZTIRN4llvm2cl6OptionE"
    }
   ],
   "return_type" : "_ZTIv",
   "source_file" : "external/llvm/include/llvm/Support/CommandLine.h"
  },
  {
   "function_name" : "llvm::cl::basic_parser<std::__1::basic_string<char>>::basic_parser",
   "linker_set_key" : "_ZN4llvm2cl12basic_parserINSt3__112basic_stringIcNS2_11char_traitsIcEENS2_9allocatorIcEEEEEC2ERNS0_6OptionE",
   "parameters" :
   [
    {
     "is_this_ptr" : true,
     "referenced_type" : "_ZTIPN4llvm2cl12basic_parserINSt3__112basic_stringIcNS2_11char_traitsIcEENS2_9allocatorIcEEEEEE"
    },
    {
     "referenced_type" : "_ZTIRN4llvm2cl6OptionE"
    }
   ],
   "return_type" : "_ZTIv",
   "source_file" : "external/llvm/include/llvm/Support/CommandLine.h"
  },
  {
   "access" : "protected",
   "function_name" : "llvm::cl::basic_parser<std::__1::basic_string<char>>::~basic_parser",
   "linker_set_key" : "_ZN4llvm2cl12basic_parserINSt3__112basic_stringIcNS2_11char_traitsIcEENS2_9allocatorIcEEEEED1Ev",
   "parameters" :
   [
    {
     "is_this_ptr" : true,
     "referenced_type" : "_ZTIPN4llvm2cl12basic_parserINSt3__112basic_stringIcNS2_11char_traitsIcEENS2_9allocatorIcEEEEEE"
    }
   ],
   "return_type" : "_ZTIv",
   "source_file" : "external/llvm/include/llvm/Support/CommandLine.h"
  },
  {
   "access" : "protected",
   "function_name" : "llvm::cl::basic_parser<std::__1::basic_string<char>>::~basic_parser",
   "linker_set_key" : "_ZN4llvm2cl12basic_parserINSt3__112basic_stringIcNS2_11char_traitsIcEENS2_9allocatorIcEEEEED2Ev",
   "parameters" :
   [
    {
     "is_this_ptr" : true,
     "referenced_type" : "_ZTIPN4llvm2cl12basic_parserINSt3__112basic_stringIcNS2_11char_traitsIcEENS2_9allocatorIcEEEEEE"
    }
   ],
   "return_type" : "_ZTIv",
   "source_file" : "external/llvm/include/llvm/Support/CommandLine.h"
  },
  {
   "function_name" : "llvm::cl::basic_parser<bool>::basic_parser",
   "linker_set_key" : "_ZN4llvm2cl12basic_parserIbEC1ERNS0_6OptionE",
   "parameters" :
   [
    {
     "is_this_ptr" : true,
     "referenced_type" : "_ZTIPN4llvm2cl12basic_parserIbEE"
    },
    {
     "referenced_type" : "_ZTIRN4llvm2cl6OptionE"
    }
   ],
   "return_type" : "_ZTIv",
   "source_file" : "external/llvm/include/llvm/Support/CommandLine.h"
  },
  {
   "function_name" : "llvm::cl::basic_parser<bool>::basic_parser",
   "linker_set_key" : "_ZN4llvm2cl12basic_parserIbEC2ERNS0_6OptionE",
   "parameters" :
   [
    {
     "is_this_ptr" : true,
     "referenced_type" : "_ZTIPN4llvm2cl12basic_parserIbEE"
    },
    {
     "referenced_type" : "_ZTIRN4llvm2cl6OptionE"
    }
   ],
   "return_type" : "_ZTIv",
   "source_file" : "external/llvm/include/llvm/Support/CommandLine.h"
  },
  {
   "access" : "protected",
   "function_name" : "llvm::cl::basic_parser<bool>::~basic_parser",
   "linker_set_key" : "_ZN4llvm2cl12basic_parserIbED1Ev",
   "parameters" :
   [
    {
     "is_this_ptr" : true,
     "referenced_type" : "_ZTIPN4llvm2cl12basic_parserIbEE"
    }
   ],
   "return_type" : "_ZTIv",
   "source_file" : "external/llvm/include/llvm/Support/CommandLine.h"
  },
  {
   "access" : "protected",
   "function_name" : "llvm::cl::basic_parser<bool>::~basic_parser",
   "linker_set_key" : "_ZN4llvm2cl12basic_parserIbED2Ev",
   "parameters" :
   [
    {
     "is_this_ptr" : true,
     "referenced_type" : "_ZTIPN4llvm2cl12basic_parserIbEE"
    }
   ],
   "return_type" : "_ZTIv",
   "source_file" : "external/llvm/include/llvm/Support/CommandLine.h"
  },
  {
   "function_name" : "llvm::cl::basic_parser<char>::basic_parser",
   "linker_set_key" : "_ZN4llvm2cl12basic_parserIcEC1ERNS0_6OptionE",
   "parameters" :
   [
    {
     "is_this_ptr" : true,
     "referenced_type" : "_ZTIPN4llvm2cl12basic_parserIcEE"
    },
    {
     "referenced_type" : "_ZTIRN4llvm2cl6OptionE"
    }
   ],
   "return_type" : "_ZTIv",
   "source_file" : "external/llvm/include/llvm/Support/CommandLine.h"
  },
  {
   "function_name" : "llvm::cl::basic_parser<char>::basic_parser",
   "linker_set_key" : "_ZN4llvm2cl12basic_parserIcEC2ERNS0_6OptionE",
   "parameters" :
   [
    {
     "is_this_ptr" : true,
     "referenced_type" : "_ZTIPN4llvm2cl12basic_parserIcEE"
    },
    {
     "referenced_type" : "_ZTIRN4llvm2cl6OptionE"
    }
   ],
   "return_type" : "_ZTIv",
   "source_file" : "external/llvm/include/llvm/Support/CommandLine.h"
  },
  {
   "access" : "protected",
   "function_name" : "llvm::cl::basic_parser<char>::~basic_parser",
   "linker_set_key" : "_ZN4llvm2cl12basic_parserIcED1Ev",
   "parameters" :
   [
    {
     "is_this_ptr" : true,
     "referenced_type" : "_ZTIPN4llvm2cl12basic_parserIcEE"
    }
   ],
   "return_type" : "_ZTIv",
   "source_file" : "external/llvm/include/llvm/Support/CommandLine.h"
  },
  {
   "access" : "protected",
   "function_name" : "llvm::cl::basic_parser<char>::~basic_parser",
   "linker_set_key" : "_ZN4llvm2cl12basic_parserIcED2Ev",
   "parameters" :
   [
    {
     "is_this_ptr" : true,
     "referenced_type" : "_ZTIPN4llvm2cl12basic_parserIcEE"
    }
   ],
   "return_type" : "_ZTIv",
   "source_file" : "external/llvm/include/llvm/Support/CommandLine.h"
  },
  {
   "function_name" : "llvm::cl::basic_parser<double>::basic_parser",
   "linker_set_key" : "_ZN4llvm2cl12basic_parserIdEC1ERNS0_6OptionE",
   "parameters" :
   [
    {
     "is_this_ptr" : true,
     "referenced_type" : "_ZTIPN4llvm2cl12basic_parserIdEE"
    },
    {
     "referenced_type" : "_ZTIRN4llvm2cl6OptionE"
    }
   ],
   "return_type" : "_ZTIv",
   "source_file" : "external/llvm/include/llvm/Support/CommandLine.h"
  },
  {
   "function_name" : "llvm::cl::basic_parser<double>::basic_parser",
   "linker_set_key" : "_ZN4llvm2cl12basic_parserIdEC2ERNS0_6OptionE",
   "parameters" :
   [
    {
     "is_this_ptr" : true,
     "referenced_type" : "_ZTIPN4llvm2cl12basic_parserIdEE"
    },
    {
     "referenced_type" : "_ZTIRN4llvm2cl6OptionE"
    }
   ],
   "return_type" : "_ZTIv",
   "source_file" : "external/llvm/include/llvm/Support/CommandLine.h"
  },
  {
   "access" : "protected",
   "function_name" : "llvm::cl::basic_parser<double>::~basic_parser",
   "linker_set_key" : "_ZN4llvm2cl12basic_parserIdED1Ev",
   "parameters" :
   [
    {
     "is_this_ptr" : true,
     "referenced_type" : "_ZTIPN4llvm2cl12basic_parserIdEE"
    }
   ],
   "return_type" : "_ZTIv",
   "source_file" : "external/llvm/include/llvm/Support/CommandLine.h"
  },
  {
   "access" : "protected",
   "function_name" : "llvm::cl::basic_parser<double>::~basic_parser",
   "linker_set_key" : "_ZN4llvm2cl12basic_parserIdED2Ev",
   "parameters" :
   [
    {
     "is_this_ptr" : true,
     "referenced_type" : "_ZTIPN4llvm2cl12basic_parserIdEE"
    }
   ],
   "return_type" : "_ZTIv",
   "source_file" : "external/llvm/include/llvm/Support/CommandLine.h"
  },
  {
   "function_name" : "llvm::cl::basic_parser<float>::basic_parser",
   "linker_set_key" : "_ZN4llvm2cl12basic_parserIfEC1ERNS0_6OptionE",
   "parameters" :
   [
    {
     "is_this_ptr" : true,
     "referenced_type" : "_ZTIPN4llvm2cl12basic_parserIfEE"
    },
    {
     "referenced_type" : "_ZTIRN4llvm2cl6OptionE"
    }
   ],
   "return_type" : "_ZTIv",
   "source_file" : "external/llvm/include/llvm/Support/CommandLine.h"
  },
  {
   "function_name" : "llvm::cl::basic_parser<float>::basic_parser",
   "linker_set_key" : "_ZN4llvm2cl12basic_parserIfEC2ERNS0_6OptionE",
   "parameters" :
   [
    {
     "is_this_ptr" : true,
     "referenced_type" : "_ZTIPN4llvm2cl12basic_parserIfEE"
    },
    {
     "referenced_type" : "_ZTIRN4llvm2cl6OptionE"
    }
   ],
   "return_type" : "_ZTIv",
   "source_file" : "external/llvm/include/llvm/Support/CommandLine.h"
  },
  {
   "access" : "protected",
   "function_name" : "llvm::cl::basic_parser<float>::~basic_parser",
   "linker_set_key" : "_ZN4llvm2cl12basic_parserIfED1Ev",
   "parameters" :
   [
    {
     "is_this_ptr" : true,
     "referenced_type" : "_ZTIPN4llvm2cl12basic_parserIfEE"
    }
   ],
   "return_type" : "_ZTIv",
   "source_file" : "external/llvm/include/llvm/Support/CommandLine.h"
  },
  {
   "access" : "protected",
   "function_name" : "llvm::cl::basic_parser<float>::~basic_parser",
   "linker_set_key" : "_ZN4llvm2cl12basic_parserIfED2Ev",
   "parameters" :
   [
    {
     "is_this_ptr" : true,
     "referenced_type" : "_ZTIPN4llvm2cl12basic_parserIfEE"
    }
   ],
   "return_type" : "_ZTIv",
   "source_file" : "external/llvm/include/llvm/Support/CommandLine.h"
  },
  {
   "function_name" : "llvm::cl::basic_parser<int>::basic_parser",
   "linker_set_key" : "_ZN4llvm2cl12basic_parserIiEC1ERNS0_6OptionE",
   "parameters" :
   [
    {
     "is_this_ptr" : true,
     "referenced_type" : "_ZTIPN4llvm2cl12basic_parserIiEE"
    },
    {
     "referenced_type" : "_ZTIRN4llvm2cl6OptionE"
    }
   ],
   "return_type" : "_ZTIv",
   "source_file" : "external/llvm/include/llvm/Support/CommandLine.h"
  },
  {
   "function_name" : "llvm::cl::basic_parser<int>::basic_parser",
   "linker_set_key" : "_ZN4llvm2cl12basic_parserIiEC2ERNS0_6OptionE",
   "parameters" :
   [
    {
     "is_this_ptr" : true,
     "referenced_type" : "_ZTIPN4llvm2cl12basic_parserIiEE"
    },
    {
     "referenced_type" : "_ZTIRN4llvm2cl6OptionE"
    }
   ],
   "return_type" : "_ZTIv",
   "source_file" : "external/llvm/include/llvm/Support/CommandLine.h"
  },
  {
   "access" : "protected",
   "function_name" : "llvm::cl::basic_parser<int>::~basic_parser",
   "linker_set_key" : "_ZN4llvm2cl12basic_parserIiED1Ev",
   "parameters" :
   [
    {
     "is_this_ptr" : true,
     "referenced_type" : "_ZTIPN4llvm2cl12basic_parserIiEE"
    }
   ],
   "return_type" : "_ZTIv",
   "source_file" : "external/llvm/include/llvm/Support/CommandLine.h"
  },
  {
   "access" : "protected",
   "function_name" : "llvm::cl::basic_parser<int>::~basic_parser",
   "linker_set_key" : "_ZN4llvm2cl12basic_parserIiED2Ev",
   "parameters" :
   [
    {
     "is_this_ptr" : true,
     "referenced_type" : "_ZTIPN4llvm2cl12basic_parserIiEE"
    }
   ],
   "return_type" : "_ZTIv",
   "source_file" : "external/llvm/include/llvm/Support/CommandLine.h"
  },
  {
   "function_name" : "llvm::cl::basic_parser<unsigned int>::basic_parser",
   "linker_set_key" : "_ZN4llvm2cl12basic_parserIjEC1ERNS0_6OptionE",
   "parameters" :
   [
    {
     "is_this_ptr" : true,
     "referenced_type" : "_ZTIPN4llvm2cl12basic_parserIjEE"
    },
    {
     "referenced_type" : "_ZTIRN4llvm2cl6OptionE"
    }
   ],
   "return_type" : "_ZTIv",
   "source_file" : "external/llvm/include/llvm/Support/CommandLine.h"
  },
  {
   "function_name" : "llvm::cl::basic_parser<unsigned int>::basic_parser",
   "linker_set_key" : "_ZN4llvm2cl12basic_parserIjEC2ERNS0_6OptionE",
   "parameters" :
   [
    {
     "is_this_ptr" : true,
     "referenced_type" : "_ZTIPN4llvm2cl12basic_parserIjEE"
    },
    {
     "referenced_type" : "_ZTIRN4llvm2cl6OptionE"
    }
   ],
   "return_type" : "_ZTIv",
   "source_file" : "external/llvm/include/llvm/Support/CommandLine.h"
  },
  {
   "access" : "protected",
   "function_name" : "llvm::cl::basic_parser<unsigned int>::~basic_parser",
   "linker_set_key" : "_ZN4llvm2cl12basic_parserIjED1Ev",
   "parameters" :
   [
    {
     "is_this_ptr" : true,
     "referenced_type" : "_ZTIPN4llvm2cl12basic_parserIjEE"
    }
   ],
   "return_type" : "_ZTIv",
   "source_file" : "external/llvm/include/llvm/Support/CommandLine.h"
  },
  {
   "access" : "protected",
   "function_name" : "llvm::cl::basic_parser<unsigned int>::~basic_parser",
   "linker_set_key" : "_ZN4llvm2cl12basic_parserIjED2Ev",
   "parameters" :
   [
    {
     "is_this_ptr" : true,
     "referenced_type" : "_ZTIPN4llvm2cl12basic_parserIjEE"
    }
   ],
   "return_type" : "_ZTIv",
   "source_file" : "external/llvm/include/llvm/Support/CommandLine.h"
  },
  {
   "function_name" : "llvm::cl::basic_parser<unsigned long long>::basic_parser",
   "linker_set_key" : "_ZN4llvm2cl12basic_parserIyEC1ERNS0_6OptionE",
   "parameters" :
   [
    {
     "is_this_ptr" : true,
     "referenced_type" : "_ZTIPN4llvm2cl12basic_parserIyEE"
    },
    {
     "referenced_type" : "_ZTIRN4llvm2cl6OptionE"
    }
   ],
   "return_type" : "_ZTIv",
   "source_file" : "external/llvm/include/llvm/Support/CommandLine.h"
  },
  {
   "function_name" : "llvm::cl::basic_parser<unsigned long long>::basic_parser",
   "linker_set_key" : "_ZN4llvm2cl12basic_parserIyEC2ERNS0_6OptionE",
   "parameters" :
   [
    {
     "is_this_ptr" : true,
     "referenced_type" : "_ZTIPN4llvm2cl12basic_parserIyEE"
    },
    {
     "referenced_type" : "_ZTIRN4llvm2cl6OptionE"
    }
   ],
   "return_type" : "_ZTIv",
   "source_file" : "external/llvm/include/llvm/Support/CommandLine.h"
  },
  {
   "access" : "protected",
   "function_name" : "llvm::cl::basic_parser<unsigned long long>::~basic_parser",
   "linker_set_key" : "_ZN4llvm2cl12basic_parserIyED1Ev",
   "parameters" :
   [
    {
     "is_this_ptr" : true,
     "referenced_type" : "_ZTIPN4llvm2cl12basic_parserIyEE"
    }
   ],
   "return_type" : "_ZTIv",
   "source_file" : "external/llvm/include/llvm/Support/CommandLine.h"
  },
  {
   "access" : "protected",
   "function_name" : "llvm::cl::basic_parser<unsigned long long>::~basic_parser",
   "linker_set_key" : "_ZN4llvm2cl12basic_parserIyED2Ev",
   "parameters" :
   [
    {
     "is_this_ptr" : true,
     "referenced_type" : "_ZTIPN4llvm2cl12basic_parserIyEE"
    }
   ],
   "return_type" : "_ZTIv",
   "source_file" : "external/llvm/include/llvm/Support/CommandLine.h"
  },
  {
   "function_name" : "llvm::cl::OptionCategory::OptionCategory",
   "linker_set_key" : "_ZN4llvm2cl14OptionCategoryC1EPKcS3_",
   "parameters" :
   [
    {
     "is_this_ptr" : true,
     "referenced_type" : "_ZTIPN4llvm2cl14OptionCategoryE"
    },
    {
     "referenced_type" : "_ZTIKPKc"
    },
    {
     "default_arg" : true,
     "referenced_type" : "_ZTIKPKc"
    }
   ],
   "return_type" : "_ZTIv",
   "source_file" : "external/llvm/include/llvm/Support/CommandLine.h"
  },
  {
   "function_name" : "llvm::cl::OptionCategory::OptionCategory",
   "linker_set_key" : "_ZN4llvm2cl14OptionCategoryC2EPKcS3_",
   "parameters" :
   [
    {
     "is_this_ptr" : true,
     "referenced_type" : "_ZTIPN4llvm2cl14OptionCategoryE"
    },
    {
     "referenced_type" : "_ZTIKPKc"
    },
    {
     "default_arg" : true,
     "referenced_type" : "_ZTIKPKc"
    }
   ],
   "return_type" : "_ZTIv",
   "source_file" : "external/llvm/include/llvm/Support/CommandLine.h"
  },
  {
   "access" : "protected",
   "function_name" : "llvm::cl::OptionValueBase<bool, false>::OptionValueBase",
   "linker_set_key" : "_ZN4llvm2cl15OptionValueBaseIbLb0EEC1ERKS2_",
   "parameters" :
   [
    {
     "is_this_ptr" : true,
     "referenced_type" : "_ZTIPN4llvm2cl15OptionValueBaseIbLb0EEE"
    },
    {
     "referenced_type" : "_ZTIRKN4llvm2cl15OptionValueBaseIbLb0EEE"
    }
   ],
   "return_type" : "_ZTIv",
   "source_file" : "external/llvm/include/llvm/Support/CommandLine.h"
  },
  {
   "access" : "protected",
   "function_name" : "llvm::cl::OptionValueBase<bool, false>::OptionValueBase",
   "linker_set_key" : "_ZN4llvm2cl15OptionValueBaseIbLb0EEC1Ev",
   "parameters" :
   [
    {
     "is_this_ptr" : true,
     "referenced_type" : "_ZTIPN4llvm2cl15OptionValueBaseIbLb0EEE"
    }
   ],
   "return_type" : "_ZTIv",
   "source_file" : "external/llvm/include/llvm/Support/CommandLine.h"
  },
  {
   "access" : "protected",
   "function_name" : "llvm::cl::OptionValueBase<bool, false>::OptionValueBase",
   "linker_set_key" : "_ZN4llvm2cl15OptionValueBaseIbLb0EEC2ERKS2_",
   "parameters" :
   [
    {
     "is_this_ptr" : true,
     "referenced_type" : "_ZTIPN4llvm2cl15OptionValueBaseIbLb0EEE"
    },
    {
     "referenced_type" : "_ZTIRKN4llvm2cl15OptionValueBaseIbLb0EEE"
    }
   ],
   "return_type" : "_ZTIv",
   "source_file" : "external/llvm/include/llvm/Support/CommandLine.h"
  },
  {
   "access" : "protected",
   "function_name" : "llvm::cl::OptionValueBase<bool, false>::OptionValueBase",
   "linker_set_key" : "_ZN4llvm2cl15OptionValueBaseIbLb0EEC2Ev",
   "parameters" :
   [
    {
     "is_this_ptr" : true,
     "referenced_type" : "_ZTIPN4llvm2cl15OptionValueBaseIbLb0EEE"
    }
   ],
   "return_type" : "_ZTIv",
   "source_file" : "external/llvm/include/llvm/Support/CommandLine.h"
  },
  {
   "access" : "protected",
   "function_name" : "llvm::cl::OptionValueBase<bool, false>::~OptionValueBase",
   "linker_set_key" : "_ZN4llvm2cl15OptionValueBaseIbLb0EED1Ev",
   "parameters" :
   [
    {
     "is_this_ptr" : true,
     "referenced_type" : "_ZTIPN4llvm2cl15OptionValueBaseIbLb0EEE"
    }
   ],
   "return_type" : "_ZTIv",
   "source_file" : "external/llvm/include/llvm/Support/CommandLine.h"
  },
  {
   "access" : "protected",
   "function_name" : "llvm::cl::OptionValueBase<bool, false>::~OptionValueBase",
   "linker_set_key" : "_ZN4llvm2cl15OptionValueBaseIbLb0EED2Ev",
   "parameters" :
   [
    {
     "is_this_ptr" : true,
     "referenced_type" : "_ZTIPN4llvm2cl15OptionValueBaseIbLb0EEE"
    }
   ],
   "return_type" : "_ZTIv",
   "source_file" : "external/llvm/include/llvm/Support/CommandLine.h"
  },
  {
   "access" : "protected",
   "function_name" : "llvm::cl::OptionValueBase<bool, false>::operator=",
   "linker_set_key" : "_ZN4llvm2cl15OptionValueBaseIbLb0EEaSERKS2_",
   "parameters" :
   [
    {
     "is_this_ptr" : true,
     "referenced_type" : "_ZTIPN4llvm2cl15OptionValueBaseIbLb0EEE"
    },
    {
     "referenced_type" : "_ZTIRKN4llvm2cl15OptionValueBaseIbLb0EEE"
    }
   ],
   "return_type" : "_ZTIRN4llvm2cl15OptionValueBaseIbLb0EEE",
   "source_file" : "external/llvm/include/llvm/Support/CommandLine.h"
  },
  {
   "access" : "protected",
   "function_name" : "llvm::cl::OptionValueBase<char, false>::OptionValueBase",
   "linker_set_key" : "_ZN4llvm2cl15OptionValueBaseIcLb0EEC1ERKS2_",
   "parameters" :
   [
    {
     "is_this_ptr" : true,
     "referenced_type" : "_ZTIPN4llvm2cl15OptionValueBaseIcLb0EEE"
    },
    {
     "referenced_type" : "_ZTIRKN4llvm2cl15OptionValueBaseIcLb0EEE"
    }
   ],
   "return_type" : "_ZTIv",
   "source_file" : "external/llvm/include/llvm/Support/CommandLine.h"
  },
  {
   "access" : "protected",
   "function_name" : "llvm::cl::OptionValueBase<char, false>::OptionValueBase",
   "linker_set_key" : "_ZN4llvm2cl15OptionValueBaseIcLb0EEC1Ev",
   "parameters" :
   [
    {
     "is_this_ptr" : true,
     "referenced_type" : "_ZTIPN4llvm2cl15OptionValueBaseIcLb0EEE"
    }
   ],
   "return_type" : "_ZTIv",
   "source_file" : "external/llvm/include/llvm/Support/CommandLine.h"
  },
  {
   "access" : "protected",
   "function_name" : "llvm::cl::OptionValueBase<char, false>::OptionValueBase",
   "linker_set_key" : "_ZN4llvm2cl15OptionValueBaseIcLb0EEC2ERKS2_",
   "parameters" :
   [
    {
     "is_this_ptr" : true,
     "referenced_type" : "_ZTIPN4llvm2cl15OptionValueBaseIcLb0EEE"
    },
    {
     "referenced_type" : "_ZTIRKN4llvm2cl15OptionValueBaseIcLb0EEE"
    }
   ],
   "return_type" : "_ZTIv",
   "source_file" : "external/llvm/include/llvm/Support/CommandLine.h"
  },
  {
   "access" : "protected",
   "function_name" : "llvm::cl::OptionValueBase<char, false>::OptionValueBase",
   "linker_set_key" : "_ZN4llvm2cl15OptionValueBaseIcLb0EEC2Ev",
   "parameters" :
   [
    {
     "is_this_ptr" : true,
     "referenced_type" : "_ZTIPN4llvm2cl15OptionValueBaseIcLb0EEE"
    }
   ],
   "return_type" : "_ZTIv",
   "source_file" : "external/llvm/include/llvm/Support/CommandLine.h"
  },
  {
   "access" : "protected",
   "function_name" : "llvm::cl::OptionValueBase<char, false>::~OptionValueBase",
   "linker_set_key" : "_ZN4llvm2cl15OptionValueBaseIcLb0EED1Ev",
   "parameters" :
   [
    {
     "is_this_ptr" : true,
     "referenced_type" : "_ZTIPN4llvm2cl15OptionValueBaseIcLb0EEE"
    }
   ],
   "return_type" : "_ZTIv",
   "source_file" : "external/llvm/include/llvm/Support/CommandLine.h"
  },
  {
   "access" : "protected",
   "function_name" : "llvm::cl::OptionValueBase<char, false>::~OptionValueBase",
   "linker_set_key" : "_ZN4llvm2cl15OptionValueBaseIcLb0EED2Ev",
   "parameters" :
   [
    {
     "is_this_ptr" : true,
     "referenced_type" : "_ZTIPN4llvm2cl15OptionValueBaseIcLb0EEE"
    }
   ],
   "return_type" : "_ZTIv",
   "source_file" : "external/llvm/include/llvm/Support/CommandLine.h"
  },
  {
   "access" : "protected",
   "function_name" : "llvm::cl::OptionValueBase<char, false>::operator=",
   "linker_set_key" : "_ZN4llvm2cl15OptionValueBaseIcLb0EEaSERKS2_",
   "parameters" :
   [
    {
     "is_this_ptr" : true,
     "referenced_type" : "_ZTIPN4llvm2cl15OptionValueBaseIcLb0EEE"
    },
    {
     "referenced_type" : "_ZTIRKN4llvm2cl15OptionValueBaseIcLb0EEE"
    }
   ],
   "return_type" : "_ZTIRN4llvm2cl15OptionValueBaseIcLb0EEE",
   "source_file" : "external/llvm/include/llvm/Support/CommandLine.h"
  },
  {
   "access" : "protected",
   "function_name" : "llvm::cl::OptionValueBase<int, false>::OptionValueBase",
   "linker_set_key" : "_ZN4llvm2cl15OptionValueBaseIiLb0EEC1ERKS2_",
   "parameters" :
   [
    {
     "is_this_ptr" : true,
     "referenced_type" : "_ZTIPN4llvm2cl15OptionValueBaseIiLb0EEE"
    },
    {
     "referenced_type" : "_ZTIRKN4llvm2cl15OptionValueBaseIiLb0EEE"
    }
   ],
   "return_type" : "_ZTIv",
   "source_file" : "external/llvm/include/llvm/Support/CommandLine.h"
  },
  {
   "access" : "protected",
   "function_name" : "llvm::cl::OptionValueBase<int, false>::OptionValueBase",
   "linker_set_key" : "_ZN4llvm2cl15OptionValueBaseIiLb0EEC1Ev",
   "parameters" :
   [
    {
     "is_this_ptr" : true,
     "referenced_type" : "_ZTIPN4llvm2cl15OptionValueBaseIiLb0EEE"
    }
   ],
   "return_type" : "_ZTIv",
   "source_file" : "external/llvm/include/llvm/Support/CommandLine.h"
  },
  {
   "access" : "protected",
   "function_name" : "llvm::cl::OptionValueBase<int, false>::OptionValueBase",
   "linker_set_key" : "_ZN4llvm2cl15OptionValueBaseIiLb0EEC2ERKS2_",
   "parameters" :
   [
    {
     "is_this_ptr" : true,
     "referenced_type" : "_ZTIPN4llvm2cl15OptionValueBaseIiLb0EEE"
    },
    {
     "referenced_type" : "_ZTIRKN4llvm2cl15OptionValueBaseIiLb0EEE"
    }
   ],
   "return_type" : "_ZTIv",
   "source_file" : "external/llvm/include/llvm/Support/CommandLine.h"
  },
  {
   "access" : "protected",
   "function_name" : "llvm::cl::OptionValueBase<int, false>::OptionValueBase",
   "linker_set_key" : "_ZN4llvm2cl15OptionValueBaseIiLb0EEC2Ev",
   "parameters" :
   [
    {
     "is_this_ptr" : true,
     "referenced_type" : "_ZTIPN4llvm2cl15OptionValueBaseIiLb0EEE"
    }
   ],
   "return_type" : "_ZTIv",
   "source_file" : "external/llvm/include/llvm/Support/CommandLine.h"
  },
  {
   "access" : "protected",
   "function_name" : "llvm::cl::OptionValueBase<int, false>::~OptionValueBase",
   "linker_set_key" : "_ZN4llvm2cl15OptionValueBaseIiLb0EED1Ev",
   "parameters" :
   [
    {
     "is_this_ptr" : true,
     "referenced_type" : "_ZTIPN4llvm2cl15OptionValueBaseIiLb0EEE"
    }
   ],
   "return_type" : "_ZTIv",
   "source_file" : "external/llvm/include/llvm/Support/CommandLine.h"
  },
  {
   "access" : "protected",
   "function_name" : "llvm::cl::OptionValueBase<int, false>::~OptionValueBase",
   "linker_set_key" : "_ZN4llvm2cl15OptionValueBaseIiLb0EED2Ev",
   "parameters" :
   [
    {
     "is_this_ptr" : true,
     "referenced_type" : "_ZTIPN4llvm2cl15OptionValueBaseIiLb0EEE"
    }
   ],
   "return_type" : "_ZTIv",
   "source_file" : "external/llvm/include/llvm/Support/CommandLine.h"
  },
  {
   "access" : "protected",
   "function_name" : "llvm::cl::OptionValueBase<int, false>::operator=",
   "linker_set_key" : "_ZN4llvm2cl15OptionValueBaseIiLb0EEaSERKS2_",
   "parameters" :
   [
    {
     "is_this_ptr" : true,
     "referenced_type" : "_ZTIPN4llvm2cl15OptionValueBaseIiLb0EEE"
    },
    {
     "referenced_type" : "_ZTIRKN4llvm2cl15OptionValueBaseIiLb0EEE"
    }
   ],
   "return_type" : "_ZTIRN4llvm2cl15OptionValueBaseIiLb0EEE",
   "source_file" : "external/llvm/include/llvm/Support/CommandLine.h"
  },
  {
   "access" : "protected",
   "function_name" : "llvm::cl::OptionValueBase<unsigned int, false>::OptionValueBase",
   "linker_set_key" : "_ZN4llvm2cl15OptionValueBaseIjLb0EEC1ERKS2_",
   "parameters" :
   [
    {
     "is_this_ptr" : true,
     "referenced_type" : "_ZTIPN4llvm2cl15OptionValueBaseIjLb0EEE"
    },
    {
     "referenced_type" : "_ZTIRKN4llvm2cl15OptionValueBaseIjLb0EEE"
    }
   ],
   "return_type" : "_ZTIv",
   "source_file" : "external/llvm/include/llvm/Support/CommandLine.h"
  },
  {
   "access" : "protected",
   "function_name" : "llvm::cl::OptionValueBase<unsigned int, false>::OptionValueBase",
   "linker_set_key" : "_ZN4llvm2cl15OptionValueBaseIjLb0EEC1Ev",
   "parameters" :
   [
    {
     "is_this_ptr" : true,
     "referenced_type" : "_ZTIPN4llvm2cl15OptionValueBaseIjLb0EEE"
    }
   ],
   "return_type" : "_ZTIv",
   "source_file" : "external/llvm/include/llvm/Support/CommandLine.h"
  },
  {
   "access" : "protected",
   "function_name" : "llvm::cl::OptionValueBase<unsigned int, false>::OptionValueBase",
   "linker_set_key" : "_ZN4llvm2cl15OptionValueBaseIjLb0EEC2ERKS2_",
   "parameters" :
   [
    {
     "is_this_ptr" : true,
     "referenced_type" : "_ZTIPN4llvm2cl15OptionValueBaseIjLb0EEE"
    },
    {
     "referenced_type" : "_ZTIRKN4llvm2cl15OptionValueBaseIjLb0EEE"
    }
   ],
   "return_type" : "_ZTIv",
   "source_file" : "external/llvm/include/llvm/Support/CommandLine.h"
  },
  {
   "access" : "protected",
   "function_name" : "llvm::cl::OptionValueBase<unsigned int, false>::OptionValueBase",
   "linker_set_key" : "_ZN4llvm2cl15OptionValueBaseIjLb0EEC2Ev",
   "parameters" :
   [
    {
     "is_this_ptr" : true,
     "referenced_type" : "_ZTIPN4llvm2cl15OptionValueBaseIjLb0EEE"
    }
   ],
   "return_type" : "_ZTIv",
   "source_file" : "external/llvm/include/llvm/Support/CommandLine.h"
  },
  {
   "access" : "protected",
   "function_name" : "llvm::cl::OptionValueBase<unsigned int, false>::~OptionValueBase",
   "linker_set_key" : "_ZN4llvm2cl15OptionValueBaseIjLb0EED1Ev",
   "parameters" :
   [
    {
     "is_this_ptr" : true,
     "referenced_type" : "_ZTIPN4llvm2cl15OptionValueBaseIjLb0EEE"
    }
   ],
   "return_type" : "_ZTIv",
   "source_file" : "external/llvm/include/llvm/Support/CommandLine.h"
  },
  {
   "access" : "protected",
   "function_name" : "llvm::cl::OptionValueBase<unsigned int, false>::~OptionValueBase",
   "linker_set_key" : "_ZN4llvm2cl15OptionValueBaseIjLb0EED2Ev",
   "parameters" :
   [
    {
     "is_this_ptr" : true,
     "referenced_type" : "_ZTIPN4llvm2cl15OptionValueBaseIjLb0EEE"
    }
   ],
   "return_type" : "_ZTIv",
   "source_file" : "external/llvm/include/llvm/Support/CommandLine.h"
  },
  {
   "access" : "protected",
   "function_name" : "llvm::cl::OptionValueBase<unsigned int, false>::operator=",
   "linker_set_key" : "_ZN4llvm2cl15OptionValueBaseIjLb0EEaSERKS2_",
   "parameters" :
   [
    {
     "is_this_ptr" : true,
     "referenced_type" : "_ZTIPN4llvm2cl15OptionValueBaseIjLb0EEE"
    },
    {
     "referenced_type" : "_ZTIRKN4llvm2cl15OptionValueBaseIjLb0EEE"
    }
   ],
   "return_type" : "_ZTIRN4llvm2cl15OptionValueBaseIjLb0EEE",
   "source_file" : "external/llvm/include/llvm/Support/CommandLine.h"
  },
  {
   "function_name" : "llvm::cl::OptionValueCopy<llvm::cl::boolOrDefault>::setValue",
   "linker_set_key" : "_ZN4llvm2cl15OptionValueCopyINS0_13boolOrDefaultEE8setValueERKS2_",
   "parameters" :
   [
    {
     "is_this_ptr" : true,
     "referenced_type" : "_ZTIPN4llvm2cl15OptionValueCopyINS0_13boolOrDefaultEEE"
    },
    {
     "referenced_type" : "_ZTIRKN4llvm2cl13boolOrDefaultE"
    }
   ],
   "return_type" : "_ZTIv",
   "source_file" : "external/llvm/include/llvm/Support/CommandLine.h"
  },
  {
   "access" : "protected",
   "function_name" : "llvm::cl::OptionValueCopy<llvm::cl::boolOrDefault>::OptionValueCopy",
   "linker_set_key" : "_ZN4llvm2cl15OptionValueCopyINS0_13boolOrDefaultEEC1ERKS3_",
   "parameters" :
   [
    {
     "is_this_ptr" : true,
     "referenced_type" : "_ZTIPN4llvm2cl15OptionValueCopyINS0_13boolOrDefaultEEE"
    },
    {
     "referenced_type" : "_ZTIRKN4llvm2cl15OptionValueCopyINS0_13boolOrDefaultEEE"
    }
   ],
   "return_type" : "_ZTIv",
   "source_file" : "external/llvm/include/llvm/Support/CommandLine.h"
  },
  {
   "function_name" : "llvm::cl::OptionValueCopy<llvm::cl::boolOrDefault>::OptionValueCopy",
   "linker_set_key" : "_ZN4llvm2cl15OptionValueCopyINS0_13boolOrDefaultEEC1Ev",
   "parameters" :
   [
    {
     "is_this_ptr" : true,
     "referenced_type" : "_ZTIPN4llvm2cl15OptionValueCopyINS0_13boolOrDefaultEEE"
    }
   ],
   "return_type" : "_ZTIv",
   "source_file" : "external/llvm/include/llvm/Support/CommandLine.h"
  },
  {
   "access" : "protected",
   "function_name" : "llvm::cl::OptionValueCopy<llvm::cl::boolOrDefault>::OptionValueCopy",
   "linker_set_key" : "_ZN4llvm2cl15OptionValueCopyINS0_13boolOrDefaultEEC2ERKS3_",
   "parameters" :
   [
    {
     "is_this_ptr" : true,
     "referenced_type" : "_ZTIPN4llvm2cl15OptionValueCopyINS0_13boolOrDefaultEEE"
    },
    {
     "referenced_type" : "_ZTIRKN4llvm2cl15OptionValueCopyINS0_13boolOrDefaultEEE"
    }
   ],
   "return_type" : "_ZTIv",
   "source_file" : "external/llvm/include/llvm/Support/CommandLine.h"
  },
  {
   "function_name" : "llvm::cl::OptionValueCopy<llvm::cl::boolOrDefault>::OptionValueCopy",
   "linker_set_key" : "_ZN4llvm2cl15OptionValueCopyINS0_13boolOrDefaultEEC2Ev",
   "parameters" :
   [
    {
     "is_this_ptr" : true,
     "referenced_type" : "_ZTIPN4llvm2cl15OptionValueCopyINS0_13boolOrDefaultEEE"
    }
   ],
   "return_type" : "_ZTIv",
   "source_file" : "external/llvm/include/llvm/Support/CommandLine.h"
  },
  {
   "access" : "protected",
   "function_name" : "llvm::cl::OptionValueCopy<llvm::cl::boolOrDefault>::~OptionValueCopy",
   "linker_set_key" : "_ZN4llvm2cl15OptionValueCopyINS0_13boolOrDefaultEED1Ev",
   "parameters" :
   [
    {
     "is_this_ptr" : true,
     "referenced_type" : "_ZTIPN4llvm2cl15OptionValueCopyINS0_13boolOrDefaultEEE"
    }
   ],
   "return_type" : "_ZTIv",
   "source_file" : "external/llvm/include/llvm/Support/CommandLine.h"
  },
  {
   "access" : "protected",
   "function_name" : "llvm::cl::OptionValueCopy<llvm::cl::boolOrDefault>::~OptionValueCopy",
   "linker_set_key" : "_ZN4llvm2cl15OptionValueCopyINS0_13boolOrDefaultEED2Ev",
   "parameters" :
   [
    {
     "is_this_ptr" : true,
     "referenced_type" : "_ZTIPN4llvm2cl15OptionValueCopyINS0_13boolOrDefaultEEE"
    }
   ],
   "return_type" : "_ZTIv",
   "source_file" : "external/llvm/include/llvm/Support/CommandLine.h"
  },
  {
   "access" : "protected",
   "function_name" : "llvm::cl::OptionValueCopy<llvm::cl::boolOrDefault>::operator=",
   "linker_set_key" : "_ZN4llvm2cl15OptionValueCopyINS0_13boolOrDefaultEEaSERKS3_",
   "parameters" :
   [
    {
     "is_this_ptr" : true,
     "referenced_type" : "_ZTIPN4llvm2cl15OptionValueCopyINS0_13boolOrDefaultEEE"
    },
    {
     "referenced_type" : "_ZTIRKN4llvm2cl15OptionValueCopyINS0_13boolOrDefaultEEE"
    }
   ],
   "return_type" : "_ZTIRN4llvm2cl15OptionValueCopyINS0_13boolOrDefaultEEE",
   "source_file" : "external/llvm/include/llvm/Support/CommandLine.h"
  },
  {
   "function_name" : "llvm::cl::OptionValueCopy<std::__1::basic_string<char>>::setValue",
   "linker_set_key" : "_ZN4llvm2cl15OptionValueCopyINSt3__112basic_stringIcNS2_11char_traitsIcEENS2_9allocatorIcEEEEE8setValueERKS8_",
   "parameters" :
   [
    {
     "is_this_ptr" : true,
     "referenced_type" : "_ZTIPN4llvm2cl15OptionValueCopyINSt3__112basic_stringIcNS2_11char_traitsIcEENS2_9allocatorIcEEEEEE"
    },
    {
     "referenced_type" : "_ZTIRKNSt3__112basic_stringIcNS_11char_traitsIcEENS_9allocatorIcEEEE"
    }
   ],
   "return_type" : "_ZTIv",
   "source_file" : "external/llvm/include/llvm/Support/CommandLine.h"
  },
  {
   "access" : "protected",
   "function_name" : "llvm::cl::OptionValueCopy<std::__1::basic_string<char>>::OptionValueCopy",
   "linker_set_key" : "_ZN4llvm2cl15OptionValueCopyINSt3__112basic_stringIcNS2_11char_traitsIcEENS2_9allocatorIcEEEEEC1ERKS9_",
   "parameters" :
   [
    {
     "is_this_ptr" : true,
     "referenced_type" : "_ZTIPN4llvm2cl15OptionValueCopyINSt3__112basic_stringIcNS2_11char_traitsIcEENS2_9allocatorIcEEEEEE"
    },
    {
     "referenced_type" : "_ZTIRKN4llvm2cl15OptionValueCopyINSt3__112basic_stringIcNS2_11char_traitsIcEENS2_9allocatorIcEEEEEE"
    }
   ],
   "return_type" : "_ZTIv",
   "source_file" : "external/llvm/include/llvm/Support/CommandLine.h"
  },
  {
   "function_name" : "llvm::cl::OptionValueCopy<std::__1::basic_string<char>>::OptionValueCopy",
   "linker_set_key" : "_ZN4llvm2cl15OptionValueCopyINSt3__112basic_stringIcNS2_11char_traitsIcEENS2_9allocatorIcEEEEEC1Ev",
   "parameters" :
   [
    {
     "is_this_ptr" : true,
     "referenced_type" : "_ZTIPN4llvm2cl15OptionValueCopyINSt3__112basic_stringIcNS2_11char_traitsIcEENS2_9allocatorIcEEEEEE"
    }
   ],
   "return_type" : "_ZTIv",
   "source_file" : "external/llvm/include/llvm/Support/CommandLine.h"
  },
  {
   "access" : "protected",
   "function_name" : "llvm::cl::OptionValueCopy<std::__1::basic_string<char>>::OptionValueCopy",
   "linker_set_key" : "_ZN4llvm2cl15OptionValueCopyINSt3__112basic_stringIcNS2_11char_traitsIcEENS2_9allocatorIcEEEEEC2ERKS9_",
   "parameters" :
   [
    {
     "is_this_ptr" : true,
     "referenced_type" : "_ZTIPN4llvm2cl15OptionValueCopyINSt3__112basic_stringIcNS2_11char_traitsIcEENS2_9allocatorIcEEEEEE"
    },
    {
     "referenced_type" : "_ZTIRKN4llvm2cl15OptionValueCopyINSt3__112basic_stringIcNS2_11char_traitsIcEENS2_9allocatorIcEEEEEE"
    }
   ],
   "return_type" : "_ZTIv",
   "source_file" : "external/llvm/include/llvm/Support/CommandLine.h"
  },
  {
   "function_name" : "llvm::cl::OptionValueCopy<std::__1::basic_string<char>>::OptionValueCopy",
   "linker_set_key" : "_ZN4llvm2cl15OptionValueCopyINSt3__112basic_stringIcNS2_11char_traitsIcEENS2_9allocatorIcEEEEEC2Ev",
   "parameters" :
   [
    {
     "is_this_ptr" : true,
     "referenced_type" : "_ZTIPN4llvm2cl15OptionValueCopyINSt3__112basic_stringIcNS2_11char_traitsIcEENS2_9allocatorIcEEEEEE"
    }
   ],
   "return_type" : "_ZTIv",
   "source_file" : "external/llvm/include/llvm/Support/CommandLine.h"
  },
  {
   "access" : "protected",
   "function_name" : "llvm::cl::OptionValueCopy<std::__1::basic_string<char>>::~OptionValueCopy",
   "linker_set_key" : "_ZN4llvm2cl15OptionValueCopyINSt3__112basic_stringIcNS2_11char_traitsIcEENS2_9allocatorIcEEEEED1Ev",
   "parameters" :
   [
    {
     "is_this_ptr" : true,
     "referenced_type" : "_ZTIPN4llvm2cl15OptionValueCopyINSt3__112basic_stringIcNS2_11char_traitsIcEENS2_9allocatorIcEEEEEE"
    }
   ],
   "return_type" : "_ZTIv",
   "source_file" : "external/llvm/include/llvm/Support/CommandLine.h"
  },
  {
   "access" : "protected",
   "function_name" : "llvm::cl::OptionValueCopy<std::__1::basic_string<char>>::~OptionValueCopy",
   "linker_set_key" : "_ZN4llvm2cl15OptionValueCopyINSt3__112basic_stringIcNS2_11char_traitsIcEENS2_9allocatorIcEEEEED2Ev",
   "parameters" :
   [
    {
     "is_this_ptr" : true,
     "referenced_type" : "_ZTIPN4llvm2cl15OptionValueCopyINSt3__112basic_stringIcNS2_11char_traitsIcEENS2_9allocatorIcEEEEEE"
    }
   ],
   "return_type" : "_ZTIv",
   "source_file" : "external/llvm/include/llvm/Support/CommandLine.h"
  },
  {
   "access" : "protected",
   "function_name" : "llvm::cl::OptionValueCopy<std::__1::basic_string<char>>::operator=",
   "linker_set_key" : "_ZN4llvm2cl15OptionValueCopyINSt3__112basic_stringIcNS2_11char_traitsIcEENS2_9allocatorIcEEEEEaSERKS9_",
   "parameters" :
   [
    {
     "is_this_ptr" : true,
     "referenced_type" : "_ZTIPN4llvm2cl15OptionValueCopyINSt3__112basic_stringIcNS2_11char_traitsIcEENS2_9allocatorIcEEEEEE"
    },
    {
     "referenced_type" : "_ZTIRKN4llvm2cl15OptionValueCopyINSt3__112basic_stringIcNS2_11char_traitsIcEENS2_9allocatorIcEEEEEE"
    }
   ],
   "return_type" : "_ZTIRN4llvm2cl15OptionValueCopyINSt3__112basic_stringIcNS2_11char_traitsIcEENS2_9allocatorIcEEEEEE",
   "source_file" : "external/llvm/include/llvm/Support/CommandLine.h"
  },
  {
   "access" : "protected",
   "function_name" : "llvm::cl::OptionValueCopy<bool>::OptionValueCopy",
   "linker_set_key" : "_ZN4llvm2cl15OptionValueCopyIbEC1ERKS2_",
   "parameters" :
   [
    {
     "is_this_ptr" : true,
     "referenced_type" : "_ZTIPN4llvm2cl15OptionValueCopyIbEE"
    },
    {
     "referenced_type" : "_ZTIRKN4llvm2cl15OptionValueCopyIbEE"
    }
   ],
   "return_type" : "_ZTIv",
   "source_file" : "external/llvm/include/llvm/Support/CommandLine.h"
  },
  {
   "access" : "protected",
   "function_name" : "llvm::cl::OptionValueCopy<bool>::OptionValueCopy",
   "linker_set_key" : "_ZN4llvm2cl15OptionValueCopyIbEC2ERKS2_",
   "parameters" :
   [
    {
     "is_this_ptr" : true,
     "referenced_type" : "_ZTIPN4llvm2cl15OptionValueCopyIbEE"
    },
    {
     "referenced_type" : "_ZTIRKN4llvm2cl15OptionValueCopyIbEE"
    }
   ],
   "return_type" : "_ZTIv",
   "source_file" : "external/llvm/include/llvm/Support/CommandLine.h"
  },
  {
   "access" : "protected",
   "function_name" : "llvm::cl::OptionValueCopy<bool>::~OptionValueCopy",
   "linker_set_key" : "_ZN4llvm2cl15OptionValueCopyIbED1Ev",
   "parameters" :
   [
    {
     "is_this_ptr" : true,
     "referenced_type" : "_ZTIPN4llvm2cl15OptionValueCopyIbEE"
    }
   ],
   "return_type" : "_ZTIv",
   "source_file" : "external/llvm/include/llvm/Support/CommandLine.h"
  },
  {
   "access" : "protected",
   "function_name" : "llvm::cl::OptionValueCopy<bool>::~OptionValueCopy",
   "linker_set_key" : "_ZN4llvm2cl15OptionValueCopyIbED2Ev",
   "parameters" :
   [
    {
     "is_this_ptr" : true,
     "referenced_type" : "_ZTIPN4llvm2cl15OptionValueCopyIbEE"
    }
   ],
   "return_type" : "_ZTIv",
   "source_file" : "external/llvm/include/llvm/Support/CommandLine.h"
  },
  {
   "access" : "protected",
   "function_name" : "llvm::cl::OptionValueCopy<bool>::operator=",
   "linker_set_key" : "_ZN4llvm2cl15OptionValueCopyIbEaSERKS2_",
   "parameters" :
   [
    {
     "is_this_ptr" : true,
     "referenced_type" : "_ZTIPN4llvm2cl15OptionValueCopyIbEE"
    },
    {
     "referenced_type" : "_ZTIRKN4llvm2cl15OptionValueCopyIbEE"
    }
   ],
   "return_type" : "_ZTIRN4llvm2cl15OptionValueCopyIbEE",
   "source_file" : "external/llvm/include/llvm/Support/CommandLine.h"
  },
  {
   "access" : "protected",
   "function_name" : "llvm::cl::OptionValueCopy<char>::OptionValueCopy",
   "linker_set_key" : "_ZN4llvm2cl15OptionValueCopyIcEC1ERKS2_",
   "parameters" :
   [
    {
     "is_this_ptr" : true,
     "referenced_type" : "_ZTIPN4llvm2cl15OptionValueCopyIcEE"
    },
    {
     "referenced_type" : "_ZTIRKN4llvm2cl15OptionValueCopyIcEE"
    }
   ],
   "return_type" : "_ZTIv",
   "source_file" : "external/llvm/include/llvm/Support/CommandLine.h"
  },
  {
   "access" : "protected",
   "function_name" : "llvm::cl::OptionValueCopy<char>::OptionValueCopy",
   "linker_set_key" : "_ZN4llvm2cl15OptionValueCopyIcEC2ERKS2_",
   "parameters" :
   [
    {
     "is_this_ptr" : true,
     "referenced_type" : "_ZTIPN4llvm2cl15OptionValueCopyIcEE"
    },
    {
     "referenced_type" : "_ZTIRKN4llvm2cl15OptionValueCopyIcEE"
    }
   ],
   "return_type" : "_ZTIv",
   "source_file" : "external/llvm/include/llvm/Support/CommandLine.h"
  },
  {
   "access" : "protected",
   "function_name" : "llvm::cl::OptionValueCopy<char>::~OptionValueCopy",
   "linker_set_key" : "_ZN4llvm2cl15OptionValueCopyIcED1Ev",
   "parameters" :
   [
    {
     "is_this_ptr" : true,
     "referenced_type" : "_ZTIPN4llvm2cl15OptionValueCopyIcEE"
    }
   ],
   "return_type" : "_ZTIv",
   "source_file" : "external/llvm/include/llvm/Support/CommandLine.h"
  },
  {
   "access" : "protected",
   "function_name" : "llvm::cl::OptionValueCopy<char>::~OptionValueCopy",
   "linker_set_key" : "_ZN4llvm2cl15OptionValueCopyIcED2Ev",
   "parameters" :
   [
    {
     "is_this_ptr" : true,
     "referenced_type" : "_ZTIPN4llvm2cl15OptionValueCopyIcEE"
    }
   ],
   "return_type" : "_ZTIv",
   "source_file" : "external/llvm/include/llvm/Support/CommandLine.h"
  },
  {
   "access" : "protected",
   "function_name" : "llvm::cl::OptionValueCopy<char>::operator=",
   "linker_set_key" : "_ZN4llvm2cl15OptionValueCopyIcEaSERKS2_",
   "parameters" :
   [
    {
     "is_this_ptr" : true,
     "referenced_type" : "_ZTIPN4llvm2cl15OptionValueCopyIcEE"
    },
    {
     "referenced_type" : "_ZTIRKN4llvm2cl15OptionValueCopyIcEE"
    }
   ],
   "return_type" : "_ZTIRN4llvm2cl15OptionValueCopyIcEE",
   "source_file" : "external/llvm/include/llvm/Support/CommandLine.h"
  },
  {
   "access" : "protected",
   "function_name" : "llvm::cl::OptionValueCopy<int>::OptionValueCopy",
   "linker_set_key" : "_ZN4llvm2cl15OptionValueCopyIiEC1ERKS2_",
   "parameters" :
   [
    {
     "is_this_ptr" : true,
     "referenced_type" : "_ZTIPN4llvm2cl15OptionValueCopyIiEE"
    },
    {
     "referenced_type" : "_ZTIRKN4llvm2cl15OptionValueCopyIiEE"
    }
   ],
   "return_type" : "_ZTIv",
   "source_file" : "external/llvm/include/llvm/Support/CommandLine.h"
  },
  {
   "access" : "protected",
   "function_name" : "llvm::cl::OptionValueCopy<int>::OptionValueCopy",
   "linker_set_key" : "_ZN4llvm2cl15OptionValueCopyIiEC2ERKS2_",
   "parameters" :
   [
    {
     "is_this_ptr" : true,
     "referenced_type" : "_ZTIPN4llvm2cl15OptionValueCopyIiEE"
    },
    {
     "referenced_type" : "_ZTIRKN4llvm2cl15OptionValueCopyIiEE"
    }
   ],
   "return_type" : "_ZTIv",
   "source_file" : "external/llvm/include/llvm/Support/CommandLine.h"
  },
  {
   "access" : "protected",
   "function_name" : "llvm::cl::OptionValueCopy<int>::~OptionValueCopy",
   "linker_set_key" : "_ZN4llvm2cl15OptionValueCopyIiED1Ev",
   "parameters" :
   [
    {
     "is_this_ptr" : true,
     "referenced_type" : "_ZTIPN4llvm2cl15OptionValueCopyIiEE"
    }
   ],
   "return_type" : "_ZTIv",
   "source_file" : "external/llvm/include/llvm/Support/CommandLine.h"
  },
  {
   "access" : "protected",
   "function_name" : "llvm::cl::OptionValueCopy<int>::~OptionValueCopy",
   "linker_set_key" : "_ZN4llvm2cl15OptionValueCopyIiED2Ev",
   "parameters" :
   [
    {
     "is_this_ptr" : true,
     "referenced_type" : "_ZTIPN4llvm2cl15OptionValueCopyIiEE"
    }
   ],
   "return_type" : "_ZTIv",
   "source_file" : "external/llvm/include/llvm/Support/CommandLine.h"
  },
  {
   "access" : "protected",
   "function_name" : "llvm::cl::OptionValueCopy<int>::operator=",
   "linker_set_key" : "_ZN4llvm2cl15OptionValueCopyIiEaSERKS2_",
   "parameters" :
   [
    {
     "is_this_ptr" : true,
     "referenced_type" : "_ZTIPN4llvm2cl15OptionValueCopyIiEE"
    },
    {
     "referenced_type" : "_ZTIRKN4llvm2cl15OptionValueCopyIiEE"
    }
   ],
   "return_type" : "_ZTIRN4llvm2cl15OptionValueCopyIiEE",
   "source_file" : "external/llvm/include/llvm/Support/CommandLine.h"
  },
  {
   "access" : "protected",
   "function_name" : "llvm::cl::OptionValueCopy<unsigned int>::OptionValueCopy",
   "linker_set_key" : "_ZN4llvm2cl15OptionValueCopyIjEC1ERKS2_",
   "parameters" :
   [
    {
     "is_this_ptr" : true,
     "referenced_type" : "_ZTIPN4llvm2cl15OptionValueCopyIjEE"
    },
    {
     "referenced_type" : "_ZTIRKN4llvm2cl15OptionValueCopyIjEE"
    }
   ],
   "return_type" : "_ZTIv",
   "source_file" : "external/llvm/include/llvm/Support/CommandLine.h"
  },
  {
   "access" : "protected",
   "function_name" : "llvm::cl::OptionValueCopy<unsigned int>::OptionValueCopy",
   "linker_set_key" : "_ZN4llvm2cl15OptionValueCopyIjEC2ERKS2_",
   "parameters" :
   [
    {
     "is_this_ptr" : true,
     "referenced_type" : "_ZTIPN4llvm2cl15OptionValueCopyIjEE"
    },
    {
     "referenced_type" : "_ZTIRKN4llvm2cl15OptionValueCopyIjEE"
    }
   ],
   "return_type" : "_ZTIv",
   "source_file" : "external/llvm/include/llvm/Support/CommandLine.h"
  },
  {
   "access" : "protected",
   "function_name" : "llvm::cl::OptionValueCopy<unsigned int>::~OptionValueCopy",
   "linker_set_key" : "_ZN4llvm2cl15OptionValueCopyIjED1Ev",
   "parameters" :
   [
    {
     "is_this_ptr" : true,
     "referenced_type" : "_ZTIPN4llvm2cl15OptionValueCopyIjEE"
    }
   ],
   "return_type" : "_ZTIv",
   "source_file" : "external/llvm/include/llvm/Support/CommandLine.h"
  },
  {
   "access" : "protected",
   "function_name" : "llvm::cl::OptionValueCopy<unsigned int>::~OptionValueCopy",
   "linker_set_key" : "_ZN4llvm2cl15OptionValueCopyIjED2Ev",
   "parameters" :
   [
    {
     "is_this_ptr" : true,
     "referenced_type" : "_ZTIPN4llvm2cl15OptionValueCopyIjEE"
    }
   ],
   "return_type" : "_ZTIv",
   "source_file" : "external/llvm/include/llvm/Support/CommandLine.h"
  },
  {
   "access" : "protected",
   "function_name" : "llvm::cl::OptionValueCopy<unsigned int>::operator=",
   "linker_set_key" : "_ZN4llvm2cl15OptionValueCopyIjEaSERKS2_",
   "parameters" :
   [
    {
     "is_this_ptr" : true,
     "referenced_type" : "_ZTIPN4llvm2cl15OptionValueCopyIjEE"
    },
    {
     "referenced_type" : "_ZTIRKN4llvm2cl15OptionValueCopyIjEE"
    }
   ],
   "return_type" : "_ZTIRN4llvm2cl15OptionValueCopyIjEE",
   "source_file" : "external/llvm/include/llvm/Support/CommandLine.h"
  },
  {
   "function_name" : "llvm::cl::basic_parser_impl::initialize",
   "linker_set_key" : "_ZN4llvm2cl17basic_parser_impl10initializeEv",
   "parameters" :
   [
    {
     "is_this_ptr" : true,
     "referenced_type" : "_ZTIPN4llvm2cl17basic_parser_implE"
    }
   ],
   "return_type" : "_ZTIv",
   "source_file" : "external/llvm/include/llvm/Support/CommandLine.h"
  },
  {
   "function_name" : "llvm::cl::basic_parser_impl::getExtraOptionNames",
   "linker_set_key" : "_ZN4llvm2cl17basic_parser_impl19getExtraOptionNamesERNS_15SmallVectorImplINS_9StringRefEEE",
   "parameters" :
   [
    {
     "is_this_ptr" : true,
     "referenced_type" : "_ZTIPN4llvm2cl17basic_parser_implE"
    },
    {
     "referenced_type" : "_ZTIRN4llvm15SmallVectorImplINS_9StringRefEEE"
    }
   ],
   "return_type" : "_ZTIv",
   "source_file" : "external/llvm/include/llvm/Support/CommandLine.h"
  },
  {
   "function_name" : "llvm::cl::basic_parser_impl::basic_parser_impl",
   "linker_set_key" : "_ZN4llvm2cl17basic_parser_implC1ERNS0_6OptionE",
   "parameters" :
   [
    {
     "is_this_ptr" : true,
     "referenced_type" : "_ZTIPN4llvm2cl17basic_parser_implE"
    },
    {
     "referenced_type" : "_ZTIRN4llvm2cl6OptionE"
    }
   ],
   "return_type" : "_ZTIv",
   "source_file" : "external/llvm/include/llvm/Support/CommandLine.h"
  },
  {
   "function_name" : "llvm::cl::basic_parser_impl::basic_parser_impl",
   "linker_set_key" : "_ZN4llvm2cl17basic_parser_implC2ERNS0_6OptionE",
   "parameters" :
   [
    {
     "is_this_ptr" : true,
     "referenced_type" : "_ZTIPN4llvm2cl17basic_parser_implE"
    },
    {
     "referenced_type" : "_ZTIRN4llvm2cl6OptionE"
    }
   ],
   "return_type" : "_ZTIv",
   "source_file" : "external/llvm/include/llvm/Support/CommandLine.h"
  },
  {
   "access" : "protected",
   "function_name" : "llvm::cl::basic_parser_impl::~basic_parser_impl",
   "linker_set_key" : "_ZN4llvm2cl17basic_parser_implD1Ev",
   "parameters" :
   [
    {
     "is_this_ptr" : true,
     "referenced_type" : "_ZTIPN4llvm2cl17basic_parser_implE"
    }
   ],
   "return_type" : "_ZTIv",
   "source_file" : "external/llvm/include/llvm/Support/CommandLine.h"
  },
  {
   "access" : "protected",
   "function_name" : "llvm::cl::basic_parser_impl::~basic_parser_impl",
   "linker_set_key" : "_ZN4llvm2cl17basic_parser_implD2Ev",
   "parameters" :
   [
    {
     "is_this_ptr" : true,
     "referenced_type" : "_ZTIPN4llvm2cl17basic_parser_implE"
    }
   ],
   "return_type" : "_ZTIv",
   "source_file" : "external/llvm/include/llvm/Support/CommandLine.h"
  },
  {
   "access" : "protected",
   "function_name" : "llvm::cl::GenericOptionValue::GenericOptionValue",
   "linker_set_key" : "_ZN4llvm2cl18GenericOptionValueC2ERKS1_",
   "parameters" :
   [
    {
     "is_this_ptr" : true,
     "referenced_type" : "_ZTIPN4llvm2cl18GenericOptionValueE"
    },
    {
     "referenced_type" : "_ZTIRKN4llvm2cl18GenericOptionValueE"
    }
   ],
   "return_type" : "_ZTIv",
   "source_file" : "external/llvm/include/llvm/Support/CommandLine.h"
  },
  {
   "access" : "protected",
   "function_name" : "llvm::cl::GenericOptionValue::GenericOptionValue",
   "linker_set_key" : "_ZN4llvm2cl18GenericOptionValueC2Ev",
   "parameters" :
   [
    {
     "is_this_ptr" : true,
     "referenced_type" : "_ZTIPN4llvm2cl18GenericOptionValueE"
    }
   ],
   "return_type" : "_ZTIv",
   "source_file" : "external/llvm/include/llvm/Support/CommandLine.h"
  },
  {
   "access" : "protected",
   "function_name" : "llvm::cl::GenericOptionValue::~GenericOptionValue",
   "linker_set_key" : "_ZN4llvm2cl18GenericOptionValueD1Ev",
   "parameters" :
   [
    {
     "is_this_ptr" : true,
     "referenced_type" : "_ZTIPN4llvm2cl18GenericOptionValueE"
    }
   ],
   "return_type" : "_ZTIv",
   "source_file" : "external/llvm/include/llvm/Support/CommandLine.h"
  },
  {
   "access" : "protected",
   "function_name" : "llvm::cl::GenericOptionValue::~GenericOptionValue",
   "linker_set_key" : "_ZN4llvm2cl18GenericOptionValueD2Ev",
   "parameters" :
   [
    {
     "is_this_ptr" : true,
     "referenced_type" : "_ZTIPN4llvm2cl18GenericOptionValueE"
    }
   ],
   "return_type" : "_ZTIv",
   "source_file" : "external/llvm/include/llvm/Support/CommandLine.h"
  },
  {
   "access" : "protected",
   "function_name" : "llvm::cl::GenericOptionValue::operator=",
   "linker_set_key" : "_ZN4llvm2cl18GenericOptionValueaSERKS1_",
   "parameters" :
   [
    {
     "is_this_ptr" : true,
     "referenced_type" : "_ZTIPN4llvm2cl18GenericOptionValueE"
    },
    {
     "referenced_type" : "_ZTIRKN4llvm2cl18GenericOptionValueE"
    }
   ],
   "return_type" : "_ZTIRN4llvm2cl18GenericOptionValueE",
   "source_file" : "external/llvm/include/llvm/Support/CommandLine.h"
  },
  {
   "function_name" : "llvm::cl::generic_parser_base::initialize",
   "linker_set_key" : "_ZN4llvm2cl19generic_parser_base10initializeEv",
   "parameters" :
   [
    {
     "is_this_ptr" : true,
     "referenced_type" : "_ZTIPN4llvm2cl19generic_parser_baseE"
    }
   ],
   "return_type" : "_ZTIv",
   "source_file" : "external/llvm/include/llvm/Support/CommandLine.h"
  },
  {
   "function_name" : "llvm::cl::generic_parser_base::GenericOptionInfo::GenericOptionInfo",
   "linker_set_key" : "_ZN4llvm2cl19generic_parser_base17GenericOptionInfoC1EPKcS4_",
   "parameters" :
   [
    {
     "is_this_ptr" : true,
     "referenced_type" : "_ZTIPN4llvm2cl19generic_parser_base17GenericOptionInfoE"
    },
    {
     "referenced_type" : "_ZTIPKc"
    },
    {
     "referenced_type" : "_ZTIPKc"
    }
   ],
   "return_type" : "_ZTIv",
   "source_file" : "external/llvm/include/llvm/Support/CommandLine.h"
  },
  {
   "function_name" : "llvm::cl::generic_parser_base::GenericOptionInfo::GenericOptionInfo",
   "linker_set_key" : "_ZN4llvm2cl19generic_parser_base17GenericOptionInfoC2EPKcS4_",
   "parameters" :
   [
    {
     "is_this_ptr" : true,
     "referenced_type" : "_ZTIPN4llvm2cl19generic_parser_base17GenericOptionInfoE"
    },
    {
     "referenced_type" : "_ZTIPKc"
    },
    {
     "referenced_type" : "_ZTIPKc"
    }
   ],
   "return_type" : "_ZTIv",
   "source_file" : "external/llvm/include/llvm/Support/CommandLine.h"
  },
  {
   "function_name" : "llvm::cl::generic_parser_base::getExtraOptionNames",
   "linker_set_key" : "_ZN4llvm2cl19generic_parser_base19getExtraOptionNamesERNS_15SmallVectorImplINS_9StringRefEEE",
   "parameters" :
   [
    {
     "is_this_ptr" : true,
     "referenced_type" : "_ZTIPN4llvm2cl19generic_parser_baseE"
    },
    {
     "referenced_type" : "_ZTIRN4llvm15SmallVectorImplINS_9StringRefEEE"
    }
   ],
   "return_type" : "_ZTIv",
   "source_file" : "external/llvm/include/llvm/Support/CommandLine.h"
  },
  {
   "function_name" : "llvm::cl::generic_parser_base::generic_parser_base",
   "linker_set_key" : "_ZN4llvm2cl19generic_parser_baseC2ERNS0_6OptionE",
   "parameters" :
   [
    {
     "is_this_ptr" : true,
     "referenced_type" : "_ZTIPN4llvm2cl19generic_parser_baseE"
    },
    {
     "referenced_type" : "_ZTIRN4llvm2cl6OptionE"
    }
   ],
   "return_type" : "_ZTIv",
   "source_file" : "external/llvm/include/llvm/Support/CommandLine.h"
  },
  {
   "function_name" : "llvm::cl::generic_parser_base::~generic_parser_base",
   "linker_set_key" : "_ZN4llvm2cl19generic_parser_baseD0Ev",
   "parameters" :
   [
    {
     "is_this_ptr" : true,
     "referenced_type" : "_ZTIPN4llvm2cl19generic_parser_baseE"
    }
   ],
   "return_type" : "_ZTIv",
   "source_file" : "external/llvm/include/llvm/Support/CommandLine.h"
  },
  {
   "function_name" : "llvm::cl::generic_parser_base::~generic_parser_base",
   "linker_set_key" : "_ZN4llvm2cl19generic_parser_baseD1Ev",
   "parameters" :
   [
    {
     "is_this_ptr" : true,
     "referenced_type" : "_ZTIPN4llvm2cl19generic_parser_baseE"
    }
   ],
   "return_type" : "_ZTIv",
   "source_file" : "external/llvm/include/llvm/Support/CommandLine.h"
  },
  {
   "function_name" : "llvm::cl::generic_parser_base::~generic_parser_base",
   "linker_set_key" : "_ZN4llvm2cl19generic_parser_baseD2Ev",
   "parameters" :
   [
    {
     "is_this_ptr" : true,
     "referenced_type" : "_ZTIPN4llvm2cl19generic_parser_baseE"
    }
   ],
   "return_type" : "_ZTIv",
   "source_file" : "external/llvm/include/llvm/Support/CommandLine.h"
  },
  {
   "function_name" : "llvm::cl::cat::cat",
   "linker_set_key" : "_ZN4llvm2cl3catC1ERNS0_14OptionCategoryE",
   "parameters" :
   [
    {
     "is_this_ptr" : true,
     "referenced_type" : "_ZTIPN4llvm2cl3catE"
    },
    {
     "referenced_type" : "_ZTIRN4llvm2cl14OptionCategoryE"
    }
   ],
   "return_type" : "_ZTIv",
   "source_file" : "external/llvm/include/llvm/Support/CommandLine.h"
  },
  {
   "function_name" : "llvm::cl::cat::cat",
   "linker_set_key" : "_ZN4llvm2cl3catC2ERNS0_14OptionCategoryE",
   "parameters" :
   [
    {
     "is_this_ptr" : true,
     "referenced_type" : "_ZTIPN4llvm2cl3catE"
    },
    {
     "referenced_type" : "_ZTIRN4llvm2cl14OptionCategoryE"
    }
   ],
   "return_type" : "_ZTIv",
   "source_file" : "external/llvm/include/llvm/Support/CommandLine.h"
  },
  {
   "function_name" : "llvm::cl::sub::sub",
   "linker_set_key" : "_ZN4llvm2cl3subC1ERNS0_10SubCommandE",
   "parameters" :
   [
    {
     "is_this_ptr" : true,
     "referenced_type" : "_ZTIPN4llvm2cl3subE"
    },
    {
     "referenced_type" : "_ZTIRN4llvm2cl10SubCommandE"
    }
   ],
   "return_type" : "_ZTIv",
   "source_file" : "external/llvm/include/llvm/Support/CommandLine.h"
  },
  {
   "function_name" : "llvm::cl::sub::sub",
   "linker_set_key" : "_ZN4llvm2cl3subC2ERNS0_10SubCommandE",
   "parameters" :
   [
    {
     "is_this_ptr" : true,
     "referenced_type" : "_ZTIPN4llvm2cl3subE"
    },
    {
     "referenced_type" : "_ZTIRN4llvm2cl10SubCommandE"
    }
   ],
   "return_type" : "_ZTIv",
   "source_file" : "external/llvm/include/llvm/Support/CommandLine.h"
  },
  {
   "function_name" : "llvm::cl::desc::desc",
   "linker_set_key" : "_ZN4llvm2cl4descC1EPKc",
   "parameters" :
   [
    {
     "is_this_ptr" : true,
     "referenced_type" : "_ZTIPN4llvm2cl4descE"
    },
    {
     "referenced_type" : "_ZTIPKc"
    }
   ],
   "return_type" : "_ZTIv",
   "source_file" : "external/llvm/include/llvm/Support/CommandLine.h"
  },
  {
   "function_name" : "llvm::cl::desc::desc",
   "linker_set_key" : "_ZN4llvm2cl4descC2EPKc",
   "parameters" :
   [
    {
     "is_this_ptr" : true,
     "referenced_type" : "_ZTIPN4llvm2cl4descE"
    },
    {
     "referenced_type" : "_ZTIPKc"
    }
   ],
   "return_type" : "_ZTIv",
   "source_file" : "external/llvm/include/llvm/Support/CommandLine.h"
  },
  {
   "function_name" : "llvm::cl::alias::setAliasFor",
   "linker_set_key" : "_ZN4llvm2cl5alias11setAliasForERNS0_6OptionE",
   "parameters" :
   [
    {
     "is_this_ptr" : true,
     "referenced_type" : "_ZTIPN4llvm2cl5aliasE"
    },
    {
     "referenced_type" : "_ZTIRN4llvm2cl6OptionE"
    }
   ],
   "return_type" : "_ZTIv",
   "source_file" : "external/llvm/include/llvm/Support/CommandLine.h"
  },
  {
   "access" : "private",
   "function_name" : "llvm::cl::alias::addOccurrence",
   "linker_set_key" : "_ZN4llvm2cl5alias13addOccurrenceEjNS_9StringRefES2_b",
   "parameters" :
   [
    {
     "is_this_ptr" : true,
     "referenced_type" : "_ZTIPN4llvm2cl5aliasE"
    },
    {
     "referenced_type" : "_ZTIj"
    },
    {
     "referenced_type" : "_ZTIN4llvm9StringRefE"
    },
    {
     "referenced_type" : "_ZTIN4llvm9StringRefE"
    },
    {
     "default_arg" : true,
     "referenced_type" : "_ZTIb"
    }
   ],
   "return_type" : "_ZTIb",
   "source_file" : "external/llvm/include/llvm/Support/CommandLine.h"
  },
  {
   "access" : "private",
   "function_name" : "llvm::cl::alias::handleOccurrence",
   "linker_set_key" : "_ZN4llvm2cl5alias16handleOccurrenceEjNS_9StringRefES2_",
   "parameters" :
   [
    {
     "is_this_ptr" : true,
     "referenced_type" : "_ZTIPN4llvm2cl5aliasE"
    },
    {
     "referenced_type" : "_ZTIj"
    },
    {
     "referenced_type" : "_ZTIN4llvm9StringRefE"
    },
    {
     "referenced_type" : "_ZTIN4llvm9StringRefE"
    }
   ],
   "return_type" : "_ZTIb",
   "source_file" : "external/llvm/include/llvm/Support/CommandLine.h"
  },
  {
   "access" : "private",
   "function_name" : "llvm::cl::alias::done",
   "linker_set_key" : "_ZN4llvm2cl5alias4doneEv",
   "parameters" :
   [
    {
     "is_this_ptr" : true,
     "referenced_type" : "_ZTIPN4llvm2cl5aliasE"
    }
   ],
   "return_type" : "_ZTIv",
   "source_file" : "external/llvm/include/llvm/Support/CommandLine.h"
  },
  {
   "function_name" : "llvm::cl::Option::setCategory",
   "linker_set_key" : "_ZN4llvm2cl6Option11setCategoryERNS0_14OptionCategoryE",
   "parameters" :
   [
    {
     "is_this_ptr" : true,
     "referenced_type" : "_ZTIPN4llvm2cl6OptionE"
    },
    {
     "referenced_type" : "_ZTIRN4llvm2cl14OptionCategoryE"
    }
   ],
   "return_type" : "_ZTIv",
   "source_file" : "external/llvm/include/llvm/Support/CommandLine.h"
  },
  {
   "function_name" : "llvm::cl::Option::setMiscFlag",
   "linker_set_key" : "_ZN4llvm2cl6Option11setMiscFlagENS0_9MiscFlagsE",
   "parameters" :
   [
    {
     "is_this_ptr" : true,
     "referenced_type" : "_ZTIPN4llvm2cl6OptionE"
    },
    {
     "referenced_type" : "_ZTIN4llvm2cl9MiscFlagsE"
    }
   ],
   "return_type" : "_ZTIv",
   "source_file" : "external/llvm/include/llvm/Support/CommandLine.h"
  },
  {
   "function_name" : "llvm::cl::Option::setPosition",
   "linker_set_key" : "_ZN4llvm2cl6Option11setPositionEj",
   "parameters" :
   [
    {
     "is_this_ptr" : true,
     "referenced_type" : "_ZTIPN4llvm2cl6OptionE"
    },
    {
     "referenced_type" : "_ZTIj"
    }
   ],
   "return_type" : "_ZTIv",
   "source_file" : "external/llvm/include/llvm/Support/CommandLine.h"
  },
  {
   "function_name" : "llvm::cl::Option::setValueStr",
   "linker_set_key" : "_ZN4llvm2cl6Option11setValueStrENS_9StringRefE",
   "parameters" :
   [
    {
     "is_this_ptr" : true,
     "referenced_type" : "_ZTIPN4llvm2cl6OptionE"
    },
    {
     "referenced_type" : "_ZTIN4llvm9StringRefE"
    }
   ],
   "return_type" : "_ZTIv",
   "source_file" : "external/llvm/include/llvm/Support/CommandLine.h"
  },
  {
   "function_name" : "llvm::cl::Option::addSubCommand",
   "linker_set_key" : "_ZN4llvm2cl6Option13addSubCommandERNS0_10SubCommandE",
   "parameters" :
   [
    {
     "is_this_ptr" : true,
     "referenced_type" : "_ZTIPN4llvm2cl6OptionE"
    },
    {
     "referenced_type" : "_ZTIRN4llvm2cl10SubCommandE"
    }
   ],
   "return_type" : "_ZTIv",
   "source_file" : "external/llvm/include/llvm/Support/CommandLine.h"
  },
  {
   "function_name" : "llvm::cl::Option::setHiddenFlag",
   "linker_set_key" : "_ZN4llvm2cl6Option13setHiddenFlagENS0_12OptionHiddenE",
   "parameters" :
   [
    {
     "is_this_ptr" : true,
     "referenced_type" : "_ZTIPN4llvm2cl6OptionE"
    },
    {
     "referenced_type" : "_ZTIN4llvm2cl12OptionHiddenE"
    }
   ],
   "return_type" : "_ZTIv",
   "source_file" : "external/llvm/include/llvm/Support/CommandLine.h"
  },
  {
   "function_name" : "llvm::cl::Option::setDescription",
   "linker_set_key" : "_ZN4llvm2cl6Option14setDescriptionENS_9StringRefE",
   "parameters" :
   [
    {
     "is_this_ptr" : true,
     "referenced_type" : "_ZTIPN4llvm2cl6OptionE"
    },
    {
     "referenced_type" : "_ZTIN4llvm9StringRefE"
    }
   ],
   "return_type" : "_ZTIv",
   "source_file" : "external/llvm/include/llvm/Support/CommandLine.h"
  },
  {
   "function_name" : "llvm::cl::Option::setFormattingFlag",
   "linker_set_key" : "_ZN4llvm2cl6Option17setFormattingFlagENS0_15FormattingFlagsE",
   "parameters" :
   [
    {
     "is_this_ptr" : true,
     "referenced_type" : "_ZTIPN4llvm2cl6OptionE"
    },
    {
     "referenced_type" : "_ZTIN4llvm2cl15FormattingFlagsE"
    }
   ],
   "return_type" : "_ZTIv",
   "source_file" : "external/llvm/include/llvm/Support/CommandLine.h"
  },
  {
   "function_name" : "llvm::cl::Option::getExtraOptionNames",
   "linker_set_key" : "_ZN4llvm2cl6Option19getExtraOptionNamesERNS_15SmallVectorImplINS_9StringRefEEE",
   "parameters" :
   [
    {
     "is_this_ptr" : true,
     "referenced_type" : "_ZTIPN4llvm2cl6OptionE"
    },
    {
     "referenced_type" : "_ZTIRN4llvm15SmallVectorImplINS_9StringRefEEE"
    }
   ],
   "return_type" : "_ZTIv",
   "source_file" : "external/llvm/include/llvm/Support/CommandLine.h"
  },
  {
   "access" : "protected",
   "function_name" : "llvm::cl::Option::setNumAdditionalVals",
   "linker_set_key" : "_ZN4llvm2cl6Option20setNumAdditionalValsEj",
   "parameters" :
   [
    {
     "is_this_ptr" : true,
     "referenced_type" : "_ZTIPN4llvm2cl6OptionE"
    },
    {
     "referenced_type" : "_ZTIj"
    }
   ],
   "return_type" : "_ZTIv",
   "source_file" : "external/llvm/include/llvm/Support/CommandLine.h"
  },
  {
   "function_name" : "llvm::cl::Option::setValueExpectedFlag",
   "linker_set_key" : "_ZN4llvm2cl6Option20setValueExpectedFlagENS0_13ValueExpectedE",
   "parameters" :
   [
    {
     "is_this_ptr" : true,
     "referenced_type" : "_ZTIPN4llvm2cl6OptionE"
    },
    {
     "referenced_type" : "_ZTIN4llvm2cl13ValueExpectedE"
    }
   ],
   "return_type" : "_ZTIv",
   "source_file" : "external/llvm/include/llvm/Support/CommandLine.h"
  },
  {
   "function_name" : "llvm::cl::Option::setNumOccurrencesFlag",
   "linker_set_key" : "_ZN4llvm2cl6Option21setNumOccurrencesFlagENS0_18NumOccurrencesFlagE",
   "parameters" :
   [
    {
     "is_this_ptr" : true,
     "referenced_type" : "_ZTIPN4llvm2cl6OptionE"
    },
    {
     "referenced_type" : "_ZTIN4llvm2cl18NumOccurrencesFlagE"
    }
   ],
   "return_type" : "_ZTIv",
   "source_file" : "external/llvm/include/llvm/Support/CommandLine.h"
  },
  {
   "function_name" : "llvm::cl::Option::reset",
   "linker_set_key" : "_ZN4llvm2cl6Option5resetEv",
   "parameters" :
   [
    {
     "is_this_ptr" : true,
     "referenced_type" : "_ZTIPN4llvm2cl6OptionE"
    }
   ],
   "return_type" : "_ZTIv",
   "source_file" : "external/llvm/include/llvm/Support/CommandLine.h"
  },
  {
   "access" : "protected",
   "function_name" : "llvm::cl::Option::Option",
   "linker_set_key" : "_ZN4llvm2cl6OptionC2ENS0_18NumOccurrencesFlagENS0_12OptionHiddenE",
   "parameters" :
   [
    {
     "is_this_ptr" : true,
     "referenced_type" : "_ZTIPN4llvm2cl6OptionE"
    },
    {
     "referenced_type" : "_ZTIN4llvm2cl18NumOccurrencesFlagE"
    },
    {
     "referenced_type" : "_ZTIN4llvm2cl12OptionHiddenE"
    }
   ],
   "return_type" : "_ZTIv",
   "source_file" : "external/llvm/include/llvm/Support/CommandLine.h"
  },
  {
   "function_name" : "llvm::cl::Option::~Option",
   "linker_set_key" : "_ZN4llvm2cl6OptionD0Ev",
   "parameters" :
   [
    {
     "is_this_ptr" : true,
     "referenced_type" : "_ZTIPN4llvm2cl6OptionE"
    }
   ],
   "return_type" : "_ZTIv",
   "source_file" : "external/llvm/include/llvm/Support/CommandLine.h"
  },
  {
   "function_name" : "llvm::cl::Option::~Option",
   "linker_set_key" : "_ZN4llvm2cl6OptionD1Ev",
   "parameters" :
   [
    {
     "is_this_ptr" : true,
     "referenced_type" : "_ZTIPN4llvm2cl6OptionE"
    }
   ],
   "return_type" : "_ZTIv",
   "source_file" : "external/llvm/include/llvm/Support/CommandLine.h"
  },
  {
   "function_name" : "llvm::cl::Option::~Option",
   "linker_set_key" : "_ZN4llvm2cl6OptionD2Ev",
   "parameters" :
   [
    {
     "is_this_ptr" : true,
     "referenced_type" : "_ZTIPN4llvm2cl6OptionE"
    }
   ],
   "return_type" : "_ZTIv",
   "source_file" : "external/llvm/include/llvm/Support/CommandLine.h"
  },
  {
   "function_name" : "llvm::cl::parser<llvm::cl::boolOrDefault>::parser",
   "linker_set_key" : "_ZN4llvm2cl6parserINS0_13boolOrDefaultEEC1ERNS0_6OptionE",
   "parameters" :
   [
    {
     "is_this_ptr" : true,
     "referenced_type" : "_ZTIPN4llvm2cl6parserINS0_13boolOrDefaultEEE"
    },
    {
     "referenced_type" : "_ZTIRN4llvm2cl6OptionE"
    }
   ],
   "return_type" : "_ZTIv",
   "source_file" : "external/llvm/include/llvm/Support/CommandLine.h"
  },
  {
   "function_name" : "llvm::cl::parser<llvm::cl::boolOrDefault>::parser",
   "linker_set_key" : "_ZN4llvm2cl6parserINS0_13boolOrDefaultEEC2ERNS0_6OptionE",
   "parameters" :
   [
    {
     "is_this_ptr" : true,
     "referenced_type" : "_ZTIPN4llvm2cl6parserINS0_13boolOrDefaultEEE"
    },
    {
     "referenced_type" : "_ZTIRN4llvm2cl6OptionE"
    }
   ],
   "return_type" : "_ZTIv",
   "source_file" : "external/llvm/include/llvm/Support/CommandLine.h"
  },
  {
   "function_name" : "llvm::cl::parser<std::__1::basic_string<char>>::parse",
   "linker_set_key" : "_ZN4llvm2cl6parserINSt3__112basic_stringIcNS2_11char_traitsIcEENS2_9allocatorIcEEEEE5parseERNS0_6OptionENS_9StringRefESC_RS8_",
   "parameters" :
   [
    {
     "is_this_ptr" : true,
     "referenced_type" : "_ZTIPN4llvm2cl6parserINSt3__112basic_stringIcNS2_11char_traitsIcEENS2_9allocatorIcEEEEEE"
    },
    {
     "referenced_type" : "_ZTIRN4llvm2cl6OptionE"
    },
    {
     "referenced_type" : "_ZTIN4llvm9StringRefE"
    },
    {
     "referenced_type" : "_ZTIN4llvm9StringRefE"
    },
    {
     "referenced_type" : "_ZTIRNSt3__112basic_stringIcNS_11char_traitsIcEENS_9allocatorIcEEEE"
    }
   ],
   "return_type" : "_ZTIb",
   "source_file" : "external/llvm/include/llvm/Support/CommandLine.h"
  },
  {
   "function_name" : "llvm::cl::parser<std::__1::basic_string<char>>::parser",
   "linker_set_key" : "_ZN4llvm2cl6parserINSt3__112basic_stringIcNS2_11char_traitsIcEENS2_9allocatorIcEEEEEC1ERNS0_6OptionE",
   "parameters" :
   [
    {
     "is_this_ptr" : true,
     "referenced_type" : "_ZTIPN4llvm2cl6parserINSt3__112basic_stringIcNS2_11char_traitsIcEENS2_9allocatorIcEEEEEE"
    },
    {
     "referenced_type" : "_ZTIRN4llvm2cl6OptionE"
    }
   ],
   "return_type" : "_ZTIv",
   "source_file" : "external/llvm/include/llvm/Support/CommandLine.h"
  },
  {
   "function_name" : "llvm::cl::parser<std::__1::basic_string<char>>::parser",
   "linker_set_key" : "_ZN4llvm2cl6parserINSt3__112basic_stringIcNS2_11char_traitsIcEENS2_9allocatorIcEEEEEC2ERNS0_6OptionE",
   "parameters" :
   [
    {
     "is_this_ptr" : true,
     "referenced_type" : "_ZTIPN4llvm2cl6parserINSt3__112basic_stringIcNS2_11char_traitsIcEENS2_9allocatorIcEEEEEE"
    },
    {
     "referenced_type" : "_ZTIRN4llvm2cl6OptionE"
    }
   ],
   "return_type" : "_ZTIv",
   "source_file" : "external/llvm/include/llvm/Support/CommandLine.h"
  },
  {
   "function_name" : "llvm::cl::parser<bool>::initialize",
   "linker_set_key" : "_ZN4llvm2cl6parserIbE10initializeEv",
   "parameters" :
   [
    {
     "is_this_ptr" : true,
     "referenced_type" : "_ZTIPN4llvm2cl6parserIbEE"
    }
   ],
   "return_type" : "_ZTIv",
   "source_file" : "external/llvm/include/llvm/Support/CommandLine.h"
  },
  {
   "function_name" : "llvm::cl::parser<bool>::parser",
   "linker_set_key" : "_ZN4llvm2cl6parserIbEC1ERNS0_6OptionE",
   "parameters" :
   [
    {
     "is_this_ptr" : true,
     "referenced_type" : "_ZTIPN4llvm2cl6parserIbEE"
    },
    {
     "referenced_type" : "_ZTIRN4llvm2cl6OptionE"
    }
   ],
   "return_type" : "_ZTIv",
   "source_file" : "external/llvm/include/llvm/Support/CommandLine.h"
  },
  {
   "function_name" : "llvm::cl::parser<bool>::parser",
   "linker_set_key" : "_ZN4llvm2cl6parserIbEC2ERNS0_6OptionE",
   "parameters" :
   [
    {
     "is_this_ptr" : true,
     "referenced_type" : "_ZTIPN4llvm2cl6parserIbEE"
    },
    {
     "referenced_type" : "_ZTIRN4llvm2cl6OptionE"
    }
   ],
   "return_type" : "_ZTIv",
   "source_file" : "external/llvm/include/llvm/Support/CommandLine.h"
  },
  {
   "function_name" : "llvm::cl::parser<char>::parse",
   "linker_set_key" : "_ZN4llvm2cl6parserIcE5parseERNS0_6OptionENS_9StringRefES5_Rc",
   "parameters" :
   [
    {
     "is_this_ptr" : true,
     "referenced_type" : "_ZTIPN4llvm2cl6parserIcEE"
    },
    {
     "referenced_type" : "_ZTIRN4llvm2cl6OptionE"
    },
    {
     "referenced_type" : "_ZTIN4llvm9StringRefE"
    },
    {
     "referenced_type" : "_ZTIN4llvm9StringRefE"
    },
    {
     "referenced_type" : "_ZTIRc"
    }
   ],
   "return_type" : "_ZTIb",
   "source_file" : "external/llvm/include/llvm/Support/CommandLine.h"
  },
  {
   "function_name" : "llvm::cl::parser<char>::parser",
   "linker_set_key" : "_ZN4llvm2cl6parserIcEC1ERNS0_6OptionE",
   "parameters" :
   [
    {
     "is_this_ptr" : true,
     "referenced_type" : "_ZTIPN4llvm2cl6parserIcEE"
    },
    {
     "referenced_type" : "_ZTIRN4llvm2cl6OptionE"
    }
   ],
   "return_type" : "_ZTIv",
   "source_file" : "external/llvm/include/llvm/Support/CommandLine.h"
  },
  {
   "function_name" : "llvm::cl::parser<char>::parser",
   "linker_set_key" : "_ZN4llvm2cl6parserIcEC2ERNS0_6OptionE",
   "parameters" :
   [
    {
     "is_this_ptr" : true,
     "referenced_type" : "_ZTIPN4llvm2cl6parserIcEE"
    },
    {
     "referenced_type" : "_ZTIRN4llvm2cl6OptionE"
    }
   ],
   "return_type" : "_ZTIv",
   "source_file" : "external/llvm/include/llvm/Support/CommandLine.h"
  },
  {
   "function_name" : "llvm::cl::parser<double>::parser",
   "linker_set_key" : "_ZN4llvm2cl6parserIdEC1ERNS0_6OptionE",
   "parameters" :
   [
    {
     "is_this_ptr" : true,
     "referenced_type" : "_ZTIPN4llvm2cl6parserIdEE"
    },
    {
     "referenced_type" : "_ZTIRN4llvm2cl6OptionE"
    }
   ],
   "return_type" : "_ZTIv",
   "source_file" : "external/llvm/include/llvm/Support/CommandLine.h"
  },
  {
   "function_name" : "llvm::cl::parser<double>::parser",
   "linker_set_key" : "_ZN4llvm2cl6parserIdEC2ERNS0_6OptionE",
   "parameters" :
   [
    {
     "is_this_ptr" : true,
     "referenced_type" : "_ZTIPN4llvm2cl6parserIdEE"
    },
    {
     "referenced_type" : "_ZTIRN4llvm2cl6OptionE"
    }
   ],
   "return_type" : "_ZTIv",
   "source_file" : "external/llvm/include/llvm/Support/CommandLine.h"
  },
  {
   "function_name" : "llvm::cl::parser<float>::parser",
   "linker_set_key" : "_ZN4llvm2cl6parserIfEC1ERNS0_6OptionE",
   "parameters" :
   [
    {
     "is_this_ptr" : true,
     "referenced_type" : "_ZTIPN4llvm2cl6parserIfEE"
    },
    {
     "referenced_type" : "_ZTIRN4llvm2cl6OptionE"
    }
   ],
   "return_type" : "_ZTIv",
   "source_file" : "external/llvm/include/llvm/Support/CommandLine.h"
  },
  {
   "function_name" : "llvm::cl::parser<float>::parser",
   "linker_set_key" : "_ZN4llvm2cl6parserIfEC2ERNS0_6OptionE",
   "parameters" :
   [
    {
     "is_this_ptr" : true,
     "referenced_type" : "_ZTIPN4llvm2cl6parserIfEE"
    },
    {
     "referenced_type" : "_ZTIRN4llvm2cl6OptionE"
    }
   ],
   "return_type" : "_ZTIv",
   "source_file" : "external/llvm/include/llvm/Support/CommandLine.h"
  },
  {
   "function_name" : "llvm::cl::parser<int>::parser",
   "linker_set_key" : "_ZN4llvm2cl6parserIiEC1ERNS0_6OptionE",
   "parameters" :
   [
    {
     "is_this_ptr" : true,
     "referenced_type" : "_ZTIPN4llvm2cl6parserIiEE"
    },
    {
     "referenced_type" : "_ZTIRN4llvm2cl6OptionE"
    }
   ],
   "return_type" : "_ZTIv",
   "source_file" : "external/llvm/include/llvm/Support/CommandLine.h"
  },
  {
   "function_name" : "llvm::cl::parser<int>::parser",
   "linker_set_key" : "_ZN4llvm2cl6parserIiEC2ERNS0_6OptionE",
   "parameters" :
   [
    {
     "is_this_ptr" : true,
     "referenced_type" : "_ZTIPN4llvm2cl6parserIiEE"
    },
    {
     "referenced_type" : "_ZTIRN4llvm2cl6OptionE"
    }
   ],
   "return_type" : "_ZTIv",
   "source_file" : "external/llvm/include/llvm/Support/CommandLine.h"
  },
  {
   "function_name" : "llvm::cl::parser<unsigned int>::parser",
   "linker_set_key" : "_ZN4llvm2cl6parserIjEC1ERNS0_6OptionE",
   "parameters" :
   [
    {
     "is_this_ptr" : true,
     "referenced_type" : "_ZTIPN4llvm2cl6parserIjEE"
    },
    {
     "referenced_type" : "_ZTIRN4llvm2cl6OptionE"
    }
   ],
   "return_type" : "_ZTIv",
   "source_file" : "external/llvm/include/llvm/Support/CommandLine.h"
  },
  {
   "function_name" : "llvm::cl::parser<unsigned int>::parser",
   "linker_set_key" : "_ZN4llvm2cl6parserIjEC2ERNS0_6OptionE",
   "parameters" :
   [
    {
     "is_this_ptr" : true,
     "referenced_type" : "_ZTIPN4llvm2cl6parserIjEE"
    },
    {
     "referenced_type" : "_ZTIRN4llvm2cl6OptionE"
    }
   ],
   "return_type" : "_ZTIv",
   "source_file" : "external/llvm/include/llvm/Support/CommandLine.h"
  },
  {
   "function_name" : "llvm::cl::parser<unsigned long long>::parser",
   "linker_set_key" : "_ZN4llvm2cl6parserIyEC1ERNS0_6OptionE",
   "parameters" :
   [
    {
     "is_this_ptr" : true,
     "referenced_type" : "_ZTIPN4llvm2cl6parserIyEE"
    },
    {
     "referenced_type" : "_ZTIRN4llvm2cl6OptionE"
    }
   ],
   "return_type" : "_ZTIv",
   "source_file" : "external/llvm/include/llvm/Support/CommandLine.h"
  },
  {
   "function_name" : "llvm::cl::parser<unsigned long long>::parser",
   "linker_set_key" : "_ZN4llvm2cl6parserIyEC2ERNS0_6OptionE",
   "parameters" :
   [
    {
     "is_this_ptr" : true,
     "referenced_type" : "_ZTIPN4llvm2cl6parserIyEE"
    },
    {
     "referenced_type" : "_ZTIRN4llvm2cl6OptionE"
    }
   ],
   "return_type" : "_ZTIv",
   "source_file" : "external/llvm/include/llvm/Support/CommandLine.h"
  },
  {
   "function_name" : "llvm::cl::aliasopt::aliasopt",
   "linker_set_key" : "_ZN4llvm2cl8aliasoptC1ERNS0_6OptionE",
   "parameters" :
   [
    {
     "is_this_ptr" : true,
     "referenced_type" : "_ZTIPN4llvm2cl8aliasoptE"
    },
    {
     "referenced_type" : "_ZTIRN4llvm2cl6OptionE"
    }
   ],
   "return_type" : "_ZTIv",
   "source_file" : "external/llvm/include/llvm/Support/CommandLine.h"
  },
  {
   "function_name" : "llvm::cl::aliasopt::aliasopt",
   "linker_set_key" : "_ZN4llvm2cl8aliasoptC2ERNS0_6OptionE",
   "parameters" :
   [
    {
     "is_this_ptr" : true,
     "referenced_type" : "_ZTIPN4llvm2cl8aliasoptE"
    },
    {
     "referenced_type" : "_ZTIRN4llvm2cl6OptionE"
    }
   ],
   "return_type" : "_ZTIv",
   "source_file" : "external/llvm/include/llvm/Support/CommandLine.h"
  },
  {
   "function_name" : "llvm::cl::multi_val::multi_val",
   "linker_set_key" : "_ZN4llvm2cl9multi_valC1Ej",
   "parameters" :
   [
    {
     "is_this_ptr" : true,
     "referenced_type" : "_ZTIPN4llvm2cl9multi_valE"
    },
    {
     "referenced_type" : "_ZTIj"
    }
   ],
   "return_type" : "_ZTIv",
   "source_file" : "external/llvm/include/llvm/Support/CommandLine.h"
  },
  {
   "function_name" : "llvm::cl::multi_val::multi_val",
   "linker_set_key" : "_ZN4llvm2cl9multi_valC2Ej",
   "parameters" :
   [
    {
     "is_this_ptr" : true,
     "referenced_type" : "_ZTIPN4llvm2cl9multi_valE"
    },
    {
     "referenced_type" : "_ZTIj"
    }
   ],
   "return_type" : "_ZTIv",
   "source_file" : "external/llvm/include/llvm/Support/CommandLine.h"
  },
  {
   "function_name" : "llvm::EVT::getVectorVT",
   "linker_set_key" : "_ZN4llvm3EVT11getVectorVTERNS_11LLVMContextES0_j",
   "parameters" :
   [
    {
     "referenced_type" : "_ZTIRN4llvm11LLVMContextE"
    },
    {
     "referenced_type" : "_ZTIN4llvm3EVTE"
    },
    {
     "referenced_type" : "_ZTIj"
    }
   ],
   "return_type" : "_ZTIN4llvm3EVTE",
   "source_file" : "external/llvm/include/llvm/CodeGen/ValueTypes.h"
  },
  {
   "function_name" : "llvm::EVT::getIntegerVT",
   "linker_set_key" : "_ZN4llvm3EVT12getIntegerVTERNS_11LLVMContextEj",
   "parameters" :
   [
    {
     "referenced_type" : "_ZTIRN4llvm11LLVMContextE"
    },
    {
     "referenced_type" : "_ZTIj"
    }
   ],
   "return_type" : "_ZTIN4llvm3EVTE",
   "source_file" : "external/llvm/include/llvm/CodeGen/ValueTypes.h"
  },
  {
   "function_name" : "llvm::EVT::getFloatingPointVT",
   "linker_set_key" : "_ZN4llvm3EVT18getFloatingPointVTEj",
   "parameters" :
   [
    {
     "referenced_type" : "_ZTIj"
    }
   ],
   "return_type" : "_ZTIN4llvm3EVTE",
   "source_file" : "external/llvm/include/llvm/CodeGen/ValueTypes.h"
  },
  {
   "function_name" : "llvm::EVT::changeTypeToInteger",
   "linker_set_key" : "_ZN4llvm3EVT19changeTypeToIntegerEv",
   "parameters" :
   [
    {
     "is_this_ptr" : true,
     "referenced_type" : "_ZTIPN4llvm3EVTE"
    }
   ],
   "return_type" : "_ZTIN4llvm3EVTE",
   "source_file" : "external/llvm/include/llvm/CodeGen/ValueTypes.h"
  },
  {
   "access" : "private",
   "function_name" : "llvm::EVT::getExtendedVectorVT",
   "linker_set_key" : "_ZN4llvm3EVT19getExtendedVectorVTERNS_11LLVMContextES0_j",
   "parameters" :
   [
    {
     "referenced_type" : "_ZTIRN4llvm11LLVMContextE"
    },
    {
     "referenced_type" : "_ZTIN4llvm3EVTE"
    },
    {
     "referenced_type" : "_ZTIj"
    }
   ],
   "return_type" : "_ZTIN4llvm3EVTE",
   "source_file" : "external/llvm/include/llvm/CodeGen/ValueTypes.h"
  },
  {
   "access" : "private",
   "function_name" : "llvm::EVT::getExtendedIntegerVT",
   "linker_set_key" : "_ZN4llvm3EVT20getExtendedIntegerVTERNS_11LLVMContextEj",
   "parameters" :
   [
    {
     "referenced_type" : "_ZTIRN4llvm11LLVMContextE"
    },
    {
     "referenced_type" : "_ZTIj"
    }
   ],
   "return_type" : "_ZTIN4llvm3EVTE",
   "source_file" : "external/llvm/include/llvm/CodeGen/ValueTypes.h"
  },
  {
   "function_name" : "llvm::EVT::getEVT",
   "linker_set_key" : "_ZN4llvm3EVT6getEVTEPNS_4TypeEb",
   "parameters" :
   [
    {
     "referenced_type" : "_ZTIPN4llvm4TypeE"
    },
    {
     "default_arg" : true,
     "referenced_type" : "_ZTIb"
    }
   ],
   "return_type" : "_ZTIN4llvm3EVTE",
   "source_file" : "external/llvm/include/llvm/CodeGen/ValueTypes.h"
  },
  {
   "function_name" : "llvm::EVT::EVT",
   "linker_set_key" : "_ZN4llvm3EVTC1ENS_3MVT15SimpleValueTypeE",
   "parameters" :
   [
    {
     "is_this_ptr" : true,
     "referenced_type" : "_ZTIPN4llvm3EVTE"
    },
    {
     "referenced_type" : "_ZTIN4llvm3MVT15SimpleValueTypeE"
    }
   ],
   "return_type" : "_ZTIv",
   "source_file" : "external/llvm/include/llvm/CodeGen/ValueTypes.h"
  },
  {
   "function_name" : "llvm::EVT::EVT",
   "linker_set_key" : "_ZN4llvm3EVTC1ENS_3MVTE",
   "parameters" :
   [
    {
     "is_this_ptr" : true,
     "referenced_type" : "_ZTIPN4llvm3EVTE"
    },
    {
     "referenced_type" : "_ZTIN4llvm3MVTE"
    }
   ],
   "return_type" : "_ZTIv",
   "source_file" : "external/llvm/include/llvm/CodeGen/ValueTypes.h"
  },
  {
   "function_name" : "llvm::EVT::EVT",
   "linker_set_key" : "_ZN4llvm3EVTC1Ev",
   "parameters" :
   [
    {
     "is_this_ptr" : true,
     "referenced_type" : "_ZTIPN4llvm3EVTE"
    }
   ],
   "return_type" : "_ZTIv",
   "source_file" : "external/llvm/include/llvm/CodeGen/ValueTypes.h"
  },
  {
   "function_name" : "llvm::EVT::EVT",
   "linker_set_key" : "_ZN4llvm3EVTC2ENS_3MVT15SimpleValueTypeE",
   "parameters" :
   [
    {
     "is_this_ptr" : true,
     "referenced_type" : "_ZTIPN4llvm3EVTE"
    },
    {
     "referenced_type" : "_ZTIN4llvm3MVT15SimpleValueTypeE"
    }
   ],
   "return_type" : "_ZTIv",
   "source_file" : "external/llvm/include/llvm/CodeGen/ValueTypes.h"
  },
  {
   "function_name" : "llvm::EVT::EVT",
   "linker_set_key" : "_ZN4llvm3EVTC2ENS_3MVTE",
   "parameters" :
   [
    {
     "is_this_ptr" : true,
     "referenced_type" : "_ZTIPN4llvm3EVTE"
    },
    {
     "referenced_type" : "_ZTIN4llvm3MVTE"
    }
   ],
   "return_type" : "_ZTIv",
   "source_file" : "external/llvm/include/llvm/CodeGen/ValueTypes.h"
  },
  {
   "function_name" : "llvm::EVT::EVT",
   "linker_set_key" : "_ZN4llvm3EVTC2Ev",
   "parameters" :
   [
    {
     "is_this_ptr" : true,
     "referenced_type" : "_ZTIPN4llvm3EVTE"
    }
   ],
   "return_type" : "_ZTIv",
   "source_file" : "external/llvm/include/llvm/CodeGen/ValueTypes.h"
  },
  {
   "function_name" : "llvm::MVT::getVectorVT",
   "linker_set_key" : "_ZN4llvm3MVT11getVectorVTES0_j",
   "parameters" :
   [
    {
     "referenced_type" : "_ZTIN4llvm3MVTE"
    },
    {
     "referenced_type" : "_ZTIj"
    }
   ],
   "return_type" : "_ZTIN4llvm3MVTE",
   "source_file" : "external/llvm/include/llvm/CodeGen/MachineValueType.h"
  },
  {
   "function_name" : "llvm::MVT::getIntegerVT",
   "linker_set_key" : "_ZN4llvm3MVT12getIntegerVTEj",
   "parameters" :
   [
    {
     "referenced_type" : "_ZTIj"
    }
   ],
   "return_type" : "_ZTIN4llvm3MVTE",
   "source_file" : "external/llvm/include/llvm/CodeGen/MachineValueType.h"
  },
  {
   "function_name" : "llvm::MVT::mvt_iterator::mvt_iterator",
   "linker_set_key" : "_ZN4llvm3MVT12mvt_iteratorC1ENS0_15SimpleValueTypeE",
   "parameters" :
   [
    {
     "is_this_ptr" : true,
     "referenced_type" : "_ZTIPN4llvm3MVT12mvt_iteratorE"
    },
    {
     "referenced_type" : "_ZTIN4llvm3MVT15SimpleValueTypeE"
    }
   ],
   "return_type" : "_ZTIv",
   "source_file" : "external/llvm/include/llvm/CodeGen/MachineValueType.h"
  },
  {
   "function_name" : "llvm::MVT::mvt_iterator::mvt_iterator",
   "linker_set_key" : "_ZN4llvm3MVT12mvt_iteratorC2ENS0_15SimpleValueTypeE",
   "parameters" :
   [
    {
     "is_this_ptr" : true,
     "referenced_type" : "_ZTIPN4llvm3MVT12mvt_iteratorE"
    },
    {
     "referenced_type" : "_ZTIN4llvm3MVT15SimpleValueTypeE"
    }
   ],
   "return_type" : "_ZTIv",
   "source_file" : "external/llvm/include/llvm/CodeGen/MachineValueType.h"
  },
  {
   "function_name" : "llvm::MVT::mvt_iterator::operator++",
   "linker_set_key" : "_ZN4llvm3MVT12mvt_iteratorppEv",
   "parameters" :
   [
    {
     "is_this_ptr" : true,
     "referenced_type" : "_ZTIPN4llvm3MVT12mvt_iteratorE"
    }
   ],
   "return_type" : "_ZTIRN4llvm3MVT12mvt_iteratorE",
   "source_file" : "external/llvm/include/llvm/CodeGen/MachineValueType.h"
  },
  {
   "function_name" : "llvm::MVT::fp_valuetypes",
   "linker_set_key" : "_ZN4llvm3MVT13fp_valuetypesEv",
   "return_type" : "_ZTIN4llvm14iterator_rangeINS_3MVT12mvt_iteratorEEE",
   "source_file" : "external/llvm/include/llvm/CodeGen/MachineValueType.h"
  },
  {
   "function_name" : "llvm::MVT::all_valuetypes",
   "linker_set_key" : "_ZN4llvm3MVT14all_valuetypesEv",
   "return_type" : "_ZTIN4llvm14iterator_rangeINS_3MVT12mvt_iteratorEEE",
   "source_file" : "external/llvm/include/llvm/CodeGen/MachineValueType.h"
  },
  {
   "function_name" : "llvm::MVT::vector_valuetypes",
   "linker_set_key" : "_ZN4llvm3MVT17vector_valuetypesEv",
   "return_type" : "_ZTIN4llvm14iterator_rangeINS_3MVT12mvt_iteratorEEE",
   "source_file" : "external/llvm/include/llvm/CodeGen/MachineValueType.h"
  },
  {
   "function_name" : "llvm::MVT::getFloatingPointVT",
   "linker_set_key" : "_ZN4llvm3MVT18getFloatingPointVTEj",
   "parameters" :
   [
    {
     "referenced_type" : "_ZTIj"
    }
   ],
   "return_type" : "_ZTIN4llvm3MVTE",
   "source_file" : "external/llvm/include/llvm/CodeGen/MachineValueType.h"
  },
  {
   "function_name" : "llvm::MVT::integer_valuetypes",
   "linker_set_key" : "_ZN4llvm3MVT18integer_valuetypesEv",
   "return_type" : "_ZTIN4llvm14iterator_rangeINS_3MVT12mvt_iteratorEEE",
   "source_file" : "external/llvm/include/llvm/CodeGen/MachineValueType.h"
  },
  {
   "function_name" : "llvm::MVT::fp_vector_valuetypes",
   "linker_set_key" : "_ZN4llvm3MVT20fp_vector_valuetypesEv",
   "return_type" : "_ZTIN4llvm14iterator_rangeINS_3MVT12mvt_iteratorEEE",
   "source_file" : "external/llvm/include/llvm/CodeGen/MachineValueType.h"
  },
  {
   "function_name" : "llvm::MVT::integer_vector_valuetypes",
   "linker_set_key" : "_ZN4llvm3MVT25integer_vector_valuetypesEv",
   "return_type" : "_ZTIN4llvm14iterator_rangeINS_3MVT12mvt_iteratorEEE",
   "source_file" : "external/llvm/include/llvm/CodeGen/MachineValueType.h"
  },
  {
   "function_name" : "llvm::MVT::getVT",
   "linker_set_key" : "_ZN4llvm3MVT5getVTEPNS_4TypeEb",
   "parameters" :
   [
    {
     "referenced_type" : "_ZTIPN4llvm4TypeE"
    },
    {
     "default_arg" : true,
     "referenced_type" : "_ZTIb"
    }
   ],
   "return_type" : "_ZTIN4llvm3MVTE",
   "source_file" : "external/llvm/include/llvm/CodeGen/MachineValueType.h"
  },
  {
   "function_name" : "llvm::MVT::MVT",
   "linker_set_key" : "_ZN4llvm3MVTC1ENS0_15SimpleValueTypeE",
   "parameters" :
   [
    {
     "is_this_ptr" : true,
     "referenced_type" : "_ZTIPN4llvm3MVTE"
    },
    {
     "referenced_type" : "_ZTIN4llvm3MVT15SimpleValueTypeE"
    }
   ],
   "return_type" : "_ZTIv",
   "source_file" : "external/llvm/include/llvm/CodeGen/MachineValueType.h"
  },
  {
   "function_name" : "llvm::MVT::MVT",
   "linker_set_key" : "_ZN4llvm3MVTC1Ev",
   "parameters" :
   [
    {
     "is_this_ptr" : true,
     "referenced_type" : "_ZTIPN4llvm3MVTE"
    }
   ],
   "return_type" : "_ZTIv",
   "source_file" : "external/llvm/include/llvm/CodeGen/MachineValueType.h"
  },
  {
   "function_name" : "llvm::MVT::MVT",
   "linker_set_key" : "_ZN4llvm3MVTC2ENS0_15SimpleValueTypeE",
   "parameters" :
   [
    {
     "is_this_ptr" : true,
     "referenced_type" : "_ZTIPN4llvm3MVTE"
    },
    {
     "referenced_type" : "_ZTIN4llvm3MVT15SimpleValueTypeE"
    }
   ],
   "return_type" : "_ZTIv",
   "source_file" : "external/llvm/include/llvm/CodeGen/MachineValueType.h"
  },
  {
   "function_name" : "llvm::MVT::MVT",
   "linker_set_key" : "_ZN4llvm3MVTC2Ev",
   "parameters" :
   [
    {
     "is_this_ptr" : true,
     "referenced_type" : "_ZTIPN4llvm3MVTE"
    }
   ],
   "return_type" : "_ZTIv",
   "source_file" : "external/llvm/include/llvm/CodeGen/MachineValueType.h"
  },
  {
   "function_name" : "llvm::abs",
   "linker_set_key" : "_ZN4llvm3absENS_7APFloatE",
   "parameters" :
   [
    {
     "referenced_type" : "_ZTIN4llvm7APFloatE"
    }
   ],
   "return_type" : "_ZTIN4llvm7APFloatE",
   "source_file" : "external/llvm/include/llvm/ADT/APFloat.h"
  },
  {
   "function_name" : "llvm::isa",
   "linker_set_key" : "_ZN4llvm3isaINS_10VectorTypeEPNS_4TypeEEEbRKT0_",
   "parameters" :
   [
    {
     "referenced_type" : "_ZTIRKPN4llvm4TypeE"
    }
   ],
   "return_type" : "_ZTIb",
   "source_file" : "external/llvm/include/llvm/Support/Casting.h",
   "template_args" : [ "_ZTIN4llvm10VectorTypeE", "_ZTIPN4llvm4TypeE" ]
  },
  {
   "function_name" : "llvm::isa",
   "linker_set_key" : "_ZN4llvm3isaINS_11IntegerTypeEPNS_4TypeEEEbRKT0_",
   "parameters" :
   [
    {
     "referenced_type" : "_ZTIRKPN4llvm4TypeE"
    }
   ],
   "return_type" : "_ZTIb",
   "source_file" : "external/llvm/include/llvm/Support/Casting.h",
   "template_args" : [ "_ZTIN4llvm11IntegerTypeE", "_ZTIPN4llvm4TypeE" ]
  },
  {
   "function_name" : "llvm::sys::MemoryBlock::MemoryBlock",
   "linker_set_key" : "_ZN4llvm3sys11MemoryBlockC1EPvm",
   "parameters" :
   [
    {
     "is_this_ptr" : true,
     "referenced_type" : "_ZTIPN4llvm3sys11MemoryBlockE"
    },
    {
     "referenced_type" : "_ZTIPv"
    },
    {
     "referenced_type" : "_ZTIm"
    }
   ],
   "return_type" : "_ZTIv",
   "source_file" : "external/llvm/include/llvm/Support/Memory.h"
  },
  {
   "function_name" : "llvm::sys::MemoryBlock::MemoryBlock",
   "linker_set_key" : "_ZN4llvm3sys11MemoryBlockC1Ev",
   "parameters" :
   [
    {
     "is_this_ptr" : true,
     "referenced_type" : "_ZTIPN4llvm3sys11MemoryBlockE"
    }
   ],
   "return_type" : "_ZTIv",
   "source_file" : "external/llvm/include/llvm/Support/Memory.h"
  },
  {
   "function_name" : "llvm::sys::MemoryBlock::MemoryBlock",
   "linker_set_key" : "_ZN4llvm3sys11MemoryBlockC2EPvm",
   "parameters" :
   [
    {
     "is_this_ptr" : true,
     "referenced_type" : "_ZTIPN4llvm3sys11MemoryBlockE"
    },
    {
     "referenced_type" : "_ZTIPv"
    },
    {
     "referenced_type" : "_ZTIm"
    }
   ],
   "return_type" : "_ZTIv",
   "source_file" : "external/llvm/include/llvm/Support/Memory.h"
  },
  {
   "function_name" : "llvm::sys::MemoryBlock::MemoryBlock",
   "linker_set_key" : "_ZN4llvm3sys11MemoryBlockC2Ev",
   "parameters" :
   [
    {
     "is_this_ptr" : true,
     "referenced_type" : "_ZTIPN4llvm3sys11MemoryBlockE"
    }
   ],
   "return_type" : "_ZTIv",
   "source_file" : "external/llvm/include/llvm/Support/Memory.h"
  },
  {
   "function_name" : "llvm::sys::swapByteOrder",
   "linker_set_key" : "_ZN4llvm3sys13swapByteOrderIjEEvRT_",
   "parameters" :
   [
    {
     "referenced_type" : "_ZTIRj"
    }
   ],
   "return_type" : "_ZTIv",
   "source_file" : "external/llvm/include/llvm/Support/SwapByteOrder.h",
   "template_args" : [ "_ZTIj" ]
  },
  {
   "function_name" : "llvm::sys::swapByteOrder",
   "linker_set_key" : "_ZN4llvm3sys13swapByteOrderImEEvRT_",
   "parameters" :
   [
    {
     "referenced_type" : "_ZTIRm"
    }
   ],
   "return_type" : "_ZTIv",
   "source_file" : "external/llvm/include/llvm/Support/SwapByteOrder.h",
   "template_args" : [ "_ZTIm" ]
  },
  {
   "function_name" : "llvm::sys::getSwappedBytes",
   "linker_set_key" : "_ZN4llvm3sys15getSwappedBytesEa",
   "parameters" :
   [
    {
     "referenced_type" : "_ZTIa"
    }
   ],
   "return_type" : "_ZTIa",
   "source_file" : "external/llvm/include/llvm/Support/SwapByteOrder.h"
  },
  {
   "function_name" : "llvm::sys::getSwappedBytes",
   "linker_set_key" : "_ZN4llvm3sys15getSwappedBytesEc",
   "parameters" :
   [
    {
     "referenced_type" : "_ZTIc"
    }
   ],
   "return_type" : "_ZTIc",
   "source_file" : "external/llvm/include/llvm/Support/SwapByteOrder.h"
  },
  {
   "function_name" : "llvm::sys::getSwappedBytes",
   "linker_set_key" : "_ZN4llvm3sys15getSwappedBytesEd",
   "parameters" :
   [
    {
     "referenced_type" : "_ZTId"
    }
   ],
   "return_type" : "_ZTId",
   "source_file" : "external/llvm/include/llvm/Support/SwapByteOrder.h"
  },
  {
   "function_name" : "llvm::sys::getSwappedBytes",
   "linker_set_key" : "_ZN4llvm3sys15getSwappedBytesEf",
   "parameters" :
   [
    {
     "referenced_type" : "_ZTIf"
    }
   ],
   "return_type" : "_ZTIf",
   "source_file" : "external/llvm/include/llvm/Support/SwapByteOrder.h"
  },
  {
   "function_name" : "llvm::sys::getSwappedBytes",
   "linker_set_key" : "_ZN4llvm3sys15getSwappedBytesEh",
   "parameters" :
   [
    {
     "referenced_type" : "_ZTIh"
    }
   ],
   "return_type" : "_ZTIh",
   "source_file" : "external/llvm/include/llvm/Support/SwapByteOrder.h"
  },
  {
   "function_name" : "llvm::sys::getSwappedBytes",
   "linker_set_key" : "_ZN4llvm3sys15getSwappedBytesEi",
   "parameters" :
   [
    {
     "referenced_type" : "_ZTIi"
    }
   ],
   "return_type" : "_ZTIi",
   "source_file" : "external/llvm/include/llvm/Support/SwapByteOrder.h"
  },
  {
   "function_name" : "llvm::sys::getSwappedBytes",
   "linker_set_key" : "_ZN4llvm3sys15getSwappedBytesEj",
   "parameters" :
   [
    {
     "referenced_type" : "_ZTIj"
    }
   ],
   "return_type" : "_ZTIj",
   "source_file" : "external/llvm/include/llvm/Support/SwapByteOrder.h"
  },
  {
   "function_name" : "llvm::sys::getSwappedBytes",
   "linker_set_key" : "_ZN4llvm3sys15getSwappedBytesEl",
   "parameters" :
   [
    {
     "referenced_type" : "_ZTIl"
    }
   ],
   "return_type" : "_ZTIl",
   "source_file" : "external/llvm/include/llvm/Support/SwapByteOrder.h"
  },
  {
   "function_name" : "llvm::sys::getSwappedBytes",
   "linker_set_key" : "_ZN4llvm3sys15getSwappedBytesEm",
   "parameters" :
   [
    {
     "referenced_type" : "_ZTIm"
    }
   ],
   "return_type" : "_ZTIm",
   "source_file" : "external/llvm/include/llvm/Support/SwapByteOrder.h"
  },
  {
   "function_name" : "llvm::sys::getSwappedBytes",
   "linker_set_key" : "_ZN4llvm3sys15getSwappedBytesEs",
   "parameters" :
   [
    {
     "referenced_type" : "_ZTIs"
    }
   ],
   "return_type" : "_ZTIs",
   "source_file" : "external/llvm/include/llvm/Support/SwapByteOrder.h"
  },
  {
   "function_name" : "llvm::sys::getSwappedBytes",
   "linker_set_key" : "_ZN4llvm3sys15getSwappedBytesEt",
   "parameters" :
   [
    {
     "referenced_type" : "_ZTIt"
    }
   ],
   "return_type" : "_ZTIt",
   "source_file" : "external/llvm/include/llvm/Support/SwapByteOrder.h"
  },
  {
   "function_name" : "llvm::sys::getSwappedBytes",
   "linker_set_key" : "_ZN4llvm3sys15getSwappedBytesEx",
   "parameters" :
   [
    {
     "referenced_type" : "_ZTIx"
    }
   ],
   "return_type" : "_ZTIx",
   "source_file" : "external/llvm/include/llvm/Support/SwapByteOrder.h"
  },
  {
   "function_name" : "llvm::sys::getSwappedBytes",
   "linker_set_key" : "_ZN4llvm3sys15getSwappedBytesEy",
   "parameters" :
   [
    {
     "referenced_type" : "_ZTIy"
    }
   ],
   "return_type" : "_ZTIy",
   "source_file" : "external/llvm/include/llvm/Support/SwapByteOrder.h"
  },
  {
   "function_name" : "llvm::sys::SwapByteOrder_16",
   "linker_set_key" : "_ZN4llvm3sys16SwapByteOrder_16Et",
   "parameters" :
   [
    {
     "referenced_type" : "_ZTIt"
    }
   ],
   "return_type" : "_ZTIt",
   "source_file" : "external/llvm/include/llvm/Support/SwapByteOrder.h"
  },
  {
   "function_name" : "llvm::sys::SwapByteOrder_32",
   "linker_set_key" : "_ZN4llvm3sys16SwapByteOrder_32Ej",
   "parameters" :
   [
    {
     "referenced_type" : "_ZTIj"
    }
   ],
   "return_type" : "_ZTIj",
   "source_file" : "external/llvm/include/llvm/Support/SwapByteOrder.h"
  },
  {
   "function_name" : "llvm::sys::SwapByteOrder_64",
   "linker_set_key" : "_ZN4llvm3sys16SwapByteOrder_64Em",
   "parameters" :
   [
    {
     "referenced_type" : "_ZTIm"
    }
   ],
   "return_type" : "_ZTIm",
   "source_file" : "external/llvm/include/llvm/Support/SwapByteOrder.h"
  },
  {
   "function_name" : "llvm::sys::OwningMemoryBlock::OwningMemoryBlock",
   "linker_set_key" : "_ZN4llvm3sys17OwningMemoryBlockC1ENS0_11MemoryBlockE",
   "parameters" :
   [
    {
     "is_this_ptr" : true,
     "referenced_type" : "_ZTIPN4llvm3sys17OwningMemoryBlockE"
    },
    {
     "referenced_type" : "_ZTIN4llvm3sys11MemoryBlockE"
    }
   ],
   "return_type" : "_ZTIv",
   "source_file" : "external/llvm/include/llvm/Support/Memory.h"
  },
  {
   "function_name" : "llvm::sys::OwningMemoryBlock::OwningMemoryBlock",
   "linker_set_key" : "_ZN4llvm3sys17OwningMemoryBlockC1EOS1_",
   "parameters" :
   [
    {
     "is_this_ptr" : true,
     "referenced_type" : "_ZTIPN4llvm3sys17OwningMemoryBlockE"
    },
    {
     "referenced_type" : "_ZTION4llvm3sys17OwningMemoryBlockE"
    }
   ],
   "return_type" : "_ZTIv",
   "source_file" : "external/llvm/include/llvm/Support/Memory.h"
  },
  {
   "function_name" : "llvm::sys::OwningMemoryBlock::OwningMemoryBlock",
   "linker_set_key" : "_ZN4llvm3sys17OwningMemoryBlockC1Ev",
   "parameters" :
   [
    {
     "is_this_ptr" : true,
     "referenced_type" : "_ZTIPN4llvm3sys17OwningMemoryBlockE"
    }
   ],
   "return_type" : "_ZTIv",
   "source_file" : "external/llvm/include/llvm/Support/Memory.h"
  },
  {
   "function_name" : "llvm::sys::OwningMemoryBlock::OwningMemoryBlock",
   "linker_set_key" : "_ZN4llvm3sys17OwningMemoryBlockC2ENS0_11MemoryBlockE",
   "parameters" :
   [
    {
     "is_this_ptr" : true,
     "referenced_type" : "_ZTIPN4llvm3sys17OwningMemoryBlockE"
    },
    {
     "referenced_type" : "_ZTIN4llvm3sys11MemoryBlockE"
    }
   ],
   "return_type" : "_ZTIv",
   "source_file" : "external/llvm/include/llvm/Support/Memory.h"
  },
  {
   "function_name" : "llvm::sys::OwningMemoryBlock::OwningMemoryBlock",
   "linker_set_key" : "_ZN4llvm3sys17OwningMemoryBlockC2EOS1_",
   "parameters" :
   [
    {
     "is_this_ptr" : true,
     "referenced_type" : "_ZTIPN4llvm3sys17OwningMemoryBlockE"
    },
    {
     "referenced_type" : "_ZTION4llvm3sys17OwningMemoryBlockE"
    }
   ],
   "return_type" : "_ZTIv",
   "source_file" : "external/llvm/include/llvm/Support/Memory.h"
  },
  {
   "function_name" : "llvm::sys::OwningMemoryBlock::OwningMemoryBlock",
   "linker_set_key" : "_ZN4llvm3sys17OwningMemoryBlockC2Ev",
   "parameters" :
   [
    {
     "is_this_ptr" : true,
     "referenced_type" : "_ZTIPN4llvm3sys17OwningMemoryBlockE"
    }
   ],
   "return_type" : "_ZTIv",
   "source_file" : "external/llvm/include/llvm/Support/Memory.h"
  },
  {
   "function_name" : "llvm::sys::OwningMemoryBlock::~OwningMemoryBlock",
   "linker_set_key" : "_ZN4llvm3sys17OwningMemoryBlockD1Ev",
   "parameters" :
   [
    {
     "is_this_ptr" : true,
     "referenced_type" : "_ZTIPN4llvm3sys17OwningMemoryBlockE"
    }
   ],
   "return_type" : "_ZTIv",
   "source_file" : "external/llvm/include/llvm/Support/Memory.h"
  },
  {
   "function_name" : "llvm::sys::OwningMemoryBlock::~OwningMemoryBlock",
   "linker_set_key" : "_ZN4llvm3sys17OwningMemoryBlockD2Ev",
   "parameters" :
   [
    {
     "is_this_ptr" : true,
     "referenced_type" : "_ZTIPN4llvm3sys17OwningMemoryBlockE"
    }
   ],
   "return_type" : "_ZTIv",
   "source_file" : "external/llvm/include/llvm/Support/Memory.h"
  },
  {
   "function_name" : "llvm::sys::OwningMemoryBlock::operator=",
   "linker_set_key" : "_ZN4llvm3sys17OwningMemoryBlockaSEOS1_",
   "parameters" :
   [
    {
     "is_this_ptr" : true,
     "referenced_type" : "_ZTIPN4llvm3sys17OwningMemoryBlockE"
    },
    {
     "referenced_type" : "_ZTION4llvm3sys17OwningMemoryBlockE"
    }
   ],
   "return_type" : "_ZTIRN4llvm3sys17OwningMemoryBlockE",
   "source_file" : "external/llvm/include/llvm/Support/Memory.h"
  },
  {
   "function_name" : "llvm::Log2",
   "linker_set_key" : "_ZN4llvm4Log2Ed",
   "parameters" :
   [
    {
     "referenced_type" : "_ZTId"
    }
   ],
   "return_type" : "_ZTId",
   "source_file" : "external/llvm/include/llvm/Support/MathExtras.h"
  },
  {
   "access" : "protected",
   "function_name" : "llvm::Type::setSubclassData",
   "linker_set_key" : "_ZN4llvm4Type15setSubclassDataEj",
   "parameters" :
   [
    {
     "is_this_ptr" : true,
     "referenced_type" : "_ZTIPN4llvm4TypeE"
    },
    {
     "referenced_type" : "_ZTIj"
    }
   ],
   "return_type" : "_ZTIv",
   "source_file" : "external/llvm/include/llvm/IR/Type.h"
  },
  {
   "access" : "protected",
   "function_name" : "llvm::Type::isSequentialType",
   "linker_set_key" : "_ZN4llvm4Type16isSequentialTypeENS0_6TypeIDE",
   "parameters" :
   [
    {
     "referenced_type" : "_ZTIN4llvm4Type6TypeIDE"
    }
   ],
   "return_type" : "_ZTIb",
   "source_file" : "external/llvm/include/llvm/IR/Type.h"
  },
  {
   "access" : "protected",
   "function_name" : "llvm::Type::Type",
   "linker_set_key" : "_ZN4llvm4TypeC1ERNS_11LLVMContextENS0_6TypeIDE",
   "parameters" :
   [
    {
     "is_this_ptr" : true,
     "referenced_type" : "_ZTIPN4llvm4TypeE"
    },
    {
     "referenced_type" : "_ZTIRN4llvm11LLVMContextE"
    },
    {
     "referenced_type" : "_ZTIN4llvm4Type6TypeIDE"
    }
   ],
   "return_type" : "_ZTIv",
   "source_file" : "external/llvm/include/llvm/IR/Type.h"
  },
  {
   "access" : "protected",
   "function_name" : "llvm::Type::Type",
   "linker_set_key" : "_ZN4llvm4TypeC2ERNS_11LLVMContextENS0_6TypeIDE",
   "parameters" :
   [
    {
     "is_this_ptr" : true,
     "referenced_type" : "_ZTIPN4llvm4TypeE"
    },
    {
     "referenced_type" : "_ZTIRN4llvm11LLVMContextE"
    },
    {
     "referenced_type" : "_ZTIN4llvm4Type6TypeIDE"
    }
   ],
   "return_type" : "_ZTIv",
   "source_file" : "external/llvm/include/llvm/IR/Type.h"
  },
  {
   "access" : "protected",
   "function_name" : "llvm::Type::~Type",
   "linker_set_key" : "_ZN4llvm4TypeD1Ev",
   "parameters" :
   [
    {
     "is_this_ptr" : true,
     "referenced_type" : "_ZTIPN4llvm4TypeE"
    }
   ],
   "return_type" : "_ZTIv",
   "source_file" : "external/llvm/include/llvm/IR/Type.h"
  },
  {
   "access" : "protected",
   "function_name" : "llvm::Type::~Type",
   "linker_set_key" : "_ZN4llvm4TypeD2Ev",
   "parameters" :
   [
    {
     "is_this_ptr" : true,
     "referenced_type" : "_ZTIPN4llvm4TypeE"
    }
   ],
   "return_type" : "_ZTIv",
   "source_file" : "external/llvm/include/llvm/IR/Type.h"
  },
  {
   "function_name" : "llvm::cast",
   "linker_set_key" : "_ZN4llvm4castINS_10StructTypeEKNS_4TypeEEENS_10cast_rettyIT_PT0_E8ret_typeES7_",
   "parameters" :
   [
    {
     "referenced_type" : "_ZTIPKN4llvm4TypeE"
    }
   ],
   "return_type" : "_ZTIPKN4llvm10StructTypeE",
   "source_file" : "external/llvm/include/llvm/Support/Casting.h",
   "template_args" : [ "_ZTIN4llvm10StructTypeE", "_ZTIKN4llvm4TypeE" ]
  },
  {
   "function_name" : "llvm::cast",
   "linker_set_key" : "_ZN4llvm4castINS_10VectorTypeEKNS_4TypeEEENS_10cast_rettyIT_PT0_E8ret_typeES7_",
   "parameters" :
   [
    {
     "referenced_type" : "_ZTIPKN4llvm4TypeE"
    }
   ],
   "return_type" : "_ZTIPKN4llvm10VectorTypeE",
   "source_file" : "external/llvm/include/llvm/Support/Casting.h",
   "template_args" : [ "_ZTIN4llvm10VectorTypeE", "_ZTIKN4llvm4TypeE" ]
  },
  {
   "function_name" : "llvm::cast",
   "linker_set_key" : "_ZN4llvm4castINS_10VectorTypeENS_4TypeEEENS_10cast_rettyIT_PT0_E8ret_typeES6_",
   "parameters" :
   [
    {
     "referenced_type" : "_ZTIPN4llvm4TypeE"
    }
   ],
   "return_type" : "_ZTIPN4llvm10VectorTypeE",
   "source_file" : "external/llvm/include/llvm/Support/Casting.h",
   "template_args" : [ "_ZTIN4llvm10VectorTypeE", "_ZTIN4llvm4TypeE" ]
  },
  {
   "function_name" : "llvm::cast",
   "linker_set_key" : "_ZN4llvm4castINS_11IntegerTypeEKNS_4TypeEEENS_10cast_rettyIT_PT0_E8ret_typeES7_",
   "parameters" :
   [
    {
     "referenced_type" : "_ZTIPKN4llvm4TypeE"
    }
   ],
   "return_type" : "_ZTIPKN4llvm11IntegerTypeE",
   "source_file" : "external/llvm/include/llvm/Support/Casting.h",
   "template_args" : [ "_ZTIN4llvm11IntegerTypeE", "_ZTIKN4llvm4TypeE" ]
  },
  {
   "function_name" : "llvm::cast",
   "linker_set_key" : "_ZN4llvm4castINS_11IntegerTypeENS_4TypeEEENS_10cast_rettyIT_PT0_E8ret_typeES6_",
   "parameters" :
   [
    {
     "referenced_type" : "_ZTIPN4llvm4TypeE"
    }
   ],
   "return_type" : "_ZTIPN4llvm11IntegerTypeE",
   "source_file" : "external/llvm/include/llvm/Support/Casting.h",
   "template_args" : [ "_ZTIN4llvm11IntegerTypeE", "_ZTIN4llvm4TypeE" ]
  },
  {
   "function_name" : "llvm::cast",
   "linker_set_key" : "_ZN4llvm4castINS_11PointerTypeENS_4TypeEEENS_10cast_rettyIT_PT0_E8ret_typeES6_",
   "parameters" :
   [
    {
     "referenced_type" : "_ZTIPN4llvm4TypeE"
    }
   ],
   "return_type" : "_ZTIPN4llvm11PointerTypeE",
   "source_file" : "external/llvm/include/llvm/Support/Casting.h",
   "template_args" : [ "_ZTIN4llvm11PointerTypeE", "_ZTIN4llvm4TypeE" ]
  },
  {
   "function_name" : "llvm::cast",
   "linker_set_key" : "_ZN4llvm4castINS_12FunctionTypeEKNS_4TypeEEENS_10cast_rettyIT_PT0_E8ret_typeES7_",
   "parameters" :
   [
    {
     "referenced_type" : "_ZTIPKN4llvm4TypeE"
    }
   ],
   "return_type" : "_ZTIPKN4llvm12FunctionTypeE",
   "source_file" : "external/llvm/include/llvm/Support/Casting.h",
   "template_args" : [ "_ZTIN4llvm12FunctionTypeE", "_ZTIKN4llvm4TypeE" ]
  },
  {
   "function_name" : "llvm::cast",
   "linker_set_key" : "_ZN4llvm4castINS_9ArrayTypeEKNS_4TypeEEENS_10cast_rettyIT_PT0_E8ret_typeES7_",
   "parameters" :
   [
    {
     "referenced_type" : "_ZTIPKN4llvm4TypeE"
    }
   ],
   "return_type" : "_ZTIPKN4llvm9ArrayTypeE",
   "source_file" : "external/llvm/include/llvm/Support/Casting.h",
   "template_args" : [ "_ZTIN4llvm9ArrayTypeE", "_ZTIKN4llvm4TypeE" ]
  },
  {
   "function_name" : "llvm::wrap",
   "linker_set_key" : "_ZN4llvm4wrapEPKNS_11LLVMContextE",
   "parameters" :
   [
    {
     "referenced_type" : "_ZTIPKN4llvm11LLVMContextE"
    }
   ],
   "return_type" : "_ZTIP17LLVMOpaqueContext",
   "source_file" : "external/llvm/include/llvm/IR/LLVMContext.h"
  },
  {
   "function_name" : "llvm::wrap",
   "linker_set_key" : "_ZN4llvm4wrapEPKNS_4TypeE",
   "parameters" :
   [
    {
     "referenced_type" : "_ZTIPKN4llvm4TypeE"
    }
   ],
   "return_type" : "_ZTIP14LLVMOpaqueType",
   "source_file" : "external/llvm/include/llvm/IR/Type.h"
  },
  {
   "function_name" : "llvm::wrap",
   "linker_set_key" : "_ZN4llvm4wrapEPPKNS_11LLVMContextE",
   "parameters" :
   [
    {
     "referenced_type" : "_ZTIPPKN4llvm11LLVMContextE"
    }
   ],
   "return_type" : "_ZTIPP17LLVMOpaqueContext",
   "source_file" : "external/llvm/include/llvm/IR/LLVMContext.h"
  },
  {
   "function_name" : "llvm::wrap",
   "linker_set_key" : "_ZN4llvm4wrapEPPNS_4TypeE",
   "parameters" :
   [
    {
     "referenced_type" : "_ZTIPPN4llvm4TypeE"
    }
   ],
   "return_type" : "_ZTIPP14LLVMOpaqueType",
   "source_file" : "external/llvm/include/llvm/IR/Type.h"
  },
  {
   "function_name" : "llvm::APInt::getBitsSet",
   "linker_set_key" : "_ZN4llvm5APInt10getBitsSetEjjj",
   "parameters" :
   [
    {
     "referenced_type" : "_ZTIj"
    },
    {
     "referenced_type" : "_ZTIj"
    },
    {
     "referenced_type" : "_ZTIj"
    }
   ],
   "return_type" : "_ZTIN4llvm5APIntE",
   "source_file" : "external/llvm/include/llvm/ADT/APInt.h"
  },
  {
   "function_name" : "llvm::APInt::getSignBit",
   "linker_set_key" : "_ZN4llvm5APInt10getSignBitEj",
   "parameters" :
   [
    {
     "referenced_type" : "_ZTIj"
    }
   ],
   "return_type" : "_ZTIN4llvm5APIntE",
   "source_file" : "external/llvm/include/llvm/ADT/APInt.h"
  },
  {
   "function_name" : "llvm::APInt::setAllBits",
   "linker_set_key" : "_ZN4llvm5APInt10setAllBitsEv",
   "parameters" :
   [
    {
     "is_this_ptr" : true,
     "referenced_type" : "_ZTIPN4llvm5APIntE"
    }
   ],
   "return_type" : "_ZTIv",
   "source_file" : "external/llvm/include/llvm/ADT/APInt.h"
  },
  {
   "function_name" : "llvm::APInt::flipAllBits",
   "linker_set_key" : "_ZN4llvm5APInt11flipAllBitsEv",
   "parameters" :
   [
    {
     "is_this_ptr" : true,
     "referenced_type" : "_ZTIPN4llvm5APIntE"
    }
   ],
   "return_type" : "_ZTIv",
   "source_file" : "external/llvm/include/llvm/ADT/APInt.h"
  },
  {
   "function_name" : "llvm::APInt::floatToBits",
   "linker_set_key" : "_ZN4llvm5APInt11floatToBitsEf",
   "parameters" :
   [
    {
     "referenced_type" : "_ZTIf"
    }
   ],
   "return_type" : "_ZTIN4llvm5APIntE",
   "source_file" : "external/llvm/include/llvm/ADT/APInt.h"
  },
  {
   "function_name" : "llvm::APInt::getMaxValue",
   "linker_set_key" : "_ZN4llvm5APInt11getMaxValueEj",
   "parameters" :
   [
    {
     "referenced_type" : "_ZTIj"
    }
   ],
   "return_type" : "_ZTIN4llvm5APIntE",
   "source_file" : "external/llvm/include/llvm/ADT/APInt.h"
  },
  {
   "function_name" : "llvm::APInt::getMinValue",
   "linker_set_key" : "_ZN4llvm5APInt11getMinValueEj",
   "parameters" :
   [
    {
     "referenced_type" : "_ZTIj"
    }
   ],
   "return_type" : "_ZTIN4llvm5APIntE",
   "source_file" : "external/llvm/include/llvm/ADT/APInt.h"
  },
  {
   "function_name" : "llvm::APInt::getNumWords",
   "linker_set_key" : "_ZN4llvm5APInt11getNumWordsEj",
   "parameters" :
   [
    {
     "referenced_type" : "_ZTIj"
    }
   ],
   "return_type" : "_ZTIj",
   "source_file" : "external/llvm/include/llvm/ADT/APInt.h"
  },
  {
   "function_name" : "llvm::APInt::isSameValue",
   "linker_set_key" : "_ZN4llvm5APInt11isSameValueERKS0_S2_",
   "parameters" :
   [
    {
     "referenced_type" : "_ZTIRKN4llvm5APIntE"
    },
    {
     "referenced_type" : "_ZTIRKN4llvm5APIntE"
    }
   ],
   "return_type" : "_ZTIb",
   "source_file" : "external/llvm/include/llvm/ADT/APInt.h"
  },
  {
   "function_name" : "llvm::APInt::clearAllBits",
   "linker_set_key" : "_ZN4llvm5APInt12clearAllBitsEv",
   "parameters" :
   [
    {
     "is_this_ptr" : true,
     "referenced_type" : "_ZTIPN4llvm5APIntE"
    }
   ],
   "return_type" : "_ZTIv",
   "source_file" : "external/llvm/include/llvm/ADT/APInt.h"
  },
  {
   "function_name" : "llvm::APInt::doubleToBits",
   "linker_set_key" : "_ZN4llvm5APInt12doubleToBitsEd",
   "parameters" :
   [
    {
     "referenced_type" : "_ZTId"
    }
   ],
   "return_type" : "_ZTIN4llvm5APIntE",
   "source_file" : "external/llvm/include/llvm/ADT/APInt.h"
  },
  {
   "function_name" : "llvm::APInt::getNullValue",
   "linker_set_key" : "_ZN4llvm5APInt12getNullValueEj",
   "parameters" :
   [
    {
     "referenced_type" : "_ZTIj"
    }
   ],
   "return_type" : "_ZTIN4llvm5APIntE",
   "source_file" : "external/llvm/include/llvm/ADT/APInt.h"
  },
  {
   "function_name" : "llvm::APInt::getOneBitSet",
   "linker_set_key" : "_ZN4llvm5APInt12getOneBitSetEjj",
   "parameters" :
   [
    {
     "referenced_type" : "_ZTIj"
    },
    {
     "referenced_type" : "_ZTIj"
    }
   ],
   "return_type" : "_ZTIN4llvm5APIntE",
   "source_file" : "external/llvm/include/llvm/ADT/APInt.h"
  },
  {
   "function_name" : "llvm::APInt::getLowBitsSet",
   "linker_set_key" : "_ZN4llvm5APInt13getLowBitsSetEjj",
   "parameters" :
   [
    {
     "referenced_type" : "_ZTIj"
    },
    {
     "referenced_type" : "_ZTIj"
    }
   ],
   "return_type" : "_ZTIN4llvm5APIntE",
   "source_file" : "external/llvm/include/llvm/ADT/APInt.h"
  },
  {
   "function_name" : "llvm::APInt::getHighBitsSet",
   "linker_set_key" : "_ZN4llvm5APInt14getHighBitsSetEjj",
   "parameters" :
   [
    {
     "referenced_type" : "_ZTIj"
    },
    {
     "referenced_type" : "_ZTIj"
    }
   ],
   "return_type" : "_ZTIN4llvm5APIntE",
   "source_file" : "external/llvm/include/llvm/ADT/APInt.h"
  },
  {
   "access" : "private",
   "function_name" : "llvm::APInt::clearUnusedBits",
   "linker_set_key" : "_ZN4llvm5APInt15clearUnusedBitsEv",
   "parameters" :
   [
    {
     "is_this_ptr" : true,
     "referenced_type" : "_ZTIPN4llvm5APIntE"
    }
   ],
   "return_type" : "_ZTIRN4llvm5APIntE",
   "source_file" : "external/llvm/include/llvm/ADT/APInt.h"
  },
  {
   "function_name" : "llvm::APInt::getAllOnesValue",
   "linker_set_key" : "_ZN4llvm5APInt15getAllOnesValueEj",
   "parameters" :
   [
    {
     "referenced_type" : "_ZTIj"
    }
   ],
   "return_type" : "_ZTIN4llvm5APIntE",
   "source_file" : "external/llvm/include/llvm/ADT/APInt.h"
  },
  {
   "function_name" : "llvm::APInt::getSignedMaxValue",
   "linker_set_key" : "_ZN4llvm5APInt17getSignedMaxValueEj",
   "parameters" :
   [
    {
     "referenced_type" : "_ZTIj"
    }
   ],
   "return_type" : "_ZTIN4llvm5APIntE",
   "source_file" : "external/llvm/include/llvm/ADT/APInt.h"
  },
  {
   "function_name" : "llvm::APInt::getSignedMinValue",
   "linker_set_key" : "_ZN4llvm5APInt17getSignedMinValueEj",
   "parameters" :
   [
    {
     "referenced_type" : "_ZTIj"
    }
   ],
   "return_type" : "_ZTIN4llvm5APIntE",
   "source_file" : "external/llvm/include/llvm/ADT/APInt.h"
  },
  {
   "access" : "private",
   "function_name" : "llvm::APInt::maskBit",
   "linker_set_key" : "_ZN4llvm5APInt7maskBitEj",
   "parameters" :
   [
    {
     "referenced_type" : "_ZTIj"
    }
   ],
   "return_type" : "_ZTIm",
   "source_file" : "external/llvm/include/llvm/ADT/APInt.h"
  },
  {
   "function_name" : "llvm::APInt::getSplat",
   "linker_set_key" : "_ZN4llvm5APInt8getSplatEjRKS0_",
   "parameters" :
   [
    {
     "referenced_type" : "_ZTIj"
    },
    {
     "referenced_type" : "_ZTIRKN4llvm5APIntE"
    }
   ],
   "return_type" : "_ZTIN4llvm5APIntE",
   "source_file" : "external/llvm/include/llvm/ADT/APInt.h"
  },
  {
   "access" : "private",
   "function_name" : "llvm::APInt::whichBit",
   "linker_set_key" : "_ZN4llvm5APInt8whichBitEj",
   "parameters" :
   [
    {
     "referenced_type" : "_ZTIj"
    }
   ],
   "return_type" : "_ZTIj",
   "source_file" : "external/llvm/include/llvm/ADT/APInt.h"
  },
  {
   "access" : "private",
   "function_name" : "llvm::APInt::whichWord",
   "linker_set_key" : "_ZN4llvm5APInt9whichWordEj",
   "parameters" :
   [
    {
     "referenced_type" : "_ZTIj"
    }
   ],
   "return_type" : "_ZTIj",
   "source_file" : "external/llvm/include/llvm/ADT/APInt.h"
  },
  {
   "function_name" : "llvm::APInt::APInt",
   "linker_set_key" : "_ZN4llvm5APIntC1EOS0_",
   "parameters" :
   [
    {
     "is_this_ptr" : true,
     "referenced_type" : "_ZTIPN4llvm5APIntE"
    },
    {
     "referenced_type" : "_ZTION4llvm5APIntE"
    }
   ],
   "return_type" : "_ZTIv",
   "source_file" : "external/llvm/include/llvm/ADT/APInt.h"
  },
  {
   "access" : "private",
   "function_name" : "llvm::APInt::APInt",
   "linker_set_key" : "_ZN4llvm5APIntC1EPmj",
   "parameters" :
   [
    {
     "is_this_ptr" : true,
     "referenced_type" : "_ZTIPN4llvm5APIntE"
    },
    {
     "referenced_type" : "_ZTIPm"
    },
    {
     "referenced_type" : "_ZTIj"
    }
   ],
   "return_type" : "_ZTIv",
   "source_file" : "external/llvm/include/llvm/ADT/APInt.h"
  },
  {
   "function_name" : "llvm::APInt::APInt",
   "linker_set_key" : "_ZN4llvm5APIntC1ERKS0_",
   "parameters" :
   [
    {
     "is_this_ptr" : true,
     "referenced_type" : "_ZTIPN4llvm5APIntE"
    },
    {
     "referenced_type" : "_ZTIRKN4llvm5APIntE"
    }
   ],
   "return_type" : "_ZTIv",
   "source_file" : "external/llvm/include/llvm/ADT/APInt.h"
  },
  {
   "function_name" : "llvm::APInt::APInt",
   "linker_set_key" : "_ZN4llvm5APIntC1Ejmb",
   "parameters" :
   [
    {
     "is_this_ptr" : true,
     "referenced_type" : "_ZTIPN4llvm5APIntE"
    },
    {
     "referenced_type" : "_ZTIj"
    },
    {
     "referenced_type" : "_ZTIm"
    },
    {
     "default_arg" : true,
     "referenced_type" : "_ZTIb"
    }
   ],
   "return_type" : "_ZTIv",
   "source_file" : "external/llvm/include/llvm/ADT/APInt.h"
  },
  {
   "function_name" : "llvm::APInt::APInt",
   "linker_set_key" : "_ZN4llvm5APIntC1Ev",
   "parameters" :
   [
    {
     "is_this_ptr" : true,
     "referenced_type" : "_ZTIPN4llvm5APIntE"
    }
   ],
   "return_type" : "_ZTIv",
   "source_file" : "external/llvm/include/llvm/ADT/APInt.h"
  },
  {
   "function_name" : "llvm::APInt::APInt",
   "linker_set_key" : "_ZN4llvm5APIntC2EOS0_",
   "parameters" :
   [
    {
     "is_this_ptr" : true,
     "referenced_type" : "_ZTIPN4llvm5APIntE"
    },
    {
     "referenced_type" : "_ZTION4llvm5APIntE"
    }
   ],
   "return_type" : "_ZTIv",
   "source_file" : "external/llvm/include/llvm/ADT/APInt.h"
  },
  {
   "access" : "private",
   "function_name" : "llvm::APInt::APInt",
   "linker_set_key" : "_ZN4llvm5APIntC2EPmj",
   "parameters" :
   [
    {
     "is_this_ptr" : true,
     "referenced_type" : "_ZTIPN4llvm5APIntE"
    },
    {
     "referenced_type" : "_ZTIPm"
    },
    {
     "referenced_type" : "_ZTIj"
    }
   ],
   "return_type" : "_ZTIv",
   "source_file" : "external/llvm/include/llvm/ADT/APInt.h"
  },
  {
   "function_name" : "llvm::APInt::APInt",
   "linker_set_key" : "_ZN4llvm5APIntC2ERKS0_",
   "parameters" :
   [
    {
     "is_this_ptr" : true,
     "referenced_type" : "_ZTIPN4llvm5APIntE"
    },
    {
     "referenced_type" : "_ZTIRKN4llvm5APIntE"
    }
   ],
   "return_type" : "_ZTIv",
   "source_file" : "external/llvm/include/llvm/ADT/APInt.h"
  },
  {
   "function_name" : "llvm::APInt::APInt",
   "linker_set_key" : "_ZN4llvm5APIntC2Ejmb",
   "parameters" :
   [
    {
     "is_this_ptr" : true,
     "referenced_type" : "_ZTIPN4llvm5APIntE"
    },
    {
     "referenced_type" : "_ZTIj"
    },
    {
     "referenced_type" : "_ZTIm"
    },
    {
     "default_arg" : true,
     "referenced_type" : "_ZTIb"
    }
   ],
   "return_type" : "_ZTIv",
   "source_file" : "external/llvm/include/llvm/ADT/APInt.h"
  },
  {
   "function_name" : "llvm::APInt::APInt",
   "linker_set_key" : "_ZN4llvm5APIntC2Ev",
   "parameters" :
   [
    {
     "is_this_ptr" : true,
     "referenced_type" : "_ZTIPN4llvm5APIntE"
    }
   ],
   "return_type" : "_ZTIv",
   "source_file" : "external/llvm/include/llvm/ADT/APInt.h"
  },
  {
   "function_name" : "llvm::APInt::~APInt",
   "linker_set_key" : "_ZN4llvm5APIntD1Ev",
   "parameters" :
   [
    {
     "is_this_ptr" : true,
     "referenced_type" : "_ZTIPN4llvm5APIntE"
    }
   ],
   "return_type" : "_ZTIv",
   "source_file" : "external/llvm/include/llvm/ADT/APInt.h"
  },
  {
   "function_name" : "llvm::APInt::~APInt",
   "linker_set_key" : "_ZN4llvm5APIntD2Ev",
   "parameters" :
   [
    {
     "is_this_ptr" : true,
     "referenced_type" : "_ZTIPN4llvm5APIntE"
    }
   ],
   "return_type" : "_ZTIv",
   "source_file" : "external/llvm/include/llvm/ADT/APInt.h"
  },
  {
   "function_name" : "llvm::APInt::operator=",
   "linker_set_key" : "_ZN4llvm5APIntaSEOS0_",
   "parameters" :
   [
    {
     "is_this_ptr" : true,
     "referenced_type" : "_ZTIPN4llvm5APIntE"
    },
    {
     "referenced_type" : "_ZTION4llvm5APIntE"
    }
   ],
   "return_type" : "_ZTIRN4llvm5APIntE",
   "source_file" : "external/llvm/include/llvm/ADT/APInt.h"
  },
  {
   "function_name" : "llvm::APInt::operator=",
   "linker_set_key" : "_ZN4llvm5APIntaSERKS0_",
   "parameters" :
   [
    {
     "is_this_ptr" : true,
     "referenced_type" : "_ZTIPN4llvm5APIntE"
    },
    {
     "referenced_type" : "_ZTIRKN4llvm5APIntE"
    }
   ],
   "return_type" : "_ZTIRN4llvm5APIntE",
   "source_file" : "external/llvm/include/llvm/ADT/APInt.h"
  },
  {
   "function_name" : "llvm::APInt::operator<<=",
   "linker_set_key" : "_ZN4llvm5APIntlSEj",
   "parameters" :
   [
    {
     "is_this_ptr" : true,
     "referenced_type" : "_ZTIPN4llvm5APIntE"
    },
    {
     "referenced_type" : "_ZTIj"
    }
   ],
   "return_type" : "_ZTIRN4llvm5APIntE",
   "source_file" : "external/llvm/include/llvm/ADT/APInt.h"
  },
  {
   "function_name" : "llvm::APInt::operator--",
   "linker_set_key" : "_ZN4llvm5APIntmmEi",
   "parameters" :
   [
    {
     "is_this_ptr" : true,
     "referenced_type" : "_ZTIPN4llvm5APIntE"
    },
    {
     "referenced_type" : "_ZTIi"
    }
   ],
   "return_type" : "_ZTIKN4llvm5APIntE",
   "source_file" : "external/llvm/include/llvm/ADT/APInt.h"
  },
  {
   "function_name" : "llvm::APInt::operator|=",
   "linker_set_key" : "_ZN4llvm5APIntoREm",
   "parameters" :
   [
    {
     "is_this_ptr" : true,
     "referenced_type" : "_ZTIPN4llvm5APIntE"
    },
    {
     "referenced_type" : "_ZTIm"
    }
   ],
   "return_type" : "_ZTIRN4llvm5APIntE",
   "source_file" : "external/llvm/include/llvm/ADT/APInt.h"
  },
  {
   "function_name" : "llvm::APInt::operator++",
   "linker_set_key" : "_ZN4llvm5APIntppEi",
   "parameters" :
   [
    {
     "is_this_ptr" : true,
     "referenced_type" : "_ZTIPN4llvm5APIntE"
    },
    {
     "referenced_type" : "_ZTIi"
    }
   ],
   "return_type" : "_ZTIKN4llvm5APIntE",
   "source_file" : "external/llvm/include/llvm/ADT/APInt.h"
  },
  {
   "function_name" : "llvm::Hi_32",
   "linker_set_key" : "_ZN4llvm5Hi_32Em",
   "parameters" :
   [
    {
     "referenced_type" : "_ZTIm"
    }
   ],
   "return_type" : "_ZTIj",
   "source_file" : "external/llvm/include/llvm/Support/MathExtras.h"
  },
  {
   "function_name" : "llvm::Lo_32",
   "linker_set_key" : "_ZN4llvm5Lo_32Em",
   "parameters" :
   [
    {
     "referenced_type" : "_ZTIm"
    }
   ],
   "return_type" : "_ZTIj",
   "source_file" : "external/llvm/include/llvm/Support/MathExtras.h"
  },
  {
   "function_name" : "llvm::Twine::createNull",
   "linker_set_key" : "_ZN4llvm5Twine10createNullEv",
   "return_type" : "_ZTIN4llvm5TwineE",
   "source_file" : "external/llvm/include/llvm/ADT/Twine.h"
  },
  {
   "function_name" : "llvm::Twine::utohexstr",
   "linker_set_key" : "_ZN4llvm5Twine9utohexstrERKm",
   "parameters" :
   [
    {
     "referenced_type" : "_ZTIRKm"
    }
   ],
   "return_type" : "_ZTIN4llvm5TwineE",
   "source_file" : "external/llvm/include/llvm/ADT/Twine.h"
  },
  {
   "access" : "private",
   "function_name" : "llvm::Twine::Twine",
   "linker_set_key" : "_ZN4llvm5TwineC1ENS0_5ChildENS0_8NodeKindES1_S2_",
   "parameters" :
   [
    {
     "is_this_ptr" : true,
     "referenced_type" : "_ZTIPN4llvm5TwineE"
    },
    {
     "referenced_type" : "_ZTIN4llvm5Twine5ChildE"
    },
    {
     "referenced_type" : "_ZTIN4llvm5Twine8NodeKindE"
    },
    {
     "referenced_type" : "_ZTIN4llvm5Twine5ChildE"
    },
    {
     "referenced_type" : "_ZTIN4llvm5Twine8NodeKindE"
    }
   ],
   "return_type" : "_ZTIv",
   "source_file" : "external/llvm/include/llvm/ADT/Twine.h"
  },
  {
   "access" : "private",
   "function_name" : "llvm::Twine::Twine",
   "linker_set_key" : "_ZN4llvm5TwineC1ENS0_8NodeKindE",
   "parameters" :
   [
    {
     "is_this_ptr" : true,
     "referenced_type" : "_ZTIPN4llvm5TwineE"
    },
    {
     "referenced_type" : "_ZTIN4llvm5Twine8NodeKindE"
    }
   ],
   "return_type" : "_ZTIv",
   "source_file" : "external/llvm/include/llvm/ADT/Twine.h"
  },
  {
   "function_name" : "llvm::Twine::Twine",
   "linker_set_key" : "_ZN4llvm5TwineC1EPKc",
   "parameters" :
   [
    {
     "is_this_ptr" : true,
     "referenced_type" : "_ZTIPN4llvm5TwineE"
    },
    {
     "referenced_type" : "_ZTIPKc"
    }
   ],
   "return_type" : "_ZTIv",
   "source_file" : "external/llvm/include/llvm/ADT/Twine.h"
  },
  {
   "function_name" : "llvm::Twine::Twine",
   "linker_set_key" : "_ZN4llvm5TwineC1EPKcRKNS_9StringRefE",
   "parameters" :
   [
    {
     "is_this_ptr" : true,
     "referenced_type" : "_ZTIPN4llvm5TwineE"
    },
    {
     "referenced_type" : "_ZTIPKc"
    },
    {
     "referenced_type" : "_ZTIRKN4llvm9StringRefE"
    }
   ],
   "return_type" : "_ZTIv",
   "source_file" : "external/llvm/include/llvm/ADT/Twine.h"
  },
  {
   "function_name" : "llvm::Twine::Twine",
   "linker_set_key" : "_ZN4llvm5TwineC1ERKNS_15SmallVectorImplIcEE",
   "parameters" :
   [
    {
     "is_this_ptr" : true,
     "referenced_type" : "_ZTIPN4llvm5TwineE"
    },
    {
     "referenced_type" : "_ZTIRKN4llvm15SmallVectorImplIcEE"
    }
   ],
   "return_type" : "_ZTIv",
   "source_file" : "external/llvm/include/llvm/ADT/Twine.h"
  },
  {
   "function_name" : "llvm::Twine::Twine",
   "linker_set_key" : "_ZN4llvm5TwineC1ERKNS_9StringRefE",
   "parameters" :
   [
    {
     "is_this_ptr" : true,
     "referenced_type" : "_ZTIPN4llvm5TwineE"
    },
    {
     "referenced_type" : "_ZTIRKN4llvm9StringRefE"
    }
   ],
   "return_type" : "_ZTIv",
   "source_file" : "external/llvm/include/llvm/ADT/Twine.h"
  },
  {
   "function_name" : "llvm::Twine::Twine",
   "linker_set_key" : "_ZN4llvm5TwineC1ERKNS_9StringRefEPKc",
   "parameters" :
   [
    {
     "is_this_ptr" : true,
     "referenced_type" : "_ZTIPN4llvm5TwineE"
    },
    {
     "referenced_type" : "_ZTIRKN4llvm9StringRefE"
    },
    {
     "referenced_type" : "_ZTIPKc"
    }
   ],
   "return_type" : "_ZTIv",
   "source_file" : "external/llvm/include/llvm/ADT/Twine.h"
  },
  {
   "function_name" : "llvm::Twine::Twine",
   "linker_set_key" : "_ZN4llvm5TwineC1ERKNSt3__112basic_stringIcNS1_11char_traitsIcEENS1_9allocatorIcEEEE",
   "parameters" :
   [
    {
     "is_this_ptr" : true,
     "referenced_type" : "_ZTIPN4llvm5TwineE"
    },
    {
     "referenced_type" : "_ZTIRKNSt3__112basic_stringIcNS_11char_traitsIcEENS_9allocatorIcEEEE"
    }
   ],
   "return_type" : "_ZTIv",
   "source_file" : "external/llvm/include/llvm/ADT/Twine.h"
  },
  {
   "function_name" : "llvm::Twine::Twine",
   "linker_set_key" : "_ZN4llvm5TwineC1ERKS0_",
   "parameters" :
   [
    {
     "is_this_ptr" : true,
     "referenced_type" : "_ZTIPN4llvm5TwineE"
    },
    {
     "referenced_type" : "_ZTIRKN4llvm5TwineE"
    }
   ],
   "return_type" : "_ZTIv",
   "source_file" : "external/llvm/include/llvm/ADT/Twine.h"
  },
  {
   "access" : "private",
   "function_name" : "llvm::Twine::Twine",
   "linker_set_key" : "_ZN4llvm5TwineC1ERKS0_S2_",
   "parameters" :
   [
    {
     "is_this_ptr" : true,
     "referenced_type" : "_ZTIPN4llvm5TwineE"
    },
    {
     "referenced_type" : "_ZTIRKN4llvm5TwineE"
    },
    {
     "referenced_type" : "_ZTIRKN4llvm5TwineE"
    }
   ],
   "return_type" : "_ZTIv",
   "source_file" : "external/llvm/include/llvm/ADT/Twine.h"
  },
  {
   "function_name" : "llvm::Twine::Twine",
   "linker_set_key" : "_ZN4llvm5TwineC1ERKl",
   "parameters" :
   [
    {
     "is_this_ptr" : true,
     "referenced_type" : "_ZTIPN4llvm5TwineE"
    },
    {
     "referenced_type" : "_ZTIRKl"
    }
   ],
   "return_type" : "_ZTIv",
   "source_file" : "external/llvm/include/llvm/ADT/Twine.h"
  },
  {
   "function_name" : "llvm::Twine::Twine",
   "linker_set_key" : "_ZN4llvm5TwineC1ERKm",
   "parameters" :
   [
    {
     "is_this_ptr" : true,
     "referenced_type" : "_ZTIPN4llvm5TwineE"
    },
    {
     "referenced_type" : "_ZTIRKm"
    }
   ],
   "return_type" : "_ZTIv",
   "source_file" : "external/llvm/include/llvm/ADT/Twine.h"
  },
  {
   "function_name" : "llvm::Twine::Twine",
   "linker_set_key" : "_ZN4llvm5TwineC1ERKx",
   "parameters" :
   [
    {
     "is_this_ptr" : true,
     "referenced_type" : "_ZTIPN4llvm5TwineE"
    },
    {
     "referenced_type" : "_ZTIRKx"
    }
   ],
   "return_type" : "_ZTIv",
   "source_file" : "external/llvm/include/llvm/ADT/Twine.h"
  },
  {
   "function_name" : "llvm::Twine::Twine",
   "linker_set_key" : "_ZN4llvm5TwineC1ERKy",
   "parameters" :
   [
    {
     "is_this_ptr" : true,
     "referenced_type" : "_ZTIPN4llvm5TwineE"
    },
    {
     "referenced_type" : "_ZTIRKy"
    }
   ],
   "return_type" : "_ZTIv",
   "source_file" : "external/llvm/include/llvm/ADT/Twine.h"
  },
  {
   "function_name" : "llvm::Twine::Twine",
   "linker_set_key" : "_ZN4llvm5TwineC1Ea",
   "parameters" :
   [
    {
     "is_this_ptr" : true,
     "referenced_type" : "_ZTIPN4llvm5TwineE"
    },
    {
     "referenced_type" : "_ZTIa"
    }
   ],
   "return_type" : "_ZTIv",
   "source_file" : "external/llvm/include/llvm/ADT/Twine.h"
  },
  {
   "function_name" : "llvm::Twine::Twine",
   "linker_set_key" : "_ZN4llvm5TwineC1Ec",
   "parameters" :
   [
    {
     "is_this_ptr" : true,
     "referenced_type" : "_ZTIPN4llvm5TwineE"
    },
    {
     "referenced_type" : "_ZTIc"
    }
   ],
   "return_type" : "_ZTIv",
   "source_file" : "external/llvm/include/llvm/ADT/Twine.h"
  },
  {
   "function_name" : "llvm::Twine::Twine",
   "linker_set_key" : "_ZN4llvm5TwineC1Eh",
   "parameters" :
   [
    {
     "is_this_ptr" : true,
     "referenced_type" : "_ZTIPN4llvm5TwineE"
    },
    {
     "referenced_type" : "_ZTIh"
    }
   ],
   "return_type" : "_ZTIv",
   "source_file" : "external/llvm/include/llvm/ADT/Twine.h"
  },
  {
   "function_name" : "llvm::Twine::Twine",
   "linker_set_key" : "_ZN4llvm5TwineC1Ei",
   "parameters" :
   [
    {
     "is_this_ptr" : true,
     "referenced_type" : "_ZTIPN4llvm5TwineE"
    },
    {
     "referenced_type" : "_ZTIi"
    }
   ],
   "return_type" : "_ZTIv",
   "source_file" : "external/llvm/include/llvm/ADT/Twine.h"
  },
  {
   "function_name" : "llvm::Twine::Twine",
   "linker_set_key" : "_ZN4llvm5TwineC1Ej",
   "parameters" :
   [
    {
     "is_this_ptr" : true,
     "referenced_type" : "_ZTIPN4llvm5TwineE"
    },
    {
     "referenced_type" : "_ZTIj"
    }
   ],
   "return_type" : "_ZTIv",
   "source_file" : "external/llvm/include/llvm/ADT/Twine.h"
  },
  {
   "function_name" : "llvm::Twine::Twine",
   "linker_set_key" : "_ZN4llvm5TwineC1Ev",
   "parameters" :
   [
    {
     "is_this_ptr" : true,
     "referenced_type" : "_ZTIPN4llvm5TwineE"
    }
   ],
   "return_type" : "_ZTIv",
   "source_file" : "external/llvm/include/llvm/ADT/Twine.h"
  },
  {
   "access" : "private",
   "function_name" : "llvm::Twine::Twine",
   "linker_set_key" : "_ZN4llvm5TwineC2ENS0_5ChildENS0_8NodeKindES1_S2_",
   "parameters" :
   [
    {
     "is_this_ptr" : true,
     "referenced_type" : "_ZTIPN4llvm5TwineE"
    },
    {
     "referenced_type" : "_ZTIN4llvm5Twine5ChildE"
    },
    {
     "referenced_type" : "_ZTIN4llvm5Twine8NodeKindE"
    },
    {
     "referenced_type" : "_ZTIN4llvm5Twine5ChildE"
    },
    {
     "referenced_type" : "_ZTIN4llvm5Twine8NodeKindE"
    }
   ],
   "return_type" : "_ZTIv",
   "source_file" : "external/llvm/include/llvm/ADT/Twine.h"
  },
  {
   "access" : "private",
   "function_name" : "llvm::Twine::Twine",
   "linker_set_key" : "_ZN4llvm5TwineC2ENS0_8NodeKindE",
   "parameters" :
   [
    {
     "is_this_ptr" : true,
     "referenced_type" : "_ZTIPN4llvm5TwineE"
    },
    {
     "referenced_type" : "_ZTIN4llvm5Twine8NodeKindE"
    }
   ],
   "return_type" : "_ZTIv",
   "source_file" : "external/llvm/include/llvm/ADT/Twine.h"
  },
  {
   "function_name" : "llvm::Twine::Twine",
   "linker_set_key" : "_ZN4llvm5TwineC2EPKc",
   "parameters" :
   [
    {
     "is_this_ptr" : true,
     "referenced_type" : "_ZTIPN4llvm5TwineE"
    },
    {
     "referenced_type" : "_ZTIPKc"
    }
   ],
   "return_type" : "_ZTIv",
   "source_file" : "external/llvm/include/llvm/ADT/Twine.h"
  },
  {
   "function_name" : "llvm::Twine::Twine",
   "linker_set_key" : "_ZN4llvm5TwineC2EPKcRKNS_9StringRefE",
   "parameters" :
   [
    {
     "is_this_ptr" : true,
     "referenced_type" : "_ZTIPN4llvm5TwineE"
    },
    {
     "referenced_type" : "_ZTIPKc"
    },
    {
     "referenced_type" : "_ZTIRKN4llvm9StringRefE"
    }
   ],
   "return_type" : "_ZTIv",
   "source_file" : "external/llvm/include/llvm/ADT/Twine.h"
  },
  {
   "function_name" : "llvm::Twine::Twine",
   "linker_set_key" : "_ZN4llvm5TwineC2ERKNS_15SmallVectorImplIcEE",
   "parameters" :
   [
    {
     "is_this_ptr" : true,
     "referenced_type" : "_ZTIPN4llvm5TwineE"
    },
    {
     "referenced_type" : "_ZTIRKN4llvm15SmallVectorImplIcEE"
    }
   ],
   "return_type" : "_ZTIv",
   "source_file" : "external/llvm/include/llvm/ADT/Twine.h"
  },
  {
   "function_name" : "llvm::Twine::Twine",
   "linker_set_key" : "_ZN4llvm5TwineC2ERKNS_9StringRefE",
   "parameters" :
   [
    {
     "is_this_ptr" : true,
     "referenced_type" : "_ZTIPN4llvm5TwineE"
    },
    {
     "referenced_type" : "_ZTIRKN4llvm9StringRefE"
    }
   ],
   "return_type" : "_ZTIv",
   "source_file" : "external/llvm/include/llvm/ADT/Twine.h"
  },
  {
   "function_name" : "llvm::Twine::Twine",
   "linker_set_key" : "_ZN4llvm5TwineC2ERKNS_9StringRefEPKc",
   "parameters" :
   [
    {
     "is_this_ptr" : true,
     "referenced_type" : "_ZTIPN4llvm5TwineE"
    },
    {
     "referenced_type" : "_ZTIRKN4llvm9StringRefE"
    },
    {
     "referenced_type" : "_ZTIPKc"
    }
   ],
   "return_type" : "_ZTIv",
   "source_file" : "external/llvm/include/llvm/ADT/Twine.h"
  },
  {
   "function_name" : "llvm::Twine::Twine",
   "linker_set_key" : "_ZN4llvm5TwineC2ERKNSt3__112basic_stringIcNS1_11char_traitsIcEENS1_9allocatorIcEEEE",
   "parameters" :
   [
    {
     "is_this_ptr" : true,
     "referenced_type" : "_ZTIPN4llvm5TwineE"
    },
    {
     "referenced_type" : "_ZTIRKNSt3__112basic_stringIcNS_11char_traitsIcEENS_9allocatorIcEEEE"
    }
   ],
   "return_type" : "_ZTIv",
   "source_file" : "external/llvm/include/llvm/ADT/Twine.h"
  },
  {
   "function_name" : "llvm::Twine::Twine",
   "linker_set_key" : "_ZN4llvm5TwineC2ERKS0_",
   "parameters" :
   [
    {
     "is_this_ptr" : true,
     "referenced_type" : "_ZTIPN4llvm5TwineE"
    },
    {
     "referenced_type" : "_ZTIRKN4llvm5TwineE"
    }
   ],
   "return_type" : "_ZTIv",
   "source_file" : "external/llvm/include/llvm/ADT/Twine.h"
  },
  {
   "access" : "private",
   "function_name" : "llvm::Twine::Twine",
   "linker_set_key" : "_ZN4llvm5TwineC2ERKS0_S2_",
   "parameters" :
   [
    {
     "is_this_ptr" : true,
     "referenced_type" : "_ZTIPN4llvm5TwineE"
    },
    {
     "referenced_type" : "_ZTIRKN4llvm5TwineE"
    },
    {
     "referenced_type" : "_ZTIRKN4llvm5TwineE"
    }
   ],
   "return_type" : "_ZTIv",
   "source_file" : "external/llvm/include/llvm/ADT/Twine.h"
  },
  {
   "function_name" : "llvm::Twine::Twine",
   "linker_set_key" : "_ZN4llvm5TwineC2ERKl",
   "parameters" :
   [
    {
     "is_this_ptr" : true,
     "referenced_type" : "_ZTIPN4llvm5TwineE"
    },
    {
     "referenced_type" : "_ZTIRKl"
    }
   ],
   "return_type" : "_ZTIv",
   "source_file" : "external/llvm/include/llvm/ADT/Twine.h"
  },
  {
   "function_name" : "llvm::Twine::Twine",
   "linker_set_key" : "_ZN4llvm5TwineC2ERKm",
   "parameters" :
   [
    {
     "is_this_ptr" : true,
     "referenced_type" : "_ZTIPN4llvm5TwineE"
    },
    {
     "referenced_type" : "_ZTIRKm"
    }
   ],
   "return_type" : "_ZTIv",
   "source_file" : "external/llvm/include/llvm/ADT/Twine.h"
  },
  {
   "function_name" : "llvm::Twine::Twine",
   "linker_set_key" : "_ZN4llvm5TwineC2ERKx",
   "parameters" :
   [
    {
     "is_this_ptr" : true,
     "referenced_type" : "_ZTIPN4llvm5TwineE"
    },
    {
     "referenced_type" : "_ZTIRKx"
    }
   ],
   "return_type" : "_ZTIv",
   "source_file" : "external/llvm/include/llvm/ADT/Twine.h"
  },
  {
   "function_name" : "llvm::Twine::Twine",
   "linker_set_key" : "_ZN4llvm5TwineC2ERKy",
   "parameters" :
   [
    {
     "is_this_ptr" : true,
     "referenced_type" : "_ZTIPN4llvm5TwineE"
    },
    {
     "referenced_type" : "_ZTIRKy"
    }
   ],
   "return_type" : "_ZTIv",
   "source_file" : "external/llvm/include/llvm/ADT/Twine.h"
  },
  {
   "function_name" : "llvm::Twine::Twine",
   "linker_set_key" : "_ZN4llvm5TwineC2Ea",
   "parameters" :
   [
    {
     "is_this_ptr" : true,
     "referenced_type" : "_ZTIPN4llvm5TwineE"
    },
    {
     "referenced_type" : "_ZTIa"
    }
   ],
   "return_type" : "_ZTIv",
   "source_file" : "external/llvm/include/llvm/ADT/Twine.h"
  },
  {
   "function_name" : "llvm::Twine::Twine",
   "linker_set_key" : "_ZN4llvm5TwineC2Ec",
   "parameters" :
   [
    {
     "is_this_ptr" : true,
     "referenced_type" : "_ZTIPN4llvm5TwineE"
    },
    {
     "referenced_type" : "_ZTIc"
    }
   ],
   "return_type" : "_ZTIv",
   "source_file" : "external/llvm/include/llvm/ADT/Twine.h"
  },
  {
   "function_name" : "llvm::Twine::Twine",
   "linker_set_key" : "_ZN4llvm5TwineC2Eh",
   "parameters" :
   [
    {
     "is_this_ptr" : true,
     "referenced_type" : "_ZTIPN4llvm5TwineE"
    },
    {
     "referenced_type" : "_ZTIh"
    }
   ],
   "return_type" : "_ZTIv",
   "source_file" : "external/llvm/include/llvm/ADT/Twine.h"
  },
  {
   "function_name" : "llvm::Twine::Twine",
   "linker_set_key" : "_ZN4llvm5TwineC2Ei",
   "parameters" :
   [
    {
     "is_this_ptr" : true,
     "referenced_type" : "_ZTIPN4llvm5TwineE"
    },
    {
     "referenced_type" : "_ZTIi"
    }
   ],
   "return_type" : "_ZTIv",
   "source_file" : "external/llvm/include/llvm/ADT/Twine.h"
  },
  {
   "function_name" : "llvm::Twine::Twine",
   "linker_set_key" : "_ZN4llvm5TwineC2Ej",
   "parameters" :
   [
    {
     "is_this_ptr" : true,
     "referenced_type" : "_ZTIPN4llvm5TwineE"
    },
    {
     "referenced_type" : "_ZTIj"
    }
   ],
   "return_type" : "_ZTIv",
   "source_file" : "external/llvm/include/llvm/ADT/Twine.h"
  },
  {
   "function_name" : "llvm::Twine::Twine",
   "linker_set_key" : "_ZN4llvm5TwineC2Ev",
   "parameters" :
   [
    {
     "is_this_ptr" : true,
     "referenced_type" : "_ZTIPN4llvm5TwineE"
    }
   ],
   "return_type" : "_ZTIv",
   "source_file" : "external/llvm/include/llvm/ADT/Twine.h"
  },
  {
   "function_name" : "llvm::isInt",
   "linker_set_key" : "_ZN4llvm5isIntILj16EEEbl",
   "parameters" :
   [
    {
     "referenced_type" : "_ZTIl"
    }
   ],
   "return_type" : "_ZTIb",
   "source_file" : "external/llvm/include/llvm/Support/MathExtras.h"
  },
  {
   "function_name" : "llvm::isInt",
   "linker_set_key" : "_ZN4llvm5isIntILj32EEEbl",
   "parameters" :
   [
    {
     "referenced_type" : "_ZTIl"
    }
   ],
   "return_type" : "_ZTIb",
   "source_file" : "external/llvm/include/llvm/Support/MathExtras.h"
  },
  {
   "function_name" : "llvm::isInt",
   "linker_set_key" : "_ZN4llvm5isIntILj8EEEbl",
   "parameters" :
   [
    {
     "referenced_type" : "_ZTIl"
    }
   ],
   "return_type" : "_ZTIb",
   "source_file" : "external/llvm/include/llvm/Support/MathExtras.h"
  },
  {
   "function_name" : "llvm::detail::DenseMapPair<void *, llvm::cl::Option *>::getFirst",
   "linker_set_key" : "_ZN4llvm6detail12DenseMapPairIPvPNS_2cl6OptionEE8getFirstEv",
   "parameters" :
   [
    {
     "is_this_ptr" : true,
     "referenced_type" : "_ZTIPN4llvm6detail12DenseMapPairIPvPNS_2cl6OptionEEE"
    }
   ],
   "return_type" : "_ZTIRPv",
   "source_file" : "external/llvm/include/llvm/ADT/DenseMap.h"
  },
  {
   "function_name" : "llvm::detail::DenseMapPair<void *, llvm::cl::Option *>::getSecond",
   "linker_set_key" : "_ZN4llvm6detail12DenseMapPairIPvPNS_2cl6OptionEE9getSecondEv",
   "parameters" :
   [
    {
     "is_this_ptr" : true,
     "referenced_type" : "_ZTIPN4llvm6detail12DenseMapPairIPvPNS_2cl6OptionEEE"
    }
   ],
   "return_type" : "_ZTIRPN4llvm2cl6OptionE",
   "source_file" : "external/llvm/include/llvm/ADT/DenseMap.h"
  },
  {
   "function_name" : "llvm::detail::PopulationCounter<unsigned long, 8>::count",
   "linker_set_key" : "_ZN4llvm6detail17PopulationCounterImLm8EE5countEm",
   "parameters" :
   [
    {
     "referenced_type" : "_ZTIm"
    }
   ],
   "return_type" : "_ZTIj",
   "source_file" : "external/llvm/include/llvm/Support/MathExtras.h"
  },
  {
   "function_name" : "llvm::detail::LeadingZerosCounter<unsigned int, 4>::count",
   "linker_set_key" : "_ZN4llvm6detail19LeadingZerosCounterIjLm4EE5countEjNS_12ZeroBehaviorE",
   "parameters" :
   [
    {
     "referenced_type" : "_ZTIj"
    },
    {
     "referenced_type" : "_ZTIN4llvm12ZeroBehaviorE"
    }
   ],
   "return_type" : "_ZTIm",
   "source_file" : "external/llvm/include/llvm/Support/MathExtras.h"
  },
  {
   "function_name" : "llvm::detail::LeadingZerosCounter<unsigned long, 8>::count",
   "linker_set_key" : "_ZN4llvm6detail19LeadingZerosCounterImLm8EE5countEmNS_12ZeroBehaviorE",
   "parameters" :
   [
    {
     "referenced_type" : "_ZTIm"
    },
    {
     "referenced_type" : "_ZTIN4llvm12ZeroBehaviorE"
    }
   ],
   "return_type" : "_ZTIm",
   "source_file" : "external/llvm/include/llvm/Support/MathExtras.h"
  },
  {
   "function_name" : "llvm::detail::TrailingZerosCounter<unsigned long, 8>::count",
   "linker_set_key" : "_ZN4llvm6detail20TrailingZerosCounterImLm8EE5countEmNS_12ZeroBehaviorE",
   "parameters" :
   [
    {
     "referenced_type" : "_ZTIm"
    },
    {
     "referenced_type" : "_ZTIN4llvm12ZeroBehaviorE"
    }
   ],
   "return_type" : "_ZTIm",
   "source_file" : "external/llvm/include/llvm/Support/MathExtras.h"
  },
  {
   "function_name" : "llvm::isIntN",
   "linker_set_key" : "_ZN4llvm6isIntNEjl",
   "parameters" :
   [
    {
     "referenced_type" : "_ZTIj"
    },
    {
     "referenced_type" : "_ZTIl"
    }
   ],
   "return_type" : "_ZTIb",
   "source_file" : "external/llvm/include/llvm/Support/MathExtras.h"
  },
  {
   "function_name" : "llvm::isUInt",
   "linker_set_key" : "_ZN4llvm6isUIntILj16EEEbm",
   "parameters" :
   [
    {
     "referenced_type" : "_ZTIm"
    }
   ],
   "return_type" : "_ZTIb",
   "source_file" : "external/llvm/include/llvm/Support/MathExtras.h"
  },
  {
   "function_name" : "llvm::isUInt",
   "linker_set_key" : "_ZN4llvm6isUIntILj32EEEbm",
   "parameters" :
   [
    {
     "referenced_type" : "_ZTIm"
    }
   ],
   "return_type" : "_ZTIb",
   "source_file" : "external/llvm/include/llvm/Support/MathExtras.h"
  },
  {
   "function_name" : "llvm::isUInt",
   "linker_set_key" : "_ZN4llvm6isUIntILj8EEEbm",
   "parameters" :
   [
    {
     "referenced_type" : "_ZTIm"
    }
   ],
   "return_type" : "_ZTIb",
   "source_file" : "external/llvm/include/llvm/Support/MathExtras.h"
  },
  {
   "function_name" : "llvm::maxnum",
   "linker_set_key" : "_ZN4llvm6maxnumERKNS_7APFloatES2_",
   "parameters" :
   [
    {
     "referenced_type" : "_ZTIRKN4llvm7APFloatE"
    },
    {
     "referenced_type" : "_ZTIRKN4llvm7APFloatE"
    }
   ],
   "return_type" : "_ZTIN4llvm7APFloatE",
   "source_file" : "external/llvm/include/llvm/ADT/APFloat.h"
  },
  {
   "function_name" : "llvm::minnum",
   "linker_set_key" : "_ZN4llvm6minnumERKNS_7APFloatES2_",
   "parameters" :
   [
    {
     "referenced_type" : "_ZTIRKN4llvm7APFloatE"
    },
    {
     "referenced_type" : "_ZTIRKN4llvm7APFloatE"
    }
   ],
   "return_type" : "_ZTIN4llvm7APFloatE",
   "source_file" : "external/llvm/include/llvm/ADT/APFloat.h"
  },
  {
   "function_name" : "llvm::unwrap",
   "linker_set_key" : "_ZN4llvm6unwrapEP14LLVMOpaqueType",
   "parameters" :
   [
    {
     "referenced_type" : "_ZTIP14LLVMOpaqueType"
    }
   ],
   "return_type" : "_ZTIPN4llvm4TypeE",
   "source_file" : "external/llvm/include/llvm/IR/Type.h"
  },
  {
   "function_name" : "llvm::unwrap",
   "linker_set_key" : "_ZN4llvm6unwrapEP17LLVMOpaqueContext",
   "parameters" :
   [
    {
     "referenced_type" : "_ZTIP17LLVMOpaqueContext"
    }
   ],
   "return_type" : "_ZTIPN4llvm11LLVMContextE",
   "source_file" : "external/llvm/include/llvm/IR/LLVMContext.h"
  },
  {
   "function_name" : "llvm::unwrap",
   "linker_set_key" : "_ZN4llvm6unwrapEPP14LLVMOpaqueType",
   "parameters" :
   [
    {
     "referenced_type" : "_ZTIPP14LLVMOpaqueType"
    }
   ],
   "return_type" : "_ZTIPPN4llvm4TypeE",
   "source_file" : "external/llvm/include/llvm/IR/Type.h"
  },
  {
   "function_name" : "llvm::unwrap",
   "linker_set_key" : "_ZN4llvm6unwrapEPP17LLVMOpaqueContext",
   "parameters" :
   [
    {
     "referenced_type" : "_ZTIPP17LLVMOpaqueContext"
    }
   ],
   "return_type" : "_ZTIPPN4llvm11LLVMContextE",
   "source_file" : "external/llvm/include/llvm/IR/LLVMContext.h"
  },
  {
   "function_name" : "llvm::APFloat::getInf",
   "linker_set_key" : "_ZN4llvm7APFloat6getInfERKNS_12fltSemanticsEb",
   "parameters" :
   [
    {
     "referenced_type" : "_ZTIRKN4llvm12fltSemanticsE"
    },
    {
     "default_arg" : true,
     "referenced_type" : "_ZTIb"
    }
   ],
   "return_type" : "_ZTIN4llvm7APFloatE",
   "source_file" : "external/llvm/include/llvm/ADT/APFloat.h"
  },
  {
   "function_name" : "llvm::APFloat::getNaN",
   "linker_set_key" : "_ZN4llvm7APFloat6getNaNERKNS_12fltSemanticsEbj",
   "parameters" :
   [
    {
     "referenced_type" : "_ZTIRKN4llvm12fltSemanticsE"
    },
    {
     "default_arg" : true,
     "referenced_type" : "_ZTIb"
    },
    {
     "default_arg" : true,
     "referenced_type" : "_ZTIj"
    }
   ],
   "return_type" : "_ZTIN4llvm7APFloatE",
   "source_file" : "external/llvm/include/llvm/ADT/APFloat.h"
  },
  {
   "function_name" : "llvm::APFloat::getQNaN",
   "linker_set_key" : "_ZN4llvm7APFloat7getQNaNERKNS_12fltSemanticsEbPKNS_5APIntE",
   "parameters" :
   [
    {
     "referenced_type" : "_ZTIRKN4llvm12fltSemanticsE"
    },
    {
     "default_arg" : true,
     "referenced_type" : "_ZTIb"
    },
    {
     "default_arg" : true,
     "referenced_type" : "_ZTIPKN4llvm5APIntE"
    }
   ],
   "return_type" : "_ZTIN4llvm7APFloatE",
   "source_file" : "external/llvm/include/llvm/ADT/APFloat.h"
  },
  {
   "function_name" : "llvm::APFloat::getSNaN",
   "linker_set_key" : "_ZN4llvm7APFloat7getSNaNERKNS_12fltSemanticsEbPKNS_5APIntE",
   "parameters" :
   [
    {
     "referenced_type" : "_ZTIRKN4llvm12fltSemanticsE"
    },
    {
     "default_arg" : true,
     "referenced_type" : "_ZTIb"
    },
    {
     "default_arg" : true,
     "referenced_type" : "_ZTIPKN4llvm5APIntE"
    }
   ],
   "return_type" : "_ZTIN4llvm7APFloatE",
   "source_file" : "external/llvm/include/llvm/ADT/APFloat.h"
  },
  {
   "function_name" : "llvm::APFloat::getZero",
   "linker_set_key" : "_ZN4llvm7APFloat7getZeroERKNS_12fltSemanticsEb",
   "parameters" :
   [
    {
     "referenced_type" : "_ZTIRKN4llvm12fltSemanticsE"
    },
    {
     "default_arg" : true,
     "referenced_type" : "_ZTIb"
    }
   ],
   "return_type" : "_ZTIN4llvm7APFloatE",
   "source_file" : "external/llvm/include/llvm/ADT/APFloat.h"
  },
  {
   "function_name" : "llvm::APFloat::copySign",
   "linker_set_key" : "_ZN4llvm7APFloat8copySignES0_RKS0_",
   "parameters" :
   [
    {
     "referenced_type" : "_ZTIN4llvm7APFloatE"
    },
    {
     "referenced_type" : "_ZTIRKN4llvm7APFloatE"
    }
   ],
   "return_type" : "_ZTIN4llvm7APFloatE",
   "source_file" : "external/llvm/include/llvm/ADT/APFloat.h"
  },
  {
   "function_name" : "llvm::Log2_32",
   "linker_set_key" : "_ZN4llvm7Log2_32Ej",
   "parameters" :
   [
    {
     "referenced_type" : "_ZTIj"
    }
   ],
   "return_type" : "_ZTIj",
   "source_file" : "external/llvm/include/llvm/Support/MathExtras.h"
  },
  {
   "function_name" : "llvm::Log2_64",
   "linker_set_key" : "_ZN4llvm7Log2_64Em",
   "parameters" :
   [
    {
     "referenced_type" : "_ZTIm"
    }
   ],
   "return_type" : "_ZTIj",
   "source_file" : "external/llvm/include/llvm/Support/MathExtras.h"
  },
  {
   "function_name" : "llvm::Make_64",
   "linker_set_key" : "_ZN4llvm7Make_64Ejj",
   "parameters" :
   [
    {
     "referenced_type" : "_ZTIj"
    },
    {
     "referenced_type" : "_ZTIj"
    }
   ],
   "return_type" : "_ZTIm",
   "source_file" : "external/llvm/include/llvm/Support/MathExtras.h"
  },
  {
   "function_name" : "llvm::alignTo",
   "linker_set_key" : "_ZN4llvm7alignToEmmm",
   "parameters" :
   [
    {
     "referenced_type" : "_ZTIm"
    },
    {
     "referenced_type" : "_ZTIm"
    },
    {
     "default_arg" : true,
     "referenced_type" : "_ZTIm"
    }
   ],
   "return_type" : "_ZTIm",
   "source_file" : "external/llvm/include/llvm/Support/MathExtras.h"
  },
  {
   "function_name" : "llvm::hashing::detail::hash_short",
   "linker_set_key" : "_ZN4llvm7hashing6detail10hash_shortEPKcmm",
   "parameters" :
   [
    {
     "referenced_type" : "_ZTIPKc"
    },
    {
     "referenced_type" : "_ZTIm"
    },
    {
     "referenced_type" : "_ZTIm"
    }
   ],
   "return_type" : "_ZTIm",
   "source_file" : "external/llvm/include/llvm/ADT/Hashing.h"
  },
  {
   "function_name" : "llvm::hashing::detail::hash_state::mix_32_bytes",
   "linker_set_key" : "_ZN4llvm7hashing6detail10hash_state12mix_32_bytesEPKcRmS5_",
   "parameters" :
   [
    {
     "referenced_type" : "_ZTIPKc"
    },
    {
     "referenced_type" : "_ZTIRm"
    },
    {
     "referenced_type" : "_ZTIRm"
    }
   ],
   "return_type" : "_ZTIv",
   "source_file" : "external/llvm/include/llvm/ADT/Hashing.h"
  },
  {
   "function_name" : "llvm::hashing::detail::hash_state::mix",
   "linker_set_key" : "_ZN4llvm7hashing6detail10hash_state3mixEPKc",
   "parameters" :
   [
    {
     "is_this_ptr" : true,
     "referenced_type" : "_ZTIPN4llvm7hashing6detail10hash_stateE"
    },
    {
     "referenced_type" : "_ZTIPKc"
    }
   ],
   "return_type" : "_ZTIv",
   "source_file" : "external/llvm/include/llvm/ADT/Hashing.h"
  },
  {
   "function_name" : "llvm::hashing::detail::hash_state::create",
   "linker_set_key" : "_ZN4llvm7hashing6detail10hash_state6createEPKcm",
   "parameters" :
   [
    {
     "referenced_type" : "_ZTIPKc"
    },
    {
     "referenced_type" : "_ZTIm"
    }
   ],
   "return_type" : "_ZTIN4llvm7hashing6detail10hash_stateE",
   "source_file" : "external/llvm/include/llvm/ADT/Hashing.h"
  },
  {
   "function_name" : "llvm::hashing::detail::hash_state::finalize",
   "linker_set_key" : "_ZN4llvm7hashing6detail10hash_state8finalizeEm",
   "parameters" :
   [
    {
     "is_this_ptr" : true,
     "referenced_type" : "_ZTIPN4llvm7hashing6detail10hash_stateE"
    },
    {
     "referenced_type" : "_ZTIm"
    }
   ],
   "return_type" : "_ZTIm",
   "source_file" : "external/llvm/include/llvm/ADT/Hashing.h"
  },
  {
   "function_name" : "llvm::hashing::detail::hash_16_bytes",
   "linker_set_key" : "_ZN4llvm7hashing6detail13hash_16_bytesEmm",
   "parameters" :
   [
    {
     "referenced_type" : "_ZTIm"
    },
    {
     "referenced_type" : "_ZTIm"
    }
   ],
   "return_type" : "_ZTIm",
   "source_file" : "external/llvm/include/llvm/ADT/Hashing.h"
  },
  {
   "function_name" : "llvm::hashing::detail::hash_1to3_bytes",
   "linker_set_key" : "_ZN4llvm7hashing6detail15hash_1to3_bytesEPKcmm",
   "parameters" :
   [
    {
     "referenced_type" : "_ZTIPKc"
    },
    {
     "referenced_type" : "_ZTIm"
    },
    {
     "referenced_type" : "_ZTIm"
    }
   ],
   "return_type" : "_ZTIm",
   "source_file" : "external/llvm/include/llvm/ADT/Hashing.h"
  },
  {
   "function_name" : "llvm::hashing::detail::hash_4to8_bytes",
   "linker_set_key" : "_ZN4llvm7hashing6detail15hash_4to8_bytesEPKcmm",
   "parameters" :
   [
    {
     "referenced_type" : "_ZTIPKc"
    },
    {
     "referenced_type" : "_ZTIm"
    },
    {
     "referenced_type" : "_ZTIm"
    }
   ],
   "return_type" : "_ZTIm",
   "source_file" : "external/llvm/include/llvm/ADT/Hashing.h"
  },
  {
   "function_name" : "llvm::hashing::detail::hash_9to16_bytes",
   "linker_set_key" : "_ZN4llvm7hashing6detail16hash_9to16_bytesEPKcmm",
   "parameters" :
   [
    {
     "referenced_type" : "_ZTIPKc"
    },
    {
     "referenced_type" : "_ZTIm"
    },
    {
     "referenced_type" : "_ZTIm"
    }
   ],
   "return_type" : "_ZTIm",
   "source_file" : "external/llvm/include/llvm/ADT/Hashing.h"
  },
  {
   "function_name" : "llvm::hashing::detail::hash_17to32_bytes",
   "linker_set_key" : "_ZN4llvm7hashing6detail17hash_17to32_bytesEPKcmm",
   "parameters" :
   [
    {
     "referenced_type" : "_ZTIPKc"
    },
    {
     "referenced_type" : "_ZTIm"
    },
    {
     "referenced_type" : "_ZTIm"
    }
   ],
   "return_type" : "_ZTIm",
   "source_file" : "external/llvm/include/llvm/ADT/Hashing.h"
  },
  {
   "function_name" : "llvm::hashing::detail::hash_33to64_bytes",
   "linker_set_key" : "_ZN4llvm7hashing6detail17hash_33to64_bytesEPKcmm",
   "parameters" :
   [
    {
     "referenced_type" : "_ZTIPKc"
    },
    {
     "referenced_type" : "_ZTIm"
    },
    {
     "referenced_type" : "_ZTIm"
    }
   ],
   "return_type" : "_ZTIm",
   "source_file" : "external/llvm/include/llvm/ADT/Hashing.h"
  },
  {
   "function_name" : "llvm::hashing::detail::get_execution_seed",
   "linker_set_key" : "_ZN4llvm7hashing6detail18get_execution_seedEv",
   "return_type" : "_ZTIm",
   "source_file" : "external/llvm/include/llvm/ADT/Hashing.h"
  },
  {
   "function_name" : "llvm::hashing::detail::hash_integer_value",
   "linker_set_key" : "_ZN4llvm7hashing6detail18hash_integer_valueEm",
   "parameters" :
   [
    {
     "referenced_type" : "_ZTIm"
    }
   ],
   "return_type" : "_ZTIN4llvm9hash_codeE",
   "source_file" : "external/llvm/include/llvm/ADT/Hashing.h"
  },
  {
   "function_name" : "llvm::hashing::detail::hash_combine_recursive_helper::combine",
   "linker_set_key" : "_ZN4llvm7hashing6detail29hash_combine_recursive_helper7combineEmPcS3_",
   "parameters" :
   [
    {
     "is_this_ptr" : true,
     "referenced_type" : "_ZTIPN4llvm7hashing6detail29hash_combine_recursive_helperE"
    },
    {
     "referenced_type" : "_ZTIm"
    },
    {
     "referenced_type" : "_ZTIPc"
    },
    {
     "referenced_type" : "_ZTIPc"
    }
   ],
   "return_type" : "_ZTIN4llvm9hash_codeE",
   "source_file" : "external/llvm/include/llvm/ADT/Hashing.h"
  },
  {
   "function_name" : "llvm::hashing::detail::hash_combine_recursive_helper::hash_combine_recursive_helper",
   "linker_set_key" : "_ZN4llvm7hashing6detail29hash_combine_recursive_helperC1Ev",
   "parameters" :
   [
    {
     "is_this_ptr" : true,
     "referenced_type" : "_ZTIPN4llvm7hashing6detail29hash_combine_recursive_helperE"
    }
   ],
   "return_type" : "_ZTIv",
   "source_file" : "external/llvm/include/llvm/ADT/Hashing.h"
  },
  {
   "function_name" : "llvm::hashing::detail::hash_combine_recursive_helper::hash_combine_recursive_helper",
   "linker_set_key" : "_ZN4llvm7hashing6detail29hash_combine_recursive_helperC2Ev",
   "parameters" :
   [
    {
     "is_this_ptr" : true,
     "referenced_type" : "_ZTIPN4llvm7hashing6detail29hash_combine_recursive_helperE"
    }
   ],
   "return_type" : "_ZTIv",
   "source_file" : "external/llvm/include/llvm/ADT/Hashing.h"
  },
  {
   "function_name" : "llvm::hashing::detail::rotate",
   "linker_set_key" : "_ZN4llvm7hashing6detail6rotateEmm",
   "parameters" :
   [
    {
     "referenced_type" : "_ZTIm"
    },
    {
     "referenced_type" : "_ZTIm"
    }
   ],
   "return_type" : "_ZTIm",
   "source_file" : "external/llvm/include/llvm/ADT/Hashing.h"
  },
  {
   "function_name" : "llvm::hashing::detail::fetch32",
   "linker_set_key" : "_ZN4llvm7hashing6detail7fetch32EPKc",
   "parameters" :
   [
    {
     "referenced_type" : "_ZTIPKc"
    }
   ],
   "return_type" : "_ZTIj",
   "source_file" : "external/llvm/include/llvm/ADT/Hashing.h"
  },
  {
   "function_name" : "llvm::hashing::detail::fetch64",
   "linker_set_key" : "_ZN4llvm7hashing6detail7fetch64EPKc",
   "parameters" :
   [
    {
     "referenced_type" : "_ZTIPKc"
    }
   ],
   "return_type" : "_ZTIm",
   "source_file" : "external/llvm/include/llvm/ADT/Hashing.h"
  },
  {
   "function_name" : "llvm::hashing::detail::shift_mix",
   "linker_set_key" : "_ZN4llvm7hashing6detail9shift_mixEm",
   "parameters" :
   [
    {
     "referenced_type" : "_ZTIm"
    }
   ],
   "return_type" : "_ZTIm",
   "source_file" : "external/llvm/include/llvm/ADT/Hashing.h"
  },
  {
   "function_name" : "llvm::isUIntN",
   "linker_set_key" : "_ZN4llvm7isUIntNEjm",
   "parameters" :
   [
    {
     "referenced_type" : "_ZTIj"
    },
    {
     "referenced_type" : "_ZTIm"
    }
   ],
   "return_type" : "_ZTIb",
   "source_file" : "external/llvm/include/llvm/Support/MathExtras.h"
  },
  {
   "function_name" : "llvm::maxIntN",
   "linker_set_key" : "_ZN4llvm7maxIntNEl",
   "parameters" :
   [
    {
     "referenced_type" : "_ZTIl"
    }
   ],
   "return_type" : "_ZTIl",
   "source_file" : "external/llvm/include/llvm/Support/MathExtras.h"
  },
  {
   "function_name" : "llvm::minIntN",
   "linker_set_key" : "_ZN4llvm7minIntNEl",
   "parameters" :
   [
    {
     "referenced_type" : "_ZTIl"
    }
   ],
   "return_type" : "_ZTIl",
   "source_file" : "external/llvm/include/llvm/Support/MathExtras.h"
  },
  {
   "function_name" : "llvm::APIntOps::isSignedIntN",
   "linker_set_key" : "_ZN4llvm8APIntOps12isSignedIntNEjRKNS_5APIntE",
   "parameters" :
   [
    {
     "referenced_type" : "_ZTIj"
    },
    {
     "referenced_type" : "_ZTIRKN4llvm5APIntE"
    }
   ],
   "return_type" : "_ZTIb",
   "source_file" : "external/llvm/include/llvm/ADT/APInt.h"
  },
  {
   "function_name" : "llvm::APIntOps::isShiftedMask",
   "linker_set_key" : "_ZN4llvm8APIntOps13isShiftedMaskEjRKNS_5APIntE",
   "parameters" :
   [
    {
     "referenced_type" : "_ZTIj"
    },
    {
     "referenced_type" : "_ZTIRKN4llvm5APIntE"
    }
   ],
   "return_type" : "_ZTIb",
   "source_file" : "external/llvm/include/llvm/ADT/APInt.h"
  },
  {
   "function_name" : "llvm::APIntOps::RoundAPIntToFloat",
   "linker_set_key" : "_ZN4llvm8APIntOps17RoundAPIntToFloatERKNS_5APIntE",
   "parameters" :
   [
    {
     "referenced_type" : "_ZTIRKN4llvm5APIntE"
    }
   ],
   "return_type" : "_ZTIf",
   "source_file" : "external/llvm/include/llvm/ADT/APInt.h"
  },
  {
   "function_name" : "llvm::APIntOps::RoundFloatToAPInt",
   "linker_set_key" : "_ZN4llvm8APIntOps17RoundFloatToAPIntEfj",
   "parameters" :
   [
    {
     "referenced_type" : "_ZTIf"
    },
    {
     "referenced_type" : "_ZTIj"
    }
   ],
   "return_type" : "_ZTIN4llvm5APIntE",
   "source_file" : "external/llvm/include/llvm/ADT/APInt.h"
  },
  {
   "function_name" : "llvm::APIntOps::RoundAPIntToDouble",
   "linker_set_key" : "_ZN4llvm8APIntOps18RoundAPIntToDoubleERKNS_5APIntE",
   "parameters" :
   [
    {
     "referenced_type" : "_ZTIRKN4llvm5APIntE"
    }
   ],
   "return_type" : "_ZTId",
   "source_file" : "external/llvm/include/llvm/ADT/APInt.h"
  },
  {
   "function_name" : "llvm::APIntOps::RoundSignedAPIntToFloat",
   "linker_set_key" : "_ZN4llvm8APIntOps23RoundSignedAPIntToFloatERKNS_5APIntE",
   "parameters" :
   [
    {
     "referenced_type" : "_ZTIRKN4llvm5APIntE"
    }
   ],
   "return_type" : "_ZTIf",
   "source_file" : "external/llvm/include/llvm/ADT/APInt.h"
  },
  {
   "function_name" : "llvm::APIntOps::RoundSignedAPIntToDouble",
   "linker_set_key" : "_ZN4llvm8APIntOps24RoundSignedAPIntToDoubleERKNS_5APIntE",
   "parameters" :
   [
    {
     "referenced_type" : "_ZTIRKN4llvm5APIntE"
    }
   ],
   "return_type" : "_ZTId",
   "source_file" : "external/llvm/include/llvm/ADT/APInt.h"
  },
  {
   "function_name" : "llvm::APIntOps::Or",
   "linker_set_key" : "_ZN4llvm8APIntOps2OrERKNS_5APIntES3_",
   "parameters" :
   [
    {
     "referenced_type" : "_ZTIRKN4llvm5APIntE"
    },
    {
     "referenced_type" : "_ZTIRKN4llvm5APIntE"
    }
   ],
   "return_type" : "_ZTIN4llvm5APIntE",
   "source_file" : "external/llvm/include/llvm/ADT/APInt.h"
  },
  {
   "function_name" : "llvm::APIntOps::And",
   "linker_set_key" : "_ZN4llvm8APIntOps3AndERKNS_5APIntES3_",
   "parameters" :
   [
    {
     "referenced_type" : "_ZTIRKN4llvm5APIntE"
    },
    {
     "referenced_type" : "_ZTIRKN4llvm5APIntE"
    }
   ],
   "return_type" : "_ZTIN4llvm5APIntE",
   "source_file" : "external/llvm/include/llvm/ADT/APInt.h"
  },
  {
   "function_name" : "llvm::APIntOps::Not",
   "linker_set_key" : "_ZN4llvm8APIntOps3NotERKNS_5APIntE",
   "parameters" :
   [
    {
     "referenced_type" : "_ZTIRKN4llvm5APIntE"
    }
   ],
   "return_type" : "_ZTIN4llvm5APIntE",
   "source_file" : "external/llvm/include/llvm/ADT/APInt.h"
  },
  {
   "function_name" : "llvm::APIntOps::Xor",
   "linker_set_key" : "_ZN4llvm8APIntOps3XorERKNS_5APIntES3_",
   "parameters" :
   [
    {
     "referenced_type" : "_ZTIRKN4llvm5APIntE"
    },
    {
     "referenced_type" : "_ZTIRKN4llvm5APIntE"
    }
   ],
   "return_type" : "_ZTIN4llvm5APIntE",
   "source_file" : "external/llvm/include/llvm/ADT/APInt.h"
  },
  {
   "function_name" : "llvm::APIntOps::add",
   "linker_set_key" : "_ZN4llvm8APIntOps3addERKNS_5APIntES3_",
   "parameters" :
   [
    {
     "referenced_type" : "_ZTIRKN4llvm5APIntE"
    },
    {
     "referenced_type" : "_ZTIRKN4llvm5APIntE"
    }
   ],
   "return_type" : "_ZTIN4llvm5APIntE",
   "source_file" : "external/llvm/include/llvm/ADT/APInt.h"
  },
  {
   "function_name" : "llvm::APIntOps::mul",
   "linker_set_key" : "_ZN4llvm8APIntOps3mulERKNS_5APIntES3_",
   "parameters" :
   [
    {
     "referenced_type" : "_ZTIRKN4llvm5APIntE"
    },
    {
     "referenced_type" : "_ZTIRKN4llvm5APIntE"
    }
   ],
   "return_type" : "_ZTIN4llvm5APIntE",
   "source_file" : "external/llvm/include/llvm/ADT/APInt.h"
  },
  {
   "function_name" : "llvm::APIntOps::shl",
   "linker_set_key" : "_ZN4llvm8APIntOps3shlERKNS_5APIntEj",
   "parameters" :
   [
    {
     "referenced_type" : "_ZTIRKN4llvm5APIntE"
    },
    {
     "referenced_type" : "_ZTIj"
    }
   ],
   "return_type" : "_ZTIN4llvm5APIntE",
   "source_file" : "external/llvm/include/llvm/ADT/APInt.h"
  },
  {
   "function_name" : "llvm::APIntOps::sub",
   "linker_set_key" : "_ZN4llvm8APIntOps3subERKNS_5APIntES3_",
   "parameters" :
   [
    {
     "referenced_type" : "_ZTIRKN4llvm5APIntE"
    },
    {
     "referenced_type" : "_ZTIRKN4llvm5APIntE"
    }
   ],
   "return_type" : "_ZTIN4llvm5APIntE",
   "source_file" : "external/llvm/include/llvm/ADT/APInt.h"
  },
  {
   "function_name" : "llvm::APIntOps::ashr",
   "linker_set_key" : "_ZN4llvm8APIntOps4ashrERKNS_5APIntEj",
   "parameters" :
   [
    {
     "referenced_type" : "_ZTIRKN4llvm5APIntE"
    },
    {
     "referenced_type" : "_ZTIj"
    }
   ],
   "return_type" : "_ZTIN4llvm5APIntE",
   "source_file" : "external/llvm/include/llvm/ADT/APInt.h"
  },
  {
   "function_name" : "llvm::APIntOps::lshr",
   "linker_set_key" : "_ZN4llvm8APIntOps4lshrERKNS_5APIntEj",
   "parameters" :
   [
    {
     "referenced_type" : "_ZTIRKN4llvm5APIntE"
    },
    {
     "referenced_type" : "_ZTIj"
    }
   ],
   "return_type" : "_ZTIN4llvm5APIntE",
   "source_file" : "external/llvm/include/llvm/ADT/APInt.h"
  },
  {
   "function_name" : "llvm::APIntOps::sdiv",
   "linker_set_key" : "_ZN4llvm8APIntOps4sdivERKNS_5APIntES3_",
   "parameters" :
   [
    {
     "referenced_type" : "_ZTIRKN4llvm5APIntE"
    },
    {
     "referenced_type" : "_ZTIRKN4llvm5APIntE"
    }
   ],
   "return_type" : "_ZTIN4llvm5APIntE",
   "source_file" : "external/llvm/include/llvm/ADT/APInt.h"
  },
  {
   "function_name" : "llvm::APIntOps::smax",
   "linker_set_key" : "_ZN4llvm8APIntOps4smaxERKNS_5APIntES3_",
   "parameters" :
   [
    {
     "referenced_type" : "_ZTIRKN4llvm5APIntE"
    },
    {
     "referenced_type" : "_ZTIRKN4llvm5APIntE"
    }
   ],
   "return_type" : "_ZTIRKN4llvm5APIntE",
   "source_file" : "external/llvm/include/llvm/ADT/APInt.h"
  },
  {
   "function_name" : "llvm::APIntOps::smin",
   "linker_set_key" : "_ZN4llvm8APIntOps4sminERKNS_5APIntES3_",
   "parameters" :
   [
    {
     "referenced_type" : "_ZTIRKN4llvm5APIntE"
    },
    {
     "referenced_type" : "_ZTIRKN4llvm5APIntE"
    }
   ],
   "return_type" : "_ZTIRKN4llvm5APIntE",
   "source_file" : "external/llvm/include/llvm/ADT/APInt.h"
  },
  {
   "function_name" : "llvm::APIntOps::srem",
   "linker_set_key" : "_ZN4llvm8APIntOps4sremERKNS_5APIntES3_",
   "parameters" :
   [
    {
     "referenced_type" : "_ZTIRKN4llvm5APIntE"
    },
    {
     "referenced_type" : "_ZTIRKN4llvm5APIntE"
    }
   ],
   "return_type" : "_ZTIN4llvm5APIntE",
   "source_file" : "external/llvm/include/llvm/ADT/APInt.h"
  },
  {
   "function_name" : "llvm::APIntOps::udiv",
   "linker_set_key" : "_ZN4llvm8APIntOps4udivERKNS_5APIntES3_",
   "parameters" :
   [
    {
     "referenced_type" : "_ZTIRKN4llvm5APIntE"
    },
    {
     "referenced_type" : "_ZTIRKN4llvm5APIntE"
    }
   ],
   "return_type" : "_ZTIN4llvm5APIntE",
   "source_file" : "external/llvm/include/llvm/ADT/APInt.h"
  },
  {
   "function_name" : "llvm::APIntOps::umax",
   "linker_set_key" : "_ZN4llvm8APIntOps4umaxERKNS_5APIntES3_",
   "parameters" :
   [
    {
     "referenced_type" : "_ZTIRKN4llvm5APIntE"
    },
    {
     "referenced_type" : "_ZTIRKN4llvm5APIntE"
    }
   ],
   "return_type" : "_ZTIRKN4llvm5APIntE",
   "source_file" : "external/llvm/include/llvm/ADT/APInt.h"
  },
  {
   "function_name" : "llvm::APIntOps::umin",
   "linker_set_key" : "_ZN4llvm8APIntOps4uminERKNS_5APIntES3_",
   "parameters" :
   [
    {
     "referenced_type" : "_ZTIRKN4llvm5APIntE"
    },
    {
     "referenced_type" : "_ZTIRKN4llvm5APIntE"
    }
   ],
   "return_type" : "_ZTIRKN4llvm5APIntE",
   "source_file" : "external/llvm/include/llvm/ADT/APInt.h"
  },
  {
   "function_name" : "llvm::APIntOps::urem",
   "linker_set_key" : "_ZN4llvm8APIntOps4uremERKNS_5APIntES3_",
   "parameters" :
   [
    {
     "referenced_type" : "_ZTIRKN4llvm5APIntE"
    },
    {
     "referenced_type" : "_ZTIRKN4llvm5APIntE"
    }
   ],
   "return_type" : "_ZTIN4llvm5APIntE",
   "source_file" : "external/llvm/include/llvm/ADT/APInt.h"
  },
  {
   "function_name" : "llvm::APIntOps::isIntN",
   "linker_set_key" : "_ZN4llvm8APIntOps6isIntNEjRKNS_5APIntE",
   "parameters" :
   [
    {
     "referenced_type" : "_ZTIj"
    },
    {
     "referenced_type" : "_ZTIRKN4llvm5APIntE"
    }
   ],
   "return_type" : "_ZTIb",
   "source_file" : "external/llvm/include/llvm/ADT/APInt.h"
  },
  {
   "function_name" : "llvm::APIntOps::isMask",
   "linker_set_key" : "_ZN4llvm8APIntOps6isMaskERKNS_5APIntE",
   "parameters" :
   [
    {
     "referenced_type" : "_ZTIRKN4llvm5APIntE"
    }
   ],
   "return_type" : "_ZTIb",
   "source_file" : "external/llvm/include/llvm/ADT/APInt.h"
  },
  {
   "function_name" : "llvm::APIntOps::isMask",
   "linker_set_key" : "_ZN4llvm8APIntOps6isMaskEjRKNS_5APIntE",
   "parameters" :
   [
    {
     "referenced_type" : "_ZTIj"
    },
    {
     "referenced_type" : "_ZTIRKN4llvm5APIntE"
    }
   ],
   "return_type" : "_ZTIb",
   "source_file" : "external/llvm/include/llvm/ADT/APInt.h"
  },
  {
   "function_name" : "llvm::APIntOps::byteSwap",
   "linker_set_key" : "_ZN4llvm8APIntOps8byteSwapERKNS_5APIntE",
   "parameters" :
   [
    {
     "referenced_type" : "_ZTIRKN4llvm5APIntE"
    }
   ],
   "return_type" : "_ZTIN4llvm5APIntE",
   "source_file" : "external/llvm/include/llvm/ADT/APInt.h"
  },
  {
   "function_name" : "llvm::APIntOps::logBase2",
   "linker_set_key" : "_ZN4llvm8APIntOps8logBase2ERKNS_5APIntE",
   "parameters" :
   [
    {
     "referenced_type" : "_ZTIRKN4llvm5APIntE"
    }
   ],
   "return_type" : "_ZTIj",
   "source_file" : "external/llvm/include/llvm/ADT/APInt.h"
  },
  {
   "function_name" : "llvm::ArrayRef<llvm::Type *>::ArrayRef",
   "linker_set_key" : "_ZN4llvm8ArrayRefIPNS_4TypeEEC1EPKS2_S5_",
   "parameters" :
   [
    {
     "is_this_ptr" : true,
     "referenced_type" : "_ZTIPN4llvm8ArrayRefIPNS_4TypeEEE"
    },
    {
     "referenced_type" : "_ZTIPKPN4llvm4TypeE"
    },
    {
     "referenced_type" : "_ZTIPKPN4llvm4TypeE"
    }
   ],
   "return_type" : "_ZTIv",
   "source_file" : "external/llvm/include/llvm/ADT/ArrayRef.h"
  },
  {
   "function_name" : "llvm::ArrayRef<llvm::Type *>::ArrayRef",
   "linker_set_key" : "_ZN4llvm8ArrayRefIPNS_4TypeEEC2EPKS2_S5_",
   "parameters" :
   [
    {
     "is_this_ptr" : true,
     "referenced_type" : "_ZTIPN4llvm8ArrayRefIPNS_4TypeEEE"
    },
    {
     "referenced_type" : "_ZTIPKPN4llvm4TypeE"
    },
    {
     "referenced_type" : "_ZTIPKPN4llvm4TypeE"
    }
   ],
   "return_type" : "_ZTIv",
   "source_file" : "external/llvm/include/llvm/ADT/ArrayRef.h"
  },
  {
   "access" : "private",
   "function_name" : "llvm::DenseMap<void *, llvm::cl::Option *, llvm::DenseMapInfo<void *>, llvm::detail::DenseMapPair<void *, llvm::cl::Option *>>::setNumEntries",
   "linker_set_key" : "_ZN4llvm8DenseMapIPvPNS_2cl6OptionENS_12DenseMapInfoIS1_EENS_6detail12DenseMapPairIS1_S4_EEE13setNumEntriesEj",
   "parameters" :
   [
    {
     "is_this_ptr" : true,
     "referenced_type" : "_ZTIPN4llvm8DenseMapIPvPNS_2cl6OptionENS_12DenseMapInfoIS1_EENS_6detail12DenseMapPairIS1_S4_EEEE"
    },
    {
     "referenced_type" : "_ZTIj"
    }
   ],
   "return_type" : "_ZTIv",
   "source_file" : "external/llvm/include/llvm/ADT/DenseMap.h"
  },
  {
   "access" : "private",
   "function_name" : "llvm::DenseMap<void *, llvm::cl::Option *, llvm::DenseMapInfo<void *>, llvm::detail::DenseMapPair<void *, llvm::cl::Option *>>::allocateBuckets",
   "linker_set_key" : "_ZN4llvm8DenseMapIPvPNS_2cl6OptionENS_12DenseMapInfoIS1_EENS_6detail12DenseMapPairIS1_S4_EEE15allocateBucketsEj",
   "parameters" :
   [
    {
     "is_this_ptr" : true,
     "referenced_type" : "_ZTIPN4llvm8DenseMapIPvPNS_2cl6OptionENS_12DenseMapInfoIS1_EENS_6detail12DenseMapPairIS1_S4_EEEE"
    },
    {
     "referenced_type" : "_ZTIj"
    }
   ],
   "return_type" : "_ZTIb",
   "source_file" : "external/llvm/include/llvm/ADT/DenseMap.h"
  },
  {
   "access" : "private",
   "function_name" : "llvm::DenseMap<void *, llvm::cl::Option *, llvm::DenseMapInfo<void *>, llvm::detail::DenseMapPair<void *, llvm::cl::Option *>>::setNumTombstones",
   "linker_set_key" : "_ZN4llvm8DenseMapIPvPNS_2cl6OptionENS_12DenseMapInfoIS1_EENS_6detail12DenseMapPairIS1_S4_EEE16setNumTombstonesEj",
   "parameters" :
   [
    {
     "is_this_ptr" : true,
     "referenced_type" : "_ZTIPN4llvm8DenseMapIPvPNS_2cl6OptionENS_12DenseMapInfoIS1_EENS_6detail12DenseMapPairIS1_S4_EEEE"
    },
    {
     "referenced_type" : "_ZTIj"
    }
   ],
   "return_type" : "_ZTIv",
   "source_file" : "external/llvm/include/llvm/ADT/DenseMap.h"
  },
  {
   "function_name" : "llvm::DenseMap<void *, llvm::cl::Option *, llvm::DenseMapInfo<void *>, llvm::detail::DenseMapPair<void *, llvm::cl::Option *>>::init",
   "linker_set_key" : "_ZN4llvm8DenseMapIPvPNS_2cl6OptionENS_12DenseMapInfoIS1_EENS_6detail12DenseMapPairIS1_S4_EEE4initEj",
   "parameters" :
   [
    {
     "is_this_ptr" : true,
     "referenced_type" : "_ZTIPN4llvm8DenseMapIPvPNS_2cl6OptionENS_12DenseMapInfoIS1_EENS_6detail12DenseMapPairIS1_S4_EEEE"
    },
    {
     "referenced_type" : "_ZTIj"
    }
   ],
   "return_type" : "_ZTIv",
   "source_file" : "external/llvm/include/llvm/ADT/DenseMap.h"
  },
  {
   "function_name" : "llvm::DenseMap<void *, llvm::cl::Option *, llvm::DenseMapInfo<void *>, llvm::detail::DenseMapPair<void *, llvm::cl::Option *>>::DenseMap",
   "linker_set_key" : "_ZN4llvm8DenseMapIPvPNS_2cl6OptionENS_12DenseMapInfoIS1_EENS_6detail12DenseMapPairIS1_S4_EEEC1Ej",
   "parameters" :
   [
    {
     "is_this_ptr" : true,
     "referenced_type" : "_ZTIPN4llvm8DenseMapIPvPNS_2cl6OptionENS_12DenseMapInfoIS1_EENS_6detail12DenseMapPairIS1_S4_EEEE"
    },
    {
     "default_arg" : true,
     "referenced_type" : "_ZTIj"
    }
   ],
   "return_type" : "_ZTIv",
   "source_file" : "external/llvm/include/llvm/ADT/DenseMap.h"
  },
  {
   "function_name" : "llvm::DenseMap<void *, llvm::cl::Option *, llvm::DenseMapInfo<void *>, llvm::detail::DenseMapPair<void *, llvm::cl::Option *>>::DenseMap",
   "linker_set_key" : "_ZN4llvm8DenseMapIPvPNS_2cl6OptionENS_12DenseMapInfoIS1_EENS_6detail12DenseMapPairIS1_S4_EEEC2Ej",
   "parameters" :
   [
    {
     "is_this_ptr" : true,
     "referenced_type" : "_ZTIPN4llvm8DenseMapIPvPNS_2cl6OptionENS_12DenseMapInfoIS1_EENS_6detail12DenseMapPairIS1_S4_EEEE"
    },
    {
     "default_arg" : true,
     "referenced_type" : "_ZTIj"
    }
   ],
   "return_type" : "_ZTIv",
   "source_file" : "external/llvm/include/llvm/ADT/DenseMap.h"
  },
  {
   "function_name" : "llvm::DenseMap<void *, llvm::cl::Option *, llvm::DenseMapInfo<void *>, llvm::detail::DenseMapPair<void *, llvm::cl::Option *>>::~DenseMap",
   "linker_set_key" : "_ZN4llvm8DenseMapIPvPNS_2cl6OptionENS_12DenseMapInfoIS1_EENS_6detail12DenseMapPairIS1_S4_EEED1Ev",
   "parameters" :
   [
    {
     "is_this_ptr" : true,
     "referenced_type" : "_ZTIPN4llvm8DenseMapIPvPNS_2cl6OptionENS_12DenseMapInfoIS1_EENS_6detail12DenseMapPairIS1_S4_EEEE"
    }
   ],
   "return_type" : "_ZTIv",
   "source_file" : "external/llvm/include/llvm/ADT/DenseMap.h"
  },
  {
   "function_name" : "llvm::DenseMap<void *, llvm::cl::Option *, llvm::DenseMapInfo<void *>, llvm::detail::DenseMapPair<void *, llvm::cl::Option *>>::~DenseMap",
   "linker_set_key" : "_ZN4llvm8DenseMapIPvPNS_2cl6OptionENS_12DenseMapInfoIS1_EENS_6detail12DenseMapPairIS1_S4_EEED2Ev",
   "parameters" :
   [
    {
     "is_this_ptr" : true,
     "referenced_type" : "_ZTIPN4llvm8DenseMapIPvPNS_2cl6OptionENS_12DenseMapInfoIS1_EENS_6detail12DenseMapPairIS1_S4_EEEE"
    }
   ],
   "return_type" : "_ZTIv",
   "source_file" : "external/llvm/include/llvm/ADT/DenseMap.h"
  },
  {
   "function_name" : "llvm::MinAlign",
   "linker_set_key" : "_ZN4llvm8MinAlignEmm",
   "parameters" :
   [
    {
     "referenced_type" : "_ZTIm"
    },
    {
     "referenced_type" : "_ZTIm"
    }
   ],
   "return_type" : "_ZTIm",
   "source_file" : "external/llvm/include/llvm/Support/MathExtras.h"
  },
  {
   "function_name" : "llvm::dyn_cast",
   "linker_set_key" : "_ZN4llvm8dyn_castINS_10VectorTypeENS_4TypeEEENS_10cast_rettyIT_PT0_E8ret_typeES6_",
   "parameters" :
   [
    {
     "referenced_type" : "_ZTIPN4llvm4TypeE"
    }
   ],
   "return_type" : "_ZTIPN4llvm10VectorTypeE",
   "source_file" : "external/llvm/include/llvm/Support/Casting.h",
   "template_args" : [ "_ZTIN4llvm10VectorTypeE", "_ZTIN4llvm4TypeE" ]
  },
  {
   "function_name" : "llvm::dyn_cast",
   "linker_set_key" : "_ZN4llvm8dyn_castINS_11IntegerTypeENS_4TypeEEENS_10cast_rettyIT_PT0_E8ret_typeES6_",
   "parameters" :
   [
    {
     "referenced_type" : "_ZTIPN4llvm4TypeE"
    }
   ],
   "return_type" : "_ZTIPN4llvm11IntegerTypeE",
   "source_file" : "external/llvm/include/llvm/Support/Casting.h",
   "template_args" : [ "_ZTIN4llvm11IntegerTypeE", "_ZTIN4llvm4TypeE" ]
  },
  {
   "function_name" : "llvm::isa_impl<llvm::VectorType, llvm::Type, void>::doit",
   "linker_set_key" : "_ZN4llvm8isa_implINS_10VectorTypeENS_4TypeEvE4doitERKS2_",
   "parameters" :
   [
    {
     "referenced_type" : "_ZTIRKN4llvm4TypeE"
    }
   ],
   "return_type" : "_ZTIb",
   "source_file" : "external/llvm/include/llvm/Support/Casting.h"
  },
  {
   "function_name" : "llvm::isa_impl<llvm::IntegerType, llvm::Type, void>::doit",
   "linker_set_key" : "_ZN4llvm8isa_implINS_11IntegerTypeENS_4TypeEvE4doitERKS2_",
   "parameters" :
   [
    {
     "referenced_type" : "_ZTIRKN4llvm4TypeE"
    }
   ],
   "return_type" : "_ZTIb",
   "source_file" : "external/llvm/include/llvm/Support/Casting.h"
  },
  {
   "function_name" : "llvm::isa_impl<llvm::PointerType, llvm::Type, void>::doit",
   "linker_set_key" : "_ZN4llvm8isa_implINS_11PointerTypeENS_4TypeEvE4doitERKS2_",
   "parameters" :
   [
    {
     "referenced_type" : "_ZTIRKN4llvm4TypeE"
    }
   ],
   "return_type" : "_ZTIb",
   "source_file" : "external/llvm/include/llvm/IR/Type.h"
  },
  {
   "function_name" : "llvm::maxUIntN",
   "linker_set_key" : "_ZN4llvm8maxUIntNEm",
   "parameters" :
   [
    {
     "referenced_type" : "_ZTIm"
    }
   ],
   "return_type" : "_ZTIm",
   "source_file" : "external/llvm/include/llvm/Support/MathExtras.h"
  },
  {
   "function_name" : "llvm::ArrayType::classof",
   "linker_set_key" : "_ZN4llvm9ArrayType7classofEPKNS_4TypeE",
   "parameters" :
   [
    {
     "referenced_type" : "_ZTIPKN4llvm4TypeE"
    }
   ],
   "return_type" : "_ZTIb",
   "source_file" : "external/llvm/include/llvm/IR/DerivedTypes.h"
  },
  {
   "function_name" : "llvm::StringMap<llvm::cl::Option *, llvm::MallocAllocator>::StringMap",
   "linker_set_key" : "_ZN4llvm9StringMapIPNS_2cl6OptionENS_15MallocAllocatorEEC1Ev",
   "parameters" :
   [
    {
     "is_this_ptr" : true,
     "referenced_type" : "_ZTIPN4llvm9StringMapIPNS_2cl6OptionENS_15MallocAllocatorEEE"
    }
   ],
   "return_type" : "_ZTIv",
   "source_file" : "external/llvm/include/llvm/ADT/StringMap.h"
  },
  {
   "function_name" : "llvm::StringMap<llvm::cl::Option *, llvm::MallocAllocator>::StringMap",
   "linker_set_key" : "_ZN4llvm9StringMapIPNS_2cl6OptionENS_15MallocAllocatorEEC2Ev",
   "parameters" :
   [
    {
     "is_this_ptr" : true,
     "referenced_type" : "_ZTIPN4llvm9StringMapIPNS_2cl6OptionENS_15MallocAllocatorEEE"
    }
   ],
   "return_type" : "_ZTIv",
   "source_file" : "external/llvm/include/llvm/ADT/StringMap.h"
  },
  {
   "function_name" : "llvm::StringMap<llvm::cl::Option *, llvm::MallocAllocator>::~StringMap",
   "linker_set_key" : "_ZN4llvm9StringMapIPNS_2cl6OptionENS_15MallocAllocatorEED1Ev",
   "parameters" :
   [
    {
     "is_this_ptr" : true,
     "referenced_type" : "_ZTIPN4llvm9StringMapIPNS_2cl6OptionENS_15MallocAllocatorEEE"
    }
   ],
   "return_type" : "_ZTIv",
   "source_file" : "external/llvm/include/llvm/ADT/StringMap.h"
  },
  {
   "function_name" : "llvm::StringMap<llvm::cl::Option *, llvm::MallocAllocator>::~StringMap",
   "linker_set_key" : "_ZN4llvm9StringMapIPNS_2cl6OptionENS_15MallocAllocatorEED2Ev",
   "parameters" :
   [
    {
     "is_this_ptr" : true,
     "referenced_type" : "_ZTIPN4llvm9StringMapIPNS_2cl6OptionENS_15MallocAllocatorEEE"
    }
   ],
   "return_type" : "_ZTIv",
   "source_file" : "external/llvm/include/llvm/ADT/StringMap.h"
  },
  {
   "access" : "private",
   "function_name" : "llvm::StringRef::compareMemory",
   "linker_set_key" : "_ZN4llvm9StringRef13compareMemoryEPKcS2_m",
   "parameters" :
   [
    {
     "referenced_type" : "_ZTIPKc"
    },
    {
     "referenced_type" : "_ZTIPKc"
    },
    {
     "referenced_type" : "_ZTIm"
    }
   ],
   "return_type" : "_ZTIi",
   "source_file" : "external/llvm/include/llvm/ADT/StringRef.h"
  },
  {
   "function_name" : "llvm::StringRef::StringRef",
   "linker_set_key" : "_ZN4llvm9StringRefC1EPKc",
   "parameters" :
   [
    {
     "is_this_ptr" : true,
     "referenced_type" : "_ZTIPN4llvm9StringRefE"
    },
    {
     "referenced_type" : "_ZTIPKc"
    }
   ],
   "return_type" : "_ZTIv",
   "source_file" : "external/llvm/include/llvm/ADT/StringRef.h"
  },
  {
   "function_name" : "llvm::StringRef::StringRef",
   "linker_set_key" : "_ZN4llvm9StringRefC1EPKcm",
   "parameters" :
   [
    {
     "is_this_ptr" : true,
     "referenced_type" : "_ZTIPN4llvm9StringRefE"
    },
    {
     "referenced_type" : "_ZTIPKc"
    },
    {
     "referenced_type" : "_ZTIm"
    }
   ],
   "return_type" : "_ZTIv",
   "source_file" : "external/llvm/include/llvm/ADT/StringRef.h"
  },
  {
   "function_name" : "llvm::StringRef::StringRef",
   "linker_set_key" : "_ZN4llvm9StringRefC1ERKNSt3__112basic_stringIcNS1_11char_traitsIcEENS1_9allocatorIcEEEE",
   "parameters" :
   [
    {
     "is_this_ptr" : true,
     "referenced_type" : "_ZTIPN4llvm9StringRefE"
    },
    {
     "referenced_type" : "_ZTIRKNSt3__112basic_stringIcNS_11char_traitsIcEENS_9allocatorIcEEEE"
    }
   ],
   "return_type" : "_ZTIv",
   "source_file" : "external/llvm/include/llvm/ADT/StringRef.h"
  },
  {
   "function_name" : "llvm::StringRef::StringRef",
   "linker_set_key" : "_ZN4llvm9StringRefC1Ev",
   "parameters" :
   [
    {
     "is_this_ptr" : true,
     "referenced_type" : "_ZTIPN4llvm9StringRefE"
    }
   ],
   "return_type" : "_ZTIv",
   "source_file" : "external/llvm/include/llvm/ADT/StringRef.h"
  },
  {
   "function_name" : "llvm::StringRef::StringRef",
   "linker_set_key" : "_ZN4llvm9StringRefC2EPKc",
   "parameters" :
   [
    {
     "is_this_ptr" : true,
     "referenced_type" : "_ZTIPN4llvm9StringRefE"
    },
    {
     "referenced_type" : "_ZTIPKc"
    }
   ],
   "return_type" : "_ZTIv",
   "source_file" : "external/llvm/include/llvm/ADT/StringRef.h"
  },
  {
   "function_name" : "llvm::StringRef::StringRef",
   "linker_set_key" : "_ZN4llvm9StringRefC2EPKcm",
   "parameters" :
   [
    {
     "is_this_ptr" : true,
     "referenced_type" : "_ZTIPN4llvm9StringRefE"
    },
    {
     "referenced_type" : "_ZTIPKc"
    },
    {
     "referenced_type" : "_ZTIm"
    }
   ],
   "return_type" : "_ZTIv",
   "source_file" : "external/llvm/include/llvm/ADT/StringRef.h"
  },
  {
   "function_name" : "llvm::StringRef::StringRef",
   "linker_set_key" : "_ZN4llvm9StringRefC2ERKNSt3__112basic_stringIcNS1_11char_traitsIcEENS1_9allocatorIcEEEE",
   "parameters" :
   [
    {
     "is_this_ptr" : true,
     "referenced_type" : "_ZTIPN4llvm9StringRefE"
    },
    {
     "referenced_type" : "_ZTIRKNSt3__112basic_stringIcNS_11char_traitsIcEENS_9allocatorIcEEEE"
    }
   ],
   "return_type" : "_ZTIv",
   "source_file" : "external/llvm/include/llvm/ADT/StringRef.h"
  },
  {
   "function_name" : "llvm::StringRef::StringRef",
   "linker_set_key" : "_ZN4llvm9StringRefC2Ev",
   "parameters" :
   [
    {
     "is_this_ptr" : true,
     "referenced_type" : "_ZTIPN4llvm9StringRefE"
    }
   ],
   "return_type" : "_ZTIv",
   "source_file" : "external/llvm/include/llvm/ADT/StringRef.h"
  },
  {
   "function_name" : "llvm::alignAddr",
   "linker_set_key" : "_ZN4llvm9alignAddrEPKvm",
   "parameters" :
   [
    {
     "referenced_type" : "_ZTIPKv"
    },
    {
     "referenced_type" : "_ZTIm"
    }
   ],
   "return_type" : "_ZTIm",
   "source_file" : "external/llvm/include/llvm/Support/MathExtras.h"
  },
  {
   "function_name" : "llvm::alignDown",
   "linker_set_key" : "_ZN4llvm9alignDownEmmm",
   "parameters" :
   [
    {
     "referenced_type" : "_ZTIm"
    },
    {
     "referenced_type" : "_ZTIm"
    },
    {
     "default_arg" : true,
     "referenced_type" : "_ZTIm"
    }
   ],
   "return_type" : "_ZTIm",
   "source_file" : "external/llvm/include/llvm/Support/MathExtras.h"
  },
  {
   "function_name" : "llvm::hash_code::hash_code",
   "linker_set_key" : "_ZN4llvm9hash_codeC1Em",
   "parameters" :
   [
    {
     "is_this_ptr" : true,
     "referenced_type" : "_ZTIPN4llvm9hash_codeE"
    },
    {
     "referenced_type" : "_ZTIm"
    }
   ],
   "return_type" : "_ZTIv",
   "source_file" : "external/llvm/include/llvm/ADT/Hashing.h"
  },
  {
   "function_name" : "llvm::hash_code::hash_code",
   "linker_set_key" : "_ZN4llvm9hash_codeC1Ev",
   "parameters" :
   [
    {
     "is_this_ptr" : true,
     "referenced_type" : "_ZTIPN4llvm9hash_codeE"
    }
   ],
   "return_type" : "_ZTIv",
   "source_file" : "external/llvm/include/llvm/ADT/Hashing.h"
  },
  {
   "function_name" : "llvm::hash_code::hash_code",
   "linker_set_key" : "_ZN4llvm9hash_codeC2Em",
   "parameters" :
   [
    {
     "is_this_ptr" : true,
     "referenced_type" : "_ZTIPN4llvm9hash_codeE"
    },
    {
     "referenced_type" : "_ZTIm"
    }
   ],
   "return_type" : "_ZTIv",
   "source_file" : "external/llvm/include/llvm/ADT/Hashing.h"
  },
  {
   "function_name" : "llvm::hash_code::hash_code",
   "linker_set_key" : "_ZN4llvm9hash_codeC2Ev",
   "parameters" :
   [
    {
     "is_this_ptr" : true,
     "referenced_type" : "_ZTIPN4llvm9hash_codeE"
    }
   ],
   "return_type" : "_ZTIv",
   "source_file" : "external/llvm/include/llvm/ADT/Hashing.h"
  },
  {
   "function_name" : "llvm::isMask_32",
   "linker_set_key" : "_ZN4llvm9isMask_32Ej",
   "parameters" :
   [
    {
     "referenced_type" : "_ZTIj"
    }
   ],
   "return_type" : "_ZTIb",
   "source_file" : "external/llvm/include/llvm/Support/MathExtras.h"
  },
  {
   "function_name" : "llvm::isMask_64",
   "linker_set_key" : "_ZN4llvm9isMask_64Em",
   "parameters" :
   [
    {
     "referenced_type" : "_ZTIm"
    }
   ],
   "return_type" : "_ZTIb",
   "source_file" : "external/llvm/include/llvm/Support/MathExtras.h"
  },
  {
   "function_name" : "llvm::operator==",
   "linker_set_key" : "_ZN4llvmeqENS_9StringRefES0_",
   "parameters" :
   [
    {
     "referenced_type" : "_ZTIN4llvm9StringRefE"
    },
    {
     "referenced_type" : "_ZTIN4llvm9StringRefE"
    }
   ],
   "return_type" : "_ZTIb",
   "source_file" : "external/llvm/include/llvm/ADT/StringRef.h"
  },
  {
   "function_name" : "llvm::operator==",
   "linker_set_key" : "_ZN4llvmeqERKNS_9hash_codeES2_",
   "parameters" :
   [
    {
     "referenced_type" : "_ZTIRKN4llvm9hash_codeE"
    },
    {
     "referenced_type" : "_ZTIRKN4llvm9hash_codeE"
    }
   ],
   "return_type" : "_ZTIb",
   "source_file" : "external/llvm/include/llvm/ADT/Hashing.h"
  },
  {
   "function_name" : "llvm::operator==",
   "linker_set_key" : "_ZN4llvmeqEmRKNS_5APIntE",
   "parameters" :
   [
    {
     "referenced_type" : "_ZTIm"
    },
    {
     "referenced_type" : "_ZTIRKN4llvm5APIntE"
    }
   ],
   "return_type" : "_ZTIb",
   "source_file" : "external/llvm/include/llvm/ADT/APInt.h"
  },
  {
   "function_name" : "llvm::operator>=",
   "linker_set_key" : "_ZN4llvmgeENS_9StringRefES0_",
   "parameters" :
   [
    {
     "referenced_type" : "_ZTIN4llvm9StringRefE"
    },
    {
     "referenced_type" : "_ZTIN4llvm9StringRefE"
    }
   ],
   "return_type" : "_ZTIb",
   "source_file" : "external/llvm/include/llvm/ADT/StringRef.h"
  },
  {
   "function_name" : "llvm::operator>",
   "linker_set_key" : "_ZN4llvmgtENS_9StringRefES0_",
   "parameters" :
   [
    {
     "referenced_type" : "_ZTIN4llvm9StringRefE"
    },
    {
     "referenced_type" : "_ZTIN4llvm9StringRefE"
    }
   ],
   "return_type" : "_ZTIb",
   "source_file" : "external/llvm/include/llvm/ADT/StringRef.h"
  },
  {
   "function_name" : "llvm::operator<=",
   "linker_set_key" : "_ZN4llvmleENS_9StringRefES0_",
   "parameters" :
   [
    {
     "referenced_type" : "_ZTIN4llvm9StringRefE"
    },
    {
     "referenced_type" : "_ZTIN4llvm9StringRefE"
    }
   ],
   "return_type" : "_ZTIb",
   "source_file" : "external/llvm/include/llvm/ADT/StringRef.h"
  },
  {
   "function_name" : "llvm::operator<<",
   "linker_set_key" : "_ZN4llvmlsERNS_11raw_ostreamERKNS_5APIntE",
   "parameters" :
   [
    {
     "referenced_type" : "_ZTIRN4llvm11raw_ostreamE"
    },
    {
     "referenced_type" : "_ZTIRKN4llvm5APIntE"
    }
   ],
   "return_type" : "_ZTIRN4llvm11raw_ostreamE",
   "source_file" : "external/llvm/include/llvm/ADT/APInt.h"
  },
  {
   "function_name" : "llvm::operator<<",
   "linker_set_key" : "_ZN4llvmlsERNS_11raw_ostreamERKNS_5TwineE",
   "parameters" :
   [
    {
     "referenced_type" : "_ZTIRN4llvm11raw_ostreamE"
    },
    {
     "referenced_type" : "_ZTIRKN4llvm5TwineE"
    }
   ],
   "return_type" : "_ZTIRN4llvm11raw_ostreamE",
   "source_file" : "external/llvm/include/llvm/ADT/Twine.h"
  },
  {
   "function_name" : "llvm::operator<",
   "linker_set_key" : "_ZN4llvmltENS_9StringRefES0_",
   "parameters" :
   [
    {
     "referenced_type" : "_ZTIN4llvm9StringRefE"
    },
    {
     "referenced_type" : "_ZTIN4llvm9StringRefE"
    }
   ],
   "return_type" : "_ZTIb",
   "source_file" : "external/llvm/include/llvm/ADT/StringRef.h"
  },
  {
   "function_name" : "llvm::operator!=",
   "linker_set_key" : "_ZN4llvmneENS_9StringRefES0_",
   "parameters" :
   [
    {
     "referenced_type" : "_ZTIN4llvm9StringRefE"
    },
    {
     "referenced_type" : "_ZTIN4llvm9StringRefE"
    }
   ],
   "return_type" : "_ZTIb",
   "source_file" : "external/llvm/include/llvm/ADT/StringRef.h"
  },
  {
   "function_name" : "llvm::operator!=",
   "linker_set_key" : "_ZN4llvmneERKNS_9hash_codeES2_",
   "parameters" :
   [
    {
     "referenced_type" : "_ZTIRKN4llvm9hash_codeE"
    },
    {
     "referenced_type" : "_ZTIRKN4llvm9hash_codeE"
    }
   ],
   "return_type" : "_ZTIb",
   "source_file" : "external/llvm/include/llvm/ADT/Hashing.h"
  },
  {
   "function_name" : "llvm::operator!=",
   "linker_set_key" : "_ZN4llvmneEmRKNS_5APIntE",
   "parameters" :
   [
    {
     "referenced_type" : "_ZTIm"
    },
    {
     "referenced_type" : "_ZTIRKN4llvm5APIntE"
    }
   ],
   "return_type" : "_ZTIb",
   "source_file" : "external/llvm/include/llvm/ADT/APInt.h"
  },
  {
   "function_name" : "llvm::operator+=",
   "linker_set_key" : "_ZN4llvmpLERNSt3__112basic_stringIcNS0_11char_traitsIcEENS0_9allocatorIcEEEENS_9StringRefE",
   "parameters" :
   [
    {
     "referenced_type" : "_ZTIRNSt3__112basic_stringIcNS_11char_traitsIcEENS_9allocatorIcEEEE"
    },
    {
     "referenced_type" : "_ZTIN4llvm9StringRefE"
    }
   ],
   "return_type" : "_ZTIRNSt3__112basic_stringIcNS_11char_traitsIcEENS_9allocatorIcEEEE",
   "source_file" : "external/llvm/include/llvm/ADT/StringRef.h"
  },
  {
   "function_name" : "llvm::operator+",
   "linker_set_key" : "_ZN4llvmplEPKcRKNS_9StringRefE",
   "parameters" :
   [
    {
     "referenced_type" : "_ZTIPKc"
    },
    {
     "referenced_type" : "_ZTIRKN4llvm9StringRefE"
    }
   ],
   "return_type" : "_ZTIN4llvm5TwineE",
   "source_file" : "external/llvm/include/llvm/ADT/Twine.h"
  },
  {
   "function_name" : "llvm::operator+",
   "linker_set_key" : "_ZN4llvmplERKNS_5TwineES2_",
   "parameters" :
   [
    {
     "referenced_type" : "_ZTIRKN4llvm5TwineE"
    },
    {
     "referenced_type" : "_ZTIRKN4llvm5TwineE"
    }
   ],
   "return_type" : "_ZTIN4llvm5TwineE",
   "source_file" : "external/llvm/include/llvm/ADT/Twine.h"
  },
  {
   "function_name" : "llvm::operator+",
   "linker_set_key" : "_ZN4llvmplERKNS_9StringRefEPKc",
   "parameters" :
   [
    {
     "referenced_type" : "_ZTIRKN4llvm9StringRefE"
    },
    {
     "referenced_type" : "_ZTIPKc"
    }
   ],
   "return_type" : "_ZTIN4llvm5TwineE",
   "source_file" : "external/llvm/include/llvm/ADT/Twine.h"
  },
  {
   "function_name" : "llvm::StructType::element_end",
   "linker_set_key" : "_ZNK4llvm10StructType11element_endEv",
   "parameters" :
   [
    {
     "is_this_ptr" : true,
     "referenced_type" : "_ZTIPKN4llvm10StructTypeE"
    }
   ],
   "return_type" : "_ZTIPKPN4llvm4TypeE",
   "source_file" : "external/llvm/include/llvm/IR/DerivedTypes.h"
  },
  {
   "function_name" : "llvm::StructType::element_begin",
   "linker_set_key" : "_ZNK4llvm10StructType13element_beginEv",
   "parameters" :
   [
    {
     "is_this_ptr" : true,
     "referenced_type" : "_ZTIPKN4llvm10StructTypeE"
    }
   ],
   "return_type" : "_ZTIPKPN4llvm4TypeE",
   "source_file" : "external/llvm/include/llvm/IR/DerivedTypes.h"
  },
  {
   "function_name" : "llvm::StructType::getElementType",
   "linker_set_key" : "_ZNK4llvm10StructType14getElementTypeEj",
   "parameters" :
   [
    {
     "is_this_ptr" : true,
     "referenced_type" : "_ZTIPKN4llvm10StructTypeE"
    },
    {
     "referenced_type" : "_ZTIj"
    }
   ],
   "return_type" : "_ZTIPN4llvm4TypeE",
   "source_file" : "external/llvm/include/llvm/IR/DerivedTypes.h"
  },
  {
   "function_name" : "llvm::StructType::getNumElements",
   "linker_set_key" : "_ZNK4llvm10StructType14getNumElementsEv",
   "parameters" :
   [
    {
     "is_this_ptr" : true,
     "referenced_type" : "_ZTIPKN4llvm10StructTypeE"
    }
   ],
   "return_type" : "_ZTIj",
   "source_file" : "external/llvm/include/llvm/IR/DerivedTypes.h"
  },
  {
   "function_name" : "llvm::StructType::hasName",
   "linker_set_key" : "_ZNK4llvm10StructType7hasNameEv",
   "parameters" :
   [
    {
     "is_this_ptr" : true,
     "referenced_type" : "_ZTIPKN4llvm10StructTypeE"
    }
   ],
   "return_type" : "_ZTIb",
   "source_file" : "external/llvm/include/llvm/IR/DerivedTypes.h"
  },
  {
   "function_name" : "llvm::StructType::elements",
   "linker_set_key" : "_ZNK4llvm10StructType8elementsEv",
   "parameters" :
   [
    {
     "is_this_ptr" : true,
     "referenced_type" : "_ZTIPKN4llvm10StructTypeE"
    }
   ],
   "return_type" : "_ZTIKN4llvm8ArrayRefIPNS_4TypeEEE",
   "source_file" : "external/llvm/include/llvm/IR/DerivedTypes.h"
  },
  {
   "function_name" : "llvm::StructType::isOpaque",
   "linker_set_key" : "_ZNK4llvm10StructType8isOpaqueEv",
   "parameters" :
   [
    {
     "is_this_ptr" : true,
     "referenced_type" : "_ZTIPKN4llvm10StructTypeE"
    }
   ],
   "return_type" : "_ZTIb",
   "source_file" : "external/llvm/include/llvm/IR/DerivedTypes.h"
  },
  {
   "function_name" : "llvm::StructType::isPacked",
   "linker_set_key" : "_ZNK4llvm10StructType8isPackedEv",
   "parameters" :
   [
    {
     "is_this_ptr" : true,
     "referenced_type" : "_ZTIPKN4llvm10StructTypeE"
    }
   ],
   "return_type" : "_ZTIb",
   "source_file" : "external/llvm/include/llvm/IR/DerivedTypes.h"
  },
  {
   "function_name" : "llvm::StructType::isLiteral",
   "linker_set_key" : "_ZNK4llvm10StructType9isLiteralEv",
   "parameters" :
   [
    {
     "is_this_ptr" : true,
     "referenced_type" : "_ZTIPKN4llvm10StructTypeE"
    }
   ],
   "return_type" : "_ZTIb",
   "source_file" : "external/llvm/include/llvm/IR/DerivedTypes.h"
  },
  {
   "function_name" : "llvm::VectorType::getBitWidth",
   "linker_set_key" : "_ZNK4llvm10VectorType11getBitWidthEv",
   "parameters" :
   [
    {
     "is_this_ptr" : true,
     "referenced_type" : "_ZTIPKN4llvm10VectorTypeE"
    }
   ],
   "return_type" : "_ZTIj",
   "source_file" : "external/llvm/include/llvm/IR/DerivedTypes.h"
  },
  {
   "function_name" : "llvm::VectorType::getNumElements",
   "linker_set_key" : "_ZNK4llvm10VectorType14getNumElementsEv",
   "parameters" :
   [
    {
     "is_this_ptr" : true,
     "referenced_type" : "_ZTIPKN4llvm10VectorTypeE"
    }
   ],
   "return_type" : "_ZTIj",
   "source_file" : "external/llvm/include/llvm/IR/DerivedTypes.h"
  },
  {
   "function_name" : "llvm::IntegerType::getBitMask",
   "linker_set_key" : "_ZNK4llvm11IntegerType10getBitMaskEv",
   "parameters" :
   [
    {
     "is_this_ptr" : true,
     "referenced_type" : "_ZTIPKN4llvm11IntegerTypeE"
    }
   ],
   "return_type" : "_ZTIm",
   "source_file" : "external/llvm/include/llvm/IR/DerivedTypes.h"
  },
  {
   "function_name" : "llvm::IntegerType::getSignBit",
   "linker_set_key" : "_ZNK4llvm11IntegerType10getSignBitEv",
   "parameters" :
   [
    {
     "is_this_ptr" : true,
     "referenced_type" : "_ZTIPKN4llvm11IntegerTypeE"
    }
   ],
   "return_type" : "_ZTIm",
   "source_file" : "external/llvm/include/llvm/IR/DerivedTypes.h"
  },
  {
   "function_name" : "llvm::IntegerType::getBitWidth",
   "linker_set_key" : "_ZNK4llvm11IntegerType11getBitWidthEv",
   "parameters" :
   [
    {
     "is_this_ptr" : true,
     "referenced_type" : "_ZTIPKN4llvm11IntegerTypeE"
    }
   ],
   "return_type" : "_ZTIj",
   "source_file" : "external/llvm/include/llvm/IR/DerivedTypes.h"
  },
  {
   "function_name" : "llvm::PointerType::getAddressSpace",
   "linker_set_key" : "_ZNK4llvm11PointerType15getAddressSpaceEv",
   "parameters" :
   [
    {
     "is_this_ptr" : true,
     "referenced_type" : "_ZTIPKN4llvm11PointerTypeE"
    }
   ],
   "return_type" : "_ZTIj",
   "source_file" : "external/llvm/include/llvm/IR/DerivedTypes.h"
  },
  {
   "access" : "private",
   "function_name" : "llvm::DenseMapBase<llvm::DenseMap<void *, llvm::cl::Option *, llvm::DenseMapInfo<void *>, llvm::detail::DenseMapPair<void *, llvm::cl::Option *>>, void *, llvm::cl::Option *, llvm::DenseMapInfo<void *>, llvm::detail::DenseMapPair<void *, llvm::cl::Option *>>::getNumBuckets",
   "linker_set_key" : "_ZNK4llvm12DenseMapBaseINS_8DenseMapIPvPNS_2cl6OptionENS_12DenseMapInfoIS2_EENS_6detail12DenseMapPairIS2_S5_EEEES2_S5_S7_SA_E13getNumBucketsEv",
   "parameters" :
   [
    {
     "is_this_ptr" : true,
     "referenced_type" : "_ZTIPKN4llvm12DenseMapBaseINS_8DenseMapIPvPNS_2cl6OptionENS_12DenseMapInfoIS2_EENS_6detail12DenseMapPairIS2_S5_EEEES2_S5_S7_SA_EE"
    }
   ],
   "return_type" : "_ZTIj",
   "source_file" : "external/llvm/include/llvm/ADT/DenseMap.h"
  },
  {
   "function_name" : "llvm::FunctionType::param_begin",
   "linker_set_key" : "_ZNK4llvm12FunctionType11param_beginEv",
   "parameters" :
   [
    {
     "is_this_ptr" : true,
     "referenced_type" : "_ZTIPKN4llvm12FunctionTypeE"
    }
   ],
   "return_type" : "_ZTIPKPN4llvm4TypeE",
   "source_file" : "external/llvm/include/llvm/IR/DerivedTypes.h"
  },
  {
   "function_name" : "llvm::FunctionType::getNumParams",
   "linker_set_key" : "_ZNK4llvm12FunctionType12getNumParamsEv",
   "parameters" :
   [
    {
     "is_this_ptr" : true,
     "referenced_type" : "_ZTIPKN4llvm12FunctionTypeE"
    }
   ],
   "return_type" : "_ZTIj",
   "source_file" : "external/llvm/include/llvm/IR/DerivedTypes.h"
  },
  {
   "function_name" : "llvm::FunctionType::getParamType",
   "linker_set_key" : "_ZNK4llvm12FunctionType12getParamTypeEj",
   "parameters" :
   [
    {
     "is_this_ptr" : true,
     "referenced_type" : "_ZTIPKN4llvm12FunctionTypeE"
    },
    {
     "referenced_type" : "_ZTIj"
    }
   ],
   "return_type" : "_ZTIPN4llvm4TypeE",
   "source_file" : "external/llvm/include/llvm/IR/DerivedTypes.h"
  },
  {
   "function_name" : "llvm::FunctionType::getReturnType",
   "linker_set_key" : "_ZNK4llvm12FunctionType13getReturnTypeEv",
   "parameters" :
   [
    {
     "is_this_ptr" : true,
     "referenced_type" : "_ZTIPKN4llvm12FunctionTypeE"
    }
   ],
   "return_type" : "_ZTIPN4llvm4TypeE",
   "source_file" : "external/llvm/include/llvm/IR/DerivedTypes.h"
  },
  {
   "function_name" : "llvm::FunctionType::params",
   "linker_set_key" : "_ZNK4llvm12FunctionType6paramsEv",
   "parameters" :
   [
    {
     "is_this_ptr" : true,
     "referenced_type" : "_ZTIPKN4llvm12FunctionTypeE"
    }
   ],
   "return_type" : "_ZTIN4llvm8ArrayRefIPNS_4TypeEEE",
   "source_file" : "external/llvm/include/llvm/IR/DerivedTypes.h"
  },
  {
   "function_name" : "llvm::FunctionType::isVarArg",
   "linker_set_key" : "_ZNK4llvm12FunctionType8isVarArgEv",
   "parameters" :
   [
    {
     "is_this_ptr" : true,
     "referenced_type" : "_ZTIPKN4llvm12FunctionTypeE"
    }
   ],
   "return_type" : "_ZTIb",
   "source_file" : "external/llvm/include/llvm/IR/DerivedTypes.h"
  },
  {
   "function_name" : "llvm::FunctionType::param_end",
   "linker_set_key" : "_ZNK4llvm12FunctionType9param_endEv",
   "parameters" :
   [
    {
     "is_this_ptr" : true,
     "referenced_type" : "_ZTIPKN4llvm12FunctionTypeE"
    }
   ],
   "return_type" : "_ZTIPKPN4llvm4TypeE",
   "source_file" : "external/llvm/include/llvm/IR/DerivedTypes.h"
  },
  {
   "function_name" : "llvm::StringMapImpl::getNumItems",
   "linker_set_key" : "_ZNK4llvm13StringMapImpl11getNumItemsEv",
   "parameters" :
   [
    {
     "is_this_ptr" : true,
     "referenced_type" : "_ZTIPKN4llvm13StringMapImplE"
    }
   ],
   "return_type" : "_ZTIj",
   "source_file" : "external/llvm/include/llvm/ADT/StringMap.h"
  },
  {
   "function_name" : "llvm::StringMapImpl::getNumBuckets",
   "linker_set_key" : "_ZNK4llvm13StringMapImpl13getNumBucketsEv",
   "parameters" :
   [
    {
     "is_this_ptr" : true,
     "referenced_type" : "_ZTIPKN4llvm13StringMapImplE"
    }
   ],
   "return_type" : "_ZTIj",
   "source_file" : "external/llvm/include/llvm/ADT/StringMap.h"
  },
  {
   "function_name" : "llvm::StringMapImpl::size",
   "linker_set_key" : "_ZNK4llvm13StringMapImpl4sizeEv",
   "parameters" :
   [
    {
     "is_this_ptr" : true,
     "referenced_type" : "_ZTIPKN4llvm13StringMapImplE"
    }
   ],
   "return_type" : "_ZTIj",
   "source_file" : "external/llvm/include/llvm/ADT/StringMap.h"
  },
  {
   "function_name" : "llvm::StringMapImpl::empty",
   "linker_set_key" : "_ZNK4llvm13StringMapImpl5emptyEv",
   "parameters" :
   [
    {
     "is_this_ptr" : true,
     "referenced_type" : "_ZTIPKN4llvm13StringMapImplE"
    }
   ],
   "return_type" : "_ZTIb",
   "source_file" : "external/llvm/include/llvm/ADT/StringMap.h"
  },
  {
   "function_name" : "llvm::DebugEpochBase::HandleBase::isHandleInSync",
   "linker_set_key" : "_ZNK4llvm14DebugEpochBase10HandleBase14isHandleInSyncEv",
   "parameters" :
   [
    {
     "is_this_ptr" : true,
     "referenced_type" : "_ZTIPKN4llvm14DebugEpochBase10HandleBaseE"
    }
   ],
   "return_type" : "_ZTIb",
   "source_file" : "external/llvm/include/llvm/ADT/EpochTracker.h"
  },
  {
   "function_name" : "llvm::DebugEpochBase::HandleBase::getEpochAddress",
   "linker_set_key" : "_ZNK4llvm14DebugEpochBase10HandleBase15getEpochAddressEv",
   "parameters" :
   [
    {
     "is_this_ptr" : true,
     "referenced_type" : "_ZTIPKN4llvm14DebugEpochBase10HandleBaseE"
    }
   ],
   "return_type" : "_ZTIPKv",
   "source_file" : "external/llvm/include/llvm/ADT/EpochTracker.h"
  },
  {
   "function_name" : "llvm::SequentialType::getElementType",
   "linker_set_key" : "_ZNK4llvm14SequentialType14getElementTypeEv",
   "parameters" :
   [
    {
     "is_this_ptr" : true,
     "referenced_type" : "_ZTIPKN4llvm14SequentialTypeE"
    }
   ],
   "return_type" : "_ZTIPN4llvm4TypeE",
   "source_file" : "external/llvm/include/llvm/IR/DerivedTypes.h"
  },
  {
   "function_name" : "llvm::MallocAllocator::PrintStats",
   "linker_set_key" : "_ZNK4llvm15MallocAllocator10PrintStatsEv",
   "parameters" :
   [
    {
     "is_this_ptr" : true,
     "referenced_type" : "_ZTIPKN4llvm15MallocAllocatorE"
    }
   ],
   "return_type" : "_ZTIv",
   "source_file" : "external/llvm/include/llvm/Support/Allocator.h"
  },
  {
   "function_name" : "llvm::SmallPtrSetImpl<llvm::cl::SubCommand *>::end",
   "linker_set_key" : "_ZNK4llvm15SmallPtrSetImplIPNS_2cl10SubCommandEE3endEv",
   "parameters" :
   [
    {
     "is_this_ptr" : true,
     "referenced_type" : "_ZTIPKN4llvm15SmallPtrSetImplIPNS_2cl10SubCommandEEE"
    }
   ],
   "return_type" : "_ZTIN4llvm19SmallPtrSetIteratorIPNS_2cl10SubCommandEEE",
   "source_file" : "external/llvm/include/llvm/ADT/SmallPtrSet.h"
  },
  {
   "function_name" : "llvm::SmallPtrSetImpl<llvm::cl::SubCommand *>::begin",
   "linker_set_key" : "_ZNK4llvm15SmallPtrSetImplIPNS_2cl10SubCommandEE5beginEv",
   "parameters" :
   [
    {
     "is_this_ptr" : true,
     "referenced_type" : "_ZTIPKN4llvm15SmallPtrSetImplIPNS_2cl10SubCommandEEE"
    }
   ],
   "return_type" : "_ZTIN4llvm19SmallPtrSetIteratorIPNS_2cl10SubCommandEEE",
   "source_file" : "external/llvm/include/llvm/ADT/SmallPtrSet.h"
  },
  {
   "function_name" : "llvm::SmallVectorBase::size_in_bytes",
   "linker_set_key" : "_ZNK4llvm15SmallVectorBase13size_in_bytesEv",
   "parameters" :
   [
    {
     "is_this_ptr" : true,
     "referenced_type" : "_ZTIPKN4llvm15SmallVectorBaseE"
    }
   ],
   "return_type" : "_ZTIm",
   "source_file" : "external/llvm/include/llvm/ADT/SmallVector.h"
  },
  {
   "function_name" : "llvm::SmallVectorBase::capacity_in_bytes",
   "linker_set_key" : "_ZNK4llvm15SmallVectorBase17capacity_in_bytesEv",
   "parameters" :
   [
    {
     "is_this_ptr" : true,
     "referenced_type" : "_ZTIPKN4llvm15SmallVectorBaseE"
    }
   ],
   "return_type" : "_ZTIm",
   "source_file" : "external/llvm/include/llvm/ADT/SmallVector.h"
  },
  {
   "function_name" : "llvm::SmallVectorBase::empty",
   "linker_set_key" : "_ZNK4llvm15SmallVectorBase5emptyEv",
   "parameters" :
   [
    {
     "is_this_ptr" : true,
     "referenced_type" : "_ZTIPKN4llvm15SmallVectorBaseE"
    }
   ],
   "return_type" : "_ZTIb",
   "source_file" : "external/llvm/include/llvm/ADT/SmallVector.h"
  },
  {
   "function_name" : "llvm::ManagedStaticBase::isConstructed",
   "linker_set_key" : "_ZNK4llvm17ManagedStaticBase13isConstructedEv",
   "parameters" :
   [
    {
     "is_this_ptr" : true,
     "referenced_type" : "_ZTIPKN4llvm17ManagedStaticBaseE"
    }
   ],
   "return_type" : "_ZTIb",
   "source_file" : "external/llvm/include/llvm/Support/ManagedStatic.h"
  },
  {
   "function_name" : "llvm::StringMapEntryBase::getKeyLength",
   "linker_set_key" : "_ZNK4llvm18StringMapEntryBase12getKeyLengthEv",
   "parameters" :
   [
    {
     "is_this_ptr" : true,
     "referenced_type" : "_ZTIPKN4llvm18StringMapEntryBaseE"
    }
   ],
   "return_type" : "_ZTIj",
   "source_file" : "external/llvm/include/llvm/ADT/StringMap.h"
  },
  {
   "access" : "protected",
   "function_name" : "llvm::SmallPtrSetImplBase::EndPointer",
   "linker_set_key" : "_ZNK4llvm19SmallPtrSetImplBase10EndPointerEv",
   "parameters" :
   [
    {
     "is_this_ptr" : true,
     "referenced_type" : "_ZTIPKN4llvm19SmallPtrSetImplBaseE"
    }
   ],
   "return_type" : "_ZTIPPKv",
   "source_file" : "external/llvm/include/llvm/ADT/SmallPtrSet.h"
  },
  {
   "function_name" : "llvm::SmallPtrSetImplBase::size",
   "linker_set_key" : "_ZNK4llvm19SmallPtrSetImplBase4sizeEv",
   "parameters" :
   [
    {
     "is_this_ptr" : true,
     "referenced_type" : "_ZTIPKN4llvm19SmallPtrSetImplBaseE"
    }
   ],
   "return_type" : "_ZTIj",
   "source_file" : "external/llvm/include/llvm/ADT/SmallPtrSet.h"
  },
  {
   "function_name" : "llvm::SmallPtrSetImplBase::empty",
   "linker_set_key" : "_ZNK4llvm19SmallPtrSetImplBase5emptyEv",
   "parameters" :
   [
    {
     "is_this_ptr" : true,
     "referenced_type" : "_ZTIPKN4llvm19SmallPtrSetImplBaseE"
    }
   ],
   "return_type" : "_ZTIb",
   "source_file" : "external/llvm/include/llvm/ADT/SmallPtrSet.h"
  },
  {
   "access" : "private",
   "function_name" : "llvm::SmallPtrSetImplBase::isSmall",
   "linker_set_key" : "_ZNK4llvm19SmallPtrSetImplBase7isSmallEv",
   "parameters" :
   [
    {
     "is_this_ptr" : true,
     "referenced_type" : "_ZTIPKN4llvm19SmallPtrSetImplBaseE"
    }
   ],
   "return_type" : "_ZTIb",
   "source_file" : "external/llvm/include/llvm/ADT/SmallPtrSet.h"
  },
  {
   "access" : "protected",
   "function_name" : "llvm::SmallPtrSetImplBase::count_imp",
   "linker_set_key" : "_ZNK4llvm19SmallPtrSetImplBase9count_impEPKv",
   "parameters" :
   [
    {
     "is_this_ptr" : true,
     "referenced_type" : "_ZTIPKN4llvm19SmallPtrSetImplBaseE"
    },
    {
     "referenced_type" : "_ZTIPKv"
    }
   ],
   "return_type" : "_ZTIb",
   "source_file" : "external/llvm/include/llvm/ADT/SmallPtrSet.h"
  },
  {
   "function_name" : "llvm::SmallPtrSetIterator<llvm::cl::SubCommand *>::operator*",
   "linker_set_key" : "_ZNK4llvm19SmallPtrSetIteratorIPNS_2cl10SubCommandEEdeEv",
   "parameters" :
   [
    {
     "is_this_ptr" : true,
     "referenced_type" : "_ZTIPKN4llvm19SmallPtrSetIteratorIPNS_2cl10SubCommandEEE"
    }
   ],
   "return_type" : "_ZTIKPN4llvm2cl10SubCommandE",
   "source_file" : "external/llvm/include/llvm/ADT/SmallPtrSet.h"
  },
  {
   "function_name" : "llvm::SmallPtrSetIteratorImpl::operator==",
   "linker_set_key" : "_ZNK4llvm23SmallPtrSetIteratorImpleqERKS0_",
   "parameters" :
   [
    {
     "is_this_ptr" : true,
     "referenced_type" : "_ZTIPKN4llvm23SmallPtrSetIteratorImplE"
    },
    {
     "referenced_type" : "_ZTIRKN4llvm23SmallPtrSetIteratorImplE"
    }
   ],
   "return_type" : "_ZTIb",
   "source_file" : "external/llvm/include/llvm/ADT/SmallPtrSet.h"
  },
  {
   "function_name" : "llvm::SmallPtrSetIteratorImpl::operator!=",
   "linker_set_key" : "_ZNK4llvm23SmallPtrSetIteratorImplneERKS0_",
   "parameters" :
   [
    {
     "is_this_ptr" : true,
     "referenced_type" : "_ZTIPKN4llvm23SmallPtrSetIteratorImplE"
    },
    {
     "referenced_type" : "_ZTIRKN4llvm23SmallPtrSetIteratorImplE"
    }
   ],
   "return_type" : "_ZTIb",
   "source_file" : "external/llvm/include/llvm/ADT/SmallPtrSet.h"
  },
  {
   "access" : "protected",
   "function_name" : "llvm::SmallVectorTemplateCommon<llvm::cl::Option *, void>::isSmall",
   "linker_set_key" : "_ZNK4llvm25SmallVectorTemplateCommonIPNS_2cl6OptionEvE7isSmallEv",
   "parameters" :
   [
    {
     "is_this_ptr" : true,
     "referenced_type" : "_ZTIPKN4llvm25SmallVectorTemplateCommonIPNS_2cl6OptionEvEE"
    }
   ],
   "return_type" : "_ZTIb",
   "source_file" : "external/llvm/include/llvm/ADT/SmallVector.h"
  },
  {
   "function_name" : "llvm::SmallVectorTemplateCommon<char, void>::end",
   "linker_set_key" : "_ZNK4llvm25SmallVectorTemplateCommonIcvE3endEv",
   "parameters" :
   [
    {
     "is_this_ptr" : true,
     "referenced_type" : "_ZTIPKN4llvm25SmallVectorTemplateCommonIcvEE"
    }
   ],
   "return_type" : "_ZTIPKc",
   "source_file" : "external/llvm/include/llvm/ADT/SmallVector.h"
  },
  {
   "function_name" : "llvm::SmallVectorTemplateCommon<char, void>::data",
   "linker_set_key" : "_ZNK4llvm25SmallVectorTemplateCommonIcvE4dataEv",
   "parameters" :
   [
    {
     "is_this_ptr" : true,
     "referenced_type" : "_ZTIPKN4llvm25SmallVectorTemplateCommonIcvEE"
    }
   ],
   "return_type" : "_ZTIPKc",
   "source_file" : "external/llvm/include/llvm/ADT/SmallVector.h"
  },
  {
   "function_name" : "llvm::SmallVectorTemplateCommon<char, void>::size",
   "linker_set_key" : "_ZNK4llvm25SmallVectorTemplateCommonIcvE4sizeEv",
   "parameters" :
   [
    {
     "is_this_ptr" : true,
     "referenced_type" : "_ZTIPKN4llvm25SmallVectorTemplateCommonIcvEE"
    }
   ],
   "return_type" : "_ZTIm",
   "source_file" : "external/llvm/include/llvm/ADT/SmallVector.h"
  },
  {
   "function_name" : "llvm::SmallVectorTemplateCommon<char, void>::begin",
   "linker_set_key" : "_ZNK4llvm25SmallVectorTemplateCommonIcvE5beginEv",
   "parameters" :
   [
    {
     "is_this_ptr" : true,
     "referenced_type" : "_ZTIPKN4llvm25SmallVectorTemplateCommonIcvEE"
    }
   ],
   "return_type" : "_ZTIPKc",
   "source_file" : "external/llvm/include/llvm/ADT/SmallVector.h"
  },
  {
   "function_name" : "llvm::cl::SubCommand::getDescription",
   "linker_set_key" : "_ZNK4llvm2cl10SubCommand14getDescriptionEv",
   "parameters" :
   [
    {
     "is_this_ptr" : true,
     "referenced_type" : "_ZTIPKN4llvm2cl10SubCommandE"
    }
   ],
   "return_type" : "_ZTIPKc",
   "source_file" : "external/llvm/include/llvm/Support/CommandLine.h"
  },
  {
   "function_name" : "llvm::cl::SubCommand::getName",
   "linker_set_key" : "_ZNK4llvm2cl10SubCommand7getNameEv",
   "parameters" :
   [
    {
     "is_this_ptr" : true,
     "referenced_type" : "_ZTIPKN4llvm2cl10SubCommandE"
    }
   ],
   "return_type" : "_ZTIPKc",
   "source_file" : "external/llvm/include/llvm/Support/CommandLine.h"
  },
  {
   "function_name" : "llvm::cl::value_desc::apply",
   "linker_set_key" : "_ZNK4llvm2cl10value_desc5applyERNS0_6OptionE",
   "parameters" :
   [
    {
     "is_this_ptr" : true,
     "referenced_type" : "_ZTIPKN4llvm2cl10value_descE"
    },
    {
     "referenced_type" : "_ZTIRN4llvm2cl6OptionE"
    }
   ],
   "return_type" : "_ZTIv",
   "source_file" : "external/llvm/include/llvm/Support/CommandLine.h"
  },
  {
   "function_name" : "llvm::cl::OptionCategory::getDescription",
   "linker_set_key" : "_ZNK4llvm2cl14OptionCategory14getDescriptionEv",
   "parameters" :
   [
    {
     "is_this_ptr" : true,
     "referenced_type" : "_ZTIPKN4llvm2cl14OptionCategoryE"
    }
   ],
   "return_type" : "_ZTIPKc",
   "source_file" : "external/llvm/include/llvm/Support/CommandLine.h"
  },
  {
   "function_name" : "llvm::cl::OptionCategory::getName",
   "linker_set_key" : "_ZNK4llvm2cl14OptionCategory7getNameEv",
   "parameters" :
   [
    {
     "is_this_ptr" : true,
     "referenced_type" : "_ZTIPKN4llvm2cl14OptionCategoryE"
    }
   ],
   "return_type" : "_ZTIPKc",
   "source_file" : "external/llvm/include/llvm/Support/CommandLine.h"
  },
  {
   "function_name" : "llvm::cl::OptionValueCopy<llvm::cl::boolOrDefault>::compare",
   "linker_set_key" : "_ZNK4llvm2cl15OptionValueCopyINS0_13boolOrDefaultEE7compareERKNS0_18GenericOptionValueE",
   "parameters" :
   [
    {
     "is_this_ptr" : true,
     "referenced_type" : "_ZTIPKN4llvm2cl15OptionValueCopyINS0_13boolOrDefaultEEE"
    },
    {
     "referenced_type" : "_ZTIRKN4llvm2cl18GenericOptionValueE"
    }
   ],
   "return_type" : "_ZTIb",
   "source_file" : "external/llvm/include/llvm/Support/CommandLine.h"
  },
  {
   "function_name" : "llvm::cl::OptionValueCopy<llvm::cl::boolOrDefault>::compare",
   "linker_set_key" : "_ZNK4llvm2cl15OptionValueCopyINS0_13boolOrDefaultEE7compareERKS2_",
   "parameters" :
   [
    {
     "is_this_ptr" : true,
     "referenced_type" : "_ZTIPKN4llvm2cl15OptionValueCopyINS0_13boolOrDefaultEEE"
    },
    {
     "referenced_type" : "_ZTIRKN4llvm2cl13boolOrDefaultE"
    }
   ],
   "return_type" : "_ZTIb",
   "source_file" : "external/llvm/include/llvm/Support/CommandLine.h"
  },
  {
   "function_name" : "llvm::cl::OptionValueCopy<llvm::cl::boolOrDefault>::getValue",
   "linker_set_key" : "_ZNK4llvm2cl15OptionValueCopyINS0_13boolOrDefaultEE8getValueEv",
   "parameters" :
   [
    {
     "is_this_ptr" : true,
     "referenced_type" : "_ZTIPKN4llvm2cl15OptionValueCopyINS0_13boolOrDefaultEEE"
    }
   ],
   "return_type" : "_ZTIRKN4llvm2cl13boolOrDefaultE",
   "source_file" : "external/llvm/include/llvm/Support/CommandLine.h"
  },
  {
   "function_name" : "llvm::cl::OptionValueCopy<llvm::cl::boolOrDefault>::hasValue",
   "linker_set_key" : "_ZNK4llvm2cl15OptionValueCopyINS0_13boolOrDefaultEE8hasValueEv",
   "parameters" :
   [
    {
     "is_this_ptr" : true,
     "referenced_type" : "_ZTIPKN4llvm2cl15OptionValueCopyINS0_13boolOrDefaultEEE"
    }
   ],
   "return_type" : "_ZTIb",
   "source_file" : "external/llvm/include/llvm/Support/CommandLine.h"
  },
  {
   "function_name" : "llvm::cl::OptionValueCopy<std::__1::basic_string<char>>::compare",
   "linker_set_key" : "_ZNK4llvm2cl15OptionValueCopyINSt3__112basic_stringIcNS2_11char_traitsIcEENS2_9allocatorIcEEEEE7compareERKNS0_18GenericOptionValueE",
   "parameters" :
   [
    {
     "is_this_ptr" : true,
     "referenced_type" : "_ZTIPKN4llvm2cl15OptionValueCopyINSt3__112basic_stringIcNS2_11char_traitsIcEENS2_9allocatorIcEEEEEE"
    },
    {
     "referenced_type" : "_ZTIRKN4llvm2cl18GenericOptionValueE"
    }
   ],
   "return_type" : "_ZTIb",
   "source_file" : "external/llvm/include/llvm/Support/CommandLine.h"
  },
  {
   "function_name" : "llvm::cl::OptionValueCopy<std::__1::basic_string<char>>::compare",
   "linker_set_key" : "_ZNK4llvm2cl15OptionValueCopyINSt3__112basic_stringIcNS2_11char_traitsIcEENS2_9allocatorIcEEEEE7compareERKS8_",
   "parameters" :
   [
    {
     "is_this_ptr" : true,
     "referenced_type" : "_ZTIPKN4llvm2cl15OptionValueCopyINSt3__112basic_stringIcNS2_11char_traitsIcEENS2_9allocatorIcEEEEEE"
    },
    {
     "referenced_type" : "_ZTIRKNSt3__112basic_stringIcNS_11char_traitsIcEENS_9allocatorIcEEEE"
    }
   ],
   "return_type" : "_ZTIb",
   "source_file" : "external/llvm/include/llvm/Support/CommandLine.h"
  },
  {
   "function_name" : "llvm::cl::OptionValueCopy<std::__1::basic_string<char>>::getValue",
   "linker_set_key" : "_ZNK4llvm2cl15OptionValueCopyINSt3__112basic_stringIcNS2_11char_traitsIcEENS2_9allocatorIcEEEEE8getValueEv",
   "parameters" :
   [
    {
     "is_this_ptr" : true,
     "referenced_type" : "_ZTIPKN4llvm2cl15OptionValueCopyINSt3__112basic_stringIcNS2_11char_traitsIcEENS2_9allocatorIcEEEEEE"
    }
   ],
   "return_type" : "_ZTIRKNSt3__112basic_stringIcNS_11char_traitsIcEENS_9allocatorIcEEEE",
   "source_file" : "external/llvm/include/llvm/Support/CommandLine.h"
  },
  {
   "function_name" : "llvm::cl::OptionValueCopy<std::__1::basic_string<char>>::hasValue",
   "linker_set_key" : "_ZNK4llvm2cl15OptionValueCopyINSt3__112basic_stringIcNS2_11char_traitsIcEENS2_9allocatorIcEEEEE8hasValueEv",
   "parameters" :
   [
    {
     "is_this_ptr" : true,
     "referenced_type" : "_ZTIPKN4llvm2cl15OptionValueCopyINSt3__112basic_stringIcNS2_11char_traitsIcEENS2_9allocatorIcEEEEEE"
    }
   ],
   "return_type" : "_ZTIb",
   "source_file" : "external/llvm/include/llvm/Support/CommandLine.h"
  },
  {
   "function_name" : "llvm::cl::basic_parser_impl::getValueName",
   "linker_set_key" : "_ZNK4llvm2cl17basic_parser_impl12getValueNameEv",
   "parameters" :
   [
    {
     "is_this_ptr" : true,
     "referenced_type" : "_ZTIPKN4llvm2cl17basic_parser_implE"
    }
   ],
   "return_type" : "_ZTIPKc",
   "source_file" : "external/llvm/include/llvm/Support/CommandLine.h"
  },
  {
   "function_name" : "llvm::cl::basic_parser_impl::getValueExpectedFlagDefault",
   "linker_set_key" : "_ZNK4llvm2cl17basic_parser_impl27getValueExpectedFlagDefaultEv",
   "parameters" :
   [
    {
     "is_this_ptr" : true,
     "referenced_type" : "_ZTIPKN4llvm2cl17basic_parser_implE"
    }
   ],
   "return_type" : "_ZTIN4llvm2cl13ValueExpectedE",
   "source_file" : "external/llvm/include/llvm/Support/CommandLine.h"
  },
  {
   "function_name" : "llvm::cl::generic_parser_base::getValueExpectedFlagDefault",
   "linker_set_key" : "_ZNK4llvm2cl19generic_parser_base27getValueExpectedFlagDefaultEv",
   "parameters" :
   [
    {
     "is_this_ptr" : true,
     "referenced_type" : "_ZTIPKN4llvm2cl19generic_parser_baseE"
    }
   ],
   "return_type" : "_ZTIN4llvm2cl13ValueExpectedE",
   "source_file" : "external/llvm/include/llvm/Support/CommandLine.h"
  },
  {
   "function_name" : "llvm::cl::desc::apply",
   "linker_set_key" : "_ZNK4llvm2cl4desc5applyERNS0_6OptionE",
   "parameters" :
   [
    {
     "is_this_ptr" : true,
     "referenced_type" : "_ZTIPKN4llvm2cl4descE"
    },
    {
     "referenced_type" : "_ZTIRN4llvm2cl6OptionE"
    }
   ],
   "return_type" : "_ZTIv",
   "source_file" : "external/llvm/include/llvm/Support/CommandLine.h"
  },
  {
   "access" : "private",
   "function_name" : "llvm::cl::alias::printOptionValue",
   "linker_set_key" : "_ZNK4llvm2cl5alias16printOptionValueEmb",
   "parameters" :
   [
    {
     "is_this_ptr" : true,
     "referenced_type" : "_ZTIPKN4llvm2cl5aliasE"
    },
    {
     "referenced_type" : "_ZTIm"
    },
    {
     "referenced_type" : "_ZTIb"
    }
   ],
   "return_type" : "_ZTIv",
   "source_file" : "external/llvm/include/llvm/Support/CommandLine.h"
  },
  {
   "access" : "private",
   "function_name" : "llvm::cl::alias::getValueExpectedFlagDefault",
   "linker_set_key" : "_ZNK4llvm2cl5alias27getValueExpectedFlagDefaultEv",
   "parameters" :
   [
    {
     "is_this_ptr" : true,
     "referenced_type" : "_ZTIPKN4llvm2cl5aliasE"
    }
   ],
   "return_type" : "_ZTIN4llvm2cl13ValueExpectedE",
   "source_file" : "external/llvm/include/llvm/Support/CommandLine.h"
  },
  {
   "function_name" : "llvm::cl::Option::getPosition",
   "linker_set_key" : "_ZNK4llvm2cl6Option11getPositionEv",
   "parameters" :
   [
    {
     "is_this_ptr" : true,
     "referenced_type" : "_ZTIPKN4llvm2cl6OptionE"
    }
   ],
   "return_type" : "_ZTIj",
   "source_file" : "external/llvm/include/llvm/Support/CommandLine.h"
  },
  {
   "function_name" : "llvm::cl::Option::getMiscFlags",
   "linker_set_key" : "_ZNK4llvm2cl6Option12getMiscFlagsEv",
   "parameters" :
   [
    {
     "is_this_ptr" : true,
     "referenced_type" : "_ZTIPKN4llvm2cl6OptionE"
    }
   ],
   "return_type" : "_ZTIj",
   "source_file" : "external/llvm/include/llvm/Support/CommandLine.h"
  },
  {
   "function_name" : "llvm::cl::Option::isPositional",
   "linker_set_key" : "_ZNK4llvm2cl6Option12isPositionalEv",
   "parameters" :
   [
    {
     "is_this_ptr" : true,
     "referenced_type" : "_ZTIPKN4llvm2cl6OptionE"
    }
   ],
   "return_type" : "_ZTIb",
   "source_file" : "external/llvm/include/llvm/Support/CommandLine.h"
  },
  {
   "function_name" : "llvm::cl::Option::isConsumeAfter",
   "linker_set_key" : "_ZNK4llvm2cl6Option14isConsumeAfterEv",
   "parameters" :
   [
    {
     "is_this_ptr" : true,
     "referenced_type" : "_ZTIPKN4llvm2cl6OptionE"
    }
   ],
   "return_type" : "_ZTIb",
   "source_file" : "external/llvm/include/llvm/Support/CommandLine.h"
  },
  {
   "function_name" : "llvm::cl::Option::getFormattingFlag",
   "linker_set_key" : "_ZNK4llvm2cl6Option17getFormattingFlagEv",
   "parameters" :
   [
    {
     "is_this_ptr" : true,
     "referenced_type" : "_ZTIPKN4llvm2cl6OptionE"
    }
   ],
   "return_type" : "_ZTIN4llvm2cl15FormattingFlagsE",
   "source_file" : "external/llvm/include/llvm/Support/CommandLine.h"
  },
  {
   "function_name" : "llvm::cl::Option::getNumOccurrences",
   "linker_set_key" : "_ZNK4llvm2cl6Option17getNumOccurrencesEv",
   "parameters" :
   [
    {
     "is_this_ptr" : true,
     "referenced_type" : "_ZTIPKN4llvm2cl6OptionE"
    }
   ],
   "return_type" : "_ZTIi",
   "source_file" : "external/llvm/include/llvm/Support/CommandLine.h"
  },
  {
   "function_name" : "llvm::cl::Option::isInAllSubCommands",
   "linker_set_key" : "_ZNK4llvm2cl6Option18isInAllSubCommandsEv",
   "parameters" :
   [
    {
     "is_this_ptr" : true,
     "referenced_type" : "_ZTIPKN4llvm2cl6OptionE"
    }
   ],
   "return_type" : "_ZTIb",
   "source_file" : "external/llvm/include/llvm/Support/CommandLine.h"
  },
  {
   "function_name" : "llvm::cl::Option::getOptionHiddenFlag",
   "linker_set_key" : "_ZNK4llvm2cl6Option19getOptionHiddenFlagEv",
   "parameters" :
   [
    {
     "is_this_ptr" : true,
     "referenced_type" : "_ZTIPKN4llvm2cl6OptionE"
    }
   ],
   "return_type" : "_ZTIN4llvm2cl12OptionHiddenE",
   "source_file" : "external/llvm/include/llvm/Support/CommandLine.h"
  },
  {
   "function_name" : "llvm::cl::Option::getNumAdditionalVals",
   "linker_set_key" : "_ZNK4llvm2cl6Option20getNumAdditionalValsEv",
   "parameters" :
   [
    {
     "is_this_ptr" : true,
     "referenced_type" : "_ZTIPKN4llvm2cl6OptionE"
    }
   ],
   "return_type" : "_ZTIj",
   "source_file" : "external/llvm/include/llvm/Support/CommandLine.h"
  },
  {
   "function_name" : "llvm::cl::Option::getValueExpectedFlag",
   "linker_set_key" : "_ZNK4llvm2cl6Option20getValueExpectedFlagEv",
   "parameters" :
   [
    {
     "is_this_ptr" : true,
     "referenced_type" : "_ZTIPKN4llvm2cl6OptionE"
    }
   ],
   "return_type" : "_ZTIN4llvm2cl13ValueExpectedE",
   "source_file" : "external/llvm/include/llvm/Support/CommandLine.h"
  },
  {
   "function_name" : "llvm::cl::Option::getNumOccurrencesFlag",
   "linker_set_key" : "_ZNK4llvm2cl6Option21getNumOccurrencesFlagEv",
   "parameters" :
   [
    {
     "is_this_ptr" : true,
     "referenced_type" : "_ZTIPKN4llvm2cl6OptionE"
    }
   ],
   "return_type" : "_ZTIN4llvm2cl18NumOccurrencesFlagE",
   "source_file" : "external/llvm/include/llvm/Support/CommandLine.h"
  },
  {
   "access" : "private",
   "function_name" : "llvm::cl::Option::getValueExpectedFlagDefault",
   "linker_set_key" : "_ZNK4llvm2cl6Option27getValueExpectedFlagDefaultEv",
   "parameters" :
   [
    {
     "is_this_ptr" : true,
     "referenced_type" : "_ZTIPKN4llvm2cl6OptionE"
    }
   ],
   "return_type" : "_ZTIN4llvm2cl13ValueExpectedE",
   "source_file" : "external/llvm/include/llvm/Support/CommandLine.h"
  },
  {
   "function_name" : "llvm::cl::Option::isSink",
   "linker_set_key" : "_ZNK4llvm2cl6Option6isSinkEv",
   "parameters" :
   [
    {
     "is_this_ptr" : true,
     "referenced_type" : "_ZTIPKN4llvm2cl6OptionE"
    }
   ],
   "return_type" : "_ZTIb",
   "source_file" : "external/llvm/include/llvm/Support/CommandLine.h"
  },
  {
   "function_name" : "llvm::cl::Option::hasArgStr",
   "linker_set_key" : "_ZNK4llvm2cl6Option9hasArgStrEv",
   "parameters" :
   [
    {
     "is_this_ptr" : true,
     "referenced_type" : "_ZTIPKN4llvm2cl6OptionE"
    }
   ],
   "return_type" : "_ZTIb",
   "source_file" : "external/llvm/include/llvm/Support/CommandLine.h"
  },
  {
   "function_name" : "llvm::cl::parser<llvm::cl::boolOrDefault>::getValueName",
   "linker_set_key" : "_ZNK4llvm2cl6parserINS0_13boolOrDefaultEE12getValueNameEv",
   "parameters" :
   [
    {
     "is_this_ptr" : true,
     "referenced_type" : "_ZTIPKN4llvm2cl6parserINS0_13boolOrDefaultEEE"
    }
   ],
   "return_type" : "_ZTIPKc",
   "source_file" : "external/llvm/include/llvm/Support/CommandLine.h"
  },
  {
   "function_name" : "llvm::cl::parser<llvm::cl::boolOrDefault>::getValueExpectedFlagDefault",
   "linker_set_key" : "_ZNK4llvm2cl6parserINS0_13boolOrDefaultEE27getValueExpectedFlagDefaultEv",
   "parameters" :
   [
    {
     "is_this_ptr" : true,
     "referenced_type" : "_ZTIPKN4llvm2cl6parserINS0_13boolOrDefaultEEE"
    }
   ],
   "return_type" : "_ZTIN4llvm2cl13ValueExpectedE",
   "source_file" : "external/llvm/include/llvm/Support/CommandLine.h"
  },
  {
   "function_name" : "llvm::cl::parser<std::__1::basic_string<char>>::getValueName",
   "linker_set_key" : "_ZNK4llvm2cl6parserINSt3__112basic_stringIcNS2_11char_traitsIcEENS2_9allocatorIcEEEEE12getValueNameEv",
   "parameters" :
   [
    {
     "is_this_ptr" : true,
     "referenced_type" : "_ZTIPKN4llvm2cl6parserINSt3__112basic_stringIcNS2_11char_traitsIcEENS2_9allocatorIcEEEEEE"
    }
   ],
   "return_type" : "_ZTIPKc",
   "source_file" : "external/llvm/include/llvm/Support/CommandLine.h"
  },
  {
   "function_name" : "llvm::cl::parser<bool>::getValueName",
   "linker_set_key" : "_ZNK4llvm2cl6parserIbE12getValueNameEv",
   "parameters" :
   [
    {
     "is_this_ptr" : true,
     "referenced_type" : "_ZTIPKN4llvm2cl6parserIbEE"
    }
   ],
   "return_type" : "_ZTIPKc",
   "source_file" : "external/llvm/include/llvm/Support/CommandLine.h"
  },
  {
   "function_name" : "llvm::cl::parser<bool>::getValueExpectedFlagDefault",
   "linker_set_key" : "_ZNK4llvm2cl6parserIbE27getValueExpectedFlagDefaultEv",
   "parameters" :
   [
    {
     "is_this_ptr" : true,
     "referenced_type" : "_ZTIPKN4llvm2cl6parserIbEE"
    }
   ],
   "return_type" : "_ZTIN4llvm2cl13ValueExpectedE",
   "source_file" : "external/llvm/include/llvm/Support/CommandLine.h"
  },
  {
   "function_name" : "llvm::cl::parser<char>::getValueName",
   "linker_set_key" : "_ZNK4llvm2cl6parserIcE12getValueNameEv",
   "parameters" :
   [
    {
     "is_this_ptr" : true,
     "referenced_type" : "_ZTIPKN4llvm2cl6parserIcEE"
    }
   ],
   "return_type" : "_ZTIPKc",
   "source_file" : "external/llvm/include/llvm/Support/CommandLine.h"
  },
  {
   "function_name" : "llvm::cl::parser<double>::getValueName",
   "linker_set_key" : "_ZNK4llvm2cl6parserIdE12getValueNameEv",
   "parameters" :
   [
    {
     "is_this_ptr" : true,
     "referenced_type" : "_ZTIPKN4llvm2cl6parserIdEE"
    }
   ],
   "return_type" : "_ZTIPKc",
   "source_file" : "external/llvm/include/llvm/Support/CommandLine.h"
  },
  {
   "function_name" : "llvm::cl::parser<float>::getValueName",
   "linker_set_key" : "_ZNK4llvm2cl6parserIfE12getValueNameEv",
   "parameters" :
   [
    {
     "is_this_ptr" : true,
     "referenced_type" : "_ZTIPKN4llvm2cl6parserIfEE"
    }
   ],
   "return_type" : "_ZTIPKc",
   "source_file" : "external/llvm/include/llvm/Support/CommandLine.h"
  },
  {
   "function_name" : "llvm::cl::parser<int>::getValueName",
   "linker_set_key" : "_ZNK4llvm2cl6parserIiE12getValueNameEv",
   "parameters" :
   [
    {
     "is_this_ptr" : true,
     "referenced_type" : "_ZTIPKN4llvm2cl6parserIiEE"
    }
   ],
   "return_type" : "_ZTIPKc",
   "source_file" : "external/llvm/include/llvm/Support/CommandLine.h"
  },
  {
   "function_name" : "llvm::cl::parser<unsigned int>::getValueName",
   "linker_set_key" : "_ZNK4llvm2cl6parserIjE12getValueNameEv",
   "parameters" :
   [
    {
     "is_this_ptr" : true,
     "referenced_type" : "_ZTIPKN4llvm2cl6parserIjEE"
    }
   ],
   "return_type" : "_ZTIPKc",
   "source_file" : "external/llvm/include/llvm/Support/CommandLine.h"
  },
  {
   "function_name" : "llvm::cl::parser<unsigned long long>::getValueName",
   "linker_set_key" : "_ZNK4llvm2cl6parserIyE12getValueNameEv",
   "parameters" :
   [
    {
     "is_this_ptr" : true,
     "referenced_type" : "_ZTIPKN4llvm2cl6parserIyEE"
    }
   ],
   "return_type" : "_ZTIPKc",
   "source_file" : "external/llvm/include/llvm/Support/CommandLine.h"
  },
  {
   "function_name" : "llvm::cl::aliasopt::apply",
   "linker_set_key" : "_ZNK4llvm2cl8aliasopt5applyERNS0_5aliasE",
   "parameters" :
   [
    {
     "is_this_ptr" : true,
     "referenced_type" : "_ZTIPKN4llvm2cl8aliasoptE"
    },
    {
     "referenced_type" : "_ZTIRN4llvm2cl5aliasE"
    }
   ],
   "return_type" : "_ZTIv",
   "source_file" : "external/llvm/include/llvm/Support/CommandLine.h"
  },
  {
   "function_name" : "llvm::EVT::getRawBits",
   "linker_set_key" : "_ZNK4llvm3EVT10getRawBitsEv",
   "parameters" :
   [
    {
     "is_this_ptr" : true,
     "referenced_type" : "_ZTIPKN4llvm3EVTE"
    }
   ],
   "return_type" : "_ZTIl",
   "source_file" : "external/llvm/include/llvm/CodeGen/ValueTypes.h"
  },
  {
   "function_name" : "llvm::EVT::isExtended",
   "linker_set_key" : "_ZNK4llvm3EVT10isExtendedEv",
   "parameters" :
   [
    {
     "is_this_ptr" : true,
     "referenced_type" : "_ZTIPKN4llvm3EVTE"
    }
   ],
   "return_type" : "_ZTIb",
   "source_file" : "external/llvm/include/llvm/CodeGen/ValueTypes.h"
  },
  {
   "function_name" : "llvm::EVT::getSimpleVT",
   "linker_set_key" : "_ZNK4llvm3EVT11getSimpleVTEv",
   "parameters" :
   [
    {
     "is_this_ptr" : true,
     "referenced_type" : "_ZTIPKN4llvm3EVTE"
    }
   ],
   "return_type" : "_ZTIN4llvm3MVTE",
   "source_file" : "external/llvm/include/llvm/CodeGen/ValueTypes.h"
  },
  {
   "function_name" : "llvm::EVT::isByteSized",
   "linker_set_key" : "_ZNK4llvm3EVT11isByteSizedEv",
   "parameters" :
   [
    {
     "is_this_ptr" : true,
     "referenced_type" : "_ZTIPKN4llvm3EVTE"
    }
   ],
   "return_type" : "_ZTIb",
   "source_file" : "external/llvm/include/llvm/CodeGen/ValueTypes.h"
  },
  {
   "function_name" : "llvm::EVT::getEVTString",
   "linker_set_key" : "_ZNK4llvm3EVT12getEVTStringEv",
   "parameters" :
   [
    {
     "is_this_ptr" : true,
     "referenced_type" : "_ZTIPKN4llvm3EVTE"
    }
   ],
   "return_type" : "_ZTINSt3__112basic_stringIcNS_11char_traitsIcEENS_9allocatorIcEEEE",
   "source_file" : "external/llvm/include/llvm/CodeGen/ValueTypes.h"
  },
  {
   "function_name" : "llvm::EVT::getStoreSize",
   "linker_set_key" : "_ZNK4llvm3EVT12getStoreSizeEv",
   "parameters" :
   [
    {
     "is_this_ptr" : true,
     "referenced_type" : "_ZTIPKN4llvm3EVTE"
    }
   ],
   "return_type" : "_ZTIj",
   "source_file" : "external/llvm/include/llvm/CodeGen/ValueTypes.h"
  },
  {
   "function_name" : "llvm::EVT::isOverloaded",
   "linker_set_key" : "_ZNK4llvm3EVT12isOverloadedEv",
   "parameters" :
   [
    {
     "is_this_ptr" : true,
     "referenced_type" : "_ZTIPKN4llvm3EVTE"
    }
   ],
   "return_type" : "_ZTIb",
   "source_file" : "external/llvm/include/llvm/CodeGen/ValueTypes.h"
  },
  {
   "function_name" : "llvm::EVT::getScalarType",
   "linker_set_key" : "_ZNK4llvm3EVT13getScalarTypeEv",
   "parameters" :
   [
    {
     "is_this_ptr" : true,
     "referenced_type" : "_ZTIPKN4llvm3EVTE"
    }
   ],
   "return_type" : "_ZTIN4llvm3EVTE",
   "source_file" : "external/llvm/include/llvm/CodeGen/ValueTypes.h"
  },
  {
   "function_name" : "llvm::EVT::getSizeInBits",
   "linker_set_key" : "_ZNK4llvm3EVT13getSizeInBitsEv",
   "parameters" :
   [
    {
     "is_this_ptr" : true,
     "referenced_type" : "_ZTIPKN4llvm3EVTE"
    }
   ],
   "return_type" : "_ZTIj",
   "source_file" : "external/llvm/include/llvm/CodeGen/ValueTypes.h"
  },
  {
   "function_name" : "llvm::EVT::getTypeForEVT",
   "linker_set_key" : "_ZNK4llvm3EVT13getTypeForEVTERNS_11LLVMContextE",
   "parameters" :
   [
    {
     "is_this_ptr" : true,
     "referenced_type" : "_ZTIPKN4llvm3EVTE"
    },
    {
     "referenced_type" : "_ZTIRN4llvm11LLVMContextE"
    }
   ],
   "return_type" : "_ZTIPN4llvm4TypeE",
   "source_file" : "external/llvm/include/llvm/CodeGen/ValueTypes.h"
  },
  {
   "function_name" : "llvm::EVT::is16BitVector",
   "linker_set_key" : "_ZNK4llvm3EVT13is16BitVectorEv",
   "parameters" :
   [
    {
     "is_this_ptr" : true,
     "referenced_type" : "_ZTIPKN4llvm3EVTE"
    }
   ],
   "return_type" : "_ZTIb",
   "source_file" : "external/llvm/include/llvm/CodeGen/ValueTypes.h"
  },
  {
   "function_name" : "llvm::EVT::is32BitVector",
   "linker_set_key" : "_ZNK4llvm3EVT13is32BitVectorEv",
   "parameters" :
   [
    {
     "is_this_ptr" : true,
     "referenced_type" : "_ZTIPKN4llvm3EVTE"
    }
   ],
   "return_type" : "_ZTIb",
   "source_file" : "external/llvm/include/llvm/CodeGen/ValueTypes.h"
  },
  {
   "function_name" : "llvm::EVT::is64BitVector",
   "linker_set_key" : "_ZNK4llvm3EVT13is64BitVectorEv",
   "parameters" :
   [
    {
     "is_this_ptr" : true,
     "referenced_type" : "_ZTIPKN4llvm3EVTE"
    }
   ],
   "return_type" : "_ZTIb",
   "source_file" : "external/llvm/include/llvm/CodeGen/ValueTypes.h"
  },
  {
   "function_name" : "llvm::EVT::compareRawBits::operator()",
   "linker_set_key" : "_ZNK4llvm3EVT14compareRawBitsclES0_S0_",
   "parameters" :
   [
    {
     "is_this_ptr" : true,
     "referenced_type" : "_ZTIPKN4llvm3EVT14compareRawBitsE"
    },
    {
     "referenced_type" : "_ZTIN4llvm3EVTE"
    },
    {
     "referenced_type" : "_ZTIN4llvm3EVTE"
    }
   ],
   "return_type" : "_ZTIb",
   "source_file" : "external/llvm/include/llvm/CodeGen/ValueTypes.h"
  },
  {
   "function_name" : "llvm::EVT::is128BitVector",
   "linker_set_key" : "_ZNK4llvm3EVT14is128BitVectorEv",
   "parameters" :
   [
    {
     "is_this_ptr" : true,
     "referenced_type" : "_ZTIPKN4llvm3EVTE"
    }
   ],
   "return_type" : "_ZTIb",
   "source_file" : "external/llvm/include/llvm/CodeGen/ValueTypes.h"
  },
  {
   "function_name" : "llvm::EVT::is256BitVector",
   "linker_set_key" : "_ZNK4llvm3EVT14is256BitVectorEv",
   "parameters" :
   [
    {
     "is_this_ptr" : true,
     "referenced_type" : "_ZTIPKN4llvm3EVTE"
    }
   ],
   "return_type" : "_ZTIb",
   "source_file" : "external/llvm/include/llvm/CodeGen/ValueTypes.h"
  },
  {
   "function_name" : "llvm::EVT::is512BitVector",
   "linker_set_key" : "_ZNK4llvm3EVT14is512BitVectorEv",
   "parameters" :
   [
    {
     "is_this_ptr" : true,
     "referenced_type" : "_ZTIPKN4llvm3EVTE"
    }
   ],
   "return_type" : "_ZTIb",
   "source_file" : "external/llvm/include/llvm/CodeGen/ValueTypes.h"
  },
  {
   "function_name" : "llvm::EVT::is1024BitVector",
   "linker_set_key" : "_ZNK4llvm3EVT15is1024BitVectorEv",
   "parameters" :
   [
    {
     "is_this_ptr" : true,
     "referenced_type" : "_ZTIPKN4llvm3EVTE"
    }
   ],
   "return_type" : "_ZTIb",
   "source_file" : "external/llvm/include/llvm/CodeGen/ValueTypes.h"
  },
  {
   "function_name" : "llvm::EVT::is2048BitVector",
   "linker_set_key" : "_ZNK4llvm3EVT15is2048BitVectorEv",
   "parameters" :
   [
    {
     "is_this_ptr" : true,
     "referenced_type" : "_ZTIPKN4llvm3EVTE"
    }
   ],
   "return_type" : "_ZTIb",
   "source_file" : "external/llvm/include/llvm/CodeGen/ValueTypes.h"
  },
  {
   "function_name" : "llvm::EVT::isFloatingPoint",
   "linker_set_key" : "_ZNK4llvm3EVT15isFloatingPointEv",
   "parameters" :
   [
    {
     "is_this_ptr" : true,
     "referenced_type" : "_ZTIPKN4llvm3EVTE"
    }
   ],
   "return_type" : "_ZTIb",
   "source_file" : "external/llvm/include/llvm/CodeGen/ValueTypes.h"
  },
  {
   "function_name" : "llvm::EVT::isScalarInteger",
   "linker_set_key" : "_ZNK4llvm3EVT15isScalarIntegerEv",
   "parameters" :
   [
    {
     "is_this_ptr" : true,
     "referenced_type" : "_ZTIPKN4llvm3EVTE"
    }
   ],
   "return_type" : "_ZTIb",
   "source_file" : "external/llvm/include/llvm/CodeGen/ValueTypes.h"
  },
  {
   "access" : "private",
   "function_name" : "llvm::EVT::isExtendedVector",
   "linker_set_key" : "_ZNK4llvm3EVT16isExtendedVectorEv",
   "parameters" :
   [
    {
     "is_this_ptr" : true,
     "referenced_type" : "_ZTIPKN4llvm3EVTE"
    }
   ],
   "return_type" : "_ZTIb",
   "source_file" : "external/llvm/include/llvm/CodeGen/ValueTypes.h"
  },
  {
   "function_name" : "llvm::EVT::isPow2VectorType",
   "linker_set_key" : "_ZNK4llvm3EVT16isPow2VectorTypeEv",
   "parameters" :
   [
    {
     "is_this_ptr" : true,
     "referenced_type" : "_ZTIPKN4llvm3EVTE"
    }
   ],
   "return_type" : "_ZTIb",
   "source_file" : "external/llvm/include/llvm/CodeGen/ValueTypes.h"
  },
  {
   "function_name" : "llvm::EVT::getPow2VectorType",
   "linker_set_key" : "_ZNK4llvm3EVT17getPow2VectorTypeERNS_11LLVMContextE",
   "parameters" :
   [
    {
     "is_this_ptr" : true,
     "referenced_type" : "_ZTIPKN4llvm3EVTE"
    },
    {
     "referenced_type" : "_ZTIRN4llvm11LLVMContextE"
    }
   ],
   "return_type" : "_ZTIN4llvm3EVTE",
   "source_file" : "external/llvm/include/llvm/CodeGen/ValueTypes.h"
  },
  {
   "access" : "private",
   "function_name" : "llvm::EVT::isExtendedInteger",
   "linker_set_key" : "_ZNK4llvm3EVT17isExtendedIntegerEv",
   "parameters" :
   [
    {
     "is_this_ptr" : true,
     "referenced_type" : "_ZTIPKN4llvm3EVTE"
    }
   ],
   "return_type" : "_ZTIb",
   "source_file" : "external/llvm/include/llvm/CodeGen/ValueTypes.h"
  },
  {
   "function_name" : "llvm::EVT::getStoreSizeInBits",
   "linker_set_key" : "_ZNK4llvm3EVT18getStoreSizeInBitsEv",
   "parameters" :
   [
    {
     "is_this_ptr" : true,
     "referenced_type" : "_ZTIPKN4llvm3EVTE"
    }
   ],
   "return_type" : "_ZTIj",
   "source_file" : "external/llvm/include/llvm/CodeGen/ValueTypes.h"
  },
  {
   "function_name" : "llvm::EVT::getRoundIntegerType",
   "linker_set_key" : "_ZNK4llvm3EVT19getRoundIntegerTypeERNS_11LLVMContextE",
   "parameters" :
   [
    {
     "is_this_ptr" : true,
     "referenced_type" : "_ZTIPKN4llvm3EVTE"
    },
    {
     "referenced_type" : "_ZTIRN4llvm11LLVMContextE"
    }
   ],
   "return_type" : "_ZTIN4llvm3EVTE",
   "source_file" : "external/llvm/include/llvm/CodeGen/ValueTypes.h"
  },
  {
   "function_name" : "llvm::EVT::getScalarSizeInBits",
   "linker_set_key" : "_ZNK4llvm3EVT19getScalarSizeInBitsEv",
   "parameters" :
   [
    {
     "is_this_ptr" : true,
     "referenced_type" : "_ZTIPKN4llvm3EVTE"
    }
   ],
   "return_type" : "_ZTIj",
   "source_file" : "external/llvm/include/llvm/CodeGen/ValueTypes.h"
  },
  {
   "function_name" : "llvm::EVT::getVectorElementType",
   "linker_set_key" : "_ZNK4llvm3EVT20getVectorElementTypeEv",
   "parameters" :
   [
    {
     "is_this_ptr" : true,
     "referenced_type" : "_ZTIPKN4llvm3EVTE"
    }
   ],
   "return_type" : "_ZTIN4llvm3EVTE",
   "source_file" : "external/llvm/include/llvm/CodeGen/ValueTypes.h"
  },
  {
   "function_name" : "llvm::EVT::getVectorNumElements",
   "linker_set_key" : "_ZNK4llvm3EVT20getVectorNumElementsEv",
   "parameters" :
   [
    {
     "is_this_ptr" : true,
     "referenced_type" : "_ZTIPKN4llvm3EVTE"
    }
   ],
   "return_type" : "_ZTIj",
   "source_file" : "external/llvm/include/llvm/CodeGen/ValueTypes.h"
  },
  {
   "access" : "private",
   "function_name" : "llvm::EVT::getExtendedSizeInBits",
   "linker_set_key" : "_ZNK4llvm3EVT21getExtendedSizeInBitsEv",
   "parameters" :
   [
    {
     "is_this_ptr" : true,
     "referenced_type" : "_ZTIPKN4llvm3EVTE"
    }
   ],
   "return_type" : "_ZTIj",
   "source_file" : "external/llvm/include/llvm/CodeGen/ValueTypes.h"
  },
  {
   "function_name" : "llvm::EVT::getHalfSizedIntegerVT",
   "linker_set_key" : "_ZNK4llvm3EVT21getHalfSizedIntegerVTERNS_11LLVMContextE",
   "parameters" :
   [
    {
     "is_this_ptr" : true,
     "referenced_type" : "_ZTIPKN4llvm3EVTE"
    },
    {
     "referenced_type" : "_ZTIRN4llvm11LLVMContextE"
    }
   ],
   "return_type" : "_ZTIN4llvm3EVTE",
   "source_file" : "external/llvm/include/llvm/CodeGen/ValueTypes.h"
  },
  {
   "access" : "private",
   "function_name" : "llvm::EVT::isExtended16BitVector",
   "linker_set_key" : "_ZNK4llvm3EVT21isExtended16BitVectorEv",
   "parameters" :
   [
    {
     "is_this_ptr" : true,
     "referenced_type" : "_ZTIPKN4llvm3EVTE"
    }
   ],
   "return_type" : "_ZTIb",
   "source_file" : "external/llvm/include/llvm/CodeGen/ValueTypes.h"
  },
  {
   "access" : "private",
   "function_name" : "llvm::EVT::isExtended32BitVector",
   "linker_set_key" : "_ZNK4llvm3EVT21isExtended32BitVectorEv",
   "parameters" :
   [
    {
     "is_this_ptr" : true,
     "referenced_type" : "_ZTIPKN4llvm3EVTE"
    }
   ],
   "return_type" : "_ZTIb",
   "source_file" : "external/llvm/include/llvm/CodeGen/ValueTypes.h"
  },
  {
   "access" : "private",
   "function_name" : "llvm::EVT::isExtended64BitVector",
   "linker_set_key" : "_ZNK4llvm3EVT21isExtended64BitVectorEv",
   "parameters" :
   [
    {
     "is_this_ptr" : true,
     "referenced_type" : "_ZTIPKN4llvm3EVTE"
    }
   ],
   "return_type" : "_ZTIb",
   "source_file" : "external/llvm/include/llvm/CodeGen/ValueTypes.h"
  },
  {
   "access" : "private",
   "function_name" : "llvm::EVT::isExtended128BitVector",
   "linker_set_key" : "_ZNK4llvm3EVT22isExtended128BitVectorEv",
   "parameters" :
   [
    {
     "is_this_ptr" : true,
     "referenced_type" : "_ZTIPKN4llvm3EVTE"
    }
   ],
   "return_type" : "_ZTIb",
   "source_file" : "external/llvm/include/llvm/CodeGen/ValueTypes.h"
  },
  {
   "access" : "private",
   "function_name" : "llvm::EVT::isExtended256BitVector",
   "linker_set_key" : "_ZNK4llvm3EVT22isExtended256BitVectorEv",
   "parameters" :
   [
    {
     "is_this_ptr" : true,
     "referenced_type" : "_ZTIPKN4llvm3EVTE"
    }
   ],
   "return_type" : "_ZTIb",
   "source_file" : "external/llvm/include/llvm/CodeGen/ValueTypes.h"
  },
  {
   "access" : "private",
   "function_name" : "llvm::EVT::isExtended512BitVector",
   "linker_set_key" : "_ZNK4llvm3EVT22isExtended512BitVectorEv",
   "parameters" :
   [
    {
     "is_this_ptr" : true,
     "referenced_type" : "_ZTIPKN4llvm3EVTE"
    }
   ],
   "return_type" : "_ZTIb",
   "source_file" : "external/llvm/include/llvm/CodeGen/ValueTypes.h"
  },
  {
   "access" : "private",
   "function_name" : "llvm::EVT::isExtended1024BitVector",
   "linker_set_key" : "_ZNK4llvm3EVT23isExtended1024BitVectorEv",
   "parameters" :
   [
    {
     "is_this_ptr" : true,
     "referenced_type" : "_ZTIPKN4llvm3EVTE"
    }
   ],
   "return_type" : "_ZTIb",
   "source_file" : "external/llvm/include/llvm/CodeGen/ValueTypes.h"
  },
  {
   "access" : "private",
   "function_name" : "llvm::EVT::isExtended2048BitVector",
   "linker_set_key" : "_ZNK4llvm3EVT23isExtended2048BitVectorEv",
   "parameters" :
   [
    {
     "is_this_ptr" : true,
     "referenced_type" : "_ZTIPKN4llvm3EVTE"
    }
   ],
   "return_type" : "_ZTIb",
   "source_file" : "external/llvm/include/llvm/CodeGen/ValueTypes.h"
  },
  {
   "access" : "private",
   "function_name" : "llvm::EVT::isExtendedFloatingPoint",
   "linker_set_key" : "_ZNK4llvm3EVT23isExtendedFloatingPointEv",
   "parameters" :
   [
    {
     "is_this_ptr" : true,
     "referenced_type" : "_ZTIPKN4llvm3EVTE"
    }
   ],
   "return_type" : "_ZTIb",
   "source_file" : "external/llvm/include/llvm/CodeGen/ValueTypes.h"
  },
  {
   "access" : "private",
   "function_name" : "llvm::EVT::isExtendedScalarInteger",
   "linker_set_key" : "_ZNK4llvm3EVT23isExtendedScalarIntegerEv",
   "parameters" :
   [
    {
     "is_this_ptr" : true,
     "referenced_type" : "_ZTIPKN4llvm3EVTE"
    }
   ],
   "return_type" : "_ZTIb",
   "source_file" : "external/llvm/include/llvm/CodeGen/ValueTypes.h"
  },
  {
   "access" : "private",
   "function_name" : "llvm::EVT::changeExtendedTypeToInteger",
   "linker_set_key" : "_ZNK4llvm3EVT27changeExtendedTypeToIntegerEv",
   "parameters" :
   [
    {
     "is_this_ptr" : true,
     "referenced_type" : "_ZTIPKN4llvm3EVTE"
    }
   ],
   "return_type" : "_ZTIN4llvm3EVTE",
   "source_file" : "external/llvm/include/llvm/CodeGen/ValueTypes.h"
  },
  {
   "access" : "private",
   "function_name" : "llvm::EVT::getExtendedVectorElementType",
   "linker_set_key" : "_ZNK4llvm3EVT28getExtendedVectorElementTypeEv",
   "parameters" :
   [
    {
     "is_this_ptr" : true,
     "referenced_type" : "_ZTIPKN4llvm3EVTE"
    }
   ],
   "return_type" : "_ZTIN4llvm3EVTE",
   "source_file" : "external/llvm/include/llvm/CodeGen/ValueTypes.h"
  },
  {
   "access" : "private",
   "function_name" : "llvm::EVT::getExtendedVectorNumElements",
   "linker_set_key" : "_ZNK4llvm3EVT28getExtendedVectorNumElementsEv",
   "parameters" :
   [
    {
     "is_this_ptr" : true,
     "referenced_type" : "_ZTIPKN4llvm3EVTE"
    }
   ],
   "return_type" : "_ZTIj",
   "source_file" : "external/llvm/include/llvm/CodeGen/ValueTypes.h"
  },
  {
   "function_name" : "llvm::EVT::widenIntegerVectorElementType",
   "linker_set_key" : "_ZNK4llvm3EVT29widenIntegerVectorElementTypeERNS_11LLVMContextE",
   "parameters" :
   [
    {
     "is_this_ptr" : true,
     "referenced_type" : "_ZTIPKN4llvm3EVTE"
    },
    {
     "referenced_type" : "_ZTIRN4llvm11LLVMContextE"
    }
   ],
   "return_type" : "_ZTIN4llvm3EVTE",
   "source_file" : "external/llvm/include/llvm/CodeGen/ValueTypes.h"
  },
  {
   "function_name" : "llvm::EVT::changeVectorElementTypeToInteger",
   "linker_set_key" : "_ZNK4llvm3EVT32changeVectorElementTypeToIntegerEv",
   "parameters" :
   [
    {
     "is_this_ptr" : true,
     "referenced_type" : "_ZTIPKN4llvm3EVTE"
    }
   ],
   "return_type" : "_ZTIN4llvm3EVTE",
   "source_file" : "external/llvm/include/llvm/CodeGen/ValueTypes.h"
  },
  {
   "access" : "private",
   "function_name" : "llvm::EVT::changeExtendedVectorElementTypeToInteger",
   "linker_set_key" : "_ZNK4llvm3EVT40changeExtendedVectorElementTypeToIntegerEv",
   "parameters" :
   [
    {
     "is_this_ptr" : true,
     "referenced_type" : "_ZTIPKN4llvm3EVTE"
    }
   ],
   "return_type" : "_ZTIN4llvm3EVTE",
   "source_file" : "external/llvm/include/llvm/CodeGen/ValueTypes.h"
  },
  {
   "function_name" : "llvm::EVT::bitsEq",
   "linker_set_key" : "_ZNK4llvm3EVT6bitsEqES0_",
   "parameters" :
   [
    {
     "is_this_ptr" : true,
     "referenced_type" : "_ZTIPKN4llvm3EVTE"
    },
    {
     "referenced_type" : "_ZTIN4llvm3EVTE"
    }
   ],
   "return_type" : "_ZTIb",
   "source_file" : "external/llvm/include/llvm/CodeGen/ValueTypes.h"
  },
  {
   "function_name" : "llvm::EVT::bitsGE",
   "linker_set_key" : "_ZNK4llvm3EVT6bitsGEES0_",
   "parameters" :
   [
    {
     "is_this_ptr" : true,
     "referenced_type" : "_ZTIPKN4llvm3EVTE"
    },
    {
     "referenced_type" : "_ZTIN4llvm3EVTE"
    }
   ],
   "return_type" : "_ZTIb",
   "source_file" : "external/llvm/include/llvm/CodeGen/ValueTypes.h"
  },
  {
   "function_name" : "llvm::EVT::bitsGT",
   "linker_set_key" : "_ZNK4llvm3EVT6bitsGTES0_",
   "parameters" :
   [
    {
     "is_this_ptr" : true,
     "referenced_type" : "_ZTIPKN4llvm3EVTE"
    },
    {
     "referenced_type" : "_ZTIN4llvm3EVTE"
    }
   ],
   "return_type" : "_ZTIb",
   "source_file" : "external/llvm/include/llvm/CodeGen/ValueTypes.h"
  },
  {
   "function_name" : "llvm::EVT::bitsLE",
   "linker_set_key" : "_ZNK4llvm3EVT6bitsLEES0_",
   "parameters" :
   [
    {
     "is_this_ptr" : true,
     "referenced_type" : "_ZTIPKN4llvm3EVTE"
    },
    {
     "referenced_type" : "_ZTIN4llvm3EVTE"
    }
   ],
   "return_type" : "_ZTIb",
   "source_file" : "external/llvm/include/llvm/CodeGen/ValueTypes.h"
  },
  {
   "function_name" : "llvm::EVT::bitsLT",
   "linker_set_key" : "_ZNK4llvm3EVT6bitsLTES0_",
   "parameters" :
   [
    {
     "is_this_ptr" : true,
     "referenced_type" : "_ZTIPKN4llvm3EVTE"
    },
    {
     "referenced_type" : "_ZTIN4llvm3EVTE"
    }
   ],
   "return_type" : "_ZTIb",
   "source_file" : "external/llvm/include/llvm/CodeGen/ValueTypes.h"
  },
  {
   "function_name" : "llvm::EVT::isRound",
   "linker_set_key" : "_ZNK4llvm3EVT7isRoundEv",
   "parameters" :
   [
    {
     "is_this_ptr" : true,
     "referenced_type" : "_ZTIPKN4llvm3EVTE"
    }
   ],
   "return_type" : "_ZTIb",
   "source_file" : "external/llvm/include/llvm/CodeGen/ValueTypes.h"
  },
  {
   "function_name" : "llvm::EVT::isSimple",
   "linker_set_key" : "_ZNK4llvm3EVT8isSimpleEv",
   "parameters" :
   [
    {
     "is_this_ptr" : true,
     "referenced_type" : "_ZTIPKN4llvm3EVTE"
    }
   ],
   "return_type" : "_ZTIb",
   "source_file" : "external/llvm/include/llvm/CodeGen/ValueTypes.h"
  },
  {
   "function_name" : "llvm::EVT::isVector",
   "linker_set_key" : "_ZNK4llvm3EVT8isVectorEv",
   "parameters" :
   [
    {
     "is_this_ptr" : true,
     "referenced_type" : "_ZTIPKN4llvm3EVTE"
    }
   ],
   "return_type" : "_ZTIb",
   "source_file" : "external/llvm/include/llvm/CodeGen/ValueTypes.h"
  },
  {
   "function_name" : "llvm::EVT::isInteger",
   "linker_set_key" : "_ZNK4llvm3EVT9isIntegerEv",
   "parameters" :
   [
    {
     "is_this_ptr" : true,
     "referenced_type" : "_ZTIPKN4llvm3EVTE"
    }
   ],
   "return_type" : "_ZTIb",
   "source_file" : "external/llvm/include/llvm/CodeGen/ValueTypes.h"
  },
  {
   "function_name" : "llvm::EVT::operator==",
   "linker_set_key" : "_ZNK4llvm3EVTeqES0_",
   "parameters" :
   [
    {
     "is_this_ptr" : true,
     "referenced_type" : "_ZTIPKN4llvm3EVTE"
    },
    {
     "referenced_type" : "_ZTIN4llvm3EVTE"
    }
   ],
   "return_type" : "_ZTIb",
   "source_file" : "external/llvm/include/llvm/CodeGen/ValueTypes.h"
  },
  {
   "function_name" : "llvm::EVT::operator!=",
   "linker_set_key" : "_ZNK4llvm3EVTneES0_",
   "parameters" :
   [
    {
     "is_this_ptr" : true,
     "referenced_type" : "_ZTIPKN4llvm3EVTE"
    },
    {
     "referenced_type" : "_ZTIN4llvm3EVTE"
    }
   ],
   "return_type" : "_ZTIb",
   "source_file" : "external/llvm/include/llvm/CodeGen/ValueTypes.h"
  },
  {
   "function_name" : "llvm::MVT::getStoreSize",
   "linker_set_key" : "_ZNK4llvm3MVT12getStoreSizeEv",
   "parameters" :
   [
    {
     "is_this_ptr" : true,
     "referenced_type" : "_ZTIPKN4llvm3MVTE"
    }
   ],
   "return_type" : "_ZTIj",
   "source_file" : "external/llvm/include/llvm/CodeGen/MachineValueType.h"
  },
  {
   "function_name" : "llvm::MVT::isOverloaded",
   "linker_set_key" : "_ZNK4llvm3MVT12isOverloadedEv",
   "parameters" :
   [
    {
     "is_this_ptr" : true,
     "referenced_type" : "_ZTIPKN4llvm3MVTE"
    }
   ],
   "return_type" : "_ZTIb",
   "source_file" : "external/llvm/include/llvm/CodeGen/MachineValueType.h"
  },
  {
   "function_name" : "llvm::MVT::mvt_iterator::operator*",
   "linker_set_key" : "_ZNK4llvm3MVT12mvt_iteratordeEv",
   "parameters" :
   [
    {
     "is_this_ptr" : true,
     "referenced_type" : "_ZTIPKN4llvm3MVT12mvt_iteratorE"
    }
   ],
   "return_type" : "_ZTIN4llvm3MVTE",
   "source_file" : "external/llvm/include/llvm/CodeGen/MachineValueType.h"
  },
  {
   "function_name" : "llvm::MVT::mvt_iterator::operator!=",
   "linker_set_key" : "_ZNK4llvm3MVT12mvt_iteratorneERKS1_",
   "parameters" :
   [
    {
     "is_this_ptr" : true,
     "referenced_type" : "_ZTIPKN4llvm3MVT12mvt_iteratorE"
    },
    {
     "referenced_type" : "_ZTIRKN4llvm3MVT12mvt_iteratorE"
    }
   ],
   "return_type" : "_ZTIb",
   "source_file" : "external/llvm/include/llvm/CodeGen/MachineValueType.h"
  },
  {
   "function_name" : "llvm::MVT::getScalarType",
   "linker_set_key" : "_ZNK4llvm3MVT13getScalarTypeEv",
   "parameters" :
   [
    {
     "is_this_ptr" : true,
     "referenced_type" : "_ZTIPKN4llvm3MVTE"
    }
   ],
   "return_type" : "_ZTIN4llvm3MVTE",
   "source_file" : "external/llvm/include/llvm/CodeGen/MachineValueType.h"
  },
  {
   "function_name" : "llvm::MVT::getSizeInBits",
   "linker_set_key" : "_ZNK4llvm3MVT13getSizeInBitsEv",
   "parameters" :
   [
    {
     "is_this_ptr" : true,
     "referenced_type" : "_ZTIPKN4llvm3MVTE"
    }
   ],
   "return_type" : "_ZTIj",
   "source_file" : "external/llvm/include/llvm/CodeGen/MachineValueType.h"
  },
  {
   "function_name" : "llvm::MVT::is16BitVector",
   "linker_set_key" : "_ZNK4llvm3MVT13is16BitVectorEv",
   "parameters" :
   [
    {
     "is_this_ptr" : true,
     "referenced_type" : "_ZTIPKN4llvm3MVTE"
    }
   ],
   "return_type" : "_ZTIb",
   "source_file" : "external/llvm/include/llvm/CodeGen/MachineValueType.h"
  },
  {
   "function_name" : "llvm::MVT::is32BitVector",
   "linker_set_key" : "_ZNK4llvm3MVT13is32BitVectorEv",
   "parameters" :
   [
    {
     "is_this_ptr" : true,
     "referenced_type" : "_ZTIPKN4llvm3MVTE"
    }
   ],
   "return_type" : "_ZTIb",
   "source_file" : "external/llvm/include/llvm/CodeGen/MachineValueType.h"
  },
  {
   "function_name" : "llvm::MVT::is64BitVector",
   "linker_set_key" : "_ZNK4llvm3MVT13is64BitVectorEv",
   "parameters" :
   [
    {
     "is_this_ptr" : true,
     "referenced_type" : "_ZTIPKN4llvm3MVTE"
    }
   ],
   "return_type" : "_ZTIb",
   "source_file" : "external/llvm/include/llvm/CodeGen/MachineValueType.h"
  },
  {
   "function_name" : "llvm::MVT::is128BitVector",
   "linker_set_key" : "_ZNK4llvm3MVT14is128BitVectorEv",
   "parameters" :
   [
    {
     "is_this_ptr" : true,
     "referenced_type" : "_ZTIPKN4llvm3MVTE"
    }
   ],
   "return_type" : "_ZTIb",
   "source_file" : "external/llvm/include/llvm/CodeGen/MachineValueType.h"
  },
  {
   "function_name" : "llvm::MVT::is256BitVector",
   "linker_set_key" : "_ZNK4llvm3MVT14is256BitVectorEv",
   "parameters" :
   [
    {
     "is_this_ptr" : true,
     "referenced_type" : "_ZTIPKN4llvm3MVTE"
    }
   ],
   "return_type" : "_ZTIb",
   "source_file" : "external/llvm/include/llvm/CodeGen/MachineValueType.h"
  },
  {
   "function_name" : "llvm::MVT::is512BitVector",
   "linker_set_key" : "_ZNK4llvm3MVT14is512BitVectorEv",
   "parameters" :
   [
    {
     "is_this_ptr" : true,
     "referenced_type" : "_ZTIPKN4llvm3MVTE"
    }
   ],
   "return_type" : "_ZTIb",
   "source_file" : "external/llvm/include/llvm/CodeGen/MachineValueType.h"
  },
  {
   "function_name" : "llvm::MVT::is1024BitVector",
   "linker_set_key" : "_ZNK4llvm3MVT15is1024BitVectorEv",
   "parameters" :
   [
    {
     "is_this_ptr" : true,
     "referenced_type" : "_ZTIPKN4llvm3MVTE"
    }
   ],
   "return_type" : "_ZTIb",
   "source_file" : "external/llvm/include/llvm/CodeGen/MachineValueType.h"
  },
  {
   "function_name" : "llvm::MVT::is2048BitVector",
   "linker_set_key" : "_ZNK4llvm3MVT15is2048BitVectorEv",
   "parameters" :
   [
    {
     "is_this_ptr" : true,
     "referenced_type" : "_ZTIPKN4llvm3MVTE"
    }
   ],
   "return_type" : "_ZTIb",
   "source_file" : "external/llvm/include/llvm/CodeGen/MachineValueType.h"
  },
  {
   "function_name" : "llvm::MVT::isFloatingPoint",
   "linker_set_key" : "_ZNK4llvm3MVT15isFloatingPointEv",
   "parameters" :
   [
    {
     "is_this_ptr" : true,
     "referenced_type" : "_ZTIPKN4llvm3MVTE"
    }
   ],
   "return_type" : "_ZTIb",
   "source_file" : "external/llvm/include/llvm/CodeGen/MachineValueType.h"
  },
  {
   "function_name" : "llvm::MVT::isScalarInteger",
   "linker_set_key" : "_ZNK4llvm3MVT15isScalarIntegerEv",
   "parameters" :
   [
    {
     "is_this_ptr" : true,
     "referenced_type" : "_ZTIPKN4llvm3MVTE"
    }
   ],
   "return_type" : "_ZTIb",
   "source_file" : "external/llvm/include/llvm/CodeGen/MachineValueType.h"
  },
  {
   "function_name" : "llvm::MVT::isPow2VectorType",
   "linker_set_key" : "_ZNK4llvm3MVT16isPow2VectorTypeEv",
   "parameters" :
   [
    {
     "is_this_ptr" : true,
     "referenced_type" : "_ZTIPKN4llvm3MVTE"
    }
   ],
   "return_type" : "_ZTIb",
   "source_file" : "external/llvm/include/llvm/CodeGen/MachineValueType.h"
  },
  {
   "function_name" : "llvm::MVT::getPow2VectorType",
   "linker_set_key" : "_ZNK4llvm3MVT17getPow2VectorTypeEv",
   "parameters" :
   [
    {
     "is_this_ptr" : true,
     "referenced_type" : "_ZTIPKN4llvm3MVTE"
    }
   ],
   "return_type" : "_ZTIN4llvm3MVTE",
   "source_file" : "external/llvm/include/llvm/CodeGen/MachineValueType.h"
  },
  {
   "function_name" : "llvm::MVT::getStoreSizeInBits",
   "linker_set_key" : "_ZNK4llvm3MVT18getStoreSizeInBitsEv",
   "parameters" :
   [
    {
     "is_this_ptr" : true,
     "referenced_type" : "_ZTIPKN4llvm3MVTE"
    }
   ],
   "return_type" : "_ZTIj",
   "source_file" : "external/llvm/include/llvm/CodeGen/MachineValueType.h"
  },
  {
   "function_name" : "llvm::MVT::getScalarSizeInBits",
   "linker_set_key" : "_ZNK4llvm3MVT19getScalarSizeInBitsEv",
   "parameters" :
   [
    {
     "is_this_ptr" : true,
     "referenced_type" : "_ZTIPKN4llvm3MVTE"
    }
   ],
   "return_type" : "_ZTIj",
   "source_file" : "external/llvm/include/llvm/CodeGen/MachineValueType.h"
  },
  {
   "function_name" : "llvm::MVT::getVectorElementType",
   "linker_set_key" : "_ZNK4llvm3MVT20getVectorElementTypeEv",
   "parameters" :
   [
    {
     "is_this_ptr" : true,
     "referenced_type" : "_ZTIPKN4llvm3MVTE"
    }
   ],
   "return_type" : "_ZTIN4llvm3MVTE",
   "source_file" : "external/llvm/include/llvm/CodeGen/MachineValueType.h"
  },
  {
   "function_name" : "llvm::MVT::getVectorNumElements",
   "linker_set_key" : "_ZNK4llvm3MVT20getVectorNumElementsEv",
   "parameters" :
   [
    {
     "is_this_ptr" : true,
     "referenced_type" : "_ZTIPKN4llvm3MVTE"
    }
   ],
   "return_type" : "_ZTIj",
   "source_file" : "external/llvm/include/llvm/CodeGen/MachineValueType.h"
  },
  {
   "function_name" : "llvm::MVT::bitsGE",
   "linker_set_key" : "_ZNK4llvm3MVT6bitsGEES0_",
   "parameters" :
   [
    {
     "is_this_ptr" : true,
     "referenced_type" : "_ZTIPKN4llvm3MVTE"
    },
    {
     "referenced_type" : "_ZTIN4llvm3MVTE"
    }
   ],
   "return_type" : "_ZTIb",
   "source_file" : "external/llvm/include/llvm/CodeGen/MachineValueType.h"
  },
  {
   "function_name" : "llvm::MVT::bitsGT",
   "linker_set_key" : "_ZNK4llvm3MVT6bitsGTES0_",
   "parameters" :
   [
    {
     "is_this_ptr" : true,
     "referenced_type" : "_ZTIPKN4llvm3MVTE"
    },
    {
     "referenced_type" : "_ZTIN4llvm3MVTE"
    }
   ],
   "return_type" : "_ZTIb",
   "source_file" : "external/llvm/include/llvm/CodeGen/MachineValueType.h"
  },
  {
   "function_name" : "llvm::MVT::bitsLE",
   "linker_set_key" : "_ZNK4llvm3MVT6bitsLEES0_",
   "parameters" :
   [
    {
     "is_this_ptr" : true,
     "referenced_type" : "_ZTIPKN4llvm3MVTE"
    },
    {
     "referenced_type" : "_ZTIN4llvm3MVTE"
    }
   ],
   "return_type" : "_ZTIb",
   "source_file" : "external/llvm/include/llvm/CodeGen/MachineValueType.h"
  },
  {
   "function_name" : "llvm::MVT::bitsLT",
   "linker_set_key" : "_ZNK4llvm3MVT6bitsLTES0_",
   "parameters" :
   [
    {
     "is_this_ptr" : true,
     "referenced_type" : "_ZTIPKN4llvm3MVTE"
    },
    {
     "referenced_type" : "_ZTIN4llvm3MVTE"
    }
   ],
   "return_type" : "_ZTIb",
   "source_file" : "external/llvm/include/llvm/CodeGen/MachineValueType.h"
  },
  {
   "function_name" : "llvm::MVT::isValid",
   "linker_set_key" : "_ZNK4llvm3MVT7isValidEv",
   "parameters" :
   [
    {
     "is_this_ptr" : true,
     "referenced_type" : "_ZTIPKN4llvm3MVTE"
    }
   ],
   "return_type" : "_ZTIb",
   "source_file" : "external/llvm/include/llvm/CodeGen/MachineValueType.h"
  },
  {
   "function_name" : "llvm::MVT::isVector",
   "linker_set_key" : "_ZNK4llvm3MVT8isVectorEv",
   "parameters" :
   [
    {
     "is_this_ptr" : true,
     "referenced_type" : "_ZTIPKN4llvm3MVTE"
    }
   ],
   "return_type" : "_ZTIb",
   "source_file" : "external/llvm/include/llvm/CodeGen/MachineValueType.h"
  },
  {
   "function_name" : "llvm::MVT::isInteger",
   "linker_set_key" : "_ZNK4llvm3MVT9isIntegerEv",
   "parameters" :
   [
    {
     "is_this_ptr" : true,
     "referenced_type" : "_ZTIPKN4llvm3MVTE"
    }
   ],
   "return_type" : "_ZTIb",
   "source_file" : "external/llvm/include/llvm/CodeGen/MachineValueType.h"
  },
  {
   "function_name" : "llvm::MVT::operator==",
   "linker_set_key" : "_ZNK4llvm3MVTeqERKS0_",
   "parameters" :
   [
    {
     "is_this_ptr" : true,
     "referenced_type" : "_ZTIPKN4llvm3MVTE"
    },
    {
     "referenced_type" : "_ZTIRKN4llvm3MVTE"
    }
   ],
   "return_type" : "_ZTIb",
   "source_file" : "external/llvm/include/llvm/CodeGen/MachineValueType.h"
  },
  {
   "function_name" : "llvm::MVT::operator>=",
   "linker_set_key" : "_ZNK4llvm3MVTgeERKS0_",
   "parameters" :
   [
    {
     "is_this_ptr" : true,
     "referenced_type" : "_ZTIPKN4llvm3MVTE"
    },
    {
     "referenced_type" : "_ZTIRKN4llvm3MVTE"
    }
   ],
   "return_type" : "_ZTIb",
   "source_file" : "external/llvm/include/llvm/CodeGen/MachineValueType.h"
  },
  {
   "function_name" : "llvm::MVT::operator>",
   "linker_set_key" : "_ZNK4llvm3MVTgtERKS0_",
   "parameters" :
   [
    {
     "is_this_ptr" : true,
     "referenced_type" : "_ZTIPKN4llvm3MVTE"
    },
    {
     "referenced_type" : "_ZTIRKN4llvm3MVTE"
    }
   ],
   "return_type" : "_ZTIb",
   "source_file" : "external/llvm/include/llvm/CodeGen/MachineValueType.h"
  },
  {
   "function_name" : "llvm::MVT::operator<=",
   "linker_set_key" : "_ZNK4llvm3MVTleERKS0_",
   "parameters" :
   [
    {
     "is_this_ptr" : true,
     "referenced_type" : "_ZTIPKN4llvm3MVTE"
    },
    {
     "referenced_type" : "_ZTIRKN4llvm3MVTE"
    }
   ],
   "return_type" : "_ZTIb",
   "source_file" : "external/llvm/include/llvm/CodeGen/MachineValueType.h"
  },
  {
   "function_name" : "llvm::MVT::operator<",
   "linker_set_key" : "_ZNK4llvm3MVTltERKS0_",
   "parameters" :
   [
    {
     "is_this_ptr" : true,
     "referenced_type" : "_ZTIPKN4llvm3MVTE"
    },
    {
     "referenced_type" : "_ZTIRKN4llvm3MVTE"
    }
   ],
   "return_type" : "_ZTIb",
   "source_file" : "external/llvm/include/llvm/CodeGen/MachineValueType.h"
  },
  {
   "function_name" : "llvm::MVT::operator!=",
   "linker_set_key" : "_ZNK4llvm3MVTneERKS0_",
   "parameters" :
   [
    {
     "is_this_ptr" : true,
     "referenced_type" : "_ZTIPKN4llvm3MVTE"
    },
    {
     "referenced_type" : "_ZTIRKN4llvm3MVTE"
    }
   ],
   "return_type" : "_ZTIb",
   "source_file" : "external/llvm/include/llvm/CodeGen/MachineValueType.h"
  },
  {
   "function_name" : "llvm::sys::MemoryBlock::base",
   "linker_set_key" : "_ZNK4llvm3sys11MemoryBlock4baseEv",
   "parameters" :
   [
    {
     "is_this_ptr" : true,
     "referenced_type" : "_ZTIPKN4llvm3sys11MemoryBlockE"
    }
   ],
   "return_type" : "_ZTIPv",
   "source_file" : "external/llvm/include/llvm/Support/Memory.h"
  },
  {
   "function_name" : "llvm::sys::MemoryBlock::size",
   "linker_set_key" : "_ZNK4llvm3sys11MemoryBlock4sizeEv",
   "parameters" :
   [
    {
     "is_this_ptr" : true,
     "referenced_type" : "_ZTIPKN4llvm3sys11MemoryBlockE"
    }
   ],
   "return_type" : "_ZTIm",
   "source_file" : "external/llvm/include/llvm/Support/Memory.h"
  },
  {
   "function_name" : "llvm::sys::OwningMemoryBlock::getMemoryBlock",
   "linker_set_key" : "_ZNK4llvm3sys17OwningMemoryBlock14getMemoryBlockEv",
   "parameters" :
   [
    {
     "is_this_ptr" : true,
     "referenced_type" : "_ZTIPKN4llvm3sys17OwningMemoryBlockE"
    }
   ],
   "return_type" : "_ZTIN4llvm3sys11MemoryBlockE",
   "source_file" : "external/llvm/include/llvm/Support/Memory.h"
  },
  {
   "function_name" : "llvm::sys::OwningMemoryBlock::base",
   "linker_set_key" : "_ZNK4llvm3sys17OwningMemoryBlock4baseEv",
   "parameters" :
   [
    {
     "is_this_ptr" : true,
     "referenced_type" : "_ZTIPKN4llvm3sys17OwningMemoryBlockE"
    }
   ],
   "return_type" : "_ZTIPv",
   "source_file" : "external/llvm/include/llvm/Support/Memory.h"
  },
  {
   "function_name" : "llvm::sys::OwningMemoryBlock::size",
   "linker_set_key" : "_ZNK4llvm3sys17OwningMemoryBlock4sizeEv",
   "parameters" :
   [
    {
     "is_this_ptr" : true,
     "referenced_type" : "_ZTIPKN4llvm3sys17OwningMemoryBlockE"
    }
   ],
   "return_type" : "_ZTIm",
   "source_file" : "external/llvm/include/llvm/Support/Memory.h"
  },
  {
   "function_name" : "llvm::Type::getContext",
   "linker_set_key" : "_ZNK4llvm4Type10getContextEv",
   "parameters" :
   [
    {
     "is_this_ptr" : true,
     "referenced_type" : "_ZTIPKN4llvm4TypeE"
    }
   ],
   "return_type" : "_ZTIRN4llvm11LLVMContextE",
   "source_file" : "external/llvm/include/llvm/IR/Type.h"
  },
  {
   "function_name" : "llvm::Type::isDoubleTy",
   "linker_set_key" : "_ZNK4llvm4Type10isDoubleTyEv",
   "parameters" :
   [
    {
     "is_this_ptr" : true,
     "referenced_type" : "_ZTIPKN4llvm4TypeE"
    }
   ],
   "return_type" : "_ZTIb",
   "source_file" : "external/llvm/include/llvm/IR/Type.h"
  },
  {
   "function_name" : "llvm::Type::isStructTy",
   "linker_set_key" : "_ZNK4llvm4Type10isStructTyEv",
   "parameters" :
   [
    {
     "is_this_ptr" : true,
     "referenced_type" : "_ZTIPKN4llvm4TypeE"
    }
   ],
   "return_type" : "_ZTIb",
   "source_file" : "external/llvm/include/llvm/IR/Type.h"
  },
  {
   "function_name" : "llvm::Type::isVectorTy",
   "linker_set_key" : "_ZNK4llvm4Type10isVectorTyEv",
   "parameters" :
   [
    {
     "is_this_ptr" : true,
     "referenced_type" : "_ZTIPKN4llvm4TypeE"
    }
   ],
   "return_type" : "_ZTIb",
   "source_file" : "external/llvm/include/llvm/IR/Type.h"
  },
  {
   "function_name" : "llvm::Type::isIntegerTy",
   "linker_set_key" : "_ZNK4llvm4Type11isIntegerTyEv",
   "parameters" :
   [
    {
     "is_this_ptr" : true,
     "referenced_type" : "_ZTIPKN4llvm4TypeE"
    }
   ],
   "return_type" : "_ZTIb",
   "source_file" : "external/llvm/include/llvm/IR/Type.h"
  },
  {
   "function_name" : "llvm::Type::isPointerTy",
   "linker_set_key" : "_ZNK4llvm4Type11isPointerTyEv",
   "parameters" :
   [
    {
     "is_this_ptr" : true,
     "referenced_type" : "_ZTIPKN4llvm4TypeE"
    }
   ],
   "return_type" : "_ZTIb",
   "source_file" : "external/llvm/include/llvm/IR/Type.h"
  },
  {
   "function_name" : "llvm::Type::isX86_MMXTy",
   "linker_set_key" : "_ZNK4llvm4Type11isX86_MMXTyEv",
   "parameters" :
   [
    {
     "is_this_ptr" : true,
     "referenced_type" : "_ZTIPKN4llvm4TypeE"
    }
   ],
   "return_type" : "_ZTIb",
   "source_file" : "external/llvm/include/llvm/IR/Type.h"
  },
  {
   "function_name" : "llvm::Type::subtype_end",
   "linker_set_key" : "_ZNK4llvm4Type11subtype_endEv",
   "parameters" :
   [
    {
     "is_this_ptr" : true,
     "referenced_type" : "_ZTIPKN4llvm4TypeE"
    }
   ],
   "return_type" : "_ZTIPKPN4llvm4TypeE",
   "source_file" : "external/llvm/include/llvm/IR/Type.h"
  },
  {
   "function_name" : "llvm::Type::isFunctionTy",
   "linker_set_key" : "_ZNK4llvm4Type12isFunctionTyEv",
   "parameters" :
   [
    {
     "is_this_ptr" : true,
     "referenced_type" : "_ZTIPKN4llvm4TypeE"
    }
   ],
   "return_type" : "_ZTIb",
   "source_file" : "external/llvm/include/llvm/IR/Type.h"
  },
  {
   "function_name" : "llvm::Type::isMetadataTy",
   "linker_set_key" : "_ZNK4llvm4Type12isMetadataTyEv",
   "parameters" :
   [
    {
     "is_this_ptr" : true,
     "referenced_type" : "_ZTIPKN4llvm4TypeE"
    }
   ],
   "return_type" : "_ZTIb",
   "source_file" : "external/llvm/include/llvm/IR/Type.h"
  },
  {
   "function_name" : "llvm::Type::isX86_FP80Ty",
   "linker_set_key" : "_ZNK4llvm4Type12isX86_FP80TyEv",
   "parameters" :
   [
    {
     "is_this_ptr" : true,
     "referenced_type" : "_ZTIPKN4llvm4TypeE"
    }
   ],
   "return_type" : "_ZTIb",
   "source_file" : "external/llvm/include/llvm/IR/Type.h"
  },
  {
   "function_name" : "llvm::Type::subtype_rend",
   "linker_set_key" : "_ZNK4llvm4Type12subtype_rendEv",
   "parameters" :
   [
    {
     "is_this_ptr" : true,
     "referenced_type" : "_ZTIPKN4llvm4TypeE"
    }
   ],
   "return_type" : "_ZTINSt3__116reverse_iteratorIPKPN4llvm4TypeEEE",
   "source_file" : "external/llvm/include/llvm/IR/Type.h"
  },
  {
   "function_name" : "llvm::Type::getStructName",
   "linker_set_key" : "_ZNK4llvm4Type13getStructNameEv",
   "parameters" :
   [
    {
     "is_this_ptr" : true,
     "referenced_type" : "_ZTIPKN4llvm4TypeE"
    }
   ],
   "return_type" : "_ZTIN4llvm9StringRefE",
   "source_file" : "external/llvm/include/llvm/IR/Type.h"
  },
  {
   "function_name" : "llvm::Type::isPPC_FP128Ty",
   "linker_set_key" : "_ZNK4llvm4Type13isPPC_FP128TyEv",
   "parameters" :
   [
    {
     "is_this_ptr" : true,
     "referenced_type" : "_ZTIPKN4llvm4TypeE"
    }
   ],
   "return_type" : "_ZTIb",
   "source_file" : "external/llvm/include/llvm/IR/Type.h"
  },
  {
   "function_name" : "llvm::Type::subtype_begin",
   "linker_set_key" : "_ZNK4llvm4Type13subtype_beginEv",
   "parameters" :
   [
    {
     "is_this_ptr" : true,
     "referenced_type" : "_ZTIPKN4llvm4TypeE"
    }
   ],
   "return_type" : "_ZTIPKPN4llvm4TypeE",
   "source_file" : "external/llvm/include/llvm/IR/Type.h"
  },
  {
   "function_name" : "llvm::Type::subtype_rbegin",
   "linker_set_key" : "_ZNK4llvm4Type14subtype_rbeginEv",
   "parameters" :
   [
    {
     "is_this_ptr" : true,
     "referenced_type" : "_ZTIPKN4llvm4TypeE"
    }
   ],
   "return_type" : "_ZTINSt3__116reverse_iteratorIPKPN4llvm4TypeEEE",
   "source_file" : "external/llvm/include/llvm/IR/Type.h"
  },
  {
   "function_name" : "llvm::Type::getFltSemantics",
   "linker_set_key" : "_ZNK4llvm4Type15getFltSemanticsEv",
   "parameters" :
   [
    {
     "is_this_ptr" : true,
     "referenced_type" : "_ZTIPKN4llvm4TypeE"
    }
   ],
   "return_type" : "_ZTIRKN4llvm12fltSemanticsE",
   "source_file" : "external/llvm/include/llvm/IR/Type.h"
  },
  {
   "access" : "protected",
   "function_name" : "llvm::Type::getSubclassData",
   "linker_set_key" : "_ZNK4llvm4Type15getSubclassDataEv",
   "parameters" :
   [
    {
     "is_this_ptr" : true,
     "referenced_type" : "_ZTIPKN4llvm4TypeE"
    }
   ],
   "return_type" : "_ZTIj",
   "source_file" : "external/llvm/include/llvm/IR/Type.h"
  },
  {
   "function_name" : "llvm::Type::isAggregateType",
   "linker_set_key" : "_ZNK4llvm4Type15isAggregateTypeEv",
   "parameters" :
   [
    {
     "is_this_ptr" : true,
     "referenced_type" : "_ZTIPKN4llvm4TypeE"
    }
   ],
   "return_type" : "_ZTIb",
   "source_file" : "external/llvm/include/llvm/IR/Type.h"
  },
  {
   "function_name" : "llvm::Type::getContainedType",
   "linker_set_key" : "_ZNK4llvm4Type16getContainedTypeEj",
   "parameters" :
   [
    {
     "is_this_ptr" : true,
     "referenced_type" : "_ZTIPKN4llvm4TypeE"
    },
    {
     "referenced_type" : "_ZTIj"
    }
   ],
   "return_type" : "_ZTIPN4llvm4TypeE",
   "source_file" : "external/llvm/include/llvm/IR/Type.h"
  },
  {
   "function_name" : "llvm::Type::isFPOrFPVectorTy",
   "linker_set_key" : "_ZNK4llvm4Type16isFPOrFPVectorTyEv",
   "parameters" :
   [
    {
     "is_this_ptr" : true,
     "referenced_type" : "_ZTIPKN4llvm4TypeE"
    }
   ],
   "return_type" : "_ZTIb",
   "source_file" : "external/llvm/include/llvm/IR/Type.h"
  },
  {
   "function_name" : "llvm::Type::isFirstClassType",
   "linker_set_key" : "_ZNK4llvm4Type16isFirstClassTypeEv",
   "parameters" :
   [
    {
     "is_this_ptr" : true,
     "referenced_type" : "_ZTIPKN4llvm4TypeE"
    }
   ],
   "return_type" : "_ZTIb",
   "source_file" : "external/llvm/include/llvm/IR/Type.h"
  },
  {
   "function_name" : "llvm::Type::isFunctionVarArg",
   "linker_set_key" : "_ZNK4llvm4Type16isFunctionVarArgEv",
   "parameters" :
   [
    {
     "is_this_ptr" : true,
     "referenced_type" : "_ZTIPKN4llvm4TypeE"
    }
   ],
   "return_type" : "_ZTIb",
   "source_file" : "external/llvm/include/llvm/IR/Type.h"
  },
  {
   "function_name" : "llvm::Type::isFloatingPointTy",
   "linker_set_key" : "_ZNK4llvm4Type17isFloatingPointTyEv",
   "parameters" :
   [
    {
     "is_this_ptr" : true,
     "referenced_type" : "_ZTIPKN4llvm4TypeE"
    }
   ],
   "return_type" : "_ZTIb",
   "source_file" : "external/llvm/include/llvm/IR/Type.h"
  },
  {
   "function_name" : "llvm::Type::isSingleValueType",
   "linker_set_key" : "_ZNK4llvm4Type17isSingleValueTypeEv",
   "parameters" :
   [
    {
     "is_this_ptr" : true,
     "referenced_type" : "_ZTIPKN4llvm4TypeE"
    }
   ],
   "return_type" : "_ZTIb",
   "source_file" : "external/llvm/include/llvm/IR/Type.h"
  },
  {
   "function_name" : "llvm::Type::getIntegerBitWidth",
   "linker_set_key" : "_ZNK4llvm4Type18getIntegerBitWidthEv",
   "parameters" :
   [
    {
     "is_this_ptr" : true,
     "referenced_type" : "_ZTIPKN4llvm4TypeE"
    }
   ],
   "return_type" : "_ZTIj",
   "source_file" : "external/llvm/include/llvm/IR/Type.h"
  },
  {
   "function_name" : "llvm::Type::isIntOrIntVectorTy",
   "linker_set_key" : "_ZNK4llvm4Type18isIntOrIntVectorTyEv",
   "parameters" :
   [
    {
     "is_this_ptr" : true,
     "referenced_type" : "_ZTIPKN4llvm4TypeE"
    }
   ],
   "return_type" : "_ZTIb",
   "source_file" : "external/llvm/include/llvm/IR/Type.h"
  },
  {
   "function_name" : "llvm::Type::isPtrOrPtrVectorTy",
   "linker_set_key" : "_ZNK4llvm4Type18isPtrOrPtrVectorTyEv",
   "parameters" :
   [
    {
     "is_this_ptr" : true,
     "referenced_type" : "_ZTIPKN4llvm4TypeE"
    }
   ],
   "return_type" : "_ZTIb",
   "source_file" : "external/llvm/include/llvm/IR/Type.h"
  },
  {
   "function_name" : "llvm::Type::getArrayElementType",
   "linker_set_key" : "_ZNK4llvm4Type19getArrayElementTypeEv",
   "parameters" :
   [
    {
     "is_this_ptr" : true,
     "referenced_type" : "_ZTIPKN4llvm4TypeE"
    }
   ],
   "return_type" : "_ZTIPN4llvm4TypeE",
   "source_file" : "external/llvm/include/llvm/IR/Type.h"
  },
  {
   "function_name" : "llvm::Type::getArrayNumElements",
   "linker_set_key" : "_ZNK4llvm4Type19getArrayNumElementsEv",
   "parameters" :
   [
    {
     "is_this_ptr" : true,
     "referenced_type" : "_ZTIPKN4llvm4TypeE"
    }
   ],
   "return_type" : "_ZTIm",
   "source_file" : "external/llvm/include/llvm/IR/Type.h"
  },
  {
   "function_name" : "llvm::Type::getFunctionNumParams",
   "linker_set_key" : "_ZNK4llvm4Type20getFunctionNumParamsEv",
   "parameters" :
   [
    {
     "is_this_ptr" : true,
     "referenced_type" : "_ZTIPKN4llvm4TypeE"
    }
   ],
   "return_type" : "_ZTIj",
   "source_file" : "external/llvm/include/llvm/IR/Type.h"
  },
  {
   "function_name" : "llvm::Type::getFunctionParamType",
   "linker_set_key" : "_ZNK4llvm4Type20getFunctionParamTypeEj",
   "parameters" :
   [
    {
     "is_this_ptr" : true,
     "referenced_type" : "_ZTIPKN4llvm4TypeE"
    },
    {
     "referenced_type" : "_ZTIj"
    }
   ],
   "return_type" : "_ZTIPN4llvm4TypeE",
   "source_file" : "external/llvm/include/llvm/IR/Type.h"
  },
  {
   "function_name" : "llvm::Type::getNumContainedTypes",
   "linker_set_key" : "_ZNK4llvm4Type20getNumContainedTypesEv",
   "parameters" :
   [
    {
     "is_this_ptr" : true,
     "referenced_type" : "_ZTIPKN4llvm4TypeE"
    }
   ],
   "return_type" : "_ZTIj",
   "source_file" : "external/llvm/include/llvm/IR/Type.h"
  },
  {
   "function_name" : "llvm::Type::getStructElementType",
   "linker_set_key" : "_ZNK4llvm4Type20getStructElementTypeEj",
   "parameters" :
   [
    {
     "is_this_ptr" : true,
     "referenced_type" : "_ZTIPKN4llvm4TypeE"
    },
    {
     "referenced_type" : "_ZTIj"
    }
   ],
   "return_type" : "_ZTIPN4llvm4TypeE",
   "source_file" : "external/llvm/include/llvm/IR/Type.h"
  },
  {
   "function_name" : "llvm::Type::getStructNumElements",
   "linker_set_key" : "_ZNK4llvm4Type20getStructNumElementsEv",
   "parameters" :
   [
    {
     "is_this_ptr" : true,
     "referenced_type" : "_ZTIPKN4llvm4TypeE"
    }
   ],
   "return_type" : "_ZTIj",
   "source_file" : "external/llvm/include/llvm/IR/Type.h"
  },
  {
   "function_name" : "llvm::Type::getVectorElementType",
   "linker_set_key" : "_ZNK4llvm4Type20getVectorElementTypeEv",
   "parameters" :
   [
    {
     "is_this_ptr" : true,
     "referenced_type" : "_ZTIPKN4llvm4TypeE"
    }
   ],
   "return_type" : "_ZTIPN4llvm4TypeE",
   "source_file" : "external/llvm/include/llvm/IR/Type.h"
  },
  {
   "function_name" : "llvm::Type::getVectorNumElements",
   "linker_set_key" : "_ZNK4llvm4Type20getVectorNumElementsEv",
   "parameters" :
   [
    {
     "is_this_ptr" : true,
     "referenced_type" : "_ZTIPKN4llvm4TypeE"
    }
   ],
   "return_type" : "_ZTIj",
   "source_file" : "external/llvm/include/llvm/IR/Type.h"
  },
  {
   "function_name" : "llvm::Type::getPointerElementType",
   "linker_set_key" : "_ZNK4llvm4Type21getPointerElementTypeEv",
   "parameters" :
   [
    {
     "is_this_ptr" : true,
     "referenced_type" : "_ZTIPKN4llvm4TypeE"
    }
   ],
   "return_type" : "_ZTIPN4llvm4TypeE",
   "source_file" : "external/llvm/include/llvm/IR/Type.h"
  },
  {
   "function_name" : "llvm::Type::getPointerAddressSpace",
   "linker_set_key" : "_ZNK4llvm4Type22getPointerAddressSpaceEv",
   "parameters" :
   [
    {
     "is_this_ptr" : true,
     "referenced_type" : "_ZTIPKN4llvm4TypeE"
    }
   ],
   "return_type" : "_ZTIj",
   "source_file" : "external/llvm/include/llvm/IR/Type.h"
  },
  {
   "function_name" : "llvm::Type::getSequentialElementType",
   "linker_set_key" : "_ZNK4llvm4Type24getSequentialElementTypeEv",
   "parameters" :
   [
    {
     "is_this_ptr" : true,
     "referenced_type" : "_ZTIPKN4llvm4TypeE"
    }
   ],
   "return_type" : "_ZTIPN4llvm4TypeE",
   "source_file" : "external/llvm/include/llvm/IR/Type.h"
  },
  {
   "function_name" : "llvm::Type::isSized",
   "linker_set_key" : "_ZNK4llvm4Type7isSizedEPNS_15SmallPtrSetImplIPS0_EE",
   "parameters" :
   [
    {
     "is_this_ptr" : true,
     "referenced_type" : "_ZTIPKN4llvm4TypeE"
    },
    {
     "default_arg" : true,
     "referenced_type" : "_ZTIPN4llvm15SmallPtrSetImplIPNS_4TypeEEE"
    }
   ],
   "return_type" : "_ZTIb",
   "source_file" : "external/llvm/include/llvm/IR/Type.h"
  },
  {
   "function_name" : "llvm::Type::isHalfTy",
   "linker_set_key" : "_ZNK4llvm4Type8isHalfTyEv",
   "parameters" :
   [
    {
     "is_this_ptr" : true,
     "referenced_type" : "_ZTIPKN4llvm4TypeE"
    }
   ],
   "return_type" : "_ZTIb",
   "source_file" : "external/llvm/include/llvm/IR/Type.h"
  },
  {
   "function_name" : "llvm::Type::isVoidTy",
   "linker_set_key" : "_ZNK4llvm4Type8isVoidTyEv",
   "parameters" :
   [
    {
     "is_this_ptr" : true,
     "referenced_type" : "_ZTIPKN4llvm4TypeE"
    }
   ],
   "return_type" : "_ZTIb",
   "source_file" : "external/llvm/include/llvm/IR/Type.h"
  },
  {
   "function_name" : "llvm::Type::subtypes",
   "linker_set_key" : "_ZNK4llvm4Type8subtypesEv",
   "parameters" :
   [
    {
     "is_this_ptr" : true,
     "referenced_type" : "_ZTIPKN4llvm4TypeE"
    }
   ],
   "return_type" : "_ZTIN4llvm8ArrayRefIPNS_4TypeEEE",
   "source_file" : "external/llvm/include/llvm/IR/Type.h"
  },
  {
   "function_name" : "llvm::Type::getTypeID",
   "linker_set_key" : "_ZNK4llvm4Type9getTypeIDEv",
   "parameters" :
   [
    {
     "is_this_ptr" : true,
     "referenced_type" : "_ZTIPKN4llvm4TypeE"
    }
   ],
   "return_type" : "_ZTIN4llvm4Type6TypeIDE",
   "source_file" : "external/llvm/include/llvm/IR/Type.h"
  },
  {
   "function_name" : "llvm::Type::isArrayTy",
   "linker_set_key" : "_ZNK4llvm4Type9isArrayTyEv",
   "parameters" :
   [
    {
     "is_this_ptr" : true,
     "referenced_type" : "_ZTIPKN4llvm4TypeE"
    }
   ],
   "return_type" : "_ZTIb",
   "source_file" : "external/llvm/include/llvm/IR/Type.h"
  },
  {
   "function_name" : "llvm::Type::isFP128Ty",
   "linker_set_key" : "_ZNK4llvm4Type9isFP128TyEv",
   "parameters" :
   [
    {
     "is_this_ptr" : true,
     "referenced_type" : "_ZTIPKN4llvm4TypeE"
    }
   ],
   "return_type" : "_ZTIb",
   "source_file" : "external/llvm/include/llvm/IR/Type.h"
  },
  {
   "function_name" : "llvm::Type::isFloatTy",
   "linker_set_key" : "_ZNK4llvm4Type9isFloatTyEv",
   "parameters" :
   [
    {
     "is_this_ptr" : true,
     "referenced_type" : "_ZTIPKN4llvm4TypeE"
    }
   ],
   "return_type" : "_ZTIb",
   "source_file" : "external/llvm/include/llvm/IR/Type.h"
  },
  {
   "function_name" : "llvm::Type::isLabelTy",
   "linker_set_key" : "_ZNK4llvm4Type9isLabelTyEv",
   "parameters" :
   [
    {
     "is_this_ptr" : true,
     "referenced_type" : "_ZTIPKN4llvm4TypeE"
    }
   ],
   "return_type" : "_ZTIb",
   "source_file" : "external/llvm/include/llvm/IR/Type.h"
  },
  {
   "function_name" : "llvm::Type::isTokenTy",
   "linker_set_key" : "_ZNK4llvm4Type9isTokenTyEv",
   "parameters" :
   [
    {
     "is_this_ptr" : true,
     "referenced_type" : "_ZTIPKN4llvm4TypeE"
    }
   ],
   "return_type" : "_ZTIb",
   "source_file" : "external/llvm/include/llvm/IR/Type.h"
  },
  {
   "function_name" : "llvm::APInt::getRawData",
   "linker_set_key" : "_ZNK4llvm5APInt10getRawDataEv",
   "parameters" :
   [
    {
     "is_this_ptr" : true,
     "referenced_type" : "_ZTIPKN4llvm5APIntE"
    }
   ],
   "return_type" : "_ZTIPKm",
   "source_file" : "external/llvm/include/llvm/ADT/APInt.h"
  },
  {
   "function_name" : "llvm::APInt::intersects",
   "linker_set_key" : "_ZNK4llvm5APInt10intersectsERKS0_",
   "parameters" :
   [
    {
     "is_this_ptr" : true,
     "referenced_type" : "_ZTIPKN4llvm5APIntE"
    },
    {
     "referenced_type" : "_ZTIRKN4llvm5APIntE"
    }
   ],
   "return_type" : "_ZTIb",
   "source_file" : "external/llvm/include/llvm/ADT/APInt.h"
  },
  {
   "function_name" : "llvm::APInt::isMaxValue",
   "linker_set_key" : "_ZNK4llvm5APInt10isMaxValueEv",
   "parameters" :
   [
    {
     "is_this_ptr" : true,
     "referenced_type" : "_ZTIPKN4llvm5APIntE"
    }
   ],
   "return_type" : "_ZTIb",
   "source_file" : "external/llvm/include/llvm/ADT/APInt.h"
  },
  {
   "function_name" : "llvm::APInt::isMinValue",
   "linker_set_key" : "_ZNK4llvm5APInt10isMinValueEv",
   "parameters" :
   [
    {
     "is_this_ptr" : true,
     "referenced_type" : "_ZTIPKN4llvm5APIntE"
    }
   ],
   "return_type" : "_ZTIb",
   "source_file" : "external/llvm/include/llvm/ADT/APInt.h"
  },
  {
   "function_name" : "llvm::APInt::isNegative",
   "linker_set_key" : "_ZNK4llvm5APInt10isNegativeEv",
   "parameters" :
   [
    {
     "is_this_ptr" : true,
     "referenced_type" : "_ZTIPKN4llvm5APIntE"
    }
   ],
   "return_type" : "_ZTIb",
   "source_file" : "external/llvm/include/llvm/ADT/APInt.h"
  },
  {
   "function_name" : "llvm::APInt::isPowerOf2",
   "linker_set_key" : "_ZNK4llvm5APInt10isPowerOf2Ev",
   "parameters" :
   [
    {
     "is_this_ptr" : true,
     "referenced_type" : "_ZTIPKN4llvm5APIntE"
    }
   ],
   "return_type" : "_ZTIb",
   "source_file" : "external/llvm/include/llvm/ADT/APInt.h"
  },
  {
   "function_name" : "llvm::APInt::bitsToFloat",
   "linker_set_key" : "_ZNK4llvm5APInt11bitsToFloatEv",
   "parameters" :
   [
    {
     "is_this_ptr" : true,
     "referenced_type" : "_ZTIPKN4llvm5APIntE"
    }
   ],
   "return_type" : "_ZTIf",
   "source_file" : "external/llvm/include/llvm/ADT/APInt.h"
  },
  {
   "function_name" : "llvm::APInt::getBitWidth",
   "linker_set_key" : "_ZNK4llvm5APInt11getBitWidthEv",
   "parameters" :
   [
    {
     "is_this_ptr" : true,
     "referenced_type" : "_ZTIPKN4llvm5APIntE"
    }
   ],
   "return_type" : "_ZTIj",
   "source_file" : "external/llvm/include/llvm/ADT/APInt.h"
  },
  {
   "function_name" : "llvm::APInt::getNumWords",
   "linker_set_key" : "_ZNK4llvm5APInt11getNumWordsEv",
   "parameters" :
   [
    {
     "is_this_ptr" : true,
     "referenced_type" : "_ZTIPKN4llvm5APIntE"
    }
   ],
   "return_type" : "_ZTIj",
   "source_file" : "external/llvm/include/llvm/ADT/APInt.h"
  },
  {
   "function_name" : "llvm::APInt::bitsToDouble",
   "linker_set_key" : "_ZNK4llvm5APInt12bitsToDoubleEv",
   "parameters" :
   [
    {
     "is_this_ptr" : true,
     "referenced_type" : "_ZTIPKN4llvm5APIntE"
    }
   ],
   "return_type" : "_ZTId",
   "source_file" : "external/llvm/include/llvm/ADT/APInt.h"
  },
  {
   "function_name" : "llvm::APInt::ceilLogBase2",
   "linker_set_key" : "_ZNK4llvm5APInt12ceilLogBase2Ev",
   "parameters" :
   [
    {
     "is_this_ptr" : true,
     "referenced_type" : "_ZTIPKN4llvm5APIntE"
    }
   ],
   "return_type" : "_ZTIj",
   "source_file" : "external/llvm/include/llvm/ADT/APInt.h"
  },
  {
   "function_name" : "llvm::APInt::getBoolValue",
   "linker_set_key" : "_ZNK4llvm5APInt12getBoolValueEv",
   "parameters" :
   [
    {
     "is_this_ptr" : true,
     "referenced_type" : "_ZTIPKN4llvm5APIntE"
    }
   ],
   "return_type" : "_ZTIb",
   "source_file" : "external/llvm/include/llvm/ADT/APInt.h"
  },
  {
   "function_name" : "llvm::APInt::getSExtValue",
   "linker_set_key" : "_ZNK4llvm5APInt12getSExtValueEv",
   "parameters" :
   [
    {
     "is_this_ptr" : true,
     "referenced_type" : "_ZTIPKN4llvm5APIntE"
    }
   ],
   "return_type" : "_ZTIl",
   "source_file" : "external/llvm/include/llvm/ADT/APInt.h"
  },
  {
   "function_name" : "llvm::APInt::getZExtValue",
   "linker_set_key" : "_ZNK4llvm5APInt12getZExtValueEv",
   "parameters" :
   [
    {
     "is_this_ptr" : true,
     "referenced_type" : "_ZTIPKN4llvm5APIntE"
    }
   ],
   "return_type" : "_ZTIm",
   "source_file" : "external/llvm/include/llvm/ADT/APInt.h"
  },
  {
   "function_name" : "llvm::APInt::isSignedIntN",
   "linker_set_key" : "_ZNK4llvm5APInt12isSignedIntNEj",
   "parameters" :
   [
    {
     "is_this_ptr" : true,
     "referenced_type" : "_ZTIPKN4llvm5APIntE"
    },
    {
     "referenced_type" : "_ZTIj"
    }
   ],
   "return_type" : "_ZTIb",
   "source_file" : "external/llvm/include/llvm/ADT/APInt.h"
  },
  {
   "access" : "private",
   "function_name" : "llvm::APInt::isSingleWord",
   "linker_set_key" : "_ZNK4llvm5APInt12isSingleWordEv",
   "parameters" :
   [
    {
     "is_this_ptr" : true,
     "referenced_type" : "_ZTIPKN4llvm5APIntE"
    }
   ],
   "return_type" : "_ZTIb",
   "source_file" : "external/llvm/include/llvm/ADT/APInt.h"
  },
  {
   "function_name" : "llvm::APInt::needsCleanup",
   "linker_set_key" : "_ZNK4llvm5APInt12needsCleanupEv",
   "parameters" :
   [
    {
     "is_this_ptr" : true,
     "referenced_type" : "_ZTIPKN4llvm5APIntE"
    }
   ],
   "return_type" : "_ZTIb",
   "source_file" : "external/llvm/include/llvm/ADT/APInt.h"
  },
  {
   "function_name" : "llvm::APInt::exactLogBase2",
   "linker_set_key" : "_ZNK4llvm5APInt13exactLogBase2Ev",
   "parameters" :
   [
    {
     "is_this_ptr" : true,
     "referenced_type" : "_ZTIPKN4llvm5APIntE"
    }
   ],
   "return_type" : "_ZTIi",
   "source_file" : "external/llvm/include/llvm/ADT/APInt.h"
  },
  {
   "function_name" : "llvm::APInt::getActiveBits",
   "linker_set_key" : "_ZNK4llvm5APInt13getActiveBitsEv",
   "parameters" :
   [
    {
     "is_this_ptr" : true,
     "referenced_type" : "_ZTIPKN4llvm5APIntE"
    }
   ],
   "return_type" : "_ZTIj",
   "source_file" : "external/llvm/include/llvm/ADT/APInt.h"
  },
  {
   "function_name" : "llvm::APInt::isNonNegative",
   "linker_set_key" : "_ZNK4llvm5APInt13isNonNegativeEv",
   "parameters" :
   [
    {
     "is_this_ptr" : true,
     "referenced_type" : "_ZTIPKN4llvm5APIntE"
    }
   ],
   "return_type" : "_ZTIb",
   "source_file" : "external/llvm/include/llvm/ADT/APInt.h"
  },
  {
   "function_name" : "llvm::APInt::roundToDouble",
   "linker_set_key" : "_ZNK4llvm5APInt13roundToDoubleEv",
   "parameters" :
   [
    {
     "is_this_ptr" : true,
     "referenced_type" : "_ZTIPKN4llvm5APIntE"
    }
   ],
   "return_type" : "_ZTId",
   "source_file" : "external/llvm/include/llvm/ADT/APInt.h"
  },
  {
   "function_name" : "llvm::APInt::getActiveWords",
   "linker_set_key" : "_ZNK4llvm5APInt14getActiveWordsEv",
   "parameters" :
   [
    {
     "is_this_ptr" : true,
     "referenced_type" : "_ZTIPKN4llvm5APIntE"
    }
   ],
   "return_type" : "_ZTIj",
   "source_file" : "external/llvm/include/llvm/ADT/APInt.h"
  },
  {
   "function_name" : "llvm::APInt::getNumSignBits",
   "linker_set_key" : "_ZNK4llvm5APInt14getNumSignBitsEv",
   "parameters" :
   [
    {
     "is_this_ptr" : true,
     "referenced_type" : "_ZTIPKN4llvm5APIntE"
    }
   ],
   "return_type" : "_ZTIj",
   "source_file" : "external/llvm/include/llvm/ADT/APInt.h"
  },
  {
   "function_name" : "llvm::APInt::isAllOnesValue",
   "linker_set_key" : "_ZNK4llvm5APInt14isAllOnesValueEv",
   "parameters" :
   [
    {
     "is_this_ptr" : true,
     "referenced_type" : "_ZTIPKN4llvm5APIntE"
    }
   ],
   "return_type" : "_ZTIb",
   "source_file" : "external/llvm/include/llvm/ADT/APInt.h"
  },
  {
   "function_name" : "llvm::APInt::toStringSigned",
   "linker_set_key" : "_ZNK4llvm5APInt14toStringSignedERNS_15SmallVectorImplIcEEj",
   "parameters" :
   [
    {
     "is_this_ptr" : true,
     "referenced_type" : "_ZTIPKN4llvm5APIntE"
    },
    {
     "referenced_type" : "_ZTIRN4llvm15SmallVectorImplIcEE"
    },
    {
     "default_arg" : true,
     "referenced_type" : "_ZTIj"
    }
   ],
   "return_type" : "_ZTIv",
   "source_file" : "external/llvm/include/llvm/ADT/APInt.h"
  },
  {
   "function_name" : "llvm::APInt::countPopulation",
   "linker_set_key" : "_ZNK4llvm5APInt15countPopulationEv",
   "parameters" :
   [
    {
     "is_this_ptr" : true,
     "referenced_type" : "_ZTIPKN4llvm5APIntE"
    }
   ],
   "return_type" : "_ZTIj",
   "source_file" : "external/llvm/include/llvm/ADT/APInt.h"
  },
  {
   "function_name" : "llvm::APInt::getLimitedValue",
   "linker_set_key" : "_ZNK4llvm5APInt15getLimitedValueEm",
   "parameters" :
   [
    {
     "is_this_ptr" : true,
     "referenced_type" : "_ZTIPKN4llvm5APIntE"
    },
    {
     "default_arg" : true,
     "referenced_type" : "_ZTIm"
    }
   ],
   "return_type" : "_ZTIm",
   "source_file" : "external/llvm/include/llvm/ADT/APInt.h"
  },
  {
   "function_name" : "llvm::APInt::nearestLogBase2",
   "linker_set_key" : "_ZNK4llvm5APInt15nearestLogBase2Ev",
   "parameters" :
   [
    {
     "is_this_ptr" : true,
     "referenced_type" : "_ZTIPKN4llvm5APIntE"
    }
   ],
   "return_type" : "_ZTIj",
   "source_file" : "external/llvm/include/llvm/ADT/APInt.h"
  },
  {
   "function_name" : "llvm::APInt::getMinSignedBits",
   "linker_set_key" : "_ZNK4llvm5APInt16getMinSignedBitsEv",
   "parameters" :
   [
    {
     "is_this_ptr" : true,
     "referenced_type" : "_ZTIPKN4llvm5APIntE"
    }
   ],
   "return_type" : "_ZTIj",
   "source_file" : "external/llvm/include/llvm/ADT/APInt.h"
  },
  {
   "function_name" : "llvm::APInt::isMaxSignedValue",
   "linker_set_key" : "_ZNK4llvm5APInt16isMaxSignedValueEv",
   "parameters" :
   [
    {
     "is_this_ptr" : true,
     "referenced_type" : "_ZTIPKN4llvm5APIntE"
    }
   ],
   "return_type" : "_ZTIb",
   "source_file" : "external/llvm/include/llvm/ADT/APInt.h"
  },
  {
   "function_name" : "llvm::APInt::isMinSignedValue",
   "linker_set_key" : "_ZNK4llvm5APInt16isMinSignedValueEv",
   "parameters" :
   [
    {
     "is_this_ptr" : true,
     "referenced_type" : "_ZTIPKN4llvm5APIntE"
    }
   ],
   "return_type" : "_ZTIb",
   "source_file" : "external/llvm/include/llvm/ADT/APInt.h"
  },
  {
   "function_name" : "llvm::APInt::toStringUnsigned",
   "linker_set_key" : "_ZNK4llvm5APInt16toStringUnsignedERNS_15SmallVectorImplIcEEj",
   "parameters" :
   [
    {
     "is_this_ptr" : true,
     "referenced_type" : "_ZTIPKN4llvm5APIntE"
    },
    {
     "referenced_type" : "_ZTIRN4llvm15SmallVectorImplIcEE"
    },
    {
     "default_arg" : true,
     "referenced_type" : "_ZTIj"
    }
   ],
   "return_type" : "_ZTIv",
   "source_file" : "external/llvm/include/llvm/ADT/APInt.h"
  },
  {
   "function_name" : "llvm::APInt::countLeadingZeros",
   "linker_set_key" : "_ZNK4llvm5APInt17countLeadingZerosEv",
   "parameters" :
   [
    {
     "is_this_ptr" : true,
     "referenced_type" : "_ZTIPKN4llvm5APIntE"
    }
   ],
   "return_type" : "_ZTIj",
   "source_file" : "external/llvm/include/llvm/ADT/APInt.h"
  },
  {
   "function_name" : "llvm::APInt::countTrailingOnes",
   "linker_set_key" : "_ZNK4llvm5APInt17countTrailingOnesEv",
   "parameters" :
   [
    {
     "is_this_ptr" : true,
     "referenced_type" : "_ZTIPKN4llvm5APIntE"
    }
   ],
   "return_type" : "_ZTIj",
   "source_file" : "external/llvm/include/llvm/ADT/APInt.h"
  },
  {
   "function_name" : "llvm::APInt::isStrictlyPositive",
   "linker_set_key" : "_ZNK4llvm5APInt18isStrictlyPositiveEv",
   "parameters" :
   [
    {
     "is_this_ptr" : true,
     "referenced_type" : "_ZTIPKN4llvm5APIntE"
    }
   ],
   "return_type" : "_ZTIb",
   "source_file" : "external/llvm/include/llvm/ADT/APInt.h"
  },
  {
   "function_name" : "llvm::APInt::signedRoundToDouble",
   "linker_set_key" : "_ZNK4llvm5APInt19signedRoundToDoubleEv",
   "parameters" :
   [
    {
     "is_this_ptr" : true,
     "referenced_type" : "_ZTIPKN4llvm5APIntE"
    }
   ],
   "return_type" : "_ZTId",
   "source_file" : "external/llvm/include/llvm/ADT/APInt.h"
  },
  {
   "function_name" : "llvm::APInt::Or",
   "linker_set_key" : "_ZNK4llvm5APInt2OrERKS0_",
   "parameters" :
   [
    {
     "is_this_ptr" : true,
     "referenced_type" : "_ZTIPKN4llvm5APIntE"
    },
    {
     "referenced_type" : "_ZTIRKN4llvm5APIntE"
    }
   ],
   "return_type" : "_ZTIN4llvm5APIntE",
   "source_file" : "external/llvm/include/llvm/ADT/APInt.h"
  },
  {
   "function_name" : "llvm::APInt::eq",
   "linker_set_key" : "_ZNK4llvm5APInt2eqERKS0_",
   "parameters" :
   [
    {
     "is_this_ptr" : true,
     "referenced_type" : "_ZTIPKN4llvm5APIntE"
    },
    {
     "referenced_type" : "_ZTIRKN4llvm5APIntE"
    }
   ],
   "return_type" : "_ZTIb",
   "source_file" : "external/llvm/include/llvm/ADT/APInt.h"
  },
  {
   "function_name" : "llvm::APInt::ne",
   "linker_set_key" : "_ZNK4llvm5APInt2neERKS0_",
   "parameters" :
   [
    {
     "is_this_ptr" : true,
     "referenced_type" : "_ZTIPKN4llvm5APIntE"
    },
    {
     "referenced_type" : "_ZTIRKN4llvm5APIntE"
    }
   ],
   "return_type" : "_ZTIb",
   "source_file" : "external/llvm/include/llvm/ADT/APInt.h"
  },
  {
   "function_name" : "llvm::APInt::And",
   "linker_set_key" : "_ZNK4llvm5APInt3AndERKS0_",
   "parameters" :
   [
    {
     "is_this_ptr" : true,
     "referenced_type" : "_ZTIPKN4llvm5APIntE"
    },
    {
     "referenced_type" : "_ZTIRKN4llvm5APIntE"
    }
   ],
   "return_type" : "_ZTIN4llvm5APIntE",
   "source_file" : "external/llvm/include/llvm/ADT/APInt.h"
  },
  {
   "function_name" : "llvm::APInt::Xor",
   "linker_set_key" : "_ZNK4llvm5APInt3XorERKS0_",
   "parameters" :
   [
    {
     "is_this_ptr" : true,
     "referenced_type" : "_ZTIPKN4llvm5APIntE"
    },
    {
     "referenced_type" : "_ZTIRKN4llvm5APIntE"
    }
   ],
   "return_type" : "_ZTIN4llvm5APIntE",
   "source_file" : "external/llvm/include/llvm/ADT/APInt.h"
  },
  {
   "function_name" : "llvm::APInt::abs",
   "linker_set_key" : "_ZNK4llvm5APInt3absEv",
   "parameters" :
   [
    {
     "is_this_ptr" : true,
     "referenced_type" : "_ZTIPKN4llvm5APIntE"
    }
   ],
   "return_type" : "_ZTIN4llvm5APIntE",
   "source_file" : "external/llvm/include/llvm/ADT/APInt.h"
  },
  {
   "function_name" : "llvm::APInt::sge",
   "linker_set_key" : "_ZNK4llvm5APInt3sgeERKS0_",
   "parameters" :
   [
    {
     "is_this_ptr" : true,
     "referenced_type" : "_ZTIPKN4llvm5APIntE"
    },
    {
     "referenced_type" : "_ZTIRKN4llvm5APIntE"
    }
   ],
   "return_type" : "_ZTIb",
   "source_file" : "external/llvm/include/llvm/ADT/APInt.h"
  },
  {
   "function_name" : "llvm::APInt::sge",
   "linker_set_key" : "_ZNK4llvm5APInt3sgeEl",
   "parameters" :
   [
    {
     "is_this_ptr" : true,
     "referenced_type" : "_ZTIPKN4llvm5APIntE"
    },
    {
     "referenced_type" : "_ZTIl"
    }
   ],
   "return_type" : "_ZTIb",
   "source_file" : "external/llvm/include/llvm/ADT/APInt.h"
  },
  {
   "function_name" : "llvm::APInt::sgt",
   "linker_set_key" : "_ZNK4llvm5APInt3sgtERKS0_",
   "parameters" :
   [
    {
     "is_this_ptr" : true,
     "referenced_type" : "_ZTIPKN4llvm5APIntE"
    },
    {
     "referenced_type" : "_ZTIRKN4llvm5APIntE"
    }
   ],
   "return_type" : "_ZTIb",
   "source_file" : "external/llvm/include/llvm/ADT/APInt.h"
  },
  {
   "function_name" : "llvm::APInt::sgt",
   "linker_set_key" : "_ZNK4llvm5APInt3sgtEl",
   "parameters" :
   [
    {
     "is_this_ptr" : true,
     "referenced_type" : "_ZTIPKN4llvm5APIntE"
    },
    {
     "referenced_type" : "_ZTIl"
    }
   ],
   "return_type" : "_ZTIb",
   "source_file" : "external/llvm/include/llvm/ADT/APInt.h"
  },
  {
   "function_name" : "llvm::APInt::shl",
   "linker_set_key" : "_ZNK4llvm5APInt3shlEj",
   "parameters" :
   [
    {
     "is_this_ptr" : true,
     "referenced_type" : "_ZTIPKN4llvm5APIntE"
    },
    {
     "referenced_type" : "_ZTIj"
    }
   ],
   "return_type" : "_ZTIN4llvm5APIntE",
   "source_file" : "external/llvm/include/llvm/ADT/APInt.h"
  },
  {
   "function_name" : "llvm::APInt::sle",
   "linker_set_key" : "_ZNK4llvm5APInt3sleERKS0_",
   "parameters" :
   [
    {
     "is_this_ptr" : true,
     "referenced_type" : "_ZTIPKN4llvm5APIntE"
    },
    {
     "referenced_type" : "_ZTIRKN4llvm5APIntE"
    }
   ],
   "return_type" : "_ZTIb",
   "source_file" : "external/llvm/include/llvm/ADT/APInt.h"
  },
  {
   "function_name" : "llvm::APInt::sle",
   "linker_set_key" : "_ZNK4llvm5APInt3sleEm",
   "parameters" :
   [
    {
     "is_this_ptr" : true,
     "referenced_type" : "_ZTIPKN4llvm5APIntE"
    },
    {
     "referenced_type" : "_ZTIm"
    }
   ],
   "return_type" : "_ZTIb",
   "source_file" : "external/llvm/include/llvm/ADT/APInt.h"
  },
  {
   "function_name" : "llvm::APInt::slt",
   "linker_set_key" : "_ZNK4llvm5APInt3sltEl",
   "parameters" :
   [
    {
     "is_this_ptr" : true,
     "referenced_type" : "_ZTIPKN4llvm5APIntE"
    },
    {
     "referenced_type" : "_ZTIl"
    }
   ],
   "return_type" : "_ZTIb",
   "source_file" : "external/llvm/include/llvm/ADT/APInt.h"
  },
  {
   "function_name" : "llvm::APInt::uge",
   "linker_set_key" : "_ZNK4llvm5APInt3ugeERKS0_",
   "parameters" :
   [
    {
     "is_this_ptr" : true,
     "referenced_type" : "_ZTIPKN4llvm5APIntE"
    },
    {
     "referenced_type" : "_ZTIRKN4llvm5APIntE"
    }
   ],
   "return_type" : "_ZTIb",
   "source_file" : "external/llvm/include/llvm/ADT/APInt.h"
  },
  {
   "function_name" : "llvm::APInt::uge",
   "linker_set_key" : "_ZNK4llvm5APInt3ugeEm",
   "parameters" :
   [
    {
     "is_this_ptr" : true,
     "referenced_type" : "_ZTIPKN4llvm5APIntE"
    },
    {
     "referenced_type" : "_ZTIm"
    }
   ],
   "return_type" : "_ZTIb",
   "source_file" : "external/llvm/include/llvm/ADT/APInt.h"
  },
  {
   "function_name" : "llvm::APInt::ugt",
   "linker_set_key" : "_ZNK4llvm5APInt3ugtERKS0_",
   "parameters" :
   [
    {
     "is_this_ptr" : true,
     "referenced_type" : "_ZTIPKN4llvm5APIntE"
    },
    {
     "referenced_type" : "_ZTIRKN4llvm5APIntE"
    }
   ],
   "return_type" : "_ZTIb",
   "source_file" : "external/llvm/include/llvm/ADT/APInt.h"
  },
  {
   "function_name" : "llvm::APInt::ugt",
   "linker_set_key" : "_ZNK4llvm5APInt3ugtEm",
   "parameters" :
   [
    {
     "is_this_ptr" : true,
     "referenced_type" : "_ZTIPKN4llvm5APIntE"
    },
    {
     "referenced_type" : "_ZTIm"
    }
   ],
   "return_type" : "_ZTIb",
   "source_file" : "external/llvm/include/llvm/ADT/APInt.h"
  },
  {
   "function_name" : "llvm::APInt::ule",
   "linker_set_key" : "_ZNK4llvm5APInt3uleERKS0_",
   "parameters" :
   [
    {
     "is_this_ptr" : true,
     "referenced_type" : "_ZTIPKN4llvm5APIntE"
    },
    {
     "referenced_type" : "_ZTIRKN4llvm5APIntE"
    }
   ],
   "return_type" : "_ZTIb",
   "source_file" : "external/llvm/include/llvm/ADT/APInt.h"
  },
  {
   "function_name" : "llvm::APInt::ule",
   "linker_set_key" : "_ZNK4llvm5APInt3uleEm",
   "parameters" :
   [
    {
     "is_this_ptr" : true,
     "referenced_type" : "_ZTIPKN4llvm5APIntE"
    },
    {
     "referenced_type" : "_ZTIm"
    }
   ],
   "return_type" : "_ZTIb",
   "source_file" : "external/llvm/include/llvm/ADT/APInt.h"
  },
  {
   "function_name" : "llvm::APInt::ult",
   "linker_set_key" : "_ZNK4llvm5APInt3ultEm",
   "parameters" :
   [
    {
     "is_this_ptr" : true,
     "referenced_type" : "_ZTIPKN4llvm5APIntE"
    },
    {
     "referenced_type" : "_ZTIm"
    }
   ],
   "return_type" : "_ZTIb",
   "source_file" : "external/llvm/include/llvm/ADT/APInt.h"
  },
  {
   "function_name" : "llvm::APInt::isIntN",
   "linker_set_key" : "_ZNK4llvm5APInt6isIntNEj",
   "parameters" :
   [
    {
     "is_this_ptr" : true,
     "referenced_type" : "_ZTIPKN4llvm5APIntE"
    },
    {
     "referenced_type" : "_ZTIj"
    }
   ],
   "return_type" : "_ZTIb",
   "source_file" : "external/llvm/include/llvm/ADT/APInt.h"
  },
  {
   "access" : "private",
   "function_name" : "llvm::APInt::getWord",
   "linker_set_key" : "_ZNK4llvm5APInt7getWordEj",
   "parameters" :
   [
    {
     "is_this_ptr" : true,
     "referenced_type" : "_ZTIPKN4llvm5APIntE"
    },
    {
     "referenced_type" : "_ZTIj"
    }
   ],
   "return_type" : "_ZTIm",
   "source_file" : "external/llvm/include/llvm/ADT/APInt.h"
  },
  {
   "function_name" : "llvm::APInt::logBase2",
   "linker_set_key" : "_ZNK4llvm5APInt8logBase2Ev",
   "parameters" :
   [
    {
     "is_this_ptr" : true,
     "referenced_type" : "_ZTIPKN4llvm5APIntE"
    }
   ],
   "return_type" : "_ZTIj",
   "source_file" : "external/llvm/include/llvm/ADT/APInt.h"
  },
  {
   "function_name" : "llvm::APInt::isSignBit",
   "linker_set_key" : "_ZNK4llvm5APInt9isSignBitEv",
   "parameters" :
   [
    {
     "is_this_ptr" : true,
     "referenced_type" : "_ZTIPKN4llvm5APIntE"
    }
   ],
   "return_type" : "_ZTIb",
   "source_file" : "external/llvm/include/llvm/ADT/APInt.h"
  },
  {
   "function_name" : "llvm::APInt::operator&",
   "linker_set_key" : "_ZNK4llvm5APIntanERKS0_",
   "parameters" :
   [
    {
     "is_this_ptr" : true,
     "referenced_type" : "_ZTIPKN4llvm5APIntE"
    },
    {
     "referenced_type" : "_ZTIRKN4llvm5APIntE"
    }
   ],
   "return_type" : "_ZTIN4llvm5APIntE",
   "source_file" : "external/llvm/include/llvm/ADT/APInt.h"
  },
  {
   "function_name" : "llvm::APInt::operator~",
   "linker_set_key" : "_ZNK4llvm5APIntcoEv",
   "parameters" :
   [
    {
     "is_this_ptr" : true,
     "referenced_type" : "_ZTIPKN4llvm5APIntE"
    }
   ],
   "return_type" : "_ZTIN4llvm5APIntE",
   "source_file" : "external/llvm/include/llvm/ADT/APInt.h"
  },
  {
   "function_name" : "llvm::APInt::operator^",
   "linker_set_key" : "_ZNK4llvm5APInteoERKS0_",
   "parameters" :
   [
    {
     "is_this_ptr" : true,
     "referenced_type" : "_ZTIPKN4llvm5APIntE"
    },
    {
     "referenced_type" : "_ZTIRKN4llvm5APIntE"
    }
   ],
   "return_type" : "_ZTIN4llvm5APIntE",
   "source_file" : "external/llvm/include/llvm/ADT/APInt.h"
  },
  {
   "function_name" : "llvm::APInt::operator==",
   "linker_set_key" : "_ZNK4llvm5APInteqERKS0_",
   "parameters" :
   [
    {
     "is_this_ptr" : true,
     "referenced_type" : "_ZTIPKN4llvm5APIntE"
    },
    {
     "referenced_type" : "_ZTIRKN4llvm5APIntE"
    }
   ],
   "return_type" : "_ZTIb",
   "source_file" : "external/llvm/include/llvm/ADT/APInt.h"
  },
  {
   "function_name" : "llvm::APInt::operator==",
   "linker_set_key" : "_ZNK4llvm5APInteqEm",
   "parameters" :
   [
    {
