{
 "array_types" :
 [
  {
   "alignment" : 4,
   "linker_set_key" : "_ZTIA10_i",
   "name" : "int [10]",
   "referenced_type" : "_ZTIi",
   "self_type" : "_ZTIA10_i",
   "size" : 40,
   "source_file" : "bionic/libc/include/bits/pthread_types.h"
  },
  {
   "alignment" : 1,
   "linker_set_key" : "_ZTIA120_c",
   "name" : "char [120]",
   "referenced_type" : "_ZTIc",
   "self_type" : "_ZTIA120_c",
   "size" : 120,
   "source_file" : "bionic/libc/include/sys/ucontext.h"
  },
  {
   "alignment" : 4,
   "linker_set_key" : "_ZTIA128_m",
   "name" : "unsigned long [128]",
   "referenced_type" : "_ZTIm",
   "self_type" : "_ZTIA128_m",
   "size" : 512,
   "source_file" : "bionic/libc/include/sys/ucontext.h"
  },
  {
   "alignment" : 8,
   "linker_set_key" : "_ZTIA12_y",
   "name" : "unsigned long long [12]",
   "referenced_type" : "_ZTIy",
   "self_type" : "_ZTIA12_y",
   "size" : 96,
   "source_file" : "bionic/libc/kernel/uapi/linux/stat.h"
  },
  {
   "alignment" : 4,
   "linker_set_key" : "_ZTIA13_i",
   "name" : "int [13]",
   "referenced_type" : "_ZTIi",
   "self_type" : "_ZTIA13_i",
   "size" : 52,
   "source_file" : "bionic/libc/kernel/uapi/asm-generic/siginfo.h"
  },
  {
   "alignment" : 4,
   "linker_set_key" : "_ZTIA18_m",
   "name" : "unsigned long [18]",
   "referenced_type" : "_ZTIm",
   "self_type" : "_ZTIA18_m",
   "size" : 72,
   "source_file" : "bionic/libc/include/sys/user.h"
  },
  {
   "alignment" : 4,
   "linker_set_key" : "_ZTIA1_i",
   "name" : "int [1]",
   "referenced_type" : "_ZTIi",
   "self_type" : "_ZTIA1_i",
   "size" : 4,
   "source_file" : "bionic/libc/include/bits/pthread_types.h"
  },
  {
   "alignment" : 4,
   "linker_set_key" : "_ZTIA1_m",
   "name" : "unsigned long [1]",
   "referenced_type" : "_ZTIm",
   "self_type" : "_ZTIA1_m",
   "size" : 4,
   "source_file" : "bionic/libc/include/sched.h"
  },
  {
   "alignment" : 2,
   "linker_set_key" : "_ZTIA1_t",
   "name" : "unsigned short [1]",
   "referenced_type" : "_ZTIt",
   "self_type" : "_ZTIA1_t",
   "size" : 2,
   "source_file" : "bionic/libc/kernel/uapi/linux/stat.h"
  },
  {
   "alignment" : 4,
   "linker_set_key" : "_ZTIA2_i",
   "name" : "int [2]",
   "referenced_type" : "_ZTIi",
   "self_type" : "_ZTIA2_i",
   "size" : 8,
   "source_file" : "bionic/libc/kernel/uapi/asm-generic/posix_types.h"
  },
  {
   "alignment" : 4,
   "linker_set_key" : "_ZTIA2_m",
   "name" : "unsigned long [2]",
   "referenced_type" : "_ZTIm",
   "self_type" : "_ZTIA2_m",
   "size" : 8,
   "source_file" : "bionic/libc/include/bits/signal_types.h"
  },
  {
   "alignment" : 1,
   "linker_set_key" : "_ZTIA32_c",
   "name" : "char [32]",
   "referenced_type" : "_ZTIc",
   "self_type" : "_ZTIA32_c",
   "size" : 32,
   "source_file" : "bionic/libc/include/sys/user.h"
  },
  {
   "alignment" : 4,
   "linker_set_key" : "_ZTIA32_i",
   "name" : "int [32]",
   "referenced_type" : "_ZTIi",
   "self_type" : "_ZTIA32_i",
   "size" : 128,
   "source_file" : "bionic/libc/kernel/uapi/asm-generic/siginfo.h"
  },
  {
   "alignment" : 4,
   "linker_set_key" : "_ZTIA32_m",
   "name" : "unsigned long [32]",
   "referenced_type" : "_ZTIm",
   "self_type" : "_ZTIA32_m",
   "size" : 128,
   "source_file" : "bionic/libc/kernel/uapi/linux/posix_types.h"
  },
  {
   "alignment" : 8,
   "linker_set_key" : "_ZTIA32_y",
   "name" : "unsigned long long [32]",
   "referenced_type" : "_ZTIy",
   "self_type" : "_ZTIA32_y",
   "size" : 256,
   "source_file" : "bionic/libc/include/sys/user.h"
  },
  {
   "alignment" : 1,
   "linker_set_key" : "_ZTIA4_c",
   "name" : "char [4]",
   "referenced_type" : "_ZTIc",
   "self_type" : "_ZTIA4_c",
   "size" : 4,
   "source_file" : "bionic/libc/kernel/uapi/asm-generic/siginfo.h"
  },
  {
   "alignment" : 1,
   "linker_set_key" : "_ZTIA4_h",
   "name" : "unsigned char [4]",
   "referenced_type" : "_ZTIh",
   "self_type" : "_ZTIA4_h",
   "size" : 4,
   "source_file" : "bionic/libc/include/sys/stat.h"
  },
  {
   "alignment" : 4,
   "linker_set_key" : "_ZTIA65_PKc",
   "name" : "const char *[65]",
   "referenced_type" : "_ZTIPKc",
   "self_type" : "_ZTIA65_PKc",
   "size" : 260,
   "source_file" : "bionic/libc/include/signal.h"
  },
  {
   "alignment" : 4,
   "linker_set_key" : "_ZTIA8_N11user_fpregs6fp_regE",
   "name" : "user_fpregs::fp_reg [8]",
   "referenced_type" : "_ZTIN11user_fpregs6fp_regE",
   "self_type" : "_ZTIA8_N11user_fpregs6fp_regE",
   "size" : 96,
   "source_file" : "bionic/libc/include/sys/user.h"
  },
  {
   "alignment" : 1,
   "linker_set_key" : "_ZTIA8_h",
   "name" : "unsigned char [8]",
   "referenced_type" : "_ZTIh",
   "self_type" : "_ZTIA8_h",
   "size" : 8,
   "source_file" : "bionic/libc/include/sys/user.h"
  },
  {
   "alignment" : 4,
   "linker_set_key" : "_ZTIA8_i",
   "name" : "int [8]",
   "referenced_type" : "_ZTIi",
   "self_type" : "_ZTIA8_i",
   "size" : 32,
   "source_file" : "bionic/libc/include/bits/pthread_types.h"
  },
  {
   "linker_set_key" : "_ZTIA_Pc",
   "name" : "char *[]",
   "referenced_type" : "_ZTIPc",
   "self_type" : "_ZTIA_Pc",
   "source_file" : "bionic/libc/include/time.h"
  }
 ],
 "builtin_types" :
 [
  {
   "alignment" : 1,
   "is_integral" : true,
   "is_unsigned" : true,
   "linker_set_key" : "_ZTIb",
   "name" : "bool",
   "referenced_type" : "_ZTIb",
   "self_type" : "_ZTIb",
   "size" : 1
  },
  {
   "alignment" : 1,
   "is_integral" : true,
   "is_unsigned" : true,
   "linker_set_key" : "_ZTIc",
   "name" : "char",
   "referenced_type" : "_ZTIc",
   "self_type" : "_ZTIc",
   "size" : 1
  },
  {
   "alignment" : 8,
   "linker_set_key" : "_ZTIe",
   "name" : "long double",
   "referenced_type" : "_ZTIe",
   "self_type" : "_ZTIe",
   "size" : 8
  },
  {
   "alignment" : 1,
   "is_integral" : true,
   "is_unsigned" : true,
   "linker_set_key" : "_ZTIh",
   "name" : "unsigned char",
   "referenced_type" : "_ZTIh",
   "self_type" : "_ZTIh",
   "size" : 1
  },
  {
   "alignment" : 4,
   "is_integral" : true,
   "linker_set_key" : "_ZTIi",
   "name" : "int",
   "referenced_type" : "_ZTIi",
   "self_type" : "_ZTIi",
   "size" : 4
  },
  {
   "alignment" : 4,
   "is_integral" : true,
   "is_unsigned" : true,
   "linker_set_key" : "_ZTIj",
   "name" : "unsigned int",
   "referenced_type" : "_ZTIj",
   "self_type" : "_ZTIj",
   "size" : 4
  },
  {
   "alignment" : 4,
   "is_integral" : true,
   "linker_set_key" : "_ZTIl",
   "name" : "long",
   "referenced_type" : "_ZTIl",
   "self_type" : "_ZTIl",
   "size" : 4
  },
  {
   "alignment" : 4,
   "is_integral" : true,
   "is_unsigned" : true,
   "linker_set_key" : "_ZTIm",
   "name" : "unsigned long",
   "referenced_type" : "_ZTIm",
   "self_type" : "_ZTIm",
   "size" : 4
  },
  {
   "alignment" : 2,
   "is_integral" : true,
   "linker_set_key" : "_ZTIs",
   "name" : "short",
   "referenced_type" : "_ZTIs",
   "self_type" : "_ZTIs",
   "size" : 2
  },
  {
   "alignment" : 2,
   "is_integral" : true,
   "is_unsigned" : true,
   "linker_set_key" : "_ZTIt",
   "name" : "unsigned short",
   "referenced_type" : "_ZTIt",
   "self_type" : "_ZTIt",
   "size" : 2
  },
  {
   "linker_set_key" : "_ZTIv",
   "name" : "void",
   "referenced_type" : "_ZTIv",
   "self_type" : "_ZTIv"
  },
  {
   "alignment" : 8,
   "is_integral" : true,
   "linker_set_key" : "_ZTIx",
   "name" : "long long",
   "referenced_type" : "_ZTIx",
   "self_type" : "_ZTIx",
   "size" : 8
  },
  {
   "alignment" : 8,
   "is_integral" : true,
   "is_unsigned" : true,
   "linker_set_key" : "_ZTIy",
   "name" : "unsigned long long",
   "referenced_type" : "_ZTIy",
   "self_type" : "_ZTIy",
   "size" : 8
  }
 ],
 "elf_functions" : [],
 "elf_objects" : [],
 "enum_types" :
 [
  {
   "alignment" : 4,
   "enum_fields" :
   [
    {
     "enum_field_value" : 0,
     "name" : "M_HEAP_TAGGING_LEVEL_NONE"
    },
    {
     "enum_field_value" : 1,
     "name" : "M_HEAP_TAGGING_LEVEL_TBI"
    },
    {
     "enum_field_value" : 2,
     "name" : "M_HEAP_TAGGING_LEVEL_ASYNC"
    },
    {
     "enum_field_value" : 3,
     "name" : "M_HEAP_TAGGING_LEVEL_SYNC"
    }
   ],
   "linker_set_key" : "_ZTI16HeapTaggingLevel",
   "name" : "HeapTaggingLevel",
   "referenced_type" : "_ZTI16HeapTaggingLevel",
   "self_type" : "_ZTI16HeapTaggingLevel",
   "size" : 4,
   "source_file" : "bionic/libc/include/malloc.h",
   "underlying_type" : "_ZTIj"
  },
  {
   "alignment" : 4,
   "enum_fields" :
   [
    {
     "enum_field_value" : 0,
     "name" : "REG_R0"
    },
    {
     "enum_field_value" : 1,
     "name" : "REG_R1"
    },
    {
     "enum_field_value" : 2,
     "name" : "REG_R2"
    },
    {
     "enum_field_value" : 3,
     "name" : "REG_R3"
    },
    {
     "enum_field_value" : 4,
     "name" : "REG_R4"
    },
    {
     "enum_field_value" : 5,
     "name" : "REG_R5"
    },
    {
     "enum_field_value" : 6,
     "name" : "REG_R6"
    },
    {
     "enum_field_value" : 7,
     "name" : "REG_R7"
    },
    {
     "enum_field_value" : 8,
     "name" : "REG_R8"
    },
    {
     "enum_field_value" : 9,
     "name" : "REG_R9"
    },
    {
     "enum_field_value" : 10,
     "name" : "REG_R10"
    },
    {
     "enum_field_value" : 11,
     "name" : "REG_R11"
    },
    {
     "enum_field_value" : 12,
     "name" : "REG_R12"
    },
    {
     "enum_field_value" : 13,
     "name" : "REG_R13"
    },
    {
     "enum_field_value" : 14,
     "name" : "REG_R14"
    },
    {
     "enum_field_value" : 15,
     "name" : "REG_R15"
    }
   ],
   "linker_set_key" : "_ZTI7$REG_R0",
   "name" : "(anonymous enum at bionic/libc/include/sys/ucontext.h:41:1)",
   "referenced_type" : "_ZTI7$REG_R0",
   "self_type" : "_ZTI7$REG_R0",
   "size" : 4,
   "source_file" : "bionic/libc/include/sys/ucontext.h",
   "underlying_type" : "_ZTIj"
  },
  {
   "alignment" : 4,
   "enum_fields" :
   [
    {
     "enum_field_value" : 0,
     "name" : "scudo::(anonymous namespace)::Unlocked"
    },
    {
     "enum_field_value" : 1,
     "name" : "scudo::(anonymous namespace)::Locked"
    },
    {
     "enum_field_value" : 2,
     "name" : "scudo::(anonymous namespace)::Sleeping"
    }
   ],
   "linker_set_key" : "_ZTIN5scudo12_GLOBAL__N_15StateE",
   "name" : "scudo::(anonymous namespace)::State",
   "referenced_type" : "_ZTIN5scudo12_GLOBAL__N_15StateE",
   "self_type" : "_ZTIN5scudo12_GLOBAL__N_15StateE",
   "size" : 4,
   "source_file" : "external/scudo/standalone/linux.cpp",
   "underlying_type" : "_ZTIj"
  },
  {
   "alignment" : 4,
   "enum_fields" :
   [
    {
     "enum_field_value" : 0,
     "name" : "scudo::memory_order_relaxed"
    },
    {
     "enum_field_value" : 1,
     "name" : "scudo::memory_order_consume"
    },
    {
     "enum_field_value" : 2,
     "name" : "scudo::memory_order_acquire"
    },
    {
     "enum_field_value" : 3,
     "name" : "scudo::memory_order_release"
    },
    {
     "enum_field_value" : 4,
     "name" : "scudo::memory_order_acq_rel"
    },
    {
     "enum_field_value" : 5,
     "name" : "scudo::memory_order_seq_cst"
    }
   ],
   "linker_set_key" : "_ZTIN5scudo12memory_orderE",
   "name" : "scudo::memory_order",
   "referenced_type" : "_ZTIN5scudo12memory_orderE",
   "self_type" : "_ZTIN5scudo12memory_orderE",
   "size" : 4,
   "source_file" : "external/scudo/standalone/atomic_helpers.h",
   "underlying_type" : "_ZTIj"
  },
  {
   "alignment" : 4,
   "enum_fields" :
   [
    {
     "enum_field_value" : 0,
     "name" : "scudo::NoFill"
    },
    {
     "enum_field_value" : 1,
     "name" : "scudo::ZeroFill"
    },
    {
     "enum_field_value" : 2,
     "name" : "scudo::PatternOrZeroFill"
    }
   ],
   "linker_set_key" : "_ZTIN5scudo16FillContentsModeE",
   "name" : "scudo::FillContentsMode",
   "referenced_type" : "_ZTIN5scudo16FillContentsModeE",
   "self_type" : "_ZTIN5scudo16FillContentsModeE",
   "size" : 4,
   "source_file" : "external/scudo/standalone/common.h",
   "underlying_type" : "_ZTIj"
  },
  {
   "alignment" : 1,
   "enum_fields" :
   [
    {
     "enum_field_value" : 0,
     "name" : "scudo::Option::ReleaseInterval"
    },
    {
     "enum_field_value" : 1,
     "name" : "scudo::Option::MemtagTuning"
    },
    {
     "enum_field_value" : 2,
     "name" : "scudo::Option::ThreadDisableMemInit"
    },
    {
     "enum_field_value" : 3,
     "name" : "scudo::Option::MaxCacheEntriesCount"
    },
    {
     "enum_field_value" : 4,
     "name" : "scudo::Option::MaxCacheEntrySize"
    },
    {
     "enum_field_value" : 5,
     "name" : "scudo::Option::MaxTSDsCount"
    }
   ],
   "linker_set_key" : "_ZTIN5scudo6OptionE",
   "name" : "scudo::Option",
   "referenced_type" : "_ZTIN5scudo6OptionE",
   "self_type" : "_ZTIN5scudo6OptionE",
   "size" : 1,
   "source_file" : "external/scudo/standalone/common.h",
   "underlying_type" : "_ZTIh"
  }
 ],
 "function_types" :
 [
  {
   "alignment" : 4,
   "linker_set_key" : "_ZTIFPvS_jPKvE",
   "name" : "void *(void *, unsigned int, const void *)",
   "parameters" :
   [
    {
     "referenced_type" : "_ZTIPv"
    },
    {
     "referenced_type" : "_ZTIj"
    },
    {
     "referenced_type" : "_ZTIPKv"
    }
   ],
   "referenced_type" : "_ZTIFPvS_jPKvE",
   "return_type" : "_ZTIPv",
   "self_type" : "_ZTIFPvS_jPKvE",
   "source_file" : "bionic/libc/include/malloc.h"
  },
  {
   "alignment" : 4,
   "linker_set_key" : "_ZTIFPvjPKvE",
   "name" : "void *(unsigned int, const void *)",
   "parameters" :
   [
    {
     "referenced_type" : "_ZTIj"
    },
    {
     "referenced_type" : "_ZTIPKv"
    }
   ],
   "referenced_type" : "_ZTIFPvjPKvE",
   "return_type" : "_ZTIPv",
   "self_type" : "_ZTIFPvjPKvE",
   "source_file" : "bionic/libc/include/malloc.h"
  },
  {
   "alignment" : 4,
   "linker_set_key" : "_ZTIFPvjjPKvE",
   "name" : "void *(unsigned int, unsigned int, const void *)",
   "parameters" :
   [
    {
     "referenced_type" : "_ZTIj"
    },
    {
     "referenced_type" : "_ZTIj"
    },
    {
     "referenced_type" : "_ZTIPKv"
    }
   ],
   "referenced_type" : "_ZTIFPvjjPKvE",
   "return_type" : "_ZTIPv",
   "self_type" : "_ZTIFPvjjPKvE",
   "source_file" : "bionic/libc/include/malloc.h"
  },
  {
   "alignment" : 4,
   "linker_set_key" : "_ZTIFv6sigvalE",
   "name" : "void (sigval)",
   "parameters" :
   [
    {
     "referenced_type" : "_ZTI6sigval"
    }
   ],
   "referenced_type" : "_ZTIFv6sigvalE",
   "return_type" : "_ZTIv",
   "self_type" : "_ZTIFv6sigvalE",
   "source_file" : "bionic/libc/kernel/uapi/asm-generic/siginfo.h"
  },
  {
   "alignment" : 4,
   "linker_set_key" : "_ZTIFvPvPKvE",
   "name" : "void (void *, const void *)",
   "parameters" :
   [
    {
     "referenced_type" : "_ZTIPv"
    },
    {
     "referenced_type" : "_ZTIPKv"
    }
   ],
   "referenced_type" : "_ZTIFvPvPKvE",
   "return_type" : "_ZTIv",
   "self_type" : "_ZTIFvPvPKvE",
   "source_file" : "bionic/libc/include/malloc.h"
  },
  {
   "alignment" : 4,
   "linker_set_key" : "_ZTIFviE",
   "name" : "void (int)",
   "parameters" :
   [
    {
     "referenced_type" : "_ZTIi"
    }
   ],
   "referenced_type" : "_ZTIFviE",
   "return_type" : "_ZTIv",
   "self_type" : "_ZTIFviE",
   "source_file" : "bionic/libc/kernel/uapi/asm-arm/asm/signal.h"
  },
  {
   "alignment" : 4,
   "linker_set_key" : "_ZTIFviP7siginfoPvE",
   "name" : "void (int, siginfo *, void *)",
   "parameters" :
   [
    {
     "referenced_type" : "_ZTIi"
    },
    {
     "referenced_type" : "_ZTIP7siginfo"
    },
    {
     "referenced_type" : "_ZTIPv"
    }
   ],
   "referenced_type" : "_ZTIFviP7siginfoPvE",
   "return_type" : "_ZTIv",
   "self_type" : "_ZTIFviP7siginfoPvE",
   "source_file" : "bionic/libc/kernel/uapi/asm-arm/asm/signal.h"
  },
  {
   "alignment" : 4,
   "linker_set_key" : "_ZTIFvvE",
   "name" : "void ()",
   "referenced_type" : "_ZTIFvvE",
   "return_type" : "_ZTIv",
   "self_type" : "_ZTIFvvE",
   "source_file" : "bionic/libc/kernel/uapi/asm-arm/asm/signal.h"
  }
 ],
 "functions" :
 [
  {
   "function_name" : "__bionic_memchr",
   "linker_set_key" : "_Z15__bionic_memchrPKvU17pass_object_size1ij",
   "parameters" :
   [
    {
     "referenced_type" : "_ZTIKPKv"
    },
    {
     "referenced_type" : "_ZTIi"
    },
    {
     "referenced_type" : "_ZTIj"
    }
   ],
   "return_type" : "_ZTIPv",
   "source_file" : "bionic/libc/include/string.h"
  },
  {
   "function_name" : "__bionic_strchr",
   "linker_set_key" : "_Z15__bionic_strchrPKcU17pass_object_size1i",
   "parameters" :
   [
    {
     "referenced_type" : "_ZTIKPKc"
    },
    {
     "referenced_type" : "_ZTIi"
    }
   ],
   "return_type" : "_ZTIPc",
   "source_file" : "bionic/libc/include/string.h"
  },
  {
   "function_name" : "__bionic_strstr",
   "linker_set_key" : "_Z15__bionic_strstrPKcS0_",
   "parameters" :
   [
    {
     "referenced_type" : "_ZTIPKc"
    },
    {
     "referenced_type" : "_ZTIPKc"
    }
   ],
   "return_type" : "_ZTIPc",
   "source_file" : "bionic/libc/include/string.h"
  },
  {
   "function_name" : "__bionic_strpbrk",
   "linker_set_key" : "_Z16__bionic_strpbrkPKcS0_",
   "parameters" :
   [
    {
     "referenced_type" : "_ZTIPKc"
    },
    {
     "referenced_type" : "_ZTIPKc"
    }
   ],
   "return_type" : "_ZTIPc",
   "source_file" : "bionic/libc/include/string.h"
  },
  {
   "function_name" : "__bionic_strrchr",
   "linker_set_key" : "_Z16__bionic_strrchrPKcU17pass_object_size1i",
   "parameters" :
   [
    {
     "referenced_type" : "_ZTIKPKc"
    },
    {
     "referenced_type" : "_ZTIi"
    }
   ],
   "return_type" : "_ZTIPc",
   "source_file" : "bionic/libc/include/string.h"
  },
  {
   "function_name" : "memchr",
   "linker_set_key" : "_Z6memchrUa9enable_ifIXLb1EEXLb1EEEPKvU17pass_object_size1ij",
   "parameters" :
   [
    {
     "referenced_type" : "_ZTIKPKv"
    },
    {
     "referenced_type" : "_ZTIi"
    },
    {
     "referenced_type" : "_ZTIj"
    }
   ],
   "return_type" : "_ZTIPKv",
   "source_file" : "bionic/libc/include/string.h"
  },
  {
   "function_name" : "memchr",
   "linker_set_key" : "_Z6memchrUa9enable_ifIXLb1EEXLb1EEEPvU17pass_object_size1ij",
   "parameters" :
   [
    {
     "referenced_type" : "_ZTIKPv"
    },
    {
     "referenced_type" : "_ZTIi"
    },
    {
     "referenced_type" : "_ZTIj"
    }
   ],
   "return_type" : "_ZTIPv",
   "source_file" : "bionic/libc/include/string.h"
  },
  {
   "function_name" : "strchr",
   "linker_set_key" : "_Z6strchrUa9enable_ifIXLb1EEXLb1EEEPKcU17pass_object_size1i",
   "parameters" :
   [
    {
     "referenced_type" : "_ZTIKPKc"
    },
    {
     "referenced_type" : "_ZTIi"
    }
   ],
   "return_type" : "_ZTIPKc",
   "source_file" : "bionic/libc/include/string.h"
  },
  {
   "function_name" : "strchr",
   "linker_set_key" : "_Z6strchrUa9enable_ifIXLb1EEXLb1EEEPcU17pass_object_size1i",
   "parameters" :
   [
    {
     "referenced_type" : "_ZTIKPc"
    },
    {
     "referenced_type" : "_ZTIi"
    }
   ],
   "return_type" : "_ZTIPc",
   "source_file" : "bionic/libc/include/string.h"
  },
  {
   "function_name" : "strstr",
   "linker_set_key" : "_Z6strstrUa9enable_ifIXLb1EEXLb1EEEPKcS0_",
   "parameters" :
   [
    {
     "referenced_type" : "_ZTIPKc"
    },
    {
     "referenced_type" : "_ZTIPKc"
    }
   ],
   "return_type" : "_ZTIPKc",
   "source_file" : "bionic/libc/include/string.h"
  },
  {
   "function_name" : "strstr",
   "linker_set_key" : "_Z6strstrUa9enable_ifIXLb1EEXLb1EEEPcPKc",
   "parameters" :
   [
    {
     "referenced_type" : "_ZTIPc"
    },
    {
     "referenced_type" : "_ZTIPKc"
    }
   ],
   "return_type" : "_ZTIPc",
   "source_file" : "bionic/libc/include/string.h"
  },
  {
   "function_name" : "strpbrk",
   "linker_set_key" : "_Z7strpbrkUa9enable_ifIXLb1EEXLb1EEEPKcS0_",
   "parameters" :
   [
    {
     "referenced_type" : "_ZTIPKc"
    },
    {
     "referenced_type" : "_ZTIPKc"
    }
   ],
   "return_type" : "_ZTIPKc",
   "source_file" : "bionic/libc/include/string.h"
  },
  {
   "function_name" : "strpbrk",
   "linker_set_key" : "_Z7strpbrkUa9enable_ifIXLb1EEXLb1EEEPcPKc",
   "parameters" :
   [
    {
     "referenced_type" : "_ZTIPc"
    },
    {
     "referenced_type" : "_ZTIPKc"
    }
   ],
   "return_type" : "_ZTIPc",
   "source_file" : "bionic/libc/include/string.h"
  },
  {
   "function_name" : "strrchr",
   "linker_set_key" : "_Z7strrchrUa9enable_ifIXLb1EEXLb1EEEPKcU17pass_object_size1i",
   "parameters" :
   [
    {
     "referenced_type" : "_ZTIKPKc"
    },
    {
     "referenced_type" : "_ZTIi"
    }
   ],
   "return_type" : "_ZTIPKc",
   "source_file" : "bionic/libc/include/string.h"
  },
  {
   "function_name" : "strrchr",
   "linker_set_key" : "_Z7strrchrUa9enable_ifIXLb1EEXLb1EEEPcU17pass_object_size1i",
   "parameters" :
   [
    {
     "referenced_type" : "_ZTIKPc"
    },
    {
     "referenced_type" : "_ZTIi"
    }
   ],
   "return_type" : "_ZTIPc",
   "source_file" : "bionic/libc/include/string.h"
  },
  {
   "function_name" : "scudo::ScopedLock::ScopedLock",
   "linker_set_key" : "_ZN5scudo10ScopedLockC1ERNS_11HybridMutexE",
   "parameters" :
   [
    {
     "is_this_ptr" : true,
     "referenced_type" : "_ZTIPN5scudo10ScopedLockE"
    },
    {
     "referenced_type" : "_ZTIRN5scudo11HybridMutexE"
    }
   ],
   "return_type" : "_ZTIv",
   "source_file" : "external/scudo/standalone/mutex.h"
  },
  {
   "function_name" : "scudo::ScopedLock::ScopedLock",
   "linker_set_key" : "_ZN5scudo10ScopedLockC2ERNS_11HybridMutexE",
   "parameters" :
   [
    {
     "is_this_ptr" : true,
     "referenced_type" : "_ZTIPN5scudo10ScopedLockE"
    },
    {
     "referenced_type" : "_ZTIRN5scudo11HybridMutexE"
    }
   ],
   "return_type" : "_ZTIv",
   "source_file" : "external/scudo/standalone/mutex.h"
  },
  {
   "function_name" : "scudo::ScopedLock::~ScopedLock",
   "linker_set_key" : "_ZN5scudo10ScopedLockD1Ev",
   "parameters" :
   [
    {
     "is_this_ptr" : true,
     "referenced_type" : "_ZTIPN5scudo10ScopedLockE"
    }
   ],
   "return_type" : "_ZTIv",
   "source_file" : "external/scudo/standalone/mutex.h"
  },
  {
   "function_name" : "scudo::ScopedLock::~ScopedLock",
   "linker_set_key" : "_ZN5scudo10ScopedLockD2Ev",
   "parameters" :
   [
    {
     "is_this_ptr" : true,
     "referenced_type" : "_ZTIPN5scudo10ScopedLockE"
    }
   ],
   "return_type" : "_ZTIv",
   "source_file" : "external/scudo/standalone/mutex.h"
  },
  {
   "function_name" : "scudo::HybridMutex::init",
   "linker_set_key" : "_ZN5scudo11HybridMutex4initEv",
   "parameters" :
   [
    {
     "is_this_ptr" : true,
     "referenced_type" : "_ZTIPN5scudo11HybridMutexE"
    }
   ],
   "return_type" : "_ZTIv",
   "source_file" : "external/scudo/standalone/mutex.h"
  },
  {
   "function_name" : "scudo::HybridMutex::lock",
   "linker_set_key" : "_ZN5scudo11HybridMutex4lockEv",
   "parameters" :
   [
    {
     "is_this_ptr" : true,
     "referenced_type" : "_ZTIPN5scudo11HybridMutexE"
    }
   ],
   "return_type" : "_ZTIv",
   "source_file" : "external/scudo/standalone/mutex.h"
  },
  {
   "function_name" : "scudo::HybridMutex::unlock",
   "linker_set_key" : "_ZN5scudo11HybridMutex6unlockEv",
   "parameters" :
   [
    {
     "is_this_ptr" : true,
     "referenced_type" : "_ZTIPN5scudo11HybridMutexE"
    }
   ],
   "return_type" : "_ZTIv",
   "source_file" : "external/scudo/standalone/mutex.h"
  },
  {
   "function_name" : "scudo::HybridMutex::tryLock",
   "linker_set_key" : "_ZN5scudo11HybridMutex7tryLockEv",
   "parameters" :
   [
    {
     "is_this_ptr" : true,
     "referenced_type" : "_ZTIPN5scudo11HybridMutexE"
    }
   ],
   "return_type" : "_ZTIb",
   "source_file" : "external/scudo/standalone/mutex.h"
  },
  {
   "access" : "private",
   "function_name" : "scudo::HybridMutex::lockSlow",
   "linker_set_key" : "_ZN5scudo11HybridMutex8lockSlowEv",
   "parameters" :
   [
    {
     "is_this_ptr" : true,
     "referenced_type" : "_ZTIPN5scudo11HybridMutexE"
    }
   ],
   "return_type" : "_ZTIv",
   "source_file" : "external/scudo/standalone/mutex.h"
  },
  {
   "function_name" : "scudo::getPageSize",
   "linker_set_key" : "_ZN5scudo11getPageSizeEv",
   "return_type" : "_ZTIm",
   "source_file" : "external/scudo/standalone/linux.cpp"
  },
  {
   "function_name" : "scudo::getThreadID",
   "linker_set_key" : "_ZN5scudo11getThreadIDEv",
   "return_type" : "_ZTIj",
   "source_file" : "external/scudo/standalone/common.h"
  },
  {
   "function_name" : "scudo::roundDownTo",
   "linker_set_key" : "_ZN5scudo11roundDownToEmm",
   "parameters" :
   [
    {
     "referenced_type" : "_ZTIm"
    },
    {
     "referenced_type" : "_ZTIm"
    }
   ],
   "return_type" : "_ZTIm",
   "source_file" : "external/scudo/standalone/common.h"
  },
  {
   "function_name" : "scudo::ScopedString::data",
   "linker_set_key" : "_ZN5scudo12ScopedString4dataEv",
   "parameters" :
   [
    {
     "is_this_ptr" : true,
     "referenced_type" : "_ZTIPN5scudo12ScopedStringE"
    }
   ],
   "return_type" : "_ZTIPKc",
   "source_file" : "external/scudo/standalone/string_utils.h"
  },
  {
   "function_name" : "scudo::ScopedString::clear",
   "linker_set_key" : "_ZN5scudo12ScopedString5clearEv",
   "parameters" :
   [
    {
     "is_this_ptr" : true,
     "referenced_type" : "_ZTIPN5scudo12ScopedStringE"
    }
   ],
   "return_type" : "_ZTIv",
   "source_file" : "external/scudo/standalone/string_utils.h"
  },
  {
   "function_name" : "scudo::ScopedString::length",
   "linker_set_key" : "_ZN5scudo12ScopedString6lengthEv",
   "parameters" :
   [
    {
     "is_this_ptr" : true,
     "referenced_type" : "_ZTIPN5scudo12ScopedStringE"
    }
   ],
   "return_type" : "_ZTIm",
   "source_file" : "external/scudo/standalone/string_utils.h"
  },
  {
   "function_name" : "scudo::ScopedString::ScopedString",
   "linker_set_key" : "_ZN5scudo12ScopedStringC1Em",
   "parameters" :
   [
    {
     "is_this_ptr" : true,
     "referenced_type" : "_ZTIPN5scudo12ScopedStringE"
    },
    {
     "referenced_type" : "_ZTIm"
    }
   ],
   "return_type" : "_ZTIv",
   "source_file" : "external/scudo/standalone/string_utils.h"
  },
  {
   "function_name" : "scudo::ScopedString::ScopedString",
   "linker_set_key" : "_ZN5scudo12ScopedStringC2Em",
   "parameters" :
   [
    {
     "is_this_ptr" : true,
     "referenced_type" : "_ZTIPN5scudo12ScopedStringE"
    },
    {
     "referenced_type" : "_ZTIm"
    }
   ],
   "return_type" : "_ZTIv",
   "source_file" : "external/scudo/standalone/string_utils.h"
  },
  {
   "access" : "private",
   "function_name" : "scudo::VectorNoCtor<char>::reallocate",
   "linker_set_key" : "_ZN5scudo12VectorNoCtorIcE10reallocateEm",
   "parameters" :
   [
    {
     "is_this_ptr" : true,
     "referenced_type" : "_ZTIPN5scudo12VectorNoCtorIcEE"
    },
    {
     "referenced_type" : "_ZTIm"
    }
   ],
   "return_type" : "_ZTIv",
   "source_file" : "external/scudo/standalone/vector.h"
  },
  {
   "function_name" : "scudo::VectorNoCtor<char>::data",
   "linker_set_key" : "_ZN5scudo12VectorNoCtorIcE4dataEv",
   "parameters" :
   [
    {
     "is_this_ptr" : true,
     "referenced_type" : "_ZTIPN5scudo12VectorNoCtorIcEE"
    }
   ],
   "return_type" : "_ZTIPc",
   "source_file" : "external/scudo/standalone/vector.h"
  },
  {
   "function_name" : "scudo::VectorNoCtor<char>::init",
   "linker_set_key" : "_ZN5scudo12VectorNoCtorIcE4initEm",
   "parameters" :
   [
    {
     "is_this_ptr" : true,
     "referenced_type" : "_ZTIPN5scudo12VectorNoCtorIcEE"
    },
    {
     "referenced_type" : "_ZTIm"
    }
   ],
   "return_type" : "_ZTIv",
   "source_file" : "external/scudo/standalone/vector.h"
  },
  {
   "function_name" : "scudo::VectorNoCtor<char>::resize",
   "linker_set_key" : "_ZN5scudo12VectorNoCtorIcE6resizeEm",
   "parameters" :
   [
    {
     "is_this_ptr" : true,
     "referenced_type" : "_ZTIPN5scudo12VectorNoCtorIcEE"
    },
    {
     "referenced_type" : "_ZTIm"
    }
   ],
   "return_type" : "_ZTIv",
   "source_file" : "external/scudo/standalone/vector.h"
  },
  {
   "function_name" : "scudo::VectorNoCtor<char>::destroy",
   "linker_set_key" : "_ZN5scudo12VectorNoCtorIcE7destroyEv",
   "parameters" :
   [
    {
     "is_this_ptr" : true,
     "referenced_type" : "_ZTIPN5scudo12VectorNoCtorIcEE"
    }
   ],
   "return_type" : "_ZTIv",
   "source_file" : "external/scudo/standalone/vector.h"
  },
  {
   "function_name" : "scudo::VectorNoCtor<char>::reserve",
   "linker_set_key" : "_ZN5scudo12VectorNoCtorIcE7reserveEm",
   "parameters" :
   [
    {
     "is_this_ptr" : true,
     "referenced_type" : "_ZTIPN5scudo12VectorNoCtorIcEE"
    },
    {
     "referenced_type" : "_ZTIm"
    }
   ],
   "return_type" : "_ZTIv",
   "source_file" : "external/scudo/standalone/vector.h"
  },
  {
   "function_name" : "scudo::VectorNoCtor<char>::operator[]",
   "linker_set_key" : "_ZN5scudo12VectorNoCtorIcEixEm",
   "parameters" :
   [
    {
     "is_this_ptr" : true,
     "referenced_type" : "_ZTIPN5scudo12VectorNoCtorIcEE"
    },
    {
     "referenced_type" : "_ZTIm"
    }
   ],
   "return_type" : "_ZTIRc",
   "source_file" : "external/scudo/standalone/vector.h"
  },
  {
   "function_name" : "scudo::atomic_store",
   "linker_set_key" : "_ZN5scudo12atomic_storeINS_10atomic_u32EEEvPVT_NS2_4TypeENS_12memory_orderE",
   "parameters" :
   [
    {
     "referenced_type" : "_ZTIPVN5scudo10atomic_u32E"
    },
    {
     "referenced_type" : "_ZTIj"
    },
    {
     "referenced_type" : "_ZTIN5scudo12memory_orderE"
    }
   ],
   "return_type" : "_ZTIv",
   "source_file" : "external/scudo/standalone/atomic_helpers.h",
   "template_args" : [ "_ZTIN5scudo10atomic_u32E" ]
  },
  {
   "function_name" : "scudo::getRandomU32",
   "linker_set_key" : "_ZN5scudo12getRandomU32EPj",
   "parameters" :
   [
    {
     "referenced_type" : "_ZTIPj"
    }
   ],
   "return_type" : "_ZTIj",
   "source_file" : "external/scudo/standalone/common.h"
  },
  {
   "function_name" : "scudo::isPowerOfTwo",
   "linker_set_key" : "_ZN5scudo12isPowerOfTwoEm",
   "parameters" :
   [
    {
     "referenced_type" : "_ZTIm"
    }
   ],
   "return_type" : "_ZTIb",
   "source_file" : "external/scudo/standalone/common.h"
  },
  {
   "function_name" : "scudo::getRandomModN",
   "linker_set_key" : "_ZN5scudo13getRandomModNEPjj",
   "parameters" :
   [
    {
     "referenced_type" : "_ZTIPj"
    },
    {
     "referenced_type" : "_ZTIj"
    }
   ],
   "return_type" : "_ZTIj",
   "source_file" : "external/scudo/standalone/common.h"
  },
  {
   "function_name" : "scudo::yieldProcessor",
   "linker_set_key" : "_ZN5scudo14yieldProcessorEh",
   "parameters" :
   [
    {
     "referenced_type" : "_ZTIh"
    }
   ],
   "return_type" : "_ZTIv",
   "source_file" : "external/scudo/standalone/common.h"
  },
  {
   "function_name" : "scudo::atomic_exchange",
   "linker_set_key" : "_ZN5scudo15atomic_exchangeINS_10atomic_u32EEENT_4TypeEPVS2_S3_NS_12memory_orderE",
   "parameters" :
   [
    {
     "referenced_type" : "_ZTIPVN5scudo10atomic_u32E"
    },
    {
     "referenced_type" : "_ZTIj"
    },
    {
     "referenced_type" : "_ZTIN5scudo12memory_orderE"
    }
   ],
   "return_type" : "_ZTIj",
   "source_file" : "external/scudo/standalone/atomic_helpers.h",
   "template_args" : [ "_ZTIN5scudo10atomic_u32E" ]
  },
  {
   "function_name" : "scudo::getNumberOfCPUs",
   "linker_set_key" : "_ZN5scudo15getNumberOfCPUsEv",
   "return_type" : "_ZTIj",
   "source_file" : "external/scudo/standalone/common.h"
  },
  {
   "function_name" : "scudo::setAbortMessage",
   "linker_set_key" : "_ZN5scudo15setAbortMessageEPKc",
   "parameters" :
   [
    {
     "referenced_type" : "_ZTIPKc"
    }
   ],
   "return_type" : "_ZTIv",
   "source_file" : "external/scudo/standalone/common.h"
  },
  {
   "function_name" : "scudo::atomic_fetch_sub",
   "linker_set_key" : "_ZN5scudo16atomic_fetch_subINS_10atomic_u32EEENT_4TypeEPVS2_S3_NS_12memory_orderE",
   "parameters" :
   [
    {
     "referenced_type" : "_ZTIPVN5scudo10atomic_u32E"
    },
    {
     "referenced_type" : "_ZTIj"
    },
    {
     "referenced_type" : "_ZTIN5scudo12memory_orderE"
    }
   ],
   "return_type" : "_ZTIj",
   "source_file" : "external/scudo/standalone/atomic_helpers.h",
   "template_args" : [ "_ZTIN5scudo10atomic_u32E" ]
  },
  {
   "function_name" : "scudo::getMonotonicTime",
   "linker_set_key" : "_ZN5scudo16getMonotonicTimeEv",
   "return_type" : "_ZTIy",
   "source_file" : "external/scudo/standalone/common.h"
  },
  {
   "function_name" : "scudo::releasePagesToOS",
   "linker_set_key" : "_ZN5scudo16releasePagesToOSEmmmPNS_15MapPlatformDataE",
   "parameters" :
   [
    {
     "referenced_type" : "_ZTIm"
    },
    {
     "referenced_type" : "_ZTIm"
    },
    {
     "referenced_type" : "_ZTIm"
    },
    {
     "default_arg" : true,
     "referenced_type" : "_ZTIPN5scudo15MapPlatformDataE"
    }
   ],
   "return_type" : "_ZTIv",
   "source_file" : "external/scudo/standalone/common.h"
  },
  {
   "function_name" : "scudo::getPageSizeCached",
   "linker_set_key" : "_ZN5scudo17getPageSizeCachedEv",
   "return_type" : "_ZTIm",
   "source_file" : "external/scudo/standalone/common.h"
  },
  {
   "function_name" : "scudo::atomic_thread_fence",
   "linker_set_key" : "_ZN5scudo19atomic_thread_fenceENS_12memory_orderE",
   "parameters" :
   [
    {
     "referenced_type" : "_ZTIN5scudo12memory_orderE"
    }
   ],
   "return_type" : "_ZTIv",
   "source_file" : "external/scudo/standalone/atomic_helpers.h"
  },
  {
   "function_name" : "scudo::roundUpToPowerOfTwo",
   "linker_set_key" : "_ZN5scudo19roundUpToPowerOfTwoEm",
   "parameters" :
   [
    {
     "referenced_type" : "_ZTIm"
    }
   ],
   "return_type" : "_ZTIm",
   "source_file" : "external/scudo/standalone/common.h"
  },
  {
   "function_name" : "scudo::setMemoryPermission",
   "linker_set_key" : "_ZN5scudo19setMemoryPermissionEmmmPNS_15MapPlatformDataE",
   "parameters" :
   [
    {
     "referenced_type" : "_ZTIm"
    },
    {
     "referenced_type" : "_ZTIm"
    },
    {
     "referenced_type" : "_ZTIm"
    },
    {
     "default_arg" : true,
     "referenced_type" : "_ZTIPN5scudo15MapPlatformDataE"
    }
   ],
   "return_type" : "_ZTIv",
   "source_file" : "external/scudo/standalone/common.h"
  },
  {
   "function_name" : "scudo::atomic_compare_exchange",
   "linker_set_key" : "_ZN5scudo23atomic_compare_exchangeINS_10atomic_u32EEENT_4TypeEPVS2_S3_S3_",
   "parameters" :
   [
    {
     "referenced_type" : "_ZTIPVN5scudo10atomic_u32E"
    },
    {
     "referenced_type" : "_ZTIj"
    },
    {
     "referenced_type" : "_ZTIj"
    }
   ],
   "return_type" : "_ZTIj",
   "source_file" : "external/scudo/standalone/atomic_helpers.h",
   "template_args" : [ "_ZTIN5scudo10atomic_u32E" ]
  },
  {
   "function_name" : "scudo::getMostSignificantSetBitIndex",
   "linker_set_key" : "_ZN5scudo29getMostSignificantSetBitIndexEm",
   "parameters" :
   [
    {
     "referenced_type" : "_ZTIm"
    }
   ],
   "return_type" : "_ZTIm",
   "source_file" : "external/scudo/standalone/common.h"
  },
  {
   "function_name" : "scudo::atomic_compare_exchange_strong",
   "linker_set_key" : "_ZN5scudo30atomic_compare_exchange_strongINS_10atomic_u32EEEbPVT_PNS2_4TypeES5_NS_12memory_orderE",
   "parameters" :
   [
    {
     "referenced_type" : "_ZTIPVN5scudo10atomic_u32E"
    },
    {
     "referenced_type" : "_ZTIPj"
    },
    {
     "referenced_type" : "_ZTIj"
    },
    {
     "referenced_type" : "_ZTIN5scudo12memory_orderE"
    }
   ],
   "return_type" : "_ZTIb",
   "source_file" : "external/scudo/standalone/atomic_helpers.h",
   "template_args" : [ "_ZTIN5scudo10atomic_u32E" ]
  },
  {
   "function_name" : "scudo::getLeastSignificantSetBitIndex",
   "linker_set_key" : "_ZN5scudo30getLeastSignificantSetBitIndexEm",
   "parameters" :
   [
    {
     "referenced_type" : "_ZTIm"
    }
   ],
   "return_type" : "_ZTIm",
   "source_file" : "external/scudo/standalone/common.h"
  },
  {
   "function_name" : "scudo::die",
   "linker_set_key" : "_ZN5scudo3dieEv",
   "return_type" : "_ZTIv",
   "source_file" : "external/scudo/standalone/internal_defs.h"
  },
  {
   "function_name" : "scudo::map",
   "linker_set_key" : "_ZN5scudo3mapEPvmPKcmPNS_15MapPlatformDataE",
   "parameters" :
   [
    {
     "referenced_type" : "_ZTIPv"
    },
    {
     "referenced_type" : "_ZTIm"
    },
    {
     "referenced_type" : "_ZTIPKc"
    },
    {
     "default_arg" : true,
     "referenced_type" : "_ZTIm"
    },
    {
     "default_arg" : true,
     "referenced_type" : "_ZTIPN5scudo15MapPlatformDataE"
    }
   ],
   "return_type" : "_ZTIPv",
   "source_file" : "external/scudo/standalone/common.h"
  },
  {
   "function_name" : "scudo::unmap",
   "linker_set_key" : "_ZN5scudo5unmapEPvmmPNS_15MapPlatformDataE",
   "parameters" :
   [
    {
     "referenced_type" : "_ZTIPv"
    },
    {
     "referenced_type" : "_ZTIm"
    },
    {
     "default_arg" : true,
     "referenced_type" : "_ZTIm"
    },
    {
     "default_arg" : true,
     "referenced_type" : "_ZTIPN5scudo15MapPlatformDataE"
    }
   ],
   "return_type" : "_ZTIv",
   "source_file" : "external/scudo/standalone/common.h"
  },
  {
   "function_name" : "scudo::Vector<char>::Vector",
   "linker_set_key" : "_ZN5scudo6VectorIcEC1Em",
   "parameters" :
   [
    {
     "is_this_ptr" : true,
     "referenced_type" : "_ZTIPN5scudo6VectorIcEE"
    },
    {
     "referenced_type" : "_ZTIm"
    }
   ],
   "return_type" : "_ZTIv",
   "source_file" : "external/scudo/standalone/vector.h"
  },
  {
   "function_name" : "scudo::Vector<char>::Vector",
   "linker_set_key" : "_ZN5scudo6VectorIcEC2Em",
   "parameters" :
   [
    {
     "is_this_ptr" : true,
     "referenced_type" : "_ZTIPN5scudo6VectorIcEE"
    },
    {
     "referenced_type" : "_ZTIm"
    }
   ],
   "return_type" : "_ZTIv",
   "source_file" : "external/scudo/standalone/vector.h"
  },
  {
   "function_name" : "scudo::Vector<char>::~Vector",
   "linker_set_key" : "_ZN5scudo6VectorIcED1Ev",
   "parameters" :
   [
    {
     "is_this_ptr" : true,
     "referenced_type" : "_ZTIPN5scudo6VectorIcEE"
    }
   ],
   "return_type" : "_ZTIv",
   "source_file" : "external/scudo/standalone/vector.h"
  },
  {
   "function_name" : "scudo::Vector<char>::~Vector",
   "linker_set_key" : "_ZN5scudo6VectorIcED2Ev",
   "parameters" :
   [
    {
     "is_this_ptr" : true,
     "referenced_type" : "_ZTIPN5scudo6VectorIcEE"
    }
   ],
   "return_type" : "_ZTIv",
   "source_file" : "external/scudo/standalone/vector.h"
  },
  {
   "function_name" : "scudo::getEnv",
   "linker_set_key" : "_ZN5scudo6getEnvEPKc",
   "parameters" :
   [
    {
     "referenced_type" : "_ZTIPKc"
    }
   ],
   "return_type" : "_ZTIPKc",
   "source_file" : "external/scudo/standalone/common.h"
  },
  {
   "function_name" : "scudo::getLog2",
   "linker_set_key" : "_ZN5scudo7getLog2Em",
   "parameters" :
   [
    {
     "referenced_type" : "_ZTIm"
    }
   ],
   "return_type" : "_ZTIm",
   "source_file" : "external/scudo/standalone/common.h"
  },
  {
   "function_name" : "scudo::getRandom",
   "linker_set_key" : "_ZN5scudo9getRandomEPvmb",
   "parameters" :
   [
    {
     "referenced_type" : "_ZTIPv"
    },
    {
     "referenced_type" : "_ZTIm"
    },
    {
     "default_arg" : true,
     "referenced_type" : "_ZTIb"
    }
   ],
   "return_type" : "_ZTIb",
   "source_file" : "external/scudo/standalone/common.h"
  },
  {
   "function_name" : "scudo::isAligned",
   "linker_set_key" : "_ZN5scudo9isAlignedEmm",
   "parameters" :
   [
    {
     "referenced_type" : "_ZTIm"
    },
    {
     "referenced_type" : "_ZTIm"
    }
   ],
   "return_type" : "_ZTIb",
   "source_file" : "external/scudo/standalone/common.h"
  },
  {
   "function_name" : "scudo::outputRaw",
   "linker_set_key" : "_ZN5scudo9outputRawEPKc",
   "parameters" :
   [
    {
     "referenced_type" : "_ZTIPKc"
    }
   ],
   "return_type" : "_ZTIv",
   "source_file" : "external/scudo/standalone/internal_defs.h"
  },
  {
   "function_name" : "scudo::roundUpTo",
   "linker_set_key" : "_ZN5scudo9roundUpToEmm",
   "parameters" :
   [
    {
     "referenced_type" : "_ZTIm"
    },
    {
     "referenced_type" : "_ZTIm"
    }
   ],
   "return_type" : "_ZTIm",
   "source_file" : "external/scudo/standalone/common.h"
  },
  {
   "function_name" : "scudo::ScopedString::output",
   "linker_set_key" : "_ZNK5scudo12ScopedString6outputEv",
   "parameters" :
   [
    {
     "is_this_ptr" : true,
     "referenced_type" : "_ZTIPKN5scudo12ScopedStringE"
    }
   ],
   "return_type" : "_ZTIv",
   "source_file" : "external/scudo/standalone/string_utils.h"
  },
  {
   "function_name" : "scudo::VectorNoCtor<char>::data",
   "linker_set_key" : "_ZNK5scudo12VectorNoCtorIcE4dataEv",
   "parameters" :
   [
    {
     "is_this_ptr" : true,
     "referenced_type" : "_ZTIPKN5scudo12VectorNoCtorIcEE"
    }
   ],
   "return_type" : "_ZTIPKc",
   "source_file" : "external/scudo/standalone/vector.h"
  },
  {
   "function_name" : "scudo::VectorNoCtor<char>::capacity",
   "linker_set_key" : "_ZNK5scudo12VectorNoCtorIcE8capacityEv",
   "parameters" :
   [
    {
     "is_this_ptr" : true,
     "referenced_type" : "_ZTIPKN5scudo12VectorNoCtorIcEE"
    }
   ],
   "return_type" : "_ZTIm",
   "source_file" : "external/scudo/standalone/vector.h"
  }
 ],
 "global_vars" :
 [
  {
   "access" : "private",
   "linker_set_key" : "_ZN5scudo11HybridMutex13NumberOfTriesE",
   "name" : "scudo::HybridMutex::NumberOfTries",
   "referenced_type" : "_ZTIKh",
   "source_file" : "external/scudo/standalone/mutex.h"
  },
  {
   "access" : "private",
   "linker_set_key" : "_ZN5scudo11HybridMutex14NumberOfYieldsE",
   "name" : "scudo::HybridMutex::NumberOfYields",
   "referenced_type" : "_ZTIKh",
   "source_file" : "external/scudo/standalone/mutex.h"
  },
  {
   "linker_set_key" : "_ZN5scudo14PageSizeCachedE",
   "name" : "scudo::PageSizeCached",
   "referenced_type" : "_ZTIm",
   "source_file" : "external/scudo/standalone/common.h"
  },
  {
   "linker_set_key" : "_ZN5scudoL15MaxRandomLengthE",
   "name" : "scudo::MaxRandomLength",
   "referenced_type" : "_ZTIKm",
   "source_file" : "external/scudo/standalone/common.h"
  },
  {
   "linker_set_key" : "_ZN5scudoL15PatternFillByteE",
   "name" : "scudo::PatternFillByte",
   "referenced_type" : "_ZTIKh",
   "source_file" : "external/scudo/standalone/common.h"
  },
  {
   "linker_set_key" : "__free_hook",
   "name" : "__free_hook",
   "referenced_type" : "_ZTIVPFvPvPKvE",
   "source_file" : "bionic/libc/include/malloc.h"
  },
  {
   "linker_set_key" : "__malloc_hook",
   "name" : "__malloc_hook",
   "referenced_type" : "_ZTIVPFPvjPKvE",
   "source_file" : "bionic/libc/include/malloc.h"
  },
  {
   "linker_set_key" : "__memalign_hook",
   "name" : "__memalign_hook",
   "referenced_type" : "_ZTIVPFPvjjPKvE",
   "source_file" : "bionic/libc/include/malloc.h"
  },
  {
   "linker_set_key" : "__realloc_hook",
   "name" : "__realloc_hook",
   "referenced_type" : "_ZTIVPFPvS_jPKvE",
   "source_file" : "bionic/libc/include/malloc.h"
  },
  {
   "linker_set_key" : "daylight",
   "name" : "daylight",
   "referenced_type" : "_ZTIi",
   "source_file" : "bionic/libc/include/time.h"
  },
  {
   "linker_set_key" : "environ",
   "name" : "environ",
   "referenced_type" : "_ZTIPPc",
   "source_file" : "bionic/libc/include/unistd.h"
  },
  {
   "linker_set_key" : "optarg",
   "name" : "optarg",
   "referenced_type" : "_ZTIPc",
   "source_file" : "bionic/libc/include/bits/getopt.h"
  },
  {
   "linker_set_key" : "opterr",
   "name" : "opterr",
   "referenced_type" : "_ZTIi",
   "source_file" : "bionic/libc/include/bits/getopt.h"
  },
  {
   "linker_set_key" : "optind",
   "name" : "optind",
   "referenced_type" : "_ZTIi",
   "source_file" : "bionic/libc/include/bits/getopt.h"
  },
  {
   "linker_set_key" : "optopt",
   "name" : "optopt",
   "referenced_type" : "_ZTIi",
   "source_file" : "bionic/libc/include/bits/getopt.h"
  },
  {
   "linker_set_key" : "stderr",
   "name" : "stderr",
   "referenced_type" : "_ZTIP7__sFILE",
   "source_file" : "bionic/libc/include/stdio.h"
  },
  {
   "linker_set_key" : "stdin",
   "name" : "stdin",
   "referenced_type" : "_ZTIP7__sFILE",
   "source_file" : "bionic/libc/include/stdio.h"
  },
  {
   "linker_set_key" : "stdout",
   "name" : "stdout",
   "referenced_type" : "_ZTIP7__sFILE",
   "source_file" : "bionic/libc/include/stdio.h"
  },
  {
   "linker_set_key" : "sys_siglist",
   "name" : "sys_siglist",
   "referenced_type" : "_ZTIA65_KPKc",
   "source_file" : "bionic/libc/include/signal.h"
  },
  {
   "linker_set_key" : "sys_signame",
   "name" : "sys_signame",
   "referenced_type" : "_ZTIA65_KPKc",
   "source_file" : "bionic/libc/include/signal.h"
  },
  {
   "linker_set_key" : "timezone",
   "name" : "timezone",
   "referenced_type" : "_ZTIl",
   "source_file" : "bionic/libc/include/time.h"
  },
  {
   "linker_set_key" : "tzname",
   "name" : "tzname",
   "referenced_type" : "_ZTIA_Pc",
   "source_file" : "bionic/libc/include/time.h"
  }
 ],
 "lvalue_reference_types" :
 [
  {
   "alignment" : 4,
   "linker_set_key" : "_ZTIRN5scudo11HybridMutexE",
   "name" : "scudo::HybridMutex &",
   "referenced_type" : "_ZTIN5scudo11HybridMutexE",
   "self_type" : "_ZTIRN5scudo11HybridMutexE",
   "size" : 4,
   "source_file" : "external/scudo/standalone/mutex.h"
  },
  {
   "alignment" : 4,
   "linker_set_key" : "_ZTIRc",
   "name" : "char &",
   "referenced_type" : "_ZTIc",
   "self_type" : "_ZTIRc",
   "size" : 4,
   "source_file" : "external/scudo/standalone/vector.h"
  }
 ],
 "pointer_types" :
 [
  {
   "alignment" : 4,
   "linker_set_key" : "_ZTIP11robust_list",
   "name" : "robust_list *",
   "referenced_type" : "_ZTI11robust_list",
   "self_type" : "_ZTIP11robust_list",
   "size" : 4,
   "source_file" : "bionic/libc/kernel/uapi/linux/futex.h"
  },
  {
   "alignment" : 4,
   "linker_set_key" : "_ZTIP11user_fpregs",
   "name" : "user_fpregs *",
   "referenced_type" : "_ZTI11user_fpregs",
   "self_type" : "_ZTIP11user_fpregs",
   "size" : 4,
   "source_file" : "bionic/libc/include/sys/user.h"
  },
  {
   "alignment" : 4,
   "linker_set_key" : "_ZTIP7__sFILE",
   "name" : "__sFILE *",
   "referenced_type" : "_ZTI7__sFILE",
   "self_type" : "_ZTIP7__sFILE",
   "size" : 4,
   "source_file" : "bionic/libc/include/stdio.h"
  },
  {
   "alignment" : 4,
   "linker_set_key" : "_ZTIP7siginfo",
   "name" : "siginfo *",
   "referenced_type" : "_ZTI7siginfo",
   "self_type" : "_ZTIP7siginfo",
   "size" : 4,
   "source_file" : "bionic/libc/kernel/uapi/asm-arm/asm/signal.h"
  },
  {
   "alignment" : 4,
   "linker_set_key" : "_ZTIP8ucontext",
   "name" : "ucontext *",
   "referenced_type" : "_ZTI8ucontext",
   "self_type" : "_ZTIP8ucontext",
   "size" : 4,
   "source_file" : "bionic/libc/include/sys/ucontext.h"
  },
  {
   "alignment" : 4,
   "linker_set_key" : "_ZTIP9user_regs",
   "name" : "user_regs *",
   "referenced_type" : "_ZTI9user_regs",
   "self_type" : "_ZTIP9user_regs",
   "size" : 4,
   "source_file" : "bionic/libc/include/sys/user.h"
  },
  {
   "alignment" : 4,
   "linker_set_key" : "_ZTIPFPvS_jPKvE",
   "name" : "void *(*)(void *, unsigned int, const void *)",
   "referenced_type" : "_ZTIFPvS_jPKvE",
   "self_type" : "_ZTIPFPvS_jPKvE",
   "size" : 4,
   "source_file" : "bionic/libc/include/malloc.h"
  },
  {
   "alignment" : 4,
   "linker_set_key" : "_ZTIPFPvjPKvE",
   "name" : "void *(*)(unsigned int, const void *)",
   "referenced_type" : "_ZTIFPvjPKvE",
   "self_type" : "_ZTIPFPvjPKvE",
   "size" : 4,
   "source_file" : "bionic/libc/include/malloc.h"
  },
  {
   "alignment" : 4,
   "linker_set_key" : "_ZTIPFPvjjPKvE",
   "name" : "void *(*)(unsigned int, unsigned int, const void *)",
   "referenced_type" : "_ZTIFPvjjPKvE",
   "self_type" : "_ZTIPFPvjjPKvE",
   "size" : 4,
   "source_file" : "bionic/libc/include/malloc.h"
  },
  {
   "alignment" : 4,
   "linker_set_key" : "_ZTIPFv6sigvalE",
   "name" : "void (*)(sigval)",
   "referenced_type" : "_ZTIFv6sigvalE",
   "self_type" : "_ZTIPFv6sigvalE",
   "size" : 4,
   "source_file" : "bionic/libc/kernel/uapi/asm-generic/siginfo.h"
  },
  {
   "alignment" : 4,
   "linker_set_key" : "_ZTIPFvPvPKvE",
   "name" : "void (*)(void *, const void *)",
   "referenced_type" : "_ZTIFvPvPKvE",
   "self_type" : "_ZTIPFvPvPKvE",
   "size" : 4,
   "source_file" : "bionic/libc/include/malloc.h"
  },
  {
   "alignment" : 4,
   "linker_set_key" : "_ZTIPFviE",
   "name" : "void (*)(int)",
   "referenced_type" : "_ZTIFviE",
   "self_type" : "_ZTIPFviE",
   "size" : 4,
   "source_file" : "bionic/libc/kernel/uapi/asm-arm/asm/signal.h"
  },
  {
   "alignment" : 4,
   "linker_set_key" : "_ZTIPFviP7siginfoPvE",
   "name" : "void (*)(int, siginfo *, void *)",
   "referenced_type" : "_ZTIFviP7siginfoPvE",
   "self_type" : "_ZTIPFviP7siginfoPvE",
   "size" : 4,
   "source_file" : "bionic/libc/kernel/uapi/asm-arm/asm/signal.h"
  },
  {
   "alignment" : 4,
   "linker_set_key" : "_ZTIPFvvE",
   "name" : "void (*)()",
   "referenced_type" : "_ZTIFvvE",
   "self_type" : "_ZTIPFvvE",
   "size" : 4,
   "source_file" : "bionic/libc/kernel/uapi/asm-arm/asm/signal.h"
  },
  {
   "alignment" : 4,
   "linker_set_key" : "_ZTIPKN5scudo12ScopedStringE",
   "name" : "const scudo::ScopedString *",
   "referenced_type" : "_ZTIKN5scudo12ScopedStringE",
   "self_type" : "_ZTIPKN5scudo12ScopedStringE",
   "size" : 4,
   "source_file" : "external/scudo/standalone/string_utils.h"
  },
  {
   "alignment" : 4,
   "linker_set_key" : "_ZTIPKN5scudo12VectorNoCtorIcEE",
   "name" : "const scudo::VectorNoCtor<char> *",
   "referenced_type" : "_ZTIKN5scudo12VectorNoCtorIcEE",
   "self_type" : "_ZTIPKN5scudo12VectorNoCtorIcEE",
   "size" : 4,
   "source_file" : "external/scudo/standalone/vector.h"
  },
  {
   "alignment" : 4,
   "linker_set_key" : "_ZTIPKc",
   "name" : "const char *",
   "referenced_type" : "_ZTIKc",
   "self_type" : "_ZTIPKc",
   "size" : 4,
   "source_file" : "external/scudo/standalone/internal_defs.h"
  },
  {
   "alignment" : 4,
   "linker_set_key" : "_ZTIPKv",
   "name" : "const void *",
   "referenced_type" : "_ZTIKv",
   "self_type" : "_ZTIPKv",
   "size" : 4,
   "source_file" : "bionic/libc/include/string.h"
  },
  {
   "alignment" : 4,
   "linker_set_key" : "_ZTIPN5scudo10ScopedLockE",
   "name" : "scudo::ScopedLock *",
   "referenced_type" : "_ZTIN5scudo10ScopedLockE",
   "self_type" : "_ZTIPN5scudo10ScopedLockE",
   "size" : 4,
   "source_file" : "external/scudo/standalone/mutex.h"
  },
  {
   "alignment" : 4,
   "linker_set_key" : "_ZTIPN5scudo11HybridMutexE",
   "name" : "scudo::HybridMutex *",
   "referenced_type" : "_ZTIN5scudo11HybridMutexE",
   "self_type" : "_ZTIPN5scudo11HybridMutexE",
   "size" : 4,
   "source_file" : "external/scudo/standalone/mutex.h"
  },
  {
   "alignment" : 4,
   "linker_set_key" : "_ZTIPN5scudo12ScopedStringE",
   "name" : "scudo::ScopedString *",
   "referenced_type" : "_ZTIN5scudo12ScopedStringE",
   "self_type" : "_ZTIPN5scudo12ScopedStringE",
   "size" : 4,
   "source_file" : "external/scudo/standalone/string_utils.h"
  },
  {
   "alignment" : 4,
   "linker_set_key" : "_ZTIPN5scudo12VectorNoCtorIcEE",
   "name" : "scudo::VectorNoCtor<char> *",
   "referenced_type" : "_ZTIN5scudo12VectorNoCtorIcEE",
   "self_type" : "_ZTIPN5scudo12VectorNoCtorIcEE",
   "size" : 4,
   "source_file" : "external/scudo/standalone/vector.h"
  },
  {
   "alignment" : 4,
   "linker_set_key" : "_ZTIPN5scudo15MapPlatformDataE",
   "name" : "scudo::MapPlatformData *",
   "referenced_type" : "_ZTIN5scudo15MapPlatformDataE",
   "self_type" : "_ZTIPN5scudo15MapPlatformDataE",
   "size" : 4,
   "source_file" : "external/scudo/standalone/common.h"
  },
  {
   "alignment" : 4,
   "linker_set_key" : "_ZTIPN5scudo6VectorIcEE",
   "name" : "scudo::Vector<char> *",
   "referenced_type" : "_ZTIN5scudo6VectorIcEE",
   "self_type" : "_ZTIPN5scudo6VectorIcEE",
   "size" : 4,
   "source_file" : "external/scudo/standalone/vector.h"
  },
  {
   "alignment" : 4,
   "linker_set_key" : "_ZTIPPc",
   "name" : "char **",
   "referenced_type" : "_ZTIPc",
   "self_type" : "_ZTIPPc",
   "size" : 4,
   "source_file" : "bionic/libc/include/unistd.h"
  },
  {
   "alignment" : 4,
   "linker_set_key" : "_ZTIPVN5scudo10atomic_u32E",
   "name" : "volatile scudo::atomic_u32 *",
   "referenced_type" : "_ZTIVN5scudo10atomic_u32E",
   "self_type" : "_ZTIPVN5scudo10atomic_u32E",
   "size" : 4,
   "source_file" : "external/scudo/standalone/atomic_helpers.h"
  },
  {
   "alignment" : 4,
   "linker_set_key" : "_ZTIPc",
   "name" : "char *",
   "referenced_type" : "_ZTIc",
   "self_type" : "_ZTIPc",
   "size" : 4,
   "source_file" : "bionic/libc/include/string.h"
  },
  {
   "alignment" : 4,
   "linker_set_key" : "_ZTIPj",
   "name" : "unsigned int *",
   "referenced_type" : "_ZTIj",
   "self_type" : "_ZTIPj",
   "size" : 4,
   "source_file" : "external/scudo/standalone/common.h"
  },
  {
   "alignment" : 4,
   "linker_set_key" : "_ZTIPv",
   "name" : "void *",
   "referenced_type" : "_ZTIv",
   "self_type" : "_ZTIPv",
   "size" : 4,
   "source_file" : "bionic/libc/include/bits/pthread_types.h"
  },
  {
   "alignment" : 4,
   "linker_set_key" : "_ZTIPy",
   "name" : "unsigned long long *",
   "referenced_type" : "_ZTIy",
   "self_type" : "_ZTIPy",
   "size" : 4,
   "source_file" : "bionic/libc/kernel/uapi/linux/prctl.h"
  }
 ],
 "qualified_types" :
 [
  {
   "alignment" : 4,
   "is_const" : true,
   "linker_set_key" : "_ZTIA65_KPKc",
   "name" : "const char *const[65]",
   "referenced_type" : "_ZTIA65_PKc",
   "self_type" : "_ZTIA65_KPKc",
   "size" : 260,
   "source_file" : "bionic/libc/include/signal.h"
  },
  {
   "alignment" : 4,
   "is_const" : true,
   "linker_set_key" : "_ZTIKN5scudo12ScopedStringE",
   "name" : "const scudo::ScopedString",
   "referenced_type" : "_ZTIN5scudo12ScopedStringE",
   "self_type" : "_ZTIKN5scudo12ScopedStringE",
   "size" : 16,
   "source_file" : "external/scudo/standalone/string_utils.h"
  },
  {
   "alignment" : 4,
   "is_const" : true,
   "linker_set_key" : "_ZTIKN5scudo12VectorNoCtorIcEE",
   "name" : "const scudo::VectorNoCtor<char>",
   "referenced_type" : "_ZTIN5scudo12VectorNoCtorIcEE",
   "self_type" : "_ZTIKN5scudo12VectorNoCtorIcEE",
   "size" : 12,
   "source_file" : "external/scudo/standalone/vector.h"
  },
  {
   "alignment" : 4,
   "is_const" : true,
   "linker_set_key" : "_ZTIKPKc",
   "name" : "const char *const",
   "referenced_type" : "_ZTIPKc",
   "self_type" : "_ZTIKPKc",
   "size" : 4,
   "source_file" : "bionic/libc/include/string.h"
  },
  {
   "alignment" : 4,
   "is_const" : true,
   "linker_set_key" : "_ZTIKPKv",
   "name" : "const void *const",
   "referenced_type" : "_ZTIPKv",
   "self_type" : "_ZTIKPKv",
   "size" : 4,
   "source_file" : "bionic/libc/include/string.h"
  },
  {
   "alignment" : 4,
   "is_const" : true,
   "linker_set_key" : "_ZTIKPc",
   "name" : "char *const",
   "referenced_type" : "_ZTIPc",
   "self_type" : "_ZTIKPc",
   "size" : 4,
   "source_file" : "bionic/libc/include/string.h"
  },
  {
   "alignment" : 4,
   "is_const" : true,
   "linker_set_key" : "_ZTIKPv",
   "name" : "void *const",
   "referenced_type" : "_ZTIPv",
   "self_type" : "_ZTIKPv",
   "size" : 4,
   "source_file" : "bionic/libc/include/string.h"
  },
  {
   "alignment" : 1,
   "is_const" : true,
   "linker_set_key" : "_ZTIKc",
   "name" : "const char",
   "referenced_type" : "_ZTIc",
   "self_type" : "_ZTIKc",
   "size" : 1,
   "source_file" : "external/scudo/standalone/internal_defs.h"
  },
  {
   "alignment" : 1,
   "is_const" : true,
   "linker_set_key" : "_ZTIKh",
   "name" : "const unsigned char",
   "referenced_type" : "_ZTIh",
   "self_type" : "_ZTIKh",
   "size" : 1,
   "source_file" : "external/scudo/standalone/common.h"
  },
  {
   "alignment" : 4,
   "is_const" : true,
   "linker_set_key" : "_ZTIKm",
   "name" : "const unsigned long",
   "referenced_type" : "_ZTIm",
   "self_type" : "_ZTIKm",
   "size" : 4,
   "source_file" : "external/scudo/standalone/common.h"
  },
  {
   "is_const" : true,
   "linker_set_key" : "_ZTIKv",
   "name" : "const void",
   "referenced_type" : "_ZTIv",
   "self_type" : "_ZTIKv",
   "source_file" : "bionic/libc/include/string.h"
  },
  {
   "alignment" : 4,
   "is_volatile" : true,
   "linker_set_key" : "_ZTIVN5scudo10atomic_u32E",
   "name" : "volatile scudo::atomic_u32",
   "referenced_type" : "_ZTIN5scudo10atomic_u32E",
   "self_type" : "_ZTIVN5scudo10atomic_u32E",
   "size" : 4,
   "source_file" : "external/scudo/standalone/atomic_helpers.h"
  },
  {
   "alignment" : 4,
   "is_volatile" : true,
   "linker_set_key" : "_ZTIVPFPvS_jPKvE",
   "name" : "void *(*volatile)(void *, unsigned int, const void *)",
   "referenced_type" : "_ZTIPFPvS_jPKvE",
   "self_type" : "_ZTIVPFPvS_jPKvE",
   "size" : 4,
   "source_file" : "bionic/libc/include/malloc.h"
  },
  {
   "alignment" : 4,
   "is_volatile" : true,
   "linker_set_key" : "_ZTIVPFPvjPKvE",
   "name" : "void *(*volatile)(unsigned int, const void *)",
   "referenced_type" : "_ZTIPFPvjPKvE",
   "self_type" : "_ZTIVPFPvjPKvE",
   "size" : 4,
   "source_file" : "bionic/libc/include/malloc.h"
  },
  {
   "alignment" : 4,
   "is_volatile" : true,
   "linker_set_key" : "_ZTIVPFPvjjPKvE",
   "name" : "void *(*volatile)(unsigned int, unsigned int, const void *)",
   "referenced_type" : "_ZTIPFPvjjPKvE",
   "self_type" : "_ZTIVPFPvjjPKvE",
   "size" : 4,
   "source_file" : "bionic/libc/include/malloc.h"
  },
  {
   "alignment" : 4,
   "is_volatile" : true,
   "linker_set_key" : "_ZTIVPFvPvPKvE",
   "name" : "void (*volatile)(void *, const void *)",
   "referenced_type" : "_ZTIPFvPvPKvE",
   "self_type" : "_ZTIVPFvPvPKvE",
   "size" : 4,
   "source_file" : "bionic/libc/include/malloc.h"
  },
  {
   "alignment" : 1,
   "is_volatile" : true,
   "linker_set_key" : "_ZTIVh",
   "name" : "volatile unsigned char",
   "referenced_type" : "_ZTIh",
   "self_type" : "_ZTIVh",
   "size" : 1,
   "source_file" : "external/scudo/standalone/atomic_helpers.h"
  },
  {
   "alignment" : 4,
   "is_volatile" : true,
   "linker_set_key" : "_ZTIVi",
   "name" : "volatile int",
   "referenced_type" : "_ZTIi",
   "self_type" : "_ZTIVi",
   "size" : 4,
   "source_file" : "external/scudo/standalone/atomic_helpers.h"
  },
  {
   "alignment" : 4,
   "is_volatile" : true,
   "linker_set_key" : "_ZTIVj",
   "name" : "volatile unsigned int",
   "referenced_type" : "_ZTIj",
   "self_type" : "_ZTIVj",
   "size" : 4,
   "source_file" : "external/scudo/standalone/atomic_helpers.h"
  },
  {
   "alignment" : 4,
   "is_volatile" : true,
   "linker_set_key" : "_ZTIVm",
   "name" : "volatile unsigned long",
   "referenced_type" : "_ZTIm",
   "self_type" : "_ZTIVm",
   "size" : 4,
   "source_file" : "external/scudo/standalone/atomic_helpers.h"
  },
  {
   "alignment" : 2,
   "is_volatile" : true,
   "linker_set_key" : "_ZTIVt",
   "name" : "volatile unsigned short",
   "referenced_type" : "_ZTIt",
   "self_type" : "_ZTIVt",
   "size" : 2,
   "source_file" : "external/scudo/standalone/atomic_helpers.h"
  },
  {
   "alignment" : 8,
   "is_volatile" : true,
   "linker_set_key" : "_ZTIVy",
   "name" : "volatile unsigned long long",
   "referenced_type" : "_ZTIy",
   "self_type" : "_ZTIVy",
   "size" : 8,
   "source_file" : "external/scudo/standalone/atomic_helpers.h"
  }
 ],
 "record_types" :
 [
  {
   "alignment" : 4,
   "fields" :
   [
    {
     "field_name" : "_kill",
     "referenced_type" : "_ZTIN10__sifieldsUt_E"
    },
    {
     "field_name" : "_timer",
     "referenced_type" : "_ZTIN10__sifieldsUt0_E"
    },
    {
     "field_name" : "_rt",
     "referenced_type" : "_ZTIN10__sifieldsUt1_E"
    },
    {
     "field_name" : "_sigchld",
     "referenced_type" : "_ZTIN10__sifieldsUt2_E"
    },
    {
     "field_name" : "_sigfault",
     "referenced_type" : "_ZTIN10__sifieldsUt3_E"
    },
    {
     "field_name" : "_sigpoll",
     "referenced_type" : "_ZTIN10__sifieldsUt4_E"
    },
    {
     "field_name" : "_sigsys",
     "referenced_type" : "_ZTIN10__sifieldsUt5_E"
    }
   ],
   "linker_set_key" : "_ZTI10__sifields",
   "name" : "__sifields",
   "record_kind" : "union",
   "referenced_type" : "_ZTI10__sifields",
   "self_type" : "_ZTI10__sifields",
   "size" : 20,
   "source_file" : "bionic/libc/kernel/uapi/asm-generic/siginfo.h"
  },
  {
   "alignment" : 8,
   "fields" :
   [
    {
     "field_name" : "flags",
     "referenced_type" : "_ZTIy"
    },
    {
     "field_name" : "pidfd",
     "field_offset" : 64,
     "referenced_type" : "_ZTIy"
    },
    {
     "field_name" : "child_tid",
     "field_offset" : 128,
     "referenced_type" : "_ZTIy"
    },
    {
     "field_name" : "parent_tid",
     "field_offset" : 192,
     "referenced_type" : "_ZTIy"
    },
    {
     "field_name" : "exit_signal",
     "field_offset" : 256,
     "referenced_type" : "_ZTIy"
    },
    {
     "field_name" : "stack",
     "field_offset" : 320,
     "referenced_type" : "_ZTIy"
    },
    {
     "field_name" : "stack_size",
     "field_offset" : 384,
     "referenced_type" : "_ZTIy"
    },
    {
     "field_name" : "tls",
     "field_offset" : 448,
     "referenced_type" : "_ZTIy"
    },
    {
     "field_name" : "set_tid",
     "field_offset" : 512,
     "referenced_type" : "_ZTIy"
    },
    {
     "field_name" : "set_tid_size",
     "field_offset" : 576,
     "referenced_type" : "_ZTIy"
    },
    {
     "field_name" : "cgroup",
     "field_offset" : 640,
     "referenced_type" : "_ZTIy"
    }
   ],
   "linker_set_key" : "_ZTI10clone_args",
   "name" : "clone_args",
   "referenced_type" : "_ZTI10clone_args",
   "self_type" : "_ZTI10clone_args",
   "size" : 88,
   "source_file" : "bionic/libc/kernel/uapi/linux/sched.h"
  },
  {
   "alignment" : 4,
   "fields" :
   [
    {
     "field_name" : "type",
     "referenced_type" : "_ZTIi"
    },
    {
     "field_name" : "pid",
     "field_offset" : 32,
     "referenced_type" : "_ZTIi"
    }
   ],
   "linker_set_key" : "_ZTI10f_owner_ex",
   "name" : "f_owner_ex",
   "referenced_type" : "_ZTI10f_owner_ex",
   "self_type" : "_ZTI10f_owner_ex",
   "size" : 8,
   "source_file" : "bionic/libc/kernel/uapi/asm-generic/fcntl.h"
  },
  {
   "alignment" : 4,
   "fields" :
   [
    {
     "field_name" : "it_interval",
     "referenced_type" : "_ZTI8timespec"
    },
    {
     "field_name" : "it_value",
     "field_offset" : 64,
     "referenced_type" : "_ZTI8timespec"
    }
   ],
   "linker_set_key" : "_ZTI10itimerspec",
   "name" : "itimerspec",
   "referenced_type" : "_ZTI10itimerspec",
   "self_type" : "_ZTI10itimerspec",
   "size" : 16,
   "source_file" : "bionic/libc/kernel/uapi/linux/time.h"
  },
  {
   "alignment" : 4,
   "fields" :
   [
    {
     "field_name" : "trap_no",
     "referenced_type" : "_ZTIm"
    },
    {
     "field_name" : "error_code",
     "field_offset" : 32,
     "referenced_type" : "_ZTIm"
    },
    {
     "field_name" : "oldmask",
     "field_offset" : 64,
     "referenced_type" : "_ZTIm"
    },
    {
     "field_name" : "arm_r0",
     "field_offset" : 96,
     "referenced_type" : "_ZTIm"
    },
    {
     "field_name" : "arm_r1",
     "field_offset" : 128,
     "referenced_type" : "_ZTIm"
    },
    {
     "field_name" : "arm_r2",
     "field_offset" : 160,
     "referenced_type" : "_ZTIm"
    },
    {
     "field_name" : "arm_r3",
     "field_offset" : 192,
     "referenced_type" : "_ZTIm"
    },
    {
     "field_name" : "arm_r4",
     "field_offset" : 224,
     "referenced_type" : "_ZTIm"
    },
    {
     "field_name" : "arm_r5",
     "field_offset" : 256,
     "referenced_type" : "_ZTIm"
    },
    {
     "field_name" : "arm_r6",
     "field_offset" : 288,
     "referenced_type" : "_ZTIm"
    },
    {
     "field_name" : "arm_r7",
     "field_offset" : 320,
     "referenced_type" : "_ZTIm"
    },
    {
     "field_name" : "arm_r8",
     "field_offset" : 352,
     "referenced_type" : "_ZTIm"
    },
    {
     "field_name" : "arm_r9",
     "field_offset" : 384,
     "referenced_type" : "_ZTIm"
    },
    {
     "field_name" : "arm_r10",
     "field_offset" : 416,
     "referenced_type" : "_ZTIm"
    },
    {
     "field_name" : "arm_fp",
     "field_offset" : 448,
     "referenced_type" : "_ZTIm"
    },
    {
     "field_name" : "arm_ip",
     "field_offset" : 480,
     "referenced_type" : "_ZTIm"
    },
    {
     "field_name" : "arm_sp",
     "field_offset" : 512,
     "referenced_type" : "_ZTIm"
    },
    {
     "field_name" : "arm_lr",
     "field_offset" : 544,
     "referenced_type" : "_ZTIm"
    },
    {
     "field_name" : "arm_pc",
     "field_offset" : 576,
     "referenced_type" : "_ZTIm"
    },
    {
     "field_name" : "arm_cpsr",
     "field_offset" : 608,
     "referenced_type" : "_ZTIm"
    },
    {
     "field_name" : "fault_address",
     "field_offset" : 640,
     "referenced_type" : "_ZTIm"
    }
   ],
   "linker_set_key" : "_ZTI10sigcontext",
   "name" : "sigcontext",
   "referenced_type" : "_ZTI10sigcontext",
   "self_type" : "_ZTI10sigcontext",
   "size" : 84,
   "source_file" : "bionic/libc/kernel/uapi/asm-arm/asm/sigcontext.h"
  },
  {
   "alignment" : 4,
   "fields" :
   [
    {
     "field_name" : "__bits",
     "referenced_type" : "_ZTIA2_m"
    }
   ],
   "linker_set_key" : "_ZTI10sigset64_t",
   "name" : "sigset64_t",
   "referenced_type" : "_ZTI10sigset64_t",
   "self_type" : "_ZTI10sigset64_t",
   "size" : 8,
   "source_file" : "bionic/libc/include/bits/signal_types.h"
  },
  {
   "alignment" : 8,
   "fields" :
   [
    {
     "field_name" : "__clang_max_align_nonce1",
     "referenced_type" : "_ZTIx"
    },
    {
     "field_name" : "__clang_max_align_nonce2",
     "field_offset" : 64,
     "referenced_type" : "_ZTIe"
    }
   ],
   "linker_set_key" : "_ZTI11max_align_t",
   "name" : "max_align_t",
   "referenced_type" : "_ZTI11max_align_t",
   "self_type" : "_ZTI11max_align_t",
   "size" : 16,
   "source_file" : "prebuilts/clang-tools/linux-x86/clang-headers/__stddef_max_align_t.h"
  },
  {
   "alignment" : 4,
   "fields" :
   [
    {
     "field_name" : "next",
     "referenced_type" : "_ZTIP11robust_list"
    }
   ],
   "linker_set_key" : "_ZTI11robust_list",
   "name" : "robust_list",
   "referenced_type" : "_ZTI11robust_list",
   "self_type" : "_ZTI11robust_list",
   "size" : 4,
   "source_file" : "bionic/libc/kernel/uapi/linux/futex.h"
  },
  {
   "alignment" : 4,
   "fields" :
   [
    {
     "field_name" : "sched_priority",
     "referenced_type" : "_ZTIi"
    }
   ],
   "linker_set_key" : "_ZTI11sched_param",
   "name" : "sched_param",
   "referenced_type" : "_ZTI11sched_param",
   "self_type" : "_ZTI11sched_param",
   "size" : 4,
   "source_file" : "bionic/libc/include/sched.h"
  },
  {
   "alignment" : 4,
   "fields" :
   [
    {
     "referenced_type" : "_ZTIN11sigaction64Ut_E"
    },
    {
     "field_name" : "sa_flags",
     "field_offset" : 32,
     "referenced_type" : "_ZTIi"
    },
    {
     "field_name" : "sa_restorer",
     "field_offset" : 64,
     "referenced_type" : "_ZTIPFvvE"
    },
    {
     "field_name" : "sa_mask",
     "field_offset" : 96,
     "referenced_type" : "_ZTI10sigset64_t"
    }
   ],
   "linker_set_key" : "_ZTI11sigaction64",
   "name" : "sigaction64",
   "referenced_type" : "_ZTI11sigaction64",
   "self_type" : "_ZTI11sigaction64",
   "size" : 20,
   "source_file" : "bionic/libc/include/bits/signal_types.h"
  },
  {
   "alignment" : 4,
   "fields" :
   [
    {
     "field_name" : "ss_sp",
     "referenced_type" : "_ZTIPv"
    },
    {
     "field_name" : "ss_flags",
     "field_offset" : 32,
     "referenced_type" : "_ZTIi"
    },
    {
     "field_name" : "ss_size",
     "field_offset" : 64,
     "referenced_type" : "_ZTIj"
    }
   ],
   "linker_set_key" : "_ZTI11sigaltstack",
   "name" : "sigaltstack",
   "referenced_type" : "_ZTI11sigaltstack",
   "self_type" : "_ZTI11sigaltstack",
   "size" : 12,
   "source_file" : "bionic/libc/kernel/uapi/asm-arm/asm/signal.h"
  },
  {
   "alignment" : 4,
   "fields" :
   [
    {
     "field_name" : "fpregs",
     "referenced_type" : "_ZTIA8_N11user_fpregs6fp_regE"
    },
    {
     "field_name" : "fpsr",
     "field_offset" : 768,
     "referenced_type" : "_ZTIj"
    },
    {
     "field_name" : "fpcr",
     "field_offset" : 800,
     "referenced_type" : "_ZTIj"
    },
    {
     "field_name" : "ftype",
     "field_offset" : 832,
     "referenced_type" : "_ZTIA8_h"
    },
    {
     "field_name" : "init_flag",
     "field_offset" : 896,
     "referenced_type" : "_ZTIj"
    }
   ],
   "linker_set_key" : "_ZTI11user_fpregs",
   "name" : "user_fpregs",
   "referenced_type" : "_ZTI11user_fpregs",
   "self_type" : "_ZTI11user_fpregs",
   "size" : 116,
   "source_file" : "bionic/libc/include/sys/user.h"
  },
  {
   "alignment" : 8,
   "fields" :
   [
    {
     "field_name" : "start_code",
     "referenced_type" : "_ZTIy"
    },
    {
     "field_name" : "end_code",
     "field_offset" : 64,
     "referenced_type" : "_ZTIy"
    },
    {
     "field_name" : "start_data",
     "field_offset" : 128,
     "referenced_type" : "_ZTIy"
    },
    {
     "field_name" : "end_data",
     "field_offset" : 192,
     "referenced_type" : "_ZTIy"
    },
    {
     "field_name" : "start_brk",
     "field_offset" : 256,
     "referenced_type" : "_ZTIy"
    },
    {
     "field_name" : "brk",
     "field_offset" : 320,
     "referenced_type" : "_ZTIy"
    },
    {
     "field_name" : "start_stack",
     "field_offset" : 384,
     "referenced_type" : "_ZTIy"
    },
    {
     "field_name" : "arg_start",
     "field_offset" : 448,
     "referenced_type" : "_ZTIy"
    },
    {
     "field_name" : "arg_end",
     "field_offset" : 512,
     "referenced_type" : "_ZTIy"
    },
    {
     "field_name" : "env_start",
     "field_offset" : 576,
     "referenced_type" : "_ZTIy"
    },
    {
     "field_name" : "env_end",
     "field_offset" : 640,
     "referenced_type" : "_ZTIy"
    },
    {
     "field_name" : "auxv",
     "field_offset" : 704,
     "referenced_type" : "_ZTIPy"
    },
    {
     "field_name" : "auxv_size",
     "field_offset" : 736,
     "referenced_type" : "_ZTIj"
    },
    {
     "field_name" : "exe_fd",
     "field_offset" : 768,
     "referenced_type" : "_ZTIj"
    }
   ],
   "linker_set_key" : "_ZTI12prctl_mm_map",
   "name" : "prctl_mm_map",
   "referenced_type" : "_ZTI12prctl_mm_map",
   "self_type" : "_ZTI12prctl_mm_map",
   "size" : 104,
   "source_file" : "bionic/libc/kernel/uapi/linux/prctl.h"
  },
  {
   "alignment" : 4,
   "fields" :
   [
    {
     "field_name" : "fpexc",
     "referenced_type" : "_ZTIm"
    },
    {
     "field_name" : "fpinst",
     "field_offset" : 32,
     "referenced_type" : "_ZTIm"
    },
    {
     "field_name" : "fpinst2",
     "field_offset" : 64,
     "referenced_type" : "_ZTIm"
    }
   ],
   "linker_set_key" : "_ZTI12user_vfp_exc",
   "name" : "user_vfp_exc",
   "referenced_type" : "_ZTI12user_vfp_exc",
   "self_type" : "_ZTI12user_vfp_exc",
   "size" : 12,
   "source_file" : "bionic/libc/include/sys/user.h"
  },
  {
   "alignment" : 4,
   "fields" :
   [
    {
     "field_name" : "flags",
     "referenced_type" : "_ZTIj"
    },
    {
     "field_name" : "stack_base",
     "field_offset" : 32,
     "referenced_type" : "_ZTIPv"
    },
    {
     "field_name" : "stack_size",
     "field_offset" : 64,
     "referenced_type" : "_ZTIj"
    },
    {
     "field_name" : "guard_size",
     "field_offset" : 96,
     "referenced_type" : "_ZTIj"
    },
    {
     "field_name" : "sched_policy",
     "field_offset" : 128,
     "referenced_type" : "_ZTIi"
    },
    {
     "field_name" : "sched_priority",
     "field_offset" : 160,
     "referenced_type" : "_ZTIi"
    }
   ],
   "linker_set_key" : "_ZTI14pthread_attr_t",
   "name" : "pthread_attr_t",
   "referenced_type" : "_ZTI14pthread_attr_t",
   "self_type" : "_ZTI14pthread_attr_t",
   "size" : 24,
   "source_file" : "bionic/libc/include/bits/pthread_types.h"
  },
  {
   "alignment" : 4,
   "fields" :
   [
    {
     "field_name" : "__private",
     "referenced_type" : "_ZTIA1_i"
    }
   ],
   "linker_set_key" : "_ZTI14pthread_cond_t",
   "name" : "pthread_cond_t",
   "referenced_type" : "_ZTI14pthread_cond_t",
   "self_type" : "_ZTI14pthread_cond_t",
   "size" : 4,
   "source_file" : "bionic/libc/include/bits/pthread_types.h"
  },
  {
   "alignment" : 4,
   "fields" :
   [
    {
     "field_name" : "fds_bits",
     "referenced_type" : "_ZTIA32_m"
    }
   ],
   "linker_set_key" : "_ZTI15__kernel_fd_set",
   "name" : "__kernel_fd_set",
   "referenced_type" : "_ZTI15__kernel_fd_set",
   "self_type" : "_ZTI15__kernel_fd_set",
   "size" : 128,
   "source_file" : "bionic/libc/kernel/uapi/linux/posix_types.h"
  },
  {
   "alignment" : 4,
   "fields" :
   [
    {
     "field_name" : "val",
     "referenced_type" : "_ZTIA2_i"
    }
   ],
   "linker_set_key" : "_ZTI15__kernel_fsid_t",
   "name" : "__kernel_fsid_t",
   "referenced_type" : "_ZTI15__kernel_fsid_t",
   "self_type" : "_ZTI15__kernel_fsid_t",
   "size" : 8,
   "source_file" : "bionic/libc/kernel/uapi/asm-generic/posix_types.h"
  },
  {
   "alignment" : 4,
   "fields" :
   [
    {
     "field_name" : "__private",
     "referenced_type" : "_ZTIA1_i"
    }
   ],
   "linker_set_key" : "_ZTI15pthread_mutex_t",
   "name" : "pthread_mutex_t",
   "referenced_type" : "_ZTI15pthread_mutex_t",
   "self_type" : "_ZTI15pthread_mutex_t",
   "size" : 4,
   "source_file" : "bionic/libc/include/bits/pthread_types.h"
  },
  {
   "alignment" : 8,
   "fields" :
   [
    {
     "field_name" : "tv_sec",
     "referenced_type" : "_ZTIx"
    },
    {
     "field_name" : "tv_nsec",
     "field_offset" : 64,
     "referenced_type" : "_ZTIj"
    },
    {
     "field_name" : "__reserved",
     "field_offset" : 96,
     "referenced_type" : "_ZTIi"
    }
   ],
   "linker_set_key" : "_ZTI15statx_timestamp",
   "name" : "statx_timestamp",
   "referenced_type" : "_ZTI15statx_timestamp",
   "self_type" : "_ZTI15statx_timestamp",
   "size" : 16,
   "source_file" : "bionic/libc/kernel/uapi/linux/stat.h"
  },
  {
   "alignment" : 4,
   "fields" :
   [
    {
     "field_name" : "__private",
     "referenced_type" : "_ZTIA10_i"
    }
   ],
   "linker_set_key" : "_ZTI16pthread_rwlock_t",
   "name" : "pthread_rwlock_t",
   "referenced_type" : "_ZTI16pthread_rwlock_t",
   "self_type" : "_ZTI16pthread_rwlock_t",
   "size" : 40,
   "source_file" : "bionic/libc/include/bits/pthread_types.h"
  },
  {
   "alignment" : 4,
   "fields" :
   [
    {
     "field_name" : "list",
     "referenced_type" : "_ZTI11robust_list"
    },
    {
     "field_name" : "futex_offset",
     "field_offset" : 32,
     "referenced_type" : "_ZTIl"
    },
    {
     "field_name" : "list_op_pending",
     "field_offset" : 64,
     "referenced_type" : "_ZTIP11robust_list"
    }
   ],
   "linker_set_key" : "_ZTI16robust_list_head",
   "name" : "robust_list_head",
   "referenced_type" : "_ZTI16robust_list_head",
   "self_type" : "_ZTI16robust_list_head",
   "size" : 12,
   "source_file" : "bionic/libc/kernel/uapi/linux/futex.h"
  },
  {
   "alignment" : 8,
   "fields" :
   [
    {
     "field_name" : "tv_sec",
     "referenced_type" : "_ZTIx"
    },
    {
     "field_name" : "tv_nsec",
     "field_offset" : 64,
     "referenced_type" : "_ZTIx"
    }
   ],
   "linker_set_key" : "_ZTI17__kernel_timespec",
   "name" : "__kernel_timespec",
   "referenced_type" : "_ZTI17__kernel_timespec",
   "self_type" : "_ZTI17__kernel_timespec",
   "size" : 16,
   "source_file" : "bionic/libc/kernel/uapi/linux/time_types.h"
  },
  {
   "alignment" : 4,
   "fields" :
   [
    {
     "field_name" : "__private",
     "referenced_type" : "_ZTIA8_i"
    }
   ],
   "linker_set_key" : "_ZTI17pthread_barrier_t",
   "name" : "pthread_barrier_t",
   "referenced_type" : "_ZTI17pthread_barrier_t",
   "self_type" : "_ZTI17pthread_barrier_t",
   "size" : 32,
   "source_file" : "bionic/libc/include/bits/pthread_types.h"
  },
  {
   "alignment" : 4,
   "fields" :
   [
    {
     "field_name" : "_u",
     "referenced_type" : "_ZTIN18__kernel_sigactionUt_E"
    },
    {
     "field_name" : "sa_mask",
     "field_offset" : 32,
     "referenced_type" : "_ZTIm"
    },
    {
     "field_name" : "sa_flags",
     "field_offset" : 64,
     "referenced_type" : "_ZTIm"
    },
    {
     "field_name" : "sa_restorer",
     "field_offset" : 96,
     "referenced_type" : "_ZTIPFvvE"
    }
   ],
   "linker_set_key" : "_ZTI18__kernel_sigaction",
   "name" : "__kernel_sigaction",
   "referenced_type" : "_ZTI18__kernel_sigaction",
   "self_type" : "_ZTI18__kernel_sigaction",
   "size" : 16,
   "source_file" : "bionic/libc/kernel/uapi/asm-arm/asm/signal.h"
  },
  {
   "alignment" : 4,
   "fields" :
   [
    {
     "field_name" : "__private",
     "referenced_type" : "_ZTIA2_i"
    }
   ],
   "linker_set_key" : "_ZTI18pthread_spinlock_t",
   "name" : "pthread_spinlock_t",
   "referenced_type" : "_ZTI18pthread_spinlock_t",
   "self_type" : "_ZTI18pthread_spinlock_t",
   "size" : 8,
   "source_file" : "bionic/libc/include/bits/pthread_types.h"
  },
  {
   "alignment" : 8,
   "fields" :
   [
    {
     "field_name" : "it_interval",
     "referenced_type" : "_ZTI17__kernel_timespec"
    },
    {
     "field_name" : "it_value",
     "field_offset" : 128,
     "referenced_type" : "_ZTI17__kernel_timespec"
    }
   ],
   "linker_set_key" : "_ZTI19__kernel_itimerspec",
   "name" : "__kernel_itimerspec",
   "referenced_type" : "_ZTI19__kernel_itimerspec",
   "self_type" : "_ZTI19__kernel_itimerspec",
   "size" : 32,
   "source_file" : "bionic/libc/kernel/uapi/linux/time_types.h"
  },
  {
   "alignment" : 4,
   "fields" :
   [
    {
     "field_name" : "tv_sec",
     "referenced_type" : "_ZTIl"
    },
    {
     "field_name" : "tv_nsec",
     "field_offset" : 32,
     "referenced_type" : "_ZTIl"
    }
   ],
   "linker_set_key" : "_ZTI21__kernel_old_timespec",
   "name" : "__kernel_old_timespec",
   "referenced_type" : "_ZTI21__kernel_old_timespec",
   "self_type" : "_ZTI21__kernel_old_timespec",
   "size" : 8,
   "source_file" : "bionic/libc/kernel/uapi/linux/time_types.h"
  },
  {
   "alignment" : 8,
   "fields" :
   [
    {
     "field_name" : "tv_sec",
     "referenced_type" : "_ZTIx"
    },
    {
     "field_name" : "tv_usec",
     "field_offset" : 64,
     "referenced_type" : "_ZTIx"
    }
   ],
   "linker_set_key" : "_ZTI21__kernel_sock_timeval",
   "name" : "__kernel_sock_timeval",
   "referenced_type" : "_ZTI21__kernel_sock_timeval",
   "self_type" : "_ZTI21__kernel_sock_timeval",
   "size" : 16,
   "source_file" : "bionic/libc/kernel/uapi/linux/time_types.h"
  },
  {
   "alignment" : 4,
   "fields" :
   [
    {
     "field_name" : "tm_sec",
     "referenced_type" : "_ZTIi"
    },
    {
     "field_name" : "tm_min",
     "field_offset" : 32,
     "referenced_type" : "_ZTIi"
    },
    {
     "field_name" : "tm_hour",
     "field_offset" : 64,
     "referenced_type" : "_ZTIi"
    },
    {
     "field_name" : "tm_mday",
     "field_offset" : 96,
     "referenced_type" : "_ZTIi"
    },
    {
     "field_name" : "tm_mon",
     "field_offset" : 128,
     "referenced_type" : "_ZTIi"
    },
    {
     "field_name" : "tm_year",
     "field_offset" : 160,
     "referenced_type" : "_ZTIi"
    },
    {
     "field_name" : "tm_wday",
     "field_offset" : 192,
     "referenced_type" : "_ZTIi"
    },
    {
     "field_name" : "tm_yday",
     "field_offset" : 224,
     "referenced_type" : "_ZTIi"
    },
    {
     "field_name" : "tm_isdst",
     "field_offset" : 256,
     "referenced_type" : "_ZTIi"
    },
    {
     "field_name" : "tm_gmtoff",
     "field_offset" : 288,
     "referenced_type" : "_ZTIl"
    },
    {
     "field_name" : "tm_zone",
     "field_offset" : 320,
     "referenced_type" : "_ZTIPKc"
    }
   ],
   "linker_set_key" : "_ZTI2tm",
   "name" : "tm",
   "referenced_type" : "_ZTI2tm",
   "self_type" : "_ZTI2tm",
   "size" : 44,
   "source_file" : "bionic/libc/include/time.h"
  },
  {
   "alignment" : 8,
   "fields" :
   [
    {
     "field_name" : "st_dev",
     "referenced_type" : "_ZTIy"
    },
    {
     "field_name" : "__pad0",
     "field_offset" : 64,
     "referenced_type" : "_ZTIA4_h"
    },
    {
     "field_name" : "__st_ino",
     "field_offset" : 96,
     "referenced_type" : "_ZTIm"
    },
    {
     "field_name" : "st_mode",
     "field_offset" : 128,
     "referenced_type" : "_ZTIj"
    },
    {
     "field_name" : "st_nlink",
     "field_offset" : 160,
     "referenced_type" : "_ZTIj"
    },
    {
     "field_name" : "st_uid",
     "field_offset" : 192,
     "referenced_type" : "_ZTIj"
    },
    {
     "field_name" : "st_gid",
     "field_offset" : 224,
     "referenced_type" : "_ZTIj"
    },
    {
     "field_name" : "st_rdev",
     "field_offset" : 256,
     "referenced_type" : "_ZTIy"
    },
    {
     "field_name" : "__pad3",
     "field_offset" : 320,
     "referenced_type" : "_ZTIA4_h"
    },
    {
     "field_name" : "st_size",
     "field_offset" : 384,
     "referenced_type" : "_ZTIx"
    },
    {
     "field_name" : "st_blksize",
     "field_offset" : 448,
     "referenced_type" : "_ZTIm"
    },
    {
     "field_name" : "st_blocks",
     "field_offset" : 512,
     "referenced_type" : "_ZTIy"
    },
    {
     "field_name" : "st_atim",
     "field_offset" : 576,
     "referenced_type" : "_ZTI8timespec"
    },
    {
     "field_name" : "st_mtim",
     "field_offset" : 640,
     "referenced_type" : "_ZTI8timespec"
    },
    {
     "field_name" : "st_ctim",
     "field_offset" : 704,
     "referenced_type" : "_ZTI8timespec"
    },
    {
     "field_name" : "st_ino",
     "field_offset" : 768,
     "referenced_type" : "_ZTIy"
    }
   ],
   "linker_set_key" : "_ZTI4stat",
   "name" : "stat",
   "referenced_type" : "_ZTI4stat",
   "self_type" : "_ZTI4stat",
   "size" : 104,
   "source_file" : "bionic/libc/include/sys/stat.h"
  },
  {
   "alignment" : 4,
   "fields" :
   [
    {
     "field_name" : "regs",
     "referenced_type" : "_ZTI9user_regs"
    },
    {
     "field_name" : "u_fpvalid",
     "field_offset" : 576,
     "referenced_type" : "_ZTIi"
    },
    {
     "field_name" : "u_tsize",
     "field_offset" : 608,
     "referenced_type" : "_ZTIm"
    },
    {
     "field_name" : "u_dsize",
     "field_offset" : 640,
     "referenced_type" : "_ZTIm"
    },
    {
     "field_name" : "u_ssize",
     "field_offset" : 672,
     "referenced_type" : "_ZTIm"
    },
    {
     "field_name" : "start_code",
     "field_offset" : 704,
     "referenced_type" : "_ZTIm"
    },
    {
     "field_name" : "start_stack",
     "field_offset" : 736,
     "referenced_type" : "_ZTIm"
    },
    {
     "field_name" : "signal",
     "field_offset" : 768,
     "referenced_type" : "_ZTIl"
    },
    {
     "field_name" : "reserved",
     "field_offset" : 800,
     "referenced_type" : "_ZTIi"
    },
    {
     "field_name" : "u_ar0",
     "field_offset" : 832,
     "referenced_type" : "_ZTIP9user_regs"
    },
    {
     "field_name" : "magic",
     "field_offset" : 864,
     "referenced_type" : "_ZTIm"
    },
    {
     "field_name" : "u_comm",
     "field_offset" : 896,
     "referenced_type" : "_ZTIA32_c"
    },
    {
     "field_name" : "u_debugreg",
     "field_offset" : 1152,
     "referenced_type" : "_ZTIA8_i"
    },
    {
     "field_name" : "u_fp",
     "field_offset" : 1408,
     "referenced_type" : "_ZTI11user_fpregs"
    },
    {
     "field_name" : "u_fp0",
     "field_offset" : 2336,
     "referenced_type" : "_ZTIP11user_fpregs"
    }
   ],
   "linker_set_key" : "_ZTI4user",
   "name" : "user",
   "referenced_type" : "_ZTI4user",
   "self_type" : "_ZTI4user",
   "size" : 296,
   "source_file" : "bionic/libc/include/sys/user.h"
  },
  {
   "alignment" : 4,
   "fields" :
   [
    {
     "field_name" : "quot",
     "referenced_type" : "_ZTIi"
    },
    {
     "field_name" : "rem",
     "field_offset" : 32,
     "referenced_type" : "_ZTIi"
    }
   ],
   "linker_set_key" : "_ZTI5div_t",
   "name" : "div_t",
   "referenced_type" : "_ZTI5div_t",
   "self_type" : "_ZTI5div_t",
   "size" : 8,
   "source_file" : "bionic/libc/include/stdlib.h"
  },
  {
   "alignment" : 4,
   "fields" :
   [
    {
     "field_name" : "l_type",
     "referenced_type" : "_ZTIs"
    },
    {
     "field_name" : "l_whence",
     "field_offset" : 16,
     "referenced_type" : "_ZTIs"
    },
    {
     "field_name" : "l_start",
     "field_offset" : 32,
     "referenced_type" : "_ZTIl"
    },
    {
     "field_name" : "l_len",
     "field_offset" : 64,
     "referenced_type" : "_ZTIl"
    },
    {
     "field_name" : "l_pid",
     "field_offset" : 96,
     "referenced_type" : "_ZTIi"
    }
   ],
   "linker_set_key" : "_ZTI5flock",
   "name" : "flock",
   "referenced_type" : "_ZTI5flock",
   "self_type" : "_ZTI5flock",
   "size" : 16,
   "source_file" : "bionic/libc/include/bits/flock.h"
  },
  {
   "alignment" : 4,
   "fields" :
   [
    {
     "field_name" : "iov_base",
     "referenced_type" : "_ZTIPv"
    },
    {
     "field_name" : "iov_len",
     "field_offset" : 32,
     "referenced_type" : "_ZTIj"
    }
   ],
   "linker_set_key" : "_ZTI5iovec",
   "name" : "iovec",
   "referenced_type" : "_ZTI5iovec",
   "self_type" : "_ZTI5iovec",
   "size" : 8,
   "source_file" : "bionic/libc/kernel/uapi/linux/uio.h"
  },
  {
   "alignment" : 8,
   "fields" :
   [
    {
     "field_name" : "stx_mask",
     "referenced_type" : "_ZTIj"
    },
    {
     "field_name" : "stx_blksize",
     "field_offset" : 32,
     "referenced_type" : "_ZTIj"
    },
    {
     "field_name" : "stx_attributes",
     "field_offset" : 64,
     "referenced_type" : "_ZTIy"
    },
    {
     "field_name" : "stx_nlink",
     "field_offset" : 128,
     "referenced_type" : "_ZTIj"
    },
    {
     "field_name" : "stx_uid",
     "field_offset" : 160,
     "referenced_type" : "_ZTIj"
    },
    {
     "field_name" : "stx_gid",
     "field_offset" : 192,
     "referenced_type" : "_ZTIj"
    },
    {
     "field_name" : "stx_mode",
     "field_offset" : 224,
     "referenced_type" : "_ZTIt"
    },
    {
     "field_name" : "__spare0",
     "field_offset" : 240,
     "referenced_type" : "_ZTIA1_t"
    },
    {
     "field_name" : "stx_ino",
     "field_offset" : 256,
     "referenced_type" : "_ZTIy"
    },
    {
     "field_name" : "stx_size",
     "field_offset" : 320,
     "referenced_type" : "_ZTIy"
    },
    {
     "field_name" : "stx_blocks",
     "field_offset" : 384,
     "referenced_type" : "_ZTIy"
    },
    {
     "field_name" : "stx_attributes_mask",
     "field_offset" : 448,
     "referenced_type" : "_ZTIy"
    },
    {
     "field_name" : "stx_atime",
     "field_offset" : 512,
     "referenced_type" : "_ZTI15statx_timestamp"
    },
    {
     "field_name" : "stx_btime",
     "field_offset" : 640,
     "referenced_type" : "_ZTI15statx_timestamp"
    },
    {
     "field_name" : "stx_ctime",
     "field_offset" : 768,
     "referenced_type" : "_ZTI15statx_timestamp"
    },
    {
     "field_name" : "stx_mtime",
     "field_offset" : 896,
     "referenced_type" : "_ZTI15statx_timestamp"
    },
    {
     "field_name" : "stx_rdev_major",
     "field_offset" : 1024,
     "referenced_type" : "_ZTIj"
    },
    {
     "field_name" : "stx_rdev_minor",
     "field_offset" : 1056,
     "referenced_type" : "_ZTIj"
    },
    {
     "field_name" : "stx_dev_major",
     "field_offset" : 1088,
     "referenced_type" : "_ZTIj"
    },
    {
     "field_name" : "stx_dev_minor",
     "field_offset" : 1120,
     "referenced_type" : "_ZTIj"
    },
    {
     "field_name" : "stx_mnt_id",
     "field_offset" : 1152,
     "referenced_type" : "_ZTIy"
    },
    {
     "field_name" : "__spare2",
     "field_offset" : 1216,
     "referenced_type" : "_ZTIy"
    },
    {
     "field_name" : "__spare3",
     "field_offset" : 1280,
     "referenced_type" : "_ZTIA12_y"
    }
   ],
   "linker_set_key" : "_ZTI5statx",
   "name" : "statx",
   "referenced_type" : "_ZTI5statx",
   "self_type" : "_ZTI5statx",
   "size" : 256,
   "source_file" : "bionic/libc/kernel/uapi/linux/stat.h"
  },
  {
   "alignment" : 4,
   "fields" :
   [
    {
     "field_name" : "fds_bits",
     "referenced_type" : "_ZTIA32_m"
    }
   ],
   "linker_set_key" : "_ZTI6fd_set",
   "name" : "fd_set",
   "referenced_type" : "_ZTI6fd_set",
   "self_type" : "_ZTI6fd_set",
   "size" : 128,
   "source_file" : "bionic/libc/include/sys/select.h"
  },
  {
   "alignment" : 4,
   "fields" :
   [
    {
     "field_name" : "quot",
     "referenced_type" : "_ZTIl"
    },
    {
     "field_name" : "rem",
     "field_offset" : 32,
     "referenced_type" : "_ZTIl"
    }
   ],
   "linker_set_key" : "_ZTI6ldiv_t",
   "name" : "ldiv_t",
   "referenced_type" : "_ZTI6ldiv_t",
   "self_type" : "_ZTI6ldiv_t",
   "size" : 8,
   "source_file" : "bionic/libc/include/stdlib.h"
  },
  {
   "alignment" : 4,
   "fields" :
   [
    {
     "field_name" : "sival_int",
     "referenced_type" : "_ZTIi"
    },
    {
     "field_name" : "sival_ptr",
     "referenced_type" : "_ZTIPv"
    }
   ],
   "linker_set_key" : "_ZTI6sigval",
   "name" : "sigval",
   "record_kind" : "union",
   "referenced_type" : "_ZTI6sigval",
   "self_type" : "_ZTI6sigval",
   "size" : 4,
   "source_file" : "bionic/libc/kernel/uapi/asm-generic/siginfo.h"
  },
  {
   "alignment" : 8,
   "fields" :
   [
    {
     "field_name" : "st_dev",
     "referenced_type" : "_ZTIy"
    },
    {
     "field_name" : "__pad0",
     "field_offset" : 64,
     "referenced_type" : "_ZTIA4_h"
    },
    {
     "field_name" : "__st_ino",
     "field_offset" : 96,
     "referenced_type" : "_ZTIm"
    },
    {
     "field_name" : "st_mode",
     "field_offset" : 128,
     "referenced_type" : "_ZTIj"
    },
    {
     "field_name" : "st_nlink",
     "field_offset" : 160,
     "referenced_type" : "_ZTIj"
    },
    {
     "field_name" : "st_uid",
     "field_offset" : 192,
     "referenced_type" : "_ZTIj"
    },
    {
     "field_name" : "st_gid",
     "field_offset" : 224,
     "referenced_type" : "_ZTIj"
    },
    {
     "field_name" : "st_rdev",
     "field_offset" : 256,
     "referenced_type" : "_ZTIy"
    },
    {
     "field_name" : "__pad3",
     "field_offset" : 320,
     "referenced_type" : "_ZTIA4_h"
    },
    {
     "field_name" : "st_size",
     "field_offset" : 384,
     "referenced_type" : "_ZTIx"
    },
    {
     "field_name" : "st_blksize",
     "field_offset" : 448,
     "referenced_type" : "_ZTIm"
    },
    {
     "field_name" : "st_blocks",
     "field_offset" : 512,
     "referenced_type" : "_ZTIy"
    },
    {
     "field_name" : "st_atim",
     "field_offset" : 576,
     "referenced_type" : "_ZTI8timespec"
    },
    {
     "field_name" : "st_mtim",
     "field_offset" : 640,
     "referenced_type" : "_ZTI8timespec"
    },
    {
     "field_name" : "st_ctim",
     "field_offset" : 704,
     "referenced_type" : "_ZTI8timespec"
    },
    {
     "field_name" : "st_ino",
     "field_offset" : 768,
     "referenced_type" : "_ZTIy"
    }
   ],
   "linker_set_key" : "_ZTI6stat64",
   "name" : "stat64",
   "referenced_type" : "_ZTI6stat64",
   "self_type" : "_ZTI6stat64",
   "size" : 104,
   "source_file" : "bionic/libc/include/sys/stat.h"
  },
  {
   "alignment" : 8,
   "fields" :
   [
    {
     "field_name" : "l_type",
     "referenced_type" : "_ZTIs"
    },
    {
     "field_name" : "l_whence",
     "field_offset" : 16,
     "referenced_type" : "_ZTIs"
    },
    {
     "field_name" : "l_start",
     "field_offset" : 64,
     "referenced_type" : "_ZTIx"
    },
    {
     "field_name" : "l_len",
     "field_offset" : 128,
     "referenced_type" : "_ZTIx"
    },
    {
     "field_name" : "l_pid",
     "field_offset" : 192,
     "referenced_type" : "_ZTIi"
    }
   ],
   "linker_set_key" : "_ZTI7flock64",
   "name" : "flock64",
   "referenced_type" : "_ZTI7flock64",
   "self_type" : "_ZTI7flock64",
   "size" : 32,
   "source_file" : "bionic/libc/include/bits/flock.h"
  },
  {
   "alignment" : 8,
   "fields" :
   [
    {
     "field_name" : "quot",
     "referenced_type" : "_ZTIx"
    },
    {
     "field_name" : "rem",
     "field_offset" : 64,
     "referenced_type" : "_ZTIx"
    }
   ],
   "linker_set_key" : "_ZTI7lldiv_t",
   "name" : "lldiv_t",
   "referenced_type" : "_ZTI7lldiv_t",
   "self_type" : "_ZTI7lldiv_t",
   "size" : 16,
   "source_file" : "bionic/libc/include/stdlib.h"
  },
  {
   "alignment" : 4,
   "fields" :
   [
    {
     "referenced_type" : "_ZTIN7siginfoUt_E"
    }
   ],
   "linker_set_key" : "_ZTI7siginfo",
   "name" : "siginfo",
   "referenced_type" : "_ZTI7siginfo",
   "self_type" : "_ZTI7siginfo",
   "size" : 128,
   "source_file" : "bionic/libc/kernel/uapi/asm-generic/siginfo.h"
  },
  {
   "alignment" : 4,
   "fields" :
   [
    {
     "field_name" : "tv_sec",
     "referenced_type" : "_ZTIl"
    },
    {
     "field_name" : "tv_usec",
     "field_offset" : 32,
     "referenced_type" : "_ZTIl"
    }
   ],
   "linker_set_key" : "_ZTI7timeval",
   "name" : "timeval",
   "referenced_type" : "_ZTI7timeval",
   "self_type" : "_ZTI7timeval",
   "size" : 8,
   "source_file" : "bionic/libc/kernel/uapi/linux/time.h"
  },
  {
   "alignment" : 4,
   "fields" :
   [
    {
     "field_name" : "arena",
     "referenced_type" : "_ZTIj"
    },
    {
     "field_name" : "ordblks",
     "field_offset" : 32,
     "referenced_type" : "_ZTIj"
    },
    {
     "field_name" : "smblks",
     "field_offset" : 64,
     "referenced_type" : "_ZTIj"
    },
    {
     "field_name" : "hblks",
     "field_offset" : 96,
     "referenced_type" : "_ZTIj"
    },
    {
     "field_name" : "hblkhd",
     "field_offset" : 128,
     "referenced_type" : "_ZTIj"
    },
    {
     "field_name" : "usmblks",
     "field_offset" : 160,
     "referenced_type" : "_ZTIj"
    },
    {
     "field_name" : "fsmblks",
     "field_offset" : 192,
     "referenced_type" : "_ZTIj"
    },
    {
     "field_name" : "uordblks",
     "field_offset" : 224,
     "referenced_type" : "_ZTIj"
    },
    {
     "field_name" : "fordblks",
     "field_offset" : 256,
     "referenced_type" : "_ZTIj"
    },
    {
     "field_name" : "keepcost",
     "field_offset" : 288,
     "referenced_type" : "_ZTIj"
    }
   ],
   "linker_set_key" : "_ZTI8mallinfo",
   "name" : "mallinfo",
   "referenced_type" : "_ZTI8mallinfo",
   "self_type" : "_ZTI8mallinfo",
   "size" : 40,
   "source_file" : "bionic/libc/include/malloc.h"
  },
  {
   "alignment" : 8,
   "fields" :
   [
    {
     "field_name" : "flags",
     "referenced_type" : "_ZTIy"
    },
    {
     "field_name" : "mode",
     "field_offset" : 64,
     "referenced_type" : "_ZTIy"
    },
    {
     "field_name" : "resolve",
     "field_offset" : 128,
     "referenced_type" : "_ZTIy"
    }
   ],
   "linker_set_key" : "_ZTI8open_how",
   "name" : "open_how",
   "referenced_type" : "_ZTI8open_how",
   "self_type" : "_ZTI8open_how",
   "size" : 24,
   "source_file" : "bionic/libc/kernel/uapi/linux/openat2.h"
  },
  {
   "alignment" : 4,
   "fields" :
   [
    {
     "field_name" : "sigev_value",
     "referenced_type" : "_ZTI6sigval"
    },
    {
     "field_name" : "sigev_signo",
     "field_offset" : 32,
     "referenced_type" : "_ZTIi"
    },
    {
     "field_name" : "sigev_notify",
     "field_offset" : 64,
     "referenced_type" : "_ZTIi"
    },
    {
     "field_name" : "_sigev_un",
     "field_offset" : 96,
     "referenced_type" : "_ZTIN8sigeventUt_E"
    }
   ],
   "linker_set_key" : "_ZTI8sigevent",
   "name" : "sigevent",
   "referenced_type" : "_ZTI8sigevent",
   "self_type" : "_ZTI8sigevent",
   "size" : 64,
   "source_file" : "bionic/libc/kernel/uapi/asm-generic/siginfo.h"
  },
  {
   "alignment" : 4,
   "fields" :
   [
    {
     "field_name" : "tv_sec",
     "referenced_type" : "_ZTIl"
    },
    {
     "field_name" : "tv_nsec",
     "field_offset" : 32,
     "referenced_type" : "_ZTIl"
    }
   ],
   "linker_set_key" : "_ZTI8timespec",
   "name" : "timespec",
   "referenced_type" : "_ZTI8timespec",
   "self_type" : "_ZTI8timespec",
   "size" : 8,
   "source_file" : "bionic/libc/include/bits/timespec.h"
  },
  {
   "alignment" : 4,
   "fields" :
   [
    {
     "field_name" : "tz_minuteswest",
     "referenced_type" : "_ZTIi"
    },
    {
     "field_name" : "tz_dsttime",
     "field_offset" : 32,
     "referenced_type" : "_ZTIi"
    }
   ],
   "linker_set_key" : "_ZTI8timezone",
   "name" : "timezone",
   "referenced_type" : "_ZTI8timezone",
   "self_type" : "_ZTI8timezone",
   "size" : 8,
   "source_file" : "bionic/libc/kernel/uapi/linux/time.h"
  },
  {
   "alignment" : 8,
   "fields" :
   [
    {
     "field_name" : "uc_flags",
     "referenced_type" : "_ZTIm"
    },
    {
     "field_name" : "uc_link",
     "field_offset" : 32,
     "referenced_type" : "_ZTIP8ucontext"
    },
    {
     "field_name" : "uc_stack",
     "field_offset" : 64,
     "referenced_type" : "_ZTI11sigaltstack"
    },
    {
     "field_name" : "uc_mcontext",
     "field_offset" : 160,
     "referenced_type" : "_ZTI10sigcontext"
    },
    {
     "field_offset" : 832,
     "referenced_type" : "_ZTIN8ucontextUt_E"
    },
    {
     "field_name" : "__padding",
     "field_offset" : 896,
     "referenced_type" : "_ZTIA120_c"
    },
    {
     "field_name" : "uc_regspace",
     "field_offset" : 1856,
     "referenced_type" : "_ZTIA128_m"
    }
   ],
   "linker_set_key" : "_ZTI8ucontext",
   "name" : "ucontext",
   "referenced_type" : "_ZTI8ucontext",
   "self_type" : "_ZTI8ucontext",
   "size" : 744,
   "source_file" : "bionic/libc/include/sys/ucontext.h"
  },
  {
   "alignment" : 8,
   "fields" :
   [
    {
     "field_name" : "fpregs",
     "referenced_type" : "_ZTIA32_y"
    },
    {
     "field_name" : "fpscr",
     "field_offset" : 2048,
     "referenced_type" : "_ZTIm"
    }
   ],
   "linker_set_key" : "_ZTI8user_vfp",
   "name" : "user_vfp",
   "referenced_type" : "_ZTI8user_vfp",
   "self_type" : "_ZTI8user_vfp",
   "size" : 264,
   "source_file" : "bionic/libc/include/sys/user.h"
  },
  {
   "alignment" : 4,
   "fields" :
   [
    {
     "field_name" : "__bits",
     "referenced_type" : "_ZTIA1_m"
    }
   ],
   "linker_set_key" : "_ZTI9cpu_set_t",
   "name" : "cpu_set_t",
   "referenced_type" : "_ZTI9cpu_set_t",
   "self_type" : "_ZTI9cpu_set_t",
   "size" : 4,
   "source_file" : "bionic/libc/include/sched.h"
  },
  {
   "alignment" : 4,
   "fields" :
   [
    {
     "field_name" : "it_interval",
     "referenced_type" : "_ZTI7timeval"
    },
    {
     "field_name" : "it_value",
     "field_offset" : 64,
     "referenced_type" : "_ZTI7timeval"
    }
   ],
   "linker_set_key" : "_ZTI9itimerval",
   "name" : "itimerval",
   "referenced_type" : "_ZTI9itimerval",
   "self_type" : "_ZTI9itimerval",
   "size" : 16,
   "source_file" : "bionic/libc/kernel/uapi/linux/time.h"
  },
  {
   "alignment" : 4,
   "fields" :
   [
    {
     "referenced_type" : "_ZTIN9sigactionUt_E"
    },
    {
     "field_name" : "sa_mask",
     "field_offset" : 32,
     "referenced_type" : "_ZTIm"
    },
    {
     "field_name" : "sa_flags",
     "field_offset" : 64,
     "referenced_type" : "_ZTIi"
    },
    {
     "field_name" : "sa_restorer",
     "field_offset" : 96,
     "referenced_type" : "_ZTIPFvvE"
    }
   ],
   "linker_set_key" : "_ZTI9sigaction",
   "name" : "sigaction",
   "referenced_type" : "_ZTI9sigaction",
   "self_type" : "_ZTI9sigaction",
   "size" : 16,
   "source_file" : "bionic/libc/include/bits/signal_types.h"
  },
  {
   "alignment" : 4,
   "fields" :
   [
    {
     "field_name" : "uregs",
     "referenced_type" : "_ZTIA18_m"
    }
   ],
   "linker_set_key" : "_ZTI9user_regs",
   "name" : "user_regs",
   "referenced_type" : "_ZTI9user_regs",
   "self_type" : "_ZTI9user_regs",
   "size" : 72,
   "source_file" : "bionic/libc/include/sys/user.h"
  },
  {
   "alignment" : 4,
   "fields" :
   [
    {
     "field_name" : "_tid",
     "referenced_type" : "_ZTIi"
    },
    {
     "field_name" : "_overrun",
     "field_offset" : 32,
     "referenced_type" : "_ZTIi"
    },
    {
     "field_name" : "_sigval",
     "field_offset" : 64,
     "referenced_type" : "_ZTI6sigval"
    },
    {
     "field_name" : "_sys_private",
     "field_offset" : 96,
     "referenced_type" : "_ZTIi"
    }
   ],
   "is_anonymous" : true,
   "linker_set_key" : "_ZTIN10__sifieldsUt0_E",
   "name" : "__sifields::(anonymous struct at bionic/libc/kernel/uapi/asm-generic/siginfo.h:42:3)",
   "referenced_type" : "_ZTIN10__sifieldsUt0_E",
   "self_type" : "_ZTIN10__sifieldsUt0_E",
   "size" : 16,
   "source_file" : "bionic/libc/kernel/uapi/asm-generic/siginfo.h"
  },
  {
   "alignment" : 4,
   "fields" :
   [
    {
     "field_name" : "_pid",
     "referenced_type" : "_ZTIi"
    },
    {
     "field_name" : "_uid",
     "field_offset" : 32,
     "referenced_type" : "_ZTIj"
    },
    {
     "field_name" : "_sigval",
     "field_offset" : 64,
     "referenced_type" : "_ZTI6sigval"
    }
   ],
   "is_anonymous" : true,
   "linker_set_key" : "_ZTIN10__sifieldsUt1_E",
   "name" : "__sifields::(anonymous struct at bionic/libc/kernel/uapi/asm-generic/siginfo.h:48:3)",
   "referenced_type" : "_ZTIN10__sifieldsUt1_E",
   "self_type" : "_ZTIN10__sifieldsUt1_E",
   "size" : 12,
   "source_file" : "bionic/libc/kernel/uapi/asm-generic/siginfo.h"
  },
  {
   "alignment" : 4,
   "fields" :
   [
    {
     "field_name" : "_pid",
     "referenced_type" : "_ZTIi"
    },
    {
     "field_name" : "_uid",
     "field_offset" : 32,
     "referenced_type" : "_ZTIj"
    },
    {
     "field_name" : "_status",
     "field_offset" : 64,
     "referenced_type" : "_ZTIi"
    },
    {
     "field_name" : "_utime",
     "field_offset" : 96,
     "referenced_type" : "_ZTIl"
    },
    {
     "field_name" : "_stime",
     "field_offset" : 128,
     "referenced_type" : "_ZTIl"
    }
   ],
   "is_anonymous" : true,
   "linker_set_key" : "_ZTIN10__sifieldsUt2_E",
   "name" : "__sifields::(anonymous struct at bionic/libc/kernel/uapi/asm-generic/siginfo.h:53:3)",
   "referenced_type" : "_ZTIN10__sifieldsUt2_E",
   "self_type" : "_ZTIN10__sifieldsUt2_E",
   "size" : 20,
   "source_file" : "bionic/libc/kernel/uapi/asm-generic/siginfo.h"
  },
  {
   "alignment" : 4,
   "fields" :
   [
    {
     "field_name" : "_addr",
     "referenced_type" : "_ZTIPv"
    },
    {
     "field_offset" : 32,
     "referenced_type" : "_ZTIN10__sifieldsUt3_Ut_E"
    }
   ],
   "is_anonymous" : true,
   "linker_set_key" : "_ZTIN10__sifieldsUt3_E",
   "name" : "__sifields::(anonymous struct at bionic/libc/kernel/uapi/asm-generic/siginfo.h:60:3)",
   "referenced_type" : "_ZTIN10__sifieldsUt3_E",
   "self_type" : "_ZTIN10__sifieldsUt3_E",
   "size" : 16,
   "source_file" : "bionic/libc/kernel/uapi/asm-generic/siginfo.h"
  },
  {
   "alignment" : 4,
   "fields" :
   [
    {
     "field_name" : "_addr_lsb",
     "referenced_type" : "_ZTIs"
    },
    {
     "field_name" : "_addr_bnd",
     "referenced_type" : "_ZTIN10__sifieldsUt3_Ut_Ut_E"
    },
    {
     "field_name" : "_addr_pkey",
     "referenced_type" : "_ZTIN10__sifieldsUt3_Ut_Ut0_E"
    }
   ],
   "is_anonymous" : true,
   "linker_set_key" : "_ZTIN10__sifieldsUt3_Ut_E",
   "name" : "__sifields::(anonymous struct at bionic/libc/kernel/uapi/asm-generic/siginfo.h:60:3)::(anonymous union at bionic/libc/kernel/uapi/asm-generic/siginfo.h:71:5)",
   "record_kind" : "union",
   "referenced_type" : "_ZTIN10__sifieldsUt3_Ut_E",
   "self_type" : "_ZTIN10__sifieldsUt3_Ut_E",
   "size" : 12,
   "source_file" : "bionic/libc/kernel/uapi/asm-generic/siginfo.h"
  },
  {
   "alignment" : 4,
   "fields" :
   [
    {
     "field_name" : "_dummy_pkey",
     "referenced_type" : "_ZTIA4_c"
    },
    {
     "field_name" : "_pkey",
     "field_offset" : 32,
     "referenced_type" : "_ZTIj"
    }
   ],
   "is_anonymous" : true,
   "linker_set_key" : "_ZTIN10__sifieldsUt3_Ut_Ut0_E",
   "name" : "__sifields::(anonymous struct at bionic/libc/kernel/uapi/asm-generic/siginfo.h:60:3)::(anonymous union at bionic/libc/kernel/uapi/asm-generic/siginfo.h:71:5)::(anonymous struct at bionic/libc/kernel/uapi/asm-generic/siginfo.h:78:7)",
   "referenced_type" : "_ZTIN10__sifieldsUt3_Ut_Ut0_E",
   "self_type" : "_ZTIN10__sifieldsUt3_Ut_Ut0_E",
   "size" : 8,
   "source_file" : "bionic/libc/kernel/uapi/asm-generic/siginfo.h"
  },
  {
   "alignment" : 4,
   "fields" :
   [
    {
     "field_name" : "_dummy_bnd",
     "referenced_type" : "_ZTIA4_c"
    },
    {
     "field_name" : "_lower",
     "field_offset" : 32,
     "referenced_type" : "_ZTIPv"
    },
    {
     "field_name" : "_upper",
     "field_offset" : 64,
     "referenced_type" : "_ZTIPv"
    }
   ],
   "is_anonymous" : true,
   "linker_set_key" : "_ZTIN10__sifieldsUt3_Ut_Ut_E",
   "name" : "__sifields::(anonymous struct at bionic/libc/kernel/uapi/asm-generic/siginfo.h:60:3)::(anonymous union at bionic/libc/kernel/uapi/asm-generic/siginfo.h:71:5)::(anonymous struct at bionic/libc/kernel/uapi/asm-generic/siginfo.h:73:7)",
   "referenced_type" : "_ZTIN10__sifieldsUt3_Ut_Ut_E",
   "self_type" : "_ZTIN10__sifieldsUt3_Ut_Ut_E",
   "size" : 12,
   "source_file" : "bionic/libc/kernel/uapi/asm-generic/siginfo.h"
  },
  {
   "alignment" : 4,
   "fields" :
   [
    {
     "field_name" : "_band",
     "referenced_type" : "_ZTIl"
    },
    {
     "field_name" : "_fd",
     "field_offset" : 32,
     "referenced_type" : "_ZTIi"
    }
   ],
   "is_anonymous" : true,
   "linker_set_key" : "_ZTIN10__sifieldsUt4_E",
   "name" : "__sifields::(anonymous struct at bionic/libc/kernel/uapi/asm-generic/siginfo.h:84:3)",
   "referenced_type" : "_ZTIN10__sifieldsUt4_E",
   "self_type" : "_ZTIN10__sifieldsUt4_E",
   "size" : 8,
   "source_file" : "bionic/libc/kernel/uapi/asm-generic/siginfo.h"
  },
  {
   "alignment" : 4,
   "fields" :
   [
    {
     "field_name" : "_call_addr",
     "referenced_type" : "_ZTIPv"
    },
    {
     "field_name" : "_syscall",
     "field_offset" : 32,
     "referenced_type" : "_ZTIi"
    },
    {
     "field_name" : "_arch",
     "field_offset" : 64,
     "referenced_type" : "_ZTIj"
    }
   ],
   "is_anonymous" : true,
   "linker_set_key" : "_ZTIN10__sifieldsUt5_E",
   "name" : "__sifields::(anonymous struct at bionic/libc/kernel/uapi/asm-generic/siginfo.h:88:3)",
   "referenced_type" : "_ZTIN10__sifieldsUt5_E",
   "self_type" : "_ZTIN10__sifieldsUt5_E",
   "size" : 12,
   "source_file" : "bionic/libc/kernel/uapi/asm-generic/siginfo.h"
  },
  {
   "alignment" : 4,
   "fields" :
   [
    {
     "field_name" : "_pid",
     "referenced_type" : "_ZTIi"
    },
    {
     "field_name" : "_uid",
     "field_offset" : 32,
     "referenced_type" : "_ZTIj"
    }
   ],
   "is_anonymous" : true,
   "linker_set_key" : "_ZTIN10__sifieldsUt_E",
   "name" : "__sifields::(anonymous struct at bionic/libc/kernel/uapi/asm-generic/siginfo.h:38:3)",
   "referenced_type" : "_ZTIN10__sifieldsUt_E",
   "self_type" : "_ZTIN10__sifieldsUt_E",
   "size" : 8,
   "source_file" : "bionic/libc/kernel/uapi/asm-generic/siginfo.h"
  },
  {
   "alignment" : 4,
   "fields" :
   [
    {
     "field_name" : "sa_handler",
     "referenced_type" : "_ZTIPFviE"
    },
    {
     "field_name" : "sa_sigaction",
     "referenced_type" : "_ZTIPFviP7siginfoPvE"
    }
   ],
   "is_anonymous" : true,
   "linker_set_key" : "_ZTIN11sigaction64Ut_E",
   "name" : "sigaction64::(anonymous union at bionic/libc/include/bits/signal_types.h:100:3)",
   "record_kind" : "union",
   "referenced_type" : "_ZTIN11sigaction64Ut_E",
   "self_type" : "_ZTIN11sigaction64Ut_E",
   "size" : 4,
   "source_file" : "bionic/libc/include/bits/signal_types.h"
  },
  {
   "alignment" : 4,
   "fields" :
   [
    {
     "field_name" : "sign1",
     "referenced_type" : "_ZTIj"
    },
    {
     "field_name" : "unused",
     "field_offset" : 1,
     "referenced_type" : "_ZTIj"
    },
    {
     "field_name" : "sign2",
     "field_offset" : 16,
     "referenced_type" : "_ZTIj"
    },
    {
     "field_name" : "exponent",
     "field_offset" : 17,
     "referenced_type" : "_ZTIj"
    },
    {
     "field_name" : "j",
     "field_offset" : 31,
     "referenced_type" : "_ZTIj"
    },
    {
     "field_name" : "mantissa1",
     "field_offset" : 32,
     "referenced_type" : "_ZTIj"
    },
    {
     "field_name" : "mantissa0",
     "field_offset" : 64,
     "referenced_type" : "_ZTIj"
    }
   ],
   "linker_set_key" : "_ZTIN11user_fpregs6fp_regE",
   "name" : "user_fpregs::fp_reg",
   "referenced_type" : "_ZTIN11user_fpregs6fp_regE",
   "self_type" : "_ZTIN11user_fpregs6fp_regE",
   "size" : 12,
   "source_file" : "bionic/libc/include/sys/user.h"
  },
  {
   "alignment" : 4,
   "fields" :
   [
    {
     "field_name" : "_sa_handler",
     "referenced_type" : "_ZTIPFviE"
    },
    {
     "field_name" : "_sa_sigaction",
     "referenced_type" : "_ZTIPFviP7siginfoPvE"
    }
   ],
   "is_anonymous" : true,
   "linker_set_key" : "_ZTIN18__kernel_sigactionUt_E",
   "name" : "__kernel_sigaction::(anonymous union at bionic/libc/kernel/uapi/asm-arm/asm/signal.h:68:3)",
   "record_kind" : "union",
   "referenced_type" : "_ZTIN18__kernel_sigactionUt_E",
   "self_type" : "_ZTIN18__kernel_sigactionUt_E",
   "size" : 4,
   "source_file" : "bionic/libc/kernel/uapi/asm-arm/asm/signal.h"
  },
  {
   "alignment" : 4,
   "fields" :
   [
    {
     "access" : "private",
     "field_name" : "Mutex",
     "referenced_type" : "_ZTIRN5scudo11HybridMutexE"
    }
   ],
   "linker_set_key" : "_ZTIN5scudo10ScopedLockE",
   "name" : "scudo::ScopedLock",
   "record_kind" : "class",
   "referenced_type" : "_ZTIN5scudo10ScopedLockE",
   "self_type" : "_ZTIN5scudo10ScopedLockE",
   "size" : 4,
   "source_file" : "external/scudo/standalone/mutex.h"
  },
  {
   "alignment" : 4,
   "fields" :
   [
    {
     "field_name" : "ValDoNotUse",
     "referenced_type" : "_ZTIVi"
    }
   ],
   "linker_set_key" : "_ZTIN5scudo10atomic_s32E",
   "name" : "scudo::atomic_s32",
   "referenced_type" : "_ZTIN5scudo10atomic_s32E",
   "self_type" : "_ZTIN5scudo10atomic_s32E",
   "size" : 4,
   "source_file" : "external/scudo/standalone/atomic_helpers.h"
  },
  {
   "alignment" : 2,
   "fields" :
   [
    {
     "field_name" : "ValDoNotUse",
     "referenced_type" : "_ZTIVt"
    }
   ],
   "linker_set_key" : "_ZTIN5scudo10atomic_u16E",
   "name" : "scudo::atomic_u16",
   "referenced_type" : "_ZTIN5scudo10atomic_u16E",
   "self_type" : "_ZTIN5scudo10atomic_u16E",
   "size" : 2,
   "source_file" : "external/scudo/standalone/atomic_helpers.h"
  },
  {
   "alignment" : 4,
   "fields" :
   [
    {
     "field_name" : "ValDoNotUse",
     "referenced_type" : "_ZTIVj"
    }
   ],
   "linker_set_key" : "_ZTIN5scudo10atomic_u32E",
   "name" : "scudo::atomic_u32",
   "referenced_type" : "_ZTIN5scudo10atomic_u32E",
   "self_type" : "_ZTIN5scudo10atomic_u32E",
   "size" : 4,
   "source_file" : "external/scudo/standalone/atomic_helpers.h"
  },
  {
   "alignment" : 8,
   "fields" :
   [
    {
     "field_name" : "ValDoNotUse",
     "referenced_type" : "_ZTIVy"
    }
   ],
   "linker_set_key" : "_ZTIN5scudo10atomic_u64E",
   "name" : "scudo::atomic_u64",
   "referenced_type" : "_ZTIN5scudo10atomic_u64E",
   "self_type" : "_ZTIN5scudo10atomic_u64E",
   "size" : 8,
   "source_file" : "external/scudo/standalone/atomic_helpers.h"
  },
  {
   "alignment" : 4,
   "fields" :
   [
    {
     "access" : "private",
     "field_name" : "M",
     "referenced_type" : "_ZTIN5scudo10atomic_u32E"
    }
   ],
   "linker_set_key" : "_ZTIN5scudo11HybridMutexE",
   "name" : "scudo::HybridMutex",
   "record_kind" : "class",
   "referenced_type" : "_ZTIN5scudo11HybridMutexE",
   "self_type" : "_ZTIN5scudo11HybridMutexE",
   "size" : 4,
   "source_file" : "external/scudo/standalone/mutex.h"
  },
  {
   "alignment" : 4,
   "fields" :
   [
    {
     "field_name" : "ValDoNotUse",
     "referenced_type" : "_ZTIVm"
    }
   ],
   "linker_set_key" : "_ZTIN5scudo11atomic_uptrE",
   "name" : "scudo::atomic_uptr",
   "referenced_type" : "_ZTIN5scudo11atomic_uptrE",
   "self_type" : "_ZTIN5scudo11atomic_uptrE",
   "size" : 4,
   "source_file" : "external/scudo/standalone/atomic_helpers.h"
  },
  {
   "alignment" : 4,
   "fields" :
   [
    {
     "access" : "private",
     "field_name" : "String",
     "referenced_type" : "_ZTIN5scudo6VectorIcEE"
    },
    {
     "access" : "private",
     "field_name" : "Length",
     "field_offset" : 96,
     "referenced_type" : "_ZTIm"
    }
   ],
   "linker_set_key" : "_ZTIN5scudo12ScopedStringE",
   "name" : "scudo::ScopedString",
   "record_kind" : "class",
   "referenced_type" : "_ZTIN5scudo12ScopedStringE",
   "self_type" : "_ZTIN5scudo12ScopedStringE",
   "size" : 16,
   "source_file" : "external/scudo/standalone/string_utils.h"
  },
  {
   "alignment" : 4,
   "fields" :
   [
    {
     "access" : "private",
     "field_name" : "Data",
     "referenced_type" : "_ZTIPc"
    },
    {
     "access" : "private",
     "field_name" : "CapacityBytes",
     "field_offset" : 32,
     "referenced_type" : "_ZTIm"
    },
    {
     "access" : "private",
     "field_name" : "Size",
     "field_offset" : 64,
     "referenced_type" : "_ZTIm"
    }
   ],
   "linker_set_key" : "_ZTIN5scudo12VectorNoCtorIcEE",
   "name" : "scudo::VectorNoCtor<char>",
   "record_kind" : "class",
   "referenced_type" : "_ZTIN5scudo12VectorNoCtorIcEE",
   "self_type" : "_ZTIN5scudo12VectorNoCtorIcEE",
   "size" : 12,
   "source_file" : "external/scudo/standalone/vector.h",
   "template_args" : [ "_ZTIc" ]
  },
  {
   "alignment" : 1,
   "linker_set_key" : "_ZTIN5scudo15MapPlatformDataE",
   "name" : "scudo::MapPlatformData",
   "referenced_type" : "_ZTIN5scudo15MapPlatformDataE",
   "self_type" : "_ZTIN5scudo15MapPlatformDataE",
   "size" : 1,
   "source_file" : "external/scudo/standalone/linux.h"
  },
  {
   "alignment" : 4,
   "base_specifiers" :
   [
    {
     "referenced_type" : "_ZTIN5scudo12VectorNoCtorIcEE"
    }
   ],
   "linker_set_key" : "_ZTIN5scudo6VectorIcEE",
   "name" : "scudo::Vector<char>",
   "record_kind" : "class",
   "referenced_type" : "_ZTIN5scudo6VectorIcEE",
   "self_type" : "_ZTIN5scudo6VectorIcEE",
   "size" : 12,
   "source_file" : "external/scudo/standalone/vector.h",
   "template_args" : [ "_ZTIc" ]
  },
  {
   "alignment" : 4,
   "fields" :
   [
    {
     "field_name" : "BlockBegin",
     "referenced_type" : "_ZTIm"
    },
    {
     "field_name" : "BlockSize",
     "field_offset" : 32,
     "referenced_type" : "_ZTIm"
    },
    {
     "field_name" : "RegionBegin",
     "field_offset" : 64,
     "referenced_type" : "_ZTIm"
    },
    {
     "field_name" : "RegionEnd",
     "field_offset" : 96,
     "referenced_type" : "_ZTIm"
    }
   ],
   "linker_set_key" : "_ZTIN5scudo9BlockInfoE",
   "name" : "scudo::BlockInfo",
   "referenced_type" : "_ZTIN5scudo9BlockInfoE",
   "self_type" : "_ZTIN5scudo9BlockInfoE",
   "size" : 16,
   "source_file" : "external/scudo/standalone/common.h"
  },
  {
   "alignment" : 1,
   "fields" :
   [
    {
     "field_name" : "ValDoNotUse",
     "referenced_type" : "_ZTIVh"
    }
   ],
   "linker_set_key" : "_ZTIN5scudo9atomic_u8E",
   "name" : "scudo::atomic_u8",
   "referenced_type" : "_ZTIN5scudo9atomic_u8E",
   "self_type" : "_ZTIN5scudo9atomic_u8E",
   "size" : 1,
   "source_file" : "external/scudo/standalone/atomic_helpers.h"
  },
  {
   "alignment" : 4,
   "fields" :
   [
    {
     "referenced_type" : "_ZTIN7siginfoUt_Ut_E"
    },
    {
     "field_name" : "_si_pad",
     "referenced_type" : "_ZTIA32_i"
    }
   ],
   "is_anonymous" : true,
   "linker_set_key" : "_ZTIN7siginfoUt_E",
   "name" : "siginfo::(anonymous union at bionic/libc/kernel/uapi/asm-generic/siginfo.h:102:3)",
   "record_kind" : "union",
   "referenced_type" : "_ZTIN7siginfoUt_E",
   "self_type" : "_ZTIN7siginfoUt_E",
   "size" : 128,
   "source_file" : "bionic/libc/kernel/uapi/asm-generic/siginfo.h"
  },
  {
   "alignment" : 4,
   "fields" :
   [
    {
     "field_name" : "si_signo",
     "referenced_type" : "_ZTIi"
    },
    {
     "field_name" : "si_errno",
     "field_offset" : 32,
     "referenced_type" : "_ZTIi"
    },
    {
     "field_name" : "si_code",
     "field_offset" : 64,
     "referenced_type" : "_ZTIi"
    },
    {
     "field_name" : "_sifields",
     "field_offset" : 96,
     "referenced_type" : "_ZTI10__sifields"
    }
   ],
   "is_anonymous" : true,
   "linker_set_key" : "_ZTIN7siginfoUt_Ut_E",
   "name" : "siginfo::(anonymous union at bionic/libc/kernel/uapi/asm-generic/siginfo.h:102:3)::(anonymous struct at bionic/libc/kernel/uapi/asm-generic/siginfo.h:103:5)",
   "referenced_type" : "_ZTIN7siginfoUt_Ut_E",
   "self_type" : "_ZTIN7siginfoUt_Ut_E",
   "size" : 32,
   "source_file" : "bionic/libc/kernel/uapi/asm-generic/siginfo.h"
  },
  {
   "alignment" : 4,
   "fields" :
   [
    {
     "field_name" : "_pad",
     "referenced_type" : "_ZTIA13_i"
    },
    {
     "field_name" : "_tid",
     "referenced_type" : "_ZTIi"
    },
    {
     "field_name" : "_sigev_thread",
     "referenced_type" : "_ZTIN8sigeventUt_Ut_E"
    }
   ],
   "is_anonymous" : true,
   "linker_set_key" : "_ZTIN8sigeventUt_E",
   "name" : "sigevent::(anonymous union at bionic/libc/kernel/uapi/asm-generic/siginfo.h:229:3)",
   "record_kind" : "union",
   "referenced_type" : "_ZTIN8sigeventUt_E",
   "self_type" : "_ZTIN8sigeventUt_E",
   "size" : 52,
   "source_file" : "bionic/libc/kernel/uapi/asm-generic/siginfo.h"
  },
  {
   "alignment" : 4,
   "fields" :
   [
    {
     "field_name" : "_function",
     "referenced_type" : "_ZTIPFv6sigvalE"
    },
    {
     "field_name" : "_attribute",
     "field_offset" : 32,
     "referenced_type" : "_ZTIPv"
    }
   ],
   "is_anonymous" : true,
   "linker_set_key" : "_ZTIN8sigeventUt_Ut_E",
   "name" : "sigevent::(anonymous union at bionic/libc/kernel/uapi/asm-generic/siginfo.h:229:3)::(anonymous struct at bionic/libc/kernel/uapi/asm-generic/siginfo.h:232:5)",
   "referenced_type" : "_ZTIN8sigeventUt_Ut_E",
   "self_type" : "_ZTIN8sigeventUt_Ut_E",
   "size" : 8,
   "source_file" : "bionic/libc/kernel/uapi/asm-generic/siginfo.h"
  },
  {
   "alignment" : 4,
   "fields" :
   [
    {
     "referenced_type" : "_ZTIN8ucontextUt_Ut_E"
    },
    {
     "field_name" : "uc_sigmask64",
     "referenced_type" : "_ZTI10sigset64_t"
    }
   ],
   "is_anonymous" : true,
   "linker_set_key" : "_ZTIN8ucontextUt_E",
   "name" : "ucontext::(anonymous union at bionic/libc/include/sys/ucontext.h:90:3)",
   "record_kind" : "union",
   "referenced_type" : "_ZTIN8ucontextUt_E",
   "self_type" : "_ZTIN8ucontextUt_E",
   "size" : 8,
   "source_file" : "bionic/libc/include/sys/ucontext.h"
  },
  {
   "alignment" : 4,
   "fields" :
   [
    {
     "field_name" : "uc_sigmask",
     "referenced_type" : "_ZTIm"
    },
    {
     "field_name" : "__padding_rt_sigset",
     "field_offset" : 32,
     "referenced_type" : "_ZTIj"
    }
   ],
   "is_anonymous" : true,
   "linker_set_key" : "_ZTIN8ucontextUt_Ut_E",
   "name" : "ucontext::(anonymous union at bionic/libc/include/sys/ucontext.h:90:3)::(anonymous struct at bionic/libc/include/sys/ucontext.h:91:5)",
   "referenced_type" : "_ZTIN8ucontextUt_Ut_E",
   "self_type" : "_ZTIN8ucontextUt_Ut_E",
   "size" : 8,
   "source_file" : "bionic/libc/include/sys/ucontext.h"
  },
  {
   "alignment" : 4,
   "fields" :
   [
    {
     "field_name" : "sa_handler",
     "referenced_type" : "_ZTIPFviE"
    },
    {
     "field_name" : "sa_sigaction",
     "referenced_type" : "_ZTIPFviP7siginfoPvE"
    }
   ],
   "is_anonymous" : true,
   "linker_set_key" : "_ZTIN9sigactionUt_E",
   "name" : "sigaction::(anonymous union at bionic/libc/include/bits/signal_types.h:89:3)",
   "record_kind" : "union",
   "referenced_type" : "_ZTIN9sigactionUt_E",
   "self_type" : "_ZTIN9sigactionUt_E",
   "size" : 4,
   "source_file" : "bionic/libc/include/bits/signal_types.h"
  }
 ],
 "rvalue_reference_types" : []
}
