{
 "array_types" :
 [
  {
   "alignment" : 4,
   "linker_set_key" : "_ZTIA10_i",
   "name" : "int [10]",
   "referenced_type" : "_ZTIi",
   "self_type" : "_ZTIA10_i",
   "size" : 40,
   "source_file" : "bionic/libc/include/bits/pthread_types.h"
  },
  {
   "alignment" : 4,
   "linker_set_key" : "_ZTIA1_i",
   "name" : "int [1]",
   "referenced_type" : "_ZTIi",
   "self_type" : "_ZTIA1_i",
   "size" : 4,
   "source_file" : "bionic/libc/include/bits/pthread_types.h"
  },
  {
   "alignment" : 4,
   "linker_set_key" : "_ZTIA2_i",
   "name" : "int [2]",
   "referenced_type" : "_ZTIi",
   "self_type" : "_ZTIA2_i",
   "size" : 8,
   "source_file" : "bionic/libc/kernel/uapi/asm-generic/posix_types.h"
  },
  {
   "alignment" : 4,
   "linker_set_key" : "_ZTIA32_m",
   "name" : "unsigned long [32]",
   "referenced_type" : "_ZTIm",
   "self_type" : "_ZTIA32_m",
   "size" : 128,
   "source_file" : "bionic/libc/kernel/uapi/linux/posix_types.h"
  },
  {
   "alignment" : 4,
   "linker_set_key" : "_ZTIA8_i",
   "name" : "int [8]",
   "referenced_type" : "_ZTIi",
   "self_type" : "_ZTIA8_i",
   "size" : 32,
   "source_file" : "bionic/libc/include/bits/pthread_types.h"
  }
 ],
 "builtin_types" :
 [
  {
   "alignment" : 1,
   "is_integral" : true,
   "is_unsigned" : true,
   "linker_set_key" : "_ZTIb",
   "name" : "bool",
   "referenced_type" : "_ZTIb",
   "self_type" : "_ZTIb",
   "size" : 1
  },
  {
   "alignment" : 1,
   "is_integral" : true,
   "is_unsigned" : true,
   "linker_set_key" : "_ZTIc",
   "name" : "char",
   "referenced_type" : "_ZTIc",
   "self_type" : "_ZTIc",
   "size" : 1
  },
  {
   "alignment" : 8,
   "linker_set_key" : "_ZTIe",
   "name" : "long double",
   "referenced_type" : "_ZTIe",
   "self_type" : "_ZTIe",
   "size" : 8
  },
  {
   "alignment" : 1,
   "is_integral" : true,
   "is_unsigned" : true,
   "linker_set_key" : "_ZTIh",
   "name" : "unsigned char",
   "referenced_type" : "_ZTIh",
   "self_type" : "_ZTIh",
   "size" : 1
  },
  {
   "alignment" : 4,
   "is_integral" : true,
   "linker_set_key" : "_ZTIi",
   "name" : "int",
   "referenced_type" : "_ZTIi",
   "self_type" : "_ZTIi",
   "size" : 4
  },
  {
   "alignment" : 4,
   "is_integral" : true,
   "is_unsigned" : true,
   "linker_set_key" : "_ZTIj",
   "name" : "unsigned int",
   "referenced_type" : "_ZTIj",
   "self_type" : "_ZTIj",
   "size" : 4
  },
  {
   "alignment" : 4,
   "is_integral" : true,
   "is_unsigned" : true,
   "linker_set_key" : "_ZTIm",
   "name" : "unsigned long",
   "referenced_type" : "_ZTIm",
   "self_type" : "_ZTIm",
   "size" : 4
  },
  {
   "alignment" : 2,
   "is_integral" : true,
   "is_unsigned" : true,
   "linker_set_key" : "_ZTIt",
   "name" : "unsigned short",
   "referenced_type" : "_ZTIt",
   "self_type" : "_ZTIt",
   "size" : 2
  },
  {
   "linker_set_key" : "_ZTIv",
   "name" : "void",
   "referenced_type" : "_ZTIv",
   "self_type" : "_ZTIv"
  },
  {
   "alignment" : 8,
   "is_integral" : true,
   "linker_set_key" : "_ZTIx",
   "name" : "long long",
   "referenced_type" : "_ZTIx",
   "self_type" : "_ZTIx",
   "size" : 8
  },
  {
   "alignment" : 8,
   "is_integral" : true,
   "is_unsigned" : true,
   "linker_set_key" : "_ZTIy",
   "name" : "unsigned long long",
   "referenced_type" : "_ZTIy",
   "self_type" : "_ZTIy",
   "size" : 8
  }
 ],
 "elf_functions" : [],
 "elf_objects" : [],
 "enum_types" :
 [
  {
   "alignment" : 4,
   "enum_fields" :
   [
    {
     "enum_field_value" : 0,
     "name" : "scudo::memory_order_relaxed"
    },
    {
     "enum_field_value" : 1,
     "name" : "scudo::memory_order_consume"
    },
    {
     "enum_field_value" : 2,
     "name" : "scudo::memory_order_acquire"
    },
    {
     "enum_field_value" : 3,
     "name" : "scudo::memory_order_release"
    },
    {
     "enum_field_value" : 4,
     "name" : "scudo::memory_order_acq_rel"
    },
    {
     "enum_field_value" : 5,
     "name" : "scudo::memory_order_seq_cst"
    }
   ],
   "linker_set_key" : "_ZTIN5scudo12memory_orderE",
   "name" : "scudo::memory_order",
   "referenced_type" : "_ZTIN5scudo12memory_orderE",
   "self_type" : "_ZTIN5scudo12memory_orderE",
   "size" : 4,
   "source_file" : "external/scudo/standalone/atomic_helpers.h",
   "underlying_type" : "_ZTIj"
  },
  {
   "alignment" : 1,
   "enum_fields" :
   [
    {
     "enum_field_value" : 0,
     "name" : "scudo::AllocatorAction::Recycling"
    },
    {
     "enum_field_value" : 1,
     "name" : "scudo::AllocatorAction::Deallocating"
    },
    {
     "enum_field_value" : 2,
     "name" : "scudo::AllocatorAction::Reallocating"
    },
    {
     "enum_field_value" : 3,
     "name" : "scudo::AllocatorAction::Sizing"
    }
   ],
   "linker_set_key" : "_ZTIN5scudo15AllocatorActionE",
   "name" : "scudo::AllocatorAction",
   "referenced_type" : "_ZTIN5scudo15AllocatorActionE",
   "self_type" : "_ZTIN5scudo15AllocatorActionE",
   "size" : 1,
   "source_file" : "external/scudo/standalone/report.h",
   "underlying_type" : "_ZTIh"
  },
  {
   "alignment" : 4,
   "enum_fields" :
   [
    {
     "enum_field_value" : 0,
     "name" : "scudo::NoFill"
    },
    {
     "enum_field_value" : 1,
     "name" : "scudo::ZeroFill"
    },
    {
     "enum_field_value" : 2,
     "name" : "scudo::PatternOrZeroFill"
    }
   ],
   "linker_set_key" : "_ZTIN5scudo16FillContentsModeE",
   "name" : "scudo::FillContentsMode",
   "referenced_type" : "_ZTIN5scudo16FillContentsModeE",
   "self_type" : "_ZTIN5scudo16FillContentsModeE",
   "size" : 4,
   "source_file" : "external/scudo/standalone/common.h",
   "underlying_type" : "_ZTIj"
  },
  {
   "alignment" : 1,
   "enum_fields" :
   [
    {
     "enum_field_value" : 0,
     "name" : "scudo::Option::ReleaseInterval"
    },
    {
     "enum_field_value" : 1,
     "name" : "scudo::Option::MemtagTuning"
    },
    {
     "enum_field_value" : 2,
     "name" : "scudo::Option::ThreadDisableMemInit"
    },
    {
     "enum_field_value" : 3,
     "name" : "scudo::Option::MaxCacheEntriesCount"
    },
    {
     "enum_field_value" : 4,
     "name" : "scudo::Option::MaxCacheEntrySize"
    },
    {
     "enum_field_value" : 5,
     "name" : "scudo::Option::MaxTSDsCount"
    }
   ],
   "linker_set_key" : "_ZTIN5scudo6OptionE",
   "name" : "scudo::Option",
   "referenced_type" : "_ZTIN5scudo6OptionE",
   "self_type" : "_ZTIN5scudo6OptionE",
   "size" : 1,
   "source_file" : "external/scudo/standalone/common.h",
   "underlying_type" : "_ZTIh"
  }
 ],
 "function_types" : [],
 "functions" :
 [
  {
   "function_name" : "__bionic_memchr",
   "linker_set_key" : "_Z15__bionic_memchrPKvU17pass_object_size1ij",
   "parameters" :
   [
    {
     "referenced_type" : "_ZTIKPKv"
    },
    {
     "referenced_type" : "_ZTIi"
    },
    {
     "referenced_type" : "_ZTIj"
    }
   ],
   "return_type" : "_ZTIPv",
   "source_file" : "bionic/libc/include/string.h"
  },
  {
   "function_name" : "__bionic_strchr",
   "linker_set_key" : "_Z15__bionic_strchrPKcU17pass_object_size1i",
   "parameters" :
   [
    {
     "referenced_type" : "_ZTIKPKc"
    },
    {
     "referenced_type" : "_ZTIi"
    }
   ],
   "return_type" : "_ZTIPc",
   "source_file" : "bionic/libc/include/string.h"
  },
  {
   "function_name" : "__bionic_strstr",
   "linker_set_key" : "_Z15__bionic_strstrPKcS0_",
   "parameters" :
   [
    {
     "referenced_type" : "_ZTIPKc"
    },
    {
     "referenced_type" : "_ZTIPKc"
    }
   ],
   "return_type" : "_ZTIPc",
   "source_file" : "bionic/libc/include/string.h"
  },
  {
   "function_name" : "__bionic_strpbrk",
   "linker_set_key" : "_Z16__bionic_strpbrkPKcS0_",
   "parameters" :
   [
    {
     "referenced_type" : "_ZTIPKc"
    },
    {
     "referenced_type" : "_ZTIPKc"
    }
   ],
   "return_type" : "_ZTIPc",
   "source_file" : "bionic/libc/include/string.h"
  },
  {
   "function_name" : "__bionic_strrchr",
   "linker_set_key" : "_Z16__bionic_strrchrPKcU17pass_object_size1i",
   "parameters" :
   [
    {
     "referenced_type" : "_ZTIKPKc"
    },
    {
     "referenced_type" : "_ZTIi"
    }
   ],
   "return_type" : "_ZTIPc",
   "source_file" : "bionic/libc/include/string.h"
  },
  {
   "function_name" : "memchr",
   "linker_set_key" : "_Z6memchrUa9enable_ifIXLb1EEXLb1EEEPKvU17pass_object_size1ij",
   "parameters" :
   [
    {
     "referenced_type" : "_ZTIKPKv"
    },
    {
     "referenced_type" : "_ZTIi"
    },
    {
     "referenced_type" : "_ZTIj"
    }
   ],
   "return_type" : "_ZTIPKv",
   "source_file" : "bionic/libc/include/string.h"
  },
  {
   "function_name" : "memchr",
   "linker_set_key" : "_Z6memchrUa9enable_ifIXLb1EEXLb1EEEPvU17pass_object_size1ij",
   "parameters" :
   [
    {
     "referenced_type" : "_ZTIKPv"
    },
    {
     "referenced_type" : "_ZTIi"
    },
    {
     "referenced_type" : "_ZTIj"
    }
   ],
   "return_type" : "_ZTIPv",
   "source_file" : "bionic/libc/include/string.h"
  },
  {
   "function_name" : "strchr",
   "linker_set_key" : "_Z6strchrUa9enable_ifIXLb1EEXLb1EEEPKcU17pass_object_size1i",
   "parameters" :
   [
    {
     "referenced_type" : "_ZTIKPKc"
    },
    {
     "referenced_type" : "_ZTIi"
    }
   ],
   "return_type" : "_ZTIPKc",
   "source_file" : "bionic/libc/include/string.h"
  },
  {
   "function_name" : "strchr",
   "linker_set_key" : "_Z6strchrUa9enable_ifIXLb1EEXLb1EEEPcU17pass_object_size1i",
   "parameters" :
   [
    {
     "referenced_type" : "_ZTIKPc"
    },
    {
     "referenced_type" : "_ZTIi"
    }
   ],
   "return_type" : "_ZTIPc",
   "source_file" : "bionic/libc/include/string.h"
  },
  {
   "function_name" : "strstr",
   "linker_set_key" : "_Z6strstrUa9enable_ifIXLb1EEXLb1EEEPKcS0_",
   "parameters" :
   [
    {
     "referenced_type" : "_ZTIPKc"
    },
    {
     "referenced_type" : "_ZTIPKc"
    }
   ],
   "return_type" : "_ZTIPKc",
   "source_file" : "bionic/libc/include/string.h"
  },
  {
   "function_name" : "strstr",
   "linker_set_key" : "_Z6strstrUa9enable_ifIXLb1EEXLb1EEEPcPKc",
   "parameters" :
   [
    {
     "referenced_type" : "_ZTIPc"
    },
    {
     "referenced_type" : "_ZTIPKc"
    }
   ],
   "return_type" : "_ZTIPc",
   "source_file" : "bionic/libc/include/string.h"
  },
  {
   "function_name" : "strpbrk",
   "linker_set_key" : "_Z7strpbrkUa9enable_ifIXLb1EEXLb1EEEPKcS0_",
   "parameters" :
   [
    {
     "referenced_type" : "_ZTIPKc"
    },
    {
     "referenced_type" : "_ZTIPKc"
    }
   ],
   "return_type" : "_ZTIPKc",
   "source_file" : "bionic/libc/include/string.h"
  },
  {
   "function_name" : "strpbrk",
   "linker_set_key" : "_Z7strpbrkUa9enable_ifIXLb1EEXLb1EEEPcPKc",
   "parameters" :
   [
    {
     "referenced_type" : "_ZTIPc"
    },
    {
     "referenced_type" : "_ZTIPKc"
    }
   ],
   "return_type" : "_ZTIPc",
   "source_file" : "bionic/libc/include/string.h"
  },
  {
   "function_name" : "strrchr",
   "linker_set_key" : "_Z7strrchrUa9enable_ifIXLb1EEXLb1EEEPKcU17pass_object_size1i",
   "parameters" :
   [
    {
     "referenced_type" : "_ZTIKPKc"
    },
    {
     "referenced_type" : "_ZTIi"
    }
   ],
   "return_type" : "_ZTIPKc",
   "source_file" : "bionic/libc/include/string.h"
  },
  {
   "function_name" : "strrchr",
   "linker_set_key" : "_Z7strrchrUa9enable_ifIXLb1EEXLb1EEEPcU17pass_object_size1i",
   "parameters" :
   [
    {
     "referenced_type" : "_ZTIKPc"
    },
    {
     "referenced_type" : "_ZTIi"
    }
   ],
   "return_type" : "_ZTIPc",
   "source_file" : "bionic/libc/include/string.h"
  },
  {
   "function_name" : "scudo::reportError",
   "linker_set_key" : "_ZN5scudo11reportErrorEPKc",
   "parameters" :
   [
    {
     "referenced_type" : "_ZTIPKc"
    }
   ],
   "return_type" : "_ZTIv",
   "source_file" : "external/scudo/standalone/report.h"
  },
  {
   "function_name" : "scudo::roundDownTo",
   "linker_set_key" : "_ZN5scudo11roundDownToEmm",
   "parameters" :
   [
    {
     "referenced_type" : "_ZTIm"
    },
    {
     "referenced_type" : "_ZTIm"
    }
   ],
   "return_type" : "_ZTIm",
   "source_file" : "external/scudo/standalone/common.h"
  },
  {
   "function_name" : "scudo::ScopedString::data",
   "linker_set_key" : "_ZN5scudo12ScopedString4dataEv",
   "parameters" :
   [
    {
     "is_this_ptr" : true,
     "referenced_type" : "_ZTIPN5scudo12ScopedStringE"
    }
   ],
   "return_type" : "_ZTIPKc",
   "source_file" : "external/scudo/standalone/string_utils.h"
  },
  {
   "function_name" : "scudo::ScopedString::clear",
   "linker_set_key" : "_ZN5scudo12ScopedString5clearEv",
   "parameters" :
   [
    {
     "is_this_ptr" : true,
     "referenced_type" : "_ZTIPN5scudo12ScopedStringE"
    }
   ],
   "return_type" : "_ZTIv",
   "source_file" : "external/scudo/standalone/string_utils.h"
  },
  {
   "function_name" : "scudo::ScopedString::length",
   "linker_set_key" : "_ZN5scudo12ScopedString6lengthEv",
   "parameters" :
   [
    {
     "is_this_ptr" : true,
     "referenced_type" : "_ZTIPN5scudo12ScopedStringE"
    }
   ],
   "return_type" : "_ZTIm",
   "source_file" : "external/scudo/standalone/string_utils.h"
  },
  {
   "function_name" : "scudo::ScopedString::ScopedString",
   "linker_set_key" : "_ZN5scudo12ScopedStringC1Em",
   "parameters" :
   [
    {
     "is_this_ptr" : true,
     "referenced_type" : "_ZTIPN5scudo12ScopedStringE"
    },
    {
     "referenced_type" : "_ZTIm"
    }
   ],
   "return_type" : "_ZTIv",
   "source_file" : "external/scudo/standalone/string_utils.h"
  },
  {
   "function_name" : "scudo::ScopedString::ScopedString",
   "linker_set_key" : "_ZN5scudo12ScopedStringC2Em",
   "parameters" :
   [
    {
     "is_this_ptr" : true,
     "referenced_type" : "_ZTIPN5scudo12ScopedStringE"
    },
    {
     "referenced_type" : "_ZTIm"
    }
   ],
   "return_type" : "_ZTIv",
   "source_file" : "external/scudo/standalone/string_utils.h"
  },
  {
   "access" : "private",
   "function_name" : "scudo::VectorNoCtor<char>::reallocate",
   "linker_set_key" : "_ZN5scudo12VectorNoCtorIcE10reallocateEm",
   "parameters" :
   [
    {
     "is_this_ptr" : true,
     "referenced_type" : "_ZTIPN5scudo12VectorNoCtorIcEE"
    },
    {
     "referenced_type" : "_ZTIm"
    }
   ],
   "return_type" : "_ZTIv",
   "source_file" : "external/scudo/standalone/vector.h"
  },
  {
   "function_name" : "scudo::VectorNoCtor<char>::data",
   "linker_set_key" : "_ZN5scudo12VectorNoCtorIcE4dataEv",
   "parameters" :
   [
    {
     "is_this_ptr" : true,
     "referenced_type" : "_ZTIPN5scudo12VectorNoCtorIcEE"
    }
   ],
   "return_type" : "_ZTIPc",
   "source_file" : "external/scudo/standalone/vector.h"
  },
  {
   "function_name" : "scudo::VectorNoCtor<char>::init",
   "linker_set_key" : "_ZN5scudo12VectorNoCtorIcE4initEm",
   "parameters" :
   [
    {
     "is_this_ptr" : true,
     "referenced_type" : "_ZTIPN5scudo12VectorNoCtorIcEE"
    },
    {
     "referenced_type" : "_ZTIm"
    }
   ],
   "return_type" : "_ZTIv",
   "source_file" : "external/scudo/standalone/vector.h"
  },
  {
   "function_name" : "scudo::VectorNoCtor<char>::resize",
   "linker_set_key" : "_ZN5scudo12VectorNoCtorIcE6resizeEm",
   "parameters" :
   [
    {
     "is_this_ptr" : true,
     "referenced_type" : "_ZTIPN5scudo12VectorNoCtorIcEE"
    },
    {
     "referenced_type" : "_ZTIm"
    }
   ],
   "return_type" : "_ZTIv",
   "source_file" : "external/scudo/standalone/vector.h"
  },
  {
   "function_name" : "scudo::VectorNoCtor<char>::destroy",
   "linker_set_key" : "_ZN5scudo12VectorNoCtorIcE7destroyEv",
   "parameters" :
   [
    {
     "is_this_ptr" : true,
     "referenced_type" : "_ZTIPN5scudo12VectorNoCtorIcEE"
    }
   ],
   "return_type" : "_ZTIv",
   "source_file" : "external/scudo/standalone/vector.h"
  },
  {
   "function_name" : "scudo::VectorNoCtor<char>::reserve",
   "linker_set_key" : "_ZN5scudo12VectorNoCtorIcE7reserveEm",
   "parameters" :
   [
    {
     "is_this_ptr" : true,
     "referenced_type" : "_ZTIPN5scudo12VectorNoCtorIcEE"
    },
    {
     "referenced_type" : "_ZTIm"
    }
   ],
   "return_type" : "_ZTIv",
   "source_file" : "external/scudo/standalone/vector.h"
  },
  {
   "function_name" : "scudo::VectorNoCtor<char>::operator[]",
   "linker_set_key" : "_ZN5scudo12VectorNoCtorIcEixEm",
   "parameters" :
   [
    {
     "is_this_ptr" : true,
     "referenced_type" : "_ZTIPN5scudo12VectorNoCtorIcEE"
    },
    {
     "referenced_type" : "_ZTIm"
    }
   ],
   "return_type" : "_ZTIRc",
   "source_file" : "external/scudo/standalone/vector.h"
  },
  {
   "function_name" : "scudo::getRandomU32",
   "linker_set_key" : "_ZN5scudo12getRandomU32EPj",
   "parameters" :
   [
    {
     "referenced_type" : "_ZTIPj"
    }
   ],
   "return_type" : "_ZTIj",
   "source_file" : "external/scudo/standalone/common.h"
  },
  {
   "function_name" : "scudo::isPowerOfTwo",
   "linker_set_key" : "_ZN5scudo12isPowerOfTwoEm",
   "parameters" :
   [
    {
     "referenced_type" : "_ZTIm"
    }
   ],
   "return_type" : "_ZTIb",
   "source_file" : "external/scudo/standalone/common.h"
  },
  {
   "function_name" : "scudo::getRandomModN",
   "linker_set_key" : "_ZN5scudo13getRandomModNEPjj",
   "parameters" :
   [
    {
     "referenced_type" : "_ZTIPj"
    },
    {
     "referenced_type" : "_ZTIj"
    }
   ],
   "return_type" : "_ZTIj",
   "source_file" : "external/scudo/standalone/common.h"
  },
  {
   "function_name" : "scudo::yieldProcessor",
   "linker_set_key" : "_ZN5scudo14yieldProcessorEh",
   "parameters" :
   [
    {
     "referenced_type" : "_ZTIh"
    }
   ],
   "return_type" : "_ZTIv",
   "source_file" : "external/scudo/standalone/common.h"
  },
  {
   "function_name" : "scudo::atomic_fetch_add",
   "linker_set_key" : "_ZN5scudo16atomic_fetch_addINS_10atomic_u32EEENT_4TypeEPVS2_S3_NS_12memory_orderE",
   "parameters" :
   [
    {
     "referenced_type" : "_ZTIPVN5scudo10atomic_u32E"
    },
    {
     "referenced_type" : "_ZTIj"
    },
    {
     "referenced_type" : "_ZTIN5scudo12memory_orderE"
    }
   ],
   "return_type" : "_ZTIj",
   "source_file" : "external/scudo/standalone/atomic_helpers.h",
   "template_args" : [ "_ZTIN5scudo10atomic_u32E" ]
  },
  {
   "function_name" : "scudo::reportHeaderRace",
   "linker_set_key" : "_ZN5scudo16reportHeaderRaceEPv",
   "parameters" :
   [
    {
     "referenced_type" : "_ZTIPv"
    }
   ],
   "return_type" : "_ZTIv",
   "source_file" : "external/scudo/standalone/report.h"
  },
  {
   "function_name" : "scudo::ScopedErrorReport::append",
   "linker_set_key" : "_ZN5scudo17ScopedErrorReport6appendEPKcz",
   "parameters" :
   [
    {
     "is_this_ptr" : true,
     "referenced_type" : "_ZTIPN5scudo17ScopedErrorReportE"
    },
    {
     "referenced_type" : "_ZTIPKc"
    }
   ],
   "return_type" : "_ZTIv",
   "source_file" : "external/scudo/standalone/report.cpp"
  },
  {
   "function_name" : "scudo::ScopedErrorReport::ScopedErrorReport",
   "linker_set_key" : "_ZN5scudo17ScopedErrorReportC1Ev",
   "parameters" :
   [
    {
     "is_this_ptr" : true,
     "referenced_type" : "_ZTIPN5scudo17ScopedErrorReportE"
    }
   ],
   "return_type" : "_ZTIv",
   "source_file" : "external/scudo/standalone/report.cpp"
  },
  {
   "function_name" : "scudo::ScopedErrorReport::ScopedErrorReport",
   "linker_set_key" : "_ZN5scudo17ScopedErrorReportC2Ev",
   "parameters" :
   [
    {
     "is_this_ptr" : true,
     "referenced_type" : "_ZTIPN5scudo17ScopedErrorReportE"
    }
   ],
   "return_type" : "_ZTIv",
   "source_file" : "external/scudo/standalone/report.cpp"
  },
  {
   "function_name" : "scudo::ScopedErrorReport::~ScopedErrorReport",
   "linker_set_key" : "_ZN5scudo17ScopedErrorReportD1Ev",
   "parameters" :
   [
    {
     "is_this_ptr" : true,
     "referenced_type" : "_ZTIPN5scudo17ScopedErrorReportE"
    }
   ],
   "return_type" : "_ZTIv",
   "source_file" : "external/scudo/standalone/report.cpp"
  },
  {
   "function_name" : "scudo::ScopedErrorReport::~ScopedErrorReport",
   "linker_set_key" : "_ZN5scudo17ScopedErrorReportD2Ev",
   "parameters" :
   [
    {
     "is_this_ptr" : true,
     "referenced_type" : "_ZTIPN5scudo17ScopedErrorReportE"
    }
   ],
   "return_type" : "_ZTIv",
   "source_file" : "external/scudo/standalone/report.cpp"
  },
  {
   "function_name" : "scudo::getPageSizeCached",
   "linker_set_key" : "_ZN5scudo17getPageSizeCachedEv",
   "return_type" : "_ZTIm",
   "source_file" : "external/scudo/standalone/common.h"
  },
  {
   "function_name" : "scudo::reportCheckFailed",
   "linker_set_key" : "_ZN5scudo17reportCheckFailedEPKciS1_yy",
   "parameters" :
   [
    {
     "referenced_type" : "_ZTIPKc"
    },
    {
     "referenced_type" : "_ZTIi"
    },
    {
     "referenced_type" : "_ZTIPKc"
    },
    {
     "referenced_type" : "_ZTIy"
    },
    {
     "referenced_type" : "_ZTIy"
    }
   ],
   "return_type" : "_ZTIv",
   "source_file" : "external/scudo/standalone/internal_defs.h"
  },
  {
   "function_name" : "scudo::reportInvalidFlag",
   "linker_set_key" : "_ZN5scudo17reportInvalidFlagEPKcS1_",
   "parameters" :
   [
    {
     "referenced_type" : "_ZTIPKc"
    },
    {
     "referenced_type" : "_ZTIPKc"
    }
   ],
   "return_type" : "_ZTIv",
   "source_file" : "external/scudo/standalone/report.h"
  },
  {
   "function_name" : "scudo::reportOutOfMemory",
   "linker_set_key" : "_ZN5scudo17reportOutOfMemoryEm",
   "parameters" :
   [
    {
     "referenced_type" : "_ZTIm"
    }
   ],
   "return_type" : "_ZTIv",
   "source_file" : "external/scudo/standalone/report.h"
  },
  {
   "function_name" : "scudo::atomic_thread_fence",
   "linker_set_key" : "_ZN5scudo19atomic_thread_fenceENS_12memory_orderE",
   "parameters" :
   [
    {
     "referenced_type" : "_ZTIN5scudo12memory_orderE"
    }
   ],
   "return_type" : "_ZTIv",
   "source_file" : "external/scudo/standalone/atomic_helpers.h"
  },
  {
   "function_name" : "scudo::roundUpToPowerOfTwo",
   "linker_set_key" : "_ZN5scudo19roundUpToPowerOfTwoEm",
   "parameters" :
   [
    {
     "referenced_type" : "_ZTIm"
    }
   ],
   "return_type" : "_ZTIm",
   "source_file" : "external/scudo/standalone/common.h"
  },
  {
   "function_name" : "scudo::reportCallocOverflow",
   "linker_set_key" : "_ZN5scudo20reportCallocOverflowEmm",
   "parameters" :
   [
    {
     "referenced_type" : "_ZTIm"
    },
    {
     "referenced_type" : "_ZTIm"
    }
   ],
   "return_type" : "_ZTIv",
   "source_file" : "external/scudo/standalone/report.h"
  },
  {
   "function_name" : "scudo::reportAlignmentTooBig",
   "linker_set_key" : "_ZN5scudo21reportAlignmentTooBigEmm",
   "parameters" :
   [
    {
     "referenced_type" : "_ZTIm"
    },
    {
     "referenced_type" : "_ZTIm"
    }
   ],
   "return_type" : "_ZTIv",
   "source_file" : "external/scudo/standalone/report.h"
  },
  {
   "function_name" : "scudo::reportPvallocOverflow",
   "linker_set_key" : "_ZN5scudo21reportPvallocOverflowEm",
   "parameters" :
   [
    {
     "referenced_type" : "_ZTIm"
    }
   ],
   "return_type" : "_ZTIv",
   "source_file" : "external/scudo/standalone/report.h"
  },
  {
   "function_name" : "scudo::reportHeaderCorruption",
   "linker_set_key" : "_ZN5scudo22reportHeaderCorruptionEPv",
   "parameters" :
   [
    {
     "referenced_type" : "_ZTIPv"
    }
   ],
   "return_type" : "_ZTIv",
   "source_file" : "external/scudo/standalone/report.h"
  },
  {
   "function_name" : "scudo::reportSanityCheckError",
   "linker_set_key" : "_ZN5scudo22reportSanityCheckErrorEPKc",
   "parameters" :
   [
    {
     "referenced_type" : "_ZTIPKc"
    }
   ],
   "return_type" : "_ZTIv",
   "source_file" : "external/scudo/standalone/report.h"
  },
  {
   "function_name" : "scudo::reportInvalidChunkState",
   "linker_set_key" : "_ZN5scudo23reportInvalidChunkStateENS_15AllocatorActionEPv",
   "parameters" :
   [
    {
     "referenced_type" : "_ZTIN5scudo15AllocatorActionE"
    },
    {
     "referenced_type" : "_ZTIPv"
    }
   ],
   "return_type" : "_ZTIv",
   "source_file" : "external/scudo/standalone/report.h"
  },
  {
   "function_name" : "scudo::reportMisalignedPointer",
   "linker_set_key" : "_ZN5scudo23reportMisalignedPointerENS_15AllocatorActionEPv",
   "parameters" :
   [
    {
     "referenced_type" : "_ZTIN5scudo15AllocatorActionE"
    },
    {
     "referenced_type" : "_ZTIPv"
    }
   ],
   "return_type" : "_ZTIv",
   "source_file" : "external/scudo/standalone/report.h"
  },
  {
   "function_name" : "scudo::reportDeleteSizeMismatch",
   "linker_set_key" : "_ZN5scudo24reportDeleteSizeMismatchEPvmm",
   "parameters" :
   [
    {
     "referenced_type" : "_ZTIPv"
    },
    {
     "referenced_type" : "_ZTIm"
    },
    {
     "referenced_type" : "_ZTIm"
    }
   ],
   "return_type" : "_ZTIv",
   "source_file" : "external/scudo/standalone/report.h"
  },
  {
   "function_name" : "scudo::reportDeallocTypeMismatch",
   "linker_set_key" : "_ZN5scudo25reportDeallocTypeMismatchENS_15AllocatorActionEPvhh",
   "parameters" :
   [
    {
     "referenced_type" : "_ZTIN5scudo15AllocatorActionE"
    },
    {
     "referenced_type" : "_ZTIPv"
    },
    {
     "referenced_type" : "_ZTIh"
    },
    {
     "referenced_type" : "_ZTIh"
    }
   ],
   "return_type" : "_ZTIv",
   "source_file" : "external/scudo/standalone/report.h"
  },
  {
   "function_name" : "scudo::reportAllocationSizeTooBig",
   "linker_set_key" : "_ZN5scudo26reportAllocationSizeTooBigEmmm",
   "parameters" :
   [
    {
     "referenced_type" : "_ZTIm"
    },
    {
     "referenced_type" : "_ZTIm"
    },
    {
     "referenced_type" : "_ZTIm"
    }
   ],
   "return_type" : "_ZTIv",
   "source_file" : "external/scudo/standalone/report.h"
  },
  {
   "function_name" : "scudo::reportAlignmentNotPowerOfTwo",
   "linker_set_key" : "_ZN5scudo28reportAlignmentNotPowerOfTwoEm",
   "parameters" :
   [
    {
     "referenced_type" : "_ZTIm"
    }
   ],
   "return_type" : "_ZTIv",
   "source_file" : "external/scudo/standalone/report.h"
  },
  {
   "function_name" : "scudo::getMostSignificantSetBitIndex",
   "linker_set_key" : "_ZN5scudo29getMostSignificantSetBitIndexEm",
   "parameters" :
   [
    {
     "referenced_type" : "_ZTIm"
    }
   ],
   "return_type" : "_ZTIm",
   "source_file" : "external/scudo/standalone/common.h"
  },
  {
   "function_name" : "scudo::getLeastSignificantSetBitIndex",
   "linker_set_key" : "_ZN5scudo30getLeastSignificantSetBitIndexEm",
   "parameters" :
   [
    {
     "referenced_type" : "_ZTIm"
    }
   ],
   "return_type" : "_ZTIm",
   "source_file" : "external/scudo/standalone/common.h"
  },
  {
   "function_name" : "scudo::reportInvalidAlignedAllocAlignment",
   "linker_set_key" : "_ZN5scudo34reportInvalidAlignedAllocAlignmentEmm",
   "parameters" :
   [
    {
     "referenced_type" : "_ZTIm"
    },
    {
     "referenced_type" : "_ZTIm"
    }
   ],
   "return_type" : "_ZTIv",
   "source_file" : "external/scudo/standalone/report.h"
  },
  {
   "function_name" : "scudo::reportInvalidPosixMemalignAlignment",
   "linker_set_key" : "_ZN5scudo35reportInvalidPosixMemalignAlignmentEm",
   "parameters" :
   [
    {
     "referenced_type" : "_ZTIm"
    }
   ],
   "return_type" : "_ZTIv",
   "source_file" : "external/scudo/standalone/report.h"
  },
  {
   "function_name" : "scudo::trap",
   "linker_set_key" : "_ZN5scudo4trapEv",
   "return_type" : "_ZTIv",
   "source_file" : "external/scudo/standalone/report.cpp"
  },
  {
   "function_name" : "scudo::Vector<char>::Vector",
   "linker_set_key" : "_ZN5scudo6VectorIcEC1Em",
   "parameters" :
   [
    {
     "is_this_ptr" : true,
     "referenced_type" : "_ZTIPN5scudo6VectorIcEE"
    },
    {
     "referenced_type" : "_ZTIm"
    }
   ],
   "return_type" : "_ZTIv",
   "source_file" : "external/scudo/standalone/vector.h"
  },
  {
   "function_name" : "scudo::Vector<char>::Vector",
   "linker_set_key" : "_ZN5scudo6VectorIcEC2Em",
   "parameters" :
   [
    {
     "is_this_ptr" : true,
     "referenced_type" : "_ZTIPN5scudo6VectorIcEE"
    },
    {
     "referenced_type" : "_ZTIm"
    }
   ],
   "return_type" : "_ZTIv",
   "source_file" : "external/scudo/standalone/vector.h"
  },
  {
   "function_name" : "scudo::Vector<char>::~Vector",
   "linker_set_key" : "_ZN5scudo6VectorIcED1Ev",
   "parameters" :
   [
    {
     "is_this_ptr" : true,
     "referenced_type" : "_ZTIPN5scudo6VectorIcEE"
    }
   ],
   "return_type" : "_ZTIv",
   "source_file" : "external/scudo/standalone/vector.h"
  },
  {
   "function_name" : "scudo::Vector<char>::~Vector",
   "linker_set_key" : "_ZN5scudo6VectorIcED2Ev",
   "parameters" :
   [
    {
     "is_this_ptr" : true,
     "referenced_type" : "_ZTIPN5scudo6VectorIcEE"
    }
   ],
   "return_type" : "_ZTIv",
   "source_file" : "external/scudo/standalone/vector.h"
  },
  {
   "function_name" : "scudo::getLog2",
   "linker_set_key" : "_ZN5scudo7getLog2Em",
   "parameters" :
   [
    {
     "referenced_type" : "_ZTIm"
    }
   ],
   "return_type" : "_ZTIm",
   "source_file" : "external/scudo/standalone/common.h"
  },
  {
   "function_name" : "scudo::isAligned",
   "linker_set_key" : "_ZN5scudo9isAlignedEmm",
   "parameters" :
   [
    {
     "referenced_type" : "_ZTIm"
    },
    {
     "referenced_type" : "_ZTIm"
    }
   ],
   "return_type" : "_ZTIb",
   "source_file" : "external/scudo/standalone/common.h"
  },
  {
   "function_name" : "scudo::roundUpTo",
   "linker_set_key" : "_ZN5scudo9roundUpToEmm",
   "parameters" :
   [
    {
     "referenced_type" : "_ZTIm"
    },
    {
     "referenced_type" : "_ZTIm"
    }
   ],
   "return_type" : "_ZTIm",
   "source_file" : "external/scudo/standalone/common.h"
  },
  {
   "function_name" : "scudo::ScopedString::output",
   "linker_set_key" : "_ZNK5scudo12ScopedString6outputEv",
   "parameters" :
   [
    {
     "is_this_ptr" : true,
     "referenced_type" : "_ZTIPKN5scudo12ScopedStringE"
    }
   ],
   "return_type" : "_ZTIv",
   "source_file" : "external/scudo/standalone/string_utils.h"
  },
  {
   "function_name" : "scudo::VectorNoCtor<char>::data",
   "linker_set_key" : "_ZNK5scudo12VectorNoCtorIcE4dataEv",
   "parameters" :
   [
    {
     "is_this_ptr" : true,
     "referenced_type" : "_ZTIPKN5scudo12VectorNoCtorIcEE"
    }
   ],
   "return_type" : "_ZTIPKc",
   "source_file" : "external/scudo/standalone/vector.h"
  },
  {
   "function_name" : "scudo::VectorNoCtor<char>::capacity",
   "linker_set_key" : "_ZNK5scudo12VectorNoCtorIcE8capacityEv",
   "parameters" :
   [
    {
     "is_this_ptr" : true,
     "referenced_type" : "_ZTIPKN5scudo12VectorNoCtorIcEE"
    }
   ],
   "return_type" : "_ZTIm",
   "source_file" : "external/scudo/standalone/vector.h"
  }
 ],
 "global_vars" :
 [
  {
   "linker_set_key" : "_ZN5scudo14PageSizeCachedE",
   "name" : "scudo::PageSizeCached",
   "referenced_type" : "_ZTIm",
   "source_file" : "external/scudo/standalone/common.h"
  },
  {
   "linker_set_key" : "_ZN5scudoL15MaxRandomLengthE",
   "name" : "scudo::MaxRandomLength",
   "referenced_type" : "_ZTIKm",
   "source_file" : "external/scudo/standalone/common.h"
  },
  {
   "linker_set_key" : "_ZN5scudoL15PatternFillByteE",
   "name" : "scudo::PatternFillByte",
   "referenced_type" : "_ZTIKh",
   "source_file" : "external/scudo/standalone/common.h"
  },
  {
   "linker_set_key" : "_ZZN5scudo17reportCheckFailedEPKciS1_yyE13NumberOfCalls",
   "name" : "NumberOfCalls",
   "referenced_type" : "_ZTIN5scudo10atomic_u32E",
   "source_file" : "external/scudo/standalone/report.cpp"
  }
 ],
 "lvalue_reference_types" :
 [
  {
   "alignment" : 4,
   "linker_set_key" : "_ZTIRc",
   "name" : "char &",
   "referenced_type" : "_ZTIc",
   "self_type" : "_ZTIRc",
   "size" : 4,
   "source_file" : "external/scudo/standalone/vector.h"
  }
 ],
 "pointer_types" :
 [
  {
   "alignment" : 4,
   "linker_set_key" : "_ZTIPKN5scudo12ScopedStringE",
   "name" : "const scudo::ScopedString *",
   "referenced_type" : "_ZTIKN5scudo12ScopedStringE",
   "self_type" : "_ZTIPKN5scudo12ScopedStringE",
   "size" : 4,
   "source_file" : "external/scudo/standalone/string_utils.h"
  },
  {
   "alignment" : 4,
   "linker_set_key" : "_ZTIPKN5scudo12VectorNoCtorIcEE",
   "name" : "const scudo::VectorNoCtor<char> *",
   "referenced_type" : "_ZTIKN5scudo12VectorNoCtorIcEE",
   "self_type" : "_ZTIPKN5scudo12VectorNoCtorIcEE",
   "size" : 4,
   "source_file" : "external/scudo/standalone/vector.h"
  },
  {
   "alignment" : 4,
   "linker_set_key" : "_ZTIPKc",
   "name" : "const char *",
   "referenced_type" : "_ZTIKc",
   "self_type" : "_ZTIPKc",
   "size" : 4,
   "source_file" : "external/scudo/standalone/internal_defs.h"
  },
  {
   "alignment" : 4,
   "linker_set_key" : "_ZTIPKv",
   "name" : "const void *",
   "referenced_type" : "_ZTIKv",
   "self_type" : "_ZTIPKv",
   "size" : 4,
   "source_file" : "bionic/libc/include/string.h"
  },
  {
   "alignment" : 4,
   "linker_set_key" : "_ZTIPN5scudo12ScopedStringE",
   "name" : "scudo::ScopedString *",
   "referenced_type" : "_ZTIN5scudo12ScopedStringE",
   "self_type" : "_ZTIPN5scudo12ScopedStringE",
   "size" : 4,
   "source_file" : "external/scudo/standalone/string_utils.h"
  },
  {
   "alignment" : 4,
   "linker_set_key" : "_ZTIPN5scudo12VectorNoCtorIcEE",
   "name" : "scudo::VectorNoCtor<char> *",
   "referenced_type" : "_ZTIN5scudo12VectorNoCtorIcEE",
   "self_type" : "_ZTIPN5scudo12VectorNoCtorIcEE",
   "size" : 4,
   "source_file" : "external/scudo/standalone/vector.h"
  },
  {
   "alignment" : 4,
   "linker_set_key" : "_ZTIPN5scudo17ScopedErrorReportE",
   "name" : "scudo::ScopedErrorReport *",
   "referenced_type" : "_ZTIN5scudo17ScopedErrorReportE",
   "self_type" : "_ZTIPN5scudo17ScopedErrorReportE",
   "size" : 4,
   "source_file" : "external/scudo/standalone/report.cpp"
  },
  {
   "alignment" : 4,
   "linker_set_key" : "_ZTIPN5scudo6VectorIcEE",
   "name" : "scudo::Vector<char> *",
   "referenced_type" : "_ZTIN5scudo6VectorIcEE",
   "self_type" : "_ZTIPN5scudo6VectorIcEE",
   "size" : 4,
   "source_file" : "external/scudo/standalone/vector.h"
  },
  {
   "alignment" : 4,
   "linker_set_key" : "_ZTIPVN5scudo10atomic_u32E",
   "name" : "volatile scudo::atomic_u32 *",
   "referenced_type" : "_ZTIVN5scudo10atomic_u32E",
   "self_type" : "_ZTIPVN5scudo10atomic_u32E",
   "size" : 4,
   "source_file" : "external/scudo/standalone/atomic_helpers.h"
  },
  {
   "alignment" : 4,
   "linker_set_key" : "_ZTIPc",
   "name" : "char *",
   "referenced_type" : "_ZTIc",
   "self_type" : "_ZTIPc",
   "size" : 4,
   "source_file" : "bionic/libc/include/string.h"
  },
  {
   "alignment" : 4,
   "linker_set_key" : "_ZTIPj",
   "name" : "unsigned int *",
   "referenced_type" : "_ZTIj",
   "self_type" : "_ZTIPj",
   "size" : 4,
   "source_file" : "external/scudo/standalone/common.h"
  },
  {
   "alignment" : 4,
   "linker_set_key" : "_ZTIPv",
   "name" : "void *",
   "referenced_type" : "_ZTIv",
   "self_type" : "_ZTIPv",
   "size" : 4,
   "source_file" : "external/scudo/standalone/report.h"
  }
 ],
 "qualified_types" :
 [
  {
   "alignment" : 4,
   "is_const" : true,
   "linker_set_key" : "_ZTIKN5scudo12ScopedStringE",
   "name" : "const scudo::ScopedString",
   "referenced_type" : "_ZTIN5scudo12ScopedStringE",
   "self_type" : "_ZTIKN5scudo12ScopedStringE",
   "size" : 16,
   "source_file" : "external/scudo/standalone/string_utils.h"
  },
  {
   "alignment" : 4,
   "is_const" : true,
   "linker_set_key" : "_ZTIKN5scudo12VectorNoCtorIcEE",
   "name" : "const scudo::VectorNoCtor<char>",
   "referenced_type" : "_ZTIN5scudo12VectorNoCtorIcEE",
   "self_type" : "_ZTIKN5scudo12VectorNoCtorIcEE",
   "size" : 12,
   "source_file" : "external/scudo/standalone/vector.h"
  },
  {
   "alignment" : 4,
   "is_const" : true,
   "linker_set_key" : "_ZTIKPKc",
   "name" : "const char *const",
   "referenced_type" : "_ZTIPKc",
   "self_type" : "_ZTIKPKc",
   "size" : 4,
   "source_file" : "bionic/libc/include/string.h"
  },
  {
   "alignment" : 4,
   "is_const" : true,
   "linker_set_key" : "_ZTIKPKv",
   "name" : "const void *const",
   "referenced_type" : "_ZTIPKv",
   "self_type" : "_ZTIKPKv",
   "size" : 4,
   "source_file" : "bionic/libc/include/string.h"
  },
  {
   "alignment" : 4,
   "is_const" : true,
   "linker_set_key" : "_ZTIKPc",
   "name" : "char *const",
   "referenced_type" : "_ZTIPc",
   "self_type" : "_ZTIKPc",
   "size" : 4,
   "source_file" : "bionic/libc/include/string.h"
  },
  {
   "alignment" : 4,
   "is_const" : true,
   "linker_set_key" : "_ZTIKPv",
   "name" : "void *const",
   "referenced_type" : "_ZTIPv",
   "self_type" : "_ZTIKPv",
   "size" : 4,
   "source_file" : "bionic/libc/include/string.h"
  },
  {
   "alignment" : 1,
   "is_const" : true,
   "linker_set_key" : "_ZTIKc",
   "name" : "const char",
   "referenced_type" : "_ZTIc",
   "self_type" : "_ZTIKc",
   "size" : 1,
   "source_file" : "external/scudo/standalone/internal_defs.h"
  },
  {
   "alignment" : 1,
   "is_const" : true,
   "linker_set_key" : "_ZTIKh",
   "name" : "const unsigned char",
   "referenced_type" : "_ZTIh",
   "self_type" : "_ZTIKh",
   "size" : 1,
   "source_file" : "external/scudo/standalone/common.h"
  },
  {
   "alignment" : 4,
   "is_const" : true,
   "linker_set_key" : "_ZTIKm",
   "name" : "const unsigned long",
   "referenced_type" : "_ZTIm",
   "self_type" : "_ZTIKm",
   "size" : 4,
   "source_file" : "external/scudo/standalone/common.h"
  },
  {
   "is_const" : true,
   "linker_set_key" : "_ZTIKv",
   "name" : "const void",
   "referenced_type" : "_ZTIv",
   "self_type" : "_ZTIKv",
   "source_file" : "bionic/libc/include/string.h"
  },
  {
   "alignment" : 4,
   "is_volatile" : true,
   "linker_set_key" : "_ZTIVN5scudo10atomic_u32E",
   "name" : "volatile scudo::atomic_u32",
   "referenced_type" : "_ZTIN5scudo10atomic_u32E",
   "self_type" : "_ZTIVN5scudo10atomic_u32E",
   "size" : 4,
   "source_file" : "external/scudo/standalone/atomic_helpers.h"
  },
  {
   "alignment" : 1,
   "is_volatile" : true,
   "linker_set_key" : "_ZTIVh",
   "name" : "volatile unsigned char",
   "referenced_type" : "_ZTIh",
   "self_type" : "_ZTIVh",
   "size" : 1,
   "source_file" : "external/scudo/standalone/atomic_helpers.h"
  },
  {
   "alignment" : 4,
   "is_volatile" : true,
   "linker_set_key" : "_ZTIVi",
   "name" : "volatile int",
   "referenced_type" : "_ZTIi",
   "self_type" : "_ZTIVi",
   "size" : 4,
   "source_file" : "external/scudo/standalone/atomic_helpers.h"
  },
  {
   "alignment" : 4,
   "is_volatile" : true,
   "linker_set_key" : "_ZTIVj",
   "name" : "volatile unsigned int",
   "referenced_type" : "_ZTIj",
   "self_type" : "_ZTIVj",
   "size" : 4,
   "source_file" : "external/scudo/standalone/atomic_helpers.h"
  },
  {
   "alignment" : 4,
   "is_volatile" : true,
   "linker_set_key" : "_ZTIVm",
   "name" : "volatile unsigned long",
   "referenced_type" : "_ZTIm",
   "self_type" : "_ZTIVm",
   "size" : 4,
   "source_file" : "external/scudo/standalone/atomic_helpers.h"
  },
  {
   "alignment" : 2,
   "is_volatile" : true,
   "linker_set_key" : "_ZTIVt",
   "name" : "volatile unsigned short",
   "referenced_type" : "_ZTIt",
   "self_type" : "_ZTIVt",
   "size" : 2,
   "source_file" : "external/scudo/standalone/atomic_helpers.h"
  },
  {
   "alignment" : 8,
   "is_volatile" : true,
   "linker_set_key" : "_ZTIVy",
   "name" : "volatile unsigned long long",
   "referenced_type" : "_ZTIy",
   "self_type" : "_ZTIVy",
   "size" : 8,
   "source_file" : "external/scudo/standalone/atomic_helpers.h"
  }
 ],
 "record_types" :
 [
  {
   "alignment" : 8,
   "fields" :
   [
    {
     "field_name" : "__clang_max_align_nonce1",
     "referenced_type" : "_ZTIx"
    },
    {
     "field_name" : "__clang_max_align_nonce2",
     "field_offset" : 64,
     "referenced_type" : "_ZTIe"
    }
   ],
   "linker_set_key" : "_ZTI11max_align_t",
   "name" : "max_align_t",
   "referenced_type" : "_ZTI11max_align_t",
   "self_type" : "_ZTI11max_align_t",
   "size" : 16,
   "source_file" : "prebuilts/clang-tools/linux-x86/clang-headers/__stddef_max_align_t.h"
  },
  {
   "alignment" : 4,
   "fields" :
   [
    {
     "field_name" : "flags",
     "referenced_type" : "_ZTIj"
    },
    {
     "field_name" : "stack_base",
     "field_offset" : 32,
     "referenced_type" : "_ZTIPv"
    },
    {
     "field_name" : "stack_size",
     "field_offset" : 64,
     "referenced_type" : "_ZTIj"
    },
    {
     "field_name" : "guard_size",
     "field_offset" : 96,
     "referenced_type" : "_ZTIj"
    },
    {
     "field_name" : "sched_policy",
     "field_offset" : 128,
     "referenced_type" : "_ZTIi"
    },
    {
     "field_name" : "sched_priority",
     "field_offset" : 160,
     "referenced_type" : "_ZTIi"
    }
   ],
   "linker_set_key" : "_ZTI14pthread_attr_t",
   "name" : "pthread_attr_t",
   "referenced_type" : "_ZTI14pthread_attr_t",
   "self_type" : "_ZTI14pthread_attr_t",
   "size" : 24,
   "source_file" : "bionic/libc/include/bits/pthread_types.h"
  },
  {
   "alignment" : 4,
   "fields" :
   [
    {
     "field_name" : "__private",
     "referenced_type" : "_ZTIA1_i"
    }
   ],
   "linker_set_key" : "_ZTI14pthread_cond_t",
   "name" : "pthread_cond_t",
   "referenced_type" : "_ZTI14pthread_cond_t",
   "self_type" : "_ZTI14pthread_cond_t",
   "size" : 4,
   "source_file" : "bionic/libc/include/bits/pthread_types.h"
  },
  {
   "alignment" : 4,
   "fields" :
   [
    {
     "field_name" : "fds_bits",
     "referenced_type" : "_ZTIA32_m"
    }
   ],
   "linker_set_key" : "_ZTI15__kernel_fd_set",
   "name" : "__kernel_fd_set",
   "referenced_type" : "_ZTI15__kernel_fd_set",
   "self_type" : "_ZTI15__kernel_fd_set",
   "size" : 128,
   "source_file" : "bionic/libc/kernel/uapi/linux/posix_types.h"
  },
  {
   "alignment" : 4,
   "fields" :
   [
    {
     "field_name" : "val",
     "referenced_type" : "_ZTIA2_i"
    }
   ],
   "linker_set_key" : "_ZTI15__kernel_fsid_t",
   "name" : "__kernel_fsid_t",
   "referenced_type" : "_ZTI15__kernel_fsid_t",
   "self_type" : "_ZTI15__kernel_fsid_t",
   "size" : 8,
   "source_file" : "bionic/libc/kernel/uapi/asm-generic/posix_types.h"
  },
  {
   "alignment" : 4,
   "fields" :
   [
    {
     "field_name" : "__private",
     "referenced_type" : "_ZTIA1_i"
    }
   ],
   "linker_set_key" : "_ZTI15pthread_mutex_t",
   "name" : "pthread_mutex_t",
   "referenced_type" : "_ZTI15pthread_mutex_t",
   "self_type" : "_ZTI15pthread_mutex_t",
   "size" : 4,
   "source_file" : "bionic/libc/include/bits/pthread_types.h"
  },
  {
   "alignment" : 4,
   "fields" :
   [
    {
     "field_name" : "__private",
     "referenced_type" : "_ZTIA10_i"
    }
   ],
   "linker_set_key" : "_ZTI16pthread_rwlock_t",
   "name" : "pthread_rwlock_t",
   "referenced_type" : "_ZTI16pthread_rwlock_t",
   "self_type" : "_ZTI16pthread_rwlock_t",
   "size" : 40,
   "source_file" : "bionic/libc/include/bits/pthread_types.h"
  },
  {
   "alignment" : 4,
   "fields" :
   [
    {
     "field_name" : "__private",
     "referenced_type" : "_ZTIA8_i"
    }
   ],
   "linker_set_key" : "_ZTI17pthread_barrier_t",
   "name" : "pthread_barrier_t",
   "referenced_type" : "_ZTI17pthread_barrier_t",
   "self_type" : "_ZTI17pthread_barrier_t",
   "size" : 32,
   "source_file" : "bionic/libc/include/bits/pthread_types.h"
  },
  {
   "alignment" : 4,
   "fields" :
   [
    {
     "field_name" : "__private",
     "referenced_type" : "_ZTIA2_i"
    }
   ],
   "linker_set_key" : "_ZTI18pthread_spinlock_t",
   "name" : "pthread_spinlock_t",
   "referenced_type" : "_ZTI18pthread_spinlock_t",
   "self_type" : "_ZTI18pthread_spinlock_t",
   "size" : 8,
   "source_file" : "bionic/libc/include/bits/pthread_types.h"
  },
  {
   "alignment" : 4,
   "fields" :
   [
    {
     "field_name" : "ValDoNotUse",
     "referenced_type" : "_ZTIVi"
    }
   ],
   "linker_set_key" : "_ZTIN5scudo10atomic_s32E",
   "name" : "scudo::atomic_s32",
   "referenced_type" : "_ZTIN5scudo10atomic_s32E",
   "self_type" : "_ZTIN5scudo10atomic_s32E",
   "size" : 4,
   "source_file" : "external/scudo/standalone/atomic_helpers.h"
  },
  {
   "alignment" : 2,
   "fields" :
   [
    {
     "field_name" : "ValDoNotUse",
     "referenced_type" : "_ZTIVt"
    }
   ],
   "linker_set_key" : "_ZTIN5scudo10atomic_u16E",
   "name" : "scudo::atomic_u16",
   "referenced_type" : "_ZTIN5scudo10atomic_u16E",
   "self_type" : "_ZTIN5scudo10atomic_u16E",
   "size" : 2,
   "source_file" : "external/scudo/standalone/atomic_helpers.h"
  },
  {
   "alignment" : 4,
   "fields" :
   [
    {
     "field_name" : "ValDoNotUse",
     "referenced_type" : "_ZTIVj"
    }
   ],
   "linker_set_key" : "_ZTIN5scudo10atomic_u32E",
   "name" : "scudo::atomic_u32",
   "referenced_type" : "_ZTIN5scudo10atomic_u32E",
   "self_type" : "_ZTIN5scudo10atomic_u32E",
   "size" : 4,
   "source_file" : "external/scudo/standalone/atomic_helpers.h"
  },
  {
   "alignment" : 8,
   "fields" :
   [
    {
     "field_name" : "ValDoNotUse",
     "referenced_type" : "_ZTIVy"
    }
   ],
   "linker_set_key" : "_ZTIN5scudo10atomic_u64E",
   "name" : "scudo::atomic_u64",
   "referenced_type" : "_ZTIN5scudo10atomic_u64E",
   "self_type" : "_ZTIN5scudo10atomic_u64E",
   "size" : 8,
   "source_file" : "external/scudo/standalone/atomic_helpers.h"
  },
  {
   "alignment" : 4,
   "fields" :
   [
    {
     "field_name" : "ValDoNotUse",
     "referenced_type" : "_ZTIVm"
    }
   ],
   "linker_set_key" : "_ZTIN5scudo11atomic_uptrE",
   "name" : "scudo::atomic_uptr",
   "referenced_type" : "_ZTIN5scudo11atomic_uptrE",
   "self_type" : "_ZTIN5scudo11atomic_uptrE",
   "size" : 4,
   "source_file" : "external/scudo/standalone/atomic_helpers.h"
  },
  {
   "alignment" : 4,
   "fields" :
   [
    {
     "access" : "private",
     "field_name" : "String",
     "referenced_type" : "_ZTIN5scudo6VectorIcEE"
    },
    {
     "access" : "private",
     "field_name" : "Length",
     "field_offset" : 96,
     "referenced_type" : "_ZTIm"
    }
   ],
   "linker_set_key" : "_ZTIN5scudo12ScopedStringE",
   "name" : "scudo::ScopedString",
   "record_kind" : "class",
   "referenced_type" : "_ZTIN5scudo12ScopedStringE",
   "self_type" : "_ZTIN5scudo12ScopedStringE",
   "size" : 16,
   "source_file" : "external/scudo/standalone/string_utils.h"
  },
  {
   "alignment" : 4,
   "fields" :
   [
    {
     "access" : "private",
     "field_name" : "Data",
     "referenced_type" : "_ZTIPc"
    },
    {
     "access" : "private",
     "field_name" : "CapacityBytes",
     "field_offset" : 32,
     "referenced_type" : "_ZTIm"
    },
    {
     "access" : "private",
     "field_name" : "Size",
     "field_offset" : 64,
     "referenced_type" : "_ZTIm"
    }
   ],
   "linker_set_key" : "_ZTIN5scudo12VectorNoCtorIcEE",
   "name" : "scudo::VectorNoCtor<char>",
   "record_kind" : "class",
   "referenced_type" : "_ZTIN5scudo12VectorNoCtorIcEE",
   "self_type" : "_ZTIN5scudo12VectorNoCtorIcEE",
   "size" : 12,
   "source_file" : "external/scudo/standalone/vector.h",
   "template_args" : [ "_ZTIc" ]
  },
  {
   "alignment" : 1,
   "linker_set_key" : "_ZTIN5scudo15MapPlatformDataE",
   "name" : "scudo::MapPlatformData",
   "referenced_type" : "_ZTIN5scudo15MapPlatformDataE",
   "self_type" : "_ZTIN5scudo15MapPlatformDataE",
   "size" : 1,
   "source_file" : "external/scudo/standalone/linux.h"
  },
  {
   "alignment" : 4,
   "fields" :
   [
    {
     "access" : "private",
     "field_name" : "Message",
     "referenced_type" : "_ZTIN5scudo12ScopedStringE"
    }
   ],
   "linker_set_key" : "_ZTIN5scudo17ScopedErrorReportE",
   "name" : "scudo::ScopedErrorReport",
   "record_kind" : "class",
   "referenced_type" : "_ZTIN5scudo17ScopedErrorReportE",
   "self_type" : "_ZTIN5scudo17ScopedErrorReportE",
   "size" : 16,
   "source_file" : "external/scudo/standalone/report.cpp"
  },
  {
   "alignment" : 4,
   "base_specifiers" :
   [
    {
     "referenced_type" : "_ZTIN5scudo12VectorNoCtorIcEE"
    }
   ],
   "linker_set_key" : "_ZTIN5scudo6VectorIcEE",
   "name" : "scudo::Vector<char>",
   "record_kind" : "class",
   "referenced_type" : "_ZTIN5scudo6VectorIcEE",
   "self_type" : "_ZTIN5scudo6VectorIcEE",
   "size" : 12,
   "source_file" : "external/scudo/standalone/vector.h",
   "template_args" : [ "_ZTIc" ]
  },
  {
   "alignment" : 4,
   "fields" :
   [
    {
     "field_name" : "BlockBegin",
     "referenced_type" : "_ZTIm"
    },
    {
     "field_name" : "BlockSize",
     "field_offset" : 32,
     "referenced_type" : "_ZTIm"
    },
    {
     "field_name" : "RegionBegin",
     "field_offset" : 64,
     "referenced_type" : "_ZTIm"
    },
    {
     "field_name" : "RegionEnd",
     "field_offset" : 96,
     "referenced_type" : "_ZTIm"
    }
   ],
   "linker_set_key" : "_ZTIN5scudo9BlockInfoE",
   "name" : "scudo::BlockInfo",
   "referenced_type" : "_ZTIN5scudo9BlockInfoE",
   "self_type" : "_ZTIN5scudo9BlockInfoE",
   "size" : 16,
   "source_file" : "external/scudo/standalone/common.h"
  },
  {
   "alignment" : 1,
   "fields" :
   [
    {
     "field_name" : "ValDoNotUse",
     "referenced_type" : "_ZTIVh"
    }
   ],
   "linker_set_key" : "_ZTIN5scudo9atomic_u8E",
   "name" : "scudo::atomic_u8",
   "referenced_type" : "_ZTIN5scudo9atomic_u8E",
   "self_type" : "_ZTIN5scudo9atomic_u8E",
   "size" : 1,
   "source_file" : "external/scudo/standalone/atomic_helpers.h"
  }
 ],
 "rvalue_reference_types" : []
}
