{
 "array_types" :
 [
  {
   "alignment" : 4,
   "linker_set_key" : "_ZTIA1019_Pv",
   "name" : "void *[1019]",
   "referenced_type" : "_ZTIPv",
   "self_type" : "_ZTIA1019_Pv",
   "size" : 4076,
   "source_file" : "external/scudo/standalone/quarantine.h"
  },
  {
   "alignment" : 4,
   "linker_set_key" : "_ZTIA10_i",
   "name" : "int [10]",
   "referenced_type" : "_ZTIi",
   "self_type" : "_ZTIA10_i",
   "size" : 40,
   "source_file" : "bionic/libc/include/bits/pthread_types.h"
  },
  {
   "alignment" : 1,
   "linker_set_key" : "_ZTIA1152_h",
   "name" : "unsigned char [1152]",
   "referenced_type" : "_ZTIh",
   "self_type" : "_ZTIA1152_h",
   "size" : 1152,
   "source_file" : "external/scudo/standalone/size_class_map.h"
  },
  {
   "alignment" : 1,
   "linker_set_key" : "_ZTIA120_c",
   "name" : "char [120]",
   "referenced_type" : "_ZTIc",
   "self_type" : "_ZTIA120_c",
   "size" : 120,
   "source_file" : "bionic/libc/include/sys/ucontext.h"
  },
  {
   "alignment" : 4,
   "linker_set_key" : "_ZTIA128_m",
   "name" : "unsigned long [128]",
   "referenced_type" : "_ZTIm",
   "self_type" : "_ZTIA128_m",
   "size" : 512,
   "source_file" : "bionic/libc/include/sys/ucontext.h"
  },
  {
   "alignment" : 4,
   "linker_set_key" : "_ZTIA13_i",
   "name" : "int [13]",
   "referenced_type" : "_ZTIi",
   "self_type" : "_ZTIA13_i",
   "size" : 52,
   "source_file" : "bionic/libc/kernel/uapi/asm-generic/siginfo.h"
  },
  {
   "alignment" : 4,
   "linker_set_key" : "_ZTIA14_m",
   "name" : "unsigned long [14]",
   "referenced_type" : "_ZTIm",
   "self_type" : "_ZTIA14_m",
   "size" : 56,
   "source_file" : "external/scudo/standalone/local_cache.h"
  },
  {
   "alignment" : 1,
   "linker_set_key" : "_ZTIA16384_h",
   "name" : "unsigned char [16384]",
   "referenced_type" : "_ZTIh",
   "self_type" : "_ZTIA16384_h",
   "size" : 16384,
   "source_file" : "external/scudo/standalone/bytemap.h"
  },
  {
   "alignment" : 8,
   "linker_set_key" : "_ZTIA16_N5scudo17MapAllocatorCacheINS_19AndroidSvelteConfigEE11CachedBlockE",
   "name" : "scudo::MapAllocatorCache<scudo::AndroidSvelteConfig>::CachedBlock [16]",
   "referenced_type" : "_ZTIN5scudo17MapAllocatorCacheINS_19AndroidSvelteConfigEE11CachedBlockE",
   "self_type" : "_ZTIA16_N5scudo17MapAllocatorCacheINS_19AndroidSvelteConfigEE11CachedBlockE",
   "size" : 512,
   "source_file" : "external/scudo/standalone/secondary.h"
  },
  {
   "alignment" : 4,
   "linker_set_key" : "_ZTIA18_m",
   "name" : "unsigned long [18]",
   "referenced_type" : "_ZTIm",
   "self_type" : "_ZTIA18_m",
   "size" : 72,
   "source_file" : "bionic/libc/include/sys/user.h"
  },
  {
   "alignment" : 4,
   "linker_set_key" : "_ZTIA1_i",
   "name" : "int [1]",
   "referenced_type" : "_ZTIi",
   "self_type" : "_ZTIA1_i",
   "size" : 4,
   "source_file" : "bionic/libc/include/bits/pthread_types.h"
  },
  {
   "alignment" : 4,
   "linker_set_key" : "_ZTIA1_m",
   "name" : "unsigned long [1]",
   "referenced_type" : "_ZTIm",
   "self_type" : "_ZTIA1_m",
   "size" : 4,
   "source_file" : "bionic/libc/include/sched.h"
  },
  {
   "alignment" : 4,
   "linker_set_key" : "_ZTIA2048_m",
   "name" : "unsigned long [2048]",
   "referenced_type" : "_ZTIm",
   "self_type" : "_ZTIA2048_m",
   "size" : 8192,
   "source_file" : "external/scudo/standalone/release.h"
  },
  {
   "alignment" : 4,
   "linker_set_key" : "_ZTIA20_N5scudo10FlagParser4FlagE",
   "name" : "scudo::FlagParser::Flag [20]",
   "referenced_type" : "_ZTIN5scudo10FlagParser4FlagE",
   "self_type" : "_ZTIA20_N5scudo10FlagParser4FlagE",
   "size" : 320,
   "source_file" : "external/scudo/standalone/flags_parser.h"
  },
  {
   "alignment" : 8,
   "linker_set_key" : "_ZTIA256_N5scudo17MapAllocatorCacheINS_13AndroidConfigEE11CachedBlockE",
   "name" : "scudo::MapAllocatorCache<scudo::AndroidConfig>::CachedBlock [256]",
   "referenced_type" : "_ZTIN5scudo17MapAllocatorCacheINS_13AndroidConfigEE11CachedBlockE",
   "self_type" : "_ZTIA256_N5scudo17MapAllocatorCacheINS_13AndroidConfigEE11CachedBlockE",
   "size" : 8192,
   "source_file" : "external/scudo/standalone/secondary.h"
  },
  {
   "alignment" : 4,
   "linker_set_key" : "_ZTIA28_m",
   "name" : "unsigned long [28]",
   "referenced_type" : "_ZTIm",
   "self_type" : "_ZTIA28_m",
   "size" : 112,
   "source_file" : "external/scudo/standalone/local_cache.h"
  },
  {
   "alignment" : 64,
   "linker_set_key" : "_ZTIA2_N5scudo3TSDINS_9AllocatorINS_19AndroidSvelteConfigEXadL_Z28scudo_svelte_malloc_postinitEEEEEE",
   "name" : "scudo::TSD<scudo::Allocator<scudo::AndroidSvelteConfig, &scudo_svelte_malloc_postinit>> [2]",
   "referenced_type" : "_ZTIN5scudo3TSDINS_9AllocatorINS_19AndroidSvelteConfigEXadL_Z28scudo_svelte_malloc_postinitEEEEEE",
   "self_type" : "_ZTIA2_N5scudo3TSDINS_9AllocatorINS_19AndroidSvelteConfigEXadL_Z28scudo_svelte_malloc_postinitEEEEEE",
   "size" : 18304,
   "source_file" : "external/scudo/standalone/tsd_shared.h"
  },
  {
   "alignment" : 4,
   "linker_set_key" : "_ZTIA2_i",
   "name" : "int [2]",
   "referenced_type" : "_ZTIi",
   "self_type" : "_ZTIA2_i",
   "size" : 8,
   "source_file" : "bionic/libc/kernel/uapi/asm-generic/posix_types.h"
  },
  {
   "alignment" : 4,
   "linker_set_key" : "_ZTIA2_j",
   "name" : "unsigned int [2]",
   "referenced_type" : "_ZTIj",
   "self_type" : "_ZTIA2_j",
   "size" : 8,
   "source_file" : "external/scudo/standalone/tsd_shared.h"
  },
  {
   "alignment" : 4,
   "linker_set_key" : "_ZTIA2_m",
   "name" : "unsigned long [2]",
   "referenced_type" : "_ZTIm",
   "self_type" : "_ZTIA2_m",
   "size" : 8,
   "source_file" : "bionic/libc/include/bits/signal_types.h"
  },
  {
   "alignment" : 4,
   "linker_set_key" : "_ZTIA32768_N5scudo9AllocatorINS_13AndroidConfigEXadL_Z21scudo_malloc_postinitEEE20AllocationRingBuffer5EntryE",
   "name" : "scudo::Allocator<scudo::AndroidConfig, &scudo_malloc_postinit>::AllocationRingBuffer::Entry [32768]",
   "referenced_type" : "_ZTIN5scudo9AllocatorINS_13AndroidConfigEXadL_Z21scudo_malloc_postinitEEE20AllocationRingBuffer5EntryE",
   "self_type" : "_ZTIA32768_N5scudo9AllocatorINS_13AndroidConfigEXadL_Z21scudo_malloc_postinitEEE20AllocationRingBuffer5EntryE",
   "size" : 786432,
   "source_file" : "external/scudo/standalone/combined.h"
  },
  {
   "alignment" : 4,
   "linker_set_key" : "_ZTIA32768_N5scudo9AllocatorINS_19AndroidSvelteConfigEXadL_Z28scudo_svelte_malloc_postinitEEE20AllocationRingBuffer5EntryE",
   "name" : "scudo::Allocator<scudo::AndroidSvelteConfig, &scudo_svelte_malloc_postinit>::AllocationRingBuffer::Entry [32768]",
   "referenced_type" : "_ZTIN5scudo9AllocatorINS_19AndroidSvelteConfigEXadL_Z28scudo_svelte_malloc_postinitEEE20AllocationRingBuffer5EntryE",
   "self_type" : "_ZTIA32768_N5scudo9AllocatorINS_19AndroidSvelteConfigEXadL_Z28scudo_svelte_malloc_postinitEEE20AllocationRingBuffer5EntryE",
   "size" : 786432,
   "source_file" : "external/scudo/standalone/combined.h"
  },
  {
   "alignment" : 8,
   "linker_set_key" : "_ZTIA32_N5scudo17MapAllocatorCacheINS_13AndroidConfigEE11CachedBlockE",
   "name" : "scudo::MapAllocatorCache<scudo::AndroidConfig>::CachedBlock [32]",
   "referenced_type" : "_ZTIN5scudo17MapAllocatorCacheINS_13AndroidConfigEE11CachedBlockE",
   "self_type" : "_ZTIA32_N5scudo17MapAllocatorCacheINS_13AndroidConfigEE11CachedBlockE",
   "size" : 1024,
   "source_file" : "external/scudo/standalone/secondary.h"
  },
  {
   "alignment" : 8,
   "linker_set_key" : "_ZTIA32_N5scudo17MapAllocatorCacheINS_19AndroidSvelteConfigEE11CachedBlockE",
   "name" : "scudo::MapAllocatorCache<scudo::AndroidSvelteConfig>::CachedBlock [32]",
   "referenced_type" : "_ZTIN5scudo17MapAllocatorCacheINS_19AndroidSvelteConfigEE11CachedBlockE",
   "self_type" : "_ZTIA32_N5scudo17MapAllocatorCacheINS_19AndroidSvelteConfigEE11CachedBlockE",
   "size" : 1024,
   "source_file" : "external/scudo/standalone/secondary.h"
  },
  {
   "alignment" : 1,
   "linker_set_key" : "_ZTIA32_c",
   "name" : "char [32]",
   "referenced_type" : "_ZTIc",
   "self_type" : "_ZTIA32_c",
   "size" : 32,
   "source_file" : "bionic/libc/include/sys/user.h"
  },
  {
   "alignment" : 4,
   "linker_set_key" : "_ZTIA32_i",
   "name" : "int [32]",
   "referenced_type" : "_ZTIi",
   "self_type" : "_ZTIA32_i",
   "size" : 128,
   "source_file" : "bionic/libc/kernel/uapi/asm-generic/siginfo.h"
  },
  {
   "alignment" : 4,
   "linker_set_key" : "_ZTIA32_m",
   "name" : "unsigned long [32]",
   "referenced_type" : "_ZTIm",
   "self_type" : "_ZTIA32_m",
   "size" : 128,
   "source_file" : "bionic/libc/kernel/uapi/linux/posix_types.h"
  },
  {
   "alignment" : 8,
   "linker_set_key" : "_ZTIA32_y",
   "name" : "unsigned long long [32]",
   "referenced_type" : "_ZTIy",
   "self_type" : "_ZTIA32_y",
   "size" : 256,
   "source_file" : "bionic/libc/include/sys/user.h"
  },
  {
   "alignment" : 4,
   "linker_set_key" : "_ZTIA3_18scudo_error_report",
   "name" : "scudo_error_report [3]",
   "referenced_type" : "_ZTI18scudo_error_report",
   "self_type" : "_ZTIA3_18scudo_error_report",
   "size" : 1596,
   "source_file" : "external/scudo/standalone/include/scudo/interface.h"
  },
  {
   "alignment" : 4,
   "linker_set_key" : "_ZTIA3_N5scudo11atomic_uptrE",
   "name" : "scudo::atomic_uptr [3]",
   "referenced_type" : "_ZTIN5scudo11atomic_uptrE",
   "self_type" : "_ZTIA3_N5scudo11atomic_uptrE",
   "size" : 12,
   "source_file" : "external/scudo/standalone/stats.h"
  },
  {
   "alignment" : 1,
   "linker_set_key" : "_ZTIA4_c",
   "name" : "char [4]",
   "referenced_type" : "_ZTIc",
   "self_type" : "_ZTIA4_c",
   "size" : 4,
   "source_file" : "bionic/libc/kernel/uapi/asm-generic/siginfo.h"
  },
  {
   "alignment" : 4,
   "linker_set_key" : "_ZTIA4_m",
   "name" : "unsigned long [4]",
   "referenced_type" : "_ZTIm",
   "self_type" : "_ZTIA4_m",
   "size" : 16,
   "source_file" : "external/scudo/standalone/primary32.h"
  },
  {
   "alignment" : 8,
   "linker_set_key" : "_ZTIA524288_N5scudo10atomic_u64E",
   "name" : "scudo::atomic_u64 [524288]",
   "referenced_type" : "_ZTIN5scudo10atomic_u64E",
   "self_type" : "_ZTIA524288_N5scudo10atomic_u64E",
   "size" : 4194304,
   "source_file" : "external/scudo/standalone/stack_depot.h"
  },
  {
   "alignment" : 1,
   "linker_set_key" : "_ZTIA64_h",
   "name" : "unsigned char [64]",
   "referenced_type" : "_ZTIh",
   "self_type" : "_ZTIA64_h",
   "size" : 64,
   "source_file" : "external/scudo/standalone/size_class_map.h"
  },
  {
   "alignment" : 4,
   "linker_set_key" : "_ZTIA64_j",
   "name" : "unsigned int [64]",
   "referenced_type" : "_ZTIj",
   "self_type" : "_ZTIA64_j",
   "size" : 256,
   "source_file" : "external/scudo/standalone/include/scudo/interface.h"
  },
  {
   "alignment" : 4,
   "linker_set_key" : "_ZTIA65536_N5scudo10atomic_u32E",
   "name" : "scudo::atomic_u32 [65536]",
   "referenced_type" : "_ZTIN5scudo10atomic_u32E",
   "self_type" : "_ZTIA65536_N5scudo10atomic_u32E",
   "size" : 262144,
   "source_file" : "external/scudo/standalone/stack_depot.h"
  },
  {
   "alignment" : 1,
   "linker_set_key" : "_ZTIA65536_h",
   "name" : "unsigned char [65536]",
   "referenced_type" : "_ZTIh",
   "self_type" : "_ZTIA65536_h",
   "size" : 65536,
   "source_file" : "external/scudo/standalone/bytemap.h"
  },
  {
   "alignment" : 64,
   "linker_set_key" : "_ZTIA65_N5scudo20SizeClassAllocator32INS_13AndroidConfigEE13SizeClassInfoE",
   "name" : "scudo::SizeClassAllocator32<scudo::AndroidConfig>::SizeClassInfo [65]",
   "referenced_type" : "_ZTIN5scudo20SizeClassAllocator32INS_13AndroidConfigEE13SizeClassInfoE",
   "self_type" : "_ZTIA65_N5scudo20SizeClassAllocator32INS_13AndroidConfigEE13SizeClassInfoE",
   "size" : 8320,
   "source_file" : "external/scudo/standalone/primary32.h"
  },
  {
   "alignment" : 4,
   "linker_set_key" : "_ZTIA65_N5scudo28SizeClassAllocatorLocalCacheINS_20SizeClassAllocator32INS_13AndroidConfigEEEE8PerClassE",
   "name" : "scudo::SizeClassAllocatorLocalCache<scudo::SizeClassAllocator32<scudo::AndroidConfig>>::PerClass [65]",
   "referenced_type" : "_ZTIN5scudo28SizeClassAllocatorLocalCacheINS_20SizeClassAllocator32INS_13AndroidConfigEEEE8PerClassE",
   "self_type" : "_ZTIA65_N5scudo28SizeClassAllocatorLocalCacheINS_20SizeClassAllocator32INS_13AndroidConfigEEEE8PerClassE",
   "size" : 8060,
   "source_file" : "external/scudo/standalone/local_cache.h"
  },
  {
   "alignment" : 4,
   "linker_set_key" : "_ZTIA65_PKc",
   "name" : "const char *[65]",
   "referenced_type" : "_ZTIPKc",
   "self_type" : "_ZTIA65_PKc",
   "size" : 260,
   "source_file" : "bionic/libc/include/signal.h"
  },
  {
   "alignment" : 64,
   "linker_set_key" : "_ZTIA73_N5scudo20SizeClassAllocator32INS_19AndroidSvelteConfigEE13SizeClassInfoE",
   "name" : "scudo::SizeClassAllocator32<scudo::AndroidSvelteConfig>::SizeClassInfo [73]",
   "referenced_type" : "_ZTIN5scudo20SizeClassAllocator32INS_19AndroidSvelteConfigEE13SizeClassInfoE",
   "self_type" : "_ZTIA73_N5scudo20SizeClassAllocator32INS_19AndroidSvelteConfigEE13SizeClassInfoE",
   "size" : 9344,
   "source_file" : "external/scudo/standalone/primary32.h"
  },
  {
   "alignment" : 4,
   "linker_set_key" : "_ZTIA73_N5scudo28SizeClassAllocatorLocalCacheINS_20SizeClassAllocator32INS_19AndroidSvelteConfigEEEE8PerClassE",
   "name" : "scudo::SizeClassAllocatorLocalCache<scudo::SizeClassAllocator32<scudo::AndroidSvelteConfig>>::PerClass [73]",
   "referenced_type" : "_ZTIN5scudo28SizeClassAllocatorLocalCacheINS_20SizeClassAllocator32INS_19AndroidSvelteConfigEEEE8PerClassE",
   "self_type" : "_ZTIA73_N5scudo28SizeClassAllocatorLocalCacheINS_20SizeClassAllocator32INS_19AndroidSvelteConfigEEEE8PerClassE",
   "size" : 9052,
   "source_file" : "external/scudo/standalone/local_cache.h"
  },
  {
   "alignment" : 4,
   "linker_set_key" : "_ZTIA8_N11user_fpregs6fp_regE",
   "name" : "user_fpregs::fp_reg [8]",
   "referenced_type" : "_ZTIN11user_fpregs6fp_regE",
   "self_type" : "_ZTIA8_N11user_fpregs6fp_regE",
   "size" : 96,
   "source_file" : "bionic/libc/include/sys/user.h"
  },
  {
   "alignment" : 64,
   "linker_set_key" : "_ZTIA8_N5scudo3TSDINS_9AllocatorINS_13AndroidConfigEXadL_Z21scudo_malloc_postinitEEEEEE",
   "name" : "scudo::TSD<scudo::Allocator<scudo::AndroidConfig, &scudo_malloc_postinit>> [8]",
   "referenced_type" : "_ZTIN5scudo3TSDINS_9AllocatorINS_13AndroidConfigEXadL_Z21scudo_malloc_postinitEEEEEE",
   "self_type" : "_ZTIA8_N5scudo3TSDINS_9AllocatorINS_13AndroidConfigEXadL_Z21scudo_malloc_postinitEEEEEE",
   "size" : 65024,
   "source_file" : "external/scudo/standalone/tsd_shared.h"
  },
  {
   "alignment" : 1,
   "linker_set_key" : "_ZTIA8_h",
   "name" : "unsigned char [8]",
   "referenced_type" : "_ZTIh",
   "self_type" : "_ZTIA8_h",
   "size" : 8,
   "source_file" : "bionic/libc/include/sys/user.h"
  },
  {
   "alignment" : 4,
   "linker_set_key" : "_ZTIA8_i",
   "name" : "int [8]",
   "referenced_type" : "_ZTIi",
   "self_type" : "_ZTIA8_i",
   "size" : 32,
   "source_file" : "bionic/libc/include/bits/pthread_types.h"
  },
  {
   "alignment" : 4,
   "linker_set_key" : "_ZTIA8_j",
   "name" : "unsigned int [8]",
   "referenced_type" : "_ZTIj",
   "self_type" : "_ZTIA8_j",
   "size" : 32,
   "source_file" : "external/scudo/standalone/tsd_shared.h"
  },
  {
   "linker_set_key" : "_ZTIA_Pc",
   "name" : "char *[]",
   "referenced_type" : "_ZTIPc",
   "self_type" : "_ZTIA_Pc",
   "source_file" : "bionic/libc/include/time.h"
  }
 ],
 "builtin_types" :
 [
  {
   "alignment" : 1,
   "is_integral" : true,
   "is_unsigned" : true,
   "linker_set_key" : "_ZTIb",
   "name" : "bool",
   "referenced_type" : "_ZTIb",
   "self_type" : "_ZTIb",
   "size" : 1
  },
  {
   "alignment" : 1,
   "is_integral" : true,
   "is_unsigned" : true,
   "linker_set_key" : "_ZTIc",
   "name" : "char",
   "referenced_type" : "_ZTIc",
   "self_type" : "_ZTIc",
   "size" : 1
  },
  {
   "alignment" : 8,
   "linker_set_key" : "_ZTIe",
   "name" : "long double",
   "referenced_type" : "_ZTIe",
   "self_type" : "_ZTIe",
   "size" : 8
  },
  {
   "alignment" : 1,
   "is_integral" : true,
   "is_unsigned" : true,
   "linker_set_key" : "_ZTIh",
   "name" : "unsigned char",
   "referenced_type" : "_ZTIh",
   "self_type" : "_ZTIh",
   "size" : 1
  },
  {
   "alignment" : 4,
   "is_integral" : true,
   "linker_set_key" : "_ZTIi",
   "name" : "int",
   "referenced_type" : "_ZTIi",
   "self_type" : "_ZTIi",
   "size" : 4
  },
  {
   "alignment" : 4,
   "is_integral" : true,
   "is_unsigned" : true,
   "linker_set_key" : "_ZTIj",
   "name" : "unsigned int",
   "referenced_type" : "_ZTIj",
   "self_type" : "_ZTIj",
   "size" : 4
  },
  {
   "alignment" : 4,
   "is_integral" : true,
   "linker_set_key" : "_ZTIl",
   "name" : "long",
   "referenced_type" : "_ZTIl",
   "self_type" : "_ZTIl",
   "size" : 4
  },
  {
   "alignment" : 4,
   "is_integral" : true,
   "is_unsigned" : true,
   "linker_set_key" : "_ZTIm",
   "name" : "unsigned long",
   "referenced_type" : "_ZTIm",
   "self_type" : "_ZTIm",
   "size" : 4
  },
  {
   "alignment" : 2,
   "is_integral" : true,
   "linker_set_key" : "_ZTIs",
   "name" : "short",
   "referenced_type" : "_ZTIs",
   "self_type" : "_ZTIs",
   "size" : 2
  },
  {
   "alignment" : 2,
   "is_integral" : true,
   "is_unsigned" : true,
   "linker_set_key" : "_ZTIt",
   "name" : "unsigned short",
   "referenced_type" : "_ZTIt",
   "self_type" : "_ZTIt",
   "size" : 2
  },
  {
   "linker_set_key" : "_ZTIv",
   "name" : "void",
   "referenced_type" : "_ZTIv",
   "self_type" : "_ZTIv"
  },
  {
   "alignment" : 8,
   "is_integral" : true,
   "linker_set_key" : "_ZTIx",
   "name" : "long long",
   "referenced_type" : "_ZTIx",
   "self_type" : "_ZTIx",
   "size" : 8
  },
  {
   "alignment" : 8,
   "is_integral" : true,
   "is_unsigned" : true,
   "linker_set_key" : "_ZTIy",
   "name" : "unsigned long long",
   "referenced_type" : "_ZTIy",
   "self_type" : "_ZTIy",
   "size" : 8
  }
 ],
 "elf_functions" : [],
 "elf_objects" : [],
 "enum_types" :
 [
  {
   "alignment" : 4,
   "enum_fields" :
   [
    {
     "enum_field_value" : 0,
     "name" : "UNKNOWN"
    },
    {
     "enum_field_value" : 1,
     "name" : "USE_AFTER_FREE"
    },
    {
     "enum_field_value" : 2,
     "name" : "BUFFER_OVERFLOW"
    },
    {
     "enum_field_value" : 3,
     "name" : "BUFFER_UNDERFLOW"
    }
   ],
   "linker_set_key" : "_ZTI16scudo_error_type",
   "name" : "scudo_error_type",
   "referenced_type" : "_ZTI16scudo_error_type",
   "self_type" : "_ZTI16scudo_error_type",
   "size" : 4,
   "source_file" : "external/scudo/standalone/include/scudo/interface.h",
   "underlying_type" : "_ZTIj"
  },
  {
   "alignment" : 4,
   "enum_fields" :
   [
    {
     "enum_field_value" : 0,
     "name" : "PTHREAD_MUTEX_NORMAL"
    },
    {
     "enum_field_value" : 1,
     "name" : "PTHREAD_MUTEX_RECURSIVE"
    },
    {
     "enum_field_value" : 2,
     "name" : "PTHREAD_MUTEX_ERRORCHECK"
    },
    {
     "enum_field_value" : 2,
     "name" : "PTHREAD_MUTEX_ERRORCHECK_NP"
    },
    {
     "enum_field_value" : 1,
     "name" : "PTHREAD_MUTEX_RECURSIVE_NP"
    },
    {
     "enum_field_value" : 0,
     "name" : "PTHREAD_MUTEX_DEFAULT"
    }
   ],
   "linker_set_key" : "_ZTI22$PTHREAD_MUTEX_DEFAULT",
   "name" : "(anonymous enum at bionic/libc/include/pthread.h:41:1)",
   "referenced_type" : "_ZTI22$PTHREAD_MUTEX_DEFAULT",
   "self_type" : "_ZTI22$PTHREAD_MUTEX_DEFAULT",
   "size" : 4,
   "source_file" : "bionic/libc/include/pthread.h",
   "underlying_type" : "_ZTIj"
  },
  {
   "alignment" : 4,
   "enum_fields" :
   [
    {
     "enum_field_value" : 0,
     "name" : "PTHREAD_RWLOCK_PREFER_READER_NP"
    },
    {
     "enum_field_value" : 1,
     "name" : "PTHREAD_RWLOCK_PREFER_WRITER_NONRECURSIVE_NP"
    }
   ],
   "linker_set_key" : "_ZTI32$PTHREAD_RWLOCK_PREFER_READER_NP",
   "name" : "(anonymous enum at bionic/libc/include/pthread.h:63:1)",
   "referenced_type" : "_ZTI32$PTHREAD_RWLOCK_PREFER_READER_NP",
   "self_type" : "_ZTI32$PTHREAD_RWLOCK_PREFER_READER_NP",
   "size" : 4,
   "source_file" : "bionic/libc/include/pthread.h",
   "underlying_type" : "_ZTIj"
  },
  {
   "alignment" : 4,
   "enum_fields" :
   [
    {
     "enum_field_value" : 0,
     "name" : "REG_R0"
    },
    {
     "enum_field_value" : 1,
     "name" : "REG_R1"
    },
    {
     "enum_field_value" : 2,
     "name" : "REG_R2"
    },
    {
     "enum_field_value" : 3,
     "name" : "REG_R3"
    },
    {
     "enum_field_value" : 4,
     "name" : "REG_R4"
    },
    {
     "enum_field_value" : 5,
     "name" : "REG_R5"
    },
    {
     "enum_field_value" : 6,
     "name" : "REG_R6"
    },
    {
     "enum_field_value" : 7,
     "name" : "REG_R7"
    },
    {
     "enum_field_value" : 8,
     "name" : "REG_R8"
    },
    {
     "enum_field_value" : 9,
     "name" : "REG_R9"
    },
    {
     "enum_field_value" : 10,
     "name" : "REG_R10"
    },
    {
     "enum_field_value" : 11,
     "name" : "REG_R11"
    },
    {
     "enum_field_value" : 12,
     "name" : "REG_R12"
    },
    {
     "enum_field_value" : 13,
     "name" : "REG_R13"
    },
    {
     "enum_field_value" : 14,
     "name" : "REG_R14"
    },
    {
     "enum_field_value" : 15,
     "name" : "REG_R15"
    }
   ],
   "linker_set_key" : "_ZTI7$REG_R0",
   "name" : "(anonymous enum at bionic/libc/include/sys/ucontext.h:41:1)",
   "referenced_type" : "_ZTI7$REG_R0",
   "self_type" : "_ZTI7$REG_R0",
   "size" : 4,
   "source_file" : "bionic/libc/include/sys/ucontext.h",
   "underlying_type" : "_ZTIj"
  },
  {
   "alignment" : 4,
   "enum_fields" :
   [
    {
     "enum_field_value" : 0,
     "name" : "scudo::ThreadState::NotInitialized"
    },
    {
     "enum_field_value" : 1,
     "name" : "scudo::ThreadState::Initialized"
    },
    {
     "enum_field_value" : 2,
     "name" : "scudo::ThreadState::TornDown"
    }
   ],
   "linker_set_key" : "_ZTIN5scudo11ThreadState12$InitializedE",
   "name" : "scudo::ThreadState::(anonymous enum at external/scudo/standalone/tsd_exclusive.h:18:3)",
   "referenced_type" : "_ZTIN5scudo11ThreadState12$InitializedE",
   "self_type" : "_ZTIN5scudo11ThreadState12$InitializedE",
   "size" : 4,
   "source_file" : "external/scudo/standalone/tsd_exclusive.h",
   "underlying_type" : "_ZTIj"
  },
  {
   "alignment" : 4,
   "enum_fields" :
   [
    {
     "enum_field_value" : 0,
     "name" : "scudo::memory_order_relaxed"
    },
    {
     "enum_field_value" : 1,
     "name" : "scudo::memory_order_consume"
    },
    {
     "enum_field_value" : 2,
     "name" : "scudo::memory_order_acquire"
    },
    {
     "enum_field_value" : 3,
     "name" : "scudo::memory_order_release"
    },
    {
     "enum_field_value" : 4,
     "name" : "scudo::memory_order_acq_rel"
    },
    {
     "enum_field_value" : 5,
     "name" : "scudo::memory_order_seq_cst"
    }
   ],
   "linker_set_key" : "_ZTIN5scudo12memory_orderE",
   "name" : "scudo::memory_order",
   "referenced_type" : "_ZTIN5scudo12memory_orderE",
   "self_type" : "_ZTIN5scudo12memory_orderE",
   "size" : 4,
   "source_file" : "external/scudo/standalone/atomic_helpers.h",
   "underlying_type" : "_ZTIj"
  },
  {
   "alignment" : 1,
   "enum_fields" :
   [
    {
     "enum_field_value" : 0,
     "name" : "scudo::AllocatorAction::Recycling"
    },
    {
     "enum_field_value" : 1,
     "name" : "scudo::AllocatorAction::Deallocating"
    },
    {
     "enum_field_value" : 2,
     "name" : "scudo::AllocatorAction::Reallocating"
    },
    {
     "enum_field_value" : 3,
     "name" : "scudo::AllocatorAction::Sizing"
    }
   ],
   "linker_set_key" : "_ZTIN5scudo15AllocatorActionE",
   "name" : "scudo::AllocatorAction",
   "referenced_type" : "_ZTIN5scudo15AllocatorActionE",
   "self_type" : "_ZTIN5scudo15AllocatorActionE",
   "size" : 1,
   "source_file" : "external/scudo/standalone/report.h",
   "underlying_type" : "_ZTIh"
  },
  {
   "alignment" : 4,
   "enum_fields" :
   [
    {
     "enum_field_value" : 0,
     "name" : "scudo::NoFill"
    },
    {
     "enum_field_value" : 1,
     "name" : "scudo::ZeroFill"
    },
    {
     "enum_field_value" : 2,
     "name" : "scudo::PatternOrZeroFill"
    }
   ],
   "linker_set_key" : "_ZTIN5scudo16FillContentsModeE",
   "name" : "scudo::FillContentsMode",
   "referenced_type" : "_ZTIN5scudo16FillContentsModeE",
   "self_type" : "_ZTIN5scudo16FillContentsModeE",
   "size" : 4,
   "source_file" : "external/scudo/standalone/common.h",
   "underlying_type" : "_ZTIj"
  },
  {
   "alignment" : 1,
   "enum_fields" :
   [
    {
     "enum_field_value" : 0,
     "name" : "scudo::Chunk::Available"
    },
    {
     "enum_field_value" : 1,
     "name" : "scudo::Chunk::Allocated"
    },
    {
     "enum_field_value" : 2,
     "name" : "scudo::Chunk::Quarantined"
    }
   ],
   "linker_set_key" : "_ZTIN5scudo5Chunk5StateE",
   "name" : "scudo::Chunk::State",
   "referenced_type" : "_ZTIN5scudo5Chunk5StateE",
   "self_type" : "_ZTIN5scudo5Chunk5StateE",
   "size" : 1,
   "source_file" : "external/scudo/standalone/chunk.h",
   "underlying_type" : "_ZTIh"
  },
  {
   "alignment" : 1,
   "enum_fields" :
   [
    {
     "enum_field_value" : 0,
     "name" : "scudo::Chunk::Malloc"
    },
    {
     "enum_field_value" : 1,
     "name" : "scudo::Chunk::New"
    },
    {
     "enum_field_value" : 2,
     "name" : "scudo::Chunk::NewArray"
    },
    {
     "enum_field_value" : 3,
     "name" : "scudo::Chunk::Memalign"
    }
   ],
   "linker_set_key" : "_ZTIN5scudo5Chunk6OriginE",
   "name" : "scudo::Chunk::Origin",
   "referenced_type" : "_ZTIN5scudo5Chunk6OriginE",
   "self_type" : "_ZTIN5scudo5Chunk6OriginE",
   "size" : 1,
   "source_file" : "external/scudo/standalone/chunk.h",
   "underlying_type" : "_ZTIh"
  },
  {
   "alignment" : 1,
   "enum_fields" :
   [
    {
     "enum_field_value" : 0,
     "name" : "scudo::Option::ReleaseInterval"
    },
    {
     "enum_field_value" : 1,
     "name" : "scudo::Option::MemtagTuning"
    },
    {
     "enum_field_value" : 2,
     "name" : "scudo::Option::ThreadDisableMemInit"
    },
    {
     "enum_field_value" : 3,
     "name" : "scudo::Option::MaxCacheEntriesCount"
    },
    {
     "enum_field_value" : 4,
     "name" : "scudo::Option::MaxCacheEntrySize"
    },
    {
     "enum_field_value" : 5,
     "name" : "scudo::Option::MaxTSDsCount"
    }
   ],
   "linker_set_key" : "_ZTIN5scudo6OptionE",
   "name" : "scudo::Option",
   "referenced_type" : "_ZTIN5scudo6OptionE",
   "self_type" : "_ZTIN5scudo6OptionE",
   "size" : 1,
   "source_file" : "external/scudo/standalone/common.h",
   "underlying_type" : "_ZTIh"
  },
  {
   "alignment" : 1,
   "enum_fields" :
   [
    {
     "enum_field_value" : 0,
     "name" : "scudo::Checksum::BSD"
    },
    {
     "enum_field_value" : 1,
     "name" : "scudo::Checksum::HardwareCRC32"
    }
   ],
   "linker_set_key" : "_ZTIN5scudo8ChecksumE",
   "name" : "scudo::Checksum",
   "referenced_type" : "_ZTIN5scudo8ChecksumE",
   "self_type" : "_ZTIN5scudo8ChecksumE",
   "size" : 1,
   "source_file" : "external/scudo/standalone/checksum.h",
   "underlying_type" : "_ZTIh"
  },
  {
   "alignment" : 1,
   "enum_fields" :
   [
    {
     "enum_field_value" : 0,
     "name" : "scudo::FlagType::FT_bool"
    },
    {
     "enum_field_value" : 1,
     "name" : "scudo::FlagType::FT_int"
    }
   ],
   "linker_set_key" : "_ZTIN5scudo8FlagTypeE",
   "name" : "scudo::FlagType",
   "referenced_type" : "_ZTIN5scudo8FlagTypeE",
   "self_type" : "_ZTIN5scudo8FlagTypeE",
   "size" : 1,
   "source_file" : "external/scudo/standalone/flags_parser.h",
   "underlying_type" : "_ZTIh"
  },
  {
   "alignment" : 4,
   "enum_fields" :
   [
    {
     "enum_field_value" : 0,
     "name" : "scudo::StatAllocated"
    },
    {
     "enum_field_value" : 1,
     "name" : "scudo::StatFree"
    },
    {
     "enum_field_value" : 2,
     "name" : "scudo::StatMapped"
    },
    {
     "enum_field_value" : 3,
     "name" : "scudo::StatCount"
    }
   ],
   "linker_set_key" : "_ZTIN5scudo8StatTypeE",
   "name" : "scudo::StatType",
   "referenced_type" : "_ZTIN5scudo8StatTypeE",
   "self_type" : "_ZTIN5scudo8StatTypeE",
   "size" : 4,
   "source_file" : "external/scudo/standalone/stats.h",
   "underlying_type" : "_ZTIj"
  },
  {
   "alignment" : 4,
   "enum_fields" :
   [
    {
     "enum_field_value" : 0,
     "name" : "scudo::OptionBit::MayReturnNull"
    },
    {
     "enum_field_value" : 1,
     "name" : "scudo::OptionBit::FillContents0of2"
    },
    {
     "enum_field_value" : 2,
     "name" : "scudo::OptionBit::FillContents1of2"
    },
    {
     "enum_field_value" : 3,
     "name" : "scudo::OptionBit::DeallocTypeMismatch"
    },
    {
     "enum_field_value" : 4,
     "name" : "scudo::OptionBit::DeleteSizeMismatch"
    },
    {
     "enum_field_value" : 5,
     "name" : "scudo::OptionBit::TrackAllocationStacks"
    },
    {
     "enum_field_value" : 6,
     "name" : "scudo::OptionBit::UseOddEvenTags"
    },
    {
     "enum_field_value" : 7,
     "name" : "scudo::OptionBit::UseMemoryTagging"
    },
    {
     "enum_field_value" : 8,
     "name" : "scudo::OptionBit::AddLargeAllocationSlack"
    }
   ],
   "linker_set_key" : "_ZTIN5scudo9OptionBitE",
   "name" : "scudo::OptionBit",
   "referenced_type" : "_ZTIN5scudo9OptionBitE",
   "self_type" : "_ZTIN5scudo9OptionBitE",
   "size" : 4,
   "source_file" : "external/scudo/standalone/options.h",
   "underlying_type" : "_ZTIi"
  }
 ],
 "function_types" :
 [
  {
   "alignment" : 4,
   "linker_set_key" : "_ZTIFv6sigvalE",
   "name" : "void (sigval)",
   "parameters" :
   [
    {
     "referenced_type" : "_ZTI6sigval"
    }
   ],
   "referenced_type" : "_ZTIFv6sigvalE",
   "return_type" : "_ZTIv",
   "self_type" : "_ZTIFv6sigvalE",
   "source_file" : "bionic/libc/kernel/uapi/asm-generic/siginfo.h"
  },
  {
   "alignment" : 4,
   "linker_set_key" : "_ZTIFvPvE",
   "name" : "void (void *)",
   "parameters" :
   [
    {
     "referenced_type" : "_ZTIPv"
    }
   ],
   "referenced_type" : "_ZTIFvPvE",
   "return_type" : "_ZTIv",
   "self_type" : "_ZTIFvPvE",
   "source_file" : "bionic/libc/include/pthread.h"
  },
  {
   "alignment" : 4,
   "linker_set_key" : "_ZTIFviE",
   "name" : "void (int)",
   "parameters" :
   [
    {
     "referenced_type" : "_ZTIi"
    }
   ],
   "referenced_type" : "_ZTIFviE",
   "return_type" : "_ZTIv",
   "self_type" : "_ZTIFviE",
   "source_file" : "bionic/libc/kernel/uapi/asm-arm/asm/signal.h"
  },
  {
   "alignment" : 4,
   "linker_set_key" : "_ZTIFviP7siginfoPvE",
   "name" : "void (int, siginfo *, void *)",
   "parameters" :
   [
    {
     "referenced_type" : "_ZTIi"
    },
    {
     "referenced_type" : "_ZTIP7siginfo"
    },
    {
     "referenced_type" : "_ZTIPv"
    }
   ],
   "referenced_type" : "_ZTIFviP7siginfoPvE",
   "return_type" : "_ZTIv",
   "self_type" : "_ZTIFviP7siginfoPvE",
   "source_file" : "bionic/libc/kernel/uapi/asm-arm/asm/signal.h"
  },
  {
   "alignment" : 4,
   "linker_set_key" : "_ZTIFvjjPvE",
   "name" : "void (unsigned int, unsigned int, void *)",
   "parameters" :
   [
    {
     "referenced_type" : "_ZTIj"
    },
    {
     "referenced_type" : "_ZTIj"
    },
    {
     "referenced_type" : "_ZTIPv"
    }
   ],
   "referenced_type" : "_ZTIFvjjPvE",
   "return_type" : "_ZTIv",
   "self_type" : "_ZTIFvjjPvE",
   "source_file" : "external/scudo/standalone/combined.h"
  },
  {
   "alignment" : 4,
   "linker_set_key" : "_ZTIFvvE",
   "name" : "void ()",
   "referenced_type" : "_ZTIFvvE",
   "return_type" : "_ZTIv",
   "self_type" : "_ZTIFvvE",
   "source_file" : "bionic/libc/kernel/uapi/asm-arm/asm/signal.h"
  }
 ],
 "functions" :
 [
  {
   "function_name" : "EmptyCallback",
   "linker_set_key" : "EmptyCallback",
   "return_type" : "_ZTIv",
   "source_file" : "external/scudo/standalone/combined.h"
  },
  {
   "function_name" : "__bionic_memchr",
   "linker_set_key" : "_Z15__bionic_memchrPKvU17pass_object_size1ij",
   "parameters" :
   [
    {
     "referenced_type" : "_ZTIKPKv"
    },
    {
     "referenced_type" : "_ZTIi"
    },
    {
     "referenced_type" : "_ZTIj"
    }
   ],
   "return_type" : "_ZTIPv",
   "source_file" : "bionic/libc/include/string.h"
  },
  {
   "function_name" : "__bionic_strchr",
   "linker_set_key" : "_Z15__bionic_strchrPKcU17pass_object_size1i",
   "parameters" :
   [
    {
     "referenced_type" : "_ZTIKPKc"
    },
    {
     "referenced_type" : "_ZTIi"
    }
   ],
   "return_type" : "_ZTIPc",
   "source_file" : "bionic/libc/include/string.h"
  },
  {
   "function_name" : "__bionic_strstr",
   "linker_set_key" : "_Z15__bionic_strstrPKcS0_",
   "parameters" :
   [
    {
     "referenced_type" : "_ZTIPKc"
    },
    {
     "referenced_type" : "_ZTIPKc"
    }
   ],
   "return_type" : "_ZTIPc",
   "source_file" : "bionic/libc/include/string.h"
  },
  {
   "function_name" : "__bionic_strpbrk",
   "linker_set_key" : "_Z16__bionic_strpbrkPKcS0_",
   "parameters" :
   [
    {
     "referenced_type" : "_ZTIPKc"
    },
    {
     "referenced_type" : "_ZTIPKc"
    }
   ],
   "return_type" : "_ZTIPc",
   "source_file" : "bionic/libc/include/string.h"
  },
  {
   "function_name" : "__bionic_strrchr",
   "linker_set_key" : "_Z16__bionic_strrchrPKcU17pass_object_size1i",
   "parameters" :
   [
    {
     "referenced_type" : "_ZTIKPKc"
    },
    {
     "referenced_type" : "_ZTIi"
    }
   ],
   "return_type" : "_ZTIPc",
   "source_file" : "bionic/libc/include/string.h"
  },
  {
   "function_name" : "getPlatformAllocatorTlsSlot",
   "linker_set_key" : "_Z27getPlatformAllocatorTlsSlotv",
   "return_type" : "_ZTIPj",
   "source_file" : "bionic/libc/platform/scudo_platform_tls_slot.h"
  },
  {
   "function_name" : "memchr",
   "linker_set_key" : "_Z6memchrUa9enable_ifIXLb1EEXLb1EEEPKvU17pass_object_size1ij",
   "parameters" :
   [
    {
     "referenced_type" : "_ZTIKPKv"
    },
    {
     "referenced_type" : "_ZTIi"
    },
    {
     "referenced_type" : "_ZTIj"
    }
   ],
   "return_type" : "_ZTIPKv",
   "source_file" : "bionic/libc/include/string.h"
  },
  {
   "function_name" : "memchr",
   "linker_set_key" : "_Z6memchrUa9enable_ifIXLb1EEXLb1EEEPvU17pass_object_size1ij",
   "parameters" :
   [
    {
     "referenced_type" : "_ZTIKPv"
    },
    {
     "referenced_type" : "_ZTIi"
    },
    {
     "referenced_type" : "_ZTIj"
    }
   ],
   "return_type" : "_ZTIPv",
   "source_file" : "bionic/libc/include/string.h"
  },
  {
   "function_name" : "strchr",
   "linker_set_key" : "_Z6strchrUa9enable_ifIXLb1EEXLb1EEEPKcU17pass_object_size1i",
   "parameters" :
   [
    {
     "referenced_type" : "_ZTIKPKc"
    },
    {
     "referenced_type" : "_ZTIi"
    }
   ],
   "return_type" : "_ZTIPKc",
   "source_file" : "bionic/libc/include/string.h"
  },
  {
   "function_name" : "strchr",
   "linker_set_key" : "_Z6strchrUa9enable_ifIXLb1EEXLb1EEEPcU17pass_object_size1i",
   "parameters" :
   [
    {
     "referenced_type" : "_ZTIKPc"
    },
    {
     "referenced_type" : "_ZTIi"
    }
   ],
   "return_type" : "_ZTIPc",
   "source_file" : "bionic/libc/include/string.h"
  },
  {
   "function_name" : "strstr",
   "linker_set_key" : "_Z6strstrUa9enable_ifIXLb1EEXLb1EEEPKcS0_",
   "parameters" :
   [
    {
     "referenced_type" : "_ZTIPKc"
    },
    {
     "referenced_type" : "_ZTIPKc"
    }
   ],
   "return_type" : "_ZTIPKc",
   "source_file" : "bionic/libc/include/string.h"
  },
  {
   "function_name" : "strstr",
   "linker_set_key" : "_Z6strstrUa9enable_ifIXLb1EEXLb1EEEPcPKc",
   "parameters" :
   [
    {
     "referenced_type" : "_ZTIPc"
    },
    {
     "referenced_type" : "_ZTIPKc"
    }
   ],
   "return_type" : "_ZTIPc",
   "source_file" : "bionic/libc/include/string.h"
  },
  {
   "function_name" : "strpbrk",
   "linker_set_key" : "_Z7strpbrkUa9enable_ifIXLb1EEXLb1EEEPKcS0_",
   "parameters" :
   [
    {
     "referenced_type" : "_ZTIPKc"
    },
    {
     "referenced_type" : "_ZTIPKc"
    }
   ],
   "return_type" : "_ZTIPKc",
   "source_file" : "bionic/libc/include/string.h"
  },
  {
   "function_name" : "strpbrk",
   "linker_set_key" : "_Z7strpbrkUa9enable_ifIXLb1EEXLb1EEEPcPKc",
   "parameters" :
   [
    {
     "referenced_type" : "_ZTIPc"
    },
    {
     "referenced_type" : "_ZTIPKc"
    }
   ],
   "return_type" : "_ZTIPc",
   "source_file" : "bionic/libc/include/string.h"
  },
  {
   "function_name" : "strrchr",
   "linker_set_key" : "_Z7strrchrUa9enable_ifIXLb1EEXLb1EEEPKcU17pass_object_size1i",
   "parameters" :
   [
    {
     "referenced_type" : "_ZTIKPKc"
    },
    {
     "referenced_type" : "_ZTIi"
    }
   ],
   "return_type" : "_ZTIPKc",
   "source_file" : "bionic/libc/include/string.h"
  },
  {
   "function_name" : "strrchr",
   "linker_set_key" : "_Z7strrchrUa9enable_ifIXLb1EEXLb1EEEPcU17pass_object_size1i",
   "parameters" :
   [
    {
     "referenced_type" : "_ZTIKPc"
    },
    {
     "referenced_type" : "_ZTIi"
    }
   ],
   "return_type" : "_ZTIPc",
   "source_file" : "bionic/libc/include/string.h"
  },
  {
   "function_name" : "scudo::LargeBlock::getHeaderSize",
   "linker_set_key" : "_ZN5scudo10LargeBlock13getHeaderSizeEv",
   "return_type" : "_ZTIm",
   "source_file" : "external/scudo/standalone/secondary.h"
  },
  {
   "function_name" : "scudo::LocalStats::initLinkerInitialized",
   "linker_set_key" : "_ZN5scudo10LocalStats21initLinkerInitializedEv",
   "parameters" :
   [
    {
     "is_this_ptr" : true,
     "referenced_type" : "_ZTIPN5scudo10LocalStatsE"
    }
   ],
   "return_type" : "_ZTIv",
   "source_file" : "external/scudo/standalone/stats.h"
  },
  {
   "function_name" : "scudo::LocalStats::add",
   "linker_set_key" : "_ZN5scudo10LocalStats3addENS_8StatTypeEm",
   "parameters" :
   [
    {
     "is_this_ptr" : true,
     "referenced_type" : "_ZTIPN5scudo10LocalStatsE"
    },
    {
     "referenced_type" : "_ZTIN5scudo8StatTypeE"
    },
    {
     "referenced_type" : "_ZTIm"
    }
   ],
   "return_type" : "_ZTIv",
   "source_file" : "external/scudo/standalone/stats.h"
  },
  {
   "function_name" : "scudo::LocalStats::set",
   "linker_set_key" : "_ZN5scudo10LocalStats3setENS_8StatTypeEm",
   "parameters" :
   [
    {
     "is_this_ptr" : true,
     "referenced_type" : "_ZTIPN5scudo10LocalStatsE"
    },
    {
     "referenced_type" : "_ZTIN5scudo8StatTypeE"
    },
    {
     "referenced_type" : "_ZTIm"
    }
   ],
   "return_type" : "_ZTIv",
   "source_file" : "external/scudo/standalone/stats.h"
  },
  {
   "function_name" : "scudo::LocalStats::sub",
   "linker_set_key" : "_ZN5scudo10LocalStats3subENS_8StatTypeEm",
   "parameters" :
   [
    {
     "is_this_ptr" : true,
     "referenced_type" : "_ZTIPN5scudo10LocalStatsE"
    },
    {
     "referenced_type" : "_ZTIN5scudo8StatTypeE"
    },
    {
     "referenced_type" : "_ZTIm"
    }
   ],
   "return_type" : "_ZTIv",
   "source_file" : "external/scudo/standalone/stats.h"
  },
  {
   "function_name" : "scudo::LocalStats::init",
   "linker_set_key" : "_ZN5scudo10LocalStats4initEv",
   "parameters" :
   [
    {
     "is_this_ptr" : true,
     "referenced_type" : "_ZTIPN5scudo10LocalStatsE"
    }
   ],
   "return_type" : "_ZTIv",
   "source_file" : "external/scudo/standalone/stats.h"
  },
  {
   "function_name" : "scudo::ScopedLock::ScopedLock",
   "linker_set_key" : "_ZN5scudo10ScopedLockC1ERNS_11HybridMutexE",
   "parameters" :
   [
    {
     "is_this_ptr" : true,
     "referenced_type" : "_ZTIPN5scudo10ScopedLockE"
    },
    {
     "referenced_type" : "_ZTIRN5scudo11HybridMutexE"
    }
   ],
   "return_type" : "_ZTIv",
   "source_file" : "external/scudo/standalone/mutex.h"
  },
  {
   "function_name" : "scudo::ScopedLock::ScopedLock",
   "linker_set_key" : "_ZN5scudo10ScopedLockC2ERNS_11HybridMutexE",
   "parameters" :
   [
    {
     "is_this_ptr" : true,
     "referenced_type" : "_ZTIPN5scudo10ScopedLockE"
    },
    {
     "referenced_type" : "_ZTIRN5scudo11HybridMutexE"
    }
   ],
   "return_type" : "_ZTIv",
   "source_file" : "external/scudo/standalone/mutex.h"
  },
  {
   "function_name" : "scudo::ScopedLock::~ScopedLock",
   "linker_set_key" : "_ZN5scudo10ScopedLockD1Ev",
   "parameters" :
   [
    {
     "is_this_ptr" : true,
     "referenced_type" : "_ZTIPN5scudo10ScopedLockE"
    }
   ],
   "return_type" : "_ZTIv",
   "source_file" : "external/scudo/standalone/mutex.h"
  },
  {
   "function_name" : "scudo::ScopedLock::~ScopedLock",
   "linker_set_key" : "_ZN5scudo10ScopedLockD2Ev",
   "parameters" :
   [
    {
     "is_this_ptr" : true,
     "referenced_type" : "_ZTIPN5scudo10ScopedLockE"
    }
   ],
   "return_type" : "_ZTIv",
   "source_file" : "external/scudo/standalone/mutex.h"
  },
  {
   "function_name" : "scudo::StackDepot::insert",
   "linker_set_key" : "_ZN5scudo10StackDepot6insertEPmS1_",
   "parameters" :
   [
    {
     "is_this_ptr" : true,
     "referenced_type" : "_ZTIPN5scudo10StackDepotE"
    },
    {
     "referenced_type" : "_ZTIPm"
    },
    {
     "referenced_type" : "_ZTIPm"
    }
   ],
   "return_type" : "_ZTIj",
   "source_file" : "external/scudo/standalone/stack_depot.h"
  },
  {
   "function_name" : "scudo::extractTag",
   "linker_set_key" : "_ZN5scudo10extractTagEm",
   "parameters" :
   [
    {
     "referenced_type" : "_ZTIm"
    }
   ],
   "return_type" : "_ZTIh",
   "source_file" : "external/scudo/standalone/memtag.h"
  },
  {
   "function_name" : "scudo::scaledLog2",
   "linker_set_key" : "_ZN5scudo10scaledLog2Emmm",
   "parameters" :
   [
    {
     "referenced_type" : "_ZTIm"
    },
    {
     "referenced_type" : "_ZTIm"
    },
    {
     "referenced_type" : "_ZTIm"
    }
   ],
   "return_type" : "_ZTIm",
   "source_file" : "external/scudo/standalone/size_class_map.h"
  },
  {
   "function_name" : "scudo::FlatByteMap<16384>::initLinkerInitialized",
   "linker_set_key" : "_ZN5scudo11FlatByteMapILm16384EE21initLinkerInitializedEv",
   "parameters" :
   [
    {
     "is_this_ptr" : true,
     "referenced_type" : "_ZTIPN5scudo11FlatByteMapILm16384EEE"
    }
   ],
   "return_type" : "_ZTIv",
   "source_file" : "external/scudo/standalone/bytemap.h"
  },
  {
   "function_name" : "scudo::FlatByteMap<16384>::set",
   "linker_set_key" : "_ZN5scudo11FlatByteMapILm16384EE3setEmh",
   "parameters" :
   [
    {
     "is_this_ptr" : true,
     "referenced_type" : "_ZTIPN5scudo11FlatByteMapILm16384EEE"
    },
    {
     "referenced_type" : "_ZTIm"
    },
    {
     "referenced_type" : "_ZTIh"
    }
   ],
   "return_type" : "_ZTIv",
   "source_file" : "external/scudo/standalone/bytemap.h"
  },
  {
   "function_name" : "scudo::FlatByteMap<16384>::enable",
   "linker_set_key" : "_ZN5scudo11FlatByteMapILm16384EE6enableEv",
   "parameters" :
   [
    {
     "is_this_ptr" : true,
     "referenced_type" : "_ZTIPN5scudo11FlatByteMapILm16384EEE"
    }
   ],
   "return_type" : "_ZTIv",
   "source_file" : "external/scudo/standalone/bytemap.h"
  },
  {
   "function_name" : "scudo::FlatByteMap<16384>::disable",
   "linker_set_key" : "_ZN5scudo11FlatByteMapILm16384EE7disableEv",
   "parameters" :
   [
    {
     "is_this_ptr" : true,
     "referenced_type" : "_ZTIPN5scudo11FlatByteMapILm16384EEE"
    }
   ],
   "return_type" : "_ZTIv",
   "source_file" : "external/scudo/standalone/bytemap.h"
  },
  {
   "function_name" : "scudo::FlatByteMap<16384>::operator[]",
   "linker_set_key" : "_ZN5scudo11FlatByteMapILm16384EEixEm",
   "parameters" :
   [
    {
     "is_this_ptr" : true,
     "referenced_type" : "_ZTIPN5scudo11FlatByteMapILm16384EEE"
    },
    {
     "referenced_type" : "_ZTIm"
    }
   ],
   "return_type" : "_ZTIh",
   "source_file" : "external/scudo/standalone/bytemap.h"
  },
  {
   "function_name" : "scudo::FlatByteMap<65536>::initLinkerInitialized",
   "linker_set_key" : "_ZN5scudo11FlatByteMapILm65536EE21initLinkerInitializedEv",
   "parameters" :
   [
    {
     "is_this_ptr" : true,
     "referenced_type" : "_ZTIPN5scudo11FlatByteMapILm65536EEE"
    }
   ],
   "return_type" : "_ZTIv",
   "source_file" : "external/scudo/standalone/bytemap.h"
  },
  {
   "function_name" : "scudo::FlatByteMap<65536>::set",
   "linker_set_key" : "_ZN5scudo11FlatByteMapILm65536EE3setEmh",
   "parameters" :
   [
    {
     "is_this_ptr" : true,
     "referenced_type" : "_ZTIPN5scudo11FlatByteMapILm65536EEE"
    },
    {
     "referenced_type" : "_ZTIm"
    },
    {
     "referenced_type" : "_ZTIh"
    }
   ],
   "return_type" : "_ZTIv",
   "source_file" : "external/scudo/standalone/bytemap.h"
  },
  {
   "function_name" : "scudo::FlatByteMap<65536>::enable",
   "linker_set_key" : "_ZN5scudo11FlatByteMapILm65536EE6enableEv",
   "parameters" :
   [
    {
     "is_this_ptr" : true,
     "referenced_type" : "_ZTIPN5scudo11FlatByteMapILm65536EEE"
    }
   ],
   "return_type" : "_ZTIv",
   "source_file" : "external/scudo/standalone/bytemap.h"
  },
  {
   "function_name" : "scudo::FlatByteMap<65536>::disable",
   "linker_set_key" : "_ZN5scudo11FlatByteMapILm65536EE7disableEv",
   "parameters" :
   [
    {
     "is_this_ptr" : true,
     "referenced_type" : "_ZTIPN5scudo11FlatByteMapILm65536EEE"
    }
   ],
   "return_type" : "_ZTIv",
   "source_file" : "external/scudo/standalone/bytemap.h"
  },
  {
   "function_name" : "scudo::FlatByteMap<65536>::operator[]",
   "linker_set_key" : "_ZN5scudo11FlatByteMapILm65536EEixEm",
   "parameters" :
   [
    {
     "is_this_ptr" : true,
     "referenced_type" : "_ZTIPN5scudo11FlatByteMapILm65536EEE"
    },
    {
     "referenced_type" : "_ZTIm"
    }
   ],
   "return_type" : "_ZTIh",
   "source_file" : "external/scudo/standalone/bytemap.h"
  },
  {
   "function_name" : "scudo::GlobalStats::initLinkerInitialized",
   "linker_set_key" : "_ZN5scudo11GlobalStats21initLinkerInitializedEv",
   "parameters" :
   [
    {
     "is_this_ptr" : true,
     "referenced_type" : "_ZTIPN5scudo11GlobalStatsE"
    }
   ],
   "return_type" : "_ZTIv",
   "source_file" : "external/scudo/standalone/stats.h"
  },
  {
   "function_name" : "scudo::GlobalStats::init",
   "linker_set_key" : "_ZN5scudo11GlobalStats4initEv",
   "parameters" :
   [
    {
     "is_this_ptr" : true,
     "referenced_type" : "_ZTIPN5scudo11GlobalStatsE"
    }
   ],
   "return_type" : "_ZTIv",
   "source_file" : "external/scudo/standalone/stats.h"
  },
  {
   "function_name" : "scudo::GlobalStats::link",
   "linker_set_key" : "_ZN5scudo11GlobalStats4linkEPNS_10LocalStatsE",
   "parameters" :
   [
    {
     "is_this_ptr" : true,
     "referenced_type" : "_ZTIPN5scudo11GlobalStatsE"
    },
    {
     "referenced_type" : "_ZTIPN5scudo10LocalStatsE"
    }
   ],
   "return_type" : "_ZTIv",
   "source_file" : "external/scudo/standalone/stats.h"
  },
  {
   "function_name" : "scudo::GlobalStats::lock",
   "linker_set_key" : "_ZN5scudo11GlobalStats4lockEv",
   "parameters" :
   [
    {
     "is_this_ptr" : true,
     "referenced_type" : "_ZTIPN5scudo11GlobalStatsE"
    }
   ],
   "return_type" : "_ZTIv",
   "source_file" : "external/scudo/standalone/stats.h"
  },
  {
   "function_name" : "scudo::GlobalStats::enable",
   "linker_set_key" : "_ZN5scudo11GlobalStats6enableEv",
   "parameters" :
   [
    {
     "is_this_ptr" : true,
     "referenced_type" : "_ZTIPN5scudo11GlobalStatsE"
    }
   ],
   "return_type" : "_ZTIv",
   "source_file" : "external/scudo/standalone/stats.h"
  },
  {
   "function_name" : "scudo::GlobalStats::unlink",
   "linker_set_key" : "_ZN5scudo11GlobalStats6unlinkEPNS_10LocalStatsE",
   "parameters" :
   [
    {
     "is_this_ptr" : true,
     "referenced_type" : "_ZTIPN5scudo11GlobalStatsE"
    },
    {
     "referenced_type" : "_ZTIPN5scudo10LocalStatsE"
    }
   ],
   "return_type" : "_ZTIv",
   "source_file" : "external/scudo/standalone/stats.h"
  },
  {
   "function_name" : "scudo::GlobalStats::unlock",
   "linker_set_key" : "_ZN5scudo11GlobalStats6unlockEv",
   "parameters" :
   [
    {
     "is_this_ptr" : true,
     "referenced_type" : "_ZTIPN5scudo11GlobalStatsE"
    }
   ],
   "return_type" : "_ZTIv",
   "source_file" : "external/scudo/standalone/stats.h"
  },
  {
   "function_name" : "scudo::GlobalStats::disable",
   "linker_set_key" : "_ZN5scudo11GlobalStats7disableEv",
   "parameters" :
   [
    {
     "is_this_ptr" : true,
     "referenced_type" : "_ZTIPN5scudo11GlobalStatsE"
    }
   ],
   "return_type" : "_ZTIv",
   "source_file" : "external/scudo/standalone/stats.h"
  },
  {
   "function_name" : "scudo::HybridMutex::init",
   "linker_set_key" : "_ZN5scudo11HybridMutex4initEv",
   "parameters" :
   [
    {
     "is_this_ptr" : true,
     "referenced_type" : "_ZTIPN5scudo11HybridMutexE"
    }
   ],
   "return_type" : "_ZTIv",
   "source_file" : "external/scudo/standalone/mutex.h"
  },
  {
   "function_name" : "scudo::HybridMutex::lock",
   "linker_set_key" : "_ZN5scudo11HybridMutex4lockEv",
   "parameters" :
   [
    {
     "is_this_ptr" : true,
     "referenced_type" : "_ZTIPN5scudo11HybridMutexE"
    }
   ],
   "return_type" : "_ZTIv",
   "source_file" : "external/scudo/standalone/mutex.h"
  },
  {
   "function_name" : "scudo::addFixedTag",
   "linker_set_key" : "_ZN5scudo11addFixedTagEPvm",
   "parameters" :
   [
    {
     "referenced_type" : "_ZTIPv"
    },
    {
     "referenced_type" : "_ZTIm"
    }
   ],
   "return_type" : "_ZTIPv",
   "source_file" : "external/scudo/standalone/memtag.h"
  },
  {
   "function_name" : "scudo::addFixedTag",
   "linker_set_key" : "_ZN5scudo11addFixedTagEmm",
   "parameters" :
   [
    {
     "referenced_type" : "_ZTIm"
    },
    {
     "referenced_type" : "_ZTIm"
    }
   ],
   "return_type" : "_ZTIm",
   "source_file" : "external/scudo/standalone/memtag.h"
  },
  {
   "function_name" : "scudo::atomic_load",
   "linker_set_key" : "_ZN5scudo11atomic_loadINS_10atomic_s32EEENT_4TypeEPVKS2_NS_12memory_orderE",
   "parameters" :
   [
    {
     "referenced_type" : "_ZTIPVKN5scudo10atomic_s32E"
    },
    {
     "referenced_type" : "_ZTIN5scudo12memory_orderE"
    }
   ],
   "return_type" : "_ZTIi",
   "source_file" : "external/scudo/standalone/atomic_helpers.h",
   "template_args" : [ "_ZTIN5scudo10atomic_s32E" ]
  },
  {
   "function_name" : "scudo::atomic_load",
   "linker_set_key" : "_ZN5scudo11atomic_loadINS_10atomic_u32EEENT_4TypeEPVKS2_NS_12memory_orderE",
   "parameters" :
   [
    {
     "referenced_type" : "_ZTIPVKN5scudo10atomic_u32E"
    },
    {
     "referenced_type" : "_ZTIN5scudo12memory_orderE"
    }
   ],
   "return_type" : "_ZTIj",
   "source_file" : "external/scudo/standalone/atomic_helpers.h",
   "template_args" : [ "_ZTIN5scudo10atomic_u32E" ]
  },
  {
   "function_name" : "scudo::atomic_load",
   "linker_set_key" : "_ZN5scudo11atomic_loadINS_10atomic_u64EEENT_4TypeEPVKS2_NS_12memory_orderE",
   "parameters" :
   [
    {
     "referenced_type" : "_ZTIPVKN5scudo10atomic_u64E"
    },
    {
     "referenced_type" : "_ZTIN5scudo12memory_orderE"
    }
   ],
   "return_type" : "_ZTIy",
   "source_file" : "external/scudo/standalone/atomic_helpers.h",
   "template_args" : [ "_ZTIN5scudo10atomic_u64E" ]
  },
  {
   "function_name" : "scudo::atomic_load",
   "linker_set_key" : "_ZN5scudo11atomic_loadINS_11atomic_uptrEEENT_4TypeEPVKS2_NS_12memory_orderE",
   "parameters" :
   [
    {
     "referenced_type" : "_ZTIPVKN5scudo11atomic_uptrE"
    },
    {
     "referenced_type" : "_ZTIN5scudo12memory_orderE"
    }
   ],
   "return_type" : "_ZTIm",
   "source_file" : "external/scudo/standalone/atomic_helpers.h",
   "template_args" : [ "_ZTIN5scudo11atomic_uptrE" ]
  },
  {
   "function_name" : "scudo::roundDownTo",
   "linker_set_key" : "_ZN5scudo11roundDownToEmm",
   "parameters" :
   [
    {
     "referenced_type" : "_ZTIm"
    },
    {
     "referenced_type" : "_ZTIm"
    }
   ],
   "return_type" : "_ZTIm",
   "source_file" : "external/scudo/standalone/common.h"
  },
  {
   "function_name" : "scudo::IteratorBase<const scudo::LargeBlock::Header>::IteratorBase",
   "linker_set_key" : "_ZN5scudo12IteratorBaseIKNS_10LargeBlock6HeaderEEC1EPS3_",
   "parameters" :
   [
    {
     "is_this_ptr" : true,
     "referenced_type" : "_ZTIPN5scudo12IteratorBaseIKNS_10LargeBlock6HeaderEEE"
    },
    {
     "referenced_type" : "_ZTIPKN5scudo10LargeBlock6HeaderE"
    }
   ],
   "return_type" : "_ZTIv",
   "source_file" : "external/scudo/standalone/list.h"
  },
  {
   "function_name" : "scudo::IteratorBase<const scudo::LargeBlock::Header>::IteratorBase",
   "linker_set_key" : "_ZN5scudo12IteratorBaseIKNS_10LargeBlock6HeaderEEC2EPS3_",
   "parameters" :
   [
    {
     "is_this_ptr" : true,
     "referenced_type" : "_ZTIPN5scudo12IteratorBaseIKNS_10LargeBlock6HeaderEEE"
    },
    {
     "referenced_type" : "_ZTIPKN5scudo10LargeBlock6HeaderE"
    }
   ],
   "return_type" : "_ZTIv",
   "source_file" : "external/scudo/standalone/list.h"
  },
  {
   "function_name" : "scudo::IteratorBase<const scudo::LargeBlock::Header>::operator*",
   "linker_set_key" : "_ZN5scudo12IteratorBaseIKNS_10LargeBlock6HeaderEEdeEv",
   "parameters" :
   [
    {
     "is_this_ptr" : true,
     "referenced_type" : "_ZTIPN5scudo12IteratorBaseIKNS_10LargeBlock6HeaderEEE"
    }
   ],
   "return_type" : "_ZTIRKN5scudo10LargeBlock6HeaderE",
   "source_file" : "external/scudo/standalone/list.h"
  },
  {
   "function_name" : "scudo::IteratorBase<const scudo::LargeBlock::Header>::operator++",
   "linker_set_key" : "_ZN5scudo12IteratorBaseIKNS_10LargeBlock6HeaderEEppEv",
   "parameters" :
   [
    {
     "is_this_ptr" : true,
     "referenced_type" : "_ZTIPN5scudo12IteratorBaseIKNS_10LargeBlock6HeaderEEE"
    }
   ],
   "return_type" : "_ZTIRN5scudo12IteratorBaseIKNS_10LargeBlock6HeaderEEE",
   "source_file" : "external/scudo/standalone/list.h"
  },
  {
   "function_name" : "scudo::IteratorBase<const scudo::LocalStats>::IteratorBase",
   "linker_set_key" : "_ZN5scudo12IteratorBaseIKNS_10LocalStatsEEC1EPS2_",
   "parameters" :
   [
    {
     "is_this_ptr" : true,
     "referenced_type" : "_ZTIPN5scudo12IteratorBaseIKNS_10LocalStatsEEE"
    },
    {
     "referenced_type" : "_ZTIPKN5scudo10LocalStatsE"
    }
   ],
   "return_type" : "_ZTIv",
   "source_file" : "external/scudo/standalone/list.h"
  },
  {
   "function_name" : "scudo::IteratorBase<const scudo::LocalStats>::IteratorBase",
   "linker_set_key" : "_ZN5scudo12IteratorBaseIKNS_10LocalStatsEEC2EPS2_",
   "parameters" :
   [
    {
     "is_this_ptr" : true,
     "referenced_type" : "_ZTIPN5scudo12IteratorBaseIKNS_10LocalStatsEEE"
    },
    {
     "referenced_type" : "_ZTIPKN5scudo10LocalStatsE"
    }
   ],
   "return_type" : "_ZTIv",
   "source_file" : "external/scudo/standalone/list.h"
  },
  {
   "function_name" : "scudo::IteratorBase<const scudo::LocalStats>::operator*",
   "linker_set_key" : "_ZN5scudo12IteratorBaseIKNS_10LocalStatsEEdeEv",
   "parameters" :
   [
    {
     "is_this_ptr" : true,
     "referenced_type" : "_ZTIPN5scudo12IteratorBaseIKNS_10LocalStatsEEE"
    }
   ],
   "return_type" : "_ZTIRKN5scudo10LocalStatsE",
   "source_file" : "external/scudo/standalone/list.h"
  },
  {
   "function_name" : "scudo::IteratorBase<const scudo::LocalStats>::operator++",
   "linker_set_key" : "_ZN5scudo12IteratorBaseIKNS_10LocalStatsEEppEv",
   "parameters" :
   [
    {
     "is_this_ptr" : true,
     "referenced_type" : "_ZTIPN5scudo12IteratorBaseIKNS_10LocalStatsEEE"
    }
   ],
   "return_type" : "_ZTIRN5scudo12IteratorBaseIKNS_10LocalStatsEEE",
   "source_file" : "external/scudo/standalone/list.h"
  },
  {
   "function_name" : "scudo::IteratorBase<const scudo::QuarantineBatch>::IteratorBase",
   "linker_set_key" : "_ZN5scudo12IteratorBaseIKNS_15QuarantineBatchEEC1EPS2_",
   "parameters" :
   [
    {
     "is_this_ptr" : true,
     "referenced_type" : "_ZTIPN5scudo12IteratorBaseIKNS_15QuarantineBatchEEE"
    },
    {
     "referenced_type" : "_ZTIPKN5scudo15QuarantineBatchE"
    }
   ],
   "return_type" : "_ZTIv",
   "source_file" : "external/scudo/standalone/list.h"
  },
  {
   "function_name" : "scudo::IteratorBase<const scudo::QuarantineBatch>::IteratorBase",
   "linker_set_key" : "_ZN5scudo12IteratorBaseIKNS_15QuarantineBatchEEC2EPS2_",
   "parameters" :
   [
    {
     "is_this_ptr" : true,
     "referenced_type" : "_ZTIPN5scudo12IteratorBaseIKNS_15QuarantineBatchEEE"
    },
    {
     "referenced_type" : "_ZTIPKN5scudo15QuarantineBatchE"
    }
   ],
   "return_type" : "_ZTIv",
   "source_file" : "external/scudo/standalone/list.h"
  },
  {
   "function_name" : "scudo::IteratorBase<const scudo::QuarantineBatch>::operator*",
   "linker_set_key" : "_ZN5scudo12IteratorBaseIKNS_15QuarantineBatchEEdeEv",
   "parameters" :
   [
    {
     "is_this_ptr" : true,
     "referenced_type" : "_ZTIPN5scudo12IteratorBaseIKNS_15QuarantineBatchEEE"
    }
   ],
   "return_type" : "_ZTIRKN5scudo15QuarantineBatchE",
   "source_file" : "external/scudo/standalone/list.h"
  },
  {
   "function_name" : "scudo::IteratorBase<const scudo::QuarantineBatch>::operator++",
   "linker_set_key" : "_ZN5scudo12IteratorBaseIKNS_15QuarantineBatchEEppEv",
   "parameters" :
   [
    {
     "is_this_ptr" : true,
     "referenced_type" : "_ZTIPN5scudo12IteratorBaseIKNS_15QuarantineBatchEEE"
    }
   ],
   "return_type" : "_ZTIRN5scudo12IteratorBaseIKNS_15QuarantineBatchEEE",
   "source_file" : "external/scudo/standalone/list.h"
  },
  {
   "function_name" : "scudo::IteratorBase<const scudo::SizeClassAllocatorLocalCache<scudo::SizeClassAllocator32<scudo::AndroidConfig>>::TransferBatch>::IteratorBase",
   "linker_set_key" : "_ZN5scudo12IteratorBaseIKNS_28SizeClassAllocatorLocalCacheINS_20SizeClassAllocator32INS_13AndroidConfigEEEE13TransferBatchEEC1EPS7_",
   "parameters" :
   [
    {
     "is_this_ptr" : true,
     "referenced_type" : "_ZTIPN5scudo12IteratorBaseIKNS_28SizeClassAllocatorLocalCacheINS_20SizeClassAllocator32INS_13AndroidConfigEEEE13TransferBatchEEE"
    },
    {
     "referenced_type" : "_ZTIPKN5scudo28SizeClassAllocatorLocalCacheINS_20SizeClassAllocator32INS_13AndroidConfigEEEE13TransferBatchE"
    }
   ],
   "return_type" : "_ZTIv",
   "source_file" : "external/scudo/standalone/list.h"
  },
  {
   "function_name" : "scudo::IteratorBase<const scudo::SizeClassAllocatorLocalCache<scudo::SizeClassAllocator32<scudo::AndroidConfig>>::TransferBatch>::IteratorBase",
   "linker_set_key" : "_ZN5scudo12IteratorBaseIKNS_28SizeClassAllocatorLocalCacheINS_20SizeClassAllocator32INS_13AndroidConfigEEEE13TransferBatchEEC2EPS7_",
   "parameters" :
   [
    {
     "is_this_ptr" : true,
     "referenced_type" : "_ZTIPN5scudo12IteratorBaseIKNS_28SizeClassAllocatorLocalCacheINS_20SizeClassAllocator32INS_13AndroidConfigEEEE13TransferBatchEEE"
    },
    {
     "referenced_type" : "_ZTIPKN5scudo28SizeClassAllocatorLocalCacheINS_20SizeClassAllocator32INS_13AndroidConfigEEEE13TransferBatchE"
    }
   ],
   "return_type" : "_ZTIv",
   "source_file" : "external/scudo/standalone/list.h"
  },
  {
   "function_name" : "scudo::IteratorBase<const scudo::SizeClassAllocatorLocalCache<scudo::SizeClassAllocator32<scudo::AndroidConfig>>::TransferBatch>::operator*",
   "linker_set_key" : "_ZN5scudo12IteratorBaseIKNS_28SizeClassAllocatorLocalCacheINS_20SizeClassAllocator32INS_13AndroidConfigEEEE13TransferBatchEEdeEv",
   "parameters" :
   [
    {
     "is_this_ptr" : true,
     "referenced_type" : "_ZTIPN5scudo12IteratorBaseIKNS_28SizeClassAllocatorLocalCacheINS_20SizeClassAllocator32INS_13AndroidConfigEEEE13TransferBatchEEE"
    }
   ],
   "return_type" : "_ZTIRKN5scudo28SizeClassAllocatorLocalCacheINS_20SizeClassAllocator32INS_13AndroidConfigEEEE13TransferBatchE",
   "source_file" : "external/scudo/standalone/list.h"
  },
  {
   "function_name" : "scudo::IteratorBase<const scudo::SizeClassAllocatorLocalCache<scudo::SizeClassAllocator32<scudo::AndroidConfig>>::TransferBatch>::operator++",
   "linker_set_key" : "_ZN5scudo12IteratorBaseIKNS_28SizeClassAllocatorLocalCacheINS_20SizeClassAllocator32INS_13AndroidConfigEEEE13TransferBatchEEppEv",
   "parameters" :
   [
    {
     "is_this_ptr" : true,
     "referenced_type" : "_ZTIPN5scudo12IteratorBaseIKNS_28SizeClassAllocatorLocalCacheINS_20SizeClassAllocator32INS_13AndroidConfigEEEE13TransferBatchEEE"
    }
   ],
   "return_type" : "_ZTIRN5scudo12IteratorBaseIKNS_28SizeClassAllocatorLocalCacheINS_20SizeClassAllocator32INS_13AndroidConfigEEEE13TransferBatchEEE",
   "source_file" : "external/scudo/standalone/list.h"
  },
  {
   "function_name" : "scudo::IteratorBase<const scudo::SizeClassAllocatorLocalCache<scudo::SizeClassAllocator32<scudo::AndroidSvelteConfig>>::TransferBatch>::IteratorBase",
   "linker_set_key" : "_ZN5scudo12IteratorBaseIKNS_28SizeClassAllocatorLocalCacheINS_20SizeClassAllocator32INS_19AndroidSvelteConfigEEEE13TransferBatchEEC1EPS7_",
   "parameters" :
   [
    {
     "is_this_ptr" : true,
     "referenced_type" : "_ZTIPN5scudo12IteratorBaseIKNS_28SizeClassAllocatorLocalCacheINS_20SizeClassAllocator32INS_19AndroidSvelteConfigEEEE13TransferBatchEEE"
    },
    {
     "referenced_type" : "_ZTIPKN5scudo28SizeClassAllocatorLocalCacheINS_20SizeClassAllocator32INS_19AndroidSvelteConfigEEEE13TransferBatchE"
    }
   ],
   "return_type" : "_ZTIv",
   "source_file" : "external/scudo/standalone/list.h"
  },
  {
   "function_name" : "scudo::IteratorBase<const scudo::SizeClassAllocatorLocalCache<scudo::SizeClassAllocator32<scudo::AndroidSvelteConfig>>::TransferBatch>::IteratorBase",
   "linker_set_key" : "_ZN5scudo12IteratorBaseIKNS_28SizeClassAllocatorLocalCacheINS_20SizeClassAllocator32INS_19AndroidSvelteConfigEEEE13TransferBatchEEC2EPS7_",
   "parameters" :
   [
    {
     "is_this_ptr" : true,
     "referenced_type" : "_ZTIPN5scudo12IteratorBaseIKNS_28SizeClassAllocatorLocalCacheINS_20SizeClassAllocator32INS_19AndroidSvelteConfigEEEE13TransferBatchEEE"
    },
    {
     "referenced_type" : "_ZTIPKN5scudo28SizeClassAllocatorLocalCacheINS_20SizeClassAllocator32INS_19AndroidSvelteConfigEEEE13TransferBatchE"
    }
   ],
   "return_type" : "_ZTIv",
   "source_file" : "external/scudo/standalone/list.h"
  },
  {
   "function_name" : "scudo::IteratorBase<const scudo::SizeClassAllocatorLocalCache<scudo::SizeClassAllocator32<scudo::AndroidSvelteConfig>>::TransferBatch>::operator*",
   "linker_set_key" : "_ZN5scudo12IteratorBaseIKNS_28SizeClassAllocatorLocalCacheINS_20SizeClassAllocator32INS_19AndroidSvelteConfigEEEE13TransferBatchEEdeEv",
   "parameters" :
   [
    {
     "is_this_ptr" : true,
     "referenced_type" : "_ZTIPN5scudo12IteratorBaseIKNS_28SizeClassAllocatorLocalCacheINS_20SizeClassAllocator32INS_19AndroidSvelteConfigEEEE13TransferBatchEEE"
    }
   ],
   "return_type" : "_ZTIRKN5scudo28SizeClassAllocatorLocalCacheINS_20SizeClassAllocator32INS_19AndroidSvelteConfigEEEE13TransferBatchE",
   "source_file" : "external/scudo/standalone/list.h"
  },
  {
   "function_name" : "scudo::IteratorBase<const scudo::SizeClassAllocatorLocalCache<scudo::SizeClassAllocator32<scudo::AndroidSvelteConfig>>::TransferBatch>::operator++",
   "linker_set_key" : "_ZN5scudo12IteratorBaseIKNS_28SizeClassAllocatorLocalCacheINS_20SizeClassAllocator32INS_19AndroidSvelteConfigEEEE13TransferBatchEEppEv",
   "parameters" :
   [
    {
     "is_this_ptr" : true,
     "referenced_type" : "_ZTIPN5scudo12IteratorBaseIKNS_28SizeClassAllocatorLocalCacheINS_20SizeClassAllocator32INS_19AndroidSvelteConfigEEEE13TransferBatchEEE"
    }
   ],
   "return_type" : "_ZTIRN5scudo12IteratorBaseIKNS_28SizeClassAllocatorLocalCacheINS_20SizeClassAllocator32INS_19AndroidSvelteConfigEEEE13TransferBatchEEE",
   "source_file" : "external/scudo/standalone/list.h"
  },
  {
   "function_name" : "scudo::MapAllocator<scudo::AndroidConfig>::deallocate",
   "linker_set_key" : "_ZN5scudo12MapAllocatorINS_13AndroidConfigEE10deallocateENS_7OptionsEPv",
   "parameters" :
   [
    {
     "is_this_ptr" : true,
     "referenced_type" : "_ZTIPN5scudo12MapAllocatorINS_13AndroidConfigEEE"
    },
    {
     "referenced_type" : "_ZTIN5scudo7OptionsE"
    },
    {
     "referenced_type" : "_ZTIPv"
    }
   ],
   "return_type" : "_ZTIv",
   "source_file" : "external/scudo/standalone/secondary.h"
  },
  {
   "function_name" : "scudo::MapAllocator<scudo::AndroidConfig>::getBlockEnd",
   "linker_set_key" : "_ZN5scudo12MapAllocatorINS_13AndroidConfigEE11getBlockEndEPv",
   "parameters" :
   [
    {
     "referenced_type" : "_ZTIPv"
    }
   ],
   "return_type" : "_ZTIm",
   "source_file" : "external/scudo/standalone/secondary.h"
  },
  {
   "function_name" : "scudo::MapAllocator<scudo::AndroidConfig>::releaseToOS",
   "linker_set_key" : "_ZN5scudo12MapAllocatorINS_13AndroidConfigEE11releaseToOSEv",
   "parameters" :
   [
    {
     "is_this_ptr" : true,
     "referenced_type" : "_ZTIPN5scudo12MapAllocatorINS_13AndroidConfigEEE"
    }
   ],
   "return_type" : "_ZTIv",
   "source_file" : "external/scudo/standalone/secondary.h"
  },
  {
   "function_name" : "scudo::MapAllocator<scudo::AndroidConfig>::disableMemoryTagging",
   "linker_set_key" : "_ZN5scudo12MapAllocatorINS_13AndroidConfigEE20disableMemoryTaggingEv",
   "parameters" :
   [
    {
     "is_this_ptr" : true,
     "referenced_type" : "_ZTIPN5scudo12MapAllocatorINS_13AndroidConfigEEE"
    }
   ],
   "return_type" : "_ZTIv",
   "source_file" : "external/scudo/standalone/secondary.h"
  },
  {
   "function_name" : "scudo::MapAllocator<scudo::AndroidConfig>::initLinkerInitialized",
   "linker_set_key" : "_ZN5scudo12MapAllocatorINS_13AndroidConfigEE21initLinkerInitializedEPNS_11GlobalStatsEi",
   "parameters" :
   [
    {
     "is_this_ptr" : true,
     "referenced_type" : "_ZTIPN5scudo12MapAllocatorINS_13AndroidConfigEEE"
    },
    {
     "referenced_type" : "_ZTIPN5scudo11GlobalStatsE"
    },
    {
     "default_arg" : true,
     "referenced_type" : "_ZTIi"
    }
   ],
   "return_type" : "_ZTIv",
   "source_file" : "external/scudo/standalone/secondary.h"
  },
  {
   "function_name" : "scudo::MapAllocator<scudo::AndroidConfig>::enable",
   "linker_set_key" : "_ZN5scudo12MapAllocatorINS_13AndroidConfigEE6enableEv",
   "parameters" :
   [
    {
     "is_this_ptr" : true,
     "referenced_type" : "_ZTIPN5scudo12MapAllocatorINS_13AndroidConfigEEE"
    }
   ],
   "return_type" : "_ZTIv",
   "source_file" : "external/scudo/standalone/secondary.h"
  },
  {
   "function_name" : "scudo::MapAllocator<scudo::AndroidConfig>::disable",
   "linker_set_key" : "_ZN5scudo12MapAllocatorINS_13AndroidConfigEE7disableEv",
   "parameters" :
   [
    {
     "is_this_ptr" : true,
     "referenced_type" : "_ZTIPN5scudo12MapAllocatorINS_13AndroidConfigEEE"
    }
   ],
   "return_type" : "_ZTIv",
   "source_file" : "external/scudo/standalone/secondary.h"
  },
  {
   "function_name" : "scudo::MapAllocator<scudo::AndroidConfig>::allocate",
   "linker_set_key" : "_ZN5scudo12MapAllocatorINS_13AndroidConfigEE8allocateENS_7OptionsEmmPmNS_16FillContentsModeE",
   "parameters" :
   [
    {
     "is_this_ptr" : true,
     "referenced_type" : "_ZTIPN5scudo12MapAllocatorINS_13AndroidConfigEEE"
    },
    {
     "referenced_type" : "_ZTIN5scudo7OptionsE"
    },
    {
     "referenced_type" : "_ZTIm"
    },
    {
     "default_arg" : true,
     "referenced_type" : "_ZTIm"
    },
    {
     "default_arg" : true,
     "referenced_type" : "_ZTIPm"
    },
    {
     "default_arg" : true,
     "referenced_type" : "_ZTIN5scudo16FillContentsModeE"
    }
   ],
   "return_type" : "_ZTIPv",
   "source_file" : "external/scudo/standalone/secondary.h"
  },
  {
   "function_name" : "scudo::MapAllocator<scudo::AndroidConfig>::setOption",
   "linker_set_key" : "_ZN5scudo12MapAllocatorINS_13AndroidConfigEE9setOptionENS_6OptionEl",
   "parameters" :
   [
    {
     "is_this_ptr" : true,
     "referenced_type" : "_ZTIPN5scudo12MapAllocatorINS_13AndroidConfigEEE"
    },
    {
     "referenced_type" : "_ZTIN5scudo6OptionE"
    },
    {
     "referenced_type" : "_ZTIl"
    }
   ],
   "return_type" : "_ZTIb",
   "source_file" : "external/scudo/standalone/secondary.h"
  },
  {
   "function_name" : "scudo::MapAllocator<scudo::AndroidSvelteConfig>::deallocate",
   "linker_set_key" : "_ZN5scudo12MapAllocatorINS_19AndroidSvelteConfigEE10deallocateENS_7OptionsEPv",
   "parameters" :
   [
    {
     "is_this_ptr" : true,
     "referenced_type" : "_ZTIPN5scudo12MapAllocatorINS_19AndroidSvelteConfigEEE"
    },
    {
     "referenced_type" : "_ZTIN5scudo7OptionsE"
    },
    {
     "referenced_type" : "_ZTIPv"
    }
   ],
   "return_type" : "_ZTIv",
   "source_file" : "external/scudo/standalone/secondary.h"
  },
  {
   "function_name" : "scudo::MapAllocator<scudo::AndroidSvelteConfig>::getBlockEnd",
   "linker_set_key" : "_ZN5scudo12MapAllocatorINS_19AndroidSvelteConfigEE11getBlockEndEPv",
   "parameters" :
   [
    {
     "referenced_type" : "_ZTIPv"
    }
   ],
   "return_type" : "_ZTIm",
   "source_file" : "external/scudo/standalone/secondary.h"
  },
  {
   "function_name" : "scudo::MapAllocator<scudo::AndroidSvelteConfig>::releaseToOS",
   "linker_set_key" : "_ZN5scudo12MapAllocatorINS_19AndroidSvelteConfigEE11releaseToOSEv",
   "parameters" :
   [
    {
     "is_this_ptr" : true,
     "referenced_type" : "_ZTIPN5scudo12MapAllocatorINS_19AndroidSvelteConfigEEE"
    }
   ],
   "return_type" : "_ZTIv",
   "source_file" : "external/scudo/standalone/secondary.h"
  },
  {
   "function_name" : "scudo::MapAllocator<scudo::AndroidSvelteConfig>::disableMemoryTagging",
   "linker_set_key" : "_ZN5scudo12MapAllocatorINS_19AndroidSvelteConfigEE20disableMemoryTaggingEv",
   "parameters" :
   [
    {
     "is_this_ptr" : true,
     "referenced_type" : "_ZTIPN5scudo12MapAllocatorINS_19AndroidSvelteConfigEEE"
    }
   ],
   "return_type" : "_ZTIv",
   "source_file" : "external/scudo/standalone/secondary.h"
  },
  {
   "function_name" : "scudo::MapAllocator<scudo::AndroidSvelteConfig>::initLinkerInitialized",
   "linker_set_key" : "_ZN5scudo12MapAllocatorINS_19AndroidSvelteConfigEE21initLinkerInitializedEPNS_11GlobalStatsEi",
   "parameters" :
   [
    {
     "is_this_ptr" : true,
     "referenced_type" : "_ZTIPN5scudo12MapAllocatorINS_19AndroidSvelteConfigEEE"
    },
    {
     "referenced_type" : "_ZTIPN5scudo11GlobalStatsE"
    },
    {
     "default_arg" : true,
     "referenced_type" : "_ZTIi"
    }
   ],
   "return_type" : "_ZTIv",
   "source_file" : "external/scudo/standalone/secondary.h"
  },
  {
   "function_name" : "scudo::MapAllocator<scudo::AndroidSvelteConfig>::enable",
   "linker_set_key" : "_ZN5scudo12MapAllocatorINS_19AndroidSvelteConfigEE6enableEv",
   "parameters" :
   [
    {
     "is_this_ptr" : true,
     "referenced_type" : "_ZTIPN5scudo12MapAllocatorINS_19AndroidSvelteConfigEEE"
    }
   ],
   "return_type" : "_ZTIv",
   "source_file" : "external/scudo/standalone/secondary.h"
  },
  {
   "function_name" : "scudo::MapAllocator<scudo::AndroidSvelteConfig>::disable",
   "linker_set_key" : "_ZN5scudo12MapAllocatorINS_19AndroidSvelteConfigEE7disableEv",
   "parameters" :
   [
    {
     "is_this_ptr" : true,
     "referenced_type" : "_ZTIPN5scudo12MapAllocatorINS_19AndroidSvelteConfigEEE"
    }
   ],
   "return_type" : "_ZTIv",
   "source_file" : "external/scudo/standalone/secondary.h"
  },
  {
   "function_name" : "scudo::MapAllocator<scudo::AndroidSvelteConfig>::allocate",
   "linker_set_key" : "_ZN5scudo12MapAllocatorINS_19AndroidSvelteConfigEE8allocateENS_7OptionsEmmPmNS_16FillContentsModeE",
   "parameters" :
   [
    {
     "is_this_ptr" : true,
     "referenced_type" : "_ZTIPN5scudo12MapAllocatorINS_19AndroidSvelteConfigEEE"
    },
    {
     "referenced_type" : "_ZTIN5scudo7OptionsE"
    },
    {
     "referenced_type" : "_ZTIm"
    },
    {
     "default_arg" : true,
     "referenced_type" : "_ZTIm"
    },
    {
     "default_arg" : true,
     "referenced_type" : "_ZTIPm"
    },
    {
     "default_arg" : true,
     "referenced_type" : "_ZTIN5scudo16FillContentsModeE"
    }
   ],
   "return_type" : "_ZTIPv",
   "source_file" : "external/scudo/standalone/secondary.h"
  },
  {
   "function_name" : "scudo::MapAllocator<scudo::AndroidSvelteConfig>::setOption",
   "linker_set_key" : "_ZN5scudo12MapAllocatorINS_19AndroidSvelteConfigEE9setOptionENS_6OptionEl",
   "parameters" :
   [
    {
     "is_this_ptr" : true,
     "referenced_type" : "_ZTIPN5scudo12MapAllocatorINS_19AndroidSvelteConfigEEE"
    },
    {
     "referenced_type" : "_ZTIN5scudo6OptionE"
    },
    {
     "referenced_type" : "_ZTIl"
    }
   ],
   "return_type" : "_ZTIb",
   "source_file" : "external/scudo/standalone/secondary.h"
  },
  {
   "function_name" : "scudo::ScopedString::data",
   "linker_set_key" : "_ZN5scudo12ScopedString4dataEv",
   "parameters" :
   [
    {
     "is_this_ptr" : true,
     "referenced_type" : "_ZTIPN5scudo12ScopedStringE"
    }
   ],
   "return_type" : "_ZTIPKc",
   "source_file" : "external/scudo/standalone/string_utils.h"
  },
  {
   "function_name" : "scudo::ScopedString::clear",
   "linker_set_key" : "_ZN5scudo12ScopedString5clearEv",
   "parameters" :
   [
    {
     "is_this_ptr" : true,
     "referenced_type" : "_ZTIPN5scudo12ScopedStringE"
    }
   ],
   "return_type" : "_ZTIv",
   "source_file" : "external/scudo/standalone/string_utils.h"
  },
  {
   "function_name" : "scudo::ScopedString::length",
   "linker_set_key" : "_ZN5scudo12ScopedString6lengthEv",
   "parameters" :
   [
    {
     "is_this_ptr" : true,
     "referenced_type" : "_ZTIPN5scudo12ScopedStringE"
    }
   ],
   "return_type" : "_ZTIm",
   "source_file" : "external/scudo/standalone/string_utils.h"
  },
  {
   "function_name" : "scudo::ScopedString::ScopedString",
   "linker_set_key" : "_ZN5scudo12ScopedStringC1Em",
   "parameters" :
   [
    {
     "is_this_ptr" : true,
     "referenced_type" : "_ZTIPN5scudo12ScopedStringE"
    },
    {
     "referenced_type" : "_ZTIm"
    }
   ],
   "return_type" : "_ZTIv",
   "source_file" : "external/scudo/standalone/string_utils.h"
  },
  {
   "function_name" : "scudo::ScopedString::ScopedString",
   "linker_set_key" : "_ZN5scudo12ScopedStringC2Em",
   "parameters" :
   [
    {
     "is_this_ptr" : true,
     "referenced_type" : "_ZTIPN5scudo12ScopedStringE"
    },
    {
     "referenced_type" : "_ZTIm"
    }
   ],
   "return_type" : "_ZTIv",
   "source_file" : "external/scudo/standalone/string_utils.h"
  },
  {
   "access" : "private",
   "function_name" : "scudo::VectorNoCtor<char>::reallocate",
   "linker_set_key" : "_ZN5scudo12VectorNoCtorIcE10reallocateEm",
   "parameters" :
   [
    {
     "is_this_ptr" : true,
     "referenced_type" : "_ZTIPN5scudo12VectorNoCtorIcEE"
    },
    {
     "referenced_type" : "_ZTIm"
    }
   ],
   "return_type" : "_ZTIv",
   "source_file" : "external/scudo/standalone/vector.h"
  },
  {
   "function_name" : "scudo::VectorNoCtor<char>::data",
   "linker_set_key" : "_ZN5scudo12VectorNoCtorIcE4dataEv",
   "parameters" :
   [
    {
     "is_this_ptr" : true,
     "referenced_type" : "_ZTIPN5scudo12VectorNoCtorIcEE"
    }
   ],
   "return_type" : "_ZTIPc",
   "source_file" : "external/scudo/standalone/vector.h"
  },
  {
   "function_name" : "scudo::VectorNoCtor<char>::init",
   "linker_set_key" : "_ZN5scudo12VectorNoCtorIcE4initEm",
   "parameters" :
   [
    {
     "is_this_ptr" : true,
     "referenced_type" : "_ZTIPN5scudo12VectorNoCtorIcEE"
    },
    {
     "referenced_type" : "_ZTIm"
    }
   ],
   "return_type" : "_ZTIv",
   "source_file" : "external/scudo/standalone/vector.h"
  },
  {
   "function_name" : "scudo::VectorNoCtor<char>::resize",
   "linker_set_key" : "_ZN5scudo12VectorNoCtorIcE6resizeEm",
   "parameters" :
   [
    {
     "is_this_ptr" : true,
     "referenced_type" : "_ZTIPN5scudo12VectorNoCtorIcEE"
    },
    {
     "referenced_type" : "_ZTIm"
    }
   ],
   "return_type" : "_ZTIv",
   "source_file" : "external/scudo/standalone/vector.h"
  },
  {
   "function_name" : "scudo::VectorNoCtor<char>::destroy",
   "linker_set_key" : "_ZN5scudo12VectorNoCtorIcE7destroyEv",
   "parameters" :
   [
    {
     "is_this_ptr" : true,
     "referenced_type" : "_ZTIPN5scudo12VectorNoCtorIcEE"
    }
   ],
   "return_type" : "_ZTIv",
   "source_file" : "external/scudo/standalone/vector.h"
  },
  {
   "function_name" : "scudo::VectorNoCtor<char>::reserve",
   "linker_set_key" : "_ZN5scudo12VectorNoCtorIcE7reserveEm",
   "parameters" :
   [
    {
     "is_this_ptr" : true,
     "referenced_type" : "_ZTIPN5scudo12VectorNoCtorIcEE"
    },
    {
     "referenced_type" : "_ZTIm"
    }
   ],
   "return_type" : "_ZTIv",
   "source_file" : "external/scudo/standalone/vector.h"
  },
  {
   "function_name" : "scudo::VectorNoCtor<char>::operator[]",
   "linker_set_key" : "_ZN5scudo12VectorNoCtorIcEixEm",
   "parameters" :
   [
    {
     "is_this_ptr" : true,
     "referenced_type" : "_ZTIPN5scudo12VectorNoCtorIcEE"
    },
    {
     "referenced_type" : "_ZTIm"
    }
   ],
   "return_type" : "_ZTIRc",
   "source_file" : "external/scudo/standalone/vector.h"
  },
  {
   "function_name" : "scudo::atomic_store",
   "linker_set_key" : "_ZN5scudo12atomic_storeINS_10atomic_s32EEEvPVT_NS2_4TypeENS_12memory_orderE",
   "parameters" :
   [
    {
     "referenced_type" : "_ZTIPVN5scudo10atomic_s32E"
    },
    {
     "referenced_type" : "_ZTIi"
    },
    {
     "referenced_type" : "_ZTIN5scudo12memory_orderE"
    }
   ],
   "return_type" : "_ZTIv",
   "source_file" : "external/scudo/standalone/atomic_helpers.h",
   "template_args" : [ "_ZTIN5scudo10atomic_s32E" ]
  },
  {
   "function_name" : "scudo::atomic_store",
   "linker_set_key" : "_ZN5scudo12atomic_storeINS_10atomic_u32EEEvPVT_NS2_4TypeENS_12memory_orderE",
   "parameters" :
   [
    {
     "referenced_type" : "_ZTIPVN5scudo10atomic_u32E"
    },
    {
     "referenced_type" : "_ZTIj"
    },
    {
     "referenced_type" : "_ZTIN5scudo12memory_orderE"
    }
   ],
   "return_type" : "_ZTIv",
   "source_file" : "external/scudo/standalone/atomic_helpers.h",
   "template_args" : [ "_ZTIN5scudo10atomic_u32E" ]
  },
  {
   "function_name" : "scudo::atomic_store",
   "linker_set_key" : "_ZN5scudo12atomic_storeINS_10atomic_u64EEEvPVT_NS2_4TypeENS_12memory_orderE",
   "parameters" :
   [
    {
     "referenced_type" : "_ZTIPVN5scudo10atomic_u64E"
    },
    {
     "referenced_type" : "_ZTIy"
    },
    {
     "referenced_type" : "_ZTIN5scudo12memory_orderE"
    }
   ],
   "return_type" : "_ZTIv",
   "source_file" : "external/scudo/standalone/atomic_helpers.h",
   "template_args" : [ "_ZTIN5scudo10atomic_u64E" ]
  },
  {
   "function_name" : "scudo::atomic_store",
   "linker_set_key" : "_ZN5scudo12atomic_storeINS_11atomic_uptrEEEvPVT_NS2_4TypeENS_12memory_orderE",
   "parameters" :
   [
    {
     "referenced_type" : "_ZTIPVN5scudo11atomic_uptrE"
    },
    {
     "referenced_type" : "_ZTIm"
    },
    {
     "referenced_type" : "_ZTIN5scudo12memory_orderE"
    }
   ],
   "return_type" : "_ZTIv",
   "source_file" : "external/scudo/standalone/atomic_helpers.h",
   "template_args" : [ "_ZTIN5scudo11atomic_uptrE" ]
  },
  {
   "function_name" : "scudo::getRandomU32",
   "linker_set_key" : "_ZN5scudo12getRandomU32EPj",
   "parameters" :
   [
    {
     "referenced_type" : "_ZTIPj"
    }
   ],
   "return_type" : "_ZTIj",
   "source_file" : "external/scudo/standalone/common.h"
  },
  {
   "function_name" : "scudo::isPowerOfTwo",
   "linker_set_key" : "_ZN5scudo12isPowerOfTwoEm",
   "parameters" :
   [
    {
     "referenced_type" : "_ZTIm"
    }
   ],
   "return_type" : "_ZTIb",
   "source_file" : "external/scudo/standalone/common.h"
  },
  {
   "function_name" : "scudo::mapSecondary",
   "linker_set_key" : "_ZN5scudo12mapSecondaryINS_13AndroidConfigEEEvNS_7OptionsEmmmmPNS_15MapPlatformDataE",
   "parameters" :
   [
    {
     "referenced_type" : "_ZTIN5scudo7OptionsE"
    },
    {
     "referenced_type" : "_ZTIm"
    },
    {
     "referenced_type" : "_ZTIm"
    },
    {
     "referenced_type" : "_ZTIm"
    },
    {
     "referenced_type" : "_ZTIm"
    },
    {
     "referenced_type" : "_ZTIPN5scudo15MapPlatformDataE"
    }
   ],
   "return_type" : "_ZTIv",
   "source_file" : "external/scudo/standalone/secondary.h",
   "template_args" : [ "_ZTIN5scudo13AndroidConfigE" ]
  },
  {
   "function_name" : "scudo::mapSecondary",
   "linker_set_key" : "_ZN5scudo12mapSecondaryINS_19AndroidSvelteConfigEEEvNS_7OptionsEmmmmPNS_15MapPlatformDataE",
   "parameters" :
   [
    {
     "referenced_type" : "_ZTIN5scudo7OptionsE"
    },
    {
     "referenced_type" : "_ZTIm"
    },
    {
     "referenced_type" : "_ZTIm"
    },
    {
     "referenced_type" : "_ZTIm"
    },
    {
     "referenced_type" : "_ZTIm"
    },
    {
     "referenced_type" : "_ZTIPN5scudo15MapPlatformDataE"
    }
   ],
   "return_type" : "_ZTIv",
   "source_file" : "external/scudo/standalone/secondary.h",
   "template_args" : [ "_ZTIN5scudo19AndroidSvelteConfigE" ]
  },
  {
   "function_name" : "scudo::setRandomTag",
   "linker_set_key" : "_ZN5scudo12setRandomTagEPvmmPmS1_",
   "parameters" :
   [
    {
     "referenced_type" : "_ZTIPv"
    },
    {
     "referenced_type" : "_ZTIm"
    },
    {
     "referenced_type" : "_ZTIm"
    },
    {
     "referenced_type" : "_ZTIPm"
    },
    {
     "referenced_type" : "_ZTIPm"
    }
   ],
   "return_type" : "_ZTIv",
   "source_file" : "external/scudo/standalone/memtag.h"
  },
  {
   "function_name" : "scudo::untagPointer",
   "linker_set_key" : "_ZN5scudo12untagPointerEPv",
   "parameters" :
   [
    {
     "referenced_type" : "_ZTIPv"
    }
   ],
   "return_type" : "_ZTIPv",
   "source_file" : "external/scudo/standalone/memtag.h"
  },
  {
   "function_name" : "scudo::untagPointer",
   "linker_set_key" : "_ZN5scudo12untagPointerEm",
   "parameters" :
   [
    {
     "referenced_type" : "_ZTIm"
    }
   ],
   "return_type" : "_ZTIm",
   "source_file" : "external/scudo/standalone/memtag.h"
  },
  {
   "function_name" : "scudo::AtomicOptions::setFillContentsMode",
   "linker_set_key" : "_ZN5scudo13AtomicOptions19setFillContentsModeENS_16FillContentsModeE",
   "parameters" :
   [
    {
     "is_this_ptr" : true,
     "referenced_type" : "_ZTIPN5scudo13AtomicOptionsE"
    },
    {
     "referenced_type" : "_ZTIN5scudo16FillContentsModeE"
    }
   ],
   "return_type" : "_ZTIv",
   "source_file" : "external/scudo/standalone/options.h"
  },
  {
   "function_name" : "scudo::AtomicOptions::set",
   "linker_set_key" : "_ZN5scudo13AtomicOptions3setENS_9OptionBitE",
   "parameters" :
   [
    {
     "is_this_ptr" : true,
     "referenced_type" : "_ZTIPN5scudo13AtomicOptionsE"
    },
    {
     "referenced_type" : "_ZTIN5scudo9OptionBitE"
    }
   ],
   "return_type" : "_ZTIv",
   "source_file" : "external/scudo/standalone/options.h"
  },
  {
   "function_name" : "scudo::AtomicOptions::clear",
   "linker_set_key" : "_ZN5scudo13AtomicOptions5clearENS_9OptionBitE",
   "parameters" :
   [
    {
     "is_this_ptr" : true,
     "referenced_type" : "_ZTIPN5scudo13AtomicOptionsE"
    },
    {
     "referenced_type" : "_ZTIN5scudo9OptionBitE"
    }
   ],
   "return_type" : "_ZTIv",
   "source_file" : "external/scudo/standalone/options.h"
  },
  {
   "function_name" : "scudo::IntrusiveList<scudo::QuarantineBatch>::back",
   "linker_set_key" : "_ZN5scudo13IntrusiveListINS_15QuarantineBatchEE4backEv",
   "parameters" :
   [
    {
     "is_this_ptr" : true,
     "referenced_type" : "_ZTIPN5scudo13IntrusiveListINS_15QuarantineBatchEEE"
    }
   ],
   "return_type" : "_ZTIPN5scudo15QuarantineBatchE",
   "source_file" : "external/scudo/standalone/list.h"
  },
  {
   "function_name" : "scudo::IntrusiveList<scudo::QuarantineBatch>::clear",
   "linker_set_key" : "_ZN5scudo13IntrusiveListINS_15QuarantineBatchEE5clearEv",
   "parameters" :
   [
    {
     "is_this_ptr" : true,
     "referenced_type" : "_ZTIPN5scudo13IntrusiveListINS_15QuarantineBatchEEE"
    }
   ],
   "return_type" : "_ZTIv",
   "source_file" : "external/scudo/standalone/list.h"
  },
  {
   "function_name" : "scudo::IntrusiveList<scudo::QuarantineBatch>::front",
   "linker_set_key" : "_ZN5scudo13IntrusiveListINS_15QuarantineBatchEE5frontEv",
   "parameters" :
   [
    {
     "is_this_ptr" : true,
     "referenced_type" : "_ZTIPN5scudo13IntrusiveListINS_15QuarantineBatchEEE"
    }
   ],
   "return_type" : "_ZTIPN5scudo15QuarantineBatchE",
   "source_file" : "external/scudo/standalone/list.h"
  },
  {
   "function_name" : "scudo::IntrusiveList<scudo::SizeClassAllocatorLocalCache<scudo::SizeClassAllocator32<scudo::AndroidConfig>>::TransferBatch>::front",
   "linker_set_key" : "_ZN5scudo13IntrusiveListINS_28SizeClassAllocatorLocalCacheINS_20SizeClassAllocator32INS_13AndroidConfigEEEE13TransferBatchEE5frontEv",
   "parameters" :
   [
    {
     "is_this_ptr" : true,
     "referenced_type" : "_ZTIPN5scudo13IntrusiveListINS_28SizeClassAllocatorLocalCacheINS_20SizeClassAllocator32INS_13AndroidConfigEEEE13TransferBatchEEE"
    }
   ],
   "return_type" : "_ZTIPN5scudo28SizeClassAllocatorLocalCacheINS_20SizeClassAllocator32INS_13AndroidConfigEEEE13TransferBatchE",
   "source_file" : "external/scudo/standalone/list.h"
  },
  {
   "function_name" : "scudo::IntrusiveList<scudo::SizeClassAllocatorLocalCache<scudo::SizeClassAllocator32<scudo::AndroidSvelteConfig>>::TransferBatch>::front",
   "linker_set_key" : "_ZN5scudo13IntrusiveListINS_28SizeClassAllocatorLocalCacheINS_20SizeClassAllocator32INS_19AndroidSvelteConfigEEEE13TransferBatchEE5frontEv",
   "parameters" :
   [
    {
     "is_this_ptr" : true,
     "referenced_type" : "_ZTIPN5scudo13IntrusiveListINS_28SizeClassAllocatorLocalCacheINS_20SizeClassAllocator32INS_19AndroidSvelteConfigEEEE13TransferBatchEEE"
    }
   ],
   "return_type" : "_ZTIPN5scudo28SizeClassAllocatorLocalCacheINS_20SizeClassAllocator32INS_19AndroidSvelteConfigEEEE13TransferBatchE",
   "source_file" : "external/scudo/standalone/list.h"
  },
  {
   "function_name" : "scudo::getRandomModN",
   "linker_set_key" : "_ZN5scudo13getRandomModNEPjj",
   "parameters" :
   [
    {
     "referenced_type" : "_ZTIPj"
    },
    {
     "referenced_type" : "_ZTIj"
    }
   ],
   "return_type" : "_ZTIj",
   "source_file" : "external/scudo/standalone/common.h"
  },
  {
   "function_name" : "scudo::setErrnoOnNull",
   "linker_set_key" : "_ZN5scudo14setErrnoOnNullEPv",
   "parameters" :
   [
    {
     "referenced_type" : "_ZTIPv"
    }
   ],
   "return_type" : "_ZTIPv",
   "source_file" : "external/scudo/standalone/wrappers_c_checks.h"
  },
  {
   "function_name" : "scudo::yieldProcessor",
   "linker_set_key" : "_ZN5scudo14yieldProcessorEh",
   "parameters" :
   [
    {
     "referenced_type" : "_ZTIh"
    }
   ],
   "return_type" : "_ZTIv",
   "source_file" : "external/scudo/standalone/common.h"
  },
  {
   "function_name" : "scudo::QuarantineBatch::init",
   "linker_set_key" : "_ZN5scudo15QuarantineBatch4initEPvm",
   "parameters" :
   [
    {
     "is_this_ptr" : true,
     "referenced_type" : "_ZTIPN5scudo15QuarantineBatchE"
    },
    {
     "referenced_type" : "_ZTIPv"
    },
    {
     "referenced_type" : "_ZTIm"
    }
   ],
   "return_type" : "_ZTIv",
   "source_file" : "external/scudo/standalone/quarantine.h"
  },
  {
   "function_name" : "scudo::QuarantineBatch::merge",
   "linker_set_key" : "_ZN5scudo15QuarantineBatch5mergeEPS0_",
   "parameters" :
   [
    {
     "is_this_ptr" : true,
     "referenced_type" : "_ZTIPN5scudo15QuarantineBatchE"
    },
    {
     "referenced_type" : "_ZTIKPN5scudo15QuarantineBatchE"
    }
   ],
   "return_type" : "_ZTIv",
   "source_file" : "external/scudo/standalone/quarantine.h"
  },
  {
   "function_name" : "scudo::QuarantineBatch::shuffle",
   "linker_set_key" : "_ZN5scudo15QuarantineBatch7shuffleEj",
   "parameters" :
   [
    {
     "is_this_ptr" : true,
     "referenced_type" : "_ZTIPN5scudo15QuarantineBatchE"
    },
    {
     "referenced_type" : "_ZTIj"
    }
   ],
   "return_type" : "_ZTIv",
   "source_file" : "external/scudo/standalone/quarantine.h"
  },
  {
   "function_name" : "scudo::QuarantineBatch::push_back",
   "linker_set_key" : "_ZN5scudo15QuarantineBatch9push_backEPvm",
   "parameters" :
   [
    {
     "is_this_ptr" : true,
     "referenced_type" : "_ZTIPN5scudo15QuarantineBatchE"
    },
    {
     "referenced_type" : "_ZTIPv"
    },
    {
     "referenced_type" : "_ZTIm"
    }
   ],
   "return_type" : "_ZTIv",
   "source_file" : "external/scudo/standalone/quarantine.h"
  },
  {
   "access" : "private",
   "function_name" : "scudo::QuarantineCache<scudo::Allocator<scudo::AndroidConfig, &scudo_malloc_postinit>::QuarantineCallback>::subFromSize",
   "linker_set_key" : "_ZN5scudo15QuarantineCacheINS_9AllocatorINS_13AndroidConfigEXadL_Z21scudo_malloc_postinitEEE18QuarantineCallbackEE11subFromSizeEm",
   "parameters" :
   [
    {
     "is_this_ptr" : true,
     "referenced_type" : "_ZTIPN5scudo15QuarantineCacheINS_9AllocatorINS_13AndroidConfigEXadL_Z21scudo_malloc_postinitEEE18QuarantineCallbackEEE"
    },
    {
     "referenced_type" : "_ZTIm"
    }
   ],
   "return_type" : "_ZTIv",
   "source_file" : "external/scudo/standalone/quarantine.h"
  },
  {
   "function_name" : "scudo::QuarantineCache<scudo::Allocator<scudo::AndroidConfig, &scudo_malloc_postinit>::QuarantineCallback>::dequeueBatch",
   "linker_set_key" : "_ZN5scudo15QuarantineCacheINS_9AllocatorINS_13AndroidConfigEXadL_Z21scudo_malloc_postinitEEE18QuarantineCallbackEE12dequeueBatchEv",
   "parameters" :
   [
    {
     "is_this_ptr" : true,
     "referenced_type" : "_ZTIPN5scudo15QuarantineCacheINS_9AllocatorINS_13AndroidConfigEXadL_Z21scudo_malloc_postinitEEE18QuarantineCallbackEEE"
    }
   ],
   "return_type" : "_ZTIPN5scudo15QuarantineBatchE",
   "source_file" : "external/scudo/standalone/quarantine.h"
  },
  {
   "function_name" : "scudo::QuarantineCache<scudo::Allocator<scudo::AndroidConfig, &scudo_malloc_postinit>::QuarantineCallback>::enqueueBatch",
   "linker_set_key" : "_ZN5scudo15QuarantineCacheINS_9AllocatorINS_13AndroidConfigEXadL_Z21scudo_malloc_postinitEEE18QuarantineCallbackEE12enqueueBatchEPNS_15QuarantineBatchE",
   "parameters" :
   [
    {
     "is_this_ptr" : true,
     "referenced_type" : "_ZTIPN5scudo15QuarantineCacheINS_9AllocatorINS_13AndroidConfigEXadL_Z21scudo_malloc_postinitEEE18QuarantineCallbackEEE"
    },
    {
     "referenced_type" : "_ZTIPN5scudo15QuarantineBatchE"
    }
   ],
   "return_type" : "_ZTIv",
   "source_file" : "external/scudo/standalone/quarantine.h"
  },
  {
   "function_name" : "scudo::QuarantineCache<scudo::Allocator<scudo::AndroidConfig, &scudo_malloc_postinit>::QuarantineCallback>::mergeBatches",
   "linker_set_key" : "_ZN5scudo15QuarantineCacheINS_9AllocatorINS_13AndroidConfigEXadL_Z21scudo_malloc_postinitEEE18QuarantineCallbackEE12mergeBatchesEPS5_",
   "parameters" :
   [
    {
     "is_this_ptr" : true,
     "referenced_type" : "_ZTIPN5scudo15QuarantineCacheINS_9AllocatorINS_13AndroidConfigEXadL_Z21scudo_malloc_postinitEEE18QuarantineCallbackEEE"
    },
    {
     "referenced_type" : "_ZTIPN5scudo15QuarantineCacheINS_9AllocatorINS_13AndroidConfigEXadL_Z21scudo_malloc_postinitEEE18QuarantineCallbackEEE"
    }
   ],
   "return_type" : "_ZTIv",
   "source_file" : "external/scudo/standalone/quarantine.h"
  },
  {
   "function_name" : "scudo::QuarantineCache<scudo::Allocator<scudo::AndroidConfig, &scudo_malloc_postinit>::QuarantineCallback>::initLinkerInitialized",
   "linker_set_key" : "_ZN5scudo15QuarantineCacheINS_9AllocatorINS_13AndroidConfigEXadL_Z21scudo_malloc_postinitEEE18QuarantineCallbackEE21initLinkerInitializedEv",
   "parameters" :
   [
    {
     "is_this_ptr" : true,
     "referenced_type" : "_ZTIPN5scudo15QuarantineCacheINS_9AllocatorINS_13AndroidConfigEXadL_Z21scudo_malloc_postinitEEE18QuarantineCallbackEEE"
    }
   ],
   "return_type" : "_ZTIv",
   "source_file" : "external/scudo/standalone/quarantine.h"
  },
  {
   "function_name" : "scudo::QuarantineCache<scudo::Allocator<scudo::AndroidConfig, &scudo_malloc_postinit>::QuarantineCallback>::init",
   "linker_set_key" : "_ZN5scudo15QuarantineCacheINS_9AllocatorINS_13AndroidConfigEXadL_Z21scudo_malloc_postinitEEE18QuarantineCallbackEE4initEv",
   "parameters" :
   [
    {
     "is_this_ptr" : true,
     "referenced_type" : "_ZTIPN5scudo15QuarantineCacheINS_9AllocatorINS_13AndroidConfigEXadL_Z21scudo_malloc_postinitEEE18QuarantineCallbackEEE"
    }
   ],
   "return_type" : "_ZTIv",
   "source_file" : "external/scudo/standalone/quarantine.h"
  },
  {
   "function_name" : "scudo::QuarantineCache<scudo::Allocator<scudo::AndroidConfig, &scudo_malloc_postinit>::QuarantineCallback>::enqueue",
   "linker_set_key" : "_ZN5scudo15QuarantineCacheINS_9AllocatorINS_13AndroidConfigEXadL_Z21scudo_malloc_postinitEEE18QuarantineCallbackEE7enqueueES4_Pvm",
   "parameters" :
   [
    {
     "is_this_ptr" : true,
     "referenced_type" : "_ZTIPN5scudo15QuarantineCacheINS_9AllocatorINS_13AndroidConfigEXadL_Z21scudo_malloc_postinitEEE18QuarantineCallbackEEE"
    },
    {
     "referenced_type" : "_ZTIN5scudo9AllocatorINS_13AndroidConfigEXadL_Z21scudo_malloc_postinitEEE18QuarantineCallbackE"
    },
    {
     "referenced_type" : "_ZTIPv"
    },
    {
     "referenced_type" : "_ZTIm"
    }
   ],
   "return_type" : "_ZTIv",
   "source_file" : "external/scudo/standalone/quarantine.h"
  },
  {
   "function_name" : "scudo::QuarantineCache<scudo::Allocator<scudo::AndroidConfig, &scudo_malloc_postinit>::QuarantineCallback>::transfer",
   "linker_set_key" : "_ZN5scudo15QuarantineCacheINS_9AllocatorINS_13AndroidConfigEXadL_Z21scudo_malloc_postinitEEE18QuarantineCallbackEE8transferEPS5_",
   "parameters" :
   [
    {
     "is_this_ptr" : true,
     "referenced_type" : "_ZTIPN5scudo15QuarantineCacheINS_9AllocatorINS_13AndroidConfigEXadL_Z21scudo_malloc_postinitEEE18QuarantineCallbackEEE"
    },
    {
     "referenced_type" : "_ZTIPN5scudo15QuarantineCacheINS_9AllocatorINS_13AndroidConfigEXadL_Z21scudo_malloc_postinitEEE18QuarantineCallbackEEE"
    }
   ],
   "return_type" : "_ZTIv",
   "source_file" : "external/scudo/standalone/quarantine.h"
  },
  {
   "access" : "private",
   "function_name" : "scudo::QuarantineCache<scudo::Allocator<scudo::AndroidConfig, &scudo_malloc_postinit>::QuarantineCallback>::addToSize",
   "linker_set_key" : "_ZN5scudo15QuarantineCacheINS_9AllocatorINS_13AndroidConfigEXadL_Z21scudo_malloc_postinitEEE18QuarantineCallbackEE9addToSizeEm",
   "parameters" :
   [
    {
     "is_this_ptr" : true,
     "referenced_type" : "_ZTIPN5scudo15QuarantineCacheINS_9AllocatorINS_13AndroidConfigEXadL_Z21scudo_malloc_postinitEEE18QuarantineCallbackEEE"
    },
    {
     "referenced_type" : "_ZTIm"
    }
   ],
   "return_type" : "_ZTIv",
   "source_file" : "external/scudo/standalone/quarantine.h"
  },
  {
   "access" : "private",
   "function_name" : "scudo::QuarantineCache<scudo::Allocator<scudo::AndroidSvelteConfig, &scudo_svelte_malloc_postinit>::QuarantineCallback>::subFromSize",
   "linker_set_key" : "_ZN5scudo15QuarantineCacheINS_9AllocatorINS_19AndroidSvelteConfigEXadL_Z28scudo_svelte_malloc_postinitEEE18QuarantineCallbackEE11subFromSizeEm",
   "parameters" :
   [
    {
     "is_this_ptr" : true,
     "referenced_type" : "_ZTIPN5scudo15QuarantineCacheINS_9AllocatorINS_19AndroidSvelteConfigEXadL_Z28scudo_svelte_malloc_postinitEEE18QuarantineCallbackEEE"
    },
    {
     "referenced_type" : "_ZTIm"
    }
   ],
   "return_type" : "_ZTIv",
   "source_file" : "external/scudo/standalone/quarantine.h"
  },
  {
   "function_name" : "scudo::QuarantineCache<scudo::Allocator<scudo::AndroidSvelteConfig, &scudo_svelte_malloc_postinit>::QuarantineCallback>::dequeueBatch",
   "linker_set_key" : "_ZN5scudo15QuarantineCacheINS_9AllocatorINS_19AndroidSvelteConfigEXadL_Z28scudo_svelte_malloc_postinitEEE18QuarantineCallbackEE12dequeueBatchEv",
   "parameters" :
   [
    {
     "is_this_ptr" : true,
     "referenced_type" : "_ZTIPN5scudo15QuarantineCacheINS_9AllocatorINS_19AndroidSvelteConfigEXadL_Z28scudo_svelte_malloc_postinitEEE18QuarantineCallbackEEE"
    }
   ],
   "return_type" : "_ZTIPN5scudo15QuarantineBatchE",
   "source_file" : "external/scudo/standalone/quarantine.h"
  },
  {
   "function_name" : "scudo::QuarantineCache<scudo::Allocator<scudo::AndroidSvelteConfig, &scudo_svelte_malloc_postinit>::QuarantineCallback>::enqueueBatch",
   "linker_set_key" : "_ZN5scudo15QuarantineCacheINS_9AllocatorINS_19AndroidSvelteConfigEXadL_Z28scudo_svelte_malloc_postinitEEE18QuarantineCallbackEE12enqueueBatchEPNS_15QuarantineBatchE",
   "parameters" :
   [
    {
     "is_this_ptr" : true,
     "referenced_type" : "_ZTIPN5scudo15QuarantineCacheINS_9AllocatorINS_19AndroidSvelteConfigEXadL_Z28scudo_svelte_malloc_postinitEEE18QuarantineCallbackEEE"
    },
    {
     "referenced_type" : "_ZTIPN5scudo15QuarantineBatchE"
    }
   ],
   "return_type" : "_ZTIv",
   "source_file" : "external/scudo/standalone/quarantine.h"
  },
  {
   "function_name" : "scudo::QuarantineCache<scudo::Allocator<scudo::AndroidSvelteConfig, &scudo_svelte_malloc_postinit>::QuarantineCallback>::mergeBatches",
   "linker_set_key" : "_ZN5scudo15QuarantineCacheINS_9AllocatorINS_19AndroidSvelteConfigEXadL_Z28scudo_svelte_malloc_postinitEEE18QuarantineCallbackEE12mergeBatchesEPS5_",
   "parameters" :
   [
    {
     "is_this_ptr" : true,
     "referenced_type" : "_ZTIPN5scudo15QuarantineCacheINS_9AllocatorINS_19AndroidSvelteConfigEXadL_Z28scudo_svelte_malloc_postinitEEE18QuarantineCallbackEEE"
    },
    {
     "referenced_type" : "_ZTIPN5scudo15QuarantineCacheINS_9AllocatorINS_19AndroidSvelteConfigEXadL_Z28scudo_svelte_malloc_postinitEEE18QuarantineCallbackEEE"
    }
   ],
   "return_type" : "_ZTIv",
   "source_file" : "external/scudo/standalone/quarantine.h"
  },
  {
   "function_name" : "scudo::QuarantineCache<scudo::Allocator<scudo::AndroidSvelteConfig, &scudo_svelte_malloc_postinit>::QuarantineCallback>::initLinkerInitialized",
   "linker_set_key" : "_ZN5scudo15QuarantineCacheINS_9AllocatorINS_19AndroidSvelteConfigEXadL_Z28scudo_svelte_malloc_postinitEEE18QuarantineCallbackEE21initLinkerInitializedEv",
   "parameters" :
   [
    {
     "is_this_ptr" : true,
     "referenced_type" : "_ZTIPN5scudo15QuarantineCacheINS_9AllocatorINS_19AndroidSvelteConfigEXadL_Z28scudo_svelte_malloc_postinitEEE18QuarantineCallbackEEE"
    }
   ],
   "return_type" : "_ZTIv",
   "source_file" : "external/scudo/standalone/quarantine.h"
  },
  {
   "function_name" : "scudo::QuarantineCache<scudo::Allocator<scudo::AndroidSvelteConfig, &scudo_svelte_malloc_postinit>::QuarantineCallback>::init",
   "linker_set_key" : "_ZN5scudo15QuarantineCacheINS_9AllocatorINS_19AndroidSvelteConfigEXadL_Z28scudo_svelte_malloc_postinitEEE18QuarantineCallbackEE4initEv",
   "parameters" :
   [
    {
     "is_this_ptr" : true,
     "referenced_type" : "_ZTIPN5scudo15QuarantineCacheINS_9AllocatorINS_19AndroidSvelteConfigEXadL_Z28scudo_svelte_malloc_postinitEEE18QuarantineCallbackEEE"
    }
   ],
   "return_type" : "_ZTIv",
   "source_file" : "external/scudo/standalone/quarantine.h"
  },
  {
   "function_name" : "scudo::QuarantineCache<scudo::Allocator<scudo::AndroidSvelteConfig, &scudo_svelte_malloc_postinit>::QuarantineCallback>::enqueue",
   "linker_set_key" : "_ZN5scudo15QuarantineCacheINS_9AllocatorINS_19AndroidSvelteConfigEXadL_Z28scudo_svelte_malloc_postinitEEE18QuarantineCallbackEE7enqueueES4_Pvm",
   "parameters" :
   [
    {
     "is_this_ptr" : true,
     "referenced_type" : "_ZTIPN5scudo15QuarantineCacheINS_9AllocatorINS_19AndroidSvelteConfigEXadL_Z28scudo_svelte_malloc_postinitEEE18QuarantineCallbackEEE"
    },
    {
     "referenced_type" : "_ZTIN5scudo9AllocatorINS_19AndroidSvelteConfigEXadL_Z28scudo_svelte_malloc_postinitEEE18QuarantineCallbackE"
    },
    {
     "referenced_type" : "_ZTIPv"
    },
    {
     "referenced_type" : "_ZTIm"
    }
   ],
   "return_type" : "_ZTIv",
   "source_file" : "external/scudo/standalone/quarantine.h"
  },
  {
   "function_name" : "scudo::QuarantineCache<scudo::Allocator<scudo::AndroidSvelteConfig, &scudo_svelte_malloc_postinit>::QuarantineCallback>::transfer",
   "linker_set_key" : "_ZN5scudo15QuarantineCacheINS_9AllocatorINS_19AndroidSvelteConfigEXadL_Z28scudo_svelte_malloc_postinitEEE18QuarantineCallbackEE8transferEPS5_",
   "parameters" :
   [
    {
     "is_this_ptr" : true,
     "referenced_type" : "_ZTIPN5scudo15QuarantineCacheINS_9AllocatorINS_19AndroidSvelteConfigEXadL_Z28scudo_svelte_malloc_postinitEEE18QuarantineCallbackEEE"
    },
    {
     "referenced_type" : "_ZTIPN5scudo15QuarantineCacheINS_9AllocatorINS_19AndroidSvelteConfigEXadL_Z28scudo_svelte_malloc_postinitEEE18QuarantineCallbackEEE"
    }
   ],
   "return_type" : "_ZTIv",
   "source_file" : "external/scudo/standalone/quarantine.h"
  },
  {
   "access" : "private",
   "function_name" : "scudo::QuarantineCache<scudo::Allocator<scudo::AndroidSvelteConfig, &scudo_svelte_malloc_postinit>::QuarantineCallback>::addToSize",
   "linker_set_key" : "_ZN5scudo15QuarantineCacheINS_9AllocatorINS_19AndroidSvelteConfigEXadL_Z28scudo_svelte_malloc_postinitEEE18QuarantineCallbackEE9addToSizeEm",
   "parameters" :
   [
    {
     "is_this_ptr" : true,
     "referenced_type" : "_ZTIPN5scudo15QuarantineCacheINS_9AllocatorINS_19AndroidSvelteConfigEXadL_Z28scudo_svelte_malloc_postinitEEE18QuarantineCallbackEEE"
    },
    {
     "referenced_type" : "_ZTIm"
    }
   ],
   "return_type" : "_ZTIv",
   "source_file" : "external/scudo/standalone/quarantine.h"
  },
  {
   "function_name" : "scudo::ReleaseRecorder::releasePageRangeToOS",
   "linker_set_key" : "_ZN5scudo15ReleaseRecorder20releasePageRangeToOSEmm",
   "parameters" :
   [
    {
     "is_this_ptr" : true,
     "referenced_type" : "_ZTIPN5scudo15ReleaseRecorderE"
    },
    {
     "referenced_type" : "_ZTIm"
    },
    {
     "referenced_type" : "_ZTIm"
    }
   ],
   "return_type" : "_ZTIv",
   "source_file" : "external/scudo/standalone/release.h"
  },
  {
   "function_name" : "scudo::ReleaseRecorder::ReleaseRecorder",
   "linker_set_key" : "_ZN5scudo15ReleaseRecorderC1EmPNS_15MapPlatformDataE",
   "parameters" :
   [
    {
     "is_this_ptr" : true,
     "referenced_type" : "_ZTIPN5scudo15ReleaseRecorderE"
    },
    {
     "referenced_type" : "_ZTIm"
    },
    {
     "default_arg" : true,
     "referenced_type" : "_ZTIPN5scudo15MapPlatformDataE"
    }
   ],
   "return_type" : "_ZTIv",
   "source_file" : "external/scudo/standalone/release.h"
  },
  {
   "function_name" : "scudo::ReleaseRecorder::ReleaseRecorder",
   "linker_set_key" : "_ZN5scudo15ReleaseRecorderC2EmPNS_15MapPlatformDataE",
   "parameters" :
   [
    {
     "is_this_ptr" : true,
     "referenced_type" : "_ZTIPN5scudo15ReleaseRecorderE"
    },
    {
     "referenced_type" : "_ZTIm"
    },
    {
     "default_arg" : true,
     "referenced_type" : "_ZTIPN5scudo15MapPlatformDataE"
    }
   ],
   "return_type" : "_ZTIv",
   "source_file" : "external/scudo/standalone/release.h"
  },
  {
   "function_name" : "scudo::atomic_fetch_or",
   "linker_set_key" : "_ZN5scudo15atomic_fetch_orINS_10atomic_u32EEENT_4TypeEPVS2_S3_NS_12memory_orderE",
   "parameters" :
   [
    {
     "referenced_type" : "_ZTIPVN5scudo10atomic_u32E"
    },
    {
     "referenced_type" : "_ZTIj"
    },
    {
     "referenced_type" : "_ZTIN5scudo12memory_orderE"
    }
   ],
   "return_type" : "_ZTIj",
   "source_file" : "external/scudo/standalone/atomic_helpers.h",
   "template_args" : [ "_ZTIN5scudo10atomic_u32E" ]
  },
  {
   "function_name" : "scudo::computeChecksum",
   "linker_set_key" : "_ZN5scudo15computeChecksumEjmPmm",
   "parameters" :
   [
    {
     "referenced_type" : "_ZTIj"
    },
    {
     "referenced_type" : "_ZTIm"
    },
    {
     "referenced_type" : "_ZTIPm"
    },
    {
     "referenced_type" : "_ZTIm"
    }
   ],
   "return_type" : "_ZTIt",
   "source_file" : "external/scudo/standalone/chunk.h"
  },
  {
   "function_name" : "scudo::selectRandomTag",
   "linker_set_key" : "_ZN5scudo15selectRandomTagEmm",
   "parameters" :
   [
    {
     "referenced_type" : "_ZTIm"
    },
    {
     "referenced_type" : "_ZTIm"
    }
   ],
   "return_type" : "_ZTIm",
   "source_file" : "external/scudo/standalone/memtag.h"
  },
  {
   "function_name" : "scudo::DoublyLinkedList<scudo::LargeBlock::Header>::remove",
   "linker_set_key" : "_ZN5scudo16DoublyLinkedListINS_10LargeBlock6HeaderEE6removeEPS2_",
   "parameters" :
   [
    {
     "is_this_ptr" : true,
     "referenced_type" : "_ZTIPN5scudo16DoublyLinkedListINS_10LargeBlock6HeaderEEE"
    },
    {
     "referenced_type" : "_ZTIPN5scudo10LargeBlock6HeaderE"
    }
   ],
   "return_type" : "_ZTIv",
   "source_file" : "external/scudo/standalone/list.h"
  },
  {
   "function_name" : "scudo::DoublyLinkedList<scudo::LargeBlock::Header>::push_back",
   "linker_set_key" : "_ZN5scudo16DoublyLinkedListINS_10LargeBlock6HeaderEE9push_backEPS2_",
   "parameters" :
   [
    {
     "is_this_ptr" : true,
     "referenced_type" : "_ZTIPN5scudo16DoublyLinkedListINS_10LargeBlock6HeaderEEE"
    },
    {
     "referenced_type" : "_ZTIPN5scudo10LargeBlock6HeaderE"
    }
   ],
   "return_type" : "_ZTIv",
   "source_file" : "external/scudo/standalone/list.h"
  },
  {
   "function_name" : "scudo::DoublyLinkedList<scudo::LocalStats>::remove",
   "linker_set_key" : "_ZN5scudo16DoublyLinkedListINS_10LocalStatsEE6removeEPS1_",
   "parameters" :
   [
    {
     "is_this_ptr" : true,
     "referenced_type" : "_ZTIPN5scudo16DoublyLinkedListINS_10LocalStatsEEE"
    },
    {
     "referenced_type" : "_ZTIPN5scudo10LocalStatsE"
    }
   ],
   "return_type" : "_ZTIv",
   "source_file" : "external/scudo/standalone/list.h"
  },
  {
   "function_name" : "scudo::DoublyLinkedList<scudo::LocalStats>::push_back",
   "linker_set_key" : "_ZN5scudo16DoublyLinkedListINS_10LocalStatsEE9push_backEPS1_",
   "parameters" :
   [
    {
     "is_this_ptr" : true,
     "referenced_type" : "_ZTIPN5scudo16DoublyLinkedListINS_10LocalStatsEEE"
    },
    {
     "referenced_type" : "_ZTIPN5scudo10LocalStatsE"
    }
   ],
   "return_type" : "_ZTIv",
   "source_file" : "external/scudo/standalone/list.h"
  },
  {
   "function_name" : "scudo::GlobalQuarantine<scudo::Allocator<scudo::AndroidConfig, &scudo_malloc_postinit>::QuarantineCallback, void>::initLinkerInitialized",
   "linker_set_key" : "_ZN5scudo16GlobalQuarantineINS_9AllocatorINS_13AndroidConfigEXadL_Z21scudo_malloc_postinitEEE18QuarantineCallbackEvE21initLinkerInitializedEmm",
   "parameters" :
   [
    {
     "is_this_ptr" : true,
     "referenced_type" : "_ZTIPN5scudo16GlobalQuarantineINS_9AllocatorINS_13AndroidConfigEXadL_Z21scudo_malloc_postinitEEE18QuarantineCallbackEvEE"
    },
    {
     "referenced_type" : "_ZTIm"
    },
    {
     "referenced_type" : "_ZTIm"
    }
   ],
   "return_type" : "_ZTIv",
   "source_file" : "external/scudo/standalone/quarantine.h"
  },
  {
   "function_name" : "scudo::GlobalQuarantine<scudo::Allocator<scudo::AndroidConfig, &scudo_malloc_postinit>::QuarantineCallback, void>::put",
   "linker_set_key" : "_ZN5scudo16GlobalQuarantineINS_9AllocatorINS_13AndroidConfigEXadL_Z21scudo_malloc_postinitEEE18QuarantineCallbackEvE3putEPNS_15QuarantineCacheIS4_EES4_Pvm",
   "parameters" :
   [
    {
     "is_this_ptr" : true,
     "referenced_type" : "_ZTIPN5scudo16GlobalQuarantineINS_9AllocatorINS_13AndroidConfigEXadL_Z21scudo_malloc_postinitEEE18QuarantineCallbackEvEE"
    },
    {
     "referenced_type" : "_ZTIPN5scudo15QuarantineCacheINS_9AllocatorINS_13AndroidConfigEXadL_Z21scudo_malloc_postinitEEE18QuarantineCallbackEEE"
    },
    {
     "referenced_type" : "_ZTIN5scudo9AllocatorINS_13AndroidConfigEXadL_Z21scudo_malloc_postinitEEE18QuarantineCallbackE"
    },
    {
     "referenced_type" : "_ZTIPv"
    },
    {
     "referenced_type" : "_ZTIm"
    }
   ],
   "return_type" : "_ZTIv",
   "source_file" : "external/scudo/standalone/quarantine.h"
  },
  {
   "function_name" : "scudo::GlobalQuarantine<scudo::Allocator<scudo::AndroidConfig, &scudo_malloc_postinit>::QuarantineCallback, void>::init",
   "linker_set_key" : "_ZN5scudo16GlobalQuarantineINS_9AllocatorINS_13AndroidConfigEXadL_Z21scudo_malloc_postinitEEE18QuarantineCallbackEvE4initEmm",
   "parameters" :
   [
    {
     "is_this_ptr" : true,
     "referenced_type" : "_ZTIPN5scudo16GlobalQuarantineINS_9AllocatorINS_13AndroidConfigEXadL_Z21scudo_malloc_postinitEEE18QuarantineCallbackEvEE"
    },
    {
     "referenced_type" : "_ZTIm"
    },
    {
     "referenced_type" : "_ZTIm"
    }
   ],
   "return_type" : "_ZTIv",
   "source_file" : "external/scudo/standalone/quarantine.h"
  },
  {
   "function_name" : "scudo::GlobalQuarantine<scudo::Allocator<scudo::AndroidConfig, &scudo_malloc_postinit>::QuarantineCallback, void>::drain",
   "linker_set_key" : "_ZN5scudo16GlobalQuarantineINS_9AllocatorINS_13AndroidConfigEXadL_Z21scudo_malloc_postinitEEE18QuarantineCallbackEvE5drainEPNS_15QuarantineCacheIS4_EES4_",
   "parameters" :
   [
    {
     "is_this_ptr" : true,
     "referenced_type" : "_ZTIPN5scudo16GlobalQuarantineINS_9AllocatorINS_13AndroidConfigEXadL_Z21scudo_malloc_postinitEEE18QuarantineCallbackEvEE"
    },
    {
     "referenced_type" : "_ZTIPN5scudo15QuarantineCacheINS_9AllocatorINS_13AndroidConfigEXadL_Z21scudo_malloc_postinitEEE18QuarantineCallbackEEE"
    },
    {
     "referenced_type" : "_ZTIN5scudo9AllocatorINS_13AndroidConfigEXadL_Z21scudo_malloc_postinitEEE18QuarantineCallbackE"
    }
   ],
   "return_type" : "_ZTIv",
   "source_file" : "external/scudo/standalone/quarantine.h"
  },
  {
   "function_name" : "scudo::GlobalQuarantine<scudo::Allocator<scudo::AndroidConfig, &scudo_malloc_postinit>::QuarantineCallback, void>::enable",
   "linker_set_key" : "_ZN5scudo16GlobalQuarantineINS_9AllocatorINS_13AndroidConfigEXadL_Z21scudo_malloc_postinitEEE18QuarantineCallbackEvE6enableEv",
   "parameters" :
   [
    {
     "is_this_ptr" : true,
     "referenced_type" : "_ZTIPN5scudo16GlobalQuarantineINS_9AllocatorINS_13AndroidConfigEXadL_Z21scudo_malloc_postinitEEE18QuarantineCallbackEvEE"
    }
   ],
   "return_type" : "_ZTIv",
   "source_file" : "external/scudo/standalone/quarantine.h"
  },
  {
   "function_name" : "scudo::GlobalQuarantine<scudo::Allocator<scudo::AndroidConfig, &scudo_malloc_postinit>::QuarantineCallback, void>::disable",
   "linker_set_key" : "_ZN5scudo16GlobalQuarantineINS_9AllocatorINS_13AndroidConfigEXadL_Z21scudo_malloc_postinitEEE18QuarantineCallbackEvE7disableEv",
   "parameters" :
   [
    {
     "is_this_ptr" : true,
     "referenced_type" : "_ZTIPN5scudo16GlobalQuarantineINS_9AllocatorINS_13AndroidConfigEXadL_Z21scudo_malloc_postinitEEE18QuarantineCallbackEvEE"
    }
   ],
   "return_type" : "_ZTIv",
   "source_file" : "external/scudo/standalone/quarantine.h"
  },
  {
   "access" : "private",
   "function_name" : "scudo::GlobalQuarantine<scudo::Allocator<scudo::AndroidConfig, &scudo_malloc_postinit>::QuarantineCallback, void>::recycle",
   "linker_set_key" : "_ZN5scudo16GlobalQuarantineINS_9AllocatorINS_13AndroidConfigEXadL_Z21scudo_malloc_postinitEEE18QuarantineCallbackEvE7recycleEmS4_",
   "parameters" :
   [
    {
     "is_this_ptr" : true,
     "referenced_type" : "_ZTIPN5scudo16GlobalQuarantineINS_9AllocatorINS_13AndroidConfigEXadL_Z21scudo_malloc_postinitEEE18QuarantineCallbackEvEE"
    },
    {
     "referenced_type" : "_ZTIm"
    },
    {
     "referenced_type" : "_ZTIN5scudo9AllocatorINS_13AndroidConfigEXadL_Z21scudo_malloc_postinitEEE18QuarantineCallbackE"
    }
   ],
   "return_type" : "_ZTIv",
   "source_file" : "external/scudo/standalone/quarantine.h"
  },
  {
   "access" : "private",
   "function_name" : "scudo::GlobalQuarantine<scudo::Allocator<scudo::AndroidConfig, &scudo_malloc_postinit>::QuarantineCallback, void>::doRecycle",
   "linker_set_key" : "_ZN5scudo16GlobalQuarantineINS_9AllocatorINS_13AndroidConfigEXadL_Z21scudo_malloc_postinitEEE18QuarantineCallbackEvE9doRecycleEPNS_15QuarantineCacheIS4_EES4_",
   "parameters" :
   [
    {
     "is_this_ptr" : true,
     "referenced_type" : "_ZTIPN5scudo16GlobalQuarantineINS_9AllocatorINS_13AndroidConfigEXadL_Z21scudo_malloc_postinitEEE18QuarantineCallbackEvEE"
    },
    {
     "referenced_type" : "_ZTIPN5scudo15QuarantineCacheINS_9AllocatorINS_13AndroidConfigEXadL_Z21scudo_malloc_postinitEEE18QuarantineCallbackEEE"
    },
    {
     "referenced_type" : "_ZTIN5scudo9AllocatorINS_13AndroidConfigEXadL_Z21scudo_malloc_postinitEEE18QuarantineCallbackE"
    }
   ],
   "return_type" : "_ZTIv",
   "source_file" : "external/scudo/standalone/quarantine.h"
  },
  {
   "function_name" : "scudo::GlobalQuarantine<scudo::Allocator<scudo::AndroidSvelteConfig, &scudo_svelte_malloc_postinit>::QuarantineCallback, void>::initLinkerInitialized",
   "linker_set_key" : "_ZN5scudo16GlobalQuarantineINS_9AllocatorINS_19AndroidSvelteConfigEXadL_Z28scudo_svelte_malloc_postinitEEE18QuarantineCallbackEvE21initLinkerInitializedEmm",
   "parameters" :
   [
    {
     "is_this_ptr" : true,
     "referenced_type" : "_ZTIPN5scudo16GlobalQuarantineINS_9AllocatorINS_19AndroidSvelteConfigEXadL_Z28scudo_svelte_malloc_postinitEEE18QuarantineCallbackEvEE"
    },
    {
     "referenced_type" : "_ZTIm"
    },
    {
     "referenced_type" : "_ZTIm"
    }
   ],
   "return_type" : "_ZTIv",
   "source_file" : "external/scudo/standalone/quarantine.h"
  },
  {
   "function_name" : "scudo::GlobalQuarantine<scudo::Allocator<scudo::AndroidSvelteConfig, &scudo_svelte_malloc_postinit>::QuarantineCallback, void>::put",
   "linker_set_key" : "_ZN5scudo16GlobalQuarantineINS_9AllocatorINS_19AndroidSvelteConfigEXadL_Z28scudo_svelte_malloc_postinitEEE18QuarantineCallbackEvE3putEPNS_15QuarantineCacheIS4_EES4_Pvm",
   "parameters" :
   [
    {
     "is_this_ptr" : true,
     "referenced_type" : "_ZTIPN5scudo16GlobalQuarantineINS_9AllocatorINS_19AndroidSvelteConfigEXadL_Z28scudo_svelte_malloc_postinitEEE18QuarantineCallbackEvEE"
    },
    {
     "referenced_type" : "_ZTIPN5scudo15QuarantineCacheINS_9AllocatorINS_19AndroidSvelteConfigEXadL_Z28scudo_svelte_malloc_postinitEEE18QuarantineCallbackEEE"
    },
    {
     "referenced_type" : "_ZTIN5scudo9AllocatorINS_19AndroidSvelteConfigEXadL_Z28scudo_svelte_malloc_postinitEEE18QuarantineCallbackE"
    },
    {
     "referenced_type" : "_ZTIPv"
    },
    {
     "referenced_type" : "_ZTIm"
    }
   ],
   "return_type" : "_ZTIv",
   "source_file" : "external/scudo/standalone/quarantine.h"
  },
  {
   "function_name" : "scudo::GlobalQuarantine<scudo::Allocator<scudo::AndroidSvelteConfig, &scudo_svelte_malloc_postinit>::QuarantineCallback, void>::init",
   "linker_set_key" : "_ZN5scudo16GlobalQuarantineINS_9AllocatorINS_19AndroidSvelteConfigEXadL_Z28scudo_svelte_malloc_postinitEEE18QuarantineCallbackEvE4initEmm",
   "parameters" :
   [
    {
     "is_this_ptr" : true,
     "referenced_type" : "_ZTIPN5scudo16GlobalQuarantineINS_9AllocatorINS_19AndroidSvelteConfigEXadL_Z28scudo_svelte_malloc_postinitEEE18QuarantineCallbackEvEE"
    },
    {
     "referenced_type" : "_ZTIm"
    },
    {
     "referenced_type" : "_ZTIm"
    }
   ],
   "return_type" : "_ZTIv",
   "source_file" : "external/scudo/standalone/quarantine.h"
  },
  {
   "function_name" : "scudo::GlobalQuarantine<scudo::Allocator<scudo::AndroidSvelteConfig, &scudo_svelte_malloc_postinit>::QuarantineCallback, void>::drain",
   "linker_set_key" : "_ZN5scudo16GlobalQuarantineINS_9AllocatorINS_19AndroidSvelteConfigEXadL_Z28scudo_svelte_malloc_postinitEEE18QuarantineCallbackEvE5drainEPNS_15QuarantineCacheIS4_EES4_",
   "parameters" :
   [
    {
     "is_this_ptr" : true,
     "referenced_type" : "_ZTIPN5scudo16GlobalQuarantineINS_9AllocatorINS_19AndroidSvelteConfigEXadL_Z28scudo_svelte_malloc_postinitEEE18QuarantineCallbackEvEE"
    },
    {
     "referenced_type" : "_ZTIPN5scudo15QuarantineCacheINS_9AllocatorINS_19AndroidSvelteConfigEXadL_Z28scudo_svelte_malloc_postinitEEE18QuarantineCallbackEEE"
    },
    {
     "referenced_type" : "_ZTIN5scudo9AllocatorINS_19AndroidSvelteConfigEXadL_Z28scudo_svelte_malloc_postinitEEE18QuarantineCallbackE"
    }
   ],
   "return_type" : "_ZTIv",
   "source_file" : "external/scudo/standalone/quarantine.h"
  },
  {
   "function_name" : "scudo::GlobalQuarantine<scudo::Allocator<scudo::AndroidSvelteConfig, &scudo_svelte_malloc_postinit>::QuarantineCallback, void>::enable",
   "linker_set_key" : "_ZN5scudo16GlobalQuarantineINS_9AllocatorINS_19AndroidSvelteConfigEXadL_Z28scudo_svelte_malloc_postinitEEE18QuarantineCallbackEvE6enableEv",
   "parameters" :
   [
    {
     "is_this_ptr" : true,
     "referenced_type" : "_ZTIPN5scudo16GlobalQuarantineINS_9AllocatorINS_19AndroidSvelteConfigEXadL_Z28scudo_svelte_malloc_postinitEEE18QuarantineCallbackEvEE"
    }
   ],
   "return_type" : "_ZTIv",
   "source_file" : "external/scudo/standalone/quarantine.h"
  },
  {
   "function_name" : "scudo::GlobalQuarantine<scudo::Allocator<scudo::AndroidSvelteConfig, &scudo_svelte_malloc_postinit>::QuarantineCallback, void>::disable",
   "linker_set_key" : "_ZN5scudo16GlobalQuarantineINS_9AllocatorINS_19AndroidSvelteConfigEXadL_Z28scudo_svelte_malloc_postinitEEE18QuarantineCallbackEvE7disableEv",
   "parameters" :
   [
    {
     "is_this_ptr" : true,
     "referenced_type" : "_ZTIPN5scudo16GlobalQuarantineINS_9AllocatorINS_19AndroidSvelteConfigEXadL_Z28scudo_svelte_malloc_postinitEEE18QuarantineCallbackEvEE"
    }
   ],
   "return_type" : "_ZTIv",
   "source_file" : "external/scudo/standalone/quarantine.h"
  },
  {
   "access" : "private",
   "function_name" : "scudo::GlobalQuarantine<scudo::Allocator<scudo::AndroidSvelteConfig, &scudo_svelte_malloc_postinit>::QuarantineCallback, void>::recycle",
   "linker_set_key" : "_ZN5scudo16GlobalQuarantineINS_9AllocatorINS_19AndroidSvelteConfigEXadL_Z28scudo_svelte_malloc_postinitEEE18QuarantineCallbackEvE7recycleEmS4_",
   "parameters" :
   [
    {
     "is_this_ptr" : true,
     "referenced_type" : "_ZTIPN5scudo16GlobalQuarantineINS_9AllocatorINS_19AndroidSvelteConfigEXadL_Z28scudo_svelte_malloc_postinitEEE18QuarantineCallbackEvEE"
    },
    {
     "referenced_type" : "_ZTIm"
    },
    {
     "referenced_type" : "_ZTIN5scudo9AllocatorINS_19AndroidSvelteConfigEXadL_Z28scudo_svelte_malloc_postinitEEE18QuarantineCallbackE"
    }
   ],
   "return_type" : "_ZTIv",
   "source_file" : "external/scudo/standalone/quarantine.h"
  },
  {
   "access" : "private",
   "function_name" : "scudo::GlobalQuarantine<scudo::Allocator<scudo::AndroidSvelteConfig, &scudo_svelte_malloc_postinit>::QuarantineCallback, void>::doRecycle",
   "linker_set_key" : "_ZN5scudo16GlobalQuarantineINS_9AllocatorINS_19AndroidSvelteConfigEXadL_Z28scudo_svelte_malloc_postinitEEE18QuarantineCallbackEvE9doRecycleEPNS_15QuarantineCacheIS4_EES4_",
   "parameters" :
   [
    {
     "is_this_ptr" : true,
     "referenced_type" : "_ZTIPN5scudo16GlobalQuarantineINS_9AllocatorINS_19AndroidSvelteConfigEXadL_Z28scudo_svelte_malloc_postinitEEE18QuarantineCallbackEvEE"
    },
    {
     "referenced_type" : "_ZTIPN5scudo15QuarantineCacheINS_9AllocatorINS_19AndroidSvelteConfigEXadL_Z28scudo_svelte_malloc_postinitEEE18QuarantineCallbackEEE"
    },
    {
     "referenced_type" : "_ZTIN5scudo9AllocatorINS_19AndroidSvelteConfigEXadL_Z28scudo_svelte_malloc_postinitEEE18QuarantineCallbackE"
    }
   ],
   "return_type" : "_ZTIv",
   "source_file" : "external/scudo/standalone/quarantine.h"
  },
  {
   "function_name" : "scudo::SinglyLinkedList<scudo::QuarantineBatch>::append_back",
   "linker_set_key" : "_ZN5scudo16SinglyLinkedListINS_15QuarantineBatchEE11append_backEPS2_",
   "parameters" :
   [
    {
     "is_this_ptr" : true,
     "referenced_type" : "_ZTIPN5scudo16SinglyLinkedListINS_15QuarantineBatchEEE"
    },
    {
     "referenced_type" : "_ZTIPN5scudo16SinglyLinkedListINS_15QuarantineBatchEEE"
    }
   ],
   "return_type" : "_ZTIv",
   "source_file" : "external/scudo/standalone/list.h"
  },
  {
   "function_name" : "scudo::SinglyLinkedList<scudo::QuarantineBatch>::extract",
   "linker_set_key" : "_ZN5scudo16SinglyLinkedListINS_15QuarantineBatchEE7extractEPS1_S3_",
   "parameters" :
   [
    {
     "is_this_ptr" : true,
     "referenced_type" : "_ZTIPN5scudo16SinglyLinkedListINS_15QuarantineBatchEEE"
    },
    {
     "referenced_type" : "_ZTIPN5scudo15QuarantineBatchE"
    },
    {
     "referenced_type" : "_ZTIPN5scudo15QuarantineBatchE"
    }
   ],
   "return_type" : "_ZTIv",
   "source_file" : "external/scudo/standalone/list.h"
  },
  {
   "function_name" : "scudo::SinglyLinkedList<scudo::QuarantineBatch>::pop_front",
   "linker_set_key" : "_ZN5scudo16SinglyLinkedListINS_15QuarantineBatchEE9pop_frontEv",
   "parameters" :
   [
    {
     "is_this_ptr" : true,
     "referenced_type" : "_ZTIPN5scudo16SinglyLinkedListINS_15QuarantineBatchEEE"
    }
   ],
   "return_type" : "_ZTIv",
   "source_file" : "external/scudo/standalone/list.h"
  },
  {
   "function_name" : "scudo::SinglyLinkedList<scudo::QuarantineBatch>::push_back",
   "linker_set_key" : "_ZN5scudo16SinglyLinkedListINS_15QuarantineBatchEE9push_backEPS1_",
   "parameters" :
   [
    {
     "is_this_ptr" : true,
     "referenced_type" : "_ZTIPN5scudo16SinglyLinkedListINS_15QuarantineBatchEEE"
    },
    {
     "referenced_type" : "_ZTIPN5scudo15QuarantineBatchE"
    }
   ],
   "return_type" : "_ZTIv",
   "source_file" : "external/scudo/standalone/list.h"
  },
  {
   "function_name" : "scudo::SinglyLinkedList<scudo::SizeClassAllocatorLocalCache<scudo::SizeClassAllocator32<scudo::AndroidConfig>>::TransferBatch>::push_front",
   "linker_set_key" : "_ZN5scudo16SinglyLinkedListINS_28SizeClassAllocatorLocalCacheINS_20SizeClassAllocator32INS_13AndroidConfigEEEE13TransferBatchEE10push_frontEPS6_",
   "parameters" :
   [
    {
     "is_this_ptr" : true,
     "referenced_type" : "_ZTIPN5scudo16SinglyLinkedListINS_28SizeClassAllocatorLocalCacheINS_20SizeClassAllocator32INS_13AndroidConfigEEEE13TransferBatchEEE"
    },
    {
     "referenced_type" : "_ZTIPN5scudo28SizeClassAllocatorLocalCacheINS_20SizeClassAllocator32INS_13AndroidConfigEEEE13TransferBatchE"
    }
   ],
   "return_type" : "_ZTIv",
   "source_file" : "external/scudo/standalone/list.h"
  },
  {
   "function_name" : "scudo::SinglyLinkedList<scudo::SizeClassAllocatorLocalCache<scudo::SizeClassAllocator32<scudo::AndroidConfig>>::TransferBatch>::pop_front",
   "linker_set_key" : "_ZN5scudo16SinglyLinkedListINS_28SizeClassAllocatorLocalCacheINS_20SizeClassAllocator32INS_13AndroidConfigEEEE13TransferBatchEE9pop_frontEv",
   "parameters" :
   [
    {
     "is_this_ptr" : true,
     "referenced_type" : "_ZTIPN5scudo16SinglyLinkedListINS_28SizeClassAllocatorLocalCacheINS_20SizeClassAllocator32INS_13AndroidConfigEEEE13TransferBatchEEE"
    }
   ],
   "return_type" : "_ZTIv",
   "source_file" : "external/scudo/standalone/list.h"
  },
  {
   "function_name" : "scudo::SinglyLinkedList<scudo::SizeClassAllocatorLocalCache<scudo::SizeClassAllocator32<scudo::AndroidConfig>>::TransferBatch>::push_back",
   "linker_set_key" : "_ZN5scudo16SinglyLinkedListINS_28SizeClassAllocatorLocalCacheINS_20SizeClassAllocator32INS_13AndroidConfigEEEE13TransferBatchEE9push_backEPS6_",
   "parameters" :
   [
    {
     "is_this_ptr" : true,
     "referenced_type" : "_ZTIPN5scudo16SinglyLinkedListINS_28SizeClassAllocatorLocalCacheINS_20SizeClassAllocator32INS_13AndroidConfigEEEE13TransferBatchEEE"
    },
    {
     "referenced_type" : "_ZTIPN5scudo28SizeClassAllocatorLocalCacheINS_20SizeClassAllocator32INS_13AndroidConfigEEEE13TransferBatchE"
    }
   ],
   "return_type" : "_ZTIv",
   "source_file" : "external/scudo/standalone/list.h"
  },
  {
   "function_name" : "scudo::SinglyLinkedList<scudo::SizeClassAllocatorLocalCache<scudo::SizeClassAllocator32<scudo::AndroidSvelteConfig>>::TransferBatch>::push_front",
   "linker_set_key" : "_ZN5scudo16SinglyLinkedListINS_28SizeClassAllocatorLocalCacheINS_20SizeClassAllocator32INS_19AndroidSvelteConfigEEEE13TransferBatchEE10push_frontEPS6_",
   "parameters" :
   [
    {
     "is_this_ptr" : true,
     "referenced_type" : "_ZTIPN5scudo16SinglyLinkedListINS_28SizeClassAllocatorLocalCacheINS_20SizeClassAllocator32INS_19AndroidSvelteConfigEEEE13TransferBatchEEE"
    },
    {
     "referenced_type" : "_ZTIPN5scudo28SizeClassAllocatorLocalCacheINS_20SizeClassAllocator32INS_19AndroidSvelteConfigEEEE13TransferBatchE"
    }
   ],
   "return_type" : "_ZTIv",
   "source_file" : "external/scudo/standalone/list.h"
  },
  {
   "function_name" : "scudo::SinglyLinkedList<scudo::SizeClassAllocatorLocalCache<scudo::SizeClassAllocator32<scudo::AndroidSvelteConfig>>::TransferBatch>::pop_front",
   "linker_set_key" : "_ZN5scudo16SinglyLinkedListINS_28SizeClassAllocatorLocalCacheINS_20SizeClassAllocator32INS_19AndroidSvelteConfigEEEE13TransferBatchEE9pop_frontEv",
   "parameters" :
   [
    {
     "is_this_ptr" : true,
     "referenced_type" : "_ZTIPN5scudo16SinglyLinkedListINS_28SizeClassAllocatorLocalCacheINS_20SizeClassAllocator32INS_19AndroidSvelteConfigEEEE13TransferBatchEEE"
    }
   ],
   "return_type" : "_ZTIv",
   "source_file" : "external/scudo/standalone/list.h"
  },
  {
   "function_name" : "scudo::SinglyLinkedList<scudo::SizeClassAllocatorLocalCache<scudo::SizeClassAllocator32<scudo::AndroidSvelteConfig>>::TransferBatch>::push_back",
   "linker_set_key" : "_ZN5scudo16SinglyLinkedListINS_28SizeClassAllocatorLocalCacheINS_20SizeClassAllocator32INS_19AndroidSvelteConfigEEEE13TransferBatchEE9push_backEPS6_",
   "parameters" :
   [
    {
     "is_this_ptr" : true,
     "referenced_type" : "_ZTIPN5scudo16SinglyLinkedListINS_28SizeClassAllocatorLocalCacheINS_20SizeClassAllocator32INS_19AndroidSvelteConfigEEEE13TransferBatchEEE"
    },
    {
     "referenced_type" : "_ZTIPN5scudo28SizeClassAllocatorLocalCacheINS_20SizeClassAllocator32INS_19AndroidSvelteConfigEEEE13TransferBatchE"
    }
   ],
   "return_type" : "_ZTIv",
   "source_file" : "external/scudo/standalone/list.h"
  },
  {
   "function_name" : "scudo::SizeClassMapBase<scudo::SvelteSizeClassConfig>::getMaxCachedHint",
   "linker_set_key" : "_ZN5scudo16SizeClassMapBaseINS_21SvelteSizeClassConfigEE16getMaxCachedHintEm",
   "parameters" :
   [
    {
     "referenced_type" : "_ZTIm"
    }
   ],
   "return_type" : "_ZTIj",
   "source_file" : "external/scudo/standalone/size_class_map.h"
  },
  {
   "function_name" : "scudo::SizeClassMapBase<scudo::AndroidSizeClassConfig>::getMaxCachedHint",
   "linker_set_key" : "_ZN5scudo16SizeClassMapBaseINS_22AndroidSizeClassConfigEE16getMaxCachedHintEm",
   "parameters" :
   [
    {
     "referenced_type" : "_ZTIm"
    }
   ],
   "return_type" : "_ZTIj",
   "source_file" : "external/scudo/standalone/size_class_map.h"
  },
  {
   "function_name" : "scudo::atomic_fetch_add",
   "linker_set_key" : "_ZN5scudo16atomic_fetch_addINS_10atomic_u32EEENT_4TypeEPVS2_S3_NS_12memory_orderE",
   "parameters" :
   [
    {
     "referenced_type" : "_ZTIPVN5scudo10atomic_u32E"
    },
    {
     "referenced_type" : "_ZTIj"
    },
    {
     "referenced_type" : "_ZTIN5scudo12memory_orderE"
    }
   ],
   "return_type" : "_ZTIj",
   "source_file" : "external/scudo/standalone/atomic_helpers.h",
   "template_args" : [ "_ZTIN5scudo10atomic_u32E" ]
  },
  {
   "function_name" : "scudo::atomic_fetch_add",
   "linker_set_key" : "_ZN5scudo16atomic_fetch_addINS_11atomic_uptrEEENT_4TypeEPVS2_S3_NS_12memory_orderE",
   "parameters" :
   [
    {
     "referenced_type" : "_ZTIPVN5scudo11atomic_uptrE"
    },
    {
     "referenced_type" : "_ZTIm"
    },
    {
     "referenced_type" : "_ZTIN5scudo12memory_orderE"
    }
   ],
   "return_type" : "_ZTIm",
   "source_file" : "external/scudo/standalone/atomic_helpers.h",
   "template_args" : [ "_ZTIN5scudo11atomic_uptrE" ]
  },
  {
   "function_name" : "scudo::atomic_fetch_and",
   "linker_set_key" : "_ZN5scudo16atomic_fetch_andINS_10atomic_u32EEENT_4TypeEPVS2_S3_NS_12memory_orderE",
   "parameters" :
   [
    {
     "referenced_type" : "_ZTIPVN5scudo10atomic_u32E"
    },
    {
     "referenced_type" : "_ZTIj"
    },
    {
     "referenced_type" : "_ZTIN5scudo12memory_orderE"
    }
   ],
   "return_type" : "_ZTIj",
   "source_file" : "external/scudo/standalone/atomic_helpers.h",
   "template_args" : [ "_ZTIN5scudo10atomic_u32E" ]
  },
  {
   "function_name" : "scudo::useMemoryTagging",
   "linker_set_key" : "_ZN5scudo16useMemoryTaggingINS_13AndroidConfigEEEbNS_7OptionsE",
   "parameters" :
   [
    {
     "referenced_type" : "_ZTIN5scudo7OptionsE"
    }
   ],
   "return_type" : "_ZTIb",
   "source_file" : "external/scudo/standalone/options.h",
   "template_args" : [ "_ZTIN5scudo13AndroidConfigE" ]
  },
  {
   "function_name" : "scudo::useMemoryTagging",
   "linker_set_key" : "_ZN5scudo16useMemoryTaggingINS_19AndroidSvelteConfigEEEbNS_7OptionsE",
   "parameters" :
   [
    {
     "referenced_type" : "_ZTIN5scudo7OptionsE"
    }
   ],
   "return_type" : "_ZTIb",
   "source_file" : "external/scudo/standalone/options.h",
   "template_args" : [ "_ZTIN5scudo19AndroidSvelteConfigE" ]
  },
  {
   "function_name" : "scudo::FixedSizeClassMap<scudo::SvelteSizeClassConfig>::getClassIdBySize",
   "linker_set_key" : "_ZN5scudo17FixedSizeClassMapINS_21SvelteSizeClassConfigEE16getClassIdBySizeEm",
   "parameters" :
   [
    {
     "referenced_type" : "_ZTIm"
    }
   ],
   "return_type" : "_ZTIm",
   "source_file" : "external/scudo/standalone/size_class_map.h"
  },
  {
   "function_name" : "scudo::FixedSizeClassMap<scudo::SvelteSizeClassConfig>::getMaxCachedHint",
   "linker_set_key" : "_ZN5scudo17FixedSizeClassMapINS_21SvelteSizeClassConfigEE16getMaxCachedHintEm",
   "parameters" :
   [
    {
     "referenced_type" : "_ZTIm"
    }
   ],
   "return_type" : "_ZTIj",
   "source_file" : "external/scudo/standalone/size_class_map.h"
  },
  {
   "function_name" : "scudo::FixedSizeClassMap<scudo::SvelteSizeClassConfig>::getSizeByClassId",
   "linker_set_key" : "_ZN5scudo17FixedSizeClassMapINS_21SvelteSizeClassConfigEE16getSizeByClassIdEm",
   "parameters" :
   [
    {
     "referenced_type" : "_ZTIm"
    }
   ],
   "return_type" : "_ZTIm",
   "source_file" : "external/scudo/standalone/size_class_map.h"
  },
  {
   "function_name" : "scudo::FixedSizeClassMap<scudo::SvelteSizeClassConfig>::getSizeLSBByClassId",
   "linker_set_key" : "_ZN5scudo17FixedSizeClassMapINS_21SvelteSizeClassConfigEE19getSizeLSBByClassIdEm",
   "parameters" :
   [
    {
     "referenced_type" : "_ZTIm"
    }
   ],
   "return_type" : "_ZTIh",
   "source_file" : "external/scudo/standalone/size_class_map.h"
  },
  {
   "function_name" : "scudo::MapAllocatorCache<scudo::AndroidConfig>::releaseToOS",
   "linker_set_key" : "_ZN5scudo17MapAllocatorCacheINS_13AndroidConfigEE11releaseToOSEv",
   "parameters" :
   [
    {
     "is_this_ptr" : true,
     "referenced_type" : "_ZTIPN5scudo17MapAllocatorCacheINS_13AndroidConfigEEE"
    }
   ],
   "return_type" : "_ZTIv",
   "source_file" : "external/scudo/standalone/secondary.h"
  },
  {
   "access" : "private",
   "function_name" : "scudo::MapAllocatorCache<scudo::AndroidConfig>::releaseOlderThan",
   "linker_set_key" : "_ZN5scudo17MapAllocatorCacheINS_13AndroidConfigEE16releaseOlderThanEy",
   "parameters" :
   [
    {
     "is_this_ptr" : true,
     "referenced_type" : "_ZTIPN5scudo17MapAllocatorCacheINS_13AndroidConfigEEE"
    },
    {
     "referenced_type" : "_ZTIy"
    }
   ],
   "return_type" : "_ZTIv",
   "source_file" : "external/scudo/standalone/secondary.h"
  },
  {
   "access" : "private",
   "function_name" : "scudo::MapAllocatorCache<scudo::AndroidConfig>::releaseIfOlderThan",
   "linker_set_key" : "_ZN5scudo17MapAllocatorCacheINS_13AndroidConfigEE18releaseIfOlderThanERNS2_11CachedBlockEy",
   "parameters" :
   [
    {
     "is_this_ptr" : true,
     "referenced_type" : "_ZTIPN5scudo17MapAllocatorCacheINS_13AndroidConfigEEE"
    },
    {
     "referenced_type" : "_ZTIRN5scudo17MapAllocatorCacheINS_13AndroidConfigEE11CachedBlockE"
    },
    {
     "referenced_type" : "_ZTIy"
    }
   ],
   "return_type" : "_ZTIv",
   "source_file" : "external/scudo/standalone/secondary.h"
  },
  {
   "function_name" : "scudo::MapAllocatorCache<scudo::AndroidConfig>::disableMemoryTagging",
   "linker_set_key" : "_ZN5scudo17MapAllocatorCacheINS_13AndroidConfigEE20disableMemoryTaggingEv",
   "parameters" :
   [
    {
     "is_this_ptr" : true,
     "referenced_type" : "_ZTIPN5scudo17MapAllocatorCacheINS_13AndroidConfigEEE"
    }
   ],
   "return_type" : "_ZTIv",
   "source_file" : "external/scudo/standalone/secondary.h"
  },
  {
   "function_name" : "scudo::MapAllocatorCache<scudo::AndroidConfig>::initLinkerInitialized",
   "linker_set_key" : "_ZN5scudo17MapAllocatorCacheINS_13AndroidConfigEE21initLinkerInitializedEi",
   "parameters" :
   [
    {
     "is_this_ptr" : true,
     "referenced_type" : "_ZTIPN5scudo17MapAllocatorCacheINS_13AndroidConfigEEE"
    },
    {
     "referenced_type" : "_ZTIi"
    }
   ],
   "return_type" : "_ZTIv",
   "source_file" : "external/scudo/standalone/secondary.h"
  },
  {
   "access" : "private",
   "function_name" : "scudo::MapAllocatorCache<scudo::AndroidConfig>::empty",
   "linker_set_key" : "_ZN5scudo17MapAllocatorCacheINS_13AndroidConfigEE5emptyEv",
   "parameters" :
   [
    {
     "is_this_ptr" : true,
     "referenced_type" : "_ZTIPN5scudo17MapAllocatorCacheINS_13AndroidConfigEEE"
    }
   ],
   "return_type" : "_ZTIv",
   "source_file" : "external/scudo/standalone/secondary.h"
  },
  {
   "function_name" : "scudo::MapAllocatorCache<scudo::AndroidConfig>::store",
   "linker_set_key" : "_ZN5scudo17MapAllocatorCacheINS_13AndroidConfigEE5storeENS_7OptionsEPNS_10LargeBlock6HeaderE",
   "parameters" :
   [
    {
     "is_this_ptr" : true,
     "referenced_type" : "_ZTIPN5scudo17MapAllocatorCacheINS_13AndroidConfigEEE"
    },
    {
     "referenced_type" : "_ZTIN5scudo7OptionsE"
    },
    {
     "referenced_type" : "_ZTIPN5scudo10LargeBlock6HeaderE"
    }
   ],
   "return_type" : "_ZTIv",
   "source_file" : "external/scudo/standalone/secondary.h"
  },
  {
   "function_name" : "scudo::MapAllocatorCache<scudo::AndroidConfig>::enable",
   "linker_set_key" : "_ZN5scudo17MapAllocatorCacheINS_13AndroidConfigEE6enableEv",
   "parameters" :
   [
    {
     "is_this_ptr" : true,
     "referenced_type" : "_ZTIPN5scudo17MapAllocatorCacheINS_13AndroidConfigEEE"
    }
   ],
   "return_type" : "_ZTIv",
   "source_file" : "external/scudo/standalone/secondary.h"
  },
  {
   "function_name" : "scudo::MapAllocatorCache<scudo::AndroidConfig>::disable",
   "linker_set_key" : "_ZN5scudo17MapAllocatorCacheINS_13AndroidConfigEE7disableEv",
   "parameters" :
   [
    {
     "is_this_ptr" : true,
     "referenced_type" : "_ZTIPN5scudo17MapAllocatorCacheINS_13AndroidConfigEEE"
    }
   ],
   "return_type" : "_ZTIv",
   "source_file" : "external/scudo/standalone/secondary.h"
  },
  {
   "function_name" : "scudo::MapAllocatorCache<scudo::AndroidConfig>::canCache",
   "linker_set_key" : "_ZN5scudo17MapAllocatorCacheINS_13AndroidConfigEE8canCacheEm",
   "parameters" :
   [
    {
     "is_this_ptr" : true,
     "referenced_type" : "_ZTIPN5scudo17MapAllocatorCacheINS_13AndroidConfigEEE"
    },
    {
     "referenced_type" : "_ZTIm"
    }
   ],
   "return_type" : "_ZTIb",
   "source_file" : "external/scudo/standalone/secondary.h"
  },
  {
   "function_name" : "scudo::MapAllocatorCache<scudo::AndroidConfig>::retrieve",
   "linker_set_key" : "_ZN5scudo17MapAllocatorCacheINS_13AndroidConfigEE8retrieveENS_7OptionsEmmPPNS_10LargeBlock6HeaderEPb",
   "parameters" :
   [
    {
     "is_this_ptr" : true,
     "referenced_type" : "_ZTIPN5scudo17MapAllocatorCacheINS_13AndroidConfigEEE"
    },
    {
     "referenced_type" : "_ZTIN5scudo7OptionsE"
    },
    {
     "referenced_type" : "_ZTIm"
    },
    {
     "referenced_type" : "_ZTIm"
    },
    {
     "referenced_type" : "_ZTIPPN5scudo10LargeBlock6HeaderE"
    },
    {
     "referenced_type" : "_ZTIPb"
    }
   ],
   "return_type" : "_ZTIb",
   "source_file" : "external/scudo/standalone/secondary.h"
  },
  {
   "function_name" : "scudo::MapAllocatorCache<scudo::AndroidConfig>::setOption",
   "linker_set_key" : "_ZN5scudo17MapAllocatorCacheINS_13AndroidConfigEE9setOptionENS_6OptionEl",
   "parameters" :
   [
    {
     "is_this_ptr" : true,
     "referenced_type" : "_ZTIPN5scudo17MapAllocatorCacheINS_13AndroidConfigEEE"
    },
    {
     "referenced_type" : "_ZTIN5scudo6OptionE"
    },
    {
     "referenced_type" : "_ZTIl"
    }
   ],
   "return_type" : "_ZTIb",
   "source_file" : "external/scudo/standalone/secondary.h"
  },
  {
   "function_name" : "scudo::MapAllocatorCache<scudo::AndroidSvelteConfig>::releaseToOS",
   "linker_set_key" : "_ZN5scudo17MapAllocatorCacheINS_19AndroidSvelteConfigEE11releaseToOSEv",
   "parameters" :
   [
    {
     "is_this_ptr" : true,
     "referenced_type" : "_ZTIPN5scudo17MapAllocatorCacheINS_19AndroidSvelteConfigEEE"
    }
   ],
   "return_type" : "_ZTIv",
   "source_file" : "external/scudo/standalone/secondary.h"
  },
  {
   "access" : "private",
   "function_name" : "scudo::MapAllocatorCache<scudo::AndroidSvelteConfig>::releaseOlderThan",
   "linker_set_key" : "_ZN5scudo17MapAllocatorCacheINS_19AndroidSvelteConfigEE16releaseOlderThanEy",
   "parameters" :
   [
    {
     "is_this_ptr" : true,
     "referenced_type" : "_ZTIPN5scudo17MapAllocatorCacheINS_19AndroidSvelteConfigEEE"
    },
    {
     "referenced_type" : "_ZTIy"
    }
   ],
   "return_type" : "_ZTIv",
   "source_file" : "external/scudo/standalone/secondary.h"
  },
  {
   "access" : "private",
   "function_name" : "scudo::MapAllocatorCache<scudo::AndroidSvelteConfig>::releaseIfOlderThan",
   "linker_set_key" : "_ZN5scudo17MapAllocatorCacheINS_19AndroidSvelteConfigEE18releaseIfOlderThanERNS2_11CachedBlockEy",
   "parameters" :
   [
    {
     "is_this_ptr" : true,
     "referenced_type" : "_ZTIPN5scudo17MapAllocatorCacheINS_19AndroidSvelteConfigEEE"
    },
    {
     "referenced_type" : "_ZTIRN5scudo17MapAllocatorCacheINS_19AndroidSvelteConfigEE11CachedBlockE"
    },
    {
     "referenced_type" : "_ZTIy"
    }
   ],
   "return_type" : "_ZTIv",
   "source_file" : "external/scudo/standalone/secondary.h"
  },
  {
   "function_name" : "scudo::MapAllocatorCache<scudo::AndroidSvelteConfig>::disableMemoryTagging",
   "linker_set_key" : "_ZN5scudo17MapAllocatorCacheINS_19AndroidSvelteConfigEE20disableMemoryTaggingEv",
   "parameters" :
   [
    {
     "is_this_ptr" : true,
     "referenced_type" : "_ZTIPN5scudo17MapAllocatorCacheINS_19AndroidSvelteConfigEEE"
    }
   ],
   "return_type" : "_ZTIv",
   "source_file" : "external/scudo/standalone/secondary.h"
  },
  {
   "function_name" : "scudo::MapAllocatorCache<scudo::AndroidSvelteConfig>::initLinkerInitialized",
   "linker_set_key" : "_ZN5scudo17MapAllocatorCacheINS_19AndroidSvelteConfigEE21initLinkerInitializedEi",
   "parameters" :
   [
    {
     "is_this_ptr" : true,
     "referenced_type" : "_ZTIPN5scudo17MapAllocatorCacheINS_19AndroidSvelteConfigEEE"
    },
    {
     "referenced_type" : "_ZTIi"
    }
   ],
   "return_type" : "_ZTIv",
   "source_file" : "external/scudo/standalone/secondary.h"
  },
  {
   "access" : "private",
   "function_name" : "scudo::MapAllocatorCache<scudo::AndroidSvelteConfig>::empty",
   "linker_set_key" : "_ZN5scudo17MapAllocatorCacheINS_19AndroidSvelteConfigEE5emptyEv",
   "parameters" :
   [
    {
     "is_this_ptr" : true,
     "referenced_type" : "_ZTIPN5scudo17MapAllocatorCacheINS_19AndroidSvelteConfigEEE"
    }
   ],
   "return_type" : "_ZTIv",
   "source_file" : "external/scudo/standalone/secondary.h"
  },
  {
   "function_name" : "scudo::MapAllocatorCache<scudo::AndroidSvelteConfig>::store",
   "linker_set_key" : "_ZN5scudo17MapAllocatorCacheINS_19AndroidSvelteConfigEE5storeENS_7OptionsEPNS_10LargeBlock6HeaderE",
   "parameters" :
   [
    {
     "is_this_ptr" : true,
     "referenced_type" : "_ZTIPN5scudo17MapAllocatorCacheINS_19AndroidSvelteConfigEEE"
    },
    {
     "referenced_type" : "_ZTIN5scudo7OptionsE"
    },
    {
     "referenced_type" : "_ZTIPN5scudo10LargeBlock6HeaderE"
    }
   ],
   "return_type" : "_ZTIv",
   "source_file" : "external/scudo/standalone/secondary.h"
  },
  {
   "function_name" : "scudo::MapAllocatorCache<scudo::AndroidSvelteConfig>::enable",
   "linker_set_key" : "_ZN5scudo17MapAllocatorCacheINS_19AndroidSvelteConfigEE6enableEv",
   "parameters" :
   [
    {
     "is_this_ptr" : true,
     "referenced_type" : "_ZTIPN5scudo17MapAllocatorCacheINS_19AndroidSvelteConfigEEE"
    }
   ],
   "return_type" : "_ZTIv",
   "source_file" : "external/scudo/standalone/secondary.h"
  },
  {
   "function_name" : "scudo::MapAllocatorCache<scudo::AndroidSvelteConfig>::disable",
   "linker_set_key" : "_ZN5scudo17MapAllocatorCacheINS_19AndroidSvelteConfigEE7disableEv",
   "parameters" :
   [
    {
     "is_this_ptr" : true,
     "referenced_type" : "_ZTIPN5scudo17MapAllocatorCacheINS_19AndroidSvelteConfigEEE"
    }
   ],
   "return_type" : "_ZTIv",
   "source_file" : "external/scudo/standalone/secondary.h"
  },
  {
   "function_name" : "scudo::MapAllocatorCache<scudo::AndroidSvelteConfig>::canCache",
   "linker_set_key" : "_ZN5scudo17MapAllocatorCacheINS_19AndroidSvelteConfigEE8canCacheEm",
   "parameters" :
   [
    {
     "is_this_ptr" : true,
     "referenced_type" : "_ZTIPN5scudo17MapAllocatorCacheINS_19AndroidSvelteConfigEEE"
    },
    {
     "referenced_type" : "_ZTIm"
    }
   ],
   "return_type" : "_ZTIb",
   "source_file" : "external/scudo/standalone/secondary.h"
  },
  {
   "function_name" : "scudo::MapAllocatorCache<scudo::AndroidSvelteConfig>::retrieve",
   "linker_set_key" : "_ZN5scudo17MapAllocatorCacheINS_19AndroidSvelteConfigEE8retrieveENS_7OptionsEmmPPNS_10LargeBlock6HeaderEPb",
   "parameters" :
   [
    {
     "is_this_ptr" : true,
     "referenced_type" : "_ZTIPN5scudo17MapAllocatorCacheINS_19AndroidSvelteConfigEEE"
    },
    {
     "referenced_type" : "_ZTIN5scudo7OptionsE"
    },
    {
     "referenced_type" : "_ZTIm"
    },
    {
     "referenced_type" : "_ZTIm"
    },
    {
     "referenced_type" : "_ZTIPPN5scudo10LargeBlock6HeaderE"
    },
    {
     "referenced_type" : "_ZTIPb"
    }
   ],
   "return_type" : "_ZTIb",
   "source_file" : "external/scudo/standalone/secondary.h"
  },
  {
   "function_name" : "scudo::MapAllocatorCache<scudo::AndroidSvelteConfig>::setOption",
   "linker_set_key" : "_ZN5scudo17MapAllocatorCacheINS_19AndroidSvelteConfigEE9setOptionENS_6OptionEl",
   "parameters" :
   [
    {
     "is_this_ptr" : true,
     "referenced_type" : "_ZTIPN5scudo17MapAllocatorCacheINS_19AndroidSvelteConfigEEE"
    },
    {
     "referenced_type" : "_ZTIN5scudo6OptionE"
    },
    {
     "referenced_type" : "_ZTIl"
    }
   ],
   "return_type" : "_ZTIb",
   "source_file" : "external/scudo/standalone/secondary.h"
  },
  {
   "function_name" : "scudo::TableSizeClassMap<scudo::AndroidSizeClassConfig>::getClassIdBySize",
   "linker_set_key" : "_ZN5scudo17TableSizeClassMapINS_22AndroidSizeClassConfigEE16getClassIdBySizeEm",
   "parameters" :
   [
    {
     "referenced_type" : "_ZTIm"
    }
   ],
   "return_type" : "_ZTIm",
   "source_file" : "external/scudo/standalone/size_class_map.h"
  },
  {
   "function_name" : "scudo::TableSizeClassMap<scudo::AndroidSizeClassConfig>::getMaxCachedHint",
   "linker_set_key" : "_ZN5scudo17TableSizeClassMapINS_22AndroidSizeClassConfigEE16getMaxCachedHintEm",
   "parameters" :
   [
    {
     "referenced_type" : "_ZTIm"
    }
   ],
   "return_type" : "_ZTIj",
   "source_file" : "external/scudo/standalone/size_class_map.h"
  },
  {
   "function_name" : "scudo::TableSizeClassMap<scudo::AndroidSizeClassConfig>::getSizeByClassId",
   "linker_set_key" : "_ZN5scudo17TableSizeClassMapINS_22AndroidSizeClassConfigEE16getSizeByClassIdEm",
   "parameters" :
   [
    {
     "referenced_type" : "_ZTIm"
    }
   ],
   "return_type" : "_ZTIm",
   "source_file" : "external/scudo/standalone/size_class_map.h"
  },
  {
   "function_name" : "scudo::TableSizeClassMap<scudo::AndroidSizeClassConfig>::getSizeLSBByClassId",
   "linker_set_key" : "_ZN5scudo17TableSizeClassMapINS_22AndroidSizeClassConfigEE19getSizeLSBByClassIdEm",
   "parameters" :
   [
    {
     "referenced_type" : "_ZTIm"
    }
   ],
   "return_type" : "_ZTIh",
   "source_file" : "external/scudo/standalone/size_class_map.h"
  },
  {
   "function_name" : "scudo::TableSizeClassMap<scudo::AndroidSizeClassConfig>::LSBTable::LSBTable",
   "linker_set_key" : "_ZN5scudo17TableSizeClassMapINS_22AndroidSizeClassConfigEE8LSBTableC1Ev",
   "parameters" :
   [
    {
     "is_this_ptr" : true,
     "referenced_type" : "_ZTIPN5scudo17TableSizeClassMapINS_22AndroidSizeClassConfigEE8LSBTableE"
    }
   ],
   "return_type" : "_ZTIv",
   "source_file" : "external/scudo/standalone/size_class_map.h"
  },
  {
   "function_name" : "scudo::TableSizeClassMap<scudo::AndroidSizeClassConfig>::LSBTable::LSBTable",
   "linker_set_key" : "_ZN5scudo17TableSizeClassMapINS_22AndroidSizeClassConfigEE8LSBTableC2Ev",
   "parameters" :
   [
    {
     "is_this_ptr" : true,
     "referenced_type" : "_ZTIPN5scudo17TableSizeClassMapINS_22AndroidSizeClassConfigEE8LSBTableE"
    }
   ],
   "return_type" : "_ZTIv",
   "source_file" : "external/scudo/standalone/size_class_map.h"
  },
  {
   "function_name" : "scudo::TableSizeClassMap<scudo::AndroidSizeClassConfig>::SizeTable::getTableSize",
   "linker_set_key" : "_ZN5scudo17TableSizeClassMapINS_22AndroidSizeClassConfigEE9SizeTable12getTableSizeEv",
   "return_type" : "_ZTIm",
   "source_file" : "external/scudo/standalone/size_class_map.h"
  },
  {
   "function_name" : "scudo::TableSizeClassMap<scudo::AndroidSizeClassConfig>::SizeTable::computeClassId",
   "linker_set_key" : "_ZN5scudo17TableSizeClassMapINS_22AndroidSizeClassConfigEE9SizeTable14computeClassIdEm",
   "parameters" :
   [
    {
     "referenced_type" : "_ZTIm"
    }
   ],
   "return_type" : "_ZTIh",
   "source_file" : "external/scudo/standalone/size_class_map.h"
  },
  {
   "function_name" : "scudo::TableSizeClassMap<scudo::AndroidSizeClassConfig>::SizeTable::SizeTable",
   "linker_set_key" : "_ZN5scudo17TableSizeClassMapINS_22AndroidSizeClassConfigEE9SizeTableC1Ev",
   "parameters" :
   [
    {
     "is_this_ptr" : true,
     "referenced_type" : "_ZTIPN5scudo17TableSizeClassMapINS_22AndroidSizeClassConfigEE9SizeTableE"
    }
   ],
   "return_type" : "_ZTIv",
   "source_file" : "external/scudo/standalone/size_class_map.h"
  },
  {
   "function_name" : "scudo::TableSizeClassMap<scudo::AndroidSizeClassConfig>::SizeTable::SizeTable",
   "linker_set_key" : "_ZN5scudo17TableSizeClassMapINS_22AndroidSizeClassConfigEE9SizeTableC2Ev",
   "parameters" :
   [
    {
     "is_this_ptr" : true,
     "referenced_type" : "_ZTIPN5scudo17TableSizeClassMapINS_22AndroidSizeClassConfigEE9SizeTableE"
    }
   ],
   "return_type" : "_ZTIv",
   "source_file" : "external/scudo/standalone/size_class_map.h"
  },
  {
   "function_name" : "scudo::getPageSizeCached",
   "linker_set_key" : "_ZN5scudo17getPageSizeCachedEv",
   "return_type" : "_ZTIm",
   "source_file" : "external/scudo/standalone/common.h"
  },
  {
   "function_name" : "scudo::MurMur2HashBuilder::add",
   "linker_set_key" : "_ZN5scudo18MurMur2HashBuilder3addEj",
   "parameters" :
   [
    {
     "is_this_ptr" : true,
     "referenced_type" : "_ZTIPN5scudo18MurMur2HashBuilderE"
    },
    {
     "referenced_type" : "_ZTIj"
    }
   ],
   "return_type" : "_ZTIv",
   "source_file" : "external/scudo/standalone/stack_depot.h"
  },
  {
   "function_name" : "scudo::MurMur2HashBuilder::get",
   "linker_set_key" : "_ZN5scudo18MurMur2HashBuilder3getEv",
   "parameters" :
   [
    {
     "is_this_ptr" : true,
     "referenced_type" : "_ZTIPN5scudo18MurMur2HashBuilderE"
    }
   ],
   "return_type" : "_ZTIj",
   "source_file" : "external/scudo/standalone/stack_depot.h"
  },
  {
   "function_name" : "scudo::MurMur2HashBuilder::MurMur2HashBuilder",
   "linker_set_key" : "_ZN5scudo18MurMur2HashBuilderC1Ej",
   "parameters" :
   [
    {
     "is_this_ptr" : true,
     "referenced_type" : "_ZTIPN5scudo18MurMur2HashBuilderE"
    },
    {
     "default_arg" : true,
     "referenced_type" : "_ZTIj"
    }
   ],
   "return_type" : "_ZTIv",
   "source_file" : "external/scudo/standalone/stack_depot.h"
  },
  {
   "function_name" : "scudo::MurMur2HashBuilder::MurMur2HashBuilder",
   "linker_set_key" : "_ZN5scudo18MurMur2HashBuilderC2Ej",
   "parameters" :
   [
    {
     "is_this_ptr" : true,
     "referenced_type" : "_ZTIPN5scudo18MurMur2HashBuilderE"
    },
    {
     "default_arg" : true,
     "referenced_type" : "_ZTIj"
    }
   ],
   "return_type" : "_ZTIv",
   "source_file" : "external/scudo/standalone/stack_depot.h"
  },
  {
   "function_name" : "scudo::PackedCounterArray::PackedCounterArray",
   "linker_set_key" : "_ZN5scudo18PackedCounterArrayC1Emmm",
   "parameters" :
   [
    {
     "is_this_ptr" : true,
     "referenced_type" : "_ZTIPN5scudo18PackedCounterArrayE"
    },
    {
     "referenced_type" : "_ZTIm"
    },
    {
     "referenced_type" : "_ZTIm"
    },
    {
     "referenced_type" : "_ZTIm"
    }
   ],
   "return_type" : "_ZTIv",
   "source_file" : "external/scudo/standalone/release.h"
  },
  {
   "function_name" : "scudo::PackedCounterArray::PackedCounterArray",
   "linker_set_key" : "_ZN5scudo18PackedCounterArrayC2Emmm",
   "parameters" :
   [
    {
     "is_this_ptr" : true,
     "referenced_type" : "_ZTIPN5scudo18PackedCounterArrayE"
    },
    {
     "referenced_type" : "_ZTIm"
    },
    {
     "referenced_type" : "_ZTIm"
    },
    {
     "referenced_type" : "_ZTIm"
    }
   ],
   "return_type" : "_ZTIv",
   "source_file" : "external/scudo/standalone/release.h"
  },
  {
   "function_name" : "scudo::PackedCounterArray::~PackedCounterArray",
   "linker_set_key" : "_ZN5scudo18PackedCounterArrayD1Ev",
   "parameters" :
   [
    {
     "is_this_ptr" : true,
     "referenced_type" : "_ZTIPN5scudo18PackedCounterArrayE"
    }
   ],
   "return_type" : "_ZTIv",
   "source_file" : "external/scudo/standalone/release.h"
  },
  {
   "function_name" : "scudo::PackedCounterArray::~PackedCounterArray",
   "linker_set_key" : "_ZN5scudo18PackedCounterArrayD2Ev",
   "parameters" :
   [
    {
     "is_this_ptr" : true,
     "referenced_type" : "_ZTIPN5scudo18PackedCounterArrayE"
    }
   ],
   "return_type" : "_ZTIv",
   "source_file" : "external/scudo/standalone/release.h"
  },
  {
   "access" : "private",
   "function_name" : "scudo::TSDRegistrySharedT<scudo::Allocator<scudo::AndroidConfig, &scudo_malloc_postinit>, 8, 2>::initThread",
   "linker_set_key" : "_ZN5scudo18TSDRegistrySharedTINS_9AllocatorINS_13AndroidConfigEXadL_Z21scudo_malloc_postinitEEEELj8ELj2EE10initThreadEPS3_",
   "parameters" :
   [
    {
     "is_this_ptr" : true,
     "referenced_type" : "_ZTIPN5scudo18TSDRegistrySharedTINS_9AllocatorINS_13AndroidConfigEXadL_Z21scudo_malloc_postinitEEEELj8ELj2EEE"
    },
    {
     "referenced_type" : "_ZTIPN5scudo9AllocatorINS_13AndroidConfigEXadL_Z21scudo_malloc_postinitEEEE"
    }
   ],
   "return_type" : "_ZTIv",
   "source_file" : "external/scudo/standalone/tsd_shared.h"
  },
  {
   "access" : "private",
   "function_name" : "scudo::TSDRegistrySharedT<scudo::Allocator<scudo::AndroidConfig, &scudo_malloc_postinit>, 8, 2>::getCurrentTSD",
   "linker_set_key" : "_ZN5scudo18TSDRegistrySharedTINS_9AllocatorINS_13AndroidConfigEXadL_Z21scudo_malloc_postinitEEEELj8ELj2EE13getCurrentTSDEv",
   "parameters" :
   [
    {
     "is_this_ptr" : true,
     "referenced_type" : "_ZTIPN5scudo18TSDRegistrySharedTINS_9AllocatorINS_13AndroidConfigEXadL_Z21scudo_malloc_postinitEEEELj8ELj2EEE"
    }
   ],
   "return_type" : "_ZTIPN5scudo3TSDINS_9AllocatorINS_13AndroidConfigEXadL_Z21scudo_malloc_postinitEEEEEE",
   "source_file" : "external/scudo/standalone/tsd_shared.h"
  },
  {
   "function_name" : "scudo::TSDRegistrySharedT<scudo::Allocator<scudo::AndroidConfig, &scudo_malloc_postinit>, 8, 2>::getTSDAndLock",
   "linker_set_key" : "_ZN5scudo18TSDRegistrySharedTINS_9AllocatorINS_13AndroidConfigEXadL_Z21scudo_malloc_postinitEEEELj8ELj2EE13getTSDAndLockEPb",
   "parameters" :
   [
    {
     "is_this_ptr" : true,
     "referenced_type" : "_ZTIPN5scudo18TSDRegistrySharedTINS_9AllocatorINS_13AndroidConfigEXadL_Z21scudo_malloc_postinitEEEELj8ELj2EEE"
    },
    {
     "referenced_type" : "_ZTIPb"
    }
   ],
   "return_type" : "_ZTIPN5scudo3TSDINS_9AllocatorINS_13AndroidConfigEXadL_Z21scudo_malloc_postinitEEEEEE",
   "source_file" : "external/scudo/standalone/tsd_shared.h"
  },
  {
   "function_name" : "scudo::TSDRegistrySharedT<scudo::Allocator<scudo::AndroidConfig, &scudo_malloc_postinit>, 8, 2>::initOnceMaybe",
   "linker_set_key" : "_ZN5scudo18TSDRegistrySharedTINS_9AllocatorINS_13AndroidConfigEXadL_Z21scudo_malloc_postinitEEEELj8ELj2EE13initOnceMaybeEPS3_",
   "parameters" :
   [
    {
     "is_this_ptr" : true,
     "referenced_type" : "_ZTIPN5scudo18TSDRegistrySharedTINS_9AllocatorINS_13AndroidConfigEXadL_Z21scudo_malloc_postinitEEEELj8ELj2EEE"
    },
    {
     "referenced_type" : "_ZTIPN5scudo9AllocatorINS_13AndroidConfigEXadL_Z21scudo_malloc_postinitEEEE"
    }
   ],
   "return_type" : "_ZTIv",
   "source_file" : "external/scudo/standalone/tsd_shared.h"
  },
  {
   "access" : "private",
   "function_name" : "scudo::TSDRegistrySharedT<scudo::Allocator<scudo::AndroidConfig, &scudo_malloc_postinit>, 8, 2>::setCurrentTSD",
   "linker_set_key" : "_ZN5scudo18TSDRegistrySharedTINS_9AllocatorINS_13AndroidConfigEXadL_Z21scudo_malloc_postinitEEEELj8ELj2EE13setCurrentTSDEPNS_3TSDIS3_EE",
   "parameters" :
   [
    {
     "is_this_ptr" : true,
     "referenced_type" : "_ZTIPN5scudo18TSDRegistrySharedTINS_9AllocatorINS_13AndroidConfigEXadL_Z21scudo_malloc_postinitEEEELj8ELj2EEE"
    },
    {
     "referenced_type" : "_ZTIPN5scudo3TSDINS_9AllocatorINS_13AndroidConfigEXadL_Z21scudo_malloc_postinitEEEEEE"
    }
   ],
   "return_type" : "_ZTIv",
   "source_file" : "external/scudo/standalone/tsd_shared.h"
  },
  {
   "function_name" : "scudo::TSDRegistrySharedT<scudo::Allocator<scudo::AndroidConfig, &scudo_malloc_postinit>, 8, 2>::initThreadMaybe",
   "linker_set_key" : "_ZN5scudo18TSDRegistrySharedTINS_9AllocatorINS_13AndroidConfigEXadL_Z21scudo_malloc_postinitEEEELj8ELj2EE15initThreadMaybeEPS3_b",
   "parameters" :
   [
    {
     "is_this_ptr" : true,
     "referenced_type" : "_ZTIPN5scudo18TSDRegistrySharedTINS_9AllocatorINS_13AndroidConfigEXadL_Z21scudo_malloc_postinitEEEELj8ELj2EEE"
    },
    {
     "referenced_type" : "_ZTIPN5scudo9AllocatorINS_13AndroidConfigEXadL_Z21scudo_malloc_postinitEEEE"
    },
    {
     "referenced_type" : "_ZTIb"
    }
   ],
   "return_type" : "_ZTIv",
   "source_file" : "external/scudo/standalone/tsd_shared.h"
  },
  {
   "access" : "private",
   "function_name" : "scudo::TSDRegistrySharedT<scudo::Allocator<scudo::AndroidConfig, &scudo_malloc_postinit>, 8, 2>::setNumberOfTSDs",
   "linker_set_key" : "_ZN5scudo18TSDRegistrySharedTINS_9AllocatorINS_13AndroidConfigEXadL_Z21scudo_malloc_postinitEEEELj8ELj2EE15setNumberOfTSDsEj",
   "parameters" :
   [
    {
     "is_this_ptr" : true,
     "referenced_type" : "_ZTIPN5scudo18TSDRegistrySharedTINS_9AllocatorINS_13AndroidConfigEXadL_Z21scudo_malloc_postinitEEEELj8ELj2EEE"
    },
    {
     "referenced_type" : "_ZTIj"
    }
   ],
   "return_type" : "_ZTIb",
   "source_file" : "external/scudo/standalone/tsd_shared.h"
  },
  {
   "access" : "private",
   "function_name" : "scudo::TSDRegistrySharedT<scudo::Allocator<scudo::AndroidConfig, &scudo_malloc_postinit>, 8, 2>::getTSDAndLockSlow",
   "linker_set_key" : "_ZN5scudo18TSDRegistrySharedTINS_9AllocatorINS_13AndroidConfigEXadL_Z21scudo_malloc_postinitEEEELj8ELj2EE17getTSDAndLockSlowEPNS_3TSDIS3_EE",
   "parameters" :
   [
    {
     "is_this_ptr" : true,
     "referenced_type" : "_ZTIPN5scudo18TSDRegistrySharedTINS_9AllocatorINS_13AndroidConfigEXadL_Z21scudo_malloc_postinitEEEELj8ELj2EEE"
    },
    {
     "referenced_type" : "_ZTIPN5scudo3TSDINS_9AllocatorINS_13AndroidConfigEXadL_Z21scudo_malloc_postinitEEEEEE"
    }
   ],
   "return_type" : "_ZTIPN5scudo3TSDINS_9AllocatorINS_13AndroidConfigEXadL_Z21scudo_malloc_postinitEEEEEE",
   "source_file" : "external/scudo/standalone/tsd_shared.h"
  },
  {
   "access" : "private",
   "function_name" : "scudo::TSDRegistrySharedT<scudo::Allocator<scudo::AndroidConfig, &scudo_malloc_postinit>, 8, 2>::setDisableMemInit",
   "linker_set_key" : "_ZN5scudo18TSDRegistrySharedTINS_9AllocatorINS_13AndroidConfigEXadL_Z21scudo_malloc_postinitEEEELj8ELj2EE17setDisableMemInitEb",
   "parameters" :
   [
    {
     "is_this_ptr" : true,
     "referenced_type" : "_ZTIPN5scudo18TSDRegistrySharedTINS_9AllocatorINS_13AndroidConfigEXadL_Z21scudo_malloc_postinitEEEELj8ELj2EEE"
    },
    {
     "referenced_type" : "_ZTIb"
    }
   ],
   "return_type" : "_ZTIv",
   "source_file" : "external/scudo/standalone/tsd_shared.h"
  },
  {
   "function_name" : "scudo::TSDRegistrySharedT<scudo::Allocator<scudo::AndroidConfig, &scudo_malloc_postinit>, 8, 2>::initLinkerInitialized",
   "linker_set_key" : "_ZN5scudo18TSDRegistrySharedTINS_9AllocatorINS_13AndroidConfigEXadL_Z21scudo_malloc_postinitEEEELj8ELj2EE21initLinkerInitializedEPS3_",
   "parameters" :
   [
    {
     "is_this_ptr" : true,
     "referenced_type" : "_ZTIPN5scudo18TSDRegistrySharedTINS_9AllocatorINS_13AndroidConfigEXadL_Z21scudo_malloc_postinitEEEELj8ELj2EEE"
    },
    {
     "referenced_type" : "_ZTIPN5scudo9AllocatorINS_13AndroidConfigEXadL_Z21scudo_malloc_postinitEEEE"
    }
   ],
   "return_type" : "_ZTIv",
   "source_file" : "external/scudo/standalone/tsd_shared.h"
  },
  {
   "function_name" : "scudo::TSDRegistrySharedT<scudo::Allocator<scudo::AndroidConfig, &scudo_malloc_postinit>, 8, 2>::enable",
   "linker_set_key" : "_ZN5scudo18TSDRegistrySharedTINS_9AllocatorINS_13AndroidConfigEXadL_Z21scudo_malloc_postinitEEEELj8ELj2EE6enableEv",
   "parameters" :
   [
    {
     "is_this_ptr" : true,
     "referenced_type" : "_ZTIPN5scudo18TSDRegistrySharedTINS_9AllocatorINS_13AndroidConfigEXadL_Z21scudo_malloc_postinitEEEELj8ELj2EEE"
    }
   ],
   "return_type" : "_ZTIv",
   "source_file" : "external/scudo/standalone/tsd_shared.h"
  },
  {
   "function_name" : "scudo::TSDRegistrySharedT<scudo::Allocator<scudo::AndroidConfig, &scudo_malloc_postinit>, 8, 2>::disable",
   "linker_set_key" : "_ZN5scudo18TSDRegistrySharedTINS_9AllocatorINS_13AndroidConfigEXadL_Z21scudo_malloc_postinitEEEELj8ELj2EE7disableEv",
   "parameters" :
   [
    {
     "is_this_ptr" : true,
     "referenced_type" : "_ZTIPN5scudo18TSDRegistrySharedTINS_9AllocatorINS_13AndroidConfigEXadL_Z21scudo_malloc_postinitEEEELj8ELj2EEE"
    }
   ],
   "return_type" : "_ZTIv",
   "source_file" : "external/scudo/standalone/tsd_shared.h"
  },
  {
   "function_name" : "scudo::TSDRegistrySharedT<scudo::Allocator<scudo::AndroidConfig, &scudo_malloc_postinit>, 8, 2>::setOption",
   "linker_set_key" : "_ZN5scudo18TSDRegistrySharedTINS_9AllocatorINS_13AndroidConfigEXadL_Z21scudo_malloc_postinitEEEELj8ELj2EE9setOptionENS_6OptionEl",
   "parameters" :
   [
    {
     "is_this_ptr" : true,
     "referenced_type" : "_ZTIPN5scudo18TSDRegistrySharedTINS_9AllocatorINS_13AndroidConfigEXadL_Z21scudo_malloc_postinitEEEELj8ELj2EEE"
    },
    {
     "referenced_type" : "_ZTIN5scudo6OptionE"
    },
    {
     "referenced_type" : "_ZTIl"
    }
   ],
   "return_type" : "_ZTIb",
   "source_file" : "external/scudo/standalone/tsd_shared.h"
  },
  {
   "access" : "private",
   "function_name" : "scudo::TSDRegistrySharedT<scudo::Allocator<scudo::AndroidSvelteConfig, &scudo_svelte_malloc_postinit>, 2, 1>::initThread",
   "linker_set_key" : "_ZN5scudo18TSDRegistrySharedTINS_9AllocatorINS_19AndroidSvelteConfigEXadL_Z28scudo_svelte_malloc_postinitEEEELj2ELj1EE10initThreadEPS3_",
   "parameters" :
   [
    {
     "is_this_ptr" : true,
     "referenced_type" : "_ZTIPN5scudo18TSDRegistrySharedTINS_9AllocatorINS_19AndroidSvelteConfigEXadL_Z28scudo_svelte_malloc_postinitEEEELj2ELj1EEE"
    },
    {
     "referenced_type" : "_ZTIPN5scudo9AllocatorINS_19AndroidSvelteConfigEXadL_Z28scudo_svelte_malloc_postinitEEEE"
    }
   ],
   "return_type" : "_ZTIv",
   "source_file" : "external/scudo/standalone/tsd_shared.h"
  },
  {
   "access" : "private",
   "function_name" : "scudo::TSDRegistrySharedT<scudo::Allocator<scudo::AndroidSvelteConfig, &scudo_svelte_malloc_postinit>, 2, 1>::getCurrentTSD",
   "linker_set_key" : "_ZN5scudo18TSDRegistrySharedTINS_9AllocatorINS_19AndroidSvelteConfigEXadL_Z28scudo_svelte_malloc_postinitEEEELj2ELj1EE13getCurrentTSDEv",
   "parameters" :
   [
    {
     "is_this_ptr" : true,
     "referenced_type" : "_ZTIPN5scudo18TSDRegistrySharedTINS_9AllocatorINS_19AndroidSvelteConfigEXadL_Z28scudo_svelte_malloc_postinitEEEELj2ELj1EEE"
    }
   ],
   "return_type" : "_ZTIPN5scudo3TSDINS_9AllocatorINS_19AndroidSvelteConfigEXadL_Z28scudo_svelte_malloc_postinitEEEEEE",
   "source_file" : "external/scudo/standalone/tsd_shared.h"
  },
  {
   "function_name" : "scudo::TSDRegistrySharedT<scudo::Allocator<scudo::AndroidSvelteConfig, &scudo_svelte_malloc_postinit>, 2, 1>::getTSDAndLock",
   "linker_set_key" : "_ZN5scudo18TSDRegistrySharedTINS_9AllocatorINS_19AndroidSvelteConfigEXadL_Z28scudo_svelte_malloc_postinitEEEELj2ELj1EE13getTSDAndLockEPb",
   "parameters" :
   [
    {
     "is_this_ptr" : true,
     "referenced_type" : "_ZTIPN5scudo18TSDRegistrySharedTINS_9AllocatorINS_19AndroidSvelteConfigEXadL_Z28scudo_svelte_malloc_postinitEEEELj2ELj1EEE"
    },
    {
     "referenced_type" : "_ZTIPb"
    }
   ],
   "return_type" : "_ZTIPN5scudo3TSDINS_9AllocatorINS_19AndroidSvelteConfigEXadL_Z28scudo_svelte_malloc_postinitEEEEEE",
   "source_file" : "external/scudo/standalone/tsd_shared.h"
  },
  {
   "function_name" : "scudo::TSDRegistrySharedT<scudo::Allocator<scudo::AndroidSvelteConfig, &scudo_svelte_malloc_postinit>, 2, 1>::initOnceMaybe",
   "linker_set_key" : "_ZN5scudo18TSDRegistrySharedTINS_9AllocatorINS_19AndroidSvelteConfigEXadL_Z28scudo_svelte_malloc_postinitEEEELj2ELj1EE13initOnceMaybeEPS3_",
   "parameters" :
   [
    {
     "is_this_ptr" : true,
     "referenced_type" : "_ZTIPN5scudo18TSDRegistrySharedTINS_9AllocatorINS_19AndroidSvelteConfigEXadL_Z28scudo_svelte_malloc_postinitEEEELj2ELj1EEE"
    },
    {
     "referenced_type" : "_ZTIPN5scudo9AllocatorINS_19AndroidSvelteConfigEXadL_Z28scudo_svelte_malloc_postinitEEEE"
    }
   ],
   "return_type" : "_ZTIv",
   "source_file" : "external/scudo/standalone/tsd_shared.h"
  },
  {
   "access" : "private",
   "function_name" : "scudo::TSDRegistrySharedT<scudo::Allocator<scudo::AndroidSvelteConfig, &scudo_svelte_malloc_postinit>, 2, 1>::setCurrentTSD",
   "linker_set_key" : "_ZN5scudo18TSDRegistrySharedTINS_9AllocatorINS_19AndroidSvelteConfigEXadL_Z28scudo_svelte_malloc_postinitEEEELj2ELj1EE13setCurrentTSDEPNS_3TSDIS3_EE",
   "parameters" :
   [
    {
     "is_this_ptr" : true,
     "referenced_type" : "_ZTIPN5scudo18TSDRegistrySharedTINS_9AllocatorINS_19AndroidSvelteConfigEXadL_Z28scudo_svelte_malloc_postinitEEEELj2ELj1EEE"
    },
    {
     "referenced_type" : "_ZTIPN5scudo3TSDINS_9AllocatorINS_19AndroidSvelteConfigEXadL_Z28scudo_svelte_malloc_postinitEEEEEE"
    }
   ],
   "return_type" : "_ZTIv",
   "source_file" : "external/scudo/standalone/tsd_shared.h"
  },
  {
   "function_name" : "scudo::TSDRegistrySharedT<scudo::Allocator<scudo::AndroidSvelteConfig, &scudo_svelte_malloc_postinit>, 2, 1>::initThreadMaybe",
   "linker_set_key" : "_ZN5scudo18TSDRegistrySharedTINS_9AllocatorINS_19AndroidSvelteConfigEXadL_Z28scudo_svelte_malloc_postinitEEEELj2ELj1EE15initThreadMaybeEPS3_b",
   "parameters" :
   [
    {
     "is_this_ptr" : true,
     "referenced_type" : "_ZTIPN5scudo18TSDRegistrySharedTINS_9AllocatorINS_19AndroidSvelteConfigEXadL_Z28scudo_svelte_malloc_postinitEEEELj2ELj1EEE"
    },
    {
     "referenced_type" : "_ZTIPN5scudo9AllocatorINS_19AndroidSvelteConfigEXadL_Z28scudo_svelte_malloc_postinitEEEE"
    },
    {
     "referenced_type" : "_ZTIb"
    }
   ],
   "return_type" : "_ZTIv",
   "source_file" : "external/scudo/standalone/tsd_shared.h"
  },
  {
   "access" : "private",
   "function_name" : "scudo::TSDRegistrySharedT<scudo::Allocator<scudo::AndroidSvelteConfig, &scudo_svelte_malloc_postinit>, 2, 1>::setNumberOfTSDs",
   "linker_set_key" : "_ZN5scudo18TSDRegistrySharedTINS_9AllocatorINS_19AndroidSvelteConfigEXadL_Z28scudo_svelte_malloc_postinitEEEELj2ELj1EE15setNumberOfTSDsEj",
   "parameters" :
   [
    {
     "is_this_ptr" : true,
     "referenced_type" : "_ZTIPN5scudo18TSDRegistrySharedTINS_9AllocatorINS_19AndroidSvelteConfigEXadL_Z28scudo_svelte_malloc_postinitEEEELj2ELj1EEE"
    },
    {
     "referenced_type" : "_ZTIj"
    }
   ],
   "return_type" : "_ZTIb",
   "source_file" : "external/scudo/standalone/tsd_shared.h"
  },
  {
   "access" : "private",
   "function_name" : "scudo::TSDRegistrySharedT<scudo::Allocator<scudo::AndroidSvelteConfig, &scudo_svelte_malloc_postinit>, 2, 1>::getTSDAndLockSlow",
   "linker_set_key" : "_ZN5scudo18TSDRegistrySharedTINS_9AllocatorINS_19AndroidSvelteConfigEXadL_Z28scudo_svelte_malloc_postinitEEEELj2ELj1EE17getTSDAndLockSlowEPNS_3TSDIS3_EE",
   "parameters" :
   [
    {
     "is_this_ptr" : true,
     "referenced_type" : "_ZTIPN5scudo18TSDRegistrySharedTINS_9AllocatorINS_19AndroidSvelteConfigEXadL_Z28scudo_svelte_malloc_postinitEEEELj2ELj1EEE"
    },
    {
     "referenced_type" : "_ZTIPN5scudo3TSDINS_9AllocatorINS_19AndroidSvelteConfigEXadL_Z28scudo_svelte_malloc_postinitEEEEEE"
    }
   ],
   "return_type" : "_ZTIPN5scudo3TSDINS_9AllocatorINS_19AndroidSvelteConfigEXadL_Z28scudo_svelte_malloc_postinitEEEEEE",
   "source_file" : "external/scudo/standalone/tsd_shared.h"
  },
  {
   "access" : "private",
   "function_name" : "scudo::TSDRegistrySharedT<scudo::Allocator<scudo::AndroidSvelteConfig, &scudo_svelte_malloc_postinit>, 2, 1>::setDisableMemInit",
   "linker_set_key" : "_ZN5scudo18TSDRegistrySharedTINS_9AllocatorINS_19AndroidSvelteConfigEXadL_Z28scudo_svelte_malloc_postinitEEEELj2ELj1EE17setDisableMemInitEb",
   "parameters" :
   [
    {
     "is_this_ptr" : true,
     "referenced_type" : "_ZTIPN5scudo18TSDRegistrySharedTINS_9AllocatorINS_19AndroidSvelteConfigEXadL_Z28scudo_svelte_malloc_postinitEEEELj2ELj1EEE"
    },
    {
     "referenced_type" : "_ZTIb"
    }
   ],
   "return_type" : "_ZTIv",
   "source_file" : "external/scudo/standalone/tsd_shared.h"
  },
  {
   "function_name" : "scudo::TSDRegistrySharedT<scudo::Allocator<scudo::AndroidSvelteConfig, &scudo_svelte_malloc_postinit>, 2, 1>::initLinkerInitialized",
   "linker_set_key" : "_ZN5scudo18TSDRegistrySharedTINS_9AllocatorINS_19AndroidSvelteConfigEXadL_Z28scudo_svelte_malloc_postinitEEEELj2ELj1EE21initLinkerInitializedEPS3_",
   "parameters" :
   [
    {
     "is_this_ptr" : true,
     "referenced_type" : "_ZTIPN5scudo18TSDRegistrySharedTINS_9AllocatorINS_19AndroidSvelteConfigEXadL_Z28scudo_svelte_malloc_postinitEEEELj2ELj1EEE"
    },
    {
     "referenced_type" : "_ZTIPN5scudo9AllocatorINS_19AndroidSvelteConfigEXadL_Z28scudo_svelte_malloc_postinitEEEE"
    }
   ],
   "return_type" : "_ZTIv",
   "source_file" : "external/scudo/standalone/tsd_shared.h"
  },
  {
   "function_name" : "scudo::TSDRegistrySharedT<scudo::Allocator<scudo::AndroidSvelteConfig, &scudo_svelte_malloc_postinit>, 2, 1>::enable",
   "linker_set_key" : "_ZN5scudo18TSDRegistrySharedTINS_9AllocatorINS_19AndroidSvelteConfigEXadL_Z28scudo_svelte_malloc_postinitEEEELj2ELj1EE6enableEv",
   "parameters" :
   [
    {
     "is_this_ptr" : true,
     "referenced_type" : "_ZTIPN5scudo18TSDRegistrySharedTINS_9AllocatorINS_19AndroidSvelteConfigEXadL_Z28scudo_svelte_malloc_postinitEEEELj2ELj1EEE"
    }
   ],
   "return_type" : "_ZTIv",
   "source_file" : "external/scudo/standalone/tsd_shared.h"
  },
  {
   "function_name" : "scudo::TSDRegistrySharedT<scudo::Allocator<scudo::AndroidSvelteConfig, &scudo_svelte_malloc_postinit>, 2, 1>::disable",
   "linker_set_key" : "_ZN5scudo18TSDRegistrySharedTINS_9AllocatorINS_19AndroidSvelteConfigEXadL_Z28scudo_svelte_malloc_postinitEEEELj2ELj1EE7disableEv",
   "parameters" :
   [
    {
     "is_this_ptr" : true,
     "referenced_type" : "_ZTIPN5scudo18TSDRegistrySharedTINS_9AllocatorINS_19AndroidSvelteConfigEXadL_Z28scudo_svelte_malloc_postinitEEEELj2ELj1EEE"
    }
   ],
   "return_type" : "_ZTIv",
   "source_file" : "external/scudo/standalone/tsd_shared.h"
  },
  {
   "function_name" : "scudo::TSDRegistrySharedT<scudo::Allocator<scudo::AndroidSvelteConfig, &scudo_svelte_malloc_postinit>, 2, 1>::setOption",
   "linker_set_key" : "_ZN5scudo18TSDRegistrySharedTINS_9AllocatorINS_19AndroidSvelteConfigEXadL_Z28scudo_svelte_malloc_postinitEEEELj2ELj1EE9setOptionENS_6OptionEl",
   "parameters" :
   [
    {
     "is_this_ptr" : true,
     "referenced_type" : "_ZTIPN5scudo18TSDRegistrySharedTINS_9AllocatorINS_19AndroidSvelteConfigEXadL_Z28scudo_svelte_malloc_postinitEEEELj2ELj1EEE"
    },
    {
     "referenced_type" : "_ZTIN5scudo6OptionE"
    },
    {
     "referenced_type" : "_ZTIl"
    }
   ],
   "return_type" : "_ZTIb",
   "source_file" : "external/scudo/standalone/tsd_shared.h"
  },
  {
   "function_name" : "scudo::computeBSDChecksum",
   "linker_set_key" : "_ZN5scudo18computeBSDChecksumEtm",
   "parameters" :
   [
    {
     "referenced_type" : "_ZTIt"
    },
    {
     "referenced_type" : "_ZTIm"
    }
   ],
   "return_type" : "_ZTIt",
   "source_file" : "external/scudo/standalone/checksum.h"
  },
  {
   "function_name" : "scudo::MapAllocatorNoCache::releaseToOS",
   "linker_set_key" : "_ZN5scudo19MapAllocatorNoCache11releaseToOSEv",
   "parameters" :
   [
    {
     "is_this_ptr" : true,
     "referenced_type" : "_ZTIPN5scudo19MapAllocatorNoCacheE"
    }
   ],
   "return_type" : "_ZTIv",
   "source_file" : "external/scudo/standalone/secondary.h"
  },
  {
   "function_name" : "scudo::MapAllocatorNoCache::disableMemoryTagging",
   "linker_set_key" : "_ZN5scudo19MapAllocatorNoCache20disableMemoryTaggingEv",
   "parameters" :
   [
    {
     "is_this_ptr" : true,
     "referenced_type" : "_ZTIPN5scudo19MapAllocatorNoCacheE"
    }
   ],
   "return_type" : "_ZTIv",
   "source_file" : "external/scudo/standalone/secondary.h"
  },
  {
   "function_name" : "scudo::MapAllocatorNoCache::initLinkerInitialized",
   "linker_set_key" : "_ZN5scudo19MapAllocatorNoCache21initLinkerInitializedEi",
   "parameters" :
   [
    {
     "is_this_ptr" : true,
     "referenced_type" : "_ZTIPN5scudo19MapAllocatorNoCacheE"
    },
    {
     "referenced_type" : "_ZTIi"
    }
   ],
   "return_type" : "_ZTIv",
   "source_file" : "external/scudo/standalone/secondary.h"
  },
  {
   "function_name" : "scudo::MapAllocatorNoCache::init",
   "linker_set_key" : "_ZN5scudo19MapAllocatorNoCache4initEi",
   "parameters" :
   [
    {
     "is_this_ptr" : true,
     "referenced_type" : "_ZTIPN5scudo19MapAllocatorNoCacheE"
    },
    {
     "referenced_type" : "_ZTIi"
    }
   ],
   "return_type" : "_ZTIv",
   "source_file" : "external/scudo/standalone/secondary.h"
  },
  {
   "function_name" : "scudo::MapAllocatorNoCache::store",
   "linker_set_key" : "_ZN5scudo19MapAllocatorNoCache5storeENS_7OptionsEPNS_10LargeBlock6HeaderE",
   "parameters" :
   [
    {
     "is_this_ptr" : true,
     "referenced_type" : "_ZTIPN5scudo19MapAllocatorNoCacheE"
    },
    {
     "referenced_type" : "_ZTIN5scudo7OptionsE"
    },
    {
     "referenced_type" : "_ZTIPN5scudo10LargeBlock6HeaderE"
    }
   ],
   "return_type" : "_ZTIv",
   "source_file" : "external/scudo/standalone/secondary.h"
  },
  {
   "function_name" : "scudo::MapAllocatorNoCache::enable",
   "linker_set_key" : "_ZN5scudo19MapAllocatorNoCache6enableEv",
   "parameters" :
   [
    {
     "is_this_ptr" : true,
     "referenced_type" : "_ZTIPN5scudo19MapAllocatorNoCacheE"
    }
   ],
   "return_type" : "_ZTIv",
   "source_file" : "external/scudo/standalone/secondary.h"
  },
  {
   "function_name" : "scudo::MapAllocatorNoCache::disable",
   "linker_set_key" : "_ZN5scudo19MapAllocatorNoCache7disableEv",
   "parameters" :
   [
    {
     "is_this_ptr" : true,
     "referenced_type" : "_ZTIPN5scudo19MapAllocatorNoCacheE"
    }
   ],
   "return_type" : "_ZTIv",
   "source_file" : "external/scudo/standalone/secondary.h"
  },
  {
   "function_name" : "scudo::MapAllocatorNoCache::canCache",
   "linker_set_key" : "_ZN5scudo19MapAllocatorNoCache8canCacheEm",
   "parameters" :
   [
    {
     "is_this_ptr" : true,
     "referenced_type" : "_ZTIPN5scudo19MapAllocatorNoCacheE"
    },
    {
     "referenced_type" : "_ZTIm"
    }
   ],
   "return_type" : "_ZTIb",
   "source_file" : "external/scudo/standalone/secondary.h"
  },
  {
   "function_name" : "scudo::MapAllocatorNoCache::retrieve",
   "linker_set_key" : "_ZN5scudo19MapAllocatorNoCache8retrieveENS_7OptionsEmmPPNS_10LargeBlock6HeaderEPb",
   "parameters" :
   [
    {
     "is_this_ptr" : true,
     "referenced_type" : "_ZTIPN5scudo19MapAllocatorNoCacheE"
    },
    {
     "referenced_type" : "_ZTIN5scudo7OptionsE"
    },
    {
     "referenced_type" : "_ZTIm"
    },
    {
     "referenced_type" : "_ZTIm"
    },
    {
     "referenced_type" : "_ZTIPPN5scudo10LargeBlock6HeaderE"
    },
    {
     "referenced_type" : "_ZTIPb"
    }
   ],
   "return_type" : "_ZTIb",
   "source_file" : "external/scudo/standalone/secondary.h"
  },
  {
   "function_name" : "scudo::MapAllocatorNoCache::setOption",
   "linker_set_key" : "_ZN5scudo19MapAllocatorNoCache9setOptionENS_6OptionEl",
   "parameters" :
   [
    {
     "is_this_ptr" : true,
     "referenced_type" : "_ZTIPN5scudo19MapAllocatorNoCacheE"
    },
    {
     "referenced_type" : "_ZTIN5scudo6OptionE"
    },
    {
     "referenced_type" : "_ZTIl"
    }
   ],
   "return_type" : "_ZTIb",
   "source_file" : "external/scudo/standalone/secondary.h"
  },
  {
   "function_name" : "scudo::atomic_load_relaxed",
   "linker_set_key" : "_ZN5scudo19atomic_load_relaxedINS_10atomic_s32EEENT_4TypeEPVKS2_",
   "parameters" :
   [
    {
     "referenced_type" : "_ZTIPVKN5scudo10atomic_s32E"
    }
   ],
   "return_type" : "_ZTIi",
   "source_file" : "external/scudo/standalone/atomic_helpers.h",
   "template_args" : [ "_ZTIN5scudo10atomic_s32E" ]
  },
  {
   "function_name" : "scudo::atomic_load_relaxed",
   "linker_set_key" : "_ZN5scudo19atomic_load_relaxedINS_10atomic_u32EEENT_4TypeEPVKS2_",
   "parameters" :
   [
    {
     "referenced_type" : "_ZTIPVKN5scudo10atomic_u32E"
    }
   ],
   "return_type" : "_ZTIj",
   "source_file" : "external/scudo/standalone/atomic_helpers.h",
   "template_args" : [ "_ZTIN5scudo10atomic_u32E" ]
  },
  {
   "function_name" : "scudo::atomic_load_relaxed",
   "linker_set_key" : "_ZN5scudo19atomic_load_relaxedINS_10atomic_u64EEENT_4TypeEPVKS2_",
   "parameters" :
   [
    {
     "referenced_type" : "_ZTIPVKN5scudo10atomic_u64E"
    }
   ],
   "return_type" : "_ZTIy",
   "source_file" : "external/scudo/standalone/atomic_helpers.h",
   "template_args" : [ "_ZTIN5scudo10atomic_u64E" ]
  },
  {
   "function_name" : "scudo::atomic_load_relaxed",
   "linker_set_key" : "_ZN5scudo19atomic_load_relaxedINS_11atomic_uptrEEENT_4TypeEPVKS2_",
   "parameters" :
   [
    {
     "referenced_type" : "_ZTIPVKN5scudo11atomic_uptrE"
    }
   ],
   "return_type" : "_ZTIm",
   "source_file" : "external/scudo/standalone/atomic_helpers.h",
   "template_args" : [ "_ZTIN5scudo11atomic_uptrE" ]
  },
  {
   "function_name" : "scudo::atomic_thread_fence",
   "linker_set_key" : "_ZN5scudo19atomic_thread_fenceENS_12memory_orderE",
   "parameters" :
   [
    {
     "referenced_type" : "_ZTIN5scudo12memory_orderE"
    }
   ],
   "return_type" : "_ZTIv",
   "source_file" : "external/scudo/standalone/atomic_helpers.h"
  },
  {
   "function_name" : "scudo::roundUpToPowerOfTwo",
   "linker_set_key" : "_ZN5scudo19roundUpToPowerOfTwoEm",
   "parameters" :
   [
    {
     "referenced_type" : "_ZTIm"
    }
   ],
   "return_type" : "_ZTIm",
   "source_file" : "external/scudo/standalone/common.h"
  },
  {
   "function_name" : "scudo::SizeClassAllocator32<scudo::AndroidConfig>::canAllocate",
   "linker_set_key" : "_ZN5scudo20SizeClassAllocator32INS_13AndroidConfigEE11canAllocateEm",
   "parameters" :
   [
    {
     "referenced_type" : "_ZTIm"
    }
   ],
   "return_type" : "_ZTIb",
   "source_file" : "external/scudo/standalone/primary32.h"
  },
  {
   "function_name" : "scudo::SizeClassAllocator32<scudo::AndroidConfig>::releaseToOS",
   "linker_set_key" : "_ZN5scudo20SizeClassAllocator32INS_13AndroidConfigEE11releaseToOSEv",
   "parameters" :
   [
    {
     "is_this_ptr" : true,
     "referenced_type" : "_ZTIPN5scudo20SizeClassAllocator32INS_13AndroidConfigEEE"
    }
   ],
   "return_type" : "_ZTIm",
   "source_file" : "external/scudo/standalone/primary32.h"
  },
  {
   "access" : "private",
   "function_name" : "scudo::SizeClassAllocator32<scudo::AndroidConfig>::allocateRegion",
   "linker_set_key" : "_ZN5scudo20SizeClassAllocator32INS_13AndroidConfigEE14allocateRegionEPNS2_13SizeClassInfoEm",
   "parameters" :
   [
    {
     "is_this_ptr" : true,
     "referenced_type" : "_ZTIPN5scudo20SizeClassAllocator32INS_13AndroidConfigEEE"
    },
    {
     "referenced_type" : "_ZTIPN5scudo20SizeClassAllocator32INS_13AndroidConfigEE13SizeClassInfoE"
    },
    {
     "referenced_type" : "_ZTIm"
    }
   ],
   "return_type" : "_ZTIm",
   "source_file" : "external/scudo/standalone/primary32.h"
  },
  {
   "access" : "private",
   "function_name" : "scudo::SizeClassAllocator32<scudo::AndroidConfig>::computeRegionId",
   "linker_set_key" : "_ZN5scudo20SizeClassAllocator32INS_13AndroidConfigEE15computeRegionIdEm",
   "parameters" :
   [
    {
     "is_this_ptr" : true,
     "referenced_type" : "_ZTIPN5scudo20SizeClassAllocator32INS_13AndroidConfigEEE"
    },
    {
     "referenced_type" : "_ZTIm"
    }
   ],
   "return_type" : "_ZTIm",
   "source_file" : "external/scudo/standalone/primary32.h"
  },
  {
   "function_name" : "scudo::SizeClassAllocator32<scudo::AndroidConfig>::findNearestBlock",
   "linker_set_key" : "_ZN5scudo20SizeClassAllocator32INS_13AndroidConfigEE16findNearestBlockEPKcm",
   "parameters" :
   [
    {
     "referenced_type" : "_ZTIPKc"
    },
    {
     "referenced_type" : "_ZTIm"
    }
   ],
   "return_type" : "_ZTIN5scudo9BlockInfoE",
   "source_file" : "external/scudo/standalone/primary32.h"
  },
  {
   "function_name" : "scudo::SizeClassAllocator32<scudo::AndroidConfig>::getSizeByClassId",
   "linker_set_key" : "_ZN5scudo20SizeClassAllocator32INS_13AndroidConfigEE16getSizeByClassIdEm",
   "parameters" :
   [
    {
     "referenced_type" : "_ZTIm"
    }
   ],
   "return_type" : "_ZTIm",
   "source_file" : "external/scudo/standalone/primary32.h"
  },
  {
   "access" : "private",
   "function_name" : "scudo::SizeClassAllocator32<scudo::AndroidConfig>::getSizeClassInfo",
   "linker_set_key" : "_ZN5scudo20SizeClassAllocator32INS_13AndroidConfigEE16getSizeClassInfoEm",
   "parameters" :
   [
    {
     "is_this_ptr" : true,
     "referenced_type" : "_ZTIPN5scudo20SizeClassAllocator32INS_13AndroidConfigEEE"
    },
    {
     "referenced_type" : "_ZTIm"
    }
   ],
   "return_type" : "_ZTIPN5scudo20SizeClassAllocator32INS_13AndroidConfigEE13SizeClassInfoE",
   "source_file" : "external/scudo/standalone/primary32.h"
  },
  {
   "access" : "private",
   "function_name" : "scudo::SizeClassAllocator32<scudo::AndroidConfig>::populateFreeList",
   "linker_set_key" : "_ZN5scudo20SizeClassAllocator32INS_13AndroidConfigEE16populateFreeListEPNS_28SizeClassAllocatorLocalCacheIS2_EEmPNS2_13SizeClassInfoE",
   "parameters" :
   [
    {
     "is_this_ptr" : true,
     "referenced_type" : "_ZTIPN5scudo20SizeClassAllocator32INS_13AndroidConfigEEE"
    },
    {
     "referenced_type" : "_ZTIPN5scudo28SizeClassAllocatorLocalCacheINS_20SizeClassAllocator32INS_13AndroidConfigEEEEE"
    },
    {
     "referenced_type" : "_ZTIm"
    },
    {
     "referenced_type" : "_ZTIPN5scudo20SizeClassAllocator32INS_13AndroidConfigEE13SizeClassInfoE"
    }
   ],
   "return_type" : "_ZTIPN5scudo28SizeClassAllocatorLocalCacheINS_20SizeClassAllocator32INS_13AndroidConfigEEEE13TransferBatchE",
   "source_file" : "external/scudo/standalone/primary32.h"
  },
  {
   "access" : "private",
   "function_name" : "scudo::SizeClassAllocator32<scudo::AndroidConfig>::releaseToOSMaybe",
   "linker_set_key" : "_ZN5scudo20SizeClassAllocator32INS_13AndroidConfigEE16releaseToOSMaybeEPNS2_13SizeClassInfoEmb",
   "parameters" :
   [
    {
     "is_this_ptr" : true,
     "referenced_type" : "_ZTIPN5scudo20SizeClassAllocator32INS_13AndroidConfigEEE"
    },
    {
     "referenced_type" : "_ZTIPN5scudo20SizeClassAllocator32INS_13AndroidConfigEE13SizeClassInfoE"
    },
    {
     "referenced_type" : "_ZTIm"
    },
    {
     "default_arg" : true,
     "referenced_type" : "_ZTIb"
    }
   ],
   "return_type" : "_ZTIm",
   "source_file" : "external/scudo/standalone/primary32.h"
  },
  {
   "access" : "private",
   "function_name" : "scudo::SizeClassAllocator32<scudo::AndroidConfig>::allocateRegionSlow",
   "linker_set_key" : "_ZN5scudo20SizeClassAllocator32INS_13AndroidConfigEE18allocateRegionSlowEv",
   "parameters" :
   [
    {
     "is_this_ptr" : true,
     "referenced_type" : "_ZTIPN5scudo20SizeClassAllocator32INS_13AndroidConfigEEE"
    }
   ],
   "return_type" : "_ZTIm",
   "source_file" : "external/scudo/standalone/primary32.h"
  },
  {
   "function_name" : "scudo::SizeClassAllocator32<scudo::AndroidConfig>::initLinkerInitialized",
   "linker_set_key" : "_ZN5scudo20SizeClassAllocator32INS_13AndroidConfigEE21initLinkerInitializedEi",
   "parameters" :
   [
    {
     "is_this_ptr" : true,
     "referenced_type" : "_ZTIPN5scudo20SizeClassAllocator32INS_13AndroidConfigEEE"
    },
    {
     "referenced_type" : "_ZTIi"
    }
   ],
   "return_type" : "_ZTIv",
   "source_file" : "external/scudo/standalone/primary32.h"
  },
  {
   "function_name" : "scudo::SizeClassAllocator32<scudo::AndroidConfig>::getRegionInfoArraySize",
   "linker_set_key" : "_ZN5scudo20SizeClassAllocator32INS_13AndroidConfigEE22getRegionInfoArraySizeEv",
   "return_type" : "_ZTIm",
   "source_file" : "external/scudo/standalone/primary32.h"
  },
  {
   "function_name" : "scudo::SizeClassAllocator32<scudo::AndroidConfig>::enable",
   "linker_set_key" : "_ZN5scudo20SizeClassAllocator32INS_13AndroidConfigEE6enableEv",
   "parameters" :
   [
    {
     "is_this_ptr" : true,
     "referenced_type" : "_ZTIPN5scudo20SizeClassAllocator32INS_13AndroidConfigEEE"
    }
   ],
   "return_type" : "_ZTIv",
   "source_file" : "external/scudo/standalone/primary32.h"
  },
  {
   "function_name" : "scudo::SizeClassAllocator32<scudo::AndroidConfig>::disable",
   "linker_set_key" : "_ZN5scudo20SizeClassAllocator32INS_13AndroidConfigEE7disableEv",
   "parameters" :
   [
    {
     "is_this_ptr" : true,
     "referenced_type" : "_ZTIPN5scudo20SizeClassAllocator32INS_13AndroidConfigEEE"
    }
   ],
   "return_type" : "_ZTIv",
   "source_file" : "external/scudo/standalone/primary32.h"
  },
  {
   "function_name" : "scudo::SizeClassAllocator32<scudo::AndroidConfig>::getStats",
   "linker_set_key" : "_ZN5scudo20SizeClassAllocator32INS_13AndroidConfigEE8getStatsEPNS_12ScopedStringE",
   "parameters" :
   [
    {
     "is_this_ptr" : true,
     "referenced_type" : "_ZTIPN5scudo20SizeClassAllocator32INS_13AndroidConfigEEE"
    },
    {
     "referenced_type" : "_ZTIPN5scudo12ScopedStringE"
    }
   ],
   "return_type" : "_ZTIv",
   "source_file" : "external/scudo/standalone/primary32.h"
  },
  {
   "access" : "private",
   "function_name" : "scudo::SizeClassAllocator32<scudo::AndroidConfig>::getStats",
   "linker_set_key" : "_ZN5scudo20SizeClassAllocator32INS_13AndroidConfigEE8getStatsEPNS_12ScopedStringEmm",
   "parameters" :
   [
    {
     "is_this_ptr" : true,
     "referenced_type" : "_ZTIPN5scudo20SizeClassAllocator32INS_13AndroidConfigEEE"
    },
    {
     "referenced_type" : "_ZTIPN5scudo12ScopedStringE"
    },
    {
     "referenced_type" : "_ZTIm"
    },
    {
     "referenced_type" : "_ZTIm"
    }
   ],
   "return_type" : "_ZTIv",
   "source_file" : "external/scudo/standalone/primary32.h"
  },
  {
   "function_name" : "scudo::SizeClassAllocator32<scudo::AndroidConfig>::popBatch",
   "linker_set_key" : "_ZN5scudo20SizeClassAllocator32INS_13AndroidConfigEE8popBatchEPNS_28SizeClassAllocatorLocalCacheIS2_EEm",
   "parameters" :
   [
    {
     "is_this_ptr" : true,
     "referenced_type" : "_ZTIPN5scudo20SizeClassAllocator32INS_13AndroidConfigEEE"
    },
    {
     "referenced_type" : "_ZTIPN5scudo28SizeClassAllocatorLocalCacheINS_20SizeClassAllocator32INS_13AndroidConfigEEEEE"
    },
    {
     "referenced_type" : "_ZTIm"
    }
   ],
   "return_type" : "_ZTIPN5scudo28SizeClassAllocatorLocalCacheINS_20SizeClassAllocator32INS_13AndroidConfigEEEE13TransferBatchE",
   "source_file" : "external/scudo/standalone/primary32.h"
  },
  {
   "function_name" : "scudo::SizeClassAllocator32<scudo::AndroidConfig>::pushBatch",
   "linker_set_key" : "_ZN5scudo20SizeClassAllocator32INS_13AndroidConfigEE9pushBatchEmPNS_28SizeClassAllocatorLocalCacheIS2_E13TransferBatchE",
   "parameters" :
   [
    {
     "is_this_ptr" : true,
     "referenced_type" : "_ZTIPN5scudo20SizeClassAllocator32INS_13AndroidConfigEEE"
    },
    {
     "referenced_type" : "_ZTIm"
    },
    {
     "referenced_type" : "_ZTIPN5scudo28SizeClassAllocatorLocalCacheINS_20SizeClassAllocator32INS_13AndroidConfigEEEE13TransferBatchE"
    }
   ],
   "return_type" : "_ZTIv",
   "source_file" : "external/scudo/standalone/primary32.h"
  },
  {
   "function_name" : "scudo::SizeClassAllocator32<scudo::AndroidConfig>::setOption",
   "linker_set_key" : "_ZN5scudo20SizeClassAllocator32INS_13AndroidConfigEE9setOptionENS_6OptionEl",
   "parameters" :
   [
    {
     "is_this_ptr" : true,
     "referenced_type" : "_ZTIPN5scudo20SizeClassAllocator32INS_13AndroidConfigEEE"
    },
    {
     "referenced_type" : "_ZTIN5scudo6OptionE"
    },
    {
     "referenced_type" : "_ZTIl"
    }
   ],
   "return_type" : "_ZTIb",
   "source_file" : "external/scudo/standalone/primary32.h"
  },
  {
   "function_name" : "scudo::SizeClassAllocator32<scudo::AndroidSvelteConfig>::canAllocate",
   "linker_set_key" : "_ZN5scudo20SizeClassAllocator32INS_19AndroidSvelteConfigEE11canAllocateEm",
   "parameters" :
   [
    {
     "referenced_type" : "_ZTIm"
    }
   ],
   "return_type" : "_ZTIb",
   "source_file" : "external/scudo/standalone/primary32.h"
  },
  {
   "function_name" : "scudo::SizeClassAllocator32<scudo::AndroidSvelteConfig>::releaseToOS",
   "linker_set_key" : "_ZN5scudo20SizeClassAllocator32INS_19AndroidSvelteConfigEE11releaseToOSEv",
   "parameters" :
   [
    {
     "is_this_ptr" : true,
     "referenced_type" : "_ZTIPN5scudo20SizeClassAllocator32INS_19AndroidSvelteConfigEEE"
    }
   ],
   "return_type" : "_ZTIm",
   "source_file" : "external/scudo/standalone/primary32.h"
  },
  {
   "access" : "private",
   "function_name" : "scudo::SizeClassAllocator32<scudo::AndroidSvelteConfig>::allocateRegion",
   "linker_set_key" : "_ZN5scudo20SizeClassAllocator32INS_19AndroidSvelteConfigEE14allocateRegionEPNS2_13SizeClassInfoEm",
   "parameters" :
   [
    {
     "is_this_ptr" : true,
     "referenced_type" : "_ZTIPN5scudo20SizeClassAllocator32INS_19AndroidSvelteConfigEEE"
    },
    {
     "referenced_type" : "_ZTIPN5scudo20SizeClassAllocator32INS_19AndroidSvelteConfigEE13SizeClassInfoE"
    },
    {
     "referenced_type" : "_ZTIm"
    }
   ],
   "return_type" : "_ZTIm",
   "source_file" : "external/scudo/standalone/primary32.h"
  },
  {
   "access" : "private",
   "function_name" : "scudo::SizeClassAllocator32<scudo::AndroidSvelteConfig>::computeRegionId",
   "linker_set_key" : "_ZN5scudo20SizeClassAllocator32INS_19AndroidSvelteConfigEE15computeRegionIdEm",
   "parameters" :
   [
    {
     "is_this_ptr" : true,
     "referenced_type" : "_ZTIPN5scudo20SizeClassAllocator32INS_19AndroidSvelteConfigEEE"
    },
    {
     "referenced_type" : "_ZTIm"
    }
   ],
   "return_type" : "_ZTIm",
   "source_file" : "external/scudo/standalone/primary32.h"
  },
  {
   "function_name" : "scudo::SizeClassAllocator32<scudo::AndroidSvelteConfig>::getSizeByClassId",
   "linker_set_key" : "_ZN5scudo20SizeClassAllocator32INS_19AndroidSvelteConfigEE16getSizeByClassIdEm",
   "parameters" :
   [
    {
     "referenced_type" : "_ZTIm"
    }
   ],
   "return_type" : "_ZTIm",
   "source_file" : "external/scudo/standalone/primary32.h"
  },
  {
   "access" : "private",
   "function_name" : "scudo::SizeClassAllocator32<scudo::AndroidSvelteConfig>::getSizeClassInfo",
   "linker_set_key" : "_ZN5scudo20SizeClassAllocator32INS_19AndroidSvelteConfigEE16getSizeClassInfoEm",
   "parameters" :
   [
    {
     "is_this_ptr" : true,
     "referenced_type" : "_ZTIPN5scudo20SizeClassAllocator32INS_19AndroidSvelteConfigEEE"
    },
    {
     "referenced_type" : "_ZTIm"
    }
   ],
   "return_type" : "_ZTIPN5scudo20SizeClassAllocator32INS_19AndroidSvelteConfigEE13SizeClassInfoE",
   "source_file" : "external/scudo/standalone/primary32.h"
  },
  {
   "access" : "private",
   "function_name" : "scudo::SizeClassAllocator32<scudo::AndroidSvelteConfig>::populateFreeList",
   "linker_set_key" : "_ZN5scudo20SizeClassAllocator32INS_19AndroidSvelteConfigEE16populateFreeListEPNS_28SizeClassAllocatorLocalCacheIS2_EEmPNS2_13SizeClassInfoE",
   "parameters" :
   [
    {
     "is_this_ptr" : true,
     "referenced_type" : "_ZTIPN5scudo20SizeClassAllocator32INS_19AndroidSvelteConfigEEE"
    },
    {
     "referenced_type" : "_ZTIPN5scudo28SizeClassAllocatorLocalCacheINS_20SizeClassAllocator32INS_19AndroidSvelteConfigEEEEE"
    },
    {
     "referenced_type" : "_ZTIm"
    },
    {
     "referenced_type" : "_ZTIPN5scudo20SizeClassAllocator32INS_19AndroidSvelteConfigEE13SizeClassInfoE"
    }
   ],
   "return_type" : "_ZTIPN5scudo28SizeClassAllocatorLocalCacheINS_20SizeClassAllocator32INS_19AndroidSvelteConfigEEEE13TransferBatchE",
   "source_file" : "external/scudo/standalone/primary32.h"
  },
  {
   "access" : "private",
   "function_name" : "scudo::SizeClassAllocator32<scudo::AndroidSvelteConfig>::releaseToOSMaybe",
   "linker_set_key" : "_ZN5scudo20SizeClassAllocator32INS_19AndroidSvelteConfigEE16releaseToOSMaybeEPNS2_13SizeClassInfoEmb",
   "parameters" :
   [
    {
     "is_this_ptr" : true,
     "referenced_type" : "_ZTIPN5scudo20SizeClassAllocator32INS_19AndroidSvelteConfigEEE"
    },
    {
     "referenced_type" : "_ZTIPN5scudo20SizeClassAllocator32INS_19AndroidSvelteConfigEE13SizeClassInfoE"
    },
    {
     "referenced_type" : "_ZTIm"
    },
    {
     "default_arg" : true,
     "referenced_type" : "_ZTIb"
    }
   ],
   "return_type" : "_ZTIm",
   "source_file" : "external/scudo/standalone/primary32.h"
  },
  {
   "access" : "private",
   "function_name" : "scudo::SizeClassAllocator32<scudo::AndroidSvelteConfig>::allocateRegionSlow",
   "linker_set_key" : "_ZN5scudo20SizeClassAllocator32INS_19AndroidSvelteConfigEE18allocateRegionSlowEv",
   "parameters" :
   [
    {
     "is_this_ptr" : true,
     "referenced_type" : "_ZTIPN5scudo20SizeClassAllocator32INS_19AndroidSvelteConfigEEE"
    }
   ],
   "return_type" : "_ZTIm",
   "source_file" : "external/scudo/standalone/primary32.h"
  },
  {
   "function_name" : "scudo::SizeClassAllocator32<scudo::AndroidSvelteConfig>::initLinkerInitialized",
   "linker_set_key" : "_ZN5scudo20SizeClassAllocator32INS_19AndroidSvelteConfigEE21initLinkerInitializedEi",
   "parameters" :
   [
    {
     "is_this_ptr" : true,
     "referenced_type" : "_ZTIPN5scudo20SizeClassAllocator32INS_19AndroidSvelteConfigEEE"
    },
    {
     "referenced_type" : "_ZTIi"
    }
   ],
   "return_type" : "_ZTIv",
   "source_file" : "external/scudo/standalone/primary32.h"
  },
  {
   "function_name" : "scudo::SizeClassAllocator32<scudo::AndroidSvelteConfig>::enable",
   "linker_set_key" : "_ZN5scudo20SizeClassAllocator32INS_19AndroidSvelteConfigEE6enableEv",
   "parameters" :
   [
    {
     "is_this_ptr" : true,
     "referenced_type" : "_ZTIPN5scudo20SizeClassAllocator32INS_19AndroidSvelteConfigEEE"
    }
   ],
   "return_type" : "_ZTIv",
   "source_file" : "external/scudo/standalone/primary32.h"
  },
  {
   "function_name" : "scudo::SizeClassAllocator32<scudo::AndroidSvelteConfig>::disable",
   "linker_set_key" : "_ZN5scudo20SizeClassAllocator32INS_19AndroidSvelteConfigEE7disableEv",
   "parameters" :
   [
    {
     "is_this_ptr" : true,
     "referenced_type" : "_ZTIPN5scudo20SizeClassAllocator32INS_19AndroidSvelteConfigEEE"
    }
   ],
   "return_type" : "_ZTIv",
   "source_file" : "external/scudo/standalone/primary32.h"
  },
  {
   "function_name" : "scudo::SizeClassAllocator32<scudo::AndroidSvelteConfig>::popBatch",
   "linker_set_key" : "_ZN5scudo20SizeClassAllocator32INS_19AndroidSvelteConfigEE8popBatchEPNS_28SizeClassAllocatorLocalCacheIS2_EEm",
   "parameters" :
   [
    {
     "is_this_ptr" : true,
     "referenced_type" : "_ZTIPN5scudo20SizeClassAllocator32INS_19AndroidSvelteConfigEEE"
    },
    {
     "referenced_type" : "_ZTIPN5scudo28SizeClassAllocatorLocalCacheINS_20SizeClassAllocator32INS_19AndroidSvelteConfigEEEEE"
    },
    {
     "referenced_type" : "_ZTIm"
    }
   ],
   "return_type" : "_ZTIPN5scudo28SizeClassAllocatorLocalCacheINS_20SizeClassAllocator32INS_19AndroidSvelteConfigEEEE13TransferBatchE",
   "source_file" : "external/scudo/standalone/primary32.h"
  },
  {
   "function_name" : "scudo::SizeClassAllocator32<scudo::AndroidSvelteConfig>::pushBatch",
   "linker_set_key" : "_ZN5scudo20SizeClassAllocator32INS_19AndroidSvelteConfigEE9pushBatchEmPNS_28SizeClassAllocatorLocalCacheIS2_E13TransferBatchE",
   "parameters" :
   [
    {
     "is_this_ptr" : true,
     "referenced_type" : "_ZTIPN5scudo20SizeClassAllocator32INS_19AndroidSvelteConfigEEE"
    },
    {
     "referenced_type" : "_ZTIm"
    },
    {
     "referenced_type" : "_ZTIPN5scudo28SizeClassAllocatorLocalCacheINS_20SizeClassAllocator32INS_19AndroidSvelteConfigEEEE13TransferBatchE"
    }
   ],
   "return_type" : "_ZTIv",
   "source_file" : "external/scudo/standalone/primary32.h"
  },
  {
   "function_name" : "scudo::SizeClassAllocator32<scudo::AndroidSvelteConfig>::setOption",
   "linker_set_key" : "_ZN5scudo20SizeClassAllocator32INS_19AndroidSvelteConfigEE9setOptionENS_6OptionEl",
   "parameters" :
   [
    {
     "is_this_ptr" : true,
     "referenced_type" : "_ZTIPN5scudo20SizeClassAllocator32INS_19AndroidSvelteConfigEEE"
    },
    {
     "referenced_type" : "_ZTIN5scudo6OptionE"
    },
    {
     "referenced_type" : "_ZTIl"
    }
   ],
   "return_type" : "_ZTIb",
   "source_file" : "external/scudo/standalone/primary32.h"
  },
  {
   "function_name" : "scudo::atomic_store_relaxed",
   "linker_set_key" : "_ZN5scudo20atomic_store_relaxedINS_10atomic_s32EEEvPVT_NS2_4TypeE",
   "parameters" :
   [
    {
     "referenced_type" : "_ZTIPVN5scudo10atomic_s32E"
    },
    {
     "referenced_type" : "_ZTIi"
    }
   ],
   "return_type" : "_ZTIv",
   "source_file" : "external/scudo/standalone/atomic_helpers.h",
   "template_args" : [ "_ZTIN5scudo10atomic_s32E" ]
  },
  {
   "function_name" : "scudo::atomic_store_relaxed",
   "linker_set_key" : "_ZN5scudo20atomic_store_relaxedINS_10atomic_u32EEEvPVT_NS2_4TypeE",
   "parameters" :
   [
    {
     "referenced_type" : "_ZTIPVN5scudo10atomic_u32E"
    },
    {
     "referenced_type" : "_ZTIj"
    }
   ],
   "return_type" : "_ZTIv",
   "source_file" : "external/scudo/standalone/atomic_helpers.h",
   "template_args" : [ "_ZTIN5scudo10atomic_u32E" ]
  },
  {
   "function_name" : "scudo::atomic_store_relaxed",
   "linker_set_key" : "_ZN5scudo20atomic_store_relaxedINS_10atomic_u64EEEvPVT_NS2_4TypeE",
   "parameters" :
   [
    {
     "referenced_type" : "_ZTIPVN5scudo10atomic_u64E"
    },
    {
     "referenced_type" : "_ZTIy"
    }
   ],
   "return_type" : "_ZTIv",
   "source_file" : "external/scudo/standalone/atomic_helpers.h",
   "template_args" : [ "_ZTIN5scudo10atomic_u64E" ]
  },
  {
   "function_name" : "scudo::atomic_store_relaxed",
   "linker_set_key" : "_ZN5scudo20atomic_store_relaxedINS_11atomic_uptrEEEvPVT_NS2_4TypeE",
   "parameters" :
   [
    {
     "referenced_type" : "_ZTIPVN5scudo11atomic_uptrE"
    },
    {
     "referenced_type" : "_ZTIm"
    }
   ],
   "return_type" : "_ZTIv",
   "source_file" : "external/scudo/standalone/atomic_helpers.h",
   "template_args" : [ "_ZTIN5scudo11atomic_uptrE" ]
  },
  {
   "function_name" : "scudo::FreePagesRangeTracker<scudo::ReleaseRecorder>::processNextPage",
   "linker_set_key" : "_ZN5scudo21FreePagesRangeTrackerINS_15ReleaseRecorderEE15processNextPageEb",
   "parameters" :
   [
    {
     "is_this_ptr" : true,
     "referenced_type" : "_ZTIPN5scudo21FreePagesRangeTrackerINS_15ReleaseRecorderEEE"
    },
    {
     "referenced_type" : "_ZTIb"
    }
   ],
   "return_type" : "_ZTIv",
   "source_file" : "external/scudo/standalone/release.h"
  },
  {
   "access" : "private",
   "function_name" : "scudo::FreePagesRangeTracker<scudo::ReleaseRecorder>::closeOpenedRange",
   "linker_set_key" : "_ZN5scudo21FreePagesRangeTrackerINS_15ReleaseRecorderEE16closeOpenedRangeEv",
   "parameters" :
   [
    {
     "is_this_ptr" : true,
     "referenced_type" : "_ZTIPN5scudo21FreePagesRangeTrackerINS_15ReleaseRecorderEEE"
    }
   ],
   "return_type" : "_ZTIv",
   "source_file" : "external/scudo/standalone/release.h"
  },
  {
   "function_name" : "scudo::FreePagesRangeTracker<scudo::ReleaseRecorder>::finish",
   "linker_set_key" : "_ZN5scudo21FreePagesRangeTrackerINS_15ReleaseRecorderEE6finishEv",
   "parameters" :
   [
    {
     "is_this_ptr" : true,
     "referenced_type" : "_ZTIPN5scudo21FreePagesRangeTrackerINS_15ReleaseRecorderEEE"
    }
   ],
   "return_type" : "_ZTIv",
   "source_file" : "external/scudo/standalone/release.h"
  },
  {
   "function_name" : "scudo::FreePagesRangeTracker<scudo::ReleaseRecorder>::skipPages",
   "linker_set_key" : "_ZN5scudo21FreePagesRangeTrackerINS_15ReleaseRecorderEE9skipPagesEm",
   "parameters" :
   [
    {
     "is_this_ptr" : true,
     "referenced_type" : "_ZTIPN5scudo21FreePagesRangeTrackerINS_15ReleaseRecorderEEE"
    },
    {
     "referenced_type" : "_ZTIm"
    }
   ],
   "return_type" : "_ZTIv",
   "source_file" : "external/scudo/standalone/release.h"
  },
  {
   "function_name" : "scudo::FreePagesRangeTracker<scudo::ReleaseRecorder>::FreePagesRangeTracker",
   "linker_set_key" : "_ZN5scudo21FreePagesRangeTrackerINS_15ReleaseRecorderEEC1EPS1_",
   "parameters" :
   [
    {
     "is_this_ptr" : true,
     "referenced_type" : "_ZTIPN5scudo21FreePagesRangeTrackerINS_15ReleaseRecorderEEE"
    },
    {
     "referenced_type" : "_ZTIPN5scudo15ReleaseRecorderE"
    }
   ],
   "return_type" : "_ZTIv",
   "source_file" : "external/scudo/standalone/release.h"
  },
  {
   "function_name" : "scudo::FreePagesRangeTracker<scudo::ReleaseRecorder>::FreePagesRangeTracker",
   "linker_set_key" : "_ZN5scudo21FreePagesRangeTrackerINS_15ReleaseRecorderEEC2EPS1_",
   "parameters" :
   [
    {
     "is_this_ptr" : true,
     "referenced_type" : "_ZTIPN5scudo21FreePagesRangeTrackerINS_15ReleaseRecorderEEE"
    },
    {
     "referenced_type" : "_ZTIPN5scudo15ReleaseRecorderE"
    }
   ],
   "return_type" : "_ZTIv",
   "source_file" : "external/scudo/standalone/release.h"
  },
  {
   "function_name" : "scudo::checkForCallocOverflow",
   "linker_set_key" : "_ZN5scudo22checkForCallocOverflowEmmPm",
   "parameters" :
   [
    {
     "referenced_type" : "_ZTIm"
    },
    {
     "referenced_type" : "_ZTIm"
    },
    {
     "referenced_type" : "_ZTIPm"
    }
   ],
   "return_type" : "_ZTIb",
   "source_file" : "external/scudo/standalone/wrappers_c_checks.h"
  },
  {
   "function_name" : "scudo::checkForPvallocOverflow",
   "linker_set_key" : "_ZN5scudo23checkForPvallocOverflowEmm",
   "parameters" :
   [
    {
     "referenced_type" : "_ZTIm"
    },
    {
     "referenced_type" : "_ZTIm"
    }
   ],
   "return_type" : "_ZTIb",
   "source_file" : "external/scudo/standalone/wrappers_c_checks.h"
  },
  {
   "function_name" : "scudo::archMemoryTagGranuleSize",
   "linker_set_key" : "_ZN5scudo24archMemoryTagGranuleSizeEv",
   "return_type" : "_ZTIm",
   "source_file" : "external/scudo/standalone/memtag.h"
  },
  {
   "function_name" : "scudo::archSupportsMemoryTagging",
   "linker_set_key" : "_ZN5scudo25archSupportsMemoryTaggingEv",
   "return_type" : "_ZTIb",
   "source_file" : "external/scudo/standalone/memtag.h"
  },
  {
   "function_name" : "scudo::checkPosixMemalignAlignment",
   "linker_set_key" : "_ZN5scudo27checkPosixMemalignAlignmentEm",
   "parameters" :
   [
    {
     "referenced_type" : "_ZTIm"
    }
   ],
   "return_type" : "_ZTIb",
   "source_file" : "external/scudo/standalone/wrappers_c_checks.h"
  },
  {
   "function_name" : "scudo::systemSupportsMemoryTagging",
   "linker_set_key" : "_ZN5scudo27systemSupportsMemoryTaggingEv",
   "return_type" : "_ZTIb",
   "source_file" : "external/scudo/standalone/memtag.h"
  },
  {
   "function_name" : "scudo::ScopedDisableMemoryTagChecks::ScopedDisableMemoryTagChecks",
   "linker_set_key" : "_ZN5scudo28ScopedDisableMemoryTagChecksC1Ev",
   "parameters" :
   [
    {
     "is_this_ptr" : true,
     "referenced_type" : "_ZTIPN5scudo28ScopedDisableMemoryTagChecksE"
    }
   ],
   "return_type" : "_ZTIv",
   "source_file" : "external/scudo/standalone/memtag.h"
  },
  {
   "function_name" : "scudo::ScopedDisableMemoryTagChecks::ScopedDisableMemoryTagChecks",
   "linker_set_key" : "_ZN5scudo28ScopedDisableMemoryTagChecksC2Ev",
   "parameters" :
   [
    {
     "is_this_ptr" : true,
     "referenced_type" : "_ZTIPN5scudo28ScopedDisableMemoryTagChecksE"
    }
   ],
   "return_type" : "_ZTIv",
   "source_file" : "external/scudo/standalone/memtag.h"
  },
  {
   "function_name" : "scudo::SizeClassAllocatorLocalCache<scudo::SizeClassAllocator32<scudo::AndroidConfig>>::deallocate",
   "linker_set_key" : "_ZN5scudo28SizeClassAllocatorLocalCacheINS_20SizeClassAllocator32INS_13AndroidConfigEEEE10deallocateEmPv",
   "parameters" :
   [
    {
     "is_this_ptr" : true,
     "referenced_type" : "_ZTIPN5scudo28SizeClassAllocatorLocalCacheINS_20SizeClassAllocator32INS_13AndroidConfigEEEEE"
    },
    {
     "referenced_type" : "_ZTIm"
    },
    {
     "referenced_type" : "_ZTIPv"
    }
   ],
   "return_type" : "_ZTIv",
   "source_file" : "external/scudo/standalone/local_cache.h"
  },
  {
   "function_name" : "scudo::SizeClassAllocatorLocalCache<scudo::SizeClassAllocator32<scudo::AndroidConfig>>::createBatch",
   "linker_set_key" : "_ZN5scudo28SizeClassAllocatorLocalCacheINS_20SizeClassAllocator32INS_13AndroidConfigEEEE11createBatchEmPv",
   "parameters" :
   [
    {
     "is_this_ptr" : true,
     "referenced_type" : "_ZTIPN5scudo28SizeClassAllocatorLocalCacheINS_20SizeClassAllocator32INS_13AndroidConfigEEEEE"
    },
    {
     "referenced_type" : "_ZTIm"
    },
    {
     "referenced_type" : "_ZTIPv"
    }
   ],
   "return_type" : "_ZTIPN5scudo28SizeClassAllocatorLocalCacheINS_20SizeClassAllocator32INS_13AndroidConfigEEEE13TransferBatchE",
   "source_file" : "external/scudo/standalone/local_cache.h"
  },
  {
   "access" : "private",
   "function_name" : "scudo::SizeClassAllocatorLocalCache<scudo::SizeClassAllocator32<scudo::AndroidConfig>>::destroyBatch",
   "linker_set_key" : "_ZN5scudo28SizeClassAllocatorLocalCacheINS_20SizeClassAllocator32INS_13AndroidConfigEEEE12destroyBatchEmPv",
   "parameters" :
   [
    {
     "is_this_ptr" : true,
     "referenced_type" : "_ZTIPN5scudo28SizeClassAllocatorLocalCacheINS_20SizeClassAllocator32INS_13AndroidConfigEEEEE"
    },
    {
     "referenced_type" : "_ZTIm"
    },
    {
     "referenced_type" : "_ZTIPv"
    }
   ],
   "return_type" : "_ZTIv",
   "source_file" : "external/scudo/standalone/local_cache.h"
  },
  {
   "function_name" : "scudo::SizeClassAllocatorLocalCache<scudo::SizeClassAllocator32<scudo::AndroidConfig>>::TransferBatch::getMaxCached",
   "linker_set_key" : "_ZN5scudo28SizeClassAllocatorLocalCacheINS_20SizeClassAllocator32INS_13AndroidConfigEEEE13TransferBatch12getMaxCachedEm",
   "parameters" :
   [
    {
     "referenced_type" : "_ZTIm"
    }
   ],
   "return_type" : "_ZTIj",
   "source_file" : "external/scudo/standalone/local_cache.h"
  },
  {
   "function_name" : "scudo::SizeClassAllocatorLocalCache<scudo::SizeClassAllocator32<scudo::AndroidConfig>>::TransferBatch::setFromArray",
   "linker_set_key" : "_ZN5scudo28SizeClassAllocatorLocalCacheINS_20SizeClassAllocator32INS_13AndroidConfigEEEE13TransferBatch12setFromArrayEPmj",
   "parameters" :
   [
    {
     "is_this_ptr" : true,
     "referenced_type" : "_ZTIPN5scudo28SizeClassAllocatorLocalCacheINS_20SizeClassAllocator32INS_13AndroidConfigEEEE13TransferBatchE"
    },
    {
     "referenced_type" : "_ZTIPm"
    },
    {
     "referenced_type" : "_ZTIj"
    }
   ],
   "return_type" : "_ZTIv",
   "source_file" : "external/scudo/standalone/local_cache.h"
  },
  {
   "function_name" : "scudo::SizeClassAllocatorLocalCache<scudo::SizeClassAllocator32<scudo::AndroidConfig>>::TransferBatch::clear",
   "linker_set_key" : "_ZN5scudo28SizeClassAllocatorLocalCacheINS_20SizeClassAllocator32INS_13AndroidConfigEEEE13TransferBatch5clearEv",
   "parameters" :
   [
    {
     "is_this_ptr" : true,
     "referenced_type" : "_ZTIPN5scudo28SizeClassAllocatorLocalCacheINS_20SizeClassAllocator32INS_13AndroidConfigEEEE13TransferBatchE"
    }
   ],
   "return_type" : "_ZTIv",
   "source_file" : "external/scudo/standalone/local_cache.h"
  },
  {
   "access" : "private",
   "function_name" : "scudo::SizeClassAllocatorLocalCache<scudo::SizeClassAllocator32<scudo::AndroidConfig>>::initCacheMaybe",
   "linker_set_key" : "_ZN5scudo28SizeClassAllocatorLocalCacheINS_20SizeClassAllocator32INS_13AndroidConfigEEEE14initCacheMaybeEPNS4_8PerClassE",
   "parameters" :
   [
    {
     "is_this_ptr" : true,
     "referenced_type" : "_ZTIPN5scudo28SizeClassAllocatorLocalCacheINS_20SizeClassAllocator32INS_13AndroidConfigEEEEE"
    },
    {
     "referenced_type" : "_ZTIPN5scudo28SizeClassAllocatorLocalCacheINS_20SizeClassAllocator32INS_13AndroidConfigEEEE8PerClassE"
    }
   ],
   "return_type" : "_ZTIv",
   "source_file" : "external/scudo/standalone/local_cache.h"
  },
  {
   "function_name" : "scudo::SizeClassAllocatorLocalCache<scudo::SizeClassAllocator32<scudo::AndroidConfig>>::initLinkerInitialized",
   "linker_set_key" : "_ZN5scudo28SizeClassAllocatorLocalCacheINS_20SizeClassAllocator32INS_13AndroidConfigEEEE21initLinkerInitializedEPNS_11GlobalStatsEPS3_",
   "parameters" :
   [
    {
     "is_this_ptr" : true,
     "referenced_type" : "_ZTIPN5scudo28SizeClassAllocatorLocalCacheINS_20SizeClassAllocator32INS_13AndroidConfigEEEEE"
    },
    {
     "referenced_type" : "_ZTIPN5scudo11GlobalStatsE"
    },
    {
     "referenced_type" : "_ZTIPN5scudo20SizeClassAllocator32INS_13AndroidConfigEEE"
    }
   ],
   "return_type" : "_ZTIv",
   "source_file" : "external/scudo/standalone/local_cache.h"
  },
  {
   "access" : "private",
   "function_name" : "scudo::SizeClassAllocatorLocalCache<scudo::SizeClassAllocator32<scudo::AndroidConfig>>::drain",
   "linker_set_key" : "_ZN5scudo28SizeClassAllocatorLocalCacheINS_20SizeClassAllocator32INS_13AndroidConfigEEEE5drainEPNS4_8PerClassEm",
   "parameters" :
   [
    {
     "is_this_ptr" : true,
     "referenced_type" : "_ZTIPN5scudo28SizeClassAllocatorLocalCacheINS_20SizeClassAllocator32INS_13AndroidConfigEEEEE"
    },
    {
     "referenced_type" : "_ZTIPN5scudo28SizeClassAllocatorLocalCacheINS_20SizeClassAllocator32INS_13AndroidConfigEEEE8PerClassE"
    },
    {
     "referenced_type" : "_ZTIm"
    }
   ],
   "return_type" : "_ZTIv",
   "source_file" : "external/scudo/standalone/local_cache.h"
  },
  {
   "access" : "private",
   "function_name" : "scudo::SizeClassAllocatorLocalCache<scudo::SizeClassAllocator32<scudo::AndroidConfig>>::refill",
   "linker_set_key" : "_ZN5scudo28SizeClassAllocatorLocalCacheINS_20SizeClassAllocator32INS_13AndroidConfigEEEE6refillEPNS4_8PerClassEm",
   "parameters" :
   [
    {
     "is_this_ptr" : true,
     "referenced_type" : "_ZTIPN5scudo28SizeClassAllocatorLocalCacheINS_20SizeClassAllocator32INS_13AndroidConfigEEEEE"
    },
    {
     "referenced_type" : "_ZTIPN5scudo28SizeClassAllocatorLocalCacheINS_20SizeClassAllocator32INS_13AndroidConfigEEEE8PerClassE"
    },
    {
     "referenced_type" : "_ZTIm"
    }
   ],
   "return_type" : "_ZTIb",
   "source_file" : "external/scudo/standalone/local_cache.h"
  },
  {
   "function_name" : "scudo::SizeClassAllocatorLocalCache<scudo::SizeClassAllocator32<scudo::AndroidConfig>>::allocate",
   "linker_set_key" : "_ZN5scudo28SizeClassAllocatorLocalCacheINS_20SizeClassAllocator32INS_13AndroidConfigEEEE8allocateEm",
   "parameters" :
   [
    {
     "is_this_ptr" : true,
     "referenced_type" : "_ZTIPN5scudo28SizeClassAllocatorLocalCacheINS_20SizeClassAllocator32INS_13AndroidConfigEEEEE"
    },
    {
     "referenced_type" : "_ZTIm"
    }
   ],
   "return_type" : "_ZTIPv",
   "source_file" : "external/scudo/standalone/local_cache.h"
  },
  {
   "function_name" : "scudo::SizeClassAllocatorLocalCache<scudo::SizeClassAllocator32<scudo::AndroidConfig>>::getStats",
   "linker_set_key" : "_ZN5scudo28SizeClassAllocatorLocalCacheINS_20SizeClassAllocator32INS_13AndroidConfigEEEE8getStatsEv",
   "parameters" :
   [
    {
     "is_this_ptr" : true,
     "referenced_type" : "_ZTIPN5scudo28SizeClassAllocatorLocalCacheINS_20SizeClassAllocator32INS_13AndroidConfigEEEEE"
    }
   ],
   "return_type" : "_ZTIRN5scudo10LocalStatsE",
   "source_file" : "external/scudo/standalone/local_cache.h"
  },
  {
   "access" : "private",
   "function_name" : "scudo::SizeClassAllocatorLocalCache<scudo::SizeClassAllocator32<scudo::AndroidConfig>>::initCache",
   "linker_set_key" : "_ZN5scudo28SizeClassAllocatorLocalCacheINS_20SizeClassAllocator32INS_13AndroidConfigEEEE9initCacheEv",
   "parameters" :
   [
    {
     "is_this_ptr" : true,
     "referenced_type" : "_ZTIPN5scudo28SizeClassAllocatorLocalCacheINS_20SizeClassAllocator32INS_13AndroidConfigEEEEE"
    }
   ],
   "return_type" : "_ZTIv",
   "source_file" : "external/scudo/standalone/local_cache.h"
  },
  {
   "function_name" : "scudo::SizeClassAllocatorLocalCache<scudo::SizeClassAllocator32<scudo::AndroidSvelteConfig>>::deallocate",
   "linker_set_key" : "_ZN5scudo28SizeClassAllocatorLocalCacheINS_20SizeClassAllocator32INS_19AndroidSvelteConfigEEEE10deallocateEmPv",
   "parameters" :
   [
    {
     "is_this_ptr" : true,
     "referenced_type" : "_ZTIPN5scudo28SizeClassAllocatorLocalCacheINS_20SizeClassAllocator32INS_19AndroidSvelteConfigEEEEE"
    },
    {
     "referenced_type" : "_ZTIm"
    },
    {
     "referenced_type" : "_ZTIPv"
    }
   ],
   "return_type" : "_ZTIv",
   "source_file" : "external/scudo/standalone/local_cache.h"
  },
  {
   "function_name" : "scudo::SizeClassAllocatorLocalCache<scudo::SizeClassAllocator32<scudo::AndroidSvelteConfig>>::createBatch",
   "linker_set_key" : "_ZN5scudo28SizeClassAllocatorLocalCacheINS_20SizeClassAllocator32INS_19AndroidSvelteConfigEEEE11createBatchEmPv",
   "parameters" :
   [
    {
     "is_this_ptr" : true,
     "referenced_type" : "_ZTIPN5scudo28SizeClassAllocatorLocalCacheINS_20SizeClassAllocator32INS_19AndroidSvelteConfigEEEEE"
    },
    {
     "referenced_type" : "_ZTIm"
    },
    {
     "referenced_type" : "_ZTIPv"
    }
   ],
   "return_type" : "_ZTIPN5scudo28SizeClassAllocatorLocalCacheINS_20SizeClassAllocator32INS_19AndroidSvelteConfigEEEE13TransferBatchE",
   "source_file" : "external/scudo/standalone/local_cache.h"
  },
  {
   "access" : "private",
   "function_name" : "scudo::SizeClassAllocatorLocalCache<scudo::SizeClassAllocator32<scudo::AndroidSvelteConfig>>::destroyBatch",
   "linker_set_key" : "_ZN5scudo28SizeClassAllocatorLocalCacheINS_20SizeClassAllocator32INS_19AndroidSvelteConfigEEEE12destroyBatchEmPv",
   "parameters" :
   [
    {
     "is_this_ptr" : true,
     "referenced_type" : "_ZTIPN5scudo28SizeClassAllocatorLocalCacheINS_20SizeClassAllocator32INS_19AndroidSvelteConfigEEEEE"
    },
    {
     "referenced_type" : "_ZTIm"
    },
    {
     "referenced_type" : "_ZTIPv"
    }
   ],
   "return_type" : "_ZTIv",
   "source_file" : "external/scudo/standalone/local_cache.h"
  },
  {
   "function_name" : "scudo::SizeClassAllocatorLocalCache<scudo::SizeClassAllocator32<scudo::AndroidSvelteConfig>>::TransferBatch::getMaxCached",
   "linker_set_key" : "_ZN5scudo28SizeClassAllocatorLocalCacheINS_20SizeClassAllocator32INS_19AndroidSvelteConfigEEEE13TransferBatch12getMaxCachedEm",
   "parameters" :
   [
    {
     "referenced_type" : "_ZTIm"
    }
   ],
   "return_type" : "_ZTIj",
   "source_file" : "external/scudo/standalone/local_cache.h"
  },
  {
   "function_name" : "scudo::SizeClassAllocatorLocalCache<scudo::SizeClassAllocator32<scudo::AndroidSvelteConfig>>::TransferBatch::setFromArray",
   "linker_set_key" : "_ZN5scudo28SizeClassAllocatorLocalCacheINS_20SizeClassAllocator32INS_19AndroidSvelteConfigEEEE13TransferBatch12setFromArrayEPmj",
   "parameters" :
   [
    {
     "is_this_ptr" : true,
     "referenced_type" : "_ZTIPN5scudo28SizeClassAllocatorLocalCacheINS_20SizeClassAllocator32INS_19AndroidSvelteConfigEEEE13TransferBatchE"
    },
    {
     "referenced_type" : "_ZTIPm"
    },
    {
     "referenced_type" : "_ZTIj"
    }
   ],
   "return_type" : "_ZTIv",
   "source_file" : "external/scudo/standalone/local_cache.h"
  },
  {
   "function_name" : "scudo::SizeClassAllocatorLocalCache<scudo::SizeClassAllocator32<scudo::AndroidSvelteConfig>>::TransferBatch::clear",
   "linker_set_key" : "_ZN5scudo28SizeClassAllocatorLocalCacheINS_20SizeClassAllocator32INS_19AndroidSvelteConfigEEEE13TransferBatch5clearEv",
   "parameters" :
   [
    {
     "is_this_ptr" : true,
     "referenced_type" : "_ZTIPN5scudo28SizeClassAllocatorLocalCacheINS_20SizeClassAllocator32INS_19AndroidSvelteConfigEEEE13TransferBatchE"
    }
   ],
   "return_type" : "_ZTIv",
   "source_file" : "external/scudo/standalone/local_cache.h"
  },
  {
   "access" : "private",
   "function_name" : "scudo::SizeClassAllocatorLocalCache<scudo::SizeClassAllocator32<scudo::AndroidSvelteConfig>>::initCacheMaybe",
   "linker_set_key" : "_ZN5scudo28SizeClassAllocatorLocalCacheINS_20SizeClassAllocator32INS_19AndroidSvelteConfigEEEE14initCacheMaybeEPNS4_8PerClassE",
   "parameters" :
   [
    {
     "is_this_ptr" : true,
     "referenced_type" : "_ZTIPN5scudo28SizeClassAllocatorLocalCacheINS_20SizeClassAllocator32INS_19AndroidSvelteConfigEEEEE"
    },
    {
     "referenced_type" : "_ZTIPN5scudo28SizeClassAllocatorLocalCacheINS_20SizeClassAllocator32INS_19AndroidSvelteConfigEEEE8PerClassE"
    }
   ],
   "return_type" : "_ZTIv",
   "source_file" : "external/scudo/standalone/local_cache.h"
  },
  {
   "function_name" : "scudo::SizeClassAllocatorLocalCache<scudo::SizeClassAllocator32<scudo::AndroidSvelteConfig>>::initLinkerInitialized",
   "linker_set_key" : "_ZN5scudo28SizeClassAllocatorLocalCacheINS_20SizeClassAllocator32INS_19AndroidSvelteConfigEEEE21initLinkerInitializedEPNS_11GlobalStatsEPS3_",
   "parameters" :
   [
    {
     "is_this_ptr" : true,
     "referenced_type" : "_ZTIPN5scudo28SizeClassAllocatorLocalCacheINS_20SizeClassAllocator32INS_19AndroidSvelteConfigEEEEE"
    },
    {
     "referenced_type" : "_ZTIPN5scudo11GlobalStatsE"
    },
    {
     "referenced_type" : "_ZTIPN5scudo20SizeClassAllocator32INS_19AndroidSvelteConfigEEE"
    }
   ],
   "return_type" : "_ZTIv",
   "source_file" : "external/scudo/standalone/local_cache.h"
  },
  {
   "access" : "private",
   "function_name" : "scudo::SizeClassAllocatorLocalCache<scudo::SizeClassAllocator32<scudo::AndroidSvelteConfig>>::drain",
   "linker_set_key" : "_ZN5scudo28SizeClassAllocatorLocalCacheINS_20SizeClassAllocator32INS_19AndroidSvelteConfigEEEE5drainEPNS4_8PerClassEm",
   "parameters" :
   [
    {
     "is_this_ptr" : true,
     "referenced_type" : "_ZTIPN5scudo28SizeClassAllocatorLocalCacheINS_20SizeClassAllocator32INS_19AndroidSvelteConfigEEEEE"
    },
    {
     "referenced_type" : "_ZTIPN5scudo28SizeClassAllocatorLocalCacheINS_20SizeClassAllocator32INS_19AndroidSvelteConfigEEEE8PerClassE"
    },
    {
     "referenced_type" : "_ZTIm"
    }
   ],
   "return_type" : "_ZTIv",
   "source_file" : "external/scudo/standalone/local_cache.h"
  },
  {
   "access" : "private",
   "function_name" : "scudo::SizeClassAllocatorLocalCache<scudo::SizeClassAllocator32<scudo::AndroidSvelteConfig>>::refill",
   "linker_set_key" : "_ZN5scudo28SizeClassAllocatorLocalCacheINS_20SizeClassAllocator32INS_19AndroidSvelteConfigEEEE6refillEPNS4_8PerClassEm",
   "parameters" :
   [
    {
     "is_this_ptr" : true,
     "referenced_type" : "_ZTIPN5scudo28SizeClassAllocatorLocalCacheINS_20SizeClassAllocator32INS_19AndroidSvelteConfigEEEEE"
    },
    {
     "referenced_type" : "_ZTIPN5scudo28SizeClassAllocatorLocalCacheINS_20SizeClassAllocator32INS_19AndroidSvelteConfigEEEE8PerClassE"
    },
    {
     "referenced_type" : "_ZTIm"
    }
   ],
   "return_type" : "_ZTIb",
   "source_file" : "external/scudo/standalone/local_cache.h"
  },
  {
   "function_name" : "scudo::SizeClassAllocatorLocalCache<scudo::SizeClassAllocator32<scudo::AndroidSvelteConfig>>::allocate",
   "linker_set_key" : "_ZN5scudo28SizeClassAllocatorLocalCacheINS_20SizeClassAllocator32INS_19AndroidSvelteConfigEEEE8allocateEm",
   "parameters" :
   [
    {
     "is_this_ptr" : true,
     "referenced_type" : "_ZTIPN5scudo28SizeClassAllocatorLocalCacheINS_20SizeClassAllocator32INS_19AndroidSvelteConfigEEEEE"
    },
    {
     "referenced_type" : "_ZTIm"
    }
   ],
   "return_type" : "_ZTIPv",
   "source_file" : "external/scudo/standalone/local_cache.h"
  },
  {
   "function_name" : "scudo::SizeClassAllocatorLocalCache<scudo::SizeClassAllocator32<scudo::AndroidSvelteConfig>>::getStats",
   "linker_set_key" : "_ZN5scudo28SizeClassAllocatorLocalCacheINS_20SizeClassAllocator32INS_19AndroidSvelteConfigEEEE8getStatsEv",
   "parameters" :
   [
    {
     "is_this_ptr" : true,
     "referenced_type" : "_ZTIPN5scudo28SizeClassAllocatorLocalCacheINS_20SizeClassAllocator32INS_19AndroidSvelteConfigEEEEE"
    }
   ],
   "return_type" : "_ZTIRN5scudo10LocalStatsE",
   "source_file" : "external/scudo/standalone/local_cache.h"
  },
  {
   "access" : "private",
   "function_name" : "scudo::SizeClassAllocatorLocalCache<scudo::SizeClassAllocator32<scudo::AndroidSvelteConfig>>::initCache",
   "linker_set_key" : "_ZN5scudo28SizeClassAllocatorLocalCacheINS_20SizeClassAllocator32INS_19AndroidSvelteConfigEEEE9initCacheEv",
   "parameters" :
   [
    {
     "is_this_ptr" : true,
     "referenced_type" : "_ZTIPN5scudo28SizeClassAllocatorLocalCacheINS_20SizeClassAllocator32INS_19AndroidSvelteConfigEEEEE"
    }
   ],
   "return_type" : "_ZTIv",
   "source_file" : "external/scudo/standalone/local_cache.h"
  },
  {
   "function_name" : "scudo::enableMemoryTagChecksTestOnly",
   "linker_set_key" : "_ZN5scudo29enableMemoryTagChecksTestOnlyEv",
   "return_type" : "_ZTIv",
   "source_file" : "external/scudo/standalone/memtag.h"
  },
  {
   "function_name" : "scudo::getMostSignificantSetBitIndex",
   "linker_set_key" : "_ZN5scudo29getMostSignificantSetBitIndexEm",
   "parameters" :
   [
    {
     "referenced_type" : "_ZTIm"
    }
   ],
   "return_type" : "_ZTIm",
   "source_file" : "external/scudo/standalone/common.h"
  },
  {
   "function_name" : "scudo::allocatorSupportsMemoryTagging",
   "linker_set_key" : "_ZN5scudo30allocatorSupportsMemoryTaggingINS_13AndroidConfigEEEbv",
   "return_type" : "_ZTIb",
   "source_file" : "external/scudo/standalone/memtag.h",
   "template_args" : [ "_ZTIN5scudo13AndroidConfigE" ]
  },
  {
   "function_name" : "scudo::allocatorSupportsMemoryTagging",
   "linker_set_key" : "_ZN5scudo30allocatorSupportsMemoryTaggingINS_19AndroidSvelteConfigEEEbv",
   "return_type" : "_ZTIb",
   "source_file" : "external/scudo/standalone/memtag.h",
   "template_args" : [ "_ZTIN5scudo19AndroidSvelteConfigE" ]
  },
  {
   "function_name" : "scudo::atomic_compare_exchange_strong",
   "linker_set_key" : "_ZN5scudo30atomic_compare_exchange_strongINS_10atomic_u32EEEbPVT_PNS2_4TypeES5_NS_12memory_orderE",
   "parameters" :
   [
    {
     "referenced_type" : "_ZTIPVN5scudo10atomic_u32E"
    },
    {
     "referenced_type" : "_ZTIPj"
    },
    {
     "referenced_type" : "_ZTIj"
    },
    {
     "referenced_type" : "_ZTIN5scudo12memory_orderE"
    }
   ],
   "return_type" : "_ZTIb",
   "source_file" : "external/scudo/standalone/atomic_helpers.h",
   "template_args" : [ "_ZTIN5scudo10atomic_u32E" ]
  },
  {
   "function_name" : "scudo::atomic_compare_exchange_strong",
   "linker_set_key" : "_ZN5scudo30atomic_compare_exchange_strongINS_10atomic_u64EEEbPVT_PNS2_4TypeES5_NS_12memory_orderE",
   "parameters" :
   [
    {
     "referenced_type" : "_ZTIPVN5scudo10atomic_u64E"
    },
    {
     "referenced_type" : "_ZTIPy"
    },
    {
     "referenced_type" : "_ZTIy"
    },
    {
     "referenced_type" : "_ZTIN5scudo12memory_orderE"
    }
   ],
   "return_type" : "_ZTIb",
   "source_file" : "external/scudo/standalone/atomic_helpers.h",
   "template_args" : [ "_ZTIN5scudo10atomic_u64E" ]
  },
  {
   "function_name" : "scudo::disableMemoryTagChecksTestOnly",
   "linker_set_key" : "_ZN5scudo30disableMemoryTagChecksTestOnlyEv",
   "return_type" : "_ZTIv",
   "source_file" : "external/scudo/standalone/memtag.h"
  },
  {
   "function_name" : "scudo::getLeastSignificantSetBitIndex",
   "linker_set_key" : "_ZN5scudo30getLeastSignificantSetBitIndexEm",
   "parameters" :
   [
    {
     "referenced_type" : "_ZTIm"
    }
   ],
   "return_type" : "_ZTIm",
   "source_file" : "external/scudo/standalone/common.h"
  },
  {
   "function_name" : "scudo::checkAlignedAllocAlignmentAndSize",
   "linker_set_key" : "_ZN5scudo33checkAlignedAllocAlignmentAndSizeEmm",
   "parameters" :
   [
    {
     "referenced_type" : "_ZTIm"
    },
    {
     "referenced_type" : "_ZTIm"
    }
   ],
   "return_type" : "_ZTIb",
   "source_file" : "external/scudo/standalone/wrappers_c_checks.h"
  },
  {
   "function_name" : "scudo::systemDetectsMemoryTagFaultsTestOnly",
   "linker_set_key" : "_ZN5scudo36systemDetectsMemoryTagFaultsTestOnlyEv",
   "return_type" : "_ZTIb",
   "source_file" : "external/scudo/standalone/memtag.h"
  },
  {
   "function_name" : "scudo::Max",
   "linker_set_key" : "_ZN5scudo3MaxIiEET_S1_S1_",
   "parameters" :
   [
    {
     "referenced_type" : "_ZTIi"
    },
    {
     "referenced_type" : "_ZTIi"
    }
   ],
   "return_type" : "_ZTIi",
   "source_file" : "external/scudo/standalone/common.h",
   "template_args" : [ "_ZTIi" ]
  },
  {
   "function_name" : "scudo::Max",
   "linker_set_key" : "_ZN5scudo3MaxIjEET_S1_S1_",
   "parameters" :
   [
    {
     "referenced_type" : "_ZTIj"
    },
    {
     "referenced_type" : "_ZTIj"
    }
   ],
   "return_type" : "_ZTIj",
   "source_file" : "external/scudo/standalone/common.h",
   "template_args" : [ "_ZTIj" ]
  },
  {
   "function_name" : "scudo::Max",
   "linker_set_key" : "_ZN5scudo3MaxImEET_S1_S1_",
   "parameters" :
   [
    {
     "referenced_type" : "_ZTIm"
    },
    {
     "referenced_type" : "_ZTIm"
    }
   ],
   "return_type" : "_ZTIm",
   "source_file" : "external/scudo/standalone/common.h",
   "template_args" : [ "_ZTIm" ]
  },
  {
   "function_name" : "scudo::Min",
   "linker_set_key" : "_ZN5scudo3MinIiEET_S1_S1_",
   "parameters" :
   [
    {
     "referenced_type" : "_ZTIi"
    },
    {
     "referenced_type" : "_ZTIi"
    }
   ],
   "return_type" : "_ZTIi",
   "source_file" : "external/scudo/standalone/common.h",
   "template_args" : [ "_ZTIi" ]
  },
  {
   "function_name" : "scudo::Min",
   "linker_set_key" : "_ZN5scudo3MinIjEET_S1_S1_",
   "parameters" :
   [
    {
     "referenced_type" : "_ZTIj"
    },
    {
     "referenced_type" : "_ZTIj"
    }
   ],
   "return_type" : "_ZTIj",
   "source_file" : "external/scudo/standalone/common.h",
   "template_args" : [ "_ZTIj" ]
  },
  {
   "function_name" : "scudo::Min",
   "linker_set_key" : "_ZN5scudo3MinImEET_S1_S1_",
   "parameters" :
   [
    {
     "referenced_type" : "_ZTIm"
    },
    {
     "referenced_type" : "_ZTIm"
    }
   ],
   "return_type" : "_ZTIm",
   "source_file" : "external/scudo/standalone/common.h",
   "template_args" : [ "_ZTIm" ]
  },
  {
   "function_name" : "scudo::TSD<scudo::Allocator<scudo::AndroidConfig, &scudo_malloc_postinit>>::getPrecedence",
   "linker_set_key" : "_ZN5scudo3TSDINS_9AllocatorINS_13AndroidConfigEXadL_Z21scudo_malloc_postinitEEEEE13getPrecedenceEv",
   "parameters" :
   [
    {
     "is_this_ptr" : true,
     "referenced_type" : "_ZTIPN5scudo3TSDINS_9AllocatorINS_13AndroidConfigEXadL_Z21scudo_malloc_postinitEEEEEE"
    }
   ],
   "return_type" : "_ZTIm",
   "source_file" : "external/scudo/standalone/tsd.h"
  },
  {
   "function_name" : "scudo::TSD<scudo::Allocator<scudo::AndroidConfig, &scudo_malloc_postinit>>::initLinkerInitialized",
   "linker_set_key" : "_ZN5scudo3TSDINS_9AllocatorINS_13AndroidConfigEXadL_Z21scudo_malloc_postinitEEEEE21initLinkerInitializedEPS3_",
   "parameters" :
   [
    {
     "is_this_ptr" : true,
     "referenced_type" : "_ZTIPN5scudo3TSDINS_9AllocatorINS_13AndroidConfigEXadL_Z21scudo_malloc_postinitEEEEEE"
    },
    {
     "referenced_type" : "_ZTIPN5scudo9AllocatorINS_13AndroidConfigEXadL_Z21scudo_malloc_postinitEEEE"
    }
   ],
   "return_type" : "_ZTIv",
   "source_file" : "external/scudo/standalone/tsd.h"
  },
  {
   "function_name" : "scudo::TSD<scudo::Allocator<scudo::AndroidConfig, &scudo_malloc_postinit>>::lock",
   "linker_set_key" : "_ZN5scudo3TSDINS_9AllocatorINS_13AndroidConfigEXadL_Z21scudo_malloc_postinitEEEEE4lockEv",
   "parameters" :
   [
    {
     "is_this_ptr" : true,
     "referenced_type" : "_ZTIPN5scudo3TSDINS_9AllocatorINS_13AndroidConfigEXadL_Z21scudo_malloc_postinitEEEEEE"
    }
   ],
   "return_type" : "_ZTIv",
   "source_file" : "external/scudo/standalone/tsd.h"
  },
  {
   "function_name" : "scudo::TSD<scudo::Allocator<scudo::AndroidConfig, &scudo_malloc_postinit>>::unlock",
   "linker_set_key" : "_ZN5scudo3TSDINS_9AllocatorINS_13AndroidConfigEXadL_Z21scudo_malloc_postinitEEEEE6unlockEv",
   "parameters" :
   [
    {
     "is_this_ptr" : true,
     "referenced_type" : "_ZTIPN5scudo3TSDINS_9AllocatorINS_13AndroidConfigEXadL_Z21scudo_malloc_postinitEEEEEE"
    }
   ],
   "return_type" : "_ZTIv",
   "source_file" : "external/scudo/standalone/tsd.h"
  },
  {
   "function_name" : "scudo::TSD<scudo::Allocator<scudo::AndroidConfig, &scudo_malloc_postinit>>::tryLock",
   "linker_set_key" : "_ZN5scudo3TSDINS_9AllocatorINS_13AndroidConfigEXadL_Z21scudo_malloc_postinitEEEEE7tryLockEv",
   "parameters" :
   [
    {
     "is_this_ptr" : true,
     "referenced_type" : "_ZTIPN5scudo3TSDINS_9AllocatorINS_13AndroidConfigEXadL_Z21scudo_malloc_postinitEEEEEE"
    }
   ],
   "return_type" : "_ZTIb",
   "source_file" : "external/scudo/standalone/tsd.h"
  },
  {
   "function_name" : "scudo::TSD<scudo::Allocator<scudo::AndroidSvelteConfig, &scudo_svelte_malloc_postinit>>::getPrecedence",
   "linker_set_key" : "_ZN5scudo3TSDINS_9AllocatorINS_19AndroidSvelteConfigEXadL_Z28scudo_svelte_malloc_postinitEEEEE13getPrecedenceEv",
   "parameters" :
   [
    {
     "is_this_ptr" : true,
     "referenced_type" : "_ZTIPN5scudo3TSDINS_9AllocatorINS_19AndroidSvelteConfigEXadL_Z28scudo_svelte_malloc_postinitEEEEEE"
    }
   ],
   "return_type" : "_ZTIm",
   "source_file" : "external/scudo/standalone/tsd.h"
  },
  {
   "function_name" : "scudo::TSD<scudo::Allocator<scudo::AndroidSvelteConfig, &scudo_svelte_malloc_postinit>>::initLinkerInitialized",
   "linker_set_key" : "_ZN5scudo3TSDINS_9AllocatorINS_19AndroidSvelteConfigEXadL_Z28scudo_svelte_malloc_postinitEEEEE21initLinkerInitializedEPS3_",
   "parameters" :
   [
    {
     "is_this_ptr" : true,
     "referenced_type" : "_ZTIPN5scudo3TSDINS_9AllocatorINS_19AndroidSvelteConfigEXadL_Z28scudo_svelte_malloc_postinitEEEEEE"
    },
    {
     "referenced_type" : "_ZTIPN5scudo9AllocatorINS_19AndroidSvelteConfigEXadL_Z28scudo_svelte_malloc_postinitEEEE"
    }
   ],
   "return_type" : "_ZTIv",
   "source_file" : "external/scudo/standalone/tsd.h"
  },
  {
   "function_name" : "scudo::TSD<scudo::Allocator<scudo::AndroidSvelteConfig, &scudo_svelte_malloc_postinit>>::lock",
   "linker_set_key" : "_ZN5scudo3TSDINS_9AllocatorINS_19AndroidSvelteConfigEXadL_Z28scudo_svelte_malloc_postinitEEEEE4lockEv",
   "parameters" :
   [
    {
     "is_this_ptr" : true,
     "referenced_type" : "_ZTIPN5scudo3TSDINS_9AllocatorINS_19AndroidSvelteConfigEXadL_Z28scudo_svelte_malloc_postinitEEEEEE"
    }
   ],
   "return_type" : "_ZTIv",
   "source_file" : "external/scudo/standalone/tsd.h"
  },
  {
   "function_name" : "scudo::TSD<scudo::Allocator<scudo::AndroidSvelteConfig, &scudo_svelte_malloc_postinit>>::unlock",
   "linker_set_key" : "_ZN5scudo3TSDINS_9AllocatorINS_19AndroidSvelteConfigEXadL_Z28scudo_svelte_malloc_postinitEEEEE6unlockEv",
   "parameters" :
   [
    {
     "is_this_ptr" : true,
     "referenced_type" : "_ZTIPN5scudo3TSDINS_9AllocatorINS_19AndroidSvelteConfigEXadL_Z28scudo_svelte_malloc_postinitEEEEEE"
    }
   ],
   "return_type" : "_ZTIv",
   "source_file" : "external/scudo/standalone/tsd.h"
  },
  {
   "function_name" : "scudo::TSD<scudo::Allocator<scudo::AndroidSvelteConfig, &scudo_svelte_malloc_postinit>>::tryLock",
   "linker_set_key" : "_ZN5scudo3TSDINS_9AllocatorINS_19AndroidSvelteConfigEXadL_Z28scudo_svelte_malloc_postinitEEEEE7tryLockEv",
   "parameters" :
   [
    {
     "is_this_ptr" : true,
     "referenced_type" : "_ZTIPN5scudo3TSDINS_9AllocatorINS_19AndroidSvelteConfigEXadL_Z28scudo_svelte_malloc_postinitEEEEEE"
    }
   ],
   "return_type" : "_ZTIb",
   "source_file" : "external/scudo/standalone/tsd.h"
  },
  {
   "function_name" : "scudo::Swap",
   "linker_set_key" : "_ZN5scudo4SwapIPvEEvRT_S3_",
   "parameters" :
   [
    {
     "referenced_type" : "_ZTIRPv"
    },
    {
     "referenced_type" : "_ZTIRPv"
    }
   ],
   "return_type" : "_ZTIv",
   "source_file" : "external/scudo/standalone/common.h",
   "template_args" : [ "_ZTIPv" ]
  },
  {
   "function_name" : "scudo::Swap",
   "linker_set_key" : "_ZN5scudo4SwapImEEvRT_S2_",
   "parameters" :
   [
    {
     "referenced_type" : "_ZTIRm"
    },
    {
     "referenced_type" : "_ZTIRm"
    }
   ],
   "return_type" : "_ZTIv",
   "source_file" : "external/scudo/standalone/common.h",
   "template_args" : [ "_ZTIm" ]
  },
  {
   "function_name" : "scudo::Chunk::loadHeader",
   "linker_set_key" : "_ZN5scudo5Chunk10loadHeaderEjPKvPNS0_14UnpackedHeaderE",
   "parameters" :
   [
    {
     "referenced_type" : "_ZTIj"
    },
    {
     "referenced_type" : "_ZTIPKv"
    },
    {
     "referenced_type" : "_ZTIPN5scudo5Chunk14UnpackedHeaderE"
    }
   ],
   "return_type" : "_ZTIv",
   "source_file" : "external/scudo/standalone/chunk.h"
  },
  {
   "function_name" : "scudo::Chunk::storeHeader",
   "linker_set_key" : "_ZN5scudo5Chunk11storeHeaderEjPvPNS0_14UnpackedHeaderE",
   "parameters" :
   [
    {
     "referenced_type" : "_ZTIj"
    },
    {
     "referenced_type" : "_ZTIPv"
    },
    {
     "referenced_type" : "_ZTIPN5scudo5Chunk14UnpackedHeaderE"
    }
   ],
   "return_type" : "_ZTIv",
   "source_file" : "external/scudo/standalone/chunk.h"
  },
  {
   "function_name" : "scudo::Chunk::getHeaderSize",
   "linker_set_key" : "_ZN5scudo5Chunk13getHeaderSizeEv",
   "return_type" : "_ZTIm",
   "source_file" : "external/scudo/standalone/chunk.h"
  },
  {
   "function_name" : "scudo::Chunk::getAtomicHeader",
   "linker_set_key" : "_ZN5scudo5Chunk15getAtomicHeaderEPv",
   "parameters" :
   [
    {
     "referenced_type" : "_ZTIPv"
    }
   ],
   "return_type" : "_ZTIPN5scudo10atomic_u64E",
   "source_file" : "external/scudo/standalone/chunk.h"
  },
  {
   "function_name" : "scudo::Chunk::getConstAtomicHeader",
   "linker_set_key" : "_ZN5scudo5Chunk20getConstAtomicHeaderEPKv",
   "parameters" :
   [
    {
     "referenced_type" : "_ZTIPKv"
    }
   ],
   "return_type" : "_ZTIPKN5scudo10atomic_u64E",
   "source_file" : "external/scudo/standalone/chunk.h"
  },
  {
   "function_name" : "scudo::Chunk::compareExchangeHeader",
   "linker_set_key" : "_ZN5scudo5Chunk21compareExchangeHeaderEjPvPNS0_14UnpackedHeaderES3_",
   "parameters" :
   [
    {
     "referenced_type" : "_ZTIj"
    },
    {
     "referenced_type" : "_ZTIPv"
    },
    {
     "referenced_type" : "_ZTIPN5scudo5Chunk14UnpackedHeaderE"
    },
    {
     "referenced_type" : "_ZTIPN5scudo5Chunk14UnpackedHeaderE"
    }
   ],
   "return_type" : "_ZTIv",
   "source_file" : "external/scudo/standalone/chunk.h"
  },
  {
   "function_name" : "scudo::Chunk::isValid",
   "linker_set_key" : "_ZN5scudo5Chunk7isValidEjPKvPNS0_14UnpackedHeaderE",
   "parameters" :
   [
    {
     "referenced_type" : "_ZTIj"
    },
    {
     "referenced_type" : "_ZTIPKv"
    },
    {
     "referenced_type" : "_ZTIPN5scudo5Chunk14UnpackedHeaderE"
    }
   ],
   "return_type" : "_ZTIb",
   "source_file" : "external/scudo/standalone/chunk.h"
  },
  {
   "function_name" : "scudo::Vector<char>::Vector",
   "linker_set_key" : "_ZN5scudo6VectorIcEC1Em",
   "parameters" :
   [
    {
     "is_this_ptr" : true,
     "referenced_type" : "_ZTIPN5scudo6VectorIcEE"
    },
    {
     "referenced_type" : "_ZTIm"
    }
   ],
   "return_type" : "_ZTIv",
   "source_file" : "external/scudo/standalone/vector.h"
  },
  {
   "function_name" : "scudo::Vector<char>::Vector",
   "linker_set_key" : "_ZN5scudo6VectorIcEC2Em",
   "parameters" :
   [
    {
     "is_this_ptr" : true,
     "referenced_type" : "_ZTIPN5scudo6VectorIcEE"
    },
    {
     "referenced_type" : "_ZTIm"
    }
   ],
   "return_type" : "_ZTIv",
   "source_file" : "external/scudo/standalone/vector.h"
  },
  {
   "function_name" : "scudo::Vector<char>::~Vector",
   "linker_set_key" : "_ZN5scudo6VectorIcED1Ev",
   "parameters" :
   [
    {
     "is_this_ptr" : true,
     "referenced_type" : "_ZTIPN5scudo6VectorIcEE"
    }
   ],
   "return_type" : "_ZTIv",
   "source_file" : "external/scudo/standalone/vector.h"
  },
  {
   "function_name" : "scudo::Vector<char>::~Vector",
   "linker_set_key" : "_ZN5scudo6VectorIcED2Ev",
   "parameters" :
   [
    {
     "is_this_ptr" : true,
     "referenced_type" : "_ZTIPN5scudo6VectorIcEE"
    }
   ],
   "return_type" : "_ZTIv",
   "source_file" : "external/scudo/standalone/vector.h"
  },
  {
   "function_name" : "scudo::getLog2",
   "linker_set_key" : "_ZN5scudo7getLog2Em",
   "parameters" :
   [
    {
     "referenced_type" : "_ZTIm"
    }
   ],
   "return_type" : "_ZTIm",
   "source_file" : "external/scudo/standalone/common.h"
  },
  {
   "function_name" : "scudo::loadTag",
   "linker_set_key" : "_ZN5scudo7loadTagEPv",
   "parameters" :
   [
    {
     "referenced_type" : "_ZTIPv"
    }
   ],
   "return_type" : "_ZTIPv",
   "source_file" : "external/scudo/standalone/memtag.h"
  },
  {
   "function_name" : "scudo::loadTag",
   "linker_set_key" : "_ZN5scudo7loadTagEm",
   "parameters" :
   [
    {
     "referenced_type" : "_ZTIm"
    }
   ],
   "return_type" : "_ZTIm",
   "source_file" : "external/scudo/standalone/memtag.h"
  },
  {
   "function_name" : "scudo::shuffle",
   "linker_set_key" : "_ZN5scudo7shuffleIPvEEvPT_jPj",
   "parameters" :
   [
    {
     "referenced_type" : "_ZTIPPv"
    },
    {
     "referenced_type" : "_ZTIj"
    },
    {
     "referenced_type" : "_ZTIPj"
    }
   ],
   "return_type" : "_ZTIv",
   "source_file" : "external/scudo/standalone/common.h",
   "template_args" : [ "_ZTIPv" ]
  },
  {
   "function_name" : "scudo::shuffle",
   "linker_set_key" : "_ZN5scudo7shuffleImEEvPT_jPj",
   "parameters" :
   [
    {
     "referenced_type" : "_ZTIPm"
    },
    {
     "referenced_type" : "_ZTIj"
    },
    {
     "referenced_type" : "_ZTIPj"
    }
   ],
   "return_type" : "_ZTIv",
   "source_file" : "external/scudo/standalone/common.h",
   "template_args" : [ "_ZTIm" ]
  },
  {
   "function_name" : "scudo::bit_cast",
   "linker_set_key" : "_ZN5scudo8bit_castINS_5Chunk14UnpackedHeaderEyEET_RKT0_",
   "parameters" :
   [
    {
     "referenced_type" : "_ZTIRKy"
    }
   ],
   "return_type" : "_ZTIN5scudo5Chunk14UnpackedHeaderE",
   "source_file" : "external/scudo/standalone/common.h",
   "template_args" : [ "_ZTIN5scudo5Chunk14UnpackedHeaderE", "_ZTIy" ]
  },
  {
   "function_name" : "scudo::bit_cast",
   "linker_set_key" : "_ZN5scudo8bit_castIyNS_5Chunk14UnpackedHeaderEEET_RKT0_",
   "parameters" :
   [
    {
     "referenced_type" : "_ZTIRKN5scudo5Chunk14UnpackedHeaderE"
    }
   ],
   "return_type" : "_ZTIy",
   "source_file" : "external/scudo/standalone/common.h",
   "template_args" : [ "_ZTIy", "_ZTIN5scudo5Chunk14UnpackedHeaderE" ]
  },
  {
   "function_name" : "scudo::storeTag",
   "linker_set_key" : "_ZN5scudo8storeTagEm",
   "parameters" :
   [
    {
     "referenced_type" : "_ZTIm"
    }
   ],
   "return_type" : "_ZTIv",
   "source_file" : "external/scudo/standalone/memtag.h"
  },
  {
   "function_name" : "scudo::Allocator<scudo::AndroidConfig, &scudo_malloc_postinit>::deallocate",
   "linker_set_key" : "_ZN5scudo9AllocatorINS_13AndroidConfigEXadL_Z21scudo_malloc_postinitEEE10deallocateEPvNS_5Chunk6OriginEmm",
   "parameters" :
   [
    {
     "is_this_ptr" : true,
     "referenced_type" : "_ZTIPN5scudo9AllocatorINS_13AndroidConfigEXadL_Z21scudo_malloc_postinitEEEE"
    },
    {
     "referenced_type" : "_ZTIPv"
    },
    {
     "referenced_type" : "_ZTIN5scudo5Chunk6OriginE"
    },
    {
     "default_arg" : true,
     "referenced_type" : "_ZTIm"
    },
    {
     "default_arg" : true,
     "referenced_type" : "_ZTIm"
    }
   ],
   "return_type" : "_ZTIv",
   "source_file" : "external/scudo/standalone/combined.h"
  },
  {
   "function_name" : "scudo::Allocator<scudo::AndroidConfig, &scudo_malloc_postinit>::printStats",
   "linker_set_key" : "_ZN5scudo9AllocatorINS_13AndroidConfigEXadL_Z21scudo_malloc_postinitEEE10printStatsEv",
   "parameters" :
   [
    {
     "is_this_ptr" : true,
     "referenced_type" : "_ZTIPN5scudo9AllocatorINS_13AndroidConfigEXadL_Z21scudo_malloc_postinitEEEE"
    }
   ],
   "return_type" : "_ZTIv",
   "source_file" : "external/scudo/standalone/combined.h"
  },
  {
   "function_name" : "scudo::Allocator<scudo::AndroidConfig, &scudo_malloc_postinit>::reallocate",
   "linker_set_key" : "_ZN5scudo9AllocatorINS_13AndroidConfigEXadL_Z21scudo_malloc_postinitEEE10reallocateEPvmm",
   "parameters" :
   [
    {
     "is_this_ptr" : true,
     "referenced_type" : "_ZTIPN5scudo9AllocatorINS_13AndroidConfigEXadL_Z21scudo_malloc_postinitEEEE"
    },
    {
     "referenced_type" : "_ZTIPv"
    },
    {
     "referenced_type" : "_ZTIm"
    },
    {
     "default_arg" : true,
     "referenced_type" : "_ZTIm"
    }
   ],
   "return_type" : "_ZTIPv",
   "source_file" : "external/scudo/standalone/combined.h"
  },
  {
   "function_name" : "scudo::Allocator<scudo::AndroidConfig, &scudo_malloc_postinit>::initGwpAsan",
   "linker_set_key" : "_ZN5scudo9AllocatorINS_13AndroidConfigEXadL_Z21scudo_malloc_postinitEEE11initGwpAsanEv",
   "parameters" :
   [
    {
     "is_this_ptr" : true,
     "referenced_type" : "_ZTIPN5scudo9AllocatorINS_13AndroidConfigEXadL_Z21scudo_malloc_postinitEEEE"
    }
   ],
   "return_type" : "_ZTIv",
   "source_file" : "external/scudo/standalone/combined.h"
  },
  {
   "function_name" : "scudo::Allocator<scudo::AndroidConfig, &scudo_malloc_postinit>::releaseToOS",
   "linker_set_key" : "_ZN5scudo9AllocatorINS_13AndroidConfigEXadL_Z21scudo_malloc_postinitEEE11releaseToOSEv",
   "parameters" :
   [
    {
     "is_this_ptr" : true,
     "referenced_type" : "_ZTIPN5scudo9AllocatorINS_13AndroidConfigEXadL_Z21scudo_malloc_postinitEEEE"
    }
   ],
   "return_type" : "_ZTIv",
   "source_file" : "external/scudo/standalone/combined.h"
  },
  {
   "function_name" : "scudo::Allocator<scudo::AndroidConfig, &scudo_malloc_postinit>::addHeaderTag",
   "linker_set_key" : "_ZN5scudo9AllocatorINS_13AndroidConfigEXadL_Z21scudo_malloc_postinitEEE12addHeaderTagEPv",
   "parameters" :
   [
    {
     "is_this_ptr" : true,
     "referenced_type" : "_ZTIPN5scudo9AllocatorINS_13AndroidConfigEXadL_Z21scudo_malloc_postinitEEEE"
    },
    {
     "referenced_type" : "_ZTIPv"
    }
   ],
   "return_type" : "_ZTIPv",
   "source_file" : "external/scudo/standalone/combined.h"
  },
  {
   "function_name" : "scudo::Allocator<scudo::AndroidConfig, &scudo_malloc_postinit>::addHeaderTag",
   "linker_set_key" : "_ZN5scudo9AllocatorINS_13AndroidConfigEXadL_Z21scudo_malloc_postinitEEE12addHeaderTagEm",
   "parameters" :
   [
    {
     "is_this_ptr" : true,
     "referenced_type" : "_ZTIPN5scudo9AllocatorINS_13AndroidConfigEXadL_Z21scudo_malloc_postinitEEEE"
    },
    {
     "referenced_type" : "_ZTIm"
    }
   ],
   "return_type" : "_ZTIm",
   "source_file" : "external/scudo/standalone/combined.h"
  },
  {
   "function_name" : "scudo::Allocator<scudo::AndroidConfig, &scudo_malloc_postinit>::getErrorInfo",
   "linker_set_key" : "_ZN5scudo9AllocatorINS_13AndroidConfigEXadL_Z21scudo_malloc_postinitEEE12getErrorInfoEP16scudo_error_infojPKcS6_S6_S6_S6_jj",
   "parameters" :
   [
    {
     "referenced_type" : "_ZTIP16scudo_error_info"
    },
    {
     "referenced_type" : "_ZTIj"
    },
    {
     "referenced_type" : "_ZTIPKc"
    },
    {
     "referenced_type" : "_ZTIPKc"
    },
    {
     "referenced_type" : "_ZTIPKc"
    },
    {
     "referenced_type" : "_ZTIPKc"
    },
    {
     "referenced_type" : "_ZTIPKc"
    },
    {
     "referenced_type" : "_ZTIj"
    },
    {
     "referenced_type" : "_ZTIj"
    }
   ],
   "return_type" : "_ZTIv",
   "source_file" : "external/scudo/standalone/combined.h"
  },
  {
   "function_name" : "scudo::Allocator<scudo::AndroidConfig, &scudo_malloc_postinit>::canReturnNull",
   "linker_set_key" : "_ZN5scudo9AllocatorINS_13AndroidConfigEXadL_Z21scudo_malloc_postinitEEE13canReturnNullEv",
   "parameters" :
   [
    {
     "is_this_ptr" : true,
     "referenced_type" : "_ZTIPN5scudo9AllocatorINS_13AndroidConfigEXadL_Z21scudo_malloc_postinitEEEE"
    }
   ],
   "return_type" : "_ZTIb",
   "source_file" : "external/scudo/standalone/combined.h"
  },
  {
   "access" : "private",
   "function_name" : "scudo::Allocator<scudo::AndroidConfig, &scudo_malloc_postinit>::getBlockBegin",
   "linker_set_key" : "_ZN5scudo9AllocatorINS_13AndroidConfigEXadL_Z21scudo_malloc_postinitEEE13getBlockBeginEPKvPNS_5Chunk14UnpackedHeaderE",
   "parameters" :
   [
    {
     "referenced_type" : "_ZTIPKv"
    },
    {
     "referenced_type" : "_ZTIPN5scudo5Chunk14UnpackedHeaderE"
    }
   ],
   "return_type" : "_ZTIPv",
   "source_file" : "external/scudo/standalone/combined.h"
  },
  {
   "function_name" : "scudo::Allocator<scudo::AndroidConfig, &scudo_malloc_postinit>::getUsableSize",
   "linker_set_key" : "_ZN5scudo9AllocatorINS_13AndroidConfigEXadL_Z21scudo_malloc_postinitEEE13getUsableSizeEPKv",
   "parameters" :
   [
    {
     "is_this_ptr" : true,
     "referenced_type" : "_ZTIPN5scudo9AllocatorINS_13AndroidConfigEXadL_Z21scudo_malloc_postinitEEEE"
    },
    {
     "referenced_type" : "_ZTIPKv"
    }
   ],
   "return_type" : "_ZTIm",
   "source_file" : "external/scudo/standalone/combined.h"
  },
  {
   "access" : "private",
   "function_name" : "scudo::Allocator<scudo::AndroidConfig, &scudo_malloc_postinit>::storeEndMarker",
   "linker_set_key" : "_ZN5scudo9AllocatorINS_13AndroidConfigEXadL_Z21scudo_malloc_postinitEEE14storeEndMarkerEmmm",
   "parameters" :
   [
    {
     "is_this_ptr" : true,
     "referenced_type" : "_ZTIPN5scudo9AllocatorINS_13AndroidConfigEXadL_Z21scudo_malloc_postinitEEEE"
    },
    {
     "referenced_type" : "_ZTIm"
    },
    {
     "referenced_type" : "_ZTIm"
    },
    {
     "referenced_type" : "_ZTIm"
    }
   ],
   "return_type" : "_ZTIv",
   "source_file" : "external/scudo/standalone/combined.h"
  },
  {
   "function_name" : "scudo::Allocator<scudo::AndroidConfig, &scudo_malloc_postinit>::initThreadMaybe",
   "linker_set_key" : "_ZN5scudo9AllocatorINS_13AndroidConfigEXadL_Z21scudo_malloc_postinitEEE15initThreadMaybeEb",
   "parameters" :
   [
    {
     "is_this_ptr" : true,
     "referenced_type" : "_ZTIPN5scudo9AllocatorINS_13AndroidConfigEXadL_Z21scudo_malloc_postinitEEEE"
    },
    {
     "default_arg" : true,
     "referenced_type" : "_ZTIb"
    }
   ],
   "return_type" : "_ZTIv",
   "source_file" : "external/scudo/standalone/combined.h"
  },
  {
   "function_name" : "scudo::Allocator<scudo::AndroidConfig, &scudo_malloc_postinit>::setFillContents",
   "linker_set_key" : "_ZN5scudo9AllocatorINS_13AndroidConfigEXadL_Z21scudo_malloc_postinitEEE15setFillContentsENS_16FillContentsModeE",
   "parameters" :
   [
    {
     "is_this_ptr" : true,
     "referenced_type" : "_ZTIPN5scudo9AllocatorINS_13AndroidConfigEXadL_Z21scudo_malloc_postinitEEEE"
    },
    {
     "referenced_type" : "_ZTIN5scudo16FillContentsModeE"
    }
   ],
   "return_type" : "_ZTIv",
   "source_file" : "external/scudo/standalone/combined.h"
  },
  {
   "function_name" : "scudo::Allocator<scudo::AndroidConfig, &scudo_malloc_postinit>::collectStackTrace",
   "linker_set_key" : "_ZN5scudo9AllocatorINS_13AndroidConfigEXadL_Z21scudo_malloc_postinitEEE17collectStackTraceEv",
   "parameters" :
   [
    {
     "is_this_ptr" : true,
     "referenced_type" : "_ZTIPN5scudo9AllocatorINS_13AndroidConfigEXadL_Z21scudo_malloc_postinitEEEE"
    }
   ],
   "return_type" : "_ZTIj",
   "source_file" : "external/scudo/standalone/combined.h"
  },
  {
   "function_name" : "scudo::Allocator<scudo::AndroidConfig, &scudo_malloc_postinit>::collectTraceMaybe",
   "linker_set_key" : "_ZN5scudo9AllocatorINS_13AndroidConfigEXadL_Z21scudo_malloc_postinitEEE17collectTraceMaybeEPKNS_10StackDepotERA64_jj",
   "parameters" :
   [
    {
     "referenced_type" : "_ZTIPKN5scudo10StackDepotE"
    },
    {
     "referenced_type" : "_ZTIRA64_j"
    },
    {
     "referenced_type" : "_ZTIj"
    }
   ],
   "return_type" : "_ZTIv",
   "source_file" : "external/scudo/standalone/combined.h"
  },
  {
   "access" : "private",
   "function_name" : "scudo::Allocator<scudo::AndroidConfig, &scudo_malloc_postinit>::getChunkFromBlock",
   "linker_set_key" : "_ZN5scudo9AllocatorINS_13AndroidConfigEXadL_Z21scudo_malloc_postinitEEE17getChunkFromBlockEmPmPNS_5Chunk14UnpackedHeaderE",
   "parameters" :
   [
    {
     "is_this_ptr" : true,
     "referenced_type" : "_ZTIPN5scudo9AllocatorINS_13AndroidConfigEXadL_Z21scudo_malloc_postinitEEEE"
    },
    {
     "referenced_type" : "_ZTIm"
    },
    {
     "referenced_type" : "_ZTIPm"
    },
    {
     "referenced_type" : "_ZTIPN5scudo5Chunk14UnpackedHeaderE"
    }
   ],
   "return_type" : "_ZTIb",
   "source_file" : "external/scudo/standalone/combined.h"
  },
  {
   "function_name" : "scudo::Allocator<scudo::AndroidConfig, &scudo_malloc_postinit>::getRingBufferSize",
   "linker_set_key" : "_ZN5scudo9AllocatorINS_13AndroidConfigEXadL_Z21scudo_malloc_postinitEEE17getRingBufferSizeEv",
   "return_type" : "_ZTIm",
   "source_file" : "external/scudo/standalone/combined.h"
  },
  {
   "function_name" : "scudo::Allocator<scudo::AndroidConfig, &scudo_malloc_postinit>::iterateOverChunks",
   "linker_set_key" : "_ZN5scudo9AllocatorINS_13AndroidConfigEXadL_Z21scudo_malloc_postinitEEE17iterateOverChunksEmmPFvjjPvES3_",
   "parameters" :
   [
    {
     "is_this_ptr" : true,
     "referenced_type" : "_ZTIPN5scudo9AllocatorINS_13AndroidConfigEXadL_Z21scudo_malloc_postinitEEEE"
    },
    {
     "referenced_type" : "_ZTIm"
    },
    {
     "referenced_type" : "_ZTIm"
    },
    {
     "referenced_type" : "_ZTIPFvjjPvE"
    },
    {
     "referenced_type" : "_ZTIPv"
    }
   ],
   "return_type" : "_ZTIv",
   "source_file" : "external/scudo/standalone/combined.h"
  },
  {
   "access" : "private",
   "function_name" : "scudo::Allocator<scudo::AndroidConfig, &scudo_malloc_postinit>::resizeTaggedChunk",
   "linker_set_key" : "_ZN5scudo9AllocatorINS_13AndroidConfigEXadL_Z21scudo_malloc_postinitEEE17resizeTaggedChunkEmmmm",
   "parameters" :
   [
    {
     "is_this_ptr" : true,
     "referenced_type" : "_ZTIPN5scudo9AllocatorINS_13AndroidConfigEXadL_Z21scudo_malloc_postinitEEEE"
    },
    {
     "referenced_type" : "_ZTIm"
    },
    {
     "referenced_type" : "_ZTIm"
    },
    {
     "referenced_type" : "_ZTIm"
    },
    {
     "referenced_type" : "_ZTIm"
    }
   ],
   "return_type" : "_ZTIv",
   "source_file" : "external/scudo/standalone/combined.h"
  },
  {
   "function_name" : "scudo::Allocator<scudo::AndroidConfig, &scudo_malloc_postinit>::QuarantineCallback::deallocate",
   "linker_set_key" : "_ZN5scudo9AllocatorINS_13AndroidConfigEXadL_Z21scudo_malloc_postinitEEE18QuarantineCallback10deallocateEPv",
   "parameters" :
   [
    {
     "is_this_ptr" : true,
     "referenced_type" : "_ZTIPN5scudo9AllocatorINS_13AndroidConfigEXadL_Z21scudo_malloc_postinitEEE18QuarantineCallbackE"
    },
    {
     "referenced_type" : "_ZTIPv"
    }
   ],
   "return_type" : "_ZTIv",
   "source_file" : "external/scudo/standalone/combined.h"
  },
  {
   "function_name" : "scudo::Allocator<scudo::AndroidConfig, &scudo_malloc_postinit>::QuarantineCallback::recycle",
   "linker_set_key" : "_ZN5scudo9AllocatorINS_13AndroidConfigEXadL_Z21scudo_malloc_postinitEEE18QuarantineCallback7recycleEPv",
   "parameters" :
   [
    {
     "is_this_ptr" : true,
     "referenced_type" : "_ZTIPN5scudo9AllocatorINS_13AndroidConfigEXadL_Z21scudo_malloc_postinitEEE18QuarantineCallbackE"
    },
    {
     "referenced_type" : "_ZTIPv"
    }
   ],
   "return_type" : "_ZTIv",
   "source_file" : "external/scudo/standalone/combined.h"
  },
  {
   "function_name" : "scudo::Allocator<scudo::AndroidConfig, &scudo_malloc_postinit>::QuarantineCallback::allocate",
   "linker_set_key" : "_ZN5scudo9AllocatorINS_13AndroidConfigEXadL_Z21scudo_malloc_postinitEEE18QuarantineCallback8allocateEm",
   "parameters" :
   [
    {
     "is_this_ptr" : true,
     "referenced_type" : "_ZTIPN5scudo9AllocatorINS_13AndroidConfigEXadL_Z21scudo_malloc_postinitEEE18QuarantineCallbackE"
    },
    {
     "referenced_type" : "_ZTIm"
    }
   ],
   "return_type" : "_ZTIPv",
   "source_file" : "external/scudo/standalone/combined.h"
  },
  {
   "function_name" : "scudo::Allocator<scudo::AndroidConfig, &scudo_malloc_postinit>::QuarantineCallback::QuarantineCallback",
   "linker_set_key" : "_ZN5scudo9AllocatorINS_13AndroidConfigEXadL_Z21scudo_malloc_postinitEEE18QuarantineCallbackC1ERS2_RNS_28SizeClassAllocatorLocalCacheINS_20SizeClassAllocator32IS1_EEEE",
   "parameters" :
   [
    {
     "is_this_ptr" : true,
     "referenced_type" : "_ZTIPN5scudo9AllocatorINS_13AndroidConfigEXadL_Z21scudo_malloc_postinitEEE18QuarantineCallbackE"
    },
    {
     "referenced_type" : "_ZTIRN5scudo9AllocatorINS_13AndroidConfigEXadL_Z21scudo_malloc_postinitEEEE"
    },
    {
     "referenced_type" : "_ZTIRN5scudo28SizeClassAllocatorLocalCacheINS_20SizeClassAllocator32INS_13AndroidConfigEEEEE"
    }
   ],
   "return_type" : "_ZTIv",
   "source_file" : "external/scudo/standalone/combined.h"
  },
  {
   "function_name" : "scudo::Allocator<scudo::AndroidConfig, &scudo_malloc_postinit>::QuarantineCallback::QuarantineCallback",
   "linker_set_key" : "_ZN5scudo9AllocatorINS_13AndroidConfigEXadL_Z21scudo_malloc_postinitEEE18QuarantineCallbackC2ERS2_RNS_28SizeClassAllocatorLocalCacheINS_20SizeClassAllocator32IS1_EEEE",
   "parameters" :
   [
    {
     "is_this_ptr" : true,
     "referenced_type" : "_ZTIPN5scudo9AllocatorINS_13AndroidConfigEXadL_Z21scudo_malloc_postinitEEE18QuarantineCallbackE"
    },
    {
     "referenced_type" : "_ZTIRN5scudo9AllocatorINS_13AndroidConfigEXadL_Z21scudo_malloc_postinitEEEE"
    },
    {
     "referenced_type" : "_ZTIRN5scudo28SizeClassAllocatorLocalCacheINS_20SizeClassAllocator32INS_13AndroidConfigEEEEE"
    }
   ],
   "return_type" : "_ZTIv",
   "source_file" : "external/scudo/standalone/combined.h"
  },
  {
   "access" : "private",
   "function_name" : "scudo::Allocator<scudo::AndroidConfig, &scudo_malloc_postinit>::getInlineErrorInfo",
   "linker_set_key" : "_ZN5scudo9AllocatorINS_13AndroidConfigEXadL_Z21scudo_malloc_postinitEEE18getInlineErrorInfoEP16scudo_error_infoRjjPKNS_10StackDepotEPKcSA_SA_jjjj",
   "parameters" :
   [
    {
     "referenced_type" : "_ZTIP16scudo_error_info"
    },
    {
     "referenced_type" : "_ZTIRj"
    },
    {
     "referenced_type" : "_ZTIj"
    },
    {
     "referenced_type" : "_ZTIPKN5scudo10StackDepotE"
    },
    {
     "referenced_type" : "_ZTIPKc"
    },
    {
     "referenced_type" : "_ZTIPKc"
    },
    {
     "referenced_type" : "_ZTIPKc"
    },
    {
     "referenced_type" : "_ZTIj"
    },
    {
     "referenced_type" : "_ZTIj"
    },
    {
     "referenced_type" : "_ZTIj"
    },
    {
     "referenced_type" : "_ZTIj"
    }
   ],
   "return_type" : "_ZTIv",
   "source_file" : "external/scudo/standalone/combined.h"
  },
  {
   "access" : "private",
   "function_name" : "scudo::Allocator<scudo::AndroidConfig, &scudo_malloc_postinit>::prepareTaggedChunk",
   "linker_set_key" : "_ZN5scudo9AllocatorINS_13AndroidConfigEXadL_Z21scudo_malloc_postinitEEE18prepareTaggedChunkEPvmmm",
   "parameters" :
   [
    {
     "is_this_ptr" : true,
     "referenced_type" : "_ZTIPN5scudo9AllocatorINS_13AndroidConfigEXadL_Z21scudo_malloc_postinitEEEE"
    },
    {
     "referenced_type" : "_ZTIPv"
    },
    {
     "referenced_type" : "_ZTIm"
    },
    {
     "referenced_type" : "_ZTIm"
    },
    {
     "referenced_type" : "_ZTIm"
    }
   ],
   "return_type" : "_ZTIPv",
   "source_file" : "external/scudo/standalone/combined.h"
  },
  {
   "access" : "private",
   "function_name" : "scudo::Allocator<scudo::AndroidConfig, &scudo_malloc_postinit>::performSanityChecks",
   "linker_set_key" : "_ZN5scudo9AllocatorINS_13AndroidConfigEXadL_Z21scudo_malloc_postinitEEE19performSanityChecksEv",
   "parameters" :
   [
    {
     "is_this_ptr" : true,
     "referenced_type" : "_ZTIPN5scudo9AllocatorINS_13AndroidConfigEXadL_Z21scudo_malloc_postinitEEEE"
    }
   ],
   "return_type" : "_ZTIv",
   "source_file" : "external/scudo/standalone/combined.h"
  },
  {
   "function_name" : "scudo::Allocator<scudo::AndroidConfig, &scudo_malloc_postinit>::callPostInitCallback",
   "linker_set_key" : "_ZN5scudo9AllocatorINS_13AndroidConfigEXadL_Z21scudo_malloc_postinitEEE20callPostInitCallbackEv",
   "parameters" :
   [
    {
     "is_this_ptr" : true,
     "referenced_type" : "_ZTIPN5scudo9AllocatorINS_13AndroidConfigEXadL_Z21scudo_malloc_postinitEEEE"
    }
   ],
   "return_type" : "_ZTIv",
   "source_file" : "external/scudo/standalone/combined.h"
  },
  {
   "function_name" : "scudo::Allocator<scudo::AndroidConfig, &scudo_malloc_postinit>::disableMemoryTagging",
   "linker_set_key" : "_ZN5scudo9AllocatorINS_13AndroidConfigEXadL_Z21scudo_malloc_postinitEEE20disableMemoryTaggingEv",
   "parameters" :
   [
    {
     "is_this_ptr" : true,
     "referenced_type" : "_ZTIPN5scudo9AllocatorINS_13AndroidConfigEXadL_Z21scudo_malloc_postinitEEEE"
    }
   ],
   "return_type" : "_ZTIv",
   "source_file" : "external/scudo/standalone/combined.h"
  },
  {
   "access" : "private",
   "function_name" : "scudo::Allocator<scudo::AndroidConfig, &scudo_malloc_postinit>::storeRingBufferEntry",
   "linker_set_key" : "_ZN5scudo9AllocatorINS_13AndroidConfigEXadL_Z21scudo_malloc_postinitEEE20storeRingBufferEntryEPvjjmjj",
   "parameters" :
   [
    {
     "is_this_ptr" : true,
     "referenced_type" : "_ZTIPN5scudo9AllocatorINS_13AndroidConfigEXadL_Z21scudo_malloc_postinitEEEE"
    },
    {
     "referenced_type" : "_ZTIPv"
    },
    {
     "referenced_type" : "_ZTIj"
    },
    {
     "referenced_type" : "_ZTIj"
    },
    {
     "referenced_type" : "_ZTIm"
    },
    {
     "referenced_type" : "_ZTIj"
    },
    {
     "referenced_type" : "_ZTIj"
    }
   ],
   "return_type" : "_ZTIv",
   "source_file" : "external/scudo/standalone/combined.h"
  },
  {
   "function_name" : "scudo::Allocator<scudo::AndroidConfig, &scudo_malloc_postinit>::initLinkerInitialized",
   "linker_set_key" : "_ZN5scudo9AllocatorINS_13AndroidConfigEXadL_Z21scudo_malloc_postinitEEE21initLinkerInitializedEv",
   "parameters" :
   [
    {
     "is_this_ptr" : true,
     "referenced_type" : "_ZTIPN5scudo9AllocatorINS_13AndroidConfigEXadL_Z21scudo_malloc_postinitEEEE"
    }
   ],
   "return_type" : "_ZTIv",
   "source_file" : "external/scudo/standalone/combined.h"
  },
  {
   "function_name" : "scudo::Allocator<scudo::AndroidConfig, &scudo_malloc_postinit>::getHeaderTaggedPointer",
   "linker_set_key" : "_ZN5scudo9AllocatorINS_13AndroidConfigEXadL_Z21scudo_malloc_postinitEEE22getHeaderTaggedPointerEPv",
   "parameters" :
   [
    {
     "is_this_ptr" : true,
     "referenced_type" : "_ZTIPN5scudo9AllocatorINS_13AndroidConfigEXadL_Z21scudo_malloc_postinitEEEE"
    },
    {
     "referenced_type" : "_ZTIPv"
    }
   ],
   "return_type" : "_ZTIPv",
   "source_file" : "external/scudo/standalone/combined.h"
  },
  {
   "function_name" : "scudo::Allocator<scudo::AndroidConfig, &scudo_malloc_postinit>::getRegionInfoArraySize",
   "linker_set_key" : "_ZN5scudo9AllocatorINS_13AndroidConfigEXadL_Z21scudo_malloc_postinitEEE22getRegionInfoArraySizeEv",
   "return_type" : "_ZTIm",
   "source_file" : "external/scudo/standalone/combined.h"
  },
  {
   "access" : "private",
   "function_name" : "scudo::Allocator<scudo::AndroidConfig, &scudo_malloc_postinit>::getRingBufferErrorInfo",
   "linker_set_key" : "_ZN5scudo9AllocatorINS_13AndroidConfigEXadL_Z21scudo_malloc_postinitEEE22getRingBufferErrorInfoEP16scudo_error_infoRjjPKNS_10StackDepotEPKc",
   "parameters" :
   [
    {
     "referenced_type" : "_ZTIP16scudo_error_info"
    },
    {
     "referenced_type" : "_ZTIRj"
    },
    {
     "referenced_type" : "_ZTIj"
    },
    {
     "referenced_type" : "_ZTIPKN5scudo10StackDepotE"
    },
    {
     "referenced_type" : "_ZTIPKc"
    }
   ],
   "return_type" : "_ZTIv",
   "source_file" : "external/scudo/standalone/combined.h"
  },
  {
   "access" : "private",
   "function_name" : "scudo::Allocator<scudo::AndroidConfig, &scudo_malloc_postinit>::getChunkOffsetFromBlock",
   "linker_set_key" : "_ZN5scudo9AllocatorINS_13AndroidConfigEXadL_Z21scudo_malloc_postinitEEE23getChunkOffsetFromBlockEPKc",
   "parameters" :
   [
    {
     "referenced_type" : "_ZTIPKc"
    }
   ],
   "return_type" : "_ZTIm",
   "source_file" : "external/scudo/standalone/combined.h"
  },
  {
   "function_name" : "scudo::Allocator<scudo::AndroidConfig, &scudo_malloc_postinit>::setTrackAllocationStacks",
   "linker_set_key" : "_ZN5scudo9AllocatorINS_13AndroidConfigEXadL_Z21scudo_malloc_postinitEEE24setTrackAllocationStacksEb",
   "parameters" :
   [
    {
     "is_this_ptr" : true,
     "referenced_type" : "_ZTIPN5scudo9AllocatorINS_13AndroidConfigEXadL_Z21scudo_malloc_postinitEEEE"
    },
    {
     "referenced_type" : "_ZTIb"
    }
   ],
   "return_type" : "_ZTIv",
   "source_file" : "external/scudo/standalone/combined.h"
  },
  {
   "function_name" : "scudo::Allocator<scudo::AndroidConfig, &scudo_malloc_postinit>::setAddLargeAllocationSlack",
   "linker_set_key" : "_ZN5scudo9AllocatorINS_13AndroidConfigEXadL_Z21scudo_malloc_postinitEEE26setAddLargeAllocationSlackEb",
   "parameters" :
   [
    {
     "is_this_ptr" : true,
     "referenced_type" : "_ZTIPN5scudo9AllocatorINS_13AndroidConfigEXadL_Z21scudo_malloc_postinitEEEE"
    },
    {
     "referenced_type" : "_ZTIb"
    }
   ],
   "return_type" : "_ZTIv",
   "source_file" : "external/scudo/standalone/combined.h"
  },
  {
   "access" : "private",
   "function_name" : "scudo::Allocator<scudo::AndroidConfig, &scudo_malloc_postinit>::quarantineOrDeallocateChunk",
   "linker_set_key" : "_ZN5scudo9AllocatorINS_13AndroidConfigEXadL_Z21scudo_malloc_postinitEEE27quarantineOrDeallocateChunkENS_7OptionsEPvPNS_5Chunk14UnpackedHeaderEm",
   "parameters" :
   [
    {
     "is_this_ptr" : true,
     "referenced_type" : "_ZTIPN5scudo9AllocatorINS_13AndroidConfigEXadL_Z21scudo_malloc_postinitEEEE"
    },
    {
     "referenced_type" : "_ZTIN5scudo7OptionsE"
    },
    {
     "referenced_type" : "_ZTIPv"
    },
    {
     "referenced_type" : "_ZTIPN5scudo5Chunk14UnpackedHeaderE"
    },
    {
     "referenced_type" : "_ZTIm"
    }
   ],
   "return_type" : "_ZTIv",
   "source_file" : "external/scudo/standalone/combined.h"
  },
  {
   "access" : "private",
   "function_name" : "scudo::Allocator<scudo::AndroidConfig, &scudo_malloc_postinit>::storeDeallocationStackMaybe",
   "linker_set_key" : "_ZN5scudo9AllocatorINS_13AndroidConfigEXadL_Z21scudo_malloc_postinitEEE27storeDeallocationStackMaybeENS_7OptionsEPvhm",
   "parameters" :
   [
    {
     "is_this_ptr" : true,
     "referenced_type" : "_ZTIPN5scudo9AllocatorINS_13AndroidConfigEXadL_Z21scudo_malloc_postinitEEEE"
    },
    {
     "referenced_type" : "_ZTIN5scudo7OptionsE"
    },
    {
     "referenced_type" : "_ZTIPv"
    },
    {
     "referenced_type" : "_ZTIh"
    },
    {
     "referenced_type" : "_ZTIm"
    }
   ],
   "return_type" : "_ZTIv",
   "source_file" : "external/scudo/standalone/combined.h"
  },
  {
   "access" : "private",
   "function_name" : "scudo::Allocator<scudo::AndroidConfig, &scudo_malloc_postinit>::storePrimaryAllocationStackMaybe",
   "linker_set_key" : "_ZN5scudo9AllocatorINS_13AndroidConfigEXadL_Z21scudo_malloc_postinitEEE32storePrimaryAllocationStackMaybeENS_7OptionsEPv",
   "parameters" :
   [
    {
     "is_this_ptr" : true,
     "referenced_type" : "_ZTIPN5scudo9AllocatorINS_13AndroidConfigEXadL_Z21scudo_malloc_postinitEEEE"
    },
    {
     "referenced_type" : "_ZTIN5scudo7OptionsE"
    },
    {
     "referenced_type" : "_ZTIPv"
    }
   ],
   "return_type" : "_ZTIv",
   "source_file" : "external/scudo/standalone/combined.h"
  },
  {
   "function_name" : "scudo::Allocator<scudo::AndroidConfig, &scudo_malloc_postinit>::computeOddEvenMaskForPointerMaybe",
   "linker_set_key" : "_ZN5scudo9AllocatorINS_13AndroidConfigEXadL_Z21scudo_malloc_postinitEEE33computeOddEvenMaskForPointerMaybeENS_7OptionsEmm",
   "parameters" :
   [
    {
     "is_this_ptr" : true,
     "referenced_type" : "_ZTIPN5scudo9AllocatorINS_13AndroidConfigEXadL_Z21scudo_malloc_postinitEEEE"
    },
    {
     "referenced_type" : "_ZTIN5scudo7OptionsE"
    },
    {
     "referenced_type" : "_ZTIm"
    },
    {
     "referenced_type" : "_ZTIm"
    }
   ],
   "return_type" : "_ZTIm",
   "source_file" : "external/scudo/standalone/combined.h"
  },
  {
   "access" : "private",
   "function_name" : "scudo::Allocator<scudo::AndroidConfig, &scudo_malloc_postinit>::storeSecondaryAllocationStackMaybe",
   "linker_set_key" : "_ZN5scudo9AllocatorINS_13AndroidConfigEXadL_Z21scudo_malloc_postinitEEE34storeSecondaryAllocationStackMaybeENS_7OptionsEPvm",
   "parameters" :
   [
    {
     "is_this_ptr" : true,
     "referenced_type" : "_ZTIPN5scudo9AllocatorINS_13AndroidConfigEXadL_Z21scudo_malloc_postinitEEEE"
    },
    {
     "referenced_type" : "_ZTIN5scudo7OptionsE"
    },
    {
     "referenced_type" : "_ZTIPv"
    },
    {
     "referenced_type" : "_ZTIm"
    }
   ],
   "return_type" : "_ZTIv",
   "source_file" : "external/scudo/standalone/combined.h"
  },
  {
   "function_name" : "scudo::Allocator<scudo::AndroidConfig, &scudo_malloc_postinit>::enable",
   "linker_set_key" : "_ZN5scudo9AllocatorINS_13AndroidConfigEXadL_Z21scudo_malloc_postinitEEE6enableEv",
   "parameters" :
   [
    {
     "is_this_ptr" : true,
     "referenced_type" : "_ZTIPN5scudo9AllocatorINS_13AndroidConfigEXadL_Z21scudo_malloc_postinitEEEE"
    }
   ],
   "return_type" : "_ZTIv",
   "source_file" : "external/scudo/standalone/combined.h"
  },
  {
   "function_name" : "scudo::Allocator<scudo::AndroidConfig, &scudo_malloc_postinit>::disable",
   "linker_set_key" : "_ZN5scudo9AllocatorINS_13AndroidConfigEXadL_Z21scudo_malloc_postinitEEE7disableEv",
   "parameters" :
   [
    {
     "is_this_ptr" : true,
     "referenced_type" : "_ZTIPN5scudo9AllocatorINS_13AndroidConfigEXadL_Z21scudo_malloc_postinitEEEE"
    }
   ],
   "return_type" : "_ZTIv",
   "source_file" : "external/scudo/standalone/combined.h"
  },
  {
   "access" : "private",
   "function_name" : "scudo::Allocator<scudo::AndroidConfig, &scudo_malloc_postinit>::getSize",
   "linker_set_key" : "_ZN5scudo9AllocatorINS_13AndroidConfigEXadL_Z21scudo_malloc_postinitEEE7getSizeEPKvPNS_5Chunk14UnpackedHeaderE",
   "parameters" :
   [
    {
     "is_this_ptr" : true,
     "referenced_type" : "_ZTIPN5scudo9AllocatorINS_13AndroidConfigEXadL_Z21scudo_malloc_postinitEEEE"
    },
    {
     "referenced_type" : "_ZTIPKv"
    },
    {
     "referenced_type" : "_ZTIPN5scudo5Chunk14UnpackedHeaderE"
    }
   ],
   "return_type" : "_ZTIm",
   "source_file" : "external/scudo/standalone/combined.h"
  },
  {
   "function_name" : "scudo::Allocator<scudo::AndroidConfig, &scudo_malloc_postinit>::allocate",
   "linker_set_key" : "_ZN5scudo9AllocatorINS_13AndroidConfigEXadL_Z21scudo_malloc_postinitEEE8allocateEmNS_5Chunk6OriginEmb",
   "parameters" :
   [
    {
     "is_this_ptr" : true,
     "referenced_type" : "_ZTIPN5scudo9AllocatorINS_13AndroidConfigEXadL_Z21scudo_malloc_postinitEEEE"
    },
    {
     "referenced_type" : "_ZTIm"
    },
    {
     "referenced_type" : "_ZTIN5scudo5Chunk6OriginE"
    },
    {
     "default_arg" : true,
     "referenced_type" : "_ZTIm"
    },
    {
     "default_arg" : true,
     "referenced_type" : "_ZTIb"
    }
   ],
   "return_type" : "_ZTIPv",
   "source_file" : "external/scudo/standalone/combined.h"
  },
  {
   "access" : "private",
   "function_name" : "scudo::Allocator<scudo::AndroidConfig, &scudo_malloc_postinit>::getStats",
   "linker_set_key" : "_ZN5scudo9AllocatorINS_13AndroidConfigEXadL_Z21scudo_malloc_postinitEEE8getStatsEPNS_12ScopedStringE",
   "parameters" :
   [
    {
     "is_this_ptr" : true,
     "referenced_type" : "_ZTIPN5scudo9AllocatorINS_13AndroidConfigEXadL_Z21scudo_malloc_postinitEEEE"
    },
    {
     "referenced_type" : "_ZTIPN5scudo12ScopedStringE"
    }
   ],
   "return_type" : "_ZTIm",
   "source_file" : "external/scudo/standalone/combined.h"
  },
  {
   "function_name" : "scudo::Allocator<scudo::AndroidConfig, &scudo_malloc_postinit>::getStats",
   "linker_set_key" : "_ZN5scudo9AllocatorINS_13AndroidConfigEXadL_Z21scudo_malloc_postinitEEE8getStatsEPm",
   "parameters" :
   [
    {
     "is_this_ptr" : true,
     "referenced_type" : "_ZTIPN5scudo9AllocatorINS_13AndroidConfigEXadL_Z21scudo_malloc_postinitEEEE"
    },
    {
     "referenced_type" : "_ZTIPm"
    }
   ],
   "return_type" : "_ZTIv",
   "source_file" : "external/scudo/standalone/combined.h"
  },
  {
   "function_name" : "scudo::Allocator<scudo::AndroidConfig, &scudo_malloc_postinit>::initCache",
   "linker_set_key" : "_ZN5scudo9AllocatorINS_13AndroidConfigEXadL_Z21scudo_malloc_postinitEEE9initCacheEPNS_28SizeClassAllocatorLocalCacheINS_20SizeClassAllocator32IS1_EEEE",
   "parameters" :
   [
    {
     "is_this_ptr" : true,
     "referenced_type" : "_ZTIPN5scudo9AllocatorINS_13AndroidConfigEXadL_Z21scudo_malloc_postinitEEEE"
    },
    {
     "referenced_type" : "_ZTIPN5scudo28SizeClassAllocatorLocalCacheINS_20SizeClassAllocator32INS_13AndroidConfigEEEEE"
    }
   ],
   "return_type" : "_ZTIv",
   "source_file" : "external/scudo/standalone/combined.h"
  },
  {
   "function_name" : "scudo::Allocator<scudo::AndroidConfig, &scudo_malloc_postinit>::setOption",
   "linker_set_key" : "_ZN5scudo9AllocatorINS_13AndroidConfigEXadL_Z21scudo_malloc_postinitEEE9setOptionENS_6OptionEl",
   "parameters" :
   [
    {
     "is_this_ptr" : true,
     "referenced_type" : "_ZTIPN5scudo9AllocatorINS_13AndroidConfigEXadL_Z21scudo_malloc_postinitEEEE"
    },
    {
     "referenced_type" : "_ZTIN5scudo6OptionE"
    },
    {
     "referenced_type" : "_ZTIl"
    }
   ],
   "return_type" : "_ZTIb",
   "source_file" : "external/scudo/standalone/combined.h"
  },
  {
   "function_name" : "scudo::Allocator<scudo::AndroidSvelteConfig, &scudo_svelte_malloc_postinit>::deallocate",
   "linker_set_key" : "_ZN5scudo9AllocatorINS_19AndroidSvelteConfigEXadL_Z28scudo_svelte_malloc_postinitEEE10deallocateEPvNS_5Chunk6OriginEmm",
   "parameters" :
   [
    {
     "is_this_ptr" : true,
     "referenced_type" : "_ZTIPN5scudo9AllocatorINS_19AndroidSvelteConfigEXadL_Z28scudo_svelte_malloc_postinitEEEE"
    },
    {
     "referenced_type" : "_ZTIPv"
    },
    {
     "referenced_type" : "_ZTIN5scudo5Chunk6OriginE"
    },
    {
     "default_arg" : true,
     "referenced_type" : "_ZTIm"
    },
    {
     "default_arg" : true,
     "referenced_type" : "_ZTIm"
    }
   ],
   "return_type" : "_ZTIv",
   "source_file" : "external/scudo/standalone/combined.h"
  },
  {
   "function_name" : "scudo::Allocator<scudo::AndroidSvelteConfig, &scudo_svelte_malloc_postinit>::reallocate",
   "linker_set_key" : "_ZN5scudo9AllocatorINS_19AndroidSvelteConfigEXadL_Z28scudo_svelte_malloc_postinitEEE10reallocateEPvmm",
   "parameters" :
   [
    {
     "is_this_ptr" : true,
     "referenced_type" : "_ZTIPN5scudo9AllocatorINS_19AndroidSvelteConfigEXadL_Z28scudo_svelte_malloc_postinitEEEE"
    },
    {
     "referenced_type" : "_ZTIPv"
    },
    {
     "referenced_type" : "_ZTIm"
    },
    {
     "default_arg" : true,
     "referenced_type" : "_ZTIm"
    }
   ],
   "return_type" : "_ZTIPv",
   "source_file" : "external/scudo/standalone/combined.h"
  },
  {
   "function_name" : "scudo::Allocator<scudo::AndroidSvelteConfig, &scudo_svelte_malloc_postinit>::initGwpAsan",
   "linker_set_key" : "_ZN5scudo9AllocatorINS_19AndroidSvelteConfigEXadL_Z28scudo_svelte_malloc_postinitEEE11initGwpAsanEv",
   "parameters" :
   [
    {
     "is_this_ptr" : true,
     "referenced_type" : "_ZTIPN5scudo9AllocatorINS_19AndroidSvelteConfigEXadL_Z28scudo_svelte_malloc_postinitEEEE"
    }
   ],
   "return_type" : "_ZTIv",
   "source_file" : "external/scudo/standalone/combined.h"
  },
  {
   "function_name" : "scudo::Allocator<scudo::AndroidSvelteConfig, &scudo_svelte_malloc_postinit>::releaseToOS",
   "linker_set_key" : "_ZN5scudo9AllocatorINS_19AndroidSvelteConfigEXadL_Z28scudo_svelte_malloc_postinitEEE11releaseToOSEv",
   "parameters" :
   [
    {
     "is_this_ptr" : true,
     "referenced_type" : "_ZTIPN5scudo9AllocatorINS_19AndroidSvelteConfigEXadL_Z28scudo_svelte_malloc_postinitEEEE"
    }
   ],
   "return_type" : "_ZTIv",
   "source_file" : "external/scudo/standalone/combined.h"
  },
  {
   "function_name" : "scudo::Allocator<scudo::AndroidSvelteConfig, &scudo_svelte_malloc_postinit>::addHeaderTag",
   "linker_set_key" : "_ZN5scudo9AllocatorINS_19AndroidSvelteConfigEXadL_Z28scudo_svelte_malloc_postinitEEE12addHeaderTagEPv",
   "parameters" :
   [
    {
     "is_this_ptr" : true,
     "referenced_type" : "_ZTIPN5scudo9AllocatorINS_19AndroidSvelteConfigEXadL_Z28scudo_svelte_malloc_postinitEEEE"
    },
    {
     "referenced_type" : "_ZTIPv"
    }
   ],
   "return_type" : "_ZTIPv",
   "source_file" : "external/scudo/standalone/combined.h"
  },
  {
   "function_name" : "scudo::Allocator<scudo::AndroidSvelteConfig, &scudo_svelte_malloc_postinit>::addHeaderTag",
   "linker_set_key" : "_ZN5scudo9AllocatorINS_19AndroidSvelteConfigEXadL_Z28scudo_svelte_malloc_postinitEEE12addHeaderTagEm",
   "parameters" :
   [
    {
     "is_this_ptr" : true,
     "referenced_type" : "_ZTIPN5scudo9AllocatorINS_19AndroidSvelteConfigEXadL_Z28scudo_svelte_malloc_postinitEEEE"
    },
    {
     "referenced_type" : "_ZTIm"
    }
   ],
   "return_type" : "_ZTIm",
   "source_file" : "external/scudo/standalone/combined.h"
  },
  {
   "function_name" : "scudo::Allocator<scudo::AndroidSvelteConfig, &scudo_svelte_malloc_postinit>::canReturnNull",
   "linker_set_key" : "_ZN5scudo9AllocatorINS_19AndroidSvelteConfigEXadL_Z28scudo_svelte_malloc_postinitEEE13canReturnNullEv",
   "parameters" :
   [
    {
     "is_this_ptr" : true,
     "referenced_type" : "_ZTIPN5scudo9AllocatorINS_19AndroidSvelteConfigEXadL_Z28scudo_svelte_malloc_postinitEEEE"
    }
   ],
   "return_type" : "_ZTIb",
   "source_file" : "external/scudo/standalone/combined.h"
  },
  {
   "access" : "private",
   "function_name" : "scudo::Allocator<scudo::AndroidSvelteConfig, &scudo_svelte_malloc_postinit>::getBlockBegin",
   "linker_set_key" : "_ZN5scudo9AllocatorINS_19AndroidSvelteConfigEXadL_Z28scudo_svelte_malloc_postinitEEE13getBlockBeginEPKvPNS_5Chunk14UnpackedHeaderE",
   "parameters" :
   [
    {
     "referenced_type" : "_ZTIPKv"
    },
    {
     "referenced_type" : "_ZTIPN5scudo5Chunk14UnpackedHeaderE"
    }
   ],
   "return_type" : "_ZTIPv",
   "source_file" : "external/scudo/standalone/combined.h"
  },
  {
   "function_name" : "scudo::Allocator<scudo::AndroidSvelteConfig, &scudo_svelte_malloc_postinit>::getUsableSize",
   "linker_set_key" : "_ZN5scudo9AllocatorINS_19AndroidSvelteConfigEXadL_Z28scudo_svelte_malloc_postinitEEE13getUsableSizeEPKv",
   "parameters" :
   [
    {
     "is_this_ptr" : true,
     "referenced_type" : "_ZTIPN5scudo9AllocatorINS_19AndroidSvelteConfigEXadL_Z28scudo_svelte_malloc_postinitEEEE"
    },
    {
     "referenced_type" : "_ZTIPKv"
    }
   ],
   "return_type" : "_ZTIm",
   "source_file" : "external/scudo/standalone/combined.h"
  },
  {
   "access" : "private",
   "function_name" : "scudo::Allocator<scudo::AndroidSvelteConfig, &scudo_svelte_malloc_postinit>::storeEndMarker",
   "linker_set_key" : "_ZN5scudo9AllocatorINS_19AndroidSvelteConfigEXadL_Z28scudo_svelte_malloc_postinitEEE14storeEndMarkerEmmm",
   "parameters" :
   [
    {
     "is_this_ptr" : true,
     "referenced_type" : "_ZTIPN5scudo9AllocatorINS_19AndroidSvelteConfigEXadL_Z28scudo_svelte_malloc_postinitEEEE"
    },
    {
     "referenced_type" : "_ZTIm"
    },
    {
     "referenced_type" : "_ZTIm"
    },
    {
     "referenced_type" : "_ZTIm"
    }
   ],
   "return_type" : "_ZTIv",
   "source_file" : "external/scudo/standalone/combined.h"
  },
  {
   "function_name" : "scudo::Allocator<scudo::AndroidSvelteConfig, &scudo_svelte_malloc_postinit>::initThreadMaybe",
   "linker_set_key" : "_ZN5scudo9AllocatorINS_19AndroidSvelteConfigEXadL_Z28scudo_svelte_malloc_postinitEEE15initThreadMaybeEb",
   "parameters" :
   [
    {
     "is_this_ptr" : true,
     "referenced_type" : "_ZTIPN5scudo9AllocatorINS_19AndroidSvelteConfigEXadL_Z28scudo_svelte_malloc_postinitEEEE"
    },
    {
     "default_arg" : true,
     "referenced_type" : "_ZTIb"
    }
   ],
   "return_type" : "_ZTIv",
   "source_file" : "external/scudo/standalone/combined.h"
  },
  {
   "function_name" : "scudo::Allocator<scudo::AndroidSvelteConfig, &scudo_svelte_malloc_postinit>::setFillContents",
   "linker_set_key" : "_ZN5scudo9AllocatorINS_19AndroidSvelteConfigEXadL_Z28scudo_svelte_malloc_postinitEEE15setFillContentsENS_16FillContentsModeE",
   "parameters" :
   [
    {
     "is_this_ptr" : true,
     "referenced_type" : "_ZTIPN5scudo9AllocatorINS_19AndroidSvelteConfigEXadL_Z28scudo_svelte_malloc_postinitEEEE"
    },
    {
     "referenced_type" : "_ZTIN5scudo16FillContentsModeE"
    }
   ],
   "return_type" : "_ZTIv",
   "source_file" : "external/scudo/standalone/combined.h"
  },
  {
   "function_name" : "scudo::Allocator<scudo::AndroidSvelteConfig, &scudo_svelte_malloc_postinit>::collectStackTrace",
   "linker_set_key" : "_ZN5scudo9AllocatorINS_19AndroidSvelteConfigEXadL_Z28scudo_svelte_malloc_postinitEEE17collectStackTraceEv",
   "parameters" :
   [
    {
     "is_this_ptr" : true,
     "referenced_type" : "_ZTIPN5scudo9AllocatorINS_19AndroidSvelteConfigEXadL_Z28scudo_svelte_malloc_postinitEEEE"
    }
   ],
   "return_type" : "_ZTIj",
   "source_file" : "external/scudo/standalone/combined.h"
  },
  {
   "access" : "private",
   "function_name" : "scudo::Allocator<scudo::AndroidSvelteConfig, &scudo_svelte_malloc_postinit>::getChunkFromBlock",
   "linker_set_key" : "_ZN5scudo9AllocatorINS_19AndroidSvelteConfigEXadL_Z28scudo_svelte_malloc_postinitEEE17getChunkFromBlockEmPmPNS_5Chunk14UnpackedHeaderE",
   "parameters" :
   [
    {
     "is_this_ptr" : true,
     "referenced_type" : "_ZTIPN5scudo9AllocatorINS_19AndroidSvelteConfigEXadL_Z28scudo_svelte_malloc_postinitEEEE"
    },
    {
     "referenced_type" : "_ZTIm"
    },
    {
     "referenced_type" : "_ZTIPm"
    },
    {
     "referenced_type" : "_ZTIPN5scudo5Chunk14UnpackedHeaderE"
    }
   ],
   "return_type" : "_ZTIb",
   "source_file" : "external/scudo/standalone/combined.h"
  },
  {
   "function_name" : "scudo::Allocator<scudo::AndroidSvelteConfig, &scudo_svelte_malloc_postinit>::iterateOverChunks",
   "linker_set_key" : "_ZN5scudo9AllocatorINS_19AndroidSvelteConfigEXadL_Z28scudo_svelte_malloc_postinitEEE17iterateOverChunksEmmPFvjjPvES3_",
   "parameters" :
   [
    {
     "is_this_ptr" : true,
     "referenced_type" : "_ZTIPN5scudo9AllocatorINS_19AndroidSvelteConfigEXadL_Z28scudo_svelte_malloc_postinitEEEE"
    },
    {
     "referenced_type" : "_ZTIm"
    },
    {
     "referenced_type" : "_ZTIm"
    },
    {
     "referenced_type" : "_ZTIPFvjjPvE"
    },
    {
     "referenced_type" : "_ZTIPv"
    }
   ],
   "return_type" : "_ZTIv",
   "source_file" : "external/scudo/standalone/combined.h"
  },
  {
   "access" : "private",
   "function_name" : "scudo::Allocator<scudo::AndroidSvelteConfig, &scudo_svelte_malloc_postinit>::resizeTaggedChunk",
   "linker_set_key" : "_ZN5scudo9AllocatorINS_19AndroidSvelteConfigEXadL_Z28scudo_svelte_malloc_postinitEEE17resizeTaggedChunkEmmmm",
   "parameters" :
   [
    {
     "is_this_ptr" : true,
     "referenced_type" : "_ZTIPN5scudo9AllocatorINS_19AndroidSvelteConfigEXadL_Z28scudo_svelte_malloc_postinitEEEE"
    },
    {
     "referenced_type" : "_ZTIm"
    },
    {
     "referenced_type" : "_ZTIm"
    },
    {
     "referenced_type" : "_ZTIm"
    },
    {
     "referenced_type" : "_ZTIm"
    }
   ],
   "return_type" : "_ZTIv",
   "source_file" : "external/scudo/standalone/combined.h"
  },
  {
   "function_name" : "scudo::Allocator<scudo::AndroidSvelteConfig, &scudo_svelte_malloc_postinit>::QuarantineCallback::deallocate",
   "linker_set_key" : "_ZN5scudo9AllocatorINS_19AndroidSvelteConfigEXadL_Z28scudo_svelte_malloc_postinitEEE18QuarantineCallback10deallocateEPv",
   "parameters" :
   [
    {
     "is_this_ptr" : true,
     "referenced_type" : "_ZTIPN5scudo9AllocatorINS_19AndroidSvelteConfigEXadL_Z28scudo_svelte_malloc_postinitEEE18QuarantineCallbackE"
    },
    {
     "referenced_type" : "_ZTIPv"
    }
   ],
   "return_type" : "_ZTIv",
   "source_file" : "external/scudo/standalone/combined.h"
  },
  {
   "function_name" : "scudo::Allocator<scudo::AndroidSvelteConfig, &scudo_svelte_malloc_postinit>::QuarantineCallback::recycle",
   "linker_set_key" : "_ZN5scudo9AllocatorINS_19AndroidSvelteConfigEXadL_Z28scudo_svelte_malloc_postinitEEE18QuarantineCallback7recycleEPv",
   "parameters" :
   [
    {
     "is_this_ptr" : true,
     "referenced_type" : "_ZTIPN5scudo9AllocatorINS_19AndroidSvelteConfigEXadL_Z28scudo_svelte_malloc_postinitEEE18QuarantineCallbackE"
    },
    {
     "referenced_type" : "_ZTIPv"
    }
   ],
   "return_type" : "_ZTIv",
   "source_file" : "external/scudo/standalone/combined.h"
  },
  {
   "function_name" : "scudo::Allocator<scudo::AndroidSvelteConfig, &scudo_svelte_malloc_postinit>::QuarantineCallback::allocate",
   "linker_set_key" : "_ZN5scudo9AllocatorINS_19AndroidSvelteConfigEXadL_Z28scudo_svelte_malloc_postinitEEE18QuarantineCallback8allocateEm",
   "parameters" :
   [
    {
     "is_this_ptr" : true,
     "referenced_type" : "_ZTIPN5scudo9AllocatorINS_19AndroidSvelteConfigEXadL_Z28scudo_svelte_malloc_postinitEEE18QuarantineCallbackE"
    },
    {
     "referenced_type" : "_ZTIm"
    }
   ],
   "return_type" : "_ZTIPv",
   "source_file" : "external/scudo/standalone/combined.h"
  },
  {
   "function_name" : "scudo::Allocator<scudo::AndroidSvelteConfig, &scudo_svelte_malloc_postinit>::QuarantineCallback::QuarantineCallback",
   "linker_set_key" : "_ZN5scudo9AllocatorINS_19AndroidSvelteConfigEXadL_Z28scudo_svelte_malloc_postinitEEE18QuarantineCallbackC1ERS2_RNS_28SizeClassAllocatorLocalCacheINS_20SizeClassAllocator32IS1_EEEE",
   "parameters" :
   [
    {
     "is_this_ptr" : true,
     "referenced_type" : "_ZTIPN5scudo9AllocatorINS_19AndroidSvelteConfigEXadL_Z28scudo_svelte_malloc_postinitEEE18QuarantineCallbackE"
    },
    {
     "referenced_type" : "_ZTIRN5scudo9AllocatorINS_19AndroidSvelteConfigEXadL_Z28scudo_svelte_malloc_postinitEEEE"
    },
    {
     "referenced_type" : "_ZTIRN5scudo28SizeClassAllocatorLocalCacheINS_20SizeClassAllocator32INS_19AndroidSvelteConfigEEEEE"
    }
   ],
   "return_type" : "_ZTIv",
   "source_file" : "external/scudo/standalone/combined.h"
  },
  {
   "function_name" : "scudo::Allocator<scudo::AndroidSvelteConfig, &scudo_svelte_malloc_postinit>::QuarantineCallback::QuarantineCallback",
   "linker_set_key" : "_ZN5scudo9AllocatorINS_19AndroidSvelteConfigEXadL_Z28scudo_svelte_malloc_postinitEEE18QuarantineCallbackC2ERS2_RNS_28SizeClassAllocatorLocalCacheINS_20SizeClassAllocator32IS1_EEEE",
   "parameters" :
   [
    {
     "is_this_ptr" : true,
     "referenced_type" : "_ZTIPN5scudo9AllocatorINS_19AndroidSvelteConfigEXadL_Z28scudo_svelte_malloc_postinitEEE18QuarantineCallbackE"
    },
    {
     "referenced_type" : "_ZTIRN5scudo9AllocatorINS_19AndroidSvelteConfigEXadL_Z28scudo_svelte_malloc_postinitEEEE"
    },
    {
     "referenced_type" : "_ZTIRN5scudo28SizeClassAllocatorLocalCacheINS_20SizeClassAllocator32INS_19AndroidSvelteConfigEEEEE"
    }
   ],
   "return_type" : "_ZTIv",
   "source_file" : "external/scudo/standalone/combined.h"
  },
  {
   "access" : "private",
   "function_name" : "scudo::Allocator<scudo::AndroidSvelteConfig, &scudo_svelte_malloc_postinit>::prepareTaggedChunk",
   "linker_set_key" : "_ZN5scudo9AllocatorINS_19AndroidSvelteConfigEXadL_Z28scudo_svelte_malloc_postinitEEE18prepareTaggedChunkEPvmmm",
   "parameters" :
   [
    {
     "is_this_ptr" : true,
     "referenced_type" : "_ZTIPN5scudo9AllocatorINS_19AndroidSvelteConfigEXadL_Z28scudo_svelte_malloc_postinitEEEE"
    },
    {
     "referenced_type" : "_ZTIPv"
    },
    {
     "referenced_type" : "_ZTIm"
    },
    {
     "referenced_type" : "_ZTIm"
    },
    {
     "referenced_type" : "_ZTIm"
    }
   ],
   "return_type" : "_ZTIPv",
   "source_file" : "external/scudo/standalone/combined.h"
  },
  {
   "access" : "private",
   "function_name" : "scudo::Allocator<scudo::AndroidSvelteConfig, &scudo_svelte_malloc_postinit>::performSanityChecks",
   "linker_set_key" : "_ZN5scudo9AllocatorINS_19AndroidSvelteConfigEXadL_Z28scudo_svelte_malloc_postinitEEE19performSanityChecksEv",
   "parameters" :
   [
    {
     "is_this_ptr" : true,
     "referenced_type" : "_ZTIPN5scudo9AllocatorINS_19AndroidSvelteConfigEXadL_Z28scudo_svelte_malloc_postinitEEEE"
    }
   ],
   "return_type" : "_ZTIv",
   "source_file" : "external/scudo/standalone/combined.h"
  },
  {
   "function_name" : "scudo::Allocator<scudo::AndroidSvelteConfig, &scudo_svelte_malloc_postinit>::callPostInitCallback",
   "linker_set_key" : "_ZN5scudo9AllocatorINS_19AndroidSvelteConfigEXadL_Z28scudo_svelte_malloc_postinitEEE20callPostInitCallbackEv",
   "parameters" :
   [
    {
     "is_this_ptr" : true,
     "referenced_type" : "_ZTIPN5scudo9AllocatorINS_19AndroidSvelteConfigEXadL_Z28scudo_svelte_malloc_postinitEEEE"
    }
   ],
   "return_type" : "_ZTIv",
   "source_file" : "external/scudo/standalone/combined.h"
  },
  {
   "function_name" : "scudo::Allocator<scudo::AndroidSvelteConfig, &scudo_svelte_malloc_postinit>::disableMemoryTagging",
   "linker_set_key" : "_ZN5scudo9AllocatorINS_19AndroidSvelteConfigEXadL_Z28scudo_svelte_malloc_postinitEEE20disableMemoryTaggingEv",
   "parameters" :
   [
    {
     "is_this_ptr" : true,
     "referenced_type" : "_ZTIPN5scudo9AllocatorINS_19AndroidSvelteConfigEXadL_Z28scudo_svelte_malloc_postinitEEEE"
    }
   ],
   "return_type" : "_ZTIv",
   "source_file" : "external/scudo/standalone/combined.h"
  },
  {
   "access" : "private",
   "function_name" : "scudo::Allocator<scudo::AndroidSvelteConfig, &scudo_svelte_malloc_postinit>::storeRingBufferEntry",
   "linker_set_key" : "_ZN5scudo9AllocatorINS_19AndroidSvelteConfigEXadL_Z28scudo_svelte_malloc_postinitEEE20storeRingBufferEntryEPvjjmjj",
   "parameters" :
   [
    {
     "is_this_ptr" : true,
     "referenced_type" : "_ZTIPN5scudo9AllocatorINS_19AndroidSvelteConfigEXadL_Z28scudo_svelte_malloc_postinitEEEE"
    },
    {
     "referenced_type" : "_ZTIPv"
    },
    {
     "referenced_type" : "_ZTIj"
    },
    {
     "referenced_type" : "_ZTIj"
    },
    {
     "referenced_type" : "_ZTIm"
    },
    {
     "referenced_type" : "_ZTIj"
    },
    {
     "referenced_type" : "_ZTIj"
    }
   ],
   "return_type" : "_ZTIv",
   "source_file" : "external/scudo/standalone/combined.h"
  },
  {
   "function_name" : "scudo::Allocator<scudo::AndroidSvelteConfig, &scudo_svelte_malloc_postinit>::initLinkerInitialized",
   "linker_set_key" : "_ZN5scudo9AllocatorINS_19AndroidSvelteConfigEXadL_Z28scudo_svelte_malloc_postinitEEE21initLinkerInitializedEv",
   "parameters" :
   [
    {
     "is_this_ptr" : true,
     "referenced_type" : "_ZTIPN5scudo9AllocatorINS_19AndroidSvelteConfigEXadL_Z28scudo_svelte_malloc_postinitEEEE"
    }
   ],
   "return_type" : "_ZTIv",
   "source_file" : "external/scudo/standalone/combined.h"
  },
  {
   "function_name" : "scudo::Allocator<scudo::AndroidSvelteConfig, &scudo_svelte_malloc_postinit>::getHeaderTaggedPointer",
   "linker_set_key" : "_ZN5scudo9AllocatorINS_19AndroidSvelteConfigEXadL_Z28scudo_svelte_malloc_postinitEEE22getHeaderTaggedPointerEPv",
   "parameters" :
   [
    {
     "is_this_ptr" : true,
     "referenced_type" : "_ZTIPN5scudo9AllocatorINS_19AndroidSvelteConfigEXadL_Z28scudo_svelte_malloc_postinitEEEE"
    },
    {
     "referenced_type" : "_ZTIPv"
    }
   ],
   "return_type" : "_ZTIPv",
   "source_file" : "external/scudo/standalone/combined.h"
  },
  {
   "access" : "private",
   "function_name" : "scudo::Allocator<scudo::AndroidSvelteConfig, &scudo_svelte_malloc_postinit>::getChunkOffsetFromBlock",
   "linker_set_key" : "_ZN5scudo9AllocatorINS_19AndroidSvelteConfigEXadL_Z28scudo_svelte_malloc_postinitEEE23getChunkOffsetFromBlockEPKc",
   "parameters" :
   [
    {
     "referenced_type" : "_ZTIPKc"
    }
   ],
   "return_type" : "_ZTIm",
   "source_file" : "external/scudo/standalone/combined.h"
  },
  {
   "function_name" : "scudo::Allocator<scudo::AndroidSvelteConfig, &scudo_svelte_malloc_postinit>::setTrackAllocationStacks",
   "linker_set_key" : "_ZN5scudo9AllocatorINS_19AndroidSvelteConfigEXadL_Z28scudo_svelte_malloc_postinitEEE24setTrackAllocationStacksEb",
   "parameters" :
   [
    {
     "is_this_ptr" : true,
     "referenced_type" : "_ZTIPN5scudo9AllocatorINS_19AndroidSvelteConfigEXadL_Z28scudo_svelte_malloc_postinitEEEE"
    },
    {
     "referenced_type" : "_ZTIb"
    }
   ],
   "return_type" : "_ZTIv",
   "source_file" : "external/scudo/standalone/combined.h"
  },
  {
   "function_name" : "scudo::Allocator<scudo::AndroidSvelteConfig, &scudo_svelte_malloc_postinit>::setAddLargeAllocationSlack",
   "linker_set_key" : "_ZN5scudo9AllocatorINS_19AndroidSvelteConfigEXadL_Z28scudo_svelte_malloc_postinitEEE26setAddLargeAllocationSlackEb",
   "parameters" :
   [
    {
     "is_this_ptr" : true,
     "referenced_type" : "_ZTIPN5scudo9AllocatorINS_19AndroidSvelteConfigEXadL_Z28scudo_svelte_malloc_postinitEEEE"
    },
    {
     "referenced_type" : "_ZTIb"
    }
   ],
   "return_type" : "_ZTIv",
   "source_file" : "external/scudo/standalone/combined.h"
  },
  {
   "access" : "private",
   "function_name" : "scudo::Allocator<scudo::AndroidSvelteConfig, &scudo_svelte_malloc_postinit>::quarantineOrDeallocateChunk",
   "linker_set_key" : "_ZN5scudo9AllocatorINS_19AndroidSvelteConfigEXadL_Z28scudo_svelte_malloc_postinitEEE27quarantineOrDeallocateChunkENS_7OptionsEPvPNS_5Chunk14UnpackedHeaderEm",
   "parameters" :
   [
    {
     "is_this_ptr" : true,
     "referenced_type" : "_ZTIPN5scudo9AllocatorINS_19AndroidSvelteConfigEXadL_Z28scudo_svelte_malloc_postinitEEEE"
    },
    {
     "referenced_type" : "_ZTIN5scudo7OptionsE"
    },
    {
     "referenced_type" : "_ZTIPv"
    },
    {
     "referenced_type" : "_ZTIPN5scudo5Chunk14UnpackedHeaderE"
    },
    {
     "referenced_type" : "_ZTIm"
    }
   ],
   "return_type" : "_ZTIv",
   "source_file" : "external/scudo/standalone/combined.h"
  },
  {
   "access" : "private",
   "function_name" : "scudo::Allocator<scudo::AndroidSvelteConfig, &scudo_svelte_malloc_postinit>::storeDeallocationStackMaybe",
   "linker_set_key" : "_ZN5scudo9AllocatorINS_19AndroidSvelteConfigEXadL_Z28scudo_svelte_malloc_postinitEEE27storeDeallocationStackMaybeENS_7OptionsEPvhm",
   "parameters" :
   [
    {
     "is_this_ptr" : true,
     "referenced_type" : "_ZTIPN5scudo9AllocatorINS_19AndroidSvelteConfigEXadL_Z28scudo_svelte_malloc_postinitEEEE"
    },
    {
     "referenced_type" : "_ZTIN5scudo7OptionsE"
    },
    {
     "referenced_type" : "_ZTIPv"
    },
    {
     "referenced_type" : "_ZTIh"
    },
    {
     "referenced_type" : "_ZTIm"
    }
   ],
   "return_type" : "_ZTIv",
   "source_file" : "external/scudo/standalone/combined.h"
  },
  {
   "access" : "private",
   "function_name" : "scudo::Allocator<scudo::AndroidSvelteConfig, &scudo_svelte_malloc_postinit>::storePrimaryAllocationStackMaybe",
   "linker_set_key" : "_ZN5scudo9AllocatorINS_19AndroidSvelteConfigEXadL_Z28scudo_svelte_malloc_postinitEEE32storePrimaryAllocationStackMaybeENS_7OptionsEPv",
   "parameters" :
   [
    {
     "is_this_ptr" : true,
     "referenced_type" : "_ZTIPN5scudo9AllocatorINS_19AndroidSvelteConfigEXadL_Z28scudo_svelte_malloc_postinitEEEE"
    },
    {
     "referenced_type" : "_ZTIN5scudo7OptionsE"
    },
    {
     "referenced_type" : "_ZTIPv"
    }
   ],
   "return_type" : "_ZTIv",
   "source_file" : "external/scudo/standalone/combined.h"
  },
  {
   "function_name" : "scudo::Allocator<scudo::AndroidSvelteConfig, &scudo_svelte_malloc_postinit>::computeOddEvenMaskForPointerMaybe",
   "linker_set_key" : "_ZN5scudo9AllocatorINS_19AndroidSvelteConfigEXadL_Z28scudo_svelte_malloc_postinitEEE33computeOddEvenMaskForPointerMaybeENS_7OptionsEmm",
   "parameters" :
   [
    {
     "is_this_ptr" : true,
     "referenced_type" : "_ZTIPN5scudo9AllocatorINS_19AndroidSvelteConfigEXadL_Z28scudo_svelte_malloc_postinitEEEE"
    },
    {
     "referenced_type" : "_ZTIN5scudo7OptionsE"
    },
    {
     "referenced_type" : "_ZTIm"
    },
    {
     "referenced_type" : "_ZTIm"
    }
   ],
   "return_type" : "_ZTIm",
   "source_file" : "external/scudo/standalone/combined.h"
  },
  {
   "access" : "private",
   "function_name" : "scudo::Allocator<scudo::AndroidSvelteConfig, &scudo_svelte_malloc_postinit>::storeSecondaryAllocationStackMaybe",
   "linker_set_key" : "_ZN5scudo9AllocatorINS_19AndroidSvelteConfigEXadL_Z28scudo_svelte_malloc_postinitEEE34storeSecondaryAllocationStackMaybeENS_7OptionsEPvm",
   "parameters" :
   [
    {
     "is_this_ptr" : true,
     "referenced_type" : "_ZTIPN5scudo9AllocatorINS_19AndroidSvelteConfigEXadL_Z28scudo_svelte_malloc_postinitEEEE"
    },
    {
     "referenced_type" : "_ZTIN5scudo7OptionsE"
    },
    {
     "referenced_type" : "_ZTIPv"
    },
    {
     "referenced_type" : "_ZTIm"
    }
   ],
   "return_type" : "_ZTIv",
   "source_file" : "external/scudo/standalone/combined.h"
  },
  {
   "function_name" : "scudo::Allocator<scudo::AndroidSvelteConfig, &scudo_svelte_malloc_postinit>::enable",
   "linker_set_key" : "_ZN5scudo9AllocatorINS_19AndroidSvelteConfigEXadL_Z28scudo_svelte_malloc_postinitEEE6enableEv",
   "parameters" :
   [
    {
     "is_this_ptr" : true,
     "referenced_type" : "_ZTIPN5scudo9AllocatorINS_19AndroidSvelteConfigEXadL_Z28scudo_svelte_malloc_postinitEEEE"
    }
   ],
   "return_type" : "_ZTIv",
   "source_file" : "external/scudo/standalone/combined.h"
  },
  {
   "function_name" : "scudo::Allocator<scudo::AndroidSvelteConfig, &scudo_svelte_malloc_postinit>::disable",
   "linker_set_key" : "_ZN5scudo9AllocatorINS_19AndroidSvelteConfigEXadL_Z28scudo_svelte_malloc_postinitEEE7disableEv",
   "parameters" :
   [
    {
     "is_this_ptr" : true,
     "referenced_type" : "_ZTIPN5scudo9AllocatorINS_19AndroidSvelteConfigEXadL_Z28scudo_svelte_malloc_postinitEEEE"
    }
   ],
   "return_type" : "_ZTIv",
   "source_file" : "external/scudo/standalone/combined.h"
  },
  {
   "access" : "private",
   "function_name" : "scudo::Allocator<scudo::AndroidSvelteConfig, &scudo_svelte_malloc_postinit>::getSize",
   "linker_set_key" : "_ZN5scudo9AllocatorINS_19AndroidSvelteConfigEXadL_Z28scudo_svelte_malloc_postinitEEE7getSizeEPKvPNS_5Chunk14UnpackedHeaderE",
   "parameters" :
   [
    {
     "is_this_ptr" : true,
     "referenced_type" : "_ZTIPN5scudo9AllocatorINS_19AndroidSvelteConfigEXadL_Z28scudo_svelte_malloc_postinitEEEE"
    },
    {
     "referenced_type" : "_ZTIPKv"
    },
    {
     "referenced_type" : "_ZTIPN5scudo5Chunk14UnpackedHeaderE"
    }
   ],
   "return_type" : "_ZTIm",
   "source_file" : "external/scudo/standalone/combined.h"
  },
  {
   "function_name" : "scudo::Allocator<scudo::AndroidSvelteConfig, &scudo_svelte_malloc_postinit>::allocate",
   "linker_set_key" : "_ZN5scudo9AllocatorINS_19AndroidSvelteConfigEXadL_Z28scudo_svelte_malloc_postinitEEE8allocateEmNS_5Chunk6OriginEmb",
   "parameters" :
   [
    {
     "is_this_ptr" : true,
     "referenced_type" : "_ZTIPN5scudo9AllocatorINS_19AndroidSvelteConfigEXadL_Z28scudo_svelte_malloc_postinitEEEE"
    },
    {
     "referenced_type" : "_ZTIm"
    },
    {
     "referenced_type" : "_ZTIN5scudo5Chunk6OriginE"
    },
    {
     "default_arg" : true,
     "referenced_type" : "_ZTIm"
    },
    {
     "default_arg" : true,
     "referenced_type" : "_ZTIb"
    }
   ],
   "return_type" : "_ZTIPv",
   "source_file" : "external/scudo/standalone/combined.h"
  },
  {
   "function_name" : "scudo::Allocator<scudo::AndroidSvelteConfig, &scudo_svelte_malloc_postinit>::getStats",
   "linker_set_key" : "_ZN5scudo9AllocatorINS_19AndroidSvelteConfigEXadL_Z28scudo_svelte_malloc_postinitEEE8getStatsEPm",
   "parameters" :
   [
    {
     "is_this_ptr" : true,
     "referenced_type" : "_ZTIPN5scudo9AllocatorINS_19AndroidSvelteConfigEXadL_Z28scudo_svelte_malloc_postinitEEEE"
    },
    {
     "referenced_type" : "_ZTIPm"
    }
   ],
   "return_type" : "_ZTIv",
   "source_file" : "external/scudo/standalone/combined.h"
  },
  {
   "function_name" : "scudo::Allocator<scudo::AndroidSvelteConfig, &scudo_svelte_malloc_postinit>::initCache",
   "linker_set_key" : "_ZN5scudo9AllocatorINS_19AndroidSvelteConfigEXadL_Z28scudo_svelte_malloc_postinitEEE9initCacheEPNS_28SizeClassAllocatorLocalCacheINS_20SizeClassAllocator32IS1_EEEE",
   "parameters" :
   [
    {
     "is_this_ptr" : true,
     "referenced_type" : "_ZTIPN5scudo9AllocatorINS_19AndroidSvelteConfigEXadL_Z28scudo_svelte_malloc_postinitEEEE"
    },
    {
     "referenced_type" : "_ZTIPN5scudo28SizeClassAllocatorLocalCacheINS_20SizeClassAllocator32INS_19AndroidSvelteConfigEEEEE"
    }
   ],
   "return_type" : "_ZTIv",
   "source_file" : "external/scudo/standalone/combined.h"
  },
  {
   "function_name" : "scudo::Allocator<scudo::AndroidSvelteConfig, &scudo_svelte_malloc_postinit>::setOption",
   "linker_set_key" : "_ZN5scudo9AllocatorINS_19AndroidSvelteConfigEXadL_Z28scudo_svelte_malloc_postinitEEE9setOptionENS_6OptionEl",
   "parameters" :
   [
    {
     "is_this_ptr" : true,
     "referenced_type" : "_ZTIPN5scudo9AllocatorINS_19AndroidSvelteConfigEXadL_Z28scudo_svelte_malloc_postinitEEEE"
    },
    {
     "referenced_type" : "_ZTIN5scudo6OptionE"
    },
    {
     "referenced_type" : "_ZTIl"
    }
   ],
   "return_type" : "_ZTIb",
   "source_file" : "external/scudo/standalone/combined.h"
  },
  {
   "function_name" : "scudo::isAligned",
   "linker_set_key" : "_ZN5scudo9isAlignedEmm",
   "parameters" :
   [
    {
     "referenced_type" : "_ZTIm"
    },
    {
     "referenced_type" : "_ZTIm"
    }
   ],
   "return_type" : "_ZTIb",
   "source_file" : "external/scudo/standalone/common.h"
  },
  {
   "function_name" : "scudo::roundUpTo",
   "linker_set_key" : "_ZN5scudo9roundUpToEmm",
   "parameters" :
   [
    {
     "referenced_type" : "_ZTIm"
    },
    {
     "referenced_type" : "_ZTIm"
    }
   ],
   "return_type" : "_ZTIm",
   "source_file" : "external/scudo/standalone/common.h"
  },
  {
   "function_name" : "scudo::storeTags",
   "linker_set_key" : "_ZN5scudo9storeTagsEmm",
   "parameters" :
   [
    {
     "referenced_type" : "_ZTIm"
    },
    {
     "referenced_type" : "_ZTIm"
    }
   ],
   "return_type" : "_ZTIm",
   "source_file" : "external/scudo/standalone/memtag.h"
  },
  {
   "function_name" : "scudo::LocalStats::get",
   "linker_set_key" : "_ZNK5scudo10LocalStats3getENS_8StatTypeE",
   "parameters" :
   [
    {
     "is_this_ptr" : true,
     "referenced_type" : "_ZTIPKN5scudo10LocalStatsE"
    },
    {
     "referenced_type" : "_ZTIN5scudo8StatTypeE"
    }
   ],
   "return_type" : "_ZTIm",
   "source_file" : "external/scudo/standalone/stats.h"
  },
  {
   "function_name" : "scudo::StackDepot::find",
   "linker_set_key" : "_ZNK5scudo10StackDepot4findEjPmS1_",
   "parameters" :
   [
    {
     "is_this_ptr" : true,
     "referenced_type" : "_ZTIPKN5scudo10StackDepotE"
    },
    {
     "referenced_type" : "_ZTIj"
    },
    {
     "referenced_type" : "_ZTIPm"
    },
    {
     "referenced_type" : "_ZTIPm"
    }
   ],
   "return_type" : "_ZTIb",
   "source_file" : "external/scudo/standalone/stack_depot.h"
  },
  {
   "function_name" : "scudo::StackDepot::operator[]",
   "linker_set_key" : "_ZNK5scudo10StackDepotixEm",
   "parameters" :
   [
    {
     "is_this_ptr" : true,
     "referenced_type" : "_ZTIPKN5scudo10StackDepotE"
    },
    {
     "referenced_type" : "_ZTIm"
    }
   ],
   "return_type" : "_ZTIy",
   "source_file" : "external/scudo/standalone/stack_depot.h"
  },
  {
   "function_name" : "scudo::GlobalStats::get",
   "linker_set_key" : "_ZNK5scudo11GlobalStats3getEPm",
   "parameters" :
   [
    {
     "is_this_ptr" : true,
     "referenced_type" : "_ZTIPKN5scudo11GlobalStatsE"
    },
    {
     "referenced_type" : "_ZTIPm"
    }
   ],
   "return_type" : "_ZTIv",
   "source_file" : "external/scudo/standalone/stats.h"
  },
  {
   "function_name" : "scudo::IteratorBase<const scudo::LargeBlock::Header>::operator!=",
   "linker_set_key" : "_ZNK5scudo12IteratorBaseIKNS_10LargeBlock6HeaderEEneES4_",
   "parameters" :
   [
    {
     "is_this_ptr" : true,
     "referenced_type" : "_ZTIPKN5scudo12IteratorBaseIKNS_10LargeBlock6HeaderEEE"
    },
    {
     "referenced_type" : "_ZTIN5scudo12IteratorBaseIKNS_10LargeBlock6HeaderEEE"
    }
   ],
   "return_type" : "_ZTIb",
   "source_file" : "external/scudo/standalone/list.h"
  },
  {
   "function_name" : "scudo::IteratorBase<const scudo::LocalStats>::operator!=",
   "linker_set_key" : "_ZNK5scudo12IteratorBaseIKNS_10LocalStatsEEneES3_",
   "parameters" :
   [
    {
     "is_this_ptr" : true,
     "referenced_type" : "_ZTIPKN5scudo12IteratorBaseIKNS_10LocalStatsEEE"
    },
    {
     "referenced_type" : "_ZTIN5scudo12IteratorBaseIKNS_10LocalStatsEEE"
    }
   ],
   "return_type" : "_ZTIb",
   "source_file" : "external/scudo/standalone/list.h"
  },
  {
   "function_name" : "scudo::IteratorBase<const scudo::QuarantineBatch>::operator!=",
   "linker_set_key" : "_ZNK5scudo12IteratorBaseIKNS_15QuarantineBatchEEneES3_",
   "parameters" :
   [
    {
     "is_this_ptr" : true,
     "referenced_type" : "_ZTIPKN5scudo12IteratorBaseIKNS_15QuarantineBatchEEE"
    },
    {
     "referenced_type" : "_ZTIN5scudo12IteratorBaseIKNS_15QuarantineBatchEEE"
    }
   ],
   "return_type" : "_ZTIb",
   "source_file" : "external/scudo/standalone/list.h"
  },
  {
   "function_name" : "scudo::IteratorBase<const scudo::SizeClassAllocatorLocalCache<scudo::SizeClassAllocator32<scudo::AndroidConfig>>::TransferBatch>::operator!=",
   "linker_set_key" : "_ZNK5scudo12IteratorBaseIKNS_28SizeClassAllocatorLocalCacheINS_20SizeClassAllocator32INS_13AndroidConfigEEEE13TransferBatchEEneES8_",
   "parameters" :
   [
    {
     "is_this_ptr" : true,
     "referenced_type" : "_ZTIPKN5scudo12IteratorBaseIKNS_28SizeClassAllocatorLocalCacheINS_20SizeClassAllocator32INS_13AndroidConfigEEEE13TransferBatchEEE"
    },
    {
     "referenced_type" : "_ZTIN5scudo12IteratorBaseIKNS_28SizeClassAllocatorLocalCacheINS_20SizeClassAllocator32INS_13AndroidConfigEEEE13TransferBatchEEE"
    }
   ],
   "return_type" : "_ZTIb",
   "source_file" : "external/scudo/standalone/list.h"
  },
  {
   "function_name" : "scudo::IteratorBase<const scudo::SizeClassAllocatorLocalCache<scudo::SizeClassAllocator32<scudo::AndroidSvelteConfig>>::TransferBatch>::operator!=",
   "linker_set_key" : "_ZNK5scudo12IteratorBaseIKNS_28SizeClassAllocatorLocalCacheINS_20SizeClassAllocator32INS_19AndroidSvelteConfigEEEE13TransferBatchEEneES8_",
   "parameters" :
   [
    {
     "is_this_ptr" : true,
     "referenced_type" : "_ZTIPKN5scudo12IteratorBaseIKNS_28SizeClassAllocatorLocalCacheINS_20SizeClassAllocator32INS_19AndroidSvelteConfigEEEE13TransferBatchEEE"
    },
    {
     "referenced_type" : "_ZTIN5scudo12IteratorBaseIKNS_28SizeClassAllocatorLocalCacheINS_20SizeClassAllocator32INS_19AndroidSvelteConfigEEEE13TransferBatchEEE"
    }
   ],
   "return_type" : "_ZTIb",
   "source_file" : "external/scudo/standalone/list.h"
  },
  {
   "function_name" : "scudo::MapAllocator<scudo::AndroidConfig>::getStats",
   "linker_set_key" : "_ZNK5scudo12MapAllocatorINS_13AndroidConfigEE8getStatsEPNS_12ScopedStringE",
   "parameters" :
   [
    {
     "is_this_ptr" : true,
     "referenced_type" : "_ZTIPKN5scudo12MapAllocatorINS_13AndroidConfigEEE"
    },
    {
     "referenced_type" : "_ZTIPN5scudo12ScopedStringE"
    }
   ],
   "return_type" : "_ZTIv",
   "source_file" : "external/scudo/standalone/secondary.h"
  },
  {
   "function_name" : "scudo::ScopedString::output",
   "linker_set_key" : "_ZNK5scudo12ScopedString6outputEv",
   "parameters" :
   [
    {
     "is_this_ptr" : true,
     "referenced_type" : "_ZTIPKN5scudo12ScopedStringE"
    }
   ],
   "return_type" : "_ZTIv",
   "source_file" : "external/scudo/standalone/string_utils.h"
  },
  {
   "function_name" : "scudo::VectorNoCtor<char>::data",
   "linker_set_key" : "_ZNK5scudo12VectorNoCtorIcE4dataEv",
   "parameters" :
   [
    {
     "is_this_ptr" : true,
     "referenced_type" : "_ZTIPKN5scudo12VectorNoCtorIcEE"
    }
   ],
   "return_type" : "_ZTIPKc",
   "source_file" : "external/scudo/standalone/vector.h"
  },
  {
   "function_name" : "scudo::VectorNoCtor<char>::capacity",
   "linker_set_key" : "_ZNK5scudo12VectorNoCtorIcE8capacityEv",
   "parameters" :
   [
    {
     "is_this_ptr" : true,
     "referenced_type" : "_ZTIPKN5scudo12VectorNoCtorIcEE"
    }
   ],
   "return_type" : "_ZTIm",
   "source_file" : "external/scudo/standalone/vector.h"
  },
  {
   "function_name" : "scudo::AtomicOptions::load",
   "linker_set_key" : "_ZNK5scudo13AtomicOptions4loadEv",
   "parameters" :
   [
    {
     "is_this_ptr" : true,
     "referenced_type" : "_ZTIPKN5scudo13AtomicOptionsE"
    }
   ],
   "return_type" : "_ZTIN5scudo7OptionsE",
   "source_file" : "external/scudo/standalone/options.h"
  },
  {
   "function_name" : "scudo::IntrusiveList<scudo::LargeBlock::Header>::end",
   "linker_set_key" : "_ZNK5scudo13IntrusiveListINS_10LargeBlock6HeaderEE3endEv",
   "parameters" :
   [
    {
     "is_this_ptr" : true,
     "referenced_type" : "_ZTIPKN5scudo13IntrusiveListINS_10LargeBlock6HeaderEEE"
    }
   ],
   "return_type" : "_ZTIN5scudo12IteratorBaseIKNS_10LargeBlock6HeaderEEE",
   "source_file" : "external/scudo/standalone/list.h"
  },
  {
   "function_name" : "scudo::IntrusiveList<scudo::LargeBlock::Header>::begin",
   "linker_set_key" : "_ZNK5scudo13IntrusiveListINS_10LargeBlock6HeaderEE5beginEv",
   "parameters" :
   [
    {
     "is_this_ptr" : true,
     "referenced_type" : "_ZTIPKN5scudo13IntrusiveListINS_10LargeBlock6HeaderEEE"
    }
   ],
   "return_type" : "_ZTIN5scudo12IteratorBaseIKNS_10LargeBlock6HeaderEEE",
   "source_file" : "external/scudo/standalone/list.h"
  },
  {
   "function_name" : "scudo::IntrusiveList<scudo::LargeBlock::Header>::empty",
   "linker_set_key" : "_ZNK5scudo13IntrusiveListINS_10LargeBlock6HeaderEE5emptyEv",
   "parameters" :
   [
    {
     "is_this_ptr" : true,
     "referenced_type" : "_ZTIPKN5scudo13IntrusiveListINS_10LargeBlock6HeaderEEE"
    }
   ],
   "return_type" : "_ZTIb",
   "source_file" : "external/scudo/standalone/list.h"
  },
  {
   "function_name" : "scudo::IntrusiveList<scudo::LocalStats>::end",
   "linker_set_key" : "_ZNK5scudo13IntrusiveListINS_10LocalStatsEE3endEv",
   "parameters" :
   [
    {
     "is_this_ptr" : true,
     "referenced_type" : "_ZTIPKN5scudo13IntrusiveListINS_10LocalStatsEEE"
    }
   ],
   "return_type" : "_ZTIN5scudo12IteratorBaseIKNS_10LocalStatsEEE",
   "source_file" : "external/scudo/standalone/list.h"
  },
  {
   "function_name" : "scudo::IntrusiveList<scudo::LocalStats>::begin",
   "linker_set_key" : "_ZNK5scudo13IntrusiveListINS_10LocalStatsEE5beginEv",
   "parameters" :
   [
    {
     "is_this_ptr" : true,
     "referenced_type" : "_ZTIPKN5scudo13IntrusiveListINS_10LocalStatsEEE"
    }
   ],
   "return_type" : "_ZTIN5scudo12IteratorBaseIKNS_10LocalStatsEEE",
   "source_file" : "external/scudo/standalone/list.h"
  },
  {
   "function_name" : "scudo::IntrusiveList<scudo::LocalStats>::empty",
   "linker_set_key" : "_ZNK5scudo13IntrusiveListINS_10LocalStatsEE5emptyEv",
   "parameters" :
   [
    {
     "is_this_ptr" : true,
     "referenced_type" : "_ZTIPKN5scudo13IntrusiveListINS_10LocalStatsEEE"
    }
   ],
   "return_type" : "_ZTIb",
   "source_file" : "external/scudo/standalone/list.h"
  },
  {
   "function_name" : "scudo::IntrusiveList<scudo::QuarantineBatch>::end",
   "linker_set_key" : "_ZNK5scudo13IntrusiveListINS_15QuarantineBatchEE3endEv",
   "parameters" :
   [
    {
     "is_this_ptr" : true,
     "referenced_type" : "_ZTIPKN5scudo13IntrusiveListINS_15QuarantineBatchEEE"
    }
   ],
   "return_type" : "_ZTIN5scudo12IteratorBaseIKNS_15QuarantineBatchEEE",
   "source_file" : "external/scudo/standalone/list.h"
  },
  {
   "function_name" : "scudo::IntrusiveList<scudo::QuarantineBatch>::size",
   "linker_set_key" : "_ZNK5scudo13IntrusiveListINS_15QuarantineBatchEE4sizeEv",
   "parameters" :
   [
    {
     "is_this_ptr" : true,
     "referenced_type" : "_ZTIPKN5scudo13IntrusiveListINS_15QuarantineBatchEEE"
    }
   ],
   "return_type" : "_ZTIm",
   "source_file" : "external/scudo/standalone/list.h"
  },
  {
   "function_name" : "scudo::IntrusiveList<scudo::QuarantineBatch>::begin",
   "linker_set_key" : "_ZNK5scudo13IntrusiveListINS_15QuarantineBatchEE5beginEv",
   "parameters" :
   [
    {
     "is_this_ptr" : true,
     "referenced_type" : "_ZTIPKN5scudo13IntrusiveListINS_15QuarantineBatchEEE"
    }
   ],
   "return_type" : "_ZTIN5scudo12IteratorBaseIKNS_15QuarantineBatchEEE",
   "source_file" : "external/scudo/standalone/list.h"
  },
  {
   "function_name" : "scudo::IntrusiveList<scudo::QuarantineBatch>::empty",
   "linker_set_key" : "_ZNK5scudo13IntrusiveListINS_15QuarantineBatchEE5emptyEv",
   "parameters" :
   [
    {
     "is_this_ptr" : true,
     "referenced_type" : "_ZTIPKN5scudo13IntrusiveListINS_15QuarantineBatchEEE"
    }
   ],
   "return_type" : "_ZTIb",
   "source_file" : "external/scudo/standalone/list.h"
  },
  {
   "function_name" : "scudo::IntrusiveList<scudo::SizeClassAllocatorLocalCache<scudo::SizeClassAllocator32<scudo::AndroidConfig>>::TransferBatch>::end",
   "linker_set_key" : "_ZNK5scudo13IntrusiveListINS_28SizeClassAllocatorLocalCacheINS_20SizeClassAllocator32INS_13AndroidConfigEEEE13TransferBatchEE3endEv",
   "parameters" :
   [
    {
     "is_this_ptr" : true,
     "referenced_type" : "_ZTIPKN5scudo13IntrusiveListINS_28SizeClassAllocatorLocalCacheINS_20SizeClassAllocator32INS_13AndroidConfigEEEE13TransferBatchEEE"
    }
   ],
   "return_type" : "_ZTIN5scudo12IteratorBaseIKNS_28SizeClassAllocatorLocalCacheINS_20SizeClassAllocator32INS_13AndroidConfigEEEE13TransferBatchEEE",
   "source_file" : "external/scudo/standalone/list.h"
  },
  {
   "function_name" : "scudo::IntrusiveList<scudo::SizeClassAllocatorLocalCache<scudo::SizeClassAllocator32<scudo::AndroidConfig>>::TransferBatch>::begin",
   "linker_set_key" : "_ZNK5scudo13IntrusiveListINS_28SizeClassAllocatorLocalCacheINS_20SizeClassAllocator32INS_13AndroidConfigEEEE13TransferBatchEE5beginEv",
   "parameters" :
   [
    {
     "is_this_ptr" : true,
     "referenced_type" : "_ZTIPKN5scudo13IntrusiveListINS_28SizeClassAllocatorLocalCacheINS_20SizeClassAllocator32INS_13AndroidConfigEEEE13TransferBatchEEE"
    }
   ],
   "return_type" : "_ZTIN5scudo12IteratorBaseIKNS_28SizeClassAllocatorLocalCacheINS_20SizeClassAllocator32INS_13AndroidConfigEEEE13TransferBatchEEE",
   "source_file" : "external/scudo/standalone/list.h"
  },
  {
   "function_name" : "scudo::IntrusiveList<scudo::SizeClassAllocatorLocalCache<scudo::SizeClassAllocator32<scudo::AndroidConfig>>::TransferBatch>::empty",
   "linker_set_key" : "_ZNK5scudo13IntrusiveListINS_28SizeClassAllocatorLocalCacheINS_20SizeClassAllocator32INS_13AndroidConfigEEEE13TransferBatchEE5emptyEv",
   "parameters" :
   [
    {
     "is_this_ptr" : true,
     "referenced_type" : "_ZTIPKN5scudo13IntrusiveListINS_28SizeClassAllocatorLocalCacheINS_20SizeClassAllocator32INS_13AndroidConfigEEEE13TransferBatchEEE"
    }
   ],
   "return_type" : "_ZTIb",
   "source_file" : "external/scudo/standalone/list.h"
  },
  {
   "function_name" : "scudo::IntrusiveList<scudo::SizeClassAllocatorLocalCache<scudo::SizeClassAllocator32<scudo::AndroidSvelteConfig>>::TransferBatch>::end",
   "linker_set_key" : "_ZNK5scudo13IntrusiveListINS_28SizeClassAllocatorLocalCacheINS_20SizeClassAllocator32INS_19AndroidSvelteConfigEEEE13TransferBatchEE3endEv",
   "parameters" :
   [
    {
     "is_this_ptr" : true,
     "referenced_type" : "_ZTIPKN5scudo13IntrusiveListINS_28SizeClassAllocatorLocalCacheINS_20SizeClassAllocator32INS_19AndroidSvelteConfigEEEE13TransferBatchEEE"
    }
   ],
   "return_type" : "_ZTIN5scudo12IteratorBaseIKNS_28SizeClassAllocatorLocalCacheINS_20SizeClassAllocator32INS_19AndroidSvelteConfigEEEE13TransferBatchEEE",
   "source_file" : "external/scudo/standalone/list.h"
  },
  {
   "function_name" : "scudo::IntrusiveList<scudo::SizeClassAllocatorLocalCache<scudo::SizeClassAllocator32<scudo::AndroidSvelteConfig>>::TransferBatch>::begin",
   "linker_set_key" : "_ZNK5scudo13IntrusiveListINS_28SizeClassAllocatorLocalCacheINS_20SizeClassAllocator32INS_19AndroidSvelteConfigEEEE13TransferBatchEE5beginEv",
   "parameters" :
   [
    {
     "is_this_ptr" : true,
     "referenced_type" : "_ZTIPKN5scudo13IntrusiveListINS_28SizeClassAllocatorLocalCacheINS_20SizeClassAllocator32INS_19AndroidSvelteConfigEEEE13TransferBatchEEE"
    }
   ],
   "return_type" : "_ZTIN5scudo12IteratorBaseIKNS_28SizeClassAllocatorLocalCacheINS_20SizeClassAllocator32INS_19AndroidSvelteConfigEEEE13TransferBatchEEE",
   "source_file" : "external/scudo/standalone/list.h"
  },
  {
   "function_name" : "scudo::IntrusiveList<scudo::SizeClassAllocatorLocalCache<scudo::SizeClassAllocator32<scudo::AndroidSvelteConfig>>::TransferBatch>::empty",
   "linker_set_key" : "_ZNK5scudo13IntrusiveListINS_28SizeClassAllocatorLocalCacheINS_20SizeClassAllocator32INS_19AndroidSvelteConfigEEEE13TransferBatchEE5emptyEv",
   "parameters" :
   [
    {
     "is_this_ptr" : true,
     "referenced_type" : "_ZTIPKN5scudo13IntrusiveListINS_28SizeClassAllocatorLocalCacheINS_20SizeClassAllocator32INS_19AndroidSvelteConfigEEEE13TransferBatchEEE"
    }
   ],
   "return_type" : "_ZTIb",
   "source_file" : "external/scudo/standalone/list.h"
  },
  {
   "function_name" : "scudo::QuarantineBatch::getQuarantinedSize",
   "linker_set_key" : "_ZNK5scudo15QuarantineBatch18getQuarantinedSizeEv",
   "parameters" :
   [
    {
     "is_this_ptr" : true,
     "referenced_type" : "_ZTIPKN5scudo15QuarantineBatchE"
    }
   ],
   "return_type" : "_ZTIm",
   "source_file" : "external/scudo/standalone/quarantine.h"
  },
  {
   "function_name" : "scudo::QuarantineBatch::canMerge",
   "linker_set_key" : "_ZNK5scudo15QuarantineBatch8canMergeEPKS0_",
   "parameters" :
   [
    {
     "is_this_ptr" : true,
     "referenced_type" : "_ZTIPKN5scudo15QuarantineBatchE"
    },
    {
     "referenced_type" : "_ZTIKPKN5scudo15QuarantineBatchE"
    }
   ],
   "return_type" : "_ZTIb",
   "source_file" : "external/scudo/standalone/quarantine.h"
  },
  {
   "function_name" : "scudo::QuarantineCache<scudo::Allocator<scudo::AndroidConfig, &scudo_malloc_postinit>::QuarantineCallback>::getOverheadSize",
   "linker_set_key" : "_ZNK5scudo15QuarantineCacheINS_9AllocatorINS_13AndroidConfigEXadL_Z21scudo_malloc_postinitEEE18QuarantineCallbackEE15getOverheadSizeEv",
   "parameters" :
   [
    {
     "is_this_ptr" : true,
     "referenced_type" : "_ZTIPKN5scudo15QuarantineCacheINS_9AllocatorINS_13AndroidConfigEXadL_Z21scudo_malloc_postinitEEE18QuarantineCallbackEEE"
    }
   ],
   "return_type" : "_ZTIm",
   "source_file" : "external/scudo/standalone/quarantine.h"
  },
  {
   "function_name" : "scudo::QuarantineCache<scudo::Allocator<scudo::AndroidConfig, &scudo_malloc_postinit>::QuarantineCallback>::getSize",
   "linker_set_key" : "_ZNK5scudo15QuarantineCacheINS_9AllocatorINS_13AndroidConfigEXadL_Z21scudo_malloc_postinitEEE18QuarantineCallbackEE7getSizeEv",
   "parameters" :
   [
    {
     "is_this_ptr" : true,
     "referenced_type" : "_ZTIPKN5scudo15QuarantineCacheINS_9AllocatorINS_13AndroidConfigEXadL_Z21scudo_malloc_postinitEEE18QuarantineCallbackEEE"
    }
   ],
   "return_type" : "_ZTIm",
   "source_file" : "external/scudo/standalone/quarantine.h"
  },
  {
   "function_name" : "scudo::QuarantineCache<scudo::Allocator<scudo::AndroidConfig, &scudo_malloc_postinit>::QuarantineCallback>::getStats",
   "linker_set_key" : "_ZNK5scudo15QuarantineCacheINS_9AllocatorINS_13AndroidConfigEXadL_Z21scudo_malloc_postinitEEE18QuarantineCallbackEE8getStatsEPNS_12ScopedStringE",
   "parameters" :
   [
    {
     "is_this_ptr" : true,
     "referenced_type" : "_ZTIPKN5scudo15QuarantineCacheINS_9AllocatorINS_13AndroidConfigEXadL_Z21scudo_malloc_postinitEEE18QuarantineCallbackEEE"
    },
    {
     "referenced_type" : "_ZTIPN5scudo12ScopedStringE"
    }
   ],
   "return_type" : "_ZTIv",
   "source_file" : "external/scudo/standalone/quarantine.h"
  },
  {
   "function_name" : "scudo::QuarantineCache<scudo::Allocator<scudo::AndroidSvelteConfig, &scudo_svelte_malloc_postinit>::QuarantineCallback>::getOverheadSize",
   "linker_set_key" : "_ZNK5scudo15QuarantineCacheINS_9AllocatorINS_19AndroidSvelteConfigEXadL_Z28scudo_svelte_malloc_postinitEEE18QuarantineCallbackEE15getOverheadSizeEv",
   "parameters" :
   [
    {
     "is_this_ptr" : true,
     "referenced_type" : "_ZTIPKN5scudo15QuarantineCacheINS_9AllocatorINS_19AndroidSvelteConfigEXadL_Z28scudo_svelte_malloc_postinitEEE18QuarantineCallbackEEE"
    }
   ],
   "return_type" : "_ZTIm",
   "source_file" : "external/scudo/standalone/quarantine.h"
  },
  {
   "function_name" : "scudo::QuarantineCache<scudo::Allocator<scudo::AndroidSvelteConfig, &scudo_svelte_malloc_postinit>::QuarantineCallback>::getSize",
   "linker_set_key" : "_ZNK5scudo15QuarantineCacheINS_9AllocatorINS_19AndroidSvelteConfigEXadL_Z28scudo_svelte_malloc_postinitEEE18QuarantineCallbackEE7getSizeEv",
   "parameters" :
   [
    {
     "is_this_ptr" : true,
     "referenced_type" : "_ZTIPKN5scudo15QuarantineCacheINS_9AllocatorINS_19AndroidSvelteConfigEXadL_Z28scudo_svelte_malloc_postinitEEE18QuarantineCallbackEEE"
    }
   ],
   "return_type" : "_ZTIm",
   "source_file" : "external/scudo/standalone/quarantine.h"
  },
  {
   "function_name" : "scudo::ReleaseRecorder::getReleasedBytes",
   "linker_set_key" : "_ZNK5scudo15ReleaseRecorder16getReleasedBytesEv",
   "parameters" :
   [
    {
     "is_this_ptr" : true,
     "referenced_type" : "_ZTIPKN5scudo15ReleaseRecorderE"
    }
   ],
   "return_type" : "_ZTIm",
   "source_file" : "external/scudo/standalone/release.h"
  },
  {
   "function_name" : "scudo::ReleaseRecorder::getReleasedRangesCount",
   "linker_set_key" : "_ZNK5scudo15ReleaseRecorder22getReleasedRangesCountEv",
   "parameters" :
   [
    {
     "is_this_ptr" : true,
     "referenced_type" : "_ZTIPKN5scudo15ReleaseRecorderE"
    }
   ],
   "return_type" : "_ZTIm",
   "source_file" : "external/scudo/standalone/release.h"
  },
  {
   "function_name" : "scudo::ReleaseRecorder::getBase",
   "linker_set_key" : "_ZNK5scudo15ReleaseRecorder7getBaseEv",
   "parameters" :
   [
    {
     "is_this_ptr" : true,
     "referenced_type" : "_ZTIPKN5scudo15ReleaseRecorderE"
    }
   ],
   "return_type" : "_ZTIm",
   "source_file" : "external/scudo/standalone/release.h"
  },
  {
   "function_name" : "scudo::GlobalQuarantine<scudo::Allocator<scudo::AndroidConfig, &scudo_malloc_postinit>::QuarantineCallback, void>::getMaxSize",
   "linker_set_key" : "_ZNK5scudo16GlobalQuarantineINS_9AllocatorINS_13AndroidConfigEXadL_Z21scudo_malloc_postinitEEE18QuarantineCallbackEvE10getMaxSizeEv",
   "parameters" :
   [
    {
     "is_this_ptr" : true,
     "referenced_type" : "_ZTIPKN5scudo16GlobalQuarantineINS_9AllocatorINS_13AndroidConfigEXadL_Z21scudo_malloc_postinitEEE18QuarantineCallbackEvEE"
    }
   ],
   "return_type" : "_ZTIm",
   "source_file" : "external/scudo/standalone/quarantine.h"
  },
  {
   "function_name" : "scudo::GlobalQuarantine<scudo::Allocator<scudo::AndroidConfig, &scudo_malloc_postinit>::QuarantineCallback, void>::getCacheSize",
   "linker_set_key" : "_ZNK5scudo16GlobalQuarantineINS_9AllocatorINS_13AndroidConfigEXadL_Z21scudo_malloc_postinitEEE18QuarantineCallbackEvE12getCacheSizeEv",
   "parameters" :
   [
    {
     "is_this_ptr" : true,
     "referenced_type" : "_ZTIPKN5scudo16GlobalQuarantineINS_9AllocatorINS_13AndroidConfigEXadL_Z21scudo_malloc_postinitEEE18QuarantineCallbackEvEE"
    }
   ],
   "return_type" : "_ZTIm",
   "source_file" : "external/scudo/standalone/quarantine.h"
  },
  {
   "function_name" : "scudo::GlobalQuarantine<scudo::Allocator<scudo::AndroidConfig, &scudo_malloc_postinit>::QuarantineCallback, void>::getStats",
   "linker_set_key" : "_ZNK5scudo16GlobalQuarantineINS_9AllocatorINS_13AndroidConfigEXadL_Z21scudo_malloc_postinitEEE18QuarantineCallbackEvE8getStatsEPNS_12ScopedStringE",
   "parameters" :
   [
    {
     "is_this_ptr" : true,
     "referenced_type" : "_ZTIPKN5scudo16GlobalQuarantineINS_9AllocatorINS_13AndroidConfigEXadL_Z21scudo_malloc_postinitEEE18QuarantineCallbackEvEE"
    },
    {
     "referenced_type" : "_ZTIPN5scudo12ScopedStringE"
    }
   ],
   "return_type" : "_ZTIv",
   "source_file" : "external/scudo/standalone/quarantine.h"
  },
  {
   "function_name" : "scudo::GlobalQuarantine<scudo::Allocator<scudo::AndroidSvelteConfig, &scudo_svelte_malloc_postinit>::QuarantineCallback, void>::getMaxSize",
   "linker_set_key" : "_ZNK5scudo16GlobalQuarantineINS_9AllocatorINS_19AndroidSvelteConfigEXadL_Z28scudo_svelte_malloc_postinitEEE18QuarantineCallbackEvE10getMaxSizeEv",
   "parameters" :
   [
    {
     "is_this_ptr" : true,
     "referenced_type" : "_ZTIPKN5scudo16GlobalQuarantineINS_9AllocatorINS_19AndroidSvelteConfigEXadL_Z28scudo_svelte_malloc_postinitEEE18QuarantineCallbackEvEE"
    }
   ],
   "return_type" : "_ZTIm",
   "source_file" : "external/scudo/standalone/quarantine.h"
  },
  {
   "function_name" : "scudo::GlobalQuarantine<scudo::Allocator<scudo::AndroidSvelteConfig, &scudo_svelte_malloc_postinit>::QuarantineCallback, void>::getCacheSize",
   "linker_set_key" : "_ZNK5scudo16GlobalQuarantineINS_9AllocatorINS_19AndroidSvelteConfigEXadL_Z28scudo_svelte_malloc_postinitEEE18QuarantineCallbackEvE12getCacheSizeEv",
   "parameters" :
   [
    {
     "is_this_ptr" : true,
     "referenced_type" : "_ZTIPKN5scudo16GlobalQuarantineINS_9AllocatorINS_19AndroidSvelteConfigEXadL_Z28scudo_svelte_malloc_postinitEEE18QuarantineCallbackEvEE"
    }
   ],
   "return_type" : "_ZTIm",
   "source_file" : "external/scudo/standalone/quarantine.h"
  },
  {
   "function_name" : "scudo::PackedCounterArray::isAllocated",
   "linker_set_key" : "_ZNK5scudo18PackedCounterArray11isAllocatedEv",
   "parameters" :
   [
    {
     "is_this_ptr" : true,
     "referenced_type" : "_ZTIPKN5scudo18PackedCounterArrayE"
    }
   ],
   "return_type" : "_ZTIb",
   "source_file" : "external/scudo/standalone/release.h"
  },
  {
   "function_name" : "scudo::PackedCounterArray::getBufferSize",
   "linker_set_key" : "_ZNK5scudo18PackedCounterArray13getBufferSizeEv",
   "parameters" :
   [
    {
     "is_this_ptr" : true,
     "referenced_type" : "_ZTIPKN5scudo18PackedCounterArrayE"
    }
   ],
   "return_type" : "_ZTIm",
   "source_file" : "external/scudo/standalone/release.h"
  },
  {
   "function_name" : "scudo::PackedCounterArray::get",
   "linker_set_key" : "_ZNK5scudo18PackedCounterArray3getEmm",
   "parameters" :
   [
    {
     "is_this_ptr" : true,
     "referenced_type" : "_ZTIPKN5scudo18PackedCounterArrayE"
    },
    {
     "referenced_type" : "_ZTIm"
    },
    {
     "referenced_type" : "_ZTIm"
    }
   ],
   "return_type" : "_ZTIm",
   "source_file" : "external/scudo/standalone/release.h"
  },
  {
   "function_name" : "scudo::PackedCounterArray::inc",
   "linker_set_key" : "_ZNK5scudo18PackedCounterArray3incEmm",
   "parameters" :
   [
    {
     "is_this_ptr" : true,
     "referenced_type" : "_ZTIPKN5scudo18PackedCounterArrayE"
    },
    {
     "referenced_type" : "_ZTIm"
    },
    {
     "referenced_type" : "_ZTIm"
    }
   ],
   "return_type" : "_ZTIv",
   "source_file" : "external/scudo/standalone/release.h"
  },
  {
   "function_name" : "scudo::PackedCounterArray::getCount",
   "linker_set_key" : "_ZNK5scudo18PackedCounterArray8getCountEv",
   "parameters" :
   [
    {
     "is_this_ptr" : true,
     "referenced_type" : "_ZTIPKN5scudo18PackedCounterArrayE"
    }
   ],
   "return_type" : "_ZTIm",
   "source_file" : "external/scudo/standalone/release.h"
  },
  {
   "function_name" : "scudo::PackedCounterArray::incRange",
   "linker_set_key" : "_ZNK5scudo18PackedCounterArray8incRangeEmmm",
   "parameters" :
   [
    {
     "is_this_ptr" : true,
     "referenced_type" : "_ZTIPKN5scudo18PackedCounterArrayE"
    },
    {
     "referenced_type" : "_ZTIm"
    },
    {
     "referenced_type" : "_ZTIm"
    },
    {
     "referenced_type" : "_ZTIm"
    }
   ],
   "return_type" : "_ZTIv",
   "source_file" : "external/scudo/standalone/release.h"
  },
  {
   "function_name" : "scudo::TSDRegistrySharedT<scudo::Allocator<scudo::AndroidConfig, &scudo_malloc_postinit>, 8, 2>::getDisableMemInit",
   "linker_set_key" : "_ZNK5scudo18TSDRegistrySharedTINS_9AllocatorINS_13AndroidConfigEXadL_Z21scudo_malloc_postinitEEEELj8ELj2EE17getDisableMemInitEv",
   "parameters" :
   [
    {
     "is_this_ptr" : true,
     "referenced_type" : "_ZTIPKN5scudo18TSDRegistrySharedTINS_9AllocatorINS_13AndroidConfigEXadL_Z21scudo_malloc_postinitEEEELj8ELj2EEE"
    }
   ],
   "return_type" : "_ZTIb",
   "source_file" : "external/scudo/standalone/tsd_shared.h"
  },
  {
   "access" : "private",
   "function_name" : "scudo::TSDRegistrySharedT<scudo::Allocator<scudo::AndroidConfig, &scudo_malloc_postinit>, 8, 2>::getTlsPtr",
   "linker_set_key" : "_ZNK5scudo18TSDRegistrySharedTINS_9AllocatorINS_13AndroidConfigEXadL_Z21scudo_malloc_postinitEEEELj8ELj2EE9getTlsPtrEv",
   "parameters" :
   [
    {
     "is_this_ptr" : true,
     "referenced_type" : "_ZTIPKN5scudo18TSDRegistrySharedTINS_9AllocatorINS_13AndroidConfigEXadL_Z21scudo_malloc_postinitEEEELj8ELj2EEE"
    }
   ],
   "return_type" : "_ZTIPm",
   "source_file" : "external/scudo/standalone/tsd_shared.h"
  },
  {
   "function_name" : "scudo::TSDRegistrySharedT<scudo::Allocator<scudo::AndroidSvelteConfig, &scudo_svelte_malloc_postinit>, 2, 1>::getDisableMemInit",
   "linker_set_key" : "_ZNK5scudo18TSDRegistrySharedTINS_9AllocatorINS_19AndroidSvelteConfigEXadL_Z28scudo_svelte_malloc_postinitEEEELj2ELj1EE17getDisableMemInitEv",
   "parameters" :
   [
    {
     "is_this_ptr" : true,
     "referenced_type" : "_ZTIPKN5scudo18TSDRegistrySharedTINS_9AllocatorINS_19AndroidSvelteConfigEXadL_Z28scudo_svelte_malloc_postinitEEEELj2ELj1EEE"
    }
   ],
   "return_type" : "_ZTIb",
   "source_file" : "external/scudo/standalone/tsd_shared.h"
  },
  {
   "access" : "private",
   "function_name" : "scudo::TSDRegistrySharedT<scudo::Allocator<scudo::AndroidSvelteConfig, &scudo_svelte_malloc_postinit>, 2, 1>::getTlsPtr",
   "linker_set_key" : "_ZNK5scudo18TSDRegistrySharedTINS_9AllocatorINS_19AndroidSvelteConfigEXadL_Z28scudo_svelte_malloc_postinitEEEELj2ELj1EE9getTlsPtrEv",
   "parameters" :
   [
    {
     "is_this_ptr" : true,
     "referenced_type" : "_ZTIPKN5scudo18TSDRegistrySharedTINS_9AllocatorINS_19AndroidSvelteConfigEXadL_Z28scudo_svelte_malloc_postinitEEEELj2ELj1EEE"
    }
   ],
   "return_type" : "_ZTIPm",
   "source_file" : "external/scudo/standalone/tsd_shared.h"
  },
  {
   "function_name" : "scudo::SizeClassAllocator32<scudo::AndroidConfig>::compactPtr",
   "linker_set_key" : "_ZNK5scudo20SizeClassAllocator32INS_13AndroidConfigEE10compactPtrEmm",
   "parameters" :
   [
    {
     "is_this_ptr" : true,
     "referenced_type" : "_ZTIPKN5scudo20SizeClassAllocator32INS_13AndroidConfigEEE"
    },
    {
     "referenced_type" : "_ZTIm"
    },
    {
     "referenced_type" : "_ZTIm"
    }
   ],
   "return_type" : "_ZTIm",
   "source_file" : "external/scudo/standalone/primary32.h"
  },
  {
   "function_name" : "scudo::SizeClassAllocator32<scudo::AndroidConfig>::decompactPtr",
   "linker_set_key" : "_ZNK5scudo20SizeClassAllocator32INS_13AndroidConfigEE12decompactPtrEmm",
   "parameters" :
   [
    {
     "is_this_ptr" : true,
     "referenced_type" : "_ZTIPKN5scudo20SizeClassAllocator32INS_13AndroidConfigEEE"
    },
    {
     "referenced_type" : "_ZTIm"
    },
    {
     "referenced_type" : "_ZTIm"
    }
   ],
   "return_type" : "_ZTIPv",
   "source_file" : "external/scudo/standalone/primary32.h"
  },
  {
   "function_name" : "scudo::SizeClassAllocator32<scudo::AndroidConfig>::getRegionInfoArrayAddress",
   "linker_set_key" : "_ZNK5scudo20SizeClassAllocator32INS_13AndroidConfigEE25getRegionInfoArrayAddressEv",
   "parameters" :
   [
    {
     "is_this_ptr" : true,
     "referenced_type" : "_ZTIPKN5scudo20SizeClassAllocator32INS_13AndroidConfigEEE"
    }
   ],
   "return_type" : "_ZTIPKc",
   "source_file" : "external/scudo/standalone/primary32.h"
  },
  {
   "function_name" : "scudo::SizeClassAllocator32<scudo::AndroidSvelteConfig>::compactPtr",
   "linker_set_key" : "_ZNK5scudo20SizeClassAllocator32INS_19AndroidSvelteConfigEE10compactPtrEmm",
   "parameters" :
   [
    {
     "is_this_ptr" : true,
     "referenced_type" : "_ZTIPKN5scudo20SizeClassAllocator32INS_19AndroidSvelteConfigEEE"
    },
    {
     "referenced_type" : "_ZTIm"
    },
    {
     "referenced_type" : "_ZTIm"
    }
   ],
   "return_type" : "_ZTIm",
   "source_file" : "external/scudo/standalone/primary32.h"
  },
  {
   "function_name" : "scudo::SizeClassAllocator32<scudo::AndroidSvelteConfig>::decompactPtr",
   "linker_set_key" : "_ZNK5scudo20SizeClassAllocator32INS_19AndroidSvelteConfigEE12decompactPtrEmm",
   "parameters" :
   [
    {
     "is_this_ptr" : true,
     "referenced_type" : "_ZTIPKN5scudo20SizeClassAllocator32INS_19AndroidSvelteConfigEEE"
    },
    {
     "referenced_type" : "_ZTIm"
    },
    {
     "referenced_type" : "_ZTIm"
    }
   ],
   "return_type" : "_ZTIPv",
   "source_file" : "external/scudo/standalone/primary32.h"
  },
  {
   "function_name" : "scudo::SizeClassAllocatorLocalCache<scudo::SizeClassAllocator32<scudo::AndroidConfig>>::TransferBatch::copyToArray",
   "linker_set_key" : "_ZNK5scudo28SizeClassAllocatorLocalCacheINS_20SizeClassAllocator32INS_13AndroidConfigEEEE13TransferBatch11copyToArrayEPm",
   "parameters" :
   [
    {
     "is_this_ptr" : true,
     "referenced_type" : "_ZTIPKN5scudo28SizeClassAllocatorLocalCacheINS_20SizeClassAllocator32INS_13AndroidConfigEEEE13TransferBatchE"
    },
    {
     "referenced_type" : "_ZTIPm"
    }
   ],
   "return_type" : "_ZTIv",
   "source_file" : "external/scudo/standalone/local_cache.h"
  },
  {
   "function_name" : "scudo::SizeClassAllocatorLocalCache<scudo::SizeClassAllocator32<scudo::AndroidConfig>>::TransferBatch::get",
   "linker_set_key" : "_ZNK5scudo28SizeClassAllocatorLocalCacheINS_20SizeClassAllocator32INS_13AndroidConfigEEEE13TransferBatch3getEj",
   "parameters" :
   [
    {
     "is_this_ptr" : true,
     "referenced_type" : "_ZTIPKN5scudo28SizeClassAllocatorLocalCacheINS_20SizeClassAllocator32INS_13AndroidConfigEEEE13TransferBatchE"
    },
    {
     "referenced_type" : "_ZTIj"
    }
   ],
   "return_type" : "_ZTIm",
   "source_file" : "external/scudo/standalone/local_cache.h"
  },
  {
   "function_name" : "scudo::SizeClassAllocatorLocalCache<scudo::SizeClassAllocator32<scudo::AndroidConfig>>::TransferBatch::getCount",
   "linker_set_key" : "_ZNK5scudo28SizeClassAllocatorLocalCacheINS_20SizeClassAllocator32INS_13AndroidConfigEEEE13TransferBatch8getCountEv",
   "parameters" :
   [
    {
     "is_this_ptr" : true,
     "referenced_type" : "_ZTIPKN5scudo28SizeClassAllocatorLocalCacheINS_20SizeClassAllocator32INS_13AndroidConfigEEEE13TransferBatchE"
    }
   ],
   "return_type" : "_ZTIj",
   "source_file" : "external/scudo/standalone/local_cache.h"
  },
  {
   "function_name" : "scudo::SizeClassAllocatorLocalCache<scudo::SizeClassAllocator32<scudo::AndroidSvelteConfig>>::TransferBatch::copyToArray",
   "linker_set_key" : "_ZNK5scudo28SizeClassAllocatorLocalCacheINS_20SizeClassAllocator32INS_19AndroidSvelteConfigEEEE13TransferBatch11copyToArrayEPm",
   "parameters" :
   [
    {
     "is_this_ptr" : true,
     "referenced_type" : "_ZTIPKN5scudo28SizeClassAllocatorLocalCacheINS_20SizeClassAllocator32INS_19AndroidSvelteConfigEEEE13TransferBatchE"
    },
    {
     "referenced_type" : "_ZTIPm"
    }
   ],
   "return_type" : "_ZTIv",
   "source_file" : "external/scudo/standalone/local_cache.h"
  },
  {
   "function_name" : "scudo::SizeClassAllocatorLocalCache<scudo::SizeClassAllocator32<scudo::AndroidSvelteConfig>>::TransferBatch::get",
   "linker_set_key" : "_ZNK5scudo28SizeClassAllocatorLocalCacheINS_20SizeClassAllocator32INS_19AndroidSvelteConfigEEEE13TransferBatch3getEj",
   "parameters" :
   [
    {
     "is_this_ptr" : true,
     "referenced_type" : "_ZTIPKN5scudo28SizeClassAllocatorLocalCacheINS_20SizeClassAllocator32INS_19AndroidSvelteConfigEEEE13TransferBatchE"
    },
    {
     "referenced_type" : "_ZTIj"
    }
   ],
   "return_type" : "_ZTIm",
   "source_file" : "external/scudo/standalone/local_cache.h"
  },
  {
   "function_name" : "scudo::SizeClassAllocatorLocalCache<scudo::SizeClassAllocator32<scudo::AndroidSvelteConfig>>::TransferBatch::getCount",
   "linker_set_key" : "_ZNK5scudo28SizeClassAllocatorLocalCacheINS_20SizeClassAllocator32INS_19AndroidSvelteConfigEEEE13TransferBatch8getCountEv",
   "parameters" :
   [
    {
     "is_this_ptr" : true,
     "referenced_type" : "_ZTIPKN5scudo28SizeClassAllocatorLocalCacheINS_20SizeClassAllocator32INS_19AndroidSvelteConfigEEEE13TransferBatchE"
    }
   ],
   "return_type" : "_ZTIj",
   "source_file" : "external/scudo/standalone/local_cache.h"
  },
  {
   "function_name" : "scudo::Options::getFillContentsMode",
   "linker_set_key" : "_ZNK5scudo7Options19getFillContentsModeEv",
   "parameters" :
   [
    {
     "is_this_ptr" : true,
     "referenced_type" : "_ZTIPKN5scudo7OptionsE"
    }
   ],
   "return_type" : "_ZTIN5scudo16FillContentsModeE",
   "source_file" : "external/scudo/standalone/options.h"
  },
  {
   "function_name" : "scudo::Options::get",
   "linker_set_key" : "_ZNK5scudo7Options3getENS_9OptionBitE",
   "parameters" :
   [
    {
     "is_this_ptr" : true,
     "referenced_type" : "_ZTIPKN5scudo7OptionsE"
    },
    {
     "referenced_type" : "_ZTIN5scudo9OptionBitE"
    }
   ],
   "return_type" : "_ZTIb",
   "source_file" : "external/scudo/standalone/options.h"
  },
  {
   "function_name" : "scudo::Allocator<scudo::AndroidConfig, &scudo_malloc_postinit>::getRingBufferAddress",
   "linker_set_key" : "_ZNK5scudo9AllocatorINS_13AndroidConfigEXadL_Z21scudo_malloc_postinitEEE20getRingBufferAddressEv",
   "parameters" :
   [
    {
     "is_this_ptr" : true,
     "referenced_type" : "_ZTIPKN5scudo9AllocatorINS_13AndroidConfigEXadL_Z21scudo_malloc_postinitEEEE"
    }
   ],
   "return_type" : "_ZTIPKc",
   "source_file" : "external/scudo/standalone/combined.h"
  },
  {
   "function_name" : "scudo::Allocator<scudo::AndroidConfig, &scudo_malloc_postinit>::getStackDepotAddress",
   "linker_set_key" : "_ZNK5scudo9AllocatorINS_13AndroidConfigEXadL_Z21scudo_malloc_postinitEEE20getStackDepotAddressEv",
   "parameters" :
   [
    {
     "is_this_ptr" : true,
     "referenced_type" : "_ZTIPKN5scudo9AllocatorINS_13AndroidConfigEXadL_Z21scudo_malloc_postinitEEEE"
    }
   ],
   "return_type" : "_ZTIPKc",
   "source_file" : "external/scudo/standalone/combined.h"
  },
  {
   "function_name" : "scudo::Allocator<scudo::AndroidConfig, &scudo_malloc_postinit>::getRegionInfoArrayAddress",
   "linker_set_key" : "_ZNK5scudo9AllocatorINS_13AndroidConfigEXadL_Z21scudo_malloc_postinitEEE25getRegionInfoArrayAddressEv",
   "parameters" :
   [
    {
     "is_this_ptr" : true,
     "referenced_type" : "_ZTIPKN5scudo9AllocatorINS_13AndroidConfigEXadL_Z21scudo_malloc_postinitEEEE"
    }
   ],
   "return_type" : "_ZTIPKc",
   "source_file" : "external/scudo/standalone/combined.h"
  },
  {
   "function_name" : "__scudo_get_error_info",
   "linker_set_key" : "__scudo_get_error_info",
   "parameters" :
   [
    {
     "referenced_type" : "_ZTIP16scudo_error_info"
    },
    {
     "referenced_type" : "_ZTIj"
    },
    {
     "referenced_type" : "_ZTIPKc"
    },
    {
     "referenced_type" : "_ZTIPKc"
    },
    {
     "referenced_type" : "_ZTIPKc"
    },
    {
     "referenced_type" : "_ZTIPKc"
    },
    {
     "referenced_type" : "_ZTIPKc"
    },
    {
     "referenced_type" : "_ZTIj"
    },
    {
     "referenced_type" : "_ZTIj"
    }
   ],
   "return_type" : "_ZTIv",
   "source_file" : "external/scudo/standalone/include/scudo/interface.h"
  },
  {
   "function_name" : "__scudo_get_region_info_addr",
   "linker_set_key" : "__scudo_get_region_info_addr",
   "return_type" : "_ZTIPKc",
   "source_file" : "external/scudo/standalone/include/scudo/interface.h"
  },
  {
   "function_name" : "__scudo_get_region_info_size",
   "linker_set_key" : "__scudo_get_region_info_size",
   "return_type" : "_ZTIj",
   "source_file" : "external/scudo/standalone/include/scudo/interface.h"
  },
  {
   "function_name" : "__scudo_get_ring_buffer_addr",
   "linker_set_key" : "__scudo_get_ring_buffer_addr",
   "return_type" : "_ZTIPKc",
   "source_file" : "external/scudo/standalone/include/scudo/interface.h"
  },
  {
   "function_name" : "__scudo_get_ring_buffer_size",
   "linker_set_key" : "__scudo_get_ring_buffer_size",
   "return_type" : "_ZTIj",
   "source_file" : "external/scudo/standalone/include/scudo/interface.h"
  },
  {
   "function_name" : "__scudo_get_stack_depot_addr",
   "linker_set_key" : "__scudo_get_stack_depot_addr",
   "return_type" : "_ZTIPKc",
   "source_file" : "external/scudo/standalone/include/scudo/interface.h"
  },
  {
   "function_name" : "__scudo_get_stack_depot_size",
   "linker_set_key" : "__scudo_get_stack_depot_size",
   "return_type" : "_ZTIj",
   "source_file" : "external/scudo/standalone/include/scudo/interface.h"
  },
  {
   "function_name" : "__scudo_print_stats",
   "linker_set_key" : "__scudo_print_stats",
   "return_type" : "_ZTIv",
   "source_file" : "external/scudo/standalone/include/scudo/interface.h"
  },
  {
   "function_name" : "scudo_aligned_alloc",
   "linker_set_key" : "scudo_aligned_alloc",
   "parameters" :
   [
    {
     "referenced_type" : "_ZTIj"
    },
    {
     "referenced_type" : "_ZTIj"
    }
   ],
   "return_type" : "_ZTIPv",
   "source_file" : "external/scudo/standalone/wrappers_c.inc"
  },
  {
   "function_name" : "scudo_calloc",
   "linker_set_key" : "scudo_calloc",
   "parameters" :
   [
    {
     "referenced_type" : "_ZTIj"
    },
    {
     "referenced_type" : "_ZTIj"
    }
   ],
   "return_type" : "_ZTIPv",
   "source_file" : "external/scudo/standalone/wrappers_c.inc"
  },
  {
   "function_name" : "scudo_free",
   "linker_set_key" : "scudo_free",
   "parameters" :
   [
    {
     "referenced_type" : "_ZTIPv"
    }
   ],
   "return_type" : "_ZTIv",
   "source_file" : "external/scudo/standalone/wrappers_c.inc"
  },
  {
   "function_name" : "scudo_mallinfo",
   "linker_set_key" : "scudo_mallinfo",
   "return_type" : "_ZTI16__scudo_mallinfo",
   "source_file" : "external/scudo/standalone/wrappers_c.inc"
  },
  {
   "function_name" : "scudo_malloc",
   "linker_set_key" : "scudo_malloc",
   "parameters" :
   [
    {
     "referenced_type" : "_ZTIj"
    }
   ],
   "return_type" : "_ZTIPv",
   "source_file" : "external/scudo/standalone/wrappers_c.inc"
  },
  {
   "function_name" : "scudo_malloc_disable",
   "linker_set_key" : "scudo_malloc_disable",
   "return_type" : "_ZTIv",
   "source_file" : "external/scudo/standalone/wrappers_c.inc"
  },
  {
   "function_name" : "scudo_malloc_disable_memory_tagging",
   "linker_set_key" : "scudo_malloc_disable_memory_tagging",
   "return_type" : "_ZTIv",
   "source_file" : "external/scudo/standalone/wrappers_c.inc"
  },
  {
   "function_name" : "scudo_malloc_enable",
   "linker_set_key" : "scudo_malloc_enable",
   "return_type" : "_ZTIv",
   "source_file" : "external/scudo/standalone/wrappers_c.inc"
  },
  {
   "function_name" : "scudo_malloc_info",
   "linker_set_key" : "scudo_malloc_info",
   "parameters" :
   [
    {
     "referenced_type" : "_ZTIi"
    },
    {
     "referenced_type" : "_ZTIP7__sFILE"
    }
   ],
   "return_type" : "_ZTIi",
   "source_file" : "external/scudo/standalone/wrappers_c.inc"
  },
  {
   "function_name" : "scudo_malloc_iterate",
   "linker_set_key" : "scudo_malloc_iterate",
   "parameters" :
   [
    {
     "referenced_type" : "_ZTIj"
    },
    {
     "referenced_type" : "_ZTIj"
    },
    {
     "referenced_type" : "_ZTIPFvjjPvE"
    },
    {
     "referenced_type" : "_ZTIPv"
    }
   ],
   "return_type" : "_ZTIi",
   "source_file" : "external/scudo/standalone/wrappers_c.inc"
  },
  {
   "function_name" : "scudo_malloc_postinit",
   "linker_set_key" : "scudo_malloc_postinit",
   "return_type" : "_ZTIv",
   "source_file" : "external/scudo/standalone/wrappers_c_bionic.cpp"
  },
  {
   "function_name" : "scudo_malloc_set_add_large_allocation_slack",
   "linker_set_key" : "scudo_malloc_set_add_large_allocation_slack",
   "parameters" :
   [
    {
     "referenced_type" : "_ZTIi"
    }
   ],
   "return_type" : "_ZTIv",
   "source_file" : "external/scudo/standalone/wrappers_c.inc"
  },
  {
   "function_name" : "scudo_malloc_set_pattern_fill_contents",
   "linker_set_key" : "scudo_malloc_set_pattern_fill_contents",
   "parameters" :
   [
    {
     "referenced_type" : "_ZTIi"
    }
   ],
   "return_type" : "_ZTIv",
   "source_file" : "external/scudo/standalone/wrappers_c.inc"
  },
  {
   "function_name" : "scudo_malloc_set_track_allocation_stacks",
   "linker_set_key" : "scudo_malloc_set_track_allocation_stacks",
   "parameters" :
   [
    {
     "referenced_type" : "_ZTIi"
    }
   ],
   "return_type" : "_ZTIv",
   "source_file" : "external/scudo/standalone/wrappers_c.inc"
  },
  {
   "function_name" : "scudo_malloc_set_zero_contents",
   "linker_set_key" : "scudo_malloc_set_zero_contents",
   "parameters" :
   [
    {
     "referenced_type" : "_ZTIi"
    }
   ],
   "return_type" : "_ZTIv",
   "source_file" : "external/scudo/standalone/wrappers_c.inc"
  },
  {
   "function_name" : "scudo_malloc_usable_size",
   "linker_set_key" : "scudo_malloc_usable_size",
   "parameters" :
   [
    {
     "referenced_type" : "_ZTIPKv"
    }
   ],
   "return_type" : "_ZTIj",
   "source_file" : "external/scudo/standalone/wrappers_c.inc"
  },
  {
   "function_name" : "scudo_mallopt",
   "linker_set_key" : "scudo_mallopt",
   "parameters" :
   [
    {
     "referenced_type" : "_ZTIi"
    },
    {
     "referenced_type" : "_ZTIi"
    }
   ],
   "return_type" : "_ZTIi",
   "source_file" : "external/scudo/standalone/wrappers_c.inc"
  },
  {
   "function_name" : "scudo_memalign",
   "linker_set_key" : "scudo_memalign",
   "parameters" :
   [
    {
     "referenced_type" : "_ZTIj"
    },
    {
     "referenced_type" : "_ZTIj"
    }
   ],
   "return_type" : "_ZTIPv",
   "source_file" : "external/scudo/standalone/wrappers_c.inc"
  },
  {
   "function_name" : "scudo_posix_memalign",
   "linker_set_key" : "scudo_posix_memalign",
   "parameters" :
   [
    {
     "referenced_type" : "_ZTIPPv"
    },
    {
     "referenced_type" : "_ZTIj"
    },
    {
     "referenced_type" : "_ZTIj"
    }
   ],
   "return_type" : "_ZTIi",
   "source_file" : "external/scudo/standalone/wrappers_c.inc"
  },
  {
   "function_name" : "scudo_pvalloc",
   "linker_set_key" : "scudo_pvalloc",
   "parameters" :
   [
    {
     "referenced_type" : "_ZTIj"
    }
   ],
   "return_type" : "_ZTIPv",
   "source_file" : "external/scudo/standalone/wrappers_c.inc"
  },
  {
   "function_name" : "scudo_realloc",
   "linker_set_key" : "scudo_realloc",
   "parameters" :
   [
    {
     "referenced_type" : "_ZTIPv"
    },
    {
     "referenced_type" : "_ZTIj"
    }
   ],
   "return_type" : "_ZTIPv",
   "source_file" : "external/scudo/standalone/wrappers_c.inc"
  },
  {
   "function_name" : "scudo_svelte_aligned_alloc",
   "linker_set_key" : "scudo_svelte_aligned_alloc",
   "parameters" :
   [
    {
     "referenced_type" : "_ZTIj"
    },
    {
     "referenced_type" : "_ZTIj"
    }
   ],
   "return_type" : "_ZTIPv",
   "source_file" : "external/scudo/standalone/wrappers_c.inc"
  },
  {
   "function_name" : "scudo_svelte_calloc",
   "linker_set_key" : "scudo_svelte_calloc",
   "parameters" :
   [
    {
     "referenced_type" : "_ZTIj"
    },
    {
     "referenced_type" : "_ZTIj"
    }
   ],
   "return_type" : "_ZTIPv",
   "source_file" : "external/scudo/standalone/wrappers_c.inc"
  },
  {
   "function_name" : "scudo_svelte_free",
   "linker_set_key" : "scudo_svelte_free",
   "parameters" :
   [
    {
     "referenced_type" : "_ZTIPv"
    }
   ],
   "return_type" : "_ZTIv",
   "source_file" : "external/scudo/standalone/wrappers_c.inc"
  },
  {
   "function_name" : "scudo_svelte_mallinfo",
   "linker_set_key" : "scudo_svelte_mallinfo",
   "return_type" : "_ZTI16__scudo_mallinfo",
   "source_file" : "external/scudo/standalone/wrappers_c.inc"
  },
  {
   "function_name" : "scudo_svelte_malloc",
   "linker_set_key" : "scudo_svelte_malloc",
   "parameters" :
   [
    {
     "referenced_type" : "_ZTIj"
    }
   ],
   "return_type" : "_ZTIPv",
   "source_file" : "external/scudo/standalone/wrappers_c.inc"
  },
  {
   "function_name" : "scudo_svelte_malloc_disable",
   "linker_set_key" : "scudo_svelte_malloc_disable",
   "return_type" : "_ZTIv",
   "source_file" : "external/scudo/standalone/wrappers_c.inc"
  },
  {
   "function_name" : "scudo_svelte_malloc_disable_memory_tagging",
   "linker_set_key" : "scudo_svelte_malloc_disable_memory_tagging",
   "return_type" : "_ZTIv",
   "source_file" : "external/scudo/standalone/wrappers_c.inc"
  },
  {
   "function_name" : "scudo_svelte_malloc_enable",
   "linker_set_key" : "scudo_svelte_malloc_enable",
   "return_type" : "_ZTIv",
   "source_file" : "external/scudo/standalone/wrappers_c.inc"
  },
  {
   "function_name" : "scudo_svelte_malloc_info",
   "linker_set_key" : "scudo_svelte_malloc_info",
   "parameters" :
   [
    {
     "referenced_type" : "_ZTIi"
    },
    {
     "referenced_type" : "_ZTIP7__sFILE"
    }
   ],
   "return_type" : "_ZTIi",
   "source_file" : "external/scudo/standalone/wrappers_c.inc"
  },
  {
   "function_name" : "scudo_svelte_malloc_iterate",
   "linker_set_key" : "scudo_svelte_malloc_iterate",
   "parameters" :
   [
    {
     "referenced_type" : "_ZTIj"
    },
    {
     "referenced_type" : "_ZTIj"
    },
    {
     "referenced_type" : "_ZTIPFvjjPvE"
    },
    {
     "referenced_type" : "_ZTIPv"
    }
   ],
   "return_type" : "_ZTIi",
   "source_file" : "external/scudo/standalone/wrappers_c.inc"
  },
  {
   "function_name" : "scudo_svelte_malloc_postinit",
   "linker_set_key" : "scudo_svelte_malloc_postinit",
   "return_type" : "_ZTIv",
   "source_file" : "external/scudo/standalone/wrappers_c_bionic.cpp"
  },
  {
   "function_name" : "scudo_svelte_malloc_set_add_large_allocation_slack",
   "linker_set_key" : "scudo_svelte_malloc_set_add_large_allocation_slack",
   "parameters" :
   [
    {
     "referenced_type" : "_ZTIi"
    }
   ],
   "return_type" : "_ZTIv",
   "source_file" : "external/scudo/standalone/wrappers_c.inc"
  },
  {
   "function_name" : "scudo_svelte_malloc_set_pattern_fill_contents",
   "linker_set_key" : "scudo_svelte_malloc_set_pattern_fill_contents",
   "parameters" :
   [
    {
     "referenced_type" : "_ZTIi"
    }
   ],
   "return_type" : "_ZTIv",
   "source_file" : "external/scudo/standalone/wrappers_c.inc"
  },
  {
   "function_name" : "scudo_svelte_malloc_set_track_allocation_stacks",
   "linker_set_key" : "scudo_svelte_malloc_set_track_allocation_stacks",
   "parameters" :
   [
    {
     "referenced_type" : "_ZTIi"
    }
   ],
   "return_type" : "_ZTIv",
   "source_file" : "external/scudo/standalone/wrappers_c.inc"
  },
  {
   "function_name" : "scudo_svelte_malloc_set_zero_contents",
   "linker_set_key" : "scudo_svelte_malloc_set_zero_contents",
   "parameters" :
   [
    {
     "referenced_type" : "_ZTIi"
    }
   ],
   "return_type" : "_ZTIv",
   "source_file" : "external/scudo/standalone/wrappers_c.inc"
  },
  {
   "function_name" : "scudo_svelte_malloc_usable_size",
   "linker_set_key" : "scudo_svelte_malloc_usable_size",
   "parameters" :
   [
    {
     "referenced_type" : "_ZTIPKv"
    }
   ],
   "return_type" : "_ZTIj",
   "source_file" : "external/scudo/standalone/wrappers_c.inc"
  },
  {
   "function_name" : "scudo_svelte_mallopt",
   "linker_set_key" : "scudo_svelte_mallopt",
   "parameters" :
   [
    {
     "referenced_type" : "_ZTIi"
    },
    {
     "referenced_type" : "_ZTIi"
    }
   ],
   "return_type" : "_ZTIi",
   "source_file" : "external/scudo/standalone/wrappers_c.inc"
  },
  {
   "function_name" : "scudo_svelte_memalign",
   "linker_set_key" : "scudo_svelte_memalign",
   "parameters" :
   [
    {
     "referenced_type" : "_ZTIj"
    },
    {
     "referenced_type" : "_ZTIj"
    }
   ],
   "return_type" : "_ZTIPv",
   "source_file" : "external/scudo/standalone/wrappers_c.inc"
  },
  {
   "function_name" : "scudo_svelte_posix_memalign",
   "linker_set_key" : "scudo_svelte_posix_memalign",
   "parameters" :
   [
    {
     "referenced_type" : "_ZTIPPv"
    },
    {
     "referenced_type" : "_ZTIj"
    },
    {
     "referenced_type" : "_ZTIj"
    }
   ],
   "return_type" : "_ZTIi",
   "source_file" : "external/scudo/standalone/wrappers_c.inc"
  },
  {
   "function_name" : "scudo_svelte_pvalloc",
   "linker_set_key" : "scudo_svelte_pvalloc",
   "parameters" :
   [
    {
     "referenced_type" : "_ZTIj"
    }
   ],
   "return_type" : "_ZTIPv",
   "source_file" : "external/scudo/standalone/wrappers_c.inc"
  },
  {
   "function_name" : "scudo_svelte_realloc",
   "linker_set_key" : "scudo_svelte_realloc",
   "parameters" :
   [
    {
     "referenced_type" : "_ZTIPv"
    },
    {
     "referenced_type" : "_ZTIj"
    }
   ],
   "return_type" : "_ZTIPv",
   "source_file" : "external/scudo/standalone/wrappers_c.inc"
  },
  {
   "function_name" : "scudo_svelte_valloc",
   "linker_set_key" : "scudo_svelte_valloc",
   "parameters" :
   [
    {
     "referenced_type" : "_ZTIj"
    }
   ],
   "return_type" : "_ZTIPv",
   "source_file" : "external/scudo/standalone/wrappers_c.inc"
  },
  {
   "function_name" : "scudo_valloc",
   "linker_set_key" : "scudo_valloc",
   "parameters" :
   [
    {
     "referenced_type" : "_ZTIj"
    }
   ],
   "return_type" : "_ZTIPv",
   "source_file" : "external/scudo/standalone/wrappers_c.inc"
  }
 ],
 "global_vars" :
 [
  {
   "linker_set_key" : "_ZL15SvelteAllocator",
   "name" : "SvelteAllocator",
   "referenced_type" : "_ZTIN5scudo9AllocatorINS_19AndroidSvelteConfigEXadL_Z28scudo_svelte_malloc_postinitEEEE",
   "source_file" : "external/scudo/standalone/wrappers_c_bionic.cpp"
  },
  {
   "linker_set_key" : "_ZL9Allocator",
   "name" : "Allocator",
   "referenced_type" : "_ZTIN5scudo9AllocatorINS_13AndroidConfigEXadL_Z21scudo_malloc_postinitEEEE",
   "source_file" : "external/scudo/standalone/wrappers_c_bionic.cpp"
  },
  {
   "access" : "private",
   "linker_set_key" : "_ZN5scudo10FlagParser8MaxFlagsE",
   "name" : "scudo::FlagParser::MaxFlags",
   "referenced_type" : "_ZTIKj",
   "source_file" : "external/scudo/standalone/flags_parser.h"
  },
  {
   "access" : "private",
   "linker_set_key" : "_ZN5scudo10StackDepot7TabBitsE",
   "name" : "scudo::StackDepot::TabBits",
   "referenced_type" : "_ZTIKm",
   "source_file" : "external/scudo/standalone/stack_depot.h"
  },
  {
   "access" : "private",
   "linker_set_key" : "_ZN5scudo10StackDepot7TabMaskE",
   "name" : "scudo::StackDepot::TabMask",
   "referenced_type" : "_ZTIKm",
   "source_file" : "external/scudo/standalone/stack_depot.h"
  },
  {
   "access" : "private",
   "linker_set_key" : "_ZN5scudo10StackDepot7TabSizeE",
   "name" : "scudo::StackDepot::TabSize",
   "referenced_type" : "_ZTIKm",
   "source_file" : "external/scudo/standalone/stack_depot.h"
  },
  {
   "access" : "private",
   "linker_set_key" : "_ZN5scudo10StackDepot8RingBitsE",
   "name" : "scudo::StackDepot::RingBits",
   "referenced_type" : "_ZTIKm",
   "source_file" : "external/scudo/standalone/stack_depot.h"
  },
  {
   "access" : "private",
   "linker_set_key" : "_ZN5scudo10StackDepot8RingMaskE",
   "name" : "scudo::StackDepot::RingMask",
   "referenced_type" : "_ZTIKm",
   "source_file" : "external/scudo/standalone/stack_depot.h"
  },
  {
   "access" : "private",
   "linker_set_key" : "_ZN5scudo10StackDepot8RingSizeE",
   "name" : "scudo::StackDepot::RingSize",
   "referenced_type" : "_ZTIKm",
   "source_file" : "external/scudo/standalone/stack_depot.h"
  },
  {
   "access" : "private",
   "linker_set_key" : "_ZN5scudo11HybridMutex13NumberOfTriesE",
   "name" : "scudo::HybridMutex::NumberOfTries",
   "referenced_type" : "_ZTIKh",
   "source_file" : "external/scudo/standalone/mutex.h"
  },
  {
   "access" : "private",
   "linker_set_key" : "_ZN5scudo11HybridMutex14NumberOfYieldsE",
   "name" : "scudo::HybridMutex::NumberOfYields",
   "referenced_type" : "_ZTIKh",
   "source_file" : "external/scudo/standalone/mutex.h"
  },
  {
   "linker_set_key" : "_ZN5scudo13AndroidConfig20PrimaryRegionSizeLogE",
   "name" : "scudo::AndroidConfig::PrimaryRegionSizeLog",
   "referenced_type" : "_ZTIKm",
   "source_file" : "external/scudo/standalone/allocator_config.h"
  },
  {
   "linker_set_key" : "_ZN5scudo13AndroidConfig23MaySupportMemoryTaggingE",
   "name" : "scudo::AndroidConfig::MaySupportMemoryTagging",
   "referenced_type" : "_ZTIKb",
   "source_file" : "external/scudo/standalone/allocator_config.h"
  },
  {
   "linker_set_key" : "_ZN5scudo13AndroidConfig28SecondaryCacheQuarantineSizeE",
   "name" : "scudo::AndroidConfig::SecondaryCacheQuarantineSize",
   "referenced_type" : "_ZTIKj",
   "source_file" : "external/scudo/standalone/allocator_config.h"
  },
  {
   "linker_set_key" : "_ZN5scudo13AndroidConfig30SecondaryCacheEntriesArraySizeE",
   "name" : "scudo::AndroidConfig::SecondaryCacheEntriesArraySize",
   "referenced_type" : "_ZTIKj",
   "source_file" : "external/scudo/standalone/allocator_config.h"
  },
  {
   "linker_set_key" : "_ZN5scudo13AndroidConfig31PrimaryMaxReleaseToOsIntervalMsE",
   "name" : "scudo::AndroidConfig::PrimaryMaxReleaseToOsIntervalMs",
   "referenced_type" : "_ZTIKi",
   "source_file" : "external/scudo/standalone/allocator_config.h"
  },
  {
   "linker_set_key" : "_ZN5scudo13AndroidConfig31PrimaryMinReleaseToOsIntervalMsE",
   "name" : "scudo::AndroidConfig::PrimaryMinReleaseToOsIntervalMs",
   "referenced_type" : "_ZTIKi",
   "source_file" : "external/scudo/standalone/allocator_config.h"
  },
  {
   "linker_set_key" : "_ZN5scudo13AndroidConfig33SecondaryCacheDefaultMaxEntrySizeE",
   "name" : "scudo::AndroidConfig::SecondaryCacheDefaultMaxEntrySize",
   "referenced_type" : "_ZTIKm",
   "source_file" : "external/scudo/standalone/allocator_config.h"
  },
  {
   "linker_set_key" : "_ZN5scudo13AndroidConfig36SecondaryCacheDefaultMaxEntriesCountE",
   "name" : "scudo::AndroidConfig::SecondaryCacheDefaultMaxEntriesCount",
   "referenced_type" : "_ZTIKj",
   "source_file" : "external/scudo/standalone/allocator_config.h"
  },
  {
   "linker_set_key" : "_ZN5scudo13AndroidConfig38SecondaryCacheMaxReleaseToOsIntervalMsE",
   "name" : "scudo::AndroidConfig::SecondaryCacheMaxReleaseToOsIntervalMs",
   "referenced_type" : "_ZTIKi",
   "source_file" : "external/scudo/standalone/allocator_config.h"
  },
  {
   "linker_set_key" : "_ZN5scudo13AndroidConfig38SecondaryCacheMinReleaseToOsIntervalMsE",
   "name" : "scudo::AndroidConfig::SecondaryCacheMinReleaseToOsIntervalMs",
   "referenced_type" : "_ZTIKi",
   "source_file" : "external/scudo/standalone/allocator_config.h"
  },
  {
   "linker_set_key" : "_ZN5scudo13DefaultConfig20PrimaryRegionSizeLogE",
   "name" : "scudo::DefaultConfig::PrimaryRegionSizeLog",
   "referenced_type" : "_ZTIKm",
   "source_file" : "external/scudo/standalone/allocator_config.h"
  },
  {
   "linker_set_key" : "_ZN5scudo13DefaultConfig23MaySupportMemoryTaggingE",
   "name" : "scudo::DefaultConfig::MaySupportMemoryTagging",
   "referenced_type" : "_ZTIKb",
   "source_file" : "external/scudo/standalone/allocator_config.h"
  },
  {
   "linker_set_key" : "_ZN5scudo13DefaultConfig28SecondaryCacheQuarantineSizeE",
   "name" : "scudo::DefaultConfig::SecondaryCacheQuarantineSize",
   "referenced_type" : "_ZTIKj",
   "source_file" : "external/scudo/standalone/allocator_config.h"
  },
  {
   "linker_set_key" : "_ZN5scudo13DefaultConfig30SecondaryCacheEntriesArraySizeE",
   "name" : "scudo::DefaultConfig::SecondaryCacheEntriesArraySize",
   "referenced_type" : "_ZTIKj",
   "source_file" : "external/scudo/standalone/allocator_config.h"
  },
  {
   "linker_set_key" : "_ZN5scudo13DefaultConfig31PrimaryMaxReleaseToOsIntervalMsE",
   "name" : "scudo::DefaultConfig::PrimaryMaxReleaseToOsIntervalMs",
   "referenced_type" : "_ZTIKi",
   "source_file" : "external/scudo/standalone/allocator_config.h"
  },
  {
   "linker_set_key" : "_ZN5scudo13DefaultConfig31PrimaryMinReleaseToOsIntervalMsE",
   "name" : "scudo::DefaultConfig::PrimaryMinReleaseToOsIntervalMs",
   "referenced_type" : "_ZTIKi",
   "source_file" : "external/scudo/standalone/allocator_config.h"
  },
  {
   "linker_set_key" : "_ZN5scudo13DefaultConfig33SecondaryCacheDefaultMaxEntrySizeE",
   "name" : "scudo::DefaultConfig::SecondaryCacheDefaultMaxEntrySize",
   "referenced_type" : "_ZTIKm",
   "source_file" : "external/scudo/standalone/allocator_config.h"
  },
  {
   "linker_set_key" : "_ZN5scudo13DefaultConfig36SecondaryCacheDefaultMaxEntriesCountE",
   "name" : "scudo::DefaultConfig::SecondaryCacheDefaultMaxEntriesCount",
   "referenced_type" : "_ZTIKj",
   "source_file" : "external/scudo/standalone/allocator_config.h"
  },
  {
   "linker_set_key" : "_ZN5scudo13DefaultConfig38SecondaryCacheMaxReleaseToOsIntervalMsE",
   "name" : "scudo::DefaultConfig::SecondaryCacheMaxReleaseToOsIntervalMs",
   "referenced_type" : "_ZTIKi",
   "source_file" : "external/scudo/standalone/allocator_config.h"
  },
  {
   "linker_set_key" : "_ZN5scudo13DefaultConfig38SecondaryCacheMinReleaseToOsIntervalMsE",
   "name" : "scudo::DefaultConfig::SecondaryCacheMinReleaseToOsIntervalMs",
   "referenced_type" : "_ZTIKi",
   "source_file" : "external/scudo/standalone/allocator_config.h"
  },
  {
   "linker_set_key" : "_ZN5scudo13HashAlgorithmE",
   "name" : "scudo::HashAlgorithm",
   "referenced_type" : "_ZTIN5scudo8ChecksumE",
   "source_file" : "external/scudo/standalone/chunk.h"
  },
  {
   "linker_set_key" : "_ZN5scudo14PageSizeCachedE",
   "name" : "scudo::PageSizeCached",
   "referenced_type" : "_ZTIm",
   "source_file" : "external/scudo/standalone/common.h"
  },
  {
   "access" : "private",
   "linker_set_key" : "_ZN5scudo14TSDRegistryExT5StateE",
   "name" : "scudo::TSDRegistryExT::State",
   "referenced_type" : "_ZTIN5scudo11ThreadStateE",
   "source_file" : "external/scudo/standalone/tsd_exclusive.h"
  },
  {
   "linker_set_key" : "_ZN5scudo15QuarantineBatch8MaxCountE",
   "name" : "scudo::QuarantineBatch::MaxCount",
   "referenced_type" : "_ZTIKj",
   "source_file" : "external/scudo/standalone/quarantine.h"
  },
  {
   "linker_set_key" : "_ZN5scudo17FixedSizeClassMap10NumClassesE",
   "name" : "scudo::FixedSizeClassMap::NumClasses",
   "referenced_type" : "_ZTIKm",
   "source_file" : "external/scudo/standalone/size_class_map.h"
  },
  {
   "linker_set_key" : "_ZN5scudo17FixedSizeClassMap12BatchClassIdE",
   "name" : "scudo::FixedSizeClassMap::BatchClassId",
   "referenced_type" : "_ZTIKm",
   "source_file" : "external/scudo/standalone/size_class_map.h"
  },
  {
   "linker_set_key" : "_ZN5scudo17FixedSizeClassMap14LargestClassIdE",
   "name" : "scudo::FixedSizeClassMap::LargestClassId",
   "referenced_type" : "_ZTIKm",
   "source_file" : "external/scudo/standalone/size_class_map.h"
  },
  {
   "linker_set_key" : "_ZN5scudo17FixedSizeClassMap16MaxNumCachedHintE",
   "name" : "scudo::FixedSizeClassMap::MaxNumCachedHint",
   "referenced_type" : "_ZTIKj",
   "source_file" : "external/scudo/standalone/size_class_map.h"
  },
  {
   "access" : "private",
   "linker_set_key" : "_ZN5scudo17FixedSizeClassMap1ME",
   "name" : "scudo::FixedSizeClassMap::M",
   "referenced_type" : "_ZTIKm",
   "source_file" : "external/scudo/standalone/size_class_map.h"
  },
  {
   "access" : "private",
   "linker_set_key" : "_ZN5scudo17FixedSizeClassMap1SE",
   "name" : "scudo::FixedSizeClassMap::S",
   "referenced_type" : "_ZTIKh",
   "source_file" : "external/scudo/standalone/size_class_map.h"
  },
  {
   "linker_set_key" : "_ZN5scudo17FixedSizeClassMap7MaxSizeE",
   "name" : "scudo::FixedSizeClassMap::MaxSize",
   "referenced_type" : "_ZTIKm",
   "source_file" : "external/scudo/standalone/size_class_map.h"
  },
  {
   "access" : "private",
   "linker_set_key" : "_ZN5scudo17FixedSizeClassMap7MidSizeE",
   "name" : "scudo::FixedSizeClassMap::MidSize",
   "referenced_type" : "_ZTIKm",
   "source_file" : "external/scudo/standalone/size_class_map.h"
  },
  {
   "access" : "private",
   "linker_set_key" : "_ZN5scudo17FixedSizeClassMap7MinSizeE",
   "name" : "scudo::FixedSizeClassMap::MinSize",
   "referenced_type" : "_ZTIKm",
   "source_file" : "external/scudo/standalone/size_class_map.h"
  },
  {
   "access" : "private",
   "linker_set_key" : "_ZN5scudo17FixedSizeClassMap8MidClassE",
   "name" : "scudo::FixedSizeClassMap::MidClass",
   "referenced_type" : "_ZTIKm",
   "source_file" : "external/scudo/standalone/size_class_map.h"
  },
  {
   "access" : "private",
   "linker_set_key" : "_ZN5scudo17FixedSizeClassMap9SizeDeltaE",
   "name" : "scudo::FixedSizeClassMap::SizeDelta",
   "referenced_type" : "_ZTIKm",
   "source_file" : "external/scudo/standalone/size_class_map.h"
  },
  {
   "linker_set_key" : "_ZN5scudo17FixedSizeClassMapINS_21SvelteSizeClassConfigEE10NumClassesE",
   "name" : "scudo::FixedSizeClassMap<scudo::SvelteSizeClassConfig>::NumClasses",
   "referenced_type" : "_ZTIKm",
   "source_file" : "external/scudo/standalone/size_class_map.h"
  },
  {
   "linker_set_key" : "_ZN5scudo17FixedSizeClassMapINS_21SvelteSizeClassConfigEE12BatchClassIdE",
   "name" : "scudo::FixedSizeClassMap<scudo::SvelteSizeClassConfig>::BatchClassId",
   "referenced_type" : "_ZTIKm",
   "source_file" : "external/scudo/standalone/size_class_map.h"
  },
  {
   "linker_set_key" : "_ZN5scudo17FixedSizeClassMapINS_21SvelteSizeClassConfigEE14LargestClassIdE",
   "name" : "scudo::FixedSizeClassMap<scudo::SvelteSizeClassConfig>::LargestClassId",
   "referenced_type" : "_ZTIKm",
   "source_file" : "external/scudo/standalone/size_class_map.h"
  },
  {
   "linker_set_key" : "_ZN5scudo17FixedSizeClassMapINS_21SvelteSizeClassConfigEE16MaxNumCachedHintE",
   "name" : "scudo::FixedSizeClassMap<scudo::SvelteSizeClassConfig>::MaxNumCachedHint",
   "referenced_type" : "_ZTIKj",
   "source_file" : "external/scudo/standalone/size_class_map.h"
  },
  {
   "access" : "private",
   "linker_set_key" : "_ZN5scudo17FixedSizeClassMapINS_21SvelteSizeClassConfigEE1ME",
   "name" : "scudo::FixedSizeClassMap<scudo::SvelteSizeClassConfig>::M",
   "referenced_type" : "_ZTIKm",
   "source_file" : "external/scudo/standalone/size_class_map.h"
  },
  {
   "access" : "private",
   "linker_set_key" : "_ZN5scudo17FixedSizeClassMapINS_21SvelteSizeClassConfigEE1SE",
   "name" : "scudo::FixedSizeClassMap<scudo::SvelteSizeClassConfig>::S",
   "referenced_type" : "_ZTIKh",
   "source_file" : "external/scudo/standalone/size_class_map.h"
  },
  {
   "linker_set_key" : "_ZN5scudo17FixedSizeClassMapINS_21SvelteSizeClassConfigEE7MaxSizeE",
   "name" : "scudo::FixedSizeClassMap<scudo::SvelteSizeClassConfig>::MaxSize",
   "referenced_type" : "_ZTIKm",
   "source_file" : "external/scudo/standalone/size_class_map.h"
  },
  {
   "access" : "private",
   "linker_set_key" : "_ZN5scudo17FixedSizeClassMapINS_21SvelteSizeClassConfigEE7MidSizeE",
   "name" : "scudo::FixedSizeClassMap<scudo::SvelteSizeClassConfig>::MidSize",
   "referenced_type" : "_ZTIKm",
   "source_file" : "external/scudo/standalone/size_class_map.h"
  },
  {
   "access" : "private",
   "linker_set_key" : "_ZN5scudo17FixedSizeClassMapINS_21SvelteSizeClassConfigEE7MinSizeE",
   "name" : "scudo::FixedSizeClassMap<scudo::SvelteSizeClassConfig>::MinSize",
   "referenced_type" : "_ZTIKm",
   "source_file" : "external/scudo/standalone/size_class_map.h"
  },
  {
   "access" : "private",
   "linker_set_key" : "_ZN5scudo17FixedSizeClassMapINS_21SvelteSizeClassConfigEE8MidClassE",
   "name" : "scudo::FixedSizeClassMap<scudo::SvelteSizeClassConfig>::MidClass",
   "referenced_type" : "_ZTIKm",
   "source_file" : "external/scudo/standalone/size_class_map.h"
  },
  {
   "access" : "private",
   "linker_set_key" : "_ZN5scudo17FixedSizeClassMapINS_21SvelteSizeClassConfigEE9SizeDeltaE",
   "name" : "scudo::FixedSizeClassMap<scudo::SvelteSizeClassConfig>::SizeDelta",
   "referenced_type" : "_ZTIKm",
   "source_file" : "external/scudo/standalone/size_class_map.h"
  },
  {
   "linker_set_key" : "_ZN5scudo17TableSizeClassMap10NumClassesE",
   "name" : "scudo::TableSizeClassMap::NumClasses",
   "referenced_type" : "_ZTIKm",
   "source_file" : "external/scudo/standalone/size_class_map.h"
  },
  {
   "access" : "private",
   "linker_set_key" : "_ZN5scudo17TableSizeClassMap11ClassesSizeE",
   "name" : "scudo::TableSizeClassMap::ClassesSize",
   "referenced_type" : "_ZTIKm",
   "source_file" : "external/scudo/standalone/size_class_map.h"
  },
  {
   "linker_set_key" : "_ZN5scudo17TableSizeClassMap12BatchClassIdE",
   "name" : "scudo::TableSizeClassMap::BatchClassId",
   "referenced_type" : "_ZTIKm",
   "source_file" : "external/scudo/standalone/size_class_map.h"
  },
  {
   "linker_set_key" : "_ZN5scudo17TableSizeClassMap14LargestClassIdE",
   "name" : "scudo::TableSizeClassMap::LargestClassId",
   "referenced_type" : "_ZTIKm",
   "source_file" : "external/scudo/standalone/size_class_map.h"
  },
  {
   "linker_set_key" : "_ZN5scudo17TableSizeClassMap16MaxNumCachedHintE",
   "name" : "scudo::TableSizeClassMap::MaxNumCachedHint",
   "referenced_type" : "_ZTIKj",
   "source_file" : "external/scudo/standalone/size_class_map.h"
  },
  {
   "access" : "private",
   "linker_set_key" : "_ZN5scudo17TableSizeClassMap1ME",
   "name" : "scudo::TableSizeClassMap::M",
   "referenced_type" : "_ZTIKm",
   "source_file" : "external/scudo/standalone/size_class_map.h"
  },
  {
   "access" : "private",
   "linker_set_key" : "_ZN5scudo17TableSizeClassMap1SE",
   "name" : "scudo::TableSizeClassMap::S",
   "referenced_type" : "_ZTIKh",
   "source_file" : "external/scudo/standalone/size_class_map.h"
  },
  {
   "linker_set_key" : "_ZN5scudo17TableSizeClassMap7MaxSizeE",
   "name" : "scudo::TableSizeClassMap::MaxSize",
   "referenced_type" : "_ZTIKm",
   "source_file" : "external/scudo/standalone/size_class_map.h"
  },
  {
   "linker_set_key" : "_ZN5scudo17TableSizeClassMapINS_22AndroidSizeClassConfigEE10NumClassesE",
   "name" : "scudo::TableSizeClassMap<scudo::AndroidSizeClassConfig>::NumClasses",
   "referenced_type" : "_ZTIKm",
   "source_file" : "external/scudo/standalone/size_class_map.h"
  },
  {
   "access" : "private",
   "linker_set_key" : "_ZN5scudo17TableSizeClassMapINS_22AndroidSizeClassConfigEE11ClassesSizeE",
   "name" : "scudo::TableSizeClassMap<scudo::AndroidSizeClassConfig>::ClassesSize",
   "referenced_type" : "_ZTIKm",
   "source_file" : "external/scudo/standalone/size_class_map.h"
  },
  {
   "linker_set_key" : "_ZN5scudo17TableSizeClassMapINS_22AndroidSizeClassConfigEE12BatchClassIdE",
   "name" : "scudo::TableSizeClassMap<scudo::AndroidSizeClassConfig>::BatchClassId",
   "referenced_type" : "_ZTIKm",
   "source_file" : "external/scudo/standalone/size_class_map.h"
  },
  {
   "linker_set_key" : "_ZN5scudo17TableSizeClassMapINS_22AndroidSizeClassConfigEE14LargestClassIdE",
   "name" : "scudo::TableSizeClassMap<scudo::AndroidSizeClassConfig>::LargestClassId",
   "referenced_type" : "_ZTIKm",
   "source_file" : "external/scudo/standalone/size_class_map.h"
  },
  {
   "linker_set_key" : "_ZN5scudo17TableSizeClassMapINS_22AndroidSizeClassConfigEE16MaxNumCachedHintE",
   "name" : "scudo::TableSizeClassMap<scudo::AndroidSizeClassConfig>::MaxNumCachedHint",
   "referenced_type" : "_ZTIKj",
   "source_file" : "external/scudo/standalone/size_class_map.h"
  },
  {
   "access" : "private",
   "linker_set_key" : "_ZN5scudo17TableSizeClassMapINS_22AndroidSizeClassConfigEE1ME",
   "name" : "scudo::TableSizeClassMap<scudo::AndroidSizeClassConfig>::M",
   "referenced_type" : "_ZTIKm",
   "source_file" : "external/scudo/standalone/size_class_map.h"
  },
  {
   "access" : "private",
   "linker_set_key" : "_ZN5scudo17TableSizeClassMapINS_22AndroidSizeClassConfigEE1SE",
   "name" : "scudo::TableSizeClassMap<scudo::AndroidSizeClassConfig>::S",
   "referenced_type" : "_ZTIKh",
   "source_file" : "external/scudo/standalone/size_class_map.h"
  },
  {
   "access" : "private",
   "linker_set_key" : "_ZN5scudo17TableSizeClassMapINS_22AndroidSizeClassConfigEE6LTableE",
   "name" : "scudo::TableSizeClassMap<scudo::AndroidSizeClassConfig>::LTable",
   "referenced_type" : "_ZTIKN5scudo17TableSizeClassMapINS_22AndroidSizeClassConfigEE8LSBTableE",
   "source_file" : "external/scudo/standalone/size_class_map.h"
  },
  {
   "linker_set_key" : "_ZN5scudo17TableSizeClassMapINS_22AndroidSizeClassConfigEE7MaxSizeE",
   "name" : "scudo::TableSizeClassMap<scudo::AndroidSizeClassConfig>::MaxSize",
   "referenced_type" : "_ZTIKm",
   "source_file" : "external/scudo/standalone/size_class_map.h"
  },
  {
   "access" : "private",
   "linker_set_key" : "_ZN5scudo17TableSizeClassMapINS_22AndroidSizeClassConfigEE7SzTableE",
   "name" : "scudo::TableSizeClassMap<scudo::AndroidSizeClassConfig>::SzTable",
   "referenced_type" : "_ZTIKN5scudo17TableSizeClassMapINS_22AndroidSizeClassConfigEE9SizeTableE",
   "source_file" : "external/scudo/standalone/size_class_map.h"
  },
  {
   "access" : "private",
   "linker_set_key" : "_ZN5scudo18MurMur2HashBuilder1ME",
   "name" : "scudo::MurMur2HashBuilder::M",
   "referenced_type" : "_ZTIKj",
   "source_file" : "external/scudo/standalone/stack_depot.h"
  },
  {
   "access" : "private",
   "linker_set_key" : "_ZN5scudo18MurMur2HashBuilder1RE",
   "name" : "scudo::MurMur2HashBuilder::R",
   "referenced_type" : "_ZTIKj",
   "source_file" : "external/scudo/standalone/stack_depot.h"
  },
  {
   "access" : "private",
   "linker_set_key" : "_ZN5scudo18MurMur2HashBuilder4SeedE",
   "name" : "scudo::MurMur2HashBuilder::Seed",
   "referenced_type" : "_ZTIKj",
   "source_file" : "external/scudo/standalone/stack_depot.h"
  },
  {
   "access" : "private",
   "linker_set_key" : "_ZN5scudo18PackedCounterArray12StaticBufferE",
   "name" : "scudo::PackedCounterArray::StaticBuffer",
   "referenced_type" : "_ZTIA2048_m",
   "source_file" : "external/scudo/standalone/release.h"
  },
  {
   "linker_set_key" : "_ZN5scudo18PackedCounterArray17StaticBufferCountE",
   "name" : "scudo::PackedCounterArray::StaticBufferCount",
   "referenced_type" : "_ZTIKm",
   "source_file" : "external/scudo/standalone/release.h"
  },
  {
   "access" : "private",
   "linker_set_key" : "_ZN5scudo18PackedCounterArray5MutexE",
   "name" : "scudo::PackedCounterArray::Mutex",
   "referenced_type" : "_ZTIN5scudo11HybridMutexE",
   "source_file" : "external/scudo/standalone/release.h"
  },
  {
   "linker_set_key" : "_ZN5scudo19AndroidSvelteConfig20PrimaryRegionSizeLogE",
   "name" : "scudo::AndroidSvelteConfig::PrimaryRegionSizeLog",
   "referenced_type" : "_ZTIKm",
   "source_file" : "external/scudo/standalone/allocator_config.h"
  },
  {
   "linker_set_key" : "_ZN5scudo19AndroidSvelteConfig23MaySupportMemoryTaggingE",
   "name" : "scudo::AndroidSvelteConfig::MaySupportMemoryTagging",
   "referenced_type" : "_ZTIKb",
   "source_file" : "external/scudo/standalone/allocator_config.h"
  },
  {
   "linker_set_key" : "_ZN5scudo19AndroidSvelteConfig28SecondaryCacheQuarantineSizeE",
   "name" : "scudo::AndroidSvelteConfig::SecondaryCacheQuarantineSize",
   "referenced_type" : "_ZTIKj",
   "source_file" : "external/scudo/standalone/allocator_config.h"
  },
  {
   "linker_set_key" : "_ZN5scudo19AndroidSvelteConfig30SecondaryCacheEntriesArraySizeE",
   "name" : "scudo::AndroidSvelteConfig::SecondaryCacheEntriesArraySize",
   "referenced_type" : "_ZTIKj",
   "source_file" : "external/scudo/standalone/allocator_config.h"
  },
  {
   "linker_set_key" : "_ZN5scudo19AndroidSvelteConfig31PrimaryMaxReleaseToOsIntervalMsE",
   "name" : "scudo::AndroidSvelteConfig::PrimaryMaxReleaseToOsIntervalMs",
   "referenced_type" : "_ZTIKi",
   "source_file" : "external/scudo/standalone/allocator_config.h"
  },
  {
   "linker_set_key" : "_ZN5scudo19AndroidSvelteConfig31PrimaryMinReleaseToOsIntervalMsE",
   "name" : "scudo::AndroidSvelteConfig::PrimaryMinReleaseToOsIntervalMs",
   "referenced_type" : "_ZTIKi",
   "source_file" : "external/scudo/standalone/allocator_config.h"
  },
  {
   "linker_set_key" : "_ZN5scudo19AndroidSvelteConfig33SecondaryCacheDefaultMaxEntrySizeE",
   "name" : "scudo::AndroidSvelteConfig::SecondaryCacheDefaultMaxEntrySize",
   "referenced_type" : "_ZTIKm",
   "source_file" : "external/scudo/standalone/allocator_config.h"
  },
  {
   "linker_set_key" : "_ZN5scudo19AndroidSvelteConfig36SecondaryCacheDefaultMaxEntriesCountE",
   "name" : "scudo::AndroidSvelteConfig::SecondaryCacheDefaultMaxEntriesCount",
   "referenced_type" : "_ZTIKj",
   "source_file" : "external/scudo/standalone/allocator_config.h"
  },
  {
   "linker_set_key" : "_ZN5scudo19AndroidSvelteConfig38SecondaryCacheMaxReleaseToOsIntervalMsE",
   "name" : "scudo::AndroidSvelteConfig::SecondaryCacheMaxReleaseToOsIntervalMs",
   "referenced_type" : "_ZTIKi",
   "source_file" : "external/scudo/standalone/allocator_config.h"
  },
  {
   "linker_set_key" : "_ZN5scudo19AndroidSvelteConfig38SecondaryCacheMinReleaseToOsIntervalMsE",
   "name" : "scudo::AndroidSvelteConfig::SecondaryCacheMinReleaseToOsIntervalMs",
   "referenced_type" : "_ZTIKi",
   "source_file" : "external/scudo/standalone/allocator_config.h"
  },
  {
   "access" : "private",
   "linker_set_key" : "_ZN5scudo20SizeClassAllocator3210NumClassesE",
   "name" : "scudo::SizeClassAllocator32::NumClasses",
   "referenced_type" : "_ZTIKm",
   "source_file" : "external/scudo/standalone/primary32.h"
  },
  {
   "access" : "private",
   "linker_set_key" : "_ZN5scudo20SizeClassAllocator3210NumRegionsE",
   "name" : "scudo::SizeClassAllocator32::NumRegions",
   "referenced_type" : "_ZTIKm",
   "source_file" : "external/scudo/standalone/primary32.h"
  },
  {
   "access" : "private",
   "linker_set_key" : "_ZN5scudo20SizeClassAllocator3210RegionSizeE",
   "name" : "scudo::SizeClassAllocator32::RegionSize",
   "referenced_type" : "_ZTIKm",
   "source_file" : "external/scudo/standalone/primary32.h"
  },
  {
   "access" : "private",
   "linker_set_key" : "_ZN5scudo20SizeClassAllocator3213MaxNumBatchesE",
   "name" : "scudo::SizeClassAllocator32::MaxNumBatches",
   "referenced_type" : "_ZTIKj",
   "source_file" : "external/scudo/standalone/primary32.h"
  },
  {
   "access" : "private",
   "linker_set_key" : "_ZN5scudo20SizeClassAllocator3217MaxStashedRegionsE",
   "name" : "scudo::SizeClassAllocator32::MaxStashedRegions",
   "referenced_type" : "_ZTIKm",
   "source_file" : "external/scudo/standalone/primary32.h"
  },
  {
   "access" : "private",
   "linker_set_key" : "_ZN5scudo20SizeClassAllocator32INS_13AndroidConfigEE10NumClassesE",
   "name" : "scudo::SizeClassAllocator32<scudo::AndroidConfig>::NumClasses",
   "referenced_type" : "_ZTIKm",
   "source_file" : "external/scudo/standalone/primary32.h"
  },
  {
   "access" : "private",
   "linker_set_key" : "_ZN5scudo20SizeClassAllocator32INS_13AndroidConfigEE10NumRegionsE",
   "name" : "scudo::SizeClassAllocator32<scudo::AndroidConfig>::NumRegions",
   "referenced_type" : "_ZTIKm",
   "source_file" : "external/scudo/standalone/primary32.h"
  },
  {
   "access" : "private",
   "linker_set_key" : "_ZN5scudo20SizeClassAllocator32INS_13AndroidConfigEE10RegionSizeE",
   "name" : "scudo::SizeClassAllocator32<scudo::AndroidConfig>::RegionSize",
   "referenced_type" : "_ZTIKm",
   "source_file" : "external/scudo/standalone/primary32.h"
  },
  {
   "access" : "private",
   "linker_set_key" : "_ZN5scudo20SizeClassAllocator32INS_13AndroidConfigEE13MaxNumBatchesE",
   "name" : "scudo::SizeClassAllocator32<scudo::AndroidConfig>::MaxNumBatches",
   "referenced_type" : "_ZTIKj",
   "source_file" : "external/scudo/standalone/primary32.h"
  },
  {
   "access" : "private",
   "linker_set_key" : "_ZN5scudo20SizeClassAllocator32INS_13AndroidConfigEE17MaxStashedRegionsE",
   "name" : "scudo::SizeClassAllocator32<scudo::AndroidConfig>::MaxStashedRegions",
   "referenced_type" : "_ZTIKm",
   "source_file" : "external/scudo/standalone/primary32.h"
  },
  {
   "access" : "private",
   "linker_set_key" : "_ZN5scudo20SizeClassAllocator32INS_19AndroidSvelteConfigEE10NumClassesE",
   "name" : "scudo::SizeClassAllocator32<scudo::AndroidSvelteConfig>::NumClasses",
   "referenced_type" : "_ZTIKm",
   "source_file" : "external/scudo/standalone/primary32.h"
  },
  {
   "access" : "private",
   "linker_set_key" : "_ZN5scudo20SizeClassAllocator32INS_19AndroidSvelteConfigEE10NumRegionsE",
   "name" : "scudo::SizeClassAllocator32<scudo::AndroidSvelteConfig>::NumRegions",
   "referenced_type" : "_ZTIKm",
   "source_file" : "external/scudo/standalone/primary32.h"
  },
  {
   "access" : "private",
   "linker_set_key" : "_ZN5scudo20SizeClassAllocator32INS_19AndroidSvelteConfigEE10RegionSizeE",
   "name" : "scudo::SizeClassAllocator32<scudo::AndroidSvelteConfig>::RegionSize",
   "referenced_type" : "_ZTIKm",
   "source_file" : "external/scudo/standalone/primary32.h"
  },
  {
   "access" : "private",
   "linker_set_key" : "_ZN5scudo20SizeClassAllocator32INS_19AndroidSvelteConfigEE13MaxNumBatchesE",
   "name" : "scudo::SizeClassAllocator32<scudo::AndroidSvelteConfig>::MaxNumBatches",
   "referenced_type" : "_ZTIKj",
   "source_file" : "external/scudo/standalone/primary32.h"
  },
  {
   "access" : "private",
   "linker_set_key" : "_ZN5scudo20SizeClassAllocator32INS_19AndroidSvelteConfigEE17MaxStashedRegionsE",
   "name" : "scudo::SizeClassAllocator32<scudo::AndroidSvelteConfig>::MaxStashedRegions",
   "referenced_type" : "_ZTIKm",
   "source_file" : "external/scudo/standalone/primary32.h"
  },
  {
   "access" : "private",
   "linker_set_key" : "_ZN5scudo20SizeClassAllocator6410NumClassesE",
   "name" : "scudo::SizeClassAllocator64::NumClasses",
   "referenced_type" : "_ZTIKm",
   "source_file" : "external/scudo/standalone/primary64.h"
  },
  {
   "access" : "private",
   "linker_set_key" : "_ZN5scudo20SizeClassAllocator6410RegionSizeE",
   "name" : "scudo::SizeClassAllocator64::RegionSize",
   "referenced_type" : "_ZTIKm",
   "source_file" : "external/scudo/standalone/primary64.h"
  },
  {
   "access" : "private",
   "linker_set_key" : "_ZN5scudo20SizeClassAllocator6411PrimarySizeE",
   "name" : "scudo::SizeClassAllocator64::PrimarySize",
   "referenced_type" : "_ZTIKm",
   "source_file" : "external/scudo/standalone/primary64.h"
  },
  {
   "access" : "private",
   "linker_set_key" : "_ZN5scudo20SizeClassAllocator6413MaxNumBatchesE",
   "name" : "scudo::SizeClassAllocator64::MaxNumBatches",
   "referenced_type" : "_ZTIKj",
   "source_file" : "external/scudo/standalone/primary64.h"
  },
  {
   "linker_set_key" : "_ZN5scudo20SizeClassAllocator6415CompactPtrScaleE",
   "name" : "scudo::SizeClassAllocator64::CompactPtrScale",
   "referenced_type" : "_ZTIKm",
   "source_file" : "external/scudo/standalone/primary64.h"
  },
  {
   "access" : "private",
   "linker_set_key" : "_ZN5scudo20SizeClassAllocator6416MapSizeIncrementE",
   "name" : "scudo::SizeClassAllocator64::MapSizeIncrement",
   "referenced_type" : "_ZTIKm",
   "source_file" : "external/scudo/standalone/primary64.h"
  },
  {
   "linker_set_key" : "_ZN5scudo21SvelteSizeClassConfig10MaxSizeLogE",
   "name" : "scudo::SvelteSizeClassConfig::MaxSizeLog",
   "referenced_type" : "_ZTIKm",
   "source_file" : "external/scudo/standalone/size_class_map.h"
  },
  {
   "linker_set_key" : "_ZN5scudo21SvelteSizeClassConfig10MidSizeLogE",
   "name" : "scudo::SvelteSizeClassConfig::MidSizeLog",
   "referenced_type" : "_ZTIKm",
   "source_file" : "external/scudo/standalone/size_class_map.h"
  },
  {
   "linker_set_key" : "_ZN5scudo21SvelteSizeClassConfig10MinSizeLogE",
   "name" : "scudo::SvelteSizeClassConfig::MinSizeLog",
   "referenced_type" : "_ZTIKm",
   "source_file" : "external/scudo/standalone/size_class_map.h"
  },
  {
   "linker_set_key" : "_ZN5scudo21SvelteSizeClassConfig16MaxNumCachedHintE",
   "name" : "scudo::SvelteSizeClassConfig::MaxNumCachedHint",
   "referenced_type" : "_ZTIKj",
   "source_file" : "external/scudo/standalone/size_class_map.h"
  },
  {
   "linker_set_key" : "_ZN5scudo21SvelteSizeClassConfig17MaxBytesCachedLogE",
   "name" : "scudo::SvelteSizeClassConfig::MaxBytesCachedLog",
   "referenced_type" : "_ZTIKm",
   "source_file" : "external/scudo/standalone/size_class_map.h"
  },
  {
   "linker_set_key" : "_ZN5scudo21SvelteSizeClassConfig7NumBitsE",
   "name" : "scudo::SvelteSizeClassConfig::NumBits",
   "referenced_type" : "_ZTIKm",
   "source_file" : "external/scudo/standalone/size_class_map.h"
  },
  {
   "linker_set_key" : "_ZN5scudo22AndroidSizeClassConfig10MaxSizeLogE",
   "name" : "scudo::AndroidSizeClassConfig::MaxSizeLog",
   "referenced_type" : "_ZTIKm",
   "source_file" : "external/scudo/standalone/size_class_map.h"
  },
  {
   "linker_set_key" : "_ZN5scudo22AndroidSizeClassConfig10MidSizeLogE",
   "name" : "scudo::AndroidSizeClassConfig::MidSizeLog",
   "referenced_type" : "_ZTIKm",
   "source_file" : "external/scudo/standalone/size_class_map.h"
  },
  {
   "linker_set_key" : "_ZN5scudo22AndroidSizeClassConfig10MinSizeLogE",
   "name" : "scudo::AndroidSizeClassConfig::MinSizeLog",
   "referenced_type" : "_ZTIKm",
   "source_file" : "external/scudo/standalone/size_class_map.h"
  },
  {
   "linker_set_key" : "_ZN5scudo22AndroidSizeClassConfig16MaxNumCachedHintE",
   "name" : "scudo::AndroidSizeClassConfig::MaxNumCachedHint",
   "referenced_type" : "_ZTIKj",
   "source_file" : "external/scudo/standalone/size_class_map.h"
  },
  {
   "linker_set_key" : "_ZN5scudo22AndroidSizeClassConfig17MaxBytesCachedLogE",
   "name" : "scudo::AndroidSizeClassConfig::MaxBytesCachedLog",
   "referenced_type" : "_ZTIKm",
   "source_file" : "external/scudo/standalone/size_class_map.h"
  },
  {
   "linker_set_key" : "_ZN5scudo22AndroidSizeClassConfig7ClassesE",
   "name" : "scudo::AndroidSizeClassConfig::Classes",
   "referenced_type" : "_ZTIA64_Kj",
   "source_file" : "external/scudo/standalone/size_class_map.h"
  },
  {
   "linker_set_key" : "_ZN5scudo22AndroidSizeClassConfig7NumBitsE",
   "name" : "scudo::AndroidSizeClassConfig::NumBits",
   "referenced_type" : "_ZTIKm",
   "source_file" : "external/scudo/standalone/size_class_map.h"
  },
  {
   "linker_set_key" : "_ZN5scudo22AndroidSizeClassConfig9SizeDeltaE",
   "name" : "scudo::AndroidSizeClassConfig::SizeDelta",
   "referenced_type" : "_ZTIKm",
   "source_file" : "external/scudo/standalone/size_class_map.h"
  },
  {
   "linker_set_key" : "_ZN5scudo22DefaultSizeClassConfig10MaxSizeLogE",
   "name" : "scudo::DefaultSizeClassConfig::MaxSizeLog",
   "referenced_type" : "_ZTIKm",
   "source_file" : "external/scudo/standalone/size_class_map.h"
  },
  {
   "linker_set_key" : "_ZN5scudo22DefaultSizeClassConfig10MidSizeLogE",
   "name" : "scudo::DefaultSizeClassConfig::MidSizeLog",
   "referenced_type" : "_ZTIKm",
   "source_file" : "external/scudo/standalone/size_class_map.h"
  },
  {
   "linker_set_key" : "_ZN5scudo22DefaultSizeClassConfig10MinSizeLogE",
   "name" : "scudo::DefaultSizeClassConfig::MinSizeLog",
   "referenced_type" : "_ZTIKm",
   "source_file" : "external/scudo/standalone/size_class_map.h"
  },
  {
   "linker_set_key" : "_ZN5scudo22DefaultSizeClassConfig16MaxNumCachedHintE",
   "name" : "scudo::DefaultSizeClassConfig::MaxNumCachedHint",
   "referenced_type" : "_ZTIKj",
   "source_file" : "external/scudo/standalone/size_class_map.h"
  },
  {
   "linker_set_key" : "_ZN5scudo22DefaultSizeClassConfig17MaxBytesCachedLogE",
   "name" : "scudo::DefaultSizeClassConfig::MaxBytesCachedLog",
   "referenced_type" : "_ZTIKm",
   "source_file" : "external/scudo/standalone/size_class_map.h"
  },
  {
   "linker_set_key" : "_ZN5scudo22DefaultSizeClassConfig7NumBitsE",
   "name" : "scudo::DefaultSizeClassConfig::NumBits",
   "referenced_type" : "_ZTIKm",
   "source_file" : "external/scudo/standalone/size_class_map.h"
  },
  {
   "access" : "private",
   "linker_set_key" : "_ZN5scudo28SizeClassAllocatorLocalCache10NumClassesE",
   "name" : "scudo::SizeClassAllocatorLocalCache::NumClasses",
   "referenced_type" : "_ZTIKm",
   "source_file" : "external/scudo/standalone/local_cache.h"
  },
  {
   "access" : "private",
   "linker_set_key" : "_ZN5scudo28SizeClassAllocatorLocalCache12BatchClassIdE",
   "name" : "scudo::SizeClassAllocatorLocalCache::BatchClassId",
   "referenced_type" : "_ZTIKm",
   "source_file" : "external/scudo/standalone/local_cache.h"
  },
  {
   "linker_set_key" : "_ZN5scudo28SizeClassAllocatorLocalCache13TransferBatch12MaxNumCachedE",
   "name" : "scudo::SizeClassAllocatorLocalCache::TransferBatch::MaxNumCached",
   "referenced_type" : "_ZTIKj",
   "source_file" : "external/scudo/standalone/local_cache.h"
  },
  {
   "access" : "private",
   "linker_set_key" : "_ZN5scudo28SizeClassAllocatorLocalCacheINS_20SizeClassAllocator32INS_13AndroidConfigEEEE10NumClassesE",
   "name" : "scudo::SizeClassAllocatorLocalCache<scudo::SizeClassAllocator32<scudo::AndroidConfig>>::NumClasses",
   "referenced_type" : "_ZTIKm",
   "source_file" : "external/scudo/standalone/local_cache.h"
  },
  {
   "access" : "private",
   "linker_set_key" : "_ZN5scudo28SizeClassAllocatorLocalCacheINS_20SizeClassAllocator32INS_13AndroidConfigEEEE12BatchClassIdE",
   "name" : "scudo::SizeClassAllocatorLocalCache<scudo::SizeClassAllocator32<scudo::AndroidConfig>>::BatchClassId",
   "referenced_type" : "_ZTIKm",
   "source_file" : "external/scudo/standalone/local_cache.h"
  },
  {
   "linker_set_key" : "_ZN5scudo28SizeClassAllocatorLocalCacheINS_20SizeClassAllocator32INS_13AndroidConfigEEEE13TransferBatch12MaxNumCachedE",
   "name" : "scudo::SizeClassAllocatorLocalCache<scudo::SizeClassAllocator32<scudo::AndroidConfig>>::TransferBatch::MaxNumCached",
   "referenced_type" : "_ZTIKj",
   "source_file" : "external/scudo/standalone/local_cache.h"
  },
  {
   "access" : "private",
   "linker_set_key" : "_ZN5scudo28SizeClassAllocatorLocalCacheINS_20SizeClassAllocator32INS_19AndroidSvelteConfigEEEE10NumClassesE",
   "name" : "scudo::SizeClassAllocatorLocalCache<scudo::SizeClassAllocator32<scudo::AndroidSvelteConfig>>::NumClasses",
   "referenced_type" : "_ZTIKm",
   "source_file" : "external/scudo/standalone/local_cache.h"
  },
  {
   "access" : "private",
   "linker_set_key" : "_ZN5scudo28SizeClassAllocatorLocalCacheINS_20SizeClassAllocator32INS_19AndroidSvelteConfigEEEE12BatchClassIdE",
   "name" : "scudo::SizeClassAllocatorLocalCache<scudo::SizeClassAllocator32<scudo::AndroidSvelteConfig>>::BatchClassId",
   "referenced_type" : "_ZTIKm",
   "source_file" : "external/scudo/standalone/local_cache.h"
  },
  {
   "linker_set_key" : "_ZN5scudo28SizeClassAllocatorLocalCacheINS_20SizeClassAllocator32INS_19AndroidSvelteConfigEEEE13TransferBatch12MaxNumCachedE",
   "name" : "scudo::SizeClassAllocatorLocalCache<scudo::SizeClassAllocator32<scudo::AndroidSvelteConfig>>::TransferBatch::MaxNumCached",
   "referenced_type" : "_ZTIKj",
   "source_file" : "external/scudo/standalone/local_cache.h"
  },
  {
   "linker_set_key" : "_ZN5scudo5ChunkL10OffsetMaskE",
   "name" : "scudo::Chunk::OffsetMask",
   "referenced_type" : "_ZTIKm",
   "source_file" : "external/scudo/standalone/chunk.h"
  },
  {
   "linker_set_key" : "_ZN5scudo5ChunkL10OriginMaskE",
   "name" : "scudo::Chunk::OriginMask",
   "referenced_type" : "_ZTIKh",
   "source_file" : "external/scudo/standalone/chunk.h"
  },
  {
   "linker_set_key" : "_ZN5scudo5ChunkL11ClassIdMaskE",
   "name" : "scudo::Chunk::ClassIdMask",
   "referenced_type" : "_ZTIKm",
   "source_file" : "external/scudo/standalone/chunk.h"
  },
  {
   "linker_set_key" : "_ZN5scudo5ChunkL12ChecksumMaskE",
   "name" : "scudo::Chunk::ChecksumMask",
   "referenced_type" : "_ZTIKm",
   "source_file" : "external/scudo/standalone/chunk.h"
  },
  {
   "linker_set_key" : "_ZN5scudo5ChunkL21SizeOrUnusedBytesMaskE",
   "name" : "scudo::Chunk::SizeOrUnusedBytesMask",
   "referenced_type" : "_ZTIKm",
   "source_file" : "external/scudo/standalone/chunk.h"
  },
  {
   "linker_set_key" : "_ZN5scudo5ChunkL9StateMaskE",
   "name" : "scudo::Chunk::StateMask",
   "referenced_type" : "_ZTIKh",
   "source_file" : "external/scudo/standalone/chunk.h"
  },
  {
   "access" : "private",
   "linker_set_key" : "_ZN5scudo9Allocator11BlockMarkerE",
   "name" : "scudo::Allocator::BlockMarker",
   "referenced_type" : "_ZTIKj",
   "source_file" : "external/scudo/standalone/combined.h"
  },
  {
   "access" : "private",
   "linker_set_key" : "_ZN5scudo9Allocator12MaxAlignmentE",
   "name" : "scudo::Allocator::MaxAlignment",
   "referenced_type" : "_ZTIKm",
   "source_file" : "external/scudo/standalone/combined.h"
  },
  {
   "linker_set_key" : "_ZN5scudo9Allocator12MaxTraceSizeE",
   "name" : "scudo::Allocator::MaxTraceSize",
   "referenced_type" : "_ZTIKm",
   "source_file" : "external/scudo/standalone/combined.h"
  },
  {
   "access" : "private",
   "linker_set_key" : "_ZN5scudo9Allocator12MinAlignmentE",
   "name" : "scudo::Allocator::MinAlignment",
   "referenced_type" : "_ZTIKm",
   "source_file" : "external/scudo/standalone/combined.h"
  },
  {
   "access" : "private",
   "linker_set_key" : "_ZN5scudo9Allocator15MaxAlignmentLogE",
   "name" : "scudo::Allocator::MaxAlignmentLog",
   "referenced_type" : "_ZTIKm",
   "source_file" : "external/scudo/standalone/combined.h"
  },
  {
   "access" : "private",
   "linker_set_key" : "_ZN5scudo9Allocator15MinAlignmentLogE",
   "name" : "scudo::Allocator::MinAlignmentLog",
   "referenced_type" : "_ZTIKm",
   "source_file" : "external/scudo/standalone/combined.h"
  },
  {
   "access" : "private",
   "linker_set_key" : "_ZN5scudo9Allocator15NumErrorReportsE",
   "name" : "scudo::Allocator::NumErrorReports",
   "referenced_type" : "_ZTIKj",
   "source_file" : "external/scudo/standalone/combined.h"
  },
  {
   "linker_set_key" : "_ZN5scudo9Allocator20AllocationRingBuffer10NumEntriesE",
   "name" : "scudo::Allocator::AllocationRingBuffer::NumEntries",
   "referenced_type" : "_ZTIKm",
   "source_file" : "external/scudo/standalone/combined.h"
  },
  {
   "access" : "private",
   "linker_set_key" : "_ZN5scudo9Allocator20MaxAllowedMallocSizeE",
   "name" : "scudo::Allocator::MaxAllowedMallocSize",
   "referenced_type" : "_ZTIKm",
   "source_file" : "external/scudo/standalone/combined.h"
  },
  {
   "access" : "private",
   "linker_set_key" : "_ZN5scudo9Allocator24MemTagAllocationTidIndexE",
   "name" : "scudo::Allocator::MemTagAllocationTidIndex",
   "referenced_type" : "_ZTIKl",
   "source_file" : "external/scudo/standalone/combined.h"
  },
  {
   "access" : "private",
   "linker_set_key" : "_ZN5scudo9Allocator26MemTagAllocationTraceIndexE",
   "name" : "scudo::Allocator::MemTagAllocationTraceIndex",
   "referenced_type" : "_ZTIKl",
   "source_file" : "external/scudo/standalone/combined.h"
  },
  {
   "access" : "private",
   "linker_set_key" : "_ZN5scudo9AllocatorINS_13AndroidConfigEXadL_Z21scudo_malloc_postinitEEE11BlockMarkerE",
   "name" : "scudo::Allocator<scudo::AndroidConfig, &scudo_malloc_postinit>::BlockMarker",
   "referenced_type" : "_ZTIKj",
   "source_file" : "external/scudo/standalone/combined.h"
  },
  {
   "access" : "private",
   "linker_set_key" : "_ZN5scudo9AllocatorINS_13AndroidConfigEXadL_Z21scudo_malloc_postinitEEE12MaxAlignmentE",
   "name" : "scudo::Allocator<scudo::AndroidConfig, &scudo_malloc_postinit>::MaxAlignment",
   "referenced_type" : "_ZTIKm",
   "source_file" : "external/scudo/standalone/combined.h"
  },
  {
   "linker_set_key" : "_ZN5scudo9AllocatorINS_13AndroidConfigEXadL_Z21scudo_malloc_postinitEEE12MaxTraceSizeE",
   "name" : "scudo::Allocator<scudo::AndroidConfig, &scudo_malloc_postinit>::MaxTraceSize",
   "referenced_type" : "_ZTIKm",
   "source_file" : "external/scudo/standalone/combined.h"
  },
  {
   "access" : "private",
   "linker_set_key" : "_ZN5scudo9AllocatorINS_13AndroidConfigEXadL_Z21scudo_malloc_postinitEEE12MinAlignmentE",
   "name" : "scudo::Allocator<scudo::AndroidConfig, &scudo_malloc_postinit>::MinAlignment",
   "referenced_type" : "_ZTIKm",
   "source_file" : "external/scudo/standalone/combined.h"
  },
  {
   "access" : "private",
   "linker_set_key" : "_ZN5scudo9AllocatorINS_13AndroidConfigEXadL_Z21scudo_malloc_postinitEEE15MaxAlignmentLogE",
   "name" : "scudo::Allocator<scudo::AndroidConfig, &scudo_malloc_postinit>::MaxAlignmentLog",
   "referenced_type" : "_ZTIKm",
   "source_file" : "external/scudo/standalone/combined.h"
  },
  {
   "access" : "private",
   "linker_set_key" : "_ZN5scudo9AllocatorINS_13AndroidConfigEXadL_Z21scudo_malloc_postinitEEE15MinAlignmentLogE",
   "name" : "scudo::Allocator<scudo::AndroidConfig, &scudo_malloc_postinit>::MinAlignmentLog",
   "referenced_type" : "_ZTIKm",
   "source_file" : "external/scudo/standalone/combined.h"
  },
  {
   "access" : "private",
   "linker_set_key" : "_ZN5scudo9AllocatorINS_13AndroidConfigEXadL_Z21scudo_malloc_postinitEEE15NumErrorReportsE",
   "name" : "scudo::Allocator<scudo::AndroidConfig, &scudo_malloc_postinit>::NumErrorReports",
   "referenced_type" : "_ZTIKj",
   "source_file" : "external/scudo/standalone/combined.h"
  },
  {
   "linker_set_key" : "_ZN5scudo9AllocatorINS_13AndroidConfigEXadL_Z21scudo_malloc_postinitEEE20AllocationRingBuffer10NumEntriesE",
   "name" : "scudo::Allocator<scudo::AndroidConfig, &scudo_malloc_postinit>::AllocationRingBuffer::NumEntries",
   "referenced_type" : "_ZTIKm",
   "source_file" : "external/scudo/standalone/combined.h"
  },
  {
   "access" : "private",
   "linker_set_key" : "_ZN5scudo9AllocatorINS_13AndroidConfigEXadL_Z21scudo_malloc_postinitEEE20MaxAllowedMallocSizeE",
   "name" : "scudo::Allocator<scudo::AndroidConfig, &scudo_malloc_postinit>::MaxAllowedMallocSize",
   "referenced_type" : "_ZTIKm",
   "source_file" : "external/scudo/standalone/combined.h"
  },
  {
   "access" : "private",
   "linker_set_key" : "_ZN5scudo9AllocatorINS_13AndroidConfigEXadL_Z21scudo_malloc_postinitEEE24MemTagAllocationTidIndexE",
   "name" : "scudo::Allocator<scudo::AndroidConfig, &scudo_malloc_postinit>::MemTagAllocationTidIndex",
   "referenced_type" : "_ZTIKl",
   "source_file" : "external/scudo/standalone/combined.h"
  },
  {
   "access" : "private",
   "linker_set_key" : "_ZN5scudo9AllocatorINS_13AndroidConfigEXadL_Z21scudo_malloc_postinitEEE26MemTagAllocationTraceIndexE",
   "name" : "scudo::Allocator<scudo::AndroidConfig, &scudo_malloc_postinit>::MemTagAllocationTraceIndex",
   "referenced_type" : "_ZTIKl",
   "source_file" : "external/scudo/standalone/combined.h"
  },
  {
   "access" : "private",
   "linker_set_key" : "_ZN5scudo9AllocatorINS_19AndroidSvelteConfigEXadL_Z28scudo_svelte_malloc_postinitEEE11BlockMarkerE",
   "name" : "scudo::Allocator<scudo::AndroidSvelteConfig, &scudo_svelte_malloc_postinit>::BlockMarker",
   "referenced_type" : "_ZTIKj",
   "source_file" : "external/scudo/standalone/combined.h"
  },
  {
   "access" : "private",
   "linker_set_key" : "_ZN5scudo9AllocatorINS_19AndroidSvelteConfigEXadL_Z28scudo_svelte_malloc_postinitEEE12MaxAlignmentE",
   "name" : "scudo::Allocator<scudo::AndroidSvelteConfig, &scudo_svelte_malloc_postinit>::MaxAlignment",
   "referenced_type" : "_ZTIKm",
   "source_file" : "external/scudo/standalone/combined.h"
  },
  {
   "linker_set_key" : "_ZN5scudo9AllocatorINS_19AndroidSvelteConfigEXadL_Z28scudo_svelte_malloc_postinitEEE12MaxTraceSizeE",
   "name" : "scudo::Allocator<scudo::AndroidSvelteConfig, &scudo_svelte_malloc_postinit>::MaxTraceSize",
   "referenced_type" : "_ZTIKm",
   "source_file" : "external/scudo/standalone/combined.h"
  },
  {
   "access" : "private",
   "linker_set_key" : "_ZN5scudo9AllocatorINS_19AndroidSvelteConfigEXadL_Z28scudo_svelte_malloc_postinitEEE12MinAlignmentE",
   "name" : "scudo::Allocator<scudo::AndroidSvelteConfig, &scudo_svelte_malloc_postinit>::MinAlignment",
   "referenced_type" : "_ZTIKm",
   "source_file" : "external/scudo/standalone/combined.h"
  },
  {
   "access" : "private",
   "linker_set_key" : "_ZN5scudo9AllocatorINS_19AndroidSvelteConfigEXadL_Z28scudo_svelte_malloc_postinitEEE15MaxAlignmentLogE",
   "name" : "scudo::Allocator<scudo::AndroidSvelteConfig, &scudo_svelte_malloc_postinit>::MaxAlignmentLog",
   "referenced_type" : "_ZTIKm",
   "source_file" : "external/scudo/standalone/combined.h"
  },
  {
   "access" : "private",
   "linker_set_key" : "_ZN5scudo9AllocatorINS_19AndroidSvelteConfigEXadL_Z28scudo_svelte_malloc_postinitEEE15MinAlignmentLogE",
   "name" : "scudo::Allocator<scudo::AndroidSvelteConfig, &scudo_svelte_malloc_postinit>::MinAlignmentLog",
   "referenced_type" : "_ZTIKm",
   "source_file" : "external/scudo/standalone/combined.h"
  },
  {
   "access" : "private",
   "linker_set_key" : "_ZN5scudo9AllocatorINS_19AndroidSvelteConfigEXadL_Z28scudo_svelte_malloc_postinitEEE15NumErrorReportsE",
   "name" : "scudo::Allocator<scudo::AndroidSvelteConfig, &scudo_svelte_malloc_postinit>::NumErrorReports",
   "referenced_type" : "_ZTIKj",
   "source_file" : "external/scudo/standalone/combined.h"
  },
  {
   "linker_set_key" : "_ZN5scudo9AllocatorINS_19AndroidSvelteConfigEXadL_Z28scudo_svelte_malloc_postinitEEE20AllocationRingBuffer10NumEntriesE",
   "name" : "scudo::Allocator<scudo::AndroidSvelteConfig, &scudo_svelte_malloc_postinit>::AllocationRingBuffer::NumEntries",
   "referenced_type" : "_ZTIKm",
   "source_file" : "external/scudo/standalone/combined.h"
  },
  {
   "access" : "private",
   "linker_set_key" : "_ZN5scudo9AllocatorINS_19AndroidSvelteConfigEXadL_Z28scudo_svelte_malloc_postinitEEE20MaxAllowedMallocSizeE",
   "name" : "scudo::Allocator<scudo::AndroidSvelteConfig, &scudo_svelte_malloc_postinit>::MaxAllowedMallocSize",
   "referenced_type" : "_ZTIKm",
   "source_file" : "external/scudo/standalone/combined.h"
  },
  {
   "access" : "private",
   "linker_set_key" : "_ZN5scudo9AllocatorINS_19AndroidSvelteConfigEXadL_Z28scudo_svelte_malloc_postinitEEE24MemTagAllocationTidIndexE",
   "name" : "scudo::Allocator<scudo::AndroidSvelteConfig, &scudo_svelte_malloc_postinit>::MemTagAllocationTidIndex",
   "referenced_type" : "_ZTIKl",
   "source_file" : "external/scudo/standalone/combined.h"
  },
  {
   "access" : "private",
   "linker_set_key" : "_ZN5scudo9AllocatorINS_19AndroidSvelteConfigEXadL_Z28scudo_svelte_malloc_postinitEEE26MemTagAllocationTraceIndexE",
   "name" : "scudo::Allocator<scudo::AndroidSvelteConfig, &scudo_svelte_malloc_postinit>::MemTagAllocationTraceIndex",
   "referenced_type" : "_ZTIKl",
   "source_file" : "external/scudo/standalone/combined.h"
  },
  {
   "linker_set_key" : "_ZN5scudoL15MaxRandomLengthE",
   "name" : "scudo::MaxRandomLength",
   "referenced_type" : "_ZTIKm",
   "source_file" : "external/scudo/standalone/common.h"
  },
  {
   "linker_set_key" : "_ZN5scudoL15PatternFillByteE",
   "name" : "scudo::PatternFillByte",
   "referenced_type" : "_ZTIKh",
   "source_file" : "external/scudo/standalone/common.h"
  },
  {
   "linker_set_key" : "_ZN5scudoL19MaxUnusedCachePagesE",
   "name" : "scudo::MaxUnusedCachePages",
   "referenced_type" : "_ZTIKm",
   "source_file" : "external/scudo/standalone/secondary.h"
  },
  {
   "linker_set_key" : "daylight",
   "name" : "daylight",
   "referenced_type" : "_ZTIi",
   "source_file" : "bionic/libc/include/time.h"
  },
  {
   "linker_set_key" : "stderr",
   "name" : "stderr",
   "referenced_type" : "_ZTIP7__sFILE",
   "source_file" : "bionic/libc/include/stdio.h"
  },
  {
   "linker_set_key" : "stdin",
   "name" : "stdin",
   "referenced_type" : "_ZTIP7__sFILE",
   "source_file" : "bionic/libc/include/stdio.h"
  },
  {
   "linker_set_key" : "stdout",
   "name" : "stdout",
   "referenced_type" : "_ZTIP7__sFILE",
   "source_file" : "bionic/libc/include/stdio.h"
  },
  {
   "linker_set_key" : "sys_siglist",
   "name" : "sys_siglist",
   "referenced_type" : "_ZTIA65_KPKc",
   "source_file" : "bionic/libc/include/signal.h"
  },
  {
   "linker_set_key" : "sys_signame",
   "name" : "sys_signame",
   "referenced_type" : "_ZTIA65_KPKc",
   "source_file" : "bionic/libc/include/signal.h"
  },
  {
   "linker_set_key" : "timezone",
   "name" : "timezone",
   "referenced_type" : "_ZTIl",
   "source_file" : "bionic/libc/include/time.h"
  },
  {
   "linker_set_key" : "tzname",
   "name" : "tzname",
   "referenced_type" : "_ZTIA_Pc",
   "source_file" : "bionic/libc/include/time.h"
  }
 ],
 "lvalue_reference_types" :
 [
  {
   "alignment" : 4,
   "linker_set_key" : "_ZTIRA64_j",
   "name" : "unsigned int (&)[64]",
   "referenced_type" : "_ZTIA64_j",
   "self_type" : "_ZTIRA64_j",
   "size" : 4,
   "source_file" : "external/scudo/standalone/combined.h"
  },
  {
   "alignment" : 4,
   "linker_set_key" : "_ZTIRKN5scudo10LargeBlock6HeaderE",
   "name" : "const scudo::LargeBlock::Header &",
   "referenced_type" : "_ZTIKN5scudo10LargeBlock6HeaderE",
   "self_type" : "_ZTIRKN5scudo10LargeBlock6HeaderE",
   "size" : 4,
   "source_file" : "external/scudo/standalone/list.h"
  },
  {
   "alignment" : 4,
   "linker_set_key" : "_ZTIRKN5scudo10LocalStatsE",
   "name" : "const scudo::LocalStats &",
   "referenced_type" : "_ZTIKN5scudo10LocalStatsE",
   "self_type" : "_ZTIRKN5scudo10LocalStatsE",
   "size" : 4,
   "source_file" : "external/scudo/standalone/list.h"
  },
  {
   "alignment" : 4,
   "linker_set_key" : "_ZTIRKN5scudo15QuarantineBatchE",
   "name" : "const scudo::QuarantineBatch &",
   "referenced_type" : "_ZTIKN5scudo15QuarantineBatchE",
   "self_type" : "_ZTIRKN5scudo15QuarantineBatchE",
   "size" : 4,
   "source_file" : "external/scudo/standalone/list.h"
  },
  {
   "alignment" : 4,
   "linker_set_key" : "_ZTIRKN5scudo28SizeClassAllocatorLocalCacheINS_20SizeClassAllocator32INS_13AndroidConfigEEEE13TransferBatchE",
   "name" : "const scudo::SizeClassAllocatorLocalCache<SizeClassAllocator32<AndroidConfig>>::TransferBatch &",
   "referenced_type" : "_ZTIKN5scudo28SizeClassAllocatorLocalCacheINS_20SizeClassAllocator32INS_13AndroidConfigEEEE13TransferBatchE",
   "self_type" : "_ZTIRKN5scudo28SizeClassAllocatorLocalCacheINS_20SizeClassAllocator32INS_13AndroidConfigEEEE13TransferBatchE",
   "size" : 4,
   "source_file" : "external/scudo/standalone/list.h"
  },
  {
   "alignment" : 4,
   "linker_set_key" : "_ZTIRKN5scudo28SizeClassAllocatorLocalCacheINS_20SizeClassAllocator32INS_19AndroidSvelteConfigEEEE13TransferBatchE",
   "name" : "const scudo::SizeClassAllocatorLocalCache<SizeClassAllocator32<AndroidSvelteConfig>>::TransferBatch &",
   "referenced_type" : "_ZTIKN5scudo28SizeClassAllocatorLocalCacheINS_20SizeClassAllocator32INS_19AndroidSvelteConfigEEEE13TransferBatchE",
   "self_type" : "_ZTIRKN5scudo28SizeClassAllocatorLocalCacheINS_20SizeClassAllocator32INS_19AndroidSvelteConfigEEEE13TransferBatchE",
   "size" : 4,
   "source_file" : "external/scudo/standalone/list.h"
  },
  {
   "alignment" : 4,
   "linker_set_key" : "_ZTIRKN5scudo5Chunk14UnpackedHeaderE",
   "name" : "const scudo::Chunk::UnpackedHeader &",
   "referenced_type" : "_ZTIKN5scudo5Chunk14UnpackedHeaderE",
   "self_type" : "_ZTIRKN5scudo5Chunk14UnpackedHeaderE",
   "size" : 4,
   "source_file" : "external/scudo/standalone/common.h"
  },
  {
   "alignment" : 4,
   "linker_set_key" : "_ZTIRKy",
   "name" : "const unsigned long long &",
   "referenced_type" : "_ZTIKy",
   "self_type" : "_ZTIRKy",
   "size" : 4,
   "source_file" : "external/scudo/standalone/common.h"
  },
  {
   "alignment" : 4,
   "linker_set_key" : "_ZTIRN5scudo10LocalStatsE",
   "name" : "scudo::LocalStats &",
   "referenced_type" : "_ZTIN5scudo10LocalStatsE",
   "self_type" : "_ZTIRN5scudo10LocalStatsE",
   "size" : 4,
   "source_file" : "external/scudo/standalone/local_cache.h"
  },
  {
   "alignment" : 4,
   "linker_set_key" : "_ZTIRN5scudo11HybridMutexE",
   "name" : "scudo::HybridMutex &",
   "referenced_type" : "_ZTIN5scudo11HybridMutexE",
   "self_type" : "_ZTIRN5scudo11HybridMutexE",
   "size" : 4,
   "source_file" : "external/scudo/standalone/mutex.h"
  },
  {
   "alignment" : 4,
   "linker_set_key" : "_ZTIRN5scudo12IteratorBaseIKNS_10LargeBlock6HeaderEEE",
   "name" : "scudo::IteratorBase<const scudo::LargeBlock::Header> &",
   "referenced_type" : "_ZTIN5scudo12IteratorBaseIKNS_10LargeBlock6HeaderEEE",
   "self_type" : "_ZTIRN5scudo12IteratorBaseIKNS_10LargeBlock6HeaderEEE",
   "size" : 4,
   "source_file" : "external/scudo/standalone/list.h"
  },
  {
   "alignment" : 4,
   "linker_set_key" : "_ZTIRN5scudo12IteratorBaseIKNS_10LocalStatsEEE",
   "name" : "scudo::IteratorBase<const scudo::LocalStats> &",
   "referenced_type" : "_ZTIN5scudo12IteratorBaseIKNS_10LocalStatsEEE",
   "self_type" : "_ZTIRN5scudo12IteratorBaseIKNS_10LocalStatsEEE",
   "size" : 4,
   "source_file" : "external/scudo/standalone/list.h"
  },
  {
   "alignment" : 4,
   "linker_set_key" : "_ZTIRN5scudo12IteratorBaseIKNS_15QuarantineBatchEEE",
   "name" : "scudo::IteratorBase<const scudo::QuarantineBatch> &",
   "referenced_type" : "_ZTIN5scudo12IteratorBaseIKNS_15QuarantineBatchEEE",
   "self_type" : "_ZTIRN5scudo12IteratorBaseIKNS_15QuarantineBatchEEE",
   "size" : 4,
   "source_file" : "external/scudo/standalone/list.h"
  },
  {
   "alignment" : 4,
   "linker_set_key" : "_ZTIRN5scudo12IteratorBaseIKNS_28SizeClassAllocatorLocalCacheINS_20SizeClassAllocator32INS_13AndroidConfigEEEE13TransferBatchEEE",
   "name" : "scudo::IteratorBase<const scudo::SizeClassAllocatorLocalCache<SizeClassAllocator32<AndroidConfig>>::TransferBatch> &",
   "referenced_type" : "_ZTIN5scudo12IteratorBaseIKNS_28SizeClassAllocatorLocalCacheINS_20SizeClassAllocator32INS_13AndroidConfigEEEE13TransferBatchEEE",
   "self_type" : "_ZTIRN5scudo12IteratorBaseIKNS_28SizeClassAllocatorLocalCacheINS_20SizeClassAllocator32INS_13AndroidConfigEEEE13TransferBatchEEE",
   "size" : 4,
   "source_file" : "external/scudo/standalone/list.h"
  },
  {
   "alignment" : 4,
   "linker_set_key" : "_ZTIRN5scudo12IteratorBaseIKNS_28SizeClassAllocatorLocalCacheINS_20SizeClassAllocator32INS_19AndroidSvelteConfigEEEE13TransferBatchEEE",
   "name" : "scudo::IteratorBase<const scudo::SizeClassAllocatorLocalCache<SizeClassAllocator32<AndroidSvelteConfig>>::TransferBatch> &",
   "referenced_type" : "_ZTIN5scudo12IteratorBaseIKNS_28SizeClassAllocatorLocalCacheINS_20SizeClassAllocator32INS_19AndroidSvelteConfigEEEE13TransferBatchEEE",
   "self_type" : "_ZTIRN5scudo12IteratorBaseIKNS_28SizeClassAllocatorLocalCacheINS_20SizeClassAllocator32INS_19AndroidSvelteConfigEEEE13TransferBatchEEE",
   "size" : 4,
   "source_file" : "external/scudo/standalone/list.h"
  },
  {
   "alignment" : 4,
   "linker_set_key" : "_ZTIRN5scudo17MapAllocatorCacheINS_13AndroidConfigEE11CachedBlockE",
   "name" : "scudo::MapAllocatorCache<AndroidConfig>::CachedBlock &",
   "referenced_type" : "_ZTIN5scudo17MapAllocatorCacheINS_13AndroidConfigEE11CachedBlockE",
   "self_type" : "_ZTIRN5scudo17MapAllocatorCacheINS_13AndroidConfigEE11CachedBlockE",
   "size" : 4,
   "source_file" : "external/scudo/standalone/secondary.h"
  },
  {
   "alignment" : 4,
   "linker_set_key" : "_ZTIRN5scudo17MapAllocatorCacheINS_19AndroidSvelteConfigEE11CachedBlockE",
   "name" : "scudo::MapAllocatorCache<AndroidSvelteConfig>::CachedBlock &",
   "referenced_type" : "_ZTIN5scudo17MapAllocatorCacheINS_19AndroidSvelteConfigEE11CachedBlockE",
   "self_type" : "_ZTIRN5scudo17MapAllocatorCacheINS_19AndroidSvelteConfigEE11CachedBlockE",
   "size" : 4,
   "source_file" : "external/scudo/standalone/secondary.h"
  },
  {
   "alignment" : 4,
   "linker_set_key" : "_ZTIRN5scudo28SizeClassAllocatorLocalCacheINS_20SizeClassAllocator32INS_13AndroidConfigEEEEE",
   "name" : "scudo::SizeClassAllocatorLocalCache<scudo::SizeClassAllocator32<scudo::AndroidConfig>> &",
   "referenced_type" : "_ZTIN5scudo28SizeClassAllocatorLocalCacheINS_20SizeClassAllocator32INS_13AndroidConfigEEEEE",
   "self_type" : "_ZTIRN5scudo28SizeClassAllocatorLocalCacheINS_20SizeClassAllocator32INS_13AndroidConfigEEEEE",
   "size" : 4,
   "source_file" : "external/scudo/standalone/combined.h"
  },
  {
   "alignment" : 4,
   "linker_set_key" : "_ZTIRN5scudo28SizeClassAllocatorLocalCacheINS_20SizeClassAllocator32INS_19AndroidSvelteConfigEEEEE",
   "name" : "scudo::SizeClassAllocatorLocalCache<scudo::SizeClassAllocator32<scudo::AndroidSvelteConfig>> &",
   "referenced_type" : "_ZTIN5scudo28SizeClassAllocatorLocalCacheINS_20SizeClassAllocator32INS_19AndroidSvelteConfigEEEEE",
   "self_type" : "_ZTIRN5scudo28SizeClassAllocatorLocalCacheINS_20SizeClassAllocator32INS_19AndroidSvelteConfigEEEEE",
   "size" : 4,
   "source_file" : "external/scudo/standalone/combined.h"
  },
  {
   "alignment" : 4,
   "linker_set_key" : "_ZTIRN5scudo9AllocatorINS_13AndroidConfigEXadL_Z21scudo_malloc_postinitEEEE",
   "name" : "scudo::Allocator<scudo::AndroidConfig, &scudo_malloc_postinit> &",
   "referenced_type" : "_ZTIN5scudo9AllocatorINS_13AndroidConfigEXadL_Z21scudo_malloc_postinitEEEE",
   "self_type" : "_ZTIRN5scudo9AllocatorINS_13AndroidConfigEXadL_Z21scudo_malloc_postinitEEEE",
   "size" : 4,
   "source_file" : "external/scudo/standalone/combined.h"
  },
  {
   "alignment" : 4,
   "linker_set_key" : "_ZTIRN5scudo9AllocatorINS_19AndroidSvelteConfigEXadL_Z28scudo_svelte_malloc_postinitEEEE",
   "name" : "scudo::Allocator<scudo::AndroidSvelteConfig, &scudo_svelte_malloc_postinit> &",
   "referenced_type" : "_ZTIN5scudo9AllocatorINS_19AndroidSvelteConfigEXadL_Z28scudo_svelte_malloc_postinitEEEE",
   "self_type" : "_ZTIRN5scudo9AllocatorINS_19AndroidSvelteConfigEXadL_Z28scudo_svelte_malloc_postinitEEEE",
   "size" : 4,
   "source_file" : "external/scudo/standalone/combined.h"
  },
  {
   "alignment" : 4,
   "linker_set_key" : "_ZTIRPv",
   "name" : "void *&",
   "referenced_type" : "_ZTIPv",
   "self_type" : "_ZTIRPv",
   "size" : 4,
   "source_file" : "external/scudo/standalone/common.h"
  },
  {
   "alignment" : 4,
   "linker_set_key" : "_ZTIRc",
   "name" : "char &",
   "referenced_type" : "_ZTIc",
   "self_type" : "_ZTIRc",
   "size" : 4,
   "source_file" : "external/scudo/standalone/vector.h"
  },
  {
   "alignment" : 4,
   "linker_set_key" : "_ZTIRj",
   "name" : "unsigned int &",
   "referenced_type" : "_ZTIj",
   "self_type" : "_ZTIRj",
   "size" : 4,
   "source_file" : "external/scudo/standalone/combined.h"
  },
  {
   "alignment" : 4,
   "linker_set_key" : "_ZTIRm",
   "name" : "unsigned long &",
   "referenced_type" : "_ZTIm",
   "self_type" : "_ZTIRm",
   "size" : 4,
   "source_file" : "external/scudo/standalone/common.h"
  }
 ],
 "pointer_types" :
 [
  {
   "alignment" : 4,
   "linker_set_key" : "_ZTIP11user_fpregs",
   "name" : "user_fpregs *",
   "referenced_type" : "_ZTI11user_fpregs",
   "self_type" : "_ZTIP11user_fpregs",
   "size" : 4,
   "source_file" : "bionic/libc/include/sys/user.h"
  },
  {
   "alignment" : 4,
   "linker_set_key" : "_ZTIP16scudo_error_info",
   "name" : "scudo_error_info *",
   "referenced_type" : "_ZTI16scudo_error_info",
   "self_type" : "_ZTIP16scudo_error_info",
   "size" : 4,
   "source_file" : "external/scudo/standalone/include/scudo/interface.h"
  },
  {
   "alignment" : 4,
   "linker_set_key" : "_ZTIP19__pthread_cleanup_t",
   "name" : "__pthread_cleanup_t *",
   "referenced_type" : "_ZTI19__pthread_cleanup_t",
   "self_type" : "_ZTIP19__pthread_cleanup_t",
   "size" : 4,
   "source_file" : "bionic/libc/include/pthread.h"
  },
  {
   "alignment" : 4,
   "linker_set_key" : "_ZTIP7__sFILE",
   "name" : "__sFILE *",
   "referenced_type" : "_ZTI7__sFILE",
   "self_type" : "_ZTIP7__sFILE",
   "size" : 4,
   "source_file" : "bionic/libc/include/stdio.h"
  },
  {
   "alignment" : 4,
   "linker_set_key" : "_ZTIP7siginfo",
   "name" : "siginfo *",
   "referenced_type" : "_ZTI7siginfo",
   "self_type" : "_ZTIP7siginfo",
   "size" : 4,
   "source_file" : "bionic/libc/kernel/uapi/asm-arm/asm/signal.h"
  },
  {
   "alignment" : 4,
   "linker_set_key" : "_ZTIP8ucontext",
   "name" : "ucontext *",
   "referenced_type" : "_ZTI8ucontext",
   "self_type" : "_ZTIP8ucontext",
   "size" : 4,
   "source_file" : "bionic/libc/include/sys/ucontext.h"
  },
  {
   "alignment" : 4,
   "linker_set_key" : "_ZTIP9user_regs",
   "name" : "user_regs *",
   "referenced_type" : "_ZTI9user_regs",
   "self_type" : "_ZTIP9user_regs",
   "size" : 4,
   "source_file" : "bionic/libc/include/sys/user.h"
  },
  {
   "alignment" : 4,
   "linker_set_key" : "_ZTIPFv6sigvalE",
   "name" : "void (*)(sigval)",
   "referenced_type" : "_ZTIFv6sigvalE",
   "self_type" : "_ZTIPFv6sigvalE",
   "size" : 4,
   "source_file" : "bionic/libc/kernel/uapi/asm-generic/siginfo.h"
  },
  {
   "alignment" : 4,
   "linker_set_key" : "_ZTIPFvPvE",
   "name" : "void (*)(void *)",
   "referenced_type" : "_ZTIFvPvE",
   "self_type" : "_ZTIPFvPvE",
   "size" : 4,
   "source_file" : "bionic/libc/include/pthread.h"
  },
  {
   "alignment" : 4,
   "linker_set_key" : "_ZTIPFviE",
   "name" : "void (*)(int)",
   "referenced_type" : "_ZTIFviE",
   "self_type" : "_ZTIPFviE",
   "size" : 4,
   "source_file" : "bionic/libc/kernel/uapi/asm-arm/asm/signal.h"
  },
  {
   "alignment" : 4,
   "linker_set_key" : "_ZTIPFviP7siginfoPvE",
   "name" : "void (*)(int, siginfo *, void *)",
   "referenced_type" : "_ZTIFviP7siginfoPvE",
   "self_type" : "_ZTIPFviP7siginfoPvE",
   "size" : 4,
   "source_file" : "bionic/libc/kernel/uapi/asm-arm/asm/signal.h"
  },
  {
   "alignment" : 4,
   "linker_set_key" : "_ZTIPFvjjPvE",
   "name" : "void (*)(unsigned int, unsigned int, void *)",
   "referenced_type" : "_ZTIFvjjPvE",
   "self_type" : "_ZTIPFvjjPvE",
   "size" : 4,
   "source_file" : "external/scudo/standalone/combined.h"
  },
  {
   "alignment" : 4,
   "linker_set_key" : "_ZTIPFvvE",
   "name" : "void (*)()",
   "referenced_type" : "_ZTIFvvE",
   "self_type" : "_ZTIPFvvE",
   "size" : 4,
   "source_file" : "bionic/libc/kernel/uapi/asm-arm/asm/signal.h"
  },
  {
   "alignment" : 4,
   "linker_set_key" : "_ZTIPKN5scudo10LargeBlock6HeaderE",
   "name" : "const scudo::LargeBlock::Header *",
   "referenced_type" : "_ZTIKN5scudo10LargeBlock6HeaderE",
   "self_type" : "_ZTIPKN5scudo10LargeBlock6HeaderE",
   "size" : 4,
   "source_file" : "external/scudo/standalone/list.h"
  },
  {
   "alignment" : 4,
   "linker_set_key" : "_ZTIPKN5scudo10LocalStatsE",
   "name" : "const scudo::LocalStats *",
   "referenced_type" : "_ZTIKN5scudo10LocalStatsE",
   "self_type" : "_ZTIPKN5scudo10LocalStatsE",
   "size" : 4,
   "source_file" : "external/scudo/standalone/list.h"
  },
  {
   "alignment" : 4,
   "linker_set_key" : "_ZTIPKN5scudo10StackDepotE",
   "name" : "const scudo::StackDepot *",
   "referenced_type" : "_ZTIKN5scudo10StackDepotE",
   "self_type" : "_ZTIPKN5scudo10StackDepotE",
   "size" : 4,
   "source_file" : "external/scudo/standalone/stack_depot.h"
  },
  {
   "alignment" : 4,
   "linker_set_key" : "_ZTIPKN5scudo10atomic_u64E",
   "name" : "const scudo::atomic_u64 *",
   "referenced_type" : "_ZTIKN5scudo10atomic_u64E",
   "self_type" : "_ZTIPKN5scudo10atomic_u64E",
   "size" : 4,
   "source_file" : "external/scudo/standalone/chunk.h"
  },
  {
   "alignment" : 4,
   "linker_set_key" : "_ZTIPKN5scudo11GlobalStatsE",
   "name" : "const scudo::GlobalStats *",
   "referenced_type" : "_ZTIKN5scudo11GlobalStatsE",
   "self_type" : "_ZTIPKN5scudo11GlobalStatsE",
   "size" : 4,
   "source_file" : "external/scudo/standalone/stats.h"
  },
  {
   "alignment" : 4,
   "linker_set_key" : "_ZTIPKN5scudo12IteratorBaseIKNS_10LargeBlock6HeaderEEE",
   "name" : "const scudo::IteratorBase<const scudo::LargeBlock::Header> *",
   "referenced_type" : "_ZTIKN5scudo12IteratorBaseIKNS_10LargeBlock6HeaderEEE",
   "self_type" : "_ZTIPKN5scudo12IteratorBaseIKNS_10LargeBlock6HeaderEEE",
   "size" : 4,
   "source_file" : "external/scudo/standalone/list.h"
  },
  {
   "alignment" : 4,
   "linker_set_key" : "_ZTIPKN5scudo12IteratorBaseIKNS_10LocalStatsEEE",
   "name" : "const scudo::IteratorBase<const scudo::LocalStats> *",
   "referenced_type" : "_ZTIKN5scudo12IteratorBaseIKNS_10LocalStatsEEE",
   "self_type" : "_ZTIPKN5scudo12IteratorBaseIKNS_10LocalStatsEEE",
   "size" : 4,
   "source_file" : "external/scudo/standalone/list.h"
  },
  {
   "alignment" : 4,
   "linker_set_key" : "_ZTIPKN5scudo12IteratorBaseIKNS_15QuarantineBatchEEE",
   "name" : "const scudo::IteratorBase<const scudo::QuarantineBatch> *",
   "referenced_type" : "_ZTIKN5scudo12IteratorBaseIKNS_15QuarantineBatchEEE",
   "self_type" : "_ZTIPKN5scudo12IteratorBaseIKNS_15QuarantineBatchEEE",
   "size" : 4,
   "source_file" : "external/scudo/standalone/list.h"
  },
  {
   "alignment" : 4,
   "linker_set_key" : "_ZTIPKN5scudo12IteratorBaseIKNS_28SizeClassAllocatorLocalCacheINS_20SizeClassAllocator32INS_13AndroidConfigEEEE13TransferBatchEEE",
   "name" : "const scudo::IteratorBase<const scudo::SizeClassAllocatorLocalCache<SizeClassAllocator32<AndroidConfig>>::TransferBatch> *",
   "referenced_type" : "_ZTIKN5scudo12IteratorBaseIKNS_28SizeClassAllocatorLocalCacheINS_20SizeClassAllocator32INS_13AndroidConfigEEEE13TransferBatchEEE",
   "self_type" : "_ZTIPKN5scudo12IteratorBaseIKNS_28SizeClassAllocatorLocalCacheINS_20SizeClassAllocator32INS_13AndroidConfigEEEE13TransferBatchEEE",
   "size" : 4,
   "source_file" : "external/scudo/standalone/list.h"
  },
  {
   "alignment" : 4,
   "linker_set_key" : "_ZTIPKN5scudo12IteratorBaseIKNS_28SizeClassAllocatorLocalCacheINS_20SizeClassAllocator32INS_19AndroidSvelteConfigEEEE13TransferBatchEEE",
   "name" : "const scudo::IteratorBase<const scudo::SizeClassAllocatorLocalCache<SizeClassAllocator32<AndroidSvelteConfig>>::TransferBatch> *",
   "referenced_type" : "_ZTIKN5scudo12IteratorBaseIKNS_28SizeClassAllocatorLocalCacheINS_20SizeClassAllocator32INS_19AndroidSvelteConfigEEEE13TransferBatchEEE",
   "self_type" : "_ZTIPKN5scudo12IteratorBaseIKNS_28SizeClassAllocatorLocalCacheINS_20SizeClassAllocator32INS_19AndroidSvelteConfigEEEE13TransferBatchEEE",
   "size" : 4,
   "source_file" : "external/scudo/standalone/list.h"
  },
  {
   "alignment" : 4,
   "linker_set_key" : "_ZTIPKN5scudo12MapAllocatorINS_13AndroidConfigEEE",
   "name" : "const scudo::MapAllocator<scudo::AndroidConfig> *",
   "referenced_type" : "_ZTIKN5scudo12MapAllocatorINS_13AndroidConfigEEE",
   "self_type" : "_ZTIPKN5scudo12MapAllocatorINS_13AndroidConfigEEE",
   "size" : 4,
   "source_file" : "external/scudo/standalone/secondary.h"
  },
  {
   "alignment" : 4,
   "linker_set_key" : "_ZTIPKN5scudo12ScopedStringE",
   "name" : "const scudo::ScopedString *",
   "referenced_type" : "_ZTIKN5scudo12ScopedStringE",
   "self_type" : "_ZTIPKN5scudo12ScopedStringE",
   "size" : 4,
   "source_file" : "external/scudo/standalone/string_utils.h"
  },
  {
   "alignment" : 4,
   "linker_set_key" : "_ZTIPKN5scudo12VectorNoCtorIcEE",
   "name" : "const scudo::VectorNoCtor<char> *",
   "referenced_type" : "_ZTIKN5scudo12VectorNoCtorIcEE",
   "self_type" : "_ZTIPKN5scudo12VectorNoCtorIcEE",
   "size" : 4,
   "source_file" : "external/scudo/standalone/vector.h"
  },
  {
   "alignment" : 4,
   "linker_set_key" : "_ZTIPKN5scudo13AtomicOptionsE",
   "name" : "const scudo::AtomicOptions *",
   "referenced_type" : "_ZTIKN5scudo13AtomicOptionsE",
   "self_type" : "_ZTIPKN5scudo13AtomicOptionsE",
   "size" : 4,
   "source_file" : "external/scudo/standalone/options.h"
  },
  {
   "alignment" : 4,
   "linker_set_key" : "_ZTIPKN5scudo13IntrusiveListINS_10LargeBlock6HeaderEEE",
   "name" : "const scudo::IntrusiveList<scudo::LargeBlock::Header> *",
   "referenced_type" : "_ZTIKN5scudo13IntrusiveListINS_10LargeBlock6HeaderEEE",
   "self_type" : "_ZTIPKN5scudo13IntrusiveListINS_10LargeBlock6HeaderEEE",
   "size" : 4,
   "source_file" : "external/scudo/standalone/list.h"
  },
  {
   "alignment" : 4,
   "linker_set_key" : "_ZTIPKN5scudo13IntrusiveListINS_10LocalStatsEEE",
   "name" : "const scudo::IntrusiveList<scudo::LocalStats> *",
   "referenced_type" : "_ZTIKN5scudo13IntrusiveListINS_10LocalStatsEEE",
   "self_type" : "_ZTIPKN5scudo13IntrusiveListINS_10LocalStatsEEE",
   "size" : 4,
   "source_file" : "external/scudo/standalone/list.h"
  },
  {
   "alignment" : 4,
   "linker_set_key" : "_ZTIPKN5scudo13IntrusiveListINS_15QuarantineBatchEEE",
   "name" : "const scudo::IntrusiveList<scudo::QuarantineBatch> *",
   "referenced_type" : "_ZTIKN5scudo13IntrusiveListINS_15QuarantineBatchEEE",
   "self_type" : "_ZTIPKN5scudo13IntrusiveListINS_15QuarantineBatchEEE",
   "size" : 4,
   "source_file" : "external/scudo/standalone/list.h"
  },
  {
   "alignment" : 4,
   "linker_set_key" : "_ZTIPKN5scudo13IntrusiveListINS_28SizeClassAllocatorLocalCacheINS_20SizeClassAllocator32INS_13AndroidConfigEEEE13TransferBatchEEE",
   "name" : "const scudo::IntrusiveList<scudo::SizeClassAllocatorLocalCache<SizeClassAllocator32<AndroidConfig>>::TransferBatch> *",
   "referenced_type" : "_ZTIKN5scudo13IntrusiveListINS_28SizeClassAllocatorLocalCacheINS_20SizeClassAllocator32INS_13AndroidConfigEEEE13TransferBatchEEE",
   "self_type" : "_ZTIPKN5scudo13IntrusiveListINS_28SizeClassAllocatorLocalCacheINS_20SizeClassAllocator32INS_13AndroidConfigEEEE13TransferBatchEEE",
   "size" : 4,
   "source_file" : "external/scudo/standalone/list.h"
  },
  {
   "alignment" : 4,
   "linker_set_key" : "_ZTIPKN5scudo13IntrusiveListINS_28SizeClassAllocatorLocalCacheINS_20SizeClassAllocator32INS_19AndroidSvelteConfigEEEE13TransferBatchEEE",
   "name" : "const scudo::IntrusiveList<scudo::SizeClassAllocatorLocalCache<SizeClassAllocator32<AndroidSvelteConfig>>::TransferBatch> *",
   "referenced_type" : "_ZTIKN5scudo13IntrusiveListINS_28SizeClassAllocatorLocalCacheINS_20SizeClassAllocator32INS_19AndroidSvelteConfigEEEE13TransferBatchEEE",
   "self_type" : "_ZTIPKN5scudo13IntrusiveListINS_28SizeClassAllocatorLocalCacheINS_20SizeClassAllocator32INS_19AndroidSvelteConfigEEEE13TransferBatchEEE",
   "size" : 4,
   "source_file" : "external/scudo/standalone/list.h"
  },
  {
   "alignment" : 4,
   "linker_set_key" : "_ZTIPKN5scudo15QuarantineBatchE",
   "name" : "const scudo::QuarantineBatch *",
   "referenced_type" : "_ZTIKN5scudo15QuarantineBatchE",
   "self_type" : "_ZTIPKN5scudo15QuarantineBatchE",
   "size" : 4,
   "source_file" : "external/scudo/standalone/list.h"
  },
  {
   "alignment" : 4,
   "linker_set_key" : "_ZTIPKN5scudo15QuarantineCacheINS_9AllocatorINS_13AndroidConfigEXadL_Z21scudo_malloc_postinitEEE18QuarantineCallbackEEE",
   "name" : "const scudo::QuarantineCache<scudo::Allocator<AndroidConfig, &scudo_malloc_postinit>::QuarantineCallback> *",
   "referenced_type" : "_ZTIKN5scudo15QuarantineCacheINS_9AllocatorINS_13AndroidConfigEXadL_Z21scudo_malloc_postinitEEE18QuarantineCallbackEEE",
   "self_type" : "_ZTIPKN5scudo15QuarantineCacheINS_9AllocatorINS_13AndroidConfigEXadL_Z21scudo_malloc_postinitEEE18QuarantineCallbackEEE",
   "size" : 4,
   "source_file" : "external/scudo/standalone/quarantine.h"
  },
  {
   "alignment" : 4,
   "linker_set_key" : "_ZTIPKN5scudo15QuarantineCacheINS_9AllocatorINS_19AndroidSvelteConfigEXadL_Z28scudo_svelte_malloc_postinitEEE18QuarantineCallbackEEE",
   "name" : "const scudo::QuarantineCache<scudo::Allocator<AndroidSvelteConfig, &scudo_svelte_malloc_postinit>::QuarantineCallback> *",
   "referenced_type" : "_ZTIKN5scudo15QuarantineCacheINS_9AllocatorINS_19AndroidSvelteConfigEXadL_Z28scudo_svelte_malloc_postinitEEE18QuarantineCallbackEEE",
   "self_type" : "_ZTIPKN5scudo15QuarantineCacheINS_9AllocatorINS_19AndroidSvelteConfigEXadL_Z28scudo_svelte_malloc_postinitEEE18QuarantineCallbackEEE",
   "size" : 4,
   "source_file" : "external/scudo/standalone/quarantine.h"
  },
  {
   "alignment" : 4,
   "linker_set_key" : "_ZTIPKN5scudo15ReleaseRecorderE",
   "name" : "const scudo::ReleaseRecorder *",
   "referenced_type" : "_ZTIKN5scudo15ReleaseRecorderE",
   "self_type" : "_ZTIPKN5scudo15ReleaseRecorderE",
   "size" : 4,
   "source_file" : "external/scudo/standalone/release.h"
  },
  {
   "alignment" : 4,
   "linker_set_key" : "_ZTIPKN5scudo16GlobalQuarantineINS_9AllocatorINS_13AndroidConfigEXadL_Z21scudo_malloc_postinitEEE18QuarantineCallbackEvEE",
   "name" : "const scudo::GlobalQuarantine<scudo::Allocator<AndroidConfig, &scudo_malloc_postinit>::QuarantineCallback, void> *",
   "referenced_type" : "_ZTIKN5scudo16GlobalQuarantineINS_9AllocatorINS_13AndroidConfigEXadL_Z21scudo_malloc_postinitEEE18QuarantineCallbackEvEE",
   "self_type" : "_ZTIPKN5scudo16GlobalQuarantineINS_9AllocatorINS_13AndroidConfigEXadL_Z21scudo_malloc_postinitEEE18QuarantineCallbackEvEE",
   "size" : 4,
   "source_file" : "external/scudo/standalone/quarantine.h"
  },
  {
   "alignment" : 4,
   "linker_set_key" : "_ZTIPKN5scudo16GlobalQuarantineINS_9AllocatorINS_19AndroidSvelteConfigEXadL_Z28scudo_svelte_malloc_postinitEEE18QuarantineCallbackEvEE",
   "name" : "const scudo::GlobalQuarantine<scudo::Allocator<AndroidSvelteConfig, &scudo_svelte_malloc_postinit>::QuarantineCallback, void> *",
   "referenced_type" : "_ZTIKN5scudo16GlobalQuarantineINS_9AllocatorINS_19AndroidSvelteConfigEXadL_Z28scudo_svelte_malloc_postinitEEE18QuarantineCallbackEvEE",
   "self_type" : "_ZTIPKN5scudo16GlobalQuarantineINS_9AllocatorINS_19AndroidSvelteConfigEXadL_Z28scudo_svelte_malloc_postinitEEE18QuarantineCallbackEvEE",
   "size" : 4,
   "source_file" : "external/scudo/standalone/quarantine.h"
  },
  {
   "alignment" : 4,
   "linker_set_key" : "_ZTIPKN5scudo18PackedCounterArrayE",
   "name" : "const scudo::PackedCounterArray *",
   "referenced_type" : "_ZTIKN5scudo18PackedCounterArrayE",
   "self_type" : "_ZTIPKN5scudo18PackedCounterArrayE",
   "size" : 4,
   "source_file" : "external/scudo/standalone/release.h"
  },
  {
   "alignment" : 4,
   "linker_set_key" : "_ZTIPKN5scudo18TSDRegistrySharedTINS_9AllocatorINS_13AndroidConfigEXadL_Z21scudo_malloc_postinitEEEELj8ELj2EEE",
   "name" : "const scudo::TSDRegistrySharedT<scudo::Allocator<scudo::AndroidConfig, &scudo_malloc_postinit>, 8, 2> *",
   "referenced_type" : "_ZTIKN5scudo18TSDRegistrySharedTINS_9AllocatorINS_13AndroidConfigEXadL_Z21scudo_malloc_postinitEEEELj8ELj2EEE",
   "self_type" : "_ZTIPKN5scudo18TSDRegistrySharedTINS_9AllocatorINS_13AndroidConfigEXadL_Z21scudo_malloc_postinitEEEELj8ELj2EEE",
   "size" : 4,
   "source_file" : "external/scudo/standalone/tsd_shared.h"
  },
  {
   "alignment" : 4,
   "linker_set_key" : "_ZTIPKN5scudo18TSDRegistrySharedTINS_9AllocatorINS_19AndroidSvelteConfigEXadL_Z28scudo_svelte_malloc_postinitEEEELj2ELj1EEE",
   "name" : "const scudo::TSDRegistrySharedT<scudo::Allocator<scudo::AndroidSvelteConfig, &scudo_svelte_malloc_postinit>, 2, 1> *",
   "referenced_type" : "_ZTIKN5scudo18TSDRegistrySharedTINS_9AllocatorINS_19AndroidSvelteConfigEXadL_Z28scudo_svelte_malloc_postinitEEEELj2ELj1EEE",
   "self_type" : "_ZTIPKN5scudo18TSDRegistrySharedTINS_9AllocatorINS_19AndroidSvelteConfigEXadL_Z28scudo_svelte_malloc_postinitEEEELj2ELj1EEE",
   "size" : 4,
   "source_file" : "external/scudo/standalone/tsd_shared.h"
  },
  {
   "alignment" : 4,
   "linker_set_key" : "_ZTIPKN5scudo20SizeClassAllocator32INS_13AndroidConfigEEE",
   "name" : "const scudo::SizeClassAllocator32<scudo::AndroidConfig> *",
   "referenced_type" : "_ZTIKN5scudo20SizeClassAllocator32INS_13AndroidConfigEEE",
   "self_type" : "_ZTIPKN5scudo20SizeClassAllocator32INS_13AndroidConfigEEE",
   "size" : 4,
   "source_file" : "external/scudo/standalone/primary32.h"
  },
  {
   "alignment" : 4,
   "linker_set_key" : "_ZTIPKN5scudo20SizeClassAllocator32INS_19AndroidSvelteConfigEEE",
   "name" : "const scudo::SizeClassAllocator32<scudo::AndroidSvelteConfig> *",
   "referenced_type" : "_ZTIKN5scudo20SizeClassAllocator32INS_19AndroidSvelteConfigEEE",
   "self_type" : "_ZTIPKN5scudo20SizeClassAllocator32INS_19AndroidSvelteConfigEEE",
   "size" : 4,
   "source_file" : "external/scudo/standalone/primary32.h"
  },
  {
   "alignment" : 4,
   "linker_set_key" : "_ZTIPKN5scudo28SizeClassAllocatorLocalCacheINS_20SizeClassAllocator32INS_13AndroidConfigEEEE13TransferBatchE",
   "name" : "const scudo::SizeClassAllocatorLocalCache<SizeClassAllocator32<AndroidConfig>>::TransferBatch *",
   "referenced_type" : "_ZTIKN5scudo28SizeClassAllocatorLocalCacheINS_20SizeClassAllocator32INS_13AndroidConfigEEEE13TransferBatchE",
   "self_type" : "_ZTIPKN5scudo28SizeClassAllocatorLocalCacheINS_20SizeClassAllocator32INS_13AndroidConfigEEEE13TransferBatchE",
   "size" : 4,
   "source_file" : "external/scudo/standalone/list.h"
  },
  {
   "alignment" : 4,
   "linker_set_key" : "_ZTIPKN5scudo28SizeClassAllocatorLocalCacheINS_20SizeClassAllocator32INS_19AndroidSvelteConfigEEEE13TransferBatchE",
   "name" : "const scudo::SizeClassAllocatorLocalCache<SizeClassAllocator32<AndroidSvelteConfig>>::TransferBatch *",
   "referenced_type" : "_ZTIKN5scudo28SizeClassAllocatorLocalCacheINS_20SizeClassAllocator32INS_19AndroidSvelteConfigEEEE13TransferBatchE",
   "self_type" : "_ZTIPKN5scudo28SizeClassAllocatorLocalCacheINS_20SizeClassAllocator32INS_19AndroidSvelteConfigEEEE13TransferBatchE",
   "size" : 4,
   "source_file" : "external/scudo/standalone/list.h"
  },
  {
   "alignment" : 4,
   "linker_set_key" : "_ZTIPKN5scudo7OptionsE",
   "name" : "const scudo::Options *",
   "referenced_type" : "_ZTIKN5scudo7OptionsE",
   "self_type" : "_ZTIPKN5scudo7OptionsE",
   "size" : 4,
   "source_file" : "external/scudo/standalone/options.h"
  },
  {
   "alignment" : 4,
   "linker_set_key" : "_ZTIPKN5scudo9AllocatorINS_13AndroidConfigEXadL_Z21scudo_malloc_postinitEEEE",
   "name" : "const scudo::Allocator<scudo::AndroidConfig, &scudo_malloc_postinit> *",
   "referenced_type" : "_ZTIKN5scudo9AllocatorINS_13AndroidConfigEXadL_Z21scudo_malloc_postinitEEEE",
   "self_type" : "_ZTIPKN5scudo9AllocatorINS_13AndroidConfigEXadL_Z21scudo_malloc_postinitEEEE",
   "size" : 4,
   "source_file" : "external/scudo/standalone/combined.h"
  },
  {
   "alignment" : 4,
   "linker_set_key" : "_ZTIPKc",
   "name" : "const char *",
   "referenced_type" : "_ZTIKc",
   "self_type" : "_ZTIPKc",
   "size" : 4,
   "source_file" : "bionic/libc/include/string.h"
  },
  {
   "alignment" : 4,
   "linker_set_key" : "_ZTIPKv",
   "name" : "const void *",
   "referenced_type" : "_ZTIKv",
   "self_type" : "_ZTIPKv",
   "size" : 4,
   "source_file" : "bionic/libc/include/string.h"
  },
  {
   "alignment" : 4,
   "linker_set_key" : "_ZTIPN5scudo10LargeBlock6HeaderE",
   "name" : "scudo::LargeBlock::Header *",
   "referenced_type" : "_ZTIN5scudo10LargeBlock6HeaderE",
   "self_type" : "_ZTIPN5scudo10LargeBlock6HeaderE",
   "size" : 4,
   "source_file" : "external/scudo/standalone/list.h"
  },
  {
   "alignment" : 4,
   "linker_set_key" : "_ZTIPN5scudo10LocalStatsE",
   "name" : "scudo::LocalStats *",
   "referenced_type" : "_ZTIN5scudo10LocalStatsE",
   "self_type" : "_ZTIPN5scudo10LocalStatsE",
   "size" : 4,
   "source_file" : "external/scudo/standalone/list.h"
  },
  {
   "alignment" : 4,
   "linker_set_key" : "_ZTIPN5scudo10ScopedLockE",
   "name" : "scudo::ScopedLock *",
   "referenced_type" : "_ZTIN5scudo10ScopedLockE",
   "self_type" : "_ZTIPN5scudo10ScopedLockE",
   "size" : 4,
   "source_file" : "external/scudo/standalone/mutex.h"
  },
  {
   "alignment" : 4,
   "linker_set_key" : "_ZTIPN5scudo10StackDepotE",
   "name" : "scudo::StackDepot *",
   "referenced_type" : "_ZTIN5scudo10StackDepotE",
   "self_type" : "_ZTIPN5scudo10StackDepotE",
   "size" : 4,
   "source_file" : "external/scudo/standalone/stack_depot.h"
  },
  {
   "alignment" : 4,
   "linker_set_key" : "_ZTIPN5scudo10atomic_u64E",
   "name" : "scudo::atomic_u64 *",
   "referenced_type" : "_ZTIN5scudo10atomic_u64E",
   "self_type" : "_ZTIPN5scudo10atomic_u64E",
   "size" : 4,
   "source_file" : "external/scudo/standalone/chunk.h"
  },
  {
   "alignment" : 4,
   "linker_set_key" : "_ZTIPN5scudo11FlatByteMapILm16384EEE",
   "name" : "scudo::FlatByteMap<16384> *",
   "referenced_type" : "_ZTIN5scudo11FlatByteMapILm16384EEE",
   "self_type" : "_ZTIPN5scudo11FlatByteMapILm16384EEE",
   "size" : 4,
   "source_file" : "external/scudo/standalone/bytemap.h"
  },
  {
   "alignment" : 4,
   "linker_set_key" : "_ZTIPN5scudo11FlatByteMapILm65536EEE",
   "name" : "scudo::FlatByteMap<65536> *",
   "referenced_type" : "_ZTIN5scudo11FlatByteMapILm65536EEE",
   "self_type" : "_ZTIPN5scudo11FlatByteMapILm65536EEE",
   "size" : 4,
   "source_file" : "external/scudo/standalone/bytemap.h"
  },
  {
   "alignment" : 4,
   "linker_set_key" : "_ZTIPN5scudo11GlobalStatsE",
   "name" : "scudo::GlobalStats *",
   "referenced_type" : "_ZTIN5scudo11GlobalStatsE",
   "self_type" : "_ZTIPN5scudo11GlobalStatsE",
   "size" : 4,
   "source_file" : "external/scudo/standalone/stats.h"
  },
  {
   "alignment" : 4,
   "linker_set_key" : "_ZTIPN5scudo11HybridMutexE",
   "name" : "scudo::HybridMutex *",
   "referenced_type" : "_ZTIN5scudo11HybridMutexE",
   "self_type" : "_ZTIPN5scudo11HybridMutexE",
   "size" : 4,
   "source_file" : "external/scudo/standalone/mutex.h"
  },
  {
   "alignment" : 4,
   "linker_set_key" : "_ZTIPN5scudo12IteratorBaseIKNS_10LargeBlock6HeaderEEE",
   "name" : "scudo::IteratorBase<const scudo::LargeBlock::Header> *",
   "referenced_type" : "_ZTIN5scudo12IteratorBaseIKNS_10LargeBlock6HeaderEEE",
   "self_type" : "_ZTIPN5scudo12IteratorBaseIKNS_10LargeBlock6HeaderEEE",
   "size" : 4,
   "source_file" : "external/scudo/standalone/list.h"
  },
  {
   "alignment" : 4,
   "linker_set_key" : "_ZTIPN5scudo12IteratorBaseIKNS_10LocalStatsEEE",
   "name" : "scudo::IteratorBase<const scudo::LocalStats> *",
   "referenced_type" : "_ZTIN5scudo12IteratorBaseIKNS_10LocalStatsEEE",
   "self_type" : "_ZTIPN5scudo12IteratorBaseIKNS_10LocalStatsEEE",
   "size" : 4,
   "source_file" : "external/scudo/standalone/list.h"
  },
  {
   "alignment" : 4,
   "linker_set_key" : "_ZTIPN5scudo12IteratorBaseIKNS_15QuarantineBatchEEE",
   "name" : "scudo::IteratorBase<const scudo::QuarantineBatch> *",
   "referenced_type" : "_ZTIN5scudo12IteratorBaseIKNS_15QuarantineBatchEEE",
   "self_type" : "_ZTIPN5scudo12IteratorBaseIKNS_15QuarantineBatchEEE",
   "size" : 4,
   "source_file" : "external/scudo/standalone/list.h"
  },
  {
   "alignment" : 4,
   "linker_set_key" : "_ZTIPN5scudo12IteratorBaseIKNS_28SizeClassAllocatorLocalCacheINS_20SizeClassAllocator32INS_13AndroidConfigEEEE13TransferBatchEEE",
   "name" : "scudo::IteratorBase<const scudo::SizeClassAllocatorLocalCache<SizeClassAllocator32<AndroidConfig>>::TransferBatch> *",
   "referenced_type" : "_ZTIN5scudo12IteratorBaseIKNS_28SizeClassAllocatorLocalCacheINS_20SizeClassAllocator32INS_13AndroidConfigEEEE13TransferBatchEEE",
   "self_type" : "_ZTIPN5scudo12IteratorBaseIKNS_28SizeClassAllocatorLocalCacheINS_20SizeClassAllocator32INS_13AndroidConfigEEEE13TransferBatchEEE",
   "size" : 4,
   "source_file" : "external/scudo/standalone/list.h"
  },
  {
   "alignment" : 4,
   "linker_set_key" : "_ZTIPN5scudo12IteratorBaseIKNS_28SizeClassAllocatorLocalCacheINS_20SizeClassAllocator32INS_19AndroidSvelteConfigEEEE13TransferBatchEEE",
   "name" : "scudo::IteratorBase<const scudo::SizeClassAllocatorLocalCache<SizeClassAllocator32<AndroidSvelteConfig>>::TransferBatch> *",
   "referenced_type" : "_ZTIN5scudo12IteratorBaseIKNS_28SizeClassAllocatorLocalCacheINS_20SizeClassAllocator32INS_19AndroidSvelteConfigEEEE13TransferBatchEEE",
   "self_type" : "_ZTIPN5scudo12IteratorBaseIKNS_28SizeClassAllocatorLocalCacheINS_20SizeClassAllocator32INS_19AndroidSvelteConfigEEEE13TransferBatchEEE",
   "size" : 4,
   "source_file" : "external/scudo/standalone/list.h"
  },
  {
   "alignment" : 4,
   "linker_set_key" : "_ZTIPN5scudo12MapAllocatorINS_13AndroidConfigEEE",
   "name" : "scudo::MapAllocator<scudo::AndroidConfig> *",
   "referenced_type" : "_ZTIN5scudo12MapAllocatorINS_13AndroidConfigEEE",
   "self_type" : "_ZTIPN5scudo12MapAllocatorINS_13AndroidConfigEEE",
   "size" : 4,
   "source_file" : "external/scudo/standalone/secondary.h"
  },
  {
   "alignment" : 4,
   "linker_set_key" : "_ZTIPN5scudo12MapAllocatorINS_19AndroidSvelteConfigEEE",
   "name" : "scudo::MapAllocator<scudo::AndroidSvelteConfig> *",
   "referenced_type" : "_ZTIN5scudo12MapAllocatorINS_19AndroidSvelteConfigEEE",
   "self_type" : "_ZTIPN5scudo12MapAllocatorINS_19AndroidSvelteConfigEEE",
   "size" : 4,
   "source_file" : "external/scudo/standalone/secondary.h"
  },
  {
   "alignment" : 4,
   "linker_set_key" : "_ZTIPN5scudo12ScopedStringE",
   "name" : "scudo::ScopedString *",
   "referenced_type" : "_ZTIN5scudo12ScopedStringE",
   "self_type" : "_ZTIPN5scudo12ScopedStringE",
   "size" : 4,
   "source_file" : "external/scudo/standalone/string_utils.h"
  },
  {
   "alignment" : 4,
   "linker_set_key" : "_ZTIPN5scudo12VectorNoCtorIcEE",
   "name" : "scudo::VectorNoCtor<char> *",
   "referenced_type" : "_ZTIN5scudo12VectorNoCtorIcEE",
   "self_type" : "_ZTIPN5scudo12VectorNoCtorIcEE",
   "size" : 4,
   "source_file" : "external/scudo/standalone/vector.h"
  },
  {
   "alignment" : 4,
   "linker_set_key" : "_ZTIPN5scudo13AtomicOptionsE",
   "name" : "scudo::AtomicOptions *",
   "referenced_type" : "_ZTIN5scudo13AtomicOptionsE",
   "self_type" : "_ZTIPN5scudo13AtomicOptionsE",
   "size" : 4,
   "source_file" : "external/scudo/standalone/options.h"
  },
  {
   "alignment" : 4,
   "linker_set_key" : "_ZTIPN5scudo13IntrusiveListINS_15QuarantineBatchEEE",
   "name" : "scudo::IntrusiveList<scudo::QuarantineBatch> *",
   "referenced_type" : "_ZTIN5scudo13IntrusiveListINS_15QuarantineBatchEEE",
   "self_type" : "_ZTIPN5scudo13IntrusiveListINS_15QuarantineBatchEEE",
   "size" : 4,
   "source_file" : "external/scudo/standalone/list.h"
  },
  {
   "alignment" : 4,
   "linker_set_key" : "_ZTIPN5scudo13IntrusiveListINS_28SizeClassAllocatorLocalCacheINS_20SizeClassAllocator32INS_13AndroidConfigEEEE13TransferBatchEEE",
   "name" : "scudo::IntrusiveList<scudo::SizeClassAllocatorLocalCache<SizeClassAllocator32<AndroidConfig>>::TransferBatch> *",
   "referenced_type" : "_ZTIN5scudo13IntrusiveListINS_28SizeClassAllocatorLocalCacheINS_20SizeClassAllocator32INS_13AndroidConfigEEEE13TransferBatchEEE",
   "self_type" : "_ZTIPN5scudo13IntrusiveListINS_28SizeClassAllocatorLocalCacheINS_20SizeClassAllocator32INS_13AndroidConfigEEEE13TransferBatchEEE",
   "size" : 4,
   "source_file" : "external/scudo/standalone/list.h"
  },
  {
   "alignment" : 4,
   "linker_set_key" : "_ZTIPN5scudo13IntrusiveListINS_28SizeClassAllocatorLocalCacheINS_20SizeClassAllocator32INS_19AndroidSvelteConfigEEEE13TransferBatchEEE",
   "name" : "scudo::IntrusiveList<scudo::SizeClassAllocatorLocalCache<SizeClassAllocator32<AndroidSvelteConfig>>::TransferBatch> *",
   "referenced_type" : "_ZTIN5scudo13IntrusiveListINS_28SizeClassAllocatorLocalCacheINS_20SizeClassAllocator32INS_19AndroidSvelteConfigEEEE13TransferBatchEEE",
   "self_type" : "_ZTIPN5scudo13IntrusiveListINS_28SizeClassAllocatorLocalCacheINS_20SizeClassAllocator32INS_19AndroidSvelteConfigEEEE13TransferBatchEEE",
   "size" : 4,
   "source_file" : "external/scudo/standalone/list.h"
  },
  {
   "alignment" : 4,
   "linker_set_key" : "_ZTIPN5scudo15MapPlatformDataE",
   "name" : "scudo::MapPlatformData *",
   "referenced_type" : "_ZTIN5scudo15MapPlatformDataE",
   "self_type" : "_ZTIPN5scudo15MapPlatformDataE",
   "size" : 4,
   "source_file" : "external/scudo/standalone/secondary.h"
  },
  {
   "alignment" : 4,
   "linker_set_key" : "_ZTIPN5scudo15QuarantineBatchE",
   "name" : "scudo::QuarantineBatch *",
   "referenced_type" : "_ZTIN5scudo15QuarantineBatchE",
   "self_type" : "_ZTIPN5scudo15QuarantineBatchE",
   "size" : 4,
   "source_file" : "external/scudo/standalone/list.h"
  },
  {
   "alignment" : 4,
   "linker_set_key" : "_ZTIPN5scudo15QuarantineCacheINS_9AllocatorINS_13AndroidConfigEXadL_Z21scudo_malloc_postinitEEE18QuarantineCallbackEEE",
   "name" : "scudo::QuarantineCache<scudo::Allocator<AndroidConfig, &scudo_malloc_postinit>::QuarantineCallback> *",
   "referenced_type" : "_ZTIN5scudo15QuarantineCacheINS_9AllocatorINS_13AndroidConfigEXadL_Z21scudo_malloc_postinitEEE18QuarantineCallbackEEE",
   "self_type" : "_ZTIPN5scudo15QuarantineCacheINS_9AllocatorINS_13AndroidConfigEXadL_Z21scudo_malloc_postinitEEE18QuarantineCallbackEEE",
   "size" : 4,
   "source_file" : "external/scudo/standalone/quarantine.h"
  },
  {
   "alignment" : 4,
   "linker_set_key" : "_ZTIPN5scudo15QuarantineCacheINS_9AllocatorINS_19AndroidSvelteConfigEXadL_Z28scudo_svelte_malloc_postinitEEE18QuarantineCallbackEEE",
   "name" : "scudo::QuarantineCache<scudo::Allocator<AndroidSvelteConfig, &scudo_svelte_malloc_postinit>::QuarantineCallback> *",
   "referenced_type" : "_ZTIN5scudo15QuarantineCacheINS_9AllocatorINS_19AndroidSvelteConfigEXadL_Z28scudo_svelte_malloc_postinitEEE18QuarantineCallbackEEE",
   "self_type" : "_ZTIPN5scudo15QuarantineCacheINS_9AllocatorINS_19AndroidSvelteConfigEXadL_Z28scudo_svelte_malloc_postinitEEE18QuarantineCallbackEEE",
   "size" : 4,
   "source_file" : "external/scudo/standalone/quarantine.h"
  },
  {
   "alignment" : 4,
   "linker_set_key" : "_ZTIPN5scudo15ReleaseRecorderE",
   "name" : "scudo::ReleaseRecorder *",
   "referenced_type" : "_ZTIN5scudo15ReleaseRecorderE",
   "self_type" : "_ZTIPN5scudo15ReleaseRecorderE",
   "size" : 4,
   "source_file" : "external/scudo/standalone/release.h"
  },
  {
   "alignment" : 4,
   "linker_set_key" : "_ZTIPN5scudo16DoublyLinkedListINS_10LargeBlock6HeaderEEE",
   "name" : "scudo::DoublyLinkedList<scudo::LargeBlock::Header> *",
   "referenced_type" : "_ZTIN5scudo16DoublyLinkedListINS_10LargeBlock6HeaderEEE",
   "self_type" : "_ZTIPN5scudo16DoublyLinkedListINS_10LargeBlock6HeaderEEE",
   "size" : 4,
   "source_file" : "external/scudo/standalone/list.h"
  },
  {
   "alignment" : 4,
   "linker_set_key" : "_ZTIPN5scudo16DoublyLinkedListINS_10LocalStatsEEE",
   "name" : "scudo::DoublyLinkedList<scudo::LocalStats> *",
   "referenced_type" : "_ZTIN5scudo16DoublyLinkedListINS_10LocalStatsEEE",
   "self_type" : "_ZTIPN5scudo16DoublyLinkedListINS_10LocalStatsEEE",
   "size" : 4,
   "source_file" : "external/scudo/standalone/list.h"
  },
  {
   "alignment" : 4,
   "linker_set_key" : "_ZTIPN5scudo16GlobalQuarantineINS_9AllocatorINS_13AndroidConfigEXadL_Z21scudo_malloc_postinitEEE18QuarantineCallbackEvEE",
   "name" : "scudo::GlobalQuarantine<scudo::Allocator<AndroidConfig, &scudo_malloc_postinit>::QuarantineCallback, void> *",
   "referenced_type" : "_ZTIN5scudo16GlobalQuarantineINS_9AllocatorINS_13AndroidConfigEXadL_Z21scudo_malloc_postinitEEE18QuarantineCallbackEvEE",
   "self_type" : "_ZTIPN5scudo16GlobalQuarantineINS_9AllocatorINS_13AndroidConfigEXadL_Z21scudo_malloc_postinitEEE18QuarantineCallbackEvEE",
   "size" : 4,
   "source_file" : "external/scudo/standalone/quarantine.h"
  },
  {
   "alignment" : 4,
   "linker_set_key" : "_ZTIPN5scudo16GlobalQuarantineINS_9AllocatorINS_19AndroidSvelteConfigEXadL_Z28scudo_svelte_malloc_postinitEEE18QuarantineCallbackEvEE",
   "name" : "scudo::GlobalQuarantine<scudo::Allocator<AndroidSvelteConfig, &scudo_svelte_malloc_postinit>::QuarantineCallback, void> *",
   "referenced_type" : "_ZTIN5scudo16GlobalQuarantineINS_9AllocatorINS_19AndroidSvelteConfigEXadL_Z28scudo_svelte_malloc_postinitEEE18QuarantineCallbackEvEE",
   "self_type" : "_ZTIPN5scudo16GlobalQuarantineINS_9AllocatorINS_19AndroidSvelteConfigEXadL_Z28scudo_svelte_malloc_postinitEEE18QuarantineCallbackEvEE",
   "size" : 4,
   "source_file" : "external/scudo/standalone/quarantine.h"
  },
  {
   "alignment" : 4,
   "linker_set_key" : "_ZTIPN5scudo16SinglyLinkedListINS_15QuarantineBatchEEE",
   "name" : "scudo::SinglyLinkedList<scudo::QuarantineBatch> *",
   "referenced_type" : "_ZTIN5scudo16SinglyLinkedListINS_15QuarantineBatchEEE",
   "self_type" : "_ZTIPN5scudo16SinglyLinkedListINS_15QuarantineBatchEEE",
   "size" : 4,
   "source_file" : "external/scudo/standalone/list.h"
  },
  {
   "alignment" : 4,
   "linker_set_key" : "_ZTIPN5scudo16SinglyLinkedListINS_28SizeClassAllocatorLocalCacheINS_20SizeClassAllocator32INS_13AndroidConfigEEEE13TransferBatchEEE",
   "name" : "scudo::SinglyLinkedList<scudo::SizeClassAllocatorLocalCache<SizeClassAllocator32<AndroidConfig>>::TransferBatch> *",
   "referenced_type" : "_ZTIN5scudo16SinglyLinkedListINS_28SizeClassAllocatorLocalCacheINS_20SizeClassAllocator32INS_13AndroidConfigEEEE13TransferBatchEEE",
   "self_type" : "_ZTIPN5scudo16SinglyLinkedListINS_28SizeClassAllocatorLocalCacheINS_20SizeClassAllocator32INS_13AndroidConfigEEEE13TransferBatchEEE",
   "size" : 4,
   "source_file" : "external/scudo/standalone/list.h"
  },
  {
   "alignment" : 4,
   "linker_set_key" : "_ZTIPN5scudo16SinglyLinkedListINS_28SizeClassAllocatorLocalCacheINS_20SizeClassAllocator32INS_19AndroidSvelteConfigEEEE13TransferBatchEEE",
   "name" : "scudo::SinglyLinkedList<scudo::SizeClassAllocatorLocalCache<SizeClassAllocator32<AndroidSvelteConfig>>::TransferBatch> *",
   "referenced_type" : "_ZTIN5scudo16SinglyLinkedListINS_28SizeClassAllocatorLocalCacheINS_20SizeClassAllocator32INS_19AndroidSvelteConfigEEEE13TransferBatchEEE",
   "self_type" : "_ZTIPN5scudo16SinglyLinkedListINS_28SizeClassAllocatorLocalCacheINS_20SizeClassAllocator32INS_19AndroidSvelteConfigEEEE13TransferBatchEEE",
   "size" : 4,
   "source_file" : "external/scudo/standalone/list.h"
  },
  {
   "alignment" : 4,
   "linker_set_key" : "_ZTIPN5scudo17MapAllocatorCacheINS_13AndroidConfigEEE",
   "name" : "scudo::MapAllocatorCache<scudo::AndroidConfig> *",
   "referenced_type" : "_ZTIN5scudo17MapAllocatorCacheINS_13AndroidConfigEEE",
   "self_type" : "_ZTIPN5scudo17MapAllocatorCacheINS_13AndroidConfigEEE",
   "size" : 4,
   "source_file" : "external/scudo/standalone/secondary.h"
  },
  {
   "alignment" : 4,
   "linker_set_key" : "_ZTIPN5scudo17MapAllocatorCacheINS_19AndroidSvelteConfigEEE",
   "name" : "scudo::MapAllocatorCache<scudo::AndroidSvelteConfig> *",
   "referenced_type" : "_ZTIN5scudo17MapAllocatorCacheINS_19AndroidSvelteConfigEEE",
   "self_type" : "_ZTIPN5scudo17MapAllocatorCacheINS_19AndroidSvelteConfigEEE",
   "size" : 4,
   "source_file" : "external/scudo/standalone/secondary.h"
  },
  {
   "alignment" : 4,
   "linker_set_key" : "_ZTIPN5scudo17TableSizeClassMapINS_22AndroidSizeClassConfigEE8LSBTableE",
   "name" : "scudo::TableSizeClassMap<AndroidSizeClassConfig>::LSBTable *",
   "referenced_type" : "_ZTIN5scudo17TableSizeClassMapINS_22AndroidSizeClassConfigEE8LSBTableE",
   "self_type" : "_ZTIPN5scudo17TableSizeClassMapINS_22AndroidSizeClassConfigEE8LSBTableE",
   "size" : 4,
   "source_file" : "external/scudo/standalone/size_class_map.h"
  },
  {
   "alignment" : 4,
   "linker_set_key" : "_ZTIPN5scudo17TableSizeClassMapINS_22AndroidSizeClassConfigEE9SizeTableE",
   "name" : "scudo::TableSizeClassMap<AndroidSizeClassConfig>::SizeTable *",
   "referenced_type" : "_ZTIN5scudo17TableSizeClassMapINS_22AndroidSizeClassConfigEE9SizeTableE",
   "self_type" : "_ZTIPN5scudo17TableSizeClassMapINS_22AndroidSizeClassConfigEE9SizeTableE",
   "size" : 4,
   "source_file" : "external/scudo/standalone/size_class_map.h"
  },
  {
   "alignment" : 4,
   "linker_set_key" : "_ZTIPN5scudo18MurMur2HashBuilderE",
   "name" : "scudo::MurMur2HashBuilder *",
   "referenced_type" : "_ZTIN5scudo18MurMur2HashBuilderE",
   "self_type" : "_ZTIPN5scudo18MurMur2HashBuilderE",
   "size" : 4,
   "source_file" : "external/scudo/standalone/stack_depot.h"
  },
  {
   "alignment" : 4,
   "linker_set_key" : "_ZTIPN5scudo18PackedCounterArrayE",
   "name" : "scudo::PackedCounterArray *",
   "referenced_type" : "_ZTIN5scudo18PackedCounterArrayE",
   "self_type" : "_ZTIPN5scudo18PackedCounterArrayE",
   "size" : 4,
   "source_file" : "external/scudo/standalone/release.h"
  },
  {
   "alignment" : 4,
   "linker_set_key" : "_ZTIPN5scudo18TSDRegistrySharedTINS_9AllocatorINS_13AndroidConfigEXadL_Z21scudo_malloc_postinitEEEELj8ELj2EEE",
   "name" : "scudo::TSDRegistrySharedT<scudo::Allocator<scudo::AndroidConfig, &scudo_malloc_postinit>, 8, 2> *",
   "referenced_type" : "_ZTIN5scudo18TSDRegistrySharedTINS_9AllocatorINS_13AndroidConfigEXadL_Z21scudo_malloc_postinitEEEELj8ELj2EEE",
   "self_type" : "_ZTIPN5scudo18TSDRegistrySharedTINS_9AllocatorINS_13AndroidConfigEXadL_Z21scudo_malloc_postinitEEEELj8ELj2EEE",
   "size" : 4,
   "source_file" : "external/scudo/standalone/tsd_shared.h"
  },
  {
   "alignment" : 4,
   "linker_set_key" : "_ZTIPN5scudo18TSDRegistrySharedTINS_9AllocatorINS_19AndroidSvelteConfigEXadL_Z28scudo_svelte_malloc_postinitEEEELj2ELj1EEE",
   "name" : "scudo::TSDRegistrySharedT<scudo::Allocator<scudo::AndroidSvelteConfig, &scudo_svelte_malloc_postinit>, 2, 1> *",
   "referenced_type" : "_ZTIN5scudo18TSDRegistrySharedTINS_9AllocatorINS_19AndroidSvelteConfigEXadL_Z28scudo_svelte_malloc_postinitEEEELj2ELj1EEE",
   "self_type" : "_ZTIPN5scudo18TSDRegistrySharedTINS_9AllocatorINS_19AndroidSvelteConfigEXadL_Z28scudo_svelte_malloc_postinitEEEELj2ELj1EEE",
   "size" : 4,
   "source_file" : "external/scudo/standalone/tsd_shared.h"
  },
  {
   "alignment" : 4,
   "linker_set_key" : "_ZTIPN5scudo19MapAllocatorNoCacheE",
   "name" : "scudo::MapAllocatorNoCache *",
   "referenced_type" : "_ZTIN5scudo19MapAllocatorNoCacheE",
   "self_type" : "_ZTIPN5scudo19MapAllocatorNoCacheE",
   "size" : 4,
   "source_file" : "external/scudo/standalone/secondary.h"
  },
  {
   "alignment" : 4,
   "linker_set_key" : "_ZTIPN5scudo20SizeClassAllocator32INS_13AndroidConfigEE13SizeClassInfoE",
   "name" : "scudo::SizeClassAllocator32<AndroidConfig>::SizeClassInfo *",
   "referenced_type" : "_ZTIN5scudo20SizeClassAllocator32INS_13AndroidConfigEE13SizeClassInfoE",
   "self_type" : "_ZTIPN5scudo20SizeClassAllocator32INS_13AndroidConfigEE13SizeClassInfoE",
   "size" : 4,
   "source_file" : "external/scudo/standalone/primary32.h"
  },
  {
   "alignment" : 4,
   "linker_set_key" : "_ZTIPN5scudo20SizeClassAllocator32INS_13AndroidConfigEEE",
   "name" : "scudo::SizeClassAllocator32<scudo::AndroidConfig> *",
   "referenced_type" : "_ZTIN5scudo20SizeClassAllocator32INS_13AndroidConfigEEE",
   "self_type" : "_ZTIPN5scudo20SizeClassAllocator32INS_13AndroidConfigEEE",
   "size" : 4,
   "source_file" : "external/scudo/standalone/local_cache.h"
  },
  {
   "alignment" : 4,
   "linker_set_key" : "_ZTIPN5scudo20SizeClassAllocator32INS_19AndroidSvelteConfigEE13SizeClassInfoE",
   "name" : "scudo::SizeClassAllocator32<AndroidSvelteConfig>::SizeClassInfo *",
   "referenced_type" : "_ZTIN5scudo20SizeClassAllocator32INS_19AndroidSvelteConfigEE13SizeClassInfoE",
   "self_type" : "_ZTIPN5scudo20SizeClassAllocator32INS_19AndroidSvelteConfigEE13SizeClassInfoE",
   "size" : 4,
   "source_file" : "external/scudo/standalone/primary32.h"
  },
  {
   "alignment" : 4,
   "linker_set_key" : "_ZTIPN5scudo20SizeClassAllocator32INS_19AndroidSvelteConfigEEE",
   "name" : "scudo::SizeClassAllocator32<scudo::AndroidSvelteConfig> *",
   "referenced_type" : "_ZTIN5scudo20SizeClassAllocator32INS_19AndroidSvelteConfigEEE",
   "self_type" : "_ZTIPN5scudo20SizeClassAllocator32INS_19AndroidSvelteConfigEEE",
   "size" : 4,
   "source_file" : "external/scudo/standalone/local_cache.h"
  },
  {
   "alignment" : 4,
   "linker_set_key" : "_ZTIPN5scudo21FreePagesRangeTrackerINS_15ReleaseRecorderEEE",
   "name" : "scudo::FreePagesRangeTracker<scudo::ReleaseRecorder> *",
   "referenced_type" : "_ZTIN5scudo21FreePagesRangeTrackerINS_15ReleaseRecorderEEE",
   "self_type" : "_ZTIPN5scudo21FreePagesRangeTrackerINS_15ReleaseRecorderEEE",
   "size" : 4,
   "source_file" : "external/scudo/standalone/release.h"
  },
  {
   "alignment" : 4,
   "linker_set_key" : "_ZTIPN5scudo28ScopedDisableMemoryTagChecksE",
   "name" : "scudo::ScopedDisableMemoryTagChecks *",
   "referenced_type" : "_ZTIN5scudo28ScopedDisableMemoryTagChecksE",
   "self_type" : "_ZTIPN5scudo28ScopedDisableMemoryTagChecksE",
   "size" : 4,
   "source_file" : "external/scudo/standalone/memtag.h"
  },
  {
   "alignment" : 4,
   "linker_set_key" : "_ZTIPN5scudo28SizeClassAllocatorLocalCacheINS_20SizeClassAllocator32INS_13AndroidConfigEEEE13TransferBatchE",
   "name" : "scudo::SizeClassAllocatorLocalCache<SizeClassAllocator32<AndroidConfig>>::TransferBatch *",
   "referenced_type" : "_ZTIN5scudo28SizeClassAllocatorLocalCacheINS_20SizeClassAllocator32INS_13AndroidConfigEEEE13TransferBatchE",
   "self_type" : "_ZTIPN5scudo28SizeClassAllocatorLocalCacheINS_20SizeClassAllocator32INS_13AndroidConfigEEEE13TransferBatchE",
   "size" : 4,
   "source_file" : "external/scudo/standalone/list.h"
  },
  {
   "alignment" : 4,
   "linker_set_key" : "_ZTIPN5scudo28SizeClassAllocatorLocalCacheINS_20SizeClassAllocator32INS_13AndroidConfigEEEE8PerClassE",
   "name" : "scudo::SizeClassAllocatorLocalCache<SizeClassAllocator32<AndroidConfig>>::PerClass *",
   "referenced_type" : "_ZTIN5scudo28SizeClassAllocatorLocalCacheINS_20SizeClassAllocator32INS_13AndroidConfigEEEE8PerClassE",
   "self_type" : "_ZTIPN5scudo28SizeClassAllocatorLocalCacheINS_20SizeClassAllocator32INS_13AndroidConfigEEEE8PerClassE",
   "size" : 4,
   "source_file" : "external/scudo/standalone/local_cache.h"
  },
  {
   "alignment" : 4,
   "linker_set_key" : "_ZTIPN5scudo28SizeClassAllocatorLocalCacheINS_20SizeClassAllocator32INS_13AndroidConfigEEEEE",
   "name" : "scudo::SizeClassAllocatorLocalCache<scudo::SizeClassAllocator32<scudo::AndroidConfig>> *",
   "referenced_type" : "_ZTIN5scudo28SizeClassAllocatorLocalCacheINS_20SizeClassAllocator32INS_13AndroidConfigEEEEE",
   "self_type" : "_ZTIPN5scudo28SizeClassAllocatorLocalCacheINS_20SizeClassAllocator32INS_13AndroidConfigEEEEE",
   "size" : 4,
   "source_file" : "external/scudo/standalone/local_cache.h"
  },
  {
   "alignment" : 4,
   "linker_set_key" : "_ZTIPN5scudo28SizeClassAllocatorLocalCacheINS_20SizeClassAllocator32INS_19AndroidSvelteConfigEEEE13TransferBatchE",
   "name" : "scudo::SizeClassAllocatorLocalCache<SizeClassAllocator32<AndroidSvelteConfig>>::TransferBatch *",
   "referenced_type" : "_ZTIN5scudo28SizeClassAllocatorLocalCacheINS_20SizeClassAllocator32INS_19AndroidSvelteConfigEEEE13TransferBatchE",
   "self_type" : "_ZTIPN5scudo28SizeClassAllocatorLocalCacheINS_20SizeClassAllocator32INS_19AndroidSvelteConfigEEEE13TransferBatchE",
   "size" : 4,
   "source_file" : "external/scudo/standalone/list.h"
  },
  {
   "alignment" : 4,
   "linker_set_key" : "_ZTIPN5scudo28SizeClassAllocatorLocalCacheINS_20SizeClassAllocator32INS_19AndroidSvelteConfigEEEE8PerClassE",
   "name" : "scudo::SizeClassAllocatorLocalCache<SizeClassAllocator32<AndroidSvelteConfig>>::PerClass *",
   "referenced_type" : "_ZTIN5scudo28SizeClassAllocatorLocalCacheINS_20SizeClassAllocator32INS_19AndroidSvelteConfigEEEE8PerClassE",
   "self_type" : "_ZTIPN5scudo28SizeClassAllocatorLocalCacheINS_20SizeClassAllocator32INS_19AndroidSvelteConfigEEEE8PerClassE",
   "size" : 4,
   "source_file" : "external/scudo/standalone/local_cache.h"
  },
  {
   "alignment" : 4,
   "linker_set_key" : "_ZTIPN5scudo28SizeClassAllocatorLocalCacheINS_20SizeClassAllocator32INS_19AndroidSvelteConfigEEEEE",
   "name" : "scudo::SizeClassAllocatorLocalCache<scudo::SizeClassAllocator32<scudo::AndroidSvelteConfig>> *",
   "referenced_type" : "_ZTIN5scudo28SizeClassAllocatorLocalCacheINS_20SizeClassAllocator32INS_19AndroidSvelteConfigEEEEE",
   "self_type" : "_ZTIPN5scudo28SizeClassAllocatorLocalCacheINS_20SizeClassAllocator32INS_19AndroidSvelteConfigEEEEE",
   "size" : 4,
   "source_file" : "external/scudo/standalone/local_cache.h"
  },
  {
   "alignment" : 4,
   "linker_set_key" : "_ZTIPN5scudo3TSDINS_9AllocatorINS_13AndroidConfigEXadL_Z21scudo_malloc_postinitEEEEEE",
   "name" : "scudo::TSD<scudo::Allocator<scudo::AndroidConfig, &scudo_malloc_postinit>> *",
   "referenced_type" : "_ZTIN5scudo3TSDINS_9AllocatorINS_13AndroidConfigEXadL_Z21scudo_malloc_postinitEEEEEE",
   "self_type" : "_ZTIPN5scudo3TSDINS_9AllocatorINS_13AndroidConfigEXadL_Z21scudo_malloc_postinitEEEEEE",
   "size" : 4,
   "source_file" : "external/scudo/standalone/tsd.h"
  },
  {
   "alignment" : 4,
   "linker_set_key" : "_ZTIPN5scudo3TSDINS_9AllocatorINS_19AndroidSvelteConfigEXadL_Z28scudo_svelte_malloc_postinitEEEEEE",
   "name" : "scudo::TSD<scudo::Allocator<scudo::AndroidSvelteConfig, &scudo_svelte_malloc_postinit>> *",
   "referenced_type" : "_ZTIN5scudo3TSDINS_9AllocatorINS_19AndroidSvelteConfigEXadL_Z28scudo_svelte_malloc_postinitEEEEEE",
   "self_type" : "_ZTIPN5scudo3TSDINS_9AllocatorINS_19AndroidSvelteConfigEXadL_Z28scudo_svelte_malloc_postinitEEEEEE",
   "size" : 4,
   "source_file" : "external/scudo/standalone/tsd.h"
  },
  {
   "alignment" : 4,
   "linker_set_key" : "_ZTIPN5scudo5Chunk14UnpackedHeaderE",
   "name" : "scudo::Chunk::UnpackedHeader *",
   "referenced_type" : "_ZTIN5scudo5Chunk14UnpackedHeaderE",
   "self_type" : "_ZTIPN5scudo5Chunk14UnpackedHeaderE",
   "size" : 4,
   "source_file" : "external/scudo/standalone/chunk.h"
  },
  {
   "alignment" : 4,
   "linker_set_key" : "_ZTIPN5scudo6VectorIcEE",
   "name" : "scudo::Vector<char> *",
   "referenced_type" : "_ZTIN5scudo6VectorIcEE",
   "self_type" : "_ZTIPN5scudo6VectorIcEE",
   "size" : 4,
   "source_file" : "external/scudo/standalone/vector.h"
  },
  {
   "alignment" : 4,
   "linker_set_key" : "_ZTIPN5scudo9AllocatorINS_13AndroidConfigEXadL_Z21scudo_malloc_postinitEEE18QuarantineCallbackE",
   "name" : "scudo::Allocator<AndroidConfig, &scudo_malloc_postinit>::QuarantineCallback *",
   "referenced_type" : "_ZTIN5scudo9AllocatorINS_13AndroidConfigEXadL_Z21scudo_malloc_postinitEEE18QuarantineCallbackE",
   "self_type" : "_ZTIPN5scudo9AllocatorINS_13AndroidConfigEXadL_Z21scudo_malloc_postinitEEE18QuarantineCallbackE",
   "size" : 4,
   "source_file" : "external/scudo/standalone/combined.h"
  },
  {
   "alignment" : 4,
   "linker_set_key" : "_ZTIPN5scudo9AllocatorINS_13AndroidConfigEXadL_Z21scudo_malloc_postinitEEEE",
   "name" : "scudo::Allocator<scudo::AndroidConfig, &scudo_malloc_postinit> *",
   "referenced_type" : "_ZTIN5scudo9AllocatorINS_13AndroidConfigEXadL_Z21scudo_malloc_postinitEEEE",
   "self_type" : "_ZTIPN5scudo9AllocatorINS_13AndroidConfigEXadL_Z21scudo_malloc_postinitEEEE",
   "size" : 4,
   "source_file" : "external/scudo/standalone/tsd.h"
  },
  {
   "alignment" : 4,
   "linker_set_key" : "_ZTIPN5scudo9AllocatorINS_19AndroidSvelteConfigEXadL_Z28scudo_svelte_malloc_postinitEEE18QuarantineCallbackE",
   "name" : "scudo::Allocator<AndroidSvelteConfig, &scudo_svelte_malloc_postinit>::QuarantineCallback *",
   "referenced_type" : "_ZTIN5scudo9AllocatorINS_19AndroidSvelteConfigEXadL_Z28scudo_svelte_malloc_postinitEEE18QuarantineCallbackE",
   "self_type" : "_ZTIPN5scudo9AllocatorINS_19AndroidSvelteConfigEXadL_Z28scudo_svelte_malloc_postinitEEE18QuarantineCallbackE",
   "size" : 4,
   "source_file" : "external/scudo/standalone/combined.h"
  },
  {
   "alignment" : 4,
   "linker_set_key" : "_ZTIPN5scudo9AllocatorINS_19AndroidSvelteConfigEXadL_Z28scudo_svelte_malloc_postinitEEEE",
   "name" : "scudo::Allocator<scudo::AndroidSvelteConfig, &scudo_svelte_malloc_postinit> *",
   "referenced_type" : "_ZTIN5scudo9AllocatorINS_19AndroidSvelteConfigEXadL_Z28scudo_svelte_malloc_postinitEEEE",
   "self_type" : "_ZTIPN5scudo9AllocatorINS_19AndroidSvelteConfigEXadL_Z28scudo_svelte_malloc_postinitEEEE",
   "size" : 4,
   "source_file" : "external/scudo/standalone/tsd.h"
  },
  {
   "alignment" : 4,
   "linker_set_key" : "_ZTIPPN5scudo10LargeBlock6HeaderE",
   "name" : "scudo::LargeBlock::Header **",
   "referenced_type" : "_ZTIPN5scudo10LargeBlock6HeaderE",
   "self_type" : "_ZTIPPN5scudo10LargeBlock6HeaderE",
   "size" : 4,
   "source_file" : "external/scudo/standalone/secondary.h"
  },
  {
   "alignment" : 4,
   "linker_set_key" : "_ZTIPPv",
   "name" : "void **",
   "referenced_type" : "_ZTIPv",
   "self_type" : "_ZTIPPv",
   "size" : 4,
   "source_file" : "external/scudo/standalone/common.h"
  },
  {
   "alignment" : 4,
   "linker_set_key" : "_ZTIPVKN5scudo10atomic_s32E",
   "name" : "const volatile scudo::atomic_s32 *",
   "referenced_type" : "_ZTIVKN5scudo10atomic_s32E",
   "self_type" : "_ZTIPVKN5scudo10atomic_s32E",
   "size" : 4,
   "source_file" : "external/scudo/standalone/atomic_helpers.h"
  },
  {
   "alignment" : 4,
   "linker_set_key" : "_ZTIPVKN5scudo10atomic_u32E",
   "name" : "const volatile scudo::atomic_u32 *",
   "referenced_type" : "_ZTIVKN5scudo10atomic_u32E",
   "self_type" : "_ZTIPVKN5scudo10atomic_u32E",
   "size" : 4,
   "source_file" : "external/scudo/standalone/atomic_helpers.h"
  },
  {
   "alignment" : 4,
   "linker_set_key" : "_ZTIPVKN5scudo10atomic_u64E",
   "name" : "const volatile scudo::atomic_u64 *",
   "referenced_type" : "_ZTIVKN5scudo10atomic_u64E",
   "self_type" : "_ZTIPVKN5scudo10atomic_u64E",
   "size" : 4,
   "source_file" : "external/scudo/standalone/atomic_helpers.h"
  },
  {
   "alignment" : 4,
   "linker_set_key" : "_ZTIPVKN5scudo11atomic_uptrE",
   "name" : "const volatile scudo::atomic_uptr *",
   "referenced_type" : "_ZTIVKN5scudo11atomic_uptrE",
   "self_type" : "_ZTIPVKN5scudo11atomic_uptrE",
   "size" : 4,
   "source_file" : "external/scudo/standalone/atomic_helpers.h"
  },
  {
   "alignment" : 4,
   "linker_set_key" : "_ZTIPVN5scudo10atomic_s32E",
   "name" : "volatile scudo::atomic_s32 *",
   "referenced_type" : "_ZTIVN5scudo10atomic_s32E",
   "self_type" : "_ZTIPVN5scudo10atomic_s32E",
   "size" : 4,
   "source_file" : "external/scudo/standalone/atomic_helpers.h"
  },
  {
   "alignment" : 4,
   "linker_set_key" : "_ZTIPVN5scudo10atomic_u32E",
   "name" : "volatile scudo::atomic_u32 *",
   "referenced_type" : "_ZTIVN5scudo10atomic_u32E",
   "self_type" : "_ZTIPVN5scudo10atomic_u32E",
   "size" : 4,
   "source_file" : "external/scudo/standalone/atomic_helpers.h"
  },
  {
   "alignment" : 4,
   "linker_set_key" : "_ZTIPVN5scudo10atomic_u64E",
   "name" : "volatile scudo::atomic_u64 *",
   "referenced_type" : "_ZTIVN5scudo10atomic_u64E",
   "self_type" : "_ZTIPVN5scudo10atomic_u64E",
   "size" : 4,
   "source_file" : "external/scudo/standalone/atomic_helpers.h"
  },
  {
   "alignment" : 4,
   "linker_set_key" : "_ZTIPVN5scudo11atomic_uptrE",
   "name" : "volatile scudo::atomic_uptr *",
   "referenced_type" : "_ZTIVN5scudo11atomic_uptrE",
   "self_type" : "_ZTIPVN5scudo11atomic_uptrE",
   "size" : 4,
   "source_file" : "external/scudo/standalone/atomic_helpers.h"
  },
  {
   "alignment" : 4,
   "linker_set_key" : "_ZTIPb",
   "name" : "bool *",
   "referenced_type" : "_ZTIb",
   "self_type" : "_ZTIPb",
   "size" : 4,
   "source_file" : "external/scudo/standalone/secondary.h"
  },
  {
   "alignment" : 4,
   "linker_set_key" : "_ZTIPc",
   "name" : "char *",
   "referenced_type" : "_ZTIc",
   "self_type" : "_ZTIPc",
   "size" : 4,
   "source_file" : "bionic/libc/include/string.h"
  },
  {
   "alignment" : 4,
   "linker_set_key" : "_ZTIPj",
   "name" : "unsigned int *",
   "referenced_type" : "_ZTIj",
   "self_type" : "_ZTIPj",
   "size" : 4,
   "source_file" : "external/scudo/standalone/atomic_helpers.h"
  },
  {
   "alignment" : 4,
   "linker_set_key" : "_ZTIPm",
   "name" : "unsigned long *",
   "referenced_type" : "_ZTIm",
   "self_type" : "_ZTIPm",
   "size" : 4,
   "source_file" : "external/scudo/standalone/common.h"
  },
  {
   "alignment" : 4,
   "linker_set_key" : "_ZTIPv",
   "name" : "void *",
   "referenced_type" : "_ZTIv",
   "self_type" : "_ZTIPv",
   "size" : 4,
   "source_file" : "bionic/libc/include/bits/pthread_types.h"
  },
  {
   "alignment" : 4,
   "linker_set_key" : "_ZTIPy",
   "name" : "unsigned long long *",
   "referenced_type" : "_ZTIy",
   "self_type" : "_ZTIPy",
   "size" : 4,
   "source_file" : "external/scudo/standalone/atomic_helpers.h"
  }
 ],
 "qualified_types" :
 [
  {
   "alignment" : 4,
   "is_const" : true,
   "linker_set_key" : "_ZTIA64_Kj",
   "name" : "unsigned int const[64]",
   "referenced_type" : "_ZTIA64_j",
   "self_type" : "_ZTIA64_Kj",
   "size" : 256,
   "source_file" : "external/scudo/standalone/size_class_map.h"
  },
  {
   "alignment" : 4,
   "is_const" : true,
   "linker_set_key" : "_ZTIA65_KPKc",
   "name" : "const char *const[65]",
   "referenced_type" : "_ZTIA65_PKc",
   "self_type" : "_ZTIA65_KPKc",
   "size" : 260,
   "source_file" : "bionic/libc/include/signal.h"
  },
  {
   "alignment" : 4,
   "is_const" : true,
   "linker_set_key" : "_ZTIKN5scudo10LargeBlock6HeaderE",
   "name" : "const scudo::LargeBlock::Header",
   "referenced_type" : "_ZTIN5scudo10LargeBlock6HeaderE",
   "self_type" : "_ZTIKN5scudo10LargeBlock6HeaderE",
   "size" : 24,
   "source_file" : "external/scudo/standalone/list.h"
  },
  {
   "alignment" : 4,
   "is_const" : true,
   "linker_set_key" : "_ZTIKN5scudo10LocalStatsE",
   "name" : "const scudo::LocalStats",
   "referenced_type" : "_ZTIN5scudo10LocalStatsE",
   "self_type" : "_ZTIKN5scudo10LocalStatsE",
   "size" : 20,
   "source_file" : "external/scudo/standalone/list.h"
  },
  {
   "alignment" : 8,
   "is_const" : true,
   "linker_set_key" : "_ZTIKN5scudo10StackDepotE",
   "name" : "const scudo::StackDepot",
   "referenced_type" : "_ZTIN5scudo10StackDepotE",
   "self_type" : "_ZTIKN5scudo10StackDepotE",
   "size" : 4456456,
   "source_file" : "external/scudo/standalone/stack_depot.h"
  },
  {
   "alignment" : 8,
   "is_const" : true,
   "linker_set_key" : "_ZTIKN5scudo10atomic_u64E",
   "name" : "const scudo::atomic_u64",
   "referenced_type" : "_ZTIN5scudo10atomic_u64E",
   "self_type" : "_ZTIKN5scudo10atomic_u64E",
   "size" : 8,
   "source_file" : "external/scudo/standalone/chunk.h"
  },
  {
   "alignment" : 4,
   "is_const" : true,
   "linker_set_key" : "_ZTIKN5scudo11GlobalStatsE",
   "name" : "const scudo::GlobalStats",
   "referenced_type" : "_ZTIN5scudo11GlobalStatsE",
   "self_type" : "_ZTIKN5scudo11GlobalStatsE",
   "size" : 36,
   "source_file" : "external/scudo/standalone/stats.h"
  },
  {
   "alignment" : 4,
   "is_const" : true,
   "linker_set_key" : "_ZTIKN5scudo12IteratorBaseIKNS_10LargeBlock6HeaderEEE",
   "name" : "const scudo::IteratorBase<const scudo::LargeBlock::Header>",
   "referenced_type" : "_ZTIN5scudo12IteratorBaseIKNS_10LargeBlock6HeaderEEE",
   "self_type" : "_ZTIKN5scudo12IteratorBaseIKNS_10LargeBlock6HeaderEEE",
   "size" : 4,
   "source_file" : "external/scudo/standalone/list.h"
  },
  {
   "alignment" : 4,
   "is_const" : true,
   "linker_set_key" : "_ZTIKN5scudo12IteratorBaseIKNS_10LocalStatsEEE",
   "name" : "const scudo::IteratorBase<const scudo::LocalStats>",
   "referenced_type" : "_ZTIN5scudo12IteratorBaseIKNS_10LocalStatsEEE",
   "self_type" : "_ZTIKN5scudo12IteratorBaseIKNS_10LocalStatsEEE",
   "size" : 4,
   "source_file" : "external/scudo/standalone/list.h"
  },
  {
   "alignment" : 4,
   "is_const" : true,
   "linker_set_key" : "_ZTIKN5scudo12IteratorBaseIKNS_15QuarantineBatchEEE",
   "name" : "const scudo::IteratorBase<const scudo::QuarantineBatch>",
   "referenced_type" : "_ZTIN5scudo12IteratorBaseIKNS_15QuarantineBatchEEE",
   "self_type" : "_ZTIKN5scudo12IteratorBaseIKNS_15QuarantineBatchEEE",
   "size" : 4,
   "source_file" : "external/scudo/standalone/list.h"
  },
  {
   "alignment" : 4,
   "is_const" : true,
   "linker_set_key" : "_ZTIKN5scudo12IteratorBaseIKNS_28SizeClassAllocatorLocalCacheINS_20SizeClassAllocator32INS_13AndroidConfigEEEE13TransferBatchEEE",
   "name" : "const scudo::IteratorBase<const scudo::SizeClassAllocatorLocalCache<SizeClassAllocator32<AndroidConfig>>::TransferBatch>",
   "referenced_type" : "_ZTIN5scudo12IteratorBaseIKNS_28SizeClassAllocatorLocalCacheINS_20SizeClassAllocator32INS_13AndroidConfigEEEE13TransferBatchEEE",
   "self_type" : "_ZTIKN5scudo12IteratorBaseIKNS_28SizeClassAllocatorLocalCacheINS_20SizeClassAllocator32INS_13AndroidConfigEEEE13TransferBatchEEE",
   "size" : 4,
   "source_file" : "external/scudo/standalone/list.h"
  },
  {
   "alignment" : 4,
   "is_const" : true,
   "linker_set_key" : "_ZTIKN5scudo12IteratorBaseIKNS_28SizeClassAllocatorLocalCacheINS_20SizeClassAllocator32INS_19AndroidSvelteConfigEEEE13TransferBatchEEE",
   "name" : "const scudo::IteratorBase<const scudo::SizeClassAllocatorLocalCache<SizeClassAllocator32<AndroidSvelteConfig>>::TransferBatch>",
   "referenced_type" : "_ZTIN5scudo12IteratorBaseIKNS_28SizeClassAllocatorLocalCacheINS_20SizeClassAllocator32INS_19AndroidSvelteConfigEEEE13TransferBatchEEE",
   "self_type" : "_ZTIKN5scudo12IteratorBaseIKNS_28SizeClassAllocatorLocalCacheINS_20SizeClassAllocator32INS_19AndroidSvelteConfigEEEE13TransferBatchEEE",
   "size" : 4,
   "source_file" : "external/scudo/standalone/list.h"
  },
  {
   "alignment" : 8,
   "is_const" : true,
   "linker_set_key" : "_ZTIKN5scudo12MapAllocatorINS_13AndroidConfigEEE",
   "name" : "const scudo::MapAllocator<scudo::AndroidConfig>",
   "referenced_type" : "_ZTIN5scudo12MapAllocatorINS_13AndroidConfigEEE",
   "self_type" : "_ZTIKN5scudo12MapAllocatorINS_13AndroidConfigEEE",
   "size" : 9312,
   "source_file" : "external/scudo/standalone/secondary.h"
  },
  {
   "alignment" : 4,
   "is_const" : true,
   "linker_set_key" : "_ZTIKN5scudo12ScopedStringE",
   "name" : "const scudo::ScopedString",
   "referenced_type" : "_ZTIN5scudo12ScopedStringE",
   "self_type" : "_ZTIKN5scudo12ScopedStringE",
   "size" : 16,
   "source_file" : "external/scudo/standalone/string_utils.h"
  },
  {
   "alignment" : 4,
   "is_const" : true,
   "linker_set_key" : "_ZTIKN5scudo12VectorNoCtorIcEE",
   "name" : "const scudo::VectorNoCtor<char>",
   "referenced_type" : "_ZTIN5scudo12VectorNoCtorIcEE",
   "self_type" : "_ZTIKN5scudo12VectorNoCtorIcEE",
   "size" : 12,
   "source_file" : "external/scudo/standalone/vector.h"
  },
  {
   "alignment" : 4,
   "is_const" : true,
   "linker_set_key" : "_ZTIKN5scudo13AtomicOptionsE",
   "name" : "const scudo::AtomicOptions",
   "referenced_type" : "_ZTIN5scudo13AtomicOptionsE",
   "self_type" : "_ZTIKN5scudo13AtomicOptionsE",
   "size" : 4,
   "source_file" : "external/scudo/standalone/options.h"
  },
  {
   "alignment" : 4,
   "is_const" : true,
   "linker_set_key" : "_ZTIKN5scudo13IntrusiveListINS_10LargeBlock6HeaderEEE",
   "name" : "const scudo::IntrusiveList<scudo::LargeBlock::Header>",
   "referenced_type" : "_ZTIN5scudo13IntrusiveListINS_10LargeBlock6HeaderEEE",
   "self_type" : "_ZTIKN5scudo13IntrusiveListINS_10LargeBlock6HeaderEEE",
   "size" : 12,
   "source_file" : "external/scudo/standalone/list.h"
  },
  {
   "alignment" : 4,
   "is_const" : true,
   "linker_set_key" : "_ZTIKN5scudo13IntrusiveListINS_10LocalStatsEEE",
   "name" : "const scudo::IntrusiveList<scudo::LocalStats>",
   "referenced_type" : "_ZTIN5scudo13IntrusiveListINS_10LocalStatsEEE",
   "self_type" : "_ZTIKN5scudo13IntrusiveListINS_10LocalStatsEEE",
   "size" : 12,
   "source_file" : "external/scudo/standalone/list.h"
  },
  {
   "alignment" : 4,
   "is_const" : true,
   "linker_set_key" : "_ZTIKN5scudo13IntrusiveListINS_15QuarantineBatchEEE",
   "name" : "const scudo::IntrusiveList<scudo::QuarantineBatch>",
   "referenced_type" : "_ZTIN5scudo13IntrusiveListINS_15QuarantineBatchEEE",
   "self_type" : "_ZTIKN5scudo13IntrusiveListINS_15QuarantineBatchEEE",
   "size" : 12,
   "source_file" : "external/scudo/standalone/list.h"
  },
  {
   "alignment" : 4,
   "is_const" : true,
   "linker_set_key" : "_ZTIKN5scudo13IntrusiveListINS_28SizeClassAllocatorLocalCacheINS_20SizeClassAllocator32INS_13AndroidConfigEEEE13TransferBatchEEE",
   "name" : "const scudo::IntrusiveList<scudo::SizeClassAllocatorLocalCache<SizeClassAllocator32<AndroidConfig>>::TransferBatch>",
   "referenced_type" : "_ZTIN5scudo13IntrusiveListINS_28SizeClassAllocatorLocalCacheINS_20SizeClassAllocator32INS_13AndroidConfigEEEE13TransferBatchEEE",
   "self_type" : "_ZTIKN5scudo13IntrusiveListINS_28SizeClassAllocatorLocalCacheINS_20SizeClassAllocator32INS_13AndroidConfigEEEE13TransferBatchEEE",
   "size" : 12,
   "source_file" : "external/scudo/standalone/list.h"
  },
  {
   "alignment" : 4,
   "is_const" : true,
   "linker_set_key" : "_ZTIKN5scudo13IntrusiveListINS_28SizeClassAllocatorLocalCacheINS_20SizeClassAllocator32INS_19AndroidSvelteConfigEEEE13TransferBatchEEE",
   "name" : "const scudo::IntrusiveList<scudo::SizeClassAllocatorLocalCache<SizeClassAllocator32<AndroidSvelteConfig>>::TransferBatch>",
   "referenced_type" : "_ZTIN5scudo13IntrusiveListINS_28SizeClassAllocatorLocalCacheINS_20SizeClassAllocator32INS_19AndroidSvelteConfigEEEE13TransferBatchEEE",
   "self_type" : "_ZTIKN5scudo13IntrusiveListINS_28SizeClassAllocatorLocalCacheINS_20SizeClassAllocator32INS_19AndroidSvelteConfigEEEE13TransferBatchEEE",
   "size" : 12,
   "source_file" : "external/scudo/standalone/list.h"
  },
  {
   "alignment" : 4,
   "is_const" : true,
   "linker_set_key" : "_ZTIKN5scudo15QuarantineBatchE",
   "name" : "const scudo::QuarantineBatch",
   "referenced_type" : "_ZTIN5scudo15QuarantineBatchE",
   "self_type" : "_ZTIKN5scudo15QuarantineBatchE",
   "size" : 4088,
   "source_file" : "external/scudo/standalone/list.h"
  },
  {
   "alignment" : 4,
   "is_const" : true,
   "linker_set_key" : "_ZTIKN5scudo15QuarantineCacheINS_9AllocatorINS_13AndroidConfigEXadL_Z21scudo_malloc_postinitEEE18QuarantineCallbackEEE",
   "name" : "const scudo::QuarantineCache<scudo::Allocator<AndroidConfig, &scudo_malloc_postinit>::QuarantineCallback>",
   "referenced_type" : "_ZTIN5scudo15QuarantineCacheINS_9AllocatorINS_13AndroidConfigEXadL_Z21scudo_malloc_postinitEEE18QuarantineCallbackEEE",
   "self_type" : "_ZTIKN5scudo15QuarantineCacheINS_9AllocatorINS_13AndroidConfigEXadL_Z21scudo_malloc_postinitEEE18QuarantineCallbackEEE",
   "size" : 16,
   "source_file" : "external/scudo/standalone/quarantine.h"
  },
  {
   "alignment" : 4,
   "is_const" : true,
   "linker_set_key" : "_ZTIKN5scudo15QuarantineCacheINS_9AllocatorINS_19AndroidSvelteConfigEXadL_Z28scudo_svelte_malloc_postinitEEE18QuarantineCallbackEEE",
   "name" : "const scudo::QuarantineCache<scudo::Allocator<AndroidSvelteConfig, &scudo_svelte_malloc_postinit>::QuarantineCallback>",
   "referenced_type" : "_ZTIN5scudo15QuarantineCacheINS_9AllocatorINS_19AndroidSvelteConfigEXadL_Z28scudo_svelte_malloc_postinitEEE18QuarantineCallbackEEE",
   "self_type" : "_ZTIKN5scudo15QuarantineCacheINS_9AllocatorINS_19AndroidSvelteConfigEXadL_Z28scudo_svelte_malloc_postinitEEE18QuarantineCallbackEEE",
   "size" : 16,
   "source_file" : "external/scudo/standalone/quarantine.h"
  },
  {
   "alignment" : 4,
   "is_const" : true,
   "linker_set_key" : "_ZTIKN5scudo15ReleaseRecorderE",
   "name" : "const scudo::ReleaseRecorder",
   "referenced_type" : "_ZTIN5scudo15ReleaseRecorderE",
   "self_type" : "_ZTIKN5scudo15ReleaseRecorderE",
   "size" : 16,
   "source_file" : "external/scudo/standalone/release.h"
  },
  {
   "alignment" : 64,
   "is_const" : true,
   "linker_set_key" : "_ZTIKN5scudo16GlobalQuarantineINS_9AllocatorINS_13AndroidConfigEXadL_Z21scudo_malloc_postinitEEE18QuarantineCallbackEvEE",
   "name" : "const scudo::GlobalQuarantine<scudo::Allocator<AndroidConfig, &scudo_malloc_postinit>::QuarantineCallback, void>",
   "referenced_type" : "_ZTIN5scudo16GlobalQuarantineINS_9AllocatorINS_13AndroidConfigEXadL_Z21scudo_malloc_postinitEEE18QuarantineCallbackEvEE",
   "self_type" : "_ZTIKN5scudo16GlobalQuarantineINS_9AllocatorINS_13AndroidConfigEXadL_Z21scudo_malloc_postinitEEE18QuarantineCallbackEvEE",
   "size" : 192,
   "source_file" : "external/scudo/standalone/quarantine.h"
  },
  {
   "alignment" : 64,
   "is_const" : true,
   "linker_set_key" : "_ZTIKN5scudo16GlobalQuarantineINS_9AllocatorINS_19AndroidSvelteConfigEXadL_Z28scudo_svelte_malloc_postinitEEE18QuarantineCallbackEvEE",
   "name" : "const scudo::GlobalQuarantine<scudo::Allocator<AndroidSvelteConfig, &scudo_svelte_malloc_postinit>::QuarantineCallback, void>",
   "referenced_type" : "_ZTIN5scudo16GlobalQuarantineINS_9AllocatorINS_19AndroidSvelteConfigEXadL_Z28scudo_svelte_malloc_postinitEEE18QuarantineCallbackEvEE",
   "self_type" : "_ZTIKN5scudo16GlobalQuarantineINS_9AllocatorINS_19AndroidSvelteConfigEXadL_Z28scudo_svelte_malloc_postinitEEE18QuarantineCallbackEvEE",
   "size" : 192,
   "source_file" : "external/scudo/standalone/quarantine.h"
  },
  {
   "alignment" : 8,
   "is_const" : true,
   "linker_set_key" : "_ZTIKN5scudo17TableSizeClassMapINS_22AndroidSizeClassConfigEE8LSBTableE",
   "name" : "const scudo::TableSizeClassMap<AndroidSizeClassConfig>::LSBTable",
   "referenced_type" : "_ZTIN5scudo17TableSizeClassMapINS_22AndroidSizeClassConfigEE8LSBTableE",
   "self_type" : "_ZTIKN5scudo17TableSizeClassMapINS_22AndroidSizeClassConfigEE8LSBTableE",
   "size" : 80,
   "source_file" : "external/scudo/standalone/size_class_map.h"
  },
  {
   "alignment" : 1,
   "is_const" : true,
   "linker_set_key" : "_ZTIKN5scudo17TableSizeClassMapINS_22AndroidSizeClassConfigEE9SizeTableE",
   "name" : "const scudo::TableSizeClassMap<AndroidSizeClassConfig>::SizeTable",
   "referenced_type" : "_ZTIN5scudo17TableSizeClassMapINS_22AndroidSizeClassConfigEE9SizeTableE",
   "self_type" : "_ZTIKN5scudo17TableSizeClassMapINS_22AndroidSizeClassConfigEE9SizeTableE",
   "size" : 1152,
   "source_file" : "external/scudo/standalone/size_class_map.h"
  },
  {
   "alignment" : 4,
   "is_const" : true,
   "linker_set_key" : "_ZTIKN5scudo18PackedCounterArrayE",
   "name" : "const scudo::PackedCounterArray",
   "referenced_type" : "_ZTIN5scudo18PackedCounterArrayE",
   "self_type" : "_ZTIKN5scudo18PackedCounterArrayE",
   "size" : 36,
   "source_file" : "external/scudo/standalone/release.h"
  },
  {
   "alignment" : 64,
   "is_const" : true,
   "linker_set_key" : "_ZTIKN5scudo18TSDRegistrySharedTINS_9AllocatorINS_13AndroidConfigEXadL_Z21scudo_malloc_postinitEEEELj8ELj2EEE",
   "name" : "const scudo::TSDRegistrySharedT<scudo::Allocator<scudo::AndroidConfig, &scudo_malloc_postinit>, 8, 2>",
   "referenced_type" : "_ZTIN5scudo18TSDRegistrySharedTINS_9AllocatorINS_13AndroidConfigEXadL_Z21scudo_malloc_postinitEEEELj8ELj2EEE",
   "self_type" : "_ZTIKN5scudo18TSDRegistrySharedTINS_9AllocatorINS_13AndroidConfigEXadL_Z21scudo_malloc_postinitEEEELj8ELj2EEE",
   "size" : 65088,
   "source_file" : "external/scudo/standalone/tsd_shared.h"
  },
  {
   "alignment" : 64,
   "is_const" : true,
   "linker_set_key" : "_ZTIKN5scudo18TSDRegistrySharedTINS_9AllocatorINS_19AndroidSvelteConfigEXadL_Z28scudo_svelte_malloc_postinitEEEELj2ELj1EEE",
   "name" : "const scudo::TSDRegistrySharedT<scudo::Allocator<scudo::AndroidSvelteConfig, &scudo_svelte_malloc_postinit>, 2, 1>",
   "referenced_type" : "_ZTIN5scudo18TSDRegistrySharedTINS_9AllocatorINS_19AndroidSvelteConfigEXadL_Z28scudo_svelte_malloc_postinitEEEELj2ELj1EEE",
   "self_type" : "_ZTIKN5scudo18TSDRegistrySharedTINS_9AllocatorINS_19AndroidSvelteConfigEXadL_Z28scudo_svelte_malloc_postinitEEEELj2ELj1EEE",
   "size" : 18368,
   "source_file" : "external/scudo/standalone/tsd_shared.h"
  },
  {
   "alignment" : 64,
   "is_const" : true,
   "linker_set_key" : "_ZTIKN5scudo20SizeClassAllocator32INS_13AndroidConfigEEE",
   "name" : "const scudo::SizeClassAllocator32<scudo::AndroidConfig>",
   "referenced_type" : "_ZTIN5scudo20SizeClassAllocator32INS_13AndroidConfigEEE",
   "self_type" : "_ZTIKN5scudo20SizeClassAllocator32INS_13AndroidConfigEEE",
   "size" : 24832,
   "source_file" : "external/scudo/standalone/primary32.h"
  },
  {
   "alignment" : 64,
   "is_const" : true,
   "linker_set_key" : "_ZTIKN5scudo20SizeClassAllocator32INS_19AndroidSvelteConfigEEE",
   "name" : "const scudo::SizeClassAllocator32<scudo::AndroidSvelteConfig>",
   "referenced_type" : "_ZTIN5scudo20SizeClassAllocator32INS_19AndroidSvelteConfigEEE",
   "self_type" : "_ZTIKN5scudo20SizeClassAllocator32INS_19AndroidSvelteConfigEEE",
   "size" : 75008,
   "source_file" : "external/scudo/standalone/primary32.h"
  },
  {
   "alignment" : 4,
   "is_const" : true,
   "linker_set_key" : "_ZTIKN5scudo28SizeClassAllocatorLocalCacheINS_20SizeClassAllocator32INS_13AndroidConfigEEEE13TransferBatchE",
   "name" : "const scudo::SizeClassAllocatorLocalCache<SizeClassAllocator32<AndroidConfig>>::TransferBatch",
   "referenced_type" : "_ZTIN5scudo28SizeClassAllocatorLocalCacheINS_20SizeClassAllocator32INS_13AndroidConfigEEEE13TransferBatchE",
   "self_type" : "_ZTIKN5scudo28SizeClassAllocatorLocalCacheINS_20SizeClassAllocator32INS_13AndroidConfigEEEE13TransferBatchE",
   "size" : 64,
   "source_file" : "external/scudo/standalone/list.h"
  },
  {
   "alignment" : 4,
   "is_const" : true,
   "linker_set_key" : "_ZTIKN5scudo28SizeClassAllocatorLocalCacheINS_20SizeClassAllocator32INS_19AndroidSvelteConfigEEEE13TransferBatchE",
   "name" : "const scudo::SizeClassAllocatorLocalCache<SizeClassAllocator32<AndroidSvelteConfig>>::TransferBatch",
   "referenced_type" : "_ZTIN5scudo28SizeClassAllocatorLocalCacheINS_20SizeClassAllocator32INS_19AndroidSvelteConfigEEEE13TransferBatchE",
   "self_type" : "_ZTIKN5scudo28SizeClassAllocatorLocalCacheINS_20SizeClassAllocator32INS_19AndroidSvelteConfigEEEE13TransferBatchE",
   "size" : 64,
   "source_file" : "external/scudo/standalone/list.h"
  },
  {
   "alignment" : 4,
   "is_const" : true,
   "linker_set_key" : "_ZTIKN5scudo5Chunk14UnpackedHeaderE",
   "name" : "const scudo::Chunk::UnpackedHeader",
   "referenced_type" : "_ZTIN5scudo5Chunk14UnpackedHeaderE",
   "self_type" : "_ZTIKN5scudo5Chunk14UnpackedHeaderE",
   "size" : 8,
   "source_file" : "external/scudo/standalone/common.h"
  },
  {
   "alignment" : 4,
   "is_const" : true,
   "linker_set_key" : "_ZTIKN5scudo7OptionsE",
   "name" : "const scudo::Options",
   "referenced_type" : "_ZTIN5scudo7OptionsE",
   "self_type" : "_ZTIKN5scudo7OptionsE",
   "size" : 4,
   "source_file" : "external/scudo/standalone/options.h"
  },
  {
   "alignment" : 64,
   "is_const" : true,
   "linker_set_key" : "_ZTIKN5scudo9AllocatorINS_13AndroidConfigEXadL_Z21scudo_malloc_postinitEEEE",
   "name" : "const scudo::Allocator<scudo::AndroidConfig, &scudo_malloc_postinit>",
   "referenced_type" : "_ZTIN5scudo9AllocatorINS_13AndroidConfigEXadL_Z21scudo_malloc_postinitEEEE",
   "self_type" : "_ZTIKN5scudo9AllocatorINS_13AndroidConfigEXadL_Z21scudo_malloc_postinitEEEE",
   "size" : 5342464,
   "source_file" : "external/scudo/standalone/combined.h"
  },
  {
   "alignment" : 4,
   "is_const" : true,
   "linker_set_key" : "_ZTIKPKN5scudo15QuarantineBatchE",
   "name" : "const scudo::QuarantineBatch *const",
   "referenced_type" : "_ZTIPKN5scudo15QuarantineBatchE",
   "self_type" : "_ZTIKPKN5scudo15QuarantineBatchE",
   "size" : 4,
   "source_file" : "external/scudo/standalone/quarantine.h"
  },
  {
   "alignment" : 4,
   "is_const" : true,
   "linker_set_key" : "_ZTIKPKc",
   "name" : "const char *const",
   "referenced_type" : "_ZTIPKc",
   "self_type" : "_ZTIKPKc",
   "size" : 4,
   "source_file" : "bionic/libc/include/string.h"
  },
  {
   "alignment" : 4,
   "is_const" : true,
   "linker_set_key" : "_ZTIKPKv",
   "name" : "const void *const",
   "referenced_type" : "_ZTIPKv",
   "self_type" : "_ZTIKPKv",
   "size" : 4,
   "source_file" : "bionic/libc/include/string.h"
  },
  {
   "alignment" : 4,
   "is_const" : true,
   "linker_set_key" : "_ZTIKPN5scudo15QuarantineBatchE",
   "name" : "scudo::QuarantineBatch *const",
   "referenced_type" : "_ZTIPN5scudo15QuarantineBatchE",
   "self_type" : "_ZTIKPN5scudo15QuarantineBatchE",
   "size" : 4,
   "source_file" : "external/scudo/standalone/quarantine.h"
  },
  {
   "alignment" : 4,
   "is_const" : true,
   "linker_set_key" : "_ZTIKPN5scudo15ReleaseRecorderE",
   "name" : "scudo::ReleaseRecorder *const",
   "referenced_type" : "_ZTIPN5scudo15ReleaseRecorderE",
   "self_type" : "_ZTIKPN5scudo15ReleaseRecorderE",
   "size" : 4,
   "source_file" : "external/scudo/standalone/release.h"
  },
  {
   "alignment" : 4,
   "is_const" : true,
   "linker_set_key" : "_ZTIKPc",
   "name" : "char *const",
   "referenced_type" : "_ZTIPc",
   "self_type" : "_ZTIKPc",
   "size" : 4,
   "source_file" : "bionic/libc/include/string.h"
  },
  {
   "alignment" : 4,
   "is_const" : true,
   "linker_set_key" : "_ZTIKPv",
   "name" : "void *const",
   "referenced_type" : "_ZTIPv",
   "self_type" : "_ZTIKPv",
   "size" : 4,
   "source_file" : "bionic/libc/include/string.h"
  },
  {
   "alignment" : 1,
   "is_const" : true,
   "linker_set_key" : "_ZTIKb",
   "name" : "const bool",
   "referenced_type" : "_ZTIb",
   "self_type" : "_ZTIKb",
   "size" : 1,
   "source_file" : "external/scudo/standalone/allocator_config.h"
  },
  {
   "alignment" : 1,
   "is_const" : true,
   "linker_set_key" : "_ZTIKc",
   "name" : "const char",
   "referenced_type" : "_ZTIc",
   "self_type" : "_ZTIKc",
   "size" : 1,
   "source_file" : "bionic/libc/include/string.h"
  },
  {
   "alignment" : 1,
   "is_const" : true,
   "linker_set_key" : "_ZTIKh",
   "name" : "const unsigned char",
   "referenced_type" : "_ZTIh",
   "self_type" : "_ZTIKh",
   "size" : 1,
   "source_file" : "external/scudo/standalone/common.h"
  },
  {
   "alignment" : 4,
   "is_const" : true,
   "linker_set_key" : "_ZTIKi",
   "name" : "const int",
   "referenced_type" : "_ZTIi",
   "self_type" : "_ZTIKi",
   "size" : 4,
   "source_file" : "external/scudo/standalone/allocator_config.h"
  },
  {
   "alignment" : 4,
   "is_const" : true,
   "linker_set_key" : "_ZTIKj",
   "name" : "const unsigned int",
   "referenced_type" : "_ZTIj",
   "self_type" : "_ZTIKj",
   "size" : 4,
   "source_file" : "external/scudo/standalone/flags_parser.h"
  },
  {
   "alignment" : 4,
   "is_const" : true,
   "linker_set_key" : "_ZTIKl",
   "name" : "const long",
   "referenced_type" : "_ZTIl",
   "self_type" : "_ZTIKl",
   "size" : 4,
   "source_file" : "external/scudo/standalone/combined.h"
  },
  {
   "alignment" : 4,
   "is_const" : true,
   "linker_set_key" : "_ZTIKm",
   "name" : "const unsigned long",
   "referenced_type" : "_ZTIm",
   "self_type" : "_ZTIKm",
   "size" : 4,
   "source_file" : "external/scudo/standalone/common.h"
  },
  {
   "is_const" : true,
   "linker_set_key" : "_ZTIKv",
   "name" : "const void",
   "referenced_type" : "_ZTIv",
   "self_type" : "_ZTIKv",
   "source_file" : "bionic/libc/include/string.h"
  },
  {
   "alignment" : 8,
   "is_const" : true,
   "linker_set_key" : "_ZTIKy",
   "name" : "const unsigned long long",
   "referenced_type" : "_ZTIy",
   "self_type" : "_ZTIKy",
   "size" : 8,
   "source_file" : "external/scudo/standalone/common.h"
  },
  {
   "alignment" : 4,
   "is_const" : true,
   "is_volatile" : true,
   "linker_set_key" : "_ZTIVKN5scudo10atomic_s32E",
   "name" : "const volatile scudo::atomic_s32",
   "referenced_type" : "_ZTIN5scudo10atomic_s32E",
   "self_type" : "_ZTIVKN5scudo10atomic_s32E",
   "size" : 4,
   "source_file" : "external/scudo/standalone/atomic_helpers.h"
  },
  {
   "alignment" : 4,
   "is_const" : true,
   "is_volatile" : true,
   "linker_set_key" : "_ZTIVKN5scudo10atomic_u32E",
   "name" : "const volatile scudo::atomic_u32",
   "referenced_type" : "_ZTIN5scudo10atomic_u32E",
   "self_type" : "_ZTIVKN5scudo10atomic_u32E",
   "size" : 4,
   "source_file" : "external/scudo/standalone/atomic_helpers.h"
  },
  {
   "alignment" : 8,
   "is_const" : true,
   "is_volatile" : true,
   "linker_set_key" : "_ZTIVKN5scudo10atomic_u64E",
   "name" : "const volatile scudo::atomic_u64",
   "referenced_type" : "_ZTIN5scudo10atomic_u64E",
   "self_type" : "_ZTIVKN5scudo10atomic_u64E",
   "size" : 8,
   "source_file" : "external/scudo/standalone/atomic_helpers.h"
  },
  {
   "alignment" : 4,
   "is_const" : true,
   "is_volatile" : true,
   "linker_set_key" : "_ZTIVKN5scudo11atomic_uptrE",
   "name" : "const volatile scudo::atomic_uptr",
   "referenced_type" : "_ZTIN5scudo11atomic_uptrE",
   "self_type" : "_ZTIVKN5scudo11atomic_uptrE",
   "size" : 4,
   "source_file" : "external/scudo/standalone/atomic_helpers.h"
  },
  {
   "alignment" : 4,
   "is_volatile" : true,
   "linker_set_key" : "_ZTIVN5scudo10atomic_s32E",
   "name" : "volatile scudo::atomic_s32",
   "referenced_type" : "_ZTIN5scudo10atomic_s32E",
   "self_type" : "_ZTIVN5scudo10atomic_s32E",
   "size" : 4,
   "source_file" : "external/scudo/standalone/atomic_helpers.h"
  },
  {
   "alignment" : 4,
   "is_volatile" : true,
   "linker_set_key" : "_ZTIVN5scudo10atomic_u32E",
   "name" : "volatile scudo::atomic_u32",
   "referenced_type" : "_ZTIN5scudo10atomic_u32E",
   "self_type" : "_ZTIVN5scudo10atomic_u32E",
   "size" : 4,
   "source_file" : "external/scudo/standalone/atomic_helpers.h"
  },
  {
   "alignment" : 8,
   "is_volatile" : true,
   "linker_set_key" : "_ZTIVN5scudo10atomic_u64E",
   "name" : "volatile scudo::atomic_u64",
   "referenced_type" : "_ZTIN5scudo10atomic_u64E",
   "self_type" : "_ZTIVN5scudo10atomic_u64E",
   "size" : 8,
   "source_file" : "external/scudo/standalone/atomic_helpers.h"
  },
  {
   "alignment" : 4,
   "is_volatile" : true,
   "linker_set_key" : "_ZTIVN5scudo11atomic_uptrE",
   "name" : "volatile scudo::atomic_uptr",
   "referenced_type" : "_ZTIN5scudo11atomic_uptrE",
   "self_type" : "_ZTIVN5scudo11atomic_uptrE",
   "size" : 4,
   "source_file" : "external/scudo/standalone/atomic_helpers.h"
  },
  {
   "alignment" : 1,
   "is_volatile" : true,
   "linker_set_key" : "_ZTIVh",
   "name" : "volatile unsigned char",
   "referenced_type" : "_ZTIh",
   "self_type" : "_ZTIVh",
   "size" : 1,
   "source_file" : "external/scudo/standalone/atomic_helpers.h"
  },
  {
   "alignment" : 4,
   "is_volatile" : true,
   "linker_set_key" : "_ZTIVi",
   "name" : "volatile int",
   "referenced_type" : "_ZTIi",
   "self_type" : "_ZTIVi",
   "size" : 4,
   "source_file" : "external/scudo/standalone/atomic_helpers.h"
  },
  {
   "alignment" : 4,
   "is_volatile" : true,
   "linker_set_key" : "_ZTIVj",
   "name" : "volatile unsigned int",
   "referenced_type" : "_ZTIj",
   "self_type" : "_ZTIVj",
   "size" : 4,
   "source_file" : "external/scudo/standalone/atomic_helpers.h"
  },
  {
   "alignment" : 4,
   "is_volatile" : true,
   "linker_set_key" : "_ZTIVm",
   "name" : "volatile unsigned long",
   "referenced_type" : "_ZTIm",
   "self_type" : "_ZTIVm",
   "size" : 4,
   "source_file" : "external/scudo/standalone/atomic_helpers.h"
  },
  {
   "alignment" : 2,
   "is_volatile" : true,
   "linker_set_key" : "_ZTIVt",
   "name" : "volatile unsigned short",
   "referenced_type" : "_ZTIt",
   "self_type" : "_ZTIVt",
   "size" : 2,
   "source_file" : "external/scudo/standalone/atomic_helpers.h"
  },
  {
   "alignment" : 8,
   "is_volatile" : true,
   "linker_set_key" : "_ZTIVy",
   "name" : "volatile unsigned long long",
   "referenced_type" : "_ZTIy",
   "self_type" : "_ZTIVy",
   "size" : 8,
   "source_file" : "external/scudo/standalone/atomic_helpers.h"
  }
 ],
 "record_types" :
 [
  {
   "alignment" : 4,
   "fields" :
   [
    {
     "field_name" : "_kill",
     "referenced_type" : "_ZTIN10__sifieldsUt_E"
    },
    {
     "field_name" : "_timer",
     "referenced_type" : "_ZTIN10__sifieldsUt0_E"
    },
    {
     "field_name" : "_rt",
     "referenced_type" : "_ZTIN10__sifieldsUt1_E"
    },
    {
     "field_name" : "_sigchld",
     "referenced_type" : "_ZTIN10__sifieldsUt2_E"
    },
    {
     "field_name" : "_sigfault",
     "referenced_type" : "_ZTIN10__sifieldsUt3_E"
    },
    {
     "field_name" : "_sigpoll",
     "referenced_type" : "_ZTIN10__sifieldsUt4_E"
    },
    {
     "field_name" : "_sigsys",
     "referenced_type" : "_ZTIN10__sifieldsUt5_E"
    }
   ],
   "linker_set_key" : "_ZTI10__sifields",
   "name" : "__sifields",
   "record_kind" : "union",
   "referenced_type" : "_ZTI10__sifields",
   "self_type" : "_ZTI10__sifields",
   "size" : 20,
   "source_file" : "bionic/libc/kernel/uapi/asm-generic/siginfo.h"
  },
  {
   "alignment" : 8,
   "fields" :
   [
    {
     "field_name" : "flags",
     "referenced_type" : "_ZTIy"
    },
    {
     "field_name" : "pidfd",
     "field_offset" : 64,
     "referenced_type" : "_ZTIy"
    },
    {
     "field_name" : "child_tid",
     "field_offset" : 128,
     "referenced_type" : "_ZTIy"
    },
    {
     "field_name" : "parent_tid",
     "field_offset" : 192,
     "referenced_type" : "_ZTIy"
    },
    {
     "field_name" : "exit_signal",
     "field_offset" : 256,
     "referenced_type" : "_ZTIy"
    },
    {
     "field_name" : "stack",
     "field_offset" : 320,
     "referenced_type" : "_ZTIy"
    },
    {
     "field_name" : "stack_size",
     "field_offset" : 384,
     "referenced_type" : "_ZTIy"
    },
    {
     "field_name" : "tls",
     "field_offset" : 448,
     "referenced_type" : "_ZTIy"
    },
    {
     "field_name" : "set_tid",
     "field_offset" : 512,
     "referenced_type" : "_ZTIy"
    },
    {
     "field_name" : "set_tid_size",
     "field_offset" : 576,
     "referenced_type" : "_ZTIy"
    },
    {
     "field_name" : "cgroup",
     "field_offset" : 640,
     "referenced_type" : "_ZTIy"
    }
   ],
   "linker_set_key" : "_ZTI10clone_args",
   "name" : "clone_args",
   "referenced_type" : "_ZTI10clone_args",
   "self_type" : "_ZTI10clone_args",
   "size" : 88,
   "source_file" : "bionic/libc/kernel/uapi/linux/sched.h"
  },
  {
   "alignment" : 4,
   "fields" :
   [
    {
     "field_name" : "it_interval",
     "referenced_type" : "_ZTI8timespec"
    },
    {
     "field_name" : "it_value",
     "field_offset" : 64,
     "referenced_type" : "_ZTI8timespec"
    }
   ],
   "linker_set_key" : "_ZTI10itimerspec",
   "name" : "itimerspec",
   "referenced_type" : "_ZTI10itimerspec",
   "self_type" : "_ZTI10itimerspec",
   "size" : 16,
   "source_file" : "bionic/libc/kernel/uapi/linux/time.h"
  },
  {
   "alignment" : 4,
   "fields" :
   [
    {
     "field_name" : "trap_no",
     "referenced_type" : "_ZTIm"
    },
    {
     "field_name" : "error_code",
     "field_offset" : 32,
     "referenced_type" : "_ZTIm"
    },
    {
     "field_name" : "oldmask",
     "field_offset" : 64,
     "referenced_type" : "_ZTIm"
    },
    {
     "field_name" : "arm_r0",
     "field_offset" : 96,
     "referenced_type" : "_ZTIm"
    },
    {
     "field_name" : "arm_r1",
     "field_offset" : 128,
     "referenced_type" : "_ZTIm"
    },
    {
     "field_name" : "arm_r2",
     "field_offset" : 160,
     "referenced_type" : "_ZTIm"
    },
    {
     "field_name" : "arm_r3",
     "field_offset" : 192,
     "referenced_type" : "_ZTIm"
    },
    {
     "field_name" : "arm_r4",
     "field_offset" : 224,
     "referenced_type" : "_ZTIm"
    },
    {
     "field_name" : "arm_r5",
     "field_offset" : 256,
     "referenced_type" : "_ZTIm"
    },
    {
     "field_name" : "arm_r6",
     "field_offset" : 288,
     "referenced_type" : "_ZTIm"
    },
    {
     "field_name" : "arm_r7",
     "field_offset" : 320,
     "referenced_type" : "_ZTIm"
    },
    {
     "field_name" : "arm_r8",
     "field_offset" : 352,
     "referenced_type" : "_ZTIm"
    },
    {
     "field_name" : "arm_r9",
     "field_offset" : 384,
     "referenced_type" : "_ZTIm"
    },
    {
     "field_name" : "arm_r10",
     "field_offset" : 416,
     "referenced_type" : "_ZTIm"
    },
    {
     "field_name" : "arm_fp",
     "field_offset" : 448,
     "referenced_type" : "_ZTIm"
    },
    {
     "field_name" : "arm_ip",
     "field_offset" : 480,
     "referenced_type" : "_ZTIm"
    },
    {
     "field_name" : "arm_sp",
     "field_offset" : 512,
     "referenced_type" : "_ZTIm"
    },
    {
     "field_name" : "arm_lr",
     "field_offset" : 544,
     "referenced_type" : "_ZTIm"
    },
    {
     "field_name" : "arm_pc",
     "field_offset" : 576,
     "referenced_type" : "_ZTIm"
    },
    {
     "field_name" : "arm_cpsr",
     "field_offset" : 608,
     "referenced_type" : "_ZTIm"
    },
    {
     "field_name" : "fault_address",
     "field_offset" : 640,
     "referenced_type" : "_ZTIm"
    }
   ],
   "linker_set_key" : "_ZTI10sigcontext",
   "name" : "sigcontext",
   "referenced_type" : "_ZTI10sigcontext",
   "self_type" : "_ZTI10sigcontext",
   "size" : 84,
   "source_file" : "bionic/libc/kernel/uapi/asm-arm/asm/sigcontext.h"
  },
  {
   "alignment" : 4,
   "fields" :
   [
    {
     "field_name" : "__bits",
     "referenced_type" : "_ZTIA2_m"
    }
   ],
   "linker_set_key" : "_ZTI10sigset64_t",
   "name" : "sigset64_t",
   "referenced_type" : "_ZTI10sigset64_t",
   "self_type" : "_ZTI10sigset64_t",
   "size" : 8,
   "source_file" : "bionic/libc/include/bits/signal_types.h"
  },
  {
   "alignment" : 8,
   "fields" :
   [
    {
     "field_name" : "__clang_max_align_nonce1",
     "referenced_type" : "_ZTIx"
    },
    {
     "field_name" : "__clang_max_align_nonce2",
     "field_offset" : 64,
     "referenced_type" : "_ZTIe"
    }
   ],
   "linker_set_key" : "_ZTI11max_align_t",
   "name" : "max_align_t",
   "referenced_type" : "_ZTI11max_align_t",
   "self_type" : "_ZTI11max_align_t",
   "size" : 16,
   "source_file" : "prebuilts/clang-tools/linux-x86/clang-headers/__stddef_max_align_t.h"
  },
  {
   "alignment" : 4,
   "fields" :
   [
    {
     "field_name" : "sched_priority",
     "referenced_type" : "_ZTIi"
    }
   ],
   "linker_set_key" : "_ZTI11sched_param",
   "name" : "sched_param",
   "referenced_type" : "_ZTI11sched_param",
   "self_type" : "_ZTI11sched_param",
   "size" : 4,
   "source_file" : "bionic/libc/include/sched.h"
  },
  {
   "alignment" : 4,
   "fields" :
   [
    {
     "referenced_type" : "_ZTIN11sigaction64Ut_E"
    },
    {
     "field_name" : "sa_flags",
     "field_offset" : 32,
     "referenced_type" : "_ZTIi"
    },
    {
     "field_name" : "sa_restorer",
     "field_offset" : 64,
     "referenced_type" : "_ZTIPFvvE"
    },
    {
     "field_name" : "sa_mask",
     "field_offset" : 96,
     "referenced_type" : "_ZTI10sigset64_t"
    }
   ],
   "linker_set_key" : "_ZTI11sigaction64",
   "name" : "sigaction64",
   "referenced_type" : "_ZTI11sigaction64",
   "self_type" : "_ZTI11sigaction64",
   "size" : 20,
   "source_file" : "bionic/libc/include/bits/signal_types.h"
  },
  {
   "alignment" : 4,
   "fields" :
   [
    {
     "field_name" : "ss_sp",
     "referenced_type" : "_ZTIPv"
    },
    {
     "field_name" : "ss_flags",
     "field_offset" : 32,
     "referenced_type" : "_ZTIi"
    },
    {
     "field_name" : "ss_size",
     "field_offset" : 64,
     "referenced_type" : "_ZTIj"
    }
   ],
   "linker_set_key" : "_ZTI11sigaltstack",
   "name" : "sigaltstack",
   "referenced_type" : "_ZTI11sigaltstack",
   "self_type" : "_ZTI11sigaltstack",
   "size" : 12,
   "source_file" : "bionic/libc/kernel/uapi/asm-arm/asm/signal.h"
  },
  {
   "alignment" : 4,
   "fields" :
   [
    {
     "field_name" : "fpregs",
     "referenced_type" : "_ZTIA8_N11user_fpregs6fp_regE"
    },
    {
     "field_name" : "fpsr",
     "field_offset" : 768,
     "referenced_type" : "_ZTIj"
    },
    {
     "field_name" : "fpcr",
     "field_offset" : 800,
     "referenced_type" : "_ZTIj"
    },
    {
     "field_name" : "ftype",
     "field_offset" : 832,
     "referenced_type" : "_ZTIA8_h"
    },
    {
     "field_name" : "init_flag",
     "field_offset" : 896,
     "referenced_type" : "_ZTIj"
    }
   ],
   "linker_set_key" : "_ZTI11user_fpregs",
   "name" : "user_fpregs",
   "referenced_type" : "_ZTI11user_fpregs",
   "self_type" : "_ZTI11user_fpregs",
   "size" : 116,
   "source_file" : "bionic/libc/include/sys/user.h"
  },
  {
   "alignment" : 8,
   "fields" :
   [
    {
     "field_name" : "start_code",
     "referenced_type" : "_ZTIy"
    },
    {
     "field_name" : "end_code",
     "field_offset" : 64,
     "referenced_type" : "_ZTIy"
    },
    {
     "field_name" : "start_data",
     "field_offset" : 128,
     "referenced_type" : "_ZTIy"
    },
    {
     "field_name" : "end_data",
     "field_offset" : 192,
     "referenced_type" : "_ZTIy"
    },
    {
     "field_name" : "start_brk",
     "field_offset" : 256,
     "referenced_type" : "_ZTIy"
    },
    {
     "field_name" : "brk",
     "field_offset" : 320,
     "referenced_type" : "_ZTIy"
    },
    {
     "field_name" : "start_stack",
     "field_offset" : 384,
     "referenced_type" : "_ZTIy"
    },
    {
     "field_name" : "arg_start",
     "field_offset" : 448,
     "referenced_type" : "_ZTIy"
    },
    {
     "field_name" : "arg_end",
     "field_offset" : 512,
     "referenced_type" : "_ZTIy"
    },
    {
     "field_name" : "env_start",
     "field_offset" : 576,
     "referenced_type" : "_ZTIy"
    },
    {
     "field_name" : "env_end",
     "field_offset" : 640,
     "referenced_type" : "_ZTIy"
    },
    {
     "field_name" : "auxv",
     "field_offset" : 704,
     "referenced_type" : "_ZTIPy"
    },
    {
     "field_name" : "auxv_size",
     "field_offset" : 736,
     "referenced_type" : "_ZTIj"
    },
    {
     "field_name" : "exe_fd",
     "field_offset" : 768,
     "referenced_type" : "_ZTIj"
    }
   ],
   "linker_set_key" : "_ZTI12prctl_mm_map",
   "name" : "prctl_mm_map",
   "referenced_type" : "_ZTI12prctl_mm_map",
   "self_type" : "_ZTI12prctl_mm_map",
   "size" : 104,
   "source_file" : "bionic/libc/kernel/uapi/linux/prctl.h"
  },
  {
   "alignment" : 4,
   "fields" :
   [
    {
     "field_name" : "fpexc",
     "referenced_type" : "_ZTIm"
    },
    {
     "field_name" : "fpinst",
     "field_offset" : 32,
     "referenced_type" : "_ZTIm"
    },
    {
     "field_name" : "fpinst2",
     "field_offset" : 64,
     "referenced_type" : "_ZTIm"
    }
   ],
   "linker_set_key" : "_ZTI12user_vfp_exc",
   "name" : "user_vfp_exc",
   "referenced_type" : "_ZTI12user_vfp_exc",
   "self_type" : "_ZTI12user_vfp_exc",
   "size" : 12,
   "source_file" : "bionic/libc/include/sys/user.h"
  },
  {
   "alignment" : 4,
   "fields" :
   [
    {
     "field_name" : "flags",
     "referenced_type" : "_ZTIj"
    },
    {
     "field_name" : "stack_base",
     "field_offset" : 32,
     "referenced_type" : "_ZTIPv"
    },
    {
     "field_name" : "stack_size",
     "field_offset" : 64,
     "referenced_type" : "_ZTIj"
    },
    {
     "field_name" : "guard_size",
     "field_offset" : 96,
     "referenced_type" : "_ZTIj"
    },
    {
     "field_name" : "sched_policy",
     "field_offset" : 128,
     "referenced_type" : "_ZTIi"
    },
    {
     "field_name" : "sched_priority",
     "field_offset" : 160,
     "referenced_type" : "_ZTIi"
    }
   ],
   "linker_set_key" : "_ZTI14pthread_attr_t",
   "name" : "pthread_attr_t",
   "referenced_type" : "_ZTI14pthread_attr_t",
   "self_type" : "_ZTI14pthread_attr_t",
   "size" : 24,
   "source_file" : "bionic/libc/include/bits/pthread_types.h"
  },
  {
   "alignment" : 4,
   "fields" :
   [
    {
     "field_name" : "__private",
     "referenced_type" : "_ZTIA1_i"
    }
   ],
   "linker_set_key" : "_ZTI14pthread_cond_t",
   "name" : "pthread_cond_t",
   "referenced_type" : "_ZTI14pthread_cond_t",
   "self_type" : "_ZTI14pthread_cond_t",
   "size" : 4,
   "source_file" : "bionic/libc/include/bits/pthread_types.h"
  },
  {
   "alignment" : 4,
   "fields" :
   [
    {
     "field_name" : "fds_bits",
     "referenced_type" : "_ZTIA32_m"
    }
   ],
   "linker_set_key" : "_ZTI15__kernel_fd_set",
   "name" : "__kernel_fd_set",
   "referenced_type" : "_ZTI15__kernel_fd_set",
   "self_type" : "_ZTI15__kernel_fd_set",
   "size" : 128,
   "source_file" : "bionic/libc/kernel/uapi/linux/posix_types.h"
  },
  {
   "alignment" : 4,
   "fields" :
   [
    {
     "field_name" : "val",
     "referenced_type" : "_ZTIA2_i"
    }
   ],
   "linker_set_key" : "_ZTI15__kernel_fsid_t",
   "name" : "__kernel_fsid_t",
   "referenced_type" : "_ZTI15__kernel_fsid_t",
   "self_type" : "_ZTI15__kernel_fsid_t",
   "size" : 8,
