<abi-corpus version='2.0' architecture='elf-amd-x86_64' soname='libvtkRenderingLIC-6.1.so.1'>
  <elf-needed>
    <dependency name='libvtkIOLegacy-6.1.so.1'/>
    <dependency name='libvtkIOXML-6.1.so.1'/>
    <dependency name='libvtkImagingSources-6.1.so.1'/>
    <dependency name='libvtkRenderingOpenGL-6.1.so.1'/>
    <dependency name='libvtkIOGeometry-6.1.so.1'/>
    <dependency name='libvtkIOXMLParser-6.1.so.1'/>
    <dependency name='libvtkRenderingCore-6.1.so.1'/>
    <dependency name='libvtkImagingCore-6.1.so.1'/>
    <dependency name='libvtkIOCore-6.1.so.1'/>
    <dependency name='libvtkCommonExecutionModel-6.1.so.1'/>
    <dependency name='libvtkCommonDataModel-6.1.so.1'/>
    <dependency name='libvtkCommonMisc-6.1.so.1'/>
    <dependency name='libvtkCommonSystem-6.1.so.1'/>
    <dependency name='libvtksys-6.1.so.1'/>
    <dependency name='libvtkCommonTransforms-6.1.so.1'/>
    <dependency name='libvtkCommonMath-6.1.so.1'/>
    <dependency name='libvtkCommonCore-6.1.so.1'/>
    <dependency name='libGLU.so.1'/>
    <dependency name='libGL.so.1'/>
    <dependency name='libSM.so.6'/>
    <dependency name='libICE.so.6'/>
    <dependency name='libX11.so.6'/>
    <dependency name='libXext.so.6'/>
    <dependency name='libXt.so.6'/>
    <dependency name='libdl.so.2'/>
    <dependency name='libstdc++.so.6'/>
    <dependency name='libm.so.6'/>
    <dependency name='libc.so.6'/>
    <dependency name='libgcc_s.so.1'/>
  </elf-needed>
  <elf-function-symbols>
    <!-- vtkTextureIO::Write(char const*, vtkTextureObject*, unsigned int const*, double const*) -->
    <elf-symbol name='_ZN12vtkTextureIO5WriteEPKcP16vtkTextureObjectPKjPKd' type='func-type' binding='global-binding' visibility='default-visibility' is-defined='yes'/>
    <!-- vtkTextureIO::Write(char const*, vtkTextureObject*, std::deque<vtkPixelExtent, std::allocator<vtkPixelExtent> > const&, double const*) -->
    <elf-symbol name='_ZN12vtkTextureIO5WriteEPKcP16vtkTextureObjectRKSt5dequeI14vtkPixelExtentSaIS5_EEPKd' type='func-type' binding='global-binding' visibility='default-visibility' is-defined='yes'/>
    <!-- vtkPixelTransfer::Blit(vtkPixelExtent const&, vtkPixelExtent const&, vtkPixelExtent const&, vtkPixelExtent const&, int, int, void*, int, int, void*) -->
    <elf-symbol name='_ZN16vtkPixelTransfer4BlitERK14vtkPixelExtentS2_S2_S2_iiPviiS3_' type='func-type' binding='global-binding' visibility='default-visibility' is-defined='yes'/>
    <!-- int vtkPixelTransfer::Blit<signed char>(vtkPixelExtent const&, vtkPixelExtent const&, vtkPixelExtent const&, vtkPixelExtent const&, int, signed char*, int, int, void*) -->
    <elf-symbol name='_ZN16vtkPixelTransfer4BlitIaEEiRK14vtkPixelExtentS3_S3_S3_iPT_iiPv' type='func-type' binding='weak-binding' visibility='default-visibility' is-defined='yes'/>
    <!-- int vtkPixelTransfer::Blit<signed char, signed char>(vtkPixelExtent const&, vtkPixelExtent const&, vtkPixelExtent const&, vtkPixelExtent const&, int, signed char*, int, signed char*) -->
    <elf-symbol name='_ZN16vtkPixelTransfer4BlitIaaEEiRK14vtkPixelExtentS3_S3_S3_iPT_iPT0_' type='func-type' binding='weak-binding' visibility='default-visibility' is-defined='yes'/>
    <!-- int vtkPixelTransfer::Blit<signed char, char>(vtkPixelExtent const&, vtkPixelExtent const&, vtkPixelExtent const&, vtkPixelExtent const&, int, signed char*, int, char*) -->
    <elf-symbol name='_ZN16vtkPixelTransfer4BlitIacEEiRK14vtkPixelExtentS3_S3_S3_iPT_iPT0_' type='func-type' binding='weak-binding' visibility='default-visibility' is-defined='yes'/>
    <!-- int vtkPixelTransfer::Blit<signed char, double>(vtkPixelExtent const&, vtkPixelExtent const&, vtkPixelExtent const&, vtkPixelExtent const&, int, signed char*, int, double*) -->
    <elf-symbol name='_ZN16vtkPixelTransfer4BlitIadEEiRK14vtkPixelExtentS3_S3_S3_iPT_iPT0_' type='func-type' binding='weak-binding' visibility='default-visibility' is-defined='yes'/>
    <!-- int vtkPixelTransfer::Blit<signed char, float>(vtkPixelExtent const&, vtkPixelExtent const&, vtkPixelExtent const&, vtkPixelExtent const&, int, signed char*, int, float*) -->
    <elf-symbol name='_ZN16vtkPixelTransfer4BlitIafEEiRK14vtkPixelExtentS3_S3_S3_iPT_iPT0_' type='func-type' binding='weak-binding' visibility='default-visibility' is-defined='yes'/>
    <!-- int vtkPixelTransfer::Blit<signed char, unsigned char>(vtkPixelExtent const&, vtkPixelExtent const&, vtkPixelExtent const&, vtkPixelExtent const&, int, signed char*, int, unsigned char*) -->
    <elf-symbol name='_ZN16vtkPixelTransfer4BlitIahEEiRK14vtkPixelExtentS3_S3_S3_iPT_iPT0_' type='func-type' binding='weak-binding' visibility='default-visibility' is-defined='yes'/>
    <!-- int vtkPixelTransfer::Blit<signed char, int>(vtkPixelExtent const&, vtkPixelExtent const&, vtkPixelExtent const&, vtkPixelExtent const&, int, signed char*, int, int*) -->
    <elf-symbol name='_ZN16vtkPixelTransfer4BlitIaiEEiRK14vtkPixelExtentS3_S3_S3_iPT_iPT0_' type='func-type' binding='weak-binding' visibility='default-visibility' is-defined='yes'/>
    <!-- int vtkPixelTransfer::Blit<signed char, unsigned int>(vtkPixelExtent const&, vtkPixelExtent const&, vtkPixelExtent const&, vtkPixelExtent const&, int, signed char*, int, unsigned int*) -->
    <elf-symbol name='_ZN16vtkPixelTransfer4BlitIajEEiRK14vtkPixelExtentS3_S3_S3_iPT_iPT0_' type='func-type' binding='weak-binding' visibility='default-visibility' is-defined='yes'/>
    <!-- int vtkPixelTransfer::Blit<signed char, long>(vtkPixelExtent const&, vtkPixelExtent const&, vtkPixelExtent const&, vtkPixelExtent const&, int, signed char*, int, long*) -->
    <elf-symbol name='_ZN16vtkPixelTransfer4BlitIalEEiRK14vtkPixelExtentS3_S3_S3_iPT_iPT0_' type='func-type' binding='weak-binding' visibility='default-visibility' is-defined='yes'/>
    <!-- int vtkPixelTransfer::Blit<signed char, unsigned long>(vtkPixelExtent const&, vtkPixelExtent const&, vtkPixelExtent const&, vtkPixelExtent const&, int, signed char*, int, unsigned long*) -->
    <elf-symbol name='_ZN16vtkPixelTransfer4BlitIamEEiRK14vtkPixelExtentS3_S3_S3_iPT_iPT0_' type='func-type' binding='weak-binding' visibility='default-visibility' is-defined='yes'/>
    <!-- int vtkPixelTransfer::Blit<signed char, short>(vtkPixelExtent const&, vtkPixelExtent const&, vtkPixelExtent const&, vtkPixelExtent const&, int, signed char*, int, short*) -->
    <elf-symbol name='_ZN16vtkPixelTransfer4BlitIasEEiRK14vtkPixelExtentS3_S3_S3_iPT_iPT0_' type='func-type' binding='weak-binding' visibility='default-visibility' is-defined='yes'/>
    <!-- int vtkPixelTransfer::Blit<signed char, unsigned short>(vtkPixelExtent const&, vtkPixelExtent const&, vtkPixelExtent const&, vtkPixelExtent const&, int, signed char*, int, unsigned short*) -->
    <elf-symbol name='_ZN16vtkPixelTransfer4BlitIatEEiRK14vtkPixelExtentS3_S3_S3_iPT_iPT0_' type='func-type' binding='weak-binding' visibility='default-visibility' is-defined='yes'/>
    <!-- int vtkPixelTransfer::Blit<signed char, long long>(vtkPixelExtent const&, vtkPixelExtent const&, vtkPixelExtent const&, vtkPixelExtent const&, int, signed char*, int, long long*) -->
    <elf-symbol name='_ZN16vtkPixelTransfer4BlitIaxEEiRK14vtkPixelExtentS3_S3_S3_iPT_iPT0_' type='func-type' binding='weak-binding' visibility='default-visibility' is-defined='yes'/>
    <!-- int vtkPixelTransfer::Blit<signed char, unsigned long long>(vtkPixelExtent const&, vtkPixelExtent const&, vtkPixelExtent const&, vtkPixelExtent const&, int, signed char*, int, unsigned long long*) -->
    <elf-symbol name='_ZN16vtkPixelTransfer4BlitIayEEiRK14vtkPixelExtentS3_S3_S3_iPT_iPT0_' type='func-type' binding='weak-binding' visibility='default-visibility' is-defined='yes'/>
    <!-- int vtkPixelTransfer::Blit<char>(vtkPixelExtent const&, vtkPixelExtent const&, vtkPixelExtent const&, vtkPixelExtent const&, int, char*, int, int, void*) -->
    <elf-symbol name='_ZN16vtkPixelTransfer4BlitIcEEiRK14vtkPixelExtentS3_S3_S3_iPT_iiPv' type='func-type' binding='weak-binding' visibility='default-visibility' is-defined='yes'/>
    <!-- int vtkPixelTransfer::Blit<char, signed char>(vtkPixelExtent const&, vtkPixelExtent const&, vtkPixelExtent const&, vtkPixelExtent const&, int, char*, int, signed char*) -->
    <elf-symbol name='_ZN16vtkPixelTransfer4BlitIcaEEiRK14vtkPixelExtentS3_S3_S3_iPT_iPT0_' type='func-type' binding='weak-binding' visibility='default-visibility' is-defined='yes'/>
    <!-- int vtkPixelTransfer::Blit<char, char>(vtkPixelExtent const&, vtkPixelExtent const&, vtkPixelExtent const&, vtkPixelExtent const&, int, char*, int, char*) -->
    <elf-symbol name='_ZN16vtkPixelTransfer4BlitIccEEiRK14vtkPixelExtentS3_S3_S3_iPT_iPT0_' type='func-type' binding='weak-binding' visibility='default-visibility' is-defined='yes'/>
    <!-- int vtkPixelTransfer::Blit<char, double>(vtkPixelExtent const&, vtkPixelExtent const&, vtkPixelExtent const&, vtkPixelExtent const&, int, char*, int, double*) -->
    <elf-symbol name='_ZN16vtkPixelTransfer4BlitIcdEEiRK14vtkPixelExtentS3_S3_S3_iPT_iPT0_' type='func-type' binding='weak-binding' visibility='default-visibility' is-defined='yes'/>
    <!-- int vtkPixelTransfer::Blit<char, float>(vtkPixelExtent const&, vtkPixelExtent const&, vtkPixelExtent const&, vtkPixelExtent const&, int, char*, int, float*) -->
    <elf-symbol name='_ZN16vtkPixelTransfer4BlitIcfEEiRK14vtkPixelExtentS3_S3_S3_iPT_iPT0_' type='func-type' binding='weak-binding' visibility='default-visibility' is-defined='yes'/>
    <!-- int vtkPixelTransfer::Blit<char, unsigned char>(vtkPixelExtent const&, vtkPixelExtent const&, vtkPixelExtent const&, vtkPixelExtent const&, int, char*, int, unsigned char*) -->
    <elf-symbol name='_ZN16vtkPixelTransfer4BlitIchEEiRK14vtkPixelExtentS3_S3_S3_iPT_iPT0_' type='func-type' binding='weak-binding' visibility='default-visibility' is-defined='yes'/>
    <!-- int vtkPixelTransfer::Blit<char, int>(vtkPixelExtent const&, vtkPixelExtent const&, vtkPixelExtent const&, vtkPixelExtent const&, int, char*, int, int*) -->
    <elf-symbol name='_ZN16vtkPixelTransfer4BlitIciEEiRK14vtkPixelExtentS3_S3_S3_iPT_iPT0_' type='func-type' binding='weak-binding' visibility='default-visibility' is-defined='yes'/>
    <!-- int vtkPixelTransfer::Blit<char, unsigned int>(vtkPixelExtent const&, vtkPixelExtent const&, vtkPixelExtent const&, vtkPixelExtent const&, int, char*, int, unsigned int*) -->
    <elf-symbol name='_ZN16vtkPixelTransfer4BlitIcjEEiRK14vtkPixelExtentS3_S3_S3_iPT_iPT0_' type='func-type' binding='weak-binding' visibility='default-visibility' is-defined='yes'/>
    <!-- int vtkPixelTransfer::Blit<char, long>(vtkPixelExtent const&, vtkPixelExtent const&, vtkPixelExtent const&, vtkPixelExtent const&, int, char*, int, long*) -->
    <elf-symbol name='_ZN16vtkPixelTransfer4BlitIclEEiRK14vtkPixelExtentS3_S3_S3_iPT_iPT0_' type='func-type' binding='weak-binding' visibility='default-visibility' is-defined='yes'/>
    <!-- int vtkPixelTransfer::Blit<char, unsigned long>(vtkPixelExtent const&, vtkPixelExtent const&, vtkPixelExtent const&, vtkPixelExtent const&, int, char*, int, unsigned long*) -->
    <elf-symbol name='_ZN16vtkPixelTransfer4BlitIcmEEiRK14vtkPixelExtentS3_S3_S3_iPT_iPT0_' type='func-type' binding='weak-binding' visibility='default-visibility' is-defined='yes'/>
    <!-- int vtkPixelTransfer::Blit<char, short>(vtkPixelExtent const&, vtkPixelExtent const&, vtkPixelExtent const&, vtkPixelExtent const&, int, char*, int, short*) -->
    <elf-symbol name='_ZN16vtkPixelTransfer4BlitIcsEEiRK14vtkPixelExtentS3_S3_S3_iPT_iPT0_' type='func-type' binding='weak-binding' visibility='default-visibility' is-defined='yes'/>
    <!-- int vtkPixelTransfer::Blit<char, unsigned short>(vtkPixelExtent const&, vtkPixelExtent const&, vtkPixelExtent const&, vtkPixelExtent const&, int, char*, int, unsigned short*) -->
    <elf-symbol name='_ZN16vtkPixelTransfer4BlitIctEEiRK14vtkPixelExtentS3_S3_S3_iPT_iPT0_' type='func-type' binding='weak-binding' visibility='default-visibility' is-defined='yes'/>
    <!-- int vtkPixelTransfer::Blit<char, long long>(vtkPixelExtent const&, vtkPixelExtent const&, vtkPixelExtent const&, vtkPixelExtent const&, int, char*, int, long long*) -->
    <elf-symbol name='_ZN16vtkPixelTransfer4BlitIcxEEiRK14vtkPixelExtentS3_S3_S3_iPT_iPT0_' type='func-type' binding='weak-binding' visibility='default-visibility' is-defined='yes'/>
    <!-- int vtkPixelTransfer::Blit<char, unsigned long long>(vtkPixelExtent const&, vtkPixelExtent const&, vtkPixelExtent const&, vtkPixelExtent const&, int, char*, int, unsigned long long*) -->
    <elf-symbol name='_ZN16vtkPixelTransfer4BlitIcyEEiRK14vtkPixelExtentS3_S3_S3_iPT_iPT0_' type='func-type' binding='weak-binding' visibility='default-visibility' is-defined='yes'/>
    <!-- int vtkPixelTransfer::Blit<double>(vtkPixelExtent const&, vtkPixelExtent const&, vtkPixelExtent const&, vtkPixelExtent const&, int, double*, int, int, void*) -->
    <elf-symbol name='_ZN16vtkPixelTransfer4BlitIdEEiRK14vtkPixelExtentS3_S3_S3_iPT_iiPv' type='func-type' binding='weak-binding' visibility='default-visibility' is-defined='yes'/>
    <!-- int vtkPixelTransfer::Blit<double, signed char>(vtkPixelExtent const&, vtkPixelExtent const&, vtkPixelExtent const&, vtkPixelExtent const&, int, double*, int, signed char*) -->
    <elf-symbol name='_ZN16vtkPixelTransfer4BlitIdaEEiRK14vtkPixelExtentS3_S3_S3_iPT_iPT0_' type='func-type' binding='weak-binding' visibility='default-visibility' is-defined='yes'/>
    <!-- int vtkPixelTransfer::Blit<double, char>(vtkPixelExtent const&, vtkPixelExtent const&, vtkPixelExtent const&, vtkPixelExtent const&, int, double*, int, char*) -->
    <elf-symbol name='_ZN16vtkPixelTransfer4BlitIdcEEiRK14vtkPixelExtentS3_S3_S3_iPT_iPT0_' type='func-type' binding='weak-binding' visibility='default-visibility' is-defined='yes'/>
    <!-- int vtkPixelTransfer::Blit<double, double>(vtkPixelExtent const&, vtkPixelExtent const&, vtkPixelExtent const&, vtkPixelExtent const&, int, double*, int, double*) -->
    <elf-symbol name='_ZN16vtkPixelTransfer4BlitIddEEiRK14vtkPixelExtentS3_S3_S3_iPT_iPT0_' type='func-type' binding='weak-binding' visibility='default-visibility' is-defined='yes'/>
    <!-- int vtkPixelTransfer::Blit<double, float>(vtkPixelExtent const&, vtkPixelExtent const&, vtkPixelExtent const&, vtkPixelExtent const&, int, double*, int, float*) -->
    <elf-symbol name='_ZN16vtkPixelTransfer4BlitIdfEEiRK14vtkPixelExtentS3_S3_S3_iPT_iPT0_' type='func-type' binding='weak-binding' visibility='default-visibility' is-defined='yes'/>
    <!-- int vtkPixelTransfer::Blit<double, unsigned char>(vtkPixelExtent const&, vtkPixelExtent const&, vtkPixelExtent const&, vtkPixelExtent const&, int, double*, int, unsigned char*) -->
    <elf-symbol name='_ZN16vtkPixelTransfer4BlitIdhEEiRK14vtkPixelExtentS3_S3_S3_iPT_iPT0_' type='func-type' binding='weak-binding' visibility='default-visibility' is-defined='yes'/>
    <!-- int vtkPixelTransfer::Blit<double, int>(vtkPixelExtent const&, vtkPixelExtent const&, vtkPixelExtent const&, vtkPixelExtent const&, int, double*, int, int*) -->
    <elf-symbol name='_ZN16vtkPixelTransfer4BlitIdiEEiRK14vtkPixelExtentS3_S3_S3_iPT_iPT0_' type='func-type' binding='weak-binding' visibility='default-visibility' is-defined='yes'/>
    <!-- int vtkPixelTransfer::Blit<double, unsigned int>(vtkPixelExtent const&, vtkPixelExtent const&, vtkPixelExtent const&, vtkPixelExtent const&, int, double*, int, unsigned int*) -->
    <elf-symbol name='_ZN16vtkPixelTransfer4BlitIdjEEiRK14vtkPixelExtentS3_S3_S3_iPT_iPT0_' type='func-type' binding='weak-binding' visibility='default-visibility' is-defined='yes'/>
    <!-- int vtkPixelTransfer::Blit<double, long>(vtkPixelExtent const&, vtkPixelExtent const&, vtkPixelExtent const&, vtkPixelExtent const&, int, double*, int, long*) -->
    <elf-symbol name='_ZN16vtkPixelTransfer4BlitIdlEEiRK14vtkPixelExtentS3_S3_S3_iPT_iPT0_' type='func-type' binding='weak-binding' visibility='default-visibility' is-defined='yes'/>
    <!-- int vtkPixelTransfer::Blit<double, unsigned long>(vtkPixelExtent const&, vtkPixelExtent const&, vtkPixelExtent const&, vtkPixelExtent const&, int, double*, int, unsigned long*) -->
    <elf-symbol name='_ZN16vtkPixelTransfer4BlitIdmEEiRK14vtkPixelExtentS3_S3_S3_iPT_iPT0_' type='func-type' binding='weak-binding' visibility='default-visibility' is-defined='yes'/>
    <!-- int vtkPixelTransfer::Blit<double, short>(vtkPixelExtent const&, vtkPixelExtent const&, vtkPixelExtent const&, vtkPixelExtent const&, int, double*, int, short*) -->
    <elf-symbol name='_ZN16vtkPixelTransfer4BlitIdsEEiRK14vtkPixelExtentS3_S3_S3_iPT_iPT0_' type='func-type' binding='weak-binding' visibility='default-visibility' is-defined='yes'/>
    <!-- int vtkPixelTransfer::Blit<double, unsigned short>(vtkPixelExtent const&, vtkPixelExtent const&, vtkPixelExtent const&, vtkPixelExtent const&, int, double*, int, unsigned short*) -->
    <elf-symbol name='_ZN16vtkPixelTransfer4BlitIdtEEiRK14vtkPixelExtentS3_S3_S3_iPT_iPT0_' type='func-type' binding='weak-binding' visibility='default-visibility' is-defined='yes'/>
    <!-- int vtkPixelTransfer::Blit<double, long long>(vtkPixelExtent const&, vtkPixelExtent const&, vtkPixelExtent const&, vtkPixelExtent const&, int, double*, int, long long*) -->
    <elf-symbol name='_ZN16vtkPixelTransfer4BlitIdxEEiRK14vtkPixelExtentS3_S3_S3_iPT_iPT0_' type='func-type' binding='weak-binding' visibility='default-visibility' is-defined='yes'/>
    <!-- int vtkPixelTransfer::Blit<double, unsigned long long>(vtkPixelExtent const&, vtkPixelExtent const&, vtkPixelExtent const&, vtkPixelExtent const&, int, double*, int, unsigned long long*) -->
    <elf-symbol name='_ZN16vtkPixelTransfer4BlitIdyEEiRK14vtkPixelExtentS3_S3_S3_iPT_iPT0_' type='func-type' binding='weak-binding' visibility='default-visibility' is-defined='yes'/>
    <!-- int vtkPixelTransfer::Blit<float>(vtkPixelExtent const&, vtkPixelExtent const&, vtkPixelExtent const&, vtkPixelExtent const&, int, float*, int, int, void*) -->
    <elf-symbol name='_ZN16vtkPixelTransfer4BlitIfEEiRK14vtkPixelExtentS3_S3_S3_iPT_iiPv' type='func-type' binding='weak-binding' visibility='default-visibility' is-defined='yes'/>
    <!-- int vtkPixelTransfer::Blit<float, signed char>(vtkPixelExtent const&, vtkPixelExtent const&, vtkPixelExtent const&, vtkPixelExtent const&, int, float*, int, signed char*) -->
    <elf-symbol name='_ZN16vtkPixelTransfer4BlitIfaEEiRK14vtkPixelExtentS3_S3_S3_iPT_iPT0_' type='func-type' binding='weak-binding' visibility='default-visibility' is-defined='yes'/>
    <!-- int vtkPixelTransfer::Blit<float, char>(vtkPixelExtent const&, vtkPixelExtent const&, vtkPixelExtent const&, vtkPixelExtent const&, int, float*, int, char*) -->
    <elf-symbol name='_ZN16vtkPixelTransfer4BlitIfcEEiRK14vtkPixelExtentS3_S3_S3_iPT_iPT0_' type='func-type' binding='weak-binding' visibility='default-visibility' is-defined='yes'/>
    <!-- int vtkPixelTransfer::Blit<float, double>(vtkPixelExtent const&, vtkPixelExtent const&, vtkPixelExtent const&, vtkPixelExtent const&, int, float*, int, double*) -->
    <elf-symbol name='_ZN16vtkPixelTransfer4BlitIfdEEiRK14vtkPixelExtentS3_S3_S3_iPT_iPT0_' type='func-type' binding='weak-binding' visibility='default-visibility' is-defined='yes'/>
    <!-- int vtkPixelTransfer::Blit<float, float>(vtkPixelExtent const&, vtkPixelExtent const&, vtkPixelExtent const&, vtkPixelExtent const&, int, float*, int, float*) -->
    <elf-symbol name='_ZN16vtkPixelTransfer4BlitIffEEiRK14vtkPixelExtentS3_S3_S3_iPT_iPT0_' type='func-type' binding='weak-binding' visibility='default-visibility' is-defined='yes'/>
    <!-- int vtkPixelTransfer::Blit<float, unsigned char>(vtkPixelExtent const&, vtkPixelExtent const&, vtkPixelExtent const&, vtkPixelExtent const&, int, float*, int, unsigned char*) -->
    <elf-symbol name='_ZN16vtkPixelTransfer4BlitIfhEEiRK14vtkPixelExtentS3_S3_S3_iPT_iPT0_' type='func-type' binding='weak-binding' visibility='default-visibility' is-defined='yes'/>
    <!-- int vtkPixelTransfer::Blit<float, int>(vtkPixelExtent const&, vtkPixelExtent const&, vtkPixelExtent const&, vtkPixelExtent const&, int, float*, int, int*) -->
    <elf-symbol name='_ZN16vtkPixelTransfer4BlitIfiEEiRK14vtkPixelExtentS3_S3_S3_iPT_iPT0_' type='func-type' binding='weak-binding' visibility='default-visibility' is-defined='yes'/>
    <!-- int vtkPixelTransfer::Blit<float, unsigned int>(vtkPixelExtent const&, vtkPixelExtent const&, vtkPixelExtent const&, vtkPixelExtent const&, int, float*, int, unsigned int*) -->
    <elf-symbol name='_ZN16vtkPixelTransfer4BlitIfjEEiRK14vtkPixelExtentS3_S3_S3_iPT_iPT0_' type='func-type' binding='weak-binding' visibility='default-visibility' is-defined='yes'/>
    <!-- int vtkPixelTransfer::Blit<float, long>(vtkPixelExtent const&, vtkPixelExtent const&, vtkPixelExtent const&, vtkPixelExtent const&, int, float*, int, long*) -->
    <elf-symbol name='_ZN16vtkPixelTransfer4BlitIflEEiRK14vtkPixelExtentS3_S3_S3_iPT_iPT0_' type='func-type' binding='weak-binding' visibility='default-visibility' is-defined='yes'/>
    <!-- int vtkPixelTransfer::Blit<float, unsigned long>(vtkPixelExtent const&, vtkPixelExtent const&, vtkPixelExtent const&, vtkPixelExtent const&, int, float*, int, unsigned long*) -->
    <elf-symbol name='_ZN16vtkPixelTransfer4BlitIfmEEiRK14vtkPixelExtentS3_S3_S3_iPT_iPT0_' type='func-type' binding='weak-binding' visibility='default-visibility' is-defined='yes'/>
    <!-- int vtkPixelTransfer::Blit<float, short>(vtkPixelExtent const&, vtkPixelExtent const&, vtkPixelExtent const&, vtkPixelExtent const&, int, float*, int, short*) -->
    <elf-symbol name='_ZN16vtkPixelTransfer4BlitIfsEEiRK14vtkPixelExtentS3_S3_S3_iPT_iPT0_' type='func-type' binding='weak-binding' visibility='default-visibility' is-defined='yes'/>
    <!-- int vtkPixelTransfer::Blit<float, unsigned short>(vtkPixelExtent const&, vtkPixelExtent const&, vtkPixelExtent const&, vtkPixelExtent const&, int, float*, int, unsigned short*) -->
    <elf-symbol name='_ZN16vtkPixelTransfer4BlitIftEEiRK14vtkPixelExtentS3_S3_S3_iPT_iPT0_' type='func-type' binding='weak-binding' visibility='default-visibility' is-defined='yes'/>
    <!-- int vtkPixelTransfer::Blit<float, long long>(vtkPixelExtent const&, vtkPixelExtent const&, vtkPixelExtent const&, vtkPixelExtent const&, int, float*, int, long long*) -->
    <elf-symbol name='_ZN16vtkPixelTransfer4BlitIfxEEiRK14vtkPixelExtentS3_S3_S3_iPT_iPT0_' type='func-type' binding='weak-binding' visibility='default-visibility' is-defined='yes'/>
    <!-- int vtkPixelTransfer::Blit<float, unsigned long long>(vtkPixelExtent const&, vtkPixelExtent const&, vtkPixelExtent const&, vtkPixelExtent const&, int, float*, int, unsigned long long*) -->
    <elf-symbol name='_ZN16vtkPixelTransfer4BlitIfyEEiRK14vtkPixelExtentS3_S3_S3_iPT_iPT0_' type='func-type' binding='weak-binding' visibility='default-visibility' is-defined='yes'/>
    <!-- int vtkPixelTransfer::Blit<unsigned char>(vtkPixelExtent const&, vtkPixelExtent const&, vtkPixelExtent const&, vtkPixelExtent const&, int, unsigned char*, int, int, void*) -->
    <elf-symbol name='_ZN16vtkPixelTransfer4BlitIhEEiRK14vtkPixelExtentS3_S3_S3_iPT_iiPv' type='func-type' binding='weak-binding' visibility='default-visibility' is-defined='yes'/>
    <!-- int vtkPixelTransfer::Blit<unsigned char, signed char>(vtkPixelExtent const&, vtkPixelExtent const&, vtkPixelExtent const&, vtkPixelExtent const&, int, unsigned char*, int, signed char*) -->
    <elf-symbol name='_ZN16vtkPixelTransfer4BlitIhaEEiRK14vtkPixelExtentS3_S3_S3_iPT_iPT0_' type='func-type' binding='weak-binding' visibility='default-visibility' is-defined='yes'/>
    <!-- int vtkPixelTransfer::Blit<unsigned char, char>(vtkPixelExtent const&, vtkPixelExtent const&, vtkPixelExtent const&, vtkPixelExtent const&, int, unsigned char*, int, char*) -->
    <elf-symbol name='_ZN16vtkPixelTransfer4BlitIhcEEiRK14vtkPixelExtentS3_S3_S3_iPT_iPT0_' type='func-type' binding='weak-binding' visibility='default-visibility' is-defined='yes'/>
    <!-- int vtkPixelTransfer::Blit<unsigned char, double>(vtkPixelExtent const&, vtkPixelExtent const&, vtkPixelExtent const&, vtkPixelExtent const&, int, unsigned char*, int, double*) -->
    <elf-symbol name='_ZN16vtkPixelTransfer4BlitIhdEEiRK14vtkPixelExtentS3_S3_S3_iPT_iPT0_' type='func-type' binding='weak-binding' visibility='default-visibility' is-defined='yes'/>
    <!-- int vtkPixelTransfer::Blit<unsigned char, float>(vtkPixelExtent const&, vtkPixelExtent const&, vtkPixelExtent const&, vtkPixelExtent const&, int, unsigned char*, int, float*) -->
    <elf-symbol name='_ZN16vtkPixelTransfer4BlitIhfEEiRK14vtkPixelExtentS3_S3_S3_iPT_iPT0_' type='func-type' binding='weak-binding' visibility='default-visibility' is-defined='yes'/>
    <!-- int vtkPixelTransfer::Blit<unsigned char, unsigned char>(vtkPixelExtent const&, vtkPixelExtent const&, vtkPixelExtent const&, vtkPixelExtent const&, int, unsigned char*, int, unsigned char*) -->
    <elf-symbol name='_ZN16vtkPixelTransfer4BlitIhhEEiRK14vtkPixelExtentS3_S3_S3_iPT_iPT0_' type='func-type' binding='weak-binding' visibility='default-visibility' is-defined='yes'/>
    <!-- int vtkPixelTransfer::Blit<unsigned char, int>(vtkPixelExtent const&, vtkPixelExtent const&, vtkPixelExtent const&, vtkPixelExtent const&, int, unsigned char*, int, int*) -->
    <elf-symbol name='_ZN16vtkPixelTransfer4BlitIhiEEiRK14vtkPixelExtentS3_S3_S3_iPT_iPT0_' type='func-type' binding='weak-binding' visibility='default-visibility' is-defined='yes'/>
    <!-- int vtkPixelTransfer::Blit<unsigned char, unsigned int>(vtkPixelExtent const&, vtkPixelExtent const&, vtkPixelExtent const&, vtkPixelExtent const&, int, unsigned char*, int, unsigned int*) -->
    <elf-symbol name='_ZN16vtkPixelTransfer4BlitIhjEEiRK14vtkPixelExtentS3_S3_S3_iPT_iPT0_' type='func-type' binding='weak-binding' visibility='default-visibility' is-defined='yes'/>
    <!-- int vtkPixelTransfer::Blit<unsigned char, long>(vtkPixelExtent const&, vtkPixelExtent const&, vtkPixelExtent const&, vtkPixelExtent const&, int, unsigned char*, int, long*) -->
    <elf-symbol name='_ZN16vtkPixelTransfer4BlitIhlEEiRK14vtkPixelExtentS3_S3_S3_iPT_iPT0_' type='func-type' binding='weak-binding' visibility='default-visibility' is-defined='yes'/>
    <!-- int vtkPixelTransfer::Blit<unsigned char, unsigned long>(vtkPixelExtent const&, vtkPixelExtent const&, vtkPixelExtent const&, vtkPixelExtent const&, int, unsigned char*, int, unsigned long*) -->
    <elf-symbol name='_ZN16vtkPixelTransfer4BlitIhmEEiRK14vtkPixelExtentS3_S3_S3_iPT_iPT0_' type='func-type' binding='weak-binding' visibility='default-visibility' is-defined='yes'/>
    <!-- int vtkPixelTransfer::Blit<unsigned char, short>(vtkPixelExtent const&, vtkPixelExtent const&, vtkPixelExtent const&, vtkPixelExtent const&, int, unsigned char*, int, short*) -->
    <elf-symbol name='_ZN16vtkPixelTransfer4BlitIhsEEiRK14vtkPixelExtentS3_S3_S3_iPT_iPT0_' type='func-type' binding='weak-binding' visibility='default-visibility' is-defined='yes'/>
    <!-- int vtkPixelTransfer::Blit<unsigned char, unsigned short>(vtkPixelExtent const&, vtkPixelExtent const&, vtkPixelExtent const&, vtkPixelExtent const&, int, unsigned char*, int, unsigned short*) -->
    <elf-symbol name='_ZN16vtkPixelTransfer4BlitIhtEEiRK14vtkPixelExtentS3_S3_S3_iPT_iPT0_' type='func-type' binding='weak-binding' visibility='default-visibility' is-defined='yes'/>
    <!-- int vtkPixelTransfer::Blit<unsigned char, long long>(vtkPixelExtent const&, vtkPixelExtent const&, vtkPixelExtent const&, vtkPixelExtent const&, int, unsigned char*, int, long long*) -->
    <elf-symbol name='_ZN16vtkPixelTransfer4BlitIhxEEiRK14vtkPixelExtentS3_S3_S3_iPT_iPT0_' type='func-type' binding='weak-binding' visibility='default-visibility' is-defined='yes'/>
    <!-- int vtkPixelTransfer::Blit<unsigned char, unsigned long long>(vtkPixelExtent const&, vtkPixelExtent const&, vtkPixelExtent const&, vtkPixelExtent const&, int, unsigned char*, int, unsigned long long*) -->
    <elf-symbol name='_ZN16vtkPixelTransfer4BlitIhyEEiRK14vtkPixelExtentS3_S3_S3_iPT_iPT0_' type='func-type' binding='weak-binding' visibility='default-visibility' is-defined='yes'/>
    <!-- int vtkPixelTransfer::Blit<int>(vtkPixelExtent const&, vtkPixelExtent const&, vtkPixelExtent const&, vtkPixelExtent const&, int, int*, int, int, void*) -->
    <elf-symbol name='_ZN16vtkPixelTransfer4BlitIiEEiRK14vtkPixelExtentS3_S3_S3_iPT_iiPv' type='func-type' binding='weak-binding' visibility='default-visibility' is-defined='yes'/>
    <!-- int vtkPixelTransfer::Blit<int, signed char>(vtkPixelExtent const&, vtkPixelExtent const&, vtkPixelExtent const&, vtkPixelExtent const&, int, int*, int, signed char*) -->
    <elf-symbol name='_ZN16vtkPixelTransfer4BlitIiaEEiRK14vtkPixelExtentS3_S3_S3_iPT_iPT0_' type='func-type' binding='weak-binding' visibility='default-visibility' is-defined='yes'/>
    <!-- int vtkPixelTransfer::Blit<int, char>(vtkPixelExtent const&, vtkPixelExtent const&, vtkPixelExtent const&, vtkPixelExtent const&, int, int*, int, char*) -->
    <elf-symbol name='_ZN16vtkPixelTransfer4BlitIicEEiRK14vtkPixelExtentS3_S3_S3_iPT_iPT0_' type='func-type' binding='weak-binding' visibility='default-visibility' is-defined='yes'/>
    <!-- int vtkPixelTransfer::Blit<int, double>(vtkPixelExtent const&, vtkPixelExtent const&, vtkPixelExtent const&, vtkPixelExtent const&, int, int*, int, double*) -->
    <elf-symbol name='_ZN16vtkPixelTransfer4BlitIidEEiRK14vtkPixelExtentS3_S3_S3_iPT_iPT0_' type='func-type' binding='weak-binding' visibility='default-visibility' is-defined='yes'/>
    <!-- int vtkPixelTransfer::Blit<int, float>(vtkPixelExtent const&, vtkPixelExtent const&, vtkPixelExtent const&, vtkPixelExtent const&, int, int*, int, float*) -->
    <elf-symbol name='_ZN16vtkPixelTransfer4BlitIifEEiRK14vtkPixelExtentS3_S3_S3_iPT_iPT0_' type='func-type' binding='weak-binding' visibility='default-visibility' is-defined='yes'/>
    <!-- int vtkPixelTransfer::Blit<int, unsigned char>(vtkPixelExtent const&, vtkPixelExtent const&, vtkPixelExtent const&, vtkPixelExtent const&, int, int*, int, unsigned char*) -->
    <elf-symbol name='_ZN16vtkPixelTransfer4BlitIihEEiRK14vtkPixelExtentS3_S3_S3_iPT_iPT0_' type='func-type' binding='weak-binding' visibility='default-visibility' is-defined='yes'/>
    <!-- int vtkPixelTransfer::Blit<int, int>(vtkPixelExtent const&, vtkPixelExtent const&, vtkPixelExtent const&, vtkPixelExtent const&, int, int*, int, int*) -->
    <elf-symbol name='_ZN16vtkPixelTransfer4BlitIiiEEiRK14vtkPixelExtentS3_S3_S3_iPT_iPT0_' type='func-type' binding='weak-binding' visibility='default-visibility' is-defined='yes'/>
    <!-- int vtkPixelTransfer::Blit<int, unsigned int>(vtkPixelExtent const&, vtkPixelExtent const&, vtkPixelExtent const&, vtkPixelExtent const&, int, int*, int, unsigned int*) -->
    <elf-symbol name='_ZN16vtkPixelTransfer4BlitIijEEiRK14vtkPixelExtentS3_S3_S3_iPT_iPT0_' type='func-type' binding='weak-binding' visibility='default-visibility' is-defined='yes'/>
    <!-- int vtkPixelTransfer::Blit<int, long>(vtkPixelExtent const&, vtkPixelExtent const&, vtkPixelExtent const&, vtkPixelExtent const&, int, int*, int, long*) -->
    <elf-symbol name='_ZN16vtkPixelTransfer4BlitIilEEiRK14vtkPixelExtentS3_S3_S3_iPT_iPT0_' type='func-type' binding='weak-binding' visibility='default-visibility' is-defined='yes'/>
    <!-- int vtkPixelTransfer::Blit<int, unsigned long>(vtkPixelExtent const&, vtkPixelExtent const&, vtkPixelExtent const&, vtkPixelExtent const&, int, int*, int, unsigned long*) -->
    <elf-symbol name='_ZN16vtkPixelTransfer4BlitIimEEiRK14vtkPixelExtentS3_S3_S3_iPT_iPT0_' type='func-type' binding='weak-binding' visibility='default-visibility' is-defined='yes'/>
    <!-- int vtkPixelTransfer::Blit<int, short>(vtkPixelExtent const&, vtkPixelExtent const&, vtkPixelExtent const&, vtkPixelExtent const&, int, int*, int, short*) -->
    <elf-symbol name='_ZN16vtkPixelTransfer4BlitIisEEiRK14vtkPixelExtentS3_S3_S3_iPT_iPT0_' type='func-type' binding='weak-binding' visibility='default-visibility' is-defined='yes'/>
    <!-- int vtkPixelTransfer::Blit<int, unsigned short>(vtkPixelExtent const&, vtkPixelExtent const&, vtkPixelExtent const&, vtkPixelExtent const&, int, int*, int, unsigned short*) -->
    <elf-symbol name='_ZN16vtkPixelTransfer4BlitIitEEiRK14vtkPixelExtentS3_S3_S3_iPT_iPT0_' type='func-type' binding='weak-binding' visibility='default-visibility' is-defined='yes'/>
    <!-- int vtkPixelTransfer::Blit<int, long long>(vtkPixelExtent const&, vtkPixelExtent const&, vtkPixelExtent const&, vtkPixelExtent const&, int, int*, int, long long*) -->
    <elf-symbol name='_ZN16vtkPixelTransfer4BlitIixEEiRK14vtkPixelExtentS3_S3_S3_iPT_iPT0_' type='func-type' binding='weak-binding' visibility='default-visibility' is-defined='yes'/>
    <!-- int vtkPixelTransfer::Blit<int, unsigned long long>(vtkPixelExtent const&, vtkPixelExtent const&, vtkPixelExtent const&, vtkPixelExtent const&, int, int*, int, unsigned long long*) -->
    <elf-symbol name='_ZN16vtkPixelTransfer4BlitIiyEEiRK14vtkPixelExtentS3_S3_S3_iPT_iPT0_' type='func-type' binding='weak-binding' visibility='default-visibility' is-defined='yes'/>
    <!-- int vtkPixelTransfer::Blit<unsigned int>(vtkPixelExtent const&, vtkPixelExtent const&, vtkPixelExtent const&, vtkPixelExtent const&, int, unsigned int*, int, int, void*) -->
    <elf-symbol name='_ZN16vtkPixelTransfer4BlitIjEEiRK14vtkPixelExtentS3_S3_S3_iPT_iiPv' type='func-type' binding='weak-binding' visibility='default-visibility' is-defined='yes'/>
    <!-- int vtkPixelTransfer::Blit<unsigned int, signed char>(vtkPixelExtent const&, vtkPixelExtent const&, vtkPixelExtent const&, vtkPixelExtent const&, int, unsigned int*, int, signed char*) -->
    <elf-symbol name='_ZN16vtkPixelTransfer4BlitIjaEEiRK14vtkPixelExtentS3_S3_S3_iPT_iPT0_' type='func-type' binding='weak-binding' visibility='default-visibility' is-defined='yes'/>
    <!-- int vtkPixelTransfer::Blit<unsigned int, char>(vtkPixelExtent const&, vtkPixelExtent const&, vtkPixelExtent const&, vtkPixelExtent const&, int, unsigned int*, int, char*) -->
    <elf-symbol name='_ZN16vtkPixelTransfer4BlitIjcEEiRK14vtkPixelExtentS3_S3_S3_iPT_iPT0_' type='func-type' binding='weak-binding' visibility='default-visibility' is-defined='yes'/>
    <!-- int vtkPixelTransfer::Blit<unsigned int, double>(vtkPixelExtent const&, vtkPixelExtent const&, vtkPixelExtent const&, vtkPixelExtent const&, int, unsigned int*, int, double*) -->
    <elf-symbol name='_ZN16vtkPixelTransfer4BlitIjdEEiRK14vtkPixelExtentS3_S3_S3_iPT_iPT0_' type='func-type' binding='weak-binding' visibility='default-visibility' is-defined='yes'/>
    <!-- int vtkPixelTransfer::Blit<unsigned int, float>(vtkPixelExtent const&, vtkPixelExtent const&, vtkPixelExtent const&, vtkPixelExtent const&, int, unsigned int*, int, float*) -->
    <elf-symbol name='_ZN16vtkPixelTransfer4BlitIjfEEiRK14vtkPixelExtentS3_S3_S3_iPT_iPT0_' type='func-type' binding='weak-binding' visibility='default-visibility' is-defined='yes'/>
    <!-- int vtkPixelTransfer::Blit<unsigned int, unsigned char>(vtkPixelExtent const&, vtkPixelExtent const&, vtkPixelExtent const&, vtkPixelExtent const&, int, unsigned int*, int, unsigned char*) -->
    <elf-symbol name='_ZN16vtkPixelTransfer4BlitIjhEEiRK14vtkPixelExtentS3_S3_S3_iPT_iPT0_' type='func-type' binding='weak-binding' visibility='default-visibility' is-defined='yes'/>
    <!-- int vtkPixelTransfer::Blit<unsigned int, int>(vtkPixelExtent const&, vtkPixelExtent const&, vtkPixelExtent const&, vtkPixelExtent const&, int, unsigned int*, int, int*) -->
    <elf-symbol name='_ZN16vtkPixelTransfer4BlitIjiEEiRK14vtkPixelExtentS3_S3_S3_iPT_iPT0_' type='func-type' binding='weak-binding' visibility='default-visibility' is-defined='yes'/>
    <!-- int vtkPixelTransfer::Blit<unsigned int, unsigned int>(vtkPixelExtent const&, vtkPixelExtent const&, vtkPixelExtent const&, vtkPixelExtent const&, int, unsigned int*, int, unsigned int*) -->
    <elf-symbol name='_ZN16vtkPixelTransfer4BlitIjjEEiRK14vtkPixelExtentS3_S3_S3_iPT_iPT0_' type='func-type' binding='weak-binding' visibility='default-visibility' is-defined='yes'/>
    <!-- int vtkPixelTransfer::Blit<unsigned int, long>(vtkPixelExtent const&, vtkPixelExtent const&, vtkPixelExtent const&, vtkPixelExtent const&, int, unsigned int*, int, long*) -->
    <elf-symbol name='_ZN16vtkPixelTransfer4BlitIjlEEiRK14vtkPixelExtentS3_S3_S3_iPT_iPT0_' type='func-type' binding='weak-binding' visibility='default-visibility' is-defined='yes'/>
    <!-- int vtkPixelTransfer::Blit<unsigned int, unsigned long>(vtkPixelExtent const&, vtkPixelExtent const&, vtkPixelExtent const&, vtkPixelExtent const&, int, unsigned int*, int, unsigned long*) -->
    <elf-symbol name='_ZN16vtkPixelTransfer4BlitIjmEEiRK14vtkPixelExtentS3_S3_S3_iPT_iPT0_' type='func-type' binding='weak-binding' visibility='default-visibility' is-defined='yes'/>
    <!-- int vtkPixelTransfer::Blit<unsigned int, short>(vtkPixelExtent const&, vtkPixelExtent const&, vtkPixelExtent const&, vtkPixelExtent const&, int, unsigned int*, int, short*) -->
    <elf-symbol name='_ZN16vtkPixelTransfer4BlitIjsEEiRK14vtkPixelExtentS3_S3_S3_iPT_iPT0_' type='func-type' binding='weak-binding' visibility='default-visibility' is-defined='yes'/>
    <!-- int vtkPixelTransfer::Blit<unsigned int, unsigned short>(vtkPixelExtent const&, vtkPixelExtent const&, vtkPixelExtent const&, vtkPixelExtent const&, int, unsigned int*, int, unsigned short*) -->
    <elf-symbol name='_ZN16vtkPixelTransfer4BlitIjtEEiRK14vtkPixelExtentS3_S3_S3_iPT_iPT0_' type='func-type' binding='weak-binding' visibility='default-visibility' is-defined='yes'/>
    <!-- int vtkPixelTransfer::Blit<unsigned int, long long>(vtkPixelExtent const&, vtkPixelExtent const&, vtkPixelExtent const&, vtkPixelExtent const&, int, unsigned int*, int, long long*) -->
    <elf-symbol name='_ZN16vtkPixelTransfer4BlitIjxEEiRK14vtkPixelExtentS3_S3_S3_iPT_iPT0_' type='func-type' binding='weak-binding' visibility='default-visibility' is-defined='yes'/>
    <!-- int vtkPixelTransfer::Blit<unsigned int, unsigned long long>(vtkPixelExtent const&, vtkPixelExtent const&, vtkPixelExtent const&, vtkPixelExtent const&, int, unsigned int*, int, unsigned long long*) -->
    <elf-symbol name='_ZN16vtkPixelTransfer4BlitIjyEEiRK14vtkPixelExtentS3_S3_S3_iPT_iPT0_' type='func-type' binding='weak-binding' visibility='default-visibility' is-defined='yes'/>
    <!-- int vtkPixelTransfer::Blit<long>(vtkPixelExtent const&, vtkPixelExtent const&, vtkPixelExtent const&, vtkPixelExtent const&, int, long*, int, int, void*) -->
    <elf-symbol name='_ZN16vtkPixelTransfer4BlitIlEEiRK14vtkPixelExtentS3_S3_S3_iPT_iiPv' type='func-type' binding='weak-binding' visibility='default-visibility' is-defined='yes'/>
    <!-- int vtkPixelTransfer::Blit<long, signed char>(vtkPixelExtent const&, vtkPixelExtent const&, vtkPixelExtent const&, vtkPixelExtent const&, int, long*, int, signed char*) -->
    <elf-symbol name='_ZN16vtkPixelTransfer4BlitIlaEEiRK14vtkPixelExtentS3_S3_S3_iPT_iPT0_' type='func-type' binding='weak-binding' visibility='default-visibility' is-defined='yes'/>
    <!-- int vtkPixelTransfer::Blit<long, char>(vtkPixelExtent const&, vtkPixelExtent const&, vtkPixelExtent const&, vtkPixelExtent const&, int, long*, int, char*) -->
    <elf-symbol name='_ZN16vtkPixelTransfer4BlitIlcEEiRK14vtkPixelExtentS3_S3_S3_iPT_iPT0_' type='func-type' binding='weak-binding' visibility='default-visibility' is-defined='yes'/>
    <!-- int vtkPixelTransfer::Blit<long, double>(vtkPixelExtent const&, vtkPixelExtent const&, vtkPixelExtent const&, vtkPixelExtent const&, int, long*, int, double*) -->
    <elf-symbol name='_ZN16vtkPixelTransfer4BlitIldEEiRK14vtkPixelExtentS3_S3_S3_iPT_iPT0_' type='func-type' binding='weak-binding' visibility='default-visibility' is-defined='yes'/>
    <!-- int vtkPixelTransfer::Blit<long, float>(vtkPixelExtent const&, vtkPixelExtent const&, vtkPixelExtent const&, vtkPixelExtent const&, int, long*, int, float*) -->
    <elf-symbol name='_ZN16vtkPixelTransfer4BlitIlfEEiRK14vtkPixelExtentS3_S3_S3_iPT_iPT0_' type='func-type' binding='weak-binding' visibility='default-visibility' is-defined='yes'/>
    <!-- int vtkPixelTransfer::Blit<long, unsigned char>(vtkPixelExtent const&, vtkPixelExtent const&, vtkPixelExtent const&, vtkPixelExtent const&, int, long*, int, unsigned char*) -->
    <elf-symbol name='_ZN16vtkPixelTransfer4BlitIlhEEiRK14vtkPixelExtentS3_S3_S3_iPT_iPT0_' type='func-type' binding='weak-binding' visibility='default-visibility' is-defined='yes'/>
    <!-- int vtkPixelTransfer::Blit<long, int>(vtkPixelExtent const&, vtkPixelExtent const&, vtkPixelExtent const&, vtkPixelExtent const&, int, long*, int, int*) -->
    <elf-symbol name='_ZN16vtkPixelTransfer4BlitIliEEiRK14vtkPixelExtentS3_S3_S3_iPT_iPT0_' type='func-type' binding='weak-binding' visibility='default-visibility' is-defined='yes'/>
    <!-- int vtkPixelTransfer::Blit<long, unsigned int>(vtkPixelExtent const&, vtkPixelExtent const&, vtkPixelExtent const&, vtkPixelExtent const&, int, long*, int, unsigned int*) -->
    <elf-symbol name='_ZN16vtkPixelTransfer4BlitIljEEiRK14vtkPixelExtentS3_S3_S3_iPT_iPT0_' type='func-type' binding='weak-binding' visibility='default-visibility' is-defined='yes'/>
    <!-- int vtkPixelTransfer::Blit<long, long>(vtkPixelExtent const&, vtkPixelExtent const&, vtkPixelExtent const&, vtkPixelExtent const&, int, long*, int, long*) -->
    <elf-symbol name='_ZN16vtkPixelTransfer4BlitIllEEiRK14vtkPixelExtentS3_S3_S3_iPT_iPT0_' type='func-type' binding='weak-binding' visibility='default-visibility' is-defined='yes'/>
    <!-- int vtkPixelTransfer::Blit<long, unsigned long>(vtkPixelExtent const&, vtkPixelExtent const&, vtkPixelExtent const&, vtkPixelExtent const&, int, long*, int, unsigned long*) -->
    <elf-symbol name='_ZN16vtkPixelTransfer4BlitIlmEEiRK14vtkPixelExtentS3_S3_S3_iPT_iPT0_' type='func-type' binding='weak-binding' visibility='default-visibility' is-defined='yes'/>
    <!-- int vtkPixelTransfer::Blit<long, short>(vtkPixelExtent const&, vtkPixelExtent const&, vtkPixelExtent const&, vtkPixelExtent const&, int, long*, int, short*) -->
    <elf-symbol name='_ZN16vtkPixelTransfer4BlitIlsEEiRK14vtkPixelExtentS3_S3_S3_iPT_iPT0_' type='func-type' binding='weak-binding' visibility='default-visibility' is-defined='yes'/>
    <!-- int vtkPixelTransfer::Blit<long, unsigned short>(vtkPixelExtent const&, vtkPixelExtent const&, vtkPixelExtent const&, vtkPixelExtent const&, int, long*, int, unsigned short*) -->
    <elf-symbol name='_ZN16vtkPixelTransfer4BlitIltEEiRK14vtkPixelExtentS3_S3_S3_iPT_iPT0_' type='func-type' binding='weak-binding' visibility='default-visibility' is-defined='yes'/>
    <!-- int vtkPixelTransfer::Blit<long, long long>(vtkPixelExtent const&, vtkPixelExtent const&, vtkPixelExtent const&, vtkPixelExtent const&, int, long*, int, long long*) -->
    <elf-symbol name='_ZN16vtkPixelTransfer4BlitIlxEEiRK14vtkPixelExtentS3_S3_S3_iPT_iPT0_' type='func-type' binding='weak-binding' visibility='default-visibility' is-defined='yes'/>
    <!-- int vtkPixelTransfer::Blit<long, unsigned long long>(vtkPixelExtent const&, vtkPixelExtent const&, vtkPixelExtent const&, vtkPixelExtent const&, int, long*, int, unsigned long long*) -->
    <elf-symbol name='_ZN16vtkPixelTransfer4BlitIlyEEiRK14vtkPixelExtentS3_S3_S3_iPT_iPT0_' type='func-type' binding='weak-binding' visibility='default-visibility' is-defined='yes'/>
    <!-- int vtkPixelTransfer::Blit<unsigned long>(vtkPixelExtent const&, vtkPixelExtent const&, vtkPixelExtent const&, vtkPixelExtent const&, int, unsigned long*, int, int, void*) -->
    <elf-symbol name='_ZN16vtkPixelTransfer4BlitImEEiRK14vtkPixelExtentS3_S3_S3_iPT_iiPv' type='func-type' binding='weak-binding' visibility='default-visibility' is-defined='yes'/>
    <!-- int vtkPixelTransfer::Blit<unsigned long, signed char>(vtkPixelExtent const&, vtkPixelExtent const&, vtkPixelExtent const&, vtkPixelExtent const&, int, unsigned long*, int, signed char*) -->
    <elf-symbol name='_ZN16vtkPixelTransfer4BlitImaEEiRK14vtkPixelExtentS3_S3_S3_iPT_iPT0_' type='func-type' binding='weak-binding' visibility='default-visibility' is-defined='yes'/>
    <!-- int vtkPixelTransfer::Blit<unsigned long, char>(vtkPixelExtent const&, vtkPixelExtent const&, vtkPixelExtent const&, vtkPixelExtent const&, int, unsigned long*, int, char*) -->
    <elf-symbol name='_ZN16vtkPixelTransfer4BlitImcEEiRK14vtkPixelExtentS3_S3_S3_iPT_iPT0_' type='func-type' binding='weak-binding' visibility='default-visibility' is-defined='yes'/>
    <!-- int vtkPixelTransfer::Blit<unsigned long, double>(vtkPixelExtent const&, vtkPixelExtent const&, vtkPixelExtent const&, vtkPixelExtent const&, int, unsigned long*, int, double*) -->
    <elf-symbol name='_ZN16vtkPixelTransfer4BlitImdEEiRK14vtkPixelExtentS3_S3_S3_iPT_iPT0_' type='func-type' binding='weak-binding' visibility='default-visibility' is-defined='yes'/>
    <!-- int vtkPixelTransfer::Blit<unsigned long, float>(vtkPixelExtent const&, vtkPixelExtent const&, vtkPixelExtent const&, vtkPixelExtent const&, int, unsigned long*, int, float*) -->
    <elf-symbol name='_ZN16vtkPixelTransfer4BlitImfEEiRK14vtkPixelExtentS3_S3_S3_iPT_iPT0_' type='func-type' binding='weak-binding' visibility='default-visibility' is-defined='yes'/>
    <!-- int vtkPixelTransfer::Blit<unsigned long, unsigned char>(vtkPixelExtent const&, vtkPixelExtent const&, vtkPixelExtent const&, vtkPixelExtent const&, int, unsigned long*, int, unsigned char*) -->
    <elf-symbol name='_ZN16vtkPixelTransfer4BlitImhEEiRK14vtkPixelExtentS3_S3_S3_iPT_iPT0_' type='func-type' binding='weak-binding' visibility='default-visibility' is-defined='yes'/>
    <!-- int vtkPixelTransfer::Blit<unsigned long, int>(vtkPixelExtent const&, vtkPixelExtent const&, vtkPixelExtent const&, vtkPixelExtent const&, int, unsigned long*, int, int*) -->
    <elf-symbol name='_ZN16vtkPixelTransfer4BlitImiEEiRK14vtkPixelExtentS3_S3_S3_iPT_iPT0_' type='func-type' binding='weak-binding' visibility='default-visibility' is-defined='yes'/>
    <!-- int vtkPixelTransfer::Blit<unsigned long, unsigned int>(vtkPixelExtent const&, vtkPixelExtent const&, vtkPixelExtent const&, vtkPixelExtent const&, int, unsigned long*, int, unsigned int*) -->
    <elf-symbol name='_ZN16vtkPixelTransfer4BlitImjEEiRK14vtkPixelExtentS3_S3_S3_iPT_iPT0_' type='func-type' binding='weak-binding' visibility='default-visibility' is-defined='yes'/>
    <!-- int vtkPixelTransfer::Blit<unsigned long, long>(vtkPixelExtent const&, vtkPixelExtent const&, vtkPixelExtent const&, vtkPixelExtent const&, int, unsigned long*, int, long*) -->
    <elf-symbol name='_ZN16vtkPixelTransfer4BlitImlEEiRK14vtkPixelExtentS3_S3_S3_iPT_iPT0_' type='func-type' binding='weak-binding' visibility='default-visibility' is-defined='yes'/>
    <!-- int vtkPixelTransfer::Blit<unsigned long, unsigned long>(vtkPixelExtent const&, vtkPixelExtent const&, vtkPixelExtent const&, vtkPixelExtent const&, int, unsigned long*, int, unsigned long*) -->
    <elf-symbol name='_ZN16vtkPixelTransfer4BlitImmEEiRK14vtkPixelExtentS3_S3_S3_iPT_iPT0_' type='func-type' binding='weak-binding' visibility='default-visibility' is-defined='yes'/>
    <!-- int vtkPixelTransfer::Blit<unsigned long, short>(vtkPixelExtent const&, vtkPixelExtent const&, vtkPixelExtent const&, vtkPixelExtent const&, int, unsigned long*, int, short*) -->
    <elf-symbol name='_ZN16vtkPixelTransfer4BlitImsEEiRK14vtkPixelExtentS3_S3_S3_iPT_iPT0_' type='func-type' binding='weak-binding' visibility='default-visibility' is-defined='yes'/>
    <!-- int vtkPixelTransfer::Blit<unsigned long, unsigned short>(vtkPixelExtent const&, vtkPixelExtent const&, vtkPixelExtent const&, vtkPixelExtent const&, int, unsigned long*, int, unsigned short*) -->
    <elf-symbol name='_ZN16vtkPixelTransfer4BlitImtEEiRK14vtkPixelExtentS3_S3_S3_iPT_iPT0_' type='func-type' binding='weak-binding' visibility='default-visibility' is-defined='yes'/>
    <!-- int vtkPixelTransfer::Blit<unsigned long, long long>(vtkPixelExtent const&, vtkPixelExtent const&, vtkPixelExtent const&, vtkPixelExtent const&, int, unsigned long*, int, long long*) -->
    <elf-symbol name='_ZN16vtkPixelTransfer4BlitImxEEiRK14vtkPixelExtentS3_S3_S3_iPT_iPT0_' type='func-type' binding='weak-binding' visibility='default-visibility' is-defined='yes'/>
    <!-- int vtkPixelTransfer::Blit<unsigned long, unsigned long long>(vtkPixelExtent const&, vtkPixelExtent const&, vtkPixelExtent const&, vtkPixelExtent const&, int, unsigned long*, int, unsigned long long*) -->
    <elf-symbol name='_ZN16vtkPixelTransfer4BlitImyEEiRK14vtkPixelExtentS3_S3_S3_iPT_iPT0_' type='func-type' binding='weak-binding' visibility='default-visibility' is-defined='yes'/>
    <!-- int vtkPixelTransfer::Blit<short>(vtkPixelExtent const&, vtkPixelExtent const&, vtkPixelExtent const&, vtkPixelExtent const&, int, short*, int, int, void*) -->
    <elf-symbol name='_ZN16vtkPixelTransfer4BlitIsEEiRK14vtkPixelExtentS3_S3_S3_iPT_iiPv' type='func-type' binding='weak-binding' visibility='default-visibility' is-defined='yes'/>
    <!-- int vtkPixelTransfer::Blit<short, signed char>(vtkPixelExtent const&, vtkPixelExtent const&, vtkPixelExtent const&, vtkPixelExtent const&, int, short*, int, signed char*) -->
    <elf-symbol name='_ZN16vtkPixelTransfer4BlitIsaEEiRK14vtkPixelExtentS3_S3_S3_iPT_iPT0_' type='func-type' binding='weak-binding' visibility='default-visibility' is-defined='yes'/>
    <!-- int vtkPixelTransfer::Blit<short, char>(vtkPixelExtent const&, vtkPixelExtent const&, vtkPixelExtent const&, vtkPixelExtent const&, int, short*, int, char*) -->
    <elf-symbol name='_ZN16vtkPixelTransfer4BlitIscEEiRK14vtkPixelExtentS3_S3_S3_iPT_iPT0_' type='func-type' binding='weak-binding' visibility='default-visibility' is-defined='yes'/>
    <!-- int vtkPixelTransfer::Blit<short, double>(vtkPixelExtent const&, vtkPixelExtent const&, vtkPixelExtent const&, vtkPixelExtent const&, int, short*, int, double*) -->
    <elf-symbol name='_ZN16vtkPixelTransfer4BlitIsdEEiRK14vtkPixelExtentS3_S3_S3_iPT_iPT0_' type='func-type' binding='weak-binding' visibility='default-visibility' is-defined='yes'/>
    <!-- int vtkPixelTransfer::Blit<short, float>(vtkPixelExtent const&, vtkPixelExtent const&, vtkPixelExtent const&, vtkPixelExtent const&, int, short*, int, float*) -->
    <elf-symbol name='_ZN16vtkPixelTransfer4BlitIsfEEiRK14vtkPixelExtentS3_S3_S3_iPT_iPT0_' type='func-type' binding='weak-binding' visibility='default-visibility' is-defined='yes'/>
    <!-- int vtkPixelTransfer::Blit<short, unsigned char>(vtkPixelExtent const&, vtkPixelExtent const&, vtkPixelExtent const&, vtkPixelExtent const&, int, short*, int, unsigned char*) -->
    <elf-symbol name='_ZN16vtkPixelTransfer4BlitIshEEiRK14vtkPixelExtentS3_S3_S3_iPT_iPT0_' type='func-type' binding='weak-binding' visibility='default-visibility' is-defined='yes'/>
    <!-- int vtkPixelTransfer::Blit<short, int>(vtkPixelExtent const&, vtkPixelExtent const&, vtkPixelExtent const&, vtkPixelExtent const&, int, short*, int, int*) -->
    <elf-symbol name='_ZN16vtkPixelTransfer4BlitIsiEEiRK14vtkPixelExtentS3_S3_S3_iPT_iPT0_' type='func-type' binding='weak-binding' visibility='default-visibility' is-defined='yes'/>
    <!-- int vtkPixelTransfer::Blit<short, unsigned int>(vtkPixelExtent const&, vtkPixelExtent const&, vtkPixelExtent const&, vtkPixelExtent const&, int, short*, int, unsigned int*) -->
    <elf-symbol name='_ZN16vtkPixelTransfer4BlitIsjEEiRK14vtkPixelExtentS3_S3_S3_iPT_iPT0_' type='func-type' binding='weak-binding' visibility='default-visibility' is-defined='yes'/>
    <!-- int vtkPixelTransfer::Blit<short, long>(vtkPixelExtent const&, vtkPixelExtent const&, vtkPixelExtent const&, vtkPixelExtent const&, int, short*, int, long*) -->
    <elf-symbol name='_ZN16vtkPixelTransfer4BlitIslEEiRK14vtkPixelExtentS3_S3_S3_iPT_iPT0_' type='func-type' binding='weak-binding' visibility='default-visibility' is-defined='yes'/>
    <!-- int vtkPixelTransfer::Blit<short, unsigned long>(vtkPixelExtent const&, vtkPixelExtent const&, vtkPixelExtent const&, vtkPixelExtent const&, int, short*, int, unsigned long*) -->
    <elf-symbol name='_ZN16vtkPixelTransfer4BlitIsmEEiRK14vtkPixelExtentS3_S3_S3_iPT_iPT0_' type='func-type' binding='weak-binding' visibility='default-visibility' is-defined='yes'/>
    <!-- int vtkPixelTransfer::Blit<short, short>(vtkPixelExtent const&, vtkPixelExtent const&, vtkPixelExtent const&, vtkPixelExtent const&, int, short*, int, short*) -->
    <elf-symbol name='_ZN16vtkPixelTransfer4BlitIssEEiRK14vtkPixelExtentS3_S3_S3_iPT_iPT0_' type='func-type' binding='weak-binding' visibility='default-visibility' is-defined='yes'/>
    <!-- int vtkPixelTransfer::Blit<short, unsigned short>(vtkPixelExtent const&, vtkPixelExtent const&, vtkPixelExtent const&, vtkPixelExtent const&, int, short*, int, unsigned short*) -->
    <elf-symbol name='_ZN16vtkPixelTransfer4BlitIstEEiRK14vtkPixelExtentS3_S3_S3_iPT_iPT0_' type='func-type' binding='weak-binding' visibility='default-visibility' is-defined='yes'/>
    <!-- int vtkPixelTransfer::Blit<short, long long>(vtkPixelExtent const&, vtkPixelExtent const&, vtkPixelExtent const&, vtkPixelExtent const&, int, short*, int, long long*) -->
    <elf-symbol name='_ZN16vtkPixelTransfer4BlitIsxEEiRK14vtkPixelExtentS3_S3_S3_iPT_iPT0_' type='func-type' binding='weak-binding' visibility='default-visibility' is-defined='yes'/>
    <!-- int vtkPixelTransfer::Blit<short, unsigned long long>(vtkPixelExtent const&, vtkPixelExtent const&, vtkPixelExtent const&, vtkPixelExtent const&, int, short*, int, unsigned long long*) -->
    <elf-symbol name='_ZN16vtkPixelTransfer4BlitIsyEEiRK14vtkPixelExtentS3_S3_S3_iPT_iPT0_' type='func-type' binding='weak-binding' visibility='default-visibility' is-defined='yes'/>
    <!-- int vtkPixelTransfer::Blit<unsigned short>(vtkPixelExtent const&, vtkPixelExtent const&, vtkPixelExtent const&, vtkPixelExtent const&, int, unsigned short*, int, int, void*) -->
    <elf-symbol name='_ZN16vtkPixelTransfer4BlitItEEiRK14vtkPixelExtentS3_S3_S3_iPT_iiPv' type='func-type' binding='weak-binding' visibility='default-visibility' is-defined='yes'/>
    <!-- int vtkPixelTransfer::Blit<unsigned short, signed char>(vtkPixelExtent const&, vtkPixelExtent const&, vtkPixelExtent const&, vtkPixelExtent const&, int, unsigned short*, int, signed char*) -->
    <elf-symbol name='_ZN16vtkPixelTransfer4BlitItaEEiRK14vtkPixelExtentS3_S3_S3_iPT_iPT0_' type='func-type' binding='weak-binding' visibility='default-visibility' is-defined='yes'/>
    <!-- int vtkPixelTransfer::Blit<unsigned short, char>(vtkPixelExtent const&, vtkPixelExtent const&, vtkPixelExtent const&, vtkPixelExtent const&, int, unsigned short*, int, char*) -->
    <elf-symbol name='_ZN16vtkPixelTransfer4BlitItcEEiRK14vtkPixelExtentS3_S3_S3_iPT_iPT0_' type='func-type' binding='weak-binding' visibility='default-visibility' is-defined='yes'/>
    <!-- int vtkPixelTransfer::Blit<unsigned short, double>(vtkPixelExtent const&, vtkPixelExtent const&, vtkPixelExtent const&, vtkPixelExtent const&, int, unsigned short*, int, double*) -->
    <elf-symbol name='_ZN16vtkPixelTransfer4BlitItdEEiRK14vtkPixelExtentS3_S3_S3_iPT_iPT0_' type='func-type' binding='weak-binding' visibility='default-visibility' is-defined='yes'/>
    <!-- int vtkPixelTransfer::Blit<unsigned short, float>(vtkPixelExtent const&, vtkPixelExtent const&, vtkPixelExtent const&, vtkPixelExtent const&, int, unsigned short*, int, float*) -->
    <elf-symbol name='_ZN16vtkPixelTransfer4BlitItfEEiRK14vtkPixelExtentS3_S3_S3_iPT_iPT0_' type='func-type' binding='weak-binding' visibility='default-visibility' is-defined='yes'/>
    <!-- int vtkPixelTransfer::Blit<unsigned short, unsigned char>(vtkPixelExtent const&, vtkPixelExtent const&, vtkPixelExtent const&, vtkPixelExtent const&, int, unsigned short*, int, unsigned char*) -->
    <elf-symbol name='_ZN16vtkPixelTransfer4BlitIthEEiRK14vtkPixelExtentS3_S3_S3_iPT_iPT0_' type='func-type' binding='weak-binding' visibility='default-visibility' is-defined='yes'/>
    <!-- int vtkPixelTransfer::Blit<unsigned short, int>(vtkPixelExtent const&, vtkPixelExtent const&, vtkPixelExtent const&, vtkPixelExtent const&, int, unsigned short*, int, int*) -->
    <elf-symbol name='_ZN16vtkPixelTransfer4BlitItiEEiRK14vtkPixelExtentS3_S3_S3_iPT_iPT0_' type='func-type' binding='weak-binding' visibility='default-visibility' is-defined='yes'/>
    <!-- int vtkPixelTransfer::Blit<unsigned short, unsigned int>(vtkPixelExtent const&, vtkPixelExtent const&, vtkPixelExtent const&, vtkPixelExtent const&, int, unsigned short*, int, unsigned int*) -->
    <elf-symbol name='_ZN16vtkPixelTransfer4BlitItjEEiRK14vtkPixelExtentS3_S3_S3_iPT_iPT0_' type='func-type' binding='weak-binding' visibility='default-visibility' is-defined='yes'/>
    <!-- int vtkPixelTransfer::Blit<unsigned short, long>(vtkPixelExtent const&, vtkPixelExtent const&, vtkPixelExtent const&, vtkPixelExtent const&, int, unsigned short*, int, long*) -->
    <elf-symbol name='_ZN16vtkPixelTransfer4BlitItlEEiRK14vtkPixelExtentS3_S3_S3_iPT_iPT0_' type='func-type' binding='weak-binding' visibility='default-visibility' is-defined='yes'/>
    <!-- int vtkPixelTransfer::Blit<unsigned short, unsigned long>(vtkPixelExtent const&, vtkPixelExtent const&, vtkPixelExtent const&, vtkPixelExtent const&, int, unsigned short*, int, unsigned long*) -->
    <elf-symbol name='_ZN16vtkPixelTransfer4BlitItmEEiRK14vtkPixelExtentS3_S3_S3_iPT_iPT0_' type='func-type' binding='weak-binding' visibility='default-visibility' is-defined='yes'/>
    <!-- int vtkPixelTransfer::Blit<unsigned short, short>(vtkPixelExtent const&, vtkPixelExtent const&, vtkPixelExtent const&, vtkPixelExtent const&, int, unsigned short*, int, short*) -->
    <elf-symbol name='_ZN16vtkPixelTransfer4BlitItsEEiRK14vtkPixelExtentS3_S3_S3_iPT_iPT0_' type='func-type' binding='weak-binding' visibility='default-visibility' is-defined='yes'/>
    <!-- int vtkPixelTransfer::Blit<unsigned short, unsigned short>(vtkPixelExtent const&, vtkPixelExtent const&, vtkPixelExtent const&, vtkPixelExtent const&, int, unsigned short*, int, unsigned short*) -->
    <elf-symbol name='_ZN16vtkPixelTransfer4BlitIttEEiRK14vtkPixelExtentS3_S3_S3_iPT_iPT0_' type='func-type' binding='weak-binding' visibility='default-visibility' is-defined='yes'/>
    <!-- int vtkPixelTransfer::Blit<unsigned short, long long>(vtkPixelExtent const&, vtkPixelExtent const&, vtkPixelExtent const&, vtkPixelExtent const&, int, unsigned short*, int, long long*) -->
    <elf-symbol name='_ZN16vtkPixelTransfer4BlitItxEEiRK14vtkPixelExtentS3_S3_S3_iPT_iPT0_' type='func-type' binding='weak-binding' visibility='default-visibility' is-defined='yes'/>
    <!-- int vtkPixelTransfer::Blit<unsigned short, unsigned long long>(vtkPixelExtent const&, vtkPixelExtent const&, vtkPixelExtent const&, vtkPixelExtent const&, int, unsigned short*, int, unsigned long long*) -->
    <elf-symbol name='_ZN16vtkPixelTransfer4BlitItyEEiRK14vtkPixelExtentS3_S3_S3_iPT_iPT0_' type='func-type' binding='weak-binding' visibility='default-visibility' is-defined='yes'/>
    <!-- int vtkPixelTransfer::Blit<long long>(vtkPixelExtent const&, vtkPixelExtent const&, vtkPixelExtent const&, vtkPixelExtent const&, int, long long*, int, int, void*) -->
    <elf-symbol name='_ZN16vtkPixelTransfer4BlitIxEEiRK14vtkPixelExtentS3_S3_S3_iPT_iiPv' type='func-type' binding='weak-binding' visibility='default-visibility' is-defined='yes'/>
    <!-- int vtkPixelTransfer::Blit<long long, signed char>(vtkPixelExtent const&, vtkPixelExtent const&, vtkPixelExtent const&, vtkPixelExtent const&, int, long long*, int, signed char*) -->
    <elf-symbol name='_ZN16vtkPixelTransfer4BlitIxaEEiRK14vtkPixelExtentS3_S3_S3_iPT_iPT0_' type='func-type' binding='weak-binding' visibility='default-visibility' is-defined='yes'/>
    <!-- int vtkPixelTransfer::Blit<long long, char>(vtkPixelExtent const&, vtkPixelExtent const&, vtkPixelExtent const&, vtkPixelExtent const&, int, long long*, int, char*) -->
    <elf-symbol name='_ZN16vtkPixelTransfer4BlitIxcEEiRK14vtkPixelExtentS3_S3_S3_iPT_iPT0_' type='func-type' binding='weak-binding' visibility='default-visibility' is-defined='yes'/>
    <!-- int vtkPixelTransfer::Blit<long long, double>(vtkPixelExtent const&, vtkPixelExtent const&, vtkPixelExtent const&, vtkPixelExtent const&, int, long long*, int, double*) -->
    <elf-symbol name='_ZN16vtkPixelTransfer4BlitIxdEEiRK14vtkPixelExtentS3_S3_S3_iPT_iPT0_' type='func-type' binding='weak-binding' visibility='default-visibility' is-defined='yes'/>
    <!-- int vtkPixelTransfer::Blit<long long, float>(vtkPixelExtent const&, vtkPixelExtent const&, vtkPixelExtent const&, vtkPixelExtent const&, int, long long*, int, float*) -->
    <elf-symbol name='_ZN16vtkPixelTransfer4BlitIxfEEiRK14vtkPixelExtentS3_S3_S3_iPT_iPT0_' type='func-type' binding='weak-binding' visibility='default-visibility' is-defined='yes'/>
    <!-- int vtkPixelTransfer::Blit<long long, unsigned char>(vtkPixelExtent const&, vtkPixelExtent const&, vtkPixelExtent const&, vtkPixelExtent const&, int, long long*, int, unsigned char*) -->
    <elf-symbol name='_ZN16vtkPixelTransfer4BlitIxhEEiRK14vtkPixelExtentS3_S3_S3_iPT_iPT0_' type='func-type' binding='weak-binding' visibility='default-visibility' is-defined='yes'/>
    <!-- int vtkPixelTransfer::Blit<long long, int>(vtkPixelExtent const&, vtkPixelExtent const&, vtkPixelExtent const&, vtkPixelExtent const&, int, long long*, int, int*) -->
    <elf-symbol name='_ZN16vtkPixelTransfer4BlitIxiEEiRK14vtkPixelExtentS3_S3_S3_iPT_iPT0_' type='func-type' binding='weak-binding' visibility='default-visibility' is-defined='yes'/>
    <!-- int vtkPixelTransfer::Blit<long long, unsigned int>(vtkPixelExtent const&, vtkPixelExtent const&, vtkPixelExtent const&, vtkPixelExtent const&, int, long long*, int, unsigned int*) -->
    <elf-symbol name='_ZN16vtkPixelTransfer4BlitIxjEEiRK14vtkPixelExtentS3_S3_S3_iPT_iPT0_' type='func-type' binding='weak-binding' visibility='default-visibility' is-defined='yes'/>
    <!-- int vtkPixelTransfer::Blit<long long, long>(vtkPixelExtent const&, vtkPixelExtent const&, vtkPixelExtent const&, vtkPixelExtent const&, int, long long*, int, long*) -->
    <elf-symbol name='_ZN16vtkPixelTransfer4BlitIxlEEiRK14vtkPixelExtentS3_S3_S3_iPT_iPT0_' type='func-type' binding='weak-binding' visibility='default-visibility' is-defined='yes'/>
    <!-- int vtkPixelTransfer::Blit<long long, unsigned long>(vtkPixelExtent const&, vtkPixelExtent const&, vtkPixelExtent const&, vtkPixelExtent const&, int, long long*, int, unsigned long*) -->
    <elf-symbol name='_ZN16vtkPixelTransfer4BlitIxmEEiRK14vtkPixelExtentS3_S3_S3_iPT_iPT0_' type='func-type' binding='weak-binding' visibility='default-visibility' is-defined='yes'/>
    <!-- int vtkPixelTransfer::Blit<long long, short>(vtkPixelExtent const&, vtkPixelExtent const&, vtkPixelExtent const&, vtkPixelExtent const&, int, long long*, int, short*) -->
    <elf-symbol name='_ZN16vtkPixelTransfer4BlitIxsEEiRK14vtkPixelExtentS3_S3_S3_iPT_iPT0_' type='func-type' binding='weak-binding' visibility='default-visibility' is-defined='yes'/>
    <!-- int vtkPixelTransfer::Blit<long long, unsigned short>(vtkPixelExtent const&, vtkPixelExtent const&, vtkPixelExtent const&, vtkPixelExtent const&, int, long long*, int, unsigned short*) -->
    <elf-symbol name='_ZN16vtkPixelTransfer4BlitIxtEEiRK14vtkPixelExtentS3_S3_S3_iPT_iPT0_' type='func-type' binding='weak-binding' visibility='default-visibility' is-defined='yes'/>
    <!-- int vtkPixelTransfer::Blit<long long, long long>(vtkPixelExtent const&, vtkPixelExtent const&, vtkPixelExtent const&, vtkPixelExtent const&, int, long long*, int, long long*) -->
    <elf-symbol name='_ZN16vtkPixelTransfer4BlitIxxEEiRK14vtkPixelExtentS3_S3_S3_iPT_iPT0_' type='func-type' binding='weak-binding' visibility='default-visibility' is-defined='yes'/>
    <!-- int vtkPixelTransfer::Blit<long long, unsigned long long>(vtkPixelExtent const&, vtkPixelExtent const&, vtkPixelExtent const&, vtkPixelExtent const&, int, long long*, int, unsigned long long*) -->
    <elf-symbol name='_ZN16vtkPixelTransfer4BlitIxyEEiRK14vtkPixelExtentS3_S3_S3_iPT_iPT0_' type='func-type' binding='weak-binding' visibility='default-visibility' is-defined='yes'/>
    <!-- int vtkPixelTransfer::Blit<unsigned long long>(vtkPixelExtent const&, vtkPixelExtent const&, vtkPixelExtent const&, vtkPixelExtent const&, int, unsigned long long*, int, int, void*) -->
    <elf-symbol name='_ZN16vtkPixelTransfer4BlitIyEEiRK14vtkPixelExtentS3_S3_S3_iPT_iiPv' type='func-type' binding='weak-binding' visibility='default-visibility' is-defined='yes'/>
    <!-- int vtkPixelTransfer::Blit<unsigned long long, signed char>(vtkPixelExtent const&, vtkPixelExtent const&, vtkPixelExtent const&, vtkPixelExtent const&, int, unsigned long long*, int, signed char*) -->
    <elf-symbol name='_ZN16vtkPixelTransfer4BlitIyaEEiRK14vtkPixelExtentS3_S3_S3_iPT_iPT0_' type='func-type' binding='weak-binding' visibility='default-visibility' is-defined='yes'/>
    <!-- int vtkPixelTransfer::Blit<unsigned long long, char>(vtkPixelExtent const&, vtkPixelExtent const&, vtkPixelExtent const&, vtkPixelExtent const&, int, unsigned long long*, int, char*) -->
    <elf-symbol name='_ZN16vtkPixelTransfer4BlitIycEEiRK14vtkPixelExtentS3_S3_S3_iPT_iPT0_' type='func-type' binding='weak-binding' visibility='default-visibility' is-defined='yes'/>
    <!-- int vtkPixelTransfer::Blit<unsigned long long, double>(vtkPixelExtent const&, vtkPixelExtent const&, vtkPixelExtent const&, vtkPixelExtent const&, int, unsigned long long*, int, double*) -->
    <elf-symbol name='_ZN16vtkPixelTransfer4BlitIydEEiRK14vtkPixelExtentS3_S3_S3_iPT_iPT0_' type='func-type' binding='weak-binding' visibility='default-visibility' is-defined='yes'/>
    <!-- int vtkPixelTransfer::Blit<unsigned long long, float>(vtkPixelExtent const&, vtkPixelExtent const&, vtkPixelExtent const&, vtkPixelExtent const&, int, unsigned long long*, int, float*) -->
    <elf-symbol name='_ZN16vtkPixelTransfer4BlitIyfEEiRK14vtkPixelExtentS3_S3_S3_iPT_iPT0_' type='func-type' binding='weak-binding' visibility='default-visibility' is-defined='yes'/>
    <!-- int vtkPixelTransfer::Blit<unsigned long long, unsigned char>(vtkPixelExtent const&, vtkPixelExtent const&, vtkPixelExtent const&, vtkPixelExtent const&, int, unsigned long long*, int, unsigned char*) -->
    <elf-symbol name='_ZN16vtkPixelTransfer4BlitIyhEEiRK14vtkPixelExtentS3_S3_S3_iPT_iPT0_' type='func-type' binding='weak-binding' visibility='default-visibility' is-defined='yes'/>
    <!-- int vtkPixelTransfer::Blit<unsigned long long, int>(vtkPixelExtent const&, vtkPixelExtent const&, vtkPixelExtent const&, vtkPixelExtent const&, int, unsigned long long*, int, int*) -->
    <elf-symbol name='_ZN16vtkPixelTransfer4BlitIyiEEiRK14vtkPixelExtentS3_S3_S3_iPT_iPT0_' type='func-type' binding='weak-binding' visibility='default-visibility' is-defined='yes'/>
    <!-- int vtkPixelTransfer::Blit<unsigned long long, unsigned int>(vtkPixelExtent const&, vtkPixelExtent const&, vtkPixelExtent const&, vtkPixelExtent const&, int, unsigned long long*, int, unsigned int*) -->
    <elf-symbol name='_ZN16vtkPixelTransfer4BlitIyjEEiRK14vtkPixelExtentS3_S3_S3_iPT_iPT0_' type='func-type' binding='weak-binding' visibility='default-visibility' is-defined='yes'/>
    <!-- int vtkPixelTransfer::Blit<unsigned long long, long>(vtkPixelExtent const&, vtkPixelExtent const&, vtkPixelExtent const&, vtkPixelExtent const&, int, unsigned long long*, int, long*) -->
    <elf-symbol name='_ZN16vtkPixelTransfer4BlitIylEEiRK14vtkPixelExtentS3_S3_S3_iPT_iPT0_' type='func-type' binding='weak-binding' visibility='default-visibility' is-defined='yes'/>
    <!-- int vtkPixelTransfer::Blit<unsigned long long, unsigned long>(vtkPixelExtent const&, vtkPixelExtent const&, vtkPixelExtent const&, vtkPixelExtent const&, int, unsigned long long*, int, unsigned long*) -->
    <elf-symbol name='_ZN16vtkPixelTransfer4BlitIymEEiRK14vtkPixelExtentS3_S3_S3_iPT_iPT0_' type='func-type' binding='weak-binding' visibility='default-visibility' is-defined='yes'/>
    <!-- int vtkPixelTransfer::Blit<unsigned long long, short>(vtkPixelExtent const&, vtkPixelExtent const&, vtkPixelExtent const&, vtkPixelExtent const&, int, unsigned long long*, int, short*) -->
    <elf-symbol name='_ZN16vtkPixelTransfer4BlitIysEEiRK14vtkPixelExtentS3_S3_S3_iPT_iPT0_' type='func-type' binding='weak-binding' visibility='default-visibility' is-defined='yes'/>
    <!-- int vtkPixelTransfer::Blit<unsigned long long, unsigned short>(vtkPixelExtent const&, vtkPixelExtent const&, vtkPixelExtent const&, vtkPixelExtent const&, int, unsigned long long*, int, unsigned short*) -->
    <elf-symbol name='_ZN16vtkPixelTransfer4BlitIytEEiRK14vtkPixelExtentS3_S3_S3_iPT_iPT0_' type='func-type' binding='weak-binding' visibility='default-visibility' is-defined='yes'/>
    <!-- int vtkPixelTransfer::Blit<unsigned long long, long long>(vtkPixelExtent const&, vtkPixelExtent const&, vtkPixelExtent const&, vtkPixelExtent const&, int, unsigned long long*, int, long long*) -->
    <elf-symbol name='_ZN16vtkPixelTransfer4BlitIyxEEiRK14vtkPixelExtentS3_S3_S3_iPT_iPT0_' type='func-type' binding='weak-binding' visibility='default-visibility' is-defined='yes'/>
    <!-- int vtkPixelTransfer::Blit<unsigned long long, unsigned long long>(vtkPixelExtent const&, vtkPixelExtent const&, vtkPixelExtent const&, vtkPixelExtent const&, int, unsigned long long*, int, unsigned long long*) -->
    <elf-symbol name='_ZN16vtkPixelTransfer4BlitIyyEEiRK14vtkPixelExtentS3_S3_S3_iPT_iPT0_' type='func-type' binding='weak-binding' visibility='default-visibility' is-defined='yes'/>
    <!-- vtkImageDataLIC2D::GetContext() -->
    <elf-symbol name='_ZN17vtkImageDataLIC2D10GetContextEv' type='func-type' binding='global-binding' visibility='default-visibility' is-defined='yes'/>
    <!-- vtkImageDataLIC2D::SetContext(vtkRenderWindow*) -->
    <elf-symbol name='_ZN17vtkImageDataLIC2D10SetContextEP15vtkRenderWindow' type='func-type' binding='global-binding' visibility='default-visibility' is-defined='yes'/>
    <!-- vtkImageDataLIC2D::RequestData(vtkInformation*, vtkInformationVector**, vtkInformationVector*) -->
    <elf-symbol name='_ZN17vtkImageDataLIC2D11RequestDataEP14vtkInformationPP20vtkInformationVectorS3_' type='func-type' binding='global-binding' visibility='default-visibility' is-defined='yes'/>
    <!-- vtkImageDataLIC2D::RequestInformation(vtkInformation*, vtkInformationVector**, vtkInformationVector*) -->
    <elf-symbol name='_ZN17vtkImageDataLIC2D18RequestInformationEP14vtkInformationPP20vtkInformationVectorS3_' type='func-type' binding='global-binding' visibility='default-visibility' is-defined='yes'/>
    <!-- vtkImageDataLIC2D::RequestUpdateExtent(vtkInformation*, vtkInformationVector**, vtkInformationVector*) -->
    <elf-symbol name='_ZN17vtkImageDataLIC2D19RequestUpdateExtentEP14vtkInformationPP20vtkInformationVectorS3_' type='func-type' binding='global-binding' visibility='default-visibility' is-defined='yes'/>
    <!-- vtkImageDataLIC2D::TranslateInputExtent(int const*, int const*, int*) -->
    <elf-symbol name='_ZN17vtkImageDataLIC2D20TranslateInputExtentEPKiS1_Pi' type='func-type' binding='global-binding' visibility='default-visibility' is-defined='yes'/>
    <!-- vtkImageDataLIC2D::FillInputPortInformation(int, vtkInformation*) -->
    <elf-symbol name='_ZN17vtkImageDataLIC2D24FillInputPortInformationEiP14vtkInformation' type='func-type' binding='global-binding' visibility='default-visibility' is-defined='yes'/>
    <!-- vtkImageDataLIC2D::New() -->
    <elf-symbol name='_ZN17vtkImageDataLIC2D3NewEv' type='func-type' binding='global-binding' visibility='default-visibility' is-defined='yes'/>
    <!-- vtkImageDataLIC2D::PrintSelf(std::ostream&, vtkIndent) -->
    <elf-symbol name='_ZN17vtkImageDataLIC2D9PrintSelfERSo9vtkIndent' type='func-type' binding='global-binding' visibility='default-visibility' is-defined='yes'/>
    <!-- vtkImageDataLIC2D::vtkImageDataLIC2D() -->
    <elf-symbol name='_ZN17vtkImageDataLIC2DC1Ev' type='func-type' binding='global-binding' visibility='default-visibility' alias='_ZN17vtkImageDataLIC2DC2Ev' is-defined='yes'/>
    <!-- vtkImageDataLIC2D::vtkImageDataLIC2D() -->
    <elf-symbol name='_ZN17vtkImageDataLIC2DC2Ev' type='func-type' binding='global-binding' visibility='default-visibility' is-defined='yes'/>
    <!-- vtkImageDataLIC2D::~vtkImageDataLIC2D() -->
    <elf-symbol name='_ZN17vtkImageDataLIC2DD0Ev' type='func-type' binding='global-binding' visibility='default-visibility' is-defined='yes'/>
    <!-- vtkImageDataLIC2D::~vtkImageDataLIC2D() -->
    <elf-symbol name='_ZN17vtkImageDataLIC2DD1Ev' type='func-type' binding='global-binding' visibility='default-visibility' alias='_ZN17vtkImageDataLIC2DD2Ev' is-defined='yes'/>
    <!-- vtkImageDataLIC2D::~vtkImageDataLIC2D() -->
    <elf-symbol name='_ZN17vtkImageDataLIC2DD2Ev' type='func-type' binding='global-binding' visibility='default-visibility' is-defined='yes'/>
    <!-- vtkSurfaceLICPainter::IsSupported(vtkRenderWindow*) -->
    <elf-symbol name='_ZN20vtkSurfaceLICPainter11IsSupportedEP15vtkRenderWindow' type='func-type' binding='global-binding' visibility='default-visibility' is-defined='yes'/>
    <!-- vtkSurfaceLICPainter::SetStepSize(double) -->
    <elf-symbol name='_ZN20vtkSurfaceLICPainter11SetStepSizeEd' type='func-type' binding='global-binding' visibility='default-visibility' is-defined='yes'/>
    <!-- vtkSurfaceLICPainter::ClearTCoords(vtkDataSet*) -->
    <elf-symbol name='_ZN20vtkSurfaceLICPainter12ClearTCoordsEP10vtkDataSet' type='func-type' binding='global-binding' visibility='default-visibility' is-defined='yes'/>
    <!-- vtkSurfaceLICPainter::SetAntiAlias(int) -->
    <elf-symbol name='_ZN20vtkSurfaceLICPainter12SetAntiAliasEi' type='func-type' binding='global-binding' visibility='default-visibility' is-defined='yes'/>
    <!-- vtkSurfaceLICPainter::SetColorMode(int) -->
    <elf-symbol name='_ZN20vtkSurfaceLICPainter12SetColorModeEi' type='func-type' binding='global-binding' visibility='default-visibility' is-defined='yes'/>
    <!-- vtkSurfaceLICPainter::SetMaskColor(double*) -->
    <elf-symbol name='_ZN20vtkSurfaceLICPainter12SetMaskColorEPd' type='func-type' binding='global-binding' visibility='default-visibility' is-defined='yes'/>
    <!-- vtkSurfaceLICPainter::SetNoiseType(int) -->
    <elf-symbol name='_ZN20vtkSurfaceLICPainter12SetNoiseTypeEi' type='func-type' binding='global-binding' visibility='default-visibility' is-defined='yes'/>
    <!-- vtkSurfaceLICPainter::SetUpdateAll() -->
    <elf-symbol name='_ZN20vtkSurfaceLICPainter12SetUpdateAllEv' type='func-type' binding='global-binding' visibility='default-visibility' is-defined='yes'/>
    <!-- vtkSurfaceLICPainter::PrepareOutput() -->
    <elf-symbol name='_ZN20vtkSurfaceLICPainter13PrepareOutputEv' type='func-type' binding='global-binding' visibility='default-visibility' is-defined='yes'/>
    <!-- vtkSurfaceLICPainter::NeedToColorLIC() -->
    <elf-symbol name='_ZN20vtkSurfaceLICPainter14NeedToColorLICEv' type='func-type' binding='global-binding' visibility='default-visibility' is-defined='yes'/>
    <!-- vtkSurfaceLICPainter::RenderInternal(vtkRenderer*, vtkActor*, unsigned long, bool) -->
    <elf-symbol name='_ZN20vtkSurfaceLICPainter14RenderInternalEP11vtkRendererP8vtkActormb' type='func-type' binding='global-binding' visibility='default-visibility' is-defined='yes'/>
    <!-- vtkSurfaceLICPainter::SetEnhancedLIC(int) -->
    <elf-symbol name='_ZN20vtkSurfaceLICPainter14SetEnhancedLICEi' type='func-type' binding='global-binding' visibility='default-visibility' is-defined='yes'/>
    <!-- vtkSurfaceLICPainter::SetMapModeBias(double) -->
    <elf-symbol name='_ZN20vtkSurfaceLICPainter14SetMapModeBiasEd' type='func-type' binding='global-binding' visibility='default-visibility' is-defined='yes'/>
    <!-- vtkSurfaceLICPainter::GetNoiseDataSet() -->
    <elf-symbol name='_ZN20vtkSurfaceLICPainter15GetNoiseDataSetEv' type='func-type' binding='global-binding' visibility='default-visibility' is-defined='yes'/>
    <!-- vtkSurfaceLICPainter::SetLICIntensity(double) -->
    <elf-symbol name='_ZN20vtkSurfaceLICPainter15SetLICIntensityEd' type='func-type' binding='global-binding' visibility='default-visibility' is-defined='yes'/>
    <!-- vtkSurfaceLICPainter::SetNoiseDataSet(vtkImageData*) -->
    <elf-symbol name='_ZN20vtkSurfaceLICPainter15SetNoiseDataSetEP12vtkImageData' type='func-type' binding='global-binding' visibility='default-visibility' is-defined='yes'/>
    <!-- vtkSurfaceLICPainter::ValidateContext(vtkRenderer*) -->
    <elf-symbol name='_ZN20vtkSurfaceLICPainter15ValidateContextEP11vtkRenderer' type='func-type' binding='global-binding' visibility='default-visibility' is-defined='yes'/>
    <!-- vtkSurfaceLICPainter::NeedToComputeLIC() -->
    <elf-symbol name='_ZN20vtkSurfaceLICPainter16NeedToComputeLICEv' type='func-type' binding='global-binding' visibility='default-visibility' is-defined='yes'/>
    <!-- vtkSurfaceLICPainter::ReportReferences(vtkGarbageCollector*) -->
    <elf-symbol name='_ZN20vtkSurfaceLICPainter16ReportReferencesEP19vtkGarbageCollector' type='func-type' binding='global-binding' visibility='default-visibility' is-defined='yes'/>
    <!-- vtkSurfaceLICPainter::SetMaskIntensity(double) -->
    <elf-symbol name='_ZN20vtkSurfaceLICPainter16SetMaskIntensityEd' type='func-type' binding='global-binding' visibility='default-visibility' is-defined='yes'/>
    <!-- vtkSurfaceLICPainter::SetMaskOnSurface(int) -->
    <elf-symbol name='_ZN20vtkSurfaceLICPainter16SetMaskOnSurfaceEi' type='func-type' binding='global-binding' visibility='default-visibility' is-defined='yes'/>
    <!-- vtkSurfaceLICPainter::SetMaskThreshold(double) -->
    <elf-symbol name='_ZN20vtkSurfaceLICPainter16SetMaskThresholdEd' type='func-type' binding='global-binding' visibility='default-visibility' is-defined='yes'/>
    <!-- vtkSurfaceLICPainter::SetMaxNoiseValue(double) -->
    <elf-symbol name='_ZN20vtkSurfaceLICPainter16SetMaxNoiseValueEd' type='func-type' binding='global-binding' visibility='default-visibility' is-defined='yes'/>
    <!-- vtkSurfaceLICPainter::SetMinNoiseValue(double) -->
    <elf-symbol name='_ZN20vtkSurfaceLICPainter16SetMinNoiseValueEd' type='func-type' binding='global-binding' visibility='default-visibility' is-defined='yes'/>
    <!-- vtkSurfaceLICPainter::SetNumberOfSteps(int) -->
    <elf-symbol name='_ZN20vtkSurfaceLICPainter16SetNumberOfStepsEi' type='func-type' binding='global-binding' visibility='default-visibility' is-defined='yes'/>
    <!-- vtkSurfaceLICPainter::UpdateNoiseImage(vtkRenderWindow*) -->
    <elf-symbol name='_ZN20vtkSurfaceLICPainter16UpdateNoiseImageEP15vtkRenderWindow' type='func-type' binding='global-binding' visibility='default-visibility' is-defined='yes'/>
    <!-- vtkSurfaceLICPainter::VectorsToTCoords(vtkDataSet*) -->
    <elf-symbol name='_ZN20vtkSurfaceLICPainter16VectorsToTCoordsEP10vtkDataSet' type='func-type' binding='global-binding' visibility='default-visibility' is-defined='yes'/>
    <!-- vtkSurfaceLICPainter::VectorsToTCoords(vtkDataObject*) -->
    <elf-symbol name='_ZN20vtkSurfaceLICPainter16VectorsToTCoordsEP13vtkDataObject' type='func-type' binding='global-binding' visibility='default-visibility' is-defined='yes'/>
    <!-- vtkSurfaceLICPainter::SetNoiseGrainSize(int) -->
    <elf-symbol name='_ZN20vtkSurfaceLICPainter17SetNoiseGrainSizeEi' type='func-type' binding='global-binding' visibility='default-visibility' is-defined='yes'/>
    <!-- vtkSurfaceLICPainter::CreateCommunicator(int) -->
    <elf-symbol name='_ZN20vtkSurfaceLICPainter18CreateCommunicatorEi' type='func-type' binding='global-binding' visibility='default-visibility' is-defined='yes'/>
    <!-- vtkSurfaceLICPainter::CreateCommunicator() -->
    <elf-symbol name='_ZN20vtkSurfaceLICPainter18CreateCommunicatorEv' type='func-type' binding='global-binding' visibility='default-visibility' is-defined='yes'/>
    <!-- vtkSurfaceLICPainter::ProcessInformation(vtkInformation*) -->
    <elf-symbol name='_ZN20vtkSurfaceLICPainter18ProcessInformationEP14vtkInformation' type='func-type' binding='global-binding' visibility='default-visibility' is-defined='yes'/>
    <!-- vtkSurfaceLICPainter::SetEnhanceContrast(int) -->
    <elf-symbol name='_ZN20vtkSurfaceLICPainter18SetEnhanceContrastEi' type='func-type' binding='global-binding' visibility='default-visibility' is-defined='yes'/>
    <!-- vtkSurfaceLICPainter::CanRenderSurfaceLIC(vtkActor*, int) -->
    <elf-symbol name='_ZN20vtkSurfaceLICPainter19CanRenderSurfaceLICEP8vtkActori' type='func-type' binding='global-binding' visibility='default-visibility' is-defined='yes'/>
    <!-- vtkSurfaceLICPainter::InitializeResources() -->
    <elf-symbol name='_ZN20vtkSurfaceLICPainter19InitializeResourcesEv' type='func-type' binding='global-binding' visibility='default-visibility' is-defined='yes'/>
    <!-- vtkSurfaceLICPainter::NeedToGatherVectors() -->
    <elf-symbol name='_ZN20vtkSurfaceLICPainter19NeedToGatherVectorsEv' type='func-type' binding='global-binding' visibility='default-visibility' is-defined='yes'/>
    <!-- vtkSurfaceLICPainter::SetNoiseTextureSize(int) -->
    <elf-symbol name='_ZN20vtkSurfaceLICPainter19SetNoiseTextureSizeEi' type='func-type' binding='global-binding' visibility='default-visibility' is-defined='yes'/>
    <!-- vtkSurfaceLICPainter::SetNormalizeVectors(int) -->
    <elf-symbol name='_ZN20vtkSurfaceLICPainter19SetNormalizeVectorsEi' type='func-type' binding='global-binding' visibility='default-visibility' is-defined='yes'/>
    <!-- vtkSurfaceLICPainter::NeedToRenderGeometry(vtkRenderer*, vtkActor*) -->
    <elf-symbol name='_ZN20vtkSurfaceLICPainter20NeedToRenderGeometryEP11vtkRendererP8vtkActor' type='func-type' binding='global-binding' visibility='default-visibility' is-defined='yes'/>
    <!-- vtkSurfaceLICPainter::SetCompositeStrategy(int) -->
    <elf-symbol name='_ZN20vtkSurfaceLICPainter20SetCompositeStrategyEi' type='func-type' binding='global-binding' visibility='default-visibility' is-defined='yes'/>
    <!-- vtkSurfaceLICPainter::SetNoiseGeneratorSeed(int) -->
    <elf-symbol name='_ZN20vtkSurfaceLICPainter21SetNoiseGeneratorSeedEi' type='func-type' binding='global-binding' visibility='default-visibility' is-defined='yes'/>
    <!-- vtkSurfaceLICPainter::NeedToUpdateOutputData() -->
    <elf-symbol name='_ZN20vtkSurfaceLICPainter22NeedToUpdateOutputDataEv' type='func-type' binding='global-binding' visibility='default-visibility' is-defined='yes'/>
    <!-- vtkSurfaceLICPainter::SetInputArrayToProcess(int, char const*) -->
    <elf-symbol name='_ZN20vtkSurfaceLICPainter22SetInputArrayToProcessEiPKc' type='func-type' binding='global-binding' visibility='default-visibility' is-defined='yes'/>
    <!-- vtkSurfaceLICPainter::SetInputArrayToProcess(int, int) -->
    <elf-symbol name='_ZN20vtkSurfaceLICPainter22SetInputArrayToProcessEii' type='func-type' binding='global-binding' visibility='default-visibility' is-defined='yes'/>
    <!-- vtkSurfaceLICPainter::SetNumberOfNoiseLevels(int) -->
    <elf-symbol name='_ZN20vtkSurfaceLICPainter22SetNumberOfNoiseLevelsEi' type='func-type' binding='global-binding' visibility='default-visibility' is-defined='yes'/>
    <!-- vtkSurfaceLICPainter::SetGenerateNoiseTexture(int) -->
    <elf-symbol name='_ZN20vtkSurfaceLICPainter23SetGenerateNoiseTextureEi' type='func-type' binding='global-binding' visibility='default-visibility' is-defined='yes'/>
    <!-- vtkSurfaceLICPainter::NeedToUpdateCommunicator() -->
    <elf-symbol name='_ZN20vtkSurfaceLICPainter24NeedToUpdateCommunicatorEv' type='func-type' binding='global-binding' visibility='default-visibility' is-defined='yes'/>
    <!-- vtkSurfaceLICPainter::ReleaseGraphicsResources(vtkWindow*) -->
    <elf-symbol name='_ZN20vtkSurfaceLICPainter24ReleaseGraphicsResourcesEP9vtkWindow' type='func-type' binding='global-binding' visibility='default-visibility' is-defined='yes'/>
    <!-- vtkSurfaceLICPainter::SetImpulseNoiseProbability(double) -->
    <elf-symbol name='_ZN20vtkSurfaceLICPainter26SetImpulseNoiseProbabilityEd' type='func-type' binding='global-binding' visibility='default-visibility' is-defined='yes'/>
    <!-- vtkSurfaceLICPainter::SetImpulseNoiseBackgroundValue(double) -->
    <elf-symbol name='_ZN20vtkSurfaceLICPainter30SetImpulseNoiseBackgroundValueEd' type='func-type' binding='global-binding' visibility='default-visibility' is-defined='yes'/>
    <!-- vtkSurfaceLICPainter::SetLowLICContrastEnhancementFactor(double) -->
    <elf-symbol name='_ZN20vtkSurfaceLICPainter34SetLowLICContrastEnhancementFactorEd' type='func-type' binding='global-binding' visibility='default-visibility' is-defined='yes'/>
    <!-- vtkSurfaceLICPainter::SetHighLICContrastEnhancementFactor(double) -->
    <elf-symbol name='_ZN20vtkSurfaceLICPainter35SetHighLICContrastEnhancementFactorEd' type='func-type' binding='global-binding' visibility='default-visibility' is-defined='yes'/>
    <!-- vtkSurfaceLICPainter::SetLowColorContrastEnhancementFactor(double) -->
    <elf-symbol name='_ZN20vtkSurfaceLICPainter36SetLowColorContrastEnhancementFactorEd' type='func-type' binding='global-binding' visibility='default-visibility' is-defined='yes'/>
    <!-- vtkSurfaceLICPainter::SetHighColorContrastEnhancementFactor(double) -->
    <elf-symbol name='_ZN20vtkSurfaceLICPainter37SetHighColorContrastEnhancementFactorEd' type='func-type' binding='global-binding' visibility='default-visibility' is-defined='yes'/>
    <!-- vtkSurfaceLICPainter::New() -->
    <elf-symbol name='_ZN20vtkSurfaceLICPainter3NewEv' type='func-type' binding='global-binding' visibility='default-visibility' is-defined='yes'/>
    <!-- vtkSurfaceLICPainter::GetBounds(vtkDataObject*, double*) -->
    <elf-symbol name='_ZN20vtkSurfaceLICPainter9GetBoundsEP13vtkDataObjectPd' type='func-type' binding='global-binding' visibility='default-visibility' is-defined='yes'/>
    <!-- vtkSurfaceLICPainter::GetOutput() -->
    <elf-symbol name='_ZN20vtkSurfaceLICPainter9GetOutputEv' type='func-type' binding='global-binding' visibility='default-visibility' is-defined='yes'/>
    <!-- vtkSurfaceLICPainter::PrintSelf(std::ostream&, vtkIndent) -->
    <elf-symbol name='_ZN20vtkSurfaceLICPainter9PrintSelfERSo9vtkIndent' type='func-type' binding='global-binding' visibility='default-visibility' is-defined='yes'/>
    <!-- vtkSurfaceLICPainter::SetEnable(int) -->
    <elf-symbol name='_ZN20vtkSurfaceLICPainter9SetEnableEi' type='func-type' binding='global-binding' visibility='default-visibility' is-defined='yes'/>
    <!-- vtkSurfaceLICPainter::vtkSurfaceLICPainter() -->
    <elf-symbol name='_ZN20vtkSurfaceLICPainterC1Ev' type='func-type' binding='global-binding' visibility='default-visibility' alias='_ZN20vtkSurfaceLICPainterC2Ev' is-defined='yes'/>
    <!-- vtkSurfaceLICPainter::vtkSurfaceLICPainter() -->
    <elf-symbol name='_ZN20vtkSurfaceLICPainterC2Ev' type='func-type' binding='global-binding' visibility='default-visibility' is-defined='yes'/>
    <!-- vtkSurfaceLICPainter::~vtkSurfaceLICPainter() -->
    <elf-symbol name='_ZN20vtkSurfaceLICPainterD0Ev' type='func-type' binding='global-binding' visibility='default-visibility' is-defined='yes'/>
    <!-- vtkSurfaceLICPainter::~vtkSurfaceLICPainter() -->
    <elf-symbol name='_ZN20vtkSurfaceLICPainterD1Ev' type='func-type' binding='global-binding' visibility='default-visibility' alias='_ZN20vtkSurfaceLICPainterD2Ev' is-defined='yes'/>
    <!-- vtkSurfaceLICPainter::~vtkSurfaceLICPainter() -->
    <elf-symbol name='_ZN20vtkSurfaceLICPainterD2Ev' type='func-type' binding='global-binding' visibility='default-visibility' is-defined='yes'/>
    <!-- vtkStructuredGridLIC2D::GetContext() -->
    <elf-symbol name='_ZN22vtkStructuredGridLIC2D10GetContextEv' type='func-type' binding='global-binding' visibility='default-visibility' is-defined='yes'/>
    <!-- vtkStructuredGridLIC2D::SetContext(vtkRenderWindow*) -->
    <elf-symbol name='_ZN22vtkStructuredGridLIC2D10SetContextEP15vtkRenderWindow' type='func-type' binding='global-binding' visibility='default-visibility' is-defined='yes'/>
    <!-- vtkStructuredGridLIC2D::RequestData(vtkInformation*, vtkInformationVector**, vtkInformationVector*) -->
    <elf-symbol name='_ZN22vtkStructuredGridLIC2D11RequestDataEP14vtkInformationPP20vtkInformationVectorS3_' type='func-type' binding='global-binding' visibility='default-visibility' is-defined='yes'/>
    <!-- vtkStructuredGridLIC2D::AllocateScalars(vtkStructuredGrid*, vtkInformation*) -->
    <elf-symbol name='_ZN22vtkStructuredGridLIC2D15AllocateScalarsEP17vtkStructuredGridP14vtkInformation' type='func-type' binding='global-binding' visibility='default-visibility' is-defined='yes'/>
    <!-- vtkStructuredGridLIC2D::AllocateOutputData(vtkDataObject*, vtkInformation*) -->
    <elf-symbol name='_ZN22vtkStructuredGridLIC2D18AllocateOutputDataEP13vtkDataObjectP14vtkInformation' type='func-type' binding='global-binding' visibility='default-visibility' is-defined='yes'/>
    <!-- vtkStructuredGridLIC2D::RequestInformation(vtkInformation*, vtkInformationVector**, vtkInformationVector*) -->
    <elf-symbol name='_ZN22vtkStructuredGridLIC2D18RequestInformationEP14vtkInformationPP20vtkInformationVectorS3_' type='func-type' binding='global-binding' visibility='default-visibility' is-defined='yes'/>
    <!-- vtkStructuredGridLIC2D::RequestUpdateExtent(vtkInformation*, vtkInformationVector**, vtkInformationVector*) -->
    <elf-symbol name='_ZN22vtkStructuredGridLIC2D19RequestUpdateExtentEP14vtkInformationPP20vtkInformationVectorS3_' type='func-type' binding='global-binding' visibility='default-visibility' is-defined='yes'/>
    <!-- vtkStructuredGridLIC2D::FillInputPortInformation(int, vtkInformation*) -->
    <elf-symbol name='_ZN22vtkStructuredGridLIC2D24FillInputPortInformationEiP14vtkInformation' type='func-type' binding='global-binding' visibility='default-visibility' is-defined='yes'/>
    <!-- vtkStructuredGridLIC2D::FillOutputPortInformation(int, vtkInformation*) -->
    <elf-symbol name='_ZN22vtkStructuredGridLIC2D25FillOutputPortInformationEiP14vtkInformation' type='func-type' binding='global-binding' visibility='default-visibility' is-defined='yes'/>
    <!-- vtkStructuredGridLIC2D::New() -->
    <elf-symbol name='_ZN22vtkStructuredGridLIC2D3NewEv' type='func-type' binding='global-binding' visibility='default-visibility' is-defined='yes'/>
    <!-- vtkStructuredGridLIC2D::PrintSelf(std::ostream&, vtkIndent) -->
    <elf-symbol name='_ZN22vtkStructuredGridLIC2D9PrintSelfERSo9vtkIndent' type='func-type' binding='global-binding' visibility='default-visibility' is-defined='yes'/>
    <!-- vtkStructuredGridLIC2D::vtkStructuredGridLIC2D() -->
    <elf-symbol name='_ZN22vtkStructuredGridLIC2DC1Ev' type='func-type' binding='global-binding' visibility='default-visibility' alias='_ZN22vtkStructuredGridLIC2DC2Ev' is-defined='yes'/>
    <!-- vtkStructuredGridLIC2D::vtkStructuredGridLIC2D() -->
    <elf-symbol name='_ZN22vtkStructuredGridLIC2DC2Ev' type='func-type' binding='global-binding' visibility='default-visibility' is-defined='yes'/>
    <!-- vtkStructuredGridLIC2D::~vtkStructuredGridLIC2D() -->
    <elf-symbol name='_ZN22vtkStructuredGridLIC2DD0Ev' type='func-type' binding='global-binding' visibility='default-visibility' is-defined='yes'/>
    <!-- vtkStructuredGridLIC2D::~vtkStructuredGridLIC2D() -->
    <elf-symbol name='_ZN22vtkStructuredGridLIC2DD1Ev' type='func-type' binding='global-binding' visibility='default-visibility' alias='_ZN22vtkStructuredGridLIC2DD2Ev' is-defined='yes'/>
    <!-- vtkStructuredGridLIC2D::~vtkStructuredGridLIC2D() -->
    <elf-symbol name='_ZN22vtkStructuredGridLIC2DD2Ev' type='func-type' binding='global-binding' visibility='default-visibility' is-defined='yes'/>
    <!-- vtkSurfaceLICComposite::Initialize(vtkPixelExtent const&, std::deque<vtkPixelExtent, std::allocator<vtkPixelExtent> > const&, int, double, int, int, int, int) -->
    <elf-symbol name='_ZN22vtkSurfaceLICComposite10InitializeERK14vtkPixelExtentRKSt5dequeIS0_SaIS0_EEidiiii' type='func-type' binding='global-binding' visibility='default-visibility' is-defined='yes'/>
    <!-- vtkSurfaceLICComposite::AddGuardPixels(std::deque<vtkPixelExtent, std::allocator<vtkPixelExtent> > const&, std::deque<vtkPixelExtent, std::allocator<vtkPixelExtent> >&, std::deque<vtkPixelExtent, std::allocator<vtkPixelExtent> >&, float*) -->
    <elf-symbol name='_ZN22vtkSurfaceLICComposite14AddGuardPixelsERKSt5dequeI14vtkPixelExtentSaIS1_EERS3_S6_Pf' type='func-type' binding='global-binding' visibility='default-visibility' is-defined='yes'/>
    <!-- vtkSurfaceLICComposite::GetFudgeFactor(int*) -->
    <elf-symbol name='_ZN22vtkSurfaceLICComposite14GetFudgeFactorEPi' type='func-type' binding='global-binding' visibility='default-visibility' is-defined='yes'/>
    <!-- vtkSurfaceLICComposite::GetPixelBounds(float*, int, vtkPixelExtent&) -->
    <elf-symbol name='_ZN22vtkSurfaceLICComposite14GetPixelBoundsEPfiR14vtkPixelExtent' type='func-type' binding='global-binding' visibility='default-visibility' is-defined='yes'/>
    <!-- vtkSurfaceLICComposite::MakeDecompDisjoint(std::deque<vtkPixelExtent, std::allocator<vtkPixelExtent> > const&, std::deque<vtkPixelExtent, std::allocator<vtkPixelExtent> >&, float*) -->
    <elf-symbol name='_ZN22vtkSurfaceLICComposite18MakeDecompDisjointERKSt5dequeI14vtkPixelExtentSaIS1_EERS3_Pf' type='func-type' binding='global-binding' visibility='default-visibility' is-defined='yes'/>
    <!-- vtkSurfaceLICComposite::MakeDecompDisjoint(std::deque<vtkPixelExtent, std::allocator<vtkPixelExtent> >&, std::deque<vtkPixelExtent, std::allocator<vtkPixelExtent> >&) -->
    <elf-symbol name='_ZN22vtkSurfaceLICComposite18MakeDecompDisjointERSt5dequeI14vtkPixelExtentSaIS1_EES4_' type='func-type' binding='global-binding' visibility='default-visibility' is-defined='yes'/>
    <!-- vtkSurfaceLICComposite::InitializeCompositeExtents(float*) -->
    <elf-symbol name='_ZN22vtkSurfaceLICComposite26InitializeCompositeExtentsEPf' type='func-type' binding='global-binding' visibility='default-visibility' is-defined='yes'/>
    <!-- vtkSurfaceLICComposite::New() -->
    <elf-symbol name='_ZN22vtkSurfaceLICComposite3NewEv' type='func-type' binding='global-binding' visibility='default-visibility' is-defined='yes'/>
    <!-- vtkSurfaceLICComposite::PrintSelf(std::ostream&, vtkIndent) -->
    <elf-symbol name='_ZN22vtkSurfaceLICComposite9PrintSelfERSo9vtkIndent' type='func-type' binding='global-binding' visibility='default-visibility' is-defined='yes'/>
    <!-- vtkSurfaceLICComposite::VectorMax(vtkPixelExtent const&, float*) -->
    <elf-symbol name='_ZN22vtkSurfaceLICComposite9VectorMaxERK14vtkPixelExtentPf' type='func-type' binding='global-binding' visibility='default-visibility' is-defined='yes'/>
    <!-- vtkSurfaceLICComposite::VectorMax(std::deque<vtkPixelExtent, std::allocator<vtkPixelExtent> > const&, float*, std::vector<float, std::allocator<float> >&) -->
    <elf-symbol name='_ZN22vtkSurfaceLICComposite9VectorMaxERKSt5dequeI14vtkPixelExtentSaIS1_EEPfRSt6vectorIfSaIfEE' type='func-type' binding='global-binding' visibility='default-visibility' is-defined='yes'/>
    <!-- vtkSurfaceLICComposite::vtkSurfaceLICComposite() -->
    <elf-symbol name='_ZN22vtkSurfaceLICCompositeC1Ev' type='func-type' binding='global-binding' visibility='default-visibility' alias='_ZN22vtkSurfaceLICCompositeC2Ev' is-defined='yes'/>
    <!-- vtkSurfaceLICComposite::vtkSurfaceLICComposite() -->
    <elf-symbol name='_ZN22vtkSurfaceLICCompositeC2Ev' type='func-type' binding='global-binding' visibility='default-visibility' is-defined='yes'/>
    <!-- vtkSurfaceLICComposite::~vtkSurfaceLICComposite() -->
    <elf-symbol name='_ZN22vtkSurfaceLICCompositeD0Ev' type='func-type' binding='global-binding' visibility='default-visibility' is-defined='yes'/>
    <!-- vtkSurfaceLICComposite::~vtkSurfaceLICComposite() -->
    <elf-symbol name='_ZN22vtkSurfaceLICCompositeD1Ev' type='func-type' binding='global-binding' visibility='default-visibility' alias='_ZN22vtkSurfaceLICCompositeD2Ev' is-defined='yes'/>
    <!-- vtkSurfaceLICComposite::~vtkSurfaceLICComposite() -->
    <elf-symbol name='_ZN22vtkSurfaceLICCompositeD2Ev' type='func-type' binding='global-binding' visibility='default-visibility' is-defined='yes'/>
    <!-- vtkSurfaceLICDefaultPainter::UpdateBounds(double*) -->
    <elf-symbol name='_ZN27vtkSurfaceLICDefaultPainter12UpdateBoundsEPd' type='func-type' binding='global-binding' visibility='default-visibility' is-defined='yes'/>
    <!-- vtkSurfaceLICDefaultPainter::ReportReferences(vtkGarbageCollector*) -->
    <elf-symbol name='_ZN27vtkSurfaceLICDefaultPainter16ReportReferencesEP19vtkGarbageCollector' type='func-type' binding='global-binding' visibility='default-visibility' is-defined='yes'/>
    <!-- vtkSurfaceLICDefaultPainter::BuildPainterChain() -->
    <elf-symbol name='_ZN27vtkSurfaceLICDefaultPainter17BuildPainterChainEv' type='func-type' binding='global-binding' visibility='default-visibility' is-defined='yes'/>
    <!-- vtkSurfaceLICDefaultPainter::SetSurfaceLICPainter(vtkSurfaceLICPainter*) -->
    <elf-symbol name='_ZN27vtkSurfaceLICDefaultPainter20SetSurfaceLICPainterEP20vtkSurfaceLICPainter' type='func-type' binding='global-binding' visibility='default-visibility' is-defined='yes'/>
    <!-- vtkSurfaceLICDefaultPainter::New() -->
    <elf-symbol name='_ZN27vtkSurfaceLICDefaultPainter3NewEv' type='func-type' binding='global-binding' visibility='default-visibility' is-defined='yes'/>
    <!-- vtkSurfaceLICDefaultPainter::PrintSelf(std::ostream&, vtkIndent) -->
    <elf-symbol name='_ZN27vtkSurfaceLICDefaultPainter9PrintSelfERSo9vtkIndent' type='func-type' binding='global-binding' visibility='default-visibility' is-defined='yes'/>
    <!-- vtkSurfaceLICDefaultPainter::vtkSurfaceLICDefaultPainter() -->
    <elf-symbol name='_ZN27vtkSurfaceLICDefaultPainterC1Ev' type='func-type' binding='global-binding' visibility='default-visibility' is-defined='yes'/>
    <!-- vtkSurfaceLICDefaultPainter::vtkSurfaceLICDefaultPainter() -->
    <elf-symbol name='_ZN27vtkSurfaceLICDefaultPainterC2Ev' type='func-type' binding='global-binding' visibility='default-visibility' alias='_ZN27vtkSurfaceLICDefaultPainterC1Ev' is-defined='yes'/>
    <!-- vtkSurfaceLICDefaultPainter::~vtkSurfaceLICDefaultPainter() -->
    <elf-symbol name='_ZN27vtkSurfaceLICDefaultPainterD0Ev' type='func-type' binding='global-binding' visibility='default-visibility' is-defined='yes'/>
    <!-- vtkSurfaceLICDefaultPainter::~vtkSurfaceLICDefaultPainter() -->
    <elf-symbol name='_ZN27vtkSurfaceLICDefaultPainterD1Ev' type='func-type' binding='global-binding' visibility='default-visibility' alias='_ZN27vtkSurfaceLICDefaultPainterD2Ev' is-defined='yes'/>
    <!-- vtkSurfaceLICDefaultPainter::~vtkSurfaceLICDefaultPainter() -->
    <elf-symbol name='_ZN27vtkSurfaceLICDefaultPainterD2Ev' type='func-type' binding='global-binding' visibility='default-visibility' is-defined='yes'/>
    <!-- vtkLineIntegralConvolution2D::GetContext() -->
    <elf-symbol name='_ZN28vtkLineIntegralConvolution2D10GetContextEv' type='func-type' binding='global-binding' visibility='default-visibility' is-defined='yes'/>
    <!-- vtkLineIntegralConvolution2D::SetContext(vtkRenderWindow*) -->
    <elf-symbol name='_ZN28vtkLineIntegralConvolution2D10SetContextEP15vtkRenderWindow' type='func-type' binding='global-binding' visibility='default-visibility' is-defined='yes'/>
    <!-- vtkLineIntegralConvolution2D::IsSupported(vtkRenderWindow*) -->
    <elf-symbol name='_ZN28vtkLineIntegralConvolution2D11IsSupportedEP15vtkRenderWindow' type='func-type' binding='global-binding' visibility='default-visibility' is-defined='yes'/>
    <!-- vtkLineIntegralConvolution2D::SetCEShader(vtkShaderProgram2*) -->
    <elf-symbol name='_ZN28vtkLineIntegralConvolution2D11SetCEShaderEP17vtkShaderProgram2' type='func-type' binding='global-binding' visibility='default-visibility' is-defined='yes'/>
    <!-- vtkLineIntegralConvolution2D::SetEEShader(vtkShaderProgram2*) -->
    <elf-symbol name='_ZN28vtkLineIntegralConvolution2D11SetEEShaderEP17vtkShaderProgram2' type='func-type' binding='global-binding' visibility='default-visibility' is-defined='yes'/>
    <!-- vtkLineIntegralConvolution2D::SetVTShader(vtkShaderProgram2*) -->
    <elf-symbol name='_ZN28vtkLineIntegralConvolution2D11SetVTShaderEP17vtkShaderProgram2' type='func-type' binding='global-binding' visibility='default-visibility' is-defined='yes'/>
    <!-- vtkLineIntegralConvolution2D::BuildShaders() -->
    <elf-symbol name='_ZN28vtkLineIntegralConvolution2D12BuildShadersEv' type='func-type' binding='global-binding' visibility='default-visibility' is-defined='yes'/>
    <!-- vtkLineIntegralConvolution2D::SetAAHShader(vtkShaderProgram2*) -->
    <elf-symbol name='_ZN28vtkLineIntegralConvolution2D12SetAAHShaderEP17vtkShaderProgram2' type='func-type' binding='global-binding' visibility='default-visibility' is-defined='yes'/>
    <!-- vtkLineIntegralConvolution2D::SetAAVShader(vtkShaderProgram2*) -->
    <elf-symbol name='_ZN28vtkLineIntegralConvolution2D12SetAAVShaderEP17vtkShaderProgram2' type='func-type' binding='global-binding' visibility='default-visibility' is-defined='yes'/>
    <!-- vtkLineIntegralConvolution2D::SetLIC0Shader(vtkShaderProgram2*) -->
    <elf-symbol name='_ZN28vtkLineIntegralConvolution2D13SetLIC0ShaderEP17vtkShaderProgram2' type='func-type' binding='global-binding' visibility='default-visibility' is-defined='yes'/>
    <!-- vtkLineIntegralConvolution2D::SetLICIShader(vtkShaderProgram2*) -->
    <elf-symbol name='_ZN28vtkLineIntegralConvolution2D13SetLICIShaderEP17vtkShaderProgram2' type='func-type' binding='global-binding' visibility='default-visibility' is-defined='yes'/>
    <!-- vtkLineIntegralConvolution2D::SetLICNShader(vtkShaderProgram2*) -->
    <elf-symbol name='_ZN28vtkLineIntegralConvolution2D13SetLICNShaderEP17vtkShaderProgram2' type='func-type' binding='global-binding' visibility='default-visibility' is-defined='yes'/>
    <!-- vtkLineIntegralConvolution2D::GetCommunicator() -->
    <elf-symbol name='_ZN28vtkLineIntegralConvolution2D15GetCommunicatorEv' type='func-type' binding='global-binding' visibility='default-visibility' is-defined='yes'/>
    <!-- vtkLineIntegralConvolution2D::SetComponentIds(int, int) -->
    <elf-symbol name='_ZN28vtkLineIntegralConvolution2D15SetComponentIdsEii' type='func-type' binding='global-binding' visibility='default-visibility' is-defined='yes'/>
    <!-- vtkLineIntegralConvolution2D::SetNormalizeVectors(int) -->
    <elf-symbol name='_ZN28vtkLineIntegralConvolution2D19SetNormalizeVectorsEi' type='func-type' binding='global-binding' visibility='default-visibility' is-defined='yes'/>
    <!-- vtkLineIntegralConvolution2D::SetTransformVectors(int) -->
    <elf-symbol name='_ZN28vtkLineIntegralConvolution2D19SetTransformVectorsEi' type='func-type' binding='global-binding' visibility='default-visibility' is-defined='yes'/>
    <!-- vtkLineIntegralConvolution2D::SetNoiseTexParameters(vtkTextureObject*) -->
    <elf-symbol name='_ZN28vtkLineIntegralConvolution2D21SetNoiseTexParametersEP16vtkTextureObject' type='func-type' binding='global-binding' visibility='default-visibility' is-defined='yes'/>
    <!-- vtkLineIntegralConvolution2D::SetVectorTexParameters(vtkTextureObject*) -->
    <elf-symbol name='_ZN28vtkLineIntegralConvolution2D22SetVectorTexParametersEP16vtkTextureObject' type='func-type' binding='global-binding' visibility='default-visibility' is-defined='yes'/>
    <!-- vtkLineIntegralConvolution2D::New() -->
    <elf-symbol name='_ZN28vtkLineIntegralConvolution2D3NewEv' type='func-type' binding='global-binding' visibility='default-visibility' is-defined='yes'/>
    <!-- vtkLineIntegralConvolution2D::Execute(vtkTextureObject*, vtkTextureObject*) -->
    <elf-symbol name='_ZN28vtkLineIntegralConvolution2D7ExecuteEP16vtkTextureObjectS1_' type='func-type' binding='global-binding' visibility='default-visibility' is-defined='yes'/>
    <!-- vtkLineIntegralConvolution2D::Execute(int const*, vtkTextureObject*, vtkTextureObject*) -->
    <elf-symbol name='_ZN28vtkLineIntegralConvolution2D7ExecuteEPKiP16vtkTextureObjectS3_' type='func-type' binding='global-binding' visibility='default-visibility' is-defined='yes'/>
    <!-- vtkLineIntegralConvolution2D::Execute(vtkPixelExtent const&, std::deque<vtkPixelExtent, std::allocator<vtkPixelExtent> > const&, std::deque<vtkPixelExtent, std::allocator<vtkPixelExtent> > const&, vtkTextureObject*, vtkTextureObject*, vtkTextureObject*) -->
    <elf-symbol name='_ZN28vtkLineIntegralConvolution2D7ExecuteERK14vtkPixelExtentRKSt5dequeIS0_SaIS0_EES7_P16vtkTextureObjectS9_S9_' type='func-type' binding='global-binding' visibility='default-visibility' is-defined='yes'/>
    <!-- vtkLineIntegralConvolution2D::PrintSelf(std::ostream&, vtkIndent) -->
    <elf-symbol name='_ZN28vtkLineIntegralConvolution2D9PrintSelfERSo9vtkIndent' type='func-type' binding='global-binding' visibility='default-visibility' is-defined='yes'/>
    <!-- vtkLineIntegralConvolution2D::vtkLineIntegralConvolution2D() -->
    <elf-symbol name='_ZN28vtkLineIntegralConvolution2DC1Ev' type='func-type' binding='global-binding' visibility='default-visibility' alias='_ZN28vtkLineIntegralConvolution2DC2Ev' is-defined='yes'/>
    <!-- vtkLineIntegralConvolution2D::vtkLineIntegralConvolution2D() -->
    <elf-symbol name='_ZN28vtkLineIntegralConvolution2DC2Ev' type='func-type' binding='global-binding' visibility='default-visibility' is-defined='yes'/>
    <!-- vtkLineIntegralConvolution2D::~vtkLineIntegralConvolution2D() -->
    <elf-symbol name='_ZN28vtkLineIntegralConvolution2DD0Ev' type='func-type' binding='global-binding' visibility='default-visibility' is-defined='yes'/>
    <!-- vtkLineIntegralConvolution2D::~vtkLineIntegralConvolution2D() -->
    <elf-symbol name='_ZN28vtkLineIntegralConvolution2DD1Ev' type='func-type' binding='global-binding' visibility='default-visibility' alias='_ZN28vtkLineIntegralConvolution2DD2Ev' is-defined='yes'/>
    <!-- vtkLineIntegralConvolution2D::~vtkLineIntegralConvolution2D() -->
    <elf-symbol name='_ZN28vtkLineIntegralConvolution2DD2Ev' type='func-type' binding='global-binding' visibility='default-visibility' is-defined='yes'/>
    <!-- vtkImageDataLIC2DExtentTranslator::GetAlgorithm() -->
    <elf-symbol name='_ZN33vtkImageDataLIC2DExtentTranslator12GetAlgorithmEv' type='func-type' binding='global-binding' visibility='default-visibility' is-defined='yes'/>
    <!-- vtkImageDataLIC2DExtentTranslator::SetAlgorithm(vtkImageDataLIC2D*) -->
    <elf-symbol name='_ZN33vtkImageDataLIC2DExtentTranslator12SetAlgorithmEP17vtkImageDataLIC2D' type='func-type' binding='global-binding' visibility='default-visibility' is-defined='yes'/>
    <!-- vtkImageDataLIC2DExtentTranslator::PieceToExtentThreadSafe(int, int, int, int*, int*, int, int) -->
    <elf-symbol name='_ZN33vtkImageDataLIC2DExtentTranslator23PieceToExtentThreadSafeEiiiPiS0_ii' type='func-type' binding='global-binding' visibility='default-visibility' is-defined='yes'/>
    <!-- vtkImageDataLIC2DExtentTranslator::SetInputExtentTranslator(vtkExtentTranslator*) -->
    <elf-symbol name='_ZN33vtkImageDataLIC2DExtentTranslator24SetInputExtentTranslatorEP19vtkExtentTranslator' type='func-type' binding='global-binding' visibility='default-visibility' is-defined='yes'/>
    <!-- vtkImageDataLIC2DExtentTranslator::New() -->
    <elf-symbol name='_ZN33vtkImageDataLIC2DExtentTranslator3NewEv' type='func-type' binding='global-binding' visibility='default-visibility' is-defined='yes'/>
    <!-- vtkImageDataLIC2DExtentTranslator::PrintSelf(std::ostream&, vtkIndent) -->
    <elf-symbol name='_ZN33vtkImageDataLIC2DExtentTranslator9PrintSelfERSo9vtkIndent' type='func-type' binding='global-binding' visibility='default-visibility' is-defined='yes'/>
    <!-- vtkImageDataLIC2DExtentTranslator::vtkImageDataLIC2DExtentTranslator() -->
    <elf-symbol name='_ZN33vtkImageDataLIC2DExtentTranslatorC1Ev' type='func-type' binding='global-binding' visibility='default-visibility' alias='_ZN33vtkImageDataLIC2DExtentTranslatorC2Ev' is-defined='yes'/>
    <!-- vtkImageDataLIC2DExtentTranslator::vtkImageDataLIC2DExtentTranslator() -->
    <elf-symbol name='_ZN33vtkImageDataLIC2DExtentTranslatorC2Ev' type='func-type' binding='global-binding' visibility='default-visibility' is-defined='yes'/>
    <!-- vtkImageDataLIC2DExtentTranslator::~vtkImageDataLIC2DExtentTranslator() -->
    <elf-symbol name='_ZN33vtkImageDataLIC2DExtentTranslatorD0Ev' type='func-type' binding='global-binding' visibility='default-visibility' is-defined='yes'/>
    <!-- vtkImageDataLIC2DExtentTranslator::~vtkImageDataLIC2DExtentTranslator() -->
    <elf-symbol name='_ZN33vtkImageDataLIC2DExtentTranslatorD1Ev' type='func-type' binding='global-binding' visibility='default-visibility' alias='_ZN33vtkImageDataLIC2DExtentTranslatorD2Ev' is-defined='yes'/>
    <!-- vtkImageDataLIC2DExtentTranslator::~vtkImageDataLIC2DExtentTranslator() -->
    <elf-symbol name='_ZN33vtkImageDataLIC2DExtentTranslatorD2Ev' type='func-type' binding='global-binding' visibility='default-visibility' is-defined='yes'/>
    <!-- __gnu_cxx::new_allocator<vtkPixelExtent>::allocate(unsigned long, void const*) -->
    <elf-symbol name='_ZN9__gnu_cxx13new_allocatorI14vtkPixelExtentE8allocateEmPKv' type='func-type' binding='weak-binding' visibility='default-visibility' is-defined='yes'/>
    <!-- std::_Deque_iterator<vtkPixelExtent, vtkPixelExtent&, vtkPixelExtent*>::operator+(long) const -->
    <elf-symbol name='_ZNKSt15_Deque_iteratorI14vtkPixelExtentRS0_PS0_EplEl' type='func-type' binding='weak-binding' visibility='default-visibility' is-defined='yes'/>
    <!-- std::_Deque_base<vtkPixelExtent, std::allocator<vtkPixelExtent> >::_M_initialize_map(unsigned long) -->
    <elf-symbol name='_ZNSt11_Deque_baseI14vtkPixelExtentSaIS0_EE17_M_initialize_mapEm' type='func-type' binding='weak-binding' visibility='default-visibility' is-defined='yes'/>
    <!-- std::_Deque_base<vtkPixelExtent, std::allocator<vtkPixelExtent> >::~_Deque_base() -->
    <elf-symbol name='_ZNSt11_Deque_baseI14vtkPixelExtentSaIS0_EED1Ev' type='func-type' binding='weak-binding' visibility='default-visibility' alias='_ZNSt11_Deque_baseI14vtkPixelExtentSaIS0_EED2Ev' is-defined='yes'/>
    <!-- std::_Deque_base<vtkPixelExtent, std::allocator<vtkPixelExtent> >::~_Deque_base() -->
    <elf-symbol name='_ZNSt11_Deque_baseI14vtkPixelExtentSaIS0_EED2Ev' type='func-type' binding='weak-binding' visibility='default-visibility' is-defined='yes'/>
    <!-- std::_Deque_iterator<vtkPixelExtent, vtkPixelExtent&, vtkPixelExtent*>::operator+=(long) -->
    <elf-symbol name='_ZNSt15_Deque_iteratorI14vtkPixelExtentRS0_PS0_EpLEl' type='func-type' binding='weak-binding' visibility='default-visibility' is-defined='yes'/>
    <!-- void std::deque<vtkPixelExtent, std::allocator<vtkPixelExtent> >::_M_insert_aux<std::_Deque_iterator<vtkPixelExtent, vtkPixelExtent const&, vtkPixelExtent const*> >(std::_Deque_iterator<vtkPixelExtent, vtkPixelExtent&, vtkPixelExtent*>, std::_Deque_iterator<vtkPixelExtent, vtkPixelExtent const&, vtkPixelExtent const*>, std::_Deque_iterator<vtkPixelExtent, vtkPixelExtent const&, vtkPixelExtent const*>, unsigned long) -->
    <elf-symbol name='_ZNSt5dequeI14vtkPixelExtentSaIS0_EE13_M_insert_auxISt15_Deque_iteratorIS0_RKS0_PS5_EEEvS4_IS0_RS0_PS0_ET_SC_m' type='func-type' binding='weak-binding' visibility='default-visibility' is-defined='yes'/>
    <!-- void std::deque<vtkPixelExtent, std::allocator<vtkPixelExtent> >::_M_insert_aux<std::_Deque_iterator<vtkPixelExtent, vtkPixelExtent&, vtkPixelExtent*> >(std::_Deque_iterator<vtkPixelExtent, vtkPixelExtent&, vtkPixelExtent*>, std::_Deque_iterator<vtkPixelExtent, vtkPixelExtent&, vtkPixelExtent*>, std::_Deque_iterator<vtkPixelExtent, vtkPixelExtent&, vtkPixelExtent*>, unsigned long) -->
    <elf-symbol name='_ZNSt5dequeI14vtkPixelExtentSaIS0_EE13_M_insert_auxISt15_Deque_iteratorIS0_RS0_PS0_EEEvS7_T_S8_m' type='func-type' binding='weak-binding' visibility='default-visibility' is-defined='yes'/>
    <!-- std::deque<vtkPixelExtent, std::allocator<vtkPixelExtent> >::_M_reallocate_map(unsigned long, bool) -->
    <elf-symbol name='_ZNSt5dequeI14vtkPixelExtentSaIS0_EE17_M_reallocate_mapEmb' type='func-type' binding='weak-binding' visibility='default-visibility' is-defined='yes'/>
    <!-- void std::deque<vtkPixelExtent, std::allocator<vtkPixelExtent> >::_M_range_insert_aux<std::_Deque_iterator<vtkPixelExtent, vtkPixelExtent const&, vtkPixelExtent const*> >(std::_Deque_iterator<vtkPixelExtent, vtkPixelExtent&, vtkPixelExtent*>, std::_Deque_iterator<vtkPixelExtent, vtkPixelExtent const&, vtkPixelExtent const*>, std::_Deque_iterator<vtkPixelExtent, vtkPixelExtent const&, vtkPixelExtent const*>, std::forward_iterator_tag) -->
    <elf-symbol name='_ZNSt5dequeI14vtkPixelExtentSaIS0_EE19_M_range_insert_auxISt15_Deque_iteratorIS0_RKS0_PS5_EEEvS4_IS0_RS0_PS0_ET_SC_St20forward_iterator_tag' type='func-type' binding='weak-binding' visibility='default-visibility' is-defined='yes'/>
    <!-- void std::deque<vtkPixelExtent, std::allocator<vtkPixelExtent> >::_M_range_insert_aux<std::_Deque_iterator<vtkPixelExtent, vtkPixelExtent&, vtkPixelExtent*> >(std::_Deque_iterator<vtkPixelExtent, vtkPixelExtent&, vtkPixelExtent*>, std::_Deque_iterator<vtkPixelExtent, vtkPixelExtent&, vtkPixelExtent*>, std::_Deque_iterator<vtkPixelExtent, vtkPixelExtent&, vtkPixelExtent*>, std::forward_iterator_tag) -->
    <elf-symbol name='_ZNSt5dequeI14vtkPixelExtentSaIS0_EE19_M_range_insert_auxISt15_Deque_iteratorIS0_RS0_PS0_EEEvS7_T_S8_St20forward_iterator_tag' type='func-type' binding='weak-binding' visibility='default-visibility' is-defined='yes'/>
    <!-- std::deque<vtkPixelExtent, std::allocator<vtkPixelExtent> >::_M_reserve_map_at_back(unsigned long) -->
    <elf-symbol name='_ZNSt5dequeI14vtkPixelExtentSaIS0_EE22_M_reserve_map_at_backEm' type='func-type' binding='weak-binding' visibility='default-visibility' is-defined='yes'/>
    <!-- std::deque<vtkPixelExtent, std::allocator<vtkPixelExtent> >::_M_new_elements_at_back(unsigned long) -->
    <elf-symbol name='_ZNSt5dequeI14vtkPixelExtentSaIS0_EE23_M_new_elements_at_backEm' type='func-type' binding='weak-binding' visibility='default-visibility' is-defined='yes'/>
    <!-- std::deque<vtkPixelExtent, std::allocator<vtkPixelExtent> >::_M_new_elements_at_front(unsigned long) -->
    <elf-symbol name='_ZNSt5dequeI14vtkPixelExtentSaIS0_EE24_M_new_elements_at_frontEm' type='func-type' binding='weak-binding' visibility='default-visibility' is-defined='yes'/>
    <!-- std::deque<vtkPixelExtent, std::allocator<vtkPixelExtent> >::_M_reserve_elements_at_back(unsigned long) -->
    <elf-symbol name='_ZNSt5dequeI14vtkPixelExtentSaIS0_EE27_M_reserve_elements_at_backEm' type='func-type' binding='weak-binding' visibility='default-visibility' is-defined='yes'/>
    <!-- std::deque<vtkPixelExtent, std::allocator<vtkPixelExtent> >::_M_reserve_elements_at_front(unsigned long) -->
    <elf-symbol name='_ZNSt5dequeI14vtkPixelExtentSaIS0_EE28_M_reserve_elements_at_frontEm' type='func-type' binding='weak-binding' visibility='default-visibility' is-defined='yes'/>
    <!-- std::deque<vtkPixelExtent, std::allocator<vtkPixelExtent> >::deque(std::deque<vtkPixelExtent, std::allocator<vtkPixelExtent> > const&) -->
    <elf-symbol name='_ZNSt5dequeI14vtkPixelExtentSaIS0_EEC1ERKS2_' type='func-type' binding='weak-binding' visibility='default-visibility' is-defined='yes'/>
    <!-- std::deque<vtkPixelExtent, std::allocator<vtkPixelExtent> >::deque(std::deque<vtkPixelExtent, std::allocator<vtkPixelExtent> > const&) -->
    <elf-symbol name='_ZNSt5dequeI14vtkPixelExtentSaIS0_EEC2ERKS2_' type='func-type' binding='weak-binding' visibility='default-visibility' alias='_ZNSt5dequeI14vtkPixelExtentSaIS0_EEC1ERKS2_' is-defined='yes'/>
    <!-- std::deque<vtkPixelExtent, std::allocator<vtkPixelExtent> >::operator=(std::deque<vtkPixelExtent, std::allocator<vtkPixelExtent> > const&) -->
    <elf-symbol name='_ZNSt5dequeI14vtkPixelExtentSaIS0_EEaSERKS2_' type='func-type' binding='weak-binding' visibility='default-visibility' is-defined='yes'/>
    <!-- std::vector<float, std::allocator<float> >::_M_fill_insert(__gnu_cxx::__normal_iterator<float*, std::vector<float, std::allocator<float> > >, unsigned long, float const&) -->
    <elf-symbol name='_ZNSt6vectorIfSaIfEE14_M_fill_insertEN9__gnu_cxx17__normal_iteratorIPfS1_EEmRKf' type='func-type' binding='weak-binding' visibility='default-visibility' is-defined='yes'/>
    <!-- void std::__push_heap<std::_Deque_iterator<vtkPixelExtent, vtkPixelExtent&, vtkPixelExtent*>, long, vtkPixelExtent>(std::_Deque_iterator<vtkPixelExtent, vtkPixelExtent&, vtkPixelExtent*>, long, long, vtkPixelExtent) -->
    <elf-symbol name='_ZSt11__push_heapISt15_Deque_iteratorI14vtkPixelExtentRS1_PS1_ElS1_EvT_T0_S6_T1_' type='func-type' binding='weak-binding' visibility='default-visibility' is-defined='yes'/>
    <!-- void std::__adjust_heap<std::_Deque_iterator<vtkPixelExtent, vtkPixelExtent&, vtkPixelExtent*>, long, vtkPixelExtent>(std::_Deque_iterator<vtkPixelExtent, vtkPixelExtent&, vtkPixelExtent*>, long, long, vtkPixelExtent) -->
    <elf-symbol name='_ZSt13__adjust_heapISt15_Deque_iteratorI14vtkPixelExtentRS1_PS1_ElS1_EvT_T0_S6_T1_' type='func-type' binding='weak-binding' visibility='default-visibility' is-defined='yes'/>
    <!-- void std::__insertion_sort<std::_Deque_iterator<vtkPixelExtent, vtkPixelExtent&, vtkPixelExtent*> >(std::_Deque_iterator<vtkPixelExtent, vtkPixelExtent&, vtkPixelExtent*>, std::_Deque_iterator<vtkPixelExtent, vtkPixelExtent&, vtkPixelExtent*>) -->
    <elf-symbol name='_ZSt16__insertion_sortISt15_Deque_iteratorI14vtkPixelExtentRS1_PS1_EEvT_S5_' type='func-type' binding='weak-binding' visibility='default-visibility' is-defined='yes'/>
    <!-- void std::__introsort_loop<std::_Deque_iterator<vtkPixelExtent, vtkPixelExtent&, vtkPixelExtent*>, long>(std::_Deque_iterator<vtkPixelExtent, vtkPixelExtent&, vtkPixelExtent*>, std::_Deque_iterator<vtkPixelExtent, vtkPixelExtent&, vtkPixelExtent*>, long) -->
    <elf-symbol name='_ZSt16__introsort_loopISt15_Deque_iteratorI14vtkPixelExtentRS1_PS1_ElEvT_S5_T0_' type='func-type' binding='weak-binding' visibility='default-visibility' is-defined='yes'/>
    <!-- std::_Deque_iterator<vtkPixelExtent, vtkPixelExtent&, vtkPixelExtent*> std::__unguarded_partition<std::_Deque_iterator<vtkPixelExtent, vtkPixelExtent&, vtkPixelExtent*>, vtkPixelExtent>(std::_Deque_iterator<vtkPixelExtent, vtkPixelExtent&, vtkPixelExtent*>, std::_Deque_iterator<vtkPixelExtent, vtkPixelExtent&, vtkPixelExtent*>, vtkPixelExtent) -->
    <elf-symbol name='_ZSt21__unguarded_partitionISt15_Deque_iteratorI14vtkPixelExtentRS1_PS1_ES1_ET_S5_S5_T0_' type='func-type' binding='weak-binding' visibility='default-visibility' is-defined='yes'/>
    <!-- void std::__final_insertion_sort<std::_Deque_iterator<vtkPixelExtent, vtkPixelExtent&, vtkPixelExtent*> >(std::_Deque_iterator<vtkPixelExtent, vtkPixelExtent&, vtkPixelExtent*>, std::_Deque_iterator<vtkPixelExtent, vtkPixelExtent&, vtkPixelExtent*>) -->
    <elf-symbol name='_ZSt22__final_insertion_sortISt15_Deque_iteratorI14vtkPixelExtentRS1_PS1_EEvT_S5_' type='func-type' binding='weak-binding' visibility='default-visibility' is-defined='yes'/>
    <!-- std::_Deque_iterator<vtkPixelExtent, vtkPixelExtent&, vtkPixelExtent*> std::__uninitialized_copy_a<std::_Deque_iterator<vtkPixelExtent, vtkPixelExtent&, vtkPixelExtent*>, std::_Deque_iterator<vtkPixelExtent, vtkPixelExtent&, vtkPixelExtent*>, vtkPixelExtent>(std::_Deque_iterator<vtkPixelExtent, vtkPixelExtent&, vtkPixelExtent*>, std::_Deque_iterator<vtkPixelExtent, vtkPixelExtent&, vtkPixelExtent*>, std::_Deque_iterator<vtkPixelExtent, vtkPixelExtent&, vtkPixelExtent*>, std::allocator<vtkPixelExtent>&) -->
    <elf-symbol name='_ZSt22__uninitialized_copy_aISt15_Deque_iteratorI14vtkPixelExtentRS1_PS1_ES4_S1_ET0_T_S6_S5_RSaIT1_E' type='func-type' binding='weak-binding' visibility='default-visibility' is-defined='yes'/>
    <!-- float* std::__uninitialized_move_a<float*, float*, std::allocator<float> >(float*, float*, float*, std::allocator<float>&) -->
    <elf-symbol name='_ZSt22__uninitialized_move_aIPfS0_SaIfEET0_T_S3_S2_RT1_' type='func-type' binding='weak-binding' visibility='default-visibility' is-defined='yes'/>
    <!-- void std::__unguarded_linear_insert<std::_Deque_iterator<vtkPixelExtent, vtkPixelExtent&, vtkPixelExtent*>, vtkPixelExtent>(std::_Deque_iterator<vtkPixelExtent, vtkPixelExtent&, vtkPixelExtent*>, vtkPixelExtent) -->
    <elf-symbol name='_ZSt25__unguarded_linear_insertISt15_Deque_iteratorI14vtkPixelExtentRS1_PS1_ES1_EvT_T0_' type='func-type' binding='weak-binding' visibility='default-visibility' is-defined='yes'/>
    <!-- std::_Deque_iterator<vtkPixelExtent, vtkPixelExtent&, vtkPixelExtent*> std::copy<std::_Deque_iterator<vtkPixelExtent, vtkPixelExtent&, vtkPixelExtent*>, std::_Deque_iterator<vtkPixelExtent, vtkPixelExtent&, vtkPixelExtent*> >(std::_Deque_iterator<vtkPixelExtent, vtkPixelExtent&, vtkPixelExtent*>, std::_Deque_iterator<vtkPixelExtent, vtkPixelExtent&, vtkPixelExtent*>, std::_Deque_iterator<vtkPixelExtent, vtkPixelExtent&, vtkPixelExtent*>) -->
    <elf-symbol name='_ZSt4copyISt15_Deque_iteratorI14vtkPixelExtentRS1_PS1_ES4_ET0_T_S6_S5_' type='func-type' binding='weak-binding' visibility='default-visibility' is-defined='yes'/>
    <!-- void std::make_heap<std::_Deque_iterator<vtkPixelExtent, vtkPixelExtent&, vtkPixelExtent*> >(std::_Deque_iterator<vtkPixelExtent, vtkPixelExtent&, vtkPixelExtent*>, std::_Deque_iterator<vtkPixelExtent, vtkPixelExtent&, vtkPixelExtent*>) -->
    <elf-symbol name='_ZSt9make_heapISt15_Deque_iteratorI14vtkPixelExtentRS1_PS1_EEvT_S5_' type='func-type' binding='weak-binding' visibility='default-visibility' is-defined='yes'/>
    <!-- _fini -->
    <elf-symbol name='_fini' type='func-type' binding='global-binding' visibility='default-visibility' is-defined='yes'/>
    <!-- _init -->
    <elf-symbol name='_init' type='func-type' binding='global-binding' visibility='default-visibility' is-defined='yes'/>
  </elf-function-symbols>
  <elf-variable-symbols>
    <!-- typeinfo for vtkImageDataLIC2D -->
    <elf-symbol name='_ZTI17vtkImageDataLIC2D' size='24' type='object-type' binding='weak-binding' visibility='default-visibility' is-defined='yes'/>
    <!-- typeinfo for vtkSurfaceLICPainter -->
    <elf-symbol name='_ZTI20vtkSurfaceLICPainter' size='24' type='object-type' binding='weak-binding' visibility='default-visibility' is-defined='yes'/>
    <!-- typeinfo for vtkPainterCommunicator -->
    <elf-symbol name='_ZTI22vtkPainterCommunicator' size='16' type='object-type' binding='weak-binding' visibility='default-visibility' is-defined='yes'/>
    <!-- typeinfo for vtkStructuredGridLIC2D -->
    <elf-symbol name='_ZTI22vtkStructuredGridLIC2D' size='24' type='object-type' binding='weak-binding' visibility='default-visibility' is-defined='yes'/>
    <!-- typeinfo for vtkSurfaceLICComposite -->
    <elf-symbol name='_ZTI22vtkSurfaceLICComposite' size='24' type='object-type' binding='weak-binding' visibility='default-visibility' is-defined='yes'/>
    <!-- typeinfo for vtkSurfaceLICDefaultPainter -->
    <elf-symbol name='_ZTI27vtkSurfaceLICDefaultPainter' size='24' type='object-type' binding='weak-binding' visibility='default-visibility' is-defined='yes'/>
    <!-- typeinfo for vtkLineIntegralConvolution2D -->
    <elf-symbol name='_ZTI28vtkLineIntegralConvolution2D' size='24' type='object-type' binding='weak-binding' visibility='default-visibility' is-defined='yes'/>
    <!-- typeinfo for vtkImageDataLIC2DExtentTranslator -->
    <elf-symbol name='_ZTI33vtkImageDataLIC2DExtentTranslator' size='24' type='object-type' binding='weak-binding' visibility='default-visibility' is-defined='yes'/>
    <!-- typeinfo name for vtkImageDataLIC2D -->
    <elf-symbol name='_ZTS17vtkImageDataLIC2D' size='20' type='object-type' binding='weak-binding' visibility='default-visibility' is-defined='yes'/>
    <!-- typeinfo name for vtkSurfaceLICPainter -->
    <elf-symbol name='_ZTS20vtkSurfaceLICPainter' size='23' type='object-type' binding='weak-binding' visibility='default-visibility' is-defined='yes'/>
    <!-- typeinfo name for vtkPainterCommunicator -->
    <elf-symbol name='_ZTS22vtkPainterCommunicator' size='25' type='object-type' binding='weak-binding' visibility='default-visibility' is-defined='yes'/>
    <!-- typeinfo name for vtkStructuredGridLIC2D -->
    <elf-symbol name='_ZTS22vtkStructuredGridLIC2D' size='25' type='object-type' binding='weak-binding' visibility='default-visibility' is-defined='yes'/>
    <!-- typeinfo name for vtkSurfaceLICComposite -->
    <elf-symbol name='_ZTS22vtkSurfaceLICComposite' size='25' type='object-type' binding='weak-binding' visibility='default-visibility' is-defined='yes'/>
    <!-- typeinfo name for vtkSurfaceLICDefaultPainter -->
    <elf-symbol name='_ZTS27vtkSurfaceLICDefaultPainter' size='30' type='object-type' binding='weak-binding' visibility='default-visibility' is-defined='yes'/>
    <!-- typeinfo name for vtkLineIntegralConvolution2D -->
    <elf-symbol name='_ZTS28vtkLineIntegralConvolution2D' size='31' type='object-type' binding='weak-binding' visibility='default-visibility' is-defined='yes'/>
    <!-- typeinfo name for vtkImageDataLIC2DExtentTranslator -->
    <elf-symbol name='_ZTS33vtkImageDataLIC2DExtentTranslator' size='36' type='object-type' binding='weak-binding' visibility='default-visibility' is-defined='yes'/>
    <!-- vtable for vtkImageDataLIC2D -->
    <elf-symbol name='_ZTV17vtkImageDataLIC2D' size='720' type='object-type' binding='weak-binding' visibility='default-visibility' is-defined='yes'/>
    <!-- vtable for vtkSurfaceLICPainter -->
    <elf-symbol name='_ZTV20vtkSurfaceLICPainter' size='696' type='object-type' binding='weak-binding' visibility='default-visibility' is-defined='yes'/>
    <!-- vtable for vtkPainterCommunicator -->
    <elf-symbol name='_ZTV22vtkPainterCommunicator' size='104' type='object-type' binding='weak-binding' visibility='default-visibility' is-defined='yes'/>
    <!-- vtable for vtkStructuredGridLIC2D -->
    <elf-symbol name='_ZTV22vtkStructuredGridLIC2D' size='664' type='object-type' binding='weak-binding' visibility='default-visibility' is-defined='yes'/>
    <!-- vtable for vtkSurfaceLICComposite -->
    <elf-symbol name='_ZTV22vtkSurfaceLICComposite' size='232' type='object-type' binding='weak-binding' visibility='default-visibility' is-defined='yes'/>
    <!-- vtable for vtkSurfaceLICDefaultPainter -->
    <elf-symbol name='_ZTV27vtkSurfaceLICDefaultPainter' size='408' type='object-type' binding='weak-binding' visibility='default-visibility' is-defined='yes'/>
    <!-- vtable for vtkLineIntegralConvolution2D -->
    <elf-symbol name='_ZTV28vtkLineIntegralConvolution2D' size='600' type='object-type' binding='weak-binding' visibility='default-visibility' is-defined='yes'/>
    <!-- vtable for vtkImageDataLIC2DExtentTranslator -->
    <elf-symbol name='_ZTV33vtkImageDataLIC2DExtentTranslator' size='384' type='object-type' binding='weak-binding' visibility='default-visibility' is-defined='yes'/>
    <!-- vtkLineIntegralConvolution2D_AAH -->
    <elf-symbol name='vtkLineIntegralConvolution2D_AAH' size='8' type='object-type' binding='global-binding' visibility='default-visibility' is-defined='yes'/>
    <!-- vtkLineIntegralConvolution2D_AAV -->
    <elf-symbol name='vtkLineIntegralConvolution2D_AAV' size='8' type='object-type' binding='global-binding' visibility='default-visibility' is-defined='yes'/>
    <!-- vtkLineIntegralConvolution2D_CE -->
    <elf-symbol name='vtkLineIntegralConvolution2D_CE' size='8' type='object-type' binding='global-binding' visibility='default-visibility' is-defined='yes'/>
    <!-- vtkLineIntegralConvolution2D_EE -->
    <elf-symbol name='vtkLineIntegralConvolution2D_EE' size='8' type='object-type' binding='global-binding' visibility='default-visibility' is-defined='yes'/>
    <!-- vtkLineIntegralConvolution2D_LIC0 -->
    <elf-symbol name='vtkLineIntegralConvolution2D_LIC0' size='8' type='object-type' binding='global-binding' visibility='default-visibility' is-defined='yes'/>
    <!-- vtkLineIntegralConvolution2D_LICI -->
    <elf-symbol name='vtkLineIntegralConvolution2D_LICI' size='8' type='object-type' binding='global-binding' visibility='default-visibility' is-defined='yes'/>
    <!-- vtkLineIntegralConvolution2D_LICN -->
    <elf-symbol name='vtkLineIntegralConvolution2D_LICN' size='8' type='object-type' binding='global-binding' visibility='default-visibility' is-defined='yes'/>
    <!-- vtkLineIntegralConvolution2D_VT -->
    <elf-symbol name='vtkLineIntegralConvolution2D_VT' size='8' type='object-type' binding='global-binding' visibility='default-visibility' is-defined='yes'/>
    <!-- vtkStructuredGridLIC2D_fs -->
    <elf-symbol name='vtkStructuredGridLIC2D_fs' size='8' type='object-type' binding='global-binding' visibility='default-visibility' is-defined='yes'/>
    <!-- vtkSurfaceLICPainter_CE -->
    <elf-symbol name='vtkSurfaceLICPainter_CE' size='8' type='object-type' binding='global-binding' visibility='default-visibility' is-defined='yes'/>
    <!-- vtkSurfaceLICPainter_DCpy -->
    <elf-symbol name='vtkSurfaceLICPainter_DCpy' size='8' type='object-type' binding='global-binding' visibility='default-visibility' is-defined='yes'/>
    <!-- vtkSurfaceLICPainter_GeomFs -->
    <elf-symbol name='vtkSurfaceLICPainter_GeomFs' size='8' type='object-type' binding='global-binding' visibility='default-visibility' is-defined='yes'/>
    <!-- vtkSurfaceLICPainter_GeomVs -->
    <elf-symbol name='vtkSurfaceLICPainter_GeomVs' size='8' type='object-type' binding='global-binding' visibility='default-visibility' is-defined='yes'/>
    <!-- vtkSurfaceLICPainter_SC -->
    <elf-symbol name='vtkSurfaceLICPainter_SC' size='8' type='object-type' binding='global-binding' visibility='default-visibility' is-defined='yes'/>
  </elf-variable-symbols>
  <abi-instr address-size='64' path='/tmp/legendre/spack-stage/spack-stage-R_crTC/VTK-6.1.0/Rendering/LIC/vtkImageDataLIC2D.cxx' comp-dir-path='/tmp/legendre/spack-stage/spack-stage-R_crTC/VTK-6.1.0/spack-build/Rendering/LIC' language='LANG_C_plus_plus'>
    <!-- bool -->
    <type-decl name='bool' size-in-bits='8' id='type-id-1'/>
    <!-- char -->
    <type-decl name='char' size-in-bits='8' id='type-id-2'/>
    <!-- char[1] -->
    <array-type-def dimensions='1' type-id='type-id-2' size-in-bits='8' id='type-id-3'>
      <!-- <anonymous range>[1] -->
      <subrange length='1' type-id='type-id-4' id='type-id-5'/>
    </array-type-def>
    <!-- char[20] -->
    <array-type-def dimensions='1' type-id='type-id-2' size-in-bits='160' id='type-id-6'>
      <!-- <anonymous range>[20] -->
      <subrange length='20' type-id='type-id-4' id='type-id-7'/>
    </array-type-def>
    <!-- char[40] -->
    <array-type-def dimensions='1' type-id='type-id-2' size-in-bits='320' id='type-id-8'>
      <!-- <anonymous range>[40] -->
      <subrange length='40' type-id='type-id-4' id='type-id-9'/>
    </array-type-def>
    <!-- char[4] -->
    <array-type-def dimensions='1' type-id='type-id-2' size-in-bits='32' id='type-id-10'>
      <!-- <anonymous range>[4] -->
      <subrange length='4' type-id='type-id-4' id='type-id-11'/>
    </array-type-def>
    <!-- struct typedef __va_list_tag __va_list_tag -->
    <class-decl name='typedef __va_list_tag __va_list_tag' size-in-bits='192' is-struct='yes' visibility='default' id='type-id-12'>
      <data-member access='public' layout-offset-in-bits='0'>
        <!-- unsigned int typedef __va_list_tag __va_list_tag::gp_offset -->
        <var-decl name='gp_offset' type-id='type-id-13' visibility='default'/>
      </data-member>
      <data-member access='public' layout-offset-in-bits='32'>
        <!-- unsigned int typedef __va_list_tag __va_list_tag::fp_offset -->
        <var-decl name='fp_offset' type-id='type-id-13' visibility='default'/>
      </data-member>
      <data-member access='public' layout-offset-in-bits='64'>
        <!-- void* typedef __va_list_tag __va_list_tag::overflow_arg_area -->
        <var-decl name='overflow_arg_area' type-id='type-id-14' visibility='default'/>
      </data-member>
      <data-member access='public' layout-offset-in-bits='128'>
        <!-- void* typedef __va_list_tag __va_list_tag::reg_save_area -->
        <var-decl name='reg_save_area' type-id='type-id-14' visibility='default'/>
      </data-member>
    </class-decl>
    <!-- double -->
    <type-decl name='double' size-in-bits='64' id='type-id-15'/>
    <!-- float -->
    <type-decl name='float' size-in-bits='32' id='type-id-16'/>
    <!-- int -->
    <type-decl name='int' size-in-bits='32' id='type-id-17'/>
    <!-- int[4] -->
    <array-type-def dimensions='1' type-id='type-id-17' size-in-bits='128' id='type-id-18'>
      <!-- <anonymous range>[4] -->
      <subrange length='4' type-id='type-id-4' id='type-id-11'/>
    </array-type-def>
    <!-- long double -->
    <type-decl name='long double' size-in-bits='128' id='type-id-19'/>
    <!-- long int -->
    <type-decl name='long int' size-in-bits='64' id='type-id-20'/>
    <!-- long long int -->
    <type-decl name='long long int' size-in-bits='64' id='type-id-21'/>
    <!-- long long unsigned int -->
    <type-decl name='long long unsigned int' size-in-bits='64' id='type-id-22'/>
    <!-- signed char -->
    <type-decl name='signed char' size-in-bits='8' id='type-id-23'/>
    <!-- unnamed&#45;enum&#45;underlying&#45;type&#45;32 -->
    <type-decl name='unnamed-enum-underlying-type-32' is-anonymous='yes' size-in-bits='32' alignment-in-bits='32' id='type-id-24'/>
    <!-- unsigned int -->
    <type-decl name='unsigned int' size-in-bits='32' id='type-id-13'/>
    <!-- unsigned long int -->
    <type-decl name='unsigned long int' size-in-bits='64' id='type-id-4'/>
    <!-- unsigned short int -->
    <type-decl name='unsigned short int' size-in-bits='16' id='type-id-25'/>
    <!-- variadic parameter type -->
    <type-decl name='variadic parameter type' id='type-id-26'/>
    <!-- void -->
    <type-decl name='void' id='type-id-27'/>
    <!-- wchar_t -->
    <type-decl name='wchar_t' size-in-bits='32' id='type-id-28'/>
    <!-- typedef int _Atomic_word -->
    <typedef-decl name='_Atomic_word' type-id='type-id-17' filepath='/usr/lib/gcc/x86_64-redhat-linux/4.4.7/../../../../include/c++/4.4.7/x86_64-redhat-linux/bits/atomic_word.h' line='32' column='1' id='type-id-29'/>
    <!-- typedef _IO_FILE FILE -->
    <typedef-decl name='FILE' type-id='type-id-30' filepath='/usr/include/stdio.h' line='49' column='1' id='type-id-31'/>
    <!-- struct _IO_FILE -->
    <class-decl name='_IO_FILE' size-in-bits='1728' is-struct='yes' visibility='default' filepath='/usr/include/libio.h' line='271' column='1' id='type-id-30'>
      <data-member access='public' layout-offset-in-bits='0'>
        <!-- int _IO_FILE::_flags -->
        <var-decl name='_flags' type-id='type-id-17' visibility='default' filepath='/usr/include/libio.h' line='272' column='1'/>
      </data-member>
      <data-member access='public' layout-offset-in-bits='64'>
        <!-- char* _IO_FILE::_IO_read_ptr -->
        <var-decl name='_IO_read_ptr' type-id='type-id-32' visibility='default' filepath='/usr/include/libio.h' line='277' column='1'/>
      </data-member>
      <data-member access='public' layout-offset-in-bits='128'>
        <!-- char* _IO_FILE::_IO_read_end -->
        <var-decl name='_IO_read_end' type-id='type-id-32' visibility='default' filepath='/usr/include/libio.h' line='278' column='1'/>
      </data-member>
      <data-member access='public' layout-offset-in-bits='192'>
        <!-- char* _IO_FILE::_IO_read_base -->
        <var-decl name='_IO_read_base' type-id='type-id-32' visibility='default' filepath='/usr/include/libio.h' line='279' column='1'/>
      </data-member>
      <data-member access='public' layout-offset-in-bits='256'>
        <!-- char* _IO_FILE::_IO_write_base -->
        <var-decl name='_IO_write_base' type-id='type-id-32' visibility='default' filepath='/usr/include/libio.h' line='280' column='1'/>
      </data-member>
      <data-member access='public' layout-offset-in-bits='320'>
        <!-- char* _IO_FILE::_IO_write_ptr -->
        <var-decl name='_IO_write_ptr' type-id='type-id-32' visibility='default' filepath='/usr/include/libio.h' line='281' column='1'/>
      </data-member>
      <data-member access='public' layout-offset-in-bits='384'>
        <!-- char* _IO_FILE::_IO_write_end -->
        <var-decl name='_IO_write_end' type-id='type-id-32' visibility='default' filepath='/usr/include/libio.h' line='282' column='1'/>
      </data-member>
      <data-member access='public' layout-offset-in-bits='448'>
        <!-- char* _IO_FILE::_IO_buf_base -->
        <var-decl name='_IO_buf_base' type-id='type-id-32' visibility='default' filepath='/usr/include/libio.h' line='283' column='1'/>
      </data-member>
      <data-member access='public' layout-offset-in-bits='512'>
        <!-- char* _IO_FILE::_IO_buf_end -->
        <var-decl name='_IO_buf_end' type-id='type-id-32' visibility='default' filepath='/usr/include/libio.h' line='284' column='1'/>
      </data-member>
      <data-member access='public' layout-offset-in-bits='576'>
        <!-- char* _IO_FILE::_IO_save_base -->
        <var-decl name='_IO_save_base' type-id='type-id-32' visibility='default' filepath='/usr/include/libio.h' line='286' column='1'/>
      </data-member>
      <data-member access='public' layout-offset-in-bits='640'>
        <!-- char* _IO_FILE::_IO_backup_base -->
        <var-decl name='_IO_backup_base' type-id='type-id-32' visibility='default' filepath='/usr/include/libio.h' line='287' column='1'/>
      </data-member>
      <data-member access='public' layout-offset-in-bits='704'>
        <!-- char* _IO_FILE::_IO_save_end -->
        <var-decl name='_IO_save_end' type-id='type-id-32' visibility='default' filepath='/usr/include/libio.h' line='288' column='1'/>
      </data-member>
      <data-member access='public' layout-offset-in-bits='768'>
        <!-- _IO_marker* _IO_FILE::_markers -->
        <var-decl name='_markers' type-id='type-id-33' visibility='default' filepath='/usr/include/libio.h' line='290' column='1'/>
      </data-member>
      <data-member access='public' layout-offset-in-bits='832'>
        <!-- _IO_FILE* _IO_FILE::_chain -->
        <var-decl name='_chain' type-id='type-id-34' visibility='default' filepath='/usr/include/libio.h' line='292' column='1'/>
      </data-member>
      <data-member access='public' layout-offset-in-bits='896'>
        <!-- int _IO_FILE::_fileno -->
        <var-decl name='_fileno' type-id='type-id-17' visibility='default' filepath='/usr/include/libio.h' line='294' column='1'/>
      </data-member>
      <data-member access='public' layout-offset-in-bits='928'>
        <!-- int _IO_FILE::_flags2 -->
        <var-decl name='_flags2' type-id='type-id-17' visibility='default' filepath='/usr/include/libio.h' line='298' column='1'/>
      </data-member>
      <data-member access='public' layout-offset-in-bits='960'>
        <!-- __off_t _IO_FILE::_old_offset -->
        <var-decl name='_old_offset' type-id='type-id-35' visibility='default' filepath='/usr/include/libio.h' line='300' column='1'/>
      </data-member>
      <data-member access='public' layout-offset-in-bits='1024'>
        <!-- unsigned short int _IO_FILE::_cur_column -->
        <var-decl name='_cur_column' type-id='type-id-25' visibility='default' filepath='/usr/include/libio.h' line='304' column='1'/>
      </data-member>
      <data-member access='public' layout-offset-in-bits='1040'>
        <!-- signed char _IO_FILE::_vtable_offset -->
        <var-decl name='_vtable_offset' type-id='type-id-23' visibility='default' filepath='/usr/include/libio.h' line='305' column='1'/>
      </data-member>
      <data-member access='public' layout-offset-in-bits='1048'>
        <!-- char _IO_FILE::_shortbuf[1] -->
        <var-decl name='_shortbuf' type-id='type-id-3' visibility='default' filepath='/usr/include/libio.h' line='306' column='1'/>
      </data-member>
      <data-member access='public' layout-offset-in-bits='1088'>
        <!-- _IO_lock_t* _IO_FILE::_lock -->
        <var-decl name='_lock' type-id='type-id-36' visibility='default' filepath='/usr/include/libio.h' line='310' column='1'/>
      </data-member>
      <data-member access='public' layout-offset-in-bits='1152'>
        <!-- __off64_t _IO_FILE::_offset -->
        <var-decl name='_offset' type-id='type-id-37' visibility='default' filepath='/usr/include/libio.h' line='319' column='1'/>
      </data-member>
      <data-member access='public' layout-offset-in-bits='1216'>
        <!-- void* _IO_FILE::__pad1 -->
        <var-decl name='__pad1' type-id='type-id-14' visibility='default' filepath='/usr/include/libio.h' line='328' column='1'/>
      </data-member>
      <data-member access='public' layout-offset-in-bits='1280'>
        <!-- void* _IO_FILE::__pad2 -->
        <var-decl name='__pad2' type-id='type-id-14' visibility='default' filepath='/usr/include/libio.h' line='329' column='1'/>
      </data-member>
      <data-member access='public' layout-offset-in-bits='1344'>
        <!-- void* _IO_FILE::__pad3 -->
        <var-decl name='__pad3' type-id='type-id-14' visibility='default' filepath='/usr/include/libio.h' line='330' column='1'/>
      </data-member>
      <data-member access='public' layout-offset-in-bits='1408'>
        <!-- void* _IO_FILE::__pad4 -->
        <var-decl name='__pad4' type-id='type-id-14' visibility='default' filepath='/usr/include/libio.h' line='331' column='1'/>
      </data-member>
      <data-member access='public' layout-offset-in-bits='1472'>
        <!-- size_t _IO_FILE::__pad5 -->
        <var-decl name='__pad5' type-id='type-id-38' visibility='default' filepath='/usr/include/libio.h' line='332' column='1'/>
      </data-member>
      <data-member access='public' layout-offset-in-bits='1536'>
        <!-- int _IO_FILE::_mode -->
        <var-decl name='_mode' type-id='type-id-17' visibility='default' filepath='/usr/include/libio.h' line='334' column='1'/>
      </data-member>
      <data-member access='public' layout-offset-in-bits='1568'>
        <!-- char _IO_FILE::_unused2[20] -->
        <var-decl name='_unused2' type-id='type-id-6' visibility='default' filepath='/usr/include/libio.h' line='336' column='1'/>
      </data-member>
    </class-decl>
    <!-- struct _IO_marker -->
    <class-decl name='_IO_marker' size-in-bits='192' is-struct='yes' visibility='default' filepath='/usr/include/libio.h' line='186' column='1' id='type-id-39'>
      <data-member access='public' layout-offset-in-bits='0'>
        <!-- _IO_marker* _IO_marker::_next -->
        <var-decl name='_next' type-id='type-id-33' visibility='default' filepath='/usr/include/libio.h' line='187' column='1'/>
      </data-member>
      <data-member access='public' layout-offset-in-bits='64'>
        <!-- _IO_FILE* _IO_marker::_sbuf -->
        <var-decl name='_sbuf' type-id='type-id-34' visibility='default' filepath='/usr/include/libio.h' line='188' column='1'/>
      </data-member>
      <data-member access='public' layout-offset-in-bits='128'>
        <!-- int _IO_marker::_pos -->
        <var-decl name='_pos' type-id='type-id-17' visibility='default' filepath='/usr/include/libio.h' line='192' column='1'/>
      </data-member>
    </class-decl>
    <!-- typedef long int __off_t -->
    <typedef-decl name='__off_t' type-id='type-id-20' filepath='/usr/include/bits/types.h' line='141' column='1' id='type-id-35'/>
    <!-- typedef void _IO_lock_t -->
    <typedef-decl name='_IO_lock_t' type-id='type-id-27' filepath='/usr/include/libio.h' line='180' column='1' id='type-id-40'/>
    <!-- typedef long int __off64_t -->
    <typedef-decl name='__off64_t' type-id='type-id-20' filepath='/usr/include/bits/types.h' line='142' column='1' id='type-id-37'/>
    <!-- typedef unsigned long int size_t -->
    <typedef-decl name='size_t' type-id='type-id-4' filepath='/usr/lib/gcc/x86_64-redhat-linux/4.4.7/include/stddef.h' line='211' column='1' id='type-id-38'/>
    <!-- typedef pthread_mutex_t __gthread_mutex_t -->
    <typedef-decl name='__gthread_mutex_t' type-id='type-id-41' filepath='/usr/lib/gcc/x86_64-redhat-linux/4.4.7/../../../../include/c++/4.4.7/x86_64-redhat-linux/bits/gthr-default.h' line='47' column='1' id='type-id-42'/>
    <!-- union pthread_mutex_t -->
    <union-decl name='pthread_mutex_t' size-in-bits='320' visibility='default' filepath='/usr/include/bits/pthreadtypes.h' line='77' column='1' id='type-id-41'>
      <member-type access='public'>
        <!-- struct pthread_mutex_t::__pthread_mutex_s -->
        <class-decl name='__pthread_mutex_s' size-in-bits='320' is-struct='yes' visibility='default' filepath='/usr/include/bits/pthreadtypes.h' line='79' column='1' id='type-id-43'>
          <data-member access='public' layout-offset-in-bits='0'>
            <!-- int pthread_mutex_t::__pthread_mutex_s::__lock -->
            <var-decl name='__lock' type-id='type-id-17' visibility='default' filepath='/usr/include/bits/pthreadtypes.h' line='80' column='1'/>
          </data-member>
          <data-member access='public' layout-offset-in-bits='32'>
            <!-- unsigned int pthread_mutex_t::__pthread_mutex_s::__count -->
            <var-decl name='__count' type-id='type-id-13' visibility='default' filepath='/usr/include/bits/pthreadtypes.h' line='81' column='1'/>
          </data-member>
          <data-member access='public' layout-offset-in-bits='64'>
            <!-- int pthread_mutex_t::__pthread_mutex_s::__owner -->
            <var-decl name='__owner' type-id='type-id-17' visibility='default' filepath='/usr/include/bits/pthreadtypes.h' line='82' column='1'/>
          </data-member>
          <data-member access='public' layout-offset-in-bits='96'>
            <!-- unsigned int pthread_mutex_t::__pthread_mutex_s::__nusers -->
            <var-decl name='__nusers' type-id='type-id-13' visibility='default' filepath='/usr/include/bits/pthreadtypes.h' line='84' column='1'/>
          </data-member>
          <data-member access='public' layout-offset-in-bits='128'>
            <!-- int pthread_mutex_t::__pthread_mutex_s::__kind -->
            <var-decl name='__kind' type-id='type-id-17' visibility='default' filepath='/usr/include/bits/pthreadtypes.h' line='88' column='1'/>
          </data-member>
          <data-member access='public' layout-offset-in-bits='160'>
            <!-- int pthread_mutex_t::__pthread_mutex_s::__spins -->
            <var-decl name='__spins' type-id='type-id-17' visibility='default' filepath='/usr/include/bits/pthreadtypes.h' line='90' column='1'/>
          </data-member>
          <data-member access='public' layout-offset-in-bits='192'>
            <!-- __pthread_list_t pthread_mutex_t::__pthread_mutex_s::__list -->
            <var-decl name='__list' type-id='type-id-44' visibility='default' filepath='/usr/include/bits/pthreadtypes.h' line='91' column='1'/>
          </data-member>
        </class-decl>
      </member-type>
      <data-member access='public'>
        <!-- pthread_mutex_t::__pthread_mutex_s pthread_mutex_t::__data -->
        <var-decl name='__data' type-id='type-id-43' visibility='default' filepath='/usr/include/bits/pthreadtypes.h' line='101' column='1'/>
      </data-member>
      <data-member access='public'>
        <!-- char pthread_mutex_t::__size[40] -->
        <var-decl name='__size' type-id='type-id-8' visibility='default' filepath='/usr/include/bits/pthreadtypes.h' line='102' column='1'/>
      </data-member>
      <data-member access='public'>
        <!-- long int pthread_mutex_t::__align -->
        <var-decl name='__align' type-id='type-id-20' visibility='default' filepath='/usr/include/bits/pthreadtypes.h' line='103' column='1'/>
      </data-member>
    </union-decl>
    <!-- typedef __pthread_internal_list __pthread_list_t -->
    <typedef-decl name='__pthread_list_t' type-id='type-id-45' filepath='/usr/include/bits/pthreadtypes.h' line='65' column='1' id='type-id-44'/>
    <!-- struct __pthread_internal_list -->
    <class-decl name='__pthread_internal_list' size-in-bits='128' is-struct='yes' visibility='default' filepath='/usr/include/bits/pthreadtypes.h' line='62' column='1' id='type-id-45'>
      <data-member access='public' layout-offset-in-bits='0'>
        <!-- __pthread_internal_list* __pthread_internal_list::__prev -->
        <var-decl name='__prev' type-id='type-id-46' visibility='default' filepath='/usr/include/bits/pthreadtypes.h' line='63' column='1'/>
      </data-member>
      <data-member access='public' layout-offset-in-bits='64'>
        <!-- __pthread_internal_list* __pthread_internal_list::__next -->
        <var-decl name='__next' type-id='type-id-46' visibility='default' filepath='/usr/include/bits/pthreadtypes.h' line='64' column='1'/>
      </data-member>
    </class-decl>
    <!-- typedef long int ptrdiff_t -->
    <typedef-decl name='ptrdiff_t' type-id='type-id-20' filepath='/usr/lib/gcc/x86_64-redhat-linux/4.4.7/include/stddef.h' line='149' column='1' id='type-id-47'/>
    <!-- class vtkPixelExtent -->
    <class-decl name='vtkPixelExtent' size-in-bits='128' visibility='default' filepath='/tmp/legendre/spack-stage/spack-stage-R_crTC/VTK-6.1.0/Common/DataModel/vtkPixelExtent.h' line='37' column='1' id='type-id-48'>
      <data-member access='private' layout-offset-in-bits='0'>
        <!-- int vtkPixelExtent::Data[4] -->
        <var-decl name='Data' type-id='type-id-18' visibility='default' filepath='/tmp/legendre/spack-stage/spack-stage-R_crTC/VTK-6.1.0/Common/DataModel/vtkPixelExtent.h' line='259' column='1'/>
      </data-member>
      <member-function access='private' constructor='yes'>
        <!-- vtkPixelExtent::vtkPixelExtent() -->
        <function-decl name='vtkPixelExtent' filepath='/tmp/legendre/spack-stage/spack-stage-R_crTC/VTK-6.1.0/Common/DataModel/vtkPixelExtent.h' line='39' column='1' visibility='default' binding='global' size-in-bits='64'>
          <!-- implicit parameter of type 'vtkPixelExtent*' -->
          <parameter type-id='type-id-49' is-artificial='yes'/>
          <!-- void -->
          <return type-id='type-id-27'/>
        </function-decl>
      </member-function>
      <member-function access='private' constructor='yes'>
        <!-- vtkPixelExtent::vtkPixelExtent(const vtkPixelExtent&) -->
        <function-decl name='vtkPixelExtent' filepath='/tmp/legendre/spack-stage/spack-stage-R_crTC/VTK-6.1.0/Common/DataModel/vtkPixelExtent.h' line='51' column='1' visibility='default' binding='global' size-in-bits='64'>
          <!-- implicit parameter of type 'vtkPixelExtent*' -->
          <parameter type-id='type-id-49' is-artificial='yes'/>
          <!-- parameter of type 'const vtkPixelExtent&' -->
          <parameter type-id='type-id-50'/>
          <!-- void -->
          <return type-id='type-id-27'/>
        </function-decl>
      </member-function>
      <member-function access='private'>
        <!-- void vtkPixelExtent::SetData<int>(const int*) -->
        <function-decl name='SetData&lt;int&gt;' filepath='/tmp/legendre/spack-stage/spack-stage-R_crTC/VTK-6.1.0/Common/DataModel/vtkPixelExtent.h' line='269' column='1' visibility='default' binding='global' size-in-bits='64'>
          <!-- implicit parameter of type 'vtkPixelExtent*' -->
          <parameter type-id='type-id-49' is-artificial='yes'/>
          <!-- parameter of type 'const int*' -->
          <parameter type-id='type-id-51'/>
          <!-- void -->
          <return type-id='type-id-27'/>
        </function-decl>
      </member-function>
      <member-function access='private'>
        <!-- void vtkPixelExtent::SetData<int>(int, int, int, int) -->
        <function-decl name='SetData&lt;int&gt;' filepath='/tmp/legendre/spack-stage/spack-stage-R_crTC/VTK-6.1.0/Common/DataModel/vtkPixelExtent.h' line='279' column='1' visibility='default' binding='global' size-in-bits='64'>
          <!-- implicit parameter of type 'vtkPixelExtent*' -->
          <parameter type-id='type-id-49' is-artificial='yes'/>
          <!-- parameter of type 'int' -->
          <parameter type-id='type-id-17'/>
          <!-- parameter of type 'int' -->
          <parameter type-id='type-id-17'/>
          <!-- parameter of type 'int' -->
          <parameter type-id='type-id-17'/>
          <!-- parameter of type 'int' -->
          <parameter type-id='type-id-17'/>
          <!-- void -->
          <return type-id='type-id-27'/>
        </function-decl>
      </member-function>
      <member-function access='private' static='yes'>
        <!-- void vtkPixelExtent::Size<int>(int*) -->
        <function-decl name='Size&lt;int&gt;' filepath='/tmp/legendre/spack-stage/spack-stage-R_crTC/VTK-6.1.0/Common/DataModel/vtkPixelExtent.h' line='355' column='1' visibility='default' binding='global' size-in-bits='64'>
          <!-- parameter of type 'const vtkPixelExtent&' -->
          <parameter type-id='type-id-50'/>
          <!-- parameter of type 'int*' -->
          <parameter type-id='type-id-52'/>
          <!-- void -->
          <return type-id='type-id-27'/>
        </function-decl>
      </member-function>
      <member-function access='private'>
        <!-- void vtkPixelExtent::Size<int>(int*) -->
        <function-decl name='Size&lt;int&gt;' filepath='/tmp/legendre/spack-stage/spack-stage-R_crTC/VTK-6.1.0/Common/DataModel/vtkPixelExtent.h' line='370' column='1' visibility='default' binding='global' size-in-bits='64'>
          <!-- implicit parameter of type 'const vtkPixelExtent*' -->
          <parameter type-id='type-id-53' is-artificial='yes'/>
          <!-- parameter of type 'int*' -->
          <parameter type-id='type-id-52'/>
          <!-- void -->
          <return type-id='type-id-27'/>
        </function-decl>
      </member-function>
      <member-function access='private'>
        <!-- void vtkPixelExtent::vtkPixelExtent<int>(int, int) -->
        <function-decl name='vtkPixelExtent&lt;int&gt;' filepath='/tmp/legendre/spack-stage/spack-stage-R_crTC/VTK-6.1.0/Common/DataModel/vtkPixelExtent.h' line='48' column='1' visibility='default' binding='global' size-in-bits='64'>
          <!-- implicit parameter of type 'vtkPixelExtent*' -->
          <parameter type-id='type-id-49' is-artificial='yes'/>
          <!-- parameter of type 'int' -->
          <parameter type-id='type-id-17'/>
          <!-- parameter of type 'int' -->
          <parameter type-id='type-id-17'/>
          <!-- void -->
          <return type-id='type-id-27'/>
        </function-decl>
      </member-function>
      <member-function access='private'>
        <!-- void vtkPixelExtent::vtkPixelExtent<int>(const int*) -->
        <function-decl name='vtkPixelExtent&lt;int&gt;' filepath='/tmp/legendre/spack-stage/spack-stage-R_crTC/VTK-6.1.0/Common/DataModel/vtkPixelExtent.h' line='42' column='1' visibility='default' binding='global' size-in-bits='64'>
          <!-- implicit parameter of type 'vtkPixelExtent*' -->
          <parameter type-id='type-id-49' is-artificial='yes'/>
          <!-- parameter of type 'const int*' -->
          <parameter type-id='type-id-51'/>
          <!-- void -->
          <return type-id='type-id-27'/>
        </function-decl>
      </member-function>
      <member-function access='private'>
        <!-- void vtkPixelExtent::vtkPixelExtent<int>(int, int, int, int) -->
        <function-decl name='vtkPixelExtent&lt;int&gt;' filepath='/tmp/legendre/spack-stage/spack-stage-R_crTC/VTK-6.1.0/Common/DataModel/vtkPixelExtent.h' line='325' column='1' visibility='default' binding='global' size-in-bits='64'>
          <!-- implicit parameter of type 'vtkPixelExtent*' -->
          <parameter type-id='type-id-49' is-artificial='yes'/>
          <!-- parameter of type 'int' -->
          <parameter type-id='type-id-17'/>
          <!-- parameter of type 'int' -->
          <parameter type-id='type-id-17'/>
          <!-- parameter of type 'int' -->
          <parameter type-id='type-id-17'/>
          <!-- parameter of type 'int' -->
          <parameter type-id='type-id-17'/>
          <!-- void -->
          <return type-id='type-id-27'/>
        </function-decl>
      </member-function>
      <member-function access='private' static='yes'>
        <!-- void vtkPixelExtent::Size<unsigned int>(unsigned int*) -->
        <function-decl name='Size&lt;unsigned int&gt;' filepath='/tmp/legendre/spack-stage/spack-stage-R_crTC/VTK-6.1.0/Common/DataModel/vtkPixelExtent.h' line='355' column='1' visibility='default' binding='global' size-in-bits='64'>
          <!-- parameter of type 'const vtkPixelExtent&' -->
          <parameter type-id='type-id-50'/>
          <!-- parameter of type 'unsigned int*' -->
          <parameter type-id='type-id-54'/>
          <!-- void -->
          <return type-id='type-id-27'/>
        </function-decl>
      </member-function>
      <member-function access='private'>
        <!-- void vtkPixelExtent::SetData<unsigned int>(const unsigned int*) -->
        <function-decl name='SetData&lt;unsigned int&gt;' filepath='/tmp/legendre/spack-stage/spack-stage-R_crTC/VTK-6.1.0/Common/DataModel/vtkPixelExtent.h' line='269' column='1' visibility='default' binding='global' size-in-bits='64'>
          <!-- implicit parameter of type 'vtkPixelExtent*' -->
          <parameter type-id='type-id-49' is-artificial='yes'/>
          <!-- parameter of type 'const unsigned int*' -->
          <parameter type-id='type-id-55'/>
          <!-- void -->
          <return type-id='type-id-27'/>
        </function-decl>
      </member-function>
      <member-function access='private'>
        <!-- void vtkPixelExtent::SetData<unsigned int>(unsigned int, unsigned int, unsigned int, unsigned int) -->
        <function-decl name='SetData&lt;unsigned int&gt;' filepath='/tmp/legendre/spack-stage/spack-stage-R_crTC/VTK-6.1.0/Common/DataModel/vtkPixelExtent.h' line='279' column='1' visibility='default' binding='global' size-in-bits='64'>
          <!-- implicit parameter of type 'vtkPixelExtent*' -->
          <parameter type-id='type-id-49' is-artificial='yes'/>
          <!-- parameter of type 'unsigned int' -->
          <parameter type-id='type-id-13'/>
          <!-- parameter of type 'unsigned int' -->
          <parameter type-id='type-id-13'/>
          <!-- parameter of type 'unsigned int' -->
          <parameter type-id='type-id-13'/>
          <!-- parameter of type 'unsigned int' -->
          <parameter type-id='type-id-13'/>
          <!-- void -->
          <return type-id='type-id-27'/>
        </function-decl>
      </member-function>
      <member-function access='private'>
        <!-- void vtkPixelExtent::Size<unsigned int>(unsigned int*) -->
        <function-decl name='Size&lt;unsigned int&gt;' filepath='/tmp/legendre/spack-stage/spack-stage-R_crTC/VTK-6.1.0/Common/DataModel/vtkPixelExtent.h' line='370' column='1' visibility='default' binding='global' size-in-bits='64'>
          <!-- implicit parameter of type 'const vtkPixelExtent*' -->
          <parameter type-id='type-id-53' is-artificial='yes'/>
          <!-- parameter of type 'unsigned int*' -->
          <parameter type-id='type-id-54'/>
          <!-- void -->
          <return type-id='type-id-27'/>
        </function-decl>
      </member-function>
      <member-function access='private'>
        <!-- void vtkPixelExtent::GetData<float>(float*) -->
        <function-decl name='GetData&lt;float&gt;' filepath='/tmp/legendre/spack-stage/spack-stage-R_crTC/VTK-6.1.0/Common/DataModel/vtkPixelExtent.h' line='294' column='1' visibility='default' binding='global' size-in-bits='64'>
          <!-- implicit parameter of type 'const vtkPixelExtent*' -->
          <parameter type-id='type-id-53' is-artificial='yes'/>
          <!-- parameter of type 'float*' -->
          <parameter type-id='type-id-56'/>
          <!-- void -->
          <return type-id='type-id-27'/>
        </function-decl>
      </member-function>
      <member-function access='private'>
        <!-- void vtkPixelExtent::vtkPixelExtent<unsigned int>(unsigned int, unsigned int) -->
        <function-decl name='vtkPixelExtent&lt;unsigned int&gt;' filepath='/tmp/legendre/spack-stage/spack-stage-R_crTC/VTK-6.1.0/Common/DataModel/vtkPixelExtent.h' line='48' column='1' visibility='default' binding='global' size-in-bits='64'>
          <!-- implicit parameter of type 'vtkPixelExtent*' -->
          <parameter type-id='type-id-49' is-artificial='yes'/>
          <!-- parameter of type 'unsigned int' -->
          <parameter type-id='type-id-13'/>
          <!-- parameter of type 'unsigned int' -->
          <parameter type-id='type-id-13'/>
          <!-- void -->
          <return type-id='type-id-27'/>
        </function-decl>
      </member-function>
      <member-function access='private' static='yes'>
        <!-- void vtkPixelExtent::Size<GLfloat>(GLfloat*) -->
        <function-decl name='Size&lt;GLfloat&gt;' filepath='/tmp/legendre/spack-stage/spack-stage-R_crTC/VTK-6.1.0/Common/DataModel/vtkPixelExtent.h' line='355' column='1' visibility='default' binding='global' size-in-bits='64'>
          <!-- parameter of type 'const vtkPixelExtent&' -->
          <parameter type-id='type-id-50'/>
          <!-- parameter of type 'GLfloat*' -->
          <parameter type-id='type-id-57'/>
          <!-- void -->
          <return type-id='type-id-27'/>
        </function-decl>
      </member-function>
      <member-function access='private'>
        <!-- void vtkPixelExtent::Size<GLfloat>(GLfloat*) -->
        <function-decl name='Size&lt;GLfloat&gt;' filepath='/tmp/legendre/spack-stage/spack-stage-R_crTC/VTK-6.1.0/Common/DataModel/vtkPixelExtent.h' line='370' column='1' visibility='default' binding='global' size-in-bits='64'>
          <!-- implicit parameter of type 'const vtkPixelExtent*' -->
          <parameter type-id='type-id-53' is-artificial='yes'/>
          <!-- parameter of type 'GLfloat*' -->
          <parameter type-id='type-id-57'/>
          <!-- void -->
          <return type-id='type-id-27'/>
        </function-decl>
      </member-function>
      <member-function access='private'>
        <!-- void vtkPixelExtent::GetData<GLfloat>(GLfloat*) -->
        <function-decl name='GetData&lt;GLfloat&gt;' filepath='/tmp/legendre/spack-stage/spack-stage-R_crTC/VTK-6.1.0/Common/DataModel/vtkPixelExtent.h' line='294' column='1' visibility='default' binding='global' size-in-bits='64'>
          <!-- implicit parameter of type 'const vtkPixelExtent*' -->
          <parameter type-id='type-id-53' is-artificial='yes'/>
          <!-- parameter of type 'GLfloat*' -->
          <parameter type-id='type-id-57'/>
          <!-- void -->
          <return type-id='type-id-27'/>
        </function-decl>
      </member-function>
      <member-function access='private'>
        <!-- void vtkPixelExtent::vtkPixelExtent<unsigned int>(unsigned int, unsigned int, unsigned int, unsigned int) -->
        <function-decl name='vtkPixelExtent&lt;unsigned int&gt;' filepath='/tmp/legendre/spack-stage/spack-stage-R_crTC/VTK-6.1.0/Common/DataModel/vtkPixelExtent.h' line='325' column='1' visibility='default' binding='global' size-in-bits='64'>
          <!-- implicit parameter of type 'vtkPixelExtent*' -->
          <parameter type-id='type-id-49' is-artificial='yes'/>
          <!-- parameter of type 'unsigned int' -->
          <parameter type-id='type-id-13'/>
          <!-- parameter of type 'unsigned int' -->
          <parameter type-id='type-id-13'/>
          <!-- parameter of type 'unsigned int' -->
          <parameter type-id='type-id-13'/>
          <!-- parameter of type 'unsigned int' -->
          <parameter type-id='type-id-13'/>
          <!-- void -->
          <return type-id='type-id-27'/>
        </function-decl>
      </member-function>
      <member-function access='private'>
        <!-- void vtkPixelExtent::GetData<int>(int*) -->
        <function-decl name='GetData&lt;int&gt;' filepath='/tmp/legendre/spack-stage/spack-stage-R_crTC/VTK-6.1.0/Common/DataModel/vtkPixelExtent.h' line='294' column='1' visibility='default' binding='global' size-in-bits='64'>
          <!-- implicit parameter of type 'const vtkPixelExtent*' -->
          <parameter type-id='type-id-53' is-artificial='yes'/>
          <!-- parameter of type 'int*' -->
          <parameter type-id='type-id-52'/>
          <!-- void -->
          <return type-id='type-id-27'/>
        </function-decl>
      </member-function>
    </class-decl>
    <!-- class vtkImageDataLIC2DExtentTranslator -->
    <class-decl name='vtkImageDataLIC2DExtentTranslator' size-in-bits='1344' visibility='default' filepath='/tmp/legendre/spack-stage/spack-stage-R_crTC/VTK-6.1.0/Rendering/LIC/vtkImageDataLIC2DExtentTranslator.h' line='32' column='1' id='type-id-58'>
      <!-- class vtkExtentTranslator -->
      <base-class access='public' layout-offset-in-bits='0' type-id='type-id-59'/>
      <data-member access='protected' layout-offset-in-bits='992'>
        <!-- int vtkImageDataLIC2DExtentTranslator::InputWholeExtent[6] -->
        <var-decl name='InputWholeExtent' type-id='type-id-60' visibility='default' filepath='/tmp/legendre/spack-stage/spack-stage-R_crTC/VTK-6.1.0/Rendering/LIC/vtkImageDataLIC2DExtentTranslator.h' line='65' column='1'/>
      </data-member>
      <data-member access='protected' layout-offset-in-bits='1216'>
        <!-- vtkExtentTranslator* vtkImageDataLIC2DExtentTranslator::InputExtentTranslator -->
        <var-decl name='InputExtentTranslator' type-id='type-id-61' visibility='default' filepath='/tmp/legendre/spack-stage/spack-stage-R_crTC/VTK-6.1.0/Rendering/LIC/vtkImageDataLIC2DExtentTranslator.h' line='66' column='1'/>
      </data-member>
      <data-member access='protected' layout-offset-in-bits='1280'>
        <!-- vtkWeakPointer<vtkImageDataLIC2D> vtkImageDataLIC2DExtentTranslator::Algorithm -->
        <var-decl name='Algorithm' type-id='type-id-62' visibility='default' filepath='/tmp/legendre/spack-stage/spack-stage-R_crTC/VTK-6.1.0/Rendering/LIC/vtkImageDataLIC2DExtentTranslator.h' line='67' column='1'/>
      </data-member>
      <member-function access='protected' constructor='yes'>
        <!-- vtkImageDataLIC2DExtentTranslator::vtkImageDataLIC2DExtentTranslator() -->
        <function-decl name='vtkImageDataLIC2DExtentTranslator' mangled-name='_ZN33vtkImageDataLIC2DExtentTranslatorC1Ev' filepath='/tmp/legendre/spack-stage/spack-stage-R_crTC/VTK-6.1.0/Rendering/LIC/vtkImageDataLIC2DExtentTranslator.cxx' line='30' column='1' visibility='default' binding='global' size-in-bits='64' elf-symbol-id='_ZN33vtkImageDataLIC2DExtentTranslatorC1Ev'>
          <!-- implicit parameter of type 'vtkImageDataLIC2DExtentTranslator*' -->
          <parameter type-id='type-id-63' is-artificial='yes'/>
          <!-- void -->
          <return type-id='type-id-27'/>
        </function-decl>
      </member-function>
      <member-function access='private' constructor='yes'>
        <!-- vtkImageDataLIC2DExtentTranslator::vtkImageDataLIC2DExtentTranslator(const vtkImageDataLIC2DExtentTranslator&) -->
        <function-decl name='vtkImageDataLIC2DExtentTranslator' filepath='/tmp/legendre/spack-stage/spack-stage-R_crTC/VTK-6.1.0/Rendering/LIC/vtkImageDataLIC2DExtentTranslator.h' line='69' column='1' visibility='default' binding='global' size-in-bits='64'>
          <!-- implicit parameter of type 'vtkImageDataLIC2DExtentTranslator*' -->
          <parameter type-id='type-id-63' is-artificial='yes'/>
          <!-- parameter of type 'const vtkImageDataLIC2DExtentTranslator&' -->
          <parameter type-id='type-id-64'/>
          <!-- void -->
          <return type-id='type-id-27'/>
        </function-decl>
      </member-function>
      <member-function access='private'>
        <!-- void vtkImageDataLIC2DExtentTranslator::SetInputExtentTranslator(vtkExtentTranslator*) -->
        <function-decl name='SetInputExtentTranslator' mangled-name='_ZN33vtkImageDataLIC2DExtentTranslator24SetInputExtentTranslatorEP19vtkExtentTranslator' filepath='/tmp/legendre/spack-stage/spack-stage-R_crTC/VTK-6.1.0/Rendering/LIC/vtkImageDataLIC2DExtentTranslator.cxx' line='24' column='1' visibility='default' binding='global' size-in-bits='64' elf-symbol-id='_ZN33vtkImageDataLIC2DExtentTranslator24SetInputExtentTranslatorEP19vtkExtentTranslator'>
          <!-- implicit parameter of type 'vtkImageDataLIC2DExtentTranslator* const' -->
          <parameter type-id='type-id-65' name='this' is-artificial='yes'/>
          <!-- parameter of type 'vtkExtentTranslator*' -->
          <parameter type-id='type-id-61' name='_arg' filepath='/tmp/legendre/spack-stage/spack-stage-R_crTC/VTK-6.1.0/Rendering/LIC/vtkImageDataLIC2DExtentTranslator.cxx' line='24' column='1'/>
          <!-- void -->
          <return type-id='type-id-27'/>
        </function-decl>
      </member-function>
      <member-function access='private'>
        <!-- vtkImageDataLIC2D* vtkImageDataLIC2DExtentTranslator::GetAlgorithm() -->
        <function-decl name='GetAlgorithm' mangled-name='_ZN33vtkImageDataLIC2DExtentTranslator12GetAlgorithmEv' filepath='/tmp/legendre/spack-stage/spack-stage-R_crTC/VTK-6.1.0/Rendering/LIC/vtkImageDataLIC2DExtentTranslator.cxx' line='60' column='1' visibility='default' binding='global' size-in-bits='64' elf-symbol-id='_ZN33vtkImageDataLIC2DExtentTranslator12GetAlgorithmEv'>
          <!-- implicit parameter of type 'vtkImageDataLIC2DExtentTranslator* const' -->
          <parameter type-id='type-id-65' name='this' is-artificial='yes'/>
          <!-- vtkImageDataLIC2D* -->
          <return type-id='type-id-66'/>
        </function-decl>
      </member-function>
      <member-function access='private'>
        <!-- void vtkImageDataLIC2DExtentTranslator::SetAlgorithm(vtkImageDataLIC2D*) -->
        <function-decl name='SetAlgorithm' mangled-name='_ZN33vtkImageDataLIC2DExtentTranslator12SetAlgorithmEP17vtkImageDataLIC2D' filepath='/tmp/legendre/spack-stage/spack-stage-R_crTC/VTK-6.1.0/Rendering/LIC/vtkImageDataLIC2DExtentTranslator.cxx' line='49' column='1' visibility='default' binding='global' size-in-bits='64' elf-symbol-id='_ZN33vtkImageDataLIC2DExtentTranslator12SetAlgorithmEP17vtkImageDataLIC2D'>
          <!-- implicit parameter of type 'vtkImageDataLIC2DExtentTranslator* const' -->
          <parameter type-id='type-id-65' name='this' is-artificial='yes'/>
          <!-- parameter of type 'vtkImageDataLIC2D*' -->
          <parameter type-id='type-id-66' name='alg' filepath='/tmp/legendre/spack-stage/spack-stage-R_crTC/VTK-6.1.0/Rendering/LIC/vtkImageDataLIC2DExtentTranslator.cxx' line='50' column='1'/>
          <!-- void -->
          <return type-id='type-id-27'/>
        </function-decl>
      </member-function>
      <member-function access='private' static='yes'>
        <!-- vtkImageDataLIC2DExtentTranslator* vtkImageDataLIC2DExtentTranslator::New() -->
        <function-decl name='New' mangled-name='_ZN33vtkImageDataLIC2DExtentTranslator3NewEv' filepath='/tmp/legendre/spack-stage/spack-stage-R_crTC/VTK-6.1.0/Rendering/LIC/vtkImageDataLIC2DExtentTranslator.cxx' line='21' column='1' visibility='default' binding='global' size-in-bits='64' elf-symbol-id='_ZN33vtkImageDataLIC2DExtentTranslator3NewEv'>
          <!-- vtkImageDataLIC2DExtentTranslator* -->
          <return type-id='type-id-63'/>
        </function-decl>
      </member-function>
      <member-function access='protected' destructor='yes' vtable-offset='-1'>
        <!-- vtkImageDataLIC2DExtentTranslator::~vtkImageDataLIC2DExtentTranslator(int) -->
        <function-decl name='~vtkImageDataLIC2DExtentTranslator' mangled-name='_ZN33vtkImageDataLIC2DExtentTranslatorD1Ev' filepath='/tmp/legendre/spack-stage/spack-stage-R_crTC/VTK-6.1.0/Rendering/LIC/vtkImageDataLIC2DExtentTranslator.cxx' line='43' column='1' visibility='default' binding='global' size-in-bits='64' elf-symbol-id='_ZN33vtkImageDataLIC2DExtentTranslatorD1Ev'>
          <!-- implicit parameter of type 'vtkImageDataLIC2DExtentTranslator*' -->
          <parameter type-id='type-id-63' is-artificial='yes'/>
          <!-- artificial parameter of type 'int' -->
          <parameter type-id='type-id-17' is-artificial='yes'/>
          <!-- void -->
          <return type-id='type-id-27'/>
        </function-decl>
      </member-function>
      <member-function access='private' vtable-offset='0'>
        <!-- const char* vtkImageDataLIC2DExtentTranslator::GetClassNameInternal() -->
        <function-decl name='GetClassNameInternal' mangled-name='_ZNK33vtkImageDataLIC2DExtentTranslator20GetClassNameInternalEv' filepath='/tmp/legendre/spack-stage/spack-stage-R_crTC/VTK-6.1.0/Rendering/LIC/vtkImageDataLIC2DExtentTranslator.h' line='35' column='1' visibility='default' binding='global' size-in-bits='64'>
          <!-- implicit parameter of type 'const vtkImageDataLIC2DExtentTranslator*' -->
          <parameter type-id='type-id-67' is-artificial='yes'/>
          <!-- const char* -->
          <return type-id='type-id-68'/>
        </function-decl>
      </member-function>
      <member-function access='private' vtable-offset='1'>
        <!-- int vtkImageDataLIC2DExtentTranslator::IsA(const char*) -->
        <function-decl name='IsA' mangled-name='_ZN33vtkImageDataLIC2DExtentTranslator3IsAEPKc' filepath='/tmp/legendre/spack-stage/spack-stage-R_crTC/VTK-6.1.0/Rendering/LIC/vtkImageDataLIC2DExtentTranslator.h' line='35' column='1' visibility='default' binding='global' size-in-bits='64'>
          <!-- implicit parameter of type 'vtkImageDataLIC2DExtentTranslator*' -->
          <parameter type-id='type-id-63' is-artificial='yes'/>
          <!-- parameter of type 'const char*' -->
          <parameter type-id='type-id-68'/>
          <!-- int -->
          <return type-id='type-id-17'/>
        </function-decl>
      </member-function>
      <member-function access='private' vtable-offset='4'>
        <!-- void vtkImageDataLIC2DExtentTranslator::PrintSelf(std::ostream&, vtkIndent) -->
        <function-decl name='PrintSelf' mangled-name='_ZN33vtkImageDataLIC2DExtentTranslator9PrintSelfERSo9vtkIndent' filepath='/tmp/legendre/spack-stage/spack-stage-R_crTC/VTK-6.1.0/Rendering/LIC/vtkImageDataLIC2DExtentTranslator.cxx' line='107' column='1' visibility='default' binding='global' size-in-bits='64' elf-symbol-id='_ZN33vtkImageDataLIC2DExtentTranslator9PrintSelfERSo9vtkIndent'>
          <!-- implicit parameter of type 'vtkImageDataLIC2DExtentTranslator*' -->
          <parameter type-id='type-id-63' is-artificial='yes'/>
          <!-- parameter of type 'std::ostream&' -->
          <parameter type-id='type-id-69'/>
          <!-- parameter of type 'class vtkIndent' -->
          <parameter type-id='type-id-70'/>
          <!-- void -->
          <return type-id='type-id-27'/>
        </function-decl>
      </member-function>
      <member-function access='protected' vtable-offset='15'>
        <!-- vtkObjectBase* vtkImageDataLIC2DExtentTranslator::NewInstanceInternal() -->
        <function-decl name='NewInstanceInternal' mangled-name='_ZNK33vtkImageDataLIC2DExtentTranslator19NewInstanceInternalEv' filepath='/tmp/legendre/spack-stage/spack-stage-R_crTC/VTK-6.1.0/Rendering/LIC/vtkImageDataLIC2DExtentTranslator.h' line='35' column='1' visibility='default' binding='global' size-in-bits='64'>
          <!-- implicit parameter of type 'const vtkImageDataLIC2DExtentTranslator*' -->
          <parameter type-id='type-id-67' is-artificial='yes'/>
          <!-- vtkObjectBase* -->
          <return type-id='type-id-71'/>
        </function-decl>
      </member-function>
      <member-function access='private' vtable-offset='38'>
        <!-- int vtkImageDataLIC2DExtentTranslator::PieceToExtentThreadSafe(int, int, int, int*, int*, int, int) -->
        <function-decl name='PieceToExtentThreadSafe' mangled-name='_ZN33vtkImageDataLIC2DExtentTranslator23PieceToExtentThreadSafeEiiiPiS0_ii' filepath='/tmp/legendre/spack-stage/spack-stage-R_crTC/VTK-6.1.0/Rendering/LIC/vtkImageDataLIC2DExtentTranslator.cxx' line='66' column='1' visibility='default' binding='global' size-in-bits='64' elf-symbol-id='_ZN33vtkImageDataLIC2DExtentTranslator23PieceToExtentThreadSafeEiiiPiS0_ii'>
          <!-- implicit parameter of type 'vtkImageDataLIC2DExtentTranslator*' -->
          <parameter type-id='type-id-63' is-artificial='yes'/>
          <!-- parameter of type 'int' -->
          <parameter type-id='type-id-17'/>
          <!-- parameter of type 'int' -->
          <parameter type-id='type-id-17'/>
          <!-- parameter of type 'int' -->
          <parameter type-id='type-id-17'/>
          <!-- parameter of type 'int*' -->
          <parameter type-id='type-id-52'/>
          <!-- parameter of type 'int*' -->
          <parameter type-id='type-id-52'/>
          <!-- parameter of type 'int' -->
          <parameter type-id='type-id-17'/>
          <!-- parameter of type 'int' -->
          <parameter type-id='type-id-17'/>
          <!-- int -->
          <return type-id='type-id-17'/>
        </function-decl>
      </member-function>
      <member-function access='private' vtable-offset='40'>
        <!-- vtkExtentTranslator* vtkImageDataLIC2DExtentTranslator::GetInputExtentTranslator() -->
        <function-decl name='GetInputExtentTranslator' mangled-name='_ZN33vtkImageDataLIC2DExtentTranslator24GetInputExtentTranslatorEv' filepath='/tmp/legendre/spack-stage/spack-stage-R_crTC/VTK-6.1.0/Rendering/LIC/vtkImageDataLIC2DExtentTranslator.h' line='46' column='1' visibility='default' binding='global' size-in-bits='64'>
          <!-- implicit parameter of type 'vtkImageDataLIC2DExtentTranslator*' -->
          <parameter type-id='type-id-63' is-artificial='yes'/>
          <!-- vtkExtentTranslator* -->
          <return type-id='type-id-61'/>
        </function-decl>
      </member-function>
      <member-function access='private' vtable-offset='41'>
        <!-- void vtkImageDataLIC2DExtentTranslator::SetInputWholeExtent(int, int, int, int, int, int) -->
        <function-decl name='SetInputWholeExtent' mangled-name='_ZN33vtkImageDataLIC2DExtentTranslator19SetInputWholeExtentEiiiiii' filepath='/tmp/legendre/spack-stage/spack-stage-R_crTC/VTK-6.1.0/Rendering/LIC/vtkImageDataLIC2DExtentTranslator.h' line='48' column='1' visibility='default' binding='global' size-in-bits='64'>
          <!-- implicit parameter of type 'vtkImageDataLIC2DExtentTranslator*' -->
          <parameter type-id='type-id-63' is-artificial='yes'/>
          <!-- parameter of type 'int' -->
          <parameter type-id='type-id-17'/>
          <!-- parameter of type 'int' -->
          <parameter type-id='type-id-17'/>
          <!-- parameter of type 'int' -->
          <parameter type-id='type-id-17'/>
          <!-- parameter of type 'int' -->
          <parameter type-id='type-id-17'/>
          <!-- parameter of type 'int' -->
          <parameter type-id='type-id-17'/>
          <!-- parameter of type 'int' -->
          <parameter type-id='type-id-17'/>
          <!-- void -->
          <return type-id='type-id-27'/>
        </function-decl>
      </member-function>
      <member-function access='private' vtable-offset='42'>
        <!-- void vtkImageDataLIC2DExtentTranslator::SetInputWholeExtent(int*) -->
        <function-decl name='SetInputWholeExtent' mangled-name='_ZN33vtkImageDataLIC2DExtentTranslator19SetInputWholeExtentEPi' filepath='/tmp/legendre/spack-stage/spack-stage-R_crTC/VTK-6.1.0/Rendering/LIC/vtkImageDataLIC2DExtentTranslator.h' line='48' column='1' visibility='default' binding='global' size-in-bits='64'>
          <!-- implicit parameter of type 'vtkImageDataLIC2DExtentTranslator*' -->
          <parameter type-id='type-id-63' is-artificial='yes'/>
          <!-- parameter of type 'int*' -->
          <parameter type-id='type-id-52'/>
          <!-- void -->
          <return type-id='type-id-27'/>
        </function-decl>
      </member-function>
      <member-function access='private' vtable-offset='43'>
        <!-- int* vtkImageDataLIC2DExtentTranslator::GetInputWholeExtent() -->
        <function-decl name='GetInputWholeExtent' mangled-name='_ZN33vtkImageDataLIC2DExtentTranslator19GetInputWholeExtentEv' filepath='/tmp/legendre/spack-stage/spack-stage-R_crTC/VTK-6.1.0/Rendering/LIC/vtkImageDataLIC2DExtentTranslator.h' line='49' column='1' visibility='default' binding='global' size-in-bits='64'>
          <!-- implicit parameter of type 'vtkImageDataLIC2DExtentTranslator*' -->
          <parameter type-id='type-id-63' is-artificial='yes'/>
          <!-- int* -->
          <return type-id='type-id-52'/>
        </function-decl>
      </member-function>
      <member-function access='private' vtable-offset='44'>
        <!-- void vtkImageDataLIC2DExtentTranslator::GetInputWholeExtent(int&, int&, int&, int&, int&, int&) -->
        <function-decl name='GetInputWholeExtent' mangled-name='_ZN33vtkImageDataLIC2DExtentTranslator19GetInputWholeExtentERiS0_S0_S0_S0_S0_' filepath='/tmp/legendre/spack-stage/spack-stage-R_crTC/VTK-6.1.0/Rendering/LIC/vtkImageDataLIC2DExtentTranslator.h' line='49' column='1' visibility='default' binding='global' size-in-bits='64'>
          <!-- implicit parameter of type 'vtkImageDataLIC2DExtentTranslator*' -->
          <parameter type-id='type-id-63' is-artificial='yes'/>
          <!-- parameter of type 'int&' -->
          <parameter type-id='type-id-72'/>
          <!-- parameter of type 'int&' -->
          <parameter type-id='type-id-72'/>
          <!-- parameter of type 'int&' -->
          <parameter type-id='type-id-72'/>
          <!-- parameter of type 'int&' -->
          <parameter type-id='type-id-72'/>
          <!-- parameter of type 'int&' -->
          <parameter type-id='type-id-72'/>
          <!-- parameter of type 'int&' -->
          <parameter type-id='type-id-72'/>
          <!-- void -->
          <return type-id='type-id-27'/>
        </function-decl>
      </member-function>
      <member-function access='private' vtable-offset='45'>
        <!-- void vtkImageDataLIC2DExtentTranslator::GetInputWholeExtent(int*) -->
        <function-decl name='GetInputWholeExtent' mangled-name='_ZN33vtkImageDataLIC2DExtentTranslator19GetInputWholeExtentEPi' filepath='/tmp/legendre/spack-stage/spack-stage-R_crTC/VTK-6.1.0/Rendering/LIC/vtkImageDataLIC2DExtentTranslator.h' line='49' column='1' visibility='default' binding='global' size-in-bits='64'>
          <!-- implicit parameter of type 'vtkImageDataLIC2DExtentTranslator*' -->
          <parameter type-id='type-id-63' is-artificial='yes'/>
          <!-- parameter of type 'int*' -->
          <parameter type-id='type-id-52'/>
          <!-- void -->
          <return type-id='type-id-27'/>
        </function-decl>
      </member-function>
    </class-decl>
    <!-- class vtkWeakPointer<vtkRenderWindow> -->
    <class-decl name='vtkWeakPointer&lt;vtkRenderWindow&gt;' size-in-bits='64' visibility='default' filepath='/tmp/legendre/spack-stage/spack-stage-R_crTC/VTK-6.1.0/Common/Core/vtkWeakPointer.h' line='47' column='1' id='type-id-73'>
      <!-- class vtkWeakPointerBase -->
      <base-class access='public' layout-offset-in-bits='0' type-id='type-id-74'/>
      <member-function access='private'>
        <!-- void vtkWeakPointer<vtkRenderWindow>::vtkWeakPointer() -->
        <function-decl name='vtkWeakPointer' filepath='/tmp/legendre/spack-stage/spack-stage-R_crTC/VTK-6.1.0/Common/Core/vtkWeakPointer.h' line='51' column='1' visibility='default' binding='global' size-in-bits='64'>
          <!-- implicit parameter of type 'vtkWeakPointer<vtkRenderWindow>*' -->
          <parameter type-id='type-id-75' is-artificial='yes'/>
          <!-- void -->
          <return type-id='type-id-27'/>
        </function-decl>
      </member-function>
      <member-function access='private'>
        <!-- void vtkWeakPointer<vtkRenderWindow>::vtkWeakPointer(vtkRenderWindow*) -->
        <function-decl name='vtkWeakPointer' filepath='/tmp/legendre/spack-stage/spack-stage-R_crTC/VTK-6.1.0/Common/Core/vtkWeakPointer.h' line='55' column='1' visibility='default' binding='global' size-in-bits='64'>
          <!-- implicit parameter of type 'vtkWeakPointer<vtkRenderWindow>*' -->
          <parameter type-id='type-id-75' is-artificial='yes'/>
          <!-- parameter of type 'vtkRenderWindow*' -->
          <parameter type-id='type-id-76'/>
          <!-- void -->
          <return type-id='type-id-27'/>
        </function-decl>
      </member-function>
      <member-function access='private'>
        <!-- void vtkWeakPointer<vtkRenderWindow>::vtkWeakPointer(const vtkWeakPointerBase&) -->
        <function-decl name='vtkWeakPointer' filepath='/tmp/legendre/spack-stage/spack-stage-R_crTC/VTK-6.1.0/Common/Core/vtkWeakPointer.h' line='59' column='1' visibility='default' binding='global' size-in-bits='64'>
          <!-- implicit parameter of type 'vtkWeakPointer<vtkRenderWindow>*' -->
          <parameter type-id='type-id-75' is-artificial='yes'/>
          <!-- parameter of type 'const vtkWeakPointerBase&' -->
          <parameter type-id='type-id-77'/>
          <!-- void -->
          <return type-id='type-id-27'/>
        </function-decl>
      </member-function>
      <member-function access='protected'>
        <!-- void vtkWeakPointer<vtkRenderWindow>::vtkWeakPointer(vtkRenderWindow*, const vtkWeakPointerBase::NoReference&) -->
        <function-decl name='vtkWeakPointer' filepath='/tmp/legendre/spack-stage/spack-stage-R_crTC/VTK-6.1.0/Common/Core/vtkWeakPointer.h' line='133' column='1' visibility='default' binding='global' size-in-bits='64'>
          <!-- implicit parameter of type 'vtkWeakPointer<vtkRenderWindow>*' -->
          <parameter type-id='type-id-75' is-artificial='yes'/>
          <!-- parameter of type 'vtkRenderWindow*' -->
          <parameter type-id='type-id-76'/>
          <!-- parameter of type 'const vtkWeakPointerBase::NoReference&' -->
          <parameter type-id='type-id-78'/>
          <!-- void -->
          <return type-id='type-id-27'/>
        </function-decl>
      </member-function>
    </class-decl>
    <!-- struct lldiv_t -->
    <class-decl name='lldiv_t' size-in-bits='128' is-struct='yes' visibility='default' filepath='/usr/include/stdlib.h' line='119' column='1' id='type-id-79'>
      <data-member access='public' layout-offset-in-bits='0'>
        <!-- long long int lldiv_t::quot -->
        <var-decl name='quot' type-id='type-id-21' visibility='default' filepath='/usr/include/stdlib.h' line='120' column='1'/>
      </data-member>
      <data-member access='public' layout-offset-in-bits='64'>
        <!-- long long int lldiv_t::rem -->
        <var-decl name='rem' type-id='type-id-21' visibility='default' filepath='/usr/include/stdlib.h' line='121' column='1'/>
      </data-member>
    </class-decl>
    <!-- typedef unsigned int wint_t -->
    <typedef-decl name='wint_t' type-id='type-id-13' filepath='/usr/lib/gcc/x86_64-redhat-linux/4.4.7/include/stddef.h' line='352' column='1' id='type-id-80'/>
    <!-- typedef _IO_FILE __FILE -->
    <typedef-decl name='__FILE' type-id='type-id-30' filepath='/usr/include/stdio.h' line='65' column='1' id='type-id-81'/>
    <!-- typedef __mbstate_t mbstate_t -->
    <typedef-decl name='mbstate_t' type-id='type-id-82' filepath='/usr/include/wchar.h' line='106' column='1' id='type-id-83'/>
    <!-- struct __mbstate_t -->
    <class-decl name='__mbstate_t' size-in-bits='64' is-struct='yes' visibility='default' filepath='/usr/include/wchar.h' line='84' column='1' id='type-id-82'>
      <member-type access='public'>
        <!-- union {unsigned int __wch; char __wchb[4];} -->
        <union-decl name='__anonymous_union__' size-in-bits='32' is-anonymous='yes' visibility='default' filepath='/usr/include/wchar.h' line='87' column='1' id='type-id-84'>
          <data-member access='public'>
            <!-- unsigned int __wch -->
            <var-decl name='__wch' type-id='type-id-13' visibility='default' filepath='/usr/include/wchar.h' line='89' column='1'/>
          </data-member>
          <data-member access='public'>
            <!-- char __wchb[4] -->
            <var-decl name='__wchb' type-id='type-id-10' visibility='default' filepath='/usr/include/wchar.h' line='93' column='1'/>
          </data-member>
        </union-decl>
      </member-type>
      <data-member access='public' layout-offset-in-bits='0'>
        <!-- int __mbstate_t::__count -->
        <var-decl name='__count' type-id='type-id-17' visibility='default' filepath='/usr/include/wchar.h' line='85' column='1'/>
      </data-member>
      <data-member access='public' layout-offset-in-bits='32'>
        <!-- union {unsigned int __wch; char __wchb[4];} __mbstate_t::__value -->
        <var-decl name='__value' type-id='type-id-84' visibility='default' filepath='/usr/include/wchar.h' line='94' column='1'/>
      </data-member>
    </class-decl>
    <!-- struct tm -->
    <class-decl name='tm' size-in-bits='448' is-struct='yes' visibility='default' filepath='/usr/include/time.h' line='134' column='1' id='type-id-85'>
      <data-member access='public' layout-offset-in-bits='0'>
        <!-- int tm::tm_sec -->
        <var-decl name='tm_sec' type-id='type-id-17' visibility='default' filepath='/usr/include/time.h' line='135' column='1'/>
      </data-member>
      <data-member access='public' layout-offset-in-bits='32'>
        <!-- int tm::tm_min -->
        <var-decl name='tm_min' type-id='type-id-17' visibility='default' filepath='/usr/include/time.h' line='136' column='1'/>
      </data-member>
      <data-member access='public' layout-offset-in-bits='64'>
        <!-- int tm::tm_hour -->
        <var-decl name='tm_hour' type-id='type-id-17' visibility='default' filepath='/usr/include/time.h' line='137' column='1'/>
      </data-member>
      <data-member access='public' layout-offset-in-bits='96'>
        <!-- int tm::tm_mday -->
        <var-decl name='tm_mday' type-id='type-id-17' visibility='default' filepath='/usr/include/time.h' line='138' column='1'/>
      </data-member>
      <data-member access='public' layout-offset-in-bits='128'>
        <!-- int tm::tm_mon -->
        <var-decl name='tm_mon' type-id='type-id-17' visibility='default' filepath='/usr/include/time.h' line='139' column='1'/>
      </data-member>
      <data-member access='public' layout-offset-in-bits='160'>
        <!-- int tm::tm_year -->
        <var-decl name='tm_year' type-id='type-id-17' visibility='default' filepath='/usr/include/time.h' line='140' column='1'/>
      </data-member>
      <data-member access='public' layout-offset-in-bits='192'>
        <!-- int tm::tm_wday -->
        <var-decl name='tm_wday' type-id='type-id-17' visibility='default' filepath='/usr/include/time.h' line='141' column='1'/>
      </data-member>
      <data-member access='public' layout-offset-in-bits='224'>
        <!-- int tm::tm_yday -->
        <var-decl name='tm_yday' type-id='type-id-17' visibility='default' filepath='/usr/include/time.h' line='142' column='1'/>
      </data-member>
      <data-member access='public' layout-offset-in-bits='256'>
        <!-- int tm::tm_isdst -->
        <var-decl name='tm_isdst' type-id='type-id-17' visibility='default' filepath='/usr/include/time.h' line='143' column='1'/>
      </data-member>
      <data-member access='public' layout-offset-in-bits='320'>
        <!-- long int tm::tm_gmtoff -->
        <var-decl name='tm_gmtoff' type-id='type-id-20' visibility='default' filepath='/usr/include/time.h' line='146' column='1'/>
      </data-member>
      <data-member access='public' layout-offset-in-bits='384'>
        <!-- const char* tm::tm_zone -->
        <var-decl name='tm_zone' type-id='type-id-68' visibility='default' filepath='/usr/include/time.h' line='147' column='1'/>
      </data-member>
    </class-decl>
    <!-- struct lconv -->
    <class-decl name='lconv' size-in-bits='768' is-struct='yes' visibility='default' filepath='/usr/include/locale.h' line='55' column='1' id='type-id-86'>
      <data-member access='public' layout-offset-in-bits='0'>
        <!-- char* lconv::decimal_point -->
        <var-decl name='decimal_point' type-id='type-id-32' visibility='default' filepath='/usr/include/locale.h' line='58' column='1'/>
      </data-member>
      <data-member access='public' layout-offset-in-bits='64'>
        <!-- char* lconv::thousands_sep -->
        <var-decl name='thousands_sep' type-id='type-id-32' visibility='default' filepath='/usr/include/locale.h' line='59' column='1'/>
      </data-member>
      <data-member access='public' layout-offset-in-bits='128'>
        <!-- char* lconv::grouping -->
        <var-decl name='grouping' type-id='type-id-32' visibility='default' filepath='/usr/include/locale.h' line='65' column='1'/>
      </data-member>
      <data-member access='public' layout-offset-in-bits='192'>
        <!-- char* lconv::int_curr_symbol -->
        <var-decl name='int_curr_symbol' type-id='type-id-32' visibility='default' filepath='/usr/include/locale.h' line='71' column='1'/>
      </data-member>
      <data-member access='public' layout-offset-in-bits='256'>
        <!-- char* lconv::currency_symbol -->
        <var-decl name='currency_symbol' type-id='type-id-32' visibility='default' filepath='/usr/include/locale.h' line='72' column='1'/>
      </data-member>
      <data-member access='public' layout-offset-in-bits='320'>
        <!-- char* lconv::mon_decimal_point -->
        <var-decl name='mon_decimal_point' type-id='type-id-32' visibility='default' filepath='/usr/include/locale.h' line='73' column='1'/>
      </data-member>
      <data-member access='public' layout-offset-in-bits='384'>
        <!-- char* lconv::mon_thousands_sep -->
        <var-decl name='mon_thousands_sep' type-id='type-id-32' visibility='default' filepath='/usr/include/locale.h' line='74' column='1'/>
      </data-member>
      <data-member access='public' layout-offset-in-bits='448'>
        <!-- char* lconv::mon_grouping -->
        <var-decl name='mon_grouping' type-id='type-id-32' visibility='default' filepath='/usr/include/locale.h' line='75' column='1'/>
      </data-member>
      <data-member access='public' layout-offset-in-bits='512'>
        <!-- char* lconv::positive_sign -->
        <var-decl name='positive_sign' type-id='type-id-32' visibility='default' filepath='/usr/include/locale.h' line='76' column='1'/>
      </data-member>
      <data-member access='public' layout-offset-in-bits='576'>
        <!-- char* lconv::negative_sign -->
        <var-decl name='negative_sign' type-id='type-id-32' visibility='default' filepath='/usr/include/locale.h' line='77' column='1'/>
      </data-member>
      <data-member access='public' layout-offset-in-bits='640'>
        <!-- char lconv::int_frac_digits -->
        <var-decl name='int_frac_digits' type-id='type-id-2' visibility='default' filepath='/usr/include/locale.h' line='78' column='1'/>
      </data-member>
      <data-member access='public' layout-offset-in-bits='648'>
        <!-- char lconv::frac_digits -->
        <var-decl name='frac_digits' type-id='type-id-2' visibility='default' filepath='/usr/include/locale.h' line='79' column='1'/>
      </data-member>
      <data-member access='public' layout-offset-in-bits='656'>
        <!-- char lconv::p_cs_precedes -->
        <var-decl name='p_cs_precedes' type-id='type-id-2' visibility='default' filepath='/usr/include/locale.h' line='81' column='1'/>
      </data-member>
      <data-member access='public' layout-offset-in-bits='664'>
        <!-- char lconv::p_sep_by_space -->
        <var-decl name='p_sep_by_space' type-id='type-id-2' visibility='default' filepath='/usr/include/locale.h' line='83' column='1'/>
      </data-member>
      <data-member access='public' layout-offset-in-bits='672'>
        <!-- char lconv::n_cs_precedes -->
        <var-decl name='n_cs_precedes' type-id='type-id-2' visibility='default' filepath='/usr/include/locale.h' line='85' column='1'/>
      </data-member>
      <data-member access='public' layout-offset-in-bits='680'>
        <!-- char lconv::n_sep_by_space -->
        <var-decl name='n_sep_by_space' type-id='type-id-2' visibility='default' filepath='/usr/include/locale.h' line='87' column='1'/>
      </data-member>
      <data-member access='public' layout-offset-in-bits='688'>
        <!-- char lconv::p_sign_posn -->
        <var-decl name='p_sign_posn' type-id='type-id-2' visibility='default' filepath='/usr/include/locale.h' line='94' column='1'/>
      </data-member>
      <data-member access='public' layout-offset-in-bits='696'>
        <!-- char lconv::n_sign_posn -->
        <var-decl name='n_sign_posn' type-id='type-id-2' visibility='default' filepath='/usr/include/locale.h' line='95' column='1'/>
      </data-member>
      <data-member access='public' layout-offset-in-bits='704'>
        <!-- char lconv::int_p_cs_precedes -->
        <var-decl name='int_p_cs_precedes' type-id='type-id-2' visibility='default' filepath='/usr/include/locale.h' line='98' column='1'/>
      </data-member>
      <data-member access='public' layout-offset-in-bits='712'>
        <!-- char lconv::int_p_sep_by_space -->
        <var-decl name='int_p_sep_by_space' type-id='type-id-2' visibility='default' filepath='/usr/include/locale.h' line='100' column='1'/>
      </data-member>
      <data-member access='public' layout-offset-in-bits='720'>
        <!-- char lconv::int_n_cs_precedes -->
        <var-decl name='int_n_cs_precedes' type-id='type-id-2' visibility='default' filepath='/usr/include/locale.h' line='102' column='1'/>
      </data-member>
      <data-member access='public' layout-offset-in-bits='728'>
        <!-- char lconv::int_n_sep_by_space -->
        <var-decl name='int_n_sep_by_space' type-id='type-id-2' visibility='default' filepath='/usr/include/locale.h' line='104' column='1'/>
      </data-member>
      <data-member access='public' layout-offset-in-bits='736'>
        <!-- char lconv::int_p_sign_posn -->
        <var-decl name='int_p_sign_posn' type-id='type-id-2' visibility='default' filepath='/usr/include/locale.h' line='111' column='1'/>
      </data-member>
      <data-member access='public' layout-offset-in-bits='744'>
        <!-- char lconv::int_n_sign_posn -->
        <var-decl name='int_n_sign_posn' type-id='type-id-2' visibility='default' filepath='/usr/include/locale.h' line='112' column='1'/>
      </data-member>
    </class-decl>
    <!-- typedef unsigned long int wctype_t -->
    <typedef-decl name='wctype_t' type-id='type-id-4' filepath='/usr/include/wctype.h' line='53' column='1' id='type-id-87'/>
    <!-- typedef const __int32_t* wctrans_t -->
    <typedef-decl name='wctrans_t' type-id='type-id-88' filepath='/usr/include/wctype.h' line='187' column='1' id='type-id-89'/>
    <!-- typedef int __int32_t -->
    <typedef-decl name='__int32_t' type-id='type-id-17' filepath='/usr/include/bits/types.h' line='41' column='1' id='type-id-90'/>
    <!-- typedef _G_fpos64_t fpos_t -->
    <typedef-decl name='fpos_t' type-id='type-id-91' filepath='/usr/include/stdio.h' line='113' column='1' id='type-id-92'/>
    <!-- struct _G_fpos64_t -->
    <class-decl name='_G_fpos64_t' size-in-bits='128' is-struct='yes' visibility='default' filepath='/usr/include/_G_config.h' line='28' column='1' id='type-id-91'>
      <data-member access='public' layout-offset-in-bits='0'>
        <!-- __off64_t _G_fpos64_t::__pos -->
        <var-decl name='__pos' type-id='type-id-37' visibility='default' filepath='/usr/include/_G_config.h' line='29' column='1'/>
      </data-member>
      <data-member access='public' layout-offset-in-bits='64'>
        <!-- __mbstate_t _G_fpos64_t::__state -->
        <var-decl name='__state' type-id='type-id-82' visibility='default' filepath='/usr/include/_G_config.h' line='30' column='1'/>
      </data-member>
    </class-decl>
    <!-- typedef int (void*, void*)* __compar_fn_t -->
    <typedef-decl name='__compar_fn_t' type-id='type-id-93' filepath='/usr/include/stdlib.h' line='742' column='1' id='type-id-94'/>
    <!-- struct div_t -->
    <class-decl name='div_t' size-in-bits='64' is-struct='yes' visibility='default' filepath='/usr/include/stdlib.h' line='99' column='1' id='type-id-95'>
      <data-member access='public' layout-offset-in-bits='0'>
        <!-- int div_t::quot -->
        <var-decl name='quot' type-id='type-id-17' visibility='default' filepath='/usr/include/stdlib.h' line='100' column='1'/>
      </data-member>
      <data-member access='public' layout-offset-in-bits='32'>
        <!-- int div_t::rem -->
        <var-decl name='rem' type-id='type-id-17' visibility='default' filepath='/usr/include/stdlib.h' line='101' column='1'/>
      </data-member>
    </class-decl>
    <!-- struct ldiv_t -->
    <class-decl name='ldiv_t' size-in-bits='128' is-struct='yes' visibility='default' filepath='/usr/include/stdlib.h' line='107' column='1' id='type-id-96'>
      <data-member access='public' layout-offset-in-bits='0'>
        <!-- long int ldiv_t::quot -->
        <var-decl name='quot' type-id='type-id-20' visibility='default' filepath='/usr/include/stdlib.h' line='108' column='1'/>
      </data-member>
      <data-member access='public' layout-offset-in-bits='64'>
        <!-- long int ldiv_t::rem -->
        <var-decl name='rem' type-id='type-id-20' visibility='default' filepath='/usr/include/stdlib.h' line='109' column='1'/>
      </data-member>
    </class-decl>
    <!-- class vtkWeakPointerBase -->
    <class-decl name='vtkWeakPointerBase' size-in-bits='64' visibility='default' filepath='/tmp/legendre/spack-stage/spack-stage-R_crTC/VTK-6.1.0/Common/Core/vtkWeakPointerBase.h' line='31' column='1' id='type-id-74'>
      <member-type access='protected'>
        <!-- class vtkWeakPointerBase::NoReference -->
        <class-decl name='NoReference' size-in-bits='8' visibility='default' filepath='/tmp/legendre/spack-stage/spack-stage-R_crTC/VTK-6.1.0/Common/Core/vtkWeakPointerBase.h' line='70' column='1' id='type-id-97'/>
      </member-type>
      <data-member access='protected' layout-offset-in-bits='0'>
        <!-- vtkObjectBase* vtkWeakPointerBase::Object -->
        <var-decl name='Object' type-id='type-id-71' visibility='default' filepath='/tmp/legendre/spack-stage/spack-stage-R_crTC/VTK-6.1.0/Common/Core/vtkWeakPointerBase.h' line='74' column='1'/>
      </data-member>
      <member-function access='private' constructor='yes'>
        <!-- vtkWeakPointerBase::vtkWeakPointerBase() -->
        <function-decl name='vtkWeakPointerBase' filepath='/tmp/legendre/spack-stage/spack-stage-R_crTC/VTK-6.1.0/Common/Core/vtkWeakPointerBase.h' line='35' column='1' visibility='default' binding='global' size-in-bits='64'>
          <!-- implicit parameter of type 'vtkWeakPointerBase*' -->
          <parameter type-id='type-id-98' is-artificial='yes'/>
          <!-- void -->
          <return type-id='type-id-27'/>
        </function-decl>
      </member-function>
      <member-function access='private' constructor='yes'>
        <!-- vtkWeakPointerBase::vtkWeakPointerBase(vtkObjectBase*) -->
        <function-decl name='vtkWeakPointerBase' filepath='/tmp/legendre/spack-stage/spack-stage-R_crTC/VTK-6.1.0/Common/Core/vtkWeakPointerBase.h' line='39' column='1' visibility='default' binding='global' size-in-bits='64'>
          <!-- implicit parameter of type 'vtkWeakPointerBase*' -->
          <parameter type-id='type-id-98' is-artificial='yes'/>
          <!-- parameter of type 'vtkObjectBase*' -->
          <parameter type-id='type-id-71'/>
          <!-- void -->
          <return type-id='type-id-27'/>
        </function-decl>
      </member-function>
      <member-function access='private' constructor='yes'>
        <!-- vtkWeakPointerBase::vtkWeakPointerBase(const vtkWeakPointerBase&) -->
        <function-decl name='vtkWeakPointerBase' filepath='/tmp/legendre/spack-stage/spack-stage-R_crTC/VTK-6.1.0/Common/Core/vtkWeakPointerBase.h' line='43' column='1' visibility='default' binding='global' size-in-bits='64'>
          <!-- implicit parameter of type 'vtkWeakPointerBase*' -->
          <parameter type-id='type-id-98' is-artificial='yes'/>
          <!-- parameter of type 'const vtkWeakPointerBase&' -->
          <parameter type-id='type-id-77'/>
          <!-- void -->
          <return type-id='type-id-27'/>
        </function-decl>
      </member-function>
      <member-function access='private' destructor='yes'>
        <!-- vtkWeakPointerBase::~vtkWeakPointerBase(int) -->
        <function-decl name='~vtkWeakPointerBase' filepath='/tmp/legendre/spack-stage/spack-stage-R_crTC/VTK-6.1.0/Common/Core/vtkWeakPointerBase.h' line='47' column='1' visibility='default' binding='global' size-in-bits='64'>
          <!-- implicit parameter of type 'vtkWeakPointerBase*' -->
          <parameter type-id='type-id-98' is-artificial='yes'/>
          <!-- artificial parameter of type 'int' -->
          <parameter type-id='type-id-17' is-artificial='yes'/>
          <!-- void -->
          <return type-id='type-id-27'/>
        </function-decl>
      </member-function>
      <member-function access='protected' constructor='yes'>
        <!-- vtkWeakPointerBase::vtkWeakPointerBase(vtkObjectBase*, const vtkWeakPointerBase::NoReference&) -->
        <function-decl name='vtkWeakPointerBase' filepath='/tmp/legendre/spack-stage/spack-stage-R_crTC/VTK-6.1.0/Common/Core/vtkWeakPointerBase.h' line='71' column='1' visibility='default' binding='global' size-in-bits='64'>
          <!-- implicit parameter of type 'vtkWeakPointerBase*' -->
          <parameter type-id='type-id-98' is-artificial='yes'/>
          <!-- parameter of type 'vtkObjectBase*' -->
          <parameter type-id='type-id-71'/>
          <!-- parameter of type 'const vtkWeakPointerBase::NoReference&' -->
          <parameter type-id='type-id-78'/>
          <!-- void -->
          <return type-id='type-id-27'/>
        </function-decl>
      </member-function>
    </class-decl>
    <!-- class vtkImageDataLIC2D -->
    <class-decl name='vtkImageDataLIC2D' size-in-bits='1472' visibility='default' filepath='/tmp/legendre/spack-stage/spack-stage-R_crTC/VTK-6.1.0/Rendering/LIC/vtkImageDataLIC2D.h' line='45' column='1' id='type-id-99'>
      <!-- class vtkImageAlgorithm -->
      <base-class access='public' layout-offset-in-bits='0' type-id='type-id-100'/>
      <data-member access='protected' layout-offset-in-bits='1024'>
        <!-- vtkWeakPointer<vtkRenderWindow> vtkImageDataLIC2D::Context -->
        <var-decl name='Context' type-id='type-id-73' visibility='default' filepath='/tmp/legendre/spack-stage/spack-stage-R_crTC/VTK-6.1.0/Rendering/LIC/vtkImageDataLIC2D.h' line='121' column='1'/>
      </data-member>
      <data-member access='protected' layout-offset-in-bits='1088'>
        <!-- bool vtkImageDataLIC2D::OwnWindow -->
        <var-decl name='OwnWindow' type-id='type-id-1' visibility='default' filepath='/tmp/legendre/spack-stage/spack-stage-R_crTC/VTK-6.1.0/Rendering/LIC/vtkImageDataLIC2D.h' line='122' column='1'/>
      </data-member>
      <data-member access='protected' layout-offset-in-bits='1120'>
        <!-- int vtkImageDataLIC2D::OpenGLExtensionsSupported -->
        <var-decl name='OpenGLExtensionsSupported' type-id='type-id-17' visibility='default' filepath='/tmp/legendre/spack-stage/spack-stage-R_crTC/VTK-6.1.0/Rendering/LIC/vtkImageDataLIC2D.h' line='123' column='1'/>
      </data-member>
      <data-member access='protected' layout-offset-in-bits='1152'>
        <!-- vtkShaderProgram2* vtkImageDataLIC2D::MagShader -->
        <var-decl name='MagShader' type-id='type-id-101' visibility='default' filepath='/tmp/legendre/spack-stage/spack-stage-R_crTC/VTK-6.1.0/Rendering/LIC/vtkImageDataLIC2D.h' line='125' column='1'/>
      </data-member>
      <data-member access='protected' layout-offset-in-bits='1216'>
        <!-- vtkImageNoiseSource* vtkImageDataLIC2D::NoiseSource -->
        <var-decl name='NoiseSource' type-id='type-id-102' visibility='default' filepath='/tmp/legendre/spack-stage/spack-stage-R_crTC/VTK-6.1.0/Rendering/LIC/vtkImageDataLIC2D.h' line='127' column='1'/>
      </data-member>
      <data-member access='protected' layout-offset-in-bits='1280'>
        <!-- int vtkImageDataLIC2D::Steps -->
        <var-decl name='Steps' type-id='type-id-17' visibility='default' filepath='/tmp/legendre/spack-stage/spack-stage-R_crTC/VTK-6.1.0/Rendering/LIC/vtkImageDataLIC2D.h' line='129' column='1'/>
      </data-member>
      <data-member access='protected' layout-offset-in-bits='1344'>
        <!-- double vtkImageDataLIC2D::StepSize -->
        <var-decl name='StepSize' type-id='type-id-15' visibility='default' filepath='/tmp/legendre/spack-stage/spack-stage-R_crTC/VTK-6.1.0/Rendering/LIC/vtkImageDataLIC2D.h' line='130' column='1'/>
      </data-member>
      <data-member access='protected' layout-offset-in-bits='1408'>
        <!-- int vtkImageDataLIC2D::Magnification -->
        <var-decl name='Magnification' type-id='type-id-17' visibility='default' filepath='/tmp/legendre/spack-stage/spack-stage-R_crTC/VTK-6.1.0/Rendering/LIC/vtkImageDataLIC2D.h' line='131' column='1'/>
      </data-member>
      <member-function access='protected' constructor='yes'>
        <!-- vtkImageDataLIC2D::vtkImageDataLIC2D() -->
        <function-decl name='vtkImageDataLIC2D' mangled-name='_ZN17vtkImageDataLIC2DC1Ev' filepath='/tmp/legendre/spack-stage/spack-stage-R_crTC/VTK-6.1.0/Rendering/LIC/vtkImageDataLIC2D.cxx' line='62' column='1' visibility='default' binding='global' size-in-bits='64' elf-symbol-id='_ZN17vtkImageDataLIC2DC1Ev'>
          <!-- implicit parameter of type 'vtkImageDataLIC2D*' -->
          <parameter type-id='type-id-66' is-artificial='yes'/>
          <!-- void -->
          <return type-id='type-id-27'/>
        </function-decl>
      </member-function>
      <member-function access='private' constructor='yes'>
        <!-- vtkImageDataLIC2D::vtkImageDataLIC2D(const vtkImageDataLIC2D&) -->
        <function-decl name='vtkImageDataLIC2D' filepath='/tmp/legendre/spack-stage/spack-stage-R_crTC/VTK-6.1.0/Rendering/LIC/vtkImageDataLIC2D.h' line='136' column='1' visibility='default' binding='global' size-in-bits='64'>
          <!-- implicit parameter of type 'vtkImageDataLIC2D*' -->
          <parameter type-id='type-id-66' is-artificial='yes'/>
          <!-- parameter of type 'const vtkImageDataLIC2D&' -->
          <parameter type-id='type-id-103'/>
          <!-- void -->
          <return type-id='type-id-27'/>
        </function-decl>
      </member-function>
      <member-function access='private'>
        <!-- vtkRenderWindow* vtkImageDataLIC2D::GetContext() -->
        <function-decl name='GetContext' mangled-name='_ZN17vtkImageDataLIC2D10GetContextEv' filepath='/tmp/legendre/spack-stage/spack-stage-R_crTC/VTK-6.1.0/Rendering/LIC/vtkImageDataLIC2D.cxx' line='176' column='1' visibility='default' binding='global' size-in-bits='64' elf-symbol-id='_ZN17vtkImageDataLIC2D10GetContextEv'>
          <!-- implicit parameter of type 'vtkImageDataLIC2D* const' -->
          <parameter type-id='type-id-104' name='this' is-artificial='yes'/>
          <!-- vtkRenderWindow* -->
          <return type-id='type-id-76'/>
        </function-decl>
      </member-function>
      <member-function access='private'>
        <!-- void vtkImageDataLIC2D::TranslateInputExtent(const int*, const int*, int*) -->
        <function-decl name='TranslateInputExtent' mangled-name='_ZN17vtkImageDataLIC2D20TranslateInputExtentEPKiS1_Pi' filepath='/tmp/legendre/spack-stage/spack-stage-R_crTC/VTK-6.1.0/Rendering/LIC/vtkImageDataLIC2D.cxx' line='198' column='1' visibility='default' binding='global' size-in-bits='64' elf-symbol-id='_ZN17vtkImageDataLIC2D20TranslateInputExtentEPKiS1_Pi'>
          <!-- implicit parameter of type 'vtkImageDataLIC2D* const' -->
          <parameter type-id='type-id-104' name='this' is-artificial='yes'/>
          <!-- parameter of type 'const int*' -->
          <parameter type-id='type-id-51' name='inExt' filepath='/tmp/legendre/spack-stage/spack-stage-R_crTC/VTK-6.1.0/Rendering/LIC/vtkImageDataLIC2D.cxx' line='199' column='1'/>
          <!-- parameter of type 'const int*' -->
          <parameter type-id='type-id-51' name='inWholeExt' filepath='/tmp/legendre/spack-stage/spack-stage-R_crTC/VTK-6.1.0/Rendering/LIC/vtkImageDataLIC2D.cxx' line='200' column='1'/>
          <!-- parameter of type 'int*' -->
          <parameter type-id='type-id-52' name='resultExt' filepath='/tmp/legendre/spack-stage/spack-stage-R_crTC/VTK-6.1.0/Rendering/LIC/vtkImageDataLIC2D.cxx' line='201' column='1'/>
          <!-- void -->
          <return type-id='type-id-27'/>
        </function-decl>
      </member-function>
      <member-function access='private'>
        <!-- int vtkImageDataLIC2D::SetContext(vtkRenderWindow*) -->
        <function-decl name='SetContext' mangled-name='_ZN17vtkImageDataLIC2D10SetContextEP15vtkRenderWindow' filepath='/tmp/legendre/spack-stage/spack-stage-R_crTC/VTK-6.1.0/Rendering/LIC/vtkImageDataLIC2D.cxx' line='99' column='1' visibility='default' binding='global' size-in-bits='64' elf-symbol-id='_ZN17vtkImageDataLIC2D10SetContextEP15vtkRenderWindow'>
          <!-- implicit parameter of type 'vtkImageDataLIC2D* const' -->
          <parameter type-id='type-id-104' name='this' is-artificial='yes'/>
          <!-- parameter of type 'vtkRenderWindow*' -->
          <parameter type-id='type-id-76' name='renWin' filepath='/tmp/legendre/spack-stage/spack-stage-R_crTC/VTK-6.1.0/Rendering/LIC/vtkImageDataLIC2D.cxx' line='99' column='1'/>
          <!-- int -->
          <return type-id='type-id-17'/>
        </function-decl>
      </member-function>
      <member-function access='private' static='yes'>
        <!-- vtkImageDataLIC2D* vtkImageDataLIC2D::New() -->
        <function-decl name='New' mangled-name='_ZN17vtkImageDataLIC2D3NewEv' filepath='/tmp/legendre/spack-stage/spack-stage-R_crTC/VTK-6.1.0/Rendering/LIC/vtkImageDataLIC2D.cxx' line='59' column='1' visibility='default' binding='global' size-in-bits='64' elf-symbol-id='_ZN17vtkImageDataLIC2D3NewEv'>
          <!-- vtkImageDataLIC2D* -->
          <return type-id='type-id-66'/>
        </function-decl>
      </member-function>
      <member-function access='protected' destructor='yes' vtable-offset='-1'>
        <!-- vtkImageDataLIC2D::~vtkImageDataLIC2D(int) -->
        <function-decl name='~vtkImageDataLIC2D' mangled-name='_ZN17vtkImageDataLIC2DD1Ev' filepath='/tmp/legendre/spack-stage/spack-stage-R_crTC/VTK-6.1.0/Rendering/LIC/vtkImageDataLIC2D.cxx' line='92' column='1' visibility='default' binding='global' size-in-bits='64' elf-symbol-id='_ZN17vtkImageDataLIC2DD1Ev'>
          <!-- implicit parameter of type 'vtkImageDataLIC2D*' -->
          <parameter type-id='type-id-66' is-artificial='yes'/>
          <!-- parameter of type 'int' -->
          <parameter type-id='type-id-17'/>
          <!-- void -->
          <return type-id='type-id-27'/>
        </function-decl>
      </member-function>
      <member-function access='private' vtable-offset='0'>
        <!-- const char* vtkImageDataLIC2D::GetClassNameInternal() -->
        <function-decl name='GetClassNameInternal' mangled-name='_ZNK17vtkImageDataLIC2D20GetClassNameInternalEv' filepath='/tmp/legendre/spack-stage/spack-stage-R_crTC/VTK-6.1.0/Rendering/LIC/vtkImageDataLIC2D.h' line='48' column='1' visibility='default' binding='global' size-in-bits='64'>
          <!-- implicit parameter of type 'const vtkImageDataLIC2D*' -->
          <parameter type-id='type-id-105' is-artificial='yes'/>
          <!-- const char* -->
          <return type-id='type-id-68'/>
        </function-decl>
      </member-function>
      <member-function access='private' vtable-offset='1'>
        <!-- int vtkImageDataLIC2D::IsA(const char*) -->
        <function-decl name='IsA' mangled-name='_ZN17vtkImageDataLIC2D3IsAEPKc' filepath='/tmp/legendre/spack-stage/spack-stage-R_crTC/VTK-6.1.0/Rendering/LIC/vtkImageDataLIC2D.h' line='48' column='1' visibility='default' binding='global' size-in-bits='64'>
          <!-- implicit parameter of type 'vtkImageDataLIC2D*' -->
          <parameter type-id='type-id-66' is-artificial='yes'/>
          <!-- parameter of type 'const char*' -->
          <parameter type-id='type-id-68'/>
          <!-- int -->
          <return type-id='type-id-17'/>
        </function-decl>
      </member-function>
      <member-function access='private' vtable-offset='4'>
        <!-- void vtkImageDataLIC2D::PrintSelf(std::ostream&, vtkIndent) -->
        <function-decl name='PrintSelf' mangled-name='_ZN17vtkImageDataLIC2D9PrintSelfERSo9vtkIndent' filepath='/tmp/legendre/spack-stage/spack-stage-R_crTC/VTK-6.1.0/Rendering/LIC/vtkImageDataLIC2D.cxx' line='713' column='1' visibility='default' binding='global' size-in-bits='64' elf-symbol-id='_ZN17vtkImageDataLIC2D9PrintSelfERSo9vtkIndent'>
          <!-- implicit parameter of type 'vtkImageDataLIC2D*' -->
          <parameter type-id='type-id-66' is-artificial='yes'/>
          <!-- parameter of type 'std::ostream&' -->
          <parameter type-id='type-id-69'/>
          <!-- parameter of type 'class vtkIndent' -->
          <parameter type-id='type-id-70'/>
          <!-- void -->
          <return type-id='type-id-27'/>
        </function-decl>
      </member-function>
      <member-function access='protected' vtable-offset='15'>
        <!-- vtkObjectBase* vtkImageDataLIC2D::NewInstanceInternal() -->
        <function-decl name='NewInstanceInternal' mangled-name='_ZNK17vtkImageDataLIC2D19NewInstanceInternalEv' filepath='/tmp/legendre/spack-stage/spack-stage-R_crTC/VTK-6.1.0/Rendering/LIC/vtkImageDataLIC2D.h' line='48' column='1' visibility='default' binding='global' size-in-bits='64'>
          <!-- implicit parameter of type 'const vtkImageDataLIC2D*' -->
          <parameter type-id='type-id-105' is-artificial='yes'/>
          <!-- vtkObjectBase* -->
          <return type-id='type-id-71'/>
        </function-decl>
      </member-function>
      <member-function access='protected' vtable-offset='60'>
        <!-- int vtkImageDataLIC2D::FillInputPortInformation(int, vtkInformation*) -->
        <function-decl name='FillInputPortInformation' mangled-name='_ZN17vtkImageDataLIC2D24FillInputPortInformationEiP14vtkInformation' filepath='/tmp/legendre/spack-stage/spack-stage-R_crTC/VTK-6.1.0/Rendering/LIC/vtkImageDataLIC2D.cxx' line='182' column='1' visibility='default' binding='global' size-in-bits='64' elf-symbol-id='_ZN17vtkImageDataLIC2D24FillInputPortInformationEiP14vtkInformation'>
          <!-- implicit parameter of type 'vtkImageDataLIC2D*' -->
          <parameter type-id='type-id-66' is-artificial='yes'/>
          <!-- parameter of type 'int' -->
          <parameter type-id='type-id-17'/>
          <!-- parameter of type 'vtkInformation*' -->
          <parameter type-id='type-id-106'/>
          <!-- int -->
          <return type-id='type-id-17'/>
        </function-decl>
      </member-function>
      <member-function access='protected' vtable-offset='71'>
        <!-- int vtkImageDataLIC2D::RequestInformation(vtkInformation*, vtkInformationVector**, vtkInformationVector*) -->
        <function-decl name='RequestInformation' mangled-name='_ZN17vtkImageDataLIC2D18RequestInformationEP14vtkInformationPP20vtkInformationVectorS3_' filepath='/tmp/legendre/spack-stage/spack-stage-R_crTC/VTK-6.1.0/Rendering/LIC/vtkImageDataLIC2D.cxx' line='226' column='1' visibility='default' binding='global' size-in-bits='64' elf-symbol-id='_ZN17vtkImageDataLIC2D18RequestInformationEP14vtkInformationPP20vtkInformationVectorS3_'>
          <!-- implicit parameter of type 'vtkImageDataLIC2D*' -->
          <parameter type-id='type-id-66' is-artificial='yes'/>
          <!-- parameter of type 'vtkInformation*' -->
          <parameter type-id='type-id-106'/>
          <!-- parameter of type 'vtkInformationVector**' -->
          <parameter type-id='type-id-107'/>
          <!-- parameter of type 'vtkInformationVector*' -->
          <parameter type-id='type-id-108'/>
          <!-- int -->
          <return type-id='type-id-17'/>
        </function-decl>
      </member-function>
      <member-function access='protected' vtable-offset='72'>
        <!-- int vtkImageDataLIC2D::RequestUpdateExtent(vtkInformation*, vtkInformationVector**, vtkInformationVector*) -->
        <function-decl name='RequestUpdateExtent' mangled-name='_ZN17vtkImageDataLIC2D19RequestUpdateExtentEP14vtkInformationPP20vtkInformationVectorS3_' filepath='/tmp/legendre/spack-stage/spack-stage-R_crTC/VTK-6.1.0/Rendering/LIC/vtkImageDataLIC2D.cxx' line='275' column='1' visibility='default' binding='global' size-in-bits='64' elf-symbol-id='_ZN17vtkImageDataLIC2D19RequestUpdateExtentEP14vtkInformationPP20vtkInformationVectorS3_'>
          <!-- implicit parameter of type 'vtkImageDataLIC2D*' -->
          <parameter type-id='type-id-66' is-artificial='yes'/>
          <!-- parameter of type 'vtkInformation*' -->
          <parameter type-id='type-id-106'/>
          <!-- parameter of type 'vtkInformationVector**' -->
          <parameter type-id='type-id-107'/>
          <!-- parameter of type 'vtkInformationVector*' -->
          <parameter type-id='type-id-108'/>
          <!-- int -->
          <return type-id='type-id-17'/>
        </function-decl>
      </member-function>
      <member-function access='protected' vtable-offset='74'>
        <!-- int vtkImageDataLIC2D::RequestData(vtkInformation*, vtkInformationVector**, vtkInformationVector*) -->
        <function-decl name='RequestData' mangled-name='_ZN17vtkImageDataLIC2D11RequestDataEP14vtkInformationPP20vtkInformationVectorS3_' filepath='/tmp/legendre/spack-stage/spack-stage-R_crTC/VTK-6.1.0/Rendering/LIC/vtkImageDataLIC2D.cxx' line='319' column='1' visibility='default' binding='global' size-in-bits='64' elf-symbol-id='_ZN17vtkImageDataLIC2D11RequestDataEP14vtkInformationPP20vtkInformationVectorS3_'>
          <!-- implicit parameter of type 'vtkImageDataLIC2D*' -->
          <parameter type-id='type-id-66' is-artificial='yes'/>
          <!-- parameter of type 'vtkInformation*' -->
          <parameter type-id='type-id-106'/>
          <!-- parameter of type 'vtkInformationVector**' -->
          <parameter type-id='type-id-107'/>
          <!-- parameter of type 'vtkInformationVector*' -->
          <parameter type-id='type-id-108'/>
          <!-- int -->
          <return type-id='type-id-17'/>
        </function-decl>
      </member-function>
      <member-function access='private' vtable-offset='81'>
        <!-- void vtkImageDataLIC2D::SetSteps(int) -->
        <function-decl name='SetSteps' mangled-name='_ZN17vtkImageDataLIC2D8SetStepsEi' filepath='/tmp/legendre/spack-stage/spack-stage-R_crTC/VTK-6.1.0/Rendering/LIC/vtkImageDataLIC2D.h' line='64' column='1' visibility='default' binding='global' size-in-bits='64'>
          <!-- implicit parameter of type 'vtkImageDataLIC2D*' -->
          <parameter type-id='type-id-66' is-artificial='yes'/>
          <!-- parameter of type 'int' -->
          <parameter type-id='type-id-17'/>
          <!-- void -->
          <return type-id='type-id-27'/>
        </function-decl>
      </member-function>
      <member-function access='private' vtable-offset='82'>
        <!-- int vtkImageDataLIC2D::GetSteps() -->
        <function-decl name='GetSteps' mangled-name='_ZN17vtkImageDataLIC2D8GetStepsEv' filepath='/tmp/legendre/spack-stage/spack-stage-R_crTC/VTK-6.1.0/Rendering/LIC/vtkImageDataLIC2D.h' line='65' column='1' visibility='default' binding='global' size-in-bits='64'>
          <!-- implicit parameter of type 'vtkImageDataLIC2D*' -->
          <parameter type-id='type-id-66' is-artificial='yes'/>
          <!-- int -->
          <return type-id='type-id-17'/>
        </function-decl>
      </member-function>
      <member-function access='private' vtable-offset='83'>
        <!-- void vtkImageDataLIC2D::SetStepSize(double) -->
        <function-decl name='SetStepSize' mangled-name='_ZN17vtkImageDataLIC2D11SetStepSizeEd' filepath='/tmp/legendre/spack-stage/spack-stage-R_crTC/VTK-6.1.0/Rendering/LIC/vtkImageDataLIC2D.h' line='77' column='1' visibility='default' binding='global' size-in-bits='64'>
          <!-- implicit parameter of type 'vtkImageDataLIC2D*' -->
          <parameter type-id='type-id-66' is-artificial='yes'/>
          <!-- parameter of type 'double' -->
          <parameter type-id='type-id-15'/>
          <!-- void -->
          <return type-id='type-id-27'/>
        </function-decl>
      </member-function>
      <member-function access='private' vtable-offset='84'>
        <!-- double vtkImageDataLIC2D::GetStepSize() -->
        <function-decl name='GetStepSize' mangled-name='_ZN17vtkImageDataLIC2D11GetStepSizeEv' filepath='/tmp/legendre/spack-stage/spack-stage-R_crTC/VTK-6.1.0/Rendering/LIC/vtkImageDataLIC2D.h' line='78' column='1' visibility='default' binding='global' size-in-bits='64'>
          <!-- implicit parameter of type 'vtkImageDataLIC2D*' -->
          <parameter type-id='type-id-66' is-artificial='yes'/>
          <!-- double -->
          <return type-id='type-id-15'/>
        </function-decl>
      </member-function>
      <member-function access='private' vtable-offset='85'>
        <!-- void vtkImageDataLIC2D::SetMagnification(int) -->
        <function-decl name='SetMagnification' mangled-name='_ZN17vtkImageDataLIC2D16SetMagnificationEi' filepath='/tmp/legendre/spack-stage/spack-stage-R_crTC/VTK-6.1.0/Rendering/LIC/vtkImageDataLIC2D.h' line='82' column='1' visibility='default' binding='global' size-in-bits='64'>
          <!-- implicit parameter of type 'vtkImageDataLIC2D*' -->
          <parameter type-id='type-id-66' is-artificial='yes'/>
          <!-- parameter of type 'int' -->
          <parameter type-id='type-id-17'/>
          <!-- void -->
          <return type-id='type-id-27'/>
        </function-decl>
      </member-function>
      <member-function access='private' vtable-offset='86'>
        <!-- int vtkImageDataLIC2D::GetMagnification() -->
        <function-decl name='GetMagnification' mangled-name='_ZN17vtkImageDataLIC2D16GetMagnificationEv' filepath='/tmp/legendre/spack-stage/spack-stage-R_crTC/VTK-6.1.0/Rendering/LIC/vtkImageDataLIC2D.h' line='83' column='1' visibility='default' binding='global' size-in-bits='64'>
          <!-- implicit parameter of type 'vtkImageDataLIC2D*' -->
          <parameter type-id='type-id-66' is-artificial='yes'/>
          <!-- int -->
          <return type-id='type-id-17'/>
        </function-decl>
      </member-function>
      <member-function access='private' vtable-offset='87'>
        <!-- int vtkImageDataLIC2D::GetOpenGLExtensionsSupported() -->
        <function-decl name='GetOpenGLExtensionsSupported' mangled-name='_ZN17vtkImageDataLIC2D28GetOpenGLExtensionsSupportedEv' filepath='/tmp/legendre/spack-stage/spack-stage-R_crTC/VTK-6.1.0/Rendering/LIC/vtkImageDataLIC2D.h' line='87' column='1' visibility='default' binding='global' size-in-bits='64'>
          <!-- implicit parameter of type 'vtkImageDataLIC2D*' -->
          <parameter type-id='type-id-66' is-artificial='yes'/>
          <!-- int -->
          <return type-id='type-id-17'/>
        </function-decl>
      </member-function>
    </class-decl>
    <!-- class vtkPixelTransfer -->
    <class-decl name='vtkPixelTransfer' size-in-bits='8' visibility='default' filepath='/tmp/legendre/spack-stage/spack-stage-R_crTC/VTK-6.1.0/Rendering/LIC/vtkPixelTransfer.h' line='35' column='1' id='type-id-109'>
      <member-type access='private'>
        <!-- typedef double vtkPixelTransfer::VTK_TT -->
        <typedef-decl name='VTK_TT' type-id='type-id-15' filepath='/tmp/legendre/spack-stage/spack-stage-R_crTC/VTK-6.1.0/Rendering/LIC/vtkPixelTransfer.cxx' line='19' column='1' id='type-id-110'/>
      </member-type>
      <member-function access='private' static='yes'>
        <!-- int vtkPixelTransfer::Blit<float, float>(const vtkPixelExtent&, const vtkPixelExtent&, const vtkPixelExtent&, int, float*, int, float*) -->
        <function-decl name='Blit&lt;float, float&gt;' mangled-name='_ZN16vtkPixelTransfer4BlitIffEEiRK14vtkPixelExtentS3_S3_S3_iPT_iPT0_' filepath='/tmp/legendre/spack-stage/spack-stage-R_crTC/VTK-6.1.0/Rendering/LIC/vtkPixelTransfer.h' line='154' column='1' visibility='default' binding='global' size-in-bits='64' elf-symbol-id='_ZN16vtkPixelTransfer4BlitIffEEiRK14vtkPixelExtentS3_S3_S3_iPT_iPT0_'>
          <!-- parameter of type 'const vtkPixelExtent&' -->
          <parameter type-id='type-id-111' name='srcWholeExt' filepath='/tmp/legendre/spack-stage/spack-stage-R_crTC/VTK-6.1.0/Rendering/LIC/vtkPixelTransfer.h' line='155' column='1'/>
          <!-- parameter of type 'const vtkPixelExtent&' -->
          <parameter type-id='type-id-111' name='srcSubset' filepath='/tmp/legendre/spack-stage/spack-stage-R_crTC/VTK-6.1.0/Rendering/LIC/vtkPixelTransfer.h' line='156' column='1'/>
          <!-- parameter of type 'const vtkPixelExtent&' -->
          <parameter type-id='type-id-111' name='destWholeExt' filepath='/tmp/legendre/spack-stage/spack-stage-R_crTC/VTK-6.1.0/Rendering/LIC/vtkPixelTransfer.h' line='157' column='1'/>
          <!-- parameter of type 'const vtkPixelExtent&' -->
          <parameter type-id='type-id-111' name='destSubset' filepath='/tmp/legendre/spack-stage/spack-stage-R_crTC/VTK-6.1.0/Rendering/LIC/vtkPixelTransfer.h' line='158' column='1'/>
          <!-- parameter of type 'int' -->
          <parameter type-id='type-id-17' name='nSrcComps' filepath='/tmp/legendre/spack-stage/spack-stage-R_crTC/VTK-6.1.0/Rendering/LIC/vtkPixelTransfer.h' line='159' column='1'/>
          <!-- parameter of type 'float*' -->
          <parameter type-id='type-id-56' name='srcData' filepath='/tmp/legendre/spack-stage/spack-stage-R_crTC/VTK-6.1.0/Rendering/LIC/vtkPixelTransfer.h' line='160' column='1'/>
          <!-- parameter of type 'int' -->
          <parameter type-id='type-id-17' name='nDestComps' filepath='/tmp/legendre/spack-stage/spack-stage-R_crTC/VTK-6.1.0/Rendering/LIC/vtkPixelTransfer.h' line='161' column='1'/>
          <!-- parameter of type 'float*' -->
          <parameter type-id='type-id-56' name='destData' filepath='/tmp/legendre/spack-stage/spack-stage-R_crTC/VTK-6.1.0/Rendering/LIC/vtkPixelTransfer.h' line='162' column='1'/>
          <!-- int -->
          <return type-id='type-id-17'/>
        </function-decl>
      </member-function>
      <member-function access='private' static='yes'>
        <!-- int vtkPixelTransfer::Blit<vtkPixelTransfer::Blit::VTK_TT, vtkPixelTransfer::Blit::VTK_TT>(const vtkPixelExtent&, const vtkPixelExtent&, const vtkPixelExtent&, int, vtkPixelTransfer::VTK_TT*, int, vtkPixelTransfer::VTK_TT*) -->
        <function-decl name='Blit&lt;vtkPixelTransfer::Blit::VTK_TT, vtkPixelTransfer::Blit::VTK_TT&gt;' mangled-name='_ZN16vtkPixelTransfer4BlitIhhEEiRK14vtkPixelExtentS3_S3_S3_iPT_iPT0_' filepath='/tmp/legendre/spack-stage/spack-stage-R_crTC/VTK-6.1.0/Rendering/LIC/vtkPixelTransfer.h' line='154' column='1' visibility='default' binding='global' size-in-bits='64' elf-symbol-id='_ZN16vtkPixelTransfer4BlitIddEEiRK14vtkPixelExtentS3_S3_S3_iPT_iPT0_'>
          <!-- parameter of type 'const vtkPixelExtent&' -->
          <parameter type-id='type-id-111' name='srcWholeExt' filepath='/tmp/legendre/spack-stage/spack-stage-R_crTC/VTK-6.1.0/Rendering/LIC/vtkPixelTransfer.h' line='155' column='1'/>
          <!-- parameter of type 'const vtkPixelExtent&' -->
          <parameter type-id='type-id-111' name='srcSubset' filepath='/tmp/legendre/spack-stage/spack-stage-R_crTC/VTK-6.1.0/Rendering/LIC/vtkPixelTransfer.h' line='156' column='1'/>
          <!-- parameter of type 'const vtkPixelExtent&' -->
          <parameter type-id='type-id-111' name='destWholeExt' filepath='/tmp/legendre/spack-stage/spack-stage-R_crTC/VTK-6.1.0/Rendering/LIC/vtkPixelTransfer.h' line='157' column='1'/>
          <!-- parameter of type 'const vtkPixelExtent&' -->
          <parameter type-id='type-id-111' name='destSubset' filepath='/tmp/legendre/spack-stage/spack-stage-R_crTC/VTK-6.1.0/Rendering/LIC/vtkPixelTransfer.h' line='158' column='1'/>
          <!-- parameter of type 'int' -->
          <parameter type-id='type-id-17' name='nSrcComps' filepath='/tmp/legendre/spack-stage/spack-stage-R_crTC/VTK-6.1.0/Rendering/LIC/vtkPixelTransfer.h' line='159' column='1'/>
          <!-- parameter of type 'vtkPixelTransfer::VTK_TT*' -->
          <parameter type-id='type-id-112' name='srcData' filepath='/tmp/legendre/spack-stage/spack-stage-R_crTC/VTK-6.1.0/Rendering/LIC/vtkPixelTransfer.h' line='160' column='1'/>
          <!-- parameter of type 'int' -->
          <parameter type-id='type-id-17' name='nDestComps' filepath='/tmp/legendre/spack-stage/spack-stage-R_crTC/VTK-6.1.0/Rendering/LIC/vtkPixelTransfer.h' line='161' column='1'/>
          <!-- parameter of type 'vtkPixelTransfer::VTK_TT*' -->
          <parameter type-id='type-id-112' name='destData' filepath='/tmp/legendre/spack-stage/spack-stage-R_crTC/VTK-6.1.0/Rendering/LIC/vtkPixelTransfer.h' line='162' column='1'/>
          <!-- int -->
          <return type-id='type-id-17'/>
        </function-decl>
      </member-function>
      <member-function access='private' static='yes'>
        <!-- int vtkPixelTransfer::Blit<vtkPixelTransfer::Blit::VTK_TT>(const vtkPixelExtent&, const vtkPixelExtent&, const vtkPixelExtent&, int, vtkPixelTransfer::VTK_TT*, int, int, void*) -->
        <function-decl name='Blit&lt;vtkPixelTransfer::Blit::VTK_TT&gt;' mangled-name='_ZN16vtkPixelTransfer4BlitIhEEiRK14vtkPixelExtentS3_S3_S3_iPT_iiPv' filepath='/tmp/legendre/spack-stage/spack-stage-R_crTC/VTK-6.1.0/Rendering/LIC/vtkPixelTransfer.h' line='124' column='1' visibility='default' binding='global' size-in-bits='64' elf-symbol-id='_ZN16vtkPixelTransfer4BlitIdEEiRK14vtkPixelExtentS3_S3_S3_iPT_iiPv'>
          <!-- parameter of type 'const vtkPixelExtent&' -->
          <parameter type-id='type-id-111' name='srcWholeExt' filepath='/tmp/legendre/spack-stage/spack-stage-R_crTC/VTK-6.1.0/Rendering/LIC/vtkPixelTransfer.h' line='125' column='1'/>
          <!-- parameter of type 'const vtkPixelExtent&' -->
          <parameter type-id='type-id-111' name='srcExt' filepath='/tmp/legendre/spack-stage/spack-stage-R_crTC/VTK-6.1.0/Rendering/LIC/vtkPixelTransfer.h' line='126' column='1'/>
          <!-- parameter of type 'const vtkPixelExtent&' -->
          <parameter type-id='type-id-111' name='destWholeExt' filepath='/tmp/legendre/spack-stage/spack-stage-R_crTC/VTK-6.1.0/Rendering/LIC/vtkPixelTransfer.h' line='127' column='1'/>
          <!-- parameter of type 'const vtkPixelExtent&' -->
          <parameter type-id='type-id-111' name='destExt' filepath='/tmp/legendre/spack-stage/spack-stage-R_crTC/VTK-6.1.0/Rendering/LIC/vtkPixelTransfer.h' line='128' column='1'/>
          <!-- parameter of type 'int' -->
          <parameter type-id='type-id-17' name='nSrcComps' filepath='/tmp/legendre/spack-stage/spack-stage-R_crTC/VTK-6.1.0/Rendering/LIC/vtkPixelTransfer.h' line='129' column='1'/>
          <!-- parameter of type 'vtkPixelTransfer::VTK_TT*' -->
          <parameter type-id='type-id-112' name='srcData' filepath='/tmp/legendre/spack-stage/spack-stage-R_crTC/VTK-6.1.0/Rendering/LIC/vtkPixelTransfer.h' line='130' column='1'/>
          <!-- parameter of type 'int' -->
          <parameter type-id='type-id-17' name='nDestComps' filepath='/tmp/legendre/spack-stage/spack-stage-R_crTC/VTK-6.1.0/Rendering/LIC/vtkPixelTransfer.h' line='131' column='1'/>
          <!-- parameter of type 'int' -->
          <parameter type-id='type-id-17' name='destType' filepath='/tmp/legendre/spack-stage/spack-stage-R_crTC/VTK-6.1.0/Rendering/LIC/vtkPixelTransfer.h' line='132' column='1'/>
          <!-- parameter of type 'void*' -->
          <parameter type-id='type-id-14' name='destData' filepath='/tmp/legendre/spack-stage/spack-stage-R_crTC/VTK-6.1.0/Rendering/LIC/vtkPixelTransfer.h' line='133' column='1'/>
          <!-- int -->
          <return type-id='type-id-17'/>
        </function-decl>
      </member-function>
      <member-function access='private' static='yes'>
        <!-- int vtkPixelTransfer::Blit(const vtkPixelExtent&, const vtkPixelExtent&, const vtkPixelExtent&, int, int, void*, int, int, void*) -->
        <function-decl name='Blit' mangled-name='_ZN16vtkPixelTransfer4BlitERK14vtkPixelExtentS2_S2_S2_iiPviiS3_' filepath='/tmp/legendre/spack-stage/spack-stage-R_crTC/VTK-6.1.0/Rendering/LIC/vtkPixelTransfer.cxx' line='4' column='1' visibility='default' binding='global' size-in-bits='64' elf-symbol-id='_ZN16vtkPixelTransfer4BlitERK14vtkPixelExtentS2_S2_S2_iiPviiS3_'>
          <!-- parameter of type 'const vtkPixelExtent&' -->
          <parameter type-id='type-id-111' name='srcWholeExt' filepath='/tmp/legendre/spack-stage/spack-stage-R_crTC/VTK-6.1.0/Rendering/LIC/vtkPixelTransfer.cxx' line='5' column='1'/>
          <!-- parameter of type 'const vtkPixelExtent&' -->
          <parameter type-id='type-id-111' name='srcExt' filepath='/tmp/legendre/spack-stage/spack-stage-R_crTC/VTK-6.1.0/Rendering/LIC/vtkPixelTransfer.cxx' line='6' column='1'/>
          <!-- parameter of type 'const vtkPixelExtent&' -->
          <parameter type-id='type-id-111' name='destWholeExt' filepath='/tmp/legendre/spack-stage/spack-stage-R_crTC/VTK-6.1.0/Rendering/LIC/vtkPixelTransfer.cxx' line='7' column='1'/>
          <!-- parameter of type 'const vtkPixelExtent&' -->
          <parameter type-id='type-id-111' name='destExt' filepath='/tmp/legendre/spack-stage/spack-stage-R_crTC/VTK-6.1.0/Rendering/LIC/vtkPixelTransfer.cxx' line='8' column='1'/>
          <!-- parameter of type 'int' -->
          <parameter type-id='type-id-17' name='nSrcComps' filepath='/tmp/legendre/spack-stage/spack-stage-R_crTC/VTK-6.1.0/Rendering/LIC/vtkPixelTransfer.cxx' line='9' column='1'/>
          <!-- parameter of type 'int' -->
          <parameter type-id='type-id-17' name='srcType' filepath='/tmp/legendre/spack-stage/spack-stage-R_crTC/VTK-6.1.0/Rendering/LIC/vtkPixelTransfer.cxx' line='10' column='1'/>
          <!-- parameter of type 'void*' -->
          <parameter type-id='type-id-14' name='srcData' filepath='/tmp/legendre/spack-stage/spack-stage-R_crTC/VTK-6.1.0/Rendering/LIC/vtkPixelTransfer.cxx' line='11' column='1'/>
          <!-- parameter of type 'int' -->
          <parameter type-id='type-id-17' name='nDestComps' filepath='/tmp/legendre/spack-stage/spack-stage-R_crTC/VTK-6.1.0/Rendering/LIC/vtkPixelTransfer.cxx' line='12' column='1'/>
          <!-- parameter of type 'int' -->
          <parameter type-id='type-id-17' name='destType' filepath='/tmp/legendre/spack-stage/spack-stage-R_crTC/VTK-6.1.0/Rendering/LIC/vtkPixelTransfer.cxx' line='13' column='1'/>
          <!-- parameter of type 'void*' -->
          <parameter type-id='type-id-14' name='destData' filepath='/tmp/legendre/spack-stage/spack-stage-R_crTC/VTK-6.1.0/Rendering/LIC/vtkPixelTransfer.cxx' line='14' column='1'/>
          <!-- int -->
          <return type-id='type-id-17'/>
        </function-decl>
      </member-function>
    </class-decl>
    <!-- typedef long long int vtkIdType -->
    <typedef-decl name='vtkIdType' type-id='type-id-21' filepath='/tmp/legendre/spack-stage/spack-stage-R_crTC/VTK-6.1.0/Common/Core/vtkType.h' line='255' column='1' id='type-id-113'/>
    <!-- class vtkIndent -->
    <class-decl name='vtkIndent' size-in-bits='32' visibility='default' filepath='/tmp/legendre/spack-stage/spack-stage-R_crTC/VTK-6.1.0/Common/Core/vtkIndent.h' line='31' column='1' id='type-id-70'>
      <data-member access='protected' layout-offset-in-bits='0'>
        <!-- int vtkIndent::Indent -->
        <var-decl name='Indent' type-id='type-id-17' visibility='default' filepath='/tmp/legendre/spack-stage/spack-stage-R_crTC/VTK-6.1.0/Common/Core/vtkIndent.h' line='49' column='1'/>
      </data-member>
      <member-function access='private' constructor='yes'>
        <!-- vtkIndent::vtkIndent(int) -->
        <function-decl name='vtkIndent' filepath='/tmp/legendre/spack-stage/spack-stage-R_crTC/VTK-6.1.0/Common/Core/vtkIndent.h' line='34' column='1' visibility='default' binding='global' size-in-bits='64'>
          <!-- implicit parameter of type 'vtkIndent*' -->
          <parameter type-id='type-id-114' is-artificial='yes'/>
          <!-- parameter of type 'int' -->
          <parameter type-id='type-id-17'/>
          <!-- void -->
          <return type-id='type-id-27'/>
        </function-decl>
      </member-function>
    </class-decl>
    <!-- FILE* -->
    <pointer-type-def type-id='type-id-31' size-in-bits='64' id='type-id-115'/>
    <!-- _IO_FILE* -->
    <pointer-type-def type-id='type-id-30' size-in-bits='64' id='type-id-34'/>
    <!-- _IO_lock_t* -->
    <pointer-type-def type-id='type-id-40' size-in-bits='64' id='type-id-36'/>
    <!-- _IO_marker* -->
    <pointer-type-def type-id='type-id-39' size-in-bits='64' id='type-id-33'/>
    <!-- __FILE* -->
    <pointer-type-def type-id='type-id-81' size-in-bits='64' id='type-id-116'/>
    <!-- __gnu_cxx::new_allocator<vtkPixelExtent*>* -->
    <pointer-type-def type-id='type-id-117' size-in-bits='64' id='type-id-118'/>
    <!-- __gnu_cxx::new_allocator<vtkPixelExtent*>* const -->
    <qualified-type-def type-id='type-id-118' const='yes' id='type-id-119'/>
    <!-- __gnu_cxx::new_allocator<vtkPixelExtent>* -->
    <pointer-type-def type-id='type-id-120' size-in-bits='64' id='type-id-121'/>
    <!-- __gnu_cxx::new_allocator<vtkPixelExtent>* const -->
    <qualified-type-def type-id='type-id-121' const='yes' id='type-id-122'/>
    <!-- __pthread_internal_list* -->
    <pointer-type-def type-id='type-id-45' size-in-bits='64' id='type-id-46'/>
    <!-- char* -->
    <pointer-type-def type-id='type-id-2' size-in-bits='64' id='type-id-32'/>
    <!-- char** -->
    <pointer-type-def type-id='type-id-32' size-in-bits='64' id='type-id-123'/>
    <!-- const __gnu_cxx::new_allocator<vtkPixelExtent*> -->
    <qualified-type-def type-id='type-id-117' const='yes' id='type-id-124'/>
    <!-- const __gnu_cxx::new_allocator<vtkPixelExtent*>& -->
    <reference-type-def kind='lvalue' type-id='type-id-124' size-in-bits='64' id='type-id-125'/>
    <!-- const __gnu_cxx::new_allocator<vtkPixelExtent*>* -->
    <pointer-type-def type-id='type-id-124' size-in-bits='64' id='type-id-126'/>
    <!-- const __gnu_cxx::new_allocator<vtkPixelExtent*>* const -->
    <qualified-type-def type-id='type-id-126' const='yes' id='type-id-127'/>
    <!-- const __gnu_cxx::new_allocator<vtkPixelExtent> -->
    <qualified-type-def type-id='type-id-120' const='yes' id='type-id-128'/>
    <!-- const __gnu_cxx::new_allocator<vtkPixelExtent>& -->
    <reference-type-def kind='lvalue' type-id='type-id-128' size-in-bits='64' id='type-id-129'/>
    <!-- const __gnu_cxx::new_allocator<vtkPixelExtent>* -->
    <pointer-type-def type-id='type-id-128' size-in-bits='64' id='type-id-130'/>
    <!-- const __gnu_cxx::new_allocator<vtkPixelExtent>* const -->
    <qualified-type-def type-id='type-id-130' const='yes' id='type-id-131'/>
    <!-- const __int32_t -->
    <qualified-type-def type-id='type-id-90' const='yes' id='type-id-132'/>
    <!-- const __int32_t* -->
    <pointer-type-def type-id='type-id-132' size-in-bits='64' id='type-id-88'/>
    <!-- const char -->
    <qualified-type-def type-id='type-id-2' const='yes' id='type-id-133'/>
    <!-- const char* -->
    <pointer-type-def type-id='type-id-133' size-in-bits='64' id='type-id-68'/>
    <!-- const char** -->
    <pointer-type-def type-id='type-id-68' size-in-bits='64' id='type-id-134'/>
    <!-- const fpos_t -->
    <qualified-type-def type-id='type-id-92' const='yes' id='type-id-135'/>
    <!-- const fpos_t* -->
    <pointer-type-def type-id='type-id-135' size-in-bits='64' id='type-id-136'/>
    <!-- const int -->
    <qualified-type-def type-id='type-id-17' const='yes' id='type-id-137'/>
    <!-- const int& -->
    <reference-type-def kind='lvalue' type-id='type-id-137' size-in-bits='64' id='type-id-138'/>
    <!-- const int* -->
    <pointer-type-def type-id='type-id-137' size-in-bits='64' id='type-id-51'/>
    <!-- const mbstate_t -->
    <qualified-type-def type-id='type-id-83' const='yes' id='type-id-139'/>
    <!-- const mbstate_t* -->
    <pointer-type-def type-id='type-id-139' size-in-bits='64' id='type-id-140'/>
    <!-- const size_t -->
    <qualified-type-def type-id='type-id-38' const='yes' id='type-id-141'/>
    <!-- const size_t& -->
    <reference-type-def kind='lvalue' type-id='type-id-141' size-in-bits='64' id='type-id-142'/>
    <!-- const std::_Deque_base<vtkPixelExtent, std::allocator<vtkPixelExtent> > -->
    <qualified-type-def type-id='type-id-143' const='yes' id='type-id-144'/>
    <!-- const std::_Deque_base<vtkPixelExtent, std::allocator<vtkPixelExtent> >* -->
    <pointer-type-def type-id='type-id-144' size-in-bits='64' id='type-id-145'/>
    <!-- const std::_Deque_base<vtkPixelExtent, std::allocator<vtkPixelExtent> >* const -->
    <qualified-type-def type-id='type-id-145' const='yes' id='type-id-146'/>
    <!-- const std::_Deque_iterator<vtkPixelExtent, vtkPixelExtent&, vtkPixelExtent*> -->
    <qualified-type-def type-id='type-id-147' const='yes' id='type-id-148'/>
    <!-- const std::_Deque_iterator<vtkPixelExtent, vtkPixelExtent&, vtkPixelExtent*>& -->
    <reference-type-def kind='lvalue' type-id='type-id-148' size-in-bits='64' id='type-id-149'/>
    <!-- const std::_Deque_iterator<vtkPixelExtent, vtkPixelExtent&, vtkPixelExtent*>* -->
    <pointer-type-def type-id='type-id-148' size-in-bits='64' id='type-id-150'/>
    <!-- const std::_Resetiosflags::fmtflags -->
    <qualified-type-def type-id='type-id-151' const='yes' id='type-id-152'/>
    <!-- const std::__basic_file<char> -->
    <qualified-type-def type-id='type-id-153' const='yes' id='type-id-154'/>
    <!-- const std::__basic_file<char>* -->
    <pointer-type-def type-id='type-id-154' size-in-bits='64' id='type-id-155'/>
    <!-- const std::__basic_file<char>::openmode -->
    <qualified-type-def type-id='type-id-156' const='yes' id='type-id-157'/>
    <!-- const std::__basic_file<char>::seekdir -->
    <qualified-type-def type-id='type-id-158' const='yes' id='type-id-159'/>
    <!-- const std::allocator<vtkPixelExtent*> -->
    <qualified-type-def type-id='type-id-160' const='yes' id='type-id-161'/>
    <!-- const std::allocator<vtkPixelExtent*>& -->
    <reference-type-def kind='lvalue' type-id='type-id-161' size-in-bits='64' id='type-id-162'/>
    <!-- const std::allocator<vtkPixelExtent> -->
    <qualified-type-def type-id='type-id-163' const='yes' id='type-id-164'/>
    <!-- const std::allocator<vtkPixelExtent>& -->
    <qualified-type-def type-id='type-id-165' id='type-id-166'/>
    <!-- const std::allocator<vtkPixelExtent>& -->
    <reference-type-def kind='lvalue' type-id='type-id-164' size-in-bits='64' id='type-id-165'/>
    <!-- const std::basic_ios<char, std::char_traits<char> > -->
    <qualified-type-def type-id='type-id-167' const='yes' id='type-id-168'/>
    <!-- const std::basic_ios<char, std::char_traits<char> >* -->
    <pointer-type-def type-id='type-id-168' size-in-bits='64' id='type-id-169'/>
    <!-- const std::basic_ios<char, std::char_traits<char> >* const -->
    <qualified-type-def type-id='type-id-169' const='yes' id='type-id-170'/>
    <!-- const std::basic_ios<char, std::char_traits<char> >::iostate -->
    <qualified-type-def type-id='type-id-171' const='yes' id='type-id-172'/>
    <!-- const std::char_traits<char>::char_type -->
    <qualified-type-def type-id='type-id-173' const='yes' id='type-id-174'/>
    <!-- const std::char_traits<char>::char_type& -->
    <reference-type-def kind='lvalue' type-id='type-id-174' size-in-bits='64' id='type-id-175'/>
    <!-- const std::char_traits<char>::char_type* -->
    <pointer-type-def type-id='type-id-174' size-in-bits='64' id='type-id-176'/>
    <!-- const std::char_traits<char>::int_type -->
    <qualified-type-def type-id='type-id-177' const='yes' id='type-id-178'/>
    <!-- const std::char_traits<char>::int_type& -->
    <reference-type-def kind='lvalue' type-id='type-id-178' size-in-bits='64' id='type-id-179'/>
    <!-- const std::deque<vtkPixelExtent, std::allocator<vtkPixelExtent> > -->
    <qualified-type-def type-id='type-id-180' const='yes' id='type-id-181'/>
    <!-- const std::deque<vtkPixelExtent, std::allocator<vtkPixelExtent> >& -->
    <reference-type-def kind='lvalue' type-id='type-id-181' size-in-bits='64' id='type-id-182'/>
    <!-- const std::deque<vtkPixelExtent, std::allocator<vtkPixelExtent> >* -->
    <pointer-type-def type-id='type-id-181' size-in-bits='64' id='type-id-183'/>
    <!-- const tm -->
    <qualified-type-def type-id='type-id-85' const='yes' id='type-id-184'/>
    <!-- const tm* -->
    <pointer-type-def type-id='type-id-184' size-in-bits='64' id='type-id-185'/>
    <!-- const unsigned int -->
    <qualified-type-def type-id='type-id-13' const='yes' id='type-id-186'/>
    <!-- const unsigned int* -->
    <pointer-type-def type-id='type-id-186' size-in-bits='64' id='type-id-55'/>
    <!-- const vtkImageDataLIC2D -->
    <qualified-type-def type-id='type-id-99' const='yes' id='type-id-187'/>
    <!-- const vtkImageDataLIC2D& -->
    <reference-type-def kind='lvalue' type-id='type-id-187' size-in-bits='64' id='type-id-103'/>
    <!-- const vtkImageDataLIC2D* -->
    <pointer-type-def type-id='type-id-187' size-in-bits='64' id='type-id-105'/>
    <!-- const vtkOStreamWrapper::EndlType -->
    <qualified-type-def type-id='type-id-188' const='yes' id='type-id-189'/>
    <!-- const vtkOStreamWrapper::EndlType& -->
    <qualified-type-def type-id='type-id-190' id='type-id-191'/>
    <!-- const vtkOStreamWrapper::EndlType& -->
    <reference-type-def kind='lvalue' type-id='type-id-189' size-in-bits='64' id='type-id-190'/>
    <!-- const vtkPixelExtent -->
    <qualified-type-def type-id='type-id-48' const='yes' id='type-id-192'/>
    <!-- const vtkPixelExtent& -->
    <qualified-type-def type-id='type-id-50' id='type-id-111'/>
    <!-- const vtkPixelExtent& -->
    <reference-type-def kind='lvalue' type-id='type-id-192' size-in-bits='64' id='type-id-50'/>
    <!-- const vtkPixelExtent* -->
    <pointer-type-def type-id='type-id-192' size-in-bits='64' id='type-id-53'/>
    <!-- const vtkPixelExtent* const -->
    <qualified-type-def type-id='type-id-53' const='yes' id='type-id-193'/>
    <!-- const vtkWeakPointer<vtkRenderWindow> -->
    <qualified-type-def type-id='type-id-73' const='yes' id='type-id-194'/>
    <!-- const vtkWeakPointer<vtkRenderWindow>* -->
    <pointer-type-def type-id='type-id-194' size-in-bits='64' id='type-id-195'/>
    <!-- const vtkWeakPointer<vtkRenderWindow>* const -->
    <qualified-type-def type-id='type-id-195' const='yes' id='type-id-196'/>
    <!-- const vtkWeakPointerBase -->
    <qualified-type-def type-id='type-id-74' const='yes' id='type-id-197'/>
    <!-- const vtkWeakPointerBase& -->
    <reference-type-def kind='lvalue' type-id='type-id-197' size-in-bits='64' id='type-id-77'/>
    <!-- const vtkWeakPointerBase* -->
    <pointer-type-def type-id='type-id-197' size-in-bits='64' id='type-id-198'/>
    <!-- const vtkWeakPointerBase::NoReference -->
    <qualified-type-def type-id='type-id-97' const='yes' id='type-id-199'/>
    <!-- const vtkWeakPointerBase::NoReference& -->
    <reference-type-def kind='lvalue' type-id='type-id-199' size-in-bits='64' id='type-id-78'/>
    <!-- const wchar_t -->
    <qualified-type-def type-id='type-id-28' const='yes' id='type-id-200'/>
    <!-- const wchar_t* -->
    <pointer-type-def type-id='type-id-200' size-in-bits='64' id='type-id-201'/>
    <!-- const wchar_t** -->
    <pointer-type-def type-id='type-id-201' size-in-bits='64' id='type-id-202'/>
    <!-- double* -->
    <pointer-type-def type-id='type-id-15' size-in-bits='64' id='type-id-203'/>
    <!-- float* -->
    <pointer-type-def type-id='type-id-16' size-in-bits='64' id='type-id-56'/>
    <!-- fpos_t* -->
    <pointer-type-def type-id='type-id-92' size-in-bits='64' id='type-id-204'/>
    <!-- int (void*, void*)* -->
    <pointer-type-def type-id='type-id-205' size-in-bits='64' id='type-id-93'/>
    <!-- int& -->
    <reference-type-def kind='lvalue' type-id='type-id-17' size-in-bits='64' id='type-id-72'/>
    <!-- int* -->
    <pointer-type-def type-id='type-id-17' size-in-bits='64' id='type-id-52'/>
    <!-- lconv* -->
    <pointer-type-def type-id='type-id-86' size-in-bits='64' id='type-id-206'/>
    <!-- mbstate_t* -->
    <pointer-type-def type-id='type-id-83' size-in-bits='64' id='type-id-207'/>
    <!-- std::_Deque_base<vtkPixelExtent, std::allocator<vtkPixelExtent> >* -->
    <pointer-type-def type-id='type-id-143' size-in-bits='64' id='type-id-208'/>
    <!-- std::_Deque_base<vtkPixelExtent, std::allocator<vtkPixelExtent> >* const -->
    <qualified-type-def type-id='type-id-208' const='yes' id='type-id-209'/>
    <!-- std::_Deque_base<vtkPixelExtent, std::allocator<vtkPixelExtent> >::_Deque_impl* -->
    <pointer-type-def type-id='type-id-210' size-in-bits='64' id='type-id-211'/>
    <!-- std::_Deque_iterator<vtkPixelExtent, vtkPixelExtent&, vtkPixelExtent*>& -->
    <reference-type-def kind='lvalue' type-id='type-id-147' size-in-bits='64' id='type-id-212'/>
    <!-- std::_Deque_iterator<vtkPixelExtent, vtkPixelExtent&, vtkPixelExtent*>* -->
    <pointer-type-def type-id='type-id-147' size-in-bits='64' id='type-id-213'/>
    <!-- std::_Deque_iterator<vtkPixelExtent, vtkPixelExtent&, vtkPixelExtent*>* const -->
    <qualified-type-def type-id='type-id-213' const='yes' id='type-id-214'/>
    <!-- std::__basic_file<char>* -->
    <pointer-type-def type-id='type-id-153' size-in-bits='64' id='type-id-215'/>
    <!-- std::__c_file* -->
    <pointer-type-def type-id='type-id-216' size-in-bits='64' id='type-id-217'/>
    <!-- std::__c_lock* -->
    <pointer-type-def type-id='type-id-218' size-in-bits='64' id='type-id-219'/>
    <!-- std::allocator<vtkPixelExtent*>* -->
    <pointer-type-def type-id='type-id-160' size-in-bits='64' id='type-id-220'/>
    <!-- std::allocator<vtkPixelExtent>& -->
    <reference-type-def kind='lvalue' type-id='type-id-163' size-in-bits='64' id='type-id-221'/>
    <!-- std::allocator<vtkPixelExtent>* -->
    <pointer-type-def type-id='type-id-163' size-in-bits='64' id='type-id-222'/>
    <!-- std::basic_ios<char, std::char_traits<char> >* -->
    <pointer-type-def type-id='type-id-167' size-in-bits='64' id='type-id-223'/>
    <!-- std::basic_ios<char, std::char_traits<char> >* const -->
    <qualified-type-def type-id='type-id-223' const='yes' id='type-id-224'/>
    <!-- std::basic_ostream<char, std::char_traits<char> >& -->
    <reference-type-def kind='lvalue' type-id='type-id-225' size-in-bits='64' id='type-id-226'/>
    <!-- std::basic_ostream<char, std::char_traits<char> >* -->
    <pointer-type-def type-id='type-id-225' size-in-bits='64' id='type-id-227'/>
    <!-- std::basic_ostream<char, std::char_traits<char> >* const -->
    <qualified-type-def type-id='type-id-227' const='yes' id='type-id-228'/>
    <!-- std::char_traits<char>::char_type& -->
    <reference-type-def kind='lvalue' type-id='type-id-173' size-in-bits='64' id='type-id-229'/>
    <!-- std::char_traits<char>::char_type* -->
    <pointer-type-def type-id='type-id-173' size-in-bits='64' id='type-id-230'/>
    <!-- std::deque<vtkPixelExtent, std::allocator<vtkPixelExtent> >& -->
    <reference-type-def kind='lvalue' type-id='type-id-180' size-in-bits='64' id='type-id-231'/>
    <!-- std::deque<vtkPixelExtent, std::allocator<vtkPixelExtent> >* -->
    <pointer-type-def type-id='type-id-180' size-in-bits='64' id='type-id-232'/>
    <!-- std::deque<vtkPixelExtent, std::allocator<vtkPixelExtent> >* const -->
    <qualified-type-def type-id='type-id-232' const='yes' id='type-id-233'/>
    <!-- std::ios_base& -->
    <reference-type-def kind='lvalue' type-id='type-id-234' size-in-bits='64' id='type-id-235'/>
    <!-- std::ios_base::Init* -->
    <pointer-type-def type-id='type-id-236' size-in-bits='64' id='type-id-237'/>
    <!-- std::ostream& -->
    <reference-type-def kind='lvalue' type-id='type-id-238' size-in-bits='64' id='type-id-69'/>
    <!-- typedef __va_list_tag __va_list_tag* -->
    <pointer-type-def type-id='type-id-12' size-in-bits='64' id='type-id-239'/>
    <!-- unsigned int* -->
    <pointer-type-def type-id='type-id-13' size-in-bits='64' id='type-id-54'/>
    <!-- void ()* -->
    <pointer-type-def type-id='type-id-240' size-in-bits='64' id='type-id-241'/>
    <!-- void* -->
    <pointer-type-def type-id='type-id-27' size-in-bits='64' id='type-id-14'/>
    <!-- vtkAbstractArray* -->
    <pointer-type-def type-id='type-id-242' size-in-bits='64' id='type-id-243'/>
    <!-- vtkAbstractArray* const -->
    <qualified-type-def type-id='type-id-243' const='yes' id='type-id-244'/>
    <!-- vtkAlgorithm* -->
    <pointer-type-def type-id='type-id-245' size-in-bits='64' id='type-id-246'/>
    <!-- vtkDataArray* -->
    <pointer-type-def type-id='type-id-247' size-in-bits='64' id='type-id-248'/>
    <!-- vtkDataArray* const -->
    <qualified-type-def type-id='type-id-248' const='yes' id='type-id-249'/>
    <!-- vtkDataArrayTemplate<float>* -->
    <pointer-type-def type-id='type-id-250' size-in-bits='64' id='type-id-251'/>
    <!-- vtkDataArrayTemplate<float>* const -->
    <qualified-type-def type-id='type-id-251' const='yes' id='type-id-252'/>
    <!-- vtkDataObject* -->
    <pointer-type-def type-id='type-id-253' size-in-bits='64' id='type-id-254'/>
    <!-- vtkDataSet* -->
    <pointer-type-def type-id='type-id-255' size-in-bits='64' id='type-id-256'/>
    <!-- vtkDataSet* const -->
    <qualified-type-def type-id='type-id-256' const='yes' id='type-id-257'/>
    <!-- vtkExtentTranslator* -->
    <pointer-type-def type-id='type-id-59' size-in-bits='64' id='type-id-61'/>
    <!-- vtkImageData* -->
    <pointer-type-def type-id='type-id-258' size-in-bits='64' id='type-id-259'/>
    <!-- vtkImageDataLIC2D* -->
    <pointer-type-def type-id='type-id-99' size-in-bits='64' id='type-id-66'/>
    <!-- vtkImageDataLIC2D* const -->
    <qualified-type-def type-id='type-id-66' const='yes' id='type-id-104'/>
    <!-- vtkImageDataLIC2DExtentTranslator* -->
    <pointer-type-def type-id='type-id-58' size-in-bits='64' id='type-id-63'/>
    <!-- vtkImageNoiseSource* -->
    <pointer-type-def type-id='type-id-260' size-in-bits='64' id='type-id-102'/>
    <!-- vtkIndent* -->
    <pointer-type-def type-id='type-id-70' size-in-bits='64' id='type-id-114'/>
    <!-- vtkInformation* -->
    <pointer-type-def type-id='type-id-261' size-in-bits='64' id='type-id-106'/>
    <!-- vtkInformationVector* -->
    <pointer-type-def type-id='type-id-262' size-in-bits='64' id='type-id-108'/>
    <!-- vtkInformationVector** -->
    <pointer-type-def type-id='type-id-108' size-in-bits='64' id='type-id-107'/>
    <!-- vtkObjectBase* -->
    <pointer-type-def type-id='type-id-263' size-in-bits='64' id='type-id-71'/>
    <!-- vtkOpenGLRenderWindow* -->
    <pointer-type-def type-id='type-id-264' size-in-bits='64' id='type-id-265'/>
    <!-- vtkPixelBufferObject* -->
    <pointer-type-def type-id='type-id-266' size-in-bits='64' id='type-id-267'/>
    <!-- vtkPixelBufferObject* const -->
    <qualified-type-def type-id='type-id-267' const='yes' id='type-id-268'/>
    <!-- vtkPixelExtent& -->
    <reference-type-def kind='lvalue' type-id='type-id-48' size-in-bits='64' id='type-id-269'/>
    <!-- vtkPixelExtent* -->
    <pointer-type-def type-id='type-id-48' size-in-bits='64' id='type-id-49'/>
    <!-- vtkPixelExtent* const -->
    <qualified-type-def type-id='type-id-49' const='yes' id='type-id-270'/>
    <!-- vtkPixelExtent* const& -->
    <reference-type-def kind='lvalue' type-id='type-id-270' size-in-bits='64' id='type-id-271'/>
    <!-- vtkPixelExtent* const* -->
    <pointer-type-def type-id='type-id-270' size-in-bits='64' id='type-id-272'/>
    <!-- vtkPixelExtent*& -->
    <reference-type-def kind='lvalue' type-id='type-id-49' size-in-bits='64' id='type-id-273'/>
    <!-- vtkPixelExtent** -->
    <pointer-type-def type-id='type-id-49' size-in-bits='64' id='type-id-274'/>
    <!-- vtkPointData* -->
    <pointer-type-def type-id='type-id-275' size-in-bits='64' id='type-id-276'/>
    <!-- vtkProgressObserver* -->
    <pointer-type-def type-id='type-id-277' size-in-bits='64' id='type-id-278'/>
    <!-- vtkRenderWindow& -->
    <reference-type-def kind='lvalue' type-id='type-id-279' size-in-bits='64' id='type-id-280'/>
    <!-- vtkRenderWindow* -->
    <pointer-type-def type-id='type-id-279' size-in-bits='64' id='type-id-76'/>
    <!-- vtkShaderProgram2* -->
    <pointer-type-def type-id='type-id-281' size-in-bits='64' id='type-id-101'/>
    <!-- vtkShaderProgram2* const -->
    <qualified-type-def type-id='type-id-101' const='yes' id='type-id-282'/>
    <!-- vtkWeakPointer<vtkRenderWindow>& -->
    <reference-type-def kind='lvalue' type-id='type-id-73' size-in-bits='64' id='type-id-283'/>
    <!-- vtkWeakPointer<vtkRenderWindow>* -->
    <pointer-type-def type-id='type-id-73' size-in-bits='64' id='type-id-75'/>
    <!-- vtkWeakPointer<vtkRenderWindow>* const -->
    <qualified-type-def type-id='type-id-75' const='yes' id='type-id-284'/>
    <!-- vtkWeakPointerBase& -->
    <reference-type-def kind='lvalue' type-id='type-id-74' size-in-bits='64' id='type-id-285'/>
    <!-- vtkWeakPointerBase* -->
    <pointer-type-def type-id='type-id-74' size-in-bits='64' id='type-id-98'/>
    <!-- wchar_t* -->
    <pointer-type-def type-id='type-id-28' size-in-bits='64' id='type-id-286'/>
    <!-- wchar_t** -->
    <pointer-type-def type-id='type-id-286' size-in-bits='64' id='type-id-287'/>
    <!-- class vtkAlgorithm -->
    <class-decl name='vtkAlgorithm' visibility='default' is-declaration-only='yes' id='type-id-245'>
      <member-function access='private' vtable-offset='24'>
        <!-- vtkInformation* vtkAlgorithm::GetInformation() -->
        <function-decl name='GetInformation' mangled-name='_ZN12vtkAlgorithm14GetInformationEv' filepath='/tmp/legendre/spack-stage/spack-stage-R_crTC/VTK-6.1.0/Common/ExecutionModel/vtkAlgorithm.h' line='160' column='1' visibility='default' binding='global' size-in-bits='64'>
          <!-- implicit parameter of type 'vtkAlgorithm*' -->
          <parameter type-id='type-id-246' is-artificial='yes'/>
          <!-- vtkInformation* -->
          <return type-id='type-id-106'/>
        </function-decl>
      </member-function>
      <member-function access='private' vtable-offset='26'>
        <!-- void vtkAlgorithm::SetAbortExecute(int) -->
        <function-decl name='SetAbortExecute' mangled-name='_ZN12vtkAlgorithm15SetAbortExecuteEi' filepath='/tmp/legendre/spack-stage/spack-stage-R_crTC/VTK-6.1.0/Common/ExecutionModel/vtkAlgorithm.h' line='179' column='1' visibility='default' binding='global' size-in-bits='64'>
          <!-- implicit parameter of type 'vtkAlgorithm*' -->
          <parameter type-id='type-id-246' is-artificial='yes'/>
          <!-- parameter of type 'int' -->
          <parameter type-id='type-id-17'/>
          <!-- void -->
          <return type-id='type-id-27'/>
        </function-decl>
      </member-function>
      <member-function access='private' vtable-offset='27'>
        <!-- int vtkAlgorithm::GetAbortExecute() -->
        <function-decl name='GetAbortExecute' mangled-name='_ZN12vtkAlgorithm15GetAbortExecuteEv' filepath='/tmp/legendre/spack-stage/spack-stage-R_crTC/VTK-6.1.0/Common/ExecutionModel/vtkAlgorithm.h' line='180' column='1' visibility='default' binding='global' size-in-bits='64'>
          <!-- implicit parameter of type 'vtkAlgorithm*' -->
          <parameter type-id='type-id-246' is-artificial='yes'/>
          <!-- int -->
          <return type-id='type-id-17'/>
        </function-decl>
      </member-function>
      <member-function access='private' vtable-offset='28'>
        <!-- void vtkAlgorithm::AbortExecuteOn() -->
        <function-decl name='AbortExecuteOn' mangled-name='_ZN12vtkAlgorithm14AbortExecuteOnEv' filepath='/tmp/legendre/spack-stage/spack-stage-R_crTC/VTK-6.1.0/Common/ExecutionModel/vtkAlgorithm.h' line='181' column='1' visibility='default' binding='global' size-in-bits='64'>
          <!-- implicit parameter of type 'vtkAlgorithm*' -->
          <parameter type-id='type-id-246' is-artificial='yes'/>
          <!-- void -->
          <return type-id='type-id-27'/>
        </function-decl>
      </member-function>
      <member-function access='private' vtable-offset='29'>
        <!-- void vtkAlgorithm::AbortExecuteOff() -->
        <function-decl name='AbortExecuteOff' mangled-name='_ZN12vtkAlgorithm15AbortExecuteOffEv' filepath='/tmp/legendre/spack-stage/spack-stage-R_crTC/VTK-6.1.0/Common/ExecutionModel/vtkAlgorithm.h' line='181' column='1' visibility='default' binding='global' size-in-bits='64'>
          <!-- implicit parameter of type 'vtkAlgorithm*' -->
          <parameter type-id='type-id-246' is-artificial='yes'/>
          <!-- void -->
          <return type-id='type-id-27'/>
        </function-decl>
      </member-function>
      <member-function access='private' vtable-offset='30'>
        <!-- void vtkAlgorithm::SetProgress(double) -->
        <function-decl name='SetProgress' mangled-name='_ZN12vtkAlgorithm11SetProgressEd' filepath='/tmp/legendre/spack-stage/spack-stage-R_crTC/VTK-6.1.0/Common/ExecutionModel/vtkAlgorithm.h' line='185' column='1' visibility='default' binding='global' size-in-bits='64'>
          <!-- implicit parameter of type 'vtkAlgorithm*' -->
          <parameter type-id='type-id-246' is-artificial='yes'/>
          <!-- parameter of type 'double' -->
          <parameter type-id='type-id-15'/>
          <!-- void -->
          <return type-id='type-id-27'/>
        </function-decl>
      </member-function>
      <member-function access='private' vtable-offset='31'>
        <!-- double vtkAlgorithm::GetProgressMinValue() -->
        <function-decl name='GetProgressMinValue' mangled-name='_ZN12vtkAlgorithm19GetProgressMinValueEv' filepath='/tmp/legendre/spack-stage/spack-stage-R_crTC/VTK-6.1.0/Common/ExecutionModel/vtkAlgorithm.h' line='185' column='1' visibility='default' binding='global' size-in-bits='64'>
          <!-- implicit parameter of type 'vtkAlgorithm*' -->
          <parameter type-id='type-id-246' is-artificial='yes'/>
          <!-- double -->
          <return type-id='type-id-15'/>
        </function-decl>
      </member-function>
      <member-function access='private' vtable-offset='32'>
        <!-- double vtkAlgorithm::GetProgressMaxValue() -->
        <function-decl name='GetProgressMaxValue' mangled-name='_ZN12vtkAlgorithm19GetProgressMaxValueEv' filepath='/tmp/legendre/spack-stage/spack-stage-R_crTC/VTK-6.1.0/Common/ExecutionModel/vtkAlgorithm.h' line='185' column='1' visibility='default' binding='global' size-in-bits='64'>
          <!-- implicit parameter of type 'vtkAlgorithm*' -->
          <parameter type-id='type-id-246' is-artificial='yes'/>
          <!-- double -->
          <return type-id='type-id-15'/>
        </function-decl>
      </member-function>
      <member-function access='private' vtable-offset='33'>
        <!-- double vtkAlgorithm::GetProgress() -->
        <function-decl name='GetProgress' mangled-name='_ZN12vtkAlgorithm11GetProgressEv' filepath='/tmp/legendre/spack-stage/spack-stage-R_crTC/VTK-6.1.0/Common/ExecutionModel/vtkAlgorithm.h' line='186' column='1' visibility='default' binding='global' size-in-bits='64'>
          <!-- implicit parameter of type 'vtkAlgorithm*' -->
          <parameter type-id='type-id-246' is-artificial='yes'/>
          <!-- double -->
          <return type-id='type-id-15'/>
        </function-decl>
      </member-function>
      <member-function access='private' vtable-offset='34'>
        <!-- char* vtkAlgorithm::GetProgressText() -->
        <function-decl name='GetProgressText' mangled-name='_ZN12vtkAlgorithm15GetProgressTextEv' filepath='/tmp/legendre/spack-stage/spack-stage-R_crTC/VTK-6.1.0/Common/ExecutionModel/vtkAlgorithm.h' line='201' column='1' visibility='default' binding='global' size-in-bits='64'>
          <!-- implicit parameter of type 'vtkAlgorithm*' -->
          <parameter type-id='type-id-246' is-artificial='yes'/>
          <!-- char* -->
          <return type-id='type-id-32'/>
        </function-decl>
      </member-function>
      <member-function access='private' vtable-offset='35'>
        <!-- unsigned long int vtkAlgorithm::GetErrorCode() -->
        <function-decl name='GetErrorCode' mangled-name='_ZN12vtkAlgorithm12GetErrorCodeEv' filepath='/tmp/legendre/spack-stage/spack-stage-R_crTC/VTK-6.1.0/Common/ExecutionModel/vtkAlgorithm.h' line='206' column='1' visibility='default' binding='global' size-in-bits='64'>
          <!-- implicit parameter of type 'vtkAlgorithm*' -->
          <parameter type-id='type-id-246' is-artificial='yes'/>
          <!-- unsigned long int -->
          <return type-id='type-id-4'/>
        </function-decl>
      </member-function>
      <member-function access='private' vtable-offset='48'>
        <!-- void vtkAlgorithm::SetInputDataObject(vtkDataObject*) -->
        <function-decl name='SetInputDataObject' mangled-name='_ZN12vtkAlgorithm18SetInputDataObjectEP13vtkDataObject' filepath='/tmp/legendre/spack-stage/spack-stage-R_crTC/VTK-6.1.0/Common/ExecutionModel/vtkAlgorithm.h' line='338' column='1' visibility='default' binding='global' size-in-bits='64'>
          <!-- implicit parameter of type 'vtkAlgorithm*' -->
          <parameter type-id='type-id-246' is-artificial='yes'/>
          <!-- parameter of type 'vtkDataObject*' -->
          <parameter type-id='type-id-254'/>
          <!-- void -->
          <return type-id='type-id-27'/>
        </function-decl>
      </member-function>
      <member-function access='private' vtable-offset='50'>
        <!-- void vtkAlgorithm::AddInputDataObject(vtkDataObject*) -->
        <function-decl name='AddInputDataObject' mangled-name='_ZN12vtkAlgorithm18AddInputDataObjectEP13vtkDataObject' filepath='/tmp/legendre/spack-stage/spack-stage-R_crTC/VTK-6.1.0/Common/ExecutionModel/vtkAlgorithm.h' line='346' column='1' visibility='default' binding='global' size-in-bits='64'>
          <!-- implicit parameter of type 'vtkAlgorithm*' -->
          <parameter type-id='type-id-246' is-artificial='yes'/>
          <!-- parameter of type 'vtkDataObject*' -->
          <parameter type-id='type-id-254'/>
          <!-- void -->
          <return type-id='type-id-27'/>
        </function-decl>
      </member-function>
      <member-function access='private' vtable-offset='59'>
        <!-- vtkProgressObserver* vtkAlgorithm::GetProgressObserver() -->
        <function-decl name='GetProgressObserver' mangled-name='_ZN12vtkAlgorithm19GetProgressObserverEv' filepath='/tmp/legendre/spack-stage/spack-stage-R_crTC/VTK-6.1.0/Common/ExecutionModel/vtkAlgorithm.h' line='578' column='1' visibility='default' binding='global' size-in-bits='64'>
          <!-- implicit parameter of type 'vtkAlgorithm*' -->
          <parameter type-id='type-id-246' is-artificial='yes'/>
          <!-- vtkProgressObserver* -->
          <return type-id='type-id-278'/>
        </function-decl>
      </member-function>
      <member-function access='protected' vtable-offset='65'>
        <!-- void vtkAlgorithm::SetErrorCode(unsigned long int) -->
        <function-decl name='SetErrorCode' mangled-name='_ZN12vtkAlgorithm12SetErrorCodeEm' filepath='/tmp/legendre/spack-stage/spack-stage-R_crTC/VTK-6.1.0/Common/ExecutionModel/vtkAlgorithm.h' line='710' column='1' visibility='default' binding='global' size-in-bits='64'>
          <!-- implicit parameter of type 'vtkAlgorithm*' -->
          <parameter type-id='type-id-246' is-artificial='yes'/>
          <!-- parameter of type 'unsigned long int' -->
          <parameter type-id='type-id-4'/>
          <!-- void -->
          <return type-id='type-id-27'/>
        </function-decl>
      </member-function>
    </class-decl>
    <!-- class vtkDataArrayTemplate<float> -->
    <class-decl name='vtkDataArrayTemplate&lt;float&gt;' visibility='default' is-declaration-only='yes' id='type-id-250'>
      <member-type access='private'>
        <!-- enum vtkDataArrayTemplate<float>::DeleteMethod -->
        <enum-decl name='DeleteMethod' filepath='/tmp/legendre/spack-stage/spack-stage-R_crTC/VTK-6.1.0/Common/Core/vtkDataArrayTemplate.h' line='254' column='1' id='type-id-288'>
          <underlying-type type-id='type-id-24'/>
          <enumerator name='VTK_DATA_ARRAY_FREE' value='0'/>
          <enumerator name='VTK_DATA_ARRAY_DELETE' value='1'/>
        </enum-decl>
      </member-type>
    </class-decl>
    <!-- class vtkDataObject -->
    <class-decl name='vtkDataObject' visibility='default' is-declaration-only='yes' id='type-id-253'>
      <member-type access='private'>
        <!-- enum vtkDataObject::FieldAssociations -->
        <enum-decl name='FieldAssociations' filepath='/tmp/legendre/spack-stage/spack-stage-R_crTC/VTK-6.1.0/Common/DataModel/vtkDataObject.h' line='212' column='1' id='type-id-289'>
          <underlying-type type-id='type-id-24'/>
          <enumerator name='FIELD_ASSOCIATION_POINTS' value='0'/>
          <enumerator name='FIELD_ASSOCIATION_CELLS' value='1'/>
          <enumerator name='FIELD_ASSOCIATION_NONE' value='2'/>
          <enumerator name='FIELD_ASSOCIATION_POINTS_THEN_CELLS' value='3'/>
          <enumerator name='FIELD_ASSOCIATION_VERTICES' value='4'/>
          <enumerator name='FIELD_ASSOCIATION_EDGES' value='5'/>
          <enumerator name='FIELD_ASSOCIATION_ROWS' value='6'/>
          <enumerator name='NUMBER_OF_ASSOCIATIONS' value='7'/>
        </enum-decl>
      </member-type>
    </class-decl>
    <!-- class vtkExtentTranslator -->
    <class-decl name='vtkExtentTranslator' visibility='default' is-declaration-only='yes' id='type-id-59'>
      <member-function access='private' vtable-offset='20'>
        <!-- void vtkExtentTranslator::SetWholeExtent(int, int, int, int, int, int) -->
        <function-decl name='SetWholeExtent' mangled-name='_ZN19vtkExtentTranslator14SetWholeExtentEiiiiii' filepath='/tmp/legendre/spack-stage/spack-stage-R_crTC/VTK-6.1.0/Common/DataModel/vtkExtentTranslator.h' line='43' column='1' visibility='default' binding='global' size-in-bits='64'>
          <!-- implicit parameter of type 'vtkExtentTranslator*' -->
          <parameter type-id='type-id-61' is-artificial='yes'/>
          <!-- parameter of type 'int' -->
          <parameter type-id='type-id-17'/>
          <!-- parameter of type 'int' -->
          <parameter type-id='type-id-17'/>
          <!-- parameter of type 'int' -->
          <parameter type-id='type-id-17'/>
          <!-- parameter of type 'int' -->
          <parameter type-id='type-id-17'/>
          <!-- parameter of type 'int' -->
          <parameter type-id='type-id-17'/>
          <!-- parameter of type 'int' -->
          <parameter type-id='type-id-17'/>
          <!-- void -->
          <return type-id='type-id-27'/>
        </function-decl>
      </member-function>
      <member-function access='private' vtable-offset='21'>
        <!-- void vtkExtentTranslator::SetWholeExtent(int*) -->
        <function-decl name='SetWholeExtent' mangled-name='_ZN19vtkExtentTranslator14SetWholeExtentEPi' filepath='/tmp/legendre/spack-stage/spack-stage-R_crTC/VTK-6.1.0/Common/DataModel/vtkExtentTranslator.h' line='43' column='1' visibility='default' binding='global' size-in-bits='64'>
          <!-- implicit parameter of type 'vtkExtentTranslator*' -->
          <parameter type-id='type-id-61' is-artificial='yes'/>
          <!-- parameter of type 'int*' -->
          <parameter type-id='type-id-52'/>
          <!-- void -->
          <return type-id='type-id-27'/>
        </function-decl>
      </member-function>
      <member-function access='private' vtable-offset='22'>
        <!-- int* vtkExtentTranslator::GetWholeExtent() -->
        <function-decl name='GetWholeExtent' mangled-name='_ZN19vtkExtentTranslator14GetWholeExtentEv' filepath='/tmp/legendre/spack-stage/spack-stage-R_crTC/VTK-6.1.0/Common/DataModel/vtkExtentTranslator.h' line='44' column='1' visibility='default' binding='global' size-in-bits='64'>
          <!-- implicit parameter of type 'vtkExtentTranslator*' -->
          <parameter type-id='type-id-61' is-artificial='yes'/>
          <!-- int* -->
          <return type-id='type-id-52'/>
        </function-decl>
      </member-function>
      <member-function access='private' vtable-offset='23'>
        <!-- void vtkExtentTranslator::GetWholeExtent(int&, int&, int&, int&, int&, int&) -->
        <function-decl name='GetWholeExtent' mangled-name='_ZN19vtkExtentTranslator14GetWholeExtentERiS0_S0_S0_S0_S0_' filepath='/tmp/legendre/spack-stage/spack-stage-R_crTC/VTK-6.1.0/Common/DataModel/vtkExtentTranslator.h' line='44' column='1' visibility='default' binding='global' size-in-bits='64'>
          <!-- implicit parameter of type 'vtkExtentTranslator*' -->
          <parameter type-id='type-id-61' is-artificial='yes'/>
          <!-- parameter of type 'int&' -->
          <parameter type-id='type-id-72'/>
          <!-- parameter of type 'int&' -->
          <parameter type-id='type-id-72'/>
          <!-- parameter of type 'int&' -->
          <parameter type-id='type-id-72'/>
          <!-- parameter of type 'int&' -->
          <parameter type-id='type-id-72'/>
          <!-- parameter of type 'int&' -->
          <parameter type-id='type-id-72'/>
          <!-- parameter of type 'int&' -->
          <parameter type-id='type-id-72'/>
          <!-- void -->
          <return type-id='type-id-27'/>
        </function-decl>
      </member-function>
      <member-function access='private' vtable-offset='24'>
        <!-- void vtkExtentTranslator::GetWholeExtent(int*) -->
        <function-decl name='GetWholeExtent' mangled-name='_ZN19vtkExtentTranslator14GetWholeExtentEPi' filepath='/tmp/legendre/spack-stage/spack-stage-R_crTC/VTK-6.1.0/Common/DataModel/vtkExtentTranslator.h' line='44' column='1' visibility='default' binding='global' size-in-bits='64'>
          <!-- implicit parameter of type 'vtkExtentTranslator*' -->
          <parameter type-id='type-id-61' is-artificial='yes'/>
          <!-- parameter of type 'int*' -->
          <parameter type-id='type-id-52'/>
          <!-- void -->
          <return type-id='type-id-27'/>
        </function-decl>
      </member-function>
      <member-function access='private' vtable-offset='25'>
        <!-- void vtkExtentTranslator::SetExtent(int, int, int, int, int, int) -->
        <function-decl name='SetExtent' mangled-name='_ZN19vtkExtentTranslator9SetExtentEiiiiii' filepath='/tmp/legendre/spack-stage/spack-stage-R_crTC/VTK-6.1.0/Common/DataModel/vtkExtentTranslator.h' line='45' column='1' visibility='default' binding='global' size-in-bits='64'>
          <!-- implicit parameter of type 'vtkExtentTranslator*' -->
          <parameter type-id='type-id-61' is-artificial='yes'/>
          <!-- parameter of type 'int' -->
          <parameter type-id='type-id-17'/>
          <!-- parameter of type 'int' -->
          <parameter type-id='type-id-17'/>
          <!-- parameter of type 'int' -->
          <parameter type-id='type-id-17'/>
          <!-- parameter of type 'int' -->
          <parameter type-id='type-id-17'/>
          <!-- parameter of type 'int' -->
          <parameter type-id='type-id-17'/>
          <!-- parameter of type 'int' -->
          <parameter type-id='type-id-17'/>
          <!-- void -->
          <return type-id='type-id-27'/>
        </function-decl>
      </member-function>
      <member-function access='private' vtable-offset='26'>
        <!-- void vtkExtentTranslator::SetExtent(int*) -->
        <function-decl name='SetExtent' mangled-name='_ZN19vtkExtentTranslator9SetExtentEPi' filepath='/tmp/legendre/spack-stage/spack-stage-R_crTC/VTK-6.1.0/Common/DataModel/vtkExtentTranslator.h' line='45' column='1' visibility='default' binding='global' size-in-bits='64'>
          <!-- implicit parameter of type 'vtkExtentTranslator*' -->
          <parameter type-id='type-id-61' is-artificial='yes'/>
          <!-- parameter of type 'int*' -->
          <parameter type-id='type-id-52'/>
          <!-- void -->
          <return type-id='type-id-27'/>
        </function-decl>
      </member-function>
      <member-function access='private' vtable-offset='27'>
        <!-- int* vtkExtentTranslator::GetExtent() -->
        <function-decl name='GetExtent' mangled-name='_ZN19vtkExtentTranslator9GetExtentEv' filepath='/tmp/legendre/spack-stage/spack-stage-R_crTC/VTK-6.1.0/Common/DataModel/vtkExtentTranslator.h' line='46' column='1' visibility='default' binding='global' size-in-bits='64'>
          <!-- implicit parameter of type 'vtkExtentTranslator*' -->
          <parameter type-id='type-id-61' is-artificial='yes'/>
          <!-- int* -->
          <return type-id='type-id-52'/>
        </function-decl>
      </member-function>
      <member-function access='private' vtable-offset='28'>
        <!-- void vtkExtentTranslator::GetExtent(int&, int&, int&, int&, int&, int&) -->
        <function-decl name='GetExtent' mangled-name='_ZN19vtkExtentTranslator9GetExtentERiS0_S0_S0_S0_S0_' filepath='/tmp/legendre/spack-stage/spack-stage-R_crTC/VTK-6.1.0/Common/DataModel/vtkExtentTranslator.h' line='46' column='1' visibility='default' binding='global' size-in-bits='64'>
          <!-- implicit parameter of type 'vtkExtentTranslator*' -->
          <parameter type-id='type-id-61' is-artificial='yes'/>
          <!-- parameter of type 'int&' -->
          <parameter type-id='type-id-72'/>
          <!-- parameter of type 'int&' -->
          <parameter type-id='type-id-72'/>
          <!-- parameter of type 'int&' -->
          <parameter type-id='type-id-72'/>
          <!-- parameter of type 'int&' -->
          <parameter type-id='type-id-72'/>
          <!-- parameter of type 'int&' -->
          <parameter type-id='type-id-72'/>
          <!-- parameter of type 'int&' -->
          <parameter type-id='type-id-72'/>
          <!-- void -->
          <return type-id='type-id-27'/>
        </function-decl>
      </member-function>
      <member-function access='private' vtable-offset='29'>
        <!-- void vtkExtentTranslator::GetExtent(int*) -->
        <function-decl name='GetExtent' mangled-name='_ZN19vtkExtentTranslator9GetExtentEPi' filepath='/tmp/legendre/spack-stage/spack-stage-R_crTC/VTK-6.1.0/Common/DataModel/vtkExtentTranslator.h' line='46' column='1' visibility='default' binding='global' size-in-bits='64'>
          <!-- implicit parameter of type 'vtkExtentTranslator*' -->
          <parameter type-id='type-id-61' is-artificial='yes'/>
          <!-- parameter of type 'int*' -->
          <parameter type-id='type-id-52'/>
          <!-- void -->
          <return type-id='type-id-27'/>
        </function-decl>
      </member-function>
      <member-function access='private' vtable-offset='30'>
        <!-- void vtkExtentTranslator::SetPiece(int) -->
        <function-decl name='SetPiece' mangled-name='_ZN19vtkExtentTranslator8SetPieceEi' filepath='/tmp/legendre/spack-stage/spack-stage-R_crTC/VTK-6.1.0/Common/DataModel/vtkExtentTranslator.h' line='47' column='1' visibility='default' binding='global' size-in-bits='64'>
          <!-- implicit parameter of type 'vtkExtentTranslator*' -->
          <parameter type-id='type-id-61' is-artificial='yes'/>
          <!-- parameter of type 'int' -->
          <parameter type-id='type-id-17'/>
          <!-- void -->
          <return type-id='type-id-27'/>
        </function-decl>
      </member-function>
      <member-function access='private' vtable-offset='31'>
        <!-- int vtkExtentTranslator::GetPiece() -->
        <function-decl name='GetPiece' mangled-name='_ZN19vtkExtentTranslator8GetPieceEv' filepath='/tmp/legendre/spack-stage/spack-stage-R_crTC/VTK-6.1.0/Common/DataModel/vtkExtentTranslator.h' line='48' column='1' visibility='default' binding='global' size-in-bits='64'>
          <!-- implicit parameter of type 'vtkExtentTranslator*' -->
          <parameter type-id='type-id-61' is-artificial='yes'/>
          <!-- int -->
          <return type-id='type-id-17'/>
        </function-decl>
      </member-function>
      <member-function access='private' vtable-offset='32'>
        <!-- void vtkExtentTranslator::SetNumberOfPieces(int) -->
        <function-decl name='SetNumberOfPieces' mangled-name='_ZN19vtkExtentTranslator17SetNumberOfPiecesEi' filepath='/tmp/legendre/spack-stage/spack-stage-R_crTC/VTK-6.1.0/Common/DataModel/vtkExtentTranslator.h' line='49' column='1' visibility='default' binding='global' size-in-bits='64'>
          <!-- implicit parameter of type 'vtkExtentTranslator*' -->
          <parameter type-id='type-id-61' is-artificial='yes'/>
          <!-- parameter of type 'int' -->
          <parameter type-id='type-id-17'/>
          <!-- void -->
          <return type-id='type-id-27'/>
        </function-decl>
      </member-function>
      <member-function access='private' vtable-offset='33'>
        <!-- int vtkExtentTranslator::GetNumberOfPieces() -->
        <function-decl name='GetNumberOfPieces' mangled-name='_ZN19vtkExtentTranslator17GetNumberOfPiecesEv' filepath='/tmp/legendre/spack-stage/spack-stage-R_crTC/VTK-6.1.0/Common/DataModel/vtkExtentTranslator.h' line='50' column='1' visibility='default' binding='global' size-in-bits='64'>
          <!-- implicit parameter of type 'vtkExtentTranslator*' -->
          <parameter type-id='type-id-61' is-artificial='yes'/>
          <!-- int -->
          <return type-id='type-id-17'/>
        </function-decl>
      </member-function>
      <member-function access='private' vtable-offset='34'>
        <!-- void vtkExtentTranslator::SetGhostLevel(int) -->
        <function-decl name='SetGhostLevel' mangled-name='_ZN19vtkExtentTranslator13SetGhostLevelEi' filepath='/tmp/legendre/spack-stage/spack-stage-R_crTC/VTK-6.1.0/Common/DataModel/vtkExtentTranslator.h' line='51' column='1' visibility='default' binding='global' size-in-bits='64'>
          <!-- implicit parameter of type 'vtkExtentTranslator*' -->
          <parameter type-id='type-id-61' is-artificial='yes'/>
          <!-- parameter of type 'int' -->
          <parameter type-id='type-id-17'/>
          <!-- void -->
          <return type-id='type-id-27'/>
        </function-decl>
      </member-function>
      <member-function access='private' vtable-offset='35'>
        <!-- int vtkExtentTranslator::GetGhostLevel() -->
        <function-decl name='GetGhostLevel' mangled-name='_ZN19vtkExtentTranslator13GetGhostLevelEv' filepath='/tmp/legendre/spack-stage/spack-stage-R_crTC/VTK-6.1.0/Common/DataModel/vtkExtentTranslator.h' line='52' column='1' visibility='default' binding='global' size-in-bits='64'>
          <!-- implicit parameter of type 'vtkExtentTranslator*' -->
          <parameter type-id='type-id-61' is-artificial='yes'/>
          <!-- int -->
          <return type-id='type-id-17'/>
        </function-decl>
      </member-function>
      <member-function access='private' vtable-offset='39'>
        <!-- int vtkExtentTranslator::GetSplitMode() -->
        <function-decl name='GetSplitMode' mangled-name='_ZN19vtkExtentTranslator12GetSplitModeEv' filepath='/tmp/legendre/spack-stage/spack-stage-R_crTC/VTK-6.1.0/Common/DataModel/vtkExtentTranslator.h' line='83' column='1' visibility='default' binding='global' size-in-bits='64'>
          <!-- implicit parameter of type 'vtkExtentTranslator*' -->
          <parameter type-id='type-id-61' is-artificial='yes'/>
          <!-- int -->
          <return type-id='type-id-17'/>
        </function-decl>
      </member-function>
    </class-decl>
    <!-- class vtkOStreamWrapper -->
    <class-decl name='vtkOStreamWrapper' visibility='default' is-declaration-only='yes' id='type-id-290'>
      <member-type access='private'>
        <!-- struct vtkOStreamWrapper::EndlType -->
        <class-decl name='EndlType' size-in-bits='8' is-struct='yes' visibility='default' filepath='/tmp/legendre/spack-stage/spack-stage-R_crTC/VTK-6.1.0/Common/Core/vtkOStreamWrapper.h' line='58' column='1' id='type-id-188'/>
      </member-type>
    </class-decl>
    <!-- class vtkObjectBase -->
    <class-decl name='vtkObjectBase' visibility='default' is-declaration-only='yes' id='type-id-263'>
      <member-function access='protected' vtable-offset='11'>
        <!-- void vtkObjectBase::CollectRevisions(std::ostream&) -->
        <function-decl name='CollectRevisions' mangled-name='_ZN13vtkObjectBase16CollectRevisionsERSo' filepath='/tmp/legendre/spack-stage/spack-stage-R_crTC/VTK-6.1.0/Common/Core/vtkObjectBase.h' line='163' column='1' visibility='default' binding='global' size-in-bits='64'>
          <!-- implicit parameter of type 'vtkObjectBase*' -->
          <parameter type-id='type-id-71' is-artificial='yes'/>
          <!-- parameter of type 'std::ostream&' -->
          <parameter type-id='type-id-69'/>
          <!-- void -->
          <return type-id='type-id-27'/>
        </function-decl>
      </member-function>
    </class-decl>
    <!-- class vtkPixelBufferObject -->
    <class-decl name='vtkPixelBufferObject' visibility='default' is-declaration-only='yes' id='type-id-266'>
      <member-type access='private'>
        <!-- enum vtkPixelBufferObject::BufferType -->
        <enum-decl name='BufferType' filepath='/tmp/legendre/spack-stage/spack-stage-R_crTC/VTK-6.1.0/Rendering/OpenGL/vtkPixelBufferObject.h' line='265' column='1' id='type-id-291'>
          <underlying-type type-id='type-id-24'/>
          <enumerator name='UNPACKED_BUFFER' value='0'/>
          <enumerator name='PACKED_BUFFER' value='1'/>
        </enum-decl>
      </member-type>
    </class-decl>
    <!-- class vtkTextureObject -->
    <class-decl name='vtkTextureObject' visibility='default' is-declaration-only='yes' id='type-id-292'>
      <member-type access='private'>
        <!-- enum vtkTextureObject::__anonymous_enum__2 -->
        <enum-decl name='__anonymous_enum__2' is-anonymous='yes' filepath='/tmp/legendre/spack-stage/spack-stage-R_crTC/VTK-6.1.0/Rendering/OpenGL/vtkTextureObject.h' line='88' column='1' id='type-id-293'>
          <underlying-type type-id='type-id-24'/>
          <enumerator name='Native' value='0'/>
          <enumerator name='Fixed16' value='1'/>
          <enumerator name='Fixed24' value='2'/>
          <enumerator name='Fixed32' value='3'/>
          <enumerator name='Float32' value='4'/>
          <enumerator name='NumberOfDepthFormats' value='5'/>
        </enum-decl>
      </member-type>
      <member-type access='private'>
        <!-- enum vtkTextureObject::__anonymous_enum__ -->
        <enum-decl name='__anonymous_enum__' is-anonymous='yes' filepath='/tmp/legendre/spack-stage/spack-stage-R_crTC/VTK-6.1.0/Rendering/OpenGL/vtkTextureObject.h' line='65' column='1' id='type-id-294'>
          <underlying-type type-id='type-id-24'/>
          <enumerator name='Clamp' value='0'/>
          <enumerator name='ClampToEdge' value='1'/>
          <enumerator name='Repeat' value='2'/>
          <enumerator name='ClampToBorder' value='3'/>
          <enumerator name='MirroredRepeat' value='4'/>
          <enumerator name='NumberOfWrapModes' value='5'/>
        </enum-decl>
      </member-type>
      <member-type access='private'>
        <!-- enum vtkTextureObject::__anonymous_enum__1 -->
        <enum-decl name='__anonymous_enum__1' is-anonymous='yes' filepath='/tmp/legendre/spack-stage/spack-stage-R_crTC/VTK-6.1.0/Rendering/OpenGL/vtkTextureObject.h' line='76' column='1' id='type-id-295'>
          <underlying-type type-id='type-id-24'/>
          <enumerator name='Nearest' value='0'/>
          <enumerator name='Linear' value='1'/>
          <enumerator name='NearestMipmapNearest' value='2'/>
          <enumerator name='NearestMipmapLinear' value='3'/>
          <enumerator name='LinearMipmapNearest' value='4'/>
          <enumerator name='LinearMipmapLinear' value='5'/>
          <enumerator name='NumberOfMinificationModes' value='6'/>
        </enum-decl>
      </member-type>
    </class-decl>
    <!-- namespace std -->
    <namespace-decl name='std'>
      <!-- struct std::_Resetiosflags -->
      <class-decl name='_Resetiosflags' size-in-bits='32' is-struct='yes' visibility='default' filepath='/usr/lib/gcc/x86_64-redhat-linux/4.4.7/../../../../include/c++/4.4.7/iomanip' line='49' column='1' id='type-id-296'>
        <member-type access='public'>
          <!-- typedef std::_Ios_Fmtflags std::_Resetiosflags::fmtflags -->
          <typedef-decl name='fmtflags' type-id='type-id-297' filepath='/usr/lib/gcc/x86_64-redhat-linux/4.4.7/../../../../include/c++/4.4.7/bits/ios_base.h' line='263' column='1' id='type-id-151'/>
        </member-type>
        <data-member access='public' layout-offset-in-bits='0'>
          <!-- std::_Resetiosflags::fmtflags std::_Resetiosflags::_M_mask -->
          <var-decl name='_M_mask' type-id='type-id-151' visibility='default' filepath='/usr/lib/gcc/x86_64-redhat-linux/4.4.7/../../../../include/c++/4.4.7/iomanip' line='49' column='1'/>
        </data-member>
      </class-decl>
      <!-- enum std::_Ios_Fmtflags -->
      <enum-decl name='_Ios_Fmtflags' filepath='/usr/lib/gcc/x86_64-redhat-linux/4.4.7/../../../../include/c++/4.4.7/bits/ios_base.h' line='60' column='1' id='type-id-297'>
        <underlying-type type-id='type-id-24'/>
        <enumerator name='_S_boolalpha' value='1'/>
        <enumerator name='_S_dec' value='2'/>
        <enumerator name='_S_fixed' value='4'/>
        <enumerator name='_S_hex' value='8'/>
        <enumerator name='_S_internal' value='16'/>
        <enumerator name='_S_left' value='32'/>
        <enumerator name='_S_oct' value='64'/>
        <enumerator name='_S_right' value='128'/>
        <enumerator name='_S_scientific' value='256'/>
        <enumerator name='_S_showbase' value='512'/>
        <enumerator name='_S_showpoint' value='1024'/>
        <enumerator name='_S_showpos' value='2048'/>
        <enumerator name='_S_skipws' value='4096'/>
        <enumerator name='_S_unitbuf' value='8192'/>
        <enumerator name='_S_uppercase' value='16384'/>
        <enumerator name='_S_adjustfield' value='176'/>
        <enumerator name='_S_basefield' value='74'/>
        <enumerator name='_S_floatfield' value='260'/>
        <enumerator name='_S_ios_fmtflags_end' value='65536'/>
      </enum-decl>
      <!-- enum std::_Ios_Iostate -->
      <enum-decl name='_Ios_Iostate' filepath='/usr/lib/gcc/x86_64-redhat-linux/4.4.7/../../../../include/c++/4.4.7/bits/ios_base.h' line='152' column='1' id='type-id-298'>
        <underlying-type type-id='type-id-24'/>
        <enumerator name='_S_goodbit' value='0'/>
        <enumerator name='_S_badbit' value='1'/>
        <enumerator name='_S_eofbit' value='2'/>
        <enumerator name='_S_failbit' value='4'/>
        <enumerator name='_S_ios_iostate_end' value='65536'/>
      </enum-decl>
      <!-- class std::__basic_file<char> -->
      <class-decl name='__basic_file&lt;char&gt;' size-in-bits='128' visibility='default' filepath='/usr/lib/gcc/x86_64-redhat-linux/4.4.7/../../../../include/c++/4.4.7/x86_64-redhat-linux/bits/basic_file.h' line='53' column='1' id='type-id-153'>
        <member-type access='private'>
          <!-- typedef std::_Ios_Openmode std::__basic_file<char>::openmode -->
          <typedef-decl name='openmode' type-id='type-id-299' filepath='/usr/lib/gcc/x86_64-redhat-linux/4.4.7/../../../../include/c++/4.4.7/bits/ios_base.h' line='369' column='1' id='type-id-156'/>
        </member-type>
        <member-type access='private'>
          <!-- typedef std::_Ios_Seekdir std::__basic_file<char>::seekdir -->
          <typedef-decl name='seekdir' type-id='type-id-300' filepath='/usr/lib/gcc/x86_64-redhat-linux/4.4.7/../../../../include/c++/4.4.7/bits/ios_base.h' line='401' column='1' id='type-id-158'/>
        </member-type>
        <data-member access='private' layout-offset-in-bits='0'>
          <!-- std::__c_file* std::__basic_file<char>::_M_cfile -->
          <var-decl name='_M_cfile' type-id='type-id-217' visibility='default' filepath='/usr/lib/gcc/x86_64-redhat-linux/4.4.7/../../../../include/c++/4.4.7/x86_64-redhat-linux/bits/basic_file.h' line='55' column='1'/>
        </data-member>
        <data-member access='private' layout-offset-in-bits='64'>
          <!-- bool std::__basic_file<char>::_M_cfile_created -->
          <var-decl name='_M_cfile_created' type-id='type-id-1' visibility='default' filepath='/usr/lib/gcc/x86_64-redhat-linux/4.4.7/../../../../include/c++/4.4.7/x86_64-redhat-linux/bits/basic_file.h' line='58' column='1'/>
        </data-member>
        <member-function access='private'>
          <!-- void std::__basic_file<char>::__basic_file(std::__c_lock*) -->
          <function-decl name='__basic_file' filepath='/usr/lib/gcc/x86_64-redhat-linux/4.4.7/../../../../include/c++/4.4.7/x86_64-redhat-linux/bits/basic_file.h' line='61' column='1' visibility='default' binding='global' size-in-bits='64'>
            <!-- implicit parameter of type 'std::__basic_file<char>*' -->
            <parameter type-id='type-id-215' is-artificial='yes'/>
            <!-- parameter of type 'std::__c_lock*' -->
            <parameter type-id='type-id-219'/>
            <!-- void -->
            <return type-id='type-id-27'/>
          </function-decl>
        </member-function>
        <member-function access='private' destructor='yes'>
          <!-- std::__basic_file<char>::~__basic_file(int) -->
          <function-decl name='~__basic_file' filepath='/usr/lib/gcc/x86_64-redhat-linux/4.4.7/../../../../include/c++/4.4.7/x86_64-redhat-linux/bits/basic_file.h' line='84' column='1' visibility='default' binding='global' size-in-bits='64'>
            <!-- implicit parameter of type 'std::__basic_file<char>*' -->
            <parameter type-id='type-id-215' is-artificial='yes'/>
            <!-- artificial parameter of type 'int' -->
            <parameter type-id='type-id-17' is-artificial='yes'/>
            <!-- void -->
            <return type-id='type-id-27'/>
          </function-decl>
        </member-function>
      </class-decl>
      <!-- typedef FILE std::__c_file -->
      <typedef-decl name='__c_file' type-id='type-id-31' filepath='/usr/lib/gcc/x86_64-redhat-linux/4.4.7/../../../../include/c++/4.4.7/x86_64-redhat-linux/bits/c++io.h' line='45' column='1' id='type-id-216'/>
      <!-- typedef __gthread_mutex_t std::__c_lock -->
      <typedef-decl name='__c_lock' type-id='type-id-42' filepath='/usr/lib/gcc/x86_64-redhat-linux/4.4.7/../../../../include/c++/4.4.7/x86_64-redhat-linux/bits/c++io.h' line='42' column='1' id='type-id-218'/>
      <!-- class std::allocator<vtkPixelExtent> -->
      <class-decl name='allocator&lt;vtkPixelExtent&gt;' size-in-bits='8' visibility='default' filepath='/usr/lib/gcc/x86_64-redhat-linux/4.4.7/../../../../include/c++/4.4.7/bits/allocator.h' line='87' column='1' id='type-id-163'>
        <!-- class __gnu_cxx::new_allocator<vtkPixelExtent> -->
        <base-class access='public' layout-offset-in-bits='0' type-id='type-id-120'/>
        <member-function access='private'>
          <!-- void std::allocator<vtkPixelExtent>::allocator() -->
          <function-decl name='allocator' filepath='/usr/lib/gcc/x86_64-redhat-linux/4.4.7/../../../../include/c++/4.4.7/bits/allocator.h' line='101' column='1' visibility='default' binding='global' size-in-bits='64'>
            <!-- implicit parameter of type 'std::allocator<vtkPixelExtent>*' -->
            <parameter type-id='type-id-222' is-artificial='yes'/>
            <!-- void -->
            <return type-id='type-id-27'/>
          </function-decl>
        </member-function>
        <member-function access='private'>
          <!-- void std::allocator<vtkPixelExtent>::allocator(const std::allocator<vtkPixelExtent>&) -->
          <function-decl name='allocator' filepath='/usr/lib/gcc/x86_64-redhat-linux/4.4.7/../../../../include/c++/4.4.7/bits/allocator.h' line='103' column='1' visibility='default' binding='global' size-in-bits='64'>
            <!-- implicit parameter of type 'std::allocator<vtkPixelExtent>*' -->
            <parameter type-id='type-id-222' is-artificial='yes'/>
            <!-- parameter of type 'const std::allocator<vtkPixelExtent>&' -->
            <parameter type-id='type-id-165'/>
            <!-- void -->
            <return type-id='type-id-27'/>
          </function-decl>
        </member-function>
        <member-function access='private' destructor='yes'>
          <!-- std::allocator<vtkPixelExtent>::~allocator(int) -->
          <function-decl name='~allocator' filepath='/usr/lib/gcc/x86_64-redhat-linux/4.4.7/../../../../include/c++/4.4.7/bits/allocator.h' line='109' column='1' visibility='default' binding='global' size-in-bits='64'>
            <!-- implicit parameter of type 'std::allocator<vtkPixelExtent>*' -->
            <parameter type-id='type-id-222' is-artificial='yes'/>
            <!-- artificial parameter of type 'int' -->
            <parameter type-id='type-id-17' is-artificial='yes'/>
            <!-- void -->
            <return type-id='type-id-27'/>
          </function-decl>
        </member-function>
      </class-decl>
      <!-- enum std::_Ios_Openmode -->
      <enum-decl name='_Ios_Openmode' filepath='/usr/lib/gcc/x86_64-redhat-linux/4.4.7/../../../../include/c++/4.4.7/bits/ios_base.h' line='112' column='1' id='type-id-299'>
        <underlying-type type-id='type-id-24'/>
        <enumerator name='_S_app' value='1'/>
        <enumerator name='_S_ate' value='2'/>
        <enumerator name='_S_bin' value='4'/>
        <enumerator name='_S_in' value='8'/>
        <enumerator name='_S_out' value='16'/>
        <enumerator name='_S_trunc' value='32'/>
        <enumerator name='_S_ios_openmode_end' value='65536'/>
      </enum-decl>
      <!-- typedef ptrdiff_t std::streamsize -->
      <typedef-decl name='streamsize' type-id='type-id-47' filepath='/usr/lib/gcc/x86_64-redhat-linux/4.4.7/../../../../include/c++/4.4.7/bits/postypes.h' line='98' column='1' id='type-id-301'/>
      <!-- typedef long int std::streamoff -->
      <typedef-decl name='streamoff' type-id='type-id-20' filepath='/usr/lib/gcc/x86_64-redhat-linux/4.4.7/../../../../include/c++/4.4.7/bits/postypes.h' line='88' column='1' id='type-id-302'/>
      <!-- enum std::_Ios_Seekdir -->
      <enum-decl name='_Ios_Seekdir' filepath='/usr/lib/gcc/x86_64-redhat-linux/4.4.7/../../../../include/c++/4.4.7/bits/ios_base.h' line='189' column='1' id='type-id-300'>
        <underlying-type type-id='type-id-24'/>
        <enumerator name='_S_beg' value='0'/>
        <enumerator name='_S_cur' value='1'/>
        <enumerator name='_S_end' value='2'/>
        <enumerator name='_S_ios_seekdir_end' value='65536'/>
      </enum-decl>
      <!-- struct std::_Setw -->
      <class-decl name='_Setw' size-in-bits='32' is-struct='yes' visibility='default' filepath='/usr/lib/gcc/x86_64-redhat-linux/4.4.7/../../../../include/c++/4.4.7/iomanip' line='228' column='1' id='type-id-303'>
        <data-member access='public' layout-offset-in-bits='0'>
          <!-- int std::_Setw::_M_n -->
          <var-decl name='_M_n' type-id='type-id-17' visibility='default' filepath='/usr/lib/gcc/x86_64-redhat-linux/4.4.7/../../../../include/c++/4.4.7/iomanip' line='228' column='1'/>
        </data-member>
      </class-decl>
      <!-- struct std::_Setprecision -->
      <class-decl name='_Setprecision' size-in-bits='32' is-struct='yes' visibility='default' filepath='/usr/lib/gcc/x86_64-redhat-linux/4.4.7/../../../../include/c++/4.4.7/iomanip' line='194' column='1' id='type-id-304'>
        <data-member access='public' layout-offset-in-bits='0'>
          <!-- int std::_Setprecision::_M_n -->
          <var-decl name='_M_n' type-id='type-id-17' visibility='default' filepath='/usr/lib/gcc/x86_64-redhat-linux/4.4.7/../../../../include/c++/4.4.7/iomanip' line='194' column='1'/>
        </data-member>
      </class-decl>
      <!-- struct std::_Deque_iterator<vtkPixelExtent, vtkPixelExtent&, vtkPixelExtent*> -->
      <class-decl name='_Deque_iterator&lt;vtkPixelExtent, vtkPixelExtent&amp;, vtkPixelExtent*&gt;' size-in-bits='256' is-struct='yes' visibility='default' filepath='/usr/lib/gcc/x86_64-redhat-linux/4.4.7/../../../../include/c++/4.4.7/bits/stl_deque.h' line='95' column='1' id='type-id-147'>
        <data-member access='public' layout-offset-in-bits='0'>
          <!-- vtkPixelExtent* std::_Deque_iterator<vtkPixelExtent, vtkPixelExtent&, vtkPixelExtent*>::_M_cur -->
          <var-decl name='_M_cur' type-id='type-id-49' visibility='default' filepath='/usr/lib/gcc/x86_64-redhat-linux/4.4.7/../../../../include/c++/4.4.7/bits/stl_deque.h' line='111' column='1'/>
        </data-member>
        <data-member access='public' layout-offset-in-bits='64'>
          <!-- vtkPixelExtent* std::_Deque_iterator<vtkPixelExtent, vtkPixelExtent&, vtkPixelExtent*>::_M_first -->
          <var-decl name='_M_first' type-id='type-id-49' visibility='default' filepath='/usr/lib/gcc/x86_64-redhat-linux/4.4.7/../../../../include/c++/4.4.7/bits/stl_deque.h' line='112' column='1'/>
        </data-member>
        <data-member access='public' layout-offset-in-bits='128'>
          <!-- vtkPixelExtent* std::_Deque_iterator<vtkPixelExtent, vtkPixelExtent&, vtkPixelExtent*>::_M_last -->
          <var-decl name='_M_last' type-id='type-id-49' visibility='default' filepath='/usr/lib/gcc/x86_64-redhat-linux/4.4.7/../../../../include/c++/4.4.7/bits/stl_deque.h' line='113' column='1'/>
        </data-member>
        <data-member access='public' layout-offset-in-bits='192'>
          <!-- vtkPixelExtent** std::_Deque_iterator<vtkPixelExtent, vtkPixelExtent&, vtkPixelExtent*>::_M_node -->
          <var-decl name='_M_node' type-id='type-id-274' visibility='default' filepath='/usr/lib/gcc/x86_64-redhat-linux/4.4.7/../../../../include/c++/4.4.7/bits/stl_deque.h' line='114' column='1'/>
        </data-member>
        <member-function access='public'>
          <!-- void std::_Deque_iterator<vtkPixelExtent, vtkPixelExtent&, vtkPixelExtent*>::_Deque_iterator(vtkPixelExtent*, vtkPixelExtent**) -->
          <function-decl name='_Deque_iterator' filepath='/usr/lib/gcc/x86_64-redhat-linux/4.4.7/../../../../include/c++/4.4.7/bits/stl_deque.h' line='116' column='1' visibility='default' binding='global' size-in-bits='64'>
            <!-- implicit parameter of type 'std::_Deque_iterator<vtkPixelExtent, vtkPixelExtent&, vtkPixelExtent*>*' -->
            <parameter type-id='type-id-213' is-artificial='yes'/>
            <!-- parameter of type 'vtkPixelExtent*' -->
            <parameter type-id='type-id-49'/>
            <!-- parameter of type 'vtkPixelExtent**' -->
            <parameter type-id='type-id-274'/>
            <!-- void -->
            <return type-id='type-id-27'/>
          </function-decl>
        </member-function>
        <member-function access='public'>
          <!-- void std::_Deque_iterator<vtkPixelExtent, vtkPixelExtent&, vtkPixelExtent*>::_Deque_iterator() -->
          <function-decl name='_Deque_iterator' filepath='/usr/lib/gcc/x86_64-redhat-linux/4.4.7/../../../../include/c++/4.4.7/bits/stl_deque.h' line='120' column='1' visibility='default' binding='global' size-in-bits='64'>
            <!-- implicit parameter of type 'std::_Deque_iterator<vtkPixelExtent, vtkPixelExtent&, vtkPixelExtent*>*' -->
            <parameter type-id='type-id-213' is-artificial='yes'/>
            <!-- void -->
            <return type-id='type-id-27'/>
          </function-decl>
        </member-function>
        <member-function access='public'>
          <!-- void std::_Deque_iterator<vtkPixelExtent, vtkPixelExtent&, vtkPixelExtent*>::_Deque_iterator(const std::_Deque_iterator<vtkPixelExtent, vtkPixelExtent&, vtkPixelExtent*>&) -->
          <function-decl name='_Deque_iterator' filepath='/usr/lib/gcc/x86_64-redhat-linux/4.4.7/../../../../include/c++/4.4.7/bits/stl_deque.h' line='123' column='1' visibility='default' binding='global' size-in-bits='64'>
            <!-- implicit parameter of type 'std::_Deque_iterator<vtkPixelExtent, vtkPixelExtent&, vtkPixelExtent*>*' -->
            <parameter type-id='type-id-213' is-artificial='yes'/>
            <!-- parameter of type 'const std::_Deque_iterator<vtkPixelExtent, vtkPixelExtent&, vtkPixelExtent*>&' -->
            <parameter type-id='type-id-149'/>
            <!-- void -->
            <return type-id='type-id-27'/>
          </function-decl>
        </member-function>
        <member-function access='public'>
          <!-- std::_Deque_iterator<vtkPixelExtent, vtkPixelExtent&, vtkPixelExtent*>& std::_Deque_iterator<vtkPixelExtent, vtkPixelExtent&, vtkPixelExtent*>::operator+=(ptrdiff_t) -->
          <function-decl name='operator+=' mangled-name='_ZNSt15_Deque_iteratorI14vtkPixelExtentRS0_PS0_EpLEl' filepath='/usr/lib/gcc/x86_64-redhat-linux/4.4.7/../../../../include/c++/4.4.7/bits/stl_deque.h' line='176' column='1' declared-inline='yes' visibility='default' binding='global' size-in-bits='64' elf-symbol-id='_ZNSt15_Deque_iteratorI14vtkPixelExtentRS0_PS0_EpLEl'>
            <!-- implicit parameter of type 'std::_Deque_iterator<vtkPixelExtent, vtkPixelExtent&, vtkPixelExtent*>* const' -->
            <parameter type-id='type-id-214' name='this' is-artificial='yes'/>
            <!-- parameter of type 'typedef ptrdiff_t' -->
            <parameter type-id='type-id-47' name='__n' filepath='/usr/lib/gcc/x86_64-redhat-linux/4.4.7/../../../../include/c++/4.4.7/bits/stl_deque.h' line='176' column='1'/>
            <!-- std::_Deque_iterator<vtkPixelExtent, vtkPixelExtent&, vtkPixelExtent*>& -->
            <return type-id='type-id-212'/>
          </function-decl>
        </member-function>
        <member-function access='public'>
          <!-- std::_Deque_iterator<vtkPixelExtent, vtkPixelExtent&, vtkPixelExtent*> std::_Deque_iterator<vtkPixelExtent, vtkPixelExtent&, vtkPixelExtent*>::operator+(ptrdiff_t) -->
          <function-decl name='operator+' mangled-name='_ZNKSt15_Deque_iteratorI14vtkPixelExtentRS0_PS0_EplEl' filepath='/usr/lib/gcc/x86_64-redhat-linux/4.4.7/../../../../include/c++/4.4.7/bits/stl_deque.h' line='195' column='1' declared-inline='yes' visibility='default' binding='global' size-in-bits='64' elf-symbol-id='_ZNKSt15_Deque_iteratorI14vtkPixelExtentRS0_PS0_EplEl'>
            <!-- implicit parameter of type 'const std::_Deque_iterator<vtkPixelExtent, vtkPixelExtent&, vtkPixelExtent*>* const' -->
            <parameter type-id='type-id-305' name='this' is-artificial='yes'/>
            <!-- parameter of type 'typedef ptrdiff_t' -->
            <parameter type-id='type-id-47' name='__n' filepath='/usr/lib/gcc/x86_64-redhat-linux/4.4.7/../../../../include/c++/4.4.7/bits/stl_deque.h' line='195' column='1'/>
            <!-- struct std::_Deque_iterator<vtkPixelExtent, vtkPixelExtent&, vtkPixelExtent*> -->
            <return type-id='type-id-147'/>
          </function-decl>
        </member-function>
      </class-decl>
      <!-- class std::deque<vtkPixelExtent, std::allocator<vtkPixelExtent> > -->
      <class-decl name='deque&lt;vtkPixelExtent, std::allocator&lt;vtkPixelExtent&gt; &gt;' size-in-bits='640' visibility='default' filepath='/usr/lib/gcc/x86_64-redhat-linux/4.4.7/../../../../include/c++/4.4.7/bits/stl_deque.h' line='639' column='1' id='type-id-180'>
        <!-- class std::_Deque_base<vtkPixelExtent, std::allocator<vtkPixelExtent> > -->
        <base-class access='protected' layout-offset-in-bits='0' type-id='type-id-143'/>
        <member-function access='private'>
          <!-- void std::deque<vtkPixelExtent, std::allocator<vtkPixelExtent> >::deque() -->
          <function-decl name='deque' filepath='/usr/lib/gcc/x86_64-redhat-linux/4.4.7/../../../../include/c++/4.4.7/bits/stl_deque.h' line='690' column='1' visibility='default' binding='global' size-in-bits='64'>
            <!-- implicit parameter of type 'std::deque<vtkPixelExtent, std::allocator<vtkPixelExtent> >*' -->
            <parameter type-id='type-id-232' is-artificial='yes'/>
            <!-- void -->
            <return type-id='type-id-27'/>
          </function-decl>
        </member-function>
        <member-function access='private'>
          <!-- void std::deque<vtkPixelExtent, std::allocator<vtkPixelExtent> >::deque(const std::allocator<vtkPixelExtent>&) -->
          <function-decl name='deque' filepath='/usr/lib/gcc/x86_64-redhat-linux/4.4.7/../../../../include/c++/4.4.7/bits/stl_deque.h' line='698' column='1' visibility='default' binding='global' size-in-bits='64'>
            <!-- implicit parameter of type 'std::deque<vtkPixelExtent, std::allocator<vtkPixelExtent> >*' -->
            <parameter type-id='type-id-232' is-artificial='yes'/>
            <!-- parameter of type 'const std::allocator<vtkPixelExtent>&' -->
            <parameter type-id='type-id-165'/>
            <!-- void -->
            <return type-id='type-id-27'/>
          </function-decl>
        </member-function>
        <member-function access='private'>
          <!-- void std::deque<vtkPixelExtent, std::allocator<vtkPixelExtent> >::deque(unsigned long int, const vtkPixelExtent&, const std::allocator<vtkPixelExtent>&) -->
          <function-decl name='deque' filepath='/usr/lib/gcc/x86_64-redhat-linux/4.4.7/../../../../include/c++/4.4.7/bits/stl_deque.h' line='710' column='1' visibility='default' binding='global' size-in-bits='64'>
            <!-- implicit parameter of type 'std::deque<vtkPixelExtent, std::allocator<vtkPixelExtent> >*' -->
            <parameter type-id='type-id-232' is-artificial='yes'/>
            <!-- parameter of type 'unsigned long int' -->
            <parameter type-id='type-id-4'/>
            <!-- parameter of type 'const vtkPixelExtent&' -->
            <parameter type-id='type-id-50'/>
            <!-- parameter of type 'const std::allocator<vtkPixelExtent>&' -->
            <parameter type-id='type-id-165'/>
            <!-- void -->
            <return type-id='type-id-27'/>
          </function-decl>
        </member-function>
        <member-function access='private'>
          <!-- void std::deque<vtkPixelExtent, std::allocator<vtkPixelExtent> >::deque(const std::deque<vtkPixelExtent, std::allocator<vtkPixelExtent> >&) -->
          <function-decl name='deque' mangled-name='_ZNSt5dequeI14vtkPixelExtentSaIS0_EEC2ERKS2_' filepath='/usr/lib/gcc/x86_64-redhat-linux/4.4.7/../../../../include/c++/4.4.7/bits/stl_deque.h' line='722' column='1' visibility='default' binding='global' size-in-bits='64' elf-symbol-id='_ZNSt5dequeI14vtkPixelExtentSaIS0_EEC2ERKS2_'>
            <!-- implicit parameter of type 'std::deque<vtkPixelExtent, std::allocator<vtkPixelExtent> >*' -->
            <parameter type-id='type-id-232' is-artificial='yes'/>
            <!-- parameter of type 'const std::deque<vtkPixelExtent, std::allocator<vtkPixelExtent> >&' -->
            <parameter type-id='type-id-182'/>
            <!-- void -->
            <return type-id='type-id-27'/>
          </function-decl>
        </member-function>
        <member-function access='private' destructor='yes'>
          <!-- std::deque<vtkPixelExtent, std::allocator<vtkPixelExtent> >::~deque(int) -->
          <function-decl name='~deque' filepath='/usr/lib/gcc/x86_64-redhat-linux/4.4.7/../../../../include/c++/4.4.7/bits/stl_deque.h' line='789' column='1' visibility='default' binding='global' size-in-bits='64'>
            <!-- implicit parameter of type 'std::deque<vtkPixelExtent, std::allocator<vtkPixelExtent> >*' -->
            <parameter type-id='type-id-232' is-artificial='yes'/>
            <!-- artificial parameter of type 'int' -->
            <parameter type-id='type-id-17' is-artificial='yes'/>
            <!-- void -->
            <return type-id='type-id-27'/>
          </function-decl>
        </member-function>
        <member-function access='protected'>
          <!-- void std::deque<vtkPixelExtent, std::allocator<vtkPixelExtent> >::_M_reallocate_map(size_t, bool) -->
          <function-decl name='_M_reallocate_map' mangled-name='_ZNSt5dequeI14vtkPixelExtentSaIS0_EE17_M_reallocate_mapEmb' filepath='/usr/lib/gcc/x86_64-redhat-linux/4.4.7/../../../../include/c++/4.4.7/bits/deque.tcc' line='795' column='1' visibility='default' binding='global' size-in-bits='64' elf-symbol-id='_ZNSt5dequeI14vtkPixelExtentSaIS0_EE17_M_reallocate_mapEmb'>
            <!-- implicit parameter of type 'std::deque<vtkPixelExtent, std::allocator<vtkPixelExtent> >* const' -->
            <parameter type-id='type-id-233' name='this' is-artificial='yes'/>
            <!-- parameter of type 'typedef size_t' -->
            <parameter type-id='type-id-38' name='__nodes_to_add' filepath='/usr/lib/gcc/x86_64-redhat-linux/4.4.7/../../../../include/c++/4.4.7/bits/deque.tcc' line='796' column='1'/>
            <!-- parameter of type 'bool' -->
            <parameter type-id='type-id-1' name='__add_at_front' filepath='/usr/lib/gcc/x86_64-redhat-linux/4.4.7/../../../../include/c++/4.4.7/bits/deque.tcc' line='796' column='1'/>
            <!-- void -->
            <return type-id='type-id-27'/>
          </function-decl>
        </member-function>
        <member-function access='protected'>
          <!-- void std::deque<vtkPixelExtent, std::allocator<vtkPixelExtent> >::_M_insert_dispatch<std::_Deque_iterator<vtkPixelExtent, const vtkPixelExtent&, const vtkPixelExtent*> >(std::_Deque_iterator<vtkPixelExtent, vtkPixelExtent&, vtkPixelExtent*>, std::_Deque_iterator<vtkPixelExtent, const vtkPixelExtent&, const vtkPixelExtent*>, std::_Deque_iterator<vtkPixelExtent, const vtkPixelExtent&, const vtkPixelExtent*>, std::__false_type) -->
          <function-decl name='_M_insert_dispatch&lt;std::_Deque_iterator&lt;vtkPixelExtent, const vtkPixelExtent&amp;, const vtkPixelExtent*&gt; &gt;' filepath='/usr/lib/gcc/x86_64-redhat-linux/4.4.7/../../../../include/c++/4.4.7/bits/stl_deque.h' line='1587' column='1' visibility='default' binding='global' size-in-bits='64'>
            <!-- implicit parameter of type 'std::deque<vtkPixelExtent, std::allocator<vtkPixelExtent> >*' -->
            <parameter type-id='type-id-232' is-artificial='yes'/>
            <!-- parameter of type 'struct std::_Deque_iterator<vtkPixelExtent, vtkPixelExtent&, vtkPixelExtent*>' -->
            <parameter type-id='type-id-147'/>
            <!-- parameter of type 'struct std::_Deque_iterator<vtkPixelExtent, const vtkPixelExtent&, const vtkPixelExtent*>' -->
            <parameter type-id='type-id-306'/>
            <!-- parameter of type 'struct std::_Deque_iterator<vtkPixelExtent, const vtkPixelExtent&, const vtkPixelExtent*>' -->
            <parameter type-id='type-id-306'/>
            <!-- parameter of type 'struct std::__false_type' -->
            <parameter type-id='type-id-307'/>
            <!-- void -->
            <return type-id='type-id-27'/>
          </function-decl>
        </member-function>
        <member-function access='private'>
          <!-- void std::deque<vtkPixelExtent, std::allocator<vtkPixelExtent> >::insert<std::_Deque_iterator<vtkPixelExtent, const vtkPixelExtent&, const vtkPixelExtent*> >(std::_Deque_iterator<vtkPixelExtent, vtkPixelExtent&, vtkPixelExtent*>, std::_Deque_iterator<vtkPixelExtent, const vtkPixelExtent&, const vtkPixelExtent*>, std::_Deque_iterator<vtkPixelExtent, const vtkPixelExtent&, const vtkPixelExtent*>) -->
          <function-decl name='insert&lt;std::_Deque_iterator&lt;vtkPixelExtent, const vtkPixelExtent&amp;, const vtkPixelExtent*&gt; &gt;' filepath='/usr/lib/gcc/x86_64-redhat-linux/4.4.7/../../../../include/c++/4.4.7/bits/stl_deque.h' line='1345' column='1' visibility='default' binding='global' size-in-bits='64'>
            <!-- implicit parameter of type 'std::deque<vtkPixelExtent, std::allocator<vtkPixelExtent> >*' -->
            <parameter type-id='type-id-232' is-artificial='yes'/>
            <!-- parameter of type 'struct std::_Deque_iterator<vtkPixelExtent, vtkPixelExtent&, vtkPixelExtent*>' -->
            <parameter type-id='type-id-147'/>
            <!-- parameter of type 'struct std::_Deque_iterator<vtkPixelExtent, const vtkPixelExtent&, const vtkPixelExtent*>' -->
            <parameter type-id='type-id-306'/>
            <!-- parameter of type 'struct std::_Deque_iterator<vtkPixelExtent, const vtkPixelExtent&, const vtkPixelExtent*>' -->
            <parameter type-id='type-id-306'/>
            <!-- void -->
            <return type-id='type-id-27'/>
          </function-decl>
        </member-function>
        <member-function access='protected'>
          <!-- void std::deque<vtkPixelExtent, std::allocator<vtkPixelExtent> >::_M_insert_dispatch<std::_Deque_iterator<vtkPixelExtent, vtkPixelExtent&, vtkPixelExtent*> >(std::_Deque_iterator<vtkPixelExtent, vtkPixelExtent&, vtkPixelExtent*>, std::_Deque_iterator<vtkPixelExtent, vtkPixelExtent&, vtkPixelExtent*>, std::_Deque_iterator<vtkPixelExtent, vtkPixelExtent&, vtkPixelExtent*>, std::__false_type) -->
          <function-decl name='_M_insert_dispatch&lt;std::_Deque_iterator&lt;vtkPixelExtent, vtkPixelExtent&amp;, vtkPixelExtent*&gt; &gt;' filepath='/usr/lib/gcc/x86_64-redhat-linux/4.4.7/../../../../include/c++/4.4.7/bits/stl_deque.h' line='1587' column='1' visibility='default' binding='global' size-in-bits='64'>
            <!-- implicit parameter of type 'std::deque<vtkPixelExtent, std::allocator<vtkPixelExtent> >*' -->
            <parameter type-id='type-id-232' is-artificial='yes'/>
            <!-- parameter of type 'struct std::_Deque_iterator<vtkPixelExtent, vtkPixelExtent&, vtkPixelExtent*>' -->
            <parameter type-id='type-id-147'/>
            <!-- parameter of type 'struct std::_Deque_iterator<vtkPixelExtent, vtkPixelExtent&, vtkPixelExtent*>' -->
            <parameter type-id='type-id-147'/>
            <!-- parameter of type 'struct std::_Deque_iterator<vtkPixelExtent, vtkPixelExtent&, vtkPixelExtent*>' -->
            <parameter type-id='type-id-147'/>
            <!-- parameter of type 'struct std::__false_type' -->
            <parameter type-id='type-id-307'/>
            <!-- void -->
            <return type-id='type-id-27'/>
          </function-decl>
        </member-function>
        <member-function access='private'>
          <!-- void std::deque<vtkPixelExtent, std::allocator<vtkPixelExtent> >::insert<std::_Deque_iterator<vtkPixelExtent, vtkPixelExtent&, vtkPixelExtent*> >(std::_Deque_iterator<vtkPixelExtent, vtkPixelExtent&, vtkPixelExtent*>, std::_Deque_iterator<vtkPixelExtent, vtkPixelExtent&, vtkPixelExtent*>, std::_Deque_iterator<vtkPixelExtent, vtkPixelExtent&, vtkPixelExtent*>) -->
          <function-decl name='insert&lt;std::_Deque_iterator&lt;vtkPixelExtent, vtkPixelExtent&amp;, vtkPixelExtent*&gt; &gt;' filepath='/usr/lib/gcc/x86_64-redhat-linux/4.4.7/../../../../include/c++/4.4.7/bits/stl_deque.h' line='1345' column='1' visibility='default' binding='global' size-in-bits='64'>
            <!-- implicit parameter of type 'std::deque<vtkPixelExtent, std::allocator<vtkPixelExtent> >*' -->
            <parameter type-id='type-id-232' is-artificial='yes'/>
            <!-- parameter of type 'struct std::_Deque_iterator<vtkPixelExtent, vtkPixelExtent&, vtkPixelExtent*>' -->
            <parameter type-id='type-id-147'/>
            <!-- parameter of type 'struct std::_Deque_iterator<vtkPixelExtent, vtkPixelExtent&, vtkPixelExtent*>' -->
            <parameter type-id='type-id-147'/>
            <!-- parameter of type 'struct std::_Deque_iterator<vtkPixelExtent, vtkPixelExtent&, vtkPixelExtent*>' -->
            <parameter type-id='type-id-147'/>
            <!-- void -->
            <return type-id='type-id-27'/>
          </function-decl>
        </member-function>
        <member-function access='protected'>
          <!-- void std::deque<vtkPixelExtent, std::allocator<vtkPixelExtent> >::_M_new_elements_at_back(size_t) -->
          <function-decl name='_M_new_elements_at_back' mangled-name='_ZNSt5dequeI14vtkPixelExtentSaIS0_EE23_M_new_elements_at_backEm' filepath='/usr/lib/gcc/x86_64-redhat-linux/4.4.7/../../../../include/c++/4.4.7/bits/deque.tcc' line='770' column='1' visibility='default' binding='global' size-in-bits='64' elf-symbol-id='_ZNSt5dequeI14vtkPixelExtentSaIS0_EE23_M_new_elements_at_backEm'>
            <!-- implicit parameter of type 'std::deque<vtkPixelExtent, std::allocator<vtkPixelExtent> >* const' -->
            <parameter type-id='type-id-233' name='this' is-artificial='yes'/>
            <!-- parameter of type 'typedef size_t' -->
            <parameter type-id='type-id-38' name='__nodes_to_add' filepath='/usr/lib/gcc/x86_64-redhat-linux/4.4.7/../../../../include/c++/4.4.7/bits/stl_deque.h' line='1715' column='1'/>
            <!-- void -->
            <return type-id='type-id-27'/>
          </function-decl>
        </member-function>
        <member-function access='protected'>
          <!-- std::_Deque_iterator<vtkPixelExtent, vtkPixelExtent&, vtkPixelExtent*> std::deque<vtkPixelExtent, std::allocator<vtkPixelExtent> >::_M_reserve_elements_at_back(size_t) -->
          <function-decl name='_M_reserve_elements_at_back' mangled-name='_ZNSt5dequeI14vtkPixelExtentSaIS0_EE27_M_reserve_elements_at_backEm' filepath='/usr/lib/gcc/x86_64-redhat-linux/4.4.7/../../../../include/c++/4.4.7/bits/stl_deque.h' line='1689' column='1' declared-inline='yes' visibility='default' binding='global' size-in-bits='64' elf-symbol-id='_ZNSt5dequeI14vtkPixelExtentSaIS0_EE27_M_reserve_elements_at_backEm'>
            <!-- implicit parameter of type 'std::deque<vtkPixelExtent, std::allocator<vtkPixelExtent> >* const' -->
            <parameter type-id='type-id-233' name='this' is-artificial='yes'/>
            <!-- parameter of type 'typedef size_t' -->
            <parameter type-id='type-id-38' name='__n' filepath='/usr/lib/gcc/x86_64-redhat-linux/4.4.7/../../../../include/c++/4.4.7/bits/stl_deque.h' line='1689' column='1'/>
            <!-- struct std::_Deque_iterator<vtkPixelExtent, vtkPixelExtent&, vtkPixelExtent*> -->
            <return type-id='type-id-147'/>
          </function-decl>
        </member-function>
        <member-function access='protected'>
          <!-- void std::deque<vtkPixelExtent, std::allocator<vtkPixelExtent> >::_M_new_elements_at_front(size_t) -->
          <function-decl name='_M_new_elements_at_front' mangled-name='_ZNSt5dequeI14vtkPixelExtentSaIS0_EE24_M_new_elements_at_frontEm' filepath='/usr/lib/gcc/x86_64-redhat-linux/4.4.7/../../../../include/c++/4.4.7/bits/deque.tcc' line='745' column='1' visibility='default' binding='global' size-in-bits='64' elf-symbol-id='_ZNSt5dequeI14vtkPixelExtentSaIS0_EE24_M_new_elements_at_frontEm'>
            <!-- implicit parameter of type 'std::deque<vtkPixelExtent, std::allocator<vtkPixelExtent> >* const' -->
            <parameter type-id='type-id-233' name='this' is-artificial='yes'/>
            <!-- parameter of type 'typedef size_t' -->
            <parameter type-id='type-id-38' name='__nodes_to_add' filepath='/usr/lib/gcc/x86_64-redhat-linux/4.4.7/../../../../include/c++/4.4.7/bits/stl_deque.h' line='1715' column='1'/>
            <!-- void -->
            <return type-id='type-id-27'/>
          </function-decl>
        </member-function>
        <member-function access='protected'>
          <!-- std::_Deque_iterator<vtkPixelExtent, vtkPixelExtent&, vtkPixelExtent*> std::deque<vtkPixelExtent, std::allocator<vtkPixelExtent> >::_M_reserve_elements_at_front(size_t) -->
          <function-decl name='_M_reserve_elements_at_front' mangled-name='_ZNSt5dequeI14vtkPixelExtentSaIS0_EE28_M_reserve_elements_at_frontEm' filepath='/usr/lib/gcc/x86_64-redhat-linux/4.4.7/../../../../include/c++/4.4.7/bits/stl_deque.h' line='1679' column='1' declared-inline='yes' visibility='default' binding='global' size-in-bits='64' elf-symbol-id='_ZNSt5dequeI14vtkPixelExtentSaIS0_EE28_M_reserve_elements_at_frontEm'>
            <!-- implicit parameter of type 'std::deque<vtkPixelExtent, std::allocator<vtkPixelExtent> >* const' -->
            <parameter type-id='type-id-233' name='this' is-artificial='yes'/>
            <!-- parameter of type 'typedef size_t' -->
            <parameter type-id='type-id-38' name='__n' filepath='/usr/lib/gcc/x86_64-redhat-linux/4.4.7/../../../../include/c++/4.4.7/bits/stl_deque.h' line='1689' column='1'/>
            <!-- struct std::_Deque_iterator<vtkPixelExtent, vtkPixelExtent&, vtkPixelExtent*> -->
            <return type-id='type-id-147'/>
          </function-decl>
        </member-function>
        <member-function access='protected'>
          <!-- void std::deque<vtkPixelExtent, std::allocator<vtkPixelExtent> >::_M_insert_aux<std::_Deque_iterator<vtkPixelExtent, const vtkPixelExtent&, const vtkPixelExtent*> >(std::_Deque_iterator<vtkPixelExtent, vtkPixelExtent&, vtkPixelExtent*>, std::_Deque_iterator<vtkPixelExtent, const vtkPixelExtent&, const vtkPixelExtent*>, std::_Deque_iterator<vtkPixelExtent, const vtkPixelExtent&, const vtkPixelExtent*>, size_t) -->
          <function-decl name='_M_insert_aux&lt;std::_Deque_iterator&lt;vtkPixelExtent, const vtkPixelExtent&amp;, const vtkPixelExtent*&gt; &gt;' mangled-name='_ZNSt5dequeI14vtkPixelExtentSaIS0_EE13_M_insert_auxISt15_Deque_iteratorIS0_RKS0_PS5_EEEvS4_IS0_RS0_PS0_ET_SC_m' filepath='/usr/lib/gcc/x86_64-redhat-linux/4.4.7/../../../../include/c++/4.4.7/bits/deque.tcc' line='635' column='1' visibility='default' binding='global' size-in-bits='64' elf-symbol-id='_ZNSt5dequeI14vtkPixelExtentSaIS0_EE13_M_insert_auxISt15_Deque_iteratorIS0_RKS0_PS5_EEEvS4_IS0_RS0_PS0_ET_SC_m'>
            <!-- implicit parameter of type 'std::deque<vtkPixelExtent, std::allocator<vtkPixelExtent> >* const' -->
            <parameter type-id='type-id-233' name='this' is-artificial='yes'/>
            <!-- parameter of type 'struct std::_Deque_iterator<vtkPixelExtent, vtkPixelExtent&, vtkPixelExtent*>' -->
            <parameter type-id='type-id-147' name='__pos' filepath='/usr/lib/gcc/x86_64-redhat-linux/4.4.7/../../../../include/c++/4.4.7/bits/deque.tcc' line='636' column='1'/>
            <!-- parameter of type 'struct std::_Deque_iterator<vtkPixelExtent, const vtkPixelExtent&, const vtkPixelExtent*>' -->
            <parameter type-id='type-id-306' name='__first' filepath='/usr/lib/gcc/x86_64-redhat-linux/4.4.7/../../../../include/c++/4.4.7/bits/deque.tcc' line='637' column='1'/>
            <!-- parameter of type 'struct std::_Deque_iterator<vtkPixelExtent, const vtkPixelExtent&, const vtkPixelExtent*>' -->
            <parameter type-id='type-id-306' name='__last' filepath='/usr/lib/gcc/x86_64-redhat-linux/4.4.7/../../../../include/c++/4.4.7/bits/deque.tcc' line='637' column='1'/>
            <!-- parameter of type 'typedef size_t' -->
            <parameter type-id='type-id-38' name='__n' filepath='/usr/lib/gcc/x86_64-redhat-linux/4.4.7/../../../../include/c++/4.4.7/bits/deque.tcc' line='638' column='1'/>
            <!-- void -->
            <return type-id='type-id-27'/>
          </function-decl>
        </member-function>
        <member-function access='protected'>
          <!-- void std::deque<vtkPixelExtent, std::allocator<vtkPixelExtent> >::_M_range_insert_aux<std::_Deque_iterator<vtkPixelExtent, const vtkPixelExtent&, const vtkPixelExtent*> >(std::_Deque_iterator<vtkPixelExtent, vtkPixelExtent&, vtkPixelExtent*>, std::_Deque_iterator<vtkPixelExtent, const vtkPixelExtent&, const vtkPixelExtent*>, std::_Deque_iterator<vtkPixelExtent, const vtkPixelExtent&, const vtkPixelExtent*>, std::forward_iterator_tag) -->
          <function-decl name='_M_range_insert_aux&lt;std::_Deque_iterator&lt;vtkPixelExtent, const vtkPixelExtent&amp;, const vtkPixelExtent*&gt; &gt;' mangled-name='_ZNSt5dequeI14vtkPixelExtentSaIS0_EE19_M_range_insert_auxISt15_Deque_iteratorIS0_RKS0_PS5_EEEvS4_IS0_RS0_PS0_ET_SC_St20forward_iterator_tag' filepath='/usr/lib/gcc/x86_64-redhat-linux/4.4.7/../../../../include/c++/4.4.7/bits/deque.tcc' line='462' column='1' visibility='default' binding='global' size-in-bits='64' elf-symbol-id='_ZNSt5dequeI14vtkPixelExtentSaIS0_EE19_M_range_insert_auxISt15_Deque_iteratorIS0_RKS0_PS5_EEEvS4_IS0_RS0_PS0_ET_SC_St20forward_iterator_tag'>
            <!-- implicit parameter of type 'std::deque<vtkPixelExtent, std::allocator<vtkPixelExtent> >* const' -->
            <parameter type-id='type-id-233' name='this' is-artificial='yes'/>
            <!-- parameter of type 'struct std::_Deque_iterator<vtkPixelExtent, vtkPixelExtent&, vtkPixelExtent*>' -->
            <parameter type-id='type-id-147' name='__pos' filepath='/usr/lib/gcc/x86_64-redhat-linux/4.4.7/../../../../include/c++/4.4.7/bits/deque.tcc' line='463' column='1'/>
            <!-- parameter of type 'struct std::_Deque_iterator<vtkPixelExtent, const vtkPixelExtent&, const vtkPixelExtent*>' -->
            <parameter type-id='type-id-306' name='__first' filepath='/usr/lib/gcc/x86_64-redhat-linux/4.4.7/../../../../include/c++/4.4.7/bits/deque.tcc' line='464' column='1'/>
            <!-- parameter of type 'struct std::_Deque_iterator<vtkPixelExtent, const vtkPixelExtent&, const vtkPixelExtent*>' -->
            <parameter type-id='type-id-306' name='__last' filepath='/usr/lib/gcc/x86_64-redhat-linux/4.4.7/../../../../include/c++/4.4.7/bits/deque.tcc' line='464' column='1'/>
            <!-- parameter of type 'struct std::forward_iterator_tag' -->
            <parameter type-id='type-id-308'/>
            <!-- void -->
            <return type-id='type-id-27'/>
          </function-decl>
        </member-function>
        <member-function access='private'>
          <!-- std::deque<vtkPixelExtent, std::allocator<vtkPixelExtent> >& std::deque<vtkPixelExtent, std::allocator<vtkPixelExtent> >::operator=(const std::deque<vtkPixelExtent, std::allocator<vtkPixelExtent> >&) -->
          <function-decl name='operator=' mangled-name='_ZNSt5dequeI14vtkPixelExtentSaIS0_EEaSERKS2_' filepath='/usr/lib/gcc/x86_64-redhat-linux/4.4.7/../../../../include/c++/4.4.7/bits/deque.tcc' line='64' column='1' visibility='default' binding='global' size-in-bits='64' elf-symbol-id='_ZNSt5dequeI14vtkPixelExtentSaIS0_EEaSERKS2_'>
            <!-- implicit parameter of type 'std::deque<vtkPixelExtent, std::allocator<vtkPixelExtent> >* const' -->
            <parameter type-id='type-id-233' name='this' is-artificial='yes'/>
            <!-- parameter of type 'const std::deque<vtkPixelExtent, std::allocator<vtkPixelExtent> >&' -->
            <parameter type-id='type-id-309' name='__x' filepath='/usr/lib/gcc/x86_64-redhat-linux/4.4.7/../../../../include/c++/4.4.7/bits/deque.tcc' line='65' column='1'/>
            <!-- std::deque<vtkPixelExtent, std::allocator<vtkPixelExtent> >& -->
            <return type-id='type-id-231'/>
          </function-decl>
        </member-function>
        <member-function access='protected'>
          <!-- void std::deque<vtkPixelExtent, std::allocator<vtkPixelExtent> >::_M_insert_aux<std::_Deque_iterator<vtkPixelExtent, vtkPixelExtent&, vtkPixelExtent*> >(std::_Deque_iterator<vtkPixelExtent, vtkPixelExtent&, vtkPixelExtent*>, std::_Deque_iterator<vtkPixelExtent, vtkPixelExtent&, vtkPixelExtent*>, std::_Deque_iterator<vtkPixelExtent, vtkPixelExtent&, vtkPixelExtent*>, size_t) -->
          <function-decl name='_M_insert_aux&lt;std::_Deque_iterator&lt;vtkPixelExtent, vtkPixelExtent&amp;, vtkPixelExtent*&gt; &gt;' mangled-name='_ZNSt5dequeI14vtkPixelExtentSaIS0_EE13_M_insert_auxISt15_Deque_iteratorIS0_RS0_PS0_EEEvS7_T_S8_m' filepath='/usr/lib/gcc/x86_64-redhat-linux/4.4.7/../../../../include/c++/4.4.7/bits/deque.tcc' line='635' column='1' visibility='default' binding='global' size-in-bits='64' elf-symbol-id='_ZNSt5dequeI14vtkPixelExtentSaIS0_EE13_M_insert_auxISt15_Deque_iteratorIS0_RS0_PS0_EEEvS7_T_S8_m'>
            <!-- implicit parameter of type 'std::deque<vtkPixelExtent, std::allocator<vtkPixelExtent> >* const' -->
            <parameter type-id='type-id-233' name='this' is-artificial='yes'/>
            <!-- parameter of type 'struct std::_Deque_iterator<vtkPixelExtent, vtkPixelExtent&, vtkPixelExtent*>' -->
            <parameter type-id='type-id-147' name='__pos' filepath='/usr/lib/gcc/x86_64-redhat-linux/4.4.7/../../../../include/c++/4.4.7/bits/deque.tcc' line='636' column='1'/>
            <!-- parameter of type 'struct std::_Deque_iterator<vtkPixelExtent, vtkPixelExtent&, vtkPixelExtent*>' -->
            <parameter type-id='type-id-147' name='__first' filepath='/usr/lib/gcc/x86_64-redhat-linux/4.4.7/../../../../include/c++/4.4.7/bits/deque.tcc' line='637' column='1'/>
            <!-- parameter of type 'struct std::_Deque_iterator<vtkPixelExtent, vtkPixelExtent&, vtkPixelExtent*>' -->
            <parameter type-id='type-id-147' name='__last' filepath='/usr/lib/gcc/x86_64-redhat-linux/4.4.7/../../../../include/c++/4.4.7/bits/deque.tcc' line='637' column='1'/>
            <!-- parameter of type 'typedef size_t' -->
            <parameter type-id='type-id-38' name='__n' filepath='/usr/lib/gcc/x86_64-redhat-linux/4.4.7/../../../../include/c++/4.4.7/bits/deque.tcc' line='638' column='1'/>
            <!-- void -->
            <return type-id='type-id-27'/>
          </function-decl>
        </member-function>
        <member-function access='protected'>
          <!-- void std::deque<vtkPixelExtent, std::allocator<vtkPixelExtent> >::_M_range_insert_aux<std::_Deque_iterator<vtkPixelExtent, vtkPixelExtent&, vtkPixelExtent*> >(std::_Deque_iterator<vtkPixelExtent, vtkPixelExtent&, vtkPixelExtent*>, std::_Deque_iterator<vtkPixelExtent, vtkPixelExtent&, vtkPixelExtent*>, std::_Deque_iterator<vtkPixelExtent, vtkPixelExtent&, vtkPixelExtent*>, std::forward_iterator_tag) -->
          <function-decl name='_M_range_insert_aux&lt;std::_Deque_iterator&lt;vtkPixelExtent, vtkPixelExtent&amp;, vtkPixelExtent*&gt; &gt;' mangled-name='_ZNSt5dequeI14vtkPixelExtentSaIS0_EE19_M_range_insert_auxISt15_Deque_iteratorIS0_RS0_PS0_EEEvS7_T_S8_St20forward_iterator_tag' filepath='/usr/lib/gcc/x86_64-redhat-linux/4.4.7/../../../../include/c++/4.4.7/bits/deque.tcc' line='462' column='1' visibility='default' binding='global' size-in-bits='64' elf-symbol-id='_ZNSt5dequeI14vtkPixelExtentSaIS0_EE19_M_range_insert_auxISt15_Deque_iteratorIS0_RS0_PS0_EEEvS7_T_S8_St20forward_iterator_tag'>
            <!-- implicit parameter of type 'std::deque<vtkPixelExtent, std::allocator<vtkPixelExtent> >* const' -->
            <parameter type-id='type-id-233' name='this' is-artificial='yes'/>
            <!-- parameter of type 'struct std::_Deque_iterator<vtkPixelExtent, vtkPixelExtent&, vtkPixelExtent*>' -->
            <parameter type-id='type-id-147' name='__pos' filepath='/usr/lib/gcc/x86_64-redhat-linux/4.4.7/../../../../include/c++/4.4.7/bits/deque.tcc' line='463' column='1'/>
            <!-- parameter of type 'struct std::_Deque_iterator<vtkPixelExtent, vtkPixelExtent&, vtkPixelExtent*>' -->
            <parameter type-id='type-id-147' name='__first' filepath='/usr/lib/gcc/x86_64-redhat-linux/4.4.7/../../../../include/c++/4.4.7/bits/deque.tcc' line='464' column='1'/>
            <!-- parameter of type 'struct std::_Deque_iterator<vtkPixelExtent, vtkPixelExtent&, vtkPixelExtent*>' -->
            <parameter type-id='type-id-147' name='__last' filepath='/usr/lib/gcc/x86_64-redhat-linux/4.4.7/../../../../include/c++/4.4.7/bits/deque.tcc' line='464' column='1'/>
            <!-- parameter of type 'struct std::forward_iterator_tag' -->
            <parameter type-id='type-id-308'/>
            <!-- void -->
            <return type-id='type-id-27'/>
          </function-decl>
        </member-function>
        <member-function access='protected'>
          <!-- void std::deque<vtkPixelExtent, std::allocator<vtkPixelExtent> >::_M_reserve_map_at_back(size_t) -->
          <function-decl name='_M_reserve_map_at_back' mangled-name='_ZNSt5dequeI14vtkPixelExtentSaIS0_EE22_M_reserve_map_at_backEm' filepath='/usr/lib/gcc/x86_64-redhat-linux/4.4.7/../../../../include/c++/4.4.7/bits/stl_deque.h' line='1715' column='1' declared-inline='yes' visibility='default' binding='global' size-in-bits='64' elf-symbol-id='_ZNSt5dequeI14vtkPixelExtentSaIS0_EE22_M_reserve_map_at_backEm'>
            <!-- implicit parameter of type 'std::deque<vtkPixelExtent, std::allocator<vtkPixelExtent> >* const' -->
            <parameter type-id='type-id-233' name='this' is-artificial='yes'/>
            <!-- parameter of type 'typedef size_t' -->
            <parameter type-id='type-id-38' name='__nodes_to_add' filepath='/usr/lib/gcc/x86_64-redhat-linux/4.4.7/../../../../include/c++/4.4.7/bits/stl_deque.h' line='1715' column='1'/>
            <!-- void -->
            <return type-id='type-id-27'/>
          </function-decl>
        </member-function>
      </class-decl>
      <!-- typedef std::basic_ostream<char, std::char_traits<char> > std::ostream -->
      <typedef-decl name='ostream' type-id='type-id-225' filepath='/usr/lib/gcc/x86_64-redhat-linux/4.4.7/../../../../include/c++/4.4.7/iosfwd' line='130' column='1' id='type-id-238'/>
      <!-- struct std::__uninitialized_fill<false> -->
      <class-decl name='__uninitialized_fill&lt;false&gt;' size-in-bits='8' is-struct='yes' visibility='default' filepath='/usr/lib/gcc/x86_64-redhat-linux/4.4.7/../../../../include/c++/4.4.7/bits/stl_uninitialized.h' line='122' column='1' id='type-id-310'>
        <member-function access='public' static='yes'>
          <!-- void std::__uninitialized_fill<false>::uninitialized_fill<vtkPixelExtent*, vtkPixelExtent>(vtkPixelExtent*, const vtkPixelExtent&) -->
          <function-decl name='uninitialized_fill&lt;vtkPixelExtent*, vtkPixelExtent&gt;' filepath='/usr/lib/gcc/x86_64-redhat-linux/4.4.7/../../../../include/c++/4.4.7/bits/stl_uninitialized.h' line='125' column='1' visibility='default' binding='global' size-in-bits='64'>
            <!-- parameter of type 'vtkPixelExtent*' -->
            <parameter type-id='type-id-49'/>
            <!-- parameter of type 'vtkPixelExtent*' -->
            <parameter type-id='type-id-49'/>
            <!-- parameter of type 'const vtkPixelExtent&' -->
            <parameter type-id='type-id-50'/>
            <!-- void -->
            <return type-id='type-id-27'/>
          </function-decl>
        </member-function>
      </class-decl>
      <!-- struct std::_Deque_iterator<vtkPixelExtent, const vtkPixelExtent&, const vtkPixelExtent*> -->
      <class-decl name='_Deque_iterator&lt;vtkPixelExtent, const vtkPixelExtent&amp;, const vtkPixelExtent*&gt;' size-in-bits='256' is-struct='yes' visibility='default' filepath='/usr/lib/gcc/x86_64-redhat-linux/4.4.7/../../../../include/c++/4.4.7/bits/stl_deque.h' line='95' column='1' id='type-id-306'>
        <data-member access='public' layout-offset-in-bits='0'>
          <!-- vtkPixelExtent* std::_Deque_iterator<vtkPixelExtent, const vtkPixelExtent&, const vtkPixelExtent*>::_M_cur -->
          <var-decl name='_M_cur' type-id='type-id-49' visibility='default' filepath='/usr/lib/gcc/x86_64-redhat-linux/4.4.7/../../../../include/c++/4.4.7/bits/stl_deque.h' line='111' column='1'/>
        </data-member>
        <data-member access='public' layout-offset-in-bits='64'>
          <!-- vtkPixelExtent* std::_Deque_iterator<vtkPixelExtent, const vtkPixelExtent&, const vtkPixelExtent*>::_M_first -->
          <var-decl name='_M_first' type-id='type-id-49' visibility='default' filepath='/usr/lib/gcc/x86_64-redhat-linux/4.4.7/../../../../include/c++/4.4.7/bits/stl_deque.h' line='112' column='1'/>
        </data-member>
        <data-member access='public' layout-offset-in-bits='128'>
          <!-- vtkPixelExtent* std::_Deque_iterator<vtkPixelExtent, const vtkPixelExtent&, const vtkPixelExtent*>::_M_last -->
          <var-decl name='_M_last' type-id='type-id-49' visibility='default' filepath='/usr/lib/gcc/x86_64-redhat-linux/4.4.7/../../../../include/c++/4.4.7/bits/stl_deque.h' line='113' column='1'/>
        </data-member>
        <data-member access='public' layout-offset-in-bits='192'>
          <!-- vtkPixelExtent** std::_Deque_iterator<vtkPixelExtent, const vtkPixelExtent&, const vtkPixelExtent*>::_M_node -->
          <var-decl name='_M_node' type-id='type-id-274' visibility='default' filepath='/usr/lib/gcc/x86_64-redhat-linux/4.4.7/../../../../include/c++/4.4.7/bits/stl_deque.h' line='114' column='1'/>
        </data-member>
        <member-function access='public'>
          <!-- void std::_Deque_iterator<vtkPixelExtent, const vtkPixelExtent&, const vtkPixelExtent*>::_Deque_iterator(vtkPixelExtent*, vtkPixelExtent**) -->
          <function-decl name='_Deque_iterator' filepath='/usr/lib/gcc/x86_64-redhat-linux/4.4.7/../../../../include/c++/4.4.7/bits/stl_deque.h' line='116' column='1' visibility='default' binding='global' size-in-bits='64'>
            <!-- implicit parameter of type 'std::_Deque_iterator<vtkPixelExtent, const vtkPixelExtent&, const vtkPixelExtent*>*' -->
            <parameter type-id='type-id-311' is-artificial='yes'/>
            <!-- parameter of type 'vtkPixelExtent*' -->
            <parameter type-id='type-id-49'/>
            <!-- parameter of type 'vtkPixelExtent**' -->
            <parameter type-id='type-id-274'/>
            <!-- void -->
            <return type-id='type-id-27'/>
          </function-decl>
        </member-function>
        <member-function access='public'>
          <!-- void std::_Deque_iterator<vtkPixelExtent, const vtkPixelExtent&, const vtkPixelExtent*>::_Deque_iterator() -->
          <function-decl name='_Deque_iterator' filepath='/usr/lib/gcc/x86_64-redhat-linux/4.4.7/../../../../include/c++/4.4.7/bits/stl_deque.h' line='120' column='1' visibility='default' binding='global' size-in-bits='64'>
            <!-- implicit parameter of type 'std::_Deque_iterator<vtkPixelExtent, const vtkPixelExtent&, const vtkPixelExtent*>*' -->
            <parameter type-id='type-id-311' is-artificial='yes'/>
            <!-- void -->
            <return type-id='type-id-27'/>
          </function-decl>
        </member-function>
        <member-function access='public'>
          <!-- void std::_Deque_iterator<vtkPixelExtent, const vtkPixelExtent&, const vtkPixelExtent*>::_Deque_iterator(const std::_Deque_iterator<vtkPixelExtent, vtkPixelExtent&, vtkPixelExtent*>&) -->
          <function-decl name='_Deque_iterator' filepath='/usr/lib/gcc/x86_64-redhat-linux/4.4.7/../../../../include/c++/4.4.7/bits/stl_deque.h' line='123' column='1' visibility='default' binding='global' size-in-bits='64'>
            <!-- implicit parameter of type 'std::_Deque_iterator<vtkPixelExtent, const vtkPixelExtent&, const vtkPixelExtent*>*' -->
            <parameter type-id='type-id-311' is-artificial='yes'/>
            <!-- parameter of type 'const std::_Deque_iterator<vtkPixelExtent, vtkPixelExtent&, vtkPixelExtent*>&' -->
            <parameter type-id='type-id-149'/>
            <!-- void -->
            <return type-id='type-id-27'/>
          </function-decl>
        </member-function>
      </class-decl>
      <!-- struct std::_Destroy_aux<true> -->
      <class-decl name='_Destroy_aux&lt;true&gt;' size-in-bits='8' is-struct='yes' visibility='default' filepath='/usr/lib/gcc/x86_64-redhat-linux/4.4.7/../../../../include/c++/4.4.7/bits/stl_construct.h' line='106' column='1' id='type-id-312'>
        <member-function access='public' static='yes'>
          <!-- void std::_Destroy_aux<true>::__destroy<std::_Deque_iterator<vtkPixelExtent, vtkPixelExtent&, vtkPixelExtent*> >(std::_Deque_iterator<vtkPixelExtent, vtkPixelExtent&, vtkPixelExtent*>) -->
          <function-decl name='__destroy&lt;std::_Deque_iterator&lt;vtkPixelExtent, vtkPixelExtent&amp;, vtkPixelExtent*&gt; &gt;' filepath='/usr/lib/gcc/x86_64-redhat-linux/4.4.7/../../../../include/c++/4.4.7/bits/stl_construct.h' line='109' column='1' visibility='default' binding='global' size-in-bits='64'>
            <!-- parameter of type 'struct std::_Deque_iterator<vtkPixelExtent, vtkPixelExtent&, vtkPixelExtent*>' -->
            <parameter type-id='type-id-147'/>
            <!-- parameter of type 'struct std::_Deque_iterator<vtkPixelExtent, vtkPixelExtent&, vtkPixelExtent*>' -->
            <parameter type-id='type-id-147'/>
            <!-- void -->
            <return type-id='type-id-27'/>
          </function-decl>
        </member-function>
        <member-function access='public' static='yes'>
          <!-- void std::_Destroy_aux<true>::__destroy<vtkPixelExtent*>(vtkPixelExtent*) -->
          <function-decl name='__destroy&lt;vtkPixelExtent*&gt;' filepath='/usr/lib/gcc/x86_64-redhat-linux/4.4.7/../../../../include/c++/4.4.7/bits/stl_construct.h' line='109' column='1' visibility='default' binding='global' size-in-bits='64'>
            <!-- parameter of type 'vtkPixelExtent*' -->
            <parameter type-id='type-id-49'/>
            <!-- parameter of type 'vtkPixelExtent*' -->
            <parameter type-id='type-id-49'/>
            <!-- void -->
            <return type-id='type-id-27'/>
          </function-decl>
        </member-function>
        <member-function access='public' static='yes'>
          <!-- void std::_Destroy_aux<true>::__destroy<vtkPixelBufferObject**>(vtkPixelBufferObject**) -->
          <function-decl name='__destroy&lt;vtkPixelBufferObject**&gt;' filepath='/usr/lib/gcc/x86_64-redhat-linux/4.4.7/../../../../include/c++/4.4.7/bits/stl_construct.h' line='109' column='1' visibility='default' binding='global' size-in-bits='64'>
            <!-- parameter of type 'vtkPixelBufferObject**' -->
            <parameter type-id='type-id-313'/>
            <!-- parameter of type 'vtkPixelBufferObject**' -->
            <parameter type-id='type-id-313'/>
            <!-- void -->
            <return type-id='type-id-27'/>
          </function-decl>
        </member-function>
        <member-function access='public' static='yes'>
          <!-- void std::_Destroy_aux<true>::__destroy<float*>(float*) -->
          <function-decl name='__destroy&lt;float*&gt;' filepath='/usr/lib/gcc/x86_64-redhat-linux/4.4.7/../../../../include/c++/4.4.7/bits/stl_construct.h' line='109' column='1' visibility='default' binding='global' size-in-bits='64'>
            <!-- parameter of type 'float*' -->
            <parameter type-id='type-id-56'/>
            <!-- parameter of type 'float*' -->
            <parameter type-id='type-id-56'/>
            <!-- void -->
            <return type-id='type-id-27'/>
          </function-decl>
        </member-function>
      </class-decl>
      <!-- class std::_Deque_base<vtkPixelExtent, std::allocator<vtkPixelExtent> > -->
      <class-decl name='_Deque_base&lt;vtkPixelExtent, std::allocator&lt;vtkPixelExtent&gt; &gt;' size-in-bits='640' visibility='default' filepath='/usr/lib/gcc/x86_64-redhat-linux/4.4.7/../../../../include/c++/4.4.7/bits/stl_deque.h' line='362' column='1' id='type-id-143'>
        <member-type access='protected'>
          <!-- enum std::_Deque_base<vtkPixelExtent, std::allocator<vtkPixelExtent> >::__anonymous_enum__ -->
          <enum-decl name='__anonymous_enum__' is-anonymous='yes' filepath='/usr/lib/gcc/x86_64-redhat-linux/4.4.7/../../../../include/c++/4.4.7/bits/stl_deque.h' line='465' column='1' id='type-id-314'>
            <underlying-type type-id='type-id-24'/>
            <enumerator name='_S_initial_map_size' value='8'/>
          </enum-decl>
        </member-type>
        <member-type access='protected'>
          <!-- struct std::_Deque_base<vtkPixelExtent, std::allocator<vtkPixelExtent> >::_Deque_impl -->
          <class-decl name='_Deque_impl' size-in-bits='640' is-struct='yes' visibility='default' filepath='/usr/lib/gcc/x86_64-redhat-linux/4.4.7/../../../../include/c++/4.4.7/bits/stl_deque.h' line='412' column='1' id='type-id-210'>
            <!-- class std::allocator<vtkPixelExtent> -->
            <base-class access='public' layout-offset-in-bits='0' type-id='type-id-163'/>
            <data-member access='public' layout-offset-in-bits='0'>
              <!-- vtkPixelExtent** std::_Deque_base<vtkPixelExtent, std::allocator<vtkPixelExtent> >::_Deque_impl::_M_map -->
              <var-decl name='_M_map' type-id='type-id-274' visibility='default' filepath='/usr/lib/gcc/x86_64-redhat-linux/4.4.7/../../../../include/c++/4.4.7/bits/stl_deque.h' line='413' column='1'/>
            </data-member>
            <data-member access='public' layout-offset-in-bits='64'>
              <!-- size_t std::_Deque_base<vtkPixelExtent, std::allocator<vtkPixelExtent> >::_Deque_impl::_M_map_size -->
              <var-decl name='_M_map_size' type-id='type-id-38' visibility='default' filepath='/usr/lib/gcc/x86_64-redhat-linux/4.4.7/../../../../include/c++/4.4.7/bits/stl_deque.h' line='414' column='1'/>
            </data-member>
            <data-member access='public' layout-offset-in-bits='128'>
              <!-- std::_Deque_iterator<vtkPixelExtent, vtkPixelExtent&, vtkPixelExtent*> std::_Deque_base<vtkPixelExtent, std::allocator<vtkPixelExtent> >::_Deque_impl::_M_start -->
              <var-decl name='_M_start' type-id='type-id-147' visibility='default' filepath='/usr/lib/gcc/x86_64-redhat-linux/4.4.7/../../../../include/c++/4.4.7/bits/stl_deque.h' line='415' column='1'/>
            </data-member>
            <data-member access='public' layout-offset-in-bits='384'>
              <!-- std::_Deque_iterator<vtkPixelExtent, vtkPixelExtent&, vtkPixelExtent*> std::_Deque_base<vtkPixelExtent, std::allocator<vtkPixelExtent> >::_Deque_impl::_M_finish -->
              <var-decl name='_M_finish' type-id='type-id-147' visibility='default' filepath='/usr/lib/gcc/x86_64-redhat-linux/4.4.7/../../../../include/c++/4.4.7/bits/stl_deque.h' line='416' column='1'/>
            </data-member>
            <member-function access='public' constructor='yes'>
              <!-- std::_Deque_base<vtkPixelExtent, std::allocator<vtkPixelExtent> >::_Deque_impl::_Deque_impl() -->
              <function-decl name='_Deque_impl' filepath='/usr/lib/gcc/x86_64-redhat-linux/4.4.7/../../../../include/c++/4.4.7/bits/stl_deque.h' line='418' column='1' visibility='default' binding='global' size-in-bits='64'>
                <!-- implicit parameter of type 'std::_Deque_base<vtkPixelExtent, std::allocator<vtkPixelExtent> >::_Deque_impl*' -->
                <parameter type-id='type-id-211' is-artificial='yes'/>
                <!-- void -->
                <return type-id='type-id-27'/>
              </function-decl>
            </member-function>
            <member-function access='public' constructor='yes'>
              <!-- std::_Deque_base<vtkPixelExtent, std::allocator<vtkPixelExtent> >::_Deque_impl::_Deque_impl(const std::allocator<vtkPixelExtent>&) -->
              <function-decl name='_Deque_impl' filepath='/usr/lib/gcc/x86_64-redhat-linux/4.4.7/../../../../include/c++/4.4.7/bits/stl_deque.h' line='423' column='1' visibility='default' binding='global' size-in-bits='64'>
                <!-- implicit parameter of type 'std::_Deque_base<vtkPixelExtent, std::allocator<vtkPixelExtent> >::_Deque_impl*' -->
                <parameter type-id='type-id-211' is-artificial='yes'/>
                <!-- parameter of type 'const std::allocator<vtkPixelExtent>&' -->
                <parameter type-id='type-id-165'/>
                <!-- void -->
                <return type-id='type-id-27'/>
              </function-decl>
            </member-function>
          </class-decl>
        </member-type>
        <data-member access='protected' layout-offset-in-bits='0'>
          <!-- std::_Deque_base<vtkPixelExtent, std::allocator<vtkPixelExtent> >::_Deque_impl std::_Deque_base<vtkPixelExtent, std::allocator<vtkPixelExtent> >::_M_impl -->
          <var-decl name='_M_impl' type-id='type-id-210' visibility='default' filepath='/usr/lib/gcc/x86_64-redhat-linux/4.4.7/../../../../include/c++/4.4.7/bits/stl_deque.h' line='467' column='1'/>
        </data-member>
        <member-function access='private'>
          <!-- void std::_Deque_base<vtkPixelExtent, std::allocator<vtkPixelExtent> >::_Deque_base() -->
          <function-decl name='_Deque_base' filepath='/usr/lib/gcc/x86_64-redhat-linux/4.4.7/../../../../include/c++/4.4.7/bits/stl_deque.h' line='373' column='1' visibility='default' binding='global' size-in-bits='64'>
            <!-- implicit parameter of type 'std::_Deque_base<vtkPixelExtent, std::allocator<vtkPixelExtent> >*' -->
            <parameter type-id='type-id-208' is-artificial='yes'/>
            <!-- void -->
            <return type-id='type-id-27'/>
          </function-decl>
        </member-function>
        <member-function access='private'>
          <!-- void std::_Deque_base<vtkPixelExtent, std::allocator<vtkPixelExtent> >::_Deque_base(const std::allocator<vtkPixelExtent>&, unsigned long int) -->
          <function-decl name='_Deque_base' filepath='/usr/lib/gcc/x86_64-redhat-linux/4.4.7/../../../../include/c++/4.4.7/bits/stl_deque.h' line='377' column='1' visibility='default' binding='global' size-in-bits='64'>
            <!-- implicit parameter of type 'std::_Deque_base<vtkPixelExtent, std::allocator<vtkPixelExtent> >*' -->
            <parameter type-id='type-id-208' is-artificial='yes'/>
            <!-- parameter of type 'const std::allocator<vtkPixelExtent>&' -->
            <parameter type-id='type-id-165'/>
            <!-- parameter of type 'unsigned long int' -->
            <parameter type-id='type-id-4'/>
            <!-- void -->
            <return type-id='type-id-27'/>
          </function-decl>
        </member-function>
        <member-function access='private'>
          <!-- void std::_Deque_base<vtkPixelExtent, std::allocator<vtkPixelExtent> >::_Deque_base(const std::allocator<vtkPixelExtent>&) -->
          <function-decl name='_Deque_base' filepath='/usr/lib/gcc/x86_64-redhat-linux/4.4.7/../../../../include/c++/4.4.7/bits/stl_deque.h' line='381' column='1' visibility='default' binding='global' size-in-bits='64'>
            <!-- implicit parameter of type 'std::_Deque_base<vtkPixelExtent, std::allocator<vtkPixelExtent> >*' -->
            <parameter type-id='type-id-208' is-artificial='yes'/>
            <!-- parameter of type 'const std::allocator<vtkPixelExtent>&' -->
            <parameter type-id='type-id-165'/>
            <!-- void -->
            <return type-id='type-id-27'/>
          </function-decl>
        </member-function>
        <member-function access='private' destructor='yes'>
          <!-- std::_Deque_base<vtkPixelExtent, std::allocator<vtkPixelExtent> >::~_Deque_base(int) -->
          <function-decl name='~_Deque_base' mangled-name='_ZNSt11_Deque_baseI14vtkPixelExtentSaIS0_EED1Ev' filepath='/usr/lib/gcc/x86_64-redhat-linux/4.4.7/../../../../include/c++/4.4.7/bits/stl_deque.h' line='471' column='1' visibility='default' binding='global' size-in-bits='64' elf-symbol-id='_ZNSt11_Deque_baseI14vtkPixelExtentSaIS0_EED1Ev'>
            <!-- implicit parameter of type 'std::_Deque_base<vtkPixelExtent, std::allocator<vtkPixelExtent> >*' -->
            <parameter type-id='type-id-208' is-artificial='yes'/>
            <!-- artificial parameter of type 'int' -->
            <parameter type-id='type-id-17' is-artificial='yes'/>
            <!-- void -->
            <return type-id='type-id-27'/>
          </function-decl>
        </member-function>
        <member-function access='protected'>
          <!-- void std::_Deque_base<vtkPixelExtent, std::allocator<vtkPixelExtent> >::_M_initialize_map(size_t) -->
          <function-decl name='_M_initialize_map' mangled-name='_ZNSt11_Deque_baseI14vtkPixelExtentSaIS0_EE17_M_initialize_mapEm' filepath='/usr/lib/gcc/x86_64-redhat-linux/4.4.7/../../../../include/c++/4.4.7/bits/stl_deque.h' line='492' column='1' visibility='default' binding='global' size-in-bits='64' elf-symbol-id='_ZNSt11_Deque_baseI14vtkPixelExtentSaIS0_EE17_M_initialize_mapEm'>
            <!-- implicit parameter of type 'std::_Deque_base<vtkPixelExtent, std::allocator<vtkPixelExtent> >* const' -->
            <parameter type-id='type-id-209' name='this' is-artificial='yes'/>
            <!-- parameter of type 'typedef size_t' -->
            <parameter type-id='type-id-38' name='__num_elements' filepath='/usr/lib/gcc/x86_64-redhat-linux/4.4.7/../../../../include/c++/4.4.7/bits/stl_deque.h' line='493' column='1'/>
            <!-- void -->
            <return type-id='type-id-27'/>
          </function-decl>
        </member-function>
      </class-decl>
      <!-- struct std::char_traits<char> -->
      <class-decl name='char_traits&lt;char&gt;' size-in-bits='8' is-struct='yes' visibility='default' filepath='/usr/lib/gcc/x86_64-redhat-linux/4.4.7/../../../../include/c++/4.4.7/bits/char_traits.h' line='238' column='1' id='type-id-315'>
        <member-type access='public'>
          <!-- typedef char std::char_traits<char>::char_type -->
          <typedef-decl name='char_type' type-id='type-id-2' filepath='/usr/lib/gcc/x86_64-redhat-linux/4.4.7/../../../../include/c++/4.4.7/bits/char_traits.h' line='239' column='1' id='type-id-173'/>
        </member-type>
        <member-type access='public'>
          <!-- typedef int std::char_traits<char>::int_type -->
          <typedef-decl name='int_type' type-id='type-id-17' filepath='/usr/lib/gcc/x86_64-redhat-linux/4.4.7/../../../../include/c++/4.4.7/bits/char_traits.h' line='240' column='1' id='type-id-177'/>
        </member-type>
      </class-decl>
      <!-- class std::allocator<vtkPixelExtent*> -->
      <class-decl name='allocator&lt;vtkPixelExtent*&gt;' size-in-bits='8' visibility='default' filepath='/usr/lib/gcc/x86_64-redhat-linux/4.4.7/../../../../include/c++/4.4.7/bits/allocator.h' line='87' column='1' id='type-id-160'>
        <!-- class __gnu_cxx::new_allocator<vtkPixelExtent*> -->
        <base-class access='public' layout-offset-in-bits='0' type-id='type-id-117'/>
        <member-function access='private'>
          <!-- void std::allocator<vtkPixelExtent*>::allocator() -->
          <function-decl name='allocator' filepath='/usr/lib/gcc/x86_64-redhat-linux/4.4.7/../../../../include/c++/4.4.7/bits/allocator.h' line='101' column='1' visibility='default' binding='global' size-in-bits='64'>
            <!-- implicit parameter of type 'std::allocator<vtkPixelExtent*>*' -->
            <parameter type-id='type-id-220' is-artificial='yes'/>
            <!-- void -->
            <return type-id='type-id-27'/>
          </function-decl>
        </member-function>
        <member-function access='private'>
          <!-- void std::allocator<vtkPixelExtent*>::allocator(const std::allocator<vtkPixelExtent*>&) -->
          <function-decl name='allocator' filepath='/usr/lib/gcc/x86_64-redhat-linux/4.4.7/../../../../include/c++/4.4.7/bits/allocator.h' line='103' column='1' visibility='default' binding='global' size-in-bits='64'>
            <!-- implicit parameter of type 'std::allocator<vtkPixelExtent*>*' -->
            <parameter type-id='type-id-220' is-artificial='yes'/>
            <!-- parameter of type 'const std::allocator<vtkPixelExtent*>&' -->
            <parameter type-id='type-id-162'/>
            <!-- void -->
            <return type-id='type-id-27'/>
          </function-decl>
        </member-function>
        <member-function access='private' destructor='yes'>
          <!-- std::allocator<vtkPixelExtent*>::~allocator(int) -->
          <function-decl name='~allocator' filepath='/usr/lib/gcc/x86_64-redhat-linux/4.4.7/../../../../include/c++/4.4.7/bits/allocator.h' line='109' column='1' visibility='default' binding='global' size-in-bits='64'>
            <!-- implicit parameter of type 'std::allocator<vtkPixelExtent*>*' -->
            <parameter type-id='type-id-220' is-artificial='yes'/>
            <!-- artificial parameter of type 'int' -->
            <parameter type-id='type-id-17' is-artificial='yes'/>
            <!-- void -->
            <return type-id='type-id-27'/>
          </function-decl>
        </member-function>
        <member-function access='private'>
          <!-- void std::allocator<vtkPixelExtent*>::allocator<vtkPixelExtent>(const std::allocator<vtkPixelExtent>&) -->
          <function-decl name='allocator&lt;vtkPixelExtent&gt;' filepath='/usr/lib/gcc/x86_64-redhat-linux/4.4.7/../../../../include/c++/4.4.7/bits/allocator.h' line='107' column='1' visibility='default' binding='global' size-in-bits='64'>
            <!-- implicit parameter of type 'std::allocator<vtkPixelExtent*>*' -->
            <parameter type-id='type-id-220' is-artificial='yes'/>
            <!-- parameter of type 'const std::allocator<vtkPixelExtent>&' -->
            <parameter type-id='type-id-165'/>
            <!-- void -->
            <return type-id='type-id-27'/>
          </function-decl>
        </member-function>
      </class-decl>
      <!-- class std::ios_base -->
      <class-decl name='ios_base' visibility='default' is-declaration-only='yes' id='type-id-234'>
        <member-type access='private'>
          <!-- class std::ios_base::Init -->
          <class-decl name='Init' size-in-bits='8' visibility='default' filepath='/usr/lib/gcc/x86_64-redhat-linux/4.4.7/../../../../include/c++/4.4.7/bits/ios_base.h' line='538' column='1' id='type-id-236'>
            <data-member access='private' static='yes'>
              <!-- static _Atomic_word std::ios_base::Init::_S_refcount -->
              <var-decl name='_S_refcount' type-id='type-id-29' visibility='default' filepath='/usr/lib/gcc/x86_64-redhat-linux/4.4.7/../../../../include/c++/4.4.7/bits/ios_base.h' line='545' column='1'/>
            </data-member>
            <data-member access='private' static='yes'>
              <!-- static bool std::ios_base::Init::_S_synced_with_stdio -->
              <var-decl name='_S_synced_with_stdio' type-id='type-id-1' visibility='default' filepath='/usr/lib/gcc/x86_64-redhat-linux/4.4.7/../../../../include/c++/4.4.7/bits/ios_base.h' line='546' column='1'/>
            </data-member>
            <member-function access='private' constructor='yes'>
              <!-- std::ios_base::Init::Init() -->
              <function-decl name='Init' filepath='/usr/lib/gcc/x86_64-redhat-linux/4.4.7/../../../../include/c++/4.4.7/bits/ios_base.h' line='541' column='1' visibility='default' binding='global' size-in-bits='64'>
                <!-- implicit parameter of type 'std::ios_base::Init*' -->
                <parameter type-id='type-id-237' is-artificial='yes'/>
                <!-- void -->
                <return type-id='type-id-27'/>
              </function-decl>
            </member-function>
            <member-function access='private' destructor='yes'>
              <!-- std::ios_base::Init::~Init(int) -->
              <function-decl name='~Init' filepath='/usr/lib/gcc/x86_64-redhat-linux/4.4.7/../../../../include/c++/4.4.7/bits/ios_base.h' line='542' column='1' visibility='default' binding='global' size-in-bits='64'>
                <!-- implicit parameter of type 'std::ios_base::Init*' -->
                <parameter type-id='type-id-237' is-artificial='yes'/>
                <!-- artificial parameter of type 'int' -->
                <parameter type-id='type-id-17' is-artificial='yes'/>
                <!-- void -->
                <return type-id='type-id-27'/>
              </function-decl>
            </member-function>
          </class-decl>
        </member-type>
        <data-member access='private' static='yes'>
          <!-- static const std::_Resetiosflags::fmtflags std::ios_base::boolalpha -->
          <var-decl name='boolalpha' type-id='type-id-152' visibility='default' filepath='/usr/lib/gcc/x86_64-redhat-linux/4.4.7/../../../../include/c++/4.4.7/bits/ios_base.h' line='266' column='1'/>
        </data-member>
        <data-member access='private' static='yes'>
          <!-- static const std::_Resetiosflags::fmtflags std::ios_base::dec -->
          <var-decl name='dec' type-id='type-id-152' visibility='default' filepath='/usr/lib/gcc/x86_64-redhat-linux/4.4.7/../../../../include/c++/4.4.7/bits/ios_base.h' line='269' column='1'/>
        </data-member>
        <data-member access='private' static='yes'>
          <!-- static const std::_Resetiosflags::fmtflags std::ios_base::fixed -->
          <var-decl name='fixed' type-id='type-id-152' visibility='default' filepath='/usr/lib/gcc/x86_64-redhat-linux/4.4.7/../../../../include/c++/4.4.7/bits/ios_base.h' line='272' column='1'/>
        </data-member>
        <data-member access='private' static='yes'>
          <!-- static const std::_Resetiosflags::fmtflags std::ios_base::hex -->
          <var-decl name='hex' type-id='type-id-152' visibility='default' filepath='/usr/lib/gcc/x86_64-redhat-linux/4.4.7/../../../../include/c++/4.4.7/bits/ios_base.h' line='275' column='1'/>
        </data-member>
        <data-member access='private' static='yes'>
          <!-- static const std::_Resetiosflags::fmtflags std::ios_base::internal -->
          <var-decl name='internal' type-id='type-id-152' visibility='default' filepath='/usr/lib/gcc/x86_64-redhat-linux/4.4.7/../../../../include/c++/4.4.7/bits/ios_base.h' line='280' column='1'/>
        </data-member>
        <data-member access='private' static='yes'>
          <!-- static const std::_Resetiosflags::fmtflags std::ios_base::left -->
          <var-decl name='left' type-id='type-id-152' visibility='default' filepath='/usr/lib/gcc/x86_64-redhat-linux/4.4.7/../../../../include/c++/4.4.7/bits/ios_base.h' line='284' column='1'/>
        </data-member>
        <data-member access='private' static='yes'>
          <!-- static const std::_Resetiosflags::fmtflags std::ios_base::oct -->
          <var-decl name='oct' type-id='type-id-152' visibility='default' filepath='/usr/lib/gcc/x86_64-redhat-linux/4.4.7/../../../../include/c++/4.4.7/bits/ios_base.h' line='287' column='1'/>
        </data-member>
        <data-member access='private' static='yes'>
          <!-- static const std::_Resetiosflags::fmtflags std::ios_base::right -->
          <var-decl name='right' type-id='type-id-152' visibility='default' filepath='/usr/lib/gcc/x86_64-redhat-linux/4.4.7/../../../../include/c++/4.4.7/bits/ios_base.h' line='291' column='1'/>
        </data-member>
        <data-member access='private' static='yes'>
          <!-- static const std::_Resetiosflags::fmtflags std::ios_base::scientific -->
          <var-decl name='scientific' type-id='type-id-152' visibility='default' filepath='/usr/lib/gcc/x86_64-redhat-linux/4.4.7/../../../../include/c++/4.4.7/bits/ios_base.h' line='294' column='1'/>
        </data-member>
        <data-member access='private' static='yes'>
          <!-- static const std::_Resetiosflags::fmtflags std::ios_base::showbase -->
          <var-decl name='showbase' type-id='type-id-152' visibility='default' filepath='/usr/lib/gcc/x86_64-redhat-linux/4.4.7/../../../../include/c++/4.4.7/bits/ios_base.h' line='298' column='1'/>
        </data-member>
        <data-member access='private' static='yes'>
          <!-- static const std::_Resetiosflags::fmtflags std::ios_base::showpoint -->
          <var-decl name='showpoint' type-id='type-id-152' visibility='default' filepath='/usr/lib/gcc/x86_64-redhat-linux/4.4.7/../../../../include/c++/4.4.7/bits/ios_base.h' line='302' column='1'/>
        </data-member>
        <data-member access='private' static='yes'>
          <!-- static const std::_Resetiosflags::fmtflags std::ios_base::showpos -->
          <var-decl name='showpos' type-id='type-id-152' visibility='default' filepath='/usr/lib/gcc/x86_64-redhat-linux/4.4.7/../../../../include/c++/4.4.7/bits/ios_base.h' line='305' column='1'/>
        </data-member>
        <data-member access='private' static='yes'>
          <!-- static const std::_Resetiosflags::fmtflags std::ios_base::skipws -->
          <var-decl name='skipws' type-id='type-id-152' visibility='default' filepath='/usr/lib/gcc/x86_64-redhat-linux/4.4.7/../../../../include/c++/4.4.7/bits/ios_base.h' line='308' column='1'/>
        </data-member>
        <data-member access='private' static='yes'>
          <!-- static const std::_Resetiosflags::fmtflags std::ios_base::unitbuf -->
          <var-decl name='unitbuf' type-id='type-id-152' visibility='default' filepath='/usr/lib/gcc/x86_64-redhat-linux/4.4.7/../../../../include/c++/4.4.7/bits/ios_base.h' line='311' column='1'/>
        </data-member>
        <data-member access='private' static='yes'>
          <!-- static const std::_Resetiosflags::fmtflags std::ios_base::uppercase -->
          <var-decl name='uppercase' type-id='type-id-152' visibility='default' filepath='/usr/lib/gcc/x86_64-redhat-linux/4.4.7/../../../../include/c++/4.4.7/bits/ios_base.h' line='315' column='1'/>
        </data-member>
        <data-member access='private' static='yes'>
          <!-- static const std::_Resetiosflags::fmtflags std::ios_base::adjustfield -->
          <var-decl name='adjustfield' type-id='type-id-152' visibility='default' filepath='/usr/lib/gcc/x86_64-redhat-linux/4.4.7/../../../../include/c++/4.4.7/bits/ios_base.h' line='318' column='1'/>
        </data-member>
        <data-member access='private' static='yes'>
          <!-- static const std::_Resetiosflags::fmtflags std::ios_base::basefield -->
          <var-decl name='basefield' type-id='type-id-152' visibility='default' filepath='/usr/lib/gcc/x86_64-redhat-linux/4.4.7/../../../../include/c++/4.4.7/bits/ios_base.h' line='321' column='1'/>
        </data-member>
        <data-member access='private' static='yes'>
          <!-- static const std::_Resetiosflags::fmtflags std::ios_base::floatfield -->
          <var-decl name='floatfield' type-id='type-id-152' visibility='default' filepath='/usr/lib/gcc/x86_64-redhat-linux/4.4.7/../../../../include/c++/4.4.7/bits/ios_base.h' line='324' column='1'/>
        </data-member>
        <data-member access='private' static='yes'>
          <!-- static const std::basic_ios<char, std::char_traits<char> >::iostate std::ios_base::badbit -->
          <var-decl name='badbit' type-id='type-id-172' visibility='default' filepath='/usr/lib/gcc/x86_64-redhat-linux/4.4.7/../../../../include/c++/4.4.7/bits/ios_base.h' line='342' column='1'/>
        </data-member>
        <data-member access='private' static='yes'>
          <!-- static const std::basic_ios<char, std::char_traits<char> >::iostate std::ios_base::eofbit -->
          <var-decl name='eofbit' type-id='type-id-172' visibility='default' filepath='/usr/lib/gcc/x86_64-redhat-linux/4.4.7/../../../../include/c++/4.4.7/bits/ios_base.h' line='345' column='1'/>
        </data-member>
        <data-member access='private' static='yes'>
          <!-- static const std::basic_ios<char, std::char_traits<char> >::iostate std::ios_base::failbit -->
          <var-decl name='failbit' type-id='type-id-172' visibility='default' filepath='/usr/lib/gcc/x86_64-redhat-linux/4.4.7/../../../../include/c++/4.4.7/bits/ios_base.h' line='350' column='1'/>
        </data-member>
        <data-member access='private' static='yes'>
          <!-- static const std::basic_ios<char, std::char_traits<char> >::iostate std::ios_base::goodbit -->
          <var-decl name='goodbit' type-id='type-id-172' visibility='default' filepath='/usr/lib/gcc/x86_64-redhat-linux/4.4.7/../../../../include/c++/4.4.7/bits/ios_base.h' line='353' column='1'/>
        </data-member>
        <data-member access='private' static='yes'>
          <!-- static const std::__basic_file<char>::openmode std::ios_base::app -->
          <var-decl name='app' type-id='type-id-157' visibility='default' filepath='/usr/lib/gcc/x86_64-redhat-linux/4.4.7/../../../../include/c++/4.4.7/bits/ios_base.h' line='372' column='1'/>
        </data-member>
        <data-member access='private' static='yes'>
          <!-- static const std::__basic_file<char>::openmode std::ios_base::ate -->
          <var-decl name='ate' type-id='type-id-157' visibility='default' filepath='/usr/lib/gcc/x86_64-redhat-linux/4.4.7/../../../../include/c++/4.4.7/bits/ios_base.h' line='375' column='1'/>
        </data-member>
        <data-member access='private' static='yes'>
          <!-- static const std::__basic_file<char>::openmode std::ios_base::in -->
          <var-decl name='in' type-id='type-id-157' visibility='default' filepath='/usr/lib/gcc/x86_64-redhat-linux/4.4.7/../../../../include/c++/4.4.7/bits/ios_base.h' line='383' column='1'/>
        </data-member>
        <data-member access='private' static='yes'>
          <!-- static const std::__basic_file<char>::openmode std::ios_base::out -->
          <var-decl name='out' type-id='type-id-157' visibility='default' filepath='/usr/lib/gcc/x86_64-redhat-linux/4.4.7/../../../../include/c++/4.4.7/bits/ios_base.h' line='386' column='1'/>
        </data-member>
        <data-member access='private' static='yes'>
          <!-- static const std::__basic_file<char>::openmode std::ios_base::trunc -->
          <var-decl name='trunc' type-id='type-id-157' visibility='default' filepath='/usr/lib/gcc/x86_64-redhat-linux/4.4.7/../../../../include/c++/4.4.7/bits/ios_base.h' line='389' column='1'/>
        </data-member>
        <data-member access='private' static='yes'>
          <!-- static const std::__basic_file<char>::seekdir std::ios_base::beg -->
          <var-decl name='beg' type-id='type-id-159' visibility='default' filepath='/usr/lib/gcc/x86_64-redhat-linux/4.4.7/../../../../include/c++/4.4.7/bits/ios_base.h' line='404' column='1'/>
        </data-member>
        <data-member access='private' static='yes'>
          <!-- static const std::__basic_file<char>::seekdir std::ios_base::cur -->
          <var-decl name='cur' type-id='type-id-159' visibility='default' filepath='/usr/lib/gcc/x86_64-redhat-linux/4.4.7/../../../../include/c++/4.4.7/bits/ios_base.h' line='407' column='1'/>
        </data-member>
        <data-member access='private' static='yes'>
          <!-- static const std::__basic_file<char>::seekdir std::ios_base::end -->
          <var-decl name='end' type-id='type-id-159' visibility='default' filepath='/usr/lib/gcc/x86_64-redhat-linux/4.4.7/../../../../include/c++/4.4.7/bits/ios_base.h' line='410' column='1'/>
        </data-member>
      </class-decl>
      <!-- struct std::basic_ios<char, std::char_traits<char> > -->
      <class-decl name='basic_ios&lt;char, std::char_traits&lt;char&gt; &gt;' is-struct='yes' visibility='default' is-declaration-only='yes' id='type-id-167'>
        <member-type access='public'>
          <!-- typedef std::_Ios_Iostate std::basic_ios<char, std::char_traits<char> >::iostate -->
          <typedef-decl name='iostate' type-id='type-id-298' filepath='/usr/lib/gcc/x86_64-redhat-linux/4.4.7/../../../../include/c++/4.4.7/bits/ios_base.h' line='338' column='1' id='type-id-171'/>
        </member-type>
        <member-function access='protected'>
          <!-- void std::basic_ios<char, std::char_traits<char> >::basic_ios() -->
          <function-decl name='basic_ios' filepath='/usr/lib/gcc/x86_64-redhat-linux/4.4.7/../../../../include/c++/4.4.7/bits/basic_ios.h' line='450' column='1' visibility='default' binding='global' size-in-bits='64'>
            <!-- implicit parameter of type 'std::basic_ios<char, std::char_traits<char> >*' -->
            <parameter type-id='type-id-223' is-artificial='yes'/>
            <!-- void -->
            <return type-id='type-id-27'/>
          </function-decl>
        </member-function>
        <member-function access='public' destructor='yes' vtable-offset='-1'>
          <!-- std::basic_ios<char, std::char_traits<char> >::~basic_ios(int) -->
          <function-decl name='~basic_ios' filepath='/usr/lib/gcc/x86_64-redhat-linux/4.4.7/../../../../include/c++/4.4.7/bits/basic_ios.h' line='272' column='1' visibility='default' binding='global' size-in-bits='64'>
            <!-- implicit parameter of type 'std::basic_ios<char, std::char_traits<char> >*' -->
            <parameter type-id='type-id-223' is-artificial='yes'/>
            <!-- artificial parameter of type 'int' -->
            <parameter type-id='type-id-17' is-artificial='yes'/>
            <!-- void -->
            <return type-id='type-id-27'/>
          </function-decl>
        </member-function>
      </class-decl>
      <!-- const int& std::max<int>(const int&, const int&) -->
      <function-decl name='max&lt;int&gt;' filepath='/usr/lib/gcc/x86_64-redhat-linux/4.4.7/../../../../include/c++/4.4.7/bits/stl_algobase.h' line='209' column='1' visibility='default' binding='global' size-in-bits='64'>
        <!-- parameter of type 'const int&' -->
        <parameter type-id='type-id-138'/>
        <!-- parameter of type 'const int&' -->
        <parameter type-id='type-id-138'/>
        <!-- const int& -->
        <return type-id='type-id-138'/>
      </function-decl>
      <!-- const int& std::min<int>(const int&, const int&) -->
      <function-decl name='min&lt;int&gt;' filepath='/usr/lib/gcc/x86_64-redhat-linux/4.4.7/../../../../include/c++/4.4.7/bits/stl_algobase.h' line='186' column='1' visibility='default' binding='global' size-in-bits='64'>
        <!-- parameter of type 'const int&' -->
        <parameter type-id='type-id-138'/>
        <!-- parameter of type 'const int&' -->
        <parameter type-id='type-id-138'/>
        <!-- const int& -->
        <return type-id='type-id-138'/>
      </function-decl>
      <!-- size_t std::__deque_buf_size(size_t) -->
      <function-decl name='__deque_buf_size' filepath='/usr/lib/gcc/x86_64-redhat-linux/4.4.7/../../../../include/c++/4.4.7/bits/stl_deque.h' line='78' column='1' visibility='default' binding='global' size-in-bits='64'>
        <!-- parameter of type 'typedef size_t' -->
        <parameter type-id='type-id-38'/>
        <!-- typedef size_t -->
        <return type-id='type-id-38'/>
      </function-decl>
      <!-- void std::_Destroy<std::_Deque_iterator<vtkPixelExtent, vtkPixelExtent&, vtkPixelExtent*> >(std::_Deque_iterator<vtkPixelExtent, vtkPixelExtent&, vtkPixelExtent*>, std::_Deque_iterator<vtkPixelExtent, vtkPixelExtent&, vtkPixelExtent*>) -->
      <function-decl name='_Destroy&lt;std::_Deque_iterator&lt;vtkPixelExtent, vtkPixelExtent&amp;, vtkPixelExtent*&gt; &gt;' filepath='/usr/lib/gcc/x86_64-redhat-linux/4.4.7/../../../../include/c++/4.4.7/bits/stl_construct.h' line='119' column='1' visibility='default' binding='global' size-in-bits='64'>
        <!-- parameter of type 'struct std::_Deque_iterator<vtkPixelExtent, vtkPixelExtent&, vtkPixelExtent*>' -->
        <parameter type-id='type-id-147'/>
        <!-- parameter of type 'struct std::_Deque_iterator<vtkPixelExtent, vtkPixelExtent&, vtkPixelExtent*>' -->
        <parameter type-id='type-id-147'/>
        <!-- void -->
        <return type-id='type-id-27'/>
      </function-decl>
      <!-- std::_Ios_Iostate std::operator|(std::_Ios_Iostate, std::_Ios_Iostate) -->
      <function-decl name='operator|' filepath='/usr/lib/gcc/x86_64-redhat-linux/4.4.7/../../../../include/c++/4.4.7/bits/ios_base.h' line='166' column='1' visibility='default' binding='global' size-in-bits='64'>
        <!-- parameter of type 'enum std::_Ios_Iostate' -->
        <parameter type-id='type-id-298'/>
        <!-- parameter of type 'enum std::_Ios_Iostate' -->
        <parameter type-id='type-id-298'/>
        <!-- enum std::_Ios_Iostate -->
        <return type-id='type-id-298'/>
      </function-decl>
      <!-- void std::_Construct<vtkPixelExtent, vtkPixelExtent>(vtkPixelExtent*, const vtkPixelExtent&) -->
      <function-decl name='_Construct&lt;vtkPixelExtent, vtkPixelExtent&gt;' filepath='/usr/lib/gcc/x86_64-redhat-linux/4.4.7/../../../../include/c++/4.4.7/bits/stl_construct.h' line='76' column='1' visibility='default' binding='global' size-in-bits='64'>
        <!-- parameter of type 'vtkPixelExtent*' -->
        <parameter type-id='type-id-49'/>
        <!-- parameter of type 'const vtkPixelExtent&' -->
        <parameter type-id='type-id-50'/>
        <!-- void -->
        <return type-id='type-id-27'/>
      </function-decl>
      <!-- void std::_Destroy<vtkPixelExtent*>(vtkPixelExtent*, vtkPixelExtent*) -->
      <function-decl name='_Destroy&lt;vtkPixelExtent*&gt;' filepath='/usr/lib/gcc/x86_64-redhat-linux/4.4.7/../../../../include/c++/4.4.7/bits/stl_construct.h' line='119' column='1' visibility='default' binding='global' size-in-bits='64'>
        <!-- parameter of type 'vtkPixelExtent*' -->
        <parameter type-id='type-id-49'/>
        <!-- parameter of type 'vtkPixelExtent*' -->
        <parameter type-id='type-id-49'/>
        <!-- void -->
        <return type-id='type-id-27'/>
      </function-decl>
      <!-- void std::uninitialized_fill<vtkPixelExtent*, vtkPixelExtent>(vtkPixelExtent*, vtkPixelExtent*, const vtkPixelExtent&) -->
      <function-decl name='uninitialized_fill&lt;vtkPixelExtent*, vtkPixelExtent&gt;' filepath='/usr/lib/gcc/x86_64-redhat-linux/4.4.7/../../../../include/c++/4.4.7/bits/stl_uninitialized.h' line='163' column='1' visibility='default' binding='global' size-in-bits='64'>
        <!-- parameter of type 'vtkPixelExtent*' -->
        <parameter type-id='type-id-49'/>
        <!-- parameter of type 'vtkPixelExtent*' -->
        <parameter type-id='type-id-49'/>
        <!-- parameter of type 'const vtkPixelExtent&' -->
        <parameter type-id='type-id-50'/>
        <!-- void -->
        <return type-id='type-id-27'/>
      </function-decl>
      <!-- void std::__uninitialized_fill_a<vtkPixelExtent*, vtkPixelExtent, vtkPixelExtent>(vtkPixelExtent*, vtkPixelExtent*, const vtkPixelExtent&, std::allocator<vtkPixelExtent>&) -->
      <function-decl name='__uninitialized_fill_a&lt;vtkPixelExtent*, vtkPixelExtent, vtkPixelExtent&gt;' filepath='/usr/lib/gcc/x86_64-redhat-linux/4.4.7/../../../../include/c++/4.4.7/bits/stl_uninitialized.h' line='289' column='1' visibility='default' binding='global' size-in-bits='64'>
        <!-- parameter of type 'vtkPixelExtent*' -->
        <parameter type-id='type-id-49'/>
        <!-- parameter of type 'vtkPixelExtent*' -->
        <parameter type-id='type-id-49'/>
        <!-- parameter of type 'const vtkPixelExtent&' -->
        <parameter type-id='type-id-50'/>
        <!-- parameter of type 'std::allocator<vtkPixelExtent>&' -->
        <parameter type-id='type-id-221'/>
        <!-- void -->
        <return type-id='type-id-27'/>
      </function-decl>
      <!-- void std::_Destroy<std::_Deque_iterator<vtkPixelExtent, vtkPixelExtent&, vtkPixelExtent*>, vtkPixelExtent>(std::_Deque_iterator<vtkPixelExtent, vtkPixelExtent&, vtkPixelExtent*>, std::_Deque_iterator<vtkPixelExtent, vtkPixelExtent&, vtkPixelExtent*>, std::allocator<vtkPixelExtent>&) -->
      <function-decl name='_Destroy&lt;std::_Deque_iterator&lt;vtkPixelExtent, vtkPixelExtent&amp;, vtkPixelExtent*&gt;, vtkPixelExtent&gt;' filepath='/usr/lib/gcc/x86_64-redhat-linux/4.4.7/../../../../include/c++/4.4.7/bits/stl_construct.h' line='146' column='1' visibility='default' binding='global' size-in-bits='64'>
        <!-- parameter of type 'struct std::_Deque_iterator<vtkPixelExtent, vtkPixelExtent&, vtkPixelExtent*>' -->
        <parameter type-id='type-id-147'/>
        <!-- parameter of type 'struct std::_Deque_iterator<vtkPixelExtent, vtkPixelExtent&, vtkPixelExtent*>' -->
        <parameter type-id='type-id-147'/>
        <!-- parameter of type 'std::allocator<vtkPixelExtent>&' -->
        <parameter type-id='type-id-221'/>
        <!-- void -->
        <return type-id='type-id-27'/>
      </function-decl>
      <!-- const size_t& std::max<size_t>(const size_t&, const size_t&) -->
      <function-decl name='max&lt;size_t&gt;' filepath='/usr/lib/gcc/x86_64-redhat-linux/4.4.7/../../../../include/c++/4.4.7/bits/stl_algobase.h' line='209' column='1' visibility='default' binding='global' size-in-bits='64'>
        <!-- parameter of type 'const size_t&' -->
        <parameter type-id='type-id-142'/>
        <!-- parameter of type 'const size_t&' -->
        <parameter type-id='type-id-142'/>
        <!-- const size_t& -->
        <return type-id='type-id-142'/>
      </function-decl>
      <!-- struct std::basic_ostream<char, std::char_traits<char> > -->
      <class-decl name='basic_ostream&lt;char, std::char_traits&lt;char&gt; &gt;' is-struct='yes' visibility='default' is-declaration-only='yes' id='type-id-225'>
        <member-function access='protected'>
          <!-- void std::basic_ostream<char, std::char_traits<char> >::basic_ostream(int, void**) -->
          <function-decl name='basic_ostream' filepath='/usr/lib/gcc/x86_64-redhat-linux/4.4.7/../../../../include/c++/4.4.7/ostream' line='361' column='1' visibility='default' binding='global' size-in-bits='64'>
            <!-- implicit parameter of type 'std::basic_ostream<char, std::char_traits<char> >*' -->
            <parameter type-id='type-id-227' is-artificial='yes'/>
            <!-- artificial parameter of type 'int' -->
            <parameter type-id='type-id-17' is-artificial='yes'/>
            <!-- artificial parameter of type 'void**' -->
            <parameter type-id='type-id-316' is-artificial='yes'/>
            <!-- void -->
            <return type-id='type-id-27'/>
          </function-decl>
        </member-function>
        <member-function access='public' destructor='yes' vtable-offset='-1'>
          <!-- std::basic_ostream<char, std::char_traits<char> >::~basic_ostream(int, void**) -->
          <function-decl name='~basic_ostream' filepath='/usr/lib/gcc/x86_64-redhat-linux/4.4.7/../../../../include/c++/4.4.7/ostream' line='91' column='1' visibility='default' binding='global' size-in-bits='64'>
            <!-- implicit parameter of type 'std::basic_ostream<char, std::char_traits<char> >*' -->
            <parameter type-id='type-id-227' is-artificial='yes'/>
            <!-- artificial parameter of type 'int' -->
            <parameter type-id='type-id-17' is-artificial='yes'/>
            <!-- artificial parameter of type 'void**' -->
            <parameter type-id='type-id-316' is-artificial='yes'/>
            <!-- void -->
            <return type-id='type-id-27'/>
          </function-decl>
        </member-function>
      </class-decl>
      <!-- std::basic_ostream<char, std::char_traits<char> >& std::operator<< <std::char_traits<char> >(std::basic_ostream<char, std::char_traits<char> >&, const char*) -->
      <function-decl name='operator&lt;&lt; &lt;std::char_traits&lt;char&gt; &gt;' filepath='/usr/lib/gcc/x86_64-redhat-linux/4.4.7/../../../../include/c++/4.4.7/ostream' line='505' column='1' visibility='default' binding='global' size-in-bits='64'>
        <!-- parameter of type 'std::basic_ostream<char, std::char_traits<char> >&' -->
        <parameter type-id='type-id-226'/>
        <!-- parameter of type 'const char*' -->
        <parameter type-id='type-id-68'/>
        <!-- std::basic_ostream<char, std::char_traits<char> >& -->
        <return type-id='type-id-226'/>
      </function-decl>
      <!-- class std::reverse_iterator<std::_Deque_iterator<vtkPixelExtent, vtkPixelExtent&, vtkPixelExtent*> > -->
      <class-decl name='reverse_iterator&lt;std::_Deque_iterator&lt;vtkPixelExtent, vtkPixelExtent&amp;, vtkPixelExtent*&gt; &gt;' visibility='default' is-declaration-only='yes' id='type-id-317'/>
      <!-- class std::reverse_iterator<std::_Deque_iterator<vtkPixelExtent, const vtkPixelExtent&, const vtkPixelExtent*> > -->
      <class-decl name='reverse_iterator&lt;std::_Deque_iterator&lt;vtkPixelExtent, const vtkPixelExtent&amp;, const vtkPixelExtent*&gt; &gt;' visibility='default' is-declaration-only='yes' id='type-id-318'/>
    </namespace-decl>
    <!-- namespace __gnu_cxx -->
    <namespace-decl name='__gnu_cxx'>
      <!-- class __gnu_cxx::new_allocator<vtkPixelExtent> -->
      <class-decl name='new_allocator&lt;vtkPixelExtent&gt;' size-in-bits='8' visibility='default' filepath='/usr/lib/gcc/x86_64-redhat-linux/4.4.7/../../../../include/c++/4.4.7/ext/new_allocator.h' line='52' column='1' id='type-id-120'>
        <member-function access='private'>
          <!-- void __gnu_cxx::new_allocator<vtkPixelExtent>::new_allocator() -->
          <function-decl name='new_allocator' filepath='/usr/lib/gcc/x86_64-redhat-linux/4.4.7/../../../../include/c++/4.4.7/ext/new_allocator.h' line='66' column='1' visibility='default' binding='global' size-in-bits='64'>
            <!-- implicit parameter of type '__gnu_cxx::new_allocator<vtkPixelExtent>*' -->
            <parameter type-id='type-id-121' is-artificial='yes'/>
            <!-- void -->
            <return type-id='type-id-27'/>
          </function-decl>
        </member-function>
        <member-function access='private'>
          <!-- void __gnu_cxx::new_allocator<vtkPixelExtent>::new_allocator(const __gnu_cxx::new_allocator<vtkPixelExtent>&) -->
          <function-decl name='new_allocator' filepath='/usr/lib/gcc/x86_64-redhat-linux/4.4.7/../../../../include/c++/4.4.7/ext/new_allocator.h' line='68' column='1' visibility='default' binding='global' size-in-bits='64'>
            <!-- implicit parameter of type '__gnu_cxx::new_allocator<vtkPixelExtent>*' -->
            <parameter type-id='type-id-121' is-artificial='yes'/>
            <!-- parameter of type 'const __gnu_cxx::new_allocator<vtkPixelExtent>&' -->
            <parameter type-id='type-id-129'/>
            <!-- void -->
            <return type-id='type-id-27'/>
          </function-decl>
        </member-function>
        <member-function access='private' destructor='yes'>
          <!-- __gnu_cxx::new_allocator<vtkPixelExtent>::~new_allocator(int) -->
          <function-decl name='~new_allocator' filepath='/usr/lib/gcc/x86_64-redhat-linux/4.4.7/../../../../include/c++/4.4.7/ext/new_allocator.h' line='73' column='1' visibility='default' binding='global' size-in-bits='64'>
            <!-- implicit parameter of type '__gnu_cxx::new_allocator<vtkPixelExtent>*' -->
            <parameter type-id='type-id-121' is-artificial='yes'/>
            <!-- artificial parameter of type 'int' -->
            <parameter type-id='type-id-17' is-artificial='yes'/>
            <!-- void -->
            <return type-id='type-id-27'/>
          </function-decl>
        </member-function>
        <member-function access='private'>
          <!-- vtkPixelExtent* __gnu_cxx::new_allocator<vtkPixelExtent>::allocate(size_t, void*) -->
          <function-decl name='allocate' mangled-name='_ZN9__gnu_cxx13new_allocatorI14vtkPixelExtentE8allocateEmPKv' filepath='/usr/lib/gcc/x86_64-redhat-linux/4.4.7/../../../../include/c++/4.4.7/ext/new_allocator.h' line='84' column='1' declared-inline='yes' visibility='default' binding='global' size-in-bits='64' elf-symbol-id='_ZN9__gnu_cxx13new_allocatorI14vtkPixelExtentE8allocateEmPKv'>
            <!-- implicit parameter of type '__gnu_cxx::new_allocator<vtkPixelExtent>* const' -->
            <parameter type-id='type-id-122' name='this' is-artificial='yes'/>
            <!-- parameter of type 'typedef size_t' -->
            <parameter type-id='type-id-38' name='__n' filepath='/usr/lib/gcc/x86_64-redhat-linux/4.4.7/../../../../include/c++/4.4.7/ext/new_allocator.h' line='84' column='1'/>
            <!-- parameter of type 'void*' -->
            <parameter type-id='type-id-14'/>
            <!-- vtkPixelExtent* -->
            <return type-id='type-id-49'/>
          </function-decl>
        </member-function>
      </class-decl>
      <!-- class __gnu_cxx::new_allocator<vtkPixelExtent*> -->
      <class-decl name='new_allocator&lt;vtkPixelExtent*&gt;' size-in-bits='8' visibility='default' filepath='/usr/lib/gcc/x86_64-redhat-linux/4.4.7/../../../../include/c++/4.4.7/ext/new_allocator.h' line='52' column='1' id='type-id-117'>
        <member-function access='private'>
          <!-- void __gnu_cxx::new_allocator<vtkPixelExtent*>::new_allocator() -->
          <function-decl name='new_allocator' filepath='/usr/lib/gcc/x86_64-redhat-linux/4.4.7/../../../../include/c++/4.4.7/ext/new_allocator.h' line='66' column='1' visibility='default' binding='global' size-in-bits='64'>
            <!-- implicit parameter of type '__gnu_cxx::new_allocator<vtkPixelExtent*>*' -->
            <parameter type-id='type-id-118' is-artificial='yes'/>
            <!-- void -->
            <return type-id='type-id-27'/>
          </function-decl>
        </member-function>
        <member-function access='private'>
          <!-- void __gnu_cxx::new_allocator<vtkPixelExtent*>::new_allocator(const __gnu_cxx::new_allocator<vtkPixelExtent*>&) -->
          <function-decl name='new_allocator' filepath='/usr/lib/gcc/x86_64-redhat-linux/4.4.7/../../../../include/c++/4.4.7/ext/new_allocator.h' line='68' column='1' visibility='default' binding='global' size-in-bits='64'>
            <!-- implicit parameter of type '__gnu_cxx::new_allocator<vtkPixelExtent*>*' -->
            <parameter type-id='type-id-118' is-artificial='yes'/>
            <!-- parameter of type 'const __gnu_cxx::new_allocator<vtkPixelExtent*>&' -->
            <parameter type-id='type-id-125'/>
            <!-- void -->
            <return type-id='type-id-27'/>
          </function-decl>
        </member-function>
        <member-function access='private' destructor='yes'>
          <!-- __gnu_cxx::new_allocator<vtkPixelExtent*>::~new_allocator(int) -->
          <function-decl name='~new_allocator' filepath='/usr/lib/gcc/x86_64-redhat-linux/4.4.7/../../../../include/c++/4.4.7/ext/new_allocator.h' line='73' column='1' visibility='default' binding='global' size-in-bits='64'>
            <!-- implicit parameter of type '__gnu_cxx::new_allocator<vtkPixelExtent*>*' -->
            <parameter type-id='type-id-118' is-artificial='yes'/>
            <!-- artificial parameter of type 'int' -->
            <parameter type-id='type-id-17' is-artificial='yes'/>
            <!-- void -->
            <return type-id='type-id-27'/>
          </function-decl>
        </member-function>
      </class-decl>
    </namespace-decl>
    <!-- wint_t btowc(int) -->
    <function-decl name='btowc' filepath='/usr/include/wchar.h' line='386' column='1' visibility='default' binding='global' size-in-bits='64'>
      <!-- parameter of type 'int' -->
      <parameter type-id='type-id-17'/>
      <!-- typedef wint_t -->
      <return type-id='type-id-80'/>
    </function-decl>
    <!-- wint_t fgetwc(__FILE*) -->
    <function-decl name='fgetwc' filepath='/usr/include/wchar.h' line='743' column='1' visibility='default' binding='global' size-in-bits='64'>
      <!-- parameter of type '__FILE*' -->
      <parameter type-id='type-id-116'/>
      <!-- typedef wint_t -->
      <return type-id='type-id-80'/>
    </function-decl>
    <!-- wchar_t* fgetws(wchar_t*, int, __FILE*) -->
    <function-decl name='fgetws' filepath='/usr/include/wchar.h' line='772' column='1' visibility='default' binding='global' size-in-bits='64'>
      <!-- parameter of type 'wchar_t*' -->
      <parameter type-id='type-id-286'/>
      <!-- parameter of type 'int' -->
      <parameter type-id='type-id-17'/>
      <!-- parameter of type '__FILE*' -->
      <parameter type-id='type-id-116'/>
      <!-- wchar_t* -->
      <return type-id='type-id-286'/>
    </function-decl>
    <!-- wint_t fputwc(wchar_t, __FILE*) -->
    <function-decl name='fputwc' filepath='/usr/include/wchar.h' line='757' column='1' visibility='default' binding='global' size-in-bits='64'>
      <!-- parameter of type 'wchar_t' -->
      <parameter type-id='type-id-28'/>
      <!-- parameter of type '__FILE*' -->
      <parameter type-id='type-id-116'/>
      <!-- typedef wint_t -->
      <return type-id='type-id-80'/>
    </function-decl>
    <!-- int fputws(const wchar_t*, __FILE*) -->
    <function-decl name='fputws' filepath='/usr/include/wchar.h' line='779' column='1' visibility='default' binding='global' size-in-bits='64'>
      <!-- parameter of type 'const wchar_t*' -->
      <parameter type-id='type-id-201'/>
      <!-- parameter of type '__FILE*' -->
      <parameter type-id='type-id-116'/>
      <!-- int -->
      <return type-id='type-id-17'/>
    </function-decl>
    <!-- int fwide(__FILE*, int) -->
    <function-decl name='fwide' filepath='/usr/include/wchar.h' line='585' column='1' visibility='default' binding='global' size-in-bits='64'>
      <!-- parameter of type '__FILE*' -->
      <parameter type-id='type-id-116'/>
      <!-- parameter of type 'int' -->
      <parameter type-id='type-id-17'/>
      <!-- int -->
      <return type-id='type-id-17'/>
    </function-decl>
    <!-- int fwprintf(__FILE*, const wchar_t*, ...) -->
    <function-decl name='fwprintf' filepath='/usr/include/wchar.h' line='592' column='1' visibility='default' binding='global' size-in-bits='64'>
      <!-- parameter of type '__FILE*' -->
      <parameter type-id='type-id-116'/>
      <!-- parameter of type 'const wchar_t*' -->
      <parameter type-id='type-id-201'/>
      <parameter is-variadic='yes'/>
      <!-- int -->
      <return type-id='type-id-17'/>
    </function-decl>
    <!-- int fwscanf(__FILE*, const wchar_t*, ...) -->
    <function-decl name='fwscanf' filepath='/usr/include/wchar.h' line='633' column='1' visibility='default' binding='global' size-in-bits='64'>
      <!-- parameter of type '__FILE*' -->
      <parameter type-id='type-id-116'/>
      <!-- parameter of type 'const wchar_t*' -->
      <parameter type-id='type-id-201'/>
      <parameter is-variadic='yes'/>
      <!-- int -->
      <return type-id='type-id-17'/>
    </function-decl>
    <!-- wint_t getwc(__FILE*) -->
    <function-decl name='getwc' filepath='/usr/include/wchar.h' line='744' column='1' visibility='default' binding='global' size-in-bits='64'>
      <!-- parameter of type '__FILE*' -->
      <parameter type-id='type-id-116'/>
      <!-- typedef wint_t -->
      <return type-id='type-id-80'/>
    </function-decl>
    <!-- wint_t getwchar() -->
    <function-decl name='getwchar' filepath='/usr/include/wchar.h' line='750' column='1' visibility='default' binding='global' size-in-bits='64'>
      <!-- typedef wint_t -->
      <return type-id='type-id-80'/>
    </function-decl>
    <!-- size_t mbrlen(const char*, size_t, mbstate_t*) -->
    <function-decl name='mbrlen' filepath='/usr/include/wchar.h' line='397' column='1' visibility='default' binding='global' size-in-bits='64'>
      <!-- parameter of type 'const char*' -->
      <parameter type-id='type-id-68'/>
      <!-- parameter of type 'typedef size_t' -->
      <parameter type-id='type-id-38'/>
      <!-- parameter of type 'mbstate_t*' -->
      <parameter type-id='type-id-207'/>
      <!-- typedef size_t -->
      <return type-id='type-id-38'/>
    </function-decl>
    <!-- size_t mbrtowc(wchar_t*, const char*, size_t, mbstate_t*) -->
    <function-decl name='mbrtowc' filepath='/usr/include/wchar.h' line='363' column='1' visibility='default' binding='global' size-in-bits='64'>
      <!-- parameter of type 'wchar_t*' -->
      <parameter type-id='type-id-286'/>
      <!-- parameter of type 'const char*' -->
      <parameter type-id='type-id-68'/>
      <!-- parameter of type 'typedef size_t' -->
      <parameter type-id='type-id-38'/>
      <!-- parameter of type 'mbstate_t*' -->
      <parameter type-id='type-id-207'/>
      <!-- typedef size_t -->
      <return type-id='type-id-38'/>
    </function-decl>
    <!-- int mbsinit(const mbstate_t*) -->
    <function-decl name='mbsinit' filepath='/usr/include/wchar.h' line='359' column='1' visibility='default' binding='global' size-in-bits='64'>
      <!-- parameter of type 'const mbstate_t*' -->
      <parameter type-id='type-id-140'/>
      <!-- int -->
      <return type-id='type-id-17'/>
    </function-decl>
    <!-- size_t mbsrtowcs(wchar_t*, const char**, size_t, mbstate_t*) -->
    <function-decl name='mbsrtowcs' filepath='/usr/include/wchar.h' line='406' column='1' visibility='default' binding='global' size-in-bits='64'>
      <!-- parameter of type 'wchar_t*' -->
      <parameter type-id='type-id-286'/>
      <!-- parameter of type 'const char**' -->
      <parameter type-id='type-id-134'/>
      <!-- parameter of type 'typedef size_t' -->
      <parameter type-id='type-id-38'/>
      <!-- parameter of type 'mbstate_t*' -->
      <parameter type-id='type-id-207'/>
      <!-- typedef size_t -->
      <return type-id='type-id-38'/>
    </function-decl>
    <!-- wint_t putwc(wchar_t, __FILE*) -->
    <function-decl name='putwc' filepath='/usr/include/wchar.h' line='758' column='1' visibility='default' binding='global' size-in-bits='64'>
      <!-- parameter of type 'wchar_t' -->
      <parameter type-id='type-id-28'/>
      <!-- parameter of type '__FILE*' -->
      <parameter type-id='type-id-116'/>
      <!-- typedef wint_t -->
      <return type-id='type-id-80'/>
    </function-decl>
    <!-- wint_t putwchar(wchar_t) -->
    <function-decl name='putwchar' filepath='/usr/include/wchar.h' line='764' column='1' visibility='default' binding='global' size-in-bits='64'>
      <!-- parameter of type 'wchar_t' -->
      <parameter type-id='type-id-28'/>
      <!-- typedef wint_t -->
      <return type-id='type-id-80'/>
    </function-decl>
    <!-- int swprintf(wchar_t*, size_t, const wchar_t*, ...) -->
    <function-decl name='swprintf' filepath='/usr/include/wchar.h' line='602' column='1' visibility='default' binding='global' size-in-bits='64'>
      <!-- parameter of type 'wchar_t*' -->
      <parameter type-id='type-id-286'/>
      <!-- parameter of type 'typedef size_t' -->
      <parameter type-id='type-id-38'/>
      <!-- parameter of type 'const wchar_t*' -->
      <parameter type-id='type-id-201'/>
      <parameter is-variadic='yes'/>
      <!-- int -->
      <return type-id='type-id-17'/>
    </function-decl>
    <!-- int swscanf(const wchar_t*, const wchar_t*, ...) -->
    <function-decl name='swscanf' filepath='/usr/include/wchar.h' line='643' column='1' visibility='default' binding='global' size-in-bits='64'>
      <!-- parameter of type 'const wchar_t*' -->
      <parameter type-id='type-id-201'/>
      <!-- parameter of type 'const wchar_t*' -->
      <parameter type-id='type-id-201'/>
      <parameter is-variadic='yes'/>
      <!-- int -->
      <return type-id='type-id-17'/>
    </function-decl>
    <!-- wint_t ungetwc(wint_t, __FILE*) -->
    <function-decl name='ungetwc' filepath='/usr/include/wchar.h' line='787' column='1' visibility='default' binding='global' size-in-bits='64'>
      <!-- parameter of type 'typedef wint_t' -->
      <parameter type-id='type-id-80'/>
      <!-- parameter of type '__FILE*' -->
      <parameter type-id='type-id-116'/>
      <!-- typedef wint_t -->
      <return type-id='type-id-80'/>
    </function-decl>
    <!-- int vfwprintf(__FILE*, const wchar_t*, typedef __va_list_tag __va_list_tag*) -->
    <function-decl name='vfwprintf' filepath='/usr/include/wchar.h' line='610' column='1' visibility='default' binding='global' size-in-bits='64'>
      <!-- parameter of type '__FILE*' -->
      <parameter type-id='type-id-116'/>
      <!-- parameter of type 'const wchar_t*' -->
      <parameter type-id='type-id-201'/>
      <!-- parameter of type 'typedef __va_list_tag __va_list_tag*' -->
      <parameter type-id='type-id-239'/>
      <!-- int -->
      <return type-id='type-id-17'/>
    </function-decl>
    <!-- int vfwscanf(__FILE*, const wchar_t*, typedef __va_list_tag __va_list_tag*) -->
    <function-decl name='vfwscanf' filepath='/usr/include/wchar.h' line='687' column='1' visibility='default' binding='global' size-in-bits='64'>
      <!-- parameter of type '__FILE*' -->
      <parameter type-id='type-id-116'/>
      <!-- parameter of type 'const wchar_t*' -->
      <parameter type-id='type-id-201'/>
      <!-- parameter of type 'typedef __va_list_tag __va_list_tag*' -->
      <parameter type-id='type-id-239'/>
      <!-- int -->
      <return type-id='type-id-17'/>
    </function-decl>
    <!-- int vswprintf(wchar_t*, size_t, const wchar_t*, typedef __va_list_tag __va_list_tag*) -->
    <function-decl name='vswprintf' filepath='/usr/include/wchar.h' line='623' column='1' visibility='default' binding='global' size-in-bits='64'>
      <!-- parameter of type 'wchar_t*' -->
      <parameter type-id='type-id-286'/>
      <!-- parameter of type 'typedef size_t' -->
      <parameter type-id='type-id-38'/>
      <!-- parameter of type 'const wchar_t*' -->
      <parameter type-id='type-id-201'/>
      <!-- parameter of type 'typedef __va_list_tag __va_list_tag*' -->
      <parameter type-id='type-id-239'/>
      <!-- int -->
      <return type-id='type-id-17'/>
    </function-decl>
    <!-- int vswscanf(const wchar_t*, const wchar_t*, typedef __va_list_tag __va_list_tag*) -->
    <function-decl name='vswscanf' filepath='/usr/include/wchar.h' line='699' column='1' visibility='default' binding='global' size-in-bits='64'>
      <!-- parameter of type 'const wchar_t*' -->
      <parameter type-id='type-id-201'/>
      <!-- parameter of type 'const wchar_t*' -->
      <parameter type-id='type-id-201'/>
      <!-- parameter of type 'typedef __va_list_tag __va_list_tag*' -->
      <parameter type-id='type-id-239'/>
      <!-- int -->
      <return type-id='type-id-17'/>
    </function-decl>
    <!-- int vwprintf(const wchar_t*, typedef __va_list_tag __va_list_tag*) -->
    <function-decl name='vwprintf' filepath='/usr/include/wchar.h' line='618' column='1' visibility='default' binding='global' size-in-bits='64'>
      <!-- parameter of type 'const wchar_t*' -->
      <parameter type-id='type-id-201'/>
      <!-- parameter of type 'typedef __va_list_tag __va_list_tag*' -->
      <parameter type-id='type-id-239'/>
      <!-- int -->
      <return type-id='type-id-17'/>
    </function-decl>
    <!-- int vwscanf(const wchar_t*, typedef __va_list_tag __va_list_tag*) -->
    <function-decl name='vwscanf' filepath='/usr/include/wchar.h' line='695' column='1' visibility='default' binding='global' size-in-bits='64'>
      <!-- parameter of type 'const wchar_t*' -->
      <parameter type-id='type-id-201'/>
      <!-- parameter of type 'typedef __va_list_tag __va_list_tag*' -->
      <parameter type-id='type-id-239'/>
      <!-- int -->
      <return type-id='type-id-17'/>
    </function-decl>
    <!-- size_t wcrtomb(char*, wchar_t, mbstate_t*) -->
    <function-decl name='wcrtomb' filepath='/usr/include/wchar.h' line='368' column='1' visibility='default' binding='global' size-in-bits='64'>
      <!-- parameter of type 'char*' -->
      <parameter type-id='type-id-32'/>
      <!-- parameter of type 'wchar_t' -->
      <parameter type-id='type-id-28'/>
      <!-- parameter of type 'mbstate_t*' -->
      <parameter type-id='type-id-207'/>
      <!-- typedef size_t -->
      <return type-id='type-id-38'/>
    </function-decl>
    <!-- wchar_t* wcscat(wchar_t*, const wchar_t*) -->
    <function-decl name='wcscat' filepath='/usr/include/wchar.h' line='152' column='1' visibility='default' binding='global' size-in-bits='64'>
      <!-- parameter of type 'wchar_t*' -->
      <parameter type-id='type-id-286'/>
      <!-- parameter of type 'const wchar_t*' -->
      <parameter type-id='type-id-201'/>
      <!-- wchar_t* -->
      <return type-id='type-id-286'/>
    </function-decl>
    <!-- int wcscmp(const wchar_t*, const wchar_t*) -->
    <function-decl name='wcscmp' filepath='/usr/include/wchar.h' line='160' column='1' visibility='default' binding='global' size-in-bits='64'>
      <!-- parameter of type 'const wchar_t*' -->
      <parameter type-id='type-id-201'/>
      <!-- parameter of type 'const wchar_t*' -->
      <parameter type-id='type-id-201'/>
      <!-- int -->
      <return type-id='type-id-17'/>
    </function-decl>
    <!-- int wcscoll(const wchar_t*, const wchar_t*) -->
    <function-decl name='wcscoll' filepath='/usr/include/wchar.h' line='189' column='1' visibility='default' binding='global' size-in-bits='64'>
      <!-- parameter of type 'const wchar_t*' -->
      <parameter type-id='type-id-201'/>
      <!-- parameter of type 'const wchar_t*' -->
      <parameter type-id='type-id-201'/>
      <!-- int -->
      <return type-id='type-id-17'/>
    </function-decl>
    <!-- wchar_t* wcscpy(wchar_t*, const wchar_t*) -->
    <function-decl name='wcscpy' filepath='/usr/include/wchar.h' line='144' column='1' visibility='default' binding='global' size-in-bits='64'>
      <!-- parameter of type 'wchar_t*' -->
      <parameter type-id='type-id-286'/>
      <!-- parameter of type 'const wchar_t*' -->
      <parameter type-id='type-id-201'/>
      <!-- wchar_t* -->
      <return type-id='type-id-286'/>
    </function-decl>
    <!-- size_t wcscspn(const wchar_t*, const wchar_t*) -->
    <function-decl name='wcscspn' filepath='/usr/include/wchar.h' line='249' column='1' visibility='default' binding='global' size-in-bits='64'>
      <!-- parameter of type 'const wchar_t*' -->
      <parameter type-id='type-id-201'/>
      <!-- parameter of type 'const wchar_t*' -->
      <parameter type-id='type-id-201'/>
      <!-- typedef size_t -->
      <return type-id='type-id-38'/>
    </function-decl>
    <!-- size_t wcsftime(wchar_t*, size_t, const wchar_t*, const tm*) -->
    <function-decl name='wcsftime' filepath='/usr/include/wchar.h' line='853' column='1' visibility='default' binding='global' size-in-bits='64'>
      <!-- parameter of type 'wchar_t*' -->
      <parameter type-id='type-id-286'/>
      <!-- parameter of type 'typedef size_t' -->
      <parameter type-id='type-id-38'/>
      <!-- parameter of type 'const wchar_t*' -->
      <parameter type-id='type-id-201'/>
      <!-- parameter of type 'const tm*' -->
      <parameter type-id='type-id-185'/>
      <!-- typedef size_t -->
      <return type-id='type-id-38'/>
    </function-decl>
    <!-- size_t wcslen(const wchar_t*) -->
    <function-decl name='wcslen' filepath='/usr/include/wchar.h' line='284' column='1' visibility='default' binding='global' size-in-bits='64'>
      <!-- parameter of type 'const wchar_t*' -->
      <parameter type-id='type-id-201'/>
      <!-- typedef size_t -->
      <return type-id='type-id-38'/>
    </function-decl>
    <!-- wchar_t* wcsncat(wchar_t*, const wchar_t*, size_t) -->
    <function-decl name='wcsncat' filepath='/usr/include/wchar.h' line='155' column='1' visibility='default' binding='global' size-in-bits='64'>
      <!-- parameter of type 'wchar_t*' -->
      <parameter type-id='type-id-286'/>
      <!-- parameter of type 'const wchar_t*' -->
      <parameter type-id='type-id-201'/>
      <!-- parameter of type 'typedef size_t' -->
      <parameter type-id='type-id-38'/>
      <!-- wchar_t* -->
      <return type-id='type-id-286'/>
    </function-decl>
    <!-- int wcsncmp(const wchar_t*, const wchar_t*, size_t) -->
    <function-decl name='wcsncmp' filepath='/usr/include/wchar.h' line='163' column='1' visibility='default' binding='global' size-in-bits='64'>
      <!-- parameter of type 'const wchar_t*' -->
      <parameter type-id='type-id-201'/>
      <!-- parameter of type 'const wchar_t*' -->
      <parameter type-id='type-id-201'/>
      <!-- parameter of type 'typedef size_t' -->
      <parameter type-id='type-id-38'/>
      <!-- int -->
      <return type-id='type-id-17'/>
    </function-decl>
    <!-- wchar_t* wcsncpy(wchar_t*, const wchar_t*, size_t) -->
    <function-decl name='wcsncpy' filepath='/usr/include/wchar.h' line='147' column='1' visibility='default' binding='global' size-in-bits='64'>
      <!-- parameter of type 'wchar_t*' -->
      <parameter type-id='type-id-286'/>
      <!-- parameter of type 'const wchar_t*' -->
      <parameter type-id='type-id-201'/>
      <!-- parameter of type 'typedef size_t' -->
      <parameter type-id='type-id-38'/>
      <!-- wchar_t* -->
      <return type-id='type-id-286'/>
    </function-decl>
    <!-- size_t wcsrtombs(char*, const wchar_t**, size_t, mbstate_t*) -->
    <function-decl name='wcsrtombs' filepath='/usr/include/wchar.h' line='412' column='1' visibility='default' binding='global' size-in-bits='64'>
      <!-- parameter of type 'char*' -->
      <parameter type-id='type-id-32'/>
      <!-- parameter of type 'const wchar_t**' -->
      <parameter type-id='type-id-202'/>
      <!-- parameter of type 'typedef size_t' -->
      <parameter type-id='type-id-38'/>
      <!-- parameter of type 'mbstate_t*' -->
      <parameter type-id='type-id-207'/>
      <!-- typedef size_t -->
      <return type-id='type-id-38'/>
    </function-decl>
    <!-- size_t wcsspn(const wchar_t*, const wchar_t*) -->
    <function-decl name='wcsspn' filepath='/usr/include/wchar.h' line='253' column='1' visibility='default' binding='global' size-in-bits='64'>
      <!-- parameter of type 'const wchar_t*' -->
      <parameter type-id='type-id-201'/>
      <!-- parameter of type 'const wchar_t*' -->
      <parameter type-id='type-id-201'/>
      <!-- typedef size_t -->
      <return type-id='type-id-38'/>
    </function-decl>
    <!-- double wcstod(const wchar_t*, wchar_t**) -->
    <function-decl name='wcstod' filepath='/usr/include/wchar.h' line='448' column='1' visibility='default' binding='global' size-in-bits='64'>
      <!-- parameter of type 'const wchar_t*' -->
      <parameter type-id='type-id-201'/>
      <!-- parameter of type 'wchar_t**' -->
      <parameter type-id='type-id-287'/>
      <!-- double -->
      <return type-id='type-id-15'/>
    </function-decl>
    <!-- float wcstof(const wchar_t*, wchar_t**) -->
    <function-decl name='wcstof' filepath='/usr/include/wchar.h' line='455' column='1' visibility='default' binding='global' size-in-bits='64'>
      <!-- parameter of type 'const wchar_t*' -->
      <parameter type-id='type-id-201'/>
      <!-- parameter of type 'wchar_t**' -->
      <parameter type-id='type-id-287'/>
      <!-- float -->
      <return type-id='type-id-16'/>
    </function-decl>
    <!-- wchar_t* wcstok(wchar_t*, const wchar_t*, wchar_t**) -->
    <function-decl name='wcstok' filepath='/usr/include/wchar.h' line='279' column='1' visibility='default' binding='global' size-in-bits='64'>
      <!-- parameter of type 'wchar_t*' -->
      <parameter type-id='type-id-286'/>
      <!-- parameter of type 'const wchar_t*' -->
      <parameter type-id='type-id-201'/>
      <!-- parameter of type 'wchar_t**' -->
      <parameter type-id='type-id-287'/>
      <!-- wchar_t* -->
      <return type-id='type-id-286'/>
    </function-decl>
    <!-- long int wcstol(const wchar_t*, wchar_t**, int) -->
    <function-decl name='wcstol' filepath='/usr/include/wchar.h' line='466' column='1' visibility='default' binding='global' size-in-bits='64'>
      <!-- parameter of type 'const wchar_t*' -->
      <parameter type-id='type-id-201'/>
      <!-- parameter of type 'wchar_t**' -->
      <parameter type-id='type-id-287'/>
      <!-- parameter of type 'int' -->
      <parameter type-id='type-id-17'/>
      <!-- long int -->
      <return type-id='type-id-20'/>
    </function-decl>
    <!-- unsigned long int wcstoul(const wchar_t*, wchar_t**, int) -->
    <function-decl name='wcstoul' filepath='/usr/include/wchar.h' line='471' column='1' visibility='default' binding='global' size-in-bits='64'>
      <!-- parameter of type 'const wchar_t*' -->
      <parameter type-id='type-id-201'/>
      <!-- parameter of type 'wchar_t**' -->
      <parameter type-id='type-id-287'/>
      <!-- parameter of type 'int' -->
      <parameter type-id='type-id-17'/>
      <!-- unsigned long int -->
      <return type-id='type-id-4'/>
    </function-decl>
    <!-- size_t wcsxfrm(wchar_t*, const wchar_t*, size_t) -->
    <function-decl name='wcsxfrm' filepath='/usr/include/wchar.h' line='193' column='1' visibility='default' binding='global' size-in-bits='64'>
      <!-- parameter of type 'wchar_t*' -->
      <parameter type-id='type-id-286'/>
      <!-- parameter of type 'const wchar_t*' -->
      <parameter type-id='type-id-201'/>
      <!-- parameter of type 'typedef size_t' -->
      <parameter type-id='type-id-38'/>
      <!-- typedef size_t -->
      <return type-id='type-id-38'/>
    </function-decl>
    <!-- int wctob(wint_t) -->
    <function-decl name='wctob' filepath='/usr/include/wchar.h' line='392' column='1' visibility='default' binding='global' size-in-bits='64'>
      <!-- parameter of type 'typedef wint_t' -->
      <parameter type-id='type-id-80'/>
      <!-- int -->
      <return type-id='type-id-17'/>
    </function-decl>
    <!-- int wmemcmp(const wchar_t*, const wchar_t*, size_t) -->
    <function-decl name='wmemcmp' filepath='/usr/include/wchar.h' line='322' column='1' visibility='default' binding='global' size-in-bits='64'>
      <!-- parameter of type 'const wchar_t*' -->
      <parameter type-id='type-id-201'/>
      <!-- parameter of type 'const wchar_t*' -->
      <parameter type-id='type-id-201'/>
      <!-- parameter of type 'typedef size_t' -->
      <parameter type-id='type-id-38'/>
      <!-- int -->
      <return type-id='type-id-17'/>
    </function-decl>
    <!-- wchar_t* wmemcpy(wchar_t*, const wchar_t*, size_t) -->
    <function-decl name='wmemcpy' filepath='/usr/include/wchar.h' line='327' column='1' visibility='default' binding='global' size-in-bits='64'>
      <!-- parameter of type 'wchar_t*' -->
      <parameter type-id='type-id-286'/>
      <!-- parameter of type 'const wchar_t*' -->
      <parameter type-id='type-id-201'/>
      <!-- parameter of type 'typedef size_t' -->
      <parameter type-id='type-id-38'/>
      <!-- wchar_t* -->
      <return type-id='type-id-286'/>
    </function-decl>
    <!-- wchar_t* wmemmove(wchar_t*, const wchar_t*, size_t) -->
    <function-decl name='wmemmove' filepath='/usr/include/wchar.h' line='332' column='1' visibility='default' binding='global' size-in-bits='64'>
      <!-- parameter of type 'wchar_t*' -->
      <parameter type-id='type-id-286'/>
      <!-- parameter of type 'const wchar_t*' -->
      <parameter type-id='type-id-201'/>
      <!-- parameter of type 'typedef size_t' -->
      <parameter type-id='type-id-38'/>
      <!-- wchar_t* -->
      <return type-id='type-id-286'/>
    </function-decl>
    <!-- wchar_t* wmemset(wchar_t*, wchar_t, size_t) -->
    <function-decl name='wmemset' filepath='/usr/include/wchar.h' line='336' column='1' visibility='default' binding='global' size-in-bits='64'>
      <!-- parameter of type 'wchar_t*' -->
      <parameter type-id='type-id-286'/>
      <!-- parameter of type 'wchar_t' -->
      <parameter type-id='type-id-28'/>
      <!-- parameter of type 'typedef size_t' -->
      <parameter type-id='type-id-38'/>
      <!-- wchar_t* -->
      <return type-id='type-id-286'/>
    </function-decl>
    <!-- int wprintf(const wchar_t*, ...) -->
    <function-decl name='wprintf' filepath='/usr/include/wchar.h' line='599' column='1' visibility='default' binding='global' size-in-bits='64'>
      <!-- parameter of type 'const wchar_t*' -->
      <parameter type-id='type-id-201'/>
      <parameter is-variadic='yes'/>
      <!-- int -->
      <return type-id='type-id-17'/>
    </function-decl>
    <!-- int wscanf(const wchar_t*, ...) -->
    <function-decl name='wscanf' filepath='/usr/include/wchar.h' line='640' column='1' visibility='default' binding='global' size-in-bits='64'>
      <!-- parameter of type 'const wchar_t*' -->
      <parameter type-id='type-id-201'/>
      <parameter is-variadic='yes'/>
      <!-- int -->
      <return type-id='type-id-17'/>
    </function-decl>
    <!-- long double wcstold(const wchar_t*, wchar_t**) -->
    <function-decl name='wcstold' filepath='/usr/include/wchar.h' line='457' column='1' visibility='default' binding='global' size-in-bits='64'>
      <!-- parameter of type 'const wchar_t*' -->
      <parameter type-id='type-id-201'/>
      <!-- parameter of type 'wchar_t**' -->
      <parameter type-id='type-id-287'/>
      <!-- long double -->
      <return type-id='type-id-19'/>
    </function-decl>
    <!-- long long int wcstoll(const wchar_t*, wchar_t**, int) -->
    <function-decl name='wcstoll' filepath='/usr/include/wchar.h' line='481' column='1' visibility='default' binding='global' size-in-bits='64'>
      <!-- parameter of type 'const wchar_t*' -->
      <parameter type-id='type-id-201'/>
      <!-- parameter of type 'wchar_t**' -->
      <parameter type-id='type-id-287'/>
      <!-- parameter of type 'int' -->
      <parameter type-id='type-id-17'/>
      <!-- long long int -->
      <return type-id='type-id-21'/>
    </function-decl>
    <!-- long long unsigned int wcstoull(const wchar_t*, wchar_t**, int) -->
    <function-decl name='wcstoull' filepath='/usr/include/wchar.h' line='488' column='1' visibility='default' binding='global' size-in-bits='64'>
      <!-- parameter of type 'const wchar_t*' -->
      <parameter type-id='type-id-201'/>
      <!-- parameter of type 'wchar_t**' -->
      <parameter type-id='type-id-287'/>
      <!-- parameter of type 'int' -->
      <parameter type-id='type-id-17'/>
      <!-- long long unsigned int -->
      <return type-id='type-id-22'/>
    </function-decl>
    <!-- char* setlocale(int, const char*) -->
    <function-decl name='setlocale' filepath='/usr/include/locale.h' line='125' column='1' visibility='default' binding='global' size-in-bits='64'>
      <!-- parameter of type 'int' -->
      <parameter type-id='type-id-17'/>
      <!-- parameter of type 'const char*' -->
      <parameter type-id='type-id-68'/>
      <!-- char* -->
      <return type-id='type-id-32'/>
    </function-decl>
    <!-- lconv* localeconv() -->
    <function-decl name='localeconv' filepath='/usr/include/locale.h' line='128' column='1' visibility='default' binding='global' size-in-bits='64'>
      <!-- lconv* -->
      <return type-id='type-id-206'/>
    </function-decl>
    <!-- int iswctype(wint_t, wctype_t) -->
    <function-decl name='iswctype' filepath='/usr/include/wctype.h' line='176' column='1' visibility='default' binding='global' size-in-bits='64'>
      <!-- parameter of type 'typedef wint_t' -->
      <parameter type-id='type-id-80'/>
      <!-- parameter of type 'typedef wctype_t' -->
      <parameter type-id='type-id-87'/>
      <!-- int -->
      <return type-id='type-id-17'/>
    </function-decl>
    <!-- wint_t towctrans(wint_t, wctrans_t) -->
    <function-decl name='towctrans' filepath='/usr/include/wctype.h' line='222' column='1' visibility='default' binding='global' size-in-bits='64'>
      <!-- parameter of type 'typedef wint_t' -->
      <parameter type-id='type-id-80'/>
      <!-- parameter of type 'typedef wctrans_t' -->
      <parameter type-id='type-id-89'/>
      <!-- typedef wint_t -->
      <return type-id='type-id-80'/>
    </function-decl>
    <!-- wctrans_t wctrans(const char*) -->
    <function-decl name='wctrans' filepath='/usr/include/wctype.h' line='219' column='1' visibility='default' binding='global' size-in-bits='64'>
      <!-- parameter of type 'const char*' -->
      <parameter type-id='type-id-68'/>
      <!-- typedef wctrans_t -->
      <return type-id='type-id-89'/>
    </function-decl>
    <!-- wctype_t wctype(const char*) -->
    <function-decl name='wctype' filepath='/usr/include/wctype.h' line='172' column='1' visibility='default' binding='global' size-in-bits='64'>
      <!-- parameter of type 'const char*' -->
      <parameter type-id='type-id-68'/>
      <!-- typedef wctype_t -->
      <return type-id='type-id-87'/>
    </function-decl>
    <!-- void clearerr(FILE*) -->
    <function-decl name='clearerr' filepath='/usr/include/stdio.h' line='821' column='1' visibility='default' binding='global' size-in-bits='64'>
      <!-- parameter of type 'FILE*' -->
      <parameter type-id='type-id-115'/>
      <!-- void -->
      <return type-id='type-id-27'/>
    </function-decl>
    <!-- int fclose(FILE*) -->
    <function-decl name='fclose' filepath='/usr/include/stdio.h' line='236' column='1' visibility='default' binding='global' size-in-bits='64'>
      <!-- parameter of type 'FILE*' -->
      <parameter type-id='type-id-115'/>
      <!-- int -->
      <return type-id='type-id-17'/>
    </function-decl>
    <!-- int feof(FILE*) -->
    <function-decl name='feof' filepath='/usr/include/stdio.h' line='823' column='1' visibility='default' binding='global' size-in-bits='64'>
      <!-- parameter of type 'FILE*' -->
      <parameter type-id='type-id-115'/>
      <!-- int -->
      <return type-id='type-id-17'/>
    </function-decl>
    <!-- int ferror(FILE*) -->
    <function-decl name='ferror' filepath='/usr/include/stdio.h' line='825' column='1' visibility='default' binding='global' size-in-bits='64'>
      <!-- parameter of type 'FILE*' -->
      <parameter type-id='type-id-115'/>
      <!-- int -->
      <return type-id='type-id-17'/>
    </function-decl>
    <!-- int fflush(FILE*) -->
    <function-decl name='fflush' filepath='/usr/include/stdio.h' line='241' column='1' visibility='default' binding='global' size-in-bits='64'>
      <!-- parameter of type 'FILE*' -->
      <parameter type-id='type-id-115'/>
      <!-- int -->
      <return type-id='type-id-17'/>
    </function-decl>
    <!-- int fgetc(FILE*) -->
    <function-decl name='fgetc' filepath='/usr/include/stdio.h' line='535' column='1' visibility='default' binding='global' size-in-bits='64'>
      <!-- parameter of type 'FILE*' -->
      <parameter type-id='type-id-115'/>
      <!-- int -->
      <return type-id='type-id-17'/>
    </function-decl>
    <!-- char* fgets(char*, int, FILE*) -->
    <function-decl name='fgets' filepath='/usr/include/stdio.h' line='626' column='1' visibility='default' binding='global' size-in-bits='64'>
      <!-- parameter of type 'char*' -->
      <parameter type-id='type-id-32'/>
      <!-- parameter of type 'int' -->
      <parameter type-id='type-id-17'/>
      <!-- parameter of type 'FILE*' -->
      <parameter type-id='type-id-115'/>
      <!-- char* -->
      <return type-id='type-id-32'/>
    </function-decl>
    <!-- size_t fread(void*, size_t, size_t, FILE*) -->
    <function-decl name='fread' filepath='/usr/include/stdio.h' line='704' column='1' visibility='default' binding='global' size-in-bits='64'>
      <!-- parameter of type 'void*' -->
      <parameter type-id='type-id-14'/>
      <!-- parameter of type 'typedef size_t' -->
      <parameter type-id='type-id-38'/>
      <!-- parameter of type 'typedef size_t' -->
      <parameter type-id='type-id-38'/>
      <!-- parameter of type 'FILE*' -->
      <parameter type-id='type-id-115'/>
      <!-- typedef size_t -->
      <return type-id='type-id-38'/>
    </function-decl>
    <!-- int fseek(FILE*, long int, int) -->
    <function-decl name='fseek' filepath='/usr/include/stdio.h' line='744' column='1' visibility='default' binding='global' size-in-bits='64'>
      <!-- parameter of type 'FILE*' -->
      <parameter type-id='type-id-115'/>
      <!-- parameter of type 'long int' -->
      <parameter type-id='type-id-20'/>
      <!-- parameter of type 'int' -->
      <parameter type-id='type-id-17'/>
      <!-- int -->
      <return type-id='type-id-17'/>
    </function-decl>
    <!-- long int ftell(FILE*) -->
    <function-decl name='ftell' filepath='/usr/include/stdio.h' line='749' column='1' visibility='default' binding='global' size-in-bits='64'>
      <!-- parameter of type 'FILE*' -->
      <parameter type-id='type-id-115'/>
      <!-- long int -->
      <return type-id='type-id-20'/>
    </function-decl>
    <!-- int getc(FILE*) -->
    <function-decl name='getc' filepath='/usr/include/stdio.h' line='536' column='1' visibility='default' binding='global' size-in-bits='64'>
      <!-- parameter of type 'FILE*' -->
      <parameter type-id='type-id-115'/>
      <!-- int -->
      <return type-id='type-id-17'/>
    </function-decl>
    <!-- int getchar() -->
    <function-decl name='getchar' filepath='/usr/include/bits/stdio.h' line='45' column='1' visibility='default' binding='global' size-in-bits='64'>
      <!-- int -->
      <return type-id='type-id-17'/>
    </function-decl>
    <!-- char* gets(char*) -->
    <function-decl name='gets' filepath='/usr/include/stdio.h' line='634' column='1' visibility='default' binding='global' size-in-bits='64'>
      <!-- parameter of type 'char*' -->
      <parameter type-id='type-id-32'/>
      <!-- char* -->
      <return type-id='type-id-32'/>
    </function-decl>
    <!-- void perror(const char*) -->
    <function-decl name='perror' filepath='/usr/include/stdio.h' line='841' column='1' visibility='default' binding='global' size-in-bits='64'>
      <!-- parameter of type 'const char*' -->
      <parameter type-id='type-id-68'/>
      <!-- void -->
      <return type-id='type-id-27'/>
    </function-decl>
    <!-- int remove(const char*) -->
    <function-decl name='remove' filepath='/usr/include/stdio.h' line='177' column='1' visibility='default' binding='global' size-in-bits='64'>
      <!-- parameter of type 'const char*' -->
      <parameter type-id='type-id-68'/>
      <!-- int -->
      <return type-id='type-id-17'/>
    </function-decl>
    <!-- int rename(const char*, const char*) -->
    <function-decl name='rename' filepath='/usr/include/stdio.h' line='179' column='1' visibility='default' binding='global' size-in-bits='64'>
      <!-- parameter of type 'const char*' -->
      <parameter type-id='type-id-68'/>
      <!-- parameter of type 'const char*' -->
      <parameter type-id='type-id-68'/>
      <!-- int -->
      <return type-id='type-id-17'/>
    </function-decl>
    <!-- void rewind(FILE*) -->
    <function-decl name='rewind' filepath='/usr/include/stdio.h' line='754' column='1' visibility='default' binding='global' size-in-bits='64'>
      <!-- parameter of type 'FILE*' -->
      <parameter type-id='type-id-115'/>
      <!-- void -->
      <return type-id='type-id-27'/>
    </function-decl>
    <!-- void setbuf(FILE*, char*) -->
    <function-decl name='setbuf' filepath='/usr/include/stdio.h' line='331' column='1' visibility='default' binding='global' size-in-bits='64'>
      <!-- parameter of type 'FILE*' -->
      <parameter type-id='type-id-115'/>
      <!-- parameter of type 'char*' -->
      <parameter type-id='type-id-32'/>
      <!-- void -->
      <return type-id='type-id-27'/>
    </function-decl>
    <!-- int setvbuf(FILE*, char*, int, size_t) -->
    <function-decl name='setvbuf' filepath='/usr/include/stdio.h' line='335' column='1' visibility='default' binding='global' size-in-bits='64'>
      <!-- parameter of type 'FILE*' -->
      <parameter type-id='type-id-115'/>
      <!-- parameter of type 'char*' -->
      <parameter type-id='type-id-32'/>
      <!-- parameter of type 'int' -->
      <parameter type-id='type-id-17'/>
      <!-- parameter of type 'typedef size_t' -->
      <parameter type-id='type-id-38'/>
      <!-- int -->
      <return type-id='type-id-17'/>
    </function-decl>
    <!-- char* tmpnam(char*) -->
    <function-decl name='tmpnam' filepath='/usr/include/stdio.h' line='208' column='1' visibility='default' binding='global' size-in-bits='64'>
      <!-- parameter of type 'char*' -->
      <parameter type-id='type-id-32'/>
      <!-- char* -->
      <return type-id='type-id-32'/>
    </function-decl>
    <!-- int ungetc(int, FILE*) -->
    <function-decl name='ungetc' filepath='/usr/include/stdio.h' line='697' column='1' visibility='default' binding='global' size-in-bits='64'>
      <!-- parameter of type 'int' -->
      <parameter type-id='type-id-17'/>
      <!-- parameter of type 'FILE*' -->
      <parameter type-id='type-id-115'/>
      <!-- int -->
      <return type-id='type-id-17'/>
    </function-decl>
    <!-- int atexit(void ()*) -->
    <function-decl name='atexit' filepath='/usr/include/stdlib.h' line='518' column='1' visibility='default' binding='global' size-in-bits='64'>
      <!-- parameter of type 'void ()*' -->
      <parameter type-id='type-id-241'/>
      <!-- int -->
      <return type-id='type-id-17'/>
    </function-decl>
    <!-- double atof(const char*) -->
    <function-decl name='atof' filepath='/usr/include/stdlib.h' line='279' column='1' visibility='default' binding='global' size-in-bits='64'>
      <!-- parameter of type 'const char*' -->
      <parameter type-id='type-id-68'/>
      <!-- double -->
      <return type-id='type-id-15'/>
    </function-decl>
    <!-- int atoi(const char*) -->
    <function-decl name='atoi' filepath='/usr/include/stdlib.h' line='284' column='1' visibility='default' binding='global' size-in-bits='64'>
      <!-- parameter of type 'const char*' -->
      <parameter type-id='type-id-68'/>
      <!-- int -->
      <return type-id='type-id-17'/>
    </function-decl>
    <!-- long int atol(const char*) -->
    <function-decl name='atol' filepath='/usr/include/stdlib.h' line='289' column='1' visibility='default' binding='global' size-in-bits='64'>
      <!-- parameter of type 'const char*' -->
      <parameter type-id='type-id-68'/>
      <!-- long int -->
      <return type-id='type-id-20'/>
    </function-decl>
    <!-- void* bsearch(void*, void*, size_t, size_t, __compar_fn_t) -->
    <function-decl name='bsearch' filepath='/usr/include/stdlib.h' line='755' column='1' visibility='default' binding='global' size-in-bits='64'>
      <!-- parameter of type 'void*' -->
      <parameter type-id='type-id-14'/>
      <!-- parameter of type 'void*' -->
      <parameter type-id='type-id-14'/>
      <!-- parameter of type 'typedef size_t' -->
      <parameter type-id='type-id-38'/>
      <!-- parameter of type 'typedef size_t' -->
      <parameter type-id='type-id-38'/>
      <!-- parameter of type 'typedef __compar_fn_t' -->
      <parameter type-id='type-id-94'/>
      <!-- void* -->
      <return type-id='type-id-14'/>
    </function-decl>
    <!-- div_t div(int, int) -->
    <function-decl name='div' filepath='/usr/include/stdlib.h' line='785' column='1' visibility='default' binding='global' size-in-bits='64'>
      <!-- parameter of type 'int' -->
      <parameter type-id='type-id-17'/>
      <!-- parameter of type 'int' -->
      <parameter type-id='type-id-17'/>
      <!-- struct div_t -->
      <return type-id='type-id-95'/>
    </function-decl>
    <!-- char* getenv(const char*) -->
    <function-decl name='getenv' filepath='/usr/include/stdlib.h' line='567' column='1' visibility='default' binding='global' size-in-bits='64'>
      <!-- parameter of type 'const char*' -->
      <parameter type-id='type-id-68'/>
      <!-- char* -->
      <return type-id='type-id-32'/>
    </function-decl>
    <!-- ldiv_t ldiv(long int, long int) -->
    <function-decl name='ldiv' filepath='/usr/include/stdlib.h' line='787' column='1' visibility='default' binding='global' size-in-bits='64'>
      <!-- parameter of type 'long int' -->
      <parameter type-id='type-id-20'/>
      <!-- parameter of type 'long int' -->
      <parameter type-id='type-id-20'/>
      <!-- struct ldiv_t -->
      <return type-id='type-id-96'/>
    </function-decl>
    <!-- int mblen(const char*, size_t) -->
    <function-decl name='mblen' filepath='/usr/include/stdlib.h' line='860' column='1' visibility='default' binding='global' size-in-bits='64'>
      <!-- parameter of type 'const char*' -->
      <parameter type-id='type-id-68'/>
      <!-- parameter of type 'typedef size_t' -->
      <parameter type-id='type-id-38'/>
      <!-- int -->
      <return type-id='type-id-17'/>
    </function-decl>
    <!-- size_t mbstowcs(wchar_t*, const char*, size_t) -->
    <function-decl name='mbstowcs' filepath='/usr/include/stdlib.h' line='871' column='1' visibility='default' binding='global' size-in-bits='64'>
      <!-- parameter of type 'wchar_t*' -->
      <parameter type-id='type-id-286'/>
      <!-- parameter of type 'const char*' -->
      <parameter type-id='type-id-68'/>
      <!-- parameter of type 'typedef size_t' -->
      <parameter type-id='type-id-38'/>
      <!-- typedef size_t -->
      <return type-id='type-id-38'/>
    </function-decl>
    <!-- int mbtowc(wchar_t*, const char*, size_t) -->
    <function-decl name='mbtowc' filepath='/usr/include/stdlib.h' line='863' column='1' visibility='default' binding='global' size-in-bits='64'>
      <!-- parameter of type 'wchar_t*' -->
      <parameter type-id='type-id-286'/>
      <!-- parameter of type 'const char*' -->
      <parameter type-id='type-id-68'/>
      <!-- parameter of type 'typedef size_t' -->
      <parameter type-id='type-id-38'/>
      <!-- int -->
      <return type-id='type-id-17'/>
    </function-decl>
    <!-- void qsort(void*, size_t, size_t, __compar_fn_t) -->
    <function-decl name='qsort' filepath='/usr/include/stdlib.h' line='761' column='1' visibility='default' binding='global' size-in-bits='64'>
      <!-- parameter of type 'void*' -->
      <parameter type-id='type-id-14'/>
      <!-- parameter of type 'typedef size_t' -->
      <parameter type-id='type-id-38'/>
      <!-- parameter of type 'typedef size_t' -->
      <parameter type-id='type-id-38'/>
      <!-- parameter of type 'typedef __compar_fn_t' -->
      <parameter type-id='type-id-94'/>
      <!-- void -->
      <return type-id='type-id-27'/>
    </function-decl>
    <!-- int rand() -->
    <function-decl name='rand' filepath='/usr/include/stdlib.h' line='380' column='1' visibility='default' binding='global' size-in-bits='64'>
      <!-- int -->
      <return type-id='type-id-17'/>
    </function-decl>
    <!-- void srand(unsigned int) -->
    <function-decl name='srand' filepath='/usr/include/stdlib.h' line='382' column='1' visibility='default' binding='global' size-in-bits='64'>
      <!-- parameter of type 'unsigned int' -->
      <parameter type-id='type-id-13'/>
      <!-- void -->
      <return type-id='type-id-27'/>
    </function-decl>
    <!-- double strtod(const char*, char**) -->
    <function-decl name='strtod' filepath='/usr/include/stdlib.h' line='165' column='1' visibility='default' binding='global' size-in-bits='64'>
      <!-- parameter of type 'const char*' -->
      <parameter type-id='type-id-68'/>
      <!-- parameter of type 'char**' -->
      <parameter type-id='type-id-123'/>
      <!-- double -->
      <return type-id='type-id-15'/>
    </function-decl>
    <!-- long int strtol(const char*, char**, int) -->
    <function-decl name='strtol' filepath='/usr/include/stdlib.h' line='184' column='1' visibility='default' binding='global' size-in-bits='64'>
      <!-- parameter of type 'const char*' -->
      <parameter type-id='type-id-68'/>
      <!-- parameter of type 'char**' -->
      <parameter type-id='type-id-123'/>
      <!-- parameter of type 'int' -->
      <parameter type-id='type-id-17'/>
      <!-- long int -->
      <return type-id='type-id-20'/>
    </function-decl>
    <!-- unsigned long int strtoul(const char*, char**, int) -->
    <function-decl name='strtoul' filepath='/usr/include/stdlib.h' line='188' column='1' visibility='default' binding='global' size-in-bits='64'>
      <!-- parameter of type 'const char*' -->
      <parameter type-id='type-id-68'/>
      <!-- parameter of type 'char**' -->
      <parameter type-id='type-id-123'/>
      <!-- parameter of type 'int' -->
      <parameter type-id='type-id-17'/>
      <!-- unsigned long int -->
      <return type-id='type-id-4'/>
    </function-decl>
    <!-- int system(const char*) -->
    <function-decl name='system' filepath='/usr/include/stdlib.h' line='717' column='1' visibility='default' binding='global' size-in-bits='64'>
      <!-- parameter of type 'const char*' -->
      <parameter type-id='type-id-68'/>
      <!-- int -->
      <return type-id='type-id-17'/>
    </function-decl>
    <!-- size_t wcstombs(char*, const wchar_t*, size_t) -->
    <function-decl name='wcstombs' filepath='/usr/include/stdlib.h' line='874' column='1' visibility='default' binding='global' size-in-bits='64'>
      <!-- parameter of type 'char*' -->
      <parameter type-id='type-id-32'/>
      <!-- parameter of type 'const wchar_t*' -->
      <parameter type-id='type-id-201'/>
      <!-- parameter of type 'typedef size_t' -->
      <parameter type-id='type-id-38'/>
      <!-- typedef size_t -->
      <return type-id='type-id-38'/>
    </function-decl>
    <!-- int wctomb(char*, wchar_t) -->
    <function-decl name='wctomb' filepath='/usr/include/stdlib.h' line='867' column='1' visibility='default' binding='global' size-in-bits='64'>
      <!-- parameter of type 'char*' -->
      <parameter type-id='type-id-32'/>
      <!-- parameter of type 'wchar_t' -->
      <parameter type-id='type-id-28'/>
      <!-- int -->
      <return type-id='type-id-17'/>
    </function-decl>
    <!-- lldiv_t lldiv(long long int, long long int) -->
    <function-decl name='lldiv' filepath='/usr/include/stdlib.h' line='793' column='1' visibility='default' binding='global' size-in-bits='64'>
      <!-- parameter of type 'long long int' -->
      <parameter type-id='type-id-21'/>
      <!-- parameter of type 'long long int' -->
      <parameter type-id='type-id-21'/>
      <!-- struct lldiv_t -->
      <return type-id='type-id-79'/>
    </function-decl>
    <!-- long long int atoll(const char*) -->
    <function-decl name='atoll' filepath='/usr/include/stdlib.h' line='298' column='1' visibility='default' binding='global' size-in-bits='64'>
      <!-- parameter of type 'const char*' -->
      <parameter type-id='type-id-68'/>
      <!-- long long int -->
      <return type-id='type-id-21'/>
    </function-decl>
    <!-- long long int strtoll(const char*, char**, int) -->
    <function-decl name='strtoll' filepath='/usr/include/stdlib.h' line='210' column='1' visibility='default' binding='global' size-in-bits='64'>
      <!-- parameter of type 'const char*' -->
      <parameter type-id='type-id-68'/>
      <!-- parameter of type 'char**' -->
      <parameter type-id='type-id-123'/>
      <!-- parameter of type 'int' -->
      <parameter type-id='type-id-17'/>
      <!-- long long int -->
      <return type-id='type-id-21'/>
    </function-decl>
    <!-- long long unsigned int strtoull(const char*, char**, int) -->
    <function-decl name='strtoull' filepath='/usr/include/stdlib.h' line='215' column='1' visibility='default' binding='global' size-in-bits='64'>
      <!-- parameter of type 'const char*' -->
      <parameter type-id='type-id-68'/>
      <!-- parameter of type 'char**' -->
      <parameter type-id='type-id-123'/>
      <!-- parameter of type 'int' -->
      <parameter type-id='type-id-17'/>
      <!-- long long unsigned int -->
      <return type-id='type-id-22'/>
    </function-decl>
    <!-- float strtof(const char*, char**) -->
    <function-decl name='strtof' filepath='/usr/include/stdlib.h' line='173' column='1' visibility='default' binding='global' size-in-bits='64'>
      <!-- parameter of type 'const char*' -->
      <parameter type-id='type-id-68'/>
      <!-- parameter of type 'char**' -->
      <parameter type-id='type-id-123'/>
      <!-- float -->
      <return type-id='type-id-16'/>
    </function-decl>
    <!-- long double strtold(const char*, char**) -->
    <function-decl name='strtold' filepath='/usr/include/stdlib.h' line='176' column='1' visibility='default' binding='global' size-in-bits='64'>
      <!-- parameter of type 'const char*' -->
      <parameter type-id='type-id-68'/>
      <!-- parameter of type 'char**' -->
      <parameter type-id='type-id-123'/>
      <!-- long double -->
      <return type-id='type-id-19'/>
    </function-decl>
    <!-- int strcoll(const char*, const char*) -->
    <function-decl name='strcoll' filepath='/usr/include/string.h' line='150' column='1' visibility='default' binding='global' size-in-bits='64'>
      <!-- parameter of type 'const char*' -->
      <parameter type-id='type-id-68'/>
      <!-- parameter of type 'const char*' -->
      <parameter type-id='type-id-68'/>
      <!-- int -->
      <return type-id='type-id-17'/>
    </function-decl>
    <!-- char* strerror(int) -->
    <function-decl name='strerror' filepath='/usr/include/string.h' line='413' column='1' visibility='default' binding='global' size-in-bits='64'>
      <!-- parameter of type 'int' -->
      <parameter type-id='type-id-17'/>
      <!-- char* -->
      <return type-id='type-id-32'/>
    </function-decl>
    <!-- char* strtok(char*, const char*) -->
    <function-decl name='strtok' filepath='/usr/include/string.h' line='348' column='1' visibility='default' binding='global' size-in-bits='64'>
      <!-- parameter of type 'char*' -->
      <parameter type-id='type-id-32'/>
      <!-- parameter of type 'const char*' -->
      <parameter type-id='type-id-68'/>
      <!-- char* -->
      <return type-id='type-id-32'/>
    </function-decl>
    <!-- size_t strxfrm(char*, const char*, size_t) -->
    <function-decl name='strxfrm' filepath='/usr/include/string.h' line='153' column='1' visibility='default' binding='global' size-in-bits='64'>
      <!-- parameter of type 'char*' -->
      <parameter type-id='type-id-32'/>
      <!-- parameter of type 'const char*' -->
      <parameter type-id='type-id-68'/>
      <!-- parameter of type 'typedef size_t' -->
      <parameter type-id='type-id-38'/>
      <!-- typedef size_t -->
      <return type-id='type-id-38'/>
    </function-decl>
    <!-- GLfloat* -->
    <pointer-type-def type-id='type-id-319' size-in-bits='64' id='type-id-57'/>
    <namespace-decl name='std'>
      <!-- struct std::__false_type -->
      <class-decl name='__false_type' size-in-bits='8' is-struct='yes' visibility='default' filepath='/usr/lib/gcc/x86_64-redhat-linux/4.4.7/../../../../include/c++/4.4.7/bits/cpp_type_traits.h' line='79' column='1' id='type-id-307'/>
    </namespace-decl>
    <namespace-decl name='std'>
      <!-- struct std::forward_iterator_tag -->
      <class-decl name='forward_iterator_tag' size-in-bits='8' is-struct='yes' visibility='default' filepath='/usr/lib/gcc/x86_64-redhat-linux/4.4.7/../../../../include/c++/4.4.7/bits/stl_iterator_base_types.h' line='83' column='1' id='type-id-308'>
        <!-- struct std::input_iterator_tag -->
        <base-class access='public' layout-offset-in-bits='0' type-id='type-id-320'/>
      </class-decl>
    </namespace-decl>
    <!-- struct vtkAbstractArray -->
    <class-decl name='vtkAbstractArray' is-struct='yes' visibility='default' is-declaration-only='yes' id='type-id-242'/>
    <!-- class vtkDataArray -->
    <class-decl name='vtkDataArray' visibility='default' is-declaration-only='yes' id='type-id-247'/>
    <!-- class vtkDataSet -->
    <class-decl name='vtkDataSet' visibility='default' is-declaration-only='yes' id='type-id-255'/>
    <!-- class vtkImageAlgorithm -->
    <class-decl name='vtkImageAlgorithm' visibility='default' is-declaration-only='yes' id='type-id-100'/>
    <!-- class vtkImageData -->
    <class-decl name='vtkImageData' visibility='default' is-declaration-only='yes' id='type-id-258'/>
    <!-- class vtkImageNoiseSource -->
    <class-decl name='vtkImageNoiseSource' visibility='default' is-declaration-only='yes' id='type-id-260'/>
    <!-- struct vtkInformation -->
    <class-decl name='vtkInformation' is-struct='yes' visibility='default' is-declaration-only='yes' id='type-id-261'/>
    <!-- class vtkInformationVector -->
    <class-decl name='vtkInformationVector' visibility='default' is-declaration-only='yes' id='type-id-262'/>
    <!-- class vtkOpenGLRenderWindow -->
    <class-decl name='vtkOpenGLRenderWindow' visibility='default' is-declaration-only='yes' id='type-id-264'/>
    <!-- class vtkPointData -->
    <class-decl name='vtkPointData' visibility='default' is-declaration-only='yes' id='type-id-275'/>
    <!-- struct vtkProgressObserver -->
    <class-decl name='vtkProgressObserver' is-struct='yes' visibility='default' is-declaration-only='yes' id='type-id-277'/>
    <!-- struct vtkRenderWindow -->
    <class-decl name='vtkRenderWindow' is-struct='yes' visibility='default' is-declaration-only='yes' id='type-id-279'/>
    <!-- class vtkShaderProgram2 -->
    <class-decl name='vtkShaderProgram2' visibility='default' is-declaration-only='yes' id='type-id-281'/>
    <!-- class vtkWeakPointer<vtkImageDataLIC2D> -->
    <class-decl name='vtkWeakPointer&lt;vtkImageDataLIC2D&gt;' size-in-bits='64' visibility='default' filepath='/tmp/legendre/spack-stage/spack-stage-R_crTC/VTK-6.1.0/Common/Core/vtkWeakPointer.h' line='47' column='1' id='type-id-62'>
      <!-- class vtkWeakPointerBase -->
      <base-class access='public' layout-offset-in-bits='0' type-id='type-id-74'/>
      <member-function access='private'>
        <!-- void vtkWeakPointer<vtkImageDataLIC2D>::vtkWeakPointer() -->
        <function-decl name='vtkWeakPointer' filepath='/tmp/legendre/spack-stage/spack-stage-R_crTC/VTK-6.1.0/Common/Core/vtkWeakPointer.h' line='51' column='1' visibility='default' binding='global' size-in-bits='64'>
          <!-- implicit parameter of type 'vtkWeakPointer<vtkImageDataLIC2D>*' -->
          <parameter type-id='type-id-321' is-artificial='yes'/>
          <!-- void -->
          <return type-id='type-id-27'/>
        </function-decl>
      </member-function>
      <member-function access='private'>
        <!-- void vtkWeakPointer<vtkImageDataLIC2D>::vtkWeakPointer(vtkImageDataLIC2D*) -->
        <function-decl name='vtkWeakPointer' filepath='/tmp/legendre/spack-stage/spack-stage-R_crTC/VTK-6.1.0/Common/Core/vtkWeakPointer.h' line='55' column='1' visibility='default' binding='global' size-in-bits='64'>
          <!-- implicit parameter of type 'vtkWeakPointer<vtkImageDataLIC2D>*' -->
          <parameter type-id='type-id-321' is-artificial='yes'/>
          <!-- parameter of type 'vtkImageDataLIC2D*' -->
          <parameter type-id='type-id-66'/>
          <!-- void -->
          <return type-id='type-id-27'/>
        </function-decl>
      </member-function>
      <member-function access='private'>
        <!-- void vtkWeakPointer<vtkImageDataLIC2D>::vtkWeakPointer(const vtkWeakPointerBase&) -->
        <function-decl name='vtkWeakPointer' filepath='/tmp/legendre/spack-stage/spack-stage-R_crTC/VTK-6.1.0/Common/Core/vtkWeakPointer.h' line='59' column='1' visibility='default' binding='global' size-in-bits='64'>
          <!-- implicit parameter of type 'vtkWeakPointer<vtkImageDataLIC2D>*' -->
          <parameter type-id='type-id-321' is-artificial='yes'/>
          <!-- parameter of type 'const vtkWeakPointerBase&' -->
          <parameter type-id='type-id-77'/>
          <!-- void -->
          <return type-id='type-id-27'/>
        </function-decl>
      </member-function>
      <member-function access='protected'>
        <!-- void vtkWeakPointer<vtkImageDataLIC2D>::vtkWeakPointer(vtkImageDataLIC2D*, const vtkWeakPointerBase::NoReference&) -->
        <function-decl name='vtkWeakPointer' filepath='/tmp/legendre/spack-stage/spack-stage-R_crTC/VTK-6.1.0/Common/Core/vtkWeakPointer.h' line='133' column='1' visibility='default' binding='global' size-in-bits='64'>
          <!-- implicit parameter of type 'vtkWeakPointer<vtkImageDataLIC2D>*' -->
          <parameter type-id='type-id-321' is-artificial='yes'/>
          <!-- parameter of type 'vtkImageDataLIC2D*' -->
          <parameter type-id='type-id-66'/>
          <!-- parameter of type 'const vtkWeakPointerBase::NoReference&' -->
          <parameter type-id='type-id-78'/>
          <!-- void -->
          <return type-id='type-id-27'/>
        </function-decl>
      </member-function>
    </class-decl>
    <!-- const std::_Deque_iterator<vtkPixelExtent, vtkPixelExtent&, vtkPixelExtent*>* const -->
    <qualified-type-def type-id='type-id-150' const='yes' id='type-id-305'/>
    <!-- const std::deque<vtkPixelExtent, std::allocator<vtkPixelExtent> >& -->
    <qualified-type-def type-id='type-id-182' id='type-id-309'/>
    <!-- const vtkImageDataLIC2DExtentTranslator& -->
    <reference-type-def kind='lvalue' type-id='type-id-322' size-in-bits='64' id='type-id-64'/>
    <!-- const vtkImageDataLIC2DExtentTranslator* -->
    <pointer-type-def type-id='type-id-322' size-in-bits='64' id='type-id-67'/>
    <!-- int (void*, void*) -->
    <function-type size-in-bits='64' id='type-id-205'>
      <!-- parameter of type 'void*' -->
      <parameter type-id='type-id-14'/>
      <!-- parameter of type 'void*' -->
      <parameter type-id='type-id-14'/>
      <!-- int -->
      <return type-id='type-id-17'/>
    </function-type>
    <!-- void () -->
    <function-type size-in-bits='64' id='type-id-240'>
      <!-- void -->
      <return type-id='type-id-27'/>
    </function-type>
    <!-- int[6] -->
    <array-type-def dimensions='1' type-id='type-id-17' size-in-bits='192' id='type-id-60'>
      <!-- <anonymous range>[6] -->
      <subrange length='6' type-id='type-id-4' id='type-id-323'/>
    </array-type-def>
    <!-- std::_Deque_iterator<vtkPixelExtent, const vtkPixelExtent&, const vtkPixelExtent*>* -->
    <pointer-type-def type-id='type-id-306' size-in-bits='64' id='type-id-311'/>
    <!-- void** -->
    <pointer-type-def type-id='type-id-14' size-in-bits='64' id='type-id-316'/>
    <!-- vtkImageDataLIC2DExtentTranslator* const -->
    <qualified-type-def type-id='type-id-63' const='yes' id='type-id-65'/>
    <!-- vtkPixelBufferObject** -->
    <pointer-type-def type-id='type-id-267' size-in-bits='64' id='type-id-313'/>
    <!-- vtkPixelTransfer::VTK_TT* -->
    <pointer-type-def type-id='type-id-110' size-in-bits='64' id='type-id-112'/>
    <namespace-decl name='std'>
      <!-- struct std::input_iterator_tag -->
      <class-decl name='input_iterator_tag' size-in-bits='8' is-struct='yes' visibility='default' filepath='/usr/lib/gcc/x86_64-redhat-linux/4.4.7/../../../../include/c++/4.4.7/bits/stl_iterator_base_types.h' line='79' column='1' id='type-id-320'/>
    </namespace-decl>
    <!-- const vtkImageDataLIC2DExtentTranslator -->
    <qualified-type-def type-id='type-id-58' const='yes' id='type-id-322'/>
    <!-- typedef float GLfloat -->
    <typedef-decl name='GLfloat' type-id='type-id-16' filepath='/collab/usr/global/tools/order/spack/opt/chaos_5_x86_64_ib/gcc@4.4.7/mesa@8.0.5-22dd4c4b/include/GL/gl.h' line='160' column='1' id='type-id-319'/>
    <!-- vtkWeakPointer<vtkImageDataLIC2D>* -->
    <pointer-type-def type-id='type-id-62' size-in-bits='64' id='type-id-321'/>
  </abi-instr>
  <abi-instr address-size='64' path='/tmp/legendre/spack-stage/spack-stage-R_crTC/VTK-6.1.0/Rendering/LIC/vtkImageDataLIC2DExtentTranslator.cxx' comp-dir-path='/tmp/legendre/spack-stage/spack-stage-R_crTC/VTK-6.1.0/spack-build/Rendering/LIC' language='LANG_C_plus_plus'>
    <!-- int[6] -->
    <array-type-def dimensions='1' type-id='type-id-17' size-in-bits='192' id='type-id-60'>
      <!-- <anonymous range>[6] -->
      <subrange length='6' type-id='type-id-4' id='type-id-323'/>
    </array-type-def>
    <!-- class vtkWeakPointer<vtkImageDataLIC2D> -->
    <class-decl name='vtkWeakPointer&lt;vtkImageDataLIC2D&gt;' size-in-bits='64' visibility='default' filepath='/tmp/legendre/spack-stage/spack-stage-R_crTC/VTK-6.1.0/Common/Core/vtkWeakPointer.h' line='47' column='1' id='type-id-62'>
      <!-- class vtkWeakPointerBase -->
      <base-class access='public' layout-offset-in-bits='0' type-id='type-id-74'/>
      <member-function access='private'>
        <!-- void vtkWeakPointer<vtkImageDataLIC2D>::vtkWeakPointer() -->
        <function-decl name='vtkWeakPointer' filepath='/tmp/legendre/spack-stage/spack-stage-R_crTC/VTK-6.1.0/Common/Core/vtkWeakPointer.h' line='51' column='1' visibility='default' binding='global' size-in-bits='64'>
          <!-- implicit parameter of type 'vtkWeakPointer<vtkImageDataLIC2D>*' -->
          <parameter type-id='type-id-321' is-artificial='yes'/>
          <!-- void -->
          <return type-id='type-id-27'/>
        </function-decl>
      </member-function>
      <member-function access='private'>
        <!-- void vtkWeakPointer<vtkImageDataLIC2D>::vtkWeakPointer(vtkImageDataLIC2D*) -->
        <function-decl name='vtkWeakPointer' filepath='/tmp/legendre/spack-stage/spack-stage-R_crTC/VTK-6.1.0/Common/Core/vtkWeakPointer.h' line='55' column='1' visibility='default' binding='global' size-in-bits='64'>
          <!-- implicit parameter of type 'vtkWeakPointer<vtkImageDataLIC2D>*' -->
          <parameter type-id='type-id-321' is-artificial='yes'/>
          <!-- parameter of type 'vtkImageDataLIC2D*' -->
          <parameter type-id='type-id-66'/>
          <!-- void -->
          <return type-id='type-id-27'/>
        </function-decl>
      </member-function>
      <member-function access='private'>
        <!-- void vtkWeakPointer<vtkImageDataLIC2D>::vtkWeakPointer(const vtkWeakPointerBase&) -->
        <function-decl name='vtkWeakPointer' filepath='/tmp/legendre/spack-stage/spack-stage-R_crTC/VTK-6.1.0/Common/Core/vtkWeakPointer.h' line='59' column='1' visibility='default' binding='global' size-in-bits='64'>
          <!-- implicit parameter of type 'vtkWeakPointer<vtkImageDataLIC2D>*' -->
          <parameter type-id='type-id-321' is-artificial='yes'/>
          <!-- parameter of type 'const vtkWeakPointerBase&' -->
          <parameter type-id='type-id-77'/>
          <!-- void -->
          <return type-id='type-id-27'/>
        </function-decl>
      </member-function>
      <member-function access='protected'>
        <!-- void vtkWeakPointer<vtkImageDataLIC2D>::vtkWeakPointer(vtkImageDataLIC2D*, const vtkWeakPointerBase::NoReference&) -->
        <function-decl name='vtkWeakPointer' filepath='/tmp/legendre/spack-stage/spack-stage-R_crTC/VTK-6.1.0/Common/Core/vtkWeakPointer.h' line='133' column='1' visibility='default' binding='global' size-in-bits='64'>
          <!-- implicit parameter of type 'vtkWeakPointer<vtkImageDataLIC2D>*' -->
          <parameter type-id='type-id-321' is-artificial='yes'/>
          <!-- parameter of type 'vtkImageDataLIC2D*' -->
          <parameter type-id='type-id-66'/>
          <!-- parameter of type 'const vtkWeakPointerBase::NoReference&' -->
          <parameter type-id='type-id-78'/>
          <!-- void -->
          <return type-id='type-id-27'/>
        </function-decl>
      </member-function>
    </class-decl>
    <!-- const std::ctype<char> -->
    <qualified-type-def type-id='type-id-324' const='yes' id='type-id-325'/>
    <!-- const std::ctype<char>& -->
    <reference-type-def kind='lvalue' type-id='type-id-325' size-in-bits='64' id='type-id-326'/>
    <!-- const std::ctype<char>* -->
    <pointer-type-def type-id='type-id-325' size-in-bits='64' id='type-id-327'/>
    <!-- const std::ctype<char>* const -->
    <qualified-type-def type-id='type-id-327' const='yes' id='type-id-328'/>
    <!-- const vtkImageDataLIC2DExtentTranslator -->
    <qualified-type-def type-id='type-id-58' const='yes' id='type-id-322'/>
    <!-- const vtkImageDataLIC2DExtentTranslator& -->
    <reference-type-def kind='lvalue' type-id='type-id-322' size-in-bits='64' id='type-id-64'/>
    <!-- const vtkImageDataLIC2DExtentTranslator* -->
    <pointer-type-def type-id='type-id-322' size-in-bits='64' id='type-id-67'/>
    <!-- const vtkWeakPointer<vtkImageDataLIC2D> -->
    <qualified-type-def type-id='type-id-62' const='yes' id='type-id-329'/>
    <!-- const vtkWeakPointer<vtkImageDataLIC2D>* -->
    <pointer-type-def type-id='type-id-329' size-in-bits='64' id='type-id-330'/>
    <!-- const vtkWeakPointer<vtkImageDataLIC2D>* const -->
    <qualified-type-def type-id='type-id-330' const='yes' id='type-id-331'/>
    <!-- std::basic_ostream<char, std::char_traits<char> >& (std::basic_ostream<char, std::char_traits<char> >&)* -->
    <pointer-type-def type-id='type-id-332' size-in-bits='64' id='type-id-333'/>
    <!-- vtkImageDataLIC2D& -->
    <reference-type-def kind='lvalue' type-id='type-id-99' size-in-bits='64' id='type-id-334'/>
    <!-- vtkImageDataLIC2DExtentTranslator* const -->
    <qualified-type-def type-id='type-id-63' const='yes' id='type-id-65'/>
    <!-- vtkWeakPointer<vtkImageDataLIC2D>& -->
    <reference-type-def kind='lvalue' type-id='type-id-62' size-in-bits='64' id='type-id-335'/>
    <!-- vtkWeakPointer<vtkImageDataLIC2D>* -->
    <pointer-type-def type-id='type-id-62' size-in-bits='64' id='type-id-321'/>
    <!-- vtkWeakPointer<vtkImageDataLIC2D>* const -->
    <qualified-type-def type-id='type-id-321' const='yes' id='type-id-336'/>
    <!-- namespace std -->
    <namespace-decl name='std'>
      <!-- class std::ctype<char> -->
      <class-decl name='ctype&lt;char&gt;' visibility='default' is-declaration-only='yes' id='type-id-324'>
        <member-type access='private'>
          <!-- typedef char std::ctype<char>::char_type -->
          <typedef-decl name='char_type' type-id='type-id-2' filepath='/usr/lib/gcc/x86_64-redhat-linux/4.4.7/../../../../include/c++/4.4.7/bits/locale_facets.h' line='679' column='1' id='type-id-337'/>
        </member-type>
      </class-decl>
      <!-- const std::ctype<char>& std::__check_facet<std::ctype<char> >(const std::ctype<char>*) -->
      <function-decl name='__check_facet&lt;std::ctype&lt;char&gt; &gt;' filepath='/usr/lib/gcc/x86_64-redhat-linux/4.4.7/../../../../include/c++/4.4.7/bits/basic_ios.h' line='46' column='1' visibility='default' binding='global' size-in-bits='64'>
        <!-- parameter of type 'const std::ctype<char>*' -->
        <parameter type-id='type-id-327'/>
        <!-- const std::ctype<char>& -->
        <return type-id='type-id-326'/>
      </function-decl>
      <!-- std::basic_ostream<char, std::char_traits<char> >& std::flush<char, std::char_traits<char> >(std::basic_ostream<char, std::char_traits<char> >&) -->
      <function-decl name='flush&lt;char, std::char_traits&lt;char&gt; &gt;' filepath='/usr/lib/gcc/x86_64-redhat-linux/4.4.7/../../../../include/c++/4.4.7/ostream' line='559' column='1' visibility='default' binding='global' size-in-bits='64'>
        <!-- parameter of type 'std::basic_ostream<char, std::char_traits<char> >&' -->
        <parameter type-id='type-id-226'/>
        <!-- std::basic_ostream<char, std::char_traits<char> >& -->
        <return type-id='type-id-226'/>
      </function-decl>
      <!-- std::basic_ostream<char, std::char_traits<char> >& std::endl<char, std::char_traits<char> >(std::basic_ostream<char, std::char_traits<char> >&) -->
      <function-decl name='endl&lt;char, std::char_traits&lt;char&gt; &gt;' filepath='/usr/lib/gcc/x86_64-redhat-linux/4.4.7/../../../../include/c++/4.4.7/ostream' line='538' column='1' visibility='default' binding='global' size-in-bits='64'>
        <!-- parameter of type 'std::basic_ostream<char, std::char_traits<char> >&' -->
        <parameter type-id='type-id-226'/>
        <!-- std::basic_ostream<char, std::char_traits<char> >& -->
        <return type-id='type-id-226'/>
      </function-decl>
    </namespace-decl>
    <!-- std::basic_ostream<char, std::char_traits<char> >& (std::basic_ostream<char, std::char_traits<char> >&) -->
    <function-type size-in-bits='64' id='type-id-332'>
      <!-- parameter of type 'std::basic_ostream<char, std::char_traits<char> >&' -->
      <parameter type-id='type-id-226'/>
      <!-- std::basic_ostream<char, std::char_traits<char> >& -->
      <return type-id='type-id-226'/>
    </function-type>
  </abi-instr>
  <abi-instr address-size='64' path='/tmp/legendre/spack-stage/spack-stage-R_crTC/VTK-6.1.0/Rendering/LIC/vtkLineIntegralConvolution2D.cxx' comp-dir-path='/tmp/legendre/spack-stage/spack-stage-R_crTC/VTK-6.1.0/spack-build/Rendering/LIC' language='LANG_C_plus_plus'>
    <!-- int[2] -->
    <array-type-def dimensions='1' type-id='type-id-17' size-in-bits='64' id='type-id-338'>
      <!-- <anonymous range>[2] -->
      <subrange length='2' type-id='type-id-4' id='type-id-339'/>
    </array-type-def>
    <!-- size_t[4] -->
    <array-type-def dimensions='1' type-id='type-id-38' size-in-bits='256' id='type-id-340'>
      <!-- <anonymous range>[4] -->
      <subrange length='4' type-id='type-id-4' id='type-id-11'/>
    </array-type-def>
    <!-- unsigned int*[2] -->
    <array-type-def dimensions='1' type-id='type-id-54' size-in-bits='128' id='type-id-341'>
      <!-- <anonymous range>[2] -->
      <subrange length='2' type-id='type-id-4' id='type-id-339'/>
    </array-type-def>
    <!-- unsigned int[2] -->
    <array-type-def dimensions='1' type-id='type-id-13' size-in-bits='64' id='type-id-342'>
      <!-- <anonymous range>[2] -->
      <subrange length='2' type-id='type-id-4' id='type-id-339'/>
    </array-type-def>
    <!-- class vtkPainterCommunicator -->
    <class-decl name='vtkPainterCommunicator' size-in-bits='64' visibility='default' filepath='/tmp/legendre/spack-stage/spack-stage-R_crTC/VTK-6.1.0/Rendering/LIC/vtkPainterCommunicator.h' line='30' column='1' id='type-id-343'>
      <member-function access='private' constructor='yes'>
        <!-- vtkPainterCommunicator::vtkPainterCommunicator() -->
        <function-decl name='vtkPainterCommunicator' filepath='/tmp/legendre/spack-stage/spack-stage-R_crTC/VTK-6.1.0/Rendering/LIC/vtkPainterCommunicator.h' line='32' column='1' visibility='default' binding='global' size-in-bits='64'>
          <!-- implicit parameter of type 'vtkPainterCommunicator*' -->
          <parameter type-id='type-id-344' is-artificial='yes'/>
          <!-- void -->
          <return type-id='type-id-27'/>
        </function-decl>
      </member-function>
      <member-function access='private' constructor='yes'>
        <!-- vtkPainterCommunicator::vtkPainterCommunicator(const vtkPainterCommunicator&) -->
        <function-decl name='vtkPainterCommunicator' filepath='/tmp/legendre/spack-stage/spack-stage-R_crTC/VTK-6.1.0/Rendering/LIC/vtkPainterCommunicator.h' line='38' column='1' visibility='default' binding='global' size-in-bits='64'>
          <!-- implicit parameter of type 'vtkPainterCommunicator*' -->
          <parameter type-id='type-id-344' is-artificial='yes'/>
          <!-- parameter of type 'const vtkPainterCommunicator&' -->
          <parameter type-id='type-id-345'/>
          <!-- void -->
          <return type-id='type-id-27'/>
        </function-decl>
      </member-function>
      <member-function access='private' destructor='yes' vtable-offset='-1'>
        <!-- vtkPainterCommunicator::~vtkPainterCommunicator(int) -->
        <function-decl name='~vtkPainterCommunicator' filepath='/tmp/legendre/spack-stage/spack-stage-R_crTC/VTK-6.1.0/Rendering/LIC/vtkPainterCommunicator.h' line='33' column='1' visibility='default' binding='global' size-in-bits='64'>
          <!-- implicit parameter of type 'vtkPainterCommunicator*' -->
          <parameter type-id='type-id-344' is-artificial='yes'/>
          <!-- artificial parameter of type 'int' -->
          <parameter type-id='type-id-17' is-artificial='yes'/>
          <!-- void -->
          <return type-id='type-id-27'/>
        </function-decl>
      </member-function>
      <member-function access='private' vtable-offset='2'>
        <!-- void vtkPainterCommunicator::Copy(const vtkPainterCommunicator*, bool) -->
        <function-decl name='Copy' mangled-name='_ZN22vtkPainterCommunicator4CopyEPKS_b' filepath='/tmp/legendre/spack-stage/spack-stage-R_crTC/VTK-6.1.0/Rendering/LIC/vtkPainterCommunicator.h' line='48' column='1' visibility='default' binding='global' size-in-bits='64'>
          <!-- implicit parameter of type 'vtkPainterCommunicator*' -->
          <parameter type-id='type-id-344' is-artificial='yes'/>
          <!-- parameter of type 'const vtkPainterCommunicator*' -->
          <parameter type-id='type-id-346'/>
          <!-- parameter of type 'bool' -->
          <parameter type-id='type-id-1'/>
          <!-- void -->
          <return type-id='type-id-27'/>
        </function-decl>
      </member-function>
      <member-function access='private' vtable-offset='3'>
        <!-- void vtkPainterCommunicator::Duplicate(const vtkPainterCommunicator*) -->
        <function-decl name='Duplicate' mangled-name='_ZN22vtkPainterCommunicator9DuplicateEPKS_' filepath='/tmp/legendre/spack-stage/spack-stage-R_crTC/VTK-6.1.0/Rendering/LIC/vtkPainterCommunicator.h' line='52' column='1' visibility='default' binding='global' size-in-bits='64'>
          <!-- implicit parameter of type 'vtkPainterCommunicator*' -->
          <parameter type-id='type-id-344' is-artificial='yes'/>
          <!-- parameter of type 'const vtkPainterCommunicator*' -->
          <parameter type-id='type-id-346'/>
          <!-- void -->
          <return type-id='type-id-27'/>
        </function-decl>
      </member-function>
      <member-function access='private' vtable-offset='4'>
        <!-- int vtkPainterCommunicator::GetRank() -->
        <function-decl name='GetRank' mangled-name='_ZN22vtkPainterCommunicator7GetRankEv' filepath='/tmp/legendre/spack-stage/spack-stage-R_crTC/VTK-6.1.0/Rendering/LIC/vtkPainterCommunicator.h' line='56' column='1' visibility='default' binding='global' size-in-bits='64'>
          <!-- implicit parameter of type 'vtkPainterCommunicator*' -->
          <parameter type-id='type-id-344' is-artificial='yes'/>
          <!-- int -->
          <return type-id='type-id-17'/>
        </function-decl>
      </member-function>
      <member-function access='private' vtable-offset='5'>
        <!-- int vtkPainterCommunicator::GetSize() -->
        <function-decl name='GetSize' mangled-name='_ZN22vtkPainterCommunicator7GetSizeEv' filepath='/tmp/legendre/spack-stage/spack-stage-R_crTC/VTK-6.1.0/Rendering/LIC/vtkPainterCommunicator.h' line='57' column='1' visibility='default' binding='global' size-in-bits='64'>
          <!-- implicit parameter of type 'vtkPainterCommunicator*' -->
          <parameter type-id='type-id-344' is-artificial='yes'/>
          <!-- int -->
          <return type-id='type-id-17'/>
        </function-decl>
      </member-function>
      <member-function access='private' vtable-offset='6'>
        <!-- bool vtkPainterCommunicator::GetIsNull() -->
        <function-decl name='GetIsNull' mangled-name='_ZN22vtkPainterCommunicator9GetIsNullEv' filepath='/tmp/legendre/spack-stage/spack-stage-R_crTC/VTK-6.1.0/Rendering/LIC/vtkPainterCommunicator.h' line='58' column='1' visibility='default' binding='global' size-in-bits='64'>
          <!-- implicit parameter of type 'vtkPainterCommunicator*' -->
          <parameter type-id='type-id-344' is-artificial='yes'/>
          <!-- bool -->
          <return type-id='type-id-1'/>
        </function-decl>
      </member-function>
      <member-function access='private' vtable-offset='7'>
        <!-- int vtkPainterCommunicator::GetWorldRank() -->
        <function-decl name='GetWorldRank' mangled-name='_ZN22vtkPainterCommunicator12GetWorldRankEv' filepath='/tmp/legendre/spack-stage/spack-stage-R_crTC/VTK-6.1.0/Rendering/LIC/vtkPainterCommunicator.h' line='62' column='1' visibility='default' binding='global' size-in-bits='64'>
          <!-- implicit parameter of type 'vtkPainterCommunicator*' -->
          <parameter type-id='type-id-344' is-artificial='yes'/>
          <!-- int -->
          <return type-id='type-id-17'/>
        </function-decl>
      </member-function>
      <member-function access='private' vtable-offset='8'>
        <!-- int vtkPainterCommunicator::GetWorldSize() -->
        <function-decl name='GetWorldSize' mangled-name='_ZN22vtkPainterCommunicator12GetWorldSizeEv' filepath='/tmp/legendre/spack-stage/spack-stage-R_crTC/VTK-6.1.0/Rendering/LIC/vtkPainterCommunicator.h' line='63' column='1' visibility='default' binding='global' size-in-bits='64'>
          <!-- implicit parameter of type 'vtkPainterCommunicator*' -->
          <parameter type-id='type-id-344' is-artificial='yes'/>
          <!-- int -->
          <return type-id='type-id-17'/>
        </function-decl>
      </member-function>
      <member-function access='private' vtable-offset='9'>
        <!-- bool vtkPainterCommunicator::GetMPIInitialized() -->
        <function-decl name='GetMPIInitialized' mangled-name='_ZN22vtkPainterCommunicator17GetMPIInitializedEv' filepath='/tmp/legendre/spack-stage/spack-stage-R_crTC/VTK-6.1.0/Rendering/LIC/vtkPainterCommunicator.h' line='67' column='1' visibility='default' binding='global' size-in-bits='64'>
          <!-- implicit parameter of type 'vtkPainterCommunicator*' -->
          <parameter type-id='type-id-344' is-artificial='yes'/>
          <!-- bool -->
          <return type-id='type-id-1'/>
        </function-decl>
      </member-function>
      <member-function access='private' vtable-offset='10'>
        <!-- bool vtkPainterCommunicator::GetMPIFinalized() -->
        <function-decl name='GetMPIFinalized' mangled-name='_ZN22vtkPainterCommunicator15GetMPIFinalizedEv' filepath='/tmp/legendre/spack-stage/spack-stage-R_crTC/VTK-6.1.0/Rendering/LIC/vtkPainterCommunicator.h' line='68' column='1' visibility='default' binding='global' size-in-bits='64'>
          <!-- implicit parameter of type 'vtkPainterCommunicator*' -->
          <parameter type-id='type-id-344' is-artificial='yes'/>
          <!-- bool -->
          <return type-id='type-id-1'/>
        </function-decl>
      </member-function>
    </class-decl>
    <!-- class vtkLineIntegralConvolution2D -->
    <class-decl name='vtkLineIntegralConvolution2D' size-in-bits='1792' visibility='default' filepath='/tmp/legendre/spack-stage/spack-stage-R_crTC/VTK-6.1.0/Rendering/LIC/vtkLineIntegralConvolution2D.h' line='105' column='1' id='type-id-347'>
      <!-- class vtkObject -->
      <base-class access='public' layout-offset-in-bits='0' type-id='type-id-348'/>
      <member-type access='private'>
        <!-- enum vtkLineIntegralConvolution2D::__anonymous_enum__ -->
        <enum-decl name='__anonymous_enum__' is-anonymous='yes' filepath='/tmp/legendre/spack-stage/spack-stage-R_crTC/VTK-6.1.0/Rendering/LIC/vtkLineIntegralConvolution2D.h' line='149' column='1' id='type-id-349'>
          <underlying-type type-id='type-id-24'/>
          <enumerator name='ENHANCE_CONTRAST_OFF' value='0'/>
          <enumerator name='ENHANCE_CONTRAST_ON' value='1'/>
        </enum-decl>
      </member-type>
      <data-member access='protected' layout-offset-in-bits='384'>
        <!-- vtkPainterCommunicator* vtkLineIntegralConvolution2D::Comm -->
        <var-decl name='Comm' type-id='type-id-344' visibility='default' filepath='/tmp/legendre/spack-stage/spack-stage-R_crTC/VTK-6.1.0/Rendering/LIC/vtkLineIntegralConvolution2D.h' line='362' column='1'/>
      </data-member>
      <data-member access='protected' layout-offset-in-bits='448'>
        <!-- vtkWeakPointer<vtkRenderWindow> vtkLineIntegralConvolution2D::Context -->
        <var-decl name='Context' type-id='type-id-73' visibility='default' filepath='/tmp/legendre/spack-stage/spack-stage-R_crTC/VTK-6.1.0/Rendering/LIC/vtkLineIntegralConvolution2D.h' line='364' column='1'/>
      </data-member>
      <data-member access='protected' layout-offset-in-bits='512'>
        <!-- vtkFrameBufferObject2* vtkLineIntegralConvolution2D::FBO -->
        <var-decl name='FBO' type-id='type-id-350' visibility='default' filepath='/tmp/legendre/spack-stage/spack-stage-R_crTC/VTK-6.1.0/Rendering/LIC/vtkLineIntegralConvolution2D.h' line='365' column='1'/>
      </data-member>
      <data-member access='protected' layout-offset-in-bits='576'>
        <!-- int vtkLineIntegralConvolution2D::ShadersNeedBuild -->
        <var-decl name='ShadersNeedBuild' type-id='type-id-17' visibility='default' filepath='/tmp/legendre/spack-stage/spack-stage-R_crTC/VTK-6.1.0/Rendering/LIC/vtkLineIntegralConvolution2D.h' line='367' column='1'/>
      </data-member>
      <data-member access='protected' layout-offset-in-bits='640'>
        <!-- vtkShaderProgram2* vtkLineIntegralConvolution2D::VTShader -->
        <var-decl name='VTShader' type-id='type-id-101' visibility='default' filepath='/tmp/legendre/spack-stage/spack-stage-R_crTC/VTK-6.1.0/Rendering/LIC/vtkLineIntegralConvolution2D.h' line='368' column='1'/>
      </data-member>
      <data-member access='protected' layout-offset-in-bits='704'>
        <!-- vtkShaderProgram2* vtkLineIntegralConvolution2D::LIC0Shader -->
        <var-decl name='LIC0Shader' type-id='type-id-101' visibility='default' filepath='/tmp/legendre/spack-stage/spack-stage-R_crTC/VTK-6.1.0/Rendering/LIC/vtkLineIntegralConvolution2D.h' line='369' column='1'/>
      </data-member>
      <data-member access='protected' layout-offset-in-bits='768'>
        <!-- vtkShaderProgram2* vtkLineIntegralConvolution2D::LICIShader -->
        <var-decl name='LICIShader' type-id='type-id-101' visibility='default' filepath='/tmp/legendre/spack-stage/spack-stage-R_crTC/VTK-6.1.0/Rendering/LIC/vtkLineIntegralConvolution2D.h' line='370' column='1'/>
      </data-member>
      <data-member access='protected' layout-offset-in-bits='832'>
        <!-- vtkShaderProgram2* vtkLineIntegralConvolution2D::LICNShader -->
        <var-decl name='LICNShader' type-id='type-id-101' visibility='default' filepath='/tmp/legendre/spack-stage/spack-stage-R_crTC/VTK-6.1.0/Rendering/LIC/vtkLineIntegralConvolution2D.h' line='371' column='1'/>
      </data-member>
      <data-member access='protected' layout-offset-in-bits='896'>
        <!-- vtkShaderProgram2* vtkLineIntegralConvolution2D::EEShader -->
        <var-decl name='EEShader' type-id='type-id-101' visibility='default' filepath='/tmp/legendre/spack-stage/spack-stage-R_crTC/VTK-6.1.0/Rendering/LIC/vtkLineIntegralConvolution2D.h' line='372' column='1'/>
      </data-member>
      <data-member access='protected' layout-offset-in-bits='960'>
        <!-- vtkShaderProgram2* vtkLineIntegralConvolution2D::CEShader -->
        <var-decl name='CEShader' type-id='type-id-101' visibility='default' filepath='/tmp/legendre/spack-stage/spack-stage-R_crTC/VTK-6.1.0/Rendering/LIC/vtkLineIntegralConvolution2D.h' line='373' column='1'/>
      </data-member>
      <data-member access='protected' layout-offset-in-bits='1024'>
        <!-- vtkShaderProgram2* vtkLineIntegralConvolution2D::AAHShader -->
        <var-decl name='AAHShader' type-id='type-id-101' visibility='default' filepath='/tmp/legendre/spack-stage/spack-stage-R_crTC/VTK-6.1.0/Rendering/LIC/vtkLineIntegralConvolution2D.h' line='374' column='1'/>
      </data-member>
      <data-member access='protected' layout-offset-in-bits='1088'>
        <!-- vtkShaderProgram2* vtkLineIntegralConvolution2D::AAVShader -->
        <var-decl name='AAVShader' type-id='type-id-101' visibility='default' filepath='/tmp/legendre/spack-stage/spack-stage-R_crTC/VTK-6.1.0/Rendering/LIC/vtkLineIntegralConvolution2D.h' line='375' column='1'/>
      </data-member>
      <data-member access='protected' layout-offset-in-bits='1152'>
        <!-- int vtkLineIntegralConvolution2D::NumberOfSteps -->
        <var-decl name='NumberOfSteps' type-id='type-id-17' visibility='default' filepath='/tmp/legendre/spack-stage/spack-stage-R_crTC/VTK-6.1.0/Rendering/LIC/vtkLineIntegralConvolution2D.h' line='377' column='1'/>
      </data-member>
      <data-member access='protected' layout-offset-in-bits='1216'>
        <!-- double vtkLineIntegralConvolution2D::StepSize -->
        <var-decl name='StepSize' type-id='type-id-15' visibility='default' filepath='/tmp/legendre/spack-stage/spack-stage-R_crTC/VTK-6.1.0/Rendering/LIC/vtkLineIntegralConvolution2D.h' line='378' column='1'/>
      </data-member>
      <data-member access='protected' layout-offset-in-bits='1280'>
        <!-- int vtkLineIntegralConvolution2D::EnhancedLIC -->
        <var-decl name='EnhancedLIC' type-id='type-id-17' visibility='default' filepath='/tmp/legendre/spack-stage/spack-stage-R_crTC/VTK-6.1.0/Rendering/LIC/vtkLineIntegralConvolution2D.h' line='379' column='1'/>
      </data-member>
      <data-member access='protected' layout-offset-in-bits='1312'>
        <!-- int vtkLineIntegralConvolution2D::EnhanceContrast -->
        <var-decl name='EnhanceContrast' type-id='type-id-17' visibility='default' filepath='/tmp/legendre/spack-stage/spack-stage-R_crTC/VTK-6.1.0/Rendering/LIC/vtkLineIntegralConvolution2D.h' line='380' column='1'/>
      </data-member>
      <data-member access='protected' layout-offset-in-bits='1344'>
        <!-- double vtkLineIntegralConvolution2D::LowContrastEnhancementFactor -->
        <var-decl name='LowContrastEnhancementFactor' type-id='type-id-15' visibility='default' filepath='/tmp/legendre/spack-stage/spack-stage-R_crTC/VTK-6.1.0/Rendering/LIC/vtkLineIntegralConvolution2D.h' line='381' column='1'/>
      </data-member>
      <data-member access='protected' layout-offset-in-bits='1408'>
        <!-- double vtkLineIntegralConvolution2D::HighContrastEnhancementFactor -->
        <var-decl name='HighContrastEnhancementFactor' type-id='type-id-15' visibility='default' filepath='/tmp/legendre/spack-stage/spack-stage-R_crTC/VTK-6.1.0/Rendering/LIC/vtkLineIntegralConvolution2D.h' line='382' column='1'/>
      </data-member>
      <data-member access='protected' layout-offset-in-bits='1472'>
        <!-- int vtkLineIntegralConvolution2D::AntiAlias -->
        <var-decl name='AntiAlias' type-id='type-id-17' visibility='default' filepath='/tmp/legendre/spack-stage/spack-stage-R_crTC/VTK-6.1.0/Rendering/LIC/vtkLineIntegralConvolution2D.h' line='383' column='1'/>
      </data-member>
      <data-member access='protected' layout-offset-in-bits='1504'>
        <!-- int vtkLineIntegralConvolution2D::NoiseTextureLookupCompatibilityMode -->
        <var-decl name='NoiseTextureLookupCompatibilityMode' type-id='type-id-17' visibility='default' filepath='/tmp/legendre/spack-stage/spack-stage-R_crTC/VTK-6.1.0/Rendering/LIC/vtkLineIntegralConvolution2D.h' line='384' column='1'/>
      </data-member>
      <data-member access='protected' layout-offset-in-bits='1536'>
        <!-- double vtkLineIntegralConvolution2D::MaskThreshold -->
        <var-decl name='MaskThreshold' type-id='type-id-15' visibility='default' filepath='/tmp/legendre/spack-stage/spack-stage-R_crTC/VTK-6.1.0/Rendering/LIC/vtkLineIntegralConvolution2D.h' line='385' column='1'/>
      </data-member>
      <data-member access='protected' layout-offset-in-bits='1600'>
        <!-- int vtkLineIntegralConvolution2D::TransformVectors -->
        <var-decl name='TransformVectors' type-id='type-id-17' visibility='default' filepath='/tmp/legendre/spack-stage/spack-stage-R_crTC/VTK-6.1.0/Rendering/LIC/vtkLineIntegralConvolution2D.h' line='386' column='1'/>
      </data-member>
      <data-member access='protected' layout-offset-in-bits='1632'>
        <!-- int vtkLineIntegralConvolution2D::NormalizeVectors -->
        <var-decl name='NormalizeVectors' type-id='type-id-17' visibility='default' filepath='/tmp/legendre/spack-stage/spack-stage-R_crTC/VTK-6.1.0/Rendering/LIC/vtkLineIntegralConvolution2D.h' line='387' column='1'/>
      </data-member>
      <data-member access='protected' layout-offset-in-bits='1664'>
        <!-- int vtkLineIntegralConvolution2D::ComponentIds[2] -->
        <var-decl name='ComponentIds' type-id='type-id-338' visibility='default' filepath='/tmp/legendre/spack-stage/spack-stage-R_crTC/VTK-6.1.0/Rendering/LIC/vtkLineIntegralConvolution2D.h' line='388' column='1'/>
      </data-member>
      <data-member access='protected' layout-offset-in-bits='1728'>
        <!-- double vtkLineIntegralConvolution2D::MaxNoiseValue -->
        <var-decl name='MaxNoiseValue' type-id='type-id-15' visibility='default' filepath='/tmp/legendre/spack-stage/spack-stage-R_crTC/VTK-6.1.0/Rendering/LIC/vtkLineIntegralConvolution2D.h' line='389' column='1'/>
      </data-member>
      <member-function access='protected' constructor='yes'>
        <!-- vtkLineIntegralConvolution2D::vtkLineIntegralConvolution2D() -->
        <function-decl name='vtkLineIntegralConvolution2D' mangled-name='_ZN28vtkLineIntegralConvolution2DC1Ev' filepath='/tmp/legendre/spack-stage/spack-stage-R_crTC/VTK-6.1.0/Rendering/LIC/vtkLineIntegralConvolution2D.cxx' line='959' column='1' visibility='default' binding='global' size-in-bits='64' elf-symbol-id='_ZN28vtkLineIntegralConvolution2DC1Ev'>
          <!-- implicit parameter of type 'vtkLineIntegralConvolution2D*' -->
          <parameter type-id='type-id-351' is-artificial='yes'/>
          <!-- void -->
          <return type-id='type-id-27'/>
        </function-decl>
      </member-function>
      <member-function access='private' constructor='yes'>
        <!-- vtkLineIntegralConvolution2D::vtkLineIntegralConvolution2D(const vtkLineIntegralConvolution2D&) -->
        <function-decl name='vtkLineIntegralConvolution2D' filepath='/tmp/legendre/spack-stage/spack-stage-R_crTC/VTK-6.1.0/Rendering/LIC/vtkLineIntegralConvolution2D.h' line='392' column='1' visibility='default' binding='global' size-in-bits='64'>
          <!-- implicit parameter of type 'vtkLineIntegralConvolution2D*' -->
          <parameter type-id='type-id-351' is-artificial='yes'/>
          <!-- parameter of type 'const vtkLineIntegralConvolution2D&' -->
          <parameter type-id='type-id-352'/>
          <!-- void -->
          <return type-id='type-id-27'/>
        </function-decl>
      </member-function>
      <member-function access='private'>
        <!-- vtkRenderWindow* vtkLineIntegralConvolution2D::GetContext() -->
        <function-decl name='GetContext' mangled-name='_ZN28vtkLineIntegralConvolution2D10GetContextEv' filepath='/tmp/legendre/spack-stage/spack-stage-R_crTC/VTK-6.1.0/Rendering/LIC/vtkLineIntegralConvolution2D.cxx' line='1024' column='1' visibility='default' binding='global' size-in-bits='64' elf-symbol-id='_ZN28vtkLineIntegralConvolution2D10GetContextEv'>
          <!-- implicit parameter of type 'vtkLineIntegralConvolution2D* const' -->
          <parameter type-id='type-id-353' name='this' is-artificial='yes'/>
          <!-- vtkRenderWindow* -->
          <return type-id='type-id-76'/>
        </function-decl>
      </member-function>
      <member-function access='private'>
        <!-- void vtkLineIntegralConvolution2D::SetComponentIds(int, int) -->
        <function-decl name='SetComponentIds' mangled-name='_ZN28vtkLineIntegralConvolution2D15SetComponentIdsEii' filepath='/tmp/legendre/spack-stage/spack-stage-R_crTC/VTK-6.1.0/Rendering/LIC/vtkLineIntegralConvolution2D.cxx' line='1115' column='1' visibility='default' binding='global' size-in-bits='64' elf-symbol-id='_ZN28vtkLineIntegralConvolution2D15SetComponentIdsEii'>
          <!-- implicit parameter of type 'vtkLineIntegralConvolution2D* const' -->
          <parameter type-id='type-id-353' name='this' is-artificial='yes'/>
          <!-- parameter of type 'int' -->
          <parameter type-id='type-id-17' name='c0' filepath='/tmp/legendre/spack-stage/spack-stage-R_crTC/VTK-6.1.0/Rendering/LIC/vtkLineIntegralConvolution2D.cxx' line='1115' column='1'/>
          <!-- parameter of type 'int' -->
          <parameter type-id='type-id-17' name='c1' filepath='/tmp/legendre/spack-stage/spack-stage-R_crTC/VTK-6.1.0/Rendering/LIC/vtkLineIntegralConvolution2D.cxx' line='1115' column='1'/>
          <!-- void -->
          <return type-id='type-id-27'/>
        </function-decl>
      </member-function>
      <member-function access='private'>
        <!-- void vtkLineIntegralConvolution2D::SetTransformVectors(int) -->
        <function-decl name='SetTransformVectors' mangled-name='_ZN28vtkLineIntegralConvolution2D19SetTransformVectorsEi' filepath='/tmp/legendre/spack-stage/spack-stage-R_crTC/VTK-6.1.0/Rendering/LIC/vtkLineIntegralConvolution2D.cxx' line='1128' column='1' visibility='default' binding='global' size-in-bits='64' elf-symbol-id='_ZN28vtkLineIntegralConvolution2D19SetTransformVectorsEi'>
          <!-- implicit parameter of type 'vtkLineIntegralConvolution2D*' -->
          <parameter type-id='type-id-351' is-artificial='yes'/>
          <!-- parameter of type 'int' -->
          <parameter type-id='type-id-17'/>
          <!-- void -->
          <return type-id='type-id-27'/>
        </function-decl>
      </member-function>
      <member-function access='private'>
        <!-- void vtkLineIntegralConvolution2D::SetNormalizeVectors(int) -->
        <function-decl name='SetNormalizeVectors' mangled-name='_ZN28vtkLineIntegralConvolution2D19SetNormalizeVectorsEi' filepath='/tmp/legendre/spack-stage/spack-stage-R_crTC/VTK-6.1.0/Rendering/LIC/vtkLineIntegralConvolution2D.cxx' line='1142' column='1' visibility='default' binding='global' size-in-bits='64' elf-symbol-id='_ZN28vtkLineIntegralConvolution2D19SetNormalizeVectorsEi'>
          <!-- implicit parameter of type 'vtkLineIntegralConvolution2D*' -->
          <parameter type-id='type-id-351' is-artificial='yes'/>
          <!-- parameter of type 'int' -->
          <parameter type-id='type-id-17'/>
          <!-- void -->
          <return type-id='type-id-27'/>
        </function-decl>
      </member-function>
      <member-function access='protected'>
        <!-- void vtkLineIntegralConvolution2D::SetVTShader(vtkShaderProgram2*) -->
        <function-decl name='SetVTShader' mangled-name='_ZN28vtkLineIntegralConvolution2D11SetVTShaderEP17vtkShaderProgram2' filepath='/tmp/legendre/spack-stage/spack-stage-R_crTC/VTK-6.1.0/Rendering/LIC/vtkLineIntegralConvolution2D.cxx' line='1156' column='1' visibility='default' binding='global' size-in-bits='64' elf-symbol-id='_ZN28vtkLineIntegralConvolution2D11SetVTShaderEP17vtkShaderProgram2'>
          <!-- implicit parameter of type 'vtkLineIntegralConvolution2D* const' -->
          <parameter type-id='type-id-353' name='this' is-artificial='yes'/>
          <!-- parameter of type 'vtkShaderProgram2*' -->
          <parameter type-id='type-id-101' name='prog' filepath='/tmp/legendre/spack-stage/spack-stage-R_crTC/VTK-6.1.0/Rendering/LIC/vtkLineIntegralConvolution2D.cxx' line='1156' column='1'/>
          <!-- void -->
          <return type-id='type-id-27'/>
        </function-decl>
      </member-function>
      <member-function access='protected'>
        <!-- void vtkLineIntegralConvolution2D::SetLIC0Shader(vtkShaderProgram2*) -->
        <function-decl name='SetLIC0Shader' mangled-name='_ZN28vtkLineIntegralConvolution2D13SetLIC0ShaderEP17vtkShaderProgram2' filepath='/tmp/legendre/spack-stage/spack-stage-R_crTC/VTK-6.1.0/Rendering/LIC/vtkLineIntegralConvolution2D.cxx' line='1162' column='1' visibility='default' binding='global' size-in-bits='64' elf-symbol-id='_ZN28vtkLineIntegralConvolution2D13SetLIC0ShaderEP17vtkShaderProgram2'>
          <!-- implicit parameter of type 'vtkLineIntegralConvolution2D* const' -->
          <parameter type-id='type-id-353' name='this' is-artificial='yes'/>
          <!-- parameter of type 'vtkShaderProgram2*' -->
          <parameter type-id='type-id-101' name='prog' filepath='/tmp/legendre/spack-stage/spack-stage-R_crTC/VTK-6.1.0/Rendering/LIC/vtkLineIntegralConvolution2D.cxx' line='1156' column='1'/>
          <!-- void -->
          <return type-id='type-id-27'/>
        </function-decl>
      </member-function>
      <member-function access='protected'>
        <!-- void vtkLineIntegralConvolution2D::SetLICIShader(vtkShaderProgram2*) -->
        <function-decl name='SetLICIShader' mangled-name='_ZN28vtkLineIntegralConvolution2D13SetLICIShaderEP17vtkShaderProgram2' filepath='/tmp/legendre/spack-stage/spack-stage-R_crTC/VTK-6.1.0/Rendering/LIC/vtkLineIntegralConvolution2D.cxx' line='1168' column='1' visibility='default' binding='global' size-in-bits='64' elf-symbol-id='_ZN28vtkLineIntegralConvolution2D13SetLICIShaderEP17vtkShaderProgram2'>
          <!-- implicit parameter of type 'vtkLineIntegralConvolution2D* const' -->
          <parameter type-id='type-id-353' name='this' is-artificial='yes'/>
          <!-- parameter of type 'vtkShaderProgram2*' -->
          <parameter type-id='type-id-101' name='prog' filepath='/tmp/legendre/spack-stage/spack-stage-R_crTC/VTK-6.1.0/Rendering/LIC/vtkLineIntegralConvolution2D.cxx' line='1156' column='1'/>
          <!-- void -->
          <return type-id='type-id-27'/>
        </function-decl>
      </member-function>
      <member-function access='protected'>
        <!-- void vtkLineIntegralConvolution2D::SetLICNShader(vtkShaderProgram2*) -->
        <function-decl name='SetLICNShader' mangled-name='_ZN28vtkLineIntegralConvolution2D13SetLICNShaderEP17vtkShaderProgram2' filepath='/tmp/legendre/spack-stage/spack-stage-R_crTC/VTK-6.1.0/Rendering/LIC/vtkLineIntegralConvolution2D.cxx' line='1174' column='1' visibility='default' binding='global' size-in-bits='64' elf-symbol-id='_ZN28vtkLineIntegralConvolution2D13SetLICNShaderEP17vtkShaderProgram2'>
          <!-- implicit parameter of type 'vtkLineIntegralConvolution2D* const' -->
          <parameter type-id='type-id-353' name='this' is-artificial='yes'/>
          <!-- parameter of type 'vtkShaderProgram2*' -->
          <parameter type-id='type-id-101' name='prog' filepath='/tmp/legendre/spack-stage/spack-stage-R_crTC/VTK-6.1.0/Rendering/LIC/vtkLineIntegralConvolution2D.cxx' line='1156' column='1'/>
          <!-- void -->
          <return type-id='type-id-27'/>
        </function-decl>
      </member-function>
      <member-function access='protected'>
        <!-- void vtkLineIntegralConvolution2D::SetEEShader(vtkShaderProgram2*) -->
        <function-decl name='SetEEShader' mangled-name='_ZN28vtkLineIntegralConvolution2D11SetEEShaderEP17vtkShaderProgram2' filepath='/tmp/legendre/spack-stage/spack-stage-R_crTC/VTK-6.1.0/Rendering/LIC/vtkLineIntegralConvolution2D.cxx' line='1180' column='1' visibility='default' binding='global' size-in-bits='64' elf-symbol-id='_ZN28vtkLineIntegralConvolution2D11SetEEShaderEP17vtkShaderProgram2'>
          <!-- implicit parameter of type 'vtkLineIntegralConvolution2D* const' -->
          <parameter type-id='type-id-353' name='this' is-artificial='yes'/>
          <!-- parameter of type 'vtkShaderProgram2*' -->
          <parameter type-id='type-id-101' name='prog' filepath='/tmp/legendre/spack-stage/spack-stage-R_crTC/VTK-6.1.0/Rendering/LIC/vtkLineIntegralConvolution2D.cxx' line='1156' column='1'/>
          <!-- void -->
          <return type-id='type-id-27'/>
        </function-decl>
      </member-function>
      <member-function access='protected'>
        <!-- void vtkLineIntegralConvolution2D::SetCEShader(vtkShaderProgram2*) -->
        <function-decl name='SetCEShader' mangled-name='_ZN28vtkLineIntegralConvolution2D11SetCEShaderEP17vtkShaderProgram2' filepath='/tmp/legendre/spack-stage/spack-stage-R_crTC/VTK-6.1.0/Rendering/LIC/vtkLineIntegralConvolution2D.cxx' line='1185' column='1' visibility='default' binding='global' size-in-bits='64' elf-symbol-id='_ZN28vtkLineIntegralConvolution2D11SetCEShaderEP17vtkShaderProgram2'>
          <!-- implicit parameter of type 'vtkLineIntegralConvolution2D* const' -->
          <parameter type-id='type-id-353' name='this' is-artificial='yes'/>
          <!-- parameter of type 'vtkShaderProgram2*' -->
          <parameter type-id='type-id-101' name='prog' filepath='/tmp/legendre/spack-stage/spack-stage-R_crTC/VTK-6.1.0/Rendering/LIC/vtkLineIntegralConvolution2D.cxx' line='1156' column='1'/>
          <!-- void -->
          <return type-id='type-id-27'/>
        </function-decl>
      </member-function>
      <member-function access='protected'>
        <!-- void vtkLineIntegralConvolution2D::SetAAHShader(vtkShaderProgram2*) -->
