<abi-corpus version='2.0' architecture='elf-amd-x86_64' soname='libtcmalloc_and_profiler.so.4'>
  <elf-needed>
    <dependency name='libunwind.so.8'/>
    <dependency name='libpthread.so.0'/>
    <dependency name='libstdc++.so.6'/>
    <dependency name='libm.so.6'/>
    <dependency name='libc.so.6'/>
    <dependency name='ld-linux-x86-64.so.2'/>
    <dependency name='libgcc_s.so.1'/>
  </elf-needed>
  <elf-function-symbols>
    <!-- GetHeapProfile -->
    <elf-symbol name='GetHeapProfile' type='func-type' binding='global-binding' visibility='default-visibility' is-defined='yes'/>
    <!-- HeapProfilerDump -->
    <elf-symbol name='HeapProfilerDump' type='func-type' binding='global-binding' visibility='default-visibility' is-defined='yes'/>
    <!-- HeapProfilerStart -->
    <elf-symbol name='HeapProfilerStart' type='func-type' binding='global-binding' visibility='default-visibility' is-defined='yes'/>
    <!-- HeapProfilerStop -->
    <elf-symbol name='HeapProfilerStop' type='func-type' binding='global-binding' visibility='default-visibility' is-defined='yes'/>
    <!-- IsHeapProfilerRunning -->
    <elf-symbol name='IsHeapProfilerRunning' type='func-type' binding='global-binding' visibility='default-visibility' is-defined='yes'/>
    <!-- MallocExtension_GetAllocatedSize -->
    <elf-symbol name='MallocExtension_GetAllocatedSize' type='func-type' binding='global-binding' visibility='default-visibility' is-defined='yes'/>
    <!-- MallocExtension_GetEstimatedAllocatedSize -->
    <elf-symbol name='MallocExtension_GetEstimatedAllocatedSize' type='func-type' binding='global-binding' visibility='default-visibility' is-defined='yes'/>
    <!-- MallocExtension_GetNumericProperty -->
    <elf-symbol name='MallocExtension_GetNumericProperty' type='func-type' binding='global-binding' visibility='default-visibility' is-defined='yes'/>
    <!-- MallocExtension_GetOwnership -->
    <elf-symbol name='MallocExtension_GetOwnership' type='func-type' binding='global-binding' visibility='default-visibility' is-defined='yes'/>
    <!-- MallocExtension_GetStats -->
    <elf-symbol name='MallocExtension_GetStats' type='func-type' binding='global-binding' visibility='default-visibility' is-defined='yes'/>
    <!-- MallocExtension_MallocMemoryStats -->
    <elf-symbol name='MallocExtension_MallocMemoryStats' type='func-type' binding='global-binding' visibility='default-visibility' is-defined='yes'/>
    <!-- MallocExtension_MarkThreadBusy -->
    <elf-symbol name='MallocExtension_MarkThreadBusy' type='func-type' binding='global-binding' visibility='default-visibility' is-defined='yes'/>
    <!-- MallocExtension_MarkThreadIdle -->
    <elf-symbol name='MallocExtension_MarkThreadIdle' type='func-type' binding='global-binding' visibility='default-visibility' is-defined='yes'/>
    <!-- MallocExtension_ReleaseFreeMemory -->
    <elf-symbol name='MallocExtension_ReleaseFreeMemory' type='func-type' binding='global-binding' visibility='default-visibility' is-defined='yes'/>
    <!-- MallocExtension_ReleaseToSystem -->
    <elf-symbol name='MallocExtension_ReleaseToSystem' type='func-type' binding='global-binding' visibility='default-visibility' is-defined='yes'/>
    <!-- MallocExtension_SetNumericProperty -->
    <elf-symbol name='MallocExtension_SetNumericProperty' type='func-type' binding='global-binding' visibility='default-visibility' is-defined='yes'/>
    <!-- MallocExtension_VerifyAllMemory -->
    <elf-symbol name='MallocExtension_VerifyAllMemory' type='func-type' binding='global-binding' visibility='default-visibility' is-defined='yes'/>
    <!-- MallocExtension_VerifyArrayNewMemory -->
    <elf-symbol name='MallocExtension_VerifyArrayNewMemory' type='func-type' binding='global-binding' visibility='default-visibility' is-defined='yes'/>
    <!-- MallocExtension_VerifyMallocMemory -->
    <elf-symbol name='MallocExtension_VerifyMallocMemory' type='func-type' binding='global-binding' visibility='default-visibility' is-defined='yes'/>
    <!-- MallocExtension_VerifyNewMemory -->
    <elf-symbol name='MallocExtension_VerifyNewMemory' type='func-type' binding='global-binding' visibility='default-visibility' is-defined='yes'/>
    <!-- MallocHook_AddDeleteHook -->
    <elf-symbol name='MallocHook_AddDeleteHook' type='func-type' binding='global-binding' visibility='default-visibility' is-defined='yes'/>
    <!-- MallocHook_AddMmapHook -->
    <elf-symbol name='MallocHook_AddMmapHook' type='func-type' binding='global-binding' visibility='default-visibility' is-defined='yes'/>
    <!-- MallocHook_AddMremapHook -->
    <elf-symbol name='MallocHook_AddMremapHook' type='func-type' binding='global-binding' visibility='default-visibility' is-defined='yes'/>
    <!-- MallocHook_AddMunmapHook -->
    <elf-symbol name='MallocHook_AddMunmapHook' type='func-type' binding='global-binding' visibility='default-visibility' is-defined='yes'/>
    <!-- MallocHook_AddNewHook -->
    <elf-symbol name='MallocHook_AddNewHook' type='func-type' binding='global-binding' visibility='default-visibility' is-defined='yes'/>
    <!-- MallocHook_AddPreMmapHook -->
    <elf-symbol name='MallocHook_AddPreMmapHook' type='func-type' binding='global-binding' visibility='default-visibility' is-defined='yes'/>
    <!-- MallocHook_AddPreSbrkHook -->
    <elf-symbol name='MallocHook_AddPreSbrkHook' type='func-type' binding='global-binding' visibility='default-visibility' is-defined='yes'/>
    <!-- MallocHook_AddSbrkHook -->
    <elf-symbol name='MallocHook_AddSbrkHook' type='func-type' binding='global-binding' visibility='default-visibility' is-defined='yes'/>
    <!-- MallocHook_GetCallerStackTrace -->
    <elf-symbol name='MallocHook_GetCallerStackTrace' type='func-type' binding='global-binding' visibility='default-visibility' is-defined='yes'/>
    <!-- MallocHook_InitAtFirstAllocation_HeapLeakChecker -->
    <elf-symbol name='MallocHook_InitAtFirstAllocation_HeapLeakChecker' type='func-type' binding='global-binding' visibility='default-visibility' is-defined='yes'/>
    <!-- MallocHook_RemoveDeleteHook -->
    <elf-symbol name='MallocHook_RemoveDeleteHook' type='func-type' binding='global-binding' visibility='default-visibility' is-defined='yes'/>
    <!-- MallocHook_RemoveMmapHook -->
    <elf-symbol name='MallocHook_RemoveMmapHook' type='func-type' binding='global-binding' visibility='default-visibility' is-defined='yes'/>
    <!-- MallocHook_RemoveMmapReplacement -->
    <elf-symbol name='MallocHook_RemoveMmapReplacement' type='func-type' binding='global-binding' visibility='default-visibility' is-defined='yes'/>
    <!-- MallocHook_RemoveMremapHook -->
    <elf-symbol name='MallocHook_RemoveMremapHook' type='func-type' binding='global-binding' visibility='default-visibility' is-defined='yes'/>
    <!-- MallocHook_RemoveMunmapHook -->
    <elf-symbol name='MallocHook_RemoveMunmapHook' type='func-type' binding='global-binding' visibility='default-visibility' is-defined='yes'/>
    <!-- MallocHook_RemoveMunmapReplacement -->
    <elf-symbol name='MallocHook_RemoveMunmapReplacement' type='func-type' binding='global-binding' visibility='default-visibility' is-defined='yes'/>
    <!-- MallocHook_RemoveNewHook -->
    <elf-symbol name='MallocHook_RemoveNewHook' type='func-type' binding='global-binding' visibility='default-visibility' is-defined='yes'/>
    <!-- MallocHook_RemovePreMmapHook -->
    <elf-symbol name='MallocHook_RemovePreMmapHook' type='func-type' binding='global-binding' visibility='default-visibility' is-defined='yes'/>
    <!-- MallocHook_RemovePreSbrkHook -->
    <elf-symbol name='MallocHook_RemovePreSbrkHook' type='func-type' binding='global-binding' visibility='default-visibility' is-defined='yes'/>
    <!-- MallocHook_RemoveSbrkHook -->
    <elf-symbol name='MallocHook_RemoveSbrkHook' type='func-type' binding='global-binding' visibility='default-visibility' is-defined='yes'/>
    <!-- MallocHook_SetDeleteHook -->
    <elf-symbol name='MallocHook_SetDeleteHook' type='func-type' binding='global-binding' visibility='default-visibility' is-defined='yes'/>
    <!-- MallocHook_SetMmapHook -->
    <elf-symbol name='MallocHook_SetMmapHook' type='func-type' binding='global-binding' visibility='default-visibility' is-defined='yes'/>
    <!-- MallocHook_SetMmapReplacement -->
    <elf-symbol name='MallocHook_SetMmapReplacement' type='func-type' binding='global-binding' visibility='default-visibility' is-defined='yes'/>
    <!-- MallocHook_SetMremapHook -->
    <elf-symbol name='MallocHook_SetMremapHook' type='func-type' binding='global-binding' visibility='default-visibility' is-defined='yes'/>
    <!-- MallocHook_SetMunmapHook -->
    <elf-symbol name='MallocHook_SetMunmapHook' type='func-type' binding='global-binding' visibility='default-visibility' is-defined='yes'/>
    <!-- MallocHook_SetMunmapReplacement -->
    <elf-symbol name='MallocHook_SetMunmapReplacement' type='func-type' binding='global-binding' visibility='default-visibility' is-defined='yes'/>
    <!-- MallocHook_SetNewHook -->
    <elf-symbol name='MallocHook_SetNewHook' type='func-type' binding='global-binding' visibility='default-visibility' is-defined='yes'/>
    <!-- MallocHook_SetPreMmapHook -->
    <elf-symbol name='MallocHook_SetPreMmapHook' type='func-type' binding='global-binding' visibility='default-visibility' is-defined='yes'/>
    <!-- MallocHook_SetPreSbrkHook -->
    <elf-symbol name='MallocHook_SetPreSbrkHook' type='func-type' binding='global-binding' visibility='default-visibility' is-defined='yes'/>
    <!-- MallocHook_SetSbrkHook -->
    <elf-symbol name='MallocHook_SetSbrkHook' type='func-type' binding='global-binding' visibility='default-visibility' is-defined='yes'/>
    <!-- ProfileHandlerGetState -->
    <elf-symbol name='ProfileHandlerGetState' type='func-type' binding='global-binding' visibility='default-visibility' is-defined='yes'/>
    <!-- ProfileHandlerRegisterCallback -->
    <elf-symbol name='ProfileHandlerRegisterCallback' type='func-type' binding='global-binding' visibility='default-visibility' is-defined='yes'/>
    <!-- ProfileHandlerRegisterThread -->
    <elf-symbol name='ProfileHandlerRegisterThread' type='func-type' binding='global-binding' visibility='default-visibility' is-defined='yes'/>
    <!-- ProfileHandlerReset -->
    <elf-symbol name='ProfileHandlerReset' type='func-type' binding='global-binding' visibility='default-visibility' is-defined='yes'/>
    <!-- ProfileHandlerUnregisterCallback -->
    <elf-symbol name='ProfileHandlerUnregisterCallback' type='func-type' binding='global-binding' visibility='default-visibility' is-defined='yes'/>
    <!-- ProfilerDisable -->
    <elf-symbol name='ProfilerDisable' type='func-type' binding='global-binding' visibility='default-visibility' is-defined='yes'/>
    <!-- ProfilerEnable -->
    <elf-symbol name='ProfilerEnable' type='func-type' binding='global-binding' visibility='default-visibility' is-defined='yes'/>
    <!-- ProfilerFlush -->
    <elf-symbol name='ProfilerFlush' type='func-type' binding='global-binding' visibility='default-visibility' is-defined='yes'/>
    <!-- ProfilerGetCurrentState -->
    <elf-symbol name='ProfilerGetCurrentState' type='func-type' binding='global-binding' visibility='default-visibility' is-defined='yes'/>
    <!-- ProfilerRegisterThread -->
    <elf-symbol name='ProfilerRegisterThread' type='func-type' binding='global-binding' visibility='default-visibility' is-defined='yes'/>
    <!-- ProfilerStart -->
    <elf-symbol name='ProfilerStart' type='func-type' binding='global-binding' visibility='default-visibility' is-defined='yes'/>
    <!-- ProfilerStartWithOptions -->
    <elf-symbol name='ProfilerStartWithOptions' type='func-type' binding='global-binding' visibility='default-visibility' is-defined='yes'/>
    <!-- ProfilerStop -->
    <elf-symbol name='ProfilerStop' type='func-type' binding='global-binding' visibility='default-visibility' is-defined='yes'/>
    <!-- ProfilingIsEnabledForAllThreads -->
    <elf-symbol name='ProfilingIsEnabledForAllThreads' type='func-type' binding='global-binding' visibility='default-visibility' is-defined='yes'/>
    <!-- RunningOnValgrind -->
    <elf-symbol name='RunningOnValgrind' type='func-type' binding='global-binding' visibility='default-visibility' is-defined='yes'/>
    <!-- TCMallocGetenvSafe -->
    <elf-symbol name='TCMallocGetenvSafe' type='func-type' binding='global-binding' visibility='default-visibility' is-defined='yes'/>
    <!-- TCMalloc_ListAllProcessThreads -->
    <elf-symbol name='TCMalloc_ListAllProcessThreads' type='func-type' binding='global-binding' visibility='default-visibility' is-defined='yes'/>
    <!-- TCMalloc_ResumeAllProcessThreads -->
    <elf-symbol name='TCMalloc_ResumeAllProcessThreads' type='func-type' binding='global-binding' visibility='default-visibility' is-defined='yes'/>
    <!-- ValgrindSlowdown -->
    <elf-symbol name='ValgrindSlowdown' type='func-type' binding='global-binding' visibility='default-visibility' is-defined='yes'/>
    <!-- GetStackTrace(void**, int, int) -->
    <elf-symbol name='_Z13GetStackTracePPvii' type='func-type' binding='global-binding' visibility='default-visibility' is-defined='yes'/>
    <!-- GetStackFrames(void**, int*, int, int) -->
    <elf-symbol name='_Z14GetStackFramesPPvPiii' type='func-type' binding='global-binding' visibility='default-visibility' is-defined='yes'/>
    <!-- CyclesPerSecond() -->
    <elf-symbol name='_Z15CyclesPerSecondv' type='func-type' binding='global-binding' visibility='default-visibility' is-defined='yes'/>
    <!-- HasPosixThreads() -->
    <elf-symbol name='_Z15HasPosixThreadsv' type='func-type' binding='global-binding' visibility='default-visibility' is-defined='yes'/>
    <!-- GetenvBeforeMain(char const*) -->
    <elf-symbol name='_Z16GetenvBeforeMainPKc' type='func-type' binding='global-binding' visibility='default-visibility' is-defined='yes'/>
    <!-- RawOpenForWriting(char const*) -->
    <elf-symbol name='_Z17RawOpenForWritingPKc' type='func-type' binding='global-binding' visibility='default-visibility' is-defined='yes'/>
    <!-- GetUniquePathFromEnv(char const*, char*) -->
    <elf-symbol name='_Z20GetUniquePathFromEnvPKcPc' type='func-type' binding='global-binding' visibility='default-visibility' is-defined='yes'/>
    <!-- InitSystemAllocators() -->
    <elf-symbol name='_Z20InitSystemAllocatorsv' type='func-type' binding='global-binding' visibility='default-visibility' is-defined='yes'/>
    <!-- SleepForMilliseconds(int) -->
    <elf-symbol name='_Z20SleepForMillisecondsi' type='func-type' binding='global-binding' visibility='default-visibility' is-defined='yes'/>
    <!-- TCMalloc_SystemAlloc(unsigned long, unsigned long*, unsigned long) -->
    <elf-symbol name='_Z20TCMalloc_SystemAllocmPmm' type='func-type' binding='global-binding' visibility='default-visibility' is-defined='yes'/>
    <!-- TCMalloc_SystemCommit(void*, unsigned long) -->
    <elf-symbol name='_Z21TCMalloc_SystemCommitPvm' type='func-type' binding='global-binding' visibility='default-visibility' is-defined='yes'/>
    <!-- TCMalloc_SystemRelease(void*, unsigned long) -->
    <elf-symbol name='_Z22TCMalloc_SystemReleasePvm' type='func-type' binding='global-binding' visibility='default-visibility' is-defined='yes'/>
    <!-- perftools_pthread_once(int*, void (*)()) -->
    <elf-symbol name='_Z22perftools_pthread_oncePiPFvvE' type='func-type' binding='global-binding' visibility='default-visibility' is-defined='yes'/>
    <!-- GetStackTraceWithContext(void**, int, int, void const*) -->
    <elf-symbol name='_Z24GetStackTraceWithContextPPviiPKv' type='func-type' binding='global-binding' visibility='default-visibility' is-defined='yes'/>
    <!-- tc_get_sysalloc_override(SysAllocator*) -->
    <elf-symbol name='_Z24tc_get_sysalloc_overrideP12SysAllocator' type='func-type' binding='weak-binding' visibility='default-visibility' is-defined='yes'/>
    <!-- GetStackFramesWithContext(void**, int*, int, int, void const*) -->
    <elf-symbol name='_Z25GetStackFramesWithContextPPvPiiiPKv' type='func-type' binding='global-binding' visibility='default-visibility' is-defined='yes'/>
    <!-- perftools_pthread_key_create(unsigned int*, void (*)(void*)) -->
    <elf-symbol name='_Z28perftools_pthread_key_createPjPFvPvE' type='func-type' binding='global-binding' visibility='default-visibility' is-defined='yes'/>
    <!-- perftools_pthread_key_delete(unsigned int) -->
    <elf-symbol name='_Z28perftools_pthread_key_deletej' type='func-type' binding='global-binding' visibility='default-visibility' is-defined='yes'/>
    <!-- perftools_pthread_getspecific(unsigned int) -->
    <elf-symbol name='_Z29perftools_pthread_getspecificj' type='func-type' binding='global-binding' visibility='default-visibility' is-defined='yes'/>
    <!-- perftools_pthread_setspecific(unsigned int, void*) -->
    <elf-symbol name='_Z29perftools_pthread_setspecificjPv' type='func-type' binding='global-binding' visibility='default-visibility' is-defined='yes'/>
    <!-- HeapLeakChecker_RunHeapCleanups() -->
    <elf-symbol name='_Z31HeapLeakChecker_RunHeapCleanupsv' type='func-type' binding='global-binding' visibility='default-visibility' is-defined='yes'/>
    <!-- HeapLeakChecker_AfterDestructors() -->
    <elf-symbol name='_Z32HeapLeakChecker_AfterDestructorsv' type='func-type' binding='global-binding' visibility='default-visibility' is-defined='yes'/>
    <!-- HeapLeakChecker_InternalInitStart() -->
    <elf-symbol name='_Z33HeapLeakChecker_InternalInitStartv' type='func-type' binding='global-binding' visibility='default-visibility' is-defined='yes'/>
    <!-- HeapLeakChecker_BeforeConstructors() -->
    <elf-symbol name='_Z34HeapLeakChecker_BeforeConstructorsv' type='func-type' binding='global-binding' visibility='default-visibility' is-defined='yes'/>
    <!-- NumCPUs() -->
    <elf-symbol name='_Z7NumCPUsv' type='func-type' binding='global-binding' visibility='default-visibility' is-defined='yes'/>
    <!-- RAW_LOG(int, char const*, ...) -->
    <elf-symbol name='_Z7RAW_LOGiPKcz' type='func-type' binding='weak-binding' visibility='default-visibility' is-defined='yes'/>
    <!-- RAW_VLOG(int, char const*, ...) -->
    <elf-symbol name='_Z8RAW_VLOGiPKcz' type='func-type' binding='weak-binding' visibility='default-visibility' is-defined='yes'/>
    <!-- RawClose(int) -->
    <elf-symbol name='_Z8RawClosei' type='func-type' binding='global-binding' visibility='default-visibility' is-defined='yes'/>
    <!-- RawWrite(int, char const*, unsigned long) -->
    <elf-symbol name='_Z8RawWriteiPKcm' type='func-type' binding='global-binding' visibility='default-visibility' is-defined='yes'/>
    <!-- LogPrintf(int, char const*, __va_list_tag*) -->
    <elf-symbol name='_Z9LogPrintfiPKcP13__va_list_tag' type='func-type' binding='weak-binding' visibility='default-visibility' is-defined='yes'/>
    <!-- AddressMap<HeapProfileTable::AllocValue>::Insert(void const*, HeapProfileTable::AllocValue) -->
    <elf-symbol name='_ZN10AddressMapIN16HeapProfileTable10AllocValueEE6InsertEPKvS1_' type='func-type' binding='weak-binding' visibility='default-visibility' is-defined='yes'/>
    <!-- AddressMap<HeapProfileTable::AllocValue>::AddressMap(void* (*)(unsigned long), void (*)(void*)) -->
    <elf-symbol name='_ZN10AddressMapIN16HeapProfileTable10AllocValueEEC1EPFPvmEPFvS3_E' type='func-type' binding='weak-binding' visibility='default-visibility' is-defined='yes'/>
    <!-- AddressMap<HeapProfileTable::AllocValue>::AddressMap(void* (*)(unsigned long), void (*)(void*)) -->
    <elf-symbol name='_ZN10AddressMapIN16HeapProfileTable10AllocValueEEC2EPFPvmEPFvS3_E' type='func-type' binding='weak-binding' visibility='default-visibility' alias='_ZN10AddressMapIN16HeapProfileTable10AllocValueEEC1EPFPvmEPFvS3_E' is-defined='yes'/>
    <!-- MallocHook::UnhookedMMap(void*, unsigned long, int, int, int, long) -->
    <elf-symbol name='_ZN10MallocHook12UnhookedMMapEPvmiiil' type='func-type' binding='global-binding' visibility='default-visibility' is-defined='yes'/>
    <!-- MallocHook::UnhookedMUnmap(void*, unsigned long) -->
    <elf-symbol name='_ZN10MallocHook14UnhookedMUnmapEPvm' type='func-type' binding='global-binding' visibility='default-visibility' is-defined='yes'/>
    <!-- MallocHook::InvokeNewHookSlow(void const*, unsigned long) -->
    <elf-symbol name='_ZN10MallocHook17InvokeNewHookSlowEPKvm' type='func-type' binding='global-binding' visibility='default-visibility' is-defined='yes'/>
    <!-- MallocHook::InvokeMmapHookSlow(void const*, void const*, unsigned long, int, int, int, long) -->
    <elf-symbol name='_ZN10MallocHook18InvokeMmapHookSlowEPKvS1_miiil' type='func-type' binding='global-binding' visibility='default-visibility' is-defined='yes'/>
    <!-- MallocHook::InvokeSbrkHookSlow(void const*, long) -->
    <elf-symbol name='_ZN10MallocHook18InvokeSbrkHookSlowEPKvl' type='func-type' binding='global-binding' visibility='default-visibility' is-defined='yes'/>
    <!-- MallocHook::InvokeDeleteHookSlow(void const*) -->
    <elf-symbol name='_ZN10MallocHook20InvokeDeleteHookSlowEPKv' type='func-type' binding='global-binding' visibility='default-visibility' is-defined='yes'/>
    <!-- MallocHook::InvokeMremapHookSlow(void const*, void const*, unsigned long, unsigned long, int, void const*) -->
    <elf-symbol name='_ZN10MallocHook20InvokeMremapHookSlowEPKvS1_mmiS1_' type='func-type' binding='global-binding' visibility='default-visibility' is-defined='yes'/>
    <!-- MallocHook::InvokeMunmapHookSlow(void const*, unsigned long) -->
    <elf-symbol name='_ZN10MallocHook20InvokeMunmapHookSlowEPKvm' type='func-type' binding='global-binding' visibility='default-visibility' is-defined='yes'/>
    <!-- MallocHook::InvokePreMmapHookSlow(void const*, unsigned long, int, int, int, long) -->
    <elf-symbol name='_ZN10MallocHook21InvokePreMmapHookSlowEPKvmiiil' type='func-type' binding='global-binding' visibility='default-visibility' is-defined='yes'/>
    <!-- MallocHook::InvokePreSbrkHookSlow(long) -->
    <elf-symbol name='_ZN10MallocHook21InvokePreSbrkHookSlowEl' type='func-type' binding='global-binding' visibility='default-visibility' is-defined='yes'/>
    <!-- MallocHook::InvokeMmapReplacementSlow(void const*, unsigned long, int, int, int, long, void**) -->
    <elf-symbol name='_ZN10MallocHook25InvokeMmapReplacementSlowEPKvmiiilPPv' type='func-type' binding='global-binding' visibility='default-visibility' is-defined='yes'/>
    <!-- MallocHook::InvokeMunmapReplacementSlow(void const*, unsigned long, int*) -->
    <elf-symbol name='_ZN10MallocHook27InvokeMunmapReplacementSlowEPKvmPi' type='func-type' binding='global-binding' visibility='default-visibility' is-defined='yes'/>
    <!-- CpuProfiler::FlushTable() -->
    <elf-symbol name='_ZN11CpuProfiler10FlushTableEv' type='func-type' binding='global-binding' visibility='default-visibility' is-defined='yes'/>
    <!-- CpuProfiler::prof_handler(int, siginfo*, void*, void*) -->
    <elf-symbol name='_ZN11CpuProfiler12prof_handlerEiP7siginfoPvS2_' type='func-type' binding='global-binding' visibility='default-visibility' is-defined='yes'/>
    <!-- CpuProfiler::EnableHandler() -->
    <elf-symbol name='_ZN11CpuProfiler13EnableHandlerEv' type='func-type' binding='global-binding' visibility='default-visibility' is-defined='yes'/>
    <!-- CpuProfiler::DisableHandler() -->
    <elf-symbol name='_ZN11CpuProfiler14DisableHandlerEv' type='func-type' binding='global-binding' visibility='default-visibility' is-defined='yes'/>
    <!-- CpuProfiler::GetCurrentState(ProfilerState*) -->
    <elf-symbol name='_ZN11CpuProfiler15GetCurrentStateEP13ProfilerState' type='func-type' binding='global-binding' visibility='default-visibility' is-defined='yes'/>
    <!-- CpuProfiler::Stop() -->
    <elf-symbol name='_ZN11CpuProfiler4StopEv' type='func-type' binding='global-binding' visibility='default-visibility' is-defined='yes'/>
    <!-- CpuProfiler::Start(char const*, ProfilerOptions const*) -->
    <elf-symbol name='_ZN11CpuProfiler5StartEPKcPK15ProfilerOptions' type='func-type' binding='global-binding' visibility='default-visibility' is-defined='yes'/>
    <!-- CpuProfiler::Enabled() -->
    <elf-symbol name='_ZN11CpuProfiler7EnabledEv' type='func-type' binding='global-binding' visibility='default-visibility' is-defined='yes'/>
    <!-- CpuProfiler::CpuProfiler() -->
    <elf-symbol name='_ZN11CpuProfilerC1Ev' type='func-type' binding='global-binding' visibility='default-visibility' alias='_ZN11CpuProfilerC2Ev' is-defined='yes'/>
    <!-- CpuProfiler::CpuProfiler() -->
    <elf-symbol name='_ZN11CpuProfilerC2Ev' type='func-type' binding='global-binding' visibility='default-visibility' is-defined='yes'/>
    <!-- CpuProfiler::~CpuProfiler() -->
    <elf-symbol name='_ZN11CpuProfilerD1Ev' type='func-type' binding='global-binding' visibility='default-visibility' alias='_ZN11CpuProfilerD2Ev' is-defined='yes'/>
    <!-- CpuProfiler::~CpuProfiler() -->
    <elf-symbol name='_ZN11CpuProfilerD2Ev' type='func-type' binding='global-binding' visibility='default-visibility' is-defined='yes'/>
    <!-- HeapCleaner::RunHeapCleanups() -->
    <elf-symbol name='_ZN11HeapCleaner15RunHeapCleanupsEv' type='func-type' binding='global-binding' visibility='default-visibility' is-defined='yes'/>
    <!-- HeapCleaner::HeapCleaner(void (*)()) -->
    <elf-symbol name='_ZN11HeapCleanerC1EPFvvE' type='func-type' binding='global-binding' visibility='default-visibility' alias='_ZN11HeapCleanerC2EPFvvE' is-defined='yes'/>
    <!-- HeapCleaner::HeapCleaner(void (*)()) -->
    <elf-symbol name='_ZN11HeapCleanerC2EPFvvE' type='func-type' binding='global-binding' visibility='default-visibility' is-defined='yes'/>
    <!-- ProfileData::FlushTable() -->
    <elf-symbol name='_ZN11ProfileData10FlushTableEv' type='func-type' binding='global-binding' visibility='default-visibility' is-defined='yes'/>
    <!-- ProfileData::FlushEvicted() -->
    <elf-symbol name='_ZN11ProfileData12FlushEvictedEv' type='func-type' binding='global-binding' visibility='default-visibility' is-defined='yes'/>
    <!-- ProfileData::Add(int, void const* const*) -->
    <elf-symbol name='_ZN11ProfileData3AddEiPKPKv' type='func-type' binding='global-binding' visibility='default-visibility' is-defined='yes'/>
    <!-- ProfileData::Stop() -->
    <elf-symbol name='_ZN11ProfileData4StopEv' type='func-type' binding='global-binding' visibility='default-visibility' is-defined='yes'/>
    <!-- ProfileData::Evict(ProfileData::Entry const&) -->
    <elf-symbol name='_ZN11ProfileData5EvictERKNS_5EntryE' type='func-type' binding='global-binding' visibility='default-visibility' is-defined='yes'/>
    <!-- ProfileData::Reset() -->
    <elf-symbol name='_ZN11ProfileData5ResetEv' type='func-type' binding='global-binding' visibility='default-visibility' is-defined='yes'/>
    <!-- ProfileData::Start(char const*, ProfileData::Options const&) -->
    <elf-symbol name='_ZN11ProfileData5StartEPKcRKNS_7OptionsE' type='func-type' binding='global-binding' visibility='default-visibility' is-defined='yes'/>
    <!-- ProfileData::Options::Options() -->
    <elf-symbol name='_ZN11ProfileData7OptionsC1Ev' type='func-type' binding='global-binding' visibility='default-visibility' alias='_ZN11ProfileData7OptionsC2Ev' is-defined='yes'/>
    <!-- ProfileData::Options::Options() -->
    <elf-symbol name='_ZN11ProfileData7OptionsC2Ev' type='func-type' binding='global-binding' visibility='default-visibility' is-defined='yes'/>
    <!-- ProfileData::ProfileData() -->
    <elf-symbol name='_ZN11ProfileDataC1Ev' type='func-type' binding='global-binding' visibility='default-visibility' alias='_ZN11ProfileDataC2Ev' is-defined='yes'/>
    <!-- ProfileData::ProfileData() -->
    <elf-symbol name='_ZN11ProfileDataC2Ev' type='func-type' binding='global-binding' visibility='default-visibility' is-defined='yes'/>
    <!-- ProfileData::~ProfileData() -->
    <elf-symbol name='_ZN11ProfileDataD1Ev' type='func-type' binding='global-binding' visibility='default-visibility' alias='_ZN11ProfileDataD2Ev' is-defined='yes'/>
    <!-- ProfileData::~ProfileData() -->
    <elf-symbol name='_ZN11ProfileDataD2Ev' type='func-type' binding='global-binding' visibility='default-visibility' is-defined='yes'/>
    <!-- SymbolTable::Add(void const*) -->
    <elf-symbol name='_ZN11SymbolTable3AddEPKv' type='func-type' binding='global-binding' visibility='default-visibility' is-defined='yes'/>
    <!-- SymbolTable::GetSymbol(void const*) -->
    <elf-symbol name='_ZN11SymbolTable9GetSymbolEPKv' type='func-type' binding='global-binding' visibility='default-visibility' is-defined='yes'/>
    <!-- SymbolTable::Symbolize() -->
    <elf-symbol name='_ZN11SymbolTable9SymbolizeEv' type='func-type' binding='global-binding' visibility='default-visibility' is-defined='yes'/>
    <!-- SysAllocator::~SysAllocator() -->
    <elf-symbol name='_ZN12SysAllocatorD0Ev' type='func-type' binding='global-binding' visibility='default-visibility' is-defined='yes'/>
    <!-- SysAllocator::~SysAllocator() -->
    <elf-symbol name='_ZN12SysAllocatorD1Ev' type='func-type' binding='global-binding' visibility='default-visibility' alias='_ZN12SysAllocatorD2Ev' is-defined='yes'/>
    <!-- SysAllocator::~SysAllocator() -->
    <elf-symbol name='_ZN12SysAllocatorD2Ev' type='func-type' binding='global-binding' visibility='default-visibility' is-defined='yes'/>
    <!-- LowLevelAlloc::DeleteArena(LowLevelAlloc::Arena*) -->
    <elf-symbol name='_ZN13LowLevelAlloc11DeleteArenaEPNS_5ArenaE' type='func-type' binding='global-binding' visibility='default-visibility' is-defined='yes'/>
    <!-- LowLevelAlloc::DefaultArena() -->
    <elf-symbol name='_ZN13LowLevelAlloc12DefaultArenaEv' type='func-type' binding='global-binding' visibility='default-visibility' is-defined='yes'/>
    <!-- LowLevelAlloc::AllocWithArena(unsigned long, LowLevelAlloc::Arena*) -->
    <elf-symbol name='_ZN13LowLevelAlloc14AllocWithArenaEmPNS_5ArenaE' type='func-type' binding='global-binding' visibility='default-visibility' is-defined='yes'/>
    <!-- LowLevelAlloc::Free(void*) -->
    <elf-symbol name='_ZN13LowLevelAlloc4FreeEPv' type='func-type' binding='global-binding' visibility='default-visibility' is-defined='yes'/>
    <!-- LowLevelAlloc::Alloc(unsigned long) -->
    <elf-symbol name='_ZN13LowLevelAlloc5AllocEm' type='func-type' binding='global-binding' visibility='default-visibility' is-defined='yes'/>
    <!-- LowLevelAlloc::NewArena(int, LowLevelAlloc::Arena*) -->
    <elf-symbol name='_ZN13LowLevelAlloc8NewArenaEiPNS_5ArenaE' type='func-type' binding='global-binding' visibility='default-visibility' is-defined='yes'/>
    <!-- TCMallocGuard::TCMallocGuard() -->
    <elf-symbol name='_ZN13TCMallocGuardC1Ev' type='func-type' binding='global-binding' visibility='default-visibility' alias='_ZN13TCMallocGuardC2Ev' is-defined='yes'/>
    <!-- TCMallocGuard::TCMallocGuard() -->
    <elf-symbol name='_ZN13TCMallocGuardC2Ev' type='func-type' binding='global-binding' visibility='default-visibility' is-defined='yes'/>
    <!-- TCMallocGuard::~TCMallocGuard() -->
    <elf-symbol name='_ZN13TCMallocGuardD1Ev' type='func-type' binding='global-binding' visibility='default-visibility' alias='_ZN13TCMallocGuardD2Ev' is-defined='yes'/>
    <!-- TCMallocGuard::~TCMallocGuard() -->
    <elf-symbol name='_ZN13TCMallocGuardD2Ev' type='func-type' binding='global-binding' visibility='default-visibility' is-defined='yes'/>
    <!-- ProfileHandler::StartTimer() -->
    <elf-symbol name='_ZN14ProfileHandler10StartTimerEv' type='func-type' binding='global-binding' visibility='default-visibility' is-defined='yes'/>
    <!-- ProfileHandler::EnableHandler() -->
    <elf-symbol name='_ZN14ProfileHandler13EnableHandlerEv' type='func-type' binding='global-binding' visibility='default-visibility' is-defined='yes'/>
    <!-- ProfileHandler::SignalHandler(int, siginfo*, void*) -->
    <elf-symbol name='_ZN14ProfileHandler13SignalHandlerEiP7siginfoPv' type='func-type' binding='global-binding' visibility='default-visibility' is-defined='yes'/>
    <!-- ProfileHandler::DisableHandler() -->
    <elf-symbol name='_ZN14ProfileHandler14DisableHandlerEv' type='func-type' binding='global-binding' visibility='default-visibility' is-defined='yes'/>
    <!-- ProfileHandler::IsTimerRunning() -->
    <elf-symbol name='_ZN14ProfileHandler14IsTimerRunningEv' type='func-type' binding='global-binding' visibility='default-visibility' is-defined='yes'/>
    <!-- ProfileHandler::RegisterThread() -->
    <elf-symbol name='_ZN14ProfileHandler14RegisterThreadEv' type='func-type' binding='global-binding' visibility='default-visibility' is-defined='yes'/>
    <!-- ProfileHandler::RegisterCallback(void (*)(int, siginfo*, void*, void*), void*) -->
    <elf-symbol name='_ZN14ProfileHandler16RegisterCallbackEPFviP7siginfoPvS2_ES2_' type='func-type' binding='global-binding' visibility='default-visibility' is-defined='yes'/>
    <!-- ProfileHandler::UnregisterCallback(ProfileHandlerToken*) -->
    <elf-symbol name='_ZN14ProfileHandler18UnregisterCallbackEP19ProfileHandlerToken' type='func-type' binding='global-binding' visibility='default-visibility' is-defined='yes'/>
    <!-- ProfileHandler::IsSignalHandlerAvailable() -->
    <elf-symbol name='_ZN14ProfileHandler24IsSignalHandlerAvailableEv' type='func-type' binding='global-binding' visibility='default-visibility' is-defined='yes'/>
    <!-- ProfileHandler::Init() -->
    <elf-symbol name='_ZN14ProfileHandler4InitEv' type='func-type' binding='global-binding' visibility='default-visibility' is-defined='yes'/>
    <!-- ProfileHandler::Reset() -->
    <elf-symbol name='_ZN14ProfileHandler5ResetEv' type='func-type' binding='global-binding' visibility='default-visibility' is-defined='yes'/>
    <!-- ProfileHandler::GetState(ProfileHandlerState*) -->
    <elf-symbol name='_ZN14ProfileHandler8GetStateEP19ProfileHandlerState' type='func-type' binding='global-binding' visibility='default-visibility' is-defined='yes'/>
    <!-- ProfileHandler::Instance() -->
    <elf-symbol name='_ZN14ProfileHandler8InstanceEv' type='func-type' binding='global-binding' visibility='default-visibility' is-defined='yes'/>
    <!-- ProfileHandler::StopTimer() -->
    <elf-symbol name='_ZN14ProfileHandler9StopTimerEv' type='func-type' binding='global-binding' visibility='default-visibility' is-defined='yes'/>
    <!-- ProfileHandler::ProfileHandler() -->
    <elf-symbol name='_ZN14ProfileHandlerC1Ev' type='func-type' binding='global-binding' visibility='default-visibility' alias='_ZN14ProfileHandlerC2Ev' is-defined='yes'/>
    <!-- ProfileHandler::ProfileHandler() -->
    <elf-symbol name='_ZN14ProfileHandlerC2Ev' type='func-type' binding='global-binding' visibility='default-visibility' is-defined='yes'/>
    <!-- ProfileHandler::~ProfileHandler() -->
    <elf-symbol name='_ZN14ProfileHandlerD1Ev' type='func-type' binding='global-binding' visibility='default-visibility' alias='_ZN14ProfileHandlerD2Ev' is-defined='yes'/>
    <!-- ProfileHandler::~ProfileHandler() -->
    <elf-symbol name='_ZN14ProfileHandlerD2Ev' type='func-type' binding='global-binding' visibility='default-visibility' is-defined='yes'/>
    <!-- SpinLockHolder::SpinLockHolder(SpinLock*) -->
    <elf-symbol name='_ZN14SpinLockHolderC1EP8SpinLock' type='func-type' binding='weak-binding' visibility='default-visibility' is-defined='yes'/>
    <!-- SpinLockHolder::SpinLockHolder(SpinLock*) -->
    <elf-symbol name='_ZN14SpinLockHolderC2EP8SpinLock' type='func-type' binding='weak-binding' visibility='default-visibility' alias='_ZN14SpinLockHolderC1EP8SpinLock' is-defined='yes'/>
    <!-- SpinLockHolder::~SpinLockHolder() -->
    <elf-symbol name='_ZN14SpinLockHolderD1Ev' type='func-type' binding='weak-binding' visibility='default-visibility' alias='_ZN14SpinLockHolderD2Ev' is-defined='yes'/>
    <!-- SpinLockHolder::~SpinLockHolder() -->
    <elf-symbol name='_ZN14SpinLockHolderD2Ev' type='func-type' binding='weak-binding' visibility='default-visibility' is-defined='yes'/>
    <!-- HeapLeakChecker::GlobalChecker() -->
    <elf-symbol name='_ZN15HeapLeakChecker13GlobalCheckerEv' type='func-type' binding='global-binding' visibility='default-visibility' is-defined='yes'/>
    <!-- HeapLeakChecker::NoGlobalLeaks() -->
    <elf-symbol name='_ZN15HeapLeakChecker13NoGlobalLeaksEv' type='func-type' binding='global-binding' visibility='default-visibility' is-defined='yes'/>
    <!-- HeapLeakChecker::DoIgnoreObject(void const*) -->
    <elf-symbol name='_ZN15HeapLeakChecker14DoIgnoreObjectEPKv' type='func-type' binding='global-binding' visibility='default-visibility' is-defined='yes'/>
    <!-- HeapLeakChecker::GetAllocCaller(void*) -->
    <elf-symbol name='_ZN15HeapLeakChecker14GetAllocCallerEPv' type='func-type' binding='global-binding' visibility='default-visibility' is-defined='yes'/>
    <!-- HeapLeakChecker::UnIgnoreObject(void const*) -->
    <elf-symbol name='_ZN15HeapLeakChecker14UnIgnoreObjectEPKv' type='func-type' binding='global-binding' visibility='default-visibility' is-defined='yes'/>
    <!-- HeapLeakChecker::DisableChecksIn(char const*) -->
    <elf-symbol name='_ZN15HeapLeakChecker15DisableChecksInEPKc' type='func-type' binding='global-binding' visibility='default-visibility' is-defined='yes'/>
    <!-- HeapLeakChecker::DoMainHeapCheck() -->
    <elf-symbol name='_ZN15HeapLeakChecker15DoMainHeapCheckEv' type='func-type' binding='global-binding' visibility='default-visibility' is-defined='yes'/>
    <!-- HeapLeakChecker::CancelGlobalCheck() -->
    <elf-symbol name='_ZN15HeapLeakChecker17CancelGlobalCheckEv' type='func-type' binding='global-binding' visibility='default-visibility' is-defined='yes'/>
    <!-- HeapLeakChecker::UseProcMapsLocked(HeapLeakChecker::ProcMapsTask) -->
    <elf-symbol name='_ZN15HeapLeakChecker17UseProcMapsLockedENS_12ProcMapsTaskE' type='func-type' binding='global-binding' visibility='default-visibility' is-defined='yes'/>
    <!-- HeapLeakChecker::TurnItselfOffLocked() -->
    <elf-symbol name='_ZN15HeapLeakChecker19TurnItselfOffLockedEv' type='func-type' binding='global-binding' visibility='default-visibility' is-defined='yes'/>
    <!-- HeapLeakChecker::MakeProfileNameLocked() -->
    <elf-symbol name='_ZN15HeapLeakChecker21MakeProfileNameLockedEv' type='func-type' binding='global-binding' visibility='default-visibility' is-defined='yes'/>
    <!-- HeapLeakChecker::IgnoreLiveObjectsLocked(char const*, char const*) -->
    <elf-symbol name='_ZN15HeapLeakChecker23IgnoreLiveObjectsLockedEPKcS1_' type='func-type' binding='global-binding' visibility='default-visibility' is-defined='yes'/>
    <!-- HeapLeakChecker::IgnoreLiveThreadsLocked(void*, int, int*, __va_list_tag*) -->
    <elf-symbol name='_ZN15HeapLeakChecker23IgnoreLiveThreadsLockedEPviPiP13__va_list_tag' type='func-type' binding='global-binding' visibility='default-visibility' is-defined='yes'/>
    <!-- HeapLeakChecker::BeforeConstructorsLocked() -->
    <elf-symbol name='_ZN15HeapLeakChecker24BeforeConstructorsLockedEv' type='func-type' binding='global-binding' visibility='default-visibility' is-defined='yes'/>
    <!-- HeapLeakChecker::DisableChecksFromToLocked(void const*, void const*, int) -->
    <elf-symbol name='_ZN15HeapLeakChecker25DisableChecksFromToLockedEPKvS1_i' type='func-type' binding='global-binding' visibility='default-visibility' is-defined='yes'/>
    <!-- HeapLeakChecker::DisableLibraryAllocsLocked(char const*, unsigned long, unsigned long) -->
    <elf-symbol name='_ZN15HeapLeakChecker26DisableLibraryAllocsLockedEPKcmm' type='func-type' binding='global-binding' visibility='default-visibility' is-defined='yes'/>
    <!-- HeapLeakChecker::IgnoreAllLiveObjectsLocked(void const*) -->
    <elf-symbol name='_ZN15HeapLeakChecker26IgnoreAllLiveObjectsLockedEPKv' type='func-type' binding='global-binding' visibility='default-visibility' is-defined='yes'/>
    <!-- HeapLeakChecker::NoGlobalLeaksMaybeSymbolize(HeapLeakChecker::ShouldSymbolize) -->
    <elf-symbol name='_ZN15HeapLeakChecker27NoGlobalLeaksMaybeSymbolizeENS_15ShouldSymbolizeE' type='func-type' binding='global-binding' visibility='default-visibility' is-defined='yes'/>
    <!-- HeapLeakChecker::IgnoreNonThreadLiveObjectsLocked() -->
    <elf-symbol name='_ZN15HeapLeakChecker32IgnoreNonThreadLiveObjectsLockedEv' type='func-type' binding='global-binding' visibility='default-visibility' is-defined='yes'/>
    <!-- HeapLeakChecker::Create(char const*, bool) -->
    <elf-symbol name='_ZN15HeapLeakChecker6CreateEPKcb' type='func-type' binding='global-binding' visibility='default-visibility' is-defined='yes'/>
    <!-- HeapLeakChecker::Disabler::Disabler() -->
    <elf-symbol name='_ZN15HeapLeakChecker8DisablerC1Ev' type='func-type' binding='global-binding' visibility='default-visibility' alias='_ZN15HeapLeakChecker8DisablerC2Ev' is-defined='yes'/>
    <!-- HeapLeakChecker::Disabler::Disabler() -->
    <elf-symbol name='_ZN15HeapLeakChecker8DisablerC2Ev' type='func-type' binding='global-binding' visibility='default-visibility' is-defined='yes'/>
    <!-- HeapLeakChecker::Disabler::~Disabler() -->
    <elf-symbol name='_ZN15HeapLeakChecker8DisablerD1Ev' type='func-type' binding='global-binding' visibility='default-visibility' alias='_ZN15HeapLeakChecker8DisablerD2Ev' is-defined='yes'/>
    <!-- HeapLeakChecker::Disabler::~Disabler() -->
    <elf-symbol name='_ZN15HeapLeakChecker8DisablerD2Ev' type='func-type' binding='global-binding' visibility='default-visibility' is-defined='yes'/>
    <!-- HeapLeakChecker::IsActive() -->
    <elf-symbol name='_ZN15HeapLeakChecker8IsActiveEv' type='func-type' binding='global-binding' visibility='default-visibility' is-defined='yes'/>
    <!-- HeapLeakChecker::Allocator::Free(void*) -->
    <elf-symbol name='_ZN15HeapLeakChecker9Allocator4FreeEPv' type='func-type' binding='weak-binding' visibility='default-visibility' is-defined='yes'/>
    <!-- HeapLeakChecker::Allocator::Allocate(unsigned long) -->
    <elf-symbol name='_ZN15HeapLeakChecker9Allocator8AllocateEm' type='func-type' binding='weak-binding' visibility='default-visibility' is-defined='yes'/>
    <!-- HeapLeakChecker::DoNoLeaks(HeapLeakChecker::ShouldSymbolize) -->
    <elf-symbol name='_ZN15HeapLeakChecker9DoNoLeaksENS_15ShouldSymbolizeE' type='func-type' binding='global-binding' visibility='default-visibility' is-defined='yes'/>
    <!-- HeapLeakChecker::HeapLeakChecker(char const*) -->
    <elf-symbol name='_ZN15HeapLeakCheckerC1EPKc' type='func-type' binding='global-binding' visibility='default-visibility' alias='_ZN15HeapLeakCheckerC2EPKc' is-defined='yes'/>
    <!-- HeapLeakChecker::HeapLeakChecker() -->
    <elf-symbol name='_ZN15HeapLeakCheckerC1Ev' type='func-type' binding='global-binding' visibility='default-visibility' alias='_ZN15HeapLeakCheckerC2Ev' is-defined='yes'/>
    <!-- HeapLeakChecker::HeapLeakChecker(char const*) -->
    <elf-symbol name='_ZN15HeapLeakCheckerC2EPKc' type='func-type' binding='global-binding' visibility='default-visibility' is-defined='yes'/>
    <!-- HeapLeakChecker::HeapLeakChecker() -->
    <elf-symbol name='_ZN15HeapLeakCheckerC2Ev' type='func-type' binding='global-binding' visibility='default-visibility' is-defined='yes'/>
    <!-- HeapLeakChecker::~HeapLeakChecker() -->
    <elf-symbol name='_ZN15HeapLeakCheckerD1Ev' type='func-type' binding='global-binding' visibility='default-visibility' alias='_ZN15HeapLeakCheckerD2Ev' is-defined='yes'/>
    <!-- HeapLeakChecker::~HeapLeakChecker() -->
    <elf-symbol name='_ZN15HeapLeakCheckerD2Ev' type='func-type' binding='global-binding' visibility='default-visibility' is-defined='yes'/>
    <!-- MallocExtension::Initialize() -->
    <elf-symbol name='_ZN15MallocExtension10InitializeEv' type='func-type' binding='global-binding' visibility='default-visibility' is-defined='yes'/>
    <!-- MallocExtension::GetOwnership(void const*) -->
    <elf-symbol name='_ZN15MallocExtension12GetOwnershipEPKv' type='func-type' binding='global-binding' visibility='default-visibility' is-defined='yes'/>
    <!-- MallocExtension::GetHeapSample(std::string*) -->
    <elf-symbol name='_ZN15MallocExtension13GetHeapSampleEPSs' type='func-type' binding='global-binding' visibility='default-visibility' is-defined='yes'/>
    <!-- MallocExtension::MarkThreadBusy() -->
    <elf-symbol name='_ZN15MallocExtension14MarkThreadBusyEv' type='func-type' binding='global-binding' visibility='default-visibility' is-defined='yes'/>
    <!-- MallocExtension::MarkThreadIdle() -->
    <elf-symbol name='_ZN15MallocExtension14MarkThreadIdleEv' type='func-type' binding='global-binding' visibility='default-visibility' is-defined='yes'/>
    <!-- MallocExtension::ReadStackTraces(int*) -->
    <elf-symbol name='_ZN15MallocExtension15ReadStackTracesEPi' type='func-type' binding='global-binding' visibility='default-visibility' is-defined='yes'/>
    <!-- MallocExtension::ReleaseToSystem(unsigned long) -->
    <elf-symbol name='_ZN15MallocExtension15ReleaseToSystemEm' type='func-type' binding='global-binding' visibility='default-visibility' is-defined='yes'/>
    <!-- MallocExtension::VerifyAllMemory() -->
    <elf-symbol name='_ZN15MallocExtension15VerifyAllMemoryEv' type='func-type' binding='global-binding' visibility='default-visibility' is-defined='yes'/>
    <!-- MallocExtension::VerifyNewMemory(void const*) -->
    <elf-symbol name='_ZN15MallocExtension15VerifyNewMemoryEPKv' type='func-type' binding='global-binding' visibility='default-visibility' is-defined='yes'/>
    <!-- MallocExtension::GetAllocatedSize(void const*) -->
    <elf-symbol name='_ZN15MallocExtension16GetAllocatedSizeEPKv' type='func-type' binding='global-binding' visibility='default-visibility' is-defined='yes'/>
    <!-- MallocExtension::GetFreeListSizes(std::vector<MallocExtension::FreeListInfo, std::allocator<MallocExtension::FreeListInfo> >*) -->
    <elf-symbol name='_ZN15MallocExtension16GetFreeListSizesEPSt6vectorINS_12FreeListInfoESaIS1_EE' type='func-type' binding='global-binding' visibility='default-visibility' is-defined='yes'/>
    <!-- MallocExtension::MallocMemoryStats(int*, unsigned long*, int*) -->
    <elf-symbol name='_ZN15MallocExtension17MallocMemoryStatsEPiPmS0_' type='func-type' binding='global-binding' visibility='default-visibility' is-defined='yes'/>
    <!-- MallocExtension::ReleaseFreeMemory() -->
    <elf-symbol name='_ZN15MallocExtension17ReleaseFreeMemoryEv' type='func-type' binding='global-binding' visibility='default-visibility' is-defined='yes'/>
    <!-- MallocExtension::GetNumericProperty(char const*, unsigned long*) -->
    <elf-symbol name='_ZN15MallocExtension18GetNumericPropertyEPKcPm' type='func-type' binding='global-binding' visibility='default-visibility' is-defined='yes'/>
    <!-- MallocExtension::GetSystemAllocator() -->
    <elf-symbol name='_ZN15MallocExtension18GetSystemAllocatorEv' type='func-type' binding='global-binding' visibility='default-visibility' is-defined='yes'/>
    <!-- MallocExtension::SetNumericProperty(char const*, unsigned long) -->
    <elf-symbol name='_ZN15MallocExtension18SetNumericPropertyEPKcm' type='func-type' binding='global-binding' visibility='default-visibility' is-defined='yes'/>
    <!-- MallocExtension::SetSystemAllocator(SysAllocator*) -->
    <elf-symbol name='_ZN15MallocExtension18SetSystemAllocatorEP12SysAllocator' type='func-type' binding='global-binding' visibility='default-visibility' is-defined='yes'/>
    <!-- MallocExtension::VerifyMallocMemory(void const*) -->
    <elf-symbol name='_ZN15MallocExtension18VerifyMallocMemoryEPKv' type='func-type' binding='global-binding' visibility='default-visibility' is-defined='yes'/>
    <!-- MallocExtension::GetHeapGrowthStacks(std::string*) -->
    <elf-symbol name='_ZN15MallocExtension19GetHeapGrowthStacksEPSs' type='func-type' binding='global-binding' visibility='default-visibility' is-defined='yes'/>
    <!-- MallocExtension::GetMemoryReleaseRate() -->
    <elf-symbol name='_ZN15MallocExtension20GetMemoryReleaseRateEv' type='func-type' binding='global-binding' visibility='default-visibility' is-defined='yes'/>
    <!-- MallocExtension::SetMemoryReleaseRate(double) -->
    <elf-symbol name='_ZN15MallocExtension20SetMemoryReleaseRateEd' type='func-type' binding='global-binding' visibility='default-visibility' is-defined='yes'/>
    <!-- MallocExtension::VerifyArrayNewMemory(void const*) -->
    <elf-symbol name='_ZN15MallocExtension20VerifyArrayNewMemoryEPKv' type='func-type' binding='global-binding' visibility='default-visibility' is-defined='yes'/>
    <!-- MallocExtension::GetEstimatedAllocatedSize(unsigned long) -->
    <elf-symbol name='_ZN15MallocExtension25GetEstimatedAllocatedSizeEm' type='func-type' binding='global-binding' visibility='default-visibility' is-defined='yes'/>
    <!-- MallocExtension::ReadHeapGrowthStackTraces() -->
    <elf-symbol name='_ZN15MallocExtension25ReadHeapGrowthStackTracesEv' type='func-type' binding='global-binding' visibility='default-visibility' is-defined='yes'/>
    <!-- MallocExtension::Ranges(void*, void (*)(void*, base::MallocRange const*)) -->
    <elf-symbol name='_ZN15MallocExtension6RangesEPvPFvS0_PKN4base11MallocRangeEE' type='func-type' binding='global-binding' visibility='default-visibility' is-defined='yes'/>
    <!-- MallocExtension::GetStats(char*, int) -->
    <elf-symbol name='_ZN15MallocExtension8GetStatsEPci' type='func-type' binding='global-binding' visibility='default-visibility' is-defined='yes'/>
    <!-- MallocExtension::Register(MallocExtension*) -->
    <elf-symbol name='_ZN15MallocExtension8RegisterEPS_' type='func-type' binding='global-binding' visibility='default-visibility' is-defined='yes'/>
    <!-- MallocExtension::instance() -->
    <elf-symbol name='_ZN15MallocExtension8instanceEv' type='func-type' binding='global-binding' visibility='default-visibility' is-defined='yes'/>
    <!-- MallocExtension::~MallocExtension() -->
    <elf-symbol name='_ZN15MallocExtensionD0Ev' type='func-type' binding='global-binding' visibility='default-visibility' is-defined='yes'/>
    <!-- MallocExtension::~MallocExtension() -->
    <elf-symbol name='_ZN15MallocExtensionD1Ev' type='func-type' binding='global-binding' visibility='default-visibility' alias='_ZN15MallocExtensionD2Ev' is-defined='yes'/>
    <!-- MallocExtension::~MallocExtension() -->
    <elf-symbol name='_ZN15MallocExtensionD2Ev' type='func-type' binding='global-binding' visibility='default-visibility' is-defined='yes'/>
    <!-- MemoryRegionMap::FindRegion(unsigned long, MemoryRegionMap::Region*) -->
    <elf-symbol name='_ZN15MemoryRegionMap10FindRegionEmPNS_6RegionE' type='func-type' binding='global-binding' visibility='default-visibility' is-defined='yes'/>
    <!-- MemoryRegionMap::LockIsHeld() -->
    <elf-symbol name='_ZN15MemoryRegionMap10LockIsHeldEv' type='func-type' binding='global-binding' visibility='default-visibility' is-defined='yes'/>
    <!-- MemoryRegionMap::MremapHook(void const*, void const*, unsigned long, unsigned long, int, void const*) -->
    <elf-symbol name='_ZN15MemoryRegionMap10MremapHookEPKvS1_mmiS1_' type='func-type' binding='global-binding' visibility='default-visibility' is-defined='yes'/>
    <!-- MemoryRegionMap::MunmapHook(void const*, unsigned long) -->
    <elf-symbol name='_ZN15MemoryRegionMap10MunmapHookEPKvm' type='func-type' binding='global-binding' visibility='default-visibility' is-defined='yes'/>
    <!-- MemoryRegionMap::LogAllLocked() -->
    <elf-symbol name='_ZN15MemoryRegionMap12LogAllLockedEv' type='func-type' binding='global-binding' visibility='default-visibility' is-defined='yes'/>
    <!-- MemoryRegionMap::EndRegionLocked() -->
    <elf-symbol name='_ZN15MemoryRegionMap15EndRegionLockedEv' type='func-type' binding='global-binding' visibility='default-visibility' is-defined='yes'/>
    <!-- MemoryRegionMap::BeginRegionLocked() -->
    <elf-symbol name='_ZN15MemoryRegionMap17BeginRegionLockedEv' type='func-type' binding='global-binding' visibility='default-visibility' is-defined='yes'/>
    <!-- MemoryRegionMap::IsRecordingLocked() -->
    <elf-symbol name='_ZN15MemoryRegionMap17IsRecordingLockedEv' type='func-type' binding='global-binding' visibility='default-visibility' is-defined='yes'/>
    <!-- MemoryRegionMap::DoFindRegionLocked(unsigned long) -->
    <elf-symbol name='_ZN15MemoryRegionMap18DoFindRegionLockedEm' type='func-type' binding='global-binding' visibility='default-visibility' is-defined='yes'/>
    <!-- MemoryRegionMap::InsertRegionLocked(MemoryRegionMap::Region const&) -->
    <elf-symbol name='_ZN15MemoryRegionMap18InsertRegionLockedERKNS_6RegionE' type='func-type' binding='weak-binding' visibility='default-visibility' is-defined='yes'/>
    <!-- MemoryRegionMap::RecordRegionRemoval(void const*, unsigned long) -->
    <elf-symbol name='_ZN15MemoryRegionMap19RecordRegionRemovalEPKvm' type='func-type' binding='global-binding' visibility='default-visibility' is-defined='yes'/>
    <!-- MemoryRegionMap::DoInsertRegionLocked(MemoryRegionMap::Region const&) -->
    <elf-symbol name='_ZN15MemoryRegionMap20DoInsertRegionLockedERKNS_6RegionE' type='func-type' binding='weak-binding' visibility='default-visibility' is-defined='yes'/>
    <!-- MemoryRegionMap::RecordRegionAddition(void const*, unsigned long) -->
    <elf-symbol name='_ZN15MemoryRegionMap20RecordRegionAdditionEPKvm' type='func-type' binding='global-binding' visibility='default-visibility' is-defined='yes'/>
    <!-- MemoryRegionMap::FindAndMarkStackRegion(unsigned long, MemoryRegionMap::Region*) -->
    <elf-symbol name='_ZN15MemoryRegionMap22FindAndMarkStackRegionEmPNS_6RegionE' type='func-type' binding='global-binding' visibility='default-visibility' is-defined='yes'/>
    <!-- MemoryRegionMap::HandleSavedRegionsLocked(void (*)(MemoryRegionMap::Region const&)) -->
    <elf-symbol name='_ZN15MemoryRegionMap24HandleSavedRegionsLockedEPFvRKNS_6RegionEE' type='func-type' binding='weak-binding' visibility='default-visibility' is-defined='yes'/>
    <!-- MemoryRegionMap::RestoreSavedBucketsLocked() -->
    <elf-symbol name='_ZN15MemoryRegionMap25RestoreSavedBucketsLockedEv' type='func-type' binding='global-binding' visibility='default-visibility' is-defined='yes'/>
    <!-- MemoryRegionMap::RecordRegionRemovalInBucket(int, void const* const*, unsigned long) -->
    <elf-symbol name='_ZN15MemoryRegionMap27RecordRegionRemovalInBucketEiPKPKvm' type='func-type' binding='global-binding' visibility='default-visibility' is-defined='yes'/>
    <!-- MemoryRegionMap::Init(int, bool) -->
    <elf-symbol name='_ZN15MemoryRegionMap4InitEib' type='func-type' binding='global-binding' visibility='default-visibility' is-defined='yes'/>
    <!-- MemoryRegionMap::Lock() -->
    <elf-symbol name='_ZN15MemoryRegionMap4LockEv' type='func-type' binding='global-binding' visibility='default-visibility' is-defined='yes'/>
    <!-- MemoryRegionMap::Unlock() -->
    <elf-symbol name='_ZN15MemoryRegionMap6UnlockEv' type='func-type' binding='global-binding' visibility='default-visibility' is-defined='yes'/>
    <!-- MemoryRegionMap::MmapHook(void const*, void const*, unsigned long, int, int, int, long) -->
    <elf-symbol name='_ZN15MemoryRegionMap8MmapHookEPKvS1_miiil' type='func-type' binding='global-binding' visibility='default-visibility' is-defined='yes'/>
    <!-- MemoryRegionMap::SbrkHook(void const*, long) -->
    <elf-symbol name='_ZN15MemoryRegionMap8SbrkHookEPKvl' type='func-type' binding='global-binding' visibility='default-visibility' is-defined='yes'/>
    <!-- MemoryRegionMap::Shutdown() -->
    <elf-symbol name='_ZN15MemoryRegionMap8ShutdownEv' type='func-type' binding='global-binding' visibility='default-visibility' is-defined='yes'/>
    <!-- MemoryRegionMap::GetBucket(int, void const* const*) -->
    <elf-symbol name='_ZN15MemoryRegionMap9GetBucketEiPKPKv' type='func-type' binding='global-binding' visibility='default-visibility' is-defined='yes'/>
    <!-- HeapProfileTable::MarkAsLive(void const*) -->
    <elf-symbol name='_ZN16HeapProfileTable10MarkAsLiveEPKv' type='func-type' binding='global-binding' visibility='default-visibility' is-defined='yes'/>
    <!-- HeapProfileTable::RecordFree(void const*) -->
    <elf-symbol name='_ZN16HeapProfileTable10RecordFreeEPKv' type='func-type' binding='global-binding' visibility='default-visibility' is-defined='yes'/>
    <!-- HeapProfileTable::RecordAlloc(void const*, unsigned long, int, void const* const*) -->
    <elf-symbol name='_ZN16HeapProfileTable11RecordAllocEPKvmiPKS1_' type='func-type' binding='global-binding' visibility='default-visibility' is-defined='yes'/>
    <!-- HeapProfileTable::AddIfNonLive(void const*, HeapProfileTable::AllocValue*, HeapProfileTable::AddNonLiveArgs*) -->
    <elf-symbol name='_ZN16HeapProfileTable12AddIfNonLiveEPKvPNS_10AllocValueEPNS_14AddNonLiveArgsE' type='func-type' binding='global-binding' visibility='default-visibility' is-defined='yes'/>
    <!-- HeapProfileTable::TakeSnapshot() -->
    <elf-symbol name='_ZN16HeapProfileTable12TakeSnapshotEv' type='func-type' binding='global-binding' visibility='default-visibility' is-defined='yes'/>
    <!-- HeapProfileTable::WriteProfile(char const*, HeapProfileBucket const&, AddressMap<HeapProfileTable::AllocValue>*) -->
    <elf-symbol name='_ZN16HeapProfileTable12WriteProfileEPKcRK17HeapProfileBucketP10AddressMapINS_10AllocValueEE' type='func-type' binding='global-binding' visibility='default-visibility' is-defined='yes'/>
    <!-- HeapProfileTable::AddToSnapshot(void const*, HeapProfileTable::AllocValue*, HeapProfileTable::Snapshot*) -->
    <elf-symbol name='_ZN16HeapProfileTable13AddToSnapshotEPKvPNS_10AllocValueEPNS_8SnapshotE' type='func-type' binding='global-binding' visibility='default-visibility' is-defined='yes'/>
    <!-- HeapProfileTable::MarkAsIgnored(void const*) -->
    <elf-symbol name='_ZN16HeapProfileTable13MarkAsIgnoredEPKv' type='func-type' binding='global-binding' visibility='default-visibility' is-defined='yes'/>
    <!-- HeapProfileTable::UnparseBucket(HeapProfileBucket const&, char*, int, int, char const*, HeapProfileStats*) -->
    <elf-symbol name='_ZN16HeapProfileTable13UnparseBucketERK17HeapProfileBucketPciiPKcP16HeapProfileStats' type='func-type' binding='global-binding' visibility='default-visibility' is-defined='yes'/>
    <!-- HeapProfileTable::AllocValueSize(HeapProfileTable::AllocValue const&) -->
    <elf-symbol name='_ZN16HeapProfileTable14AllocValueSizeERKNS_10AllocValueE' type='func-type' binding='weak-binding' visibility='default-visibility' is-defined='yes'/>
    <!-- HeapProfileTable::NonLiveSnapshot(HeapProfileTable::Snapshot*) -->
    <elf-symbol name='_ZN16HeapProfileTable15NonLiveSnapshotEPNS_8SnapshotE' type='func-type' binding='global-binding' visibility='default-visibility' is-defined='yes'/>
    <!-- HeapProfileTable::ReleaseSnapshot(HeapProfileTable::Snapshot*) -->
    <elf-symbol name='_ZN16HeapProfileTable15ReleaseSnapshotEPNS_8SnapshotE' type='func-type' binding='global-binding' visibility='default-visibility' is-defined='yes'/>
    <!-- HeapProfileTable::CleanupOldProfiles(char const*) -->
    <elf-symbol name='_ZN16HeapProfileTable18CleanupOldProfilesEPKc' type='func-type' binding='global-binding' visibility='default-visibility' is-defined='yes'/>
    <!-- HeapProfileTable::DumpBucketIterator(HeapProfileBucket const*, HeapProfileTable::BufferArgs*) -->
    <elf-symbol name='_ZN16HeapProfileTable18DumpBucketIteratorEPK17HeapProfileBucketPNS_10BufferArgsE' type='func-type' binding='weak-binding' visibility='default-visibility' is-defined='yes'/>
    <!-- HeapProfileTable::DumpNonLiveIterator(void const*, HeapProfileTable::AllocValue*, HeapProfileTable::DumpArgs const&) -->
    <elf-symbol name='_ZN16HeapProfileTable19DumpNonLiveIteratorEPKvPNS_10AllocValueERKNS_8DumpArgsE' type='func-type' binding='weak-binding' visibility='default-visibility' is-defined='yes'/>
    <!-- HeapProfileTable::GetCallerStackTrace(int, void**) -->
    <elf-symbol name='_ZN16HeapProfileTable19GetCallerStackTraceEiPPv' type='func-type' binding='global-binding' visibility='default-visibility' is-defined='yes'/>
    <!-- HeapProfileTable::MapArgsAllocIterator(void const*, HeapProfileTable::AllocValue*, void (*)(void const*, HeapProfileTable::AllocInfo const&)) -->
    <elf-symbol name='_ZN16HeapProfileTable20MapArgsAllocIteratorEPKvPNS_10AllocValueEPFvS1_RKNS_9AllocInfoEE' type='func-type' binding='weak-binding' visibility='default-visibility' is-defined='yes'/>
    <!-- HeapProfileTable::Snapshot::ReportLeaks(char const*, char const*, bool) -->
    <elf-symbol name='_ZN16HeapProfileTable8Snapshot11ReportLeaksEPKcS2_b' type='func-type' binding='global-binding' visibility='default-visibility' is-defined='yes'/>
    <!-- HeapProfileTable::Snapshot::ReportObject(void const*, HeapProfileTable::AllocValue*, char*) -->
    <elf-symbol name='_ZN16HeapProfileTable8Snapshot12ReportObjectEPKvPNS_10AllocValueEPc' type='func-type' binding='global-binding' visibility='default-visibility' is-defined='yes'/>
    <!-- HeapProfileTable::Snapshot::ReportCallback(void const*, HeapProfileTable::AllocValue*, HeapProfileTable::Snapshot::ReportState*) -->
    <elf-symbol name='_ZN16HeapProfileTable8Snapshot14ReportCallbackEPKvPNS_10AllocValueEPNS0_11ReportStateE' type='func-type' binding='global-binding' visibility='default-visibility' is-defined='yes'/>
    <!-- HeapProfileTable::Snapshot::ReportIndividualObjects() -->
    <elf-symbol name='_ZN16HeapProfileTable8Snapshot23ReportIndividualObjectsEv' type='func-type' binding='global-binding' visibility='default-visibility' is-defined='yes'/>
    <!-- HeapProfileTable::GetBucket(int, void const* const*) -->
    <elf-symbol name='_ZN16HeapProfileTable9GetBucketEiPKPKv' type='func-type' binding='global-binding' visibility='default-visibility' is-defined='yes'/>
    <!-- HeapProfileTable::HeapProfileTable(void* (*)(unsigned long), void (*)(void*), bool) -->
    <elf-symbol name='_ZN16HeapProfileTableC1EPFPvmEPFvS0_Eb' type='func-type' binding='global-binding' visibility='default-visibility' is-defined='yes'/>
    <!-- HeapProfileTable::HeapProfileTable(void* (*)(unsigned long), void (*)(void*), bool) -->
    <elf-symbol name='_ZN16HeapProfileTableC2EPFPvmEPFvS0_Eb' type='func-type' binding='global-binding' visibility='default-visibility' alias='_ZN16HeapProfileTableC1EPFPvmEPFvS0_Eb' is-defined='yes'/>
    <!-- HeapProfileTable::~HeapProfileTable() -->
    <elf-symbol name='_ZN16HeapProfileTableD1Ev' type='func-type' binding='global-binding' visibility='default-visibility' alias='_ZN16HeapProfileTableD2Ev' is-defined='yes'/>
    <!-- HeapProfileTable::~HeapProfileTable() -->
    <elf-symbol name='_ZN16HeapProfileTableD2Ev' type='func-type' binding='global-binding' visibility='default-visibility' is-defined='yes'/>
    <!-- MmapSysAllocator::Alloc(unsigned long, unsigned long*, unsigned long) -->
    <elf-symbol name='_ZN16MmapSysAllocator5AllocEmPmm' type='func-type' binding='global-binding' visibility='default-visibility' is-defined='yes'/>
    <!-- MmapSysAllocator::~MmapSysAllocator() -->
    <elf-symbol name='_ZN16MmapSysAllocatorD0Ev' type='func-type' binding='weak-binding' visibility='default-visibility' is-defined='yes'/>
    <!-- MmapSysAllocator::~MmapSysAllocator() -->
    <elf-symbol name='_ZN16MmapSysAllocatorD1Ev' type='func-type' binding='weak-binding' visibility='default-visibility' alias='_ZN16MmapSysAllocatorD2Ev' is-defined='yes'/>
    <!-- MmapSysAllocator::~MmapSysAllocator() -->
    <elf-symbol name='_ZN16MmapSysAllocatorD2Ev' type='func-type' binding='weak-binding' visibility='default-visibility' is-defined='yes'/>
    <!-- ProcMapsIterator::FormatLine(char*, int, unsigned long, unsigned long, char const*, unsigned long, long, char const*, unsigned long) -->
    <elf-symbol name='_ZN16ProcMapsIterator10FormatLineEPcimmPKcmlS2_m' type='func-type' binding='global-binding' visibility='default-visibility' is-defined='yes'/>
    <!-- ProcMapsIterator::Init(int, ProcMapsIterator::Buffer*, bool) -->
    <elf-symbol name='_ZN16ProcMapsIterator4InitEiPNS_6BufferEb' type='func-type' binding='global-binding' visibility='default-visibility' is-defined='yes'/>
    <!-- ProcMapsIterator::Next(unsigned long*, unsigned long*, char**, unsigned long*, long*, char**) -->
    <elf-symbol name='_ZN16ProcMapsIterator4NextEPmS0_PPcS0_PlS2_' type='func-type' binding='global-binding' visibility='default-visibility' is-defined='yes'/>
    <!-- ProcMapsIterator::NextExt(unsigned long*, unsigned long*, char**, unsigned long*, long*, char**, unsigned long*, unsigned long*, unsigned long*, unsigned long*, unsigned long*) -->
    <elf-symbol name='_ZN16ProcMapsIterator7NextExtEPmS0_PPcS0_PlS2_S0_S0_S0_S0_S0_' type='func-type' binding='global-binding' visibility='default-visibility' is-defined='yes'/>
    <!-- ProcMapsIterator::ProcMapsIterator(int) -->
    <elf-symbol name='_ZN16ProcMapsIteratorC1Ei' type='func-type' binding='global-binding' visibility='default-visibility' alias='_ZN16ProcMapsIteratorC2Ei' is-defined='yes'/>
    <!-- ProcMapsIterator::ProcMapsIterator(int, ProcMapsIterator::Buffer*) -->
    <elf-symbol name='_ZN16ProcMapsIteratorC1EiPNS_6BufferE' type='func-type' binding='global-binding' visibility='default-visibility' is-defined='yes'/>
    <!-- ProcMapsIterator::ProcMapsIterator(int, ProcMapsIterator::Buffer*, bool) -->
    <elf-symbol name='_ZN16ProcMapsIteratorC1EiPNS_6BufferEb' type='func-type' binding='global-binding' visibility='default-visibility' alias='_ZN16ProcMapsIteratorC2EiPNS_6BufferEb' is-defined='yes'/>
    <!-- ProcMapsIterator::ProcMapsIterator(int) -->
    <elf-symbol name='_ZN16ProcMapsIteratorC2Ei' type='func-type' binding='global-binding' visibility='default-visibility' is-defined='yes'/>
    <!-- ProcMapsIterator::ProcMapsIterator(int, ProcMapsIterator::Buffer*) -->
    <elf-symbol name='_ZN16ProcMapsIteratorC2EiPNS_6BufferE' type='func-type' binding='global-binding' visibility='default-visibility' alias='_ZN16ProcMapsIteratorC1EiPNS_6BufferE' is-defined='yes'/>
    <!-- ProcMapsIterator::ProcMapsIterator(int, ProcMapsIterator::Buffer*, bool) -->
    <elf-symbol name='_ZN16ProcMapsIteratorC2EiPNS_6BufferEb' type='func-type' binding='global-binding' visibility='default-visibility' is-defined='yes'/>
    <!-- ProcMapsIterator::~ProcMapsIterator() -->
    <elf-symbol name='_ZN16ProcMapsIteratorD1Ev' type='func-type' binding='global-binding' visibility='default-visibility' alias='_ZN16ProcMapsIteratorD2Ev' is-defined='yes'/>
    <!-- ProcMapsIterator::~ProcMapsIterator() -->
    <elf-symbol name='_ZN16ProcMapsIteratorD2Ev' type='func-type' binding='global-binding' visibility='default-visibility' is-defined='yes'/>
    <!-- SbrkSysAllocator::Alloc(unsigned long, unsigned long*, unsigned long) -->
    <elf-symbol name='_ZN16SbrkSysAllocator5AllocEmPmm' type='func-type' binding='global-binding' visibility='default-visibility' is-defined='yes'/>
    <!-- SbrkSysAllocator::~SbrkSysAllocator() -->
    <elf-symbol name='_ZN16SbrkSysAllocatorD0Ev' type='func-type' binding='weak-binding' visibility='default-visibility' is-defined='yes'/>
    <!-- SbrkSysAllocator::~SbrkSysAllocator() -->
    <elf-symbol name='_ZN16SbrkSysAllocatorD1Ev' type='func-type' binding='weak-binding' visibility='default-visibility' alias='_ZN16SbrkSysAllocatorD2Ev' is-defined='yes'/>
    <!-- SbrkSysAllocator::~SbrkSysAllocator() -->
    <elf-symbol name='_ZN16SbrkSysAllocatorD2Ev' type='func-type' binding='weak-binding' visibility='default-visibility' is-defined='yes'/>
    <!-- TCMalloc_Printer::printf(char const*, ...) -->
    <elf-symbol name='_ZN16TCMalloc_Printer6printfEPKcz' type='func-type' binding='global-binding' visibility='default-visibility' is-defined='yes'/>
    <!-- GoogleInitializer::~GoogleInitializer() -->
    <elf-symbol name='_ZN17GoogleInitializerD1Ev' type='func-type' binding='weak-binding' visibility='default-visibility' is-defined='yes'/>
    <!-- GoogleInitializer::~GoogleInitializer() -->
    <elf-symbol name='_ZN17GoogleInitializerD2Ev' type='func-type' binding='weak-binding' visibility='default-visibility' alias='_ZN17GoogleInitializerD1Ev' is-defined='yes'/>
    <!-- DevMemSysAllocator::Alloc(unsigned long, unsigned long*, unsigned long) -->
    <elf-symbol name='_ZN18DevMemSysAllocator5AllocEmPmm' type='func-type' binding='global-binding' visibility='default-visibility' is-defined='yes'/>
    <!-- DevMemSysAllocator::~DevMemSysAllocator() -->
    <elf-symbol name='_ZN18DevMemSysAllocatorD0Ev' type='func-type' binding='weak-binding' visibility='default-visibility' is-defined='yes'/>
    <!-- DevMemSysAllocator::~DevMemSysAllocator() -->
    <elf-symbol name='_ZN18DevMemSysAllocatorD1Ev' type='func-type' binding='weak-binding' visibility='default-visibility' alias='_ZN18DevMemSysAllocatorD2Ev' is-defined='yes'/>
    <!-- DevMemSysAllocator::~DevMemSysAllocator() -->
    <elf-symbol name='_ZN18DevMemSysAllocatorD2Ev' type='func-type' binding='weak-binding' visibility='default-visibility' is-defined='yes'/>
    <!-- DefaultSysAllocator::Alloc(unsigned long, unsigned long*, unsigned long) -->
    <elf-symbol name='_ZN19DefaultSysAllocator5AllocEmPmm' type='func-type' binding='global-binding' visibility='default-visibility' is-defined='yes'/>
    <!-- DefaultSysAllocator::~DefaultSysAllocator() -->
    <elf-symbol name='_ZN19DefaultSysAllocatorD0Ev' type='func-type' binding='weak-binding' visibility='default-visibility' is-defined='yes'/>
    <!-- DefaultSysAllocator::~DefaultSysAllocator() -->
    <elf-symbol name='_ZN19DefaultSysAllocatorD1Ev' type='func-type' binding='weak-binding' visibility='default-visibility' alias='_ZN19DefaultSysAllocatorD2Ev' is-defined='yes'/>
    <!-- DefaultSysAllocator::~DefaultSysAllocator() -->
    <elf-symbol name='_ZN19DefaultSysAllocatorD2Ev' type='func-type' binding='weak-binding' visibility='default-visibility' is-defined='yes'/>
    <!-- HugetlbSysAllocator::Initialize() -->
    <elf-symbol name='_ZN19HugetlbSysAllocator10InitializeEv' type='func-type' binding='global-binding' visibility='default-visibility' is-defined='yes'/>
    <!-- HugetlbSysAllocator::AllocInternal(unsigned long, unsigned long*, unsigned long) -->
    <elf-symbol name='_ZN19HugetlbSysAllocator13AllocInternalEmPmm' type='func-type' binding='global-binding' visibility='default-visibility' is-defined='yes'/>
    <!-- HugetlbSysAllocator::Alloc(unsigned long, unsigned long*, unsigned long) -->
    <elf-symbol name='_ZN19HugetlbSysAllocator5AllocEmPmm' type='func-type' binding='global-binding' visibility='default-visibility' is-defined='yes'/>
    <!-- HugetlbSysAllocator::~HugetlbSysAllocator() -->
    <elf-symbol name='_ZN19HugetlbSysAllocatorD0Ev' type='func-type' binding='weak-binding' visibility='default-visibility' is-defined='yes'/>
    <!-- HugetlbSysAllocator::~HugetlbSysAllocator() -->
    <elf-symbol name='_ZN19HugetlbSysAllocatorD1Ev' type='func-type' binding='weak-binding' visibility='default-visibility' alias='_ZN19HugetlbSysAllocatorD2Ev' is-defined='yes'/>
    <!-- HugetlbSysAllocator::~HugetlbSysAllocator() -->
    <elf-symbol name='_ZN19HugetlbSysAllocatorD2Ev' type='func-type' binding='weak-binding' visibility='default-visibility' is-defined='yes'/>
    <!-- HeapProfileEndWriter::~HeapProfileEndWriter() -->
    <elf-symbol name='_ZN20HeapProfileEndWriterD1Ev' type='func-type' binding='weak-binding' visibility='default-visibility' alias='_ZN20HeapProfileEndWriterD2Ev' is-defined='yes'/>
    <!-- HeapProfileEndWriter::~HeapProfileEndWriter() -->
    <elf-symbol name='_ZN20HeapProfileEndWriterD2Ev' type='func-type' binding='weak-binding' visibility='default-visibility' is-defined='yes'/>
    <!-- TCMallocImplementation::GetOwnership(void const*) -->
    <elf-symbol name='_ZN22TCMallocImplementation12GetOwnershipEPKv' type='func-type' binding='weak-binding' visibility='default-visibility' is-defined='yes'/>
    <!-- TCMallocImplementation::GetHeapSample(std::string*) -->
    <elf-symbol name='_ZN22TCMallocImplementation13GetHeapSampleEPSs' type='func-type' binding='weak-binding' visibility='default-visibility' is-defined='yes'/>
    <!-- TCMallocImplementation::MarkThreadBusy() -->
    <elf-symbol name='_ZN22TCMallocImplementation14MarkThreadBusyEv' type='func-type' binding='global-binding' visibility='default-visibility' is-defined='yes'/>
    <!-- TCMallocImplementation::MarkThreadIdle() -->
    <elf-symbol name='_ZN22TCMallocImplementation14MarkThreadIdleEv' type='func-type' binding='weak-binding' visibility='default-visibility' is-defined='yes'/>
    <!-- TCMallocImplementation::ReadStackTraces(int*) -->
    <elf-symbol name='_ZN22TCMallocImplementation15ReadStackTracesEPi' type='func-type' binding='weak-binding' visibility='default-visibility' is-defined='yes'/>
    <!-- TCMallocImplementation::ReleaseToSystem(unsigned long) -->
    <elf-symbol name='_ZN22TCMallocImplementation15ReleaseToSystemEm' type='func-type' binding='weak-binding' visibility='default-visibility' is-defined='yes'/>
    <!-- TCMallocImplementation::GetAllocatedSize(void const*) -->
    <elf-symbol name='_ZN22TCMallocImplementation16GetAllocatedSizeEPKv' type='func-type' binding='global-binding' visibility='default-visibility' is-defined='yes'/>
    <!-- TCMallocImplementation::GetFreeListSizes(std::vector<MallocExtension::FreeListInfo, std::allocator<MallocExtension::FreeListInfo> >*) -->
    <elf-symbol name='_ZN22TCMallocImplementation16GetFreeListSizesEPSt6vectorIN15MallocExtension12FreeListInfoESaIS2_EE' type='func-type' binding='weak-binding' visibility='default-visibility' is-defined='yes'/>
    <!-- TCMallocImplementation::GetNumericProperty(char const*, unsigned long*) -->
    <elf-symbol name='_ZN22TCMallocImplementation18GetNumericPropertyEPKcPm' type='func-type' binding='weak-binding' visibility='default-visibility' is-defined='yes'/>
    <!-- TCMallocImplementation::GetSystemAllocator() -->
    <elf-symbol name='_ZN22TCMallocImplementation18GetSystemAllocatorEv' type='func-type' binding='weak-binding' visibility='default-visibility' is-defined='yes'/>
    <!-- TCMallocImplementation::SetNumericProperty(char const*, unsigned long) -->
    <elf-symbol name='_ZN22TCMallocImplementation18SetNumericPropertyEPKcm' type='func-type' binding='weak-binding' visibility='default-visibility' is-defined='yes'/>
    <!-- TCMallocImplementation::SetSystemAllocator(SysAllocator*) -->
    <elf-symbol name='_ZN22TCMallocImplementation18SetSystemAllocatorEP12SysAllocator' type='func-type' binding='weak-binding' visibility='default-visibility' is-defined='yes'/>
    <!-- TCMallocImplementation::GetMemoryReleaseRate() -->
    <elf-symbol name='_ZN22TCMallocImplementation20GetMemoryReleaseRateEv' type='func-type' binding='weak-binding' visibility='default-visibility' is-defined='yes'/>
    <!-- TCMallocImplementation::SetMemoryReleaseRate(double) -->
    <elf-symbol name='_ZN22TCMallocImplementation20SetMemoryReleaseRateEd' type='func-type' binding='weak-binding' visibility='default-visibility' is-defined='yes'/>
    <!-- TCMallocImplementation::GetEstimatedAllocatedSize(unsigned long) -->
    <elf-symbol name='_ZN22TCMallocImplementation25GetEstimatedAllocatedSizeEm' type='func-type' binding='weak-binding' visibility='default-visibility' is-defined='yes'/>
    <!-- TCMallocImplementation::ReadHeapGrowthStackTraces() -->
    <elf-symbol name='_ZN22TCMallocImplementation25ReadHeapGrowthStackTracesEv' type='func-type' binding='weak-binding' visibility='default-visibility' is-defined='yes'/>
    <!-- TCMallocImplementation::Ranges(void*, void (*)(void*, base::MallocRange const*)) -->
    <elf-symbol name='_ZN22TCMallocImplementation6RangesEPvPFvS0_PKN4base11MallocRangeEE' type='func-type' binding='weak-binding' visibility='default-visibility' is-defined='yes'/>
    <!-- TCMallocImplementation::GetStats(char*, int) -->
    <elf-symbol name='_ZN22TCMallocImplementation8GetStatsEPci' type='func-type' binding='weak-binding' visibility='default-visibility' is-defined='yes'/>
    <!-- TCMallocImplementation::~TCMallocImplementation() -->
    <elf-symbol name='_ZN22TCMallocImplementationD0Ev' type='func-type' binding='weak-binding' visibility='default-visibility' is-defined='yes'/>
    <!-- TCMallocImplementation::~TCMallocImplementation() -->
    <elf-symbol name='_ZN22TCMallocImplementationD1Ev' type='func-type' binding='weak-binding' visibility='default-visibility' alias='_ZN22TCMallocImplementationD2Ev' is-defined='yes'/>
    <!-- TCMallocImplementation::~TCMallocImplementation() -->
    <elf-symbol name='_ZN22TCMallocImplementationD2Ev' type='func-type' binding='weak-binding' visibility='default-visibility' is-defined='yes'/>
    <!-- HeapLeakCheckerGlobalPrePost::~HeapLeakCheckerGlobalPrePost() -->
    <elf-symbol name='_ZN28HeapLeakCheckerGlobalPrePostD1Ev' type='func-type' binding='weak-binding' visibility='default-visibility' alias='_ZN28HeapLeakCheckerGlobalPrePostD2Ev' is-defined='yes'/>
    <!-- HeapLeakCheckerGlobalPrePost::~HeapLeakCheckerGlobalPrePost() -->
    <elf-symbol name='_ZN28HeapLeakCheckerGlobalPrePostD2Ev' type='func-type' binding='weak-binding' visibility='default-visibility' is-defined='yes'/>
    <!-- base::RawPrinter::Printf(char const*, ...) -->
    <elf-symbol name='_ZN4base10RawPrinter6PrintfEPKcz' type='func-type' binding='global-binding' visibility='default-visibility' is-defined='yes'/>
    <!-- base::RawPrinter::RawPrinter(char*, int) -->
    <elf-symbol name='_ZN4base10RawPrinterC1EPci' type='func-type' binding='global-binding' visibility='default-visibility' alias='_ZN4base10RawPrinterC2EPci' is-defined='yes'/>
    <!-- base::RawPrinter::RawPrinter(char*, int) -->
    <elf-symbol name='_ZN4base10RawPrinterC2EPci' type='func-type' binding='global-binding' visibility='default-visibility' is-defined='yes'/>
    <!-- base::ElfMemImage::SymbolIterator::Update(int) -->
    <elf-symbol name='_ZN4base11ElfMemImage14SymbolIterator6UpdateEi' type='func-type' binding='global-binding' visibility='default-visibility' is-defined='yes'/>
    <!-- base::ElfMemImage::SymbolIterator::SymbolIterator(void const*, int) -->
    <elf-symbol name='_ZN4base11ElfMemImage14SymbolIteratorC1EPKvi' type='func-type' binding='global-binding' visibility='default-visibility' is-defined='yes'/>
    <!-- base::ElfMemImage::SymbolIterator::SymbolIterator(void const*, int) -->
    <elf-symbol name='_ZN4base11ElfMemImage14SymbolIteratorC2EPKvi' type='func-type' binding='global-binding' visibility='default-visibility' alias='_ZN4base11ElfMemImage14SymbolIteratorC1EPKvi' is-defined='yes'/>
    <!-- base::ElfMemImage::SymbolIterator::operator++() -->
    <elf-symbol name='_ZN4base11ElfMemImage14SymbolIteratorppEv' type='func-type' binding='global-binding' visibility='default-visibility' is-defined='yes'/>
    <!-- base::ElfMemImage::Init(void const*) -->
    <elf-symbol name='_ZN4base11ElfMemImage4InitEPKv' type='func-type' binding='global-binding' visibility='default-visibility' is-defined='yes'/>
    <!-- base::ElfMemImage::ElfMemImage(void const*) -->
    <elf-symbol name='_ZN4base11ElfMemImageC1EPKv' type='func-type' binding='global-binding' visibility='default-visibility' alias='_ZN4base11ElfMemImageC2EPKv' is-defined='yes'/>
    <!-- base::ElfMemImage::ElfMemImage(void const*) -->
    <elf-symbol name='_ZN4base11ElfMemImageC2EPKv' type='func-type' binding='global-binding' visibility='default-visibility' is-defined='yes'/>
    <!-- base::VDSOSupport::Init() -->
    <elf-symbol name='_ZN4base11VDSOSupport4InitEv' type='func-type' binding='global-binding' visibility='default-visibility' is-defined='yes'/>
    <!-- base::VDSOSupport::SetBase(void const*) -->
    <elf-symbol name='_ZN4base11VDSOSupport7SetBaseEPKv' type='func-type' binding='global-binding' visibility='default-visibility' is-defined='yes'/>
    <!-- base::VDSOSupport::VDSOSupport() -->
    <elf-symbol name='_ZN4base11VDSOSupportC1Ev' type='func-type' binding='global-binding' visibility='default-visibility' alias='_ZN4base11VDSOSupportC2Ev' is-defined='yes'/>
    <!-- base::VDSOSupport::VDSOSupport() -->
    <elf-symbol name='_ZN4base11VDSOSupportC2Ev' type='func-type' binding='global-binding' visibility='default-visibility' is-defined='yes'/>
    <!-- base::SubmitSpinLockProfileData(void const*, long) -->
    <elf-symbol name='_ZN4base25SubmitSpinLockProfileDataEPKvl' type='func-type' binding='weak-binding' visibility='default-visibility' is-defined='yes'/>
    <!-- base::internal::SpinLockWait(int volatile*, int, base::internal::SpinLockWaitTransition const*) -->
    <elf-symbol name='_ZN4base8internal12SpinLockWaitEPViiPKNS0_22SpinLockWaitTransitionE' type='func-type' binding='global-binding' visibility='default-visibility' is-defined='yes'/>
    <!-- base::internal::SpinLockWake(int volatile*, bool) -->
    <elf-symbol name='_ZN4base8internal12SpinLockWakeEPVib' type='func-type' binding='global-binding' visibility='default-visibility' is-defined='yes'/>
    <!-- base::internal::SpinLockDelay(int volatile*, int, int) -->
    <elf-symbol name='_ZN4base8internal13SpinLockDelayEPViii' type='func-type' binding='global-binding' visibility='default-visibility' is-defined='yes'/>
    <!-- base::internal::HookList<void (*)(void const*, unsigned long)>::ExchangeSingular(void (*)(void const*, unsigned long)) -->
    <elf-symbol name='_ZN4base8internal8HookListIPFvPKvmEE16ExchangeSingularES5_' type='func-type' binding='weak-binding' visibility='default-visibility' is-defined='yes'/>
    <!-- base::internal::HookList<void (*)(void const*, unsigned long)>::FixupPrivEndLocked() -->
    <elf-symbol name='_ZN4base8internal8HookListIPFvPKvmEE18FixupPrivEndLockedEv' type='func-type' binding='weak-binding' visibility='default-visibility' is-defined='yes'/>
    <!-- base::internal::HookList<void (*)(void const*, unsigned long)>::Add(void (*)(void const*, unsigned long)) -->
    <elf-symbol name='_ZN4base8internal8HookListIPFvPKvmEE3AddES5_' type='func-type' binding='weak-binding' visibility='default-visibility' is-defined='yes'/>
    <!-- base::internal::HookList<void (*)(void const*, unsigned long)>::Remove(void (*)(void const*, unsigned long)) -->
    <elf-symbol name='_ZN4base8internal8HookListIPFvPKvmEE6RemoveES5_' type='func-type' binding='weak-binding' visibility='default-visibility' is-defined='yes'/>
    <!-- SpinLock::SlowUnlock(unsigned long) -->
    <elf-symbol name='_ZN8SpinLock10SlowUnlockEm' type='func-type' binding='global-binding' visibility='default-visibility' is-defined='yes'/>
    <!-- SpinLock::SlowLock() -->
    <elf-symbol name='_ZN8SpinLock8SlowLockEv' type='func-type' binding='global-binding' visibility='default-visibility' is-defined='yes'/>
    <!-- SpinLock::SpinLoop(long, int*) -->
    <elf-symbol name='_ZN8SpinLock8SpinLoopElPi' type='func-type' binding='global-binding' visibility='default-visibility' is-defined='yes'/>
    <!-- tcmalloc::DLL_Length(tcmalloc::Span const*) -->
    <elf-symbol name='_ZN8tcmalloc10DLL_LengthEPKNS_4SpanE' type='func-type' binding='global-binding' visibility='default-visibility' is-defined='yes'/>
    <!-- tcmalloc::DLL_Remove(tcmalloc::Span*) -->
    <elf-symbol name='_ZN8tcmalloc10DLL_RemoveEPNS_4SpanE' type='func-type' binding='global-binding' visibility='default-visibility' is-defined='yes'/>
    <!-- tcmalloc::DeleteSpan(tcmalloc::Span*) -->
    <elf-symbol name='_ZN8tcmalloc10DeleteSpanEPNS_4SpanE' type='func-type' binding='global-binding' visibility='default-visibility' is-defined='yes'/>
    <!-- tcmalloc::DLL_Prepend(tcmalloc::Span*, tcmalloc::Span*) -->
    <elf-symbol name='_ZN8tcmalloc11DLL_PrependEPNS_4SpanES1_' type='func-type' binding='global-binding' visibility='default-visibility' is-defined='yes'/>
    <!-- tcmalloc::ThreadCache::BecomeIdle() -->
    <elf-symbol name='_ZN8tcmalloc11ThreadCache10BecomeIdleEv' type='func-type' binding='global-binding' visibility='default-visibility' is-defined='yes'/>
    <!-- tcmalloc::ThreadCache::InitModule() -->
    <elf-symbol name='_ZN8tcmalloc11ThreadCache10InitModuleEv' type='func-type' binding='global-binding' visibility='default-visibility' is-defined='yes'/>
    <!-- tcmalloc::ThreadCache::DeleteCache(tcmalloc::ThreadCache*) -->
    <elf-symbol name='_ZN8tcmalloc11ThreadCache11DeleteCacheEPS0_' type='func-type' binding='global-binding' visibility='default-visibility' is-defined='yes'/>
    <!-- tcmalloc::ThreadCache::ListTooLong(tcmalloc::ThreadCache::FreeList*, unsigned long) -->
    <elf-symbol name='_ZN8tcmalloc11ThreadCache11ListTooLongEPNS0_8FreeListEm' type='func-type' binding='global-binding' visibility='default-visibility' is-defined='yes'/>
    <!-- tcmalloc::ThreadCache::GetThreadStats(unsigned long*, unsigned long*) -->
    <elf-symbol name='_ZN8tcmalloc11ThreadCache14GetThreadStatsEPmS1_' type='func-type' binding='global-binding' visibility='default-visibility' is-defined='yes'/>
    <!-- tcmalloc::ThreadCache::GetSamplePeriod() -->
    <elf-symbol name='_ZN8tcmalloc11ThreadCache15GetSamplePeriodEv' type='func-type' binding='global-binding' visibility='default-visibility' is-defined='yes'/>
    <!-- tcmalloc::ThreadCache::DestroyThreadCache(void*) -->
    <elf-symbol name='_ZN8tcmalloc11ThreadCache18DestroyThreadCacheEPv' type='func-type' binding='global-binding' visibility='default-visibility' is-defined='yes'/>
    <!-- tcmalloc::ThreadCache::IncreaseCacheLimit() -->
    <elf-symbol name='_ZN8tcmalloc11ThreadCache18IncreaseCacheLimitEv' type='func-type' binding='global-binding' visibility='default-visibility' is-defined='yes'/>
    <!-- tcmalloc::ThreadCache::FetchFromCentralCache(unsigned long, unsigned long) -->
    <elf-symbol name='_ZN8tcmalloc11ThreadCache21FetchFromCentralCacheEmm' type='func-type' binding='global-binding' visibility='default-visibility' is-defined='yes'/>
    <!-- tcmalloc::ThreadCache::ReleaseToCentralCache(tcmalloc::ThreadCache::FreeList*, unsigned long, int) -->
    <elf-symbol name='_ZN8tcmalloc11ThreadCache21ReleaseToCentralCacheEPNS0_8FreeListEmi' type='func-type' binding='global-binding' visibility='default-visibility' is-defined='yes'/>
    <!-- tcmalloc::ThreadCache::CreateCacheIfNecessary() -->
    <elf-symbol name='_ZN8tcmalloc11ThreadCache22CreateCacheIfNecessaryEv' type='func-type' binding='global-binding' visibility='default-visibility' is-defined='yes'/>
    <!-- tcmalloc::ThreadCache::IncreaseCacheLimitLocked() -->
    <elf-symbol name='_ZN8tcmalloc11ThreadCache24IncreaseCacheLimitLockedEv' type='func-type' binding='global-binding' visibility='default-visibility' is-defined='yes'/>
    <!-- tcmalloc::ThreadCache::RecomputePerThreadCacheSize() -->
    <elf-symbol name='_ZN8tcmalloc11ThreadCache27RecomputePerThreadCacheSizeEv' type='func-type' binding='global-binding' visibility='default-visibility' is-defined='yes'/>
    <!-- tcmalloc::ThreadCache::set_overall_thread_cache_size(unsigned long) -->
    <elf-symbol name='_ZN8tcmalloc11ThreadCache29set_overall_thread_cache_sizeEm' type='func-type' binding='global-binding' visibility='default-visibility' is-defined='yes'/>
    <!-- tcmalloc::ThreadCache::Init(unsigned long) -->
    <elf-symbol name='_ZN8tcmalloc11ThreadCache4InitEm' type='func-type' binding='global-binding' visibility='default-visibility' is-defined='yes'/>
    <!-- tcmalloc::ThreadCache::Cleanup() -->
    <elf-symbol name='_ZN8tcmalloc11ThreadCache7CleanupEv' type='func-type' binding='global-binding' visibility='default-visibility' is-defined='yes'/>
    <!-- tcmalloc::ThreadCache::InitTSD() -->
    <elf-symbol name='_ZN8tcmalloc11ThreadCache7InitTSDEv' type='func-type' binding='global-binding' visibility='default-visibility' is-defined='yes'/>
    <!-- tcmalloc::ThreadCache::NewHeap(unsigned long) -->
    <elf-symbol name='_ZN8tcmalloc11ThreadCache7NewHeapEm' type='func-type' binding='global-binding' visibility='default-visibility' is-defined='yes'/>
    <!-- tcmalloc::ThreadCache::GetCache() -->
    <elf-symbol name='_ZN8tcmalloc11ThreadCache8GetCacheEv' type='func-type' binding='weak-binding' visibility='default-visibility' is-defined='yes'/>
    <!-- tcmalloc::ThreadCache::Scavenge() -->
    <elf-symbol name='_ZN8tcmalloc11ThreadCache8ScavengeEv' type='func-type' binding='global-binding' visibility='default-visibility' is-defined='yes'/>
    <!-- tcmalloc::MetaDataAlloc(unsigned long) -->
    <elf-symbol name='_ZN8tcmalloc13MetaDataAllocEm' type='func-type' binding='global-binding' visibility='default-visibility' is-defined='yes'/>
    <!-- tcmalloc::CentralFreeList::InsertRange(void*, void*, int) -->
    <elf-symbol name='_ZN8tcmalloc15CentralFreeList11InsertRangeEPvS1_i' type='func-type' binding='global-binding' visibility='default-visibility' is-defined='yes'/>
    <!-- tcmalloc::CentralFreeList::RemoveRange(void**, void**, int) -->
    <elf-symbol name='_ZN8tcmalloc15CentralFreeList11RemoveRangeEPPvS2_i' type='func-type' binding='global-binding' visibility='default-visibility' is-defined='yes'/>
    <!-- tcmalloc::CentralFreeList::ShrinkCache(int, bool) -->
    <elf-symbol name='_ZN8tcmalloc15CentralFreeList11ShrinkCacheEib' type='func-type' binding='global-binding' visibility='default-visibility' is-defined='yes'/>
    <!-- tcmalloc::CentralFreeList::OverheadBytes() -->
    <elf-symbol name='_ZN8tcmalloc15CentralFreeList13OverheadBytesEv' type='func-type' binding='global-binding' visibility='default-visibility' is-defined='yes'/>
    <!-- tcmalloc::CentralFreeList::MakeCacheSpace() -->
    <elf-symbol name='_ZN8tcmalloc15CentralFreeList14MakeCacheSpaceEv' type='func-type' binding='global-binding' visibility='default-visibility' is-defined='yes'/>
    <!-- tcmalloc::CentralFreeList::ReleaseToSpans(void*) -->
    <elf-symbol name='_ZN8tcmalloc15CentralFreeList14ReleaseToSpansEPv' type='func-type' binding='global-binding' visibility='default-visibility' is-defined='yes'/>
    <!-- tcmalloc::CentralFreeList::FetchFromOneSpans(int, void**, void**) -->
    <elf-symbol name='_ZN8tcmalloc15CentralFreeList17FetchFromOneSpansEiPPvS2_' type='func-type' binding='global-binding' visibility='default-visibility' is-defined='yes'/>
    <!-- tcmalloc::CentralFreeList::ReleaseListToSpans(void*) -->
    <elf-symbol name='_ZN8tcmalloc15CentralFreeList18ReleaseListToSpansEPv' type='func-type' binding='global-binding' visibility='default-visibility' is-defined='yes'/>
    <!-- tcmalloc::CentralFreeList::EvictRandomSizeClass(int, bool) -->
    <elf-symbol name='_ZN8tcmalloc15CentralFreeList20EvictRandomSizeClassEib' type='func-type' binding='global-binding' visibility='default-visibility' is-defined='yes'/>
    <!-- tcmalloc::CentralFreeList::FetchFromOneSpansSafe(int, void**, void**) -->
    <elf-symbol name='_ZN8tcmalloc15CentralFreeList21FetchFromOneSpansSafeEiPPvS2_' type='func-type' binding='global-binding' visibility='default-visibility' is-defined='yes'/>
    <!-- tcmalloc::CentralFreeList::Init(unsigned long) -->
    <elf-symbol name='_ZN8tcmalloc15CentralFreeList4InitEm' type='func-type' binding='global-binding' visibility='default-visibility' is-defined='yes'/>
    <!-- tcmalloc::CentralFreeList::Populate() -->
    <elf-symbol name='_ZN8tcmalloc15CentralFreeList8PopulateEv' type='func-type' binding='global-binding' visibility='default-visibility' is-defined='yes'/>
    <!-- tcmalloc::CentralFreeList::tc_length() -->
    <elf-symbol name='_ZN8tcmalloc15CentralFreeList9tc_lengthEv' type='func-type' binding='global-binding' visibility='default-visibility' is-defined='yes'/>
    <!-- tcmalloc::StackTraceTable::ReadStackTracesAndClear() -->
    <elf-symbol name='_ZN8tcmalloc15StackTraceTable23ReadStackTracesAndClearEv' type='func-type' binding='global-binding' visibility='default-visibility' is-defined='yes'/>
    <!-- tcmalloc::StackTraceTable::AddTrace(tcmalloc::StackTrace const&) -->
    <elf-symbol name='_ZN8tcmalloc15StackTraceTable8AddTraceERKNS_10StackTraceE' type='func-type' binding='global-binding' visibility='default-visibility' is-defined='yes'/>
    <!-- tcmalloc::StackTraceTable::StackTraceTable() -->
    <elf-symbol name='_ZN8tcmalloc15StackTraceTableC1Ev' type='func-type' binding='global-binding' visibility='default-visibility' is-defined='yes'/>
    <!-- tcmalloc::StackTraceTable::StackTraceTable() -->
    <elf-symbol name='_ZN8tcmalloc15StackTraceTableC2Ev' type='func-type' binding='global-binding' visibility='default-visibility' alias='_ZN8tcmalloc15StackTraceTableC1Ev' is-defined='yes'/>
    <!-- tcmalloc::StackTraceTable::~StackTraceTable() -->
    <elf-symbol name='_ZN8tcmalloc15StackTraceTableD1Ev' type='func-type' binding='global-binding' visibility='default-visibility' is-defined='yes'/>
    <!-- tcmalloc::StackTraceTable::~StackTraceTable() -->
    <elf-symbol name='_ZN8tcmalloc15StackTraceTableD2Ev' type='func-type' binding='global-binding' visibility='default-visibility' alias='_ZN8tcmalloc15StackTraceTableD1Ev' is-defined='yes'/>
    <!-- tcmalloc::AlignmentForSize(unsigned long) -->
    <elf-symbol name='_ZN8tcmalloc16AlignmentForSizeEm' type='func-type' binding='global-binding' visibility='default-visibility' is-defined='yes'/>
    <!-- tcmalloc::DumpProcSelfMaps(int) -->
    <elf-symbol name='_ZN8tcmalloc16DumpProcSelfMapsEi' type='func-type' binding='global-binding' visibility='default-visibility' is-defined='yes'/>
    <!-- tcmalloc::FillProcSelfMaps(char*, int, bool*) -->
    <elf-symbol name='_ZN8tcmalloc16FillProcSelfMapsEPciPb' type='func-type' binding='global-binding' visibility='default-visibility' is-defined='yes'/>
    <!-- tcmalloc::commandlineflags::StringToBool(char const*, bool) -->
    <elf-symbol name='_ZN8tcmalloc16commandlineflags12StringToBoolEPKcb' type='func-type' binding='weak-binding' visibility='default-visibility' is-defined='yes'/>
    <!-- tcmalloc::metadata_system_bytes() -->
    <elf-symbol name='_ZN8tcmalloc21metadata_system_bytesEv' type='func-type' binding='global-binding' visibility='default-visibility' is-defined='yes'/>
    <!-- tcmalloc::Log(tcmalloc::LogMode, char const*, int, tcmalloc::LogItem, tcmalloc::LogItem, tcmalloc::LogItem, tcmalloc::LogItem) -->
    <elf-symbol name='_ZN8tcmalloc3LogENS_7LogModeEPKciNS_7LogItemES3_S3_S3_' type='func-type' binding='global-binding' visibility='default-visibility' is-defined='yes'/>
    <!-- tcmalloc::Logger::Add(tcmalloc::LogItem const&) -->
    <elf-symbol name='_ZN8tcmalloc6Logger3AddERKNS_7LogItemE' type='func-type' binding='global-binding' visibility='default-visibility' is-defined='yes'/>
    <!-- tcmalloc::Logger::AddNum(unsigned long, int) -->
    <elf-symbol name='_ZN8tcmalloc6Logger6AddNumEmi' type='func-type' binding='global-binding' visibility='default-visibility' is-defined='yes'/>
    <!-- tcmalloc::Logger::AddStr(char const*, int) -->
    <elf-symbol name='_ZN8tcmalloc6Logger6AddStrEPKci' type='func-type' binding='global-binding' visibility='default-visibility' is-defined='yes'/>
    <!-- tcmalloc::Static::InitStaticVars() -->
    <elf-symbol name='_ZN8tcmalloc6Static14InitStaticVarsEv' type='func-type' binding='global-binding' visibility='default-visibility' is-defined='yes'/>
    <!-- tcmalloc::NewSpan(unsigned long, unsigned long) -->
    <elf-symbol name='_ZN8tcmalloc7NewSpanEmm' type='func-type' binding='global-binding' visibility='default-visibility' is-defined='yes'/>
    <!-- tcmalloc::Sampler::InitStatics() -->
    <elf-symbol name='_ZN8tcmalloc7Sampler11InitStaticsEv' type='func-type' binding='global-binding' visibility='default-visibility' is-defined='yes'/>
    <!-- tcmalloc::Sampler::GetSamplePeriod() -->
    <elf-symbol name='_ZN8tcmalloc7Sampler15GetSamplePeriodEv' type='func-type' binding='global-binding' visibility='default-visibility' is-defined='yes'/>
    <!-- tcmalloc::Sampler::PickNextSamplingPoint() -->
    <elf-symbol name='_ZN8tcmalloc7Sampler21PickNextSamplingPointEv' type='func-type' binding='global-binding' visibility='default-visibility' is-defined='yes'/>
    <!-- tcmalloc::Sampler::PopulateFastLog2Table() -->
    <elf-symbol name='_ZN8tcmalloc7Sampler21PopulateFastLog2TableEv' type='func-type' binding='global-binding' visibility='default-visibility' is-defined='yes'/>
    <!-- tcmalloc::Sampler::Init(unsigned int) -->
    <elf-symbol name='_ZN8tcmalloc7Sampler4InitEj' type='func-type' binding='global-binding' visibility='default-visibility' is-defined='yes'/>
    <!-- tcmalloc::SizeMap::NumMoveSize(unsigned long) -->
    <elf-symbol name='_ZN8tcmalloc7SizeMap11NumMoveSizeEm' type='func-type' binding='global-binding' visibility='default-visibility' is-defined='yes'/>
    <!-- tcmalloc::SizeMap::Init() -->
    <elf-symbol name='_ZN8tcmalloc7SizeMap4InitEv' type='func-type' binding='global-binding' visibility='default-visibility' is-defined='yes'/>
    <!-- tcmalloc::DLL_Init(tcmalloc::Span*) -->
    <elf-symbol name='_ZN8tcmalloc8DLL_InitEPNS_4SpanE' type='func-type' binding='global-binding' visibility='default-visibility' is-defined='yes'/>
    <!-- tcmalloc::PageHeap::AllocLarge(unsigned long) -->
    <elf-symbol name='_ZN8tcmalloc8PageHeap10AllocLargeEm' type='func-type' binding='global-binding' visibility='default-visibility' is-defined='yes'/>
    <!-- tcmalloc::PageHeap::CommitSpan(tcmalloc::Span*) -->
    <elf-symbol name='_ZN8tcmalloc8PageHeap10CommitSpanEPNS_4SpanE' type='func-type' binding='global-binding' visibility='default-visibility' is-defined='yes'/>
    <!-- tcmalloc::PageHeap::EnsureLimit(unsigned long, bool) -->
    <elf-symbol name='_ZN8tcmalloc8PageHeap11EnsureLimitEmb' type='func-type' binding='global-binding' visibility='default-visibility' is-defined='yes'/>
    <!-- tcmalloc::PageHeap::DecommitSpan(tcmalloc::Span*) -->
    <elf-symbol name='_ZN8tcmalloc8PageHeap12DecommitSpanEPNS_4SpanE' type='func-type' binding='global-binding' visibility='default-visibility' is-defined='yes'/>
    <!-- tcmalloc::PageHeap::GetNextRange(unsigned long, base::MallocRange*) -->
    <elf-symbol name='_ZN8tcmalloc8PageHeap12GetNextRangeEmPN4base11MallocRangeE' type='func-type' binding='global-binding' visibility='default-visibility' is-defined='yes'/>
    <!-- tcmalloc::PageHeap::MayMergeSpans(tcmalloc::Span*, tcmalloc::Span*) -->
    <elf-symbol name='_ZN8tcmalloc8PageHeap13MayMergeSpansEPNS_4SpanES2_' type='func-type' binding='global-binding' visibility='default-visibility' is-defined='yes'/>
    <!-- tcmalloc::PageHeap::CheckExpensive() -->
    <elf-symbol name='_ZN8tcmalloc8PageHeap14CheckExpensiveEv' type='func-type' binding='global-binding' visibility='default-visibility' is-defined='yes'/>
    <!-- tcmalloc::PageHeap::GetLargeSpanStats(tcmalloc::PageHeap::LargeSpanStats*) -->
    <elf-symbol name='_ZN8tcmalloc8PageHeap17GetLargeSpanStatsEPNS0_14LargeSpanStatsE' type='func-type' binding='global-binding' visibility='default-visibility' is-defined='yes'/>
    <!-- tcmalloc::PageHeap::GetSmallSpanStats(tcmalloc::PageHeap::SmallSpanStats*) -->
    <elf-symbol name='_ZN8tcmalloc8PageHeap17GetSmallSpanStatsEPNS0_14SmallSpanStatsE' type='func-type' binding='global-binding' visibility='default-visibility' is-defined='yes'/>
    <!-- tcmalloc::PageHeap::MergeIntoFreeList(tcmalloc::Span*) -->
    <elf-symbol name='_ZN8tcmalloc8PageHeap17MergeIntoFreeListEPNS_4SpanE' type='func-type' binding='global-binding' visibility='default-visibility' is-defined='yes'/>
    <!-- tcmalloc::PageHeap::PrependToFreeList(tcmalloc::Span*) -->
    <elf-symbol name='_ZN8tcmalloc8PageHeap17PrependToFreeListEPNS_4SpanE' type='func-type' binding='global-binding' visibility='default-visibility' is-defined='yes'/>
    <!-- tcmalloc::PageHeap::RegisterSizeClass(tcmalloc::Span*, unsigned long) -->
    <elf-symbol name='_ZN8tcmalloc8PageHeap17RegisterSizeClassEPNS_4SpanEm' type='func-type' binding='global-binding' visibility='default-visibility' is-defined='yes'/>
    <!-- tcmalloc::PageHeap::RemoveFromFreeList(tcmalloc::Span*) -->
    <elf-symbol name='_ZN8tcmalloc8PageHeap18RemoveFromFreeListEPNS_4SpanE' type='func-type' binding='global-binding' visibility='default-visibility' is-defined='yes'/>
    <!-- tcmalloc::PageHeap::IncrementalScavenge(unsigned long) -->
    <elf-symbol name='_ZN8tcmalloc8PageHeap19IncrementalScavengeEm' type='func-type' binding='global-binding' visibility='default-visibility' is-defined='yes'/>
    <!-- tcmalloc::PageHeap::ReleaseAtLeastNPages(unsigned long) -->
    <elf-symbol name='_ZN8tcmalloc8PageHeap20ReleaseAtLeastNPagesEm' type='func-type' binding='global-binding' visibility='default-visibility' is-defined='yes'/>
    <!-- tcmalloc::PageHeap::ReleaseLastNormalSpan(tcmalloc::PageHeap::SpanList*) -->
    <elf-symbol name='_ZN8tcmalloc8PageHeap21ReleaseLastNormalSpanEPNS0_8SpanListE' type='func-type' binding='global-binding' visibility='default-visibility' is-defined='yes'/>
    <!-- tcmalloc::PageHeap::SearchFreeAndLargeLists(unsigned long) -->
    <elf-symbol name='_ZN8tcmalloc8PageHeap23SearchFreeAndLargeListsEm' type='func-type' binding='global-binding' visibility='default-visibility' is-defined='yes'/>
    <!-- tcmalloc::PageHeap::New(unsigned long) -->
    <elf-symbol name='_ZN8tcmalloc8PageHeap3NewEm' type='func-type' binding='global-binding' visibility='default-visibility' is-defined='yes'/>
    <!-- tcmalloc::PageHeap::Carve(tcmalloc::Span*, unsigned long) -->
    <elf-symbol name='_ZN8tcmalloc8PageHeap5CarveEPNS_4SpanEm' type='func-type' binding='global-binding' visibility='default-visibility' is-defined='yes'/>
    <!-- tcmalloc::PageHeap::Check() -->
    <elf-symbol name='_ZN8tcmalloc8PageHeap5CheckEv' type='func-type' binding='global-binding' visibility='default-visibility' is-defined='yes'/>
    <!-- tcmalloc::PageHeap::Split(tcmalloc::Span*, unsigned long) -->
    <elf-symbol name='_ZN8tcmalloc8PageHeap5SplitEPNS_4SpanEm' type='func-type' binding='global-binding' visibility='default-visibility' is-defined='yes'/>
    <!-- tcmalloc::PageHeap::Delete(tcmalloc::Span*) -->
    <elf-symbol name='_ZN8tcmalloc8PageHeap6DeleteEPNS_4SpanE' type='func-type' binding='global-binding' visibility='default-visibility' is-defined='yes'/>
    <!-- tcmalloc::PageHeap::GrowHeap(unsigned long) -->
    <elf-symbol name='_ZN8tcmalloc8PageHeap8GrowHeapEm' type='func-type' binding='global-binding' visibility='default-visibility' is-defined='yes'/>
    <!-- tcmalloc::PageHeap::CheckList(tcmalloc::Span*, unsigned long, unsigned long, int) -->
    <elf-symbol name='_ZN8tcmalloc8PageHeap9CheckListEPNS_4SpanEmmi' type='func-type' binding='global-binding' visibility='default-visibility' is-defined='yes'/>
    <!-- tcmalloc::PageHeap::PageHeap() -->
    <elf-symbol name='_ZN8tcmalloc8PageHeapC1Ev' type='func-type' binding='global-binding' visibility='default-visibility' alias='_ZN8tcmalloc8PageHeapC2Ev' is-defined='yes'/>
    <!-- tcmalloc::PageHeap::PageHeap() -->
    <elf-symbol name='_ZN8tcmalloc8PageHeapC2Ev' type='func-type' binding='global-binding' visibility='default-visibility' is-defined='yes'/>
    <!-- ProfileData::GetCurrentState(ProfileData::State*) const -->
    <elf-symbol name='_ZNK11ProfileData15GetCurrentStateEPNS_5StateE' type='func-type' binding='global-binding' visibility='default-visibility' is-defined='yes'/>
    <!-- HeapLeakChecker::BytesLeaked() const -->
    <elf-symbol name='_ZNK15HeapLeakChecker11BytesLeakedEv' type='func-type' binding='global-binding' visibility='default-visibility' is-defined='yes'/>
    <!-- HeapLeakChecker::ObjectsLeaked() const -->
    <elf-symbol name='_ZNK15HeapLeakChecker13ObjectsLeakedEv' type='func-type' binding='global-binding' visibility='default-visibility' is-defined='yes'/>
    <!-- HeapProfileTable::FindInsideAlloc(void const*, unsigned long, void const**, unsigned long*) const -->
    <elf-symbol name='_ZNK16HeapProfileTable15FindInsideAllocEPKvmPS1_Pm' type='func-type' binding='global-binding' visibility='default-visibility' is-defined='yes'/>
    <!-- HeapProfileTable::FindAllocDetails(void const*, HeapProfileTable::AllocInfo*) const -->
    <elf-symbol name='_ZNK16HeapProfileTable16FindAllocDetailsEPKvPNS_9AllocInfoE' type='func-type' binding='global-binding' visibility='default-visibility' is-defined='yes'/>
    <!-- HeapProfileTable::FillOrderedProfile(char*, int) const -->
    <elf-symbol name='_ZNK16HeapProfileTable18FillOrderedProfileEPci' type='func-type' binding='global-binding' visibility='default-visibility' is-defined='yes'/>
    <!-- HeapProfileTable::MakeSortedBucketList() const -->
    <elf-symbol name='_ZNK16HeapProfileTable20MakeSortedBucketListEv' type='func-type' binding='global-binding' visibility='default-visibility' is-defined='yes'/>
    <!-- HeapProfileTable::IterateOrderedAllocContexts(void (*)(HeapProfileTable::AllocContextInfo const&)) const -->
    <elf-symbol name='_ZNK16HeapProfileTable27IterateOrderedAllocContextsEPFvRKNS_16AllocContextInfoEE' type='func-type' binding='global-binding' visibility='default-visibility' is-defined='yes'/>
    <!-- HeapProfileTable::FindAlloc(void const*, unsigned long*) const -->
    <elf-symbol name='_ZNK16HeapProfileTable9FindAllocEPKvPm' type='func-type' binding='global-binding' visibility='default-visibility' is-defined='yes'/>
    <!-- ProcMapsIterator::Valid() const -->
    <elf-symbol name='_ZNK16ProcMapsIterator5ValidEv' type='func-type' binding='global-binding' visibility='default-visibility' is-defined='yes'/>
    <!-- base::ElfMemImage::GetSymAddr(Elf64_Sym const*) const -->
    <elf-symbol name='_ZNK4base11ElfMemImage10GetSymAddrEPK9Elf64_Sym' type='func-type' binding='global-binding' visibility='default-visibility' is-defined='yes'/>
    <!-- base::ElfMemImage::GetVerdefAux(Elf64_Verdef const*) const -->
    <elf-symbol name='_ZNK4base11ElfMemImage12GetVerdefAuxEPK12Elf64_Verdef' type='func-type' binding='global-binding' visibility='default-visibility' is-defined='yes'/>
    <!-- base::ElfMemImage::LookupSymbol(char const*, char const*, int, base::ElfMemImage::SymbolInfo*) const -->
    <elf-symbol name='_ZNK4base11ElfMemImage12LookupSymbolEPKcS2_iPNS0_10SymbolInfoE' type='func-type' binding='global-binding' visibility='default-visibility' is-defined='yes'/>
    <!-- base::ElfMemImage::GetNumSymbols() const -->
    <elf-symbol name='_ZNK4base11ElfMemImage13GetNumSymbolsEv' type='func-type' binding='global-binding' visibility='default-visibility' is-defined='yes'/>
    <!-- base::ElfMemImage::SymbolIterator::operator*() const -->
    <elf-symbol name='_ZNK4base11ElfMemImage14SymbolIteratordeEv' type='func-type' binding='global-binding' visibility='default-visibility' is-defined='yes'/>
    <!-- base::ElfMemImage::SymbolIterator::operator==(base::ElfMemImage::SymbolIterator const&) const -->
    <elf-symbol name='_ZNK4base11ElfMemImage14SymbolIteratoreqERKS1_' type='func-type' binding='global-binding' visibility='default-visibility' is-defined='yes'/>
    <!-- base::ElfMemImage::SymbolIterator::operator!=(base::ElfMemImage::SymbolIterator const&) const -->
    <elf-symbol name='_ZNK4base11ElfMemImage14SymbolIteratorneERKS1_' type='func-type' binding='global-binding' visibility='default-visibility' is-defined='yes'/>
    <!-- base::ElfMemImage::SymbolIterator::operator&#45;>() const -->
    <elf-symbol name='_ZNK4base11ElfMemImage14SymbolIteratorptEv' type='func-type' binding='global-binding' visibility='default-visibility' is-defined='yes'/>
    <!-- base::ElfMemImage::LookupSymbolByAddress(void const*, base::ElfMemImage::SymbolInfo*) const -->
    <elf-symbol name='_ZNK4base11ElfMemImage21LookupSymbolByAddressEPKvPNS0_10SymbolInfoE' type='func-type' binding='global-binding' visibility='default-visibility' is-defined='yes'/>
    <!-- base::ElfMemImage::end() const -->
    <elf-symbol name='_ZNK4base11ElfMemImage3endEv' type='func-type' binding='global-binding' visibility='default-visibility' is-defined='yes'/>
    <!-- base::ElfMemImage::begin() const -->
    <elf-symbol name='_ZNK4base11ElfMemImage5beginEv' type='func-type' binding='global-binding' visibility='default-visibility' is-defined='yes'/>
    <!-- base::ElfMemImage::GetPhdr(int) const -->
    <elf-symbol name='_ZNK4base11ElfMemImage7GetPhdrEi' type='func-type' binding='global-binding' visibility='default-visibility' is-defined='yes'/>
    <!-- base::ElfMemImage::GetDynstr(unsigned int) const -->
    <elf-symbol name='_ZNK4base11ElfMemImage9GetDynstrEj' type='func-type' binding='global-binding' visibility='default-visibility' is-defined='yes'/>
    <!-- base::ElfMemImage::GetDynsym(int) const -->
    <elf-symbol name='_ZNK4base11ElfMemImage9GetDynsymEi' type='func-type' binding='global-binding' visibility='default-visibility' is-defined='yes'/>
    <!-- base::ElfMemImage::GetVerdef(int) const -->
    <elf-symbol name='_ZNK4base11ElfMemImage9GetVerdefEi' type='func-type' binding='global-binding' visibility='default-visibility' is-defined='yes'/>
    <!-- base::ElfMemImage::GetVerstr(unsigned int) const -->
    <elf-symbol name='_ZNK4base11ElfMemImage9GetVerstrEj' type='func-type' binding='global-binding' visibility='default-visibility' is-defined='yes'/>
    <!-- base::ElfMemImage::GetVersym(int) const -->
    <elf-symbol name='_ZNK4base11ElfMemImage9GetVersymEi' type='func-type' binding='global-binding' visibility='default-visibility' is-defined='yes'/>
    <!-- base::VDSOSupport::LookupSymbol(char const*, char const*, int, base::ElfMemImage::SymbolInfo*) const -->
    <elf-symbol name='_ZNK4base11VDSOSupport12LookupSymbolEPKcS2_iPNS_11ElfMemImage10SymbolInfoE' type='func-type' binding='global-binding' visibility='default-visibility' is-defined='yes'/>
    <!-- base::VDSOSupport::LookupSymbolByAddress(void const*, base::ElfMemImage::SymbolInfo*) const -->
    <elf-symbol name='_ZNK4base11VDSOSupport21LookupSymbolByAddressEPKvPNS_11ElfMemImage10SymbolInfoE' type='func-type' binding='global-binding' visibility='default-visibility' is-defined='yes'/>
    <!-- base::internal::HookList<void (*)(void const*, unsigned long)>::GetSingular() const -->
    <elf-symbol name='_ZNK4base8internal8HookListIPFvPKvmEE11GetSingularEv' type='func-type' binding='weak-binding' visibility='default-visibility' is-defined='yes'/>
    <!-- base::internal::HookList<void (*)(void const*, unsigned long)>::empty() const -->
    <elf-symbol name='_ZNK4base8internal8HookListIPFvPKvmEE5emptyEv' type='func-type' binding='weak-binding' visibility='default-visibility' is-defined='yes'/>
    <!-- base::internal::HookList<void (*)(void const*, unsigned long)>::Traverse(void (**)(void const*, unsigned long), int) const -->
    <elf-symbol name='_ZNK4base8internal8HookListIPFvPKvmEE8TraverseEPS5_i' type='func-type' binding='weak-binding' visibility='default-visibility' is-defined='yes'/>
    <!-- tcmalloc::StackTraceTable::Bucket::KeyEqual(unsigned long, tcmalloc::StackTrace const&) const -->
    <elf-symbol name='_ZNK8tcmalloc15StackTraceTable6Bucket8KeyEqualEmRKNS_10StackTraceE' type='func-type' binding='global-binding' visibility='default-visibility' is-defined='yes'/>
    <!-- std::basic_string<char, std::char_traits<char>, STL_Allocator<char, HeapLeakChecker::Allocator> >::_Rep::_M_destroy(STL_Allocator<char, HeapLeakChecker::Allocator> const&) -->
    <elf-symbol name='_ZNSbIcSt11char_traitsIcE13STL_AllocatorIcN15HeapLeakChecker9AllocatorEEE4_Rep10_M_destroyERKS4_' type='func-type' binding='weak-binding' visibility='default-visibility' is-defined='yes'/>
    <!-- std::basic_string<char, std::char_traits<char>, STL_Allocator<char, HeapLeakChecker::Allocator> >::_Rep::_S_create(unsigned long, unsigned long, STL_Allocator<char, HeapLeakChecker::Allocator> const&) -->
    <elf-symbol name='_ZNSbIcSt11char_traitsIcE13STL_AllocatorIcN15HeapLeakChecker9AllocatorEEE4_Rep9_S_createEmmRKS4_' type='func-type' binding='weak-binding' visibility='default-visibility' is-defined='yes'/>
    <!-- std::basic_string<char, std::char_traits<char>, STL_Allocator<char, HeapLeakChecker::Allocator> >::basic_string(char const*, STL_Allocator<char, HeapLeakChecker::Allocator> const&) -->
    <elf-symbol name='_ZNSbIcSt11char_traitsIcE13STL_AllocatorIcN15HeapLeakChecker9AllocatorEEEC1EPKcRKS4_' type='func-type' binding='weak-binding' visibility='default-visibility' is-defined='yes'/>
    <!-- std::basic_string<char, std::char_traits<char>, STL_Allocator<char, HeapLeakChecker::Allocator> >::basic_string(std::basic_string<char, std::char_traits<char>, STL_Allocator<char, HeapLeakChecker::Allocator> > const&) -->
    <elf-symbol name='_ZNSbIcSt11char_traitsIcE13STL_AllocatorIcN15HeapLeakChecker9AllocatorEEEC1ERKS5_' type='func-type' binding='weak-binding' visibility='default-visibility' alias='_ZNSbIcSt11char_traitsIcE13STL_AllocatorIcN15HeapLeakChecker9AllocatorEEEC2ERKS5_' is-defined='yes'/>
    <!-- std::basic_string<char, std::char_traits<char>, STL_Allocator<char, HeapLeakChecker::Allocator> >::basic_string(char const*, STL_Allocator<char, HeapLeakChecker::Allocator> const&) -->
    <elf-symbol name='_ZNSbIcSt11char_traitsIcE13STL_AllocatorIcN15HeapLeakChecker9AllocatorEEEC2EPKcRKS4_' type='func-type' binding='weak-binding' visibility='default-visibility' alias='_ZNSbIcSt11char_traitsIcE13STL_AllocatorIcN15HeapLeakChecker9AllocatorEEEC1EPKcRKS4_' is-defined='yes'/>
    <!-- std::basic_string<char, std::char_traits<char>, STL_Allocator<char, HeapLeakChecker::Allocator> >::basic_string(std::basic_string<char, std::char_traits<char>, STL_Allocator<char, HeapLeakChecker::Allocator> > const&) -->
    <elf-symbol name='_ZNSbIcSt11char_traitsIcE13STL_AllocatorIcN15HeapLeakChecker9AllocatorEEEC2ERKS5_' type='func-type' binding='weak-binding' visibility='default-visibility' is-defined='yes'/>
    <!-- std::basic_string<char, std::char_traits<char>, STL_Allocator<char, HeapLeakChecker::Allocator> >::~basic_string() -->
    <elf-symbol name='_ZNSbIcSt11char_traitsIcE13STL_AllocatorIcN15HeapLeakChecker9AllocatorEEED1Ev' type='func-type' binding='weak-binding' visibility='default-visibility' alias='_ZNSbIcSt11char_traitsIcE13STL_AllocatorIcN15HeapLeakChecker9AllocatorEEED2Ev' is-defined='yes'/>
    <!-- std::basic_string<char, std::char_traits<char>, STL_Allocator<char, HeapLeakChecker::Allocator> >::~basic_string() -->
    <elf-symbol name='_ZNSbIcSt11char_traitsIcE13STL_AllocatorIcN15HeapLeakChecker9AllocatorEEED2Ev' type='func-type' binding='weak-binding' visibility='default-visibility' is-defined='yes'/>
    <!-- std::vector<AllocObject, STL_Allocator<AllocObject, HeapLeakChecker::Allocator> >::_M_insert_aux(__gnu_cxx::__normal_iterator<AllocObject*, std::vector<AllocObject, STL_Allocator<AllocObject, HeapLeakChecker::Allocator> > >, AllocObject const&) -->
    <elf-symbol name='_ZNSt6vectorI11AllocObject13STL_AllocatorIS0_N15HeapLeakChecker9AllocatorEEE13_M_insert_auxEN9__gnu_cxx17__normal_iteratorIPS0_S5_EERKS0_' type='func-type' binding='weak-binding' visibility='default-visibility' is-defined='yes'/>
    <!-- std::vector<MallocExtension::FreeListInfo, std::allocator<MallocExtension::FreeListInfo> >::_M_insert_aux(__gnu_cxx::__normal_iterator<MallocExtension::FreeListInfo*, std::vector<MallocExtension::FreeListInfo, std::allocator<MallocExtension::FreeListInfo> > >, MallocExtension::FreeListInfo const&) -->
    <elf-symbol name='_ZNSt6vectorIN15MallocExtension12FreeListInfoESaIS1_EE13_M_insert_auxEN9__gnu_cxx17__normal_iteratorIPS1_S3_EERKS1_' type='func-type' binding='weak-binding' visibility='default-visibility' is-defined='yes'/>
    <!-- std::vector<void (*)(), std::allocator<void (*)()> >::_M_insert_aux(__gnu_cxx::__normal_iterator<void (**)(), std::vector<void (*)(), std::allocator<void (*)()> > >, void (* const&)()) -->
    <elf-symbol name='_ZNSt6vectorIPFvvESaIS1_EE13_M_insert_auxEN9__gnu_cxx17__normal_iteratorIPS1_S3_EERKS1_' type='func-type' binding='weak-binding' visibility='default-visibility' is-defined='yes'/>
    <!-- std::vector<void*, STL_Allocator<void*, HeapLeakChecker::Allocator> >::_M_insert_aux(__gnu_cxx::__normal_iterator<void**, std::vector<void*, STL_Allocator<void*, HeapLeakChecker::Allocator> > >, void* const&) -->
    <elf-symbol name='_ZNSt6vectorIPv13STL_AllocatorIS0_N15HeapLeakChecker9AllocatorEEE13_M_insert_auxEN9__gnu_cxx17__normal_iteratorIPS0_S5_EERKS0_' type='func-type' binding='weak-binding' visibility='default-visibility' is-defined='yes'/>
    <!-- std::_Rb_tree<MemoryRegionMap::Region, MemoryRegionMap::Region, std::_Identity<MemoryRegionMap::Region>, MemoryRegionMap::RegionCmp, STL_Allocator<MemoryRegionMap::Region, MemoryRegionMap::MyAllocator> >::_M_insert_(std::_Rb_tree_node_base const*, std::_Rb_tree_node_base const*, MemoryRegionMap::Region const&) -->
    <elf-symbol name='_ZNSt8_Rb_treeIN15MemoryRegionMap6RegionES1_St9_IdentityIS1_ENS0_9RegionCmpE13STL_AllocatorIS1_NS0_11MyAllocatorEEE10_M_insert_EPKSt18_Rb_tree_node_baseSB_RKS1_' type='func-type' binding='weak-binding' visibility='default-visibility' is-defined='yes'/>
    <!-- std::_Rb_tree<MemoryRegionMap::Region, MemoryRegionMap::Region, std::_Identity<MemoryRegionMap::Region>, MemoryRegionMap::RegionCmp, STL_Allocator<MemoryRegionMap::Region, MemoryRegionMap::MyAllocator> >::_M_erase(std::_Rb_tree_node<MemoryRegionMap::Region>*) -->
    <elf-symbol name='_ZNSt8_Rb_treeIN15MemoryRegionMap6RegionES1_St9_IdentityIS1_ENS0_9RegionCmpE13STL_AllocatorIS1_NS0_11MyAllocatorEEE8_M_eraseEPSt13_Rb_tree_nodeIS1_E' type='func-type' binding='weak-binding' visibility='default-visibility' is-defined='yes'/>
    <!-- std::_Rb_tree<HeapProfileBucket*, std::pair<HeapProfileBucket* const, HeapProfileTable::Snapshot::Entry>, std::_Select1st<std::pair<HeapProfileBucket* const, HeapProfileTable::Snapshot::Entry> >, std::less<HeapProfileBucket*>, std::allocator<std::pair<HeapProfileBucket* const, HeapProfileTable::Snapshot::Entry> > >::_M_insert_(std::_Rb_tree_node_base const*, std::_Rb_tree_node_base const*, std::pair<HeapProfileBucket* const, HeapProfileTable::Snapshot::Entry> const&) -->
    <elf-symbol name='_ZNSt8_Rb_treeIP17HeapProfileBucketSt4pairIKS1_N16HeapProfileTable8Snapshot5EntryEESt10_Select1stIS7_ESt4lessIS1_ESaIS7_EE10_M_insert_EPKSt18_Rb_tree_node_baseSG_RKS7_' type='func-type' binding='weak-binding' visibility='default-visibility' is-defined='yes'/>
    <!-- std::_Rb_tree<HeapProfileBucket*, std::pair<HeapProfileBucket* const, HeapProfileTable::Snapshot::Entry>, std::_Select1st<std::pair<HeapProfileBucket* const, HeapProfileTable::Snapshot::Entry> >, std::less<HeapProfileBucket*>, std::allocator<std::pair<HeapProfileBucket* const, HeapProfileTable::Snapshot::Entry> > >::_M_insert_unique(std::pair<HeapProfileBucket* const, HeapProfileTable::Snapshot::Entry> const&) -->
    <elf-symbol name='_ZNSt8_Rb_treeIP17HeapProfileBucketSt4pairIKS1_N16HeapProfileTable8Snapshot5EntryEESt10_Select1stIS7_ESt4lessIS1_ESaIS7_EE16_M_insert_uniqueERKS7_' type='func-type' binding='weak-binding' visibility='default-visibility' is-defined='yes'/>
    <!-- std::_Rb_tree<HeapProfileBucket*, std::pair<HeapProfileBucket* const, HeapProfileTable::Snapshot::Entry>, std::_Select1st<std::pair<HeapProfileBucket* const, HeapProfileTable::Snapshot::Entry> >, std::less<HeapProfileBucket*>, std::allocator<std::pair<HeapProfileBucket* const, HeapProfileTable::Snapshot::Entry> > >::_M_insert_unique_(std::_Rb_tree_const_iterator<std::pair<HeapProfileBucket* const, HeapProfileTable::Snapshot::Entry> >, std::pair<HeapProfileBucket* const, HeapProfileTable::Snapshot::Entry> const&) -->
    <elf-symbol name='_ZNSt8_Rb_treeIP17HeapProfileBucketSt4pairIKS1_N16HeapProfileTable8Snapshot5EntryEESt10_Select1stIS7_ESt4lessIS1_ESaIS7_EE17_M_insert_unique_ESt23_Rb_tree_const_iteratorIS7_ERKS7_' type='func-type' binding='weak-binding' visibility='default-visibility' is-defined='yes'/>
    <!-- std::_Rb_tree<HeapProfileBucket*, std::pair<HeapProfileBucket* const, HeapProfileTable::Snapshot::Entry>, std::_Select1st<std::pair<HeapProfileBucket* const, HeapProfileTable::Snapshot::Entry> >, std::less<HeapProfileBucket*>, std::allocator<std::pair<HeapProfileBucket* const, HeapProfileTable::Snapshot::Entry> > >::_M_erase(std::_Rb_tree_node<std::pair<HeapProfileBucket* const, HeapProfileTable::Snapshot::Entry> >*) -->
    <elf-symbol name='_ZNSt8_Rb_treeIP17HeapProfileBucketSt4pairIKS1_N16HeapProfileTable8Snapshot5EntryEESt10_Select1stIS7_ESt4lessIS1_ESaIS7_EE8_M_eraseEPSt13_Rb_tree_nodeIS7_E' type='func-type' binding='weak-binding' visibility='default-visibility' is-defined='yes'/>
    <!-- std::_Rb_tree<void const*, std::pair<void const* const, char const*>, std::_Select1st<std::pair<void const* const, char const*> >, std::less<void const*>, std::allocator<std::pair<void const* const, char const*> > >::_M_insert_(std::_Rb_tree_node_base const*, std::_Rb_tree_node_base const*, std::pair<void const* const, char const*> const&) -->
    <elf-symbol name='_ZNSt8_Rb_treeIPKvSt4pairIKS1_PKcESt10_Select1stIS6_ESt4lessIS1_ESaIS6_EE10_M_insert_EPKSt18_Rb_tree_node_baseSF_RKS6_' type='func-type' binding='weak-binding' visibility='default-visibility' is-defined='yes'/>
    <!-- std::_Rb_tree<void const*, std::pair<void const* const, char const*>, std::_Select1st<std::pair<void const* const, char const*> >, std::less<void const*>, std::allocator<std::pair<void const* const, char const*> > >::_M_insert_unique(std::pair<void const* const, char const*> const&) -->
    <elf-symbol name='_ZNSt8_Rb_treeIPKvSt4pairIKS1_PKcESt10_Select1stIS6_ESt4lessIS1_ESaIS6_EE16_M_insert_uniqueERKS6_' type='func-type' binding='weak-binding' visibility='default-visibility' is-defined='yes'/>
    <!-- std::_Rb_tree<void const*, std::pair<void const* const, char const*>, std::_Select1st<std::pair<void const* const, char const*> >, std::less<void const*>, std::allocator<std::pair<void const* const, char const*> > >::_M_insert_unique_(std::_Rb_tree_const_iterator<std::pair<void const* const, char const*> >, std::pair<void const* const, char const*> const&) -->
    <elf-symbol name='_ZNSt8_Rb_treeIPKvSt4pairIKS1_PKcESt10_Select1stIS6_ESt4lessIS1_ESaIS6_EE17_M_insert_unique_ESt23_Rb_tree_const_iteratorIS6_ERKS6_' type='func-type' binding='weak-binding' visibility='default-visibility' is-defined='yes'/>
    <!-- std::_Rb_tree<void const*, std::pair<void const* const, char const*>, std::_Select1st<std::pair<void const* const, char const*> >, std::less<void const*>, std::allocator<std::pair<void const* const, char const*> > >::_M_erase(std::_Rb_tree_node<std::pair<void const* const, char const*> >*) -->
    <elf-symbol name='_ZNSt8_Rb_treeIPKvSt4pairIKS1_PKcESt10_Select1stIS6_ESt4lessIS1_ESaIS6_EE8_M_eraseEPSt13_Rb_tree_nodeIS6_E' type='func-type' binding='weak-binding' visibility='default-visibility' is-defined='yes'/>
    <!-- std::_Rb_tree<std::basic_string<char, std::char_traits<char>, STL_Allocator<char, HeapLeakChecker::Allocator> >, std::pair<std::basic_string<char, std::char_traits<char>, STL_Allocator<char, HeapLeakChecker::Allocator> > const, std::vector<AllocObject, STL_Allocator<AllocObject, HeapLeakChecker::Allocator> > >, std::_Select1st<std::pair<std::basic_string<char, std::char_traits<char>, STL_Allocator<char, HeapLeakChecker::Allocator> > const, std::vector<AllocObject, STL_Allocator<AllocObject, HeapLeakChecker::Allocator> > > >, std::less<std::basic_string<char, std::char_traits<char>, STL_Allocator<char, HeapLeakChecker::Allocator> > >, STL_Allocator<std::pair<std::basic_string<char, std::char_traits<char>, STL_Allocator<char, HeapLeakChecker::Allocator> > const, std::vector<AllocObject, STL_Allocator<AllocObject, HeapLeakChecker::Allocator> > >, HeapLeakChecker::Allocator> >::_M_insert_(std::_Rb_tree_node_base const*, std::_Rb_tree_node_base const*, std::pair<std::basic_string<char, std::char_traits<char>, STL_Allocator<char, HeapLeakChecker::Allocator> > const, std::vector<AllocObject, STL_Allocator<AllocObject, HeapLeakChecker::Allocator> > > const&) -->
    <elf-symbol name='_ZNSt8_Rb_treeISbIcSt11char_traitsIcE13STL_AllocatorIcN15HeapLeakChecker9AllocatorEEESt4pairIKS6_St6vectorI11AllocObjectS2_ISA_S4_EEESt10_Select1stISD_ESt4lessIS6_ES2_ISD_S4_EE10_M_insert_EPKSt18_Rb_tree_node_baseSM_RKSD_' type='func-type' binding='weak-binding' visibility='default-visibility' is-defined='yes'/>
    <!-- std::_Rb_tree<std::basic_string<char, std::char_traits<char>, STL_Allocator<char, HeapLeakChecker::Allocator> >, std::pair<std::basic_string<char, std::char_traits<char>, STL_Allocator<char, HeapLeakChecker::Allocator> > const, std::vector<AllocObject, STL_Allocator<AllocObject, HeapLeakChecker::Allocator> > >, std::_Select1st<std::pair<std::basic_string<char, std::char_traits<char>, STL_Allocator<char, HeapLeakChecker::Allocator> > const, std::vector<AllocObject, STL_Allocator<AllocObject, HeapLeakChecker::Allocator> > > >, std::less<std::basic_string<char, std::char_traits<char>, STL_Allocator<char, HeapLeakChecker::Allocator> > >, STL_Allocator<std::pair<std::basic_string<char, std::char_traits<char>, STL_Allocator<char, HeapLeakChecker::Allocator> > const, std::vector<AllocObject, STL_Allocator<AllocObject, HeapLeakChecker::Allocator> > >, HeapLeakChecker::Allocator> >::_M_insert_unique(std::pair<std::basic_string<char, std::char_traits<char>, STL_Allocator<char, HeapLeakChecker::Allocator> > const, std::vector<AllocObject, STL_Allocator<AllocObject, HeapLeakChecker::Allocator> > > const&) -->
    <elf-symbol name='_ZNSt8_Rb_treeISbIcSt11char_traitsIcE13STL_AllocatorIcN15HeapLeakChecker9AllocatorEEESt4pairIKS6_St6vectorI11AllocObjectS2_ISA_S4_EEESt10_Select1stISD_ESt4lessIS6_ES2_ISD_S4_EE16_M_insert_uniqueERKSD_' type='func-type' binding='weak-binding' visibility='default-visibility' is-defined='yes'/>
    <!-- std::_Rb_tree<std::basic_string<char, std::char_traits<char>, STL_Allocator<char, HeapLeakChecker::Allocator> >, std::pair<std::basic_string<char, std::char_traits<char>, STL_Allocator<char, HeapLeakChecker::Allocator> > const, std::vector<AllocObject, STL_Allocator<AllocObject, HeapLeakChecker::Allocator> > >, std::_Select1st<std::pair<std::basic_string<char, std::char_traits<char>, STL_Allocator<char, HeapLeakChecker::Allocator> > const, std::vector<AllocObject, STL_Allocator<AllocObject, HeapLeakChecker::Allocator> > > >, std::less<std::basic_string<char, std::char_traits<char>, STL_Allocator<char, HeapLeakChecker::Allocator> > >, STL_Allocator<std::pair<std::basic_string<char, std::char_traits<char>, STL_Allocator<char, HeapLeakChecker::Allocator> > const, std::vector<AllocObject, STL_Allocator<AllocObject, HeapLeakChecker::Allocator> > >, HeapLeakChecker::Allocator> >::_M_insert_unique_(std::_Rb_tree_const_iterator<std::pair<std::basic_string<char, std::char_traits<char>, STL_Allocator<char, HeapLeakChecker::Allocator> > const, std::vector<AllocObject, STL_Allocator<AllocObject, HeapLeakChecker::Allocator> > > >, std::pair<std::basic_string<char, std::char_traits<char>, STL_Allocator<char, HeapLeakChecker::Allocator> > const, std::vector<AllocObject, STL_Allocator<AllocObject, HeapLeakChecker::Allocator> > > const&) -->
    <elf-symbol name='_ZNSt8_Rb_treeISbIcSt11char_traitsIcE13STL_AllocatorIcN15HeapLeakChecker9AllocatorEEESt4pairIKS6_St6vectorI11AllocObjectS2_ISA_S4_EEESt10_Select1stISD_ESt4lessIS6_ES2_ISD_S4_EE17_M_insert_unique_ESt23_Rb_tree_const_iteratorISD_ERKSD_' type='func-type' binding='weak-binding' visibility='default-visibility' is-defined='yes'/>
    <!-- std::_Rb_tree<std::basic_string<char, std::char_traits<char>, STL_Allocator<char, HeapLeakChecker::Allocator> >, std::pair<std::basic_string<char, std::char_traits<char>, STL_Allocator<char, HeapLeakChecker::Allocator> > const, std::vector<AllocObject, STL_Allocator<AllocObject, HeapLeakChecker::Allocator> > >, std::_Select1st<std::pair<std::basic_string<char, std::char_traits<char>, STL_Allocator<char, HeapLeakChecker::Allocator> > const, std::vector<AllocObject, STL_Allocator<AllocObject, HeapLeakChecker::Allocator> > > >, std::less<std::basic_string<char, std::char_traits<char>, STL_Allocator<char, HeapLeakChecker::Allocator> > >, STL_Allocator<std::pair<std::basic_string<char, std::char_traits<char>, STL_Allocator<char, HeapLeakChecker::Allocator> > const, std::vector<AllocObject, STL_Allocator<AllocObject, HeapLeakChecker::Allocator> > >, HeapLeakChecker::Allocator> >::_M_erase(std::_Rb_tree_node<std::pair<std::basic_string<char, std::char_traits<char>, STL_Allocator<char, HeapLeakChecker::Allocator> > const, std::vector<AllocObject, STL_Allocator<AllocObject, HeapLeakChecker::Allocator> > > >*) -->
    <elf-symbol name='_ZNSt8_Rb_treeISbIcSt11char_traitsIcE13STL_AllocatorIcN15HeapLeakChecker9AllocatorEEESt4pairIKS6_St6vectorI11AllocObjectS2_ISA_S4_EEESt10_Select1stISD_ESt4lessIS6_ES2_ISD_S4_EE8_M_eraseEPSt13_Rb_tree_nodeISD_E' type='func-type' binding='weak-binding' visibility='default-visibility' is-defined='yes'/>
    <!-- std::_Rb_tree<unsigned long, std::pair<unsigned long const, HeapLeakChecker::RangeValue>, std::_Select1st<std::pair<unsigned long const, HeapLeakChecker::RangeValue> >, std::less<unsigned long>, STL_Allocator<std::pair<unsigned long const, HeapLeakChecker::RangeValue>, HeapLeakChecker::Allocator> >::_M_insert_(std::_Rb_tree_node_base const*, std::_Rb_tree_node_base const*, std::pair<unsigned long const, HeapLeakChecker::RangeValue> const&) -->
    <elf-symbol name='_ZNSt8_Rb_treeImSt4pairIKmN15HeapLeakChecker10RangeValueEESt10_Select1stIS4_ESt4lessImE13STL_AllocatorIS4_NS2_9AllocatorEEE10_M_insert_EPKSt18_Rb_tree_node_baseSF_RKS4_' type='func-type' binding='weak-binding' visibility='default-visibility' is-defined='yes'/>
    <!-- std::_Rb_tree<unsigned long, std::pair<unsigned long const, HeapLeakChecker::RangeValue>, std::_Select1st<std::pair<unsigned long const, HeapLeakChecker::RangeValue> >, std::less<unsigned long>, STL_Allocator<std::pair<unsigned long const, HeapLeakChecker::RangeValue>, HeapLeakChecker::Allocator> >::_M_erase(std::_Rb_tree_node<std::pair<unsigned long const, HeapLeakChecker::RangeValue> >*) -->
    <elf-symbol name='_ZNSt8_Rb_treeImSt4pairIKmN15HeapLeakChecker10RangeValueEESt10_Select1stIS4_ESt4lessImE13STL_AllocatorIS4_NS2_9AllocatorEEE8_M_eraseEPSt13_Rb_tree_nodeIS4_E' type='func-type' binding='weak-binding' visibility='default-visibility' is-defined='yes'/>
    <!-- std::_Rb_tree<unsigned long, std::pair<unsigned long const, unsigned long>, std::_Select1st<std::pair<unsigned long const, unsigned long> >, std::less<unsigned long>, STL_Allocator<std::pair<unsigned long const, unsigned long>, HeapLeakChecker::Allocator> >::_M_insert_(std::_Rb_tree_node_base const*, std::_Rb_tree_node_base const*, std::pair<unsigned long const, unsigned long> const&) -->
    <elf-symbol name='_ZNSt8_Rb_treeImSt4pairIKmmESt10_Select1stIS2_ESt4lessImE13STL_AllocatorIS2_N15HeapLeakChecker9AllocatorEEE10_M_insert_EPKSt18_Rb_tree_node_baseSE_RKS2_' type='func-type' binding='weak-binding' visibility='default-visibility' is-defined='yes'/>
    <!-- std::_Rb_tree<unsigned long, std::pair<unsigned long const, unsigned long>, std::_Select1st<std::pair<unsigned long const, unsigned long> >, std::less<unsigned long>, STL_Allocator<std::pair<unsigned long const, unsigned long>, HeapLeakChecker::Allocator> >::_M_erase(std::_Rb_tree_node<std::pair<unsigned long const, unsigned long> >*) -->
    <elf-symbol name='_ZNSt8_Rb_treeImSt4pairIKmmESt10_Select1stIS2_ESt4lessImE13STL_AllocatorIS2_N15HeapLeakChecker9AllocatorEEE8_M_eraseEPSt13_Rb_tree_nodeIS2_E' type='func-type' binding='weak-binding' visibility='default-visibility' is-defined='yes'/>
    <!-- std::_Rb_tree<unsigned long, unsigned long, std::_Identity<unsigned long>, std::less<unsigned long>, STL_Allocator<unsigned long, HeapLeakChecker::Allocator> >::_M_insert_(std::_Rb_tree_node_base const*, std::_Rb_tree_node_base const*, unsigned long const&) -->
    <elf-symbol name='_ZNSt8_Rb_treeImmSt9_IdentityImESt4lessImE13STL_AllocatorImN15HeapLeakChecker9AllocatorEEE10_M_insert_EPKSt18_Rb_tree_node_baseSB_RKm' type='func-type' binding='weak-binding' visibility='default-visibility' is-defined='yes'/>
    <!-- std::_Rb_tree<unsigned long, unsigned long, std::_Identity<unsigned long>, std::less<unsigned long>, STL_Allocator<unsigned long, HeapLeakChecker::Allocator> >::_M_erase(std::_Rb_tree_node<unsigned long>*) -->
    <elf-symbol name='_ZNSt8_Rb_treeImmSt9_IdentityImESt4lessImE13STL_AllocatorImN15HeapLeakChecker9AllocatorEEE8_M_eraseEPSt13_Rb_tree_nodeImE' type='func-type' binding='weak-binding' visibility='default-visibility' is-defined='yes'/>
    <!-- void std::__adjust_heap<HeapProfileTable::Snapshot::Entry*, long, HeapProfileTable::Snapshot::Entry>(HeapProfileTable::Snapshot::Entry*, long, long, HeapProfileTable::Snapshot::Entry) -->
    <elf-symbol name='_ZSt13__adjust_heapIPN16HeapProfileTable8Snapshot5EntryElS2_EvT_T0_S5_T1_' type='func-type' binding='weak-binding' visibility='default-visibility' is-defined='yes'/>
    <!-- void std::__adjust_heap<HeapProfileBucket**, long, HeapProfileBucket*, bool (*)(HeapProfileStats*, HeapProfileStats*)>(HeapProfileBucket**, long, long, HeapProfileBucket*, bool (*)(HeapProfileStats*, HeapProfileStats*)) -->
    <elf-symbol name='_ZSt13__adjust_heapIPP17HeapProfileBucketlS1_PFbP16HeapProfileStatsS4_EEvT_T0_S8_T1_T2_' type='func-type' binding='weak-binding' visibility='default-visibility' is-defined='yes'/>
    <!-- void std::__heap_select<HeapProfileBucket**, bool (*)(HeapProfileStats*, HeapProfileStats*)>(HeapProfileBucket**, HeapProfileBucket**, HeapProfileBucket**, bool (*)(HeapProfileStats*, HeapProfileStats*)) -->
    <elf-symbol name='_ZSt13__heap_selectIPP17HeapProfileBucketPFbP16HeapProfileStatsS4_EEvT_S7_S7_T0_' type='func-type' binding='weak-binding' visibility='default-visibility' is-defined='yes'/>
    <!-- void std::__insertion_sort<HeapProfileTable::Snapshot::Entry*>(HeapProfileTable::Snapshot::Entry*, HeapProfileTable::Snapshot::Entry*) -->
    <elf-symbol name='_ZSt16__insertion_sortIPN16HeapProfileTable8Snapshot5EntryEEvT_S4_' type='func-type' binding='weak-binding' visibility='default-visibility' is-defined='yes'/>
    <!-- void std::__insertion_sort<HeapProfileBucket**, bool (*)(HeapProfileStats*, HeapProfileStats*)>(HeapProfileBucket**, HeapProfileBucket**, bool (*)(HeapProfileStats*, HeapProfileStats*)) -->
    <elf-symbol name='_ZSt16__insertion_sortIPP17HeapProfileBucketPFbP16HeapProfileStatsS4_EEvT_S7_T0_' type='func-type' binding='weak-binding' visibility='default-visibility' is-defined='yes'/>
    <!-- void std::__introsort_loop<HeapProfileTable::Snapshot::Entry*, long>(HeapProfileTable::Snapshot::Entry*, HeapProfileTable::Snapshot::Entry*, long) -->
    <elf-symbol name='_ZSt16__introsort_loopIPN16HeapProfileTable8Snapshot5EntryElEvT_S4_T0_' type='func-type' binding='weak-binding' visibility='default-visibility' is-defined='yes'/>
    <!-- void std::__introsort_loop<HeapProfileBucket**, long, bool (*)(HeapProfileStats*, HeapProfileStats*)>(HeapProfileBucket**, HeapProfileBucket**, long, bool (*)(HeapProfileStats*, HeapProfileStats*)) -->
    <elf-symbol name='_ZSt16__introsort_loopIPP17HeapProfileBucketlPFbP16HeapProfileStatsS4_EEvT_S7_T0_T1_' type='func-type' binding='weak-binding' visibility='default-visibility' is-defined='yes'/>
    <!-- std::basic_string<char, std::char_traits<char>, std::allocator<char> > std::operator+<char, std::char_traits<char>, std::allocator<char> >(std::basic_string<char, std::char_traits<char>, std::allocator<char> > const&, char const*) -->
    <elf-symbol name='_ZStplIcSt11char_traitsIcESaIcEESbIT_T0_T1_ERKS6_PKS3_' type='func-type' binding='weak-binding' visibility='default-visibility' is-defined='yes'/>
    <!-- operator delete[](void*) -->
    <elf-symbol name='_ZdaPv' type='func-type' binding='global-binding' visibility='default-visibility' is-defined='yes'/>
    <!-- operator delete[](void*, std::nothrow_t const&) -->
    <elf-symbol name='_ZdaPvRKSt9nothrow_t' type='func-type' binding='global-binding' visibility='default-visibility' is-defined='yes'/>
    <!-- operator delete(void*) -->
    <elf-symbol name='_ZdlPv' type='func-type' binding='global-binding' visibility='default-visibility' is-defined='yes'/>
    <!-- operator delete(void*, std::nothrow_t const&) -->
    <elf-symbol name='_ZdlPvRKSt9nothrow_t' type='func-type' binding='global-binding' visibility='default-visibility' is-defined='yes'/>
    <!-- operator new[](unsigned long) -->
    <elf-symbol name='_Znam' type='func-type' binding='global-binding' visibility='default-visibility' is-defined='yes'/>
    <!-- operator new[](unsigned long, std::nothrow_t const&) -->
    <elf-symbol name='_ZnamRKSt9nothrow_t' type='func-type' binding='global-binding' visibility='default-visibility' is-defined='yes'/>
    <!-- operator new(unsigned long) -->
    <elf-symbol name='_Znwm' type='func-type' binding='global-binding' visibility='default-visibility' is-defined='yes'/>
    <!-- operator new(unsigned long, std::nothrow_t const&) -->
    <elf-symbol name='_ZnwmRKSt9nothrow_t' type='func-type' binding='global-binding' visibility='default-visibility' is-defined='yes'/>
    <!-- __libc_calloc -->
    <elf-symbol name='__libc_calloc' type='func-type' binding='global-binding' visibility='default-visibility' is-defined='yes'/>
    <!-- __libc_cfree -->
    <elf-symbol name='__libc_cfree' type='func-type' binding='global-binding' visibility='default-visibility' is-defined='yes'/>
    <!-- __libc_free -->
    <elf-symbol name='__libc_free' type='func-type' binding='global-binding' visibility='default-visibility' is-defined='yes'/>
    <!-- __libc_malloc -->
    <elf-symbol name='__libc_malloc' type='func-type' binding='global-binding' visibility='default-visibility' is-defined='yes'/>
    <!-- __libc_memalign -->
    <elf-symbol name='__libc_memalign' type='func-type' binding='global-binding' visibility='default-visibility' is-defined='yes'/>
    <!-- __libc_pvalloc -->
    <elf-symbol name='__libc_pvalloc' type='func-type' binding='global-binding' visibility='default-visibility' is-defined='yes'/>
    <!-- __libc_realloc -->
    <elf-symbol name='__libc_realloc' type='func-type' binding='global-binding' visibility='default-visibility' is-defined='yes'/>
    <!-- __libc_valloc -->
    <elf-symbol name='__libc_valloc' type='func-type' binding='global-binding' visibility='default-visibility' is-defined='yes'/>
    <!-- __posix_memalign -->
    <elf-symbol name='__posix_memalign' type='func-type' binding='global-binding' visibility='default-visibility' is-defined='yes'/>
    <!-- _fini -->
    <elf-symbol name='_fini' type='func-type' binding='global-binding' visibility='default-visibility' is-defined='yes'/>
    <!-- _init -->
    <elf-symbol name='_init' type='func-type' binding='global-binding' visibility='default-visibility' is-defined='yes'/>
    <!-- calloc -->
    <elf-symbol name='calloc' type='func-type' binding='global-binding' visibility='default-visibility' is-defined='yes'/>
    <!-- cfree -->
    <elf-symbol name='cfree' type='func-type' binding='global-binding' visibility='default-visibility' is-defined='yes'/>
    <!-- free -->
    <elf-symbol name='free' type='func-type' binding='global-binding' visibility='default-visibility' is-defined='yes'/>
    <!-- mallinfo -->
    <elf-symbol name='mallinfo' type='func-type' binding='global-binding' visibility='default-visibility' is-defined='yes'/>
    <!-- malloc -->
    <elf-symbol name='malloc' type='func-type' binding='global-binding' visibility='default-visibility' is-defined='yes'/>
    <!-- malloc_size -->
    <elf-symbol name='malloc_size' type='func-type' binding='global-binding' visibility='default-visibility' is-defined='yes'/>
    <!-- malloc_stats -->
    <elf-symbol name='malloc_stats' type='func-type' binding='global-binding' visibility='default-visibility' is-defined='yes'/>
    <!-- malloc_usable_size -->
    <elf-symbol name='malloc_usable_size' type='func-type' binding='global-binding' visibility='default-visibility' is-defined='yes'/>
    <!-- mallopt -->
    <elf-symbol name='mallopt' type='func-type' binding='global-binding' visibility='default-visibility' is-defined='yes'/>
    <!-- memalign -->
    <elf-symbol name='memalign' type='func-type' binding='global-binding' visibility='default-visibility' is-defined='yes'/>
    <!-- mmap -->
    <elf-symbol name='mmap' type='func-type' binding='global-binding' visibility='default-visibility' is-defined='yes'/>
    <!-- mmap64 -->
    <elf-symbol name='mmap64' type='func-type' binding='global-binding' visibility='default-visibility' is-defined='yes'/>
    <!-- mremap -->
    <elf-symbol name='mremap' type='func-type' binding='global-binding' visibility='default-visibility' is-defined='yes'/>
    <!-- munmap -->
    <elf-symbol name='munmap' type='func-type' binding='global-binding' visibility='default-visibility' is-defined='yes'/>
    <!-- posix_memalign -->
    <elf-symbol name='posix_memalign' type='func-type' binding='global-binding' visibility='default-visibility' is-defined='yes'/>
    <!-- pvalloc -->
    <elf-symbol name='pvalloc' type='func-type' binding='global-binding' visibility='default-visibility' is-defined='yes'/>
    <!-- realloc -->
    <elf-symbol name='realloc' type='func-type' binding='global-binding' visibility='default-visibility' is-defined='yes'/>
    <!-- sbrk -->
    <elf-symbol name='sbrk' type='func-type' binding='global-binding' visibility='default-visibility' is-defined='yes'/>
    <!-- tc_calloc -->
    <elf-symbol name='tc_calloc' type='func-type' binding='global-binding' visibility='default-visibility' alias='calloc,__libc_calloc' is-defined='yes'/>
    <!-- tc_cfree -->
    <elf-symbol name='tc_cfree' type='func-type' binding='global-binding' visibility='default-visibility' alias='__libc_cfree,cfree' is-defined='yes'/>
    <!-- tc_delete -->
    <elf-symbol name='tc_delete' type='func-type' binding='global-binding' visibility='default-visibility' alias='_ZdlPv' is-defined='yes'/>
    <!-- tc_delete_nothrow -->
    <elf-symbol name='tc_delete_nothrow' type='func-type' binding='global-binding' visibility='default-visibility' alias='_ZdlPvRKSt9nothrow_t' is-defined='yes'/>
    <!-- tc_deletearray -->
    <elf-symbol name='tc_deletearray' type='func-type' binding='global-binding' visibility='default-visibility' alias='_ZdaPv' is-defined='yes'/>
    <!-- tc_deletearray_nothrow -->
    <elf-symbol name='tc_deletearray_nothrow' type='func-type' binding='global-binding' visibility='default-visibility' alias='_ZdaPvRKSt9nothrow_t' is-defined='yes'/>
    <!-- tc_free -->
    <elf-symbol name='tc_free' type='func-type' binding='global-binding' visibility='default-visibility' alias='free,__libc_free' is-defined='yes'/>
    <!-- tc_mallinfo -->
    <elf-symbol name='tc_mallinfo' type='func-type' binding='global-binding' visibility='default-visibility' alias='mallinfo' is-defined='yes'/>
    <!-- tc_malloc -->
    <elf-symbol name='tc_malloc' type='func-type' binding='global-binding' visibility='default-visibility' alias='__libc_malloc,malloc' is-defined='yes'/>
    <!-- tc_malloc_size -->
    <elf-symbol name='tc_malloc_size' type='func-type' binding='global-binding' visibility='default-visibility' alias='malloc_usable_size,malloc_size' is-defined='yes'/>
    <!-- tc_malloc_skip_new_handler -->
    <elf-symbol name='tc_malloc_skip_new_handler' type='func-type' binding='global-binding' visibility='default-visibility' is-defined='yes'/>
    <!-- tc_malloc_stats -->
    <elf-symbol name='tc_malloc_stats' type='func-type' binding='global-binding' visibility='default-visibility' alias='malloc_stats' is-defined='yes'/>
    <!-- tc_mallopt -->
    <elf-symbol name='tc_mallopt' type='func-type' binding='global-binding' visibility='default-visibility' alias='mallopt' is-defined='yes'/>
    <!-- tc_memalign -->
    <elf-symbol name='tc_memalign' type='func-type' binding='global-binding' visibility='default-visibility' alias='memalign,__libc_memalign' is-defined='yes'/>
    <!-- tc_new -->
    <elf-symbol name='tc_new' type='func-type' binding='global-binding' visibility='default-visibility' alias='_Znwm' is-defined='yes'/>
    <!-- tc_new_nothrow -->
    <elf-symbol name='tc_new_nothrow' type='func-type' binding='global-binding' visibility='default-visibility' alias='_ZnwmRKSt9nothrow_t' is-defined='yes'/>
    <!-- tc_newarray -->
    <elf-symbol name='tc_newarray' type='func-type' binding='global-binding' visibility='default-visibility' alias='_Znam' is-defined='yes'/>
    <!-- tc_newarray_nothrow -->
    <elf-symbol name='tc_newarray_nothrow' type='func-type' binding='global-binding' visibility='default-visibility' alias='_ZnamRKSt9nothrow_t' is-defined='yes'/>
    <!-- tc_posix_memalign -->
    <elf-symbol name='tc_posix_memalign' type='func-type' binding='global-binding' visibility='default-visibility' alias='__posix_memalign,posix_memalign' is-defined='yes'/>
    <!-- tc_pvalloc -->
    <elf-symbol name='tc_pvalloc' type='func-type' binding='global-binding' visibility='default-visibility' alias='pvalloc,__libc_pvalloc' is-defined='yes'/>
    <!-- tc_realloc -->
    <elf-symbol name='tc_realloc' type='func-type' binding='global-binding' visibility='default-visibility' alias='__libc_realloc,realloc' is-defined='yes'/>
    <!-- tc_set_new_mode -->
    <elf-symbol name='tc_set_new_mode' type='func-type' binding='global-binding' visibility='default-visibility' is-defined='yes'/>
    <!-- tc_valloc -->
    <elf-symbol name='tc_valloc' type='func-type' binding='global-binding' visibility='default-visibility' alias='__libc_valloc,valloc' is-defined='yes'/>
    <!-- tc_version -->
    <elf-symbol name='tc_version' type='func-type' binding='global-binding' visibility='default-visibility' is-defined='yes'/>
    <!-- valloc -->
    <elf-symbol name='valloc' type='func-type' binding='global-binding' visibility='default-visibility' is-defined='yes'/>
  </elf-function-symbols>
  <elf-variable-symbols>
    <!-- TCMalloc_SystemTaken -->
    <elf-symbol name='TCMalloc_SystemTaken' size='8' type='object-type' binding='global-binding' visibility='default-visibility' is-defined='yes'/>
    <!-- CpuProfiler::instance_ -->
    <elf-symbol name='_ZN11CpuProfiler9instance_E' size='88' type='object-type' binding='global-binding' visibility='default-visibility' is-defined='yes'/>
    <!-- HeapCleaner::heap_cleanups_ -->
    <elf-symbol name='_ZN11HeapCleaner14heap_cleanups_E' size='8' type='object-type' binding='global-binding' visibility='default-visibility' is-defined='yes'/>
    <!-- ProfileData::kBufferLength -->
    <elf-symbol name='_ZN11ProfileData13kBufferLengthE' size='4' type='object-type' binding='global-binding' visibility='default-visibility' is-defined='yes'/>
    <!-- ProfileData::kAssociativity -->
    <elf-symbol name='_ZN11ProfileData14kAssociativityE' size='4' type='object-type' binding='global-binding' visibility='default-visibility' is-defined='yes'/>
    <!-- ProfileData::kMaxStackDepth -->
    <elf-symbol name='_ZN11ProfileData14kMaxStackDepthE' size='4' type='object-type' binding='global-binding' visibility='default-visibility' is-defined='yes'/>
    <!-- ProfileData::kBuckets -->
    <elf-symbol name='_ZN11ProfileData8kBucketsE' size='4' type='object-type' binding='global-binding' visibility='default-visibility' is-defined='yes'/>
    <!-- ProfileHandler::kMaxFrequency -->
    <elf-symbol name='_ZN14ProfileHandler13kMaxFrequencyE' size='4' type='object-type' binding='global-binding' visibility='default-visibility' is-defined='yes'/>
    <!-- ProfileHandler::kDefaultFrequency -->
    <elf-symbol name='_ZN14ProfileHandler17kDefaultFrequencyE' size='4' type='object-type' binding='global-binding' visibility='default-visibility' is-defined='yes'/>
    <!-- ProfileHandler::once_ -->
    <elf-symbol name='_ZN14ProfileHandler5once_E' size='4' type='object-type' binding='global-binding' visibility='default-visibility' is-defined='yes'/>
    <!-- ProfileHandler::instance_ -->
    <elf-symbol name='_ZN14ProfileHandler9instance_E' size='8' type='object-type' binding='global-binding' visibility='default-visibility' is-defined='yes'/>
    <!-- HeapLeakChecker::Allocator::alloc_count_ -->
    <elf-symbol name='_ZN15HeapLeakChecker9Allocator12alloc_count_E' size='4' type='object-type' binding='global-binding' visibility='default-visibility' is-defined='yes'/>
    <!-- HeapLeakChecker::Allocator::arena_ -->
    <elf-symbol name='_ZN15HeapLeakChecker9Allocator6arena_E' size='8' type='object-type' binding='global-binding' visibility='default-visibility' is-defined='yes'/>
    <!-- MemoryRegionMap::owner_lock_ -->
    <elf-symbol name='_ZN15MemoryRegionMap11owner_lock_E' size='4' type='object-type' binding='global-binding' visibility='default-visibility' is-defined='yes'/>
    <!-- MemoryRegionMap::unmap_size_ -->
    <elf-symbol name='_ZN15MemoryRegionMap11unmap_size_E' size='8' type='object-type' binding='global-binding' visibility='default-visibility' is-defined='yes'/>
    <!-- MemoryRegionMap::num_buckets_ -->
    <elf-symbol name='_ZN15MemoryRegionMap12num_buckets_E' size='4' type='object-type' binding='global-binding' visibility='default-visibility' is-defined='yes'/>
    <!-- MemoryRegionMap::bucket_table_ -->
    <elf-symbol name='_ZN15MemoryRegionMap13bucket_table_E' size='8' type='object-type' binding='global-binding' visibility='default-visibility' is-defined='yes'/>
    <!-- MemoryRegionMap::client_count_ -->
    <elf-symbol name='_ZN15MemoryRegionMap13client_count_E' size='4' type='object-type' binding='global-binding' visibility='default-visibility' is-defined='yes'/>
    <!-- MemoryRegionMap::saved_buckets_ -->
    <elf-symbol name='_ZN15MemoryRegionMap14saved_buckets_E' size='1120' type='object-type' binding='global-binding' visibility='default-visibility' is-defined='yes'/>
    <!-- MemoryRegionMap::lock_owner_tid_ -->
    <elf-symbol name='_ZN15MemoryRegionMap15lock_owner_tid_E' size='8' type='object-type' binding='global-binding' visibility='default-visibility' is-defined='yes'/>
    <!-- MemoryRegionMap::max_stack_depth_ -->
    <elf-symbol name='_ZN15MemoryRegionMap16max_stack_depth_E' size='4' type='object-type' binding='global-binding' visibility='default-visibility' is-defined='yes'/>
    <!-- MemoryRegionMap::recursion_count_ -->
    <elf-symbol name='_ZN15MemoryRegionMap16recursion_count_E' size='4' type='object-type' binding='global-binding' visibility='default-visibility' is-defined='yes'/>
    <!-- MemoryRegionMap::saved_buckets_keys_ -->
    <elf-symbol name='_ZN15MemoryRegionMap19saved_buckets_keys_E' size='5120' type='object-type' binding='global-binding' visibility='default-visibility' is-defined='yes'/>
    <!-- MemoryRegionMap::saved_buckets_count_ -->
    <elf-symbol name='_ZN15MemoryRegionMap20saved_buckets_count_E' size='4' type='object-type' binding='global-binding' visibility='default-visibility' is-defined='yes'/>
    <!-- MemoryRegionMap::lock_ -->
    <elf-symbol name='_ZN15MemoryRegionMap5lock_E' size='4' type='object-type' binding='global-binding' visibility='default-visibility' is-defined='yes'/>
    <!-- MemoryRegionMap::arena_ -->
    <elf-symbol name='_ZN15MemoryRegionMap6arena_E' size='8' type='object-type' binding='global-binding' visibility='default-visibility' is-defined='yes'/>
    <!-- MemoryRegionMap::regions_ -->
    <elf-symbol name='_ZN15MemoryRegionMap8regions_E' size='8' type='object-type' binding='global-binding' visibility='default-visibility' is-defined='yes'/>
    <!-- MemoryRegionMap::map_size_ -->
    <elf-symbol name='_ZN15MemoryRegionMap9map_size_E' size='8' type='object-type' binding='global-binding' visibility='default-visibility' is-defined='yes'/>
    <!-- HeapProfileTable::kMaxStackDepth -->
    <elf-symbol name='_ZN16HeapProfileTable14kMaxStackDepthE' size='4' type='object-type' binding='global-binding' visibility='default-visibility' is-defined='yes'/>
    <!-- HeapProfileTable::kFileExt -->
    <elf-symbol name='_ZN16HeapProfileTable8kFileExtE' size='6' type='object-type' binding='global-binding' visibility='default-visibility' is-defined='yes'/>
    <!-- HeapLeakCheckerGlobalPrePost::count_ -->
    <elf-symbol name='_ZN28HeapLeakCheckerGlobalPrePost6count_E' size='4' type='object-type' binding='global-binding' visibility='default-visibility' is-defined='yes'/>
    <!-- base::ElfMemImage::kInvalidBase -->
    <elf-symbol name='_ZN4base11ElfMemImage12kInvalidBaseE' size='8' type='object-type' binding='global-binding' visibility='default-visibility' is-defined='yes'/>
    <!-- base::VDSOSupport::vdso_base_ -->
    <elf-symbol name='_ZN4base11VDSOSupport10vdso_base_E' size='8' type='object-type' binding='global-binding' visibility='default-visibility' is-defined='yes'/>
    <!-- FLAG__namespace_do_not_use_directly_use_DECLARE_bool_instead::FLAGS_mmap_log -->
    <elf-symbol name='_ZN60FLAG__namespace_do_not_use_directly_use_DECLARE_bool_instead14FLAGS_mmap_logE' size='1' type='object-type' binding='global-binding' visibility='default-visibility' is-defined='yes'/>
    <!-- FLAG__namespace_do_not_use_directly_use_DECLARE_bool_instead::FLAGS_nommap_log -->
    <elf-symbol name='_ZN60FLAG__namespace_do_not_use_directly_use_DECLARE_bool_instead16FLAGS_nommap_logE' size='1' type='object-type' binding='global-binding' visibility='default-visibility' is-defined='yes'/>
    <!-- FLAG__namespace_do_not_use_directly_use_DECLARE_bool_instead::FLAGS_mmap_profile -->
    <elf-symbol name='_ZN60FLAG__namespace_do_not_use_directly_use_DECLARE_bool_instead18FLAGS_mmap_profileE' size='1' type='object-type' binding='global-binding' visibility='default-visibility' is-defined='yes'/>
    <!-- FLAG__namespace_do_not_use_directly_use_DECLARE_bool_instead::FLAGS_nommap_profile -->
    <elf-symbol name='_ZN60FLAG__namespace_do_not_use_directly_use_DECLARE_bool_instead20FLAGS_nommap_profileE' size='1' type='object-type' binding='global-binding' visibility='default-visibility' is-defined='yes'/>
    <!-- FLAG__namespace_do_not_use_directly_use_DECLARE_bool_instead::FLAGS_malloc_skip_mmap -->
    <elf-symbol name='_ZN60FLAG__namespace_do_not_use_directly_use_DECLARE_bool_instead22FLAGS_malloc_skip_mmapE' size='1' type='object-type' binding='global-binding' visibility='default-visibility' is-defined='yes'/>
    <!-- FLAG__namespace_do_not_use_directly_use_DECLARE_bool_instead::FLAGS_malloc_skip_sbrk -->
    <elf-symbol name='_ZN60FLAG__namespace_do_not_use_directly_use_DECLARE_bool_instead22FLAGS_malloc_skip_sbrkE' size='1' type='object-type' binding='global-binding' visibility='default-visibility' is-defined='yes'/>
    <!-- FLAG__namespace_do_not_use_directly_use_DECLARE_bool_instead::FLAGS_heap_check_report -->
    <elf-symbol name='_ZN60FLAG__namespace_do_not_use_directly_use_DECLARE_bool_instead23FLAGS_heap_check_reportE' size='1' type='object-type' binding='global-binding' visibility='default-visibility' is-defined='yes'/>
    <!-- FLAG__namespace_do_not_use_directly_use_DECLARE_bool_instead::FLAGS_only_mmap_profile -->
    <elf-symbol name='_ZN60FLAG__namespace_do_not_use_directly_use_DECLARE_bool_instead23FLAGS_only_mmap_profileE' size='1' type='object-type' binding='global-binding' visibility='default-visibility' is-defined='yes'/>
    <!-- FLAG__namespace_do_not_use_directly_use_DECLARE_bool_instead::FLAGS_nomalloc_skip_mmap -->
    <elf-symbol name='_ZN60FLAG__namespace_do_not_use_directly_use_DECLARE_bool_instead24FLAGS_nomalloc_skip_mmapE' size='1' type='object-type' binding='global-binding' visibility='default-visibility' is-defined='yes'/>
    <!-- FLAG__namespace_do_not_use_directly_use_DECLARE_bool_instead::FLAGS_nomalloc_skip_sbrk -->
    <elf-symbol name='_ZN60FLAG__namespace_do_not_use_directly_use_DECLARE_bool_instead24FLAGS_nomalloc_skip_sbrkE' size='1' type='object-type' binding='global-binding' visibility='default-visibility' is-defined='yes'/>
    <!-- FLAG__namespace_do_not_use_directly_use_DECLARE_bool_instead::FLAGS_noheap_check_report -->
    <elf-symbol name='_ZN60FLAG__namespace_do_not_use_directly_use_DECLARE_bool_instead25FLAGS_noheap_check_reportE' size='1' type='object-type' binding='global-binding' visibility='default-visibility' is-defined='yes'/>
    <!-- FLAG__namespace_do_not_use_directly_use_DECLARE_bool_instead::FLAGS_noonly_mmap_profile -->
    <elf-symbol name='_ZN60FLAG__namespace_do_not_use_directly_use_DECLARE_bool_instead25FLAGS_noonly_mmap_profileE' size='1' type='object-type' binding='global-binding' visibility='default-visibility' is-defined='yes'/>
    <!-- FLAG__namespace_do_not_use_directly_use_DECLARE_bool_instead::FLAGS_cpu_profiler_unittest -->
    <elf-symbol name='_ZN60FLAG__namespace_do_not_use_directly_use_DECLARE_bool_instead27FLAGS_cpu_profiler_unittestE' size='1' type='object-type' binding='global-binding' visibility='default-visibility' is-defined='yes'/>
    <!-- FLAG__namespace_do_not_use_directly_use_DECLARE_bool_instead::FLAGS_heap_check_strict_check -->
    <elf-symbol name='_ZN60FLAG__namespace_do_not_use_directly_use_DECLARE_bool_instead29FLAGS_heap_check_strict_checkE' size='1' type='object-type' binding='global-binding' visibility='default-visibility' is-defined='yes'/>
    <!-- FLAG__namespace_do_not_use_directly_use_DECLARE_bool_instead::FLAGS_nocpu_profiler_unittest -->
    <elf-symbol name='_ZN60FLAG__namespace_do_not_use_directly_use_DECLARE_bool_instead29FLAGS_nocpu_profiler_unittestE' size='1' type='object-type' binding='global-binding' visibility='default-visibility' is-defined='yes'/>
    <!-- FLAG__namespace_do_not_use_directly_use_DECLARE_bool_instead::FLAGS_heap_check_run_under_gdb -->
    <elf-symbol name='_ZN60FLAG__namespace_do_not_use_directly_use_DECLARE_bool_instead30FLAGS_heap_check_run_under_gdbE' size='1' type='object-type' binding='global-binding' visibility='default-visibility' is-defined='yes'/>
    <!-- FLAG__namespace_do_not_use_directly_use_DECLARE_bool_instead::FLAGS_memfs_malloc_map_private -->
    <elf-symbol name='_ZN60FLAG__namespace_do_not_use_directly_use_DECLARE_bool_instead30FLAGS_memfs_malloc_map_privateE' size='1' type='object-type' binding='global-binding' visibility='default-visibility' is-defined='yes'/>
    <!-- FLAG__namespace_do_not_use_directly_use_DECLARE_bool_instead::FLAGS_cleanup_old_heap_profiles -->
    <elf-symbol name='_ZN60FLAG__namespace_do_not_use_directly_use_DECLARE_bool_instead31FLAGS_cleanup_old_heap_profilesE' size='1' type='object-type' binding='global-binding' visibility='default-visibility' is-defined='yes'/>
    <!-- FLAG__namespace_do_not_use_directly_use_DECLARE_bool_instead::FLAGS_heap_check_identify_leaks -->
    <elf-symbol name='_ZN60FLAG__namespace_do_not_use_directly_use_DECLARE_bool_instead31FLAGS_heap_check_identify_leaksE' size='1' type='object-type' binding='global-binding' visibility='default-visibility' is-defined='yes'/>
    <!-- FLAG__namespace_do_not_use_directly_use_DECLARE_bool_instead::FLAGS_noheap_check_strict_check -->
    <elf-symbol name='_ZN60FLAG__namespace_do_not_use_directly_use_DECLARE_bool_instead31FLAGS_noheap_check_strict_checkE' size='1' type='object-type' binding='global-binding' visibility='default-visibility' is-defined='yes'/>
    <!-- FLAG__namespace_do_not_use_directly_use_DECLARE_bool_instead::FLAGS_memfs_malloc_abort_on_fail -->
    <elf-symbol name='_ZN60FLAG__namespace_do_not_use_directly_use_DECLARE_bool_instead32FLAGS_memfs_malloc_abort_on_failE' size='1' type='object-type' binding='global-binding' visibility='default-visibility' is-defined='yes'/>
    <!-- FLAG__namespace_do_not_use_directly_use_DECLARE_bool_instead::FLAGS_noheap_check_run_under_gdb -->
    <elf-symbol name='_ZN60FLAG__namespace_do_not_use_directly_use_DECLARE_bool_instead32FLAGS_noheap_check_run_under_gdbE' size='1' type='object-type' binding='global-binding' visibility='default-visibility' is-defined='yes'/>
    <!-- FLAG__namespace_do_not_use_directly_use_DECLARE_bool_instead::FLAGS_nomemfs_malloc_map_private -->
    <elf-symbol name='_ZN60FLAG__namespace_do_not_use_directly_use_DECLARE_bool_instead32FLAGS_nomemfs_malloc_map_privateE' size='1' type='object-type' binding='global-binding' visibility='default-visibility' is-defined='yes'/>
    <!-- FLAG__namespace_do_not_use_directly_use_DECLARE_bool_instead::FLAGS_nocleanup_old_heap_profiles -->
    <elf-symbol name='_ZN60FLAG__namespace_do_not_use_directly_use_DECLARE_bool_instead33FLAGS_nocleanup_old_heap_profilesE' size='1' type='object-type' binding='global-binding' visibility='default-visibility' is-defined='yes'/>
    <!-- FLAG__namespace_do_not_use_directly_use_DECLARE_bool_instead::FLAGS_noheap_check_identify_leaks -->
    <elf-symbol name='_ZN60FLAG__namespace_do_not_use_directly_use_DECLARE_bool_instead33FLAGS_noheap_check_identify_leaksE' size='1' type='object-type' binding='global-binding' visibility='default-visibility' is-defined='yes'/>
    <!-- FLAG__namespace_do_not_use_directly_use_DECLARE_bool_instead::FLAGS_heap_check_after_destructors -->
    <elf-symbol name='_ZN60FLAG__namespace_do_not_use_directly_use_DECLARE_bool_instead34FLAGS_heap_check_after_destructorsE' size='1' type='object-type' binding='global-binding' visibility='default-visibility' is-defined='yes'/>
    <!-- FLAG__namespace_do_not_use_directly_use_DECLARE_bool_instead::FLAGS_nomemfs_malloc_abort_on_fail -->
    <elf-symbol name='_ZN60FLAG__namespace_do_not_use_directly_use_DECLARE_bool_instead34FLAGS_nomemfs_malloc_abort_on_failE' size='1' type='object-type' binding='global-binding' visibility='default-visibility' is-defined='yes'/>
    <!-- FLAG__namespace_do_not_use_directly_use_DECLARE_bool_instead::FLAGS_heap_check_ignore_global_live -->
    <elf-symbol name='_ZN60FLAG__namespace_do_not_use_directly_use_DECLARE_bool_instead35FLAGS_heap_check_ignore_global_liveE' size='1' type='object-type' binding='global-binding' visibility='default-visibility' is-defined='yes'/>
    <!-- FLAG__namespace_do_not_use_directly_use_DECLARE_bool_instead::FLAGS_heap_check_ignore_thread_live -->
    <elf-symbol name='_ZN60FLAG__namespace_do_not_use_directly_use_DECLARE_bool_instead35FLAGS_heap_check_ignore_thread_liveE' size='1' type='object-type' binding='global-binding' visibility='default-visibility' is-defined='yes'/>
    <!-- FLAG__namespace_do_not_use_directly_use_DECLARE_bool_instead::FLAGS_malloc_disable_memory_release -->
    <elf-symbol name='_ZN60FLAG__namespace_do_not_use_directly_use_DECLARE_bool_instead35FLAGS_malloc_disable_memory_releaseE' size='1' type='object-type' binding='global-binding' visibility='default-visibility' is-defined='yes'/>
    <!-- FLAG__namespace_do_not_use_directly_use_DECLARE_bool_instead::FLAGS_memfs_malloc_ignore_mmap_fail -->
    <elf-symbol name='_ZN60FLAG__namespace_do_not_use_directly_use_DECLARE_bool_instead35FLAGS_memfs_malloc_ignore_mmap_failE' size='1' type='object-type' binding='global-binding' visibility='default-visibility' is-defined='yes'/>
    <!-- FLAG__namespace_do_not_use_directly_use_DECLARE_bool_instead::FLAGS_heap_check_before_constructors -->
    <elf-symbol name='_ZN60FLAG__namespace_do_not_use_directly_use_DECLARE_bool_instead36FLAGS_heap_check_before_constructorsE' size='1' type='object-type' binding='global-binding' visibility='default-visibility' is-defined='yes'/>
    <!-- FLAG__namespace_do_not_use_directly_use_DECLARE_bool_instead::FLAGS_noheap_check_after_destructors -->
    <elf-symbol name='_ZN60FLAG__namespace_do_not_use_directly_use_DECLARE_bool_instead36FLAGS_noheap_check_after_destructorsE' size='1' type='object-type' binding='global-binding' visibility='default-visibility' is-defined='yes'/>
    <!-- FLAG__namespace_do_not_use_directly_use_DECLARE_bool_instead::FLAGS_noheap_check_ignore_global_live -->
    <elf-symbol name='_ZN60FLAG__namespace_do_not_use_directly_use_DECLARE_bool_instead37FLAGS_noheap_check_ignore_global_liveE' size='1' type='object-type' binding='global-binding' visibility='default-visibility' is-defined='yes'/>
    <!-- FLAG__namespace_do_not_use_directly_use_DECLARE_bool_instead::FLAGS_noheap_check_ignore_thread_live -->
    <elf-symbol name='_ZN60FLAG__namespace_do_not_use_directly_use_DECLARE_bool_instead37FLAGS_noheap_check_ignore_thread_liveE' size='1' type='object-type' binding='global-binding' visibility='default-visibility' is-defined='yes'/>
    <!-- FLAG__namespace_do_not_use_directly_use_DECLARE_bool_instead::FLAGS_nomalloc_disable_memory_release -->
    <elf-symbol name='_ZN60FLAG__namespace_do_not_use_directly_use_DECLARE_bool_instead37FLAGS_nomalloc_disable_memory_releaseE' size='1' type='object-type' binding='global-binding' visibility='default-visibility' is-defined='yes'/>
    <!-- FLAG__namespace_do_not_use_directly_use_DECLARE_bool_instead::FLAGS_nomemfs_malloc_ignore_mmap_fail -->
    <elf-symbol name='_ZN60FLAG__namespace_do_not_use_directly_use_DECLARE_bool_instead37FLAGS_nomemfs_malloc_ignore_mmap_failE' size='1' type='object-type' binding='global-binding' visibility='default-visibility' is-defined='yes'/>
    <!-- FLAG__namespace_do_not_use_directly_use_DECLARE_bool_instead::FLAGS_noheap_check_before_constructors -->
    <elf-symbol name='_ZN60FLAG__namespace_do_not_use_directly_use_DECLARE_bool_instead38FLAGS_noheap_check_before_constructorsE' size='1' type='object-type' binding='global-binding' visibility='default-visibility' is-defined='yes'/>
    <!-- FLAG__namespace_do_not_use_directly_use_DECLARE_bool_instead::FLAGS_heap_check_test_pointer_alignment -->
    <elf-symbol name='_ZN60FLAG__namespace_do_not_use_directly_use_DECLARE_bool_instead39FLAGS_heap_check_test_pointer_alignmentE' size='1' type='object-type' binding='global-binding' visibility='default-visibility' is-defined='yes'/>
    <!-- FLAG__namespace_do_not_use_directly_use_DECLARE_bool_instead::FLAGS_noheap_check_test_pointer_alignment -->
    <elf-symbol name='_ZN60FLAG__namespace_do_not_use_directly_use_DECLARE_bool_instead41FLAGS_noheap_check_test_pointer_alignmentE' size='1' type='object-type' binding='global-binding' visibility='default-visibility' is-defined='yes'/>
    <!-- FLAG__namespace_do_not_use_directly_use_DECLARE_int32_instead::FLAGS_verbose -->
    <elf-symbol name='_ZN61FLAG__namespace_do_not_use_directly_use_DECLARE_int32_instead13FLAGS_verboseE' size='4' type='object-type' binding='global-binding' visibility='default-visibility' is-defined='yes'/>
    <!-- FLAG__namespace_do_not_use_directly_use_DECLARE_int32_instead::FLAGS_noverbose -->
    <elf-symbol name='_ZN61FLAG__namespace_do_not_use_directly_use_DECLARE_int32_instead15FLAGS_noverboseE' size='1' type='object-type' binding='global-binding' visibility='default-visibility' is-defined='yes'/>
    <!-- FLAG__namespace_do_not_use_directly_use_DECLARE_int32_instead::FLAGS_malloc_devmem_limit -->
    <elf-symbol name='_ZN61FLAG__namespace_do_not_use_directly_use_DECLARE_int32_instead25FLAGS_malloc_devmem_limitE' size='4' type='object-type' binding='global-binding' visibility='default-visibility' is-defined='yes'/>
    <!-- FLAG__namespace_do_not_use_directly_use_DECLARE_int32_instead::FLAGS_malloc_devmem_start -->
    <elf-symbol name='_ZN61FLAG__namespace_do_not_use_directly_use_DECLARE_int32_instead25FLAGS_malloc_devmem_startE' size='4' type='object-type' binding='global-binding' visibility='default-visibility' is-defined='yes'/>
    <!-- FLAG__namespace_do_not_use_directly_use_DECLARE_int32_instead::FLAGS_heap_check_max_leaks -->
    <elf-symbol name='_ZN61FLAG__namespace_do_not_use_directly_use_DECLARE_int32_instead26FLAGS_heap_check_max_leaksE' size='4' type='object-type' binding='global-binding' visibility='default-visibility' is-defined='yes'/>
    <!-- FLAG__namespace_do_not_use_directly_use_DECLARE_int32_instead::FLAGS_nomalloc_devmem_limit -->
    <elf-symbol name='_ZN61FLAG__namespace_do_not_use_directly_use_DECLARE_int32_instead27FLAGS_nomalloc_devmem_limitE' size='1' type='object-type' binding='global-binding' visibility='default-visibility' is-defined='yes'/>
    <!-- FLAG__namespace_do_not_use_directly_use_DECLARE_int32_instead::FLAGS_nomalloc_devmem_start -->
    <elf-symbol name='_ZN61FLAG__namespace_do_not_use_directly_use_DECLARE_int32_instead27FLAGS_nomalloc_devmem_startE' size='1' type='object-type' binding='global-binding' visibility='default-visibility' is-defined='yes'/>
    <!-- FLAG__namespace_do_not_use_directly_use_DECLARE_int32_instead::FLAGS_noheap_check_max_leaks -->
    <elf-symbol name='_ZN61FLAG__namespace_do_not_use_directly_use_DECLARE_int32_instead28FLAGS_noheap_check_max_leaksE' size='1' type='object-type' binding='global-binding' visibility='default-visibility' is-defined='yes'/>
    <!-- FLAG__namespace_do_not_use_directly_use_DECLARE_int32_instead::FLAGS_heap_check_delay_seconds -->
    <elf-symbol name='_ZN61FLAG__namespace_do_not_use_directly_use_DECLARE_int32_instead30FLAGS_heap_check_delay_secondsE' size='4' type='object-type' binding='global-binding' visibility='default-visibility' is-defined='yes'/>
    <!-- FLAG__namespace_do_not_use_directly_use_DECLARE_int32_instead::FLAGS_noheap_check_delay_seconds -->
    <elf-symbol name='_ZN61FLAG__namespace_do_not_use_directly_use_DECLARE_int32_instead32FLAGS_noheap_check_delay_secondsE' size='1' type='object-type' binding='global-binding' visibility='default-visibility' is-defined='yes'/>
    <!-- FLAG__namespace_do_not_use_directly_use_DECLARE_int32_instead::FLAGS_heap_check_pointer_source_alignment -->
    <elf-symbol name='_ZN61FLAG__namespace_do_not_use_directly_use_DECLARE_int32_instead41FLAGS_heap_check_pointer_source_alignmentE' size='4' type='object-type' binding='global-binding' visibility='default-visibility' is-defined='yes'/>
    <!-- FLAG__namespace_do_not_use_directly_use_DECLARE_int32_instead::FLAGS_noheap_check_pointer_source_alignment -->
    <elf-symbol name='_ZN61FLAG__namespace_do_not_use_directly_use_DECLARE_int32_instead43FLAGS_noheap_check_pointer_source_alignmentE' size='1' type='object-type' binding='global-binding' visibility='default-visibility' is-defined='yes'/>
    <!-- FLAG__namespace_do_not_use_directly_use_DECLARE_int64_instead::FLAGS_memfs_malloc_limit_mb -->
    <elf-symbol name='_ZN61FLAG__namespace_do_not_use_directly_use_DECLARE_int64_instead27FLAGS_memfs_malloc_limit_mbE' size='8' type='object-type' binding='global-binding' visibility='default-visibility' is-defined='yes'/>
    <!-- FLAG__namespace_do_not_use_directly_use_DECLARE_int64_instead::FLAGS_tcmalloc_heap_limit_mb -->
    <elf-symbol name='_ZN61FLAG__namespace_do_not_use_directly_use_DECLARE_int64_instead28FLAGS_tcmalloc_heap_limit_mbE' size='8' type='object-type' binding='global-binding' visibility='default-visibility' is-defined='yes'/>
    <!-- FLAG__namespace_do_not_use_directly_use_DECLARE_int64_instead::FLAGS_nomemfs_malloc_limit_mb -->
    <elf-symbol name='_ZN61FLAG__namespace_do_not_use_directly_use_DECLARE_int64_instead29FLAGS_nomemfs_malloc_limit_mbE' size='1' type='object-type' binding='global-binding' visibility='default-visibility' is-defined='yes'/>
    <!-- FLAG__namespace_do_not_use_directly_use_DECLARE_int64_instead::FLAGS_notcmalloc_heap_limit_mb -->
    <elf-symbol name='_ZN61FLAG__namespace_do_not_use_directly_use_DECLARE_int64_instead30FLAGS_notcmalloc_heap_limit_mbE' size='1' type='object-type' binding='global-binding' visibility='default-visibility' is-defined='yes'/>
    <!-- FLAG__namespace_do_not_use_directly_use_DECLARE_int64_instead::FLAGS_tcmalloc_sample_parameter -->
    <elf-symbol name='_ZN61FLAG__namespace_do_not_use_directly_use_DECLARE_int64_instead31FLAGS_tcmalloc_sample_parameterE' size='8' type='object-type' binding='global-binding' visibility='default-visibility' is-defined='yes'/>
    <!-- FLAG__namespace_do_not_use_directly_use_DECLARE_int64_instead::FLAGS_heap_profile_time_interval -->
    <elf-symbol name='_ZN61FLAG__namespace_do_not_use_directly_use_DECLARE_int64_instead32FLAGS_heap_profile_time_intervalE' size='8' type='object-type' binding='global-binding' visibility='default-visibility' is-defined='yes'/>
    <!-- FLAG__namespace_do_not_use_directly_use_DECLARE_int64_instead::FLAGS_heap_profile_inuse_interval -->
    <elf-symbol name='_ZN61FLAG__namespace_do_not_use_directly_use_DECLARE_int64_instead33FLAGS_heap_profile_inuse_intervalE' size='8' type='object-type' binding='global-binding' visibility='default-visibility' is-defined='yes'/>
    <!-- FLAG__namespace_do_not_use_directly_use_DECLARE_int64_instead::FLAGS_notcmalloc_sample_parameter -->
    <elf-symbol name='_ZN61FLAG__namespace_do_not_use_directly_use_DECLARE_int64_instead33FLAGS_notcmalloc_sample_parameterE' size='1' type='object-type' binding='global-binding' visibility='default-visibility' is-defined='yes'/>
    <!-- FLAG__namespace_do_not_use_directly_use_DECLARE_int64_instead::FLAGS_noheap_profile_time_interval -->
    <elf-symbol name='_ZN61FLAG__namespace_do_not_use_directly_use_DECLARE_int64_instead34FLAGS_noheap_profile_time_intervalE' size='1' type='object-type' binding='global-binding' visibility='default-visibility' is-defined='yes'/>
    <!-- FLAG__namespace_do_not_use_directly_use_DECLARE_int64_instead::FLAGS_heap_check_max_pointer_offset -->
    <elf-symbol name='_ZN61FLAG__namespace_do_not_use_directly_use_DECLARE_int64_instead35FLAGS_heap_check_max_pointer_offsetE' size='8' type='object-type' binding='global-binding' visibility='default-visibility' is-defined='yes'/>
    <!-- FLAG__namespace_do_not_use_directly_use_DECLARE_int64_instead::FLAGS_noheap_profile_inuse_interval -->
    <elf-symbol name='_ZN61FLAG__namespace_do_not_use_directly_use_DECLARE_int64_instead35FLAGS_noheap_profile_inuse_intervalE' size='1' type='object-type' binding='global-binding' visibility='default-visibility' is-defined='yes'/>
    <!-- FLAG__namespace_do_not_use_directly_use_DECLARE_int64_instead::FLAGS_noheap_check_max_pointer_offset -->
    <elf-symbol name='_ZN61FLAG__namespace_do_not_use_directly_use_DECLARE_int64_instead37FLAGS_noheap_check_max_pointer_offsetE' size='1' type='object-type' binding='global-binding' visibility='default-visibility' is-defined='yes'/>
    <!-- FLAG__namespace_do_not_use_directly_use_DECLARE_int64_instead::FLAGS_heap_profile_allocation_interval -->
    <elf-symbol name='_ZN61FLAG__namespace_do_not_use_directly_use_DECLARE_int64_instead38FLAGS_heap_profile_allocation_intervalE' size='8' type='object-type' binding='global-binding' visibility='default-visibility' is-defined='yes'/>
    <!-- FLAG__namespace_do_not_use_directly_use_DECLARE_int64_instead::FLAGS_heap_profile_deallocation_interval -->
    <elf-symbol name='_ZN61FLAG__namespace_do_not_use_directly_use_DECLARE_int64_instead40FLAGS_heap_profile_deallocation_intervalE' size='8' type='object-type' binding='global-binding' visibility='default-visibility' is-defined='yes'/>
    <!-- FLAG__namespace_do_not_use_directly_use_DECLARE_int64_instead::FLAGS_noheap_profile_allocation_interval -->
    <elf-symbol name='_ZN61FLAG__namespace_do_not_use_directly_use_DECLARE_int64_instead40FLAGS_noheap_profile_allocation_intervalE' size='1' type='object-type' binding='global-binding' visibility='default-visibility' is-defined='yes'/>
    <!-- FLAG__namespace_do_not_use_directly_use_DECLARE_int64_instead::FLAGS_noheap_profile_deallocation_interval -->
    <elf-symbol name='_ZN61FLAG__namespace_do_not_use_directly_use_DECLARE_int64_instead42FLAGS_noheap_profile_deallocation_intervalE' size='1' type='object-type' binding='global-binding' visibility='default-visibility' is-defined='yes'/>
    <!-- FLAG__namespace_do_not_use_directly_use_DECLARE_int64_instead::FLAGS_tcmalloc_large_alloc_report_threshold -->
    <elf-symbol name='_ZN61FLAG__namespace_do_not_use_directly_use_DECLARE_int64_instead43FLAGS_tcmalloc_large_alloc_report_thresholdE' size='8' type='object-type' binding='global-binding' visibility='default-visibility' is-defined='yes'/>
    <!-- FLAG__namespace_do_not_use_directly_use_DECLARE_int64_instead::FLAGS_notcmalloc_large_alloc_report_threshold -->
    <elf-symbol name='_ZN61FLAG__namespace_do_not_use_directly_use_DECLARE_int64_instead45FLAGS_notcmalloc_large_alloc_report_thresholdE' size='1' type='object-type' binding='global-binding' visibility='default-visibility' is-defined='yes'/>
    <!-- FLAG__namespace_do_not_use_directly_use_DECLARE_double_instead::FLAGS_tcmalloc_release_rate -->
    <elf-symbol name='_ZN62FLAG__namespace_do_not_use_directly_use_DECLARE_double_instead27FLAGS_tcmalloc_release_rateE' size='8' type='object-type' binding='global-binding' visibility='default-visibility' is-defined='yes'/>
    <!-- FLAG__namespace_do_not_use_directly_use_DECLARE_double_instead::FLAGS_notcmalloc_release_rate -->
    <elf-symbol name='_ZN62FLAG__namespace_do_not_use_directly_use_DECLARE_double_instead29FLAGS_notcmalloc_release_rateE' size='1' type='object-type' binding='global-binding' visibility='default-visibility' is-defined='yes'/>
    <!-- FLAG__namespace_do_not_use_directly_use_DECLARE_string_instead::FLAGS_heap_check -->
    <elf-symbol name='_ZN62FLAG__namespace_do_not_use_directly_use_DECLARE_string_instead16FLAGS_heap_checkE' size='8' type='object-type' binding='global-binding' visibility='default-visibility' is-defined='yes'/>
    <!-- FLAG__namespace_do_not_use_directly_use_DECLARE_string_instead::FLAGS_noheap_check -->
    <elf-symbol name='_ZN62FLAG__namespace_do_not_use_directly_use_DECLARE_string_instead18FLAGS_noheap_checkE' size='1' type='object-type' binding='global-binding' visibility='default-visibility' is-defined='yes'/>
    <!-- FLAG__namespace_do_not_use_directly_use_DECLARE_string_instead::FLAGS_symbolize_pprof -->
    <elf-symbol name='_ZN62FLAG__namespace_do_not_use_directly_use_DECLARE_string_instead21FLAGS_symbolize_pprofE' size='8' type='object-type' binding='global-binding' visibility='default-visibility' is-defined='yes'/>
    <!-- FLAG__namespace_do_not_use_directly_use_DECLARE_string_instead::FLAGS_memfs_malloc_path -->
    <elf-symbol name='_ZN62FLAG__namespace_do_not_use_directly_use_DECLARE_string_instead23FLAGS_memfs_malloc_pathE' size='8' type='object-type' binding='global-binding' visibility='default-visibility' is-defined='yes'/>
    <!-- FLAG__namespace_do_not_use_directly_use_DECLARE_string_instead::FLAGS_nosymbolize_pprof -->
    <elf-symbol name='_ZN62FLAG__namespace_do_not_use_directly_use_DECLARE_string_instead23FLAGS_nosymbolize_pprofE' size='1' type='object-type' binding='global-binding' visibility='default-visibility' is-defined='yes'/>
    <!-- FLAG__namespace_do_not_use_directly_use_DECLARE_string_instead::FLAGS_heap_profile_pprof -->
    <elf-symbol name='_ZN62FLAG__namespace_do_not_use_directly_use_DECLARE_string_instead24FLAGS_heap_profile_pprofE' size='8' type='object-type' binding='global-binding' visibility='default-visibility' is-defined='yes'/>
    <!-- FLAG__namespace_do_not_use_directly_use_DECLARE_string_instead::FLAGS_nomemfs_malloc_path -->
    <elf-symbol name='_ZN62FLAG__namespace_do_not_use_directly_use_DECLARE_string_instead25FLAGS_nomemfs_malloc_pathE' size='1' type='object-type' binding='global-binding' visibility='default-visibility' is-defined='yes'/>
    <!-- FLAG__namespace_do_not_use_directly_use_DECLARE_string_instead::FLAGS_noheap_profile_pprof -->
    <elf-symbol name='_ZN62FLAG__namespace_do_not_use_directly_use_DECLARE_string_instead26FLAGS_noheap_profile_pprofE' size='1' type='object-type' binding='global-binding' visibility='default-visibility' is-defined='yes'/>
    <!-- FLAG__namespace_do_not_use_directly_use_DECLARE_string_instead::FLAGS_heap_check_dump_directory -->
    <elf-symbol name='_ZN62FLAG__namespace_do_not_use_directly_use_DECLARE_string_instead31FLAGS_heap_check_dump_directoryE' size='8' type='object-type' binding='global-binding' visibility='default-visibility' is-defined='yes'/>
    <!-- FLAG__namespace_do_not_use_directly_use_DECLARE_string_instead::FLAGS_noheap_check_dump_directory -->
    <elf-symbol name='_ZN62FLAG__namespace_do_not_use_directly_use_DECLARE_string_instead33FLAGS_noheap_check_dump_directoryE' size='1' type='object-type' binding='global-binding' visibility='default-visibility' is-defined='yes'/>
    <!-- SpinLock::LINKER_INITIALIZED -->
    <elf-symbol name='_ZN8SpinLock18LINKER_INITIALIZEDE' size='4' type='object-type' binding='global-binding' visibility='default-visibility' is-defined='yes'/>
    <!-- tcmalloc::ThreadCache::tsd_inited_ -->
    <elf-symbol name='_ZN8tcmalloc11ThreadCache11tsd_inited_E' size='1' type='object-type' binding='global-binding' visibility='default-visibility' is-defined='yes'/>
    <!-- tcmalloc::ThreadCache::thread_heaps_ -->
    <elf-symbol name='_ZN8tcmalloc11ThreadCache13thread_heaps_E' size='8' type='object-type' binding='global-binding' visibility='default-visibility' is-defined='yes'/>
    <!-- tcmalloc::ThreadCache::threadlocal_data_ -->
    <elf-symbol name='_ZN8tcmalloc11ThreadCache17threadlocal_data_E' size='16' type='tls-type' binding='global-binding' visibility='default-visibility' is-defined='yes'/>
    <!-- tcmalloc::ThreadCache::next_memory_steal_ -->
    <elf-symbol name='_ZN8tcmalloc11ThreadCache18next_memory_steal_E' size='8' type='object-type' binding='global-binding' visibility='default-visibility' is-defined='yes'/>
    <!-- tcmalloc::ThreadCache::thread_heap_count_ -->
    <elf-symbol name='_ZN8tcmalloc11ThreadCache18thread_heap_count_E' size='4' type='object-type' binding='global-binding' visibility='default-visibility' is-defined='yes'/>
    <!-- tcmalloc::ThreadCache::per_thread_cache_size_ -->
    <elf-symbol name='_ZN8tcmalloc11ThreadCache22per_thread_cache_size_E' size='8' type='object-type' binding='global-binding' visibility='default-visibility' is-defined='yes'/>
    <!-- tcmalloc::ThreadCache::unclaimed_cache_space_ -->
    <elf-symbol name='_ZN8tcmalloc11ThreadCache22unclaimed_cache_space_E' size='8' type='object-type' binding='global-binding' visibility='default-visibility' is-defined='yes'/>
    <!-- tcmalloc::ThreadCache::overall_thread_cache_size_ -->
    <elf-symbol name='_ZN8tcmalloc11ThreadCache26overall_thread_cache_size_E' size='8' type='object-type' binding='global-binding' visibility='default-visibility' is-defined='yes'/>
    <!-- tcmalloc::ThreadCache::heap_key_ -->
    <elf-symbol name='_ZN8tcmalloc11ThreadCache9heap_key_E' size='4' type='object-type' binding='global-binding' visibility='default-visibility' is-defined='yes'/>
    <!-- tcmalloc::log_message_writer -->
    <elf-symbol name='_ZN8tcmalloc18log_message_writerE' size='8' type='object-type' binding='global-binding' visibility='default-visibility' is-defined='yes'/>
    <!-- tcmalloc::threadcache_allocator -->
    <elf-symbol name='_ZN8tcmalloc21threadcache_allocatorE' size='32' type='object-type' binding='global-binding' visibility='default-visibility' is-defined='yes'/>
    <!-- tcmalloc::Static::central_cache_ -->
    <elf-symbol name='_ZN8tcmalloc6Static14central_cache_E' size='107008' type='object-type' binding='global-binding' visibility='default-visibility' is-defined='yes'/>
    <!-- tcmalloc::Static::growth_stacks_ -->
    <elf-symbol name='_ZN8tcmalloc6Static14growth_stacks_E' size='8' type='object-type' binding='global-binding' visibility='default-visibility' is-defined='yes'/>
    <!-- tcmalloc::Static::pageheap_lock_ -->
    <elf-symbol name='_ZN8tcmalloc6Static14pageheap_lock_E' size='4' type='object-type' binding='global-binding' visibility='default-visibility' is-defined='yes'/>
    <!-- tcmalloc::Static::span_allocator_ -->
    <elf-symbol name='_ZN8tcmalloc6Static15span_allocator_E' size='32' type='object-type' binding='global-binding' visibility='default-visibility' is-defined='yes'/>
    <!-- tcmalloc::Static::sampled_objects_ -->
    <elf-symbol name='_ZN8tcmalloc6Static16sampled_objects_E' size='48' type='object-type' binding='global-binding' visibility='default-visibility' is-defined='yes'/>
    <!-- tcmalloc::Static::bucket_allocator_ -->
    <elf-symbol name='_ZN8tcmalloc6Static17bucket_allocator_E' size='32' type='object-type' binding='global-binding' visibility='default-visibility' is-defined='yes'/>
    <!-- tcmalloc::Static::stacktrace_allocator_ -->
    <elf-symbol name='_ZN8tcmalloc6Static21stacktrace_allocator_E' size='32' type='object-type' binding='global-binding' visibility='default-visibility' is-defined='yes'/>
    <!-- tcmalloc::Static::sizemap_ -->
    <elf-symbol name='_ZN8tcmalloc6Static8sizemap_E' size='3936' type='object-type' binding='global-binding' visibility='default-visibility' is-defined='yes'/>
    <!-- tcmalloc::Static::pageheap_ -->
    <elf-symbol name='_ZN8tcmalloc6Static9pageheap_E' size='8' type='object-type' binding='global-binding' visibility='default-visibility' is-defined='yes'/>
    <!-- tcmalloc::Sampler::log_table_ -->
    <elf-symbol name='_ZN8tcmalloc7Sampler10log_table_E' size='8192' type='object-type' binding='global-binding' visibility='default-visibility' is-defined='yes'/>
    <!-- std::basic_string<char, std::char_traits<char>, STL_Allocator<char, HeapLeakChecker::Allocator> >::_Rep::_S_terminal -->
    <elf-symbol name='_ZNSbIcSt11char_traitsIcE13STL_AllocatorIcN15HeapLeakChecker9AllocatorEEE4_Rep11_S_terminalE' size='1' type='object-type' binding='gnu-unique-binding' visibility='default-visibility' is-defined='yes'/>
    <!-- std::basic_string<char, std::char_traits<char>, STL_Allocator<char, HeapLeakChecker::Allocator> >::_Rep::_S_empty_rep_storage -->
    <elf-symbol name='_ZNSbIcSt11char_traitsIcE13STL_AllocatorIcN15HeapLeakChecker9AllocatorEEE4_Rep20_S_empty_rep_storageE' size='32' type='object-type' binding='gnu-unique-binding' visibility='default-visibility' is-defined='yes'/>
    <!-- typeinfo for SysAllocator -->
    <elf-symbol name='_ZTI12SysAllocator' size='16' type='object-type' binding='weak-binding' visibility='default-visibility' is-defined='yes'/>
    <!-- typeinfo for MallocExtension -->
    <elf-symbol name='_ZTI15MallocExtension' size='16' type='object-type' binding='weak-binding' visibility='default-visibility' is-defined='yes'/>
    <!-- typeinfo for MmapSysAllocator -->
    <elf-symbol name='_ZTI16MmapSysAllocator' size='24' type='object-type' binding='weak-binding' visibility='default-visibility' is-defined='yes'/>
    <!-- typeinfo for SbrkSysAllocator -->
    <elf-symbol name='_ZTI16SbrkSysAllocator' size='24' type='object-type' binding='weak-binding' visibility='default-visibility' is-defined='yes'/>
    <!-- typeinfo for DevMemSysAllocator -->
    <elf-symbol name='_ZTI18DevMemSysAllocator' size='24' type='object-type' binding='weak-binding' visibility='default-visibility' is-defined='yes'/>
    <!-- typeinfo for DefaultSysAllocator -->
    <elf-symbol name='_ZTI19DefaultSysAllocator' size='24' type='object-type' binding='weak-binding' visibility='default-visibility' is-defined='yes'/>
    <!-- typeinfo for HugetlbSysAllocator -->
    <elf-symbol name='_ZTI19HugetlbSysAllocator' size='24' type='object-type' binding='weak-binding' visibility='default-visibility' is-defined='yes'/>
    <!-- typeinfo for TCMallocImplementation -->
    <elf-symbol name='_ZTI22TCMallocImplementation' size='24' type='object-type' binding='weak-binding' visibility='default-visibility' is-defined='yes'/>
    <!-- typeinfo name for SysAllocator -->
    <elf-symbol name='_ZTS12SysAllocator' size='15' type='object-type' binding='weak-binding' visibility='default-visibility' is-defined='yes'/>
    <!-- typeinfo name for MallocExtension -->
    <elf-symbol name='_ZTS15MallocExtension' size='18' type='object-type' binding='weak-binding' visibility='default-visibility' is-defined='yes'/>
    <!-- typeinfo name for MmapSysAllocator -->
    <elf-symbol name='_ZTS16MmapSysAllocator' size='19' type='object-type' binding='weak-binding' visibility='default-visibility' is-defined='yes'/>
    <!-- typeinfo name for SbrkSysAllocator -->
    <elf-symbol name='_ZTS16SbrkSysAllocator' size='19' type='object-type' binding='weak-binding' visibility='default-visibility' is-defined='yes'/>
    <!-- typeinfo name for DevMemSysAllocator -->
    <elf-symbol name='_ZTS18DevMemSysAllocator' size='21' type='object-type' binding='weak-binding' visibility='default-visibility' is-defined='yes'/>
    <!-- typeinfo name for DefaultSysAllocator -->
    <elf-symbol name='_ZTS19DefaultSysAllocator' size='22' type='object-type' binding='weak-binding' visibility='default-visibility' is-defined='yes'/>
    <!-- typeinfo name for HugetlbSysAllocator -->
    <elf-symbol name='_ZTS19HugetlbSysAllocator' size='22' type='object-type' binding='weak-binding' visibility='default-visibility' is-defined='yes'/>
    <!-- typeinfo name for TCMallocImplementation -->
    <elf-symbol name='_ZTS22TCMallocImplementation' size='25' type='object-type' binding='weak-binding' visibility='default-visibility' is-defined='yes'/>
    <!-- vtable for SysAllocator -->
    <elf-symbol name='_ZTV12SysAllocator' size='40' type='object-type' binding='weak-binding' visibility='default-visibility' is-defined='yes'/>
    <!-- vtable for MallocExtension -->
    <elf-symbol name='_ZTV15MallocExtension' size='232' type='object-type' binding='weak-binding' visibility='default-visibility' is-defined='yes'/>
    <!-- vtable for MmapSysAllocator -->
    <elf-symbol name='_ZTV16MmapSysAllocator' size='40' type='object-type' binding='weak-binding' visibility='default-visibility' is-defined='yes'/>
    <!-- vtable for SbrkSysAllocator -->
    <elf-symbol name='_ZTV16SbrkSysAllocator' size='40' type='object-type' binding='weak-binding' visibility='default-visibility' is-defined='yes'/>
    <!-- vtable for DevMemSysAllocator -->
    <elf-symbol name='_ZTV18DevMemSysAllocator' size='40' type='object-type' binding='weak-binding' visibility='default-visibility' is-defined='yes'/>
    <!-- vtable for DefaultSysAllocator -->
    <elf-symbol name='_ZTV19DefaultSysAllocator' size='40' type='object-type' binding='weak-binding' visibility='default-visibility' is-defined='yes'/>
    <!-- vtable for HugetlbSysAllocator -->
    <elf-symbol name='_ZTV19HugetlbSysAllocator' size='40' type='object-type' binding='weak-binding' visibility='default-visibility' is-defined='yes'/>
    <!-- vtable for TCMallocImplementation -->
    <elf-symbol name='_ZTV22TCMallocImplementation' size='232' type='object-type' binding='weak-binding' visibility='default-visibility' is-defined='yes'/>
    <!-- TCMallocImplementation::GetFreeListSizes(std::vector<MallocExtension::FreeListInfo, std::allocator<MallocExtension::FreeListInfo> >*)::kPageHeapType -->
    <elf-symbol name='_ZZN22TCMallocImplementation16GetFreeListSizesEPSt6vectorIN15MallocExtension12FreeListInfoESaIS2_EEE13kPageHeapType' size='8' type='object-type' binding='gnu-unique-binding' visibility='default-visibility' is-defined='yes'/>
    <!-- TCMallocImplementation::GetFreeListSizes(std::vector<MallocExtension::FreeListInfo, std::allocator<MallocExtension::FreeListInfo> >*)::kLargeSpanType -->
    <elf-symbol name='_ZZN22TCMallocImplementation16GetFreeListSizesEPSt6vectorIN15MallocExtension12FreeListInfoESaIS2_EEE14kLargeSpanType' size='8' type='object-type' binding='gnu-unique-binding' visibility='default-visibility' is-defined='yes'/>
    <!-- TCMallocImplementation::GetFreeListSizes(std::vector<MallocExtension::FreeListInfo, std::allocator<MallocExtension::FreeListInfo> >*)::kThreadCacheType -->
    <elf-symbol name='_ZZN22TCMallocImplementation16GetFreeListSizesEPSt6vectorIN15MallocExtension12FreeListInfoESaIS2_EEE16kThreadCacheType' size='8' type='object-type' binding='gnu-unique-binding' visibility='default-visibility' is-defined='yes'/>
    <!-- TCMallocImplementation::GetFreeListSizes(std::vector<MallocExtension::FreeListInfo, std::allocator<MallocExtension::FreeListInfo> >*)::kCentralCacheType -->
    <elf-symbol name='_ZZN22TCMallocImplementation16GetFreeListSizesEPSt6vectorIN15MallocExtension12FreeListInfoESaIS2_EEE17kCentralCacheType' size='8' type='object-type' binding='gnu-unique-binding' visibility='default-visibility' is-defined='yes'/>
    <!-- TCMallocImplementation::GetFreeListSizes(std::vector<MallocExtension::FreeListInfo, std::allocator<MallocExtension::FreeListInfo> >*)::kTransferCacheType -->
    <elf-symbol name='_ZZN22TCMallocImplementation16GetFreeListSizesEPSt6vectorIN15MallocExtension12FreeListInfoESaIS2_EEE18kTransferCacheType' size='8' type='object-type' binding='gnu-unique-binding' visibility='default-visibility' is-defined='yes'/>
    <!-- TCMallocImplementation::GetFreeListSizes(std::vector<MallocExtension::FreeListInfo, std::allocator<MallocExtension::FreeListInfo> >*)::kPageHeapUnmappedType -->
    <elf-symbol name='_ZZN22TCMallocImplementation16GetFreeListSizesEPSt6vectorIN15MallocExtension12FreeListInfoESaIS2_EEE21kPageHeapUnmappedType' size='8' type='object-type' binding='gnu-unique-binding' visibility='default-visibility' is-defined='yes'/>
    <!-- TCMallocImplementation::GetFreeListSizes(std::vector<MallocExtension::FreeListInfo, std::allocator<MallocExtension::FreeListInfo> >*)::kLargeUnmappedSpanType -->
    <elf-symbol name='_ZZN22TCMallocImplementation16GetFreeListSizesEPSt6vectorIN15MallocExtension12FreeListInfoESaIS2_EEE22kLargeUnmappedSpanType' size='8' type='object-type' binding='gnu-unique-binding' visibility='default-visibility' is-defined='yes'/>
    <!-- __free_hook -->
    <elf-symbol name='__free_hook' size='8' type='object-type' binding='global-binding' visibility='default-visibility' is-defined='yes'/>
    <!-- __malloc_hook -->
    <elf-symbol name='__malloc_hook' size='8' type='object-type' binding='global-binding' visibility='default-visibility' is-defined='yes'/>
    <!-- __memalign_hook -->
    <elf-symbol name='__memalign_hook' size='8' type='object-type' binding='global-binding' visibility='default-visibility' is-defined='yes'/>
    <!-- __realloc_hook -->
    <elf-symbol name='__realloc_hook' size='8' type='object-type' binding='global-binding' visibility='default-visibility' is-defined='yes'/>
    <!-- heap_leak_checker_bcad_variable -->
    <elf-symbol name='heap_leak_checker_bcad_variable' size='1' type='object-type' binding='global-binding' visibility='default-visibility' is-defined='yes'/>
    <!-- sys_alloc -->
    <elf-symbol name='sys_alloc' size='8' type='object-type' binding='global-binding' visibility='default-visibility' is-defined='yes'/>
  </elf-variable-symbols>
  <abi-instr address-size='64' path='src/base/atomicops-internals-x86.cc' comp-dir-path='/tmp/legendre/spack-stage/spack-stage-kFgaKP/gperftools-2.4' language='LANG_C_plus_plus'>
  </abi-instr>
  <abi-instr address-size='64' path='src/base/dynamic_annotations.c' comp-dir-path='/tmp/legendre/spack-stage/spack-stage-kFgaKP/gperftools-2.4' language='LANG_C89'>
    <!-- int RunningOnValgrind() -->
    <function-decl name='RunningOnValgrind' mangled-name='RunningOnValgrind' filepath='src/base/dynamic_annotations.c' line='152' column='1' visibility='default' binding='global' size-in-bits='64' elf-symbol-id='RunningOnValgrind'>
      <!-- int -->
      <return type-id='type-id-1'/>
    </function-decl>
    <!-- double ValgrindSlowdown() -->
    <function-decl name='ValgrindSlowdown' mangled-name='ValgrindSlowdown' filepath='src/base/dynamic_annotations.c' line='166' column='1' visibility='default' binding='global' size-in-bits='64' elf-symbol-id='ValgrindSlowdown'>
      <!-- double -->
      <return type-id='type-id-2'/>
    </function-decl>
    <!-- double -->
    <type-decl name='double' size-in-bits='64' id='type-id-2'/>
    <!-- int -->
    <type-decl name='int' size-in-bits='32' id='type-id-1'/>
  </abi-instr>
  <abi-instr address-size='64' path='src/base/elf_mem_image.cc' comp-dir-path='/tmp/legendre/spack-stage/spack-stage-kFgaKP/gperftools-2.4' language='LANG_C_plus_plus'>
    <!-- unsigned char[16] -->
    <array-type-def dimensions='1' type-id='type-id-3' size-in-bits='128' id='type-id-4'>
      <!-- <anonymous range>[16] -->
      <subrange length='16' type-id='type-id-5' id='type-id-6'/>
    </array-type-def>
    <!-- struct Elf64_Sym -->
    <class-decl name='Elf64_Sym' size-in-bits='192' is-struct='yes' visibility='default' filepath='/usr/include/elf.h' line='389' column='1' id='type-id-7'>
      <data-member access='public' layout-offset-in-bits='0'>
        <!-- Elf64_Word Elf64_Sym::st_name -->
        <var-decl name='st_name' type-id='type-id-8' visibility='default' filepath='/usr/include/elf.h' line='390' column='1'/>
      </data-member>
      <data-member access='public' layout-offset-in-bits='32'>
        <!-- unsigned char Elf64_Sym::st_info -->
        <var-decl name='st_info' type-id='type-id-3' visibility='default' filepath='/usr/include/elf.h' line='391' column='1'/>
      </data-member>
      <data-member access='public' layout-offset-in-bits='40'>
        <!-- unsigned char Elf64_Sym::st_other -->
        <var-decl name='st_other' type-id='type-id-3' visibility='default' filepath='/usr/include/elf.h' line='392' column='1'/>
      </data-member>
      <data-member access='public' layout-offset-in-bits='48'>
        <!-- Elf64_Section Elf64_Sym::st_shndx -->
        <var-decl name='st_shndx' type-id='type-id-9' visibility='default' filepath='/usr/include/elf.h' line='393' column='1'/>
      </data-member>
      <data-member access='public' layout-offset-in-bits='64'>
        <!-- Elf64_Addr Elf64_Sym::st_value -->
        <var-decl name='st_value' type-id='type-id-10' visibility='default' filepath='/usr/include/elf.h' line='394' column='1'/>
      </data-member>
      <data-member access='public' layout-offset-in-bits='128'>
        <!-- Elf64_Xword Elf64_Sym::st_size -->
        <var-decl name='st_size' type-id='type-id-11' visibility='default' filepath='/usr/include/elf.h' line='395' column='1'/>
      </data-member>
    </class-decl>
    <!-- typedef uint32_t Elf64_Word -->
    <typedef-decl name='Elf64_Word' type-id='type-id-12' filepath='/usr/include/elf.h' line='39' column='1' id='type-id-8'/>
    <!-- typedef uint16_t Elf64_Section -->
    <typedef-decl name='Elf64_Section' type-id='type-id-13' filepath='/usr/include/elf.h' line='58' column='1' id='type-id-9'/>
    <!-- typedef unsigned short int uint16_t -->
    <typedef-decl name='uint16_t' type-id='type-id-14' filepath='/usr/include/stdint.h' line='50' column='1' id='type-id-13'/>
    <!-- typedef uint64_t Elf64_Addr -->
    <typedef-decl name='Elf64_Addr' type-id='type-id-15' filepath='/usr/include/elf.h' line='50' column='1' id='type-id-10'/>
    <!-- typedef uint64_t Elf64_Xword -->
    <typedef-decl name='Elf64_Xword' type-id='type-id-15' filepath='/usr/include/elf.h' line='45' column='1' id='type-id-11'/>
    <!-- struct Elf64_Ehdr -->
    <class-decl name='Elf64_Ehdr' size-in-bits='512' is-struct='yes' visibility='default' filepath='/usr/include/elf.h' line='88' column='1' id='type-id-16'>
      <data-member access='public' layout-offset-in-bits='0'>
        <!-- unsigned char Elf64_Ehdr::e_ident[16] -->
        <var-decl name='e_ident' type-id='type-id-4' visibility='default' filepath='/usr/include/elf.h' line='89' column='1'/>
      </data-member>
      <data-member access='public' layout-offset-in-bits='128'>
        <!-- Elf64_Half Elf64_Ehdr::e_type -->
        <var-decl name='e_type' type-id='type-id-17' visibility='default' filepath='/usr/include/elf.h' line='90' column='1'/>
      </data-member>
      <data-member access='public' layout-offset-in-bits='144'>
        <!-- Elf64_Half Elf64_Ehdr::e_machine -->
        <var-decl name='e_machine' type-id='type-id-17' visibility='default' filepath='/usr/include/elf.h' line='91' column='1'/>
      </data-member>
      <data-member access='public' layout-offset-in-bits='160'>
        <!-- Elf64_Word Elf64_Ehdr::e_version -->
        <var-decl name='e_version' type-id='type-id-8' visibility='default' filepath='/usr/include/elf.h' line='92' column='1'/>
      </data-member>
      <data-member access='public' layout-offset-in-bits='192'>
        <!-- Elf64_Addr Elf64_Ehdr::e_entry -->
        <var-decl name='e_entry' type-id='type-id-10' visibility='default' filepath='/usr/include/elf.h' line='93' column='1'/>
      </data-member>
      <data-member access='public' layout-offset-in-bits='256'>
        <!-- Elf64_Off Elf64_Ehdr::e_phoff -->
        <var-decl name='e_phoff' type-id='type-id-18' visibility='default' filepath='/usr/include/elf.h' line='94' column='1'/>
      </data-member>
      <data-member access='public' layout-offset-in-bits='320'>
        <!-- Elf64_Off Elf64_Ehdr::e_shoff -->
        <var-decl name='e_shoff' type-id='type-id-18' visibility='default' filepath='/usr/include/elf.h' line='95' column='1'/>
      </data-member>
      <data-member access='public' layout-offset-in-bits='384'>
        <!-- Elf64_Word Elf64_Ehdr::e_flags -->
        <var-decl name='e_flags' type-id='type-id-8' visibility='default' filepath='/usr/include/elf.h' line='96' column='1'/>
      </data-member>
      <data-member access='public' layout-offset-in-bits='416'>
        <!-- Elf64_Half Elf64_Ehdr::e_ehsize -->
        <var-decl name='e_ehsize' type-id='type-id-17' visibility='default' filepath='/usr/include/elf.h' line='97' column='1'/>
      </data-member>
      <data-member access='public' layout-offset-in-bits='432'>
        <!-- Elf64_Half Elf64_Ehdr::e_phentsize -->
        <var-decl name='e_phentsize' type-id='type-id-17' visibility='default' filepath='/usr/include/elf.h' line='98' column='1'/>
      </data-member>
      <data-member access='public' layout-offset-in-bits='448'>
        <!-- Elf64_Half Elf64_Ehdr::e_phnum -->
        <var-decl name='e_phnum' type-id='type-id-17' visibility='default' filepath='/usr/include/elf.h' line='99' column='1'/>
      </data-member>
      <data-member access='public' layout-offset-in-bits='464'>
        <!-- Elf64_Half Elf64_Ehdr::e_shentsize -->
        <var-decl name='e_shentsize' type-id='type-id-17' visibility='default' filepath='/usr/include/elf.h' line='100' column='1'/>
      </data-member>
      <data-member access='public' layout-offset-in-bits='480'>
        <!-- Elf64_Half Elf64_Ehdr::e_shnum -->
        <var-decl name='e_shnum' type-id='type-id-17' visibility='default' filepath='/usr/include/elf.h' line='101' column='1'/>
      </data-member>
      <data-member access='public' layout-offset-in-bits='496'>
        <!-- Elf64_Half Elf64_Ehdr::e_shstrndx -->
        <var-decl name='e_shstrndx' type-id='type-id-17' visibility='default' filepath='/usr/include/elf.h' line='102' column='1'/>
      </data-member>
    </class-decl>
    <!-- typedef uint16_t Elf64_Half -->
    <typedef-decl name='Elf64_Half' type-id='type-id-13' filepath='/usr/include/elf.h' line='34' column='1' id='type-id-17'/>
    <!-- typedef uint64_t Elf64_Off -->
    <typedef-decl name='Elf64_Off' type-id='type-id-15' filepath='/usr/include/elf.h' line='54' column='1' id='type-id-18'/>
    <!-- typedef Elf64_Half Elf64_Versym -->
    <typedef-decl name='Elf64_Versym' type-id='type-id-17' filepath='/usr/include/elf.h' line='62' column='1' id='type-id-19'/>
    <!-- struct Elf64_Verdef -->
    <class-decl name='Elf64_Verdef' size-in-bits='160' is-struct='yes' visibility='default' filepath='/usr/include/elf.h' line='812' column='1' id='type-id-20'>
      <data-member access='public' layout-offset-in-bits='0'>
        <!-- Elf64_Half Elf64_Verdef::vd_version -->
        <var-decl name='vd_version' type-id='type-id-17' visibility='default' filepath='/usr/include/elf.h' line='813' column='1'/>
      </data-member>
      <data-member access='public' layout-offset-in-bits='16'>
        <!-- Elf64_Half Elf64_Verdef::vd_flags -->
        <var-decl name='vd_flags' type-id='type-id-17' visibility='default' filepath='/usr/include/elf.h' line='814' column='1'/>
      </data-member>
      <data-member access='public' layout-offset-in-bits='32'>
        <!-- Elf64_Half Elf64_Verdef::vd_ndx -->
        <var-decl name='vd_ndx' type-id='type-id-17' visibility='default' filepath='/usr/include/elf.h' line='815' column='1'/>
      </data-member>
      <data-member access='public' layout-offset-in-bits='48'>
        <!-- Elf64_Half Elf64_Verdef::vd_cnt -->
        <var-decl name='vd_cnt' type-id='type-id-17' visibility='default' filepath='/usr/include/elf.h' line='816' column='1'/>
      </data-member>
      <data-member access='public' layout-offset-in-bits='64'>
        <!-- Elf64_Word Elf64_Verdef::vd_hash -->
        <var-decl name='vd_hash' type-id='type-id-8' visibility='default' filepath='/usr/include/elf.h' line='817' column='1'/>
      </data-member>
      <data-member access='public' layout-offset-in-bits='96'>
        <!-- Elf64_Word Elf64_Verdef::vd_aux -->
        <var-decl name='vd_aux' type-id='type-id-8' visibility='default' filepath='/usr/include/elf.h' line='818' column='1'/>
      </data-member>
      <data-member access='public' layout-offset-in-bits='128'>
        <!-- Elf64_Word Elf64_Verdef::vd_next -->
        <var-decl name='vd_next' type-id='type-id-8' visibility='default' filepath='/usr/include/elf.h' line='819' column='1'/>
      </data-member>
    </class-decl>
    <!-- struct Elf64_Phdr -->
    <class-decl name='Elf64_Phdr' size-in-bits='448' is-struct='yes' visibility='default' filepath='/usr/include/elf.h' line='551' column='1' id='type-id-21'>
      <data-member access='public' layout-offset-in-bits='0'>
        <!-- Elf64_Word Elf64_Phdr::p_type -->
        <var-decl name='p_type' type-id='type-id-8' visibility='default' filepath='/usr/include/elf.h' line='552' column='1'/>
      </data-member>
      <data-member access='public' layout-offset-in-bits='32'>
        <!-- Elf64_Word Elf64_Phdr::p_flags -->
        <var-decl name='p_flags' type-id='type-id-8' visibility='default' filepath='/usr/include/elf.h' line='553' column='1'/>
      </data-member>
      <data-member access='public' layout-offset-in-bits='64'>
        <!-- Elf64_Off Elf64_Phdr::p_offset -->
        <var-decl name='p_offset' type-id='type-id-18' visibility='default' filepath='/usr/include/elf.h' line='554' column='1'/>
      </data-member>
      <data-member access='public' layout-offset-in-bits='128'>
        <!-- Elf64_Addr Elf64_Phdr::p_vaddr -->
        <var-decl name='p_vaddr' type-id='type-id-10' visibility='default' filepath='/usr/include/elf.h' line='555' column='1'/>
      </data-member>
      <data-member access='public' layout-offset-in-bits='192'>
        <!-- Elf64_Addr Elf64_Phdr::p_paddr -->
        <var-decl name='p_paddr' type-id='type-id-10' visibility='default' filepath='/usr/include/elf.h' line='556' column='1'/>
      </data-member>
      <data-member access='public' layout-offset-in-bits='256'>
        <!-- Elf64_Xword Elf64_Phdr::p_filesz -->
        <var-decl name='p_filesz' type-id='type-id-11' visibility='default' filepath='/usr/include/elf.h' line='557' column='1'/>
      </data-member>
      <data-member access='public' layout-offset-in-bits='320'>
        <!-- Elf64_Xword Elf64_Phdr::p_memsz -->
        <var-decl name='p_memsz' type-id='type-id-11' visibility='default' filepath='/usr/include/elf.h' line='558' column='1'/>
      </data-member>
      <data-member access='public' layout-offset-in-bits='384'>
        <!-- Elf64_Xword Elf64_Phdr::p_align -->
        <var-decl name='p_align' type-id='type-id-11' visibility='default' filepath='/usr/include/elf.h' line='559' column='1'/>
      </data-member>
    </class-decl>
    <!-- struct Elf64_Verdaux -->
    <class-decl name='Elf64_Verdaux' size-in-bits='64' is-struct='yes' visibility='default' filepath='/usr/include/elf.h' line='849' column='1' id='type-id-22'>
      <data-member access='public' layout-offset-in-bits='0'>
        <!-- Elf64_Word Elf64_Verdaux::vda_name -->
        <var-decl name='vda_name' type-id='type-id-8' visibility='default' filepath='/usr/include/elf.h' line='850' column='1'/>
      </data-member>
      <data-member access='public' layout-offset-in-bits='32'>
        <!-- Elf64_Word Elf64_Verdaux::vda_next -->
        <var-decl name='vda_next' type-id='type-id-8' visibility='default' filepath='/usr/include/elf.h' line='851' column='1'/>
      </data-member>
    </class-decl>
    <!-- base::ElfMemImage* -->
    <pointer-type-def type-id='type-id-23' size-in-bits='64' id='type-id-24'/>
    <!-- base::ElfMemImage* const -->
    <qualified-type-def type-id='type-id-24' const='yes' id='type-id-25'/>
    <!-- base::ElfMemImage::SymbolInfo* -->
    <pointer-type-def type-id='type-id-26' size-in-bits='64' id='type-id-27'/>
    <!-- base::ElfMemImage::SymbolIterator& -->
    <reference-type-def kind='lvalue' type-id='type-id-28' size-in-bits='64' id='type-id-29'/>
    <!-- base::ElfMemImage::SymbolIterator* -->
    <pointer-type-def type-id='type-id-28' size-in-bits='64' id='type-id-30'/>
    <!-- base::ElfMemImage::SymbolIterator* const -->
    <qualified-type-def type-id='type-id-30' const='yes' id='type-id-31'/>
    <!-- const Elf64_Ehdr -->
    <qualified-type-def type-id='type-id-16' const='yes' id='type-id-32'/>
    <!-- const Elf64_Ehdr* -->
    <pointer-type-def type-id='type-id-32' size-in-bits='64' id='type-id-33'/>
    <!-- const Elf64_Phdr -->
    <qualified-type-def type-id='type-id-21' const='yes' id='type-id-34'/>
    <!-- const Elf64_Phdr* -->
    <pointer-type-def type-id='type-id-34' size-in-bits='64' id='type-id-35'/>
    <!-- const Elf64_Sym -->
    <qualified-type-def type-id='type-id-7' const='yes' id='type-id-36'/>
    <!-- const Elf64_Sym* -->
    <pointer-type-def type-id='type-id-36' size-in-bits='64' id='type-id-37'/>
    <!-- const Elf64_Verdaux -->
    <qualified-type-def type-id='type-id-22' const='yes' id='type-id-38'/>
    <!-- const Elf64_Verdaux* -->
    <pointer-type-def type-id='type-id-38' size-in-bits='64' id='type-id-39'/>
    <!-- const Elf64_Verdef -->
    <qualified-type-def type-id='type-id-20' const='yes' id='type-id-40'/>
    <!-- const Elf64_Verdef* -->
    <pointer-type-def type-id='type-id-40' size-in-bits='64' id='type-id-41'/>
    <!-- const Elf64_Versym -->
    <qualified-type-def type-id='type-id-19' const='yes' id='type-id-42'/>
    <!-- const Elf64_Versym* -->
    <pointer-type-def type-id='type-id-42' size-in-bits='64' id='type-id-43'/>
    <!-- const Elf64_Word -->
    <qualified-type-def type-id='type-id-8' const='yes' id='type-id-44'/>
    <!-- const Elf64_Word* -->
    <pointer-type-def type-id='type-id-44' size-in-bits='64' id='type-id-45'/>
    <!-- const base::ElfMemImage -->
    <qualified-type-def type-id='type-id-23' const='yes' id='type-id-46'/>
    <!-- const base::ElfMemImage* -->
    <pointer-type-def type-id='type-id-46' size-in-bits='64' id='type-id-47'/>
    <!-- const base::ElfMemImage* const -->
    <qualified-type-def type-id='type-id-47' const='yes' id='type-id-48'/>
    <!-- const base::ElfMemImage::SymbolInfo -->
    <qualified-type-def type-id='type-id-26' const='yes' id='type-id-49'/>
    <!-- const base::ElfMemImage::SymbolInfo& -->
    <reference-type-def kind='lvalue' type-id='type-id-49' size-in-bits='64' id='type-id-50'/>
    <!-- const base::ElfMemImage::SymbolInfo* -->
    <pointer-type-def type-id='type-id-49' size-in-bits='64' id='type-id-51'/>
    <!-- const base::ElfMemImage::SymbolIterator -->
    <qualified-type-def type-id='type-id-28' const='yes' id='type-id-52'/>
    <!-- const base::ElfMemImage::SymbolIterator& -->
    <qualified-type-def type-id='type-id-53' id='type-id-54'/>
    <!-- const base::ElfMemImage::SymbolIterator& -->
    <reference-type-def kind='lvalue' type-id='type-id-52' size-in-bits='64' id='type-id-53'/>
    <!-- const base::ElfMemImage::SymbolIterator* -->
    <pointer-type-def type-id='type-id-52' size-in-bits='64' id='type-id-55'/>
    <!-- const base::ElfMemImage::SymbolIterator* const -->
    <qualified-type-def type-id='type-id-55' const='yes' id='type-id-56'/>
    <!-- namespace base -->
    <namespace-decl name='base'>
      <!-- class base::ElfMemImage -->
      <class-decl name='ElfMemImage' size-in-bits='576' visibility='default' filepath='./src/base/elf_mem_image.h' line='56' column='1' id='type-id-23'>
        <member-type access='private'>
          <!-- struct base::ElfMemImage::SymbolInfo -->
          <class-decl name='SymbolInfo' size-in-bits='256' is-struct='yes' visibility='default' filepath='./src/base/elf_mem_image.h' line='64' column='1' id='type-id-26'>
            <data-member access='public' layout-offset-in-bits='0'>
              <!-- const char* base::ElfMemImage::SymbolInfo::name -->
              <var-decl name='name' type-id='type-id-57' visibility='default' filepath='./src/base/elf_mem_image.h' line='65' column='1'/>
            </data-member>
            <data-member access='public' layout-offset-in-bits='64'>
              <!-- const char* base::ElfMemImage::SymbolInfo::version -->
              <var-decl name='version' type-id='type-id-57' visibility='default' filepath='./src/base/elf_mem_image.h' line='66' column='1'/>
            </data-member>
            <data-member access='public' layout-offset-in-bits='128'>
              <!-- void* base::ElfMemImage::SymbolInfo::address -->
              <var-decl name='address' type-id='type-id-58' visibility='default' filepath='./src/base/elf_mem_image.h' line='68' column='1'/>
            </data-member>
            <data-member access='public' layout-offset-in-bits='192'>
              <!-- const Elf64_Sym* base::ElfMemImage::SymbolInfo::symbol -->
              <var-decl name='symbol' type-id='type-id-37' visibility='default' filepath='./src/base/elf_mem_image.h' line='69' column='1'/>
            </data-member>
          </class-decl>
        </member-type>
        <member-type access='private'>
          <!-- class base::ElfMemImage::SymbolIterator -->
          <class-decl name='SymbolIterator' size-in-bits='384' visibility='default' filepath='./src/base/elf_mem_image.h' line='73' column='1' id='type-id-28'>
            <data-member access='private' layout-offset-in-bits='0'>
              <!-- base::ElfMemImage::SymbolInfo base::ElfMemImage::SymbolIterator::info_ -->
              <var-decl name='info_' type-id='type-id-26' visibility='default' filepath='./src/base/elf_mem_image.h' line='84' column='1'/>
            </data-member>
            <data-member access='private' layout-offset-in-bits='256'>
              <!-- int base::ElfMemImage::SymbolIterator::index_ -->
              <var-decl name='index_' type-id='type-id-1' visibility='default' filepath='./src/base/elf_mem_image.h' line='85' column='1'/>
            </data-member>
            <data-member access='private' layout-offset-in-bits='320'>
              <!-- void* const base::ElfMemImage::SymbolIterator::image_ -->
              <var-decl name='image_' type-id='type-id-59' visibility='default' filepath='./src/base/elf_mem_image.h' line='86' column='1'/>
            </data-member>
            <member-function access='private' constructor='yes'>
              <!-- base::ElfMemImage::SymbolIterator::SymbolIterator(void*, int) -->
              <function-decl name='SymbolIterator' mangled-name='_ZN4base11ElfMemImage14SymbolIteratorC2EPKvi' filepath='./src/base/elf_mem_image.h' line='82' column='1' visibility='default' binding='global' size-in-bits='64' elf-symbol-id='_ZN4base11ElfMemImage14SymbolIteratorC2EPKvi'>
                <!-- implicit parameter of type 'base::ElfMemImage::SymbolIterator*' -->
                <parameter type-id='type-id-30' is-artificial='yes'/>
                <!-- parameter of type 'void*' -->
                <parameter type-id='type-id-58'/>
                <!-- parameter of type 'int' -->
                <parameter type-id='type-id-1'/>
                <!-- void -->
                <return type-id='type-id-60'/>
              </function-decl>
            </member-function>
            <member-function access='private'>
              <!-- const base::ElfMemImage::SymbolInfo* base::ElfMemImage::SymbolIterator::operator&#45;>() -->
              <function-decl name='operator-&gt;' mangled-name='_ZNK4base11ElfMemImage14SymbolIteratorptEv' filepath='src/base/elf_mem_image.cc' line='362' column='1' visibility='default' binding='global' size-in-bits='64' elf-symbol-id='_ZNK4base11ElfMemImage14SymbolIteratorptEv'>
                <!-- implicit parameter of type 'const base::ElfMemImage::SymbolIterator* const' -->
                <parameter type-id='type-id-56' name='this' is-artificial='yes'/>
                <!-- const base::ElfMemImage::SymbolInfo* -->
                <return type-id='type-id-51'/>
              </function-decl>
            </member-function>
            <member-function access='private'>
              <!-- const base::ElfMemImage::SymbolInfo& base::ElfMemImage::SymbolIterator::operator*() -->
              <function-decl name='operator*' mangled-name='_ZNK4base11ElfMemImage14SymbolIteratordeEv' filepath='src/base/elf_mem_image.cc' line='366' column='1' visibility='default' binding='global' size-in-bits='64' elf-symbol-id='_ZNK4base11ElfMemImage14SymbolIteratordeEv'>
                <!-- implicit parameter of type 'const base::ElfMemImage::SymbolIterator* const' -->
                <parameter type-id='type-id-56' name='this' is-artificial='yes'/>
                <!-- const base::ElfMemImage::SymbolInfo& -->
                <return type-id='type-id-50'/>
              </function-decl>
            </member-function>
            <member-function access='private'>
              <!-- bool base::ElfMemImage::SymbolIterator::operator==(const base::ElfMemImage::SymbolIterator&) -->
              <function-decl name='operator==' mangled-name='_ZNK4base11ElfMemImage14SymbolIteratoreqERKS1_' filepath='src/base/elf_mem_image.cc' line='370' column='1' visibility='default' binding='global' size-in-bits='64' elf-symbol-id='_ZNK4base11ElfMemImage14SymbolIteratoreqERKS1_'>
                <!-- implicit parameter of type 'const base::ElfMemImage::SymbolIterator* const' -->
                <parameter type-id='type-id-56' name='this' is-artificial='yes'/>
                <!-- parameter of type 'const base::ElfMemImage::SymbolIterator&' -->
                <parameter type-id='type-id-54' name='rhs' filepath='src/base/elf_mem_image.cc' line='370' column='1'/>
                <!-- bool -->
                <return type-id='type-id-61'/>
              </function-decl>
            </member-function>
            <member-function access='private'>
              <!-- bool base::ElfMemImage::SymbolIterator::operator!=(const base::ElfMemImage::SymbolIterator&) -->
              <function-decl name='operator!=' mangled-name='_ZNK4base11ElfMemImage14SymbolIteratorneERKS1_' filepath='src/base/elf_mem_image.cc' line='374' column='1' visibility='default' binding='global' size-in-bits='64' elf-symbol-id='_ZNK4base11ElfMemImage14SymbolIteratorneERKS1_'>
                <!-- implicit parameter of type 'const base::ElfMemImage::SymbolIterator* const' -->
                <parameter type-id='type-id-56' name='this' is-artificial='yes'/>
                <!-- parameter of type 'const base::ElfMemImage::SymbolIterator&' -->
                <parameter type-id='type-id-54' name='rhs' filepath='src/base/elf_mem_image.cc' line='370' column='1'/>
                <!-- bool -->
                <return type-id='type-id-61'/>
              </function-decl>
            </member-function>
            <member-function access='private'>
              <!-- void base::ElfMemImage::SymbolIterator::Update(int) -->
              <function-decl name='Update' mangled-name='_ZN4base11ElfMemImage14SymbolIterator6UpdateEi' filepath='src/base/elf_mem_image.cc' line='393' column='1' visibility='default' binding='global' size-in-bits='64' elf-symbol-id='_ZN4base11ElfMemImage14SymbolIterator6UpdateEi'>
                <!-- implicit parameter of type 'base::ElfMemImage::SymbolIterator* const' -->
                <parameter type-id='type-id-31' name='this' is-artificial='yes'/>
                <!-- parameter of type 'int' -->
                <parameter type-id='type-id-1' name='increment' filepath='src/base/elf_mem_image.cc' line='393' column='1'/>
                <!-- void -->
                <return type-id='type-id-60'/>
              </function-decl>
            </member-function>
            <member-function access='private'>
              <!-- base::ElfMemImage::SymbolIterator& base::ElfMemImage::SymbolIterator::operator++() -->
              <function-decl name='operator++' mangled-name='_ZN4base11ElfMemImage14SymbolIteratorppEv' filepath='src/base/elf_mem_image.cc' line='378' column='1' visibility='default' binding='global' size-in-bits='64' elf-symbol-id='_ZN4base11ElfMemImage14SymbolIteratorppEv'>
                <!-- implicit parameter of type 'base::ElfMemImage::SymbolIterator* const' -->
                <parameter type-id='type-id-31' name='this' is-artificial='yes'/>
                <!-- base::ElfMemImage::SymbolIterator& -->
                <return type-id='type-id-29'/>
              </function-decl>
            </member-function>
          </class-decl>
        </member-type>
        <data-member access='private' static='yes'>
          <!-- static void* const base::ElfMemImage::kInvalidBase -->
          <var-decl name='kInvalidBase' type-id='type-id-59' mangled-name='_ZN4base11ElfMemImage12kInvalidBaseE' visibility='default' filepath='./src/base/elf_mem_image.h' line='59' column='1' elf-symbol-id='_ZN4base11ElfMemImage12kInvalidBaseE'/>
        </data-member>
        <data-member access='private' layout-offset-in-bits='0'>
          <!-- const Elf64_Ehdr* base::ElfMemImage::ehdr_ -->
          <var-decl name='ehdr_' type-id='type-id-33' visibility='default' filepath='./src/base/elf_mem_image.h' line='120' column='1'/>
        </data-member>
        <data-member access='private' layout-offset-in-bits='64'>
          <!-- const Elf64_Sym* base::ElfMemImage::dynsym_ -->
          <var-decl name='dynsym_' type-id='type-id-37' visibility='default' filepath='./src/base/elf_mem_image.h' line='121' column='1'/>
        </data-member>
        <data-member access='private' layout-offset-in-bits='128'>
          <!-- const Elf64_Versym* base::ElfMemImage::versym_ -->
          <var-decl name='versym_' type-id='type-id-43' visibility='default' filepath='./src/base/elf_mem_image.h' line='122' column='1'/>
        </data-member>
        <data-member access='private' layout-offset-in-bits='192'>
          <!-- const Elf64_Verdef* base::ElfMemImage::verdef_ -->
          <var-decl name='verdef_' type-id='type-id-41' visibility='default' filepath='./src/base/elf_mem_image.h' line='123' column='1'/>
        </data-member>
        <data-member access='private' layout-offset-in-bits='256'>
          <!-- const Elf64_Word* base::ElfMemImage::hash_ -->
          <var-decl name='hash_' type-id='type-id-45' visibility='default' filepath='./src/base/elf_mem_image.h' line='124' column='1'/>
        </data-member>
        <data-member access='private' layout-offset-in-bits='320'>
          <!-- const char* base::ElfMemImage::dynstr_ -->
          <var-decl name='dynstr_' type-id='type-id-57' visibility='default' filepath='./src/base/elf_mem_image.h' line='125' column='1'/>
        </data-member>
        <data-member access='private' layout-offset-in-bits='384'>
          <!-- size_t base::ElfMemImage::strsize_ -->
          <var-decl name='strsize_' type-id='type-id-62' visibility='default' filepath='./src/base/elf_mem_image.h' line='126' column='1'/>
        </data-member>
        <data-member access='private' layout-offset-in-bits='448'>
          <!-- size_t base::ElfMemImage::verdefnum_ -->
          <var-decl name='verdefnum_' type-id='type-id-62' visibility='default' filepath='./src/base/elf_mem_image.h' line='127' column='1'/>
        </data-member>
        <data-member access='private' layout-offset-in-bits='512'>
          <!-- Elf64_Addr base::ElfMemImage::link_base_ -->
          <var-decl name='link_base_' type-id='type-id-10' visibility='default' filepath='./src/base/elf_mem_image.h' line='128' column='1'/>
        </data-member>
        <member-function access='private' constructor='yes'>
          <!-- base::ElfMemImage::ElfMemImage(void*) -->
          <function-decl name='ElfMemImage' mangled-name='_ZN4base11ElfMemImageC1EPKv' filepath='./src/base/elf_mem_image.h' line='90' column='1' visibility='default' binding='global' size-in-bits='64' elf-symbol-id='_ZN4base11ElfMemImageC1EPKv'>
            <!-- implicit parameter of type 'base::ElfMemImage*' -->
            <parameter type-id='type-id-24' is-artificial='yes'/>
            <!-- parameter of type 'void*' -->
            <parameter type-id='type-id-58'/>
            <!-- void -->
            <return type-id='type-id-60'/>
          </function-decl>
        </member-function>
        <member-function access='private'>
          <!-- int base::ElfMemImage::GetNumSymbols() -->
          <function-decl name='GetNumSymbols' mangled-name='_ZNK4base11ElfMemImage13GetNumSymbolsEv' filepath='src/base/elf_mem_image.cc' line='119' column='1' visibility='default' binding='global' size-in-bits='64' elf-symbol-id='_ZNK4base11ElfMemImage13GetNumSymbolsEv'>
            <!-- implicit parameter of type 'const base::ElfMemImage* const' -->
            <parameter type-id='type-id-48' name='this' is-artificial='yes'/>
            <!-- int -->
            <return type-id='type-id-1'/>
          </function-decl>
        </member-function>
        <member-function access='private'>
          <!-- const Elf64_Verdaux* base::ElfMemImage::GetVerdefAux(const Elf64_Verdef*) -->
          <function-decl name='GetVerdefAux' mangled-name='_ZNK4base11ElfMemImage12GetVerdefAuxEPK12Elf64_Verdef' filepath='src/base/elf_mem_image.cc' line='172' column='1' visibility='default' binding='global' size-in-bits='64' elf-symbol-id='_ZNK4base11ElfMemImage12GetVerdefAuxEPK12Elf64_Verdef'>
            <!-- implicit parameter of type 'const base::ElfMemImage* const' -->
            <parameter type-id='type-id-48' name='this' is-artificial='yes'/>
            <!-- parameter of type 'const Elf64_Verdef*' -->
            <parameter type-id='type-id-41' name='verdef' filepath='src/base/elf_mem_image.cc' line='173' column='1'/>
            <!-- const Elf64_Verdaux* -->
            <return type-id='type-id-39'/>
          </function-decl>
        </member-function>
        <member-function access='private'>
          <!-- base::ElfMemImage::SymbolIterator base::ElfMemImage::end() -->
          <function-decl name='end' mangled-name='_ZNK4base11ElfMemImage3endEv' filepath='src/base/elf_mem_image.cc' line='389' column='1' visibility='default' binding='global' size-in-bits='64' elf-symbol-id='_ZNK4base11ElfMemImage3endEv'>
            <!-- implicit parameter of type 'const base::ElfMemImage* const' -->
            <parameter type-id='type-id-48' name='this' is-artificial='yes'/>
            <!-- class base::ElfMemImage::SymbolIterator -->
            <return type-id='type-id-28'/>
          </function-decl>
        </member-function>
        <member-function access='private'>
          <!-- const char* base::ElfMemImage::GetVerstr(Elf64_Word) -->
          <function-decl name='GetVerstr' mangled-name='_ZNK4base11ElfMemImage9GetVerstrEj' filepath='src/base/elf_mem_image.cc' line='177' column='1' visibility='default' binding='global' size-in-bits='64' elf-symbol-id='_ZNK4base11ElfMemImage9GetVerstrEj'>
            <!-- implicit parameter of type 'const base::ElfMemImage* const' -->
            <parameter type-id='type-id-48' name='this' is-artificial='yes'/>
            <!-- parameter of type 'typedef Elf64_Word' -->
            <parameter type-id='type-id-8' name='offset' filepath='src/base/elf_mem_image.cc' line='177' column='1'/>
            <!-- const char* -->
            <return type-id='type-id-57'/>
          </function-decl>
        </member-function>
        <member-function access='private'>
          <!-- const Elf64_Verdef* base::ElfMemImage::GetVerdef(int) -->
          <function-decl name='GetVerdef' mangled-name='_ZNK4base11ElfMemImage9GetVerdefEi' filepath='src/base/elf_mem_image.cc' line='159' column='1' visibility='default' binding='global' size-in-bits='64' elf-symbol-id='_ZNK4base11ElfMemImage9GetVerdefEi'>
            <!-- implicit parameter of type 'const base::ElfMemImage* const' -->
            <parameter type-id='type-id-48' name='this' is-artificial='yes'/>
            <!-- parameter of type 'int' -->
            <parameter type-id='type-id-1' name='index' filepath='src/base/elf_mem_image.cc' line='159' column='1'/>
            <!-- const Elf64_Verdef* -->
            <return type-id='type-id-41'/>
          </function-decl>
        </member-function>
        <member-function access='private'>
          <!-- void* base::ElfMemImage::GetSymAddr(const Elf64_Sym*) -->
          <function-decl name='GetSymAddr' mangled-name='_ZNK4base11ElfMemImage10GetSymAddrEPK9Elf64_Sym' filepath='src/base/elf_mem_image.cc' line='150' column='1' visibility='default' binding='global' size-in-bits='64' elf-symbol-id='_ZNK4base11ElfMemImage10GetSymAddrEPK9Elf64_Sym'>
            <!-- implicit parameter of type 'const base::ElfMemImage* const' -->
            <parameter type-id='type-id-48' name='this' is-artificial='yes'/>
            <!-- parameter of type 'const Elf64_Sym*' -->
            <parameter type-id='type-id-37' name='sym' filepath='src/base/elf_mem_image.cc' line='150' column='1'/>
            <!-- void* -->
            <return type-id='type-id-58'/>
          </function-decl>
        </member-function>
        <member-function access='private'>
          <!-- const char* base::ElfMemImage::GetDynstr(Elf64_Word) -->
          <function-decl name='GetDynstr' mangled-name='_ZNK4base11ElfMemImage9GetDynstrEj' filepath='src/base/elf_mem_image.cc' line='145' column='1' visibility='default' binding='global' size-in-bits='64' elf-symbol-id='_ZNK4base11ElfMemImage9GetDynstrEj'>
            <!-- implicit parameter of type 'const base::ElfMemImage* const' -->
            <parameter type-id='type-id-48' name='this' is-artificial='yes'/>
            <!-- parameter of type 'typedef Elf64_Word' -->
            <parameter type-id='type-id-8' name='offset' filepath='src/base/elf_mem_image.cc' line='177' column='1'/>
            <!-- const char* -->
            <return type-id='type-id-57'/>
          </function-decl>
        </member-function>
        <member-function access='private'>
          <!-- const Elf64_Phdr* base::ElfMemImage::GetPhdr(int) -->
          <function-decl name='GetPhdr' mangled-name='_ZNK4base11ElfMemImage7GetPhdrEi' filepath='src/base/elf_mem_image.cc' line='137' column='1' visibility='default' binding='global' size-in-bits='64' elf-symbol-id='_ZNK4base11ElfMemImage7GetPhdrEi'>
            <!-- implicit parameter of type 'const base::ElfMemImage* const' -->
            <parameter type-id='type-id-48' name='this' is-artificial='yes'/>
            <!-- parameter of type 'int' -->
            <parameter type-id='type-id-1' name='index' filepath='src/base/elf_mem_image.cc' line='137' column='1'/>
            <!-- const Elf64_Phdr* -->
            <return type-id='type-id-35'/>
          </function-decl>
        </member-function>
        <member-function access='private'>
          <!-- void base::ElfMemImage::Init(void*) -->
          <function-decl name='Init' mangled-name='_ZN4base11ElfMemImage4InitEPKv' filepath='src/base/elf_mem_image.cc' line='182' column='1' visibility='default' binding='global' size-in-bits='64' elf-symbol-id='_ZN4base11ElfMemImage4InitEPKv'>
            <!-- implicit parameter of type 'base::ElfMemImage* const' -->
            <parameter type-id='type-id-25' name='this' is-artificial='yes'/>
            <!-- parameter of type 'void*' -->
            <parameter type-id='type-id-58' name='base' filepath='src/base/elf_mem_image.cc' line='182' column='1'/>
            <!-- void -->
            <return type-id='type-id-60'/>
          </function-decl>
        </member-function>
        <member-function access='private'>
          <!-- const Elf64_Versym* base::ElfMemImage::GetVersym(int) -->
          <function-decl name='GetVersym' mangled-name='_ZNK4base11ElfMemImage9GetVersymEi' filepath='src/base/elf_mem_image.cc' line='132' column='1' visibility='default' binding='global' size-in-bits='64' elf-symbol-id='_ZNK4base11ElfMemImage9GetVersymEi'>
            <!-- implicit parameter of type 'const base::ElfMemImage* const' -->
            <parameter type-id='type-id-48' name='this' is-artificial='yes'/>
            <!-- parameter of type 'int' -->
            <parameter type-id='type-id-1' name='index' filepath='src/base/elf_mem_image.cc' line='132' column='1'/>
            <!-- const Elf64_Versym* -->
            <return type-id='type-id-43'/>
          </function-decl>
        </member-function>
        <member-function access='private'>
          <!-- const Elf64_Sym* base::ElfMemImage::GetDynsym(int) -->
          <function-decl name='GetDynsym' mangled-name='_ZNK4base11ElfMemImage9GetDynsymEi' filepath='src/base/elf_mem_image.cc' line='127' column='1' visibility='default' binding='global' size-in-bits='64' elf-symbol-id='_ZNK4base11ElfMemImage9GetDynsymEi'>
            <!-- implicit parameter of type 'const base::ElfMemImage* const' -->
            <parameter type-id='type-id-48' name='this' is-artificial='yes'/>
            <!-- parameter of type 'int' -->
            <parameter type-id='type-id-1' name='index' filepath='src/base/elf_mem_image.cc' line='127' column='1'/>
            <!-- const Elf64_Sym* -->
            <return type-id='type-id-37'/>
          </function-decl>
        </member-function>
        <member-function access='private'>
          <!-- base::ElfMemImage::SymbolIterator base::ElfMemImage::begin() -->
          <function-decl name='begin' mangled-name='_ZNK4base11ElfMemImage5beginEv' filepath='src/base/elf_mem_image.cc' line='383' column='1' visibility='default' binding='global' size-in-bits='64' elf-symbol-id='_ZNK4base11ElfMemImage5beginEv'>
            <!-- implicit parameter of type 'const base::ElfMemImage* const' -->
            <parameter type-id='type-id-48' name='this' is-artificial='yes'/>
            <!-- class base::ElfMemImage::SymbolIterator -->
            <return type-id='type-id-28'/>
          </function-decl>
        </member-function>
        <member-function access='private'>
          <!-- bool base::ElfMemImage::LookupSymbolByAddress(void*, base::ElfMemImage::SymbolInfo*) -->
          <function-decl name='LookupSymbolByAddress' mangled-name='_ZNK4base11ElfMemImage21LookupSymbolByAddressEPKvPNS0_10SymbolInfoE' filepath='src/base/elf_mem_image.cc' line='332' column='1' visibility='default' binding='global' size-in-bits='64' elf-symbol-id='_ZNK4base11ElfMemImage21LookupSymbolByAddressEPKvPNS0_10SymbolInfoE'>
            <!-- implicit parameter of type 'const base::ElfMemImage* const' -->
            <parameter type-id='type-id-48' name='this' is-artificial='yes'/>
            <!-- parameter of type 'void*' -->
            <parameter type-id='type-id-58' name='address' filepath='src/base/elf_mem_image.cc' line='332' column='1'/>
            <!-- parameter of type 'base::ElfMemImage::SymbolInfo*' -->
            <parameter type-id='type-id-27' name='info_out' filepath='src/base/elf_mem_image.cc' line='333' column='1'/>
            <!-- bool -->
            <return type-id='type-id-61'/>
          </function-decl>
        </member-function>
        <member-function access='private'>
          <!-- bool base::ElfMemImage::LookupSymbol(const char*, const char*, int, base::ElfMemImage::SymbolInfo*) -->
          <function-decl name='LookupSymbol' mangled-name='_ZNK4base11ElfMemImage12LookupSymbolEPKcS2_iPNS0_10SymbolInfoE' filepath='src/base/elf_mem_image.cc' line='316' column='1' visibility='default' binding='global' size-in-bits='64' elf-symbol-id='_ZNK4base11ElfMemImage12LookupSymbolEPKcS2_iPNS0_10SymbolInfoE'>
            <!-- implicit parameter of type 'const base::ElfMemImage* const' -->
            <parameter type-id='type-id-48' name='this' is-artificial='yes'/>
            <!-- parameter of type 'const char*' -->
            <parameter type-id='type-id-57' name='name' filepath='src/base/elf_mem_image.cc' line='316' column='1'/>
            <!-- parameter of type 'const char*' -->
            <parameter type-id='type-id-57' name='version' filepath='src/base/elf_mem_image.cc' line='317' column='1'/>
            <!-- parameter of type 'int' -->
            <parameter type-id='type-id-1' name='type' filepath='src/base/elf_mem_image.cc' line='318' column='1'/>
            <!-- parameter of type 'base::ElfMemImage::SymbolInfo*' -->
            <parameter type-id='type-id-27' name='info' filepath='src/base/elf_mem_image.cc' line='319' column='1'/>
            <!-- bool -->
            <return type-id='type-id-61'/>
          </function-decl>
        </member-function>
      </class-decl>
    </namespace-decl>
    <!-- bool -->
    <type-decl name='bool' size-in-bits='8' id='type-id-61'/>
    <!-- const char* -->
    <pointer-type-def type-id='type-id-63' size-in-bits='64' id='type-id-57'/>
    <!-- typedef unsigned long int size_t -->
    <typedef-decl name='size_t' type-id='type-id-5' filepath='/usr/lib/gcc/x86_64-redhat-linux/4.4.7/include/stddef.h' line='211' column='1' id='type-id-62'/>
    <!-- typedef unsigned int uint32_t -->
    <typedef-decl name='uint32_t' type-id='type-id-64' filepath='/usr/include/stdint.h' line='52' column='1' id='type-id-12'/>
    <!-- typedef unsigned long int uint64_t -->
    <typedef-decl name='uint64_t' type-id='type-id-5' filepath='/usr/include/stdint.h' line='56' column='1' id='type-id-15'/>
    <!-- unsigned char -->
    <type-decl name='unsigned char' size-in-bits='8' id='type-id-3'/>
    <!-- unsigned long int -->
    <type-decl name='unsigned long int' size-in-bits='64' id='type-id-5'/>
    <!-- unsigned short int -->
    <type-decl name='unsigned short int' size-in-bits='16' id='type-id-14'/>
    <!-- void -->
    <type-decl name='void' id='type-id-60'/>
    <!-- void* -->
    <pointer-type-def type-id='type-id-60' size-in-bits='64' id='type-id-58'/>
    <!-- void* const -->
    <qualified-type-def type-id='type-id-58' const='yes' id='type-id-59'/>
    <!-- const char -->
    <qualified-type-def type-id='type-id-65' const='yes' id='type-id-63'/>
    <!-- unsigned int -->
    <type-decl name='unsigned int' size-in-bits='32' id='type-id-64'/>
    <!-- char -->
    <type-decl name='char' size-in-bits='8' id='type-id-65'/>
  </abi-instr>
  <abi-instr address-size='64' path='src/base/linuxthreads.cc' comp-dir-path='/tmp/legendre/spack-stage/spack-stage-kFgaKP/gperftools-2.4' language='LANG_C_plus_plus'>
    <!-- typedef int (void*, int, pid_t*, typedef __va_list_tag __va_list_tag*)* ListAllProcessThreadsCallBack -->
    <typedef-decl name='ListAllProcessThreadsCallBack' type-id='type-id-66' filepath='./src/base/thread_lister.h' line='48' column='1' id='type-id-67'/>
    <!-- typedef __pid_t pid_t -->
    <typedef-decl name='pid_t' type-id='type-id-68' filepath='/usr/include/sched.h' line='37' column='1' id='type-id-69'/>
    <!-- typedef int __pid_t -->
    <typedef-decl name='__pid_t' type-id='type-id-1' filepath='/usr/include/bits/types.h' line='143' column='1' id='type-id-68'/>
    <!-- int (void*, int, pid_t*, typedef __va_list_tag __va_list_tag*)* -->
    <pointer-type-def type-id='type-id-70' size-in-bits='64' id='type-id-66'/>
    <!-- pid_t* -->
    <pointer-type-def type-id='type-id-69' size-in-bits='64' id='type-id-71'/>
    <!-- int TCMalloc_ListAllProcessThreads(void*, ListAllProcessThreadsCallBack, ...) -->
    <function-decl name='TCMalloc_ListAllProcessThreads' mangled-name='TCMalloc_ListAllProcessThreads' filepath='src/base/linuxthreads.cc' line='551' column='1' visibility='default' binding='global' size-in-bits='64' elf-symbol-id='TCMalloc_ListAllProcessThreads'>
      <!-- parameter of type 'void*' -->
      <parameter type-id='type-id-58' name='parameter' filepath='src/base/linuxthreads.cc' line='551' column='1'/>
      <!-- parameter of type 'typedef ListAllProcessThreadsCallBack' -->
      <parameter type-id='type-id-67' name='callback' filepath='src/base/linuxthreads.cc' line='552' column='1'/>
      <parameter is-variadic='yes'/>
      <!-- int -->
      <return type-id='type-id-1'/>
    </function-decl>
    <!-- int TCMalloc_ResumeAllProcessThreads(int, pid_t*) -->
    <function-decl name='TCMalloc_ResumeAllProcessThreads' mangled-name='TCMalloc_ResumeAllProcessThreads' filepath='src/base/linuxthreads.cc' line='696' column='1' visibility='default' binding='global' size-in-bits='64' elf-symbol-id='TCMalloc_ResumeAllProcessThreads'>
      <!-- parameter of type 'int' -->
      <parameter type-id='type-id-1' name='num_threads' filepath='src/base/linuxthreads.cc' line='696' column='1'/>
      <!-- parameter of type 'pid_t*' -->
      <parameter type-id='type-id-71' name='thread_pids' filepath='src/base/linuxthreads.cc' line='696' column='1'/>
      <!-- int -->
      <return type-id='type-id-1'/>
    </function-decl>
    <!-- int (void*, int, pid_t*, typedef __va_list_tag __va_list_tag*) -->
    <function-type size-in-bits='64' id='type-id-70'>
      <!-- parameter of type 'void*' -->
      <parameter type-id='type-id-58'/>
      <!-- parameter of type 'int' -->
      <parameter type-id='type-id-1'/>
      <!-- parameter of type 'pid_t*' -->
      <parameter type-id='type-id-71'/>
      <!-- parameter of type 'typedef __va_list_tag __va_list_tag*' -->
      <parameter type-id='type-id-72'/>
      <!-- int -->
      <return type-id='type-id-1'/>
    </function-type>
    <!-- typedef __va_list_tag __va_list_tag* -->
    <pointer-type-def type-id='type-id-73' size-in-bits='64' id='type-id-72'/>
    <!-- struct typedef __va_list_tag __va_list_tag -->
    <class-decl name='typedef __va_list_tag __va_list_tag' size-in-bits='192' is-struct='yes' visibility='default' id='type-id-73'>
      <data-member access='public' layout-offset-in-bits='0'>
        <!-- unsigned int typedef __va_list_tag __va_list_tag::gp_offset -->
        <var-decl name='gp_offset' type-id='type-id-64' visibility='default'/>
      </data-member>
      <data-member access='public' layout-offset-in-bits='32'>
        <!-- unsigned int typedef __va_list_tag __va_list_tag::fp_offset -->
        <var-decl name='fp_offset' type-id='type-id-64' visibility='default'/>
      </data-member>
      <data-member access='public' layout-offset-in-bits='64'>
        <!-- void* typedef __va_list_tag __va_list_tag::overflow_arg_area -->
        <var-decl name='overflow_arg_area' type-id='type-id-58' visibility='default'/>
      </data-member>
      <data-member access='public' layout-offset-in-bits='128'>
        <!-- void* typedef __va_list_tag __va_list_tag::reg_save_area -->
        <var-decl name='reg_save_area' type-id='type-id-58' visibility='default'/>
      </data-member>
    </class-decl>
  </abi-instr>
  <abi-instr address-size='64' path='src/base/logging.cc' comp-dir-path='/tmp/legendre/spack-stage/spack-stage-kFgaKP/gperftools-2.4' language='LANG_C_plus_plus'>
    <!-- namespace FLAG__namespace_do_not_use_directly_use_DECLARE_int32_instead -->
    <namespace-decl name='FLAG__namespace_do_not_use_directly_use_DECLARE_int32_instead'>
      <!-- int32 FLAG__namespace_do_not_use_directly_use_DECLARE_int32_instead::FLAGS_verbose -->
      <var-decl name='FLAGS_verbose' type-id='type-id-74' mangled-name='_ZN61FLAG__namespace_do_not_use_directly_use_DECLARE_int32_instead13FLAGS_verboseE' visibility='default' filepath='./src/base/logging.h' line='76' column='1' elf-symbol-id='_ZN61FLAG__namespace_do_not_use_directly_use_DECLARE_int32_instead13FLAGS_verboseE'/>
      <!-- char FLAG__namespace_do_not_use_directly_use_DECLARE_int32_instead::FLAGS_noverbose -->
      <var-decl name='FLAGS_noverbose' type-id='type-id-65' mangled-name='_ZN61FLAG__namespace_do_not_use_directly_use_DECLARE_int32_instead15FLAGS_noverboseE' visibility='default' filepath='src/base/logging.cc' line='40' column='1' elf-symbol-id='_ZN61FLAG__namespace_do_not_use_directly_use_DECLARE_int32_instead15FLAGS_noverboseE'/>
    </namespace-decl>
    <!-- void RawClose(RawFD) -->
    <function-decl name='RawClose' mangled-name='_Z8RawClosei' filepath='src/base/logging.cc' line='104' column='1' visibility='default' binding='global' size-in-bits='64' elf-symbol-id='_Z8RawClosei'>
      <!-- parameter of type 'typedef RawFD' -->
      <parameter type-id='type-id-75'/>
      <!-- void -->
      <return type-id='type-id-60'/>
    </function-decl>
    <!-- void RawWrite(RawFD, const char*, size_t) -->
    <function-decl name='RawWrite' mangled-name='_Z8RawWriteiPKcm' filepath='src/base/logging.cc' line='94' column='1' visibility='default' binding='global' size-in-bits='64' elf-symbol-id='_Z8RawWriteiPKcm'>
      <!-- parameter of type 'typedef RawFD' -->
      <parameter type-id='type-id-75' name='fd' filepath='src/base/logging.cc' line='94' column='1'/>
      <!-- parameter of type 'const char*' -->
      <parameter type-id='type-id-57' name='buf' filepath='src/base/logging.cc' line='94' column='1'/>
      <!-- parameter of type 'typedef size_t' -->
      <parameter type-id='type-id-62' name='len' filepath='src/base/logging.cc' line='94' column='1'/>
      <!-- void -->
      <return type-id='type-id-60'/>
    </function-decl>
    <!-- RawFD RawOpenForWriting(const char*) -->
    <function-decl name='RawOpenForWriting' mangled-name='_Z17RawOpenForWritingPKc' filepath='src/base/logging.cc' line='90' column='1' visibility='default' binding='global' size-in-bits='64' elf-symbol-id='_Z17RawOpenForWritingPKc'>
      <!-- parameter of type 'const char*' -->
      <parameter type-id='type-id-57' name='filename' filepath='src/base/logging.cc' line='90' column='1'/>
      <!-- typedef RawFD -->
      <return type-id='type-id-75'/>
    </function-decl>
    <!-- typedef int RawFD -->
    <typedef-decl name='RawFD' type-id='type-id-1' filepath='./src/base/logging.h' line='251' column='1' id='type-id-75'/>
    <!-- typedef int32_t int32 -->
    <typedef-decl name='int32' type-id='type-id-76' filepath='src/base/basictypes.h' line='60' column='1' id='type-id-74'/>
    <!-- typedef int int32_t -->
    <typedef-decl name='int32_t' type-id='type-id-1' filepath='/usr/include/stdint.h' line='39' column='1' id='type-id-76'/>
  </abi-instr>
  <abi-instr address-size='64' path='src/base/low_level_alloc.cc' comp-dir-path='/tmp/legendre/spack-stage/spack-stage-kFgaKP/gperftools-2.4' language='LANG_C_plus_plus'>
    <!-- AllocList*[30] -->
    <array-type-def dimensions='1' type-id='type-id-77' size-in-bits='1920' id='type-id-78'>
      <!-- <anonymous range>[30] -->
      <subrange length='30' type-id='type-id-5' id='type-id-79'/>
    </array-type-def>
    <!-- low_level_alloc_internal::AllocList* -->
    <pointer-type-def type-id='type-id-80' size-in-bits='64' id='type-id-77'/>
    <!-- namespace low_level_alloc_internal -->
    <namespace-decl name='low_level_alloc_internal'>
      <!-- struct low_level_alloc_internal::AllocList -->
      <class-decl name='AllocList' size-in-bits='2240' is-struct='yes' visibility='default' filepath='src/base/low_level_alloc.cc' line='67' column='1' id='type-id-80'>
        <member-type access='public'>
          <!-- struct low_level_alloc_internal::AllocList::Header -->
          <class-decl name='Header' size-in-bits='256' is-struct='yes' visibility='default' filepath='src/base/low_level_alloc.cc' line='68' column='1' id='type-id-81'>
            <data-member access='public' layout-offset-in-bits='0'>
              <!-- intptr_t low_level_alloc_internal::AllocList::Header::size -->
              <var-decl name='size' type-id='type-id-82' visibility='default' filepath='src/base/low_level_alloc.cc' line='69' column='1'/>
            </data-member>
            <data-member access='public' layout-offset-in-bits='64'>
              <!-- intptr_t low_level_alloc_internal::AllocList::Header::magic -->
              <var-decl name='magic' type-id='type-id-82' visibility='default' filepath='src/base/low_level_alloc.cc' line='71' column='1'/>
            </data-member>
            <data-member access='public' layout-offset-in-bits='128'>
              <!-- LowLevelAlloc::Arena* low_level_alloc_internal::AllocList::Header::arena -->
              <var-decl name='arena' type-id='type-id-83' visibility='default' filepath='src/base/low_level_alloc.cc' line='72' column='1'/>
            </data-member>
            <data-member access='public' layout-offset-in-bits='192'>
              <!-- void* low_level_alloc_internal::AllocList::Header::dummy_for_alignment -->
              <var-decl name='dummy_for_alignment' type-id='type-id-58' visibility='default' filepath='src/base/low_level_alloc.cc' line='73' column='1'/>
            </data-member>
          </class-decl>
        </member-type>
        <data-member access='public' layout-offset-in-bits='0'>
          <!-- low_level_alloc_internal::AllocList::Header low_level_alloc_internal::AllocList::header -->
          <var-decl name='header' type-id='type-id-81' visibility='default' filepath='src/base/low_level_alloc.cc' line='74' column='1'/>
        </data-member>
        <data-member access='public' layout-offset-in-bits='256'>
          <!-- int low_level_alloc_internal::AllocList::levels -->
          <var-decl name='levels' type-id='type-id-1' visibility='default' filepath='src/base/low_level_alloc.cc' line='78' column='1'/>
        </data-member>
        <data-member access='public' layout-offset-in-bits='320'>
          <!-- low_level_alloc_internal::AllocList* low_level_alloc_internal::AllocList::next[30] -->
          <var-decl name='next' type-id='type-id-78' visibility='default' filepath='src/base/low_level_alloc.cc' line='79' column='1'/>
        </data-member>
      </class-decl>
    </namespace-decl>
    <!-- LowLevelAlloc::Arena* -->
    <pointer-type-def type-id='type-id-84' size-in-bits='64' id='type-id-83'/>
    <!-- typedef long int intptr_t -->
    <typedef-decl name='intptr_t' type-id='type-id-85' filepath='/usr/include/stdint.h' line='120' column='1' id='type-id-82'/>
    <class-decl name='LowLevelAlloc' size-in-bits='8' visibility='default' filepath='src/base/low_level_alloc.h' line='44' column='1' id='type-id-86'>
      <member-type access='private'>
        <!-- struct LowLevelAlloc::Arena -->
        <class-decl name='Arena' size-in-bits='2560' is-struct='yes' visibility='default' filepath='src/base/low_level_alloc.cc' line='184' column='1' id='type-id-84'>
          <data-member access='public' layout-offset-in-bits='0'>
            <!-- SpinLock LowLevelAlloc::Arena::mu -->
            <var-decl name='mu' type-id='type-id-87' visibility='default' filepath='src/base/low_level_alloc.cc' line='189' column='1'/>
          </data-member>
          <data-member access='public' layout-offset-in-bits='64'>
            <!-- low_level_alloc_internal::AllocList LowLevelAlloc::Arena::freelist -->
            <var-decl name='freelist' type-id='type-id-80' visibility='default' filepath='src/base/low_level_alloc.cc' line='191' column='1'/>
          </data-member>
          <data-member access='public' layout-offset-in-bits='2304'>
            <!-- int32 LowLevelAlloc::Arena::allocation_count -->
            <var-decl name='allocation_count' type-id='type-id-74' visibility='default' filepath='src/base/low_level_alloc.cc' line='192' column='1'/>
          </data-member>
          <data-member access='public' layout-offset-in-bits='2336'>
            <!-- int32 LowLevelAlloc::Arena::flags -->
            <var-decl name='flags' type-id='type-id-74' visibility='default' filepath='src/base/low_level_alloc.cc' line='193' column='1'/>
          </data-member>
          <data-member access='public' layout-offset-in-bits='2368'>
            <!-- size_t LowLevelAlloc::Arena::pagesize -->
            <var-decl name='pagesize' type-id='type-id-62' visibility='default' filepath='src/base/low_level_alloc.cc' line='194' column='1'/>
          </data-member>
          <data-member access='public' layout-offset-in-bits='2432'>
            <!-- size_t LowLevelAlloc::Arena::roundup -->
            <var-decl name='roundup' type-id='type-id-62' visibility='default' filepath='src/base/low_level_alloc.cc' line='195' column='1'/>
          </data-member>
          <data-member access='public' layout-offset-in-bits='2496'>
            <!-- size_t LowLevelAlloc::Arena::min_size -->
            <var-decl name='min_size' type-id='type-id-62' visibility='default' filepath='src/base/low_level_alloc.cc' line='197' column='1'/>
          </data-member>
          <member-function access='public' constructor='yes'>
            <!-- LowLevelAlloc::Arena::Arena() -->
            <function-decl name='Arena' filepath='src/base/low_level_alloc.cc' line='185' column='1' visibility='default' binding='global' size-in-bits='64'>
              <!-- implicit parameter of type 'LowLevelAlloc::Arena*' -->
              <parameter type-id='type-id-83' is-artificial='yes'/>
              <!-- void -->
              <return type-id='type-id-60'/>
            </function-decl>
          </member-function>
          <member-function access='public' constructor='yes'>
            <!-- LowLevelAlloc::Arena::Arena(int) -->
            <function-decl name='Arena' filepath='src/base/low_level_alloc.cc' line='186' column='1' visibility='default' binding='global' size-in-bits='64'>
              <!-- implicit parameter of type 'LowLevelAlloc::Arena*' -->
              <parameter type-id='type-id-83' is-artificial='yes'/>
              <!-- parameter of type 'int' -->
              <parameter type-id='type-id-1'/>
              <!-- void -->
              <return type-id='type-id-60'/>
            </function-decl>
          </member-function>
        </class-decl>
      </member-type>
    </class-decl>
    <!-- long int -->
    <type-decl name='long int' size-in-bits='64' id='type-id-85'/>
    <!-- class SpinLock -->
    <class-decl name='SpinLock' size-in-bits='32' visibility='default' filepath='./src/base/spinlock.h' line='48' column='1' id='type-id-87'>
      <member-type access='private'>
        <!-- enum SpinLock::__anonymous_enum__2 -->
        <enum-decl name='__anonymous_enum__2' is-anonymous='yes' filepath='./src/base/spinlock.h' line='116' column='1' id='type-id-88'>
          <underlying-type type-id='type-id-89'/>
          <enumerator name='kSpinLockSleeper' value='2'/>
        </enum-decl>
      </member-type>
      <member-type access='private'>
        <!-- enum SpinLock::__anonymous_enum__ -->
        <enum-decl name='__anonymous_enum__' is-anonymous='yes' filepath='src/base/spinlock.h' line='114' column='1' id='type-id-90'>
          <underlying-type type-id='type-id-89'/>
          <enumerator name='kSpinLockFree' value='0'/>
        </enum-decl>
      </member-type>
      <member-type access='private'>
        <!-- enum SpinLock::__anonymous_enum__1 -->
        <enum-decl name='__anonymous_enum__1' is-anonymous='yes' filepath='src/base/spinlock.h' line='115' column='1' id='type-id-91'>
          <underlying-type type-id='type-id-89'/>
          <enumerator name='kSpinLockHeld' value='1'/>
        </enum-decl>
      </member-type>
      <data-member access='private' static='yes'>
        <!-- static const base::LinkerInitialized SpinLock::LINKER_INITIALIZED -->
        <var-decl name='LINKER_INITIALIZED' type-id='type-id-92' mangled-name='_ZN8SpinLock18LINKER_INITIALIZEDE' visibility='default' filepath='src/base/spinlock.h' line='112' column='1' elf-symbol-id='_ZN8SpinLock18LINKER_INITIALIZEDE'/>
      </data-member>
      <data-member access='private' layout-offset-in-bits='0'>
        <!-- volatile Atomic32 SpinLock::lockword_ -->
        <var-decl name='lockword_' type-id='type-id-93' visibility='default' filepath='src/base/spinlock.h' line='118' column='1'/>
      </data-member>
      <member-function access='private' constructor='yes'>
        <!-- SpinLock::SpinLock() -->
        <function-decl name='SpinLock' filepath='src/base/spinlock.h' line='50' column='1' visibility='default' binding='global' size-in-bits='64'>
          <!-- implicit parameter of type 'SpinLock*' -->
          <parameter type-id='type-id-94' is-artificial='yes'/>
          <!-- void -->
          <return type-id='type-id-60'/>
        </function-decl>
      </member-function>
      <member-function access='private' constructor='yes'>
        <!-- SpinLock::SpinLock(base::LinkerInitialized) -->
        <function-decl name='SpinLock' filepath='src/base/spinlock.h' line='61' column='1' visibility='default' binding='global' size-in-bits='64'>
          <!-- implicit parameter of type 'SpinLock*' -->
          <parameter type-id='type-id-94' is-artificial='yes'/>
          <!-- parameter of type 'enum base::LinkerInitialized' -->
          <parameter type-id='type-id-95'/>
          <!-- void -->
          <return type-id='type-id-60'/>
        </function-decl>
      </member-function>
      <member-function access='private' constructor='yes'>
        <!-- SpinLock::SpinLock(const SpinLock&) -->
        <function-decl name='SpinLock' filepath='src/base/spinlock.h' line='125' column='1' visibility='default' binding='global' size-in-bits='64'>
          <!-- implicit parameter of type 'SpinLock*' -->
          <parameter type-id='type-id-94' is-artificial='yes'/>
          <!-- parameter of type 'const SpinLock&' -->
          <parameter type-id='type-id-96'/>
          <!-- void -->
          <return type-id='type-id-60'/>
        </function-decl>
      </member-function>
      <member-function access='private'>
        <!-- Atomic32 SpinLock::SpinLoop(int64, Atomic32*) -->
        <function-decl name='SpinLoop' mangled-name='_ZN8SpinLock8SpinLoopElPi' filepath='src/base/spinlock.cc' line='82' column='1' visibility='default' binding='global' size-in-bits='64' elf-symbol-id='_ZN8SpinLock8SpinLoopElPi'>
          <!-- implicit parameter of type 'SpinLock* const' -->
          <parameter type-id='type-id-97' name='this' is-artificial='yes'/>
          <!-- parameter of type 'typedef int64' -->
          <parameter type-id='type-id-98' name='initial_wait_timestamp' filepath='src/base/spinlock.cc' line='82' column='1'/>
          <!-- parameter of type 'Atomic32*' -->
          <parameter type-id='type-id-99' name='wait_cycles' filepath='src/base/spinlock.cc' line='83' column='1'/>
          <!-- typedef Atomic32 -->
          <return type-id='type-id-100'/>
        </function-decl>
      </member-function>
      <member-function access='private'>
        <!-- void SpinLock::SlowUnlock(uint64) -->
        <function-decl name='SlowUnlock' mangled-name='_ZN8SpinLock10SlowUnlockEm' filepath='src/base/spinlock.cc' line='152' column='1' visibility='default' binding='global' size-in-bits='64' elf-symbol-id='_ZN8SpinLock10SlowUnlockEm'>
          <!-- implicit parameter of type 'SpinLock* const' -->
          <parameter type-id='type-id-97' name='this' is-artificial='yes'/>
          <!-- parameter of type 'typedef uint64' -->
          <parameter type-id='type-id-101' name='wait_cycles' filepath='src/base/spinlock.cc' line='152' column='1'/>
          <!-- void -->
          <return type-id='type-id-60'/>
        </function-decl>
      </member-function>
      <member-function access='private'>
        <!-- void SpinLock::SlowLock() -->
        <function-decl name='SlowLock' mangled-name='_ZN8SpinLock8SlowLockEv' filepath='src/base/spinlock.cc' line='95' column='1' visibility='default' binding='global' size-in-bits='64' elf-symbol-id='_ZN8SpinLock8SlowLockEv'>
          <!-- implicit parameter of type 'SpinLock*' -->
          <parameter type-id='type-id-94' is-artificial='yes'/>
          <!-- void -->
          <return type-id='type-id-60'/>
        </function-decl>
      </member-function>
    </class-decl>
    <!-- Atomic32* -->
    <pointer-type-def type-id='type-id-100' size-in-bits='64' id='type-id-99'/>
    <!-- SpinLock* -->
    <pointer-type-def type-id='type-id-87' size-in-bits='64' id='type-id-94'/>
    <!-- SpinLock* const -->
    <qualified-type-def type-id='type-id-94' const='yes' id='type-id-97'/>
    <!-- const SpinLock& -->
    <reference-type-def kind='lvalue' type-id='type-id-102' size-in-bits='64' id='type-id-96'/>
    <!-- const base::LinkerInitialized -->
    <qualified-type-def type-id='type-id-95' const='yes' id='type-id-92'/>
    <namespace-decl name='base'>
      <!-- enum base::LinkerInitialized -->
      <enum-decl name='LinkerInitialized' filepath='src/base/basictypes.h' line='381' column='1' id='type-id-95'>
        <underlying-type type-id='type-id-89'/>
        <enumerator name='LINKER_INITIALIZED' value='0'/>
      </enum-decl>
    </namespace-decl>
    <!-- typedef int32_t Atomic32 -->
    <typedef-decl name='Atomic32' type-id='type-id-76' filepath='./src/base/atomicops-internals-x86.h' line='43' column='1' id='type-id-100'/>
    <!-- typedef int64_t int64 -->
    <typedef-decl name='int64' type-id='type-id-103' filepath='src/base/basictypes.h' line='61' column='1' id='type-id-98'/>
    <!-- typedef uint64_t uint64 -->
    <typedef-decl name='uint64' type-id='type-id-15' filepath='src/base/basictypes.h' line='72' column='1' id='type-id-101'/>
    <!-- volatile Atomic32 -->
    <qualified-type-def type-id='type-id-100' volatile='yes' id='type-id-93'/>
    <!-- const SpinLock -->
    <qualified-type-def type-id='type-id-87' const='yes' id='type-id-102'/>
    <!-- typedef long int int64_t -->
    <typedef-decl name='int64_t' type-id='type-id-85' filepath='/usr/include/stdint.h' line='41' column='1' id='type-id-103'/>
  </abi-instr>
  <abi-instr address-size='64' path='src/base/spinlock.cc' comp-dir-path='/tmp/legendre/spack-stage/spack-stage-kFgaKP/gperftools-2.4' language='LANG_C_plus_plus'>
    <!-- struct CycleClock -->
    <class-decl name='CycleClock' size-in-bits='8' is-struct='yes' visibility='default' filepath='./src/base/cycleclock.h' line='79' column='1' id='type-id-104'/>
    <!-- namespace base -->
    <namespace-decl name='base'>
      <!-- void base::SubmitSpinLockProfileData(void*, int64) -->
      <function-decl name='SubmitSpinLockProfileData' mangled-name='_ZN4base25SubmitSpinLockProfileDataEPKvl' filepath='./src/base/synchronization_profiling.h' line='48' column='1' visibility='default' binding='global' size-in-bits='64' elf-symbol-id='_ZN4base25SubmitSpinLockProfileDataEPKvl'>
        <!-- parameter of type 'void*' -->
        <parameter type-id='type-id-58'/>
        <!-- parameter of type 'typedef int64' -->
        <parameter type-id='type-id-98'/>
        <!-- void -->
        <return type-id='type-id-60'/>
      </function-decl>
    </namespace-decl>
  </abi-instr>
  <abi-instr address-size='64' path='src/base/spinlock_internal.cc' comp-dir-path='/tmp/legendre/spack-stage/spack-stage-kFgaKP/gperftools-2.4' language='LANG_C_plus_plus'>
    <!-- const base::internal::SpinLockWaitTransition -->
    <qualified-type-def type-id='type-id-105' const='yes' id='type-id-106'/>
    <!-- const base::internal::SpinLockWaitTransition* -->
    <pointer-type-def type-id='type-id-106' size-in-bits='64' id='type-id-107'/>
    <!-- namespace base -->
    <namespace-decl name='base'>
      <!-- namespace base::internal -->
      <namespace-decl name='internal'>
        <!-- struct base::internal::SpinLockWaitTransition -->
        <class-decl name='SpinLockWaitTransition' size-in-bits='96' is-struct='yes' visibility='default' filepath='./src/base/spinlock_internal.h' line='48' column='1' id='type-id-105'>
          <data-member access='public' layout-offset-in-bits='0'>
            <!-- int32 base::internal::SpinLockWaitTransition::from -->
            <var-decl name='from' type-id='type-id-74' visibility='default' filepath='./src/base/spinlock_internal.h' line='49' column='1'/>
          </data-member>
          <data-member access='public' layout-offset-in-bits='32'>
            <!-- int32 base::internal::SpinLockWaitTransition::to -->
            <var-decl name='to' type-id='type-id-74' visibility='default' filepath='./src/base/spinlock_internal.h' line='50' column='1'/>
          </data-member>
          <data-member access='public' layout-offset-in-bits='64'>
            <!-- bool base::internal::SpinLockWaitTransition::done -->
            <var-decl name='done' type-id='type-id-61' visibility='default' filepath='./src/base/spinlock_internal.h' line='51' column='1'/>
          </data-member>
        </class-decl>
        <!-- void base::internal::SpinLockWake(volatile Atomic32*, bool) -->
        <function-decl name='SpinLockWake' mangled-name='_ZN4base8internal12SpinLockWakeEPVib' filepath='./src/base/spinlock_linux-inl.h' line='96' column='1' visibility='default' binding='global' size-in-bits='64' elf-symbol-id='_ZN4base8internal12SpinLockWakeEPVib'>
          <!-- parameter of type 'volatile Atomic32*' -->
          <parameter type-id='type-id-108'/>
          <!-- parameter of type 'bool' -->
          <parameter type-id='type-id-61'/>
          <!-- void -->
          <return type-id='type-id-60'/>
        </function-decl>
        <!-- void base::internal::SpinLockDelay(volatile Atomic32*, int32, int) -->
        <function-decl name='SpinLockDelay' mangled-name='_ZN4base8internal13SpinLockDelayEPViii' filepath='./src/base/spinlock_linux-inl.h' line='74' column='1' visibility='default' binding='global' size-in-bits='64' elf-symbol-id='_ZN4base8internal13SpinLockDelayEPViii'>
          <!-- parameter of type 'volatile Atomic32*' -->
          <parameter type-id='type-id-108'/>
          <!-- parameter of type 'typedef int32' -->
          <parameter type-id='type-id-74'/>
          <!-- parameter of type 'int' -->
          <parameter type-id='type-id-1'/>
          <!-- void -->
          <return type-id='type-id-60'/>
        </function-decl>
        <!-- int32 base::internal::SpinLockWait(volatile Atomic32*, int, const base::internal::SpinLockWaitTransition*) -->
        <function-decl name='SpinLockWait' mangled-name='_ZN4base8internal12SpinLockWaitEPViiPKNS0_22SpinLockWaitTransitionE' filepath='src/base/spinlock_internal.cc' line='61' column='1' visibility='default' binding='global' size-in-bits='64' elf-symbol-id='_ZN4base8internal12SpinLockWaitEPViiPKNS0_22SpinLockWaitTransitionE'>
          <!-- parameter of type 'volatile Atomic32*' -->
          <parameter type-id='type-id-108'/>
          <!-- parameter of type 'int' -->
          <parameter type-id='type-id-1'/>
          <!-- parameter of type 'const base::internal::SpinLockWaitTransition*' -->
          <parameter type-id='type-id-107'/>
          <!-- typedef int32 -->
          <return type-id='type-id-74'/>
        </function-decl>
      </namespace-decl>
      <!-- namespace base::subtle -->
      <namespace-decl name='subtle'>
        <!-- Atomic32 base::subtle::Acquire_Load(const volatile Atomic32*) -->
        <function-decl name='Acquire_Load' filepath='./src/base/atomicops-internals-x86.h' line='167' column='1' visibility='default' binding='global' size-in-bits='64'>
          <!-- parameter of type 'const volatile Atomic32*' -->
          <parameter type-id='type-id-109'/>
          <!-- typedef Atomic32 -->
          <return type-id='type-id-100'/>
        </function-decl>
      </namespace-decl>
    </namespace-decl>
    <!-- const volatile Atomic32* -->
    <pointer-type-def type-id='type-id-110' size-in-bits='64' id='type-id-109'/>
    <!-- volatile Atomic32* -->
    <pointer-type-def type-id='type-id-93' size-in-bits='64' id='type-id-108'/>
    <!-- const volatile Atomic32 -->
    <qualified-type-def type-id='type-id-93' const='yes' id='type-id-110'/>
  </abi-instr>
  <abi-instr address-size='64' path='src/base/sysinfo.cc' comp-dir-path='/tmp/legendre/spack-stage/spack-stage-kFgaKP/gperftools-2.4' language='LANG_C_plus_plus'>
    <!-- char[10] -->
    <array-type-def dimensions='1' type-id='type-id-65' size-in-bits='80' id='type-id-111'>
      <!-- <anonymous range>[10] -->
      <subrange length='10' type-id='type-id-5' id='type-id-112'/>
    </array-type-def>
    <!-- char[5120] -->
    <array-type-def dimensions='1' type-id='type-id-65' size-in-bits='40960' id='type-id-113'>
      <!-- <anonymous range>[5120] -->
      <subrange length='5120' type-id='type-id-5' id='type-id-114'/>
    </array-type-def>
    <!-- class ProcMapsIterator -->
    <class-decl name='ProcMapsIterator' size-in-bits='640' visibility='default' filepath='./src/base/sysinfo.h' line='102' column='1' id='type-id-115'>
      <member-type access='private'>
        <!-- struct ProcMapsIterator::Buffer -->
        <class-decl name='Buffer' size-in-bits='40960' is-struct='yes' visibility='default' filepath='./src/base/sysinfo.h' line='104' column='1' id='type-id-116'>
          <data-member access='public' static='yes'>
            <!-- static const size_t ProcMapsIterator::Buffer::kBufSize -->
            <var-decl name='kBufSize' type-id='type-id-117' visibility='default' filepath='./src/base/sysinfo.h' line='110' column='1'/>
          </data-member>
          <data-member access='public' layout-offset-in-bits='0'>
            <!-- char ProcMapsIterator::Buffer::buf_[5120] -->
            <var-decl name='buf_' type-id='type-id-113' visibility='default' filepath='./src/base/sysinfo.h' line='112' column='1'/>
          </data-member>
        </class-decl>
      </member-type>
      <data-member access='private' layout-offset-in-bits='0'>
        <!-- char* ProcMapsIterator::ibuf_ -->
        <var-decl name='ibuf_' type-id='type-id-118' visibility='default' filepath='./src/base/sysinfo.h' line='193' column='1'/>
      </data-member>
      <data-member access='private' layout-offset-in-bits='64'>
        <!-- char* ProcMapsIterator::stext_ -->
        <var-decl name='stext_' type-id='type-id-118' visibility='default' filepath='./src/base/sysinfo.h' line='194' column='1'/>
      </data-member>
      <data-member access='private' layout-offset-in-bits='128'>
        <!-- char* ProcMapsIterator::etext_ -->
        <var-decl name='etext_' type-id='type-id-118' visibility='default' filepath='./src/base/sysinfo.h' line='195' column='1'/>
      </data-member>
      <data-member access='private' layout-offset-in-bits='192'>
        <!-- char* ProcMapsIterator::nextline_ -->
        <var-decl name='nextline_' type-id='type-id-118' visibility='default' filepath='./src/base/sysinfo.h' line='196' column='1'/>
      </data-member>
      <data-member access='private' layout-offset-in-bits='256'>
        <!-- char* ProcMapsIterator::ebuf_ -->
        <var-decl name='ebuf_' type-id='type-id-118' visibility='default' filepath='./src/base/sysinfo.h' line='197' column='1'/>
      </data-member>
      <data-member access='private' layout-offset-in-bits='320'>
        <!-- int ProcMapsIterator::fd_ -->
        <var-decl name='fd_' type-id='type-id-1' visibility='default' filepath='./src/base/sysinfo.h' line='219' column='1'/>
      </data-member>
      <data-member access='private' layout-offset-in-bits='352'>
        <!-- pid_t ProcMapsIterator::pid_ -->
        <var-decl name='pid_' type-id='type-id-69' visibility='default' filepath='./src/base/sysinfo.h' line='221' column='1'/>
      </data-member>
      <data-member access='private' layout-offset-in-bits='384'>
        <!-- char ProcMapsIterator::flags_[10] -->
        <var-decl name='flags_' type-id='type-id-111' visibility='default' filepath='./src/base/sysinfo.h' line='222' column='1'/>
      </data-member>
      <data-member access='private' layout-offset-in-bits='512'>
        <!-- ProcMapsIterator::Buffer* ProcMapsIterator::dynamic_buffer_ -->
        <var-decl name='dynamic_buffer_' type-id='type-id-119' visibility='default' filepath='./src/base/sysinfo.h' line='223' column='1'/>
      </data-member>
      <data-member access='private' layout-offset-in-bits='576'>
        <!-- bool ProcMapsIterator::using_maps_backing_ -->
        <var-decl name='using_maps_backing_' type-id='type-id-61' visibility='default' filepath='./src/base/sysinfo.h' line='224' column='1'/>
      </data-member>
      <member-function access='private' constructor='yes'>
        <!-- ProcMapsIterator::ProcMapsIterator(pid_t) -->
        <function-decl name='ProcMapsIterator' mangled-name='_ZN16ProcMapsIteratorC1Ei' filepath='./src/base/sysinfo.h' line='117' column='1' visibility='default' binding='global' size-in-bits='64' elf-symbol-id='_ZN16ProcMapsIteratorC1Ei'>
          <!-- implicit parameter of type 'ProcMapsIterator*' -->
          <parameter type-id='type-id-120' is-artificial='yes'/>
          <!-- parameter of type 'typedef pid_t' -->
          <parameter type-id='type-id-69'/>
          <!-- void -->
          <return type-id='type-id-60'/>
        </function-decl>
      </member-function>
      <member-function access='private' constructor='yes'>
        <!-- ProcMapsIterator::ProcMapsIterator(pid_t, ProcMapsIterator::Buffer*) -->
        <function-decl name='ProcMapsIterator' mangled-name='_ZN16ProcMapsIteratorC2EiPNS_6BufferE' filepath='./src/base/sysinfo.h' line='122' column='1' visibility='default' binding='global' size-in-bits='64' elf-symbol-id='_ZN16ProcMapsIteratorC2EiPNS_6BufferE'>
          <!-- implicit parameter of type 'ProcMapsIterator*' -->
          <parameter type-id='type-id-120' is-artificial='yes'/>
          <!-- parameter of type 'typedef pid_t' -->
          <parameter type-id='type-id-69'/>
          <!-- parameter of type 'ProcMapsIterator::Buffer*' -->
          <parameter type-id='type-id-119'/>
          <!-- void -->
          <return type-id='type-id-60'/>
        </function-decl>
      </member-function>
      <member-function access='private' constructor='yes'>
        <!-- ProcMapsIterator::ProcMapsIterator(pid_t, ProcMapsIterator::Buffer*, bool) -->
        <function-decl name='ProcMapsIterator' mangled-name='_ZN16ProcMapsIteratorC1EiPNS_6BufferEb' filepath='./src/base/sysinfo.h' line='127' column='1' visibility='default' binding='global' size-in-bits='64' elf-symbol-id='_ZN16ProcMapsIteratorC1EiPNS_6BufferEb'>
          <!-- implicit parameter of type 'ProcMapsIterator*' -->
          <parameter type-id='type-id-120' is-artificial='yes'/>
          <!-- parameter of type 'typedef pid_t' -->
          <parameter type-id='type-id-69'/>
          <!-- parameter of type 'ProcMapsIterator::Buffer*' -->
          <parameter type-id='type-id-119'/>
          <!-- parameter of type 'bool' -->
          <parameter type-id='type-id-61'/>
          <!-- void -->
          <return type-id='type-id-60'/>
        </function-decl>
      </member-function>
      <member-function access='private' destructor='yes'>
        <!-- ProcMapsIterator::~ProcMapsIterator(int) -->
        <function-decl name='~ProcMapsIterator' mangled-name='_ZN16ProcMapsIteratorD1Ev' filepath='./src/base/sysinfo.h' line='188' column='1' visibility='default' binding='global' size-in-bits='64' elf-symbol-id='_ZN16ProcMapsIteratorD1Ev'>
          <!-- implicit parameter of type 'ProcMapsIterator*' -->
          <parameter type-id='type-id-120' is-artificial='yes'/>
          <!-- artificial parameter of type 'int' -->
          <parameter type-id='type-id-1' is-artificial='yes'/>
          <!-- void -->
          <return type-id='type-id-60'/>
        </function-decl>
      </member-function>
      <member-function access='private'>
        <!-- bool ProcMapsIterator::Valid() -->
        <function-decl name='Valid' mangled-name='_ZNK16ProcMapsIterator5ValidEv' filepath='src/base/sysinfo.cc' line='815' column='1' visibility='default' binding='global' size-in-bits='64' elf-symbol-id='_ZNK16ProcMapsIterator5ValidEv'>
          <!-- implicit parameter of type 'const ProcMapsIterator* const' -->
          <parameter type-id='type-id-121' name='this' is-artificial='yes'/>
          <!-- bool -->
          <return type-id='type-id-61'/>
        </function-decl>
      </member-function>
      <member-function access='private' static='yes'>
        <!-- int ProcMapsIterator::FormatLine(int, uint64, uint64, const char*, uint64, int64, const char*, dev_t) -->
        <function-decl name='FormatLine' mangled-name='_ZN16ProcMapsIterator10FormatLineEPcimmPKcmlS2_m' filepath='src/base/sysinfo.cc' line='1084' column='1' visibility='default' binding='global' size-in-bits='64' elf-symbol-id='_ZN16ProcMapsIterator10FormatLineEPcimmPKcmlS2_m'>
          <!-- parameter of type 'char*' -->
          <parameter type-id='type-id-118'/>
          <!-- parameter of type 'int' -->
          <parameter type-id='type-id-1'/>
          <!-- parameter of type 'typedef uint64' -->
          <parameter type-id='type-id-101'/>
          <!-- parameter of type 'typedef uint64' -->
          <parameter type-id='type-id-101'/>
          <!-- parameter of type 'const char*' -->
          <parameter type-id='type-id-57'/>
          <!-- parameter of type 'typedef uint64' -->
          <parameter type-id='type-id-101'/>
          <!-- parameter of type 'typedef int64' -->
          <parameter type-id='type-id-98'/>
          <!-- parameter of type 'const char*' -->
          <parameter type-id='type-id-57'/>
          <!-- parameter of type 'typedef dev_t' -->
          <parameter type-id='type-id-122'/>
          <!-- int -->
          <return type-id='type-id-1'/>
        </function-decl>
      </member-function>
      <member-function access='private'>
        <!-- void ProcMapsIterator::Init(pid_t, ProcMapsIterator::Buffer*, bool) -->
        <function-decl name='Init' mangled-name='_ZN16ProcMapsIterator4InitEiPNS_6BufferEb' filepath='src/base/sysinfo.cc' line='741' column='1' visibility='default' binding='global' size-in-bits='64' elf-symbol-id='_ZN16ProcMapsIterator4InitEiPNS_6BufferEb'>
          <!-- implicit parameter of type 'ProcMapsIterator* const' -->
          <parameter type-id='type-id-123' name='this' is-artificial='yes'/>
          <!-- parameter of type 'typedef pid_t' -->
          <parameter type-id='type-id-69' name='pid' filepath='src/base/sysinfo.cc' line='741' column='1'/>
          <!-- parameter of type 'ProcMapsIterator::Buffer*' -->
          <parameter type-id='type-id-119' name='buffer' filepath='src/base/sysinfo.cc' line='741' column='1'/>
          <!-- parameter of type 'bool' -->
          <parameter type-id='type-id-61' name='use_maps_backing' filepath='src/base/sysinfo.cc' line='742' column='1'/>
          <!-- void -->
          <return type-id='type-id-60'/>
        </function-decl>
      </member-function>
      <member-function access='private'>
        <!-- bool ProcMapsIterator::NextExt(uint64*, uint64*, char**, uint64*, int64*, char**, uint64*, uint64*, uint64*, uint64*, dev_t*) -->
        <function-decl name='NextExt' mangled-name='_ZN16ProcMapsIterator7NextExtEPmS0_PPcS0_PlS2_S0_S0_S0_S0_S0_' filepath='src/base/sysinfo.cc' line='834' column='1' visibility='default' binding='global' size-in-bits='64' elf-symbol-id='_ZN16ProcMapsIterator7NextExtEPmS0_PPcS0_PlS2_S0_S0_S0_S0_S0_'>
          <!-- implicit parameter of type 'ProcMapsIterator* const' -->
          <parameter type-id='type-id-123' name='this' is-artificial='yes'/>
          <!-- parameter of type 'uint64*' -->
          <parameter type-id='type-id-124' name='start' filepath='src/base/sysinfo.cc' line='834' column='1'/>
          <!-- parameter of type 'uint64*' -->
          <parameter type-id='type-id-124' name='end' filepath='src/base/sysinfo.cc' line='834' column='1'/>
          <!-- parameter of type 'char**' -->
          <parameter type-id='type-id-125' name='flags' filepath='src/base/sysinfo.cc' line='834' column='1'/>
          <!-- parameter of type 'uint64*' -->
          <parameter type-id='type-id-124' name='offset' filepath='src/base/sysinfo.cc' line='835' column='1'/>
          <!-- parameter of type 'int64*' -->
          <parameter type-id='type-id-126' name='inode' filepath='src/base/sysinfo.cc' line='835' column='1'/>
          <!-- parameter of type 'char**' -->
          <parameter type-id='type-id-125' name='filename' filepath='src/base/sysinfo.cc' line='835' column='1'/>
          <!-- parameter of type 'uint64*' -->
          <parameter type-id='type-id-124' name='file_mapping' filepath='src/base/sysinfo.cc' line='836' column='1'/>
          <!-- parameter of type 'uint64*' -->
          <parameter type-id='type-id-124' name='file_pages' filepath='src/base/sysinfo.cc' line='836' column='1'/>
          <!-- parameter of type 'uint64*' -->
          <parameter type-id='type-id-124' name='anon_mapping' filepath='src/base/sysinfo.cc' line='837' column='1'/>
          <!-- parameter of type 'uint64*' -->
          <parameter type-id='type-id-124' name='anon_pages' filepath='src/base/sysinfo.cc' line='837' column='1'/>
          <!-- parameter of type 'dev_t*' -->
          <parameter type-id='type-id-127' name='dev' filepath='src/base/sysinfo.cc' line='838' column='1'/>
          <!-- bool -->
          <return type-id='type-id-61'/>
        </function-decl>
      </member-function>
      <member-function access='private'>
        <!-- bool ProcMapsIterator::Next(uint64*, uint64*, char**, uint64*, int64*, char**) -->
        <function-decl name='Next' mangled-name='_ZN16ProcMapsIterator4NextEPmS0_PPcS0_PlS2_' filepath='src/base/sysinfo.cc' line='825' column='1' visibility='default' binding='global' size-in-bits='64' elf-symbol-id='_ZN16ProcMapsIterator4NextEPmS0_PPcS0_PlS2_'>
          <!-- implicit parameter of type 'ProcMapsIterator* const' -->
          <parameter type-id='type-id-123' name='this' is-artificial='yes'/>
          <!-- parameter of type 'uint64*' -->
          <parameter type-id='type-id-124' name='start' filepath='src/base/sysinfo.cc' line='825' column='1'/>
          <!-- parameter of type 'uint64*' -->
          <parameter type-id='type-id-124' name='end' filepath='src/base/sysinfo.cc' line='825' column='1'/>
          <!-- parameter of type 'char**' -->
          <parameter type-id='type-id-125' name='flags' filepath='src/base/sysinfo.cc' line='825' column='1'/>
          <!-- parameter of type 'uint64*' -->
          <parameter type-id='type-id-124' name='offset' filepath='src/base/sysinfo.cc' line='826' column='1'/>
          <!-- parameter of type 'int64*' -->
          <parameter type-id='type-id-126' name='inode' filepath='src/base/sysinfo.cc' line='826' column='1'/>
          <!-- parameter of type 'char**' -->
          <parameter type-id='type-id-125' name='filename' filepath='src/base/sysinfo.cc' line='826' column='1'/>
          <!-- bool -->
          <return type-id='type-id-61'/>
        </function-decl>
      </member-function>
    </class-decl>
    <!-- typedef __dev_t dev_t -->
    <typedef-decl name='dev_t' type-id='type-id-128' filepath='/usr/include/sys/types.h' line='61' column='1' id='type-id-122'/>
    <!-- typedef unsigned long int __dev_t -->
    <typedef-decl name='__dev_t' type-id='type-id-5' filepath='/usr/include/bits/types.h' line='134' column='1' id='type-id-128'/>
    <!-- ProcMapsIterator* -->
    <pointer-type-def type-id='type-id-115' size-in-bits='64' id='type-id-120'/>
    <!-- ProcMapsIterator* const -->
    <qualified-type-def type-id='type-id-120' const='yes' id='type-id-123'/>
    <!-- ProcMapsIterator::Buffer* -->
    <pointer-type-def type-id='type-id-116' size-in-bits='64' id='type-id-119'/>
    <!-- const ProcMapsIterator -->
    <qualified-type-def type-id='type-id-115' const='yes' id='type-id-129'/>
    <!-- const ProcMapsIterator* -->
    <pointer-type-def type-id='type-id-129' size-in-bits='64' id='type-id-130'/>
    <!-- const ProcMapsIterator* const -->
    <qualified-type-def type-id='type-id-130' const='yes' id='type-id-121'/>
    <!-- dev_t* -->
    <pointer-type-def type-id='type-id-122' size-in-bits='64' id='type-id-127'/>
    <!-- int64* -->
    <pointer-type-def type-id='type-id-98' size-in-bits='64' id='type-id-126'/>
    <!-- uint64* -->
    <pointer-type-def type-id='type-id-101' size-in-bits='64' id='type-id-124'/>
    <!-- bool HasPosixThreads() -->
    <function-decl name='HasPosixThreads' mangled-name='_Z15HasPosixThreadsv' filepath='src/base/sysinfo.cc' line='518' column='1' visibility='default' binding='global' size-in-bits='64' elf-symbol-id='_Z15HasPosixThreadsv'>
      <!-- bool -->
      <return type-id='type-id-61'/>
    </function-decl>
    <!-- void SleepForMilliseconds(int) -->
    <function-decl name='SleepForMilliseconds' mangled-name='_Z20SleepForMillisecondsi' filepath='src/base/sysinfo.cc' line='226' column='1' visibility='default' binding='global' size-in-bits='64' elf-symbol-id='_Z20SleepForMillisecondsi'>
      <!-- parameter of type 'int' -->
      <parameter type-id='type-id-1' name='milliseconds' filepath='src/base/sysinfo.cc' line='226' column='1'/>
      <!-- void -->
      <return type-id='type-id-60'/>
    </function-decl>
    <!-- int NumCPUs() -->
    <function-decl name='NumCPUs' mangled-name='_Z7NumCPUsv' filepath='src/base/sysinfo.cc' line='505' column='1' visibility='default' binding='global' size-in-bits='64' elf-symbol-id='_Z7NumCPUsv'>
      <!-- int -->
      <return type-id='type-id-1'/>
    </function-decl>
    <!-- double CyclesPerSecond() -->
    <function-decl name='CyclesPerSecond' mangled-name='_Z15CyclesPerSecondv' filepath='src/base/sysinfo.cc' line='500' column='1' visibility='default' binding='global' size-in-bits='64' elf-symbol-id='_Z15CyclesPerSecondv'>
      <!-- double -->
      <return type-id='type-id-2'/>
    </function-decl>
    <!-- bool GetUniquePathFromEnv(const char*, char*) -->
    <function-decl name='GetUniquePathFromEnv' mangled-name='_Z20GetUniquePathFromEnvPKcPc' filepath='src/base/sysinfo.cc' line='201' column='1' visibility='default' binding='global' size-in-bits='64' elf-symbol-id='_Z20GetUniquePathFromEnvPKcPc'>
      <!-- parameter of type 'const char*' -->
      <parameter type-id='type-id-57' name='env_name' filepath='src/base/sysinfo.cc' line='201' column='1'/>
      <!-- parameter of type 'char*' -->
      <parameter type-id='type-id-118' name='path' filepath='src/base/sysinfo.cc' line='201' column='1'/>
      <!-- bool -->
      <return type-id='type-id-61'/>
    </function-decl>
    <!-- const char* GetenvBeforeMain(const char*) -->
    <function-decl name='GetenvBeforeMain' mangled-name='_Z16GetenvBeforeMainPKc' filepath='src/base/sysinfo.cc' line='122' column='1' visibility='default' binding='global' size-in-bits='64' elf-symbol-id='_Z16GetenvBeforeMainPKc'>
      <!-- parameter of type 'const char*' -->
      <parameter type-id='type-id-57' name='name' filepath='src/base/sysinfo.cc' line='122' column='1'/>
      <!-- const char* -->
      <return type-id='type-id-57'/>
    </function-decl>
    <!-- const char* TCMallocGetenvSafe(const char*) -->
    <function-decl name='TCMallocGetenvSafe' mangled-name='TCMallocGetenvSafe' filepath='src/base/sysinfo.cc' line='174' column='1' visibility='default' binding='global' size-in-bits='64' elf-symbol-id='TCMallocGetenvSafe'>
      <!-- parameter of type 'const char*' -->
      <parameter type-id='type-id-57' name='name' filepath='src/base/sysinfo.cc' line='122' column='1'/>
      <!-- const char* -->
      <return type-id='type-id-57'/>
    </function-decl>
    <!-- namespace tcmalloc -->
    <namespace-decl name='tcmalloc'>
      <!-- void tcmalloc::DumpProcSelfMaps(RawFD) -->
      <function-decl name='DumpProcSelfMaps' mangled-name='_ZN8tcmalloc16DumpProcSelfMapsEi' filepath='src/base/sysinfo.cc' line='1137' column='1' visibility='default' binding='global' size-in-bits='64' elf-symbol-id='_ZN8tcmalloc16DumpProcSelfMapsEi'>
        <!-- parameter of type 'typedef RawFD' -->
        <parameter type-id='type-id-75'/>
        <!-- void -->
        <return type-id='type-id-60'/>
      </function-decl>
      <!-- int tcmalloc::FillProcSelfMaps(char*, int, bool*) -->
      <function-decl name='FillProcSelfMaps' mangled-name='_ZN8tcmalloc16FillProcSelfMapsEPciPb' filepath='src/base/sysinfo.cc' line='1111' column='1' visibility='default' binding='global' size-in-bits='64' elf-symbol-id='_ZN8tcmalloc16FillProcSelfMapsEPciPb'>
        <!-- parameter of type 'char*' -->
        <parameter type-id='type-id-118'/>
        <!-- parameter of type 'int' -->
        <parameter type-id='type-id-1'/>
        <!-- parameter of type 'bool*' -->
        <parameter type-id='type-id-131'/>
        <!-- int -->
        <return type-id='type-id-1'/>
      </function-decl>
    </namespace-decl>
    <!-- bool* -->
    <pointer-type-def type-id='type-id-61' size-in-bits='64' id='type-id-131'/>
    <!-- char* -->
    <pointer-type-def type-id='type-id-65' size-in-bits='64' id='type-id-118'/>
    <!-- char** -->
    <pointer-type-def type-id='type-id-118' size-in-bits='64' id='type-id-125'/>
    <!-- const size_t -->
    <qualified-type-def type-id='type-id-62' const='yes' id='type-id-117'/>
  </abi-instr>
  <abi-instr address-size='64' path='src/base/vdso_support.cc' comp-dir-path='/tmp/legendre/spack-stage/spack-stage-kFgaKP/gperftools-2.4' language='LANG_C_plus_plus'>
    <!-- base::VDSOInitHelper* -->
    <pointer-type-def type-id='type-id-132' size-in-bits='64' id='type-id-133'/>
    <!-- base::VDSOSupport* -->
    <pointer-type-def type-id='type-id-134' size-in-bits='64' id='type-id-135'/>
    <!-- base::VDSOSupport* const -->
    <qualified-type-def type-id='type-id-135' const='yes' id='type-id-136'/>
    <!-- base::VDSOSupport::SymbolInfo* -->
    <pointer-type-def type-id='type-id-137' size-in-bits='64' id='type-id-138'/>
    <!-- const base::VDSOSupport -->
    <qualified-type-def type-id='type-id-134' const='yes' id='type-id-139'/>
    <!-- const base::VDSOSupport& -->
    <reference-type-def kind='lvalue' type-id='type-id-139' size-in-bits='64' id='type-id-140'/>
    <!-- const base::VDSOSupport* -->
    <pointer-type-def type-id='type-id-139' size-in-bits='64' id='type-id-141'/>
    <!-- const base::VDSOSupport* const -->
    <qualified-type-def type-id='type-id-141' const='yes' id='type-id-142'/>
    <!-- namespace base -->
    <namespace-decl name='base'>
      <!-- class base::VDSOInitHelper -->
      <class-decl name='VDSOInitHelper' size-in-bits='8' visibility='default' filepath='src/base/vdso_support.cc' line='137' column='1' id='type-id-132'>
        <member-function access='private' constructor='yes'>
          <!-- base::VDSOInitHelper::VDSOInitHelper() -->
          <function-decl name='VDSOInitHelper' filepath='src/base/vdso_support.cc' line='139' column='1' visibility='default' binding='global' size-in-bits='64'>
            <!-- implicit parameter of type 'base::VDSOInitHelper*' -->
            <parameter type-id='type-id-133' is-artificial='yes'/>
            <!-- void -->
            <return type-id='type-id-60'/>
          </function-decl>
        </member-function>
      </class-decl>
      <!-- class base::VDSOSupport -->
      <class-decl name='VDSOSupport' size-in-bits='576' visibility='default' filepath='./src/base/vdso_support.h' line='72' column='1' id='type-id-134'>
        <member-type access='private'>
          <!-- typedef base::ElfMemImage::SymbolInfo base::VDSOSupport::SymbolInfo -->
          <typedef-decl name='SymbolInfo' type-id='type-id-26' filepath='./src/base/vdso_support.h' line='76' column='1' id='type-id-137'/>
        </member-type>
        <member-type access='private'>
          <!-- typedef base::ElfMemImage::SymbolIterator base::VDSOSupport::SymbolIterator -->
          <typedef-decl name='SymbolIterator' type-id='type-id-28' filepath='./src/base/vdso_support.h' line='77' column='1' id='type-id-143'/>
        </member-type>
        <data-member access='private' layout-offset-in-bits='0'>
          <!-- base::ElfMemImage base::VDSOSupport::image_ -->
          <var-decl name='image_' type-id='type-id-23' visibility='default' filepath='./src/base/vdso_support.h' line='112' column='1'/>
        </data-member>
        <data-member access='private' static='yes'>
          <!-- static void* base::VDSOSupport::vdso_base_ -->
          <var-decl name='vdso_base_' type-id='type-id-58' mangled-name='_ZN4base11VDSOSupport10vdso_base_E' visibility='default' filepath='./src/base/vdso_support.h' line='123' column='1' elf-symbol-id='_ZN4base11VDSOSupport10vdso_base_E'/>
        </data-member>
        <member-function access='private' constructor='yes'>
          <!-- base::VDSOSupport::VDSOSupport() -->
          <function-decl name='VDSOSupport' mangled-name='_ZN4base11VDSOSupportC1Ev' filepath='./src/base/vdso_support.h' line='74' column='1' visibility='default' binding='global' size-in-bits='64' elf-symbol-id='_ZN4base11VDSOSupportC1Ev'>
            <!-- implicit parameter of type 'base::VDSOSupport*' -->
            <parameter type-id='type-id-135' is-artificial='yes'/>
            <!-- void -->
            <return type-id='type-id-60'/>
          </function-decl>
        </member-function>
        <member-function access='private' constructor='yes'>
          <!-- base::VDSOSupport::VDSOSupport(const base::VDSOSupport&) -->
          <function-decl name='VDSOSupport' filepath='./src/base/vdso_support.h' line='125' column='1' visibility='default' binding='global' size-in-bits='64'>
            <!-- implicit parameter of type 'base::VDSOSupport*' -->
            <parameter type-id='type-id-135' is-artificial='yes'/>
            <!-- parameter of type 'const base::VDSOSupport&' -->
            <parameter type-id='type-id-140'/>
            <!-- void -->
            <return type-id='type-id-60'/>
          </function-decl>
        </member-function>
        <member-function access='private'>
          <!-- bool base::VDSOSupport::LookupSymbolByAddress(void*, base::VDSOSupport::SymbolInfo*) -->
          <function-decl name='LookupSymbolByAddress' mangled-name='_ZNK4base11VDSOSupport21LookupSymbolByAddressEPKvPNS_11ElfMemImage10SymbolInfoE' filepath='src/base/vdso_support.cc' line='124' column='1' visibility='default' binding='global' size-in-bits='64' elf-symbol-id='_ZNK4base11VDSOSupport21LookupSymbolByAddressEPKvPNS_11ElfMemImage10SymbolInfoE'>
            <!-- implicit parameter of type 'const base::VDSOSupport* const' -->
            <parameter type-id='type-id-142' name='this' is-artificial='yes'/>
            <!-- parameter of type 'void*' -->
            <parameter type-id='type-id-58' name='address' filepath='src/base/vdso_support.cc' line='124' column='1'/>
            <!-- parameter of type 'base::VDSOSupport::SymbolInfo*' -->
            <parameter type-id='type-id-138' name='info_out' filepath='src/base/vdso_support.cc' line='125' column='1'/>
            <!-- bool -->
            <return type-id='type-id-61'/>
          </function-decl>
        </member-function>
        <member-function access='private'>
          <!-- bool base::VDSOSupport::LookupSymbol(const char*, const char*, int, base::VDSOSupport::SymbolInfo*) -->
          <function-decl name='LookupSymbol' mangled-name='_ZNK4base11VDSOSupport12LookupSymbolEPKcS2_iPNS_11ElfMemImage10SymbolInfoE' filepath='src/base/vdso_support.cc' line='117' column='1' visibility='default' binding='global' size-in-bits='64' elf-symbol-id='_ZNK4base11VDSOSupport12LookupSymbolEPKcS2_iPNS_11ElfMemImage10SymbolInfoE'>
            <!-- implicit parameter of type 'const base::VDSOSupport* const' -->
            <parameter type-id='type-id-142' name='this' is-artificial='yes'/>
            <!-- parameter of type 'const char*' -->
            <parameter type-id='type-id-57' name='name' filepath='src/base/vdso_support.cc' line='117' column='1'/>
            <!-- parameter of type 'const char*' -->
            <parameter type-id='type-id-57' name='version' filepath='src/base/vdso_support.cc' line='118' column='1'/>
            <!-- parameter of type 'int' -->
            <parameter type-id='type-id-1' name='type' filepath='src/base/vdso_support.cc' line='119' column='1'/>
            <!-- parameter of type 'base::VDSOSupport::SymbolInfo*' -->
            <parameter type-id='type-id-138' name='info' filepath='src/base/vdso_support.cc' line='120' column='1'/>
            <!-- bool -->
            <return type-id='type-id-61'/>
          </function-decl>
        </member-function>
        <member-function access='private'>
          <!-- void* base::VDSOSupport::SetBase(void*) -->
          <function-decl name='SetBase' mangled-name='_ZN4base11VDSOSupport7SetBaseEPKv' filepath='src/base/vdso_support.cc' line='109' column='1' visibility='default' binding='global' size-in-bits='64' elf-symbol-id='_ZN4base11VDSOSupport7SetBaseEPKv'>
            <!-- implicit parameter of type 'base::VDSOSupport* const' -->
            <parameter type-id='type-id-136' name='this' is-artificial='yes'/>
            <!-- parameter of type 'void*' -->
            <parameter type-id='type-id-58' name='base' filepath='src/base/vdso_support.cc' line='109' column='1'/>
            <!-- void* -->
            <return type-id='type-id-58'/>
          </function-decl>
        </member-function>
        <member-function access='private' static='yes'>
          <!-- void* base::VDSOSupport::Init() -->
          <function-decl name='Init' mangled-name='_ZN4base11VDSOSupport4InitEv' filepath='src/base/vdso_support.cc' line='75' column='1' visibility='default' binding='global' size-in-bits='64' elf-symbol-id='_ZN4base11VDSOSupport4InitEv'>
            <!-- void* -->
            <return type-id='type-id-58'/>
          </function-decl>
        </member-function>
      </class-decl>
    </namespace-decl>
  </abi-instr>
  <abi-instr address-size='64' path='src/central_freelist.cc' comp-dir-path='/tmp/legendre/spack-stage/spack-stage-kFgaKP/gperftools-2.4' language='LANG_C_plus_plus'>
    <!-- const int& -->
    <reference-type-def kind='lvalue' type-id='type-id-144' size-in-bits='64' id='type-id-145'/>
    <!-- const int32_t -->
    <qualified-type-def type-id='type-id-76' const='yes' id='type-id-146'/>
    <!-- const int32_t& -->
    <reference-type-def kind='lvalue' type-id='type-id-146' size-in-bits='64' id='type-id-147'/>
    <!-- const tcmalloc::Span -->
    <qualified-type-def type-id='type-id-148' const='yes' id='type-id-149'/>
    <!-- const tcmalloc::Span* -->
    <pointer-type-def type-id='type-id-149' size-in-bits='64' id='type-id-150'/>
    <!-- namespace std -->
    <namespace-decl name='std'>
      <!-- const int& std::max<int>(const int&, const int&) -->
      <function-decl name='max&lt;int&gt;' filepath='/usr/lib/gcc/x86_64-redhat-linux/4.4.7/../../../../include/c++/4.4.7/bits/stl_algobase.h' line='209' column='1' visibility='default' binding='global' size-in-bits='64'>
        <!-- parameter of type 'const int&' -->
        <parameter type-id='type-id-145'/>
        <!-- parameter of type 'const int&' -->
        <parameter type-id='type-id-145'/>
        <!-- const int& -->
        <return type-id='type-id-145'/>
      </function-decl>
      <!-- const int32_t& std::min<int32_t>(const int32_t&, const int32_t&) -->
      <function-decl name='min&lt;int32_t&gt;' filepath='/usr/lib/gcc/x86_64-redhat-linux/4.4.7/../../../../include/c++/4.4.7/bits/stl_algobase.h' line='186' column='1' visibility='default' binding='global' size-in-bits='64'>
        <!-- parameter of type 'const int32_t&' -->
        <parameter type-id='type-id-147'/>
        <!-- parameter of type 'const int32_t&' -->
        <parameter type-id='type-id-147'/>
        <!-- const int32_t& -->
        <return type-id='type-id-147'/>
      </function-decl>
    </namespace-decl>
    <!-- namespace tcmalloc -->
    <namespace-decl name='tcmalloc'>
      <!-- bool tcmalloc::DLL_IsEmpty(const tcmalloc::Span*) -->
      <function-decl name='DLL_IsEmpty' filepath='src/span.h' line='90' column='1' visibility='default' binding='global' size-in-bits='64'>
        <!-- parameter of type 'const tcmalloc::Span*' -->
        <parameter type-id='type-id-150'/>
        <!-- bool -->
        <return type-id='type-id-61'/>
      </function-decl>
      <!-- void tcmalloc::SLL_PushRange(void**, void*, void*) -->
      <function-decl name='SLL_PushRange' filepath='src/linked_list.h' line='86' column='1' visibility='default' binding='global' size-in-bits='64'>
        <!-- parameter of type 'void**' -->
        <parameter type-id='type-id-151'/>
        <!-- parameter of type 'void*' -->
        <parameter type-id='type-id-58'/>
        <!-- parameter of type 'void*' -->
        <parameter type-id='type-id-58'/>
        <!-- void -->
        <return type-id='type-id-60'/>
      </function-decl>
    </namespace-decl>
    <namespace-decl name='tcmalloc'>
      <!-- struct tcmalloc::Span -->
      <class-decl name='Span' size-in-bits='384' is-struct='yes' visibility='default' filepath='src/span.h' line='45' column='1' id='type-id-148'>
        <member-type access='public'>
          <!-- enum tcmalloc::Span::__anonymous_enum__ -->
          <enum-decl name='__anonymous_enum__' is-anonymous='yes' filepath='src/span.h' line='65' column='1' id='type-id-152'>
            <underlying-type type-id='type-id-89'/>
            <enumerator name='IN_USE' value='0'/>
            <enumerator name='ON_NORMAL_FREELIST' value='1'/>
            <enumerator name='ON_RETURNED_FREELIST' value='2'/>
          </enum-decl>
        </member-type>
        <data-member access='public' layout-offset-in-bits='0'>
          <!-- PageID tcmalloc::Span::start -->
          <var-decl name='start' type-id='type-id-153' visibility='default' filepath='src/span.h' line='46' column='1'/>
        </data-member>
        <data-member access='public' layout-offset-in-bits='64'>
          <!-- Length tcmalloc::Span::length -->
          <var-decl name='length' type-id='type-id-154' visibility='default' filepath='src/span.h' line='47' column='1'/>
        </data-member>
        <data-member access='public' layout-offset-in-bits='128'>
          <!-- tcmalloc::Span* tcmalloc::Span::next -->
          <var-decl name='next' type-id='type-id-155' visibility='default' filepath='src/span.h' line='48' column='1'/>
        </data-member>
        <data-member access='public' layout-offset-in-bits='192'>
          <!-- tcmalloc::Span* tcmalloc::Span::prev -->
          <var-decl name='prev' type-id='type-id-155' visibility='default' filepath='src/span.h' line='49' column='1'/>
        </data-member>
        <data-member access='public' layout-offset-in-bits='256'>
          <!-- void* tcmalloc::Span::objects -->
          <var-decl name='objects' type-id='type-id-58' visibility='default' filepath='src/span.h' line='50' column='1'/>
        </data-member>
        <data-member access='public' layout-offset-in-bits='0'>
          <!-- unsigned int tcmalloc::Span::refcount -->
          <var-decl name='refcount' type-id='type-id-64' visibility='default' filepath='src/span.h' line='51' column='1'/>
        </data-member>
        <data-member access='public' layout-offset-in-bits='16'>
          <!-- unsigned int tcmalloc::Span::sizeclass -->
          <var-decl name='sizeclass' type-id='type-id-64' visibility='default' filepath='src/span.h' line='52' column='1'/>
        </data-member>
        <data-member access='public' layout-offset-in-bits='24'>
          <!-- unsigned int tcmalloc::Span::location -->
          <var-decl name='location' type-id='type-id-64' visibility='default' filepath='src/span.h' line='53' column='1'/>
        </data-member>
        <data-member access='public' layout-offset-in-bits='26'>
          <!-- unsigned int tcmalloc::Span::sample -->
          <var-decl name='sample' type-id='type-id-64' visibility='default' filepath='src/span.h' line='54' column='1'/>
        </data-member>
      </class-decl>
    </namespace-decl>
    <!-- const int -->
    <qualified-type-def type-id='type-id-1' const='yes' id='type-id-144'/>
    <!-- void** -->
    <pointer-type-def type-id='type-id-58' size-in-bits='64' id='type-id-151'/>
    <!-- tcmalloc::Span* -->
    <pointer-type-def type-id='type-id-148' size-in-bits='64' id='type-id-155'/>
    <!-- typedef uintptr_t Length -->
    <typedef-decl name='Length' type-id='type-id-156' filepath='src/common.h' line='59' column='1' id='type-id-154'/>
    <!-- typedef uintptr_t PageID -->
    <typedef-decl name='PageID' type-id='type-id-156' filepath='src/common.h' line='56' column='1' id='type-id-153'/>
    <!-- typedef unsigned long int uintptr_t -->
    <typedef-decl name='uintptr_t' type-id='type-id-5' filepath='/usr/include/stdint.h' line='123' column='1' id='type-id-156'/>
  </abi-instr>
  <abi-instr address-size='64' path='src/common.cc' comp-dir-path='/tmp/legendre/spack-stage/spack-stage-kFgaKP/gperftools-2.4' language='LANG_C_plus_plus'>
    <!-- namespace tcmalloc -->
    <namespace-decl name='tcmalloc'>
      <!-- uint64_t tcmalloc::metadata_system_bytes() -->
      <function-decl name='metadata_system_bytes' mangled-name='_ZN8tcmalloc21metadata_system_bytesEv' filepath='src/common.cc' line='274' column='1' visibility='default' binding='global' size-in-bits='64' elf-symbol-id='_ZN8tcmalloc21metadata_system_bytesEv'>
        <!-- typedef uint64_t -->
        <return type-id='type-id-15'/>
      </function-decl>
      <!-- void* tcmalloc::MetaDataAlloc(size_t) -->
      <function-decl name='MetaDataAlloc' mangled-name='_ZN8tcmalloc13MetaDataAllocEm' filepath='src/common.cc' line='233' column='1' visibility='default' binding='global' size-in-bits='64' elf-symbol-id='_ZN8tcmalloc13MetaDataAllocEm'>
        <!-- parameter of type 'typedef size_t' -->
        <parameter type-id='type-id-62'/>
        <!-- void* -->
        <return type-id='type-id-58'/>
      </function-decl>
      <!-- int tcmalloc::AlignmentForSize(size_t) -->
      <function-decl name='AlignmentForSize' mangled-name='_ZN8tcmalloc16AlignmentForSizeEm' filepath='src/common.cc' line='77' column='1' visibility='default' binding='global' size-in-bits='64' elf-symbol-id='_ZN8tcmalloc16AlignmentForSizeEm'>
        <!-- parameter of type 'typedef size_t' -->
        <parameter type-id='type-id-62'/>
        <!-- int -->
        <return type-id='type-id-1'/>
      </function-decl>
    </namespace-decl>
  </abi-instr>
  <abi-instr address-size='64' path='src/heap-checker-bcad.cc' comp-dir-path='/tmp/legendre/spack-stage/spack-stage-kFgaKP/gperftools-2.4' language='LANG_C_plus_plus'>
    <!-- class HeapLeakCheckerGlobalPrePost -->
    <class-decl name='HeapLeakCheckerGlobalPrePost' size-in-bits='8' visibility='default' filepath='src/heap-checker-bcad.cc' line='60' column='1' id='type-id-157'>
      <data-member access='private' static='yes'>
        <!-- static int HeapLeakCheckerGlobalPrePost::count_ -->
        <var-decl name='count_' type-id='type-id-1' mangled-name='_ZN28HeapLeakCheckerGlobalPrePost6count_E' visibility='default' filepath='src/heap-checker-bcad.cc' line='87' column='1' elf-symbol-id='_ZN28HeapLeakCheckerGlobalPrePost6count_E'/>
      </data-member>
      <member-function access='private' constructor='yes'>
        <!-- HeapLeakCheckerGlobalPrePost::HeapLeakCheckerGlobalPrePost() -->
        <function-decl name='HeapLeakCheckerGlobalPrePost' filepath='src/heap-checker-bcad.cc' line='62' column='1' visibility='default' binding='global' size-in-bits='64'>
          <!-- implicit parameter of type 'HeapLeakCheckerGlobalPrePost*' -->
          <parameter type-id='type-id-158' is-artificial='yes'/>
          <!-- void -->
          <return type-id='type-id-60'/>
        </function-decl>
      </member-function>
      <member-function access='private' destructor='yes'>
        <!-- HeapLeakCheckerGlobalPrePost::~HeapLeakCheckerGlobalPrePost(int) -->
        <function-decl name='~HeapLeakCheckerGlobalPrePost' mangled-name='_ZN28HeapLeakCheckerGlobalPrePostD1Ev' filepath='src/heap-checker-bcad.cc' line='79' column='1' visibility='default' binding='global' size-in-bits='64' elf-symbol-id='_ZN28HeapLeakCheckerGlobalPrePostD1Ev'>
          <!-- implicit parameter of type 'HeapLeakCheckerGlobalPrePost*' -->
          <parameter type-id='type-id-158' is-artificial='yes'/>
          <!-- artificial parameter of type 'int' -->
          <parameter type-id='type-id-1' is-artificial='yes'/>
          <!-- void -->
          <return type-id='type-id-60'/>
        </function-decl>
      </member-function>
    </class-decl>
    <!-- HeapLeakCheckerGlobalPrePost* -->
    <pointer-type-def type-id='type-id-157' size-in-bits='64' id='type-id-158'/>
    <!-- bool heap_leak_checker_bcad_variable -->
    <var-decl name='heap_leak_checker_bcad_variable' type-id='type-id-61' mangled-name='heap_leak_checker_bcad_variable' visibility='default' filepath='src/heap-checker-bcad.cc' line='53' column='1' elf-symbol-id='heap_leak_checker_bcad_variable'/>
  </abi-instr>
  <abi-instr address-size='64' path='src/heap-checker.cc' comp-dir-path='/tmp/legendre/spack-stage/spack-stage-kFgaKP/gperftools-2.4' language='LANG_C_plus_plus'>
    <!-- char[] -->
    <array-type-def dimensions='1' type-id='type-id-65' size-in-bits='infinite' id='type-id-159'>
      <!-- <anonymous range>[] -->
      <subrange length='infinite' id='type-id-160'/>
    </array-type-def>
    <!-- size_t[4] -->
    <array-type-def dimensions='1' type-id='type-id-62' size-in-bits='256' id='type-id-161'>
      <!-- <anonymous range>[4] -->
      <subrange length='4' type-id='type-id-5' id='type-id-162'/>
    </array-type-def>
    <!-- void*[32] -->
    <array-type-def dimensions='1' type-id='type-id-58' size-in-bits='2048' id='type-id-163'>
      <!-- <anonymous range>[32] -->
      <subrange length='32' type-id='type-id-5' id='type-id-164'/>
    </array-type-def>
    <!-- struct AllocObject -->
    <class-decl name='AllocObject' size-in-bits='192' is-struct='yes' visibility='default' filepath='src/heap-checker.cc' line='356' column='1' id='type-id-165'>
      <data-member access='public' layout-offset-in-bits='0'>
        <!-- void* AllocObject::ptr -->
        <var-decl name='ptr' type-id='type-id-58' visibility='default' filepath='src/heap-checker.cc' line='357' column='1'/>
      </data-member>
      <data-member access='public' layout-offset-in-bits='64'>
        <!-- uintptr_t AllocObject::size -->
        <var-decl name='size' type-id='type-id-156' visibility='default' filepath='src/heap-checker.cc' line='358' column='1'/>
      </data-member>
      <data-member access='public' layout-offset-in-bits='128'>
        <!-- ObjectPlacement AllocObject::place -->
        <var-decl name='place' type-id='type-id-166' visibility='default' filepath='src/heap-checker.cc' line='359' column='1'/>
      </data-member>
      <member-function access='public' constructor='yes'>
        <!-- AllocObject::AllocObject(void*, size_t, ObjectPlacement) -->
        <function-decl name='AllocObject' filepath='src/heap-checker.cc' line='361' column='1' visibility='default' binding='global' size-in-bits='64'>
          <!-- implicit parameter of type 'AllocObject*' -->
          <parameter type-id='type-id-167' is-artificial='yes'/>
          <!-- parameter of type 'void*' -->
          <parameter type-id='type-id-58'/>
          <!-- parameter of type 'typedef size_t' -->
          <parameter type-id='type-id-62'/>
          <!-- parameter of type 'enum ObjectPlacement' -->
          <parameter type-id='type-id-166'/>
          <!-- void -->
          <return type-id='type-id-60'/>
        </function-decl>
      </member-function>
    </class-decl>
    <!-- enum ObjectPlacement -->
    <enum-decl name='ObjectPlacement' filepath='src/heap-checker.cc' line='345' column='1' id='type-id-166'>
      <underlying-type type-id='type-id-89'/>
      <enumerator name='MUST_BE_ON_HEAP' value='0'/>
      <enumerator name='IGNORED_ON_HEAP' value='1'/>
      <enumerator name='MAYBE_LIVE' value='2'/>
      <enumerator name='IN_GLOBAL_DATA' value='3'/>
      <enumerator name='THREAD_DATA' value='4'/>
      <enumerator name='THREAD_REGISTERS' value='5'/>
    </enum-decl>
    <!-- class STL_Allocator<AllocObject, HeapLeakChecker::Allocator> -->
    <class-decl name='STL_Allocator&lt;AllocObject, HeapLeakChecker::Allocator&gt;' size-in-bits='8' visibility='default' filepath='src/base/stl_allocator.h' line='60' column='1' id='type-id-168'>
      <member-function access='private'>
        <!-- void STL_Allocator<AllocObject, HeapLeakChecker::Allocator>::STL_Allocator() -->
        <function-decl name='STL_Allocator' filepath='src/base/stl_allocator.h' line='74' column='1' visibility='default' binding='global' size-in-bits='64'>
          <!-- implicit parameter of type 'STL_Allocator<AllocObject, HeapLeakChecker::Allocator>*' -->
          <parameter type-id='type-id-169' is-artificial='yes'/>
          <!-- void -->
          <return type-id='type-id-60'/>
        </function-decl>
      </member-function>
      <member-function access='private'>
        <!-- void STL_Allocator<AllocObject, HeapLeakChecker::Allocator>::STL_Allocator(const STL_Allocator<AllocObject, HeapLeakChecker::Allocator>&) -->
        <function-decl name='STL_Allocator' filepath='src/base/stl_allocator.h' line='75' column='1' visibility='default' binding='global' size-in-bits='64'>
          <!-- implicit parameter of type 'STL_Allocator<AllocObject, HeapLeakChecker::Allocator>*' -->
          <parameter type-id='type-id-169' is-artificial='yes'/>
          <!-- parameter of type 'const STL_Allocator<AllocObject, HeapLeakChecker::Allocator>&' -->
          <parameter type-id='type-id-170'/>
          <!-- void -->
          <return type-id='type-id-60'/>
        </function-decl>
      </member-function>
      <member-function access='private' destructor='yes'>
        <!-- STL_Allocator<AllocObject, HeapLeakChecker::Allocator>::~STL_Allocator(int) -->
        <function-decl name='~STL_Allocator' filepath='src/base/stl_allocator.h' line='77' column='1' visibility='default' binding='global' size-in-bits='64'>
          <!-- implicit parameter of type 'STL_Allocator<AllocObject, HeapLeakChecker::Allocator>*' -->
          <parameter type-id='type-id-169' is-artificial='yes'/>
          <!-- artificial parameter of type 'int' -->
          <parameter type-id='type-id-1' is-artificial='yes'/>
          <!-- void -->
          <return type-id='type-id-60'/>
        </function-decl>
      </member-function>
    </class-decl>
    <!-- class STL_Allocator<void*, HeapLeakChecker::Allocator> -->
    <class-decl name='STL_Allocator&lt;void*, HeapLeakChecker::Allocator&gt;' size-in-bits='8' visibility='default' filepath='src/base/stl_allocator.h' line='60' column='1' id='type-id-171'>
      <member-function access='private'>
        <!-- void STL_Allocator<void*, HeapLeakChecker::Allocator>::STL_Allocator() -->
        <function-decl name='STL_Allocator' filepath='src/base/stl_allocator.h' line='74' column='1' visibility='default' binding='global' size-in-bits='64'>
          <!-- implicit parameter of type 'STL_Allocator<void*, HeapLeakChecker::Allocator>*' -->
          <parameter type-id='type-id-172' is-artificial='yes'/>
          <!-- void -->
          <return type-id='type-id-60'/>
        </function-decl>
      </member-function>
      <member-function access='private'>
        <!-- void STL_Allocator<void*, HeapLeakChecker::Allocator>::STL_Allocator(const STL_Allocator<void*, HeapLeakChecker::Allocator>&) -->
        <function-decl name='STL_Allocator' filepath='src/base/stl_allocator.h' line='75' column='1' visibility='default' binding='global' size-in-bits='64'>
          <!-- implicit parameter of type 'STL_Allocator<void*, HeapLeakChecker::Allocator>*' -->
          <parameter type-id='type-id-172' is-artificial='yes'/>
          <!-- parameter of type 'const STL_Allocator<void*, HeapLeakChecker::Allocator>&' -->
          <parameter type-id='type-id-173'/>
          <!-- void -->
          <return type-id='type-id-60'/>
        </function-decl>
      </member-function>
      <member-function access='private' destructor='yes'>
        <!-- STL_Allocator<void*, HeapLeakChecker::Allocator>::~STL_Allocator(int) -->
        <function-decl name='~STL_Allocator' filepath='src/base/stl_allocator.h' line='77' column='1' visibility='default' binding='global' size-in-bits='64'>
          <!-- implicit parameter of type 'STL_Allocator<void*, HeapLeakChecker::Allocator>*' -->
          <parameter type-id='type-id-172' is-artificial='yes'/>
          <!-- artificial parameter of type 'int' -->
          <parameter type-id='type-id-1' is-artificial='yes'/>
          <!-- void -->
          <return type-id='type-id-60'/>
        </function-decl>
      </member-function>
    </class-decl>
    <!-- class GoogleInitializer -->
    <class-decl name='GoogleInitializer' size-in-bits='128' visibility='default' filepath='src/base/googleinit.h' line='39' column='1' id='type-id-174'>
      <member-type access='private'>
        <!-- typedef void ()* GoogleInitializer::VoidFunction -->
        <typedef-decl name='VoidFunction' type-id='type-id-176' filepath='src/base/googleinit.h' line='41' column='1' id='type-id-175'/>
      </member-type>
      <data-member access='private' layout-offset-in-bits='0'>
        <!-- const char* const GoogleInitializer::name_ -->
        <var-decl name='name_' type-id='type-id-177' visibility='default' filepath='src/base/googleinit.h' line='55' column='1'/>
      </data-member>
      <data-member access='private' layout-offset-in-bits='64'>
        <!-- const GoogleInitializer::VoidFunction GoogleInitializer::destructor_ -->
        <var-decl name='destructor_' type-id='type-id-178' visibility='default' filepath='src/base/googleinit.h' line='56' column='1'/>
      </data-member>
      <member-function access='private' constructor='yes'>
        <!-- GoogleInitializer::GoogleInitializer(const char*, GoogleInitializer::VoidFunction, GoogleInitializer::VoidFunction) -->
        <function-decl name='GoogleInitializer' filepath='src/base/googleinit.h' line='42' column='1' visibility='default' binding='global' size-in-bits='64'>
          <!-- implicit parameter of type 'GoogleInitializer*' -->
          <parameter type-id='type-id-179' is-artificial='yes'/>
          <!-- parameter of type 'const char*' -->
          <parameter type-id='type-id-57'/>
          <!-- parameter of type 'typedef GoogleInitializer::VoidFunction' -->
          <parameter type-id='type-id-175'/>
          <!-- parameter of type 'typedef GoogleInitializer::VoidFunction' -->
          <parameter type-id='type-id-175'/>
          <!-- void -->
          <return type-id='type-id-60'/>
        </function-decl>
      </member-function>
      <member-function access='private' destructor='yes'>
        <!-- GoogleInitializer::~GoogleInitializer(int) -->
        <function-decl name='~GoogleInitializer' mangled-name='_ZN17GoogleInitializerD2Ev' filepath='src/base/googleinit.h' line='48' column='1' visibility='default' binding='global' size-in-bits='64' elf-symbol-id='_ZN17GoogleInitializerD2Ev'>
          <!-- implicit parameter of type 'GoogleInitializer*' -->
          <parameter type-id='type-id-179' is-artificial='yes'/>
          <!-- artificial parameter of type 'int' -->
          <parameter type-id='type-id-1' is-artificial='yes'/>
          <!-- void -->
          <return type-id='type-id-60'/>
        </function-decl>
      </member-function>
    </class-decl>
    <!-- struct HeapProfileStats -->
    <class-decl name='HeapProfileStats' size-in-bits='192' is-struct='yes' visibility='default' filepath='src/heap-profile-stats.h' line='54' column='1' id='type-id-180'>
      <data-member access='public' layout-offset-in-bits='0'>
        <!-- int32 HeapProfileStats::allocs -->
        <var-decl name='allocs' type-id='type-id-74' visibility='default' filepath='src/heap-profile-stats.h' line='61' column='1'/>
      </data-member>
      <data-member access='public' layout-offset-in-bits='32'>
        <!-- int32 HeapProfileStats::frees -->
        <var-decl name='frees' type-id='type-id-74' visibility='default' filepath='src/heap-profile-stats.h' line='62' column='1'/>
      </data-member>
      <data-member access='public' layout-offset-in-bits='64'>
        <!-- int64 HeapProfileStats::alloc_size -->
        <var-decl name='alloc_size' type-id='type-id-98' visibility='default' filepath='src/heap-profile-stats.h' line='63' column='1'/>
      </data-member>
      <data-member access='public' layout-offset-in-bits='128'>
        <!-- int64 HeapProfileStats::free_size -->
        <var-decl name='free_size' type-id='type-id-98' visibility='default' filepath='src/heap-profile-stats.h' line='64' column='1'/>
      </data-member>
    </class-decl>
    <!-- class MemoryRegionMap -->
    <class-decl name='MemoryRegionMap' size-in-bits='8' visibility='default' filepath='src/memory_region_map.h' line='69' column='1' id='type-id-181'>
      <member-type access='private'>
        <!-- struct MemoryRegionMap::RegionCmp -->
        <class-decl name='RegionCmp' size-in-bits='8' is-struct='yes' visibility='default' filepath='src/memory_region_map.h' line='245' column='1' id='type-id-182'/>
      </member-type>
      <member-type access='private'>
        <!-- struct MemoryRegionMap::Region -->
        <class-decl name='Region' size-in-bits='2304' is-struct='yes' visibility='default' filepath='src/memory_region_map.h' line='137' column='1' id='type-id-183'>
          <data-member access='public' layout-offset-in-bits='0'>
            <!-- uintptr_t MemoryRegionMap::Region::start_addr -->
            <var-decl name='start_addr' type-id='type-id-156' visibility='default' filepath='src/memory_region_map.h' line='138' column='1'/>
          </data-member>
          <data-member access='public' layout-offset-in-bits='64'>
            <!-- uintptr_t MemoryRegionMap::Region::end_addr -->
            <var-decl name='end_addr' type-id='type-id-156' visibility='default' filepath='src/memory_region_map.h' line='139' column='1'/>
          </data-member>
          <data-member access='public' layout-offset-in-bits='128'>
            <!-- int MemoryRegionMap::Region::call_stack_depth -->
            <var-decl name='call_stack_depth' type-id='type-id-1' visibility='default' filepath='src/memory_region_map.h' line='140' column='1'/>
          </data-member>
          <data-member access='public' layout-offset-in-bits='192'>
            <!-- void* MemoryRegionMap::Region::call_stack[32] -->
            <var-decl name='call_stack' type-id='type-id-163' visibility='default' filepath='src/memory_region_map.h' line='141' column='1'/>
          </data-member>
          <data-member access='public' layout-offset-in-bits='2240'>
            <!-- bool MemoryRegionMap::Region::is_stack -->
            <var-decl name='is_stack' type-id='type-id-61' visibility='default' filepath='src/memory_region_map.h' line='143' column='1'/>
          </data-member>
        </class-decl>
      </member-type>
      <member-type access='private'>
        <!-- struct MemoryRegionMap::MyAllocator -->
        <class-decl name='MyAllocator' size-in-bits='8' is-struct='yes' visibility='default' filepath='src/memory_region_map.h' line='252' column='1' id='type-id-184'/>
      </member-type>
      <member-type access='private'>
        <!-- typedef std::set<MemoryRegionMap::Region, MemoryRegionMap::RegionCmp, STL_Allocator<MemoryRegionMap::Region, MemoryRegionMap::MyAllocator> > MemoryRegionMap::RegionSet -->
        <typedef-decl name='RegionSet' type-id='type-id-186' filepath='src/memory_region_map.h' line='263' column='1' id='type-id-185'/>
      </member-type>
      <member-type access='private'>
        <!-- union MemoryRegionMap::RegionSetRep -->
        <union-decl name='RegionSetRep' size-in-bits='384' visibility='default' filepath='src/memory_region_map.cc' line='177' column='1' id='type-id-187'>
          <data-member access='public'>
            <!-- char MemoryRegionMap::RegionSetRep::rep[48] -->
            <var-decl name='rep' type-id='type-id-188' visibility='default' filepath='src/memory_region_map.cc' line='178' column='1'/>
          </data-member>
          <data-member access='public'>
            <!-- void* MemoryRegionMap::RegionSetRep::align_it -->
            <var-decl name='align_it' type-id='type-id-58' visibility='default' filepath='src/memory_region_map.cc' line='179' column='1'/>
          </data-member>
        </union-decl>
      </member-type>
      <member-type access='private'>
        <!-- class MemoryRegionMap::LockHolder -->
        <class-decl name='LockHolder' size-in-bits='8' visibility='default' filepath='src/memory_region_map.h' line='126' column='1' id='type-id-189'>
          <member-function access='private' constructor='yes'>
            <!-- MemoryRegionMap::LockHolder::LockHolder() -->
            <function-decl name='LockHolder' filepath='src/memory_region_map.h' line='128' column='1' visibility='default' binding='global' size-in-bits='64'>
              <!-- implicit parameter of type 'MemoryRegionMap::LockHolder*' -->
              <parameter type-id='type-id-190' is-artificial='yes'/>
              <!-- void -->
              <return type-id='type-id-60'/>
            </function-decl>
          </member-function>
          <member-function access='private' destructor='yes'>
            <!-- MemoryRegionMap::LockHolder::~LockHolder(int) -->
            <function-decl name='~LockHolder' filepath='src/memory_region_map.h' line='129' column='1' visibility='default' binding='global' size-in-bits='64'>
              <!-- implicit parameter of type 'MemoryRegionMap::LockHolder*' -->
              <parameter type-id='type-id-190' is-artificial='yes'/>
              <!-- artificial parameter of type 'int' -->
              <parameter type-id='type-id-1' is-artificial='yes'/>
              <!-- void -->
              <return type-id='type-id-60'/>
            </function-decl>
          </member-function>
          <member-function access='private' constructor='yes'>
            <!-- MemoryRegionMap::LockHolder::LockHolder(const MemoryRegionMap::LockHolder&) -->
            <function-decl name='LockHolder' filepath='src/memory_region_map.h' line='131' column='1' visibility='default' binding='global' size-in-bits='64'>
              <!-- implicit parameter of type 'MemoryRegionMap::LockHolder*' -->
              <parameter type-id='type-id-190' is-artificial='yes'/>
              <!-- parameter of type 'const MemoryRegionMap::LockHolder&' -->
              <parameter type-id='type-id-191'/>
              <!-- void -->
              <return type-id='type-id-60'/>
            </function-decl>
          </member-function>
        </class-decl>
      </member-type>
      <member-type access='private'>
        <!-- typedef std::_Rb_tree_const_iterator<MemoryRegionMap::Region> MemoryRegionMap::RegionIterator -->
        <typedef-decl name='RegionIterator' type-id='type-id-193' filepath='src/memory_region_map.h' line='268' column='1' id='type-id-192'/>
      </member-type>
      <data-member access='private' static='yes'>
        <!-- static int MemoryRegionMap::client_count_ -->
        <var-decl name='client_count_' type-id='type-id-1' mangled-name='_ZN15MemoryRegionMap13client_count_E' visibility='default' filepath='src/memory_region_map.h' line='292' column='1' elf-symbol-id='_ZN15MemoryRegionMap13client_count_E'/>
      </data-member>
      <data-member access='private' static='yes'>
        <!-- static int MemoryRegionMap::max_stack_depth_ -->
        <var-decl name='max_stack_depth_' type-id='type-id-1' mangled-name='_ZN15MemoryRegionMap16max_stack_depth_E' visibility='default' filepath='src/memory_region_map.h' line='295' column='1' elf-symbol-id='_ZN15MemoryRegionMap16max_stack_depth_E'/>
      </data-member>
      <data-member access='private' static='yes'>
        <!-- static LowLevelAlloc::Arena* MemoryRegionMap::arena_ -->
        <var-decl name='arena_' type-id='type-id-83' mangled-name='_ZN15MemoryRegionMap6arena_E' visibility='default' filepath='src/memory_region_map.h' line='298' column='1' elf-symbol-id='_ZN15MemoryRegionMap6arena_E'/>
      </data-member>
      <data-member access='private' static='yes'>
        <!-- static MemoryRegionMap::RegionSet* MemoryRegionMap::regions_ -->
        <var-decl name='regions_' type-id='type-id-194' mangled-name='_ZN15MemoryRegionMap8regions_E' visibility='default' filepath='src/memory_region_map.h' line='306' column='1' elf-symbol-id='_ZN15MemoryRegionMap8regions_E'/>
      </data-member>
      <data-member access='private' static='yes'>
        <!-- static SpinLock MemoryRegionMap::lock_ -->
        <var-decl name='lock_' type-id='type-id-87' mangled-name='_ZN15MemoryRegionMap5lock_E' visibility='default' filepath='src/memory_region_map.h' line='309' column='1' elf-symbol-id='_ZN15MemoryRegionMap5lock_E'/>
      </data-member>
      <data-member access='private' static='yes'>
        <!-- static SpinLock MemoryRegionMap::owner_lock_ -->
        <var-decl name='owner_lock_' type-id='type-id-87' mangled-name='_ZN15MemoryRegionMap11owner_lock_E' visibility='default' filepath='src/memory_region_map.h' line='311' column='1' elf-symbol-id='_ZN15MemoryRegionMap11owner_lock_E'/>
      </data-member>
      <data-member access='private' static='yes'>
        <!-- static int MemoryRegionMap::recursion_count_ -->
        <var-decl name='recursion_count_' type-id='type-id-1' mangled-name='_ZN15MemoryRegionMap16recursion_count_E' visibility='default' filepath='src/memory_region_map.h' line='314' column='1' elf-symbol-id='_ZN15MemoryRegionMap16recursion_count_E'/>
      </data-member>
      <data-member access='private' static='yes'>
        <!-- static pthread_t MemoryRegionMap::lock_owner_tid_ -->
        <var-decl name='lock_owner_tid_' type-id='type-id-195' mangled-name='_ZN15MemoryRegionMap15lock_owner_tid_E' visibility='default' filepath='src/memory_region_map.h' line='316' column='1' elf-symbol-id='_ZN15MemoryRegionMap15lock_owner_tid_E'/>
      </data-member>
      <data-member access='private' static='yes'>
        <!-- static int64 MemoryRegionMap::map_size_ -->
        <var-decl name='map_size_' type-id='type-id-98' mangled-name='_ZN15MemoryRegionMap9map_size_E' visibility='default' filepath='src/memory_region_map.h' line='319' column='1' elf-symbol-id='_ZN15MemoryRegionMap9map_size_E'/>
      </data-member>
      <data-member access='private' static='yes'>
        <!-- static int64 MemoryRegionMap::unmap_size_ -->
        <var-decl name='unmap_size_' type-id='type-id-98' mangled-name='_ZN15MemoryRegionMap11unmap_size_E' visibility='default' filepath='src/memory_region_map.h' line='321' column='1' elf-symbol-id='_ZN15MemoryRegionMap11unmap_size_E'/>
      </data-member>
      <data-member access='private' static='yes'>
        <!-- static HeapProfileBucket** MemoryRegionMap::bucket_table_ -->
        <var-decl name='bucket_table_' type-id='type-id-196' mangled-name='_ZN15MemoryRegionMap13bucket_table_E' visibility='default' filepath='src/memory_region_map.h' line='324' column='1' elf-symbol-id='_ZN15MemoryRegionMap13bucket_table_E'/>
      </data-member>
      <data-member access='private' static='yes'>
        <!-- static int MemoryRegionMap::num_buckets_ -->
        <var-decl name='num_buckets_' type-id='type-id-1' mangled-name='_ZN15MemoryRegionMap12num_buckets_E' visibility='default' filepath='src/memory_region_map.h' line='325' column='1' elf-symbol-id='_ZN15MemoryRegionMap12num_buckets_E'/>
      </data-member>
      <data-member access='private' static='yes'>
        <!-- static int MemoryRegionMap::saved_buckets_count_ -->
        <var-decl name='saved_buckets_count_' type-id='type-id-1' mangled-name='_ZN15MemoryRegionMap20saved_buckets_count_E' visibility='default' filepath='src/memory_region_map.h' line='337' column='1' elf-symbol-id='_ZN15MemoryRegionMap20saved_buckets_count_E'/>
      </data-member>
      <data-member access='private' static='yes'>
        <!-- static HeapProfileBucket MemoryRegionMap::saved_buckets_[20] -->
        <var-decl name='saved_buckets_' type-id='type-id-197' mangled-name='_ZN15MemoryRegionMap14saved_buckets_E' visibility='default' filepath='src/memory_region_map.h' line='343' column='1' elf-symbol-id='_ZN15MemoryRegionMap14saved_buckets_E'/>
      </data-member>
      <data-member access='private' static='yes'>
        <!-- static void* MemoryRegionMap::saved_buckets_keys_[20][32] -->
        <var-decl name='saved_buckets_keys_' type-id='type-id-198' mangled-name='_ZN15MemoryRegionMap19saved_buckets_keys_E' visibility='default' filepath='src/memory_region_map.h' line='345' column='1' elf-symbol-id='_ZN15MemoryRegionMap19saved_buckets_keys_E'/>
      </data-member>
      <member-function access='private' static='yes'>
        <!-- void MemoryRegionMap::IterateBuckets<HeapProfileTable::BufferArgs*>(HeapProfileTable::BufferArgs*) -->
        <function-decl name='IterateBuckets&lt;HeapProfileTable::BufferArgs*&gt;' filepath='src/memory_region_map.h' line='402' column='1' visibility='default' binding='global' size-in-bits='64'>
          <!-- parameter of type 'void (const HeapProfileBucket*, HeapProfileTable::BufferArgs*)*' -->
          <parameter type-id='type-id-199'/>
          <!-- parameter of type 'HeapProfileTable::BufferArgs*' -->
          <parameter type-id='type-id-200'/>
          <!-- void -->
          <return type-id='type-id-60'/>
        </function-decl>
      </member-function>
      <member-function access='private' static='yes'>
        <!-- void MemoryRegionMap::HandleSavedRegionsLocked() -->
        <function-decl name='HandleSavedRegionsLocked' mangled-name='_ZN15MemoryRegionMap24HandleSavedRegionsLockedEPFvRKNS_6RegionEE' filepath='src/memory_region_map.cc' line='487' column='1' declared-inline='yes' visibility='default' binding='global' size-in-bits='64' elf-symbol-id='_ZN15MemoryRegionMap24HandleSavedRegionsLockedEPFvRKNS_6RegionEE'>
          <!-- parameter of type 'void (const MemoryRegionMap::Region&)*' -->
          <parameter type-id='type-id-201'/>
          <!-- void -->
          <return type-id='type-id-60'/>
        </function-decl>
      </member-function>
      <member-function access='private' static='yes'>
        <!-- void MemoryRegionMap::Unlock() -->
        <function-decl name='Unlock' mangled-name='_ZN15MemoryRegionMap6UnlockEv' filepath='src/memory_region_map.cc' line='316' column='1' visibility='default' binding='global' size-in-bits='64' elf-symbol-id='_ZN15MemoryRegionMap6UnlockEv'>
          <!-- void -->
          <return type-id='type-id-60'/>
        </function-decl>
      </member-function>
      <member-function access='private' static='yes'>
        <!-- bool MemoryRegionMap::LockIsHeld() -->
        <function-decl name='LockIsHeld' mangled-name='_ZN15MemoryRegionMap10LockIsHeldEv' filepath='src/memory_region_map.cc' line='328' column='1' visibility='default' binding='global' size-in-bits='64' elf-symbol-id='_ZN15MemoryRegionMap10LockIsHeldEv'>
          <!-- bool -->
          <return type-id='type-id-61'/>
        </function-decl>
      </member-function>
      <member-function access='private' static='yes'>
        <!-- void MemoryRegionMap::LogAllLocked() -->
        <function-decl name='LogAllLocked' mangled-name='_ZN15MemoryRegionMap12LogAllLockedEv' filepath='src/memory_region_map.cc' line='815' column='1' visibility='default' binding='global' size-in-bits='64' elf-symbol-id='_ZN15MemoryRegionMap12LogAllLockedEv'>
          <!-- void -->
          <return type-id='type-id-60'/>
        </function-decl>
      </member-function>
      <member-function access='private' static='yes'>
        <!-- void MemoryRegionMap::DoInsertRegionLocked() -->
        <function-decl name='DoInsertRegionLocked' mangled-name='_ZN15MemoryRegionMap20DoInsertRegionLockedERKNS_6RegionE' filepath='src/memory_region_map.cc' line='443' column='1' declared-inline='yes' visibility='default' binding='global' size-in-bits='64' elf-symbol-id='_ZN15MemoryRegionMap20DoInsertRegionLockedERKNS_6RegionE'>
          <!-- parameter of type 'const MemoryRegionMap::Region&' -->
          <parameter type-id='type-id-202' name='region' filepath='src/memory_region_map.cc' line='443' column='1'/>
          <!-- void -->
          <return type-id='type-id-60'/>
        </function-decl>
      </member-function>
      <member-function access='private' static='yes'>
        <!-- MemoryRegionMap::RegionIterator MemoryRegionMap::EndRegionLocked() -->
        <function-decl name='EndRegionLocked' mangled-name='_ZN15MemoryRegionMap15EndRegionLockedEv' filepath='src/memory_region_map.cc' line='437' column='1' visibility='default' binding='global' size-in-bits='64' elf-symbol-id='_ZN15MemoryRegionMap15EndRegionLockedEv'>
          <!-- typedef MemoryRegionMap::RegionIterator -->
          <return type-id='type-id-192'/>
        </function-decl>
      </member-function>
      <member-function access='private' static='yes'>
        <!-- MemoryRegionMap::RegionIterator MemoryRegionMap::BeginRegionLocked() -->
        <function-decl name='BeginRegionLocked' mangled-name='_ZN15MemoryRegionMap17BeginRegionLockedEv' filepath='src/memory_region_map.cc' line='431' column='1' visibility='default' binding='global' size-in-bits='64' elf-symbol-id='_ZN15MemoryRegionMap17BeginRegionLockedEv'>
          <!-- typedef MemoryRegionMap::RegionIterator -->
          <return type-id='type-id-192'/>
        </function-decl>
      </member-function>
      <member-function access='private' static='yes'>
        <!-- const MemoryRegionMap::Region* MemoryRegionMap::DoFindRegionLocked() -->
        <function-decl name='DoFindRegionLocked' mangled-name='_ZN15MemoryRegionMap18DoFindRegionLockedEm' filepath='src/memory_region_map.cc' line='334' column='1' visibility='default' binding='global' size-in-bits='64' elf-symbol-id='_ZN15MemoryRegionMap18DoFindRegionLockedEm'>
          <!-- parameter of type 'typedef uintptr_t' -->
          <parameter type-id='type-id-156'/>
          <!-- const MemoryRegionMap::Region* -->
          <return type-id='type-id-203'/>
        </function-decl>
      </member-function>
      <member-function access='private' static='yes'>
        <!-- bool MemoryRegionMap::IsRecordingLocked() -->
        <function-decl name='IsRecordingLocked' mangled-name='_ZN15MemoryRegionMap17IsRecordingLockedEv' filepath='src/memory_region_map.cc' line='279' column='1' visibility='default' binding='global' size-in-bits='64' elf-symbol-id='_ZN15MemoryRegionMap17IsRecordingLockedEv'>
          <!-- bool -->
          <return type-id='type-id-61'/>
        </function-decl>
      </member-function>
      <member-function access='private' static='yes'>
        <!-- void MemoryRegionMap::Lock() -->
        <function-decl name='Lock' mangled-name='_ZN15MemoryRegionMap4LockEv' filepath='src/memory_region_map.cc' line='294' column='1' visibility='default' binding='global' size-in-bits='64' elf-symbol-id='_ZN15MemoryRegionMap4LockEv'>
          <!-- void -->
          <return type-id='type-id-60'/>
        </function-decl>
      </member-function>
      <member-function access='private' static='yes'>
        <!-- bool MemoryRegionMap::FindAndMarkStackRegion(MemoryRegionMap::Region*) -->
        <function-decl name='FindAndMarkStackRegion' mangled-name='_ZN15MemoryRegionMap22FindAndMarkStackRegionEmPNS_6RegionE' filepath='src/memory_region_map.cc' line='358' column='1' visibility='default' binding='global' size-in-bits='64' elf-symbol-id='_ZN15MemoryRegionMap22FindAndMarkStackRegionEmPNS_6RegionE'>
          <!-- parameter of type 'typedef uintptr_t' -->
          <parameter type-id='type-id-156'/>
          <!-- parameter of type 'MemoryRegionMap::Region*' -->
          <parameter type-id='type-id-204'/>
          <!-- bool -->
          <return type-id='type-id-61'/>
        </function-decl>
      </member-function>
      <member-function access='private' static='yes'>
        <!-- bool MemoryRegionMap::FindRegion(MemoryRegionMap::Region*) -->
        <function-decl name='FindRegion' mangled-name='_ZN15MemoryRegionMap10FindRegionEmPNS_6RegionE' filepath='src/memory_region_map.cc' line='350' column='1' visibility='default' binding='global' size-in-bits='64' elf-symbol-id='_ZN15MemoryRegionMap10FindRegionEmPNS_6RegionE'>
          <!-- parameter of type 'typedef uintptr_t' -->
          <parameter type-id='type-id-156'/>
          <!-- parameter of type 'MemoryRegionMap::Region*' -->
          <parameter type-id='type-id-204'/>
          <!-- bool -->
          <return type-id='type-id-61'/>
        </function-decl>
      </member-function>
      <member-function access='private' static='yes'>
        <!-- bool MemoryRegionMap::Shutdown() -->
        <function-decl name='Shutdown' mangled-name='_ZN15MemoryRegionMap8ShutdownEv' filepath='src/memory_region_map.cc' line='239' column='1' visibility='default' binding='global' size-in-bits='64' elf-symbol-id='_ZN15MemoryRegionMap8ShutdownEv'>
          <!-- bool -->
          <return type-id='type-id-61'/>
        </function-decl>
      </member-function>
      <member-function access='private' static='yes'>
        <!-- void MemoryRegionMap::Init(bool) -->
        <function-decl name='Init' mangled-name='_ZN15MemoryRegionMap4InitEib' filepath='src/memory_region_map.cc' line='194' column='1' visibility='default' binding='global' size-in-bits='64' elf-symbol-id='_ZN15MemoryRegionMap4InitEib'>
          <!-- parameter of type 'int' -->
          <parameter type-id='type-id-1'/>
          <!-- parameter of type 'bool' -->
          <parameter type-id='type-id-61'/>
          <!-- void -->
          <return type-id='type-id-60'/>
        </function-decl>
      </member-function>
      <member-function access='private' static='yes'>
        <!-- void MemoryRegionMap::RestoreSavedBucketsLocked() -->
        <function-decl name='RestoreSavedBucketsLocked' mangled-name='_ZN15MemoryRegionMap25RestoreSavedBucketsLockedEv' filepath='src/memory_region_map.cc' line='499' column='1' visibility='default' binding='global' size-in-bits='64' elf-symbol-id='_ZN15MemoryRegionMap25RestoreSavedBucketsLockedEv'>
          <!-- void -->
          <return type-id='type-id-60'/>
        </function-decl>
      </member-function>
      <member-function access='private' static='yes'>
        <!-- HeapProfileBucket* MemoryRegionMap::GetBucket(void* const*) -->
        <function-decl name='GetBucket' mangled-name='_ZN15MemoryRegionMap9GetBucketEiPKPKv' filepath='src/memory_region_map.cc' line='375' column='1' visibility='default' binding='global' size-in-bits='64' elf-symbol-id='_ZN15MemoryRegionMap9GetBucketEiPKPKv'>
          <!-- parameter of type 'int' -->
          <parameter type-id='type-id-1'/>
          <!-- parameter of type 'void* const*' -->
          <parameter type-id='type-id-205'/>
          <!-- HeapProfileBucket* -->
          <return type-id='type-id-206'/>
        </function-decl>
      </member-function>
      <member-function access='private' static='yes'>
        <!-- void MemoryRegionMap::RecordRegionRemovalInBucket(void* const*, size_t) -->
        <function-decl name='RecordRegionRemovalInBucket' mangled-name='_ZN15MemoryRegionMap27RecordRegionRemovalInBucketEiPKPKvm' filepath='src/memory_region_map.cc' line='752' column='1' visibility='default' binding='global' size-in-bits='64' elf-symbol-id='_ZN15MemoryRegionMap27RecordRegionRemovalInBucketEiPKPKvm'>
          <!-- parameter of type 'int' -->
          <parameter type-id='type-id-1'/>
          <!-- parameter of type 'void* const*' -->
          <parameter type-id='type-id-205'/>
          <!-- parameter of type 'typedef size_t' -->
          <parameter type-id='type-id-62'/>
          <!-- void -->
          <return type-id='type-id-60'/>
        </function-decl>
      </member-function>
      <member-function access='private' static='yes'>
        <!-- void MemoryRegionMap::InsertRegionLocked() -->
        <function-decl name='InsertRegionLocked' mangled-name='_ZN15MemoryRegionMap18InsertRegionLockedERKNS_6RegionE' filepath='src/memory_region_map.cc' line='537' column='1' declared-inline='yes' visibility='default' binding='global' size-in-bits='64' elf-symbol-id='_ZN15MemoryRegionMap18InsertRegionLockedERKNS_6RegionE'>
          <!-- parameter of type 'const MemoryRegionMap::Region&' -->
          <parameter type-id='type-id-202' name='region' filepath='src/memory_region_map.cc' line='443' column='1'/>
          <!-- void -->
          <return type-id='type-id-60'/>
        </function-decl>
      </member-function>
      <member-function access='private' static='yes'>
        <!-- void MemoryRegionMap::RecordRegionAddition(size_t) -->
        <function-decl name='RecordRegionAddition' mangled-name='_ZN15MemoryRegionMap20RecordRegionAdditionEPKvm' filepath='src/memory_region_map.cc' line='580' column='1' visibility='default' binding='global' size-in-bits='64' elf-symbol-id='_ZN15MemoryRegionMap20RecordRegionAdditionEPKvm'>
          <!-- parameter of type 'void*' -->
          <parameter type-id='type-id-58'/>
          <!-- parameter of type 'typedef size_t' -->
          <parameter type-id='type-id-62'/>
          <!-- void -->
          <return type-id='type-id-60'/>
        </function-decl>
      </member-function>
      <member-function access='private' static='yes'>
        <!-- void MemoryRegionMap::MmapHook(void*, size_t, int, int, int, off_t) -->
        <function-decl name='MmapHook' mangled-name='_ZN15MemoryRegionMap8MmapHookEPKvS1_miiil' filepath='src/memory_region_map.cc' line='762' column='1' visibility='default' binding='global' size-in-bits='64' elf-symbol-id='_ZN15MemoryRegionMap8MmapHookEPKvS1_miiil'>
          <!-- parameter of type 'void*' -->
          <parameter type-id='type-id-58'/>
          <!-- parameter of type 'void*' -->
          <parameter type-id='type-id-58'/>
          <!-- parameter of type 'typedef size_t' -->
          <parameter type-id='type-id-62'/>
          <!-- parameter of type 'int' -->
          <parameter type-id='type-id-1'/>
          <!-- parameter of type 'int' -->
          <parameter type-id='type-id-1'/>
          <!-- parameter of type 'int' -->
          <parameter type-id='type-id-1'/>
          <!-- parameter of type 'typedef off_t' -->
          <parameter type-id='type-id-207'/>
          <!-- void -->
          <return type-id='type-id-60'/>
        </function-decl>
      </member-function>
      <member-function access='private' static='yes'>
        <!-- void MemoryRegionMap::RecordRegionRemoval(size_t) -->
        <function-decl name='RecordRegionRemoval' mangled-name='_ZN15MemoryRegionMap19RecordRegionRemovalEPKvm' filepath='src/memory_region_map.cc' line='634' column='1' visibility='default' binding='global' size-in-bits='64' elf-symbol-id='_ZN15MemoryRegionMap19RecordRegionRemovalEPKvm'>
          <!-- parameter of type 'void*' -->
          <parameter type-id='type-id-58'/>
          <!-- parameter of type 'typedef size_t' -->
          <parameter type-id='type-id-62'/>
          <!-- void -->
          <return type-id='type-id-60'/>
        </function-decl>
      </member-function>
      <member-function access='private' static='yes'>
        <!-- void MemoryRegionMap::MunmapHook(size_t) -->
        <function-decl name='MunmapHook' mangled-name='_ZN15MemoryRegionMap10MunmapHookEPKvm' filepath='src/memory_region_map.cc' line='778' column='1' visibility='default' binding='global' size-in-bits='64' elf-symbol-id='_ZN15MemoryRegionMap10MunmapHookEPKvm'>
          <!-- parameter of type 'void*' -->
          <parameter type-id='type-id-58'/>
          <!-- parameter of type 'typedef size_t' -->
          <parameter type-id='type-id-62'/>
          <!-- void -->
          <return type-id='type-id-60'/>
        </function-decl>
      </member-function>
      <member-function access='private' static='yes'>
        <!-- void MemoryRegionMap::SbrkHook(ptrdiff_t) -->
        <function-decl name='SbrkHook' mangled-name='_ZN15MemoryRegionMap8SbrkHookEPKvl' filepath='src/memory_region_map.cc' line='800' column='1' visibility='default' binding='global' size-in-bits='64' elf-symbol-id='_ZN15MemoryRegionMap8SbrkHookEPKvl'>
          <!-- parameter of type 'void*' -->
          <parameter type-id='type-id-58'/>
          <!-- parameter of type 'typedef ptrdiff_t' -->
          <parameter type-id='type-id-208'/>
          <!-- void -->
          <return type-id='type-id-60'/>
        </function-decl>
      </member-function>
      <member-function access='private' static='yes'>
        <!-- void MemoryRegionMap::MremapHook(void*, size_t, size_t, int, void*) -->
        <function-decl name='MremapHook' mangled-name='_ZN15MemoryRegionMap10MremapHookEPKvS1_mmiS1_' filepath='src/memory_region_map.cc' line='785' column='1' visibility='default' binding='global' size-in-bits='64' elf-symbol-id='_ZN15MemoryRegionMap10MremapHookEPKvS1_mmiS1_'>
          <!-- parameter of type 'void*' -->
          <parameter type-id='type-id-58'/>
          <!-- parameter of type 'void*' -->
          <parameter type-id='type-id-58'/>
          <!-- parameter of type 'typedef size_t' -->
          <parameter type-id='type-id-62'/>
          <!-- parameter of type 'typedef size_t' -->
          <parameter type-id='type-id-62'/>
          <!-- parameter of type 'int' -->
          <parameter type-id='type-id-1'/>
          <!-- parameter of type 'void*' -->
          <parameter type-id='type-id-58'/>
          <!-- void -->
          <return type-id='type-id-60'/>
        </function-decl>
      </member-function>
    </class-decl>
    <!-- class HeapProfileTable -->
    <class-decl name='HeapProfileTable' size-in-bits='832' visibility='default' filepath='src/heap-profile-table.h' line='51' column='1' id='type-id-209'>
      <member-type access='private'>
        <!-- struct HeapProfileTable::AllocValue -->
        <class-decl name='AllocValue' size-in-bits='128' is-struct='yes' visibility='default' filepath='src/heap-profile-table.h' line='190' column='1' id='type-id-210'>
          <member-type access='private'>
            <!-- typedef HeapProfileBucket HeapProfileTable::AllocValue::Bucket -->
            <typedef-decl name='Bucket' type-id='type-id-212' filepath='src/heap-profile-table.h' line='187' column='1' id='type-id-211'/>
          </member-type>
          <data-member access='public' layout-offset-in-bits='0'>
            <!-- size_t HeapProfileTable::AllocValue::bytes -->
            <var-decl name='bytes' type-id='type-id-62' visibility='default' filepath='src/heap-profile-table.h' line='197' column='1'/>
          </data-member>
          <data-member access='private' static='yes'>
            <!-- static const int HeapProfileTable::AllocValue::kLive -->
            <var-decl name='kLive' type-id='type-id-144' visibility='default' filepath='src/heap-profile-table.h' line='214' column='1'/>
          </data-member>
          <data-member access='private' static='yes'>
            <!-- static const int HeapProfileTable::AllocValue::kIgnore -->
            <var-decl name='kIgnore' type-id='type-id-144' visibility='default' filepath='src/heap-profile-table.h' line='215' column='1'/>
          </data-member>
          <data-member access='private' static='yes'>
            <!-- static const int HeapProfileTable::AllocValue::kMask -->
            <var-decl name='kMask' type-id='type-id-144' visibility='default' filepath='src/heap-profile-table.h' line='216' column='1'/>
          </data-member>
          <data-member access='private' layout-offset-in-bits='64'>
            <!-- uintptr_t HeapProfileTable::AllocValue::bucket_rep -->
            <var-decl name='bucket_rep' type-id='type-id-156' visibility='default' filepath='src/heap-profile-table.h' line='218' column='1'/>
          </data-member>
        </class-decl>
      </member-type>
      <member-type access='private'>
        <!-- struct HeapProfileTable::DumpArgs -->
        <class-decl name='DumpArgs' size-in-bits='128' is-struct='yes' visibility='default' filepath='src/heap-profile-table.h' line='242' column='1' id='type-id-213'>
          <member-type access='public'>
            <!-- typedef HeapProfileStats HeapProfileTable::DumpArgs::Stats -->
            <typedef-decl name='Stats' type-id='type-id-180' filepath='src/heap-profile-table.h' line='63' column='1' id='type-id-214'/>
          </member-type>
          <data-member access='public' layout-offset-in-bits='0'>
            <!-- RawFD HeapProfileTable::DumpArgs::fd -->
            <var-decl name='fd' type-id='type-id-75' visibility='default' filepath='src/heap-profile-table.h' line='248' column='1'/>
          </data-member>
          <data-member access='public' layout-offset-in-bits='64'>
            <!-- HeapProfileTable::DumpArgs::Stats* HeapProfileTable::DumpArgs::profile_stats -->
            <var-decl name='profile_stats' type-id='type-id-215' visibility='default' filepath='src/heap-profile-table.h' line='249' column='1'/>
          </data-member>
          <member-function access='public' constructor='yes'>
            <!-- HeapProfileTable::DumpArgs::DumpArgs(RawFD, HeapProfileTable::DumpArgs::Stats*) -->
            <function-decl name='DumpArgs' filepath='src/heap-profile-table.h' line='243' column='1' visibility='default' binding='global' size-in-bits='64'>
              <!-- implicit parameter of type 'HeapProfileTable::DumpArgs*' -->
              <parameter type-id='type-id-216' is-artificial='yes'/>
              <!-- parameter of type 'typedef RawFD' -->
              <parameter type-id='type-id-75'/>
              <!-- parameter of type 'HeapProfileTable::DumpArgs::Stats*' -->
              <parameter type-id='type-id-215'/>
              <!-- void -->
              <return type-id='type-id-60'/>
            </function-decl>
          </member-function>
        </class-decl>
      </member-type>
      <member-type access='private'>
        <!-- struct HeapProfileTable::Snapshot -->
        <class-decl name='Snapshot' size-in-bits='768' is-struct='yes' visibility='default' filepath='src/heap-profile-table.h' line='347' column='1' id='type-id-217'>
          <member-type access='private'>
            <!-- struct HeapProfileTable::Snapshot::Entry -->
            <class-decl name='Entry' size-in-bits='128' is-struct='yes' visibility='default' filepath='src/heap-profile-table.cc' line='514' column='1' id='type-id-218'>
              <data-member access='public' layout-offset-in-bits='0'>
                <!-- int HeapProfileTable::Snapshot::Entry::count -->
                <var-decl name='count' type-id='type-id-1' visibility='default' filepath='src/heap-profile-table.cc' line='515' column='1'/>
              </data-member>
              <data-member access='public' layout-offset-in-bits='32'>
                <!-- int HeapProfileTable::Snapshot::Entry::bytes -->
                <var-decl name='bytes' type-id='type-id-1' visibility='default' filepath='src/heap-profile-table.cc' line='516' column='1'/>
              </data-member>
              <data-member access='public' layout-offset-in-bits='64'>
                <!-- HeapProfileTable::AllocValue::Bucket* HeapProfileTable::Snapshot::Entry::bucket -->
                <var-decl name='bucket' type-id='type-id-219' visibility='default' filepath='src/heap-profile-table.cc' line='517' column='1'/>
              </data-member>
              <member-function access='public' constructor='yes'>
                <!-- HeapProfileTable::Snapshot::Entry::Entry() -->
                <function-decl name='Entry' filepath='src/heap-profile-table.cc' line='518' column='1' visibility='default' binding='global' size-in-bits='64'>
                  <!-- implicit parameter of type 'HeapProfileTable::Snapshot::Entry*' -->
                  <parameter type-id='type-id-220' is-artificial='yes'/>
                  <!-- void -->
                  <return type-id='type-id-60'/>
                </function-decl>
              </member-function>
            </class-decl>
          </member-type>
          <member-type access='private'>
            <!-- struct HeapProfileTable::Snapshot::ReportState -->
            <class-decl name='ReportState' size-in-bits='384' is-struct='yes' visibility='default' filepath='src/heap-profile-table.cc' line='528' column='1' id='type-id-221'>
              <data-member access='public' layout-offset-in-bits='0'>
                <!-- std::map<HeapProfileTable::Bucket*, HeapProfileTable::Snapshot::Entry, std::less<HeapProfileTable::Bucket*>, std::allocator<std::pair<HeapProfileTable::Bucket* const, HeapProfileTable::Snapshot::Entry> > > HeapProfileTable::Snapshot::ReportState::buckets_ -->
                <var-decl name='buckets_' type-id='type-id-222' visibility='default' filepath='src/heap-profile-table.cc' line='529' column='1'/>
              </data-member>
            </class-decl>
          </member-type>
          <data-member access='private' layout-offset-in-bits='0'>
            <!-- HeapProfileTable::AllocValue::Bucket HeapProfileTable::Snapshot::total_ -->
            <var-decl name='total_' type-id='type-id-211' visibility='default' filepath='src/heap-profile-table.h' line='372' column='1'/>
          </data-member>
          <data-member access='private' layout-offset-in-bits='448'>
            <!-- HeapProfileTable::AllocationMap HeapProfileTable::Snapshot::map_ -->
            <var-decl name='map_' type-id='type-id-223' visibility='default' filepath='src/heap-profile-table.h' line='376' column='1'/>
          </data-member>
          <member-function access='private' constructor='yes'>
            <!-- HeapProfileTable::Snapshot::Snapshot(HeapProfileTable::Allocator, HeapProfileTable::DeAllocator) -->
            <function-decl name='Snapshot' filepath='src/heap-profile-table.h' line='378' column='1' visibility='default' binding='global' size-in-bits='64'>
              <!-- implicit parameter of type 'HeapProfileTable::Snapshot*' -->
              <parameter type-id='type-id-224' is-artificial='yes'/>
              <!-- parameter of type 'typedef HeapProfileTable::Allocator' -->
              <parameter type-id='type-id-225'/>
              <!-- parameter of type 'typedef HeapProfileTable::DeAllocator' -->
              <parameter type-id='type-id-226'/>
              <!-- void -->
              <return type-id='type-id-60'/>
            </function-decl>
          </member-function>
          <member-function access='private' constructor='yes'>
            <!-- HeapProfileTable::Snapshot::Snapshot(const HeapProfileTable::Snapshot&) -->
            <function-decl name='Snapshot' filepath='src/heap-profile-table.h' line='396' column='1' visibility='default' binding='global' size-in-bits='64'>
              <!-- implicit parameter of type 'HeapProfileTable::Snapshot*' -->
              <parameter type-id='type-id-224' is-artificial='yes'/>
              <!-- parameter of type 'const HeapProfileTable::Snapshot&' -->
              <parameter type-id='type-id-227'/>
              <!-- void -->
              <return type-id='type-id-60'/>
            </function-decl>
          </member-function>
          <member-function access='private' static='yes'>
            <!-- void HeapProfileTable::Snapshot::ReportObject(HeapProfileTable::AllocValue*, char*) -->
            <function-decl name='ReportObject' mangled-name='_ZN16HeapProfileTable8Snapshot12ReportObjectEPKvPNS_10AllocValueEPc' filepath='src/heap-profile-table.cc' line='614' column='1' visibility='default' binding='global' size-in-bits='64' elf-symbol-id='_ZN16HeapProfileTable8Snapshot12ReportObjectEPKvPNS_10AllocValueEPc'>
              <!-- parameter of type 'void*' -->
              <parameter type-id='type-id-58'/>
              <!-- parameter of type 'HeapProfileTable::AllocValue*' -->
              <parameter type-id='type-id-228'/>
              <!-- parameter of type 'char*' -->
              <parameter type-id='type-id-118'/>
              <!-- void -->
              <return type-id='type-id-60'/>
            </function-decl>
          </member-function>
          <member-function access='public'>
            <!-- void HeapProfileTable::Snapshot::ReportIndividualObjects() -->
            <function-decl name='ReportIndividualObjects' mangled-name='_ZN16HeapProfileTable8Snapshot23ReportIndividualObjectsEv' filepath='src/heap-profile-table.cc' line='622' column='1' visibility='default' binding='global' size-in-bits='64' elf-symbol-id='_ZN16HeapProfileTable8Snapshot23ReportIndividualObjectsEv'>
              <!-- implicit parameter of type 'HeapProfileTable::Snapshot* const' -->
              <parameter type-id='type-id-229' name='this' is-artificial='yes'/>
              <!-- void -->
              <return type-id='type-id-60'/>
            </function-decl>
          </member-function>
          <member-function access='private' static='yes'>
            <!-- void HeapProfileTable::Snapshot::ReportCallback(HeapProfileTable::AllocValue*, HeapProfileTable::Snapshot::ReportState*) -->
            <function-decl name='ReportCallback' mangled-name='_ZN16HeapProfileTable8Snapshot14ReportCallbackEPKvPNS_10AllocValueEPNS0_11ReportStateE' filepath='src/heap-profile-table.cc' line='533' column='1' visibility='default' binding='global' size-in-bits='64' elf-symbol-id='_ZN16HeapProfileTable8Snapshot14ReportCallbackEPKvPNS_10AllocValueEPNS0_11ReportStateE'>
              <!-- parameter of type 'void*' -->
              <parameter type-id='type-id-58'/>
              <!-- parameter of type 'HeapProfileTable::AllocValue*' -->
              <parameter type-id='type-id-228'/>
              <!-- parameter of type 'HeapProfileTable::Snapshot::ReportState*' -->
              <parameter type-id='type-id-230'/>
              <!-- void -->
              <return type-id='type-id-60'/>
            </function-decl>
          </member-function>
          <member-function access='public'>
            <!-- void HeapProfileTable::Snapshot::ReportLeaks(const char*, const char*, bool) -->
            <function-decl name='ReportLeaks' mangled-name='_ZN16HeapProfileTable8Snapshot11ReportLeaksEPKcS2_b' filepath='src/heap-profile-table.cc' line='542' column='1' visibility='default' binding='global' size-in-bits='64' elf-symbol-id='_ZN16HeapProfileTable8Snapshot11ReportLeaksEPKcS2_b'>
              <!-- implicit parameter of type 'HeapProfileTable::Snapshot* const' -->
              <parameter type-id='type-id-229' name='this' is-artificial='yes'/>
              <!-- parameter of type 'const char*' -->
              <parameter type-id='type-id-57' name='checker_name' filepath='src/heap-profile-table.cc' line='542' column='1'/>
              <!-- parameter of type 'const char*' -->
              <parameter type-id='type-id-57' name='filename' filepath='src/heap-profile-table.cc' line='543' column='1'/>
              <!-- parameter of type 'bool' -->
              <parameter type-id='type-id-61' name='should_symbolize' filepath='src/heap-profile-table.cc' line='544' column='1'/>
              <!-- void -->
              <return type-id='type-id-60'/>
            </function-decl>
          </member-function>
        </class-decl>
      </member-type>
      <member-type access='private'>
        <!-- struct HeapProfileTable::AddNonLiveArgs -->
        <class-decl name='AddNonLiveArgs' size-in-bits='128' is-struct='yes' visibility='default' filepath='src/heap-profile-table.h' line='305' column='1' id='type-id-231'>
          <data-member access='public' layout-offset-in-bits='0'>
            <!-- HeapProfileTable::Snapshot* HeapProfileTable::AddNonLiveArgs::dest -->
            <var-decl name='dest' type-id='type-id-224' visibility='default' filepath='src/heap-profile-table.h' line='306' column='1'/>
          </data-member>
          <data-member access='public' layout-offset-in-bits='64'>
            <!-- HeapProfileTable::Snapshot* HeapProfileTable::AddNonLiveArgs::base -->
            <var-decl name='base' type-id='type-id-224' visibility='default' filepath='src/heap-profile-table.h' line='307' column='1'/>
          </data-member>
        </class-decl>
      </member-type>
      <member-type access='private'>
        <!-- struct HeapProfileTable::AllocContextInfo -->
        <class-decl name='AllocContextInfo' size-in-bits='320' is-struct='yes' visibility='default' filepath='src/heap-profile-table.h' line='77' column='1' id='type-id-232'>
          <!-- struct HeapProfileStats -->
          <base-class access='public' layout-offset-in-bits='0' type-id='type-id-180'/>
          <data-member access='public' layout-offset-in-bits='192'>
            <!-- int HeapProfileTable::AllocContextInfo::stack_depth -->
            <var-decl name='stack_depth' type-id='type-id-1' visibility='default' filepath='src/heap-profile-table.h' line='78' column='1'/>
          </data-member>
          <data-member access='public' layout-offset-in-bits='256'>
            <!-- void* const* HeapProfileTable::AllocContextInfo::call_stack -->
            <var-decl name='call_stack' type-id='type-id-205' visibility='default' filepath='src/heap-profile-table.h' line='79' column='1'/>
          </data-member>
        </class-decl>
      </member-type>
      <member-type access='private'>
        <!-- typedef void* (typedef size_t)* HeapProfileTable::Allocator -->
        <typedef-decl name='Allocator' type-id='type-id-233' filepath='src/heap-profile-table.h' line='83' column='1' id='type-id-225'/>
      </member-type>
      <member-type access='private'>
        <!-- typedef void (void*)* HeapProfileTable::DeAllocator -->
        <typedef-decl name='DeAllocator' type-id='type-id-234' filepath='src/heap-profile-table.h' line='84' column='1' id='type-id-226'/>
      </member-type>
      <member-type access='private'>
        <!-- typedef AddressMap<HeapProfileTable::AllocValue> HeapProfileTable::AllocationMap -->
        <typedef-decl name='AllocationMap' type-id='type-id-235' filepath='src/heap-profile-table.h' line='224' column='1' id='type-id-223'/>
      </member-type>
      <member-type access='private'>
        <!-- typedef void (void*, const HeapProfileTable::AllocInfo&)* HeapProfileTable::AllocIterator -->
        <typedef-decl name='AllocIterator' type-id='type-id-237' filepath='src/heap-profile-table.h' line='138' column='1' id='type-id-236'/>
      </member-type>
      <member-type access='private'>
        <!-- typedef void (const HeapProfileTable::AllocContextInfo&)* HeapProfileTable::AllocContextIterator -->
        <typedef-decl name='AllocContextIterator' type-id='type-id-239' filepath='src/heap-profile-table.h' line='147' column='1' id='type-id-238'/>
      </member-type>
      <member-type access='private'>
        <!-- struct HeapProfileTable::BufferArgs -->
        <class-decl name='BufferArgs' size-in-bits='128' is-struct='yes' visibility='default' filepath='src/heap-profile-table.h' line='227' column='1' id='type-id-240'>
          <data-member access='public' layout-offset-in-bits='0'>
            <!-- char* HeapProfileTable::BufferArgs::buf -->
            <var-decl name='buf' type-id='type-id-118' visibility='default' filepath='src/heap-profile-table.h' line='234' column='1'/>
          </data-member>
          <data-member access='public' layout-offset-in-bits='64'>
            <!-- int HeapProfileTable::BufferArgs::buflen -->
            <var-decl name='buflen' type-id='type-id-1' visibility='default' filepath='src/heap-profile-table.h' line='235' column='1'/>
          </data-member>
          <data-member access='public' layout-offset-in-bits='96'>
            <!-- int HeapProfileTable::BufferArgs::bufsize -->
            <var-decl name='bufsize' type-id='type-id-1' visibility='default' filepath='src/heap-profile-table.h' line='236' column='1'/>
          </data-member>
          <member-function access='public' constructor='yes'>
            <!-- HeapProfileTable::BufferArgs::BufferArgs(char*, int, int) -->
            <function-decl name='BufferArgs' filepath='src/heap-profile-table.h' line='228' column='1' visibility='default' binding='global' size-in-bits='64'>
              <!-- implicit parameter of type 'HeapProfileTable::BufferArgs*' -->
              <parameter type-id='type-id-200' is-artificial='yes'/>
              <!-- parameter of type 'char*' -->
              <parameter type-id='type-id-118'/>
              <!-- parameter of type 'int' -->
              <parameter type-id='type-id-1'/>
              <!-- parameter of type 'int' -->
              <parameter type-id='type-id-1'/>
              <!-- void -->
              <return type-id='type-id-60'/>
            </function-decl>
          </member-function>
          <member-function access='public' constructor='yes'>
            <!-- HeapProfileTable::BufferArgs::BufferArgs(const HeapProfileTable::BufferArgs&) -->
            <function-decl name='BufferArgs' filepath='src/heap-profile-table.h' line='238' column='1' visibility='default' binding='global' size-in-bits='64'>
              <!-- implicit parameter of type 'HeapProfileTable::BufferArgs*' -->
              <parameter type-id='type-id-200' is-artificial='yes'/>
              <!-- parameter of type 'const HeapProfileTable::BufferArgs&' -->
              <parameter type-id='type-id-241'/>
              <!-- void -->
              <return type-id='type-id-60'/>
            </function-decl>
          </member-function>
        </class-decl>
      </member-type>
      <member-type access='private'>
        <!-- struct HeapProfileTable::AllocInfo -->
        <class-decl name='AllocInfo' size-in-bits='192' is-struct='yes' visibility='default' filepath='src/heap-profile-table.h' line='66' column='1' id='type-id-242'>
          <data-member access='public' layout-offset-in-bits='0'>
            <!-- size_t HeapProfileTable::AllocInfo::object_size -->
            <var-decl name='object_size' type-id='type-id-62' visibility='default' filepath='src/heap-profile-table.h' line='67' column='1'/>
          </data-member>
          <data-member access='public' layout-offset-in-bits='64'>
            <!-- void* const* HeapProfileTable::AllocInfo::call_stack -->
            <var-decl name='call_stack' type-id='type-id-205' visibility='default' filepath='src/heap-profile-table.h' line='68' column='1'/>
          </data-member>
          <data-member access='public' layout-offset-in-bits='128'>
            <!-- int HeapProfileTable::AllocInfo::stack_depth -->
            <var-decl name='stack_depth' type-id='type-id-1' visibility='default' filepath='src/heap-profile-table.h' line='69' column='1'/>
          </data-member>
          <data-member access='public' layout-offset-in-bits='160'>
            <!-- bool HeapProfileTable::AllocInfo::live -->
            <var-decl name='live' type-id='type-id-61' visibility='default' filepath='src/heap-profile-table.h' line='70' column='1'/>
          </data-member>
          <data-member access='public' layout-offset-in-bits='168'>
            <!-- bool HeapProfileTable::AllocInfo::ignored -->
            <var-decl name='ignored' type-id='type-id-61' visibility='default' filepath='src/heap-profile-table.h' line='71' column='1'/>
          </data-member>
        </class-decl>
      </member-type>
      <data-member access='private' static='yes'>
        <!-- static char HeapProfileTable::kFileExt[] -->
        <var-decl name='kFileExt' type-id='type-id-159' mangled-name='_ZN16HeapProfileTable8kFileExtE' visibility='default' filepath='src/heap-profile-table.h' line='55' column='1' elf-symbol-id='_ZN16HeapProfileTable8kFileExtE'/>
      </data-member>
      <data-member access='private' static='yes'>
        <!-- static const int HeapProfileTable::kMaxStackDepth -->
        <var-decl name='kMaxStackDepth' type-id='type-id-144' mangled-name='_ZN16HeapProfileTable14kMaxStackDepthE' visibility='default' filepath='src/heap-profile-table.h' line='58' column='1' elf-symbol-id='_ZN16HeapProfileTable14kMaxStackDepthE'/>
      </data-member>
      <data-member access='private' layout-offset-in-bits='0'>
        <!-- HeapProfileTable::Allocator HeapProfileTable::alloc_ -->
        <var-decl name='alloc_' type-id='type-id-225' visibility='default' filepath='src/heap-profile-table.h' line='325' column='1'/>
      </data-member>
      <data-member access='private' layout-offset-in-bits='64'>
        <!-- HeapProfileTable::DeAllocator HeapProfileTable::dealloc_ -->
        <var-decl name='dealloc_' type-id='type-id-226' visibility='default' filepath='src/heap-profile-table.h' line='326' column='1'/>
      </data-member>
      <data-member access='private' layout-offset-in-bits='128'>
        <!-- HeapProfileTable::AllocValue::Bucket HeapProfileTable::total_ -->
        <var-decl name='total_' type-id='type-id-211' visibility='default' filepath='src/heap-profile-table.h' line='330' column='1'/>
      </data-member>
      <data-member access='private' layout-offset-in-bits='576'>
        <!-- bool HeapProfileTable::profile_mmap_ -->
        <var-decl name='profile_mmap_' type-id='type-id-61' visibility='default' filepath='src/heap-profile-table.h' line='332' column='1'/>
      </data-member>
      <data-member access='private' layout-offset-in-bits='640'>
        <!-- HeapProfileTable::AllocValue::Bucket** HeapProfileTable::bucket_table_ -->
        <var-decl name='bucket_table_' type-id='type-id-243' visibility='default' filepath='src/heap-profile-table.h' line='338' column='1'/>
      </data-member>
      <data-member access='private' layout-offset-in-bits='704'>
        <!-- int HeapProfileTable::num_buckets_ -->
        <var-decl name='num_buckets_' type-id='type-id-1' visibility='default' filepath='src/heap-profile-table.h' line='339' column='1'/>
      </data-member>
      <data-member access='private' layout-offset-in-bits='768'>
        <!-- HeapProfileTable::AllocationMap* HeapProfileTable::address_map_ -->
        <var-decl name='address_map_' type-id='type-id-244' visibility='default' filepath='src/heap-profile-table.h' line='342' column='1'/>
      </data-member>
      <member-function access='private' constructor='yes'>
        <!-- HeapProfileTable::HeapProfileTable(HeapProfileTable::Allocator, HeapProfileTable::DeAllocator, bool) -->
        <function-decl name='HeapProfileTable' mangled-name='_ZN16HeapProfileTableC2EPFPvmEPFvS0_Eb' filepath='src/heap-profile-table.h' line='88' column='1' visibility='default' binding='global' size-in-bits='64' elf-symbol-id='_ZN16HeapProfileTableC2EPFPvmEPFvS0_Eb'>
          <!-- implicit parameter of type 'HeapProfileTable*' -->
          <parameter type-id='type-id-245' is-artificial='yes'/>
          <!-- parameter of type 'typedef HeapProfileTable::Allocator' -->
          <parameter type-id='type-id-225'/>
          <!-- parameter of type 'typedef HeapProfileTable::DeAllocator' -->
          <parameter type-id='type-id-226'/>
          <!-- parameter of type 'bool' -->
          <parameter type-id='type-id-61'/>
          <!-- void -->
          <return type-id='type-id-60'/>
        </function-decl>
      </member-function>
      <member-function access='private' destructor='yes'>
        <!-- HeapProfileTable::~HeapProfileTable(int) -->
        <function-decl name='~HeapProfileTable' mangled-name='_ZN16HeapProfileTableD1Ev' filepath='src/heap-profile-table.h' line='89' column='1' visibility='default' binding='global' size-in-bits='64' elf-symbol-id='_ZN16HeapProfileTableD1Ev'>
          <!-- implicit parameter of type 'HeapProfileTable*' -->
          <parameter type-id='type-id-245' is-artificial='yes'/>
          <!-- artificial parameter of type 'int' -->
          <parameter type-id='type-id-1' is-artificial='yes'/>
          <!-- void -->
          <return type-id='type-id-60'/>
        </function-decl>
      </member-function>
      <member-function access='private' constructor='yes'>
        <!-- HeapProfileTable::HeapProfileTable(const HeapProfileTable&) -->
        <function-decl name='HeapProfileTable' filepath='src/heap-profile-table.h' line='344' column='1' visibility='default' binding='global' size-in-bits='64'>
          <!-- implicit parameter of type 'HeapProfileTable*' -->
          <parameter type-id='type-id-245' is-artificial='yes'/>
          <!-- parameter of type 'const HeapProfileTable&' -->
          <parameter type-id='type-id-246'/>
          <!-- void -->
          <return type-id='type-id-60'/>
        </function-decl>
      </member-function>
      <member-function access='private' static='yes'>
        <!-- void HeapProfileTable::MapArgsAllocIterator(HeapProfileTable::AllocValue*, HeapProfileTable::AllocIterator) -->
        <function-decl name='MapArgsAllocIterator' mangled-name='_ZN16HeapProfileTable20MapArgsAllocIteratorEPKvPNS_10AllocValueEPFvS1_RKNS_9AllocInfoEE' filepath='src/heap-profile-table.h' line='276' column='1' declared-inline='yes' visibility='default' binding='global' size-in-bits='64' elf-symbol-id='_ZN16HeapProfileTable20MapArgsAllocIteratorEPKvPNS_10AllocValueEPFvS1_RKNS_9AllocInfoEE'>
          <!-- parameter of type 'void*' -->
          <parameter type-id='type-id-58'/>
          <!-- parameter of type 'HeapProfileTable::AllocValue*' -->
          <parameter type-id='type-id-228'/>
          <!-- parameter of type 'typedef HeapProfileTable::AllocIterator' -->
          <parameter type-id='type-id-236'/>
          <!-- void -->
          <return type-id='type-id-60'/>
        </function-decl>
      </member-function>
      <member-function access='private' static='yes'>
        <!-- size_t HeapProfileTable::AllocValueSize() -->
        <function-decl name='AllocValueSize' mangled-name='_ZN16HeapProfileTable14AllocValueSizeERKNS_10AllocValueE' filepath='src/heap-profile-table.h' line='222' column='1' declared-inline='yes' visibility='default' binding='global' size-in-bits='64' elf-symbol-id='_ZN16HeapProfileTable14AllocValueSizeERKNS_10AllocValueE'>
          <!-- parameter of type 'const HeapProfileTable::AllocValue&' -->
          <parameter type-id='type-id-247' name='v' filepath='src/heap-profile-table.h' line='222' column='1'/>
          <!-- typedef size_t -->
          <return type-id='type-id-62'/>
        </function-decl>
      </member-function>
      <member-function access='private'>
        <!-- void HeapProfileTable::ReleaseSnapshot(HeapProfileTable::Snapshot*) -->
        <function-decl name='ReleaseSnapshot' mangled-name='_ZN16HeapProfileTable15ReleaseSnapshotEPNS_8SnapshotE' filepath='src/heap-profile-table.cc' line='485' column='1' visibility='default' binding='global' size-in-bits='64' elf-symbol-id='_ZN16HeapProfileTable15ReleaseSnapshotEPNS_8SnapshotE'>
          <!-- implicit parameter of type 'HeapProfileTable* const' -->
          <parameter type-id='type-id-248' name='this' is-artificial='yes'/>
          <!-- parameter of type 'HeapProfileTable::Snapshot*' -->
          <parameter type-id='type-id-224' name='s' filepath='src/heap-profile-table.cc' line='485' column='1'/>
          <!-- void -->
          <return type-id='type-id-60'/>
        </function-decl>
      </member-function>
      <member-function access='private' static='yes'>
        <!-- int HeapProfileTable::UnparseBucket(char*, int, int, const char*, HeapProfileTable::DumpArgs::Stats*) -->
        <function-decl name='UnparseBucket' mangled-name='_ZN16HeapProfileTable13UnparseBucketERK17HeapProfileBucketPciiPKcP16HeapProfileStats' filepath='src/heap-profile-table.cc' line='280' column='1' visibility='default' binding='global' size-in-bits='64' elf-symbol-id='_ZN16HeapProfileTable13UnparseBucketERK17HeapProfileBucketPciiPKcP16HeapProfileStats'>
          <!-- parameter of type 'const HeapProfileTable::AllocValue::Bucket&' -->
          <parameter type-id='type-id-249' name='b' filepath='src/heap-profile-table.cc' line='280' column='1'/>
          <!-- parameter of type 'char*' -->
          <parameter type-id='type-id-118' name='buf' filepath='src/heap-profile-table.cc' line='281' column='1'/>
          <!-- parameter of type 'int' -->
          <parameter type-id='type-id-1' name='buflen' filepath='src/heap-profile-table.cc' line='281' column='1'/>
          <!-- parameter of type 'int' -->
          <parameter type-id='type-id-1' name='bufsize' filepath='src/heap-profile-table.cc' line='281' column='1'/>
          <!-- parameter of type 'const char*' -->
          <parameter type-id='type-id-57' name='extra' filepath='src/heap-profile-table.cc' line='282' column='1'/>
          <!-- parameter of type 'HeapProfileTable::DumpArgs::Stats*' -->
          <parameter type-id='type-id-215' name='profile_stats' filepath='src/heap-profile-table.cc' line='283' column='1'/>
          <!-- int -->
          <return type-id='type-id-1'/>
        </function-decl>
      </member-function>
      <member-function access='private' static='yes'>
        <!-- void HeapProfileTable::DumpNonLiveIterator(HeapProfileTable::AllocValue*, const HeapProfileTable::DumpArgs&) -->
        <function-decl name='DumpNonLiveIterator' mangled-name='_ZN16HeapProfileTable19DumpNonLiveIteratorEPKvPNS_10AllocValueERKNS_8DumpArgsE' filepath='src/heap-profile-table.cc' line='397' column='1' declared-inline='yes' visibility='default' binding='global' size-in-bits='64' elf-symbol-id='_ZN16HeapProfileTable19DumpNonLiveIteratorEPKvPNS_10AllocValueERKNS_8DumpArgsE'>
          <!-- parameter of type 'void*' -->
          <parameter type-id='type-id-58' name='ptr' filepath='src/heap-profile-table.cc' line='397' column='1'/>
          <!-- parameter of type 'HeapProfileTable::AllocValue*' -->
          <parameter type-id='type-id-228' name='v' filepath='src/heap-profile-table.cc' line='397' column='1'/>
          <!-- parameter of type 'const HeapProfileTable::DumpArgs&' -->
          <parameter type-id='type-id-250' name='args' filepath='src/heap-profile-table.cc' line='398' column='1'/>
          <!-- void -->
          <return type-id='type-id-60'/>
        </function-decl>
      </member-function>
      <member-function access='private' static='yes'>
        <!-- void HeapProfileTable::DumpBucketIterator(HeapProfileTable::BufferArgs*) -->
        <function-decl name='DumpBucketIterator' mangled-name='_ZN16HeapProfileTable18DumpBucketIteratorEPK17HeapProfileBucketPNS_10BufferArgsE' filepath='src/heap-profile-table.cc' line='390' column='1' declared-inline='yes' visibility='default' binding='global' size-in-bits='64' elf-symbol-id='_ZN16HeapProfileTable18DumpBucketIteratorEPK17HeapProfileBucketPNS_10BufferArgsE'>
          <!-- parameter of type 'const HeapProfileTable::AllocValue::Bucket*' -->
          <parameter type-id='type-id-251'/>
          <!-- parameter of type 'HeapProfileTable::BufferArgs*' -->
          <parameter type-id='type-id-200'/>
          <!-- void -->
          <return type-id='type-id-60'/>
        </function-decl>
      </member-function>
      <member-function access='private'>
        <!-- HeapProfileTable::AllocValue::Bucket* HeapProfileTable::GetBucket(int, void* const*) -->
        <function-decl name='GetBucket' mangled-name='_ZN16HeapProfileTable9GetBucketEiPKPKv' filepath='src/heap-profile-table.cc' line='167' column='1' visibility='default' binding='global' size-in-bits='64' elf-symbol-id='_ZN16HeapProfileTable9GetBucketEiPKPKv'>
          <!-- implicit parameter of type 'HeapProfileTable* const' -->
          <parameter type-id='type-id-248' name='this' is-artificial='yes'/>
          <!-- parameter of type 'int' -->
          <parameter type-id='type-id-1' name='depth' filepath='src/heap-profile-table.cc' line='167' column='1'/>
          <!-- parameter of type 'void* const*' -->
          <parameter type-id='type-id-205' name='key' filepath='src/heap-profile-table.cc' line='168' column='1'/>
          <!-- HeapProfileTable::AllocValue::Bucket* -->
          <return type-id='type-id-219'/>
        </function-decl>
      </member-function>
      <member-function access='private' static='yes'>
        <!-- int HeapProfileTable::GetCallerStackTrace(void**) -->
        <function-decl name='GetCallerStackTrace' mangled-name='_ZN16HeapProfileTable19GetCallerStackTraceEiPPv' filepath='src/heap-profile-table.cc' line='204' column='1' visibility='default' binding='global' size-in-bits='64' elf-symbol-id='_ZN16HeapProfileTable19GetCallerStackTraceEiPPv'>
          <!-- parameter of type 'int' -->
          <parameter type-id='type-id-1'/>
          <!-- parameter of type 'void**' -->
          <parameter type-id='type-id-151'/>
          <!-- int -->
          <return type-id='type-id-1'/>
        </function-decl>
      </member-function>
      <member-function access='private'>
        <!-- HeapProfileTable::AllocValue::Bucket** HeapProfileTable::MakeSortedBucketList() -->
        <function-decl name='MakeSortedBucketList' mangled-name='_ZNK16HeapProfileTable20MakeSortedBucketListEv' filepath='src/heap-profile-table.cc' line='313' column='1' visibility='default' binding='global' size-in-bits='64' elf-symbol-id='_ZNK16HeapProfileTable20MakeSortedBucketListEv'>
          <!-- implicit parameter of type 'const HeapProfileTable* const' -->
          <parameter type-id='type-id-252' name='this' is-artificial='yes'/>
          <!-- HeapProfileTable::AllocValue::Bucket** -->
          <return type-id='type-id-243'/>
        </function-decl>
      </member-function>
      <member-function access='private'>
        <!-- void HeapProfileTable::IterateOrderedAllocContexts(HeapProfileTable::AllocContextIterator) -->
        <function-decl name='IterateOrderedAllocContexts' mangled-name='_ZNK16HeapProfileTable27IterateOrderedAllocContextsEPFvRKNS_16AllocContextInfoEE' filepath='src/heap-profile-table.cc' line='329' column='1' visibility='default' binding='global' size-in-bits='64' elf-symbol-id='_ZNK16HeapProfileTable27IterateOrderedAllocContextsEPFvRKNS_16AllocContextInfoEE'>
          <!-- implicit parameter of type 'const HeapProfileTable* const' -->
          <parameter type-id='type-id-252' name='this' is-artificial='yes'/>
          <!-- parameter of type 'typedef HeapProfileTable::AllocContextIterator' -->
          <parameter type-id='type-id-238' name='callback' filepath='src/heap-profile-table.cc' line='330' column='1'/>
          <!-- void -->
          <return type-id='type-id-60'/>
        </function-decl>
      </member-function>
      <member-function access='private'>
        <!-- int HeapProfileTable::FillOrderedProfile(char*, int) -->
        <function-decl name='FillOrderedProfile' mangled-name='_ZNK16HeapProfileTable18FillOrderedProfileEPci' filepath='src/heap-profile-table.cc' line='342' column='1' visibility='default' binding='global' size-in-bits='64' elf-symbol-id='_ZNK16HeapProfileTable18FillOrderedProfileEPci'>
          <!-- implicit parameter of type 'const HeapProfileTable* const' -->
          <parameter type-id='type-id-252' name='this' is-artificial='yes'/>
          <!-- parameter of type 'char*' -->
          <parameter type-id='type-id-118' name='buf' filepath='src/heap-profile-table.cc' line='342' column='1'/>
          <!-- parameter of type 'int' -->
          <parameter type-id='type-id-1' name='size' filepath='src/heap-profile-table.cc' line='342' column='1'/>
          <!-- int -->
          <return type-id='type-id-1'/>
        </function-decl>
      </member-function>
      <member-function access='private'>
        <!-- void HeapProfileTable::MarkAsIgnored(void*) -->
        <function-decl name='MarkAsIgnored' mangled-name='_ZN16HeapProfileTable13MarkAsIgnoredEPKv' filepath='src/heap-profile-table.cc' line='272' column='1' visibility='default' binding='global' size-in-bits='64' elf-symbol-id='_ZN16HeapProfileTable13MarkAsIgnoredEPKv'>
          <!-- implicit parameter of type 'HeapProfileTable* const' -->
          <parameter type-id='type-id-248' name='this' is-artificial='yes'/>
          <!-- parameter of type 'void*' -->
          <parameter type-id='type-id-58' name='ptr' filepath='src/heap-profile-table.cc' line='272' column='1'/>
          <!-- void -->
          <return type-id='type-id-60'/>
        </function-decl>
      </member-function>
      <member-function access='private' static='yes'>
        <!-- bool HeapProfileTable::WriteProfile(const HeapProfileTable::AllocValue::Bucket&, HeapProfileTable::AllocationMap*) -->
        <function-decl name='WriteProfile' mangled-name='_ZN16HeapProfileTable12WriteProfileEPKcRK17HeapProfileBucketP10AddressMapINS_10AllocValueEE' filepath='src/heap-profile-table.cc' line='432' column='1' visibility='default' binding='global' size-in-bits='64' elf-symbol-id='_ZN16HeapProfileTable12WriteProfileEPKcRK17HeapProfileBucketP10AddressMapINS_10AllocValueEE'>
          <!-- parameter of type 'const char*' -->
          <parameter type-id='type-id-57' name='file_name' filepath='src/heap-profile-table.cc' line='432' column='1'/>
          <!-- parameter of type 'const HeapProfileTable::AllocValue::Bucket&' -->
          <parameter type-id='type-id-249' name='total' filepath='src/heap-profile-table.cc' line='433' column='1'/>
          <!-- parameter of type 'HeapProfileTable::AllocationMap*' -->
          <parameter type-id='type-id-244' name='allocations' filepath='src/heap-profile-table.cc' line='434' column='1'/>
          <!-- bool -->
          <return type-id='type-id-61'/>
        </function-decl>
      </member-function>
      <member-function access='private'>
        <!-- bool HeapProfileTable::FindInsideAlloc(void*, size_t, void**, size_t*) -->
        <function-decl name='FindInsideAlloc' mangled-name='_ZNK16HeapProfileTable15FindInsideAllocEPKvmPS1_Pm' filepath='src/heap-profile-table.cc' line='253' column='1' visibility='default' binding='global' size-in-bits='64' elf-symbol-id='_ZNK16HeapProfileTable15FindInsideAllocEPKvmPS1_Pm'>
          <!-- implicit parameter of type 'const HeapProfileTable* const' -->
          <parameter type-id='type-id-252' name='this' is-artificial='yes'/>
          <!-- parameter of type 'void*' -->
          <parameter type-id='type-id-58' name='ptr' filepath='src/heap-profile-table.cc' line='253' column='1'/>
          <!-- parameter of type 'typedef size_t' -->
          <parameter type-id='type-id-62' name='max_size' filepath='src/heap-profile-table.cc' line='254' column='1'/>
          <!-- parameter of type 'void**' -->
          <parameter type-id='type-id-151' name='object_ptr' filepath='src/heap-profile-table.cc' line='255' column='1'/>
          <!-- parameter of type 'size_t*' -->
          <parameter type-id='type-id-253' name='object_size' filepath='src/heap-profile-table.cc' line='256' column='1'/>
          <!-- bool -->
          <return type-id='type-id-61'/>
        </function-decl>
      </member-function>
      <member-function access='private' static='yes'>
        <!-- void HeapProfileTable::AddToSnapshot(HeapProfileTable::AllocValue*, HeapProfileTable::Snapshot*) -->
        <function-decl name='AddToSnapshot' mangled-name='_ZN16HeapProfileTable13AddToSnapshotEPKvPNS_10AllocValueEPNS_8SnapshotE' filepath='src/heap-profile-table.cc' line='491' column='1' visibility='default' binding='global' size-in-bits='64' elf-symbol-id='_ZN16HeapProfileTable13AddToSnapshotEPKvPNS_10AllocValueEPNS_8SnapshotE'>
          <!-- parameter of type 'void*' -->
          <parameter type-id='type-id-58'/>
          <!-- parameter of type 'HeapProfileTable::AllocValue*' -->
          <parameter type-id='type-id-228'/>
          <!-- parameter of type 'HeapProfileTable::Snapshot*' -->
          <parameter type-id='type-id-224'/>
          <!-- void -->
          <return type-id='type-id-60'/>
        </function-decl>
      </member-function>
      <member-function access='private'>
        <!-- HeapProfileTable::Snapshot* HeapProfileTable::TakeSnapshot() -->
        <function-decl name='TakeSnapshot' mangled-name='_ZN16HeapProfileTable12TakeSnapshotEv' filepath='src/heap-profile-table.cc' line='479' column='1' visibility='default' binding='global' size-in-bits='64' elf-symbol-id='_ZN16HeapProfileTable12TakeSnapshotEv'>
          <!-- implicit parameter of type 'HeapProfileTable* const' -->
          <parameter type-id='type-id-248' name='this' is-artificial='yes'/>
          <!-- HeapProfileTable::Snapshot* -->
          <return type-id='type-id-224'/>
        </function-decl>
      </member-function>
      <member-function access='private'>
        <!-- void HeapProfileTable::RecordAlloc(void*, size_t, int, void* const*) -->
        <function-decl name='RecordAlloc' mangled-name='_ZN16HeapProfileTable11RecordAllocEPKvmiPKS1_' filepath='src/heap-profile-table.cc' line='210' column='1' visibility='default' binding='global' size-in-bits='64' elf-symbol-id='_ZN16HeapProfileTable11RecordAllocEPKvmiPKS1_'>
          <!-- implicit parameter of type 'HeapProfileTable* const' -->
          <parameter type-id='type-id-248' name='this' is-artificial='yes'/>
          <!-- parameter of type 'void*' -->
          <parameter type-id='type-id-58' name='ptr' filepath='src/heap-profile-table.cc' line='211' column='1'/>
          <!-- parameter of type 'typedef size_t' -->
          <parameter type-id='type-id-62' name='bytes' filepath='src/heap-profile-table.cc' line='211' column='1'/>
          <!-- parameter of type 'int' -->
          <parameter type-id='type-id-1' name='stack_depth' filepath='src/heap-profile-table.cc' line='211' column='1'/>
          <!-- parameter of type 'void* const*' -->
          <parameter type-id='type-id-205' name='call_stack' filepath='src/heap-profile-table.cc' line='212' column='1'/>
          <!-- void -->
          <return type-id='type-id-60'/>
        </function-decl>
      </member-function>
      <member-function access='private'>
        <!-- void HeapProfileTable::RecordFree(void*) -->
        <function-decl name='RecordFree' mangled-name='_ZN16HeapProfileTable10RecordFreeEPKv' filepath='src/heap-profile-table.cc' line='225' column='1' visibility='default' binding='global' size-in-bits='64' elf-symbol-id='_ZN16HeapProfileTable10RecordFreeEPKv'>
          <!-- implicit parameter of type 'HeapProfileTable* const' -->
          <parameter type-id='type-id-248' name='this' is-artificial='yes'/>
          <!-- parameter of type 'void*' -->
          <parameter type-id='type-id-58' name='ptr' filepath='src/heap-profile-table.cc' line='272' column='1'/>
          <!-- void -->
          <return type-id='type-id-60'/>
        </function-decl>
      </member-function>
      <member-function access='private' static='yes'>
        <!-- void HeapProfileTable::AddIfNonLive(HeapProfileTable::AllocValue*, HeapProfileTable::AddNonLiveArgs*) -->
        <function-decl name='AddIfNonLive' mangled-name='_ZN16HeapProfileTable12AddIfNonLiveEPKvPNS_10AllocValueEPNS_14AddNonLiveArgsE' filepath='src/heap-profile-table.cc' line='419' column='1' visibility='default' binding='global' size-in-bits='64' elf-symbol-id='_ZN16HeapProfileTable12AddIfNonLiveEPKvPNS_10AllocValueEPNS_14AddNonLiveArgsE'>
          <!-- parameter of type 'void*' -->
          <parameter type-id='type-id-58'/>
          <!-- parameter of type 'HeapProfileTable::AllocValue*' -->
          <parameter type-id='type-id-228'/>
          <!-- parameter of type 'HeapProfileTable::AddNonLiveArgs*' -->
          <parameter type-id='type-id-254'/>
          <!-- void -->
          <return type-id='type-id-60'/>
        </function-decl>
      </member-function>
      <member-function access='private'>
        <!-- HeapProfileTable::Snapshot* HeapProfileTable::NonLiveSnapshot(HeapProfileTable::Snapshot*) -->
        <function-decl name='NonLiveSnapshot' mangled-name='_ZN16HeapProfileTable15NonLiveSnapshotEPNS_8SnapshotE' filepath='src/heap-profile-table.cc' line='496' column='1' visibility='default' binding='global' size-in-bits='64' elf-symbol-id='_ZN16HeapProfileTable15NonLiveSnapshotEPNS_8SnapshotE'>
          <!-- implicit parameter of type 'HeapProfileTable* const' -->
          <parameter type-id='type-id-248' name='this' is-artificial='yes'/>
          <!-- parameter of type 'HeapProfileTable::Snapshot*' -->
          <parameter type-id='type-id-224' name='base' filepath='src/heap-profile-table.cc' line='497' column='1'/>
          <!-- HeapProfileTable::Snapshot* -->
          <return type-id='type-id-224'/>
        </function-decl>
      </member-function>
      <member-function access='private'>
        <!-- bool HeapProfileTable::MarkAsLive(void*) -->
        <function-decl name='MarkAsLive' mangled-name='_ZN16HeapProfileTable10MarkAsLiveEPKv' filepath='src/heap-profile-table.cc' line='263' column='1' visibility='default' binding='global' size-in-bits='64' elf-symbol-id='_ZN16HeapProfileTable10MarkAsLiveEPKv'>
          <!-- implicit parameter of type 'HeapProfileTable* const' -->
          <parameter type-id='type-id-248' name='this' is-artificial='yes'/>
          <!-- parameter of type 'void*' -->
          <parameter type-id='type-id-58' name='ptr' filepath='src/heap-profile-table.cc' line='263' column='1'/>
          <!-- bool -->
          <return type-id='type-id-61'/>
        </function-decl>
      </member-function>
      <member-function access='private' static='yes'>
        <!-- void HeapProfileTable::CleanupOldProfiles() -->
        <function-decl name='CleanupOldProfiles' mangled-name='_ZN16HeapProfileTable18CleanupOldProfilesEPKc' filepath='src/heap-profile-table.cc' line='455' column='1' visibility='default' binding='global' size-in-bits='64' elf-symbol-id='_ZN16HeapProfileTable18CleanupOldProfilesEPKc'>
          <!-- parameter of type 'const char*' -->
          <parameter type-id='type-id-57'/>
          <!-- void -->
          <return type-id='type-id-60'/>
        </function-decl>
      </member-function>
      <member-function access='private'>
        <!-- bool HeapProfileTable::FindAllocDetails(void*, HeapProfileTable::AllocInfo*) -->
        <function-decl name='FindAllocDetails' mangled-name='_ZNK16HeapProfileTable16FindAllocDetailsEPKvPNS_9AllocInfoE' filepath='src/heap-profile-table.cc' line='242' column='1' visibility='default' binding='global' size-in-bits='64' elf-symbol-id='_ZNK16HeapProfileTable16FindAllocDetailsEPKvPNS_9AllocInfoE'>
          <!-- implicit parameter of type 'const HeapProfileTable* const' -->
          <parameter type-id='type-id-252' name='this' is-artificial='yes'/>
          <!-- parameter of type 'void*' -->
          <parameter type-id='type-id-58' name='ptr' filepath='src/heap-profile-table.cc' line='242' column='1'/>
          <!-- parameter of type 'HeapProfileTable::AllocInfo*' -->
          <parameter type-id='type-id-255' name='info' filepath='src/heap-profile-table.cc' line='243' column='1'/>
          <!-- bool -->
          <return type-id='type-id-61'/>
        </function-decl>
      </member-function>
      <member-function access='private'>
        <!-- bool HeapProfileTable::FindAlloc(void*, size_t*) -->
        <function-decl name='FindAlloc' mangled-name='_ZNK16HeapProfileTable9FindAllocEPKvPm' filepath='src/heap-profile-table.cc' line='236' column='1' visibility='default' binding='global' size-in-bits='64' elf-symbol-id='_ZNK16HeapProfileTable9FindAllocEPKvPm'>
          <!-- implicit parameter of type 'const HeapProfileTable* const' -->
          <parameter type-id='type-id-252' name='this' is-artificial='yes'/>
          <!-- parameter of type 'void*' -->
          <parameter type-id='type-id-58' name='ptr' filepath='src/heap-profile-table.cc' line='236' column='1'/>
          <!-- parameter of type 'size_t*' -->
          <parameter type-id='type-id-253' name='object_size' filepath='src/heap-profile-table.cc' line='236' column='1'/>
          <!-- bool -->
          <return type-id='type-id-61'/>
        </function-decl>
      </member-function>
    </class-decl>
    <!-- class LowLevelAlloc -->
    <class-decl name='LowLevelAlloc' size-in-bits='8' visibility='default' filepath='src/base/low_level_alloc.h' line='44' column='1' id='type-id-86'>
      <member-type access='private'>
        <!-- struct LowLevelAlloc::Arena -->
        <class-decl name='Arena' size-in-bits='2560' is-struct='yes' visibility='default' filepath='src/base/low_level_alloc.cc' line='184' column='1' id='type-id-84'>
          <data-member access='public' layout-offset-in-bits='0'>
            <!-- SpinLock LowLevelAlloc::Arena::mu -->
            <var-decl name='mu' type-id='type-id-87' visibility='default' filepath='src/base/low_level_alloc.cc' line='189' column='1'/>
          </data-member>
          <data-member access='public' layout-offset-in-bits='64'>
            <!-- low_level_alloc_internal::AllocList LowLevelAlloc::Arena::freelist -->
            <var-decl name='freelist' type-id='type-id-80' visibility='default' filepath='src/base/low_level_alloc.cc' line='191' column='1'/>
          </data-member>
          <data-member access='public' layout-offset-in-bits='2304'>
            <!-- int32 LowLevelAlloc::Arena::allocation_count -->
            <var-decl name='allocation_count' type-id='type-id-74' visibility='default' filepath='src/base/low_level_alloc.cc' line='192' column='1'/>
          </data-member>
          <data-member access='public' layout-offset-in-bits='2336'>
            <!-- int32 LowLevelAlloc::Arena::flags -->
            <var-decl name='flags' type-id='type-id-74' visibility='default' filepath='src/base/low_level_alloc.cc' line='193' column='1'/>
          </data-member>
          <data-member access='public' layout-offset-in-bits='2368'>
            <!-- size_t LowLevelAlloc::Arena::pagesize -->
            <var-decl name='pagesize' type-id='type-id-62' visibility='default' filepath='src/base/low_level_alloc.cc' line='194' column='1'/>
          </data-member>
          <data-member access='public' layout-offset-in-bits='2432'>
            <!-- size_t LowLevelAlloc::Arena::roundup -->
            <var-decl name='roundup' type-id='type-id-62' visibility='default' filepath='src/base/low_level_alloc.cc' line='195' column='1'/>
          </data-member>
          <data-member access='public' layout-offset-in-bits='2496'>
            <!-- size_t LowLevelAlloc::Arena::min_size -->
            <var-decl name='min_size' type-id='type-id-62' visibility='default' filepath='src/base/low_level_alloc.cc' line='197' column='1'/>
          </data-member>
          <member-function access='public' constructor='yes'>
            <!-- LowLevelAlloc::Arena::Arena() -->
            <function-decl name='Arena' filepath='src/base/low_level_alloc.cc' line='185' column='1' visibility='default' binding='global' size-in-bits='64'>
              <!-- implicit parameter of type 'LowLevelAlloc::Arena*' -->
              <parameter type-id='type-id-83' is-artificial='yes'/>
              <!-- void -->
              <return type-id='type-id-60'/>
            </function-decl>
          </member-function>
          <member-function access='public' constructor='yes'>
            <!-- LowLevelAlloc::Arena::Arena(int) -->
            <function-decl name='Arena' filepath='src/base/low_level_alloc.cc' line='186' column='1' visibility='default' binding='global' size-in-bits='64'>
              <!-- implicit parameter of type 'LowLevelAlloc::Arena*' -->
              <parameter type-id='type-id-83' is-artificial='yes'/>
              <!-- parameter of type 'int' -->
              <parameter type-id='type-id-1'/>
              <!-- void -->
              <return type-id='type-id-60'/>
            </function-decl>
          </member-function>
        </class-decl>
      </member-type>
      <member-function access='private' static='yes'>
        <!-- LowLevelAlloc::Arena* LowLevelAlloc::DefaultArena() -->
        <function-decl name='DefaultArena' mangled-name='_ZN13LowLevelAlloc12DefaultArenaEv' filepath='src/base/low_level_alloc.cc' line='521' column='1' visibility='default' binding='global' size-in-bits='64' elf-symbol-id='_ZN13LowLevelAlloc12DefaultArenaEv'>
          <!-- LowLevelAlloc::Arena* -->
          <return type-id='type-id-83'/>
        </function-decl>
      </member-function>
      <member-function access='private' static='yes'>
        <!-- void* LowLevelAlloc::AllocWithArena(LowLevelAlloc::Arena*) -->
        <function-decl name='AllocWithArena' mangled-name='_ZN13LowLevelAlloc14AllocWithArenaEmPNS_5ArenaE' filepath='src/base/low_level_alloc.cc' line='510' column='1' visibility='default' binding='global' size-in-bits='64' elf-symbol-id='_ZN13LowLevelAlloc14AllocWithArenaEmPNS_5ArenaE'>
          <!-- parameter of type 'typedef size_t' -->
          <parameter type-id='type-id-62'/>
          <!-- parameter of type 'LowLevelAlloc::Arena*' -->
          <parameter type-id='type-id-83'/>
          <!-- void* -->
          <return type-id='type-id-58'/>
        </function-decl>
      </member-function>
      <member-function access='private' static='yes'>
        <!-- LowLevelAlloc::Arena* LowLevelAlloc::NewArena(LowLevelAlloc::Arena*) -->
        <function-decl name='NewArena' mangled-name='_ZN13LowLevelAlloc8NewArenaEiPNS_5ArenaE' filepath='src/base/low_level_alloc.cc' line='296' column='1' visibility='default' binding='global' size-in-bits='64' elf-symbol-id='_ZN13LowLevelAlloc8NewArenaEiPNS_5ArenaE'>
          <!-- parameter of type 'typedef int32' -->
          <parameter type-id='type-id-74'/>
          <!-- parameter of type 'LowLevelAlloc::Arena*' -->
          <parameter type-id='type-id-83'/>
          <!-- LowLevelAlloc::Arena* -->
          <return type-id='type-id-83'/>
        </function-decl>
      </member-function>
      <member-function access='private' static='yes'>
        <!-- void* LowLevelAlloc::Alloc() -->
        <function-decl name='Alloc' mangled-name='_ZN13LowLevelAlloc5AllocEm' filepath='src/base/low_level_alloc.cc' line='500' column='1' visibility='default' binding='global' size-in-bits='64' elf-symbol-id='_ZN13LowLevelAlloc5AllocEm'>
          <!-- parameter of type 'typedef size_t' -->
          <parameter type-id='type-id-62'/>
          <!-- void* -->
          <return type-id='type-id-58'/>
        </function-decl>
      </member-function>
      <member-function access='private' static='yes'>
        <!-- void LowLevelAlloc::Free() -->
        <function-decl name='Free' mangled-name='_ZN13LowLevelAlloc4FreeEPv' filepath='src/base/low_level_alloc.cc' line='415' column='1' visibility='default' binding='global' size-in-bits='64' elf-symbol-id='_ZN13LowLevelAlloc4FreeEPv'>
          <!-- parameter of type 'void*' -->
          <parameter type-id='type-id-58'/>
          <!-- void -->
          <return type-id='type-id-60'/>
        </function-decl>
      </member-function>
      <member-function access='private' static='yes'>
        <!-- bool LowLevelAlloc::DeleteArena() -->
        <function-decl name='DeleteArena' mangled-name='_ZN13LowLevelAlloc11DeleteArenaEPNS_5ArenaE' filepath='src/base/low_level_alloc.cc' line='315' column='1' visibility='default' binding='global' size-in-bits='64' elf-symbol-id='_ZN13LowLevelAlloc11DeleteArenaEPNS_5ArenaE'>
          <!-- parameter of type 'LowLevelAlloc::Arena*' -->
          <parameter type-id='type-id-83'/>
          <!-- bool -->
          <return type-id='type-id-61'/>
        </function-decl>
      </member-function>
    </class-decl>
    <!-- class AddressMap<HeapProfileTable::AllocValue> -->
    <class-decl name='AddressMap&lt;HeapProfileTable::AllocValue&gt;' size-in-bits='320' visibility='default' filepath='src/addressmap-inl.h' line='104' column='1' id='type-id-235'>
      <member-type access='private'>
        <!-- struct AddressMap<HeapProfileTable::AllocValue>::Cluster -->
        <class-decl name='Cluster' is-struct='yes' visibility='default' is-declaration-only='yes' id='type-id-256'/>
      </member-type>
      <member-type access='private'>
        <!-- struct AddressMap<HeapProfileTable::AllocValue>::Entry -->
        <class-decl name='Entry' is-struct='yes' visibility='default' is-declaration-only='yes' id='type-id-257'/>
      </member-type>
      <member-type access='private'>
        <!-- struct AddressMap<HeapProfileTable::AllocValue>::Object -->
        <class-decl name='Object' is-struct='yes' visibility='default' is-declaration-only='yes' id='type-id-258'/>
      </member-type>
      <data-member access='private' static='yes'>
        <!-- static const int AddressMap<HeapProfileTable::AllocValue>::kBlockBits -->
        <var-decl name='kBlockBits' type-id='type-id-144' visibility='default' filepath='src/addressmap-inl.h' line='159' column='1'/>
      </data-member>
      <data-member access='private' static='yes'>
        <!-- static const int AddressMap<HeapProfileTable::AllocValue>::kBlockSize -->
        <var-decl name='kBlockSize' type-id='type-id-144' visibility='default' filepath='src/addressmap-inl.h' line='160' column='1'/>
      </data-member>
      <data-member access='private' static='yes'>
        <!-- static const int AddressMap<HeapProfileTable::AllocValue>::kClusterBits -->
        <var-decl name='kClusterBits' type-id='type-id-144' visibility='default' filepath='src/addressmap-inl.h' line='172' column='1'/>
      </data-member>
      <data-member access='private' static='yes'>
        <!-- static const uintptr_t AddressMap<HeapProfileTable::AllocValue>::kClusterSize -->
        <var-decl name='kClusterSize' type-id='type-id-259' visibility='default' filepath='src/addressmap-inl.h' line='173' column='1'/>
      </data-member>
      <data-member access='private' static='yes'>
        <!-- static const int AddressMap<HeapProfileTable::AllocValue>::kClusterBlocks -->
        <var-decl name='kClusterBlocks' type-id='type-id-144' visibility='default' filepath='src/addressmap-inl.h' line='174' column='1'/>
      </data-member>
      <data-member access='private' static='yes'>
        <!-- static const int AddressMap<HeapProfileTable::AllocValue>::kHashBits -->
        <var-decl name='kHashBits' type-id='type-id-144' visibility='default' filepath='src/addressmap-inl.h' line='187' column='1'/>
      </data-member>
      <data-member access='private' static='yes'>
        <!-- static const int AddressMap<HeapProfileTable::AllocValue>::kHashSize -->
        <var-decl name='kHashSize' type-id='type-id-144' visibility='default' filepath='src/addressmap-inl.h' line='188' column='1'/>
      </data-member>
      <data-member access='private' static='yes'>
        <!-- static const int AddressMap<HeapProfileTable::AllocValue>::ALLOC_COUNT -->
        <var-decl name='ALLOC_COUNT' type-id='type-id-144' visibility='default' filepath='src/addressmap-inl.h' line='191' column='1'/>
      </data-member>
      <data-member access='private' layout-offset-in-bits='0'>
        <!-- AddressMap<HeapProfileTable::AllocValue>::Cluster** AddressMap<HeapProfileTable::AllocValue>::hashtable_ -->
        <var-decl name='hashtable_' type-id='type-id-260' visibility='default' filepath='src/addressmap-inl.h' line='193' column='1'/>
      </data-member>
      <data-member access='private' layout-offset-in-bits='64'>
        <!-- AddressMap<HeapProfileTable::AllocValue>::Entry* AddressMap<HeapProfileTable::AllocValue>::free_ -->
        <var-decl name='free_' type-id='type-id-261' visibility='default' filepath='src/addressmap-inl.h' line='194' column='1'/>
      </data-member>
      <data-member access='private' static='yes'>
        <!-- static const uint32_t AddressMap<HeapProfileTable::AllocValue>::kHashMultiplier -->
        <var-decl name='kHashMultiplier' type-id='type-id-262' visibility='default' filepath='src/addressmap-inl.h' line='202' column='1'/>
      </data-member>
      <data-member access='private' layout-offset-in-bits='128'>
        <!-- void* (unsigned long int)* AddressMap<HeapProfileTable::AllocValue>::alloc_ -->
        <var-decl name='alloc_' type-id='type-id-263' visibility='default' filepath='src/addressmap-inl.h' line='251' column='1'/>
      </data-member>
      <data-member access='private' layout-offset-in-bits='192'>
        <!-- void (void*)* AddressMap<HeapProfileTable::AllocValue>::dealloc_ -->
        <var-decl name='dealloc_' type-id='type-id-234' visibility='default' filepath='src/addressmap-inl.h' line='252' column='1'/>
      </data-member>
      <data-member access='private' layout-offset-in-bits='256'>
        <!-- AddressMap<HeapProfileTable::AllocValue>::Object* AddressMap<HeapProfileTable::AllocValue>::allocated_ -->
        <var-decl name='allocated_' type-id='type-id-264' visibility='default' filepath='src/addressmap-inl.h' line='253' column='1'/>
      </data-member>
      <member-function access='private'>
        <!-- void AddressMap<HeapProfileTable::AllocValue>::AddressMap(void* (unsigned long int)*, void (void*)*) -->
        <function-decl name='AddressMap' mangled-name='_ZN10AddressMapIN16HeapProfileTable10AllocValueEEC2EPFPvmEPFvS3_E' filepath='src/addressmap-inl.h' line='271' column='1' visibility='default' binding='global' size-in-bits='64' elf-symbol-id='_ZN10AddressMapIN16HeapProfileTable10AllocValueEEC2EPFPvmEPFvS3_E'>
          <!-- implicit parameter of type 'AddressMap<HeapProfileTable::AllocValue>*' -->
          <parameter type-id='type-id-265' is-artificial='yes'/>
          <!-- parameter of type 'void* (unsigned long int)*' -->
          <parameter type-id='type-id-263'/>
          <!-- parameter of type 'void (void*)*' -->
          <parameter type-id='type-id-234'/>
          <!-- void -->
          <return type-id='type-id-60'/>
        </function-decl>
      </member-function>
      <member-function access='private' destructor='yes'>
        <!-- AddressMap<HeapProfileTable::AllocValue>::~AddressMap(int) -->
        <function-decl name='~AddressMap' filepath='src/addressmap-inl.h' line='280' column='1' visibility='default' binding='global' size-in-bits='64'>
          <!-- implicit parameter of type 'AddressMap<HeapProfileTable::AllocValue>*' -->
          <parameter type-id='type-id-265' is-artificial='yes'/>
          <!-- artificial parameter of type 'int' -->
          <parameter type-id='type-id-1' is-artificial='yes'/>
          <!-- void -->
          <return type-id='type-id-60'/>
        </function-decl>
      </member-function>
      <member-function access='private'>
        <!-- void AddressMap<HeapProfileTable::AllocValue>::Iterate<void (*)(const void*, const HeapProfileTable::AllocInfo&)>(void (void*, HeapProfileTable::AllocValue*, void (void*, const HeapProfileTable::AllocInfo&)*)*, void (void*, const HeapProfileTable::AllocInfo&)*) -->
        <function-decl name='Iterate&lt;void (*)(const void*, const HeapProfileTable::AllocInfo&amp;)&gt;' filepath='src/addressmap-inl.h' line='407' column='1' visibility='default' binding='global' size-in-bits='64'>
          <!-- implicit parameter of type 'const AddressMap<HeapProfileTable::AllocValue>*' -->
          <parameter type-id='type-id-266' is-artificial='yes'/>
          <!-- parameter of type 'void (void*, HeapProfileTable::AllocValue*, void (void*, const HeapProfileTable::AllocInfo&)*)*' -->
          <parameter type-id='type-id-267'/>
          <!-- parameter of type 'void (void*, const HeapProfileTable::AllocInfo&)*' -->
          <parameter type-id='type-id-237'/>
          <!-- void -->
          <return type-id='type-id-60'/>
        </function-decl>
      </member-function>
      <member-function access='private'>
        <!-- void AddressMap<HeapProfileTable::AllocValue>::Iterate<char*>(void (void*, HeapProfileTable::AllocValue*, char*)*, char*) -->
        <function-decl name='Iterate&lt;char*&gt;' filepath='src/addressmap-inl.h' line='407' column='1' visibility='default' binding='global' size-in-bits='64'>
          <!-- implicit parameter of type 'const AddressMap<HeapProfileTable::AllocValue>*' -->
          <parameter type-id='type-id-266' is-artificial='yes'/>
          <!-- parameter of type 'void (void*, HeapProfileTable::AllocValue*, char*)*' -->
          <parameter type-id='type-id-268'/>
          <!-- parameter of type 'char*' -->
          <parameter type-id='type-id-118'/>
          <!-- void -->
          <return type-id='type-id-60'/>
        </function-decl>
      </member-function>
      <member-function access='private'>
        <!-- AddressMap<HeapProfileTable::AllocValue>::Cluster** AddressMap<HeapProfileTable::AllocValue>::New<AddressMap<HeapProfileTable::AllocValue>::Cluster*>(int) -->
        <function-decl name='New&lt;AddressMap&lt;HeapProfileTable::AllocValue&gt;::Cluster*&gt;' filepath='src/addressmap-inl.h' line='258' column='1' visibility='default' binding='global' size-in-bits='64'>
          <!-- implicit parameter of type 'AddressMap<HeapProfileTable::AllocValue>*' -->
          <parameter type-id='type-id-265' is-artificial='yes'/>
          <!-- parameter of type 'int' -->
          <parameter type-id='type-id-1'/>
          <!-- AddressMap<HeapProfileTable::AllocValue>::Cluster** -->
          <return type-id='type-id-260'/>
        </function-decl>
      </member-function>
      <member-function access='private'>
        <!-- void AddressMap<HeapProfileTable::AllocValue>::Iterate<HeapProfileTable::AddNonLiveArgs*>(void (void*, HeapProfileTable::AllocValue*, HeapProfileTable::AddNonLiveArgs*)*, HeapProfileTable::AddNonLiveArgs*) -->
        <function-decl name='Iterate&lt;HeapProfileTable::AddNonLiveArgs*&gt;' filepath='src/addressmap-inl.h' line='407' column='1' visibility='default' binding='global' size-in-bits='64'>
          <!-- implicit parameter of type 'const AddressMap<HeapProfileTable::AllocValue>*' -->
          <parameter type-id='type-id-266' is-artificial='yes'/>
          <!-- parameter of type 'void (void*, HeapProfileTable::AllocValue*, HeapProfileTable::AddNonLiveArgs*)*' -->
          <parameter type-id='type-id-269'/>
          <!-- parameter of type 'HeapProfileTable::AddNonLiveArgs*' -->
          <parameter type-id='type-id-254'/>
          <!-- void -->
          <return type-id='type-id-60'/>
        </function-decl>
      </member-function>
      <member-function access='private'>
        <!-- void AddressMap<HeapProfileTable::AllocValue>::Iterate<HeapProfileTable::Snapshot*>(void (void*, HeapProfileTable::AllocValue*, HeapProfileTable::Snapshot*)*, HeapProfileTable::Snapshot*) -->
        <function-decl name='Iterate&lt;HeapProfileTable::Snapshot*&gt;' filepath='src/addressmap-inl.h' line='407' column='1' visibility='default' binding='global' size-in-bits='64'>
          <!-- implicit parameter of type 'const AddressMap<HeapProfileTable::AllocValue>*' -->
          <parameter type-id='type-id-266' is-artificial='yes'/>
          <!-- parameter of type 'void (void*, HeapProfileTable::AllocValue*, HeapProfileTable::Snapshot*)*' -->
          <parameter type-id='type-id-270'/>
          <!-- parameter of type 'HeapProfileTable::Snapshot*' -->
          <parameter type-id='type-id-224'/>
          <!-- void -->
          <return type-id='type-id-60'/>
        </function-decl>
      </member-function>
      <member-function access='private'>
        <!-- AddressMap<HeapProfileTable::AllocValue>::Cluster* AddressMap<HeapProfileTable::AllocValue>::New<AddressMap<HeapProfileTable::AllocValue>::Cluster>(int) -->
        <function-decl name='New&lt;AddressMap&lt;HeapProfileTable::AllocValue&gt;::Cluster&gt;' filepath='src/addressmap-inl.h' line='258' column='1' visibility='default' binding='global' size-in-bits='64'>
          <!-- implicit parameter of type 'AddressMap<HeapProfileTable::AllocValue>*' -->
          <parameter type-id='type-id-265' is-artificial='yes'/>
          <!-- parameter of type 'int' -->
          <parameter type-id='type-id-1'/>
          <!-- AddressMap<HeapProfileTable::AllocValue>::Cluster* -->
          <return type-id='type-id-271'/>
        </function-decl>
      </member-function>
      <member-function access='private'>
        <!-- AddressMap<HeapProfileTable::AllocValue>::Entry* AddressMap<HeapProfileTable::AllocValue>::New<AddressMap<HeapProfileTable::AllocValue>::Entry>(int) -->
        <function-decl name='New&lt;AddressMap&lt;HeapProfileTable::AllocValue&gt;::Entry&gt;' filepath='src/addressmap-inl.h' line='258' column='1' visibility='default' binding='global' size-in-bits='64'>
          <!-- implicit parameter of type 'AddressMap<HeapProfileTable::AllocValue>*' -->
          <parameter type-id='type-id-265' is-artificial='yes'/>
          <!-- parameter of type 'int' -->
          <parameter type-id='type-id-1'/>
          <!-- AddressMap<HeapProfileTable::AllocValue>::Entry* -->
          <return type-id='type-id-261'/>
        </function-decl>
      </member-function>
      <member-function access='private'>
        <!-- void AddressMap<HeapProfileTable::AllocValue>::Iterate<const HeapProfileTable::DumpArgs&>(void (void*, HeapProfileTable::AllocValue*, const HeapProfileTable::DumpArgs&)*, const HeapProfileTable::DumpArgs&) -->
        <function-decl name='Iterate&lt;const HeapProfileTable::DumpArgs&amp;&gt;' filepath='src/addressmap-inl.h' line='407' column='1' visibility='default' binding='global' size-in-bits='64'>
          <!-- implicit parameter of type 'const AddressMap<HeapProfileTable::AllocValue>*' -->
          <parameter type-id='type-id-266' is-artificial='yes'/>
          <!-- parameter of type 'void (void*, HeapProfileTable::AllocValue*, const HeapProfileTable::DumpArgs&)*' -->
          <parameter type-id='type-id-272'/>
          <!-- parameter of type 'const HeapProfileTable::DumpArgs&' -->
          <parameter type-id='type-id-273'/>
          <!-- void -->
          <return type-id='type-id-60'/>
        </function-decl>
      </member-function>
      <member-function access='private'>
        <!-- void AddressMap<HeapProfileTable::AllocValue>::Iterate<HeapProfileTable::Snapshot::ReportState*>(void (void*, HeapProfileTable::AllocValue*, HeapProfileTable::Snapshot::ReportState*)*, HeapProfileTable::Snapshot::ReportState*) -->
        <function-decl name='Iterate&lt;HeapProfileTable::Snapshot::ReportState*&gt;' filepath='src/addressmap-inl.h' line='407' column='1' visibility='default' binding='global' size-in-bits='64'>
          <!-- implicit parameter of type 'const AddressMap<HeapProfileTable::AllocValue>*' -->
          <parameter type-id='type-id-266' is-artificial='yes'/>
          <!-- parameter of type 'void (void*, HeapProfileTable::AllocValue*, HeapProfileTable::Snapshot::ReportState*)*' -->
          <parameter type-id='type-id-274'/>
          <!-- parameter of type 'HeapProfileTable::Snapshot::ReportState*' -->
          <parameter type-id='type-id-230'/>
          <!-- void -->
          <return type-id='type-id-60'/>
        </function-decl>
      </member-function>
      <member-function access='private'>
        <!-- void AddressMap<HeapProfileTable::AllocValue>::Insert(void*, HeapProfileTable::AllocValue) -->
        <function-decl name='Insert' mangled-name='_ZN10AddressMapIN16HeapProfileTable10AllocValueEE6InsertEPKvS1_' filepath='src/addressmap-inl.h' line='309' column='1' visibility='default' binding='global' size-in-bits='64' elf-symbol-id='_ZN10AddressMapIN16HeapProfileTable10AllocValueEE6InsertEPKvS1_'>
          <!-- implicit parameter of type 'AddressMap<HeapProfileTable::AllocValue>* const' -->
          <parameter type-id='type-id-275' name='this' is-artificial='yes'/>
          <!-- parameter of type 'void*' -->
          <parameter type-id='type-id-58' name='key' filepath='src/addressmap-inl.h' line='309' column='1'/>
          <!-- parameter of type 'struct HeapProfileTable::AllocValue' -->
          <parameter type-id='type-id-210' name='value' filepath='src/addressmap-inl.h' line='309' column='1'/>
          <!-- void -->
          <return type-id='type-id-60'/>
        </function-decl>
      </member-function>
    </class-decl>
    <!-- class HeapLeakChecker -->
    <class-decl name='HeapLeakChecker' size-in-bits='448' visibility='default' filepath='src/gperftools/heap-checker.h' line='78' column='1' id='type-id-276'>
      <member-type access='private'>
        <!-- class HeapLeakChecker::Disabler -->
        <class-decl name='Disabler' size-in-bits='8' visibility='default' filepath='./src/gperftools/heap-checker.h' line='175' column='1' id='type-id-277'>
          <member-function access='private' constructor='yes'>
            <!-- HeapLeakChecker::Disabler::Disabler() -->
            <function-decl name='Disabler' mangled-name='_ZN15HeapLeakChecker8DisablerC1Ev' filepath='./src/gperftools/heap-checker.h' line='177' column='1' visibility='default' binding='global' size-in-bits='64' elf-symbol-id='_ZN15HeapLeakChecker8DisablerC1Ev'>
              <!-- implicit parameter of type 'HeapLeakChecker::Disabler*' -->
              <parameter type-id='type-id-278' is-artificial='yes'/>
              <!-- void -->
              <return type-id='type-id-60'/>
            </function-decl>
          </member-function>
          <member-function access='private' destructor='yes'>
            <!-- HeapLeakChecker::Disabler::~Disabler(int) -->
            <function-decl name='~Disabler' mangled-name='_ZN15HeapLeakChecker8DisablerD1Ev' filepath='./src/gperftools/heap-checker.h' line='178' column='1' visibility='default' binding='global' size-in-bits='64' elf-symbol-id='_ZN15HeapLeakChecker8DisablerD1Ev'>
              <!-- implicit parameter of type 'HeapLeakChecker::Disabler*' -->
              <parameter type-id='type-id-278' is-artificial='yes'/>
              <!-- artificial parameter of type 'int' -->
              <parameter type-id='type-id-1' is-artificial='yes'/>
              <!-- void -->
              <return type-id='type-id-60'/>
            </function-decl>
          </member-function>
          <member-function access='private' constructor='yes'>
            <!-- HeapLeakChecker::Disabler::Disabler(const HeapLeakChecker::Disabler&) -->
            <function-decl name='Disabler' filepath='./src/gperftools/heap-checker.h' line='180' column='1' visibility='default' binding='global' size-in-bits='64'>
              <!-- implicit parameter of type 'HeapLeakChecker::Disabler*' -->
              <parameter type-id='type-id-278' is-artificial='yes'/>
              <!-- parameter of type 'const HeapLeakChecker::Disabler&' -->
              <parameter type-id='type-id-279'/>
              <!-- void -->
              <return type-id='type-id-60'/>
            </function-decl>
          </member-function>
        </class-decl>
      </member-type>
      <member-type access='private'>
        <!-- enum HeapLeakChecker::ShouldSymbolize -->
        <enum-decl name='ShouldSymbolize' filepath='./src/gperftools/heap-checker.h' line='225' column='1' id='type-id-280'>
          <underlying-type type-id='type-id-89'/>
          <enumerator name='SYMBOLIZE' value='0'/>
          <enumerator name='DO_NOT_SYMBOLIZE' value='1'/>
        </enum-decl>
      </member-type>
      <member-type access='private'>
        <!-- enum HeapLeakChecker::ProcMapsTask -->
        <enum-decl name='ProcMapsTask' filepath='./src/gperftools/heap-checker.h' line='295' column='1' id='type-id-281'>
          <underlying-type type-id='type-id-89'/>
          <enumerator name='RECORD_GLOBAL_DATA' value='0'/>
          <enumerator name='DISABLE_LIBRARY_ALLOCS' value='1'/>
        </enum-decl>
      </member-type>
      <member-type access='private'>
        <!-- enum HeapLeakChecker::ProcMapsResult -->
        <enum-decl name='ProcMapsResult' filepath='./src/gperftools/heap-checker.h' line='301' column='1' id='type-id-282'>
          <underlying-type type-id='type-id-89'/>
          <enumerator name='PROC_MAPS_USED' value='0'/>
          <enumerator name='CANT_OPEN_PROC_MAPS' value='1'/>
          <enumerator name='NO_SHARED_LIBS_IN_PROC_MAPS' value='2'/>
        </enum-decl>
      </member-type>
      <member-type access='private'>
        <!-- struct HeapLeakChecker::RangeValue -->
        <class-decl name='RangeValue' size-in-bits='128' is-struct='yes' visibility='default' filepath='src/heap-checker.cc' line='404' column='1' id='type-id-283'>
          <data-member access='public' layout-offset-in-bits='0'>
            <!-- uintptr_t HeapLeakChecker::RangeValue::start_address -->
            <var-decl name='start_address' type-id='type-id-156' visibility='default' filepath='src/heap-checker.cc' line='405' column='1'/>
          </data-member>
          <data-member access='public' layout-offset-in-bits='64'>
            <!-- int HeapLeakChecker::RangeValue::max_depth -->
            <var-decl name='max_depth' type-id='type-id-1' visibility='default' filepath='src/heap-checker.cc' line='406' column='1'/>
          </data-member>
        </class-decl>
      </member-type>
      <member-type access='private'>
        <!-- struct HeapLeakChecker::Allocator -->
        <class-decl name='Allocator' size-in-bits='8' is-struct='yes' visibility='default' filepath='src/heap-checker.cc' line='292' column='1' id='type-id-284'>
          <data-member access='private' static='yes'>
            <!-- static LowLevelAlloc::Arena* HeapLeakChecker::Allocator::arena_ -->
            <var-decl name='arena_' type-id='type-id-83' mangled-name='_ZN15HeapLeakChecker9Allocator6arena_E' visibility='default' filepath='src/heap-checker.cc' line='333' column='1' elf-symbol-id='_ZN15HeapLeakChecker9Allocator6arena_E'/>
          </data-member>
          <data-member access='private' static='yes'>
            <!-- static int HeapLeakChecker::Allocator::alloc_count_ -->
            <var-decl name='alloc_count_' type-id='type-id-1' mangled-name='_ZN15HeapLeakChecker9Allocator12alloc_count_E' visibility='default' filepath='src/heap-checker.cc' line='334' column='1' elf-symbol-id='_ZN15HeapLeakChecker9Allocator12alloc_count_E'/>
          </data-member>
          <member-function access='public' static='yes'>
            <!-- void HeapLeakChecker::Allocator::DeleteAndNull<DisabledRangeMap>() -->
            <function-decl name='DeleteAndNull&lt;DisabledRangeMap&gt;' filepath='src/heap-checker.cc' line='324' column='1' visibility='default' binding='global' size-in-bits='64'>
              <!-- parameter of type 'DisabledRangeMap**' -->
              <parameter type-id='type-id-285'/>
              <!-- void -->
              <return type-id='type-id-60'/>
            </function-decl>
          </member-function>
          <member-function access='public' static='yes'>
            <!-- void HeapLeakChecker::Allocator::DeleteAndNull<GlobalRegionCallerRangeMap>() -->
            <function-decl name='DeleteAndNull&lt;GlobalRegionCallerRangeMap&gt;' filepath='src/heap-checker.cc' line='324' column='1' visibility='default' binding='global' size-in-bits='64'>
              <!-- parameter of type 'GlobalRegionCallerRangeMap**' -->
              <parameter type-id='type-id-286'/>
              <!-- void -->
              <return type-id='type-id-60'/>
            </function-decl>
          </member-function>
          <member-function access='public' static='yes'>
            <!-- void HeapLeakChecker::Allocator::DeleteAndNull<HeapProfileTable>() -->
            <function-decl name='DeleteAndNull&lt;HeapProfileTable&gt;' filepath='src/heap-checker.cc' line='324' column='1' visibility='default' binding='global' size-in-bits='64'>
              <!-- parameter of type 'HeapProfileTable**' -->
              <parameter type-id='type-id-287'/>
              <!-- void -->
              <return type-id='type-id-60'/>
            </function-decl>
          </member-function>
          <member-function access='public' static='yes'>
            <!-- void HeapLeakChecker::Allocator::DeleteAndNullIfNot<DisabledRangeMap>() -->
            <function-decl name='DeleteAndNullIfNot&lt;DisabledRangeMap&gt;' filepath='src/heap-checker.cc' line='329' column='1' visibility='default' binding='global' size-in-bits='64'>
              <!-- parameter of type 'DisabledRangeMap**' -->
              <parameter type-id='type-id-285'/>
              <!-- void -->
              <return type-id='type-id-60'/>
            </function-decl>
          </member-function>
          <member-function access='public' static='yes'>
            <!-- void HeapLeakChecker::Allocator::DeleteAndNull<LibraryLiveObjectsStacks>() -->
            <function-decl name='DeleteAndNull&lt;LibraryLiveObjectsStacks&gt;' filepath='src/heap-checker.cc' line='324' column='1' visibility='default' binding='global' size-in-bits='64'>
              <!-- parameter of type 'LibraryLiveObjectsStacks**' -->
              <parameter type-id='type-id-288'/>
              <!-- void -->
              <return type-id='type-id-60'/>
            </function-decl>
          </member-function>
          <member-function access='public' static='yes'>
            <!-- void HeapLeakChecker::Allocator::DeleteAndNull<LiveObjectsStack>() -->
            <function-decl name='DeleteAndNull&lt;LiveObjectsStack&gt;' filepath='src/heap-checker.cc' line='324' column='1' visibility='default' binding='global' size-in-bits='64'>
              <!-- parameter of type 'LiveObjectsStack**' -->
              <parameter type-id='type-id-289'/>
              <!-- void -->
              <return type-id='type-id-60'/>
            </function-decl>
          </member-function>
          <member-function access='public' static='yes'>
            <!-- void HeapLeakChecker::Allocator::DeleteAndNull<StackTopSet>() -->
            <function-decl name='DeleteAndNull&lt;StackTopSet&gt;' filepath='src/heap-checker.cc' line='324' column='1' visibility='default' binding='global' size-in-bits='64'>
              <!-- parameter of type 'StackTopSet**' -->
              <parameter type-id='type-id-290'/>
              <!-- void -->
              <return type-id='type-id-60'/>
            </function-decl>
          </member-function>
          <member-function access='public' static='yes'>
            <!-- void HeapLeakChecker::Allocator::DeleteAndNullIfNot<GlobalRegionCallerRangeMap>() -->
            <function-decl name='DeleteAndNullIfNot&lt;GlobalRegionCallerRangeMap&gt;' filepath='src/heap-checker.cc' line='329' column='1' visibility='default' binding='global' size-in-bits='64'>
              <!-- parameter of type 'GlobalRegionCallerRangeMap**' -->
              <parameter type-id='type-id-286'/>
              <!-- void -->
              <return type-id='type-id-60'/>
            </function-decl>
          </member-function>
          <member-function access='public' static='yes'>
            <!-- void* HeapLeakChecker::Allocator::Allocate() -->
            <function-decl name='Allocate' mangled-name='_ZN15HeapLeakChecker9Allocator8AllocateEm' filepath='src/heap-checker.cc' line='309' column='1' declared-inline='yes' visibility='default' binding='global' size-in-bits='64' elf-symbol-id='_ZN15HeapLeakChecker9Allocator8AllocateEm'>
              <!-- parameter of type 'typedef size_t' -->
              <parameter type-id='type-id-62'/>
              <!-- void* -->
              <return type-id='type-id-58'/>
            </function-decl>
          </member-function>
          <member-function access='public' static='yes'>
            <!-- void HeapLeakChecker::Allocator::Free() -->
            <function-decl name='Free' mangled-name='_ZN15HeapLeakChecker9Allocator4FreeEPv' filepath='src/heap-checker.cc' line='315' column='1' declared-inline='yes' visibility='default' binding='global' size-in-bits='64' elf-symbol-id='_ZN15HeapLeakChecker9Allocator4FreeEPv'>
              <!-- parameter of type 'void*' -->
              <parameter type-id='type-id-58'/>
              <!-- void -->
              <return type-id='type-id-60'/>
            </function-decl>
          </member-function>
        </class-decl>
      </member-type>
      <data-member access='private' layout-offset-in-bits='0'>
        <!-- SpinLock* HeapLeakChecker::lock_ -->
        <var-decl name='lock_' type-id='type-id-94' visibility='default' filepath='./src/gperftools/heap-checker.h' line='358' column='1'/>
      </data-member>
      <data-member access='private' layout-offset-in-bits='64'>
        <!-- const char* HeapLeakChecker::name_ -->
        <var-decl name='name_' type-id='type-id-57' visibility='default' filepath='./src/gperftools/heap-checker.h' line='359' column='1'/>
      </data-member>
      <data-member access='private' layout-offset-in-bits='128'>
        <!-- void* HeapLeakChecker::start_snapshot_ -->
        <var-decl name='start_snapshot_' type-id='type-id-58' visibility='default' filepath='./src/gperftools/heap-checker.h' line='365' column='1'/>
      </data-member>
      <data-member access='private' layout-offset-in-bits='192'>
        <!-- bool HeapLeakChecker::has_checked_ -->
        <var-decl name='has_checked_' type-id='type-id-61' visibility='default' filepath='./src/gperftools/heap-checker.h' line='367' column='1'/>
      </data-member>
      <data-member access='private' layout-offset-in-bits='256'>
        <!-- ssize_t HeapLeakChecker::inuse_bytes_increase_ -->
        <var-decl name='inuse_bytes_increase_' type-id='type-id-291' visibility='default' filepath='./src/gperftools/heap-checker.h' line='368' column='1'/>
      </data-member>
      <data-member access='private' layout-offset-in-bits='320'>
        <!-- ssize_t HeapLeakChecker::inuse_allocs_increase_ -->
        <var-decl name='inuse_allocs_increase_' type-id='type-id-291' visibility='default' filepath='./src/gperftools/heap-checker.h' line='369' column='1'/>
      </data-member>
      <data-member access='private' layout-offset-in-bits='384'>
        <!-- bool HeapLeakChecker::keep_profiles_ -->
        <var-decl name='keep_profiles_' type-id='type-id-61' visibility='default' filepath='./src/gperftools/heap-checker.h' line='371' column='1'/>
      </data-member>
      <member-function access='private' constructor='yes'>
        <!-- HeapLeakChecker::HeapLeakChecker(const char*) -->
        <function-decl name='HeapLeakChecker' mangled-name='_ZN15HeapLeakCheckerC1EPKc' filepath='./src/gperftools/heap-checker.h' line='124' column='1' visibility='default' binding='global' size-in-bits='64' elf-symbol-id='_ZN15HeapLeakCheckerC1EPKc'>
          <!-- implicit parameter of type 'HeapLeakChecker*' -->
          <parameter type-id='type-id-292' is-artificial='yes'/>
          <!-- parameter of type 'const char*' -->
          <parameter type-id='type-id-57'/>
          <!-- void -->
          <return type-id='type-id-60'/>
        </function-decl>
      </member-function>
      <member-function access='private' destructor='yes'>
        <!-- HeapLeakChecker::~HeapLeakChecker(int) -->
        <function-decl name='~HeapLeakChecker' mangled-name='_ZN15HeapLeakCheckerD1Ev' filepath='./src/gperftools/heap-checker.h' line='128' column='1' visibility='default' binding='global' size-in-bits='64' elf-symbol-id='_ZN15HeapLeakCheckerD1Ev'>
          <!-- implicit parameter of type 'HeapLeakChecker*' -->
          <parameter type-id='type-id-292' is-artificial='yes'/>
          <!-- artificial parameter of type 'int' -->
          <parameter type-id='type-id-1' is-artificial='yes'/>
          <!-- void -->
          <return type-id='type-id-60'/>
        </function-decl>
      </member-function>
      <member-function access='private' constructor='yes'>
        <!-- HeapLeakChecker::HeapLeakChecker() -->
        <function-decl name='HeapLeakChecker' mangled-name='_ZN15HeapLeakCheckerC1Ev' filepath='./src/gperftools/heap-checker.h' line='330' column='1' visibility='default' binding='global' size-in-bits='64' elf-symbol-id='_ZN15HeapLeakCheckerC1Ev'>
          <!-- implicit parameter of type 'HeapLeakChecker*' -->
          <parameter type-id='type-id-292' is-artificial='yes'/>
          <!-- void -->
          <return type-id='type-id-60'/>
        </function-decl>
      </member-function>
      <member-function access='private' constructor='yes'>
        <!-- HeapLeakChecker::HeapLeakChecker(const HeapLeakChecker&) -->
        <function-decl name='HeapLeakChecker' filepath='./src/gperftools/heap-checker.h' line='376' column='1' visibility='default' binding='global' size-in-bits='64'>
          <!-- implicit parameter of type 'HeapLeakChecker*' -->
          <parameter type-id='type-id-292' is-artificial='yes'/>
          <!-- parameter of type 'const HeapLeakChecker&' -->
          <parameter type-id='type-id-293'/>
          <!-- void -->
          <return type-id='type-id-60'/>
        </function-decl>
      </member-function>
      <member-function access='private' static='yes'>
        <!-- char* HeapLeakChecker::IgnoreObject<char>() -->
        <function-decl name='IgnoreObject&lt;char&gt;' filepath='./src/gperftools/heap-checker.h' line='197' column='1' visibility='default' binding='global' size-in-bits='64'>
          <!-- parameter of type 'char*' -->
          <parameter type-id='type-id-118'/>
          <!-- char* -->
          <return type-id='type-id-118'/>
        </function-decl>
      </member-function>
      <member-function access='private' static='yes'>
        <!-- void HeapLeakChecker::DisableChecksIn() -->
        <function-decl name='DisableChecksIn' mangled-name='_ZN15HeapLeakChecker15DisableChecksInEPKc' filepath='src/heap-checker.cc' line='1514' column='1' visibility='default' binding='global' size-in-bits='64' elf-symbol-id='_ZN15HeapLeakChecker15DisableChecksInEPKc'>
          <!-- parameter of type 'const char*' -->
          <parameter type-id='type-id-57'/>
          <!-- void -->
          <return type-id='type-id-60'/>
        </function-decl>
      </member-function>
      <member-function access='private' static='yes'>
        <!-- void HeapLeakChecker::BeforeConstructorsLocked() -->
        <function-decl name='BeforeConstructorsLocked' mangled-name='_ZN15HeapLeakChecker24BeforeConstructorsLockedEv' filepath='src/heap-checker.cc' line='2203' column='1' visibility='default' binding='global' size-in-bits='64' elf-symbol-id='_ZN15HeapLeakChecker24BeforeConstructorsLockedEv'>
          <!-- void -->
          <return type-id='type-id-60'/>
        </function-decl>
      </member-function>
      <member-function access='private'>
        <!-- char* HeapLeakChecker::MakeProfileNameLocked() -->
        <function-decl name='MakeProfileNameLocked' mangled-name='_ZN15HeapLeakChecker21MakeProfileNameLockedEv' filepath='src/heap-checker.cc' line='1564' column='1' visibility='default' binding='global' size-in-bits='64' elf-symbol-id='_ZN15HeapLeakChecker21MakeProfileNameLockedEv'>
          <!-- implicit parameter of type 'HeapLeakChecker* const' -->
          <parameter type-id='type-id-294' name='this' is-artificial='yes'/>
          <!-- char* -->
          <return type-id='type-id-118'/>
        </function-decl>
      </member-function>
      <member-function access='private' static='yes'>
        <!-- void HeapLeakChecker::DisableChecksFromToLocked(void*, int) -->
        <function-decl name='DisableChecksFromToLocked' mangled-name='_ZN15HeapLeakChecker25DisableChecksFromToLockedEPKvS1_i' filepath='src/heap-checker.cc' line='2336' column='1' visibility='default' binding='global' size-in-bits='64' elf-symbol-id='_ZN15HeapLeakChecker25DisableChecksFromToLockedEPKvS1_i'>
          <!-- parameter of type 'void*' -->
          <parameter type-id='type-id-58'/>
          <!-- parameter of type 'void*' -->
          <parameter type-id='type-id-58'/>
          <!-- parameter of type 'int' -->
          <parameter type-id='type-id-1'/>
          <!-- void -->
          <return type-id='type-id-60'/>
        </function-decl>
      </member-function>
      <member-function access='private' static='yes'>
        <!-- void HeapLeakChecker::DisableLibraryAllocsLocked(uintptr_t, uintptr_t) -->
        <function-decl name='DisableLibraryAllocsLocked' mangled-name='_ZN15HeapLeakChecker26DisableLibraryAllocsLockedEPKcmm' filepath='src/heap-checker.cc' line='827' column='1' visibility='default' binding='global' size-in-bits='64' elf-symbol-id='_ZN15HeapLeakChecker26DisableLibraryAllocsLockedEPKcmm'>
          <!-- parameter of type 'const char*' -->
          <parameter type-id='type-id-57'/>
          <!-- parameter of type 'typedef uintptr_t' -->
          <parameter type-id='type-id-156'/>
          <!-- parameter of type 'typedef uintptr_t' -->
          <parameter type-id='type-id-156'/>
          <!-- void -->
          <return type-id='type-id-60'/>
        </function-decl>
      </member-function>
      <member-function access='private' static='yes'>
        <!-- void HeapLeakChecker::TurnItselfOffLocked() -->
        <function-decl name='TurnItselfOffLocked' mangled-name='_ZN15HeapLeakChecker19TurnItselfOffLockedEv' filepath='src/heap-checker.cc' line='2229' column='1' visibility='default' binding='global' size-in-bits='64' elf-symbol-id='_ZN15HeapLeakChecker19TurnItselfOffLockedEv'>
          <!-- void -->
          <return type-id='type-id-60'/>
        </function-decl>
      </member-function>
      <member-function access='private' static='yes'>
        <!-- void HeapLeakChecker::IgnoreLiveObjectsLocked(const char*) -->
        <function-decl name='IgnoreLiveObjectsLocked' mangled-name='_ZN15HeapLeakChecker23IgnoreLiveObjectsLockedEPKcS1_' filepath='src/heap-checker.cc' line='1392' column='1' visibility='default' binding='global' size-in-bits='64' elf-symbol-id='_ZN15HeapLeakChecker23IgnoreLiveObjectsLockedEPKcS1_'>
          <!-- parameter of type 'const char*' -->
          <parameter type-id='type-id-57'/>
          <!-- parameter of type 'const char*' -->
          <parameter type-id='type-id-57'/>
          <!-- void -->
          <return type-id='type-id-60'/>
        </function-decl>
      </member-function>
      <member-function access='private' static='yes'>
        <!-- void* HeapLeakChecker::GetAllocCaller() -->
        <function-decl name='GetAllocCaller' mangled-name='_ZN15HeapLeakChecker14GetAllocCallerEPv' filepath='src/heap-checker.cc' line='2380' column='1' visibility='default' binding='global' size-in-bits='64' elf-symbol-id='_ZN15HeapLeakChecker14GetAllocCallerEPv'>
          <!-- parameter of type 'void*' -->
          <parameter type-id='type-id-58'/>
          <!-- void* -->
          <return type-id='type-id-58'/>
        </function-decl>
      </member-function>
      <member-function access='private' static='yes'>
        <!-- void HeapLeakChecker::CancelGlobalCheck() -->
        <function-decl name='CancelGlobalCheck' mangled-name='_ZN15HeapLeakChecker17CancelGlobalCheckEv' filepath='src/heap-checker.cc' line='2193' column='1' visibility='default' binding='global' size-in-bits='64' elf-symbol-id='_ZN15HeapLeakChecker17CancelGlobalCheckEv'>
          <!-- void -->
          <return type-id='type-id-60'/>
        </function-decl>
      </member-function>
      <member-function access='private' static='yes'>
        <!-- HeapLeakChecker* HeapLeakChecker::GlobalChecker() -->
        <function-decl name='GlobalChecker' mangled-name='_ZN15HeapLeakChecker13GlobalCheckerEv' filepath='src/heap-checker.cc' line='2181' column='1' visibility='default' binding='global' size-in-bits='64' elf-symbol-id='_ZN15HeapLeakChecker13GlobalCheckerEv'>
          <!-- HeapLeakChecker* -->
          <return type-id='type-id-292'/>
        </function-decl>
      </member-function>
      <member-function access='private' static='yes'>
        <!-- bool HeapLeakChecker::IsActive() -->
        <function-decl name='IsActive' mangled-name='_ZN15HeapLeakChecker8IsActiveEv' filepath='src/heap-checker.cc' line='1901' column='1' visibility='default' binding='global' size-in-bits='64' elf-symbol-id='_ZN15HeapLeakChecker8IsActiveEv'>
          <!-- bool -->
          <return type-id='type-id-61'/>
        </function-decl>
      </member-function>
      <member-function access='private'>
        <!-- ssize_t HeapLeakChecker::ObjectsLeaked() -->
        <function-decl name='ObjectsLeaked' mangled-name='_ZNK15HeapLeakChecker13ObjectsLeakedEv' filepath='src/heap-checker.cc' line='1645' column='1' visibility='default' binding='global' size-in-bits='64' elf-symbol-id='_ZNK15HeapLeakChecker13ObjectsLeakedEv'>
          <!-- implicit parameter of type 'const HeapLeakChecker* const' -->
          <parameter type-id='type-id-295' name='this' is-artificial='yes'/>
          <!-- typedef ssize_t -->
          <return type-id='type-id-291'/>
        </function-decl>
      </member-function>
      <member-function access='private'>
        <!-- ssize_t HeapLeakChecker::BytesLeaked() -->
        <function-decl name='BytesLeaked' mangled-name='_ZNK15HeapLeakChecker11BytesLeakedEv' filepath='src/heap-checker.cc' line='1637' column='1' visibility='default' binding='global' size-in-bits='64' elf-symbol-id='_ZNK15HeapLeakChecker11BytesLeakedEv'>
          <!-- implicit parameter of type 'const HeapLeakChecker* const' -->
          <parameter type-id='type-id-295' name='this' is-artificial='yes'/>
          <!-- typedef ssize_t -->
          <return type-id='type-id-291'/>
        </function-decl>
      </member-function>
      <member-function access='private' static='yes'>
        <!-- void HeapLeakChecker::UnIgnoreObject() -->
        <function-decl name='UnIgnoreObject' mangled-name='_ZN15HeapLeakChecker14UnIgnoreObjectEPKv' filepath='src/heap-checker.cc' line='1539' column='1' visibility='default' binding='global' size-in-bits='64' elf-symbol-id='_ZN15HeapLeakChecker14UnIgnoreObjectEPKv'>
          <!-- parameter of type 'void*' -->
          <parameter type-id='type-id-58'/>
          <!-- void -->
          <return type-id='type-id-60'/>
        </function-decl>
      </member-function>
      <member-function access='private' static='yes'>
        <!-- void HeapLeakChecker::IgnoreNonThreadLiveObjectsLocked() -->
        <function-decl name='IgnoreNonThreadLiveObjectsLocked' mangled-name='_ZN15HeapLeakChecker32IgnoreNonThreadLiveObjectsLockedEv' filepath='src/heap-checker.cc' line='1093' column='1' visibility='default' binding='global' size-in-bits='64' elf-symbol-id='_ZN15HeapLeakChecker32IgnoreNonThreadLiveObjectsLockedEv'>
          <!-- void -->
          <return type-id='type-id-60'/>
        </function-decl>
      </member-function>
      <member-function access='private' static='yes'>
        <!-- void HeapLeakChecker::DoIgnoreObject() -->
        <function-decl name='DoIgnoreObject' mangled-name='_ZN15HeapLeakChecker14DoIgnoreObjectEPKv' filepath='src/heap-checker.cc' line='1519' column='1' visibility='default' binding='global' size-in-bits='64' elf-symbol-id='_ZN15HeapLeakChecker14DoIgnoreObjectEPKv'>
          <!-- parameter of type 'void*' -->
          <parameter type-id='type-id-58'/>
          <!-- void -->
          <return type-id='type-id-60'/>
        </function-decl>
      </member-function>
      <member-function access='private'>
        <!-- void HeapLeakChecker::Create(const char*, bool) -->
        <function-decl name='Create' mangled-name='_ZN15HeapLeakChecker6CreateEPKcb' filepath='src/heap-checker.cc' line='1576' column='1' visibility='default' binding='global' size-in-bits='64' elf-symbol-id='_ZN15HeapLeakChecker6CreateEPKcb'>
          <!-- implicit parameter of type 'HeapLeakChecker* const' -->
          <parameter type-id='type-id-294' name='this' is-artificial='yes'/>
          <!-- parameter of type 'const char*' -->
          <parameter type-id='type-id-57' name='name' filepath='src/heap-checker.cc' line='1576' column='1'/>
          <!-- parameter of type 'bool' -->
          <parameter type-id='type-id-61' name='make_start_snapshot' filepath='src/heap-checker.cc' line='1576' column='1'/>
          <!-- void -->
          <return type-id='type-id-60'/>
        </function-decl>
      </member-function>
      <member-function access='private' static='yes'>
        <!-- HeapLeakChecker::ProcMapsResult HeapLeakChecker::UseProcMapsLocked() -->
        <function-decl name='UseProcMapsLocked' mangled-name='_ZN15HeapLeakChecker17UseProcMapsLockedENS_12ProcMapsTaskE' filepath='src/heap-checker.cc' line='892' column='1' visibility='default' binding='global' size-in-bits='64' elf-symbol-id='_ZN15HeapLeakChecker17UseProcMapsLockedENS_12ProcMapsTaskE'>
          <!-- parameter of type 'enum HeapLeakChecker::ProcMapsTask' -->
          <parameter type-id='type-id-281'/>
          <!-- enum HeapLeakChecker::ProcMapsResult -->
          <return type-id='type-id-282'/>
        </function-decl>
      </member-function>
      <member-function access='private' static='yes'>
        <!-- int HeapLeakChecker::IgnoreLiveThreadsLocked(int, pid_t*, typedef __va_list_tag __va_list_tag*) -->
        <function-decl name='IgnoreLiveThreadsLocked' mangled-name='_ZN15HeapLeakChecker23IgnoreLiveThreadsLockedEPviPiP13__va_list_tag' filepath='src/heap-checker.cc' line='1021' column='1' visibility='default' binding='global' size-in-bits='64' elf-symbol-id='_ZN15HeapLeakChecker23IgnoreLiveThreadsLockedEPviPiP13__va_list_tag'>
          <!-- parameter of type 'void*' -->
          <parameter type-id='type-id-58'/>
          <!-- parameter of type 'int' -->
          <parameter type-id='type-id-1'/>
          <!-- parameter of type 'pid_t*' -->
          <parameter type-id='type-id-71'/>
          <!-- parameter of type 'typedef __va_list_tag __va_list_tag*' -->
          <parameter type-id='type-id-72'/>
          <!-- int -->
          <return type-id='type-id-1'/>
        </function-decl>
      </member-function>
      <member-function access='private' static='yes'>
        <!-- void HeapLeakChecker::IgnoreAllLiveObjectsLocked() -->
        <function-decl name='IgnoreAllLiveObjectsLocked' mangled-name='_ZN15HeapLeakChecker26IgnoreAllLiveObjectsLockedEPKv' filepath='src/heap-checker.cc' line='1261' column='1' visibility='default' binding='global' size-in-bits='64' elf-symbol-id='_ZN15HeapLeakChecker26IgnoreAllLiveObjectsLockedEPKv'>
          <!-- parameter of type 'void*' -->
          <parameter type-id='type-id-58'/>
          <!-- void -->
          <return type-id='type-id-60'/>
        </function-decl>
      </member-function>
      <member-function access='private'>
        <!-- bool HeapLeakChecker::DoNoLeaks(HeapLeakChecker::ShouldSymbolize) -->
        <function-decl name='DoNoLeaks' mangled-name='_ZN15HeapLeakChecker9DoNoLeaksENS_15ShouldSymbolizeE' filepath='src/heap-checker.cc' line='1712' column='1' visibility='default' binding='global' size-in-bits='64' elf-symbol-id='_ZN15HeapLeakChecker9DoNoLeaksENS_15ShouldSymbolizeE'>
          <!-- implicit parameter of type 'HeapLeakChecker* const' -->
          <parameter type-id='type-id-294' name='this' is-artificial='yes'/>
          <!-- parameter of type 'enum HeapLeakChecker::ShouldSymbolize' -->
          <parameter type-id='type-id-280' name='should_symbolize' filepath='src/heap-checker.cc' line='1712' column='1'/>
          <!-- bool -->
          <return type-id='type-id-61'/>
        </function-decl>
      </member-function>
      <member-function access='private' static='yes'>
        <!-- bool HeapLeakChecker::NoGlobalLeaksMaybeSymbolize() -->
        <function-decl name='NoGlobalLeaksMaybeSymbolize' mangled-name='_ZN15HeapLeakChecker27NoGlobalLeaksMaybeSymbolizeENS_15ShouldSymbolizeE' filepath='src/heap-checker.cc' line='2141' column='1' visibility='default' binding='global' size-in-bits='64' elf-symbol-id='_ZN15HeapLeakChecker27NoGlobalLeaksMaybeSymbolizeENS_15ShouldSymbolizeE'>
          <!-- parameter of type 'enum HeapLeakChecker::ShouldSymbolize' -->
          <parameter type-id='type-id-280'/>
          <!-- bool -->
          <return type-id='type-id-61'/>
        </function-decl>
      </member-function>
      <member-function access='private' static='yes'>
        <!-- bool HeapLeakChecker::NoGlobalLeaks() -->
        <function-decl name='NoGlobalLeaks' mangled-name='_ZN15HeapLeakChecker13NoGlobalLeaksEv' filepath='src/heap-checker.cc' line='2187' column='1' visibility='default' binding='global' size-in-bits='64' elf-symbol-id='_ZN15HeapLeakChecker13NoGlobalLeaksEv'>
          <!-- bool -->
          <return type-id='type-id-61'/>
        </function-decl>
      </member-function>
      <member-function access='private' static='yes'>
        <!-- bool HeapLeakChecker::DoMainHeapCheck() -->
        <function-decl name='DoMainHeapCheck' mangled-name='_ZN15HeapLeakChecker15DoMainHeapCheckEv' filepath='src/heap-checker.cc' line='2153' column='1' visibility='default' binding='global' size-in-bits='64' elf-symbol-id='_ZN15HeapLeakChecker15DoMainHeapCheckEv'>
          <!-- bool -->
          <return type-id='type-id-61'/>
        </function-decl>
      </member-function>
      <member-function access='private' static='yes'>
        <!-- MallocExtension* HeapLeakChecker::IgnoreObject<MallocExtension>() -->
        <function-decl name='IgnoreObject&lt;MallocExtension&gt;' filepath='src/gperftools/heap-checker.h' line='197' column='1' visibility='default' binding='global' size-in-bits='64'>
          <!-- parameter of type 'MallocExtension*' -->
          <parameter type-id='type-id-296'/>
          <!-- MallocExtension* -->
          <return type-id='type-id-296'/>
        </function-decl>
      </member-function>
    </class-decl>
    <!-- struct HeapProfileBucket -->
    <class-decl name='HeapProfileBucket' size-in-bits='448' is-struct='yes' visibility='default' filepath='src/heap-profile-stats.h' line='68' column='1' id='type-id-212'>
      <!-- struct HeapProfileStats -->
      <base-class access='public' layout-offset-in-bits='0' type-id='type-id-180'/>
      <data-member access='public' static='yes'>
        <!-- static const int HeapProfileBucket::kMaxStackDepth -->
        <var-decl name='kMaxStackDepth' type-id='type-id-144' visibility='default' filepath='src/heap-profile-stats.h' line='70' column='1'/>
      </data-member>
      <data-member access='public' layout-offset-in-bits='192'>
        <!-- uintptr_t HeapProfileBucket::hash -->
        <var-decl name='hash' type-id='type-id-156' visibility='default' filepath='src/heap-profile-stats.h' line='72' column='1'/>
      </data-member>
      <data-member access='public' layout-offset-in-bits='256'>
        <!-- int HeapProfileBucket::depth -->
        <var-decl name='depth' type-id='type-id-1' visibility='default' filepath='src/heap-profile-stats.h' line='73' column='1'/>
      </data-member>
      <data-member access='public' layout-offset-in-bits='320'>
        <!-- void** HeapProfileBucket::stack -->
        <var-decl name='stack' type-id='type-id-151' visibility='default' filepath='src/heap-profile-stats.h' line='74' column='1'/>
      </data-member>
      <data-member access='public' layout-offset-in-bits='384'>
        <!-- HeapProfileBucket* HeapProfileBucket::next -->
        <var-decl name='next' type-id='type-id-206' visibility='default' filepath='src/heap-profile-stats.h' line='75' column='1'/>
      </data-member>
    </class-decl>
    <!-- class STL_Allocator<char, HeapLeakChecker::Allocator> -->
    <class-decl name='STL_Allocator&lt;char, HeapLeakChecker::Allocator&gt;' size-in-bits='8' visibility='default' filepath='src/base/stl_allocator.h' line='60' column='1' id='type-id-297'>
      <member-function access='private'>
        <!-- void STL_Allocator<char, HeapLeakChecker::Allocator>::STL_Allocator() -->
        <function-decl name='STL_Allocator' filepath='src/base/stl_allocator.h' line='74' column='1' visibility='default' binding='global' size-in-bits='64'>
          <!-- implicit parameter of type 'STL_Allocator<char, HeapLeakChecker::Allocator>*' -->
          <parameter type-id='type-id-298' is-artificial='yes'/>
          <!-- void -->
          <return type-id='type-id-60'/>
        </function-decl>
      </member-function>
      <member-function access='private'>
        <!-- void STL_Allocator<char, HeapLeakChecker::Allocator>::STL_Allocator(const STL_Allocator<char, HeapLeakChecker::Allocator>&) -->
        <function-decl name='STL_Allocator' filepath='src/base/stl_allocator.h' line='75' column='1' visibility='default' binding='global' size-in-bits='64'>
          <!-- implicit parameter of type 'STL_Allocator<char, HeapLeakChecker::Allocator>*' -->
          <parameter type-id='type-id-298' is-artificial='yes'/>
          <!-- parameter of type 'const STL_Allocator<char, HeapLeakChecker::Allocator>&' -->
          <parameter type-id='type-id-299'/>
          <!-- void -->
          <return type-id='type-id-60'/>
        </function-decl>
      </member-function>
      <member-function access='private' destructor='yes'>
        <!-- STL_Allocator<char, HeapLeakChecker::Allocator>::~STL_Allocator(int) -->
        <function-decl name='~STL_Allocator' filepath='src/base/stl_allocator.h' line='77' column='1' visibility='default' binding='global' size-in-bits='64'>
          <!-- implicit parameter of type 'STL_Allocator<char, HeapLeakChecker::Allocator>*' -->
          <parameter type-id='type-id-298' is-artificial='yes'/>
          <!-- artificial parameter of type 'int' -->
          <parameter type-id='type-id-1' is-artificial='yes'/>
          <!-- void -->
          <return type-id='type-id-60'/>
        </function-decl>
      </member-function>
    </class-decl>
    <!-- typedef int RawFD -->
    <typedef-decl name='RawFD' type-id='type-id-1' filepath='./src/base/logging.h' line='251' column='1' id='type-id-75'/>
    <!-- typedef long int __intptr_t -->
    <typedef-decl name='__intptr_t' type-id='type-id-85' filepath='/usr/include/bits/types.h' line='189' column='1' id='type-id-300'/>
    <!-- typedef __off_t off_t -->
    <typedef-decl name='off_t' type-id='type-id-301' filepath='/usr/include/sys/types.h' line='87' column='1' id='type-id-207'/>
    <!-- class STL_Allocator<std::_Rb_tree_node<std::pair<const std::basic_string<char, std::char_traits<char>, STL_Allocator<char, HeapLeakChecker::Allocator> >, std::vector<AllocObject, STL_Allocator<AllocObject, HeapLeakChecker::Allocator> > > >, HeapLeakChecker::Allocator> -->
    <class-decl name='STL_Allocator&lt;std::_Rb_tree_node&lt;std::pair&lt;const std::basic_string&lt;char, std::char_traits&lt;char&gt;, STL_Allocator&lt;char, HeapLeakChecker::Allocator&gt; &gt;, std::vector&lt;AllocObject, STL_Allocator&lt;AllocObject, HeapLeakChecker::Allocator&gt; &gt; &gt; &gt;, HeapLeakChecker::Allocator&gt;' size-in-bits='8' visibility='default' filepath='src/base/stl_allocator.h' line='60' column='1' id='type-id-302'>
      <member-function access='private'>
        <!-- void STL_Allocator<std::_Rb_tree_node<std::pair<const std::basic_string<char, std::char_traits<char>, STL_Allocator<char, HeapLeakChecker::Allocator> >, std::vector<AllocObject, STL_Allocator<AllocObject, HeapLeakChecker::Allocator> > > >, HeapLeakChecker::Allocator>::STL_Allocator() -->
        <function-decl name='STL_Allocator' filepath='src/base/stl_allocator.h' line='74' column='1' visibility='default' binding='global' size-in-bits='64'>
          <!-- implicit parameter of type 'STL_Allocator<std::_Rb_tree_node<std::pair<const std::basic_string<char, std::char_traits<char>, STL_Allocator<char, HeapLeakChecker::Allocator> >, std::vector<AllocObject, STL_Allocator<AllocObject, HeapLeakChecker::Allocator> > > >, HeapLeakChecker::Allocator>*' -->
          <parameter type-id='type-id-303' is-artificial='yes'/>
          <!-- void -->
          <return type-id='type-id-60'/>
        </function-decl>
      </member-function>
      <member-function access='private'>
        <!-- void STL_Allocator<std::_Rb_tree_node<std::pair<const std::basic_string<char, std::char_traits<char>, STL_Allocator<char, HeapLeakChecker::Allocator> >, std::vector<AllocObject, STL_Allocator<AllocObject, HeapLeakChecker::Allocator> > > >, HeapLeakChecker::Allocator>::STL_Allocator(const STL_Allocator<std::_Rb_tree_node<std::pair<const std::basic_string<char, std::char_traits<char>, STL_Allocator<char, HeapLeakChecker::Allocator> >, std::vector<AllocObject, STL_Allocator<AllocObject, HeapLeakChecker::Allocator> > > >, HeapLeakChecker::Allocator>&) -->
        <function-decl name='STL_Allocator' filepath='src/base/stl_allocator.h' line='75' column='1' visibility='default' binding='global' size-in-bits='64'>
          <!-- implicit parameter of type 'STL_Allocator<std::_Rb_tree_node<std::pair<const std::basic_string<char, std::char_traits<char>, STL_Allocator<char, HeapLeakChecker::Allocator> >, std::vector<AllocObject, STL_Allocator<AllocObject, HeapLeakChecker::Allocator> > > >, HeapLeakChecker::Allocator>*' -->
          <parameter type-id='type-id-303' is-artificial='yes'/>
          <!-- parameter of type 'const STL_Allocator<std::_Rb_tree_node<std::pair<const std::basic_string<char, std::char_traits<char>, STL_Allocator<char, HeapLeakChecker::Allocator> >, std::vector<AllocObject, STL_Allocator<AllocObject, HeapLeakChecker::Allocator> > > >, HeapLeakChecker::Allocator>&' -->
          <parameter type-id='type-id-304'/>
          <!-- void -->
          <return type-id='type-id-60'/>
        </function-decl>
      </member-function>
      <member-function access='private' destructor='yes'>
        <!-- STL_Allocator<std::_Rb_tree_node<std::pair<const std::basic_string<char, std::char_traits<char>, STL_Allocator<char, HeapLeakChecker::Allocator> >, std::vector<AllocObject, STL_Allocator<AllocObject, HeapLeakChecker::Allocator> > > >, HeapLeakChecker::Allocator>::~STL_Allocator(int) -->
        <function-decl name='~STL_Allocator' filepath='src/base/stl_allocator.h' line='77' column='1' visibility='default' binding='global' size-in-bits='64'>
          <!-- implicit parameter of type 'STL_Allocator<std::_Rb_tree_node<std::pair<const std::basic_string<char, std::char_traits<char>, STL_Allocator<char, HeapLeakChecker::Allocator> >, std::vector<AllocObject, STL_Allocator<AllocObject, HeapLeakChecker::Allocator> > > >, HeapLeakChecker::Allocator>*' -->
          <parameter type-id='type-id-303' is-artificial='yes'/>
          <!-- artificial parameter of type 'int' -->
          <parameter type-id='type-id-1' is-artificial='yes'/>
          <!-- void -->
          <return type-id='type-id-60'/>
        </function-decl>
      </member-function>
    </class-decl>
    <!-- class STL_Allocator<std::pair<const std::basic_string<char, std::char_traits<char>, STL_Allocator<char, HeapLeakChecker::Allocator> >, std::vector<AllocObject, STL_Allocator<AllocObject, HeapLeakChecker::Allocator> > >, HeapLeakChecker::Allocator> -->
    <class-decl name='STL_Allocator&lt;std::pair&lt;const std::basic_string&lt;char, std::char_traits&lt;char&gt;, STL_Allocator&lt;char, HeapLeakChecker::Allocator&gt; &gt;, std::vector&lt;AllocObject, STL_Allocator&lt;AllocObject, HeapLeakChecker::Allocator&gt; &gt; &gt;, HeapLeakChecker::Allocator&gt;' size-in-bits='8' visibility='default' filepath='src/base/stl_allocator.h' line='60' column='1' id='type-id-305'>
      <member-function access='private'>
        <!-- void STL_Allocator<std::pair<const std::basic_string<char, std::char_traits<char>, STL_Allocator<char, HeapLeakChecker::Allocator> >, std::vector<AllocObject, STL_Allocator<AllocObject, HeapLeakChecker::Allocator> > >, HeapLeakChecker::Allocator>::STL_Allocator() -->
        <function-decl name='STL_Allocator' filepath='src/base/stl_allocator.h' line='74' column='1' visibility='default' binding='global' size-in-bits='64'>
          <!-- implicit parameter of type 'STL_Allocator<std::pair<const std::basic_string<char, std::char_traits<char>, STL_Allocator<char, HeapLeakChecker::Allocator> >, std::vector<AllocObject, STL_Allocator<AllocObject, HeapLeakChecker::Allocator> > >, HeapLeakChecker::Allocator>*' -->
          <parameter type-id='type-id-306' is-artificial='yes'/>
          <!-- void -->
          <return type-id='type-id-60'/>
        </function-decl>
      </member-function>
      <member-function access='private'>
        <!-- void STL_Allocator<std::pair<const std::basic_string<char, std::char_traits<char>, STL_Allocator<char, HeapLeakChecker::Allocator> >, std::vector<AllocObject, STL_Allocator<AllocObject, HeapLeakChecker::Allocator> > >, HeapLeakChecker::Allocator>::STL_Allocator(const STL_Allocator<std::pair<const std::basic_string<char, std::char_traits<char>, STL_Allocator<char, HeapLeakChecker::Allocator> >, std::vector<AllocObject, STL_Allocator<AllocObject, HeapLeakChecker::Allocator> > >, HeapLeakChecker::Allocator>&) -->
        <function-decl name='STL_Allocator' filepath='src/base/stl_allocator.h' line='75' column='1' visibility='default' binding='global' size-in-bits='64'>
          <!-- implicit parameter of type 'STL_Allocator<std::pair<const std::basic_string<char, std::char_traits<char>, STL_Allocator<char, HeapLeakChecker::Allocator> >, std::vector<AllocObject, STL_Allocator<AllocObject, HeapLeakChecker::Allocator> > >, HeapLeakChecker::Allocator>*' -->
          <parameter type-id='type-id-306' is-artificial='yes'/>
          <!-- parameter of type 'const STL_Allocator<std::pair<const std::basic_string<char, std::char_traits<char>, STL_Allocator<char, HeapLeakChecker::Allocator> >, std::vector<AllocObject, STL_Allocator<AllocObject, HeapLeakChecker::Allocator> > >, HeapLeakChecker::Allocator>&' -->
          <parameter type-id='type-id-307'/>
          <!-- void -->
          <return type-id='type-id-60'/>
        </function-decl>
      </member-function>
      <member-function access='private' destructor='yes'>
        <!-- STL_Allocator<std::pair<const std::basic_string<char, std::char_traits<char>, STL_Allocator<char, HeapLeakChecker::Allocator> >, std::vector<AllocObject, STL_Allocator<AllocObject, HeapLeakChecker::Allocator> > >, HeapLeakChecker::Allocator>::~STL_Allocator(int) -->
        <function-decl name='~STL_Allocator' filepath='src/base/stl_allocator.h' line='77' column='1' visibility='default' binding='global' size-in-bits='64'>
          <!-- implicit parameter of type 'STL_Allocator<std::pair<const std::basic_string<char, std::char_traits<char>, STL_Allocator<char, HeapLeakChecker::Allocator> >, std::vector<AllocObject, STL_Allocator<AllocObject, HeapLeakChecker::Allocator> > >, HeapLeakChecker::Allocator>*' -->
          <parameter type-id='type-id-306' is-artificial='yes'/>
          <!-- artificial parameter of type 'int' -->
          <parameter type-id='type-id-1' is-artificial='yes'/>
          <!-- void -->
          <return type-id='type-id-60'/>
        </function-decl>
      </member-function>
      <member-function access='private'>
        <!-- void STL_Allocator<std::pair<const std::basic_string<char, std::char_traits<char>, STL_Allocator<char, HeapLeakChecker::Allocator> >, std::vector<AllocObject, STL_Allocator<AllocObject, HeapLeakChecker::Allocator> > >, HeapLeakChecker::Allocator>::STL_Allocator<std::_Rb_tree_node<std::pair<const std::basic_string<char, std::char_traits<char>, STL_Allocator<char, HeapLeakChecker::Allocator> >, std::vector<AllocObject, STL_Allocator<AllocObject, HeapLeakChecker::Allocator> > > > >(const STL_Allocator<std::_Rb_tree_node<std::pair<const std::basic_string<char, std::char_traits<char>, STL_Allocator<char, HeapLeakChecker::Allocator> >, std::vector<AllocObject, STL_Allocator<AllocObject, HeapLeakChecker::Allocator> > > >, HeapLeakChecker::Allocator>&) -->
        <function-decl name='STL_Allocator&lt;std::_Rb_tree_node&lt;std::pair&lt;const std::basic_string&lt;char, std::char_traits&lt;char&gt;, STL_Allocator&lt;char, HeapLeakChecker::Allocator&gt; &gt;, std::vector&lt;AllocObject, STL_Allocator&lt;AllocObject, HeapLeakChecker::Allocator&gt; &gt; &gt; &gt; &gt;' filepath='src/base/stl_allocator.h' line='76' column='1' visibility='default' binding='global' size-in-bits='64'>
          <!-- implicit parameter of type 'STL_Allocator<std::pair<const std::basic_string<char, std::char_traits<char>, STL_Allocator<char, HeapLeakChecker::Allocator> >, std::vector<AllocObject, STL_Allocator<AllocObject, HeapLeakChecker::Allocator> > >, HeapLeakChecker::Allocator>*' -->
          <parameter type-id='type-id-306' is-artificial='yes'/>
          <!-- parameter of type 'const STL_Allocator<std::_Rb_tree_node<std::pair<const std::basic_string<char, std::char_traits<char>, STL_Allocator<char, HeapLeakChecker::Allocator> >, std::vector<AllocObject, STL_Allocator<AllocObject, HeapLeakChecker::Allocator> > > >, HeapLeakChecker::Allocator>&' -->
          <parameter type-id='type-id-304'/>
          <!-- void -->
          <return type-id='type-id-60'/>
        </function-decl>
      </member-function>
    </class-decl>
    <!-- class STL_Allocator<std::_Rb_tree_node<std::pair<const long unsigned int, HeapLeakChecker::RangeValue> >, HeapLeakChecker::Allocator> -->
    <class-decl name='STL_Allocator&lt;std::_Rb_tree_node&lt;std::pair&lt;const long unsigned int, HeapLeakChecker::RangeValue&gt; &gt;, HeapLeakChecker::Allocator&gt;' size-in-bits='8' visibility='default' filepath='src/base/stl_allocator.h' line='60' column='1' id='type-id-308'>
      <member-function access='private'>
        <!-- void STL_Allocator<std::_Rb_tree_node<std::pair<const long unsigned int, HeapLeakChecker::RangeValue> >, HeapLeakChecker::Allocator>::STL_Allocator() -->
        <function-decl name='STL_Allocator' filepath='src/base/stl_allocator.h' line='74' column='1' visibility='default' binding='global' size-in-bits='64'>
          <!-- implicit parameter of type 'STL_Allocator<std::_Rb_tree_node<std::pair<const long unsigned int, HeapLeakChecker::RangeValue> >, HeapLeakChecker::Allocator>*' -->
          <parameter type-id='type-id-309' is-artificial='yes'/>
          <!-- void -->
          <return type-id='type-id-60'/>
        </function-decl>
      </member-function>
      <member-function access='private'>
        <!-- void STL_Allocator<std::_Rb_tree_node<std::pair<const long unsigned int, HeapLeakChecker::RangeValue> >, HeapLeakChecker::Allocator>::STL_Allocator(const STL_Allocator<std::_Rb_tree_node<std::pair<const long unsigned int, HeapLeakChecker::RangeValue> >, HeapLeakChecker::Allocator>&) -->
        <function-decl name='STL_Allocator' filepath='src/base/stl_allocator.h' line='75' column='1' visibility='default' binding='global' size-in-bits='64'>
          <!-- implicit parameter of type 'STL_Allocator<std::_Rb_tree_node<std::pair<const long unsigned int, HeapLeakChecker::RangeValue> >, HeapLeakChecker::Allocator>*' -->
          <parameter type-id='type-id-309' is-artificial='yes'/>
          <!-- parameter of type 'const STL_Allocator<std::_Rb_tree_node<std::pair<const long unsigned int, HeapLeakChecker::RangeValue> >, HeapLeakChecker::Allocator>&' -->
          <parameter type-id='type-id-310'/>
          <!-- void -->
          <return type-id='type-id-60'/>
        </function-decl>
      </member-function>
      <member-function access='private' destructor='yes'>
        <!-- STL_Allocator<std::_Rb_tree_node<std::pair<const long unsigned int, HeapLeakChecker::RangeValue> >, HeapLeakChecker::Allocator>::~STL_Allocator(int) -->
        <function-decl name='~STL_Allocator' filepath='src/base/stl_allocator.h' line='77' column='1' visibility='default' binding='global' size-in-bits='64'>
          <!-- implicit parameter of type 'STL_Allocator<std::_Rb_tree_node<std::pair<const long unsigned int, HeapLeakChecker::RangeValue> >, HeapLeakChecker::Allocator>*' -->
          <parameter type-id='type-id-309' is-artificial='yes'/>
          <!-- artificial parameter of type 'int' -->
          <parameter type-id='type-id-1' is-artificial='yes'/>
          <!-- void -->
          <return type-id='type-id-60'/>
        </function-decl>
      </member-function>
    </class-decl>
    <!-- class STL_Allocator<std::pair<const long unsigned int, HeapLeakChecker::RangeValue>, HeapLeakChecker::Allocator> -->
    <class-decl name='STL_Allocator&lt;std::pair&lt;const long unsigned int, HeapLeakChecker::RangeValue&gt;, HeapLeakChecker::Allocator&gt;' size-in-bits='8' visibility='default' filepath='src/base/stl_allocator.h' line='60' column='1' id='type-id-311'>
      <member-function access='private'>
        <!-- void STL_Allocator<std::pair<const long unsigned int, HeapLeakChecker::RangeValue>, HeapLeakChecker::Allocator>::STL_Allocator() -->
        <function-decl name='STL_Allocator' filepath='src/base/stl_allocator.h' line='74' column='1' visibility='default' binding='global' size-in-bits='64'>
          <!-- implicit parameter of type 'STL_Allocator<std::pair<const long unsigned int, HeapLeakChecker::RangeValue>, HeapLeakChecker::Allocator>*' -->
          <parameter type-id='type-id-312' is-artificial='yes'/>
          <!-- void -->
          <return type-id='type-id-60'/>
        </function-decl>
      </member-function>
      <member-function access='private'>
        <!-- void STL_Allocator<std::pair<const long unsigned int, HeapLeakChecker::RangeValue>, HeapLeakChecker::Allocator>::STL_Allocator(const STL_Allocator<std::pair<const long unsigned int, HeapLeakChecker::RangeValue>, HeapLeakChecker::Allocator>&) -->
        <function-decl name='STL_Allocator' filepath='src/base/stl_allocator.h' line='75' column='1' visibility='default' binding='global' size-in-bits='64'>
          <!-- implicit parameter of type 'STL_Allocator<std::pair<const long unsigned int, HeapLeakChecker::RangeValue>, HeapLeakChecker::Allocator>*' -->
          <parameter type-id='type-id-312' is-artificial='yes'/>
          <!-- parameter of type 'const STL_Allocator<std::pair<const long unsigned int, HeapLeakChecker::RangeValue>, HeapLeakChecker::Allocator>&' -->
          <parameter type-id='type-id-313'/>
          <!-- void -->
          <return type-id='type-id-60'/>
        </function-decl>
      </member-function>
      <member-function access='private' destructor='yes'>
        <!-- STL_Allocator<std::pair<const long unsigned int, HeapLeakChecker::RangeValue>, HeapLeakChecker::Allocator>::~STL_Allocator(int) -->
        <function-decl name='~STL_Allocator' filepath='src/base/stl_allocator.h' line='77' column='1' visibility='default' binding='global' size-in-bits='64'>
          <!-- implicit parameter of type 'STL_Allocator<std::pair<const long unsigned int, HeapLeakChecker::RangeValue>, HeapLeakChecker::Allocator>*' -->
          <parameter type-id='type-id-312' is-artificial='yes'/>
          <!-- artificial parameter of type 'int' -->
          <parameter type-id='type-id-1' is-artificial='yes'/>
          <!-- void -->
          <return type-id='type-id-60'/>
        </function-decl>
      </member-function>
      <member-function access='private'>
        <!-- void STL_Allocator<std::pair<const long unsigned int, HeapLeakChecker::RangeValue>, HeapLeakChecker::Allocator>::STL_Allocator<std::_Rb_tree_node<std::pair<const long unsigned int, HeapLeakChecker::RangeValue> > >(const STL_Allocator<std::_Rb_tree_node<std::pair<const long unsigned int, HeapLeakChecker::RangeValue> >, HeapLeakChecker::Allocator>&) -->
        <function-decl name='STL_Allocator&lt;std::_Rb_tree_node&lt;std::pair&lt;const long unsigned int, HeapLeakChecker::RangeValue&gt; &gt; &gt;' filepath='src/base/stl_allocator.h' line='76' column='1' visibility='default' binding='global' size-in-bits='64'>
          <!-- implicit parameter of type 'STL_Allocator<std::pair<const long unsigned int, HeapLeakChecker::RangeValue>, HeapLeakChecker::Allocator>*' -->
          <parameter type-id='type-id-312' is-artificial='yes'/>
          <!-- parameter of type 'const STL_Allocator<std::_Rb_tree_node<std::pair<const long unsigned int, HeapLeakChecker::RangeValue> >, HeapLeakChecker::Allocator>&' -->
          <parameter type-id='type-id-310'/>
          <!-- void -->
          <return type-id='type-id-60'/>
        </function-decl>
      </member-function>
    </class-decl>
    <!-- class STL_Allocator<std::_Rb_tree_node<long unsigned int>, HeapLeakChecker::Allocator> -->
    <class-decl name='STL_Allocator&lt;std::_Rb_tree_node&lt;long unsigned int&gt;, HeapLeakChecker::Allocator&gt;' size-in-bits='8' visibility='default' filepath='src/base/stl_allocator.h' line='60' column='1' id='type-id-314'>
      <member-function access='private'>
        <!-- void STL_Allocator<std::_Rb_tree_node<long unsigned int>, HeapLeakChecker::Allocator>::STL_Allocator() -->
        <function-decl name='STL_Allocator' filepath='src/base/stl_allocator.h' line='74' column='1' visibility='default' binding='global' size-in-bits='64'>
          <!-- implicit parameter of type 'STL_Allocator<std::_Rb_tree_node<long unsigned int>, HeapLeakChecker::Allocator>*' -->
          <parameter type-id='type-id-315' is-artificial='yes'/>
          <!-- void -->
          <return type-id='type-id-60'/>
        </function-decl>
      </member-function>
      <member-function access='private'>
        <!-- void STL_Allocator<std::_Rb_tree_node<long unsigned int>, HeapLeakChecker::Allocator>::STL_Allocator(const STL_Allocator<std::_Rb_tree_node<long unsigned int>, HeapLeakChecker::Allocator>&) -->
        <function-decl name='STL_Allocator' filepath='src/base/stl_allocator.h' line='75' column='1' visibility='default' binding='global' size-in-bits='64'>
          <!-- implicit parameter of type 'STL_Allocator<std::_Rb_tree_node<long unsigned int>, HeapLeakChecker::Allocator>*' -->
          <parameter type-id='type-id-315' is-artificial='yes'/>
          <!-- parameter of type 'const STL_Allocator<std::_Rb_tree_node<long unsigned int>, HeapLeakChecker::Allocator>&' -->
          <parameter type-id='type-id-316'/>
          <!-- void -->
          <return type-id='type-id-60'/>
        </function-decl>
      </member-function>
      <member-function access='private' destructor='yes'>
        <!-- STL_Allocator<std::_Rb_tree_node<long unsigned int>, HeapLeakChecker::Allocator>::~STL_Allocator(int) -->
        <function-decl name='~STL_Allocator' filepath='src/base/stl_allocator.h' line='77' column='1' visibility='default' binding='global' size-in-bits='64'>
          <!-- implicit parameter of type 'STL_Allocator<std::_Rb_tree_node<long unsigned int>, HeapLeakChecker::Allocator>*' -->
          <parameter type-id='type-id-315' is-artificial='yes'/>
          <!-- artificial parameter of type 'int' -->
          <parameter type-id='type-id-1' is-artificial='yes'/>
          <!-- void -->
          <return type-id='type-id-60'/>
        </function-decl>
      </member-function>
    </class-decl>
    <!-- class STL_Allocator<long unsigned int, HeapLeakChecker::Allocator> -->
    <class-decl name='STL_Allocator&lt;long unsigned int, HeapLeakChecker::Allocator&gt;' size-in-bits='8' visibility='default' filepath='src/base/stl_allocator.h' line='60' column='1' id='type-id-317'>
      <member-function access='private'>
        <!-- void STL_Allocator<long unsigned int, HeapLeakChecker::Allocator>::STL_Allocator() -->
        <function-decl name='STL_Allocator' filepath='src/base/stl_allocator.h' line='74' column='1' visibility='default' binding='global' size-in-bits='64'>
          <!-- implicit parameter of type 'STL_Allocator<long unsigned int, HeapLeakChecker::Allocator>*' -->
          <parameter type-id='type-id-318' is-artificial='yes'/>
          <!-- void -->
          <return type-id='type-id-60'/>
        </function-decl>
      </member-function>
      <member-function access='private'>
        <!-- void STL_Allocator<long unsigned int, HeapLeakChecker::Allocator>::STL_Allocator(const STL_Allocator<long unsigned int, HeapLeakChecker::Allocator>&) -->
        <function-decl name='STL_Allocator' filepath='src/base/stl_allocator.h' line='75' column='1' visibility='default' binding='global' size-in-bits='64'>
          <!-- implicit parameter of type 'STL_Allocator<long unsigned int, HeapLeakChecker::Allocator>*' -->
          <parameter type-id='type-id-318' is-artificial='yes'/>
          <!-- parameter of type 'const STL_Allocator<long unsigned int, HeapLeakChecker::Allocator>&' -->
          <parameter type-id='type-id-319'/>
          <!-- void -->
          <return type-id='type-id-60'/>
        </function-decl>
      </member-function>
      <member-function access='private' destructor='yes'>
        <!-- STL_Allocator<long unsigned int, HeapLeakChecker::Allocator>::~STL_Allocator(int) -->
        <function-decl name='~STL_Allocator' filepath='src/base/stl_allocator.h' line='77' column='1' visibility='default' binding='global' size-in-bits='64'>
          <!-- implicit parameter of type 'STL_Allocator<long unsigned int, HeapLeakChecker::Allocator>*' -->
          <parameter type-id='type-id-318' is-artificial='yes'/>
          <!-- artificial parameter of type 'int' -->
          <parameter type-id='type-id-1' is-artificial='yes'/>
          <!-- void -->
          <return type-id='type-id-60'/>
        </function-decl>
      </member-function>
      <member-function access='private'>
        <!-- void STL_Allocator<long unsigned int, HeapLeakChecker::Allocator>::STL_Allocator<std::_Rb_tree_node<long unsigned int> >(const STL_Allocator<std::_Rb_tree_node<long unsigned int>, HeapLeakChecker::Allocator>&) -->
        <function-decl name='STL_Allocator&lt;std::_Rb_tree_node&lt;long unsigned int&gt; &gt;' filepath='src/base/stl_allocator.h' line='76' column='1' visibility='default' binding='global' size-in-bits='64'>
          <!-- implicit parameter of type 'STL_Allocator<long unsigned int, HeapLeakChecker::Allocator>*' -->
          <parameter type-id='type-id-318' is-artificial='yes'/>
          <!-- parameter of type 'const STL_Allocator<std::_Rb_tree_node<long unsigned int>, HeapLeakChecker::Allocator>&' -->
          <parameter type-id='type-id-316'/>
          <!-- void -->
          <return type-id='type-id-60'/>
        </function-decl>
      </member-function>
    </class-decl>
    <!-- class STL_Allocator<std::_Rb_tree_node<std::pair<const long unsigned int, long unsigned int> >, HeapLeakChecker::Allocator> -->
    <class-decl name='STL_Allocator&lt;std::_Rb_tree_node&lt;std::pair&lt;const long unsigned int, long unsigned int&gt; &gt;, HeapLeakChecker::Allocator&gt;' size-in-bits='8' visibility='default' filepath='src/base/stl_allocator.h' line='60' column='1' id='type-id-320'>
      <member-function access='private'>
        <!-- void STL_Allocator<std::_Rb_tree_node<std::pair<const long unsigned int, long unsigned int> >, HeapLeakChecker::Allocator>::STL_Allocator() -->
        <function-decl name='STL_Allocator' filepath='src/base/stl_allocator.h' line='74' column='1' visibility='default' binding='global' size-in-bits='64'>
          <!-- implicit parameter of type 'STL_Allocator<std::_Rb_tree_node<std::pair<const long unsigned int, long unsigned int> >, HeapLeakChecker::Allocator>*' -->
          <parameter type-id='type-id-321' is-artificial='yes'/>
          <!-- void -->
          <return type-id='type-id-60'/>
        </function-decl>
      </member-function>
      <member-function access='private'>
        <!-- void STL_Allocator<std::_Rb_tree_node<std::pair<const long unsigned int, long unsigned int> >, HeapLeakChecker::Allocator>::STL_Allocator(const STL_Allocator<std::_Rb_tree_node<std::pair<const long unsigned int, long unsigned int> >, HeapLeakChecker::Allocator>&) -->
        <function-decl name='STL_Allocator' filepath='src/base/stl_allocator.h' line='75' column='1' visibility='default' binding='global' size-in-bits='64'>
          <!-- implicit parameter of type 'STL_Allocator<std::_Rb_tree_node<std::pair<const long unsigned int, long unsigned int> >, HeapLeakChecker::Allocator>*' -->
          <parameter type-id='type-id-321' is-artificial='yes'/>
          <!-- parameter of type 'const STL_Allocator<std::_Rb_tree_node<std::pair<const long unsigned int, long unsigned int> >, HeapLeakChecker::Allocator>&' -->
          <parameter type-id='type-id-322'/>
          <!-- void -->
          <return type-id='type-id-60'/>
        </function-decl>
      </member-function>
      <member-function access='private' destructor='yes'>
        <!-- STL_Allocator<std::_Rb_tree_node<std::pair<const long unsigned int, long unsigned int> >, HeapLeakChecker::Allocator>::~STL_Allocator(int) -->
        <function-decl name='~STL_Allocator' filepath='src/base/stl_allocator.h' line='77' column='1' visibility='default' binding='global' size-in-bits='64'>
          <!-- implicit parameter of type 'STL_Allocator<std::_Rb_tree_node<std::pair<const long unsigned int, long unsigned int> >, HeapLeakChecker::Allocator>*' -->
          <parameter type-id='type-id-321' is-artificial='yes'/>
          <!-- artificial parameter of type 'int' -->
          <parameter type-id='type-id-1' is-artificial='yes'/>
          <!-- void -->
          <return type-id='type-id-60'/>
        </function-decl>
      </member-function>
    </class-decl>
    <!-- class STL_Allocator<std::pair<const long unsigned int, long unsigned int>, HeapLeakChecker::Allocator> -->
    <class-decl name='STL_Allocator&lt;std::pair&lt;const long unsigned int, long unsigned int&gt;, HeapLeakChecker::Allocator&gt;' size-in-bits='8' visibility='default' filepath='src/base/stl_allocator.h' line='60' column='1' id='type-id-323'>
      <member-function access='private'>
        <!-- void STL_Allocator<std::pair<const long unsigned int, long unsigned int>, HeapLeakChecker::Allocator>::STL_Allocator() -->
        <function-decl name='STL_Allocator' filepath='src/base/stl_allocator.h' line='74' column='1' visibility='default' binding='global' size-in-bits='64'>
          <!-- implicit parameter of type 'STL_Allocator<std::pair<const long unsigned int, long unsigned int>, HeapLeakChecker::Allocator>*' -->
          <parameter type-id='type-id-324' is-artificial='yes'/>
          <!-- void -->
          <return type-id='type-id-60'/>
        </function-decl>
      </member-function>
      <member-function access='private'>
        <!-- void STL_Allocator<std::pair<const long unsigned int, long unsigned int>, HeapLeakChecker::Allocator>::STL_Allocator(const STL_Allocator<std::pair<const long unsigned int, long unsigned int>, HeapLeakChecker::Allocator>&) -->
        <function-decl name='STL_Allocator' filepath='src/base/stl_allocator.h' line='75' column='1' visibility='default' binding='global' size-in-bits='64'>
          <!-- implicit parameter of type 'STL_Allocator<std::pair<const long unsigned int, long unsigned int>, HeapLeakChecker::Allocator>*' -->
          <parameter type-id='type-id-324' is-artificial='yes'/>
          <!-- parameter of type 'const STL_Allocator<std::pair<const long unsigned int, long unsigned int>, HeapLeakChecker::Allocator>&' -->
          <parameter type-id='type-id-325'/>
          <!-- void -->
          <return type-id='type-id-60'/>
        </function-decl>
      </member-function>
      <member-function access='private' destructor='yes'>
        <!-- STL_Allocator<std::pair<const long unsigned int, long unsigned int>, HeapLeakChecker::Allocator>::~STL_Allocator(int) -->
        <function-decl name='~STL_Allocator' filepath='src/base/stl_allocator.h' line='77' column='1' visibility='default' binding='global' size-in-bits='64'>
          <!-- implicit parameter of type 'STL_Allocator<std::pair<const long unsigned int, long unsigned int>, HeapLeakChecker::Allocator>*' -->
          <parameter type-id='type-id-324' is-artificial='yes'/>
          <!-- artificial parameter of type 'int' -->
          <parameter type-id='type-id-1' is-artificial='yes'/>
          <!-- void -->
          <return type-id='type-id-60'/>
        </function-decl>
      </member-function>
      <member-function access='private'>
        <!-- void STL_Allocator<std::pair<const long unsigned int, long unsigned int>, HeapLeakChecker::Allocator>::STL_Allocator<std::_Rb_tree_node<std::pair<const long unsigned int, long unsigned int> > >(const STL_Allocator<std::_Rb_tree_node<std::pair<const long unsigned int, long unsigned int> >, HeapLeakChecker::Allocator>&) -->
        <function-decl name='STL_Allocator&lt;std::_Rb_tree_node&lt;std::pair&lt;const long unsigned int, long unsigned int&gt; &gt; &gt;' filepath='src/base/stl_allocator.h' line='76' column='1' visibility='default' binding='global' size-in-bits='64'>
          <!-- implicit parameter of type 'STL_Allocator<std::pair<const long unsigned int, long unsigned int>, HeapLeakChecker::Allocator>*' -->
          <parameter type-id='type-id-324' is-artificial='yes'/>
          <!-- parameter of type 'const STL_Allocator<std::_Rb_tree_node<std::pair<const long unsigned int, long unsigned int> >, HeapLeakChecker::Allocator>&' -->
          <parameter type-id='type-id-322'/>
          <!-- void -->
          <return type-id='type-id-60'/>
        </function-decl>
      </member-function>
    </class-decl>
    <!-- typedef int _Atomic_word -->
    <typedef-decl name='_Atomic_word' type-id='type-id-1' filepath='/usr/lib/gcc/x86_64-redhat-linux/4.4.7/../../../../include/c++/4.4.7/x86_64-redhat-linux/bits/atomic_word.h' line='32' column='1' id='type-id-326'/>
    <!-- typedef std::map<long unsigned int, HeapLeakChecker::RangeValue, std::less<long unsigned int>, STL_Allocator<std::pair<const long unsigned int, HeapLeakChecker::RangeValue>, HeapLeakChecker::Allocator> > DisabledRangeMap -->
    <typedef-decl name='DisabledRangeMap' type-id='type-id-327' filepath='src/heap-checker.cc' line='411' column='1' id='type-id-328'/>
    <!-- typedef std::map<long unsigned int, long unsigned int, std::less<long unsigned int>, STL_Allocator<std::pair<const long unsigned int, long unsigned int>, HeapLeakChecker::Allocator> > GlobalRegionCallerRangeMap -->
    <typedef-decl name='GlobalRegionCallerRangeMap' type-id='type-id-329' filepath='src/heap-checker.cc' line='432' column='1' id='type-id-330'/>
    <!-- typedef std::map<std::basic_string<char, std::char_traits<char>, STL_Allocator<char, HeapLeakChecker::Allocator> >, std::vector<AllocObject, STL_Allocator<AllocObject, HeapLeakChecker::Allocator> >, std::less<std::basic_string<char, std::char_traits<char>, STL_Allocator<char, HeapLeakChecker::Allocator> > >, STL_Allocator<std::pair<const std::basic_string<char, std::char_traits<char>, STL_Allocator<char, HeapLeakChecker::Allocator> >, std::vector<AllocObject, STL_Allocator<AllocObject, HeapLeakChecker::Allocator> > >, HeapLeakChecker::Allocator> > LibraryLiveObjectsStacks -->
    <typedef-decl name='LibraryLiveObjectsStacks' type-id='type-id-331' filepath='src/heap-checker.cc' line='397' column='1' id='type-id-332'/>
    <!-- typedef std::vector<AllocObject, STL_Allocator<AllocObject, HeapLeakChecker::Allocator> > LiveObjectsStack -->
    <typedef-decl name='LiveObjectsStack' type-id='type-id-333' filepath='src/heap-checker.cc' line='384' column='1' id='type-id-334'/>
    <!-- typedef std::set<long unsigned int, std::less<long unsigned int>, STL_Allocator<long unsigned int, HeapLeakChecker::Allocator> > StackTopSet -->
    <typedef-decl name='StackTopSet' type-id='type-id-335' filepath='src/heap-checker.cc' line='422' column='1' id='type-id-336'/>
    <!-- typedef void (void*, typedef size_t)* MallocHook_NewHook -->
    <typedef-decl name='MallocHook_NewHook' type-id='type-id-337' filepath='./src/gperftools/malloc_hook_c.h' line='70' column='1' id='type-id-338'/>
    <!-- typedef void (void*)* MallocHook_DeleteHook -->
    <typedef-decl name='MallocHook_DeleteHook' type-id='type-id-234' filepath='./src/gperftools/malloc_hook_c.h' line='76' column='1' id='type-id-339'/>
    <!-- typedef void (void*, void*, typedef size_t, int, int, int, typedef off_t)* MallocHook_MmapHook -->
    <typedef-decl name='MallocHook_MmapHook' type-id='type-id-340' filepath='./src/gperftools/malloc_hook_c.h' line='99' column='1' id='type-id-341'/>
    <!-- typedef void (void*, typedef ptrdiff_t)* MallocHook_SbrkHook -->
    <typedef-decl name='MallocHook_SbrkHook' type-id='type-id-342' filepath='./src/gperftools/malloc_hook_c.h' line='144' column='1' id='type-id-343'/>
    <!-- class HeapCleaner -->
    <class-decl name='HeapCleaner' size-in-bits='8' visibility='default' filepath='./src/gperftools/heap-checker.h' line='403' column='1' id='type-id-344'>
      <member-type access='private'>
        <!-- typedef void ()* HeapCleaner::void_function -->
        <typedef-decl name='void_function' type-id='type-id-176' filepath='./src/gperftools/heap-checker.h' line='405' column='1' id='type-id-345'/>
      </member-type>
      <data-member access='private' static='yes'>
        <!-- static std::vector<void (*)(), std::allocator<void (*)()> >* HeapCleaner::heap_cleanups_ -->
        <var-decl name='heap_cleanups_' type-id='type-id-346' mangled-name='_ZN11HeapCleaner14heap_cleanups_E' visibility='default' filepath='./src/gperftools/heap-checker.h' line='409' column='1' elf-symbol-id='_ZN11HeapCleaner14heap_cleanups_E'/>
      </data-member>
      <member-function access='private' constructor='yes'>
        <!-- HeapCleaner::HeapCleaner(HeapCleaner::void_function) -->
        <function-decl name='HeapCleaner' mangled-name='_ZN11HeapCleanerC1EPFvvE' filepath='./src/gperftools/heap-checker.h' line='406' column='1' visibility='default' binding='global' size-in-bits='64' elf-symbol-id='_ZN11HeapCleanerC1EPFvvE'>
          <!-- implicit parameter of type 'HeapCleaner*' -->
          <parameter type-id='type-id-347' is-artificial='yes'/>
          <!-- parameter of type 'typedef HeapCleaner::void_function' -->
          <parameter type-id='type-id-345'/>
          <!-- void -->
          <return type-id='type-id-60'/>
        </function-decl>
      </member-function>
      <member-function access='private' static='yes'>
        <!-- void HeapCleaner::RunHeapCleanups() -->
        <function-decl name='RunHeapCleanups' mangled-name='_ZN11HeapCleaner15RunHeapCleanupsEv' filepath='src/heap-checker.cc' line='1917' column='1' visibility='default' binding='global' size-in-bits='64' elf-symbol-id='_ZN11HeapCleaner15RunHeapCleanupsEv'>
          <!-- void -->
          <return type-id='type-id-60'/>
        </function-decl>
      </member-function>
    </class-decl>
    <!-- AddressMap<HeapProfileTable::AllocValue>* -->
    <pointer-type-def type-id='type-id-235' size-in-bits='64' id='type-id-265'/>
    <!-- AddressMap<HeapProfileTable::AllocValue>::Cluster* -->
    <pointer-type-def type-id='type-id-256' size-in-bits='64' id='type-id-271'/>
    <!-- AddressMap<HeapProfileTable::AllocValue>::Cluster** -->
    <pointer-type-def type-id='type-id-271' size-in-bits='64' id='type-id-260'/>
    <!-- AddressMap<HeapProfileTable::AllocValue>::Entry* -->
    <pointer-type-def type-id='type-id-257' size-in-bits='64' id='type-id-261'/>
    <!-- AddressMap<HeapProfileTable::AllocValue>::Object* -->
    <pointer-type-def type-id='type-id-258' size-in-bits='64' id='type-id-264'/>
    <!-- AllocObject& -->
    <reference-type-def kind='lvalue' type-id='type-id-165' size-in-bits='64' id='type-id-348'/>
    <!-- AllocObject* -->
    <pointer-type-def type-id='type-id-165' size-in-bits='64' id='type-id-167'/>
    <!-- AllocObject* const -->
    <qualified-type-def type-id='type-id-167' const='yes' id='type-id-349'/>
    <!-- AllocObject* const& -->
    <reference-type-def kind='lvalue' type-id='type-id-349' size-in-bits='64' id='type-id-350'/>
    <!-- AllocObject*& -->
    <reference-type-def kind='lvalue' type-id='type-id-167' size-in-bits='64' id='type-id-351'/>
    <!-- DisabledRangeMap* -->
    <pointer-type-def type-id='type-id-328' size-in-bits='64' id='type-id-352'/>
    <!-- DisabledRangeMap** -->
    <pointer-type-def type-id='type-id-352' size-in-bits='64' id='type-id-285'/>
    <!-- GlobalRegionCallerRangeMap* -->
    <pointer-type-def type-id='type-id-330' size-in-bits='64' id='type-id-353'/>
    <!-- GlobalRegionCallerRangeMap** -->
    <pointer-type-def type-id='type-id-353' size-in-bits='64' id='type-id-286'/>
    <!-- GoogleInitializer* -->
    <pointer-type-def type-id='type-id-174' size-in-bits='64' id='type-id-179'/>
    <!-- HeapCleaner* -->
    <pointer-type-def type-id='type-id-344' size-in-bits='64' id='type-id-347'/>
    <!-- HeapLeakChecker* -->
    <pointer-type-def type-id='type-id-276' size-in-bits='64' id='type-id-292'/>
    <!-- HeapLeakChecker* const -->
    <qualified-type-def type-id='type-id-292' const='yes' id='type-id-294'/>
    <!-- HeapLeakChecker::Disabler* -->
    <pointer-type-def type-id='type-id-277' size-in-bits='64' id='type-id-278'/>
    <!-- HeapLeakChecker::RangeValue& -->
    <reference-type-def kind='lvalue' type-id='type-id-283' size-in-bits='64' id='type-id-354'/>
    <!-- HeapProfileBucket* -->
    <pointer-type-def type-id='type-id-212' size-in-bits='64' id='type-id-206'/>
    <!-- HeapProfileTable* -->
    <pointer-type-def type-id='type-id-209' size-in-bits='64' id='type-id-245'/>
    <!-- HeapProfileTable** -->
