{
 "array_types" :
 [
  {
   "alignment" : 4,
   "linker_set_key" : "_ZTIA10_i",
   "name" : "int [10]",
   "referenced_type" : "_ZTIi",
   "self_type" : "_ZTIA10_i",
   "size" : 40,
   "source_file" : "out/soong/.intermediates/bionic/libc/libc/android_vendor.32_arm64_armv8-a_shared/gen/include/bits/pthread_types.h"
  },
  {
   "alignment" : 1,
   "linker_set_key" : "_ZTIA120_c",
   "name" : "char [120]",
   "referenced_type" : "_ZTIc",
   "self_type" : "_ZTIA120_c",
   "size" : 120,
   "source_file" : "out/soong/.intermediates/bionic/libc/libc/android_vendor.32_arm64_armv8-a_shared/gen/include/sys/ucontext.h"
  },
  {
   "alignment" : 4,
   "linker_set_key" : "_ZTIA12_i",
   "name" : "int [12]",
   "referenced_type" : "_ZTIi",
   "self_type" : "_ZTIA12_i",
   "size" : 48,
   "source_file" : "out/soong/.intermediates/bionic/libc/libc/android_vendor.32_arm64_armv8-a_shared/gen/include/bits/pthread_types.h"
  },
  {
   "alignment" : 4,
   "linker_set_key" : "_ZTIA14_i",
   "name" : "int [14]",
   "referenced_type" : "_ZTIi",
   "self_type" : "_ZTIA14_i",
   "size" : 56,
   "source_file" : "out/soong/.intermediates/bionic/libc/libc/android_vendor.32_arm64_armv8-a_shared/gen/include/bits/pthread_types.h"
  },
  {
   "alignment" : 1,
   "linker_set_key" : "_ZTIA16_c",
   "name" : "char [16]",
   "referenced_type" : "_ZTIc",
   "self_type" : "_ZTIA16_c",
   "size" : 16,
   "source_file" : "out/soong/.intermediates/bionic/libc/libc/android_vendor.32_arm64_armv8-a_shared/gen/include/bits/pthread_types.h"
  },
  {
   "alignment" : 8,
   "linker_set_key" : "_ZTIA16_m",
   "name" : "unsigned long [16]",
   "referenced_type" : "_ZTIm",
   "self_type" : "_ZTIA16_m",
   "size" : 128,
   "source_file" : "bionic/libc/kernel/uapi/linux/posix_types.h"
  },
  {
   "alignment" : 8,
   "linker_set_key" : "_ZTIA1_m",
   "name" : "unsigned long [1]",
   "referenced_type" : "_ZTIm",
   "self_type" : "_ZTIA1_m",
   "size" : 8,
   "source_file" : "bionic/libc/kernel/uapi/asm-generic/signal.h"
  },
  {
   "alignment" : 1,
   "linker_set_key" : "_ZTIA2_c",
   "name" : "char [2]",
   "referenced_type" : "_ZTIc",
   "self_type" : "_ZTIA2_c",
   "size" : 2,
   "source_file" : "external/libcxx/include/type_traits"
  },
  {
   "alignment" : 4,
   "linker_set_key" : "_ZTIA2_i",
   "name" : "int [2]",
   "referenced_type" : "_ZTIi",
   "self_type" : "_ZTIA2_i",
   "size" : 8,
   "source_file" : "bionic/libc/kernel/uapi/asm-generic/posix_types.h"
  },
  {
   "alignment" : 8,
   "linker_set_key" : "_ZTIA31_m",
   "name" : "unsigned long [31]",
   "referenced_type" : "_ZTIm",
   "self_type" : "_ZTIA31_m",
   "size" : 248,
   "source_file" : "out/soong/.intermediates/bionic/libc/libc/android_vendor.32_arm64_armv8-a_shared/gen/include/sys/user.h"
  },
  {
   "alignment" : 8,
   "linker_set_key" : "_ZTIA31_y",
   "name" : "unsigned long long [31]",
   "referenced_type" : "_ZTIy",
   "self_type" : "_ZTIA31_y",
   "size" : 248,
   "source_file" : "bionic/libc/kernel/uapi/asm-arm64/asm/sigcontext.h"
  },
  {
   "alignment" : 1,
   "linker_set_key" : "_ZTIA32_h",
   "name" : "unsigned char [32]",
   "referenced_type" : "_ZTIh",
   "self_type" : "_ZTIA32_h",
   "size" : 32,
   "source_file" : "external/libcxx/include/type_traits"
  },
  {
   "alignment" : 4,
   "linker_set_key" : "_ZTIA32_i",
   "name" : "int [32]",
   "referenced_type" : "_ZTIi",
   "self_type" : "_ZTIA32_i",
   "size" : 128,
   "source_file" : "bionic/libc/kernel/uapi/asm-generic/siginfo.h"
  },
  {
   "alignment" : 16,
   "linker_set_key" : "_ZTIA32_o",
   "name" : "unsigned __int128 [32]",
   "referenced_type" : "_ZTIo",
   "self_type" : "_ZTIA32_o",
   "size" : 512,
   "source_file" : "bionic/libc/kernel/uapi/asm-arm64/asm/sigcontext.h"
  },
  {
   "alignment" : 4,
   "linker_set_key" : "_ZTIA3_j",
   "name" : "unsigned int [3]",
   "referenced_type" : "_ZTIj",
   "self_type" : "_ZTIA3_j",
   "size" : 12,
   "source_file" : "bionic/libc/kernel/uapi/asm-arm64/asm/sigcontext.h"
  },
  {
   "alignment" : 2,
   "linker_set_key" : "_ZTIA3_t",
   "name" : "unsigned short [3]",
   "referenced_type" : "_ZTIt",
   "self_type" : "_ZTIA3_t",
   "size" : 6,
   "source_file" : "bionic/libc/kernel/uapi/asm-arm64/asm/sigcontext.h"
  },
  {
   "alignment" : 1,
   "linker_set_key" : "_ZTIA4096_h",
   "name" : "unsigned char [4096]",
   "referenced_type" : "_ZTIh",
   "self_type" : "_ZTIA4096_h",
   "size" : 4096,
   "source_file" : "bionic/libc/kernel/uapi/asm-arm64/asm/sigcontext.h"
  },
  {
   "alignment" : 8,
   "linker_set_key" : "_ZTIA4_d",
   "name" : "double [4]",
   "referenced_type" : "_ZTId",
   "self_type" : "_ZTIA4_d",
   "size" : 32,
   "source_file" : "external/libcxx/include/type_traits"
  },
  {
   "alignment" : 1,
   "linker_set_key" : "_ZTIA4_h",
   "name" : "unsigned char [4]",
   "referenced_type" : "_ZTIh",
   "self_type" : "_ZTIA4_h",
   "size" : 4,
   "source_file" : "out/soong/.intermediates/bionic/libc/libc/android_vendor.32_arm64_armv8-a_shared/gen/include/bits/mbstate_t.h"
  },
  {
   "alignment" : 8,
   "linker_set_key" : "_ZTIA4_l",
   "name" : "long [4]",
   "referenced_type" : "_ZTIl",
   "self_type" : "_ZTIA4_l",
   "size" : 32,
   "source_file" : "out/soong/.intermediates/bionic/libc/libc/android_vendor.32_arm64_armv8-a_shared/gen/include/bits/pthread_types.h"
  },
  {
   "alignment" : 8,
   "linker_set_key" : "_ZTIA65_PKc",
   "name" : "const char *[65]",
   "referenced_type" : "_ZTIPKc",
   "self_type" : "_ZTIA65_PKc",
   "size" : 520,
   "source_file" : "out/soong/.intermediates/bionic/libc/libc/android_vendor.32_arm64_armv8-a_shared/gen/include/signal.h"
  },
  {
   "alignment" : 1,
   "linker_set_key" : "_ZTIA8_c",
   "name" : "char [8]",
   "referenced_type" : "_ZTIc",
   "self_type" : "_ZTIA8_c",
   "size" : 8,
   "source_file" : "bionic/libc/kernel/uapi/asm-generic/siginfo.h"
  },
  {
   "linker_set_key" : "_ZTIA_Pc",
   "name" : "char *[]",
   "referenced_type" : "_ZTIPc",
   "self_type" : "_ZTIA_Pc",
   "source_file" : "out/soong/.intermediates/bionic/libc/libc/android_vendor.32_arm64_armv8-a_shared/gen/include/time.h"
  }
 ],
 "builtin_types" :
 [
  {
   "alignment" : 4,
   "is_integral" : true,
   "is_unsigned" : true,
   "linker_set_key" : "_ZTIDi",
   "name" : "char32_t",
   "referenced_type" : "_ZTIDi",
   "self_type" : "_ZTIDi",
   "size" : 4
  },
  {
   "alignment" : 8,
   "linker_set_key" : "_ZTIDn",
   "name" : "nullptr_t",
   "referenced_type" : "_ZTIDn",
   "self_type" : "_ZTIDn",
   "size" : 8
  },
  {
   "alignment" : 2,
   "is_integral" : true,
   "is_unsigned" : true,
   "linker_set_key" : "_ZTIDs",
   "name" : "char16_t",
   "referenced_type" : "_ZTIDs",
   "self_type" : "_ZTIDs",
   "size" : 2
  },
  {
   "alignment" : 1,
   "is_integral" : true,
   "linker_set_key" : "_ZTIa",
   "name" : "signed char",
   "referenced_type" : "_ZTIa",
   "self_type" : "_ZTIa",
   "size" : 1
  },
  {
   "alignment" : 1,
   "is_integral" : true,
   "is_unsigned" : true,
   "linker_set_key" : "_ZTIb",
   "name" : "bool",
   "referenced_type" : "_ZTIb",
   "self_type" : "_ZTIb",
   "size" : 1
  },
  {
   "alignment" : 1,
   "is_integral" : true,
   "is_unsigned" : true,
   "linker_set_key" : "_ZTIc",
   "name" : "char",
   "referenced_type" : "_ZTIc",
   "self_type" : "_ZTIc",
   "size" : 1
  },
  {
   "alignment" : 8,
   "linker_set_key" : "_ZTId",
   "name" : "double",
   "referenced_type" : "_ZTId",
   "self_type" : "_ZTId",
   "size" : 8
  },
  {
   "alignment" : 16,
   "linker_set_key" : "_ZTIe",
   "name" : "long double",
   "referenced_type" : "_ZTIe",
   "self_type" : "_ZTIe",
   "size" : 16
  },
  {
   "alignment" : 4,
   "linker_set_key" : "_ZTIf",
   "name" : "float",
   "referenced_type" : "_ZTIf",
   "self_type" : "_ZTIf",
   "size" : 4
  },
  {
   "alignment" : 1,
   "is_integral" : true,
   "is_unsigned" : true,
   "linker_set_key" : "_ZTIh",
   "name" : "unsigned char",
   "referenced_type" : "_ZTIh",
   "self_type" : "_ZTIh",
   "size" : 1
  },
  {
   "alignment" : 4,
   "is_integral" : true,
   "linker_set_key" : "_ZTIi",
   "name" : "int",
   "referenced_type" : "_ZTIi",
   "self_type" : "_ZTIi",
   "size" : 4
  },
  {
   "alignment" : 4,
   "is_integral" : true,
   "is_unsigned" : true,
   "linker_set_key" : "_ZTIj",
   "name" : "unsigned int",
   "referenced_type" : "_ZTIj",
   "self_type" : "_ZTIj",
   "size" : 4
  },
  {
   "alignment" : 8,
   "is_integral" : true,
   "linker_set_key" : "_ZTIl",
   "name" : "long",
   "referenced_type" : "_ZTIl",
   "self_type" : "_ZTIl",
   "size" : 8
  },
  {
   "alignment" : 8,
   "is_integral" : true,
   "is_unsigned" : true,
   "linker_set_key" : "_ZTIm",
   "name" : "unsigned long",
   "referenced_type" : "_ZTIm",
   "self_type" : "_ZTIm",
   "size" : 8
  },
  {
   "alignment" : 16,
   "is_integral" : true,
   "linker_set_key" : "_ZTIn",
   "name" : "__int128",
   "referenced_type" : "_ZTIn",
   "self_type" : "_ZTIn",
   "size" : 16
  },
  {
   "alignment" : 16,
   "is_integral" : true,
   "is_unsigned" : true,
   "linker_set_key" : "_ZTIo",
   "name" : "unsigned __int128",
   "referenced_type" : "_ZTIo",
   "self_type" : "_ZTIo",
   "size" : 16
  },
  {
   "alignment" : 2,
   "is_integral" : true,
   "linker_set_key" : "_ZTIs",
   "name" : "short",
   "referenced_type" : "_ZTIs",
   "self_type" : "_ZTIs",
   "size" : 2
  },
  {
   "alignment" : 2,
   "is_integral" : true,
   "is_unsigned" : true,
   "linker_set_key" : "_ZTIt",
   "name" : "unsigned short",
   "referenced_type" : "_ZTIt",
   "self_type" : "_ZTIt",
   "size" : 2
  },
  {
   "linker_set_key" : "_ZTIv",
   "name" : "void",
   "referenced_type" : "_ZTIv",
   "self_type" : "_ZTIv"
  },
  {
   "alignment" : 4,
   "is_integral" : true,
   "is_unsigned" : true,
   "linker_set_key" : "_ZTIw",
   "name" : "wchar_t",
   "referenced_type" : "_ZTIw",
   "self_type" : "_ZTIw",
   "size" : 4
  },
  {
   "alignment" : 8,
   "is_integral" : true,
   "linker_set_key" : "_ZTIx",
   "name" : "long long",
   "referenced_type" : "_ZTIx",
   "self_type" : "_ZTIx",
   "size" : 8
  },
  {
   "alignment" : 8,
   "is_integral" : true,
   "is_unsigned" : true,
   "linker_set_key" : "_ZTIy",
   "name" : "unsigned long long",
   "referenced_type" : "_ZTIy",
   "self_type" : "_ZTIy",
   "size" : 8
  }
 ],
 "elf_functions" : [],
 "elf_objects" : [],
 "enum_types" :
 [
  {
   "alignment" : 4,
   "enum_fields" :
   [
    {
     "enum_field_value" : 0,
     "name" : "M_HEAP_TAGGING_LEVEL_NONE"
    },
    {
     "enum_field_value" : 1,
     "name" : "M_HEAP_TAGGING_LEVEL_TBI"
    },
    {
     "enum_field_value" : 2,
     "name" : "M_HEAP_TAGGING_LEVEL_ASYNC"
    },
    {
     "enum_field_value" : 3,
     "name" : "M_HEAP_TAGGING_LEVEL_SYNC"
    }
   ],
   "linker_set_key" : "_ZTI16HeapTaggingLevel",
   "name" : "HeapTaggingLevel",
   "referenced_type" : "_ZTI16HeapTaggingLevel",
   "self_type" : "_ZTI16HeapTaggingLevel",
   "size" : 4,
   "source_file" : "out/soong/.intermediates/bionic/libc/libc/android_vendor.32_arm64_armv8-a_shared/gen/include/malloc.h",
   "underlying_type" : "_ZTIj"
  },
  {
   "alignment" : 4,
   "enum_fields" :
   [
    {
     "enum_field_value" : 0,
     "name" : "std::__1::memory_order_relaxed"
    },
    {
     "enum_field_value" : 1,
     "name" : "std::__1::memory_order_consume"
    },
    {
     "enum_field_value" : 2,
     "name" : "std::__1::memory_order_acquire"
    },
    {
     "enum_field_value" : 3,
     "name" : "std::__1::memory_order_release"
    },
    {
     "enum_field_value" : 4,
     "name" : "std::__1::memory_order_acq_rel"
    },
    {
     "enum_field_value" : 5,
     "name" : "std::__1::memory_order_seq_cst"
    }
   ],
   "linker_set_key" : "_ZTINSt3__112memory_orderE",
   "name" : "std::memory_order",
   "referenced_type" : "_ZTINSt3__112memory_orderE",
   "self_type" : "_ZTINSt3__112memory_orderE",
   "size" : 4,
   "source_file" : "external/libcxx/include/atomic",
   "underlying_type" : "_ZTIj"
  },
  {
   "alignment" : 4,
   "enum_fields" :
   [
    {
     "enum_field_value" : 0,
     "name" : "std::__1::pointer_safety::relaxed"
    },
    {
     "enum_field_value" : 1,
     "name" : "std::__1::pointer_safety::preferred"
    },
    {
     "enum_field_value" : 2,
     "name" : "std::__1::pointer_safety::strict"
    }
   ],
   "linker_set_key" : "_ZTINSt3__114pointer_safety4__lxE",
   "name" : "std::pointer_safety::__lx",
   "referenced_type" : "_ZTINSt3__114pointer_safety4__lxE",
   "self_type" : "_ZTINSt3__114pointer_safety4__lxE",
   "size" : 4,
   "source_file" : "external/libcxx/include/memory",
   "underlying_type" : "_ZTIj"
  },
  {
   "alignment" : 4,
   "enum_fields" :
   [
    {
     "enum_field_value" : -1,
     "name" : "std::__1::round_indeterminate"
    },
    {
     "enum_field_value" : 0,
     "name" : "std::__1::round_toward_zero"
    },
    {
     "enum_field_value" : 1,
     "name" : "std::__1::round_to_nearest"
    },
    {
     "enum_field_value" : 2,
     "name" : "std::__1::round_toward_infinity"
    },
    {
     "enum_field_value" : 3,
     "name" : "std::__1::round_toward_neg_infinity"
    }
   ],
   "linker_set_key" : "_ZTINSt3__117float_round_styleE",
   "name" : "std::float_round_style",
   "referenced_type" : "_ZTINSt3__117float_round_styleE",
   "self_type" : "_ZTINSt3__117float_round_styleE",
   "size" : 4,
   "source_file" : "external/libcxx/include/limits",
   "underlying_type" : "_ZTIi"
  },
  {
   "alignment" : 4,
   "enum_fields" :
   [
    {
     "enum_field_value" : -1,
     "name" : "std::__1::denorm_indeterminate"
    },
    {
     "enum_field_value" : 0,
     "name" : "std::__1::denorm_absent"
    },
    {
     "enum_field_value" : 1,
     "name" : "std::__1::denorm_present"
    }
   ],
   "linker_set_key" : "_ZTINSt3__118float_denorm_styleE",
   "name" : "std::float_denorm_style",
   "referenced_type" : "_ZTINSt3__118float_denorm_styleE",
   "self_type" : "_ZTINSt3__118float_denorm_styleE",
   "size" : 4,
   "source_file" : "external/libcxx/include/limits",
   "underlying_type" : "_ZTIi"
  },
  {
   "alignment" : 8,
   "linker_set_key" : "_ZTISt11align_val_t",
   "name" : "std::align_val_t",
   "referenced_type" : "_ZTISt11align_val_t",
   "self_type" : "_ZTISt11align_val_t",
   "size" : 8,
   "source_file" : "external/libcxx/include/new",
   "underlying_type" : "_ZTIm"
  }
 ],
 "function_types" :
 [
  {
   "alignment" : 4,
   "linker_set_key" : "_ZTIFPvPKvE",
   "name" : "void *(const void *)",
   "parameters" :
   [
    {
     "referenced_type" : "_ZTIPKv"
    }
   ],
   "referenced_type" : "_ZTIFPvPKvE",
   "return_type" : "_ZTIPv",
   "self_type" : "_ZTIFPvPKvE",
   "source_file" : "external/libcxx/include/functional"
  },
  {
   "alignment" : 4,
   "linker_set_key" : "_ZTIFPvS_mPKvE",
   "name" : "void *(void *, unsigned long, const void *)",
   "parameters" :
   [
    {
     "referenced_type" : "_ZTIPv"
    },
    {
     "referenced_type" : "_ZTIm"
    },
    {
     "referenced_type" : "_ZTIPKv"
    }
   ],
   "referenced_type" : "_ZTIFPvS_mPKvE",
   "return_type" : "_ZTIPv",
   "self_type" : "_ZTIFPvS_mPKvE",
   "source_file" : "out/soong/.intermediates/bionic/libc/libc/android_vendor.32_arm64_armv8-a_shared/gen/include/malloc.h"
  },
  {
   "alignment" : 4,
   "linker_set_key" : "_ZTIFPvmPKvE",
   "name" : "void *(unsigned long, const void *)",
   "parameters" :
   [
    {
     "referenced_type" : "_ZTIm"
    },
    {
     "referenced_type" : "_ZTIPKv"
    }
   ],
   "referenced_type" : "_ZTIFPvmPKvE",
   "return_type" : "_ZTIPv",
   "self_type" : "_ZTIFPvmPKvE",
   "source_file" : "out/soong/.intermediates/bionic/libc/libc/android_vendor.32_arm64_armv8-a_shared/gen/include/malloc.h"
  },
  {
   "alignment" : 4,
   "linker_set_key" : "_ZTIFPvmmPKvE",
   "name" : "void *(unsigned long, unsigned long, const void *)",
   "parameters" :
   [
    {
     "referenced_type" : "_ZTIm"
    },
    {
     "referenced_type" : "_ZTIm"
    },
    {
     "referenced_type" : "_ZTIPKv"
    }
   ],
   "referenced_type" : "_ZTIFPvmmPKvE",
   "return_type" : "_ZTIPv",
   "self_type" : "_ZTIFPvmmPKvE",
   "source_file" : "out/soong/.intermediates/bionic/libc/libc/android_vendor.32_arm64_armv8-a_shared/gen/include/malloc.h"
  },
  {
   "alignment" : 4,
   "linker_set_key" : "_ZTIFv6sigvalE",
   "name" : "void (sigval)",
   "parameters" :
   [
    {
     "referenced_type" : "_ZTI6sigval"
    }
   ],
   "referenced_type" : "_ZTIFv6sigvalE",
   "return_type" : "_ZTIv",
   "self_type" : "_ZTIFv6sigvalE",
   "source_file" : "bionic/libc/kernel/uapi/asm-generic/siginfo.h"
  },
  {
   "alignment" : 4,
   "linker_set_key" : "_ZTIFvPvE",
   "name" : "void (void *)",
   "parameters" :
   [
    {
     "referenced_type" : "_ZTIPv"
    }
   ],
   "referenced_type" : "_ZTIFvPvE",
   "return_type" : "_ZTIv",
   "self_type" : "_ZTIFvPvE",
   "source_file" : "external/libcxx/include/functional"
  },
  {
   "alignment" : 4,
   "linker_set_key" : "_ZTIFvPvPKvE",
   "name" : "void (void *, const void *)",
   "parameters" :
   [
    {
     "referenced_type" : "_ZTIPv"
    },
    {
     "referenced_type" : "_ZTIPKv"
    }
   ],
   "referenced_type" : "_ZTIFvPvPKvE",
   "return_type" : "_ZTIv",
   "self_type" : "_ZTIFvPvPKvE",
   "source_file" : "out/soong/.intermediates/bionic/libc/libc/android_vendor.32_arm64_armv8-a_shared/gen/include/malloc.h"
  },
  {
   "alignment" : 4,
   "linker_set_key" : "_ZTIFvRKNSt3__119__libcpp_debug_infoEE",
   "name" : "void (const std::__1::__libcpp_debug_info &)",
   "parameters" :
   [
    {
     "referenced_type" : "_ZTIRKNSt3__119__libcpp_debug_infoE"
    }
   ],
   "referenced_type" : "_ZTIFvRKNSt3__119__libcpp_debug_infoEE",
   "return_type" : "_ZTIv",
   "self_type" : "_ZTIFvRKNSt3__119__libcpp_debug_infoEE",
   "source_file" : "external/libcxx/include/__debug"
  },
  {
   "alignment" : 4,
   "linker_set_key" : "_ZTIFviE",
   "name" : "void (int)",
   "parameters" :
   [
    {
     "referenced_type" : "_ZTIi"
    }
   ],
   "referenced_type" : "_ZTIFviE",
   "return_type" : "_ZTIv",
   "self_type" : "_ZTIFviE",
   "source_file" : "bionic/libc/kernel/uapi/asm-generic/signal.h"
  },
  {
   "alignment" : 4,
   "linker_set_key" : "_ZTIFviP7siginfoPvE",
   "name" : "void (int, siginfo *, void *)",
   "parameters" :
   [
    {
     "referenced_type" : "_ZTIi"
    },
    {
     "referenced_type" : "_ZTIP7siginfo"
    },
    {
     "referenced_type" : "_ZTIPv"
    }
   ],
   "referenced_type" : "_ZTIFviP7siginfoPvE",
   "return_type" : "_ZTIv",
   "self_type" : "_ZTIFviP7siginfoPvE",
   "source_file" : "out/soong/.intermediates/bionic/libc/libc/android_vendor.32_arm64_armv8-a_shared/gen/include/bits/signal_types.h"
  },
  {
   "alignment" : 4,
   "linker_set_key" : "_ZTIFvvE",
   "name" : "void ()",
   "referenced_type" : "_ZTIFvvE",
   "return_type" : "_ZTIv",
   "self_type" : "_ZTIFvvE",
   "source_file" : "bionic/libc/kernel/uapi/asm-generic/signal.h"
  }
 ],
 "functions" :
 [
  {
   "function_name" : "__bionic_memchr",
   "linker_set_key" : "_Z15__bionic_memchrPKvU17pass_object_size1im",
   "parameters" :
   [
    {
     "referenced_type" : "_ZTIKPKv"
    },
    {
     "referenced_type" : "_ZTIi"
    },
    {
     "referenced_type" : "_ZTIm"
    }
   ],
   "return_type" : "_ZTIPv",
   "source_file" : "out/soong/.intermediates/bionic/libc/libc/android_vendor.32_arm64_armv8-a_shared/gen/include/string.h"
  },
  {
   "function_name" : "__bionic_strchr",
   "linker_set_key" : "_Z15__bionic_strchrPKcU17pass_object_size1i",
   "parameters" :
   [
    {
     "referenced_type" : "_ZTIKPKc"
    },
    {
     "referenced_type" : "_ZTIi"
    }
   ],
   "return_type" : "_ZTIPc",
   "source_file" : "out/soong/.intermediates/bionic/libc/libc/android_vendor.32_arm64_armv8-a_shared/gen/include/string.h"
  },
  {
   "function_name" : "__bionic_strstr",
   "linker_set_key" : "_Z15__bionic_strstrPKcS0_",
   "parameters" :
   [
    {
     "referenced_type" : "_ZTIPKc"
    },
    {
     "referenced_type" : "_ZTIPKc"
    }
   ],
   "return_type" : "_ZTIPc",
   "source_file" : "out/soong/.intermediates/bionic/libc/libc/android_vendor.32_arm64_armv8-a_shared/gen/include/string.h"
  },
  {
   "function_name" : "__libcpp_memchr",
   "linker_set_key" : "_Z15__libcpp_memchrPKvim",
   "parameters" :
   [
    {
     "referenced_type" : "_ZTIPKv"
    },
    {
     "referenced_type" : "_ZTIi"
    },
    {
     "referenced_type" : "_ZTIm"
    }
   ],
   "return_type" : "_ZTIPv",
   "source_file" : "external/libcxx/include/string.h"
  },
  {
   "function_name" : "__libcpp_strchr",
   "linker_set_key" : "_Z15__libcpp_strchrPKci",
   "parameters" :
   [
    {
     "referenced_type" : "_ZTIPKc"
    },
    {
     "referenced_type" : "_ZTIi"
    }
   ],
   "return_type" : "_ZTIPc",
   "source_file" : "external/libcxx/include/string.h"
  },
  {
   "function_name" : "__libcpp_strstr",
   "linker_set_key" : "_Z15__libcpp_strstrPKcS0_",
   "parameters" :
   [
    {
     "referenced_type" : "_ZTIPKc"
    },
    {
     "referenced_type" : "_ZTIPKc"
    }
   ],
   "return_type" : "_ZTIPc",
   "source_file" : "external/libcxx/include/string.h"
  },
  {
   "function_name" : "__libcpp_wcschr",
   "linker_set_key" : "_Z15__libcpp_wcschrPKww",
   "parameters" :
   [
    {
     "referenced_type" : "_ZTIPKw"
    },
    {
     "referenced_type" : "_ZTIw"
    }
   ],
   "return_type" : "_ZTIPw",
   "source_file" : "external/libcxx/include/wchar.h"
  },
  {
   "function_name" : "__libcpp_wcsstr",
   "linker_set_key" : "_Z15__libcpp_wcsstrPKwS0_",
   "parameters" :
   [
    {
     "referenced_type" : "_ZTIPKw"
    },
    {
     "referenced_type" : "_ZTIPKw"
    }
   ],
   "return_type" : "_ZTIPw",
   "source_file" : "external/libcxx/include/wchar.h"
  },
  {
   "function_name" : "__bionic_strpbrk",
   "linker_set_key" : "_Z16__bionic_strpbrkPKcS0_",
   "parameters" :
   [
    {
     "referenced_type" : "_ZTIPKc"
    },
    {
     "referenced_type" : "_ZTIPKc"
    }
   ],
   "return_type" : "_ZTIPc",
   "source_file" : "out/soong/.intermediates/bionic/libc/libc/android_vendor.32_arm64_armv8-a_shared/gen/include/string.h"
  },
  {
   "function_name" : "__bionic_strrchr",
   "linker_set_key" : "_Z16__bionic_strrchrPKcU17pass_object_size1i",
   "parameters" :
   [
    {
     "referenced_type" : "_ZTIKPKc"
    },
    {
     "referenced_type" : "_ZTIi"
    }
   ],
   "return_type" : "_ZTIPc",
   "source_file" : "out/soong/.intermediates/bionic/libc/libc/android_vendor.32_arm64_armv8-a_shared/gen/include/string.h"
  },
  {
   "function_name" : "__libcpp_strpbrk",
   "linker_set_key" : "_Z16__libcpp_strpbrkPKcS0_",
   "parameters" :
   [
    {
     "referenced_type" : "_ZTIPKc"
    },
    {
     "referenced_type" : "_ZTIPKc"
    }
   ],
   "return_type" : "_ZTIPc",
   "source_file" : "external/libcxx/include/string.h"
  },
  {
   "function_name" : "__libcpp_strrchr",
   "linker_set_key" : "_Z16__libcpp_strrchrPKci",
   "parameters" :
   [
    {
     "referenced_type" : "_ZTIPKc"
    },
    {
     "referenced_type" : "_ZTIi"
    }
   ],
   "return_type" : "_ZTIPc",
   "source_file" : "external/libcxx/include/string.h"
  },
  {
   "function_name" : "__libcpp_wcspbrk",
   "linker_set_key" : "_Z16__libcpp_wcspbrkPKwS0_",
   "parameters" :
   [
    {
     "referenced_type" : "_ZTIPKw"
    },
    {
     "referenced_type" : "_ZTIPKw"
    }
   ],
   "return_type" : "_ZTIPw",
   "source_file" : "external/libcxx/include/wchar.h"
  },
  {
   "function_name" : "__libcpp_wcsrchr",
   "linker_set_key" : "_Z16__libcpp_wcsrchrPKww",
   "parameters" :
   [
    {
     "referenced_type" : "_ZTIPKw"
    },
    {
     "referenced_type" : "_ZTIw"
    }
   ],
   "return_type" : "_ZTIPw",
   "source_file" : "external/libcxx/include/wchar.h"
  },
  {
   "function_name" : "__libcpp_wmemchr",
   "linker_set_key" : "_Z16__libcpp_wmemchrPKwwm",
   "parameters" :
   [
    {
     "referenced_type" : "_ZTIPKw"
    },
    {
     "referenced_type" : "_ZTIw"
    },
    {
     "referenced_type" : "_ZTIm"
    }
   ],
   "return_type" : "_ZTIPw",
   "source_file" : "external/libcxx/include/wchar.h"
  },
  {
   "function_name" : "abs",
   "linker_set_key" : "_Z3absl",
   "parameters" :
   [
    {
     "referenced_type" : "_ZTIl"
    }
   ],
   "return_type" : "_ZTIl",
   "source_file" : "external/libcxx/include/stdlib.h"
  },
  {
   "function_name" : "abs",
   "linker_set_key" : "_Z3absx",
   "parameters" :
   [
    {
     "referenced_type" : "_ZTIx"
    }
   ],
   "return_type" : "_ZTIx",
   "source_file" : "external/libcxx/include/stdlib.h"
  },
  {
   "function_name" : "div",
   "linker_set_key" : "_Z3divll",
   "parameters" :
   [
    {
     "referenced_type" : "_ZTIl"
    },
    {
     "referenced_type" : "_ZTIl"
    }
   ],
   "return_type" : "_ZTI6ldiv_t",
   "source_file" : "external/libcxx/include/stdlib.h"
  },
  {
   "function_name" : "div",
   "linker_set_key" : "_Z3divxx",
   "parameters" :
   [
    {
     "referenced_type" : "_ZTIx"
    },
    {
     "referenced_type" : "_ZTIx"
    }
   ],
   "return_type" : "_ZTI7lldiv_t",
   "source_file" : "external/libcxx/include/stdlib.h"
  },
  {
   "function_name" : "memchr",
   "linker_set_key" : "_Z6memchrUa9enable_ifIXLb1EEEPKvim",
   "parameters" :
   [
    {
     "referenced_type" : "_ZTIPKv"
    },
    {
     "referenced_type" : "_ZTIi"
    },
    {
     "referenced_type" : "_ZTIm"
    }
   ],
   "return_type" : "_ZTIPKv",
   "source_file" : "external/libcxx/include/string.h"
  },
  {
   "function_name" : "memchr",
   "linker_set_key" : "_Z6memchrUa9enable_ifIXLb1EEEPvim",
   "parameters" :
   [
    {
     "referenced_type" : "_ZTIPv"
    },
    {
     "referenced_type" : "_ZTIi"
    },
    {
     "referenced_type" : "_ZTIm"
    }
   ],
   "return_type" : "_ZTIPv",
   "source_file" : "external/libcxx/include/string.h"
  },
  {
   "function_name" : "memchr",
   "linker_set_key" : "_Z6memchrUa9enable_ifIXLb1EEXLb1EEEPKvU17pass_object_size1im",
   "parameters" :
   [
    {
     "referenced_type" : "_ZTIKPKv"
    },
    {
     "referenced_type" : "_ZTIi"
    },
    {
     "referenced_type" : "_ZTIm"
    }
   ],
   "return_type" : "_ZTIPKv",
   "source_file" : "out/soong/.intermediates/bionic/libc/libc/android_vendor.32_arm64_armv8-a_shared/gen/include/string.h"
  },
  {
   "function_name" : "memchr",
   "linker_set_key" : "_Z6memchrUa9enable_ifIXLb1EEXLb1EEEPvU17pass_object_size1im",
   "parameters" :
   [
    {
     "referenced_type" : "_ZTIKPv"
    },
    {
     "referenced_type" : "_ZTIi"
    },
    {
     "referenced_type" : "_ZTIm"
    }
   ],
   "return_type" : "_ZTIPv",
   "source_file" : "out/soong/.intermediates/bionic/libc/libc/android_vendor.32_arm64_armv8-a_shared/gen/include/string.h"
  },
  {
   "function_name" : "strchr",
   "linker_set_key" : "_Z6strchrUa9enable_ifIXLb1EEEPKci",
   "parameters" :
   [
    {
     "referenced_type" : "_ZTIPKc"
    },
    {
     "referenced_type" : "_ZTIi"
    }
   ],
   "return_type" : "_ZTIPKc",
   "source_file" : "external/libcxx/include/string.h"
  },
  {
   "function_name" : "strchr",
   "linker_set_key" : "_Z6strchrUa9enable_ifIXLb1EEEPci",
   "parameters" :
   [
    {
     "referenced_type" : "_ZTIPc"
    },
    {
     "referenced_type" : "_ZTIi"
    }
   ],
   "return_type" : "_ZTIPc",
   "source_file" : "external/libcxx/include/string.h"
  },
  {
   "function_name" : "strchr",
   "linker_set_key" : "_Z6strchrUa9enable_ifIXLb1EEXLb1EEEPKcU17pass_object_size1i",
   "parameters" :
   [
    {
     "referenced_type" : "_ZTIKPKc"
    },
    {
     "referenced_type" : "_ZTIi"
    }
   ],
   "return_type" : "_ZTIPKc",
   "source_file" : "out/soong/.intermediates/bionic/libc/libc/android_vendor.32_arm64_armv8-a_shared/gen/include/string.h"
  },
  {
   "function_name" : "strchr",
   "linker_set_key" : "_Z6strchrUa9enable_ifIXLb1EEXLb1EEEPcU17pass_object_size1i",
   "parameters" :
   [
    {
     "referenced_type" : "_ZTIKPc"
    },
    {
     "referenced_type" : "_ZTIi"
    }
   ],
   "return_type" : "_ZTIPc",
   "source_file" : "out/soong/.intermediates/bionic/libc/libc/android_vendor.32_arm64_armv8-a_shared/gen/include/string.h"
  },
  {
   "function_name" : "strstr",
   "linker_set_key" : "_Z6strstrUa9enable_ifIXLb1EEEPKcS0_",
   "parameters" :
   [
    {
     "referenced_type" : "_ZTIPKc"
    },
    {
     "referenced_type" : "_ZTIPKc"
    }
   ],
   "return_type" : "_ZTIPKc",
   "source_file" : "external/libcxx/include/string.h"
  },
  {
   "function_name" : "strstr",
   "linker_set_key" : "_Z6strstrUa9enable_ifIXLb1EEEPcPKc",
   "parameters" :
   [
    {
     "referenced_type" : "_ZTIPc"
    },
    {
     "referenced_type" : "_ZTIPKc"
    }
   ],
   "return_type" : "_ZTIPc",
   "source_file" : "external/libcxx/include/string.h"
  },
  {
   "function_name" : "strstr",
   "linker_set_key" : "_Z6strstrUa9enable_ifIXLb1EEXLb1EEEPKcS0_",
   "parameters" :
   [
    {
     "referenced_type" : "_ZTIPKc"
    },
    {
     "referenced_type" : "_ZTIPKc"
    }
   ],
   "return_type" : "_ZTIPKc",
   "source_file" : "out/soong/.intermediates/bionic/libc/libc/android_vendor.32_arm64_armv8-a_shared/gen/include/string.h"
  },
  {
   "function_name" : "strstr",
   "linker_set_key" : "_Z6strstrUa9enable_ifIXLb1EEXLb1EEEPcPKc",
   "parameters" :
   [
    {
     "referenced_type" : "_ZTIPc"
    },
    {
     "referenced_type" : "_ZTIPKc"
    }
   ],
   "return_type" : "_ZTIPc",
   "source_file" : "out/soong/.intermediates/bionic/libc/libc/android_vendor.32_arm64_armv8-a_shared/gen/include/string.h"
  },
  {
   "function_name" : "wcschr",
   "linker_set_key" : "_Z6wcschrUa9enable_ifIXLb1EEEPKww",
   "parameters" :
   [
    {
     "referenced_type" : "_ZTIPKw"
    },
    {
     "referenced_type" : "_ZTIw"
    }
   ],
   "return_type" : "_ZTIPKw",
   "source_file" : "external/libcxx/include/wchar.h"
  },
  {
   "function_name" : "wcschr",
   "linker_set_key" : "_Z6wcschrUa9enable_ifIXLb1EEEPww",
   "parameters" :
   [
    {
     "referenced_type" : "_ZTIPw"
    },
    {
     "referenced_type" : "_ZTIw"
    }
   ],
   "return_type" : "_ZTIPw",
   "source_file" : "external/libcxx/include/wchar.h"
  },
  {
   "function_name" : "wcsstr",
   "linker_set_key" : "_Z6wcsstrUa9enable_ifIXLb1EEEPKwS0_",
   "parameters" :
   [
    {
     "referenced_type" : "_ZTIPKw"
    },
    {
     "referenced_type" : "_ZTIPKw"
    }
   ],
   "return_type" : "_ZTIPKw",
   "source_file" : "external/libcxx/include/wchar.h"
  },
  {
   "function_name" : "wcsstr",
   "linker_set_key" : "_Z6wcsstrUa9enable_ifIXLb1EEEPwPKw",
   "parameters" :
   [
    {
     "referenced_type" : "_ZTIPw"
    },
    {
     "referenced_type" : "_ZTIPKw"
    }
   ],
   "return_type" : "_ZTIPw",
   "source_file" : "external/libcxx/include/wchar.h"
  },
  {
   "function_name" : "strpbrk",
   "linker_set_key" : "_Z7strpbrkUa9enable_ifIXLb1EEEPKcS0_",
   "parameters" :
   [
    {
     "referenced_type" : "_ZTIPKc"
    },
    {
     "referenced_type" : "_ZTIPKc"
    }
   ],
   "return_type" : "_ZTIPKc",
   "source_file" : "external/libcxx/include/string.h"
  },
  {
   "function_name" : "strpbrk",
   "linker_set_key" : "_Z7strpbrkUa9enable_ifIXLb1EEEPcPKc",
   "parameters" :
   [
    {
     "referenced_type" : "_ZTIPc"
    },
    {
     "referenced_type" : "_ZTIPKc"
    }
   ],
   "return_type" : "_ZTIPc",
   "source_file" : "external/libcxx/include/string.h"
  },
  {
   "function_name" : "strpbrk",
   "linker_set_key" : "_Z7strpbrkUa9enable_ifIXLb1EEXLb1EEEPKcS0_",
   "parameters" :
   [
    {
     "referenced_type" : "_ZTIPKc"
    },
    {
     "referenced_type" : "_ZTIPKc"
    }
   ],
   "return_type" : "_ZTIPKc",
   "source_file" : "out/soong/.intermediates/bionic/libc/libc/android_vendor.32_arm64_armv8-a_shared/gen/include/string.h"
  },
  {
   "function_name" : "strpbrk",
   "linker_set_key" : "_Z7strpbrkUa9enable_ifIXLb1EEXLb1EEEPcPKc",
   "parameters" :
   [
    {
     "referenced_type" : "_ZTIPc"
    },
    {
     "referenced_type" : "_ZTIPKc"
    }
   ],
   "return_type" : "_ZTIPc",
   "source_file" : "out/soong/.intermediates/bionic/libc/libc/android_vendor.32_arm64_armv8-a_shared/gen/include/string.h"
  },
  {
   "function_name" : "strrchr",
   "linker_set_key" : "_Z7strrchrUa9enable_ifIXLb1EEEPKci",
   "parameters" :
   [
    {
     "referenced_type" : "_ZTIPKc"
    },
    {
     "referenced_type" : "_ZTIi"
    }
   ],
   "return_type" : "_ZTIPKc",
   "source_file" : "external/libcxx/include/string.h"
  },
  {
   "function_name" : "strrchr",
   "linker_set_key" : "_Z7strrchrUa9enable_ifIXLb1EEEPci",
   "parameters" :
   [
    {
     "referenced_type" : "_ZTIPc"
    },
    {
     "referenced_type" : "_ZTIi"
    }
   ],
   "return_type" : "_ZTIPc",
   "source_file" : "external/libcxx/include/string.h"
  },
  {
   "function_name" : "strrchr",
   "linker_set_key" : "_Z7strrchrUa9enable_ifIXLb1EEXLb1EEEPKcU17pass_object_size1i",
   "parameters" :
   [
    {
     "referenced_type" : "_ZTIKPKc"
    },
    {
     "referenced_type" : "_ZTIi"
    }
   ],
   "return_type" : "_ZTIPKc",
   "source_file" : "out/soong/.intermediates/bionic/libc/libc/android_vendor.32_arm64_armv8-a_shared/gen/include/string.h"
  },
  {
   "function_name" : "strrchr",
   "linker_set_key" : "_Z7strrchrUa9enable_ifIXLb1EEXLb1EEEPcU17pass_object_size1i",
   "parameters" :
   [
    {
     "referenced_type" : "_ZTIKPc"
    },
    {
     "referenced_type" : "_ZTIi"
    }
   ],
   "return_type" : "_ZTIPc",
   "source_file" : "out/soong/.intermediates/bionic/libc/libc/android_vendor.32_arm64_armv8-a_shared/gen/include/string.h"
  },
  {
   "function_name" : "wcspbrk",
   "linker_set_key" : "_Z7wcspbrkUa9enable_ifIXLb1EEEPKwS0_",
   "parameters" :
   [
    {
     "referenced_type" : "_ZTIPKw"
    },
    {
     "referenced_type" : "_ZTIPKw"
    }
   ],
   "return_type" : "_ZTIPKw",
   "source_file" : "external/libcxx/include/wchar.h"
  },
  {
   "function_name" : "wcspbrk",
   "linker_set_key" : "_Z7wcspbrkUa9enable_ifIXLb1EEEPwPKw",
   "parameters" :
   [
    {
     "referenced_type" : "_ZTIPw"
    },
    {
     "referenced_type" : "_ZTIPKw"
    }
   ],
   "return_type" : "_ZTIPw",
   "source_file" : "external/libcxx/include/wchar.h"
  },
  {
   "function_name" : "wcsrchr",
   "linker_set_key" : "_Z7wcsrchrUa9enable_ifIXLb1EEEPKww",
   "parameters" :
   [
    {
     "referenced_type" : "_ZTIPKw"
    },
    {
     "referenced_type" : "_ZTIw"
    }
   ],
   "return_type" : "_ZTIPKw",
   "source_file" : "external/libcxx/include/wchar.h"
  },
  {
   "function_name" : "wcsrchr",
   "linker_set_key" : "_Z7wcsrchrUa9enable_ifIXLb1EEEPww",
   "parameters" :
   [
    {
     "referenced_type" : "_ZTIPw"
    },
    {
     "referenced_type" : "_ZTIw"
    }
   ],
   "return_type" : "_ZTIPw",
   "source_file" : "external/libcxx/include/wchar.h"
  },
  {
   "function_name" : "wmemchr",
   "linker_set_key" : "_Z7wmemchrUa9enable_ifIXLb1EEEPKwwm",
   "parameters" :
   [
    {
     "referenced_type" : "_ZTIPKw"
    },
    {
     "referenced_type" : "_ZTIw"
    },
    {
     "referenced_type" : "_ZTIm"
    }
   ],
   "return_type" : "_ZTIPKw",
   "source_file" : "external/libcxx/include/wchar.h"
  },
  {
   "function_name" : "wmemchr",
   "linker_set_key" : "_Z7wmemchrUa9enable_ifIXLb1EEEPwwm",
   "parameters" :
   [
    {
     "referenced_type" : "_ZTIPw"
    },
    {
     "referenced_type" : "_ZTIw"
    },
    {
     "referenced_type" : "_ZTIm"
    }
   ],
   "return_type" : "_ZTIPw",
   "source_file" : "external/libcxx/include/wchar.h"
  },
  {
   "access" : "private",
   "function_name" : "llvm::DeltaAlgorithm::GetTestResult",
   "linker_set_key" : "_ZN4llvm14DeltaAlgorithm13GetTestResultERKNSt3__13setIjNS1_4lessIjEENS1_9allocatorIjEEEE",
   "parameters" :
   [
    {
     "is_this_ptr" : true,
     "referenced_type" : "_ZTIPN4llvm14DeltaAlgorithmE"
    },
    {
     "referenced_type" : "_ZTIRKNSt3__13setIjNS_4lessIjEENS_9allocatorIjEEEE"
    }
   ],
   "return_type" : "_ZTIb",
   "source_file" : "external/llvm/include/llvm/ADT/DeltaAlgorithm.h"
  },
  {
   "access" : "protected",
   "function_name" : "llvm::DeltaAlgorithm::UpdatedSearchState",
   "linker_set_key" : "_ZN4llvm14DeltaAlgorithm18UpdatedSearchStateERKNSt3__13setIjNS1_4lessIjEENS1_9allocatorIjEEEERKNS1_6vectorIS7_NS5_IS7_EEEE",
   "parameters" :
   [
    {
     "is_this_ptr" : true,
     "referenced_type" : "_ZTIPN4llvm14DeltaAlgorithmE"
    },
    {
     "referenced_type" : "_ZTIRKNSt3__13setIjNS_4lessIjEENS_9allocatorIjEEEE"
    },
    {
     "referenced_type" : "_ZTIRKNSt3__16vectorINS_3setIjNS_4lessIjEENS_9allocatorIjEEEENS4_IS6_EEEE"
    }
   ],
   "return_type" : "_ZTIv",
   "source_file" : "external/llvm/include/llvm/ADT/DeltaAlgorithm.h"
  },
  {
   "function_name" : "llvm::DeltaAlgorithm::Run",
   "linker_set_key" : "_ZN4llvm14DeltaAlgorithm3RunERKNSt3__13setIjNS1_4lessIjEENS1_9allocatorIjEEEE",
   "parameters" :
   [
    {
     "is_this_ptr" : true,
     "referenced_type" : "_ZTIPN4llvm14DeltaAlgorithmE"
    },
    {
     "referenced_type" : "_ZTIRKNSt3__13setIjNS_4lessIjEENS_9allocatorIjEEEE"
    }
   ],
   "return_type" : "_ZTINSt3__13setIjNS_4lessIjEENS_9allocatorIjEEEE",
   "source_file" : "external/llvm/include/llvm/ADT/DeltaAlgorithm.h"
  },
  {
   "access" : "private",
   "function_name" : "llvm::DeltaAlgorithm::Delta",
   "linker_set_key" : "_ZN4llvm14DeltaAlgorithm5DeltaERKNSt3__13setIjNS1_4lessIjEENS1_9allocatorIjEEEERKNS1_6vectorIS7_NS5_IS7_EEEE",
   "parameters" :
   [
    {
     "is_this_ptr" : true,
     "referenced_type" : "_ZTIPN4llvm14DeltaAlgorithmE"
    },
    {
     "referenced_type" : "_ZTIRKNSt3__13setIjNS_4lessIjEENS_9allocatorIjEEEE"
    },
    {
     "referenced_type" : "_ZTIRKNSt3__16vectorINS_3setIjNS_4lessIjEENS_9allocatorIjEEEENS4_IS6_EEEE"
    }
   ],
   "return_type" : "_ZTINSt3__13setIjNS_4lessIjEENS_9allocatorIjEEEE",
   "source_file" : "external/llvm/include/llvm/ADT/DeltaAlgorithm.h"
  },
  {
   "access" : "private",
   "function_name" : "llvm::DeltaAlgorithm::Split",
   "linker_set_key" : "_ZN4llvm14DeltaAlgorithm5SplitERKNSt3__13setIjNS1_4lessIjEENS1_9allocatorIjEEEERNS1_6vectorIS7_NS5_IS7_EEEE",
   "parameters" :
   [
    {
     "is_this_ptr" : true,
     "referenced_type" : "_ZTIPN4llvm14DeltaAlgorithmE"
    },
    {
     "referenced_type" : "_ZTIRKNSt3__13setIjNS_4lessIjEENS_9allocatorIjEEEE"
    },
    {
     "referenced_type" : "_ZTIRNSt3__16vectorINS_3setIjNS_4lessIjEENS_9allocatorIjEEEENS4_IS6_EEEE"
    }
   ],
   "return_type" : "_ZTIv",
   "source_file" : "external/llvm/include/llvm/ADT/DeltaAlgorithm.h"
  },
  {
   "access" : "private",
   "function_name" : "llvm::DeltaAlgorithm::Search",
   "linker_set_key" : "_ZN4llvm14DeltaAlgorithm6SearchERKNSt3__13setIjNS1_4lessIjEENS1_9allocatorIjEEEERKNS1_6vectorIS7_NS5_IS7_EEEERS7_",
   "parameters" :
   [
    {
     "is_this_ptr" : true,
     "referenced_type" : "_ZTIPN4llvm14DeltaAlgorithmE"
    },
    {
     "referenced_type" : "_ZTIRKNSt3__13setIjNS_4lessIjEENS_9allocatorIjEEEE"
    },
    {
     "referenced_type" : "_ZTIRKNSt3__16vectorINS_3setIjNS_4lessIjEENS_9allocatorIjEEEENS4_IS6_EEEE"
    },
    {
     "referenced_type" : "_ZTIRNSt3__13setIjNS_4lessIjEENS_9allocatorIjEEEE"
    }
   ],
   "return_type" : "_ZTIb",
   "source_file" : "external/llvm/include/llvm/ADT/DeltaAlgorithm.h"
  },
  {
   "function_name" : "llvm::DeltaAlgorithm::~DeltaAlgorithm",
   "linker_set_key" : "_ZN4llvm14DeltaAlgorithmD0Ev",
   "parameters" :
   [
    {
     "is_this_ptr" : true,
     "referenced_type" : "_ZTIPN4llvm14DeltaAlgorithmE"
    }
   ],
   "return_type" : "_ZTIv",
   "source_file" : "external/llvm/include/llvm/ADT/DeltaAlgorithm.h"
  },
  {
   "function_name" : "llvm::DeltaAlgorithm::~DeltaAlgorithm",
   "linker_set_key" : "_ZN4llvm14DeltaAlgorithmD1Ev",
   "parameters" :
   [
    {
     "is_this_ptr" : true,
     "referenced_type" : "_ZTIPN4llvm14DeltaAlgorithmE"
    }
   ],
   "return_type" : "_ZTIv",
   "source_file" : "external/llvm/include/llvm/ADT/DeltaAlgorithm.h"
  },
  {
   "function_name" : "llvm::DeltaAlgorithm::~DeltaAlgorithm",
   "linker_set_key" : "_ZN4llvm14DeltaAlgorithmD2Ev",
   "parameters" :
   [
    {
     "is_this_ptr" : true,
     "referenced_type" : "_ZTIPN4llvm14DeltaAlgorithmE"
    }
   ],
   "return_type" : "_ZTIv",
   "source_file" : "external/llvm/include/llvm/ADT/DeltaAlgorithm.h"
  },
  {
   "access" : "protected",
   "function_name" : "llvm::DeltaAlgorithm::operator=",
   "linker_set_key" : "_ZN4llvm14DeltaAlgorithmaSERKS0_",
   "parameters" :
   [
    {
     "is_this_ptr" : true,
     "referenced_type" : "_ZTIPN4llvm14DeltaAlgorithmE"
    },
    {
     "referenced_type" : "_ZTIRKN4llvm14DeltaAlgorithmE"
    }
   ],
   "return_type" : "_ZTIRN4llvm14DeltaAlgorithmE",
   "source_file" : "external/llvm/include/llvm/ADT/DeltaAlgorithm.h"
  },
  {
   "function_name" : "std::exception_ptr::operator bool",
   "linker_set_key" : "_ZNKSt13exception_ptrcvbEv",
   "parameters" :
   [
    {
     "is_this_ptr" : true,
     "referenced_type" : "_ZTIPKSt13exception_ptr"
    }
   ],
   "return_type" : "_ZTIb",
   "source_file" : "external/libcxx/include/exception"
  },
  {
   "function_name" : "std::nested_exception::nested_ptr",
   "linker_set_key" : "_ZNKSt16nested_exception10nested_ptrEv",
   "parameters" :
   [
    {
     "is_this_ptr" : true,
     "referenced_type" : "_ZTIPKSt16nested_exception"
    }
   ],
   "return_type" : "_ZTISt13exception_ptr",
   "source_file" : "external/libcxx/include/exception"
  },
  {
   "function_name" : "std::__1::unique_ptr<std::__1::__tree_node<std::__1::set<unsigned int, std::__1::less<unsigned int>, std::__1::allocator<unsigned int>>, void *>, std::__1::__tree_node_destructor<std::__1::allocator<std::__1::__tree_node<std::__1::set<unsigned int, std::__1::less<unsigned int>, std::__1::allocator<unsigned int>>, void *>>>>::get",
   "linker_set_key" : "_ZNKSt3__110unique_ptrINS_11__tree_nodeINS_3setIjNS_4lessIjEENS_9allocatorIjEEEEPvEENS_22__tree_node_destructorINS5_IS9_EEEEE3getEv",
   "parameters" :
   [
    {
     "is_this_ptr" : true,
     "referenced_type" : "_ZTIPKNSt3__110unique_ptrINS_11__tree_nodeINS_3setIjNS_4lessIjEENS_9allocatorIjEEEEPvEENS_22__tree_node_destructorINS5_IS9_EEEEEE"
    }
   ],
   "return_type" : "_ZTIPNSt3__111__tree_nodeINS_3setIjNS_4lessIjEENS_9allocatorIjEEEEPvEE",
   "source_file" : "external/libcxx/include/memory"
  },
  {
   "function_name" : "std::__1::unique_ptr<std::__1::__tree_node<std::__1::set<unsigned int, std::__1::less<unsigned int>, std::__1::allocator<unsigned int>>, void *>, std::__1::__tree_node_destructor<std::__1::allocator<std::__1::__tree_node<std::__1::set<unsigned int, std::__1::less<unsigned int>, std::__1::allocator<unsigned int>>, void *>>>>::operator->",
   "linker_set_key" : "_ZNKSt3__110unique_ptrINS_11__tree_nodeINS_3setIjNS_4lessIjEENS_9allocatorIjEEEEPvEENS_22__tree_node_destructorINS5_IS9_EEEEEptEv",
   "parameters" :
   [
    {
     "is_this_ptr" : true,
     "referenced_type" : "_ZTIPKNSt3__110unique_ptrINS_11__tree_nodeINS_3setIjNS_4lessIjEENS_9allocatorIjEEEEPvEENS_22__tree_node_destructorINS5_IS9_EEEEEE"
    }
   ],
   "return_type" : "_ZTIPNSt3__111__tree_nodeINS_3setIjNS_4lessIjEENS_9allocatorIjEEEEPvEE",
   "source_file" : "external/libcxx/include/memory"
  },
  {
   "function_name" : "std::__1::unique_ptr<std::__1::__tree_node<unsigned int, void *>, std::__1::__tree_node_destructor<std::__1::allocator<std::__1::__tree_node<unsigned int, void *>>>>::get",
   "linker_set_key" : "_ZNKSt3__110unique_ptrINS_11__tree_nodeIjPvEENS_22__tree_node_destructorINS_9allocatorIS3_EEEEE3getEv",
   "parameters" :
   [
    {
     "is_this_ptr" : true,
     "referenced_type" : "_ZTIPKNSt3__110unique_ptrINS_11__tree_nodeIjPvEENS_22__tree_node_destructorINS_9allocatorIS3_EEEEEE"
    }
   ],
   "return_type" : "_ZTIPNSt3__111__tree_nodeIjPvEE",
   "source_file" : "external/libcxx/include/memory"
  },
  {
   "function_name" : "std::__1::unique_ptr<std::__1::__tree_node<unsigned int, void *>, std::__1::__tree_node_destructor<std::__1::allocator<std::__1::__tree_node<unsigned int, void *>>>>::operator->",
   "linker_set_key" : "_ZNKSt3__110unique_ptrINS_11__tree_nodeIjPvEENS_22__tree_node_destructorINS_9allocatorIS3_EEEEEptEv",
   "parameters" :
   [
    {
     "is_this_ptr" : true,
     "referenced_type" : "_ZTIPKNSt3__110unique_ptrINS_11__tree_nodeIjPvEENS_22__tree_node_destructorINS_9allocatorIS3_EEEEEE"
    }
   ],
   "return_type" : "_ZTIPNSt3__111__tree_nodeIjPvEE",
   "source_file" : "external/libcxx/include/memory"
  },
  {
   "function_name" : "std::__1::__wrap_iter<const std::__1::set<unsigned int, std::__1::less<unsigned int>, std::__1::allocator<unsigned int>> *>::base",
   "linker_set_key" : "_ZNKSt3__111__wrap_iterIPKNS_3setIjNS_4lessIjEENS_9allocatorIjEEEEE4baseEv",
   "parameters" :
   [
    {
     "is_this_ptr" : true,
     "referenced_type" : "_ZTIPKNSt3__111__wrap_iterIPKNS_3setIjNS_4lessIjEENS_9allocatorIjEEEEEE"
    }
   ],
   "return_type" : "_ZTIPKNSt3__13setIjNS_4lessIjEENS_9allocatorIjEEEE",
   "source_file" : "external/libcxx/include/iterator"
  },
  {
   "function_name" : "std::__1::__wrap_iter<const std::__1::set<unsigned int, std::__1::less<unsigned int>, std::__1::allocator<unsigned int>> *>::operator*",
   "linker_set_key" : "_ZNKSt3__111__wrap_iterIPKNS_3setIjNS_4lessIjEENS_9allocatorIjEEEEEdeEv",
   "parameters" :
   [
    {
     "is_this_ptr" : true,
     "referenced_type" : "_ZTIPKNSt3__111__wrap_iterIPKNS_3setIjNS_4lessIjEENS_9allocatorIjEEEEEE"
    }
   ],
   "return_type" : "_ZTIRKNSt3__13setIjNS_4lessIjEENS_9allocatorIjEEEE",
   "source_file" : "external/libcxx/include/iterator"
  },
  {
   "function_name" : "std::__1::__wrap_iter<const std::__1::set<unsigned int, std::__1::less<unsigned int>, std::__1::allocator<unsigned int>> *>::operator+",
   "linker_set_key" : "_ZNKSt3__111__wrap_iterIPKNS_3setIjNS_4lessIjEENS_9allocatorIjEEEEEplEl",
   "parameters" :
   [
    {
     "is_this_ptr" : true,
     "referenced_type" : "_ZTIPKNSt3__111__wrap_iterIPKNS_3setIjNS_4lessIjEENS_9allocatorIjEEEEEE"
    },
    {
     "referenced_type" : "_ZTIl"
    }
   ],
   "return_type" : "_ZTINSt3__111__wrap_iterIPKNS_3setIjNS_4lessIjEENS_9allocatorIjEEEEEE",
   "source_file" : "external/libcxx/include/iterator"
  },
  {
   "function_name" : "std::__1::__wrap_iter<const std::__1::set<unsigned int, std::__1::less<unsigned int>, std::__1::allocator<unsigned int>> *>::operator->",
   "linker_set_key" : "_ZNKSt3__111__wrap_iterIPKNS_3setIjNS_4lessIjEENS_9allocatorIjEEEEEptEv",
   "parameters" :
   [
    {
     "is_this_ptr" : true,
     "referenced_type" : "_ZTIPKNSt3__111__wrap_iterIPKNS_3setIjNS_4lessIjEENS_9allocatorIjEEEEEE"
    }
   ],
   "return_type" : "_ZTIPKNSt3__13setIjNS_4lessIjEENS_9allocatorIjEEEE",
   "source_file" : "external/libcxx/include/iterator"
  },
  {
   "function_name" : "std::__1::__wrap_iter<std::__1::set<unsigned int, std::__1::less<unsigned int>, std::__1::allocator<unsigned int>> *>::base",
   "linker_set_key" : "_ZNKSt3__111__wrap_iterIPNS_3setIjNS_4lessIjEENS_9allocatorIjEEEEE4baseEv",
   "parameters" :
   [
    {
     "is_this_ptr" : true,
     "referenced_type" : "_ZTIPKNSt3__111__wrap_iterIPNS_3setIjNS_4lessIjEENS_9allocatorIjEEEEEE"
    }
   ],
   "return_type" : "_ZTIPNSt3__13setIjNS_4lessIjEENS_9allocatorIjEEEE",
   "source_file" : "external/libcxx/include/iterator"
  },
  {
   "function_name" : "std::__1::__scalar_hash<std::__1::_PairT, 2>::operator()",
   "linker_set_key" : "_ZNKSt3__113__scalar_hashINS_6_PairTELm2EEclES1_",
   "parameters" :
   [
    {
     "is_this_ptr" : true,
     "referenced_type" : "_ZTIPKNSt3__113__scalar_hashINS_6_PairTELm2EEE"
    },
    {
     "referenced_type" : "_ZTINSt3__16_PairTE"
    }
   ],
   "return_type" : "_ZTIm",
   "source_file" : "external/libcxx/include/utility"
  },
  {
   "function_name" : "std::__1::__scalar_hash<double, 1>::operator()",
   "linker_set_key" : "_ZNKSt3__113__scalar_hashIdLm1EEclEd",
   "parameters" :
   [
    {
     "is_this_ptr" : true,
     "referenced_type" : "_ZTIPKNSt3__113__scalar_hashIdLm1EEE"
    },
    {
     "referenced_type" : "_ZTId"
    }
   ],
   "return_type" : "_ZTIm",
   "source_file" : "external/libcxx/include/utility"
  },
  {
   "function_name" : "std::__1::__scalar_hash<long double, 2>::operator()",
   "linker_set_key" : "_ZNKSt3__113__scalar_hashIeLm2EEclEe",
   "parameters" :
   [
    {
     "is_this_ptr" : true,
     "referenced_type" : "_ZTIPKNSt3__113__scalar_hashIeLm2EEE"
    },
    {
     "referenced_type" : "_ZTIe"
    }
   ],
   "return_type" : "_ZTIm",
   "source_file" : "external/libcxx/include/utility"
  },
  {
   "function_name" : "std::__1::__scalar_hash<float, 0>::operator()",
   "linker_set_key" : "_ZNKSt3__113__scalar_hashIfLm0EEclEf",
   "parameters" :
   [
    {
     "is_this_ptr" : true,
     "referenced_type" : "_ZTIPKNSt3__113__scalar_hashIfLm0EEE"
    },
    {
     "referenced_type" : "_ZTIf"
    }
   ],
   "return_type" : "_ZTIm",
   "source_file" : "external/libcxx/include/utility"
  },
  {
   "access" : "protected",
   "function_name" : "std::__1::__vector_base<std::__1::set<unsigned int, std::__1::less<unsigned int>, std::__1::allocator<unsigned int>>, std::__1::allocator<std::__1::set<unsigned int, std::__1::less<unsigned int>, std::__1::allocator<unsigned int>>>>::__alloc",
   "linker_set_key" : "_ZNKSt3__113__vector_baseINS_3setIjNS_4lessIjEENS_9allocatorIjEEEENS4_IS6_EEE7__allocEv",
   "parameters" :
   [
    {
     "is_this_ptr" : true,
     "referenced_type" : "_ZTIPKNSt3__113__vector_baseINS_3setIjNS_4lessIjEENS_9allocatorIjEEEENS4_IS6_EEEE"
    }
   ],
   "return_type" : "_ZTIRKNSt3__19allocatorINS_3setIjNS_4lessIjEENS0_IjEEEEEE",
   "source_file" : "external/libcxx/include/vector"
  },
  {
   "access" : "protected",
   "function_name" : "std::__1::__vector_base<std::__1::set<unsigned int, std::__1::less<unsigned int>, std::__1::allocator<unsigned int>>, std::__1::allocator<std::__1::set<unsigned int, std::__1::less<unsigned int>, std::__1::allocator<unsigned int>>>>::capacity",
   "linker_set_key" : "_ZNKSt3__113__vector_baseINS_3setIjNS_4lessIjEENS_9allocatorIjEEEENS4_IS6_EEE8capacityEv",
   "parameters" :
   [
    {
     "is_this_ptr" : true,
     "referenced_type" : "_ZTIPKNSt3__113__vector_baseINS_3setIjNS_4lessIjEENS_9allocatorIjEEEENS4_IS6_EEEE"
    }
   ],
   "return_type" : "_ZTIm",
   "source_file" : "external/libcxx/include/vector"
  },
  {
   "access" : "protected",
   "function_name" : "std::__1::__vector_base<std::__1::set<unsigned int, std::__1::less<unsigned int>, std::__1::allocator<unsigned int>>, std::__1::allocator<std::__1::set<unsigned int, std::__1::less<unsigned int>, std::__1::allocator<unsigned int>>>>::__end_cap",
   "linker_set_key" : "_ZNKSt3__113__vector_baseINS_3setIjNS_4lessIjEENS_9allocatorIjEEEENS4_IS6_EEE9__end_capEv",
   "parameters" :
   [
    {
     "is_this_ptr" : true,
     "referenced_type" : "_ZTIPKNSt3__113__vector_baseINS_3setIjNS_4lessIjEENS_9allocatorIjEEEENS4_IS6_EEEE"
    }
   ],
   "return_type" : "_ZTIRKPNSt3__13setIjNS_4lessIjEENS_9allocatorIjEEEE",
   "source_file" : "external/libcxx/include/vector"
  },
  {
   "function_name" : "std::__1::__shared_count::use_count",
   "linker_set_key" : "_ZNKSt3__114__shared_count9use_countEv",
   "parameters" :
   [
    {
     "is_this_ptr" : true,
     "referenced_type" : "_ZTIPKNSt3__114__shared_countE"
    }
   ],
   "return_type" : "_ZTIl",
   "source_file" : "external/libcxx/include/memory"
  },
  {
   "function_name" : "std::__1::__split_buffer<std::__1::set<unsigned int, std::__1::less<unsigned int>, std::__1::allocator<unsigned int>>, std::__1::allocator<std::__1::set<unsigned int, std::__1::less<unsigned int>, std::__1::allocator<unsigned int>>> &>::capacity",
   "linker_set_key" : "_ZNKSt3__114__split_bufferINS_3setIjNS_4lessIjEENS_9allocatorIjEEEERNS4_IS6_EEE8capacityEv",
   "parameters" :
   [
    {
     "is_this_ptr" : true,
     "referenced_type" : "_ZTIPKNSt3__114__split_bufferINS_3setIjNS_4lessIjEENS_9allocatorIjEEEERNS4_IS6_EEEE"
    }
   ],
   "return_type" : "_ZTIm",
   "source_file" : "external/libcxx/include/__split_buffer"
  },
  {
   "function_name" : "std::__1::__split_buffer<std::__1::set<unsigned int, std::__1::less<unsigned int>, std::__1::allocator<unsigned int>>, std::__1::allocator<std::__1::set<unsigned int, std::__1::less<unsigned int>, std::__1::allocator<unsigned int>>> &>::__end_cap",
   "linker_set_key" : "_ZNKSt3__114__split_bufferINS_3setIjNS_4lessIjEENS_9allocatorIjEEEERNS4_IS6_EEE9__end_capEv",
   "parameters" :
   [
    {
     "is_this_ptr" : true,
     "referenced_type" : "_ZTIPKNSt3__114__split_bufferINS_3setIjNS_4lessIjEENS_9allocatorIjEEEERNS4_IS6_EEEE"
    }
   ],
   "return_type" : "_ZTIRKPNSt3__13setIjNS_4lessIjEENS_9allocatorIjEEEE",
   "source_file" : "external/libcxx/include/__split_buffer"
  },
  {
   "function_name" : "std::__1::pointer_safety::operator int",
   "linker_set_key" : "_ZNKSt3__114pointer_safetycviEv",
   "parameters" :
   [
    {
     "is_this_ptr" : true,
     "referenced_type" : "_ZTIPKNSt3__114pointer_safetyE"
    }
   ],
   "return_type" : "_ZTIi",
   "source_file" : "external/libcxx/include/memory"
  },
  {
   "function_name" : "std::__1::__tree_node_base<void *>::__parent_unsafe",
   "linker_set_key" : "_ZNKSt3__116__tree_node_baseIPvE15__parent_unsafeEv",
   "parameters" :
   [
    {
     "is_this_ptr" : true,
     "referenced_type" : "_ZTIPKNSt3__116__tree_node_baseIPvEE"
    }
   ],
   "return_type" : "_ZTIPNSt3__116__tree_node_baseIPvEE",
   "source_file" : "external/libcxx/include/__tree"
  },
  {
   "function_name" : "std::__1::__compressed_pair<std::__1::__tree_end_node<std::__1::__tree_node_base<void *> *>, std::__1::allocator<std::__1::__tree_node<std::__1::set<unsigned int, std::__1::less<unsigned int>, std::__1::allocator<unsigned int>>, void *>>>::first",
   "linker_set_key" : "_ZNKSt3__117__compressed_pairINS_15__tree_end_nodeIPNS_16__tree_node_baseIPvEEEENS_9allocatorINS_11__tree_nodeINS_3setIjNS_4lessIjEENS7_IjEEEES3_EEEEE5firstEv",
   "parameters" :
   [
    {
     "is_this_ptr" : true,
     "referenced_type" : "_ZTIPKNSt3__117__compressed_pairINS_15__tree_end_nodeIPNS_16__tree_node_baseIPvEEEENS_9allocatorINS_11__tree_nodeINS_3setIjNS_4lessIjEENS7_IjEEEES3_EEEEEE"
    }
   ],
   "return_type" : "_ZTIRKNSt3__115__tree_end_nodeIPNS_16__tree_node_baseIPvEEEE",
   "source_file" : "external/libcxx/include/memory"
  },
  {
   "function_name" : "std::__1::__compressed_pair<std::__1::__tree_end_node<std::__1::__tree_node_base<void *> *>, std::__1::allocator<std::__1::__tree_node<unsigned int, void *>>>::first",
   "linker_set_key" : "_ZNKSt3__117__compressed_pairINS_15__tree_end_nodeIPNS_16__tree_node_baseIPvEEEENS_9allocatorINS_11__tree_nodeIjS3_EEEEE5firstEv",
   "parameters" :
   [
    {
     "is_this_ptr" : true,
     "referenced_type" : "_ZTIPKNSt3__117__compressed_pairINS_15__tree_end_nodeIPNS_16__tree_node_baseIPvEEEENS_9allocatorINS_11__tree_nodeIjS3_EEEEEE"
    }
   ],
   "return_type" : "_ZTIRKNSt3__115__tree_end_nodeIPNS_16__tree_node_baseIPvEEEE",
   "source_file" : "external/libcxx/include/memory"
  },
  {
   "function_name" : "std::__1::__compressed_pair<std::__1::__tree_end_node<std::__1::__tree_node_base<void *> *>, std::__1::allocator<std::__1::__tree_node<unsigned int, void *>>>::second",
   "linker_set_key" : "_ZNKSt3__117__compressed_pairINS_15__tree_end_nodeIPNS_16__tree_node_baseIPvEEEENS_9allocatorINS_11__tree_nodeIjS3_EEEEE6secondEv",
   "parameters" :
   [
    {
     "is_this_ptr" : true,
     "referenced_type" : "_ZTIPKNSt3__117__compressed_pairINS_15__tree_end_nodeIPNS_16__tree_node_baseIPvEEEENS_9allocatorINS_11__tree_nodeIjS3_EEEEEE"
    }
   ],
   "return_type" : "_ZTIRKNSt3__19allocatorINS_11__tree_nodeIjPvEEEE",
   "source_file" : "external/libcxx/include/memory"
  },
  {
   "function_name" : "std::__1::__compressed_pair<std::__1::__tree_node<std::__1::set<unsigned int, std::__1::less<unsigned int>, std::__1::allocator<unsigned int>>, void *> *, std::__1::__tree_node_destructor<std::__1::allocator<std::__1::__tree_node<std::__1::set<unsigned int, std::__1::less<unsigned int>, std::__1::allocator<unsigned int>>, void *>>>>::first",
   "linker_set_key" : "_ZNKSt3__117__compressed_pairIPNS_11__tree_nodeINS_3setIjNS_4lessIjEENS_9allocatorIjEEEEPvEENS_22__tree_node_destructorINS5_IS9_EEEEE5firstEv",
   "parameters" :
   [
    {
     "is_this_ptr" : true,
     "referenced_type" : "_ZTIPKNSt3__117__compressed_pairIPNS_11__tree_nodeINS_3setIjNS_4lessIjEENS_9allocatorIjEEEEPvEENS_22__tree_node_destructorINS5_IS9_EEEEEE"
    }
   ],
   "return_type" : "_ZTIRKPNSt3__111__tree_nodeINS_3setIjNS_4lessIjEENS_9allocatorIjEEEEPvEE",
   "source_file" : "external/libcxx/include/memory"
  },
  {
   "function_name" : "std::__1::__compressed_pair<std::__1::__tree_node<unsigned int, void *> *, std::__1::__tree_node_destructor<std::__1::allocator<std::__1::__tree_node<unsigned int, void *>>>>::first",
   "linker_set_key" : "_ZNKSt3__117__compressed_pairIPNS_11__tree_nodeIjPvEENS_22__tree_node_destructorINS_9allocatorIS3_EEEEE5firstEv",
   "parameters" :
   [
    {
     "is_this_ptr" : true,
     "referenced_type" : "_ZTIPKNSt3__117__compressed_pairIPNS_11__tree_nodeIjPvEENS_22__tree_node_destructorINS_9allocatorIS3_EEEEEE"
    }
   ],
   "return_type" : "_ZTIRKPNSt3__111__tree_nodeIjPvEE",
   "source_file" : "external/libcxx/include/memory"
  },
  {
   "function_name" : "std::__1::__compressed_pair<std::__1::set<unsigned int, std::__1::less<unsigned int>, std::__1::allocator<unsigned int>> *, std::__1::allocator<std::__1::set<unsigned int, std::__1::less<unsigned int>, std::__1::allocator<unsigned int>>>>::first",
   "linker_set_key" : "_ZNKSt3__117__compressed_pairIPNS_3setIjNS_4lessIjEENS_9allocatorIjEEEENS4_IS6_EEE5firstEv",
   "parameters" :
   [
    {
     "is_this_ptr" : true,
     "referenced_type" : "_ZTIPKNSt3__117__compressed_pairIPNS_3setIjNS_4lessIjEENS_9allocatorIjEEEENS4_IS6_EEEE"
    }
   ],
   "return_type" : "_ZTIRKPNSt3__13setIjNS_4lessIjEENS_9allocatorIjEEEE",
   "source_file" : "external/libcxx/include/memory"
  },
  {
   "function_name" : "std::__1::__compressed_pair<std::__1::set<unsigned int, std::__1::less<unsigned int>, std::__1::allocator<unsigned int>> *, std::__1::allocator<std::__1::set<unsigned int, std::__1::less<unsigned int>, std::__1::allocator<unsigned int>>>>::second",
   "linker_set_key" : "_ZNKSt3__117__compressed_pairIPNS_3setIjNS_4lessIjEENS_9allocatorIjEEEENS4_IS6_EEE6secondEv",
   "parameters" :
   [
    {
     "is_this_ptr" : true,
     "referenced_type" : "_ZTIPKNSt3__117__compressed_pairIPNS_3setIjNS_4lessIjEENS_9allocatorIjEEEENS4_IS6_EEEE"
    }
   ],
   "return_type" : "_ZTIRKNSt3__19allocatorINS_3setIjNS_4lessIjEENS0_IjEEEEEE",
   "source_file" : "external/libcxx/include/memory"
  },
  {
   "function_name" : "std::__1::__compressed_pair<std::__1::set<unsigned int, std::__1::less<unsigned int>, std::__1::allocator<unsigned int>> *, std::__1::allocator<std::__1::set<unsigned int, std::__1::less<unsigned int>, std::__1::allocator<unsigned int>>> &>::first",
   "linker_set_key" : "_ZNKSt3__117__compressed_pairIPNS_3setIjNS_4lessIjEENS_9allocatorIjEEEERNS4_IS6_EEE5firstEv",
   "parameters" :
   [
    {
     "is_this_ptr" : true,
     "referenced_type" : "_ZTIPKNSt3__117__compressed_pairIPNS_3setIjNS_4lessIjEENS_9allocatorIjEEEERNS4_IS6_EEEE"
    }
   ],
   "return_type" : "_ZTIRKPNSt3__13setIjNS_4lessIjEENS_9allocatorIjEEEE",
   "source_file" : "external/libcxx/include/memory"
  },
  {
   "function_name" : "std::__1::__compressed_pair<unsigned long, std::__1::less<std::__1::set<unsigned int, std::__1::less<unsigned int>, std::__1::allocator<unsigned int>>>>::second",
   "linker_set_key" : "_ZNKSt3__117__compressed_pairImNS_4lessINS_3setIjNS1_IjEENS_9allocatorIjEEEEEEE6secondEv",
   "parameters" :
   [
    {
     "is_this_ptr" : true,
     "referenced_type" : "_ZTIPKNSt3__117__compressed_pairImNS_4lessINS_3setIjNS1_IjEENS_9allocatorIjEEEEEEEE"
    }
   ],
   "return_type" : "_ZTIRKNSt3__14lessINS_3setIjNS0_IjEENS_9allocatorIjEEEEEE",
   "source_file" : "external/libcxx/include/memory"
  },
  {
   "function_name" : "std::__1::__compressed_pair<unsigned long, std::__1::less<unsigned int>>::first",
   "linker_set_key" : "_ZNKSt3__117__compressed_pairImNS_4lessIjEEE5firstEv",
   "parameters" :
   [
    {
     "is_this_ptr" : true,
     "referenced_type" : "_ZTIPKNSt3__117__compressed_pairImNS_4lessIjEEEE"
    }
   ],
   "return_type" : "_ZTIRKm",
   "source_file" : "external/libcxx/include/memory"
  },
  {
   "function_name" : "std::__1::__compressed_pair<unsigned long, std::__1::less<unsigned int>>::second",
   "linker_set_key" : "_ZNKSt3__117__compressed_pairImNS_4lessIjEEE6secondEv",
   "parameters" :
   [
    {
     "is_this_ptr" : true,
     "referenced_type" : "_ZTIPKNSt3__117__compressed_pairImNS_4lessIjEEEE"
    }
   ],
   "return_type" : "_ZTIRKNSt3__14lessIjEE",
   "source_file" : "external/libcxx/include/memory"
  },
  {
   "function_name" : "std::__1::__libcpp_refstring::c_str",
   "linker_set_key" : "_ZNKSt3__118__libcpp_refstring5c_strEv",
   "parameters" :
   [
    {
     "is_this_ptr" : true,
     "referenced_type" : "_ZTIPKNSt3__118__libcpp_refstringE"
    }
   ],
   "return_type" : "_ZTIPKc",
   "source_file" : "external/libcxx/include/stdexcept"
  },
  {
   "function_name" : "std::__1::__shared_weak_count::use_count",
   "linker_set_key" : "_ZNKSt3__119__shared_weak_count9use_countEv",
   "parameters" :
   [
    {
     "is_this_ptr" : true,
     "referenced_type" : "_ZTIPKNSt3__119__shared_weak_countE"
    }
   ],
   "return_type" : "_ZTIl",
   "source_file" : "external/libcxx/include/memory"
  },
  {
   "access" : "private",
   "function_name" : "std::__1::__tree_const_iterator<unsigned int, std::__1::__tree_node<unsigned int, void *> *, long>::__get_np",
   "linker_set_key" : "_ZNKSt3__121__tree_const_iteratorIjPNS_11__tree_nodeIjPvEElE8__get_npEv",
   "parameters" :
   [
    {
     "is_this_ptr" : true,
     "referenced_type" : "_ZTIPKNSt3__121__tree_const_iteratorIjPNS_11__tree_nodeIjPvEElEE"
    }
   ],
   "return_type" : "_ZTIPNSt3__111__tree_nodeIjPvEE",
   "source_file" : "external/libcxx/include/__tree"
  },
  {
   "function_name" : "std::__1::__tree_const_iterator<unsigned int, std::__1::__tree_node<unsigned int, void *> *, long>::operator*",
   "linker_set_key" : "_ZNKSt3__121__tree_const_iteratorIjPNS_11__tree_nodeIjPvEElEdeEv",
   "parameters" :
   [
    {
     "is_this_ptr" : true,
     "referenced_type" : "_ZTIPKNSt3__121__tree_const_iteratorIjPNS_11__tree_nodeIjPvEElEE"
    }
   ],
   "return_type" : "_ZTIRKj",
   "source_file" : "external/libcxx/include/__tree"
  },
  {
   "function_name" : "std::__1::__compressed_pair_elem<std::__1::__tree_end_node<std::__1::__tree_node_base<void *> *>, 0, false>::__get",
   "linker_set_key" : "_ZNKSt3__122__compressed_pair_elemINS_15__tree_end_nodeIPNS_16__tree_node_baseIPvEEEELi0ELb0EE5__getEv",
   "parameters" :
   [
    {
     "is_this_ptr" : true,
     "referenced_type" : "_ZTIPKNSt3__122__compressed_pair_elemINS_15__tree_end_nodeIPNS_16__tree_node_baseIPvEEEELi0ELb0EEE"
    }
   ],
   "return_type" : "_ZTIRKNSt3__115__tree_end_nodeIPNS_16__tree_node_baseIPvEEEE",
   "source_file" : "external/libcxx/include/memory"
  },
  {
   "function_name" : "std::__1::__compressed_pair_elem<std::__1::less<std::__1::set<unsigned int, std::__1::less<unsigned int>, std::__1::allocator<unsigned int>>>, 1, true>::__get",
   "linker_set_key" : "_ZNKSt3__122__compressed_pair_elemINS_4lessINS_3setIjNS1_IjEENS_9allocatorIjEEEEEELi1ELb1EE5__getEv",
   "parameters" :
   [
    {
     "is_this_ptr" : true,
     "referenced_type" : "_ZTIPKNSt3__122__compressed_pair_elemINS_4lessINS_3setIjNS1_IjEENS_9allocatorIjEEEEEELi1ELb1EEE"
    }
   ],
   "return_type" : "_ZTIRKNSt3__14lessINS_3setIjNS0_IjEENS_9allocatorIjEEEEEE",
   "source_file" : "external/libcxx/include/memory"
  },
  {
   "function_name" : "std::__1::__compressed_pair_elem<std::__1::less<unsigned int>, 1, true>::__get",
   "linker_set_key" : "_ZNKSt3__122__compressed_pair_elemINS_4lessIjEELi1ELb1EE5__getEv",
   "parameters" :
   [
    {
     "is_this_ptr" : true,
     "referenced_type" : "_ZTIPKNSt3__122__compressed_pair_elemINS_4lessIjEELi1ELb1EEE"
    }
   ],
   "return_type" : "_ZTIRKNSt3__14lessIjEE",
   "source_file" : "external/libcxx/include/memory"
  },
  {
   "function_name" : "std::__1::__compressed_pair_elem<std::__1::allocator<std::__1::__tree_node<unsigned int, void *>>, 1, true>::__get",
   "linker_set_key" : "_ZNKSt3__122__compressed_pair_elemINS_9allocatorINS_11__tree_nodeIjPvEEEELi1ELb1EE5__getEv",
   "parameters" :
   [
    {
     "is_this_ptr" : true,
     "referenced_type" : "_ZTIPKNSt3__122__compressed_pair_elemINS_9allocatorINS_11__tree_nodeIjPvEEEELi1ELb1EEE"
    }
   ],
   "return_type" : "_ZTIRKNSt3__19allocatorINS_11__tree_nodeIjPvEEEE",
   "source_file" : "external/libcxx/include/memory"
  },
  {
   "function_name" : "std::__1::__compressed_pair_elem<std::__1::allocator<std::__1::set<unsigned int, std::__1::less<unsigned int>, std::__1::allocator<unsigned int>>>, 1, true>::__get",
   "linker_set_key" : "_ZNKSt3__122__compressed_pair_elemINS_9allocatorINS_3setIjNS_4lessIjEENS1_IjEEEEEELi1ELb1EE5__getEv",
   "parameters" :
   [
    {
     "is_this_ptr" : true,
     "referenced_type" : "_ZTIPKNSt3__122__compressed_pair_elemINS_9allocatorINS_3setIjNS_4lessIjEENS1_IjEEEEEELi1ELb1EEE"
    }
   ],
   "return_type" : "_ZTIRKNSt3__19allocatorINS_3setIjNS_4lessIjEENS0_IjEEEEEE",
   "source_file" : "external/libcxx/include/memory"
  },
  {
   "function_name" : "std::__1::__compressed_pair_elem<std::__1::__tree_node<std::__1::set<unsigned int, std::__1::less<unsigned int>, std::__1::allocator<unsigned int>>, void *> *, 0, false>::__get",
   "linker_set_key" : "_ZNKSt3__122__compressed_pair_elemIPNS_11__tree_nodeINS_3setIjNS_4lessIjEENS_9allocatorIjEEEEPvEELi0ELb0EE5__getEv",
   "parameters" :
   [
    {
     "is_this_ptr" : true,
     "referenced_type" : "_ZTIPKNSt3__122__compressed_pair_elemIPNS_11__tree_nodeINS_3setIjNS_4lessIjEENS_9allocatorIjEEEEPvEELi0ELb0EEE"
    }
   ],
   "return_type" : "_ZTIRKPNSt3__111__tree_nodeINS_3setIjNS_4lessIjEENS_9allocatorIjEEEEPvEE",
   "source_file" : "external/libcxx/include/memory"
  },
  {
   "function_name" : "std::__1::__compressed_pair_elem<std::__1::__tree_node<unsigned int, void *> *, 0, false>::__get",
   "linker_set_key" : "_ZNKSt3__122__compressed_pair_elemIPNS_11__tree_nodeIjPvEELi0ELb0EE5__getEv",
   "parameters" :
   [
    {
     "is_this_ptr" : true,
     "referenced_type" : "_ZTIPKNSt3__122__compressed_pair_elemIPNS_11__tree_nodeIjPvEELi0ELb0EEE"
    }
   ],
   "return_type" : "_ZTIRKPNSt3__111__tree_nodeIjPvEE",
   "source_file" : "external/libcxx/include/memory"
  },
  {
   "function_name" : "std::__1::__compressed_pair_elem<std::__1::set<unsigned int, std::__1::less<unsigned int>, std::__1::allocator<unsigned int>> *, 0, false>::__get",
   "linker_set_key" : "_ZNKSt3__122__compressed_pair_elemIPNS_3setIjNS_4lessIjEENS_9allocatorIjEEEELi0ELb0EE5__getEv",
   "parameters" :
   [
    {
     "is_this_ptr" : true,
     "referenced_type" : "_ZTIPKNSt3__122__compressed_pair_elemIPNS_3setIjNS_4lessIjEENS_9allocatorIjEEEELi0ELb0EEE"
    }
   ],
   "return_type" : "_ZTIRKPNSt3__13setIjNS_4lessIjEENS_9allocatorIjEEEE",
   "source_file" : "external/libcxx/include/memory"
  },
  {
   "function_name" : "std::__1::__compressed_pair_elem<unsigned long, 0, false>::__get",
   "linker_set_key" : "_ZNKSt3__122__compressed_pair_elemImLi0ELb0EE5__getEv",
   "parameters" :
   [
    {
     "is_this_ptr" : true,
     "referenced_type" : "_ZTIPKNSt3__122__compressed_pair_elemImLi0ELb0EEE"
    }
   ],
   "return_type" : "_ZTIRKm",
   "source_file" : "external/libcxx/include/memory"
  },
  {
   "function_name" : "std::__1::set<std::__1::set<unsigned int, std::__1::less<unsigned int>, std::__1::allocator<unsigned int>>, std::__1::less<std::__1::set<unsigned int, std::__1::less<unsigned int>, std::__1::allocator<unsigned int>>>, std::__1::allocator<std::__1::set<unsigned int, std::__1::less<unsigned int>, std::__1::allocator<unsigned int>>>>::count",
   "linker_set_key" : "_ZNKSt3__13setINS0_IjNS_4lessIjEENS_9allocatorIjEEEENS1_IS5_EENS3_IS5_EEE5countERKS5_",
   "parameters" :
   [
    {
     "is_this_ptr" : true,
     "referenced_type" : "_ZTIPKNSt3__13setINS0_IjNS_4lessIjEENS_9allocatorIjEEEENS1_IS5_EENS3_IS5_EEEE"
    },
    {
     "referenced_type" : "_ZTIRKNSt3__13setIjNS_4lessIjEENS_9allocatorIjEEEE"
    }
   ],
   "return_type" : "_ZTIm",
   "source_file" : "external/libcxx/include/set"
  },
  {
   "function_name" : "std::__1::set<unsigned int, std::__1::less<unsigned int>, std::__1::allocator<unsigned int>>::end",
   "linker_set_key" : "_ZNKSt3__13setIjNS_4lessIjEENS_9allocatorIjEEE3endEv",
   "parameters" :
   [
    {
     "is_this_ptr" : true,
     "referenced_type" : "_ZTIPKNSt3__13setIjNS_4lessIjEENS_9allocatorIjEEEE"
    }
   ],
   "return_type" : "_ZTINSt3__121__tree_const_iteratorIjPNS_11__tree_nodeIjPvEElEE",
   "source_file" : "external/libcxx/include/set"
  },
  {
   "function_name" : "std::__1::set<unsigned int, std::__1::less<unsigned int>, std::__1::allocator<unsigned int>>::cend",
   "linker_set_key" : "_ZNKSt3__13setIjNS_4lessIjEENS_9allocatorIjEEE4cendEv",
   "parameters" :
   [
    {
     "is_this_ptr" : true,
     "referenced_type" : "_ZTIPKNSt3__13setIjNS_4lessIjEENS_9allocatorIjEEEE"
    }
   ],
   "return_type" : "_ZTINSt3__121__tree_const_iteratorIjPNS_11__tree_nodeIjPvEElEE",
   "source_file" : "external/libcxx/include/set"
  },
  {
   "function_name" : "std::__1::set<unsigned int, std::__1::less<unsigned int>, std::__1::allocator<unsigned int>>::size",
   "linker_set_key" : "_ZNKSt3__13setIjNS_4lessIjEENS_9allocatorIjEEE4sizeEv",
   "parameters" :
   [
    {
     "is_this_ptr" : true,
     "referenced_type" : "_ZTIPKNSt3__13setIjNS_4lessIjEENS_9allocatorIjEEEE"
    }
   ],
   "return_type" : "_ZTIm",
   "source_file" : "external/libcxx/include/set"
  },
  {
   "function_name" : "std::__1::set<unsigned int, std::__1::less<unsigned int>, std::__1::allocator<unsigned int>>::begin",
   "linker_set_key" : "_ZNKSt3__13setIjNS_4lessIjEENS_9allocatorIjEEE5beginEv",
   "parameters" :
   [
    {
     "is_this_ptr" : true,
     "referenced_type" : "_ZTIPKNSt3__13setIjNS_4lessIjEENS_9allocatorIjEEEE"
    }
   ],
   "return_type" : "_ZTINSt3__121__tree_const_iteratorIjPNS_11__tree_nodeIjPvEElEE",
   "source_file" : "external/libcxx/include/set"
  },
  {
   "function_name" : "std::__1::set<unsigned int, std::__1::less<unsigned int>, std::__1::allocator<unsigned int>>::empty",
   "linker_set_key" : "_ZNKSt3__13setIjNS_4lessIjEENS_9allocatorIjEEE5emptyEv",
   "parameters" :
   [
    {
     "is_this_ptr" : true,
     "referenced_type" : "_ZTIPKNSt3__13setIjNS_4lessIjEENS_9allocatorIjEEEE"
    }
   ],
   "return_type" : "_ZTIb",
   "source_file" : "external/libcxx/include/set"
  },
  {
   "function_name" : "std::__1::hash<char32_t>::operator()",
   "linker_set_key" : "_ZNKSt3__14hashIDiEclEDi",
   "parameters" :
   [
    {
     "is_this_ptr" : true,
     "referenced_type" : "_ZTIPKNSt3__14hashIDiEE"
    },
    {
     "referenced_type" : "_ZTIDi"
    }
   ],
   "return_type" : "_ZTIm",
   "source_file" : "external/libcxx/include/utility"
  },
  {
   "function_name" : "std::__1::hash<char16_t>::operator()",
   "linker_set_key" : "_ZNKSt3__14hashIDsEclEDs",
   "parameters" :
   [
    {
     "is_this_ptr" : true,
     "referenced_type" : "_ZTIPKNSt3__14hashIDsEE"
    },
    {
     "referenced_type" : "_ZTIDs"
    }
   ],
   "return_type" : "_ZTIm",
   "source_file" : "external/libcxx/include/utility"
  },
  {
   "function_name" : "std::__1::hash<signed char>::operator()",
   "linker_set_key" : "_ZNKSt3__14hashIaEclEa",
   "parameters" :
   [
    {
     "is_this_ptr" : true,
     "referenced_type" : "_ZTIPKNSt3__14hashIaEE"
    },
    {
     "referenced_type" : "_ZTIa"
    }
   ],
   "return_type" : "_ZTIm",
   "source_file" : "external/libcxx/include/utility"
  },
  {
   "function_name" : "std::__1::hash<bool>::operator()",
   "linker_set_key" : "_ZNKSt3__14hashIbEclEb",
   "parameters" :
   [
    {
     "is_this_ptr" : true,
     "referenced_type" : "_ZTIPKNSt3__14hashIbEE"
    },
    {
     "referenced_type" : "_ZTIb"
    }
   ],
   "return_type" : "_ZTIm",
   "source_file" : "external/libcxx/include/utility"
  },
  {
   "function_name" : "std::__1::hash<char>::operator()",
   "linker_set_key" : "_ZNKSt3__14hashIcEclEc",
   "parameters" :
   [
    {
     "is_this_ptr" : true,
     "referenced_type" : "_ZTIPKNSt3__14hashIcEE"
    },
    {
     "referenced_type" : "_ZTIc"
    }
   ],
   "return_type" : "_ZTIm",
   "source_file" : "external/libcxx/include/utility"
  },
  {
   "function_name" : "std::__1::hash<double>::operator()",
   "linker_set_key" : "_ZNKSt3__14hashIdEclEd",
   "parameters" :
   [
    {
     "is_this_ptr" : true,
     "referenced_type" : "_ZTIPKNSt3__14hashIdEE"
    },
    {
     "referenced_type" : "_ZTId"
    }
   ],
   "return_type" : "_ZTIm",
   "source_file" : "external/libcxx/include/utility"
  },
  {
   "function_name" : "std::__1::hash<long double>::operator()",
   "linker_set_key" : "_ZNKSt3__14hashIeEclEe",
   "parameters" :
   [
    {
     "is_this_ptr" : true,
     "referenced_type" : "_ZTIPKNSt3__14hashIeEE"
    },
    {
     "referenced_type" : "_ZTIe"
    }
   ],
   "return_type" : "_ZTIm",
   "source_file" : "external/libcxx/include/utility"
  },
  {
   "function_name" : "std::__1::hash<float>::operator()",
   "linker_set_key" : "_ZNKSt3__14hashIfEclEf",
   "parameters" :
   [
    {
     "is_this_ptr" : true,
     "referenced_type" : "_ZTIPKNSt3__14hashIfEE"
    },
    {
     "referenced_type" : "_ZTIf"
    }
   ],
   "return_type" : "_ZTIm",
   "source_file" : "external/libcxx/include/utility"
  },
  {
   "function_name" : "std::__1::hash<unsigned char>::operator()",
   "linker_set_key" : "_ZNKSt3__14hashIhEclEh",
   "parameters" :
   [
    {
     "is_this_ptr" : true,
     "referenced_type" : "_ZTIPKNSt3__14hashIhEE"
    },
    {
     "referenced_type" : "_ZTIh"
    }
   ],
   "return_type" : "_ZTIm",
   "source_file" : "external/libcxx/include/utility"
  },
  {
   "function_name" : "std::__1::hash<int>::operator()",
   "linker_set_key" : "_ZNKSt3__14hashIiEclEi",
   "parameters" :
   [
    {
     "is_this_ptr" : true,
     "referenced_type" : "_ZTIPKNSt3__14hashIiEE"
    },
    {
     "referenced_type" : "_ZTIi"
    }
   ],
   "return_type" : "_ZTIm",
   "source_file" : "external/libcxx/include/utility"
  },
  {
   "function_name" : "std::__1::hash<unsigned int>::operator()",
   "linker_set_key" : "_ZNKSt3__14hashIjEclEj",
   "parameters" :
   [
    {
     "is_this_ptr" : true,
     "referenced_type" : "_ZTIPKNSt3__14hashIjEE"
    },
    {
     "referenced_type" : "_ZTIj"
    }
   ],
   "return_type" : "_ZTIm",
   "source_file" : "external/libcxx/include/utility"
  },
  {
   "function_name" : "std::__1::hash<long>::operator()",
   "linker_set_key" : "_ZNKSt3__14hashIlEclEl",
   "parameters" :
   [
    {
     "is_this_ptr" : true,
     "referenced_type" : "_ZTIPKNSt3__14hashIlEE"
    },
    {
     "referenced_type" : "_ZTIl"
    }
   ],
   "return_type" : "_ZTIm",
   "source_file" : "external/libcxx/include/utility"
  },
  {
   "function_name" : "std::__1::hash<unsigned long>::operator()",
   "linker_set_key" : "_ZNKSt3__14hashImEclEm",
   "parameters" :
   [
    {
     "is_this_ptr" : true,
     "referenced_type" : "_ZTIPKNSt3__14hashImEE"
    },
    {
     "referenced_type" : "_ZTIm"
    }
   ],
   "return_type" : "_ZTIm",
   "source_file" : "external/libcxx/include/utility"
  },
  {
   "function_name" : "std::__1::hash<short>::operator()",
   "linker_set_key" : "_ZNKSt3__14hashIsEclEs",
   "parameters" :
   [
    {
     "is_this_ptr" : true,
     "referenced_type" : "_ZTIPKNSt3__14hashIsEE"
    },
    {
     "referenced_type" : "_ZTIs"
    }
   ],
   "return_type" : "_ZTIm",
   "source_file" : "external/libcxx/include/utility"
  },
  {
   "function_name" : "std::__1::hash<unsigned short>::operator()",
   "linker_set_key" : "_ZNKSt3__14hashItEclEt",
   "parameters" :
   [
    {
     "is_this_ptr" : true,
     "referenced_type" : "_ZTIPKNSt3__14hashItEE"
    },
    {
     "referenced_type" : "_ZTIt"
    }
   ],
   "return_type" : "_ZTIm",
   "source_file" : "external/libcxx/include/utility"
  },
  {
   "function_name" : "std::__1::hash<wchar_t>::operator()",
   "linker_set_key" : "_ZNKSt3__14hashIwEclEw",
   "parameters" :
   [
    {
     "is_this_ptr" : true,
     "referenced_type" : "_ZTIPKNSt3__14hashIwEE"
    },
    {
     "referenced_type" : "_ZTIw"
    }
   ],
   "return_type" : "_ZTIm",
   "source_file" : "external/libcxx/include/utility"
  },
  {
   "function_name" : "std::__1::less<std::__1::set<unsigned int, std::__1::less<unsigned int>, std::__1::allocator<unsigned int>>>::operator()",
   "linker_set_key" : "_ZNKSt3__14lessINS_3setIjNS0_IjEENS_9allocatorIjEEEEEclERKS5_S8_",
   "parameters" :
   [
    {
     "is_this_ptr" : true,
     "referenced_type" : "_ZTIPKNSt3__14lessINS_3setIjNS0_IjEENS_9allocatorIjEEEEEE"
    },
    {
     "referenced_type" : "_ZTIRKNSt3__13setIjNS_4lessIjEENS_9allocatorIjEEEE"
    },
    {
     "referenced_type" : "_ZTIRKNSt3__13setIjNS_4lessIjEENS_9allocatorIjEEEE"
    }
   ],
   "return_type" : "_ZTIb",
   "source_file" : "external/libcxx/include/__functional_base"
  },
  {
   "function_name" : "std::__1::less<unsigned int>::operator()",
   "linker_set_key" : "_ZNKSt3__14lessIjEclERKjS3_",
   "parameters" :
   [
    {
     "is_this_ptr" : true,
     "referenced_type" : "_ZTIPKNSt3__14lessIjEE"
    },
    {
     "referenced_type" : "_ZTIRKj"
    },
    {
     "referenced_type" : "_ZTIRKj"
    }
   ],
   "return_type" : "_ZTIb",
   "source_file" : "external/libcxx/include/__functional_base"
  },
  {
   "function_name" : "std::__1::__less<unsigned int, unsigned int>::operator()",
   "linker_set_key" : "_ZNKSt3__16__lessIjjEclERKjS3_",
   "parameters" :
   [
    {
     "is_this_ptr" : true,
     "referenced_type" : "_ZTIPKNSt3__16__lessIjjEE"
    },
    {
     "referenced_type" : "_ZTIRKj"
    },
    {
     "referenced_type" : "_ZTIRKj"
    }
   ],
   "return_type" : "_ZTIb",
   "source_file" : "external/libcxx/include/algorithm"
  },
  {
   "function_name" : "std::__1::__less<unsigned long, unsigned long>::operator()",
   "linker_set_key" : "_ZNKSt3__16__lessImmEclERKmS3_",
   "parameters" :
   [
    {
     "is_this_ptr" : true,
     "referenced_type" : "_ZTIPKNSt3__16__lessImmEE"
    },
    {
     "referenced_type" : "_ZTIRKm"
    },
    {
     "referenced_type" : "_ZTIRKm"
    }
   ],
   "return_type" : "_ZTIb",
   "source_file" : "external/libcxx/include/algorithm"
  },
  {
   "function_name" : "std::__1::__tree<std::__1::set<unsigned int, std::__1::less<unsigned int>, std::__1::allocator<unsigned int>>, std::__1::less<std::__1::set<unsigned int, std::__1::less<unsigned int>, std::__1::allocator<unsigned int>>>, std::__1::allocator<std::__1::set<unsigned int, std::__1::less<unsigned int>, std::__1::allocator<unsigned int>>>>::__end_node",
   "linker_set_key" : "_ZNKSt3__16__treeINS_3setIjNS_4lessIjEENS_9allocatorIjEEEENS2_IS6_EENS4_IS6_EEE10__end_nodeEv",
   "parameters" :
   [
    {
     "is_this_ptr" : true,
     "referenced_type" : "_ZTIPKNSt3__16__treeINS_3setIjNS_4lessIjEENS_9allocatorIjEEEENS2_IS6_EENS4_IS6_EEEE"
    }
   ],
   "return_type" : "_ZTIPNSt3__115__tree_end_nodeIPNS_16__tree_node_baseIPvEEEE",
   "source_file" : "external/libcxx/include/__tree"
  },
  {
   "function_name" : "std::__1::__tree<std::__1::set<unsigned int, std::__1::less<unsigned int>, std::__1::allocator<unsigned int>>, std::__1::less<std::__1::set<unsigned int, std::__1::less<unsigned int>, std::__1::allocator<unsigned int>>>, std::__1::allocator<std::__1::set<unsigned int, std::__1::less<unsigned int>, std::__1::allocator<unsigned int>>>>::__root_ptr",
   "linker_set_key" : "_ZNKSt3__16__treeINS_3setIjNS_4lessIjEENS_9allocatorIjEEEENS2_IS6_EENS4_IS6_EEE10__root_ptrEv",
   "parameters" :
   [
    {
     "is_this_ptr" : true,
     "referenced_type" : "_ZTIPKNSt3__16__treeINS_3setIjNS_4lessIjEENS_9allocatorIjEEEENS2_IS6_EENS4_IS6_EEEE"
    }
   ],
   "return_type" : "_ZTIPPNSt3__116__tree_node_baseIPvEE",
   "source_file" : "external/libcxx/include/__tree"
  },
  {
   "function_name" : "std::__1::__tree<std::__1::set<unsigned int, std::__1::less<unsigned int>, std::__1::allocator<unsigned int>>, std::__1::less<std::__1::set<unsigned int, std::__1::less<unsigned int>, std::__1::allocator<unsigned int>>>, std::__1::allocator<std::__1::set<unsigned int, std::__1::less<unsigned int>, std::__1::allocator<unsigned int>>>>::value_comp",
   "linker_set_key" : "_ZNKSt3__16__treeINS_3setIjNS_4lessIjEENS_9allocatorIjEEEENS2_IS6_EENS4_IS6_EEE10value_compEv",
   "parameters" :
   [
    {
     "is_this_ptr" : true,
     "referenced_type" : "_ZTIPKNSt3__16__treeINS_3setIjNS_4lessIjEENS_9allocatorIjEEEENS2_IS6_EENS4_IS6_EEEE"
    }
   ],
   "return_type" : "_ZTIRKNSt3__14lessINS_3setIjNS0_IjEENS_9allocatorIjEEEEEE",
   "source_file" : "external/libcxx/include/__tree"
  },
  {
   "function_name" : "std::__1::__tree<std::__1::set<unsigned int, std::__1::less<unsigned int>, std::__1::allocator<unsigned int>>, std::__1::less<std::__1::set<unsigned int, std::__1::less<unsigned int>, std::__1::allocator<unsigned int>>>, std::__1::allocator<std::__1::set<unsigned int, std::__1::less<unsigned int>, std::__1::allocator<unsigned int>>>>::__count_unique",
   "linker_set_key" : "_ZNKSt3__16__treeINS_3setIjNS_4lessIjEENS_9allocatorIjEEEENS2_IS6_EENS4_IS6_EEE14__count_uniqueIS6_EEmRKT_",
   "parameters" :
   [
    {
     "is_this_ptr" : true,
     "referenced_type" : "_ZTIPKNSt3__16__treeINS_3setIjNS_4lessIjEENS_9allocatorIjEEEENS2_IS6_EENS4_IS6_EEEE"
    },
    {
     "referenced_type" : "_ZTIRKNSt3__13setIjNS_4lessIjEENS_9allocatorIjEEEE"
    }
   ],
   "return_type" : "_ZTIm",
   "source_file" : "external/libcxx/include/__tree",
   "template_args" : [ "_ZTINSt3__13setIjNS_4lessIjEENS_9allocatorIjEEEE" ]
  },
  {
   "function_name" : "std::__1::__tree<std::__1::set<unsigned int, std::__1::less<unsigned int>, std::__1::allocator<unsigned int>>, std::__1::less<std::__1::set<unsigned int, std::__1::less<unsigned int>, std::__1::allocator<unsigned int>>>, std::__1::allocator<std::__1::set<unsigned int, std::__1::less<unsigned int>, std::__1::allocator<unsigned int>>>>::__root",
   "linker_set_key" : "_ZNKSt3__16__treeINS_3setIjNS_4lessIjEENS_9allocatorIjEEEENS2_IS6_EENS4_IS6_EEE6__rootEv",
   "parameters" :
   [
    {
     "is_this_ptr" : true,
     "referenced_type" : "_ZTIPKNSt3__16__treeINS_3setIjNS_4lessIjEENS_9allocatorIjEEEENS2_IS6_EENS4_IS6_EEEE"
    }
   ],
   "return_type" : "_ZTIPNSt3__111__tree_nodeINS_3setIjNS_4lessIjEENS_9allocatorIjEEEEPvEE",
   "source_file" : "external/libcxx/include/__tree"
  },
  {
   "function_name" : "std::__1::__tree<unsigned int, std::__1::less<unsigned int>, std::__1::allocator<unsigned int>>::__end_node",
   "linker_set_key" : "_ZNKSt3__16__treeIjNS_4lessIjEENS_9allocatorIjEEE10__end_nodeEv",
   "parameters" :
   [
    {
     "is_this_ptr" : true,
     "referenced_type" : "_ZTIPKNSt3__16__treeIjNS_4lessIjEENS_9allocatorIjEEEE"
    }
   ],
   "return_type" : "_ZTIPNSt3__115__tree_end_nodeIPNS_16__tree_node_baseIPvEEEE",
   "source_file" : "external/libcxx/include/__tree"
  },
  {
   "function_name" : "std::__1::__tree<unsigned int, std::__1::less<unsigned int>, std::__1::allocator<unsigned int>>::__root_ptr",
   "linker_set_key" : "_ZNKSt3__16__treeIjNS_4lessIjEENS_9allocatorIjEEE10__root_ptrEv",
   "parameters" :
   [
    {
     "is_this_ptr" : true,
     "referenced_type" : "_ZTIPKNSt3__16__treeIjNS_4lessIjEENS_9allocatorIjEEEE"
    }
   ],
   "return_type" : "_ZTIPPNSt3__116__tree_node_baseIPvEE",
   "source_file" : "external/libcxx/include/__tree"
  },
  {
   "function_name" : "std::__1::__tree<unsigned int, std::__1::less<unsigned int>, std::__1::allocator<unsigned int>>::value_comp",
   "linker_set_key" : "_ZNKSt3__16__treeIjNS_4lessIjEENS_9allocatorIjEEE10value_compEv",
   "parameters" :
   [
    {
     "is_this_ptr" : true,
     "referenced_type" : "_ZTIPKNSt3__16__treeIjNS_4lessIjEENS_9allocatorIjEEEE"
    }
   ],
   "return_type" : "_ZTIRKNSt3__14lessIjEE",
   "source_file" : "external/libcxx/include/__tree"
  },
  {
   "access" : "private",
   "function_name" : "std::__1::__tree<unsigned int, std::__1::less<unsigned int>, std::__1::allocator<unsigned int>>::__begin_node",
   "linker_set_key" : "_ZNKSt3__16__treeIjNS_4lessIjEENS_9allocatorIjEEE12__begin_nodeEv",
   "parameters" :
   [
    {
     "is_this_ptr" : true,
     "referenced_type" : "_ZTIPKNSt3__16__treeIjNS_4lessIjEENS_9allocatorIjEEEE"
    }
   ],
   "return_type" : "_ZTIRKPNSt3__115__tree_end_nodeIPNS_16__tree_node_baseIPvEEEE",
   "source_file" : "external/libcxx/include/__tree"
  },
  {
   "access" : "private",
   "function_name" : "std::__1::__tree<unsigned int, std::__1::less<unsigned int>, std::__1::allocator<unsigned int>>::__node_alloc",
   "linker_set_key" : "_ZNKSt3__16__treeIjNS_4lessIjEENS_9allocatorIjEEE12__node_allocEv",
   "parameters" :
   [
    {
     "is_this_ptr" : true,
     "referenced_type" : "_ZTIPKNSt3__16__treeIjNS_4lessIjEENS_9allocatorIjEEEE"
    }
   ],
   "return_type" : "_ZTIRKNSt3__19allocatorINS_11__tree_nodeIjPvEEEE",
   "source_file" : "external/libcxx/include/__tree"
  },
  {
   "function_name" : "std::__1::__tree<unsigned int, std::__1::less<unsigned int>, std::__1::allocator<unsigned int>>::end",
   "linker_set_key" : "_ZNKSt3__16__treeIjNS_4lessIjEENS_9allocatorIjEEE3endEv",
   "parameters" :
   [
    {
     "is_this_ptr" : true,
     "referenced_type" : "_ZTIPKNSt3__16__treeIjNS_4lessIjEENS_9allocatorIjEEEE"
    }
   ],
   "return_type" : "_ZTINSt3__121__tree_const_iteratorIjPNS_11__tree_nodeIjPvEElEE",
   "source_file" : "external/libcxx/include/__tree"
  },
  {
   "function_name" : "std::__1::__tree<unsigned int, std::__1::less<unsigned int>, std::__1::allocator<unsigned int>>::size",
   "linker_set_key" : "_ZNKSt3__16__treeIjNS_4lessIjEENS_9allocatorIjEEE4sizeEv",
   "parameters" :
   [
    {
     "is_this_ptr" : true,
     "referenced_type" : "_ZTIPKNSt3__16__treeIjNS_4lessIjEENS_9allocatorIjEEEE"
    }
   ],
   "return_type" : "_ZTIRKm",
   "source_file" : "external/libcxx/include/__tree"
  },
  {
   "function_name" : "std::__1::__tree<unsigned int, std::__1::less<unsigned int>, std::__1::allocator<unsigned int>>::begin",
   "linker_set_key" : "_ZNKSt3__16__treeIjNS_4lessIjEENS_9allocatorIjEEE5beginEv",
   "parameters" :
   [
    {
     "is_this_ptr" : true,
     "referenced_type" : "_ZTIPKNSt3__16__treeIjNS_4lessIjEENS_9allocatorIjEEEE"
    }
   ],
   "return_type" : "_ZTINSt3__121__tree_const_iteratorIjPNS_11__tree_nodeIjPvEElEE",
   "source_file" : "external/libcxx/include/__tree"
  },
  {
   "function_name" : "std::__1::__tree<unsigned int, std::__1::less<unsigned int>, std::__1::allocator<unsigned int>>::__root",
   "linker_set_key" : "_ZNKSt3__16__treeIjNS_4lessIjEENS_9allocatorIjEEE6__rootEv",
   "parameters" :
   [
    {
     "is_this_ptr" : true,
     "referenced_type" : "_ZTIPKNSt3__16__treeIjNS_4lessIjEENS_9allocatorIjEEEE"
    }
   ],
   "return_type" : "_ZTIPNSt3__111__tree_nodeIjPvEE",
   "source_file" : "external/libcxx/include/__tree"
  },
  {
   "access" : "private",
   "function_name" : "std::__1::vector<std::__1::set<unsigned int, std::__1::less<unsigned int>, std::__1::allocator<unsigned int>>, std::__1::allocator<std::__1::set<unsigned int, std::__1::less<unsigned int>, std::__1::allocator<unsigned int>>>>::__make_iter",
   "linker_set_key" : "_ZNKSt3__16vectorINS_3setIjNS_4lessIjEENS_9allocatorIjEEEENS4_IS6_EEE11__make_iterEPKS6_",
   "parameters" :
   [
    {
     "is_this_ptr" : true,
     "referenced_type" : "_ZTIPKNSt3__16vectorINS_3setIjNS_4lessIjEENS_9allocatorIjEEEENS4_IS6_EEEE"
    },
    {
     "referenced_type" : "_ZTIPKNSt3__13setIjNS_4lessIjEENS_9allocatorIjEEEE"
    }
   ],
   "return_type" : "_ZTINSt3__111__wrap_iterIPKNS_3setIjNS_4lessIjEENS_9allocatorIjEEEEEE",
   "source_file" : "external/libcxx/include/vector"
  },
  {
   "access" : "private",
   "function_name" : "std::__1::vector<std::__1::set<unsigned int, std::__1::less<unsigned int>, std::__1::allocator<unsigned int>>, std::__1::allocator<std::__1::set<unsigned int, std::__1::less<unsigned int>, std::__1::allocator<unsigned int>>>>::__recommend",
   "linker_set_key" : "_ZNKSt3__16vectorINS_3setIjNS_4lessIjEENS_9allocatorIjEEEENS4_IS6_EEE11__recommendEm",
   "parameters" :
   [
    {
     "is_this_ptr" : true,
     "referenced_type" : "_ZTIPKNSt3__16vectorINS_3setIjNS_4lessIjEENS_9allocatorIjEEEENS4_IS6_EEEE"
    },
    {
     "referenced_type" : "_ZTIm"
    }
   ],
   "return_type" : "_ZTIm",
   "source_file" : "external/libcxx/include/vector"
  },
  {
   "access" : "private",
   "function_name" : "std::__1::vector<std::__1::set<unsigned int, std::__1::less<unsigned int>, std::__1::allocator<unsigned int>>, std::__1::allocator<std::__1::set<unsigned int, std::__1::less<unsigned int>, std::__1::allocator<unsigned int>>>>::__annotate_new",
   "linker_set_key" : "_ZNKSt3__16vectorINS_3setIjNS_4lessIjEENS_9allocatorIjEEEENS4_IS6_EEE14__annotate_newEm",
   "parameters" :
   [
    {
     "is_this_ptr" : true,
     "referenced_type" : "_ZTIPKNSt3__16vectorINS_3setIjNS_4lessIjEENS_9allocatorIjEEEENS4_IS6_EEEE"
    },
    {
     "referenced_type" : "_ZTIm"
    }
   ],
   "return_type" : "_ZTIv",
   "source_file" : "external/libcxx/include/vector"
  },
  {
   "access" : "private",
   "function_name" : "std::__1::vector<std::__1::set<unsigned int, std::__1::less<unsigned int>, std::__1::allocator<unsigned int>>, std::__1::allocator<std::__1::set<unsigned int, std::__1::less<unsigned int>, std::__1::allocator<unsigned int>>>>::__annotate_delete",
   "linker_set_key" : "_ZNKSt3__16vectorINS_3setIjNS_4lessIjEENS_9allocatorIjEEEENS4_IS6_EEE17__annotate_deleteEv",
   "parameters" :
   [
    {
     "is_this_ptr" : true,
     "referenced_type" : "_ZTIPKNSt3__16vectorINS_3setIjNS_4lessIjEENS_9allocatorIjEEEENS4_IS6_EEEE"
    }
   ],
   "return_type" : "_ZTIv",
   "source_file" : "external/libcxx/include/vector"
  },
  {
   "access" : "private",
   "function_name" : "std::__1::vector<std::__1::set<unsigned int, std::__1::less<unsigned int>, std::__1::allocator<unsigned int>>, std::__1::allocator<std::__1::set<unsigned int, std::__1::less<unsigned int>, std::__1::allocator<unsigned int>>>>::__annotate_contiguous_container",
   "linker_set_key" : "_ZNKSt3__16vectorINS_3setIjNS_4lessIjEENS_9allocatorIjEEEENS4_IS6_EEE31__annotate_contiguous_containerEPKvSA_SA_SA_",
   "parameters" :
   [
    {
     "is_this_ptr" : true,
     "referenced_type" : "_ZTIPKNSt3__16vectorINS_3setIjNS_4lessIjEENS_9allocatorIjEEEENS4_IS6_EEEE"
    },
    {
     "referenced_type" : "_ZTIPKv"
    },
    {
     "referenced_type" : "_ZTIPKv"
    },
    {
     "referenced_type" : "_ZTIPKv"
    },
    {
     "referenced_type" : "_ZTIPKv"
    }
   ],
   "return_type" : "_ZTIv",
   "source_file" : "external/libcxx/include/vector"
  },
  {
   "function_name" : "std::__1::vector<std::__1::set<unsigned int, std::__1::less<unsigned int>, std::__1::allocator<unsigned int>>, std::__1::allocator<std::__1::set<unsigned int, std::__1::less<unsigned int>, std::__1::allocator<unsigned int>>>>::end",
   "linker_set_key" : "_ZNKSt3__16vectorINS_3setIjNS_4lessIjEENS_9allocatorIjEEEENS4_IS6_EEE3endEv",
   "parameters" :
   [
    {
     "is_this_ptr" : true,
     "referenced_type" : "_ZTIPKNSt3__16vectorINS_3setIjNS_4lessIjEENS_9allocatorIjEEEENS4_IS6_EEEE"
    }
   ],
   "return_type" : "_ZTINSt3__111__wrap_iterIPKNS_3setIjNS_4lessIjEENS_9allocatorIjEEEEEE",
   "source_file" : "external/libcxx/include/vector"
  },
  {
   "function_name" : "std::__1::vector<std::__1::set<unsigned int, std::__1::less<unsigned int>, std::__1::allocator<unsigned int>>, std::__1::allocator<std::__1::set<unsigned int, std::__1::less<unsigned int>, std::__1::allocator<unsigned int>>>>::data",
   "linker_set_key" : "_ZNKSt3__16vectorINS_3setIjNS_4lessIjEENS_9allocatorIjEEEENS4_IS6_EEE4dataEv",
   "parameters" :
   [
    {
     "is_this_ptr" : true,
     "referenced_type" : "_ZTIPKNSt3__16vectorINS_3setIjNS_4lessIjEENS_9allocatorIjEEEENS4_IS6_EEEE"
    }
   ],
   "return_type" : "_ZTIPKNSt3__13setIjNS_4lessIjEENS_9allocatorIjEEEE",
   "source_file" : "external/libcxx/include/vector"
  },
  {
   "function_name" : "std::__1::vector<std::__1::set<unsigned int, std::__1::less<unsigned int>, std::__1::allocator<unsigned int>>, std::__1::allocator<std::__1::set<unsigned int, std::__1::less<unsigned int>, std::__1::allocator<unsigned int>>>>::size",
   "linker_set_key" : "_ZNKSt3__16vectorINS_3setIjNS_4lessIjEENS_9allocatorIjEEEENS4_IS6_EEE4sizeEv",
   "parameters" :
   [
    {
     "is_this_ptr" : true,
     "referenced_type" : "_ZTIPKNSt3__16vectorINS_3setIjNS_4lessIjEENS_9allocatorIjEEEENS4_IS6_EEEE"
    }
   ],
   "return_type" : "_ZTIm",
   "source_file" : "external/libcxx/include/vector"
  },
  {
   "function_name" : "std::__1::vector<std::__1::set<unsigned int, std::__1::less<unsigned int>, std::__1::allocator<unsigned int>>, std::__1::allocator<std::__1::set<unsigned int, std::__1::less<unsigned int>, std::__1::allocator<unsigned int>>>>::begin",
   "linker_set_key" : "_ZNKSt3__16vectorINS_3setIjNS_4lessIjEENS_9allocatorIjEEEENS4_IS6_EEE5beginEv",
   "parameters" :
   [
    {
     "is_this_ptr" : true,
     "referenced_type" : "_ZTIPKNSt3__16vectorINS_3setIjNS_4lessIjEENS_9allocatorIjEEEENS4_IS6_EEEE"
    }
   ],
   "return_type" : "_ZTINSt3__111__wrap_iterIPKNS_3setIjNS_4lessIjEENS_9allocatorIjEEEEEE",
   "source_file" : "external/libcxx/include/vector"
  },
  {
   "function_name" : "std::__1::vector<std::__1::set<unsigned int, std::__1::less<unsigned int>, std::__1::allocator<unsigned int>>, std::__1::allocator<std::__1::set<unsigned int, std::__1::less<unsigned int>, std::__1::allocator<unsigned int>>>>::capacity",
   "linker_set_key" : "_ZNKSt3__16vectorINS_3setIjNS_4lessIjEENS_9allocatorIjEEEENS4_IS6_EEE8capacityEv",
   "parameters" :
   [
    {
     "is_this_ptr" : true,
     "referenced_type" : "_ZTIPKNSt3__16vectorINS_3setIjNS_4lessIjEENS_9allocatorIjEEEENS4_IS6_EEEE"
    }
   ],
   "return_type" : "_ZTIm",
   "source_file" : "external/libcxx/include/vector"
  },
  {
   "function_name" : "std::__1::vector<std::__1::set<unsigned int, std::__1::less<unsigned int>, std::__1::allocator<unsigned int>>, std::__1::allocator<std::__1::set<unsigned int, std::__1::less<unsigned int>, std::__1::allocator<unsigned int>>>>::max_size",
   "linker_set_key" : "_ZNKSt3__16vectorINS_3setIjNS_4lessIjEENS_9allocatorIjEEEENS4_IS6_EEE8max_sizeEv",
   "parameters" :
   [
    {
     "is_this_ptr" : true,
     "referenced_type" : "_ZTIPKNSt3__16vectorINS_3setIjNS_4lessIjEENS_9allocatorIjEEEENS4_IS6_EEEE"
    }
   ],
   "return_type" : "_ZTIm",
   "source_file" : "external/libcxx/include/vector"
  },
  {
   "function_name" : "std::__1::allocator<std::__1::__tree_node<std::__1::set<unsigned int, std::__1::less<unsigned int>, std::__1::allocator<unsigned int>>, void *>>::max_size",
   "linker_set_key" : "_ZNKSt3__19allocatorINS_11__tree_nodeINS_3setIjNS_4lessIjEENS0_IjEEEEPvEEE8max_sizeEv",
   "parameters" :
   [
    {
     "is_this_ptr" : true,
     "referenced_type" : "_ZTIPKNSt3__19allocatorINS_11__tree_nodeINS_3setIjNS_4lessIjEENS0_IjEEEEPvEEEE"
    }
   ],
   "return_type" : "_ZTIm",
   "source_file" : "external/libcxx/include/memory"
  },
  {
   "function_name" : "std::__1::allocator<std::__1::__tree_node<unsigned int, void *>>::max_size",
   "linker_set_key" : "_ZNKSt3__19allocatorINS_11__tree_nodeIjPvEEE8max_sizeEv",
   "parameters" :
   [
    {
     "is_this_ptr" : true,
     "referenced_type" : "_ZTIPKNSt3__19allocatorINS_11__tree_nodeIjPvEEEE"
    }
   ],
   "return_type" : "_ZTIm",
   "source_file" : "external/libcxx/include/memory"
  },
  {
   "function_name" : "std::__1::allocator<std::__1::set<unsigned int, std::__1::less<unsigned int>, std::__1::allocator<unsigned int>>>::max_size",
   "linker_set_key" : "_ZNKSt3__19allocatorINS_3setIjNS_4lessIjEENS0_IjEEEEE8max_sizeEv",
   "parameters" :
   [
    {
     "is_this_ptr" : true,
     "referenced_type" : "_ZTIPKNSt3__19allocatorINS_3setIjNS_4lessIjEENS0_IjEEEEEE"
    }
   ],
   "return_type" : "_ZTIm",
   "source_file" : "external/libcxx/include/memory"
  },
  {
   "function_name" : "std::type_info::name",
   "linker_set_key" : "_ZNKSt9type_info4nameEv",
   "parameters" :
   [
    {
     "is_this_ptr" : true,
     "referenced_type" : "_ZTIPKSt9type_info"
    }
   ],
   "return_type" : "_ZTIPKc",
   "source_file" : "external/libcxx/include/typeinfo"
  },
  {
   "function_name" : "std::type_info::before",
   "linker_set_key" : "_ZNKSt9type_info6beforeERKS_",
   "parameters" :
   [
    {
     "is_this_ptr" : true,
     "referenced_type" : "_ZTIPKSt9type_info"
    },
    {
     "referenced_type" : "_ZTIRKSt9type_info"
    }
   ],
   "return_type" : "_ZTIb",
   "source_file" : "external/libcxx/include/typeinfo"
  },
  {
   "function_name" : "std::type_info::hash_code",
   "linker_set_key" : "_ZNKSt9type_info9hash_codeEv",
   "parameters" :
   [
    {
     "is_this_ptr" : true,
     "referenced_type" : "_ZTIPKSt9type_info"
    }
   ],
   "return_type" : "_ZTIm",
   "source_file" : "external/libcxx/include/typeinfo"
  },
  {
   "function_name" : "std::type_info::operator==",
   "linker_set_key" : "_ZNKSt9type_infoeqERKS_",
   "parameters" :
   [
    {
     "is_this_ptr" : true,
     "referenced_type" : "_ZTIPKSt9type_info"
    },
    {
     "referenced_type" : "_ZTIRKSt9type_info"
    }
   ],
   "return_type" : "_ZTIb",
   "source_file" : "external/libcxx/include/typeinfo"
  },
  {
   "function_name" : "std::type_info::operator!=",
   "linker_set_key" : "_ZNKSt9type_infoneERKS_",
   "parameters" :
   [
    {
     "is_this_ptr" : true,
     "referenced_type" : "_ZTIPKSt9type_info"
    },
    {
     "referenced_type" : "_ZTIRKSt9type_info"
    }
   ],
   "return_type" : "_ZTIb",
   "source_file" : "external/libcxx/include/typeinfo"
  },
  {
   "function_name" : "std::range_error::range_error",
   "linker_set_key" : "_ZNSt11range_errorC1EPKc",
   "parameters" :
   [
    {
     "is_this_ptr" : true,
     "referenced_type" : "_ZTIPSt11range_error"
    },
    {
     "referenced_type" : "_ZTIPKc"
    }
   ],
   "return_type" : "_ZTIv",
   "source_file" : "external/libcxx/include/stdexcept"
  },
  {
   "function_name" : "std::range_error::range_error",
   "linker_set_key" : "_ZNSt11range_errorC1ERKNSt3__112basic_stringIcNS0_11char_traitsIcEENS0_9allocatorIcEEEE",
   "parameters" :
   [
    {
     "is_this_ptr" : true,
     "referenced_type" : "_ZTIPSt11range_error"
    },
    {
     "referenced_type" : "_ZTIRKNSt3__112basic_stringIcNS_11char_traitsIcEENS_9allocatorIcEEEE"
    }
   ],
   "return_type" : "_ZTIv",
   "source_file" : "external/libcxx/include/stdexcept"
  },
  {
   "function_name" : "std::range_error::range_error",
   "linker_set_key" : "_ZNSt11range_errorC2EPKc",
   "parameters" :
   [
    {
     "is_this_ptr" : true,
     "referenced_type" : "_ZTIPSt11range_error"
    },
    {
     "referenced_type" : "_ZTIPKc"
    }
   ],
   "return_type" : "_ZTIv",
   "source_file" : "external/libcxx/include/stdexcept"
  },
  {
   "function_name" : "std::range_error::range_error",
   "linker_set_key" : "_ZNSt11range_errorC2ERKNSt3__112basic_stringIcNS0_11char_traitsIcEENS0_9allocatorIcEEEE",
   "parameters" :
   [
    {
     "is_this_ptr" : true,
     "referenced_type" : "_ZTIPSt11range_error"
    },
    {
     "referenced_type" : "_ZTIRKNSt3__112basic_stringIcNS_11char_traitsIcEENS_9allocatorIcEEEE"
    }
   ],
   "return_type" : "_ZTIv",
   "source_file" : "external/libcxx/include/stdexcept"
  },
  {
   "function_name" : "std::domain_error::domain_error",
   "linker_set_key" : "_ZNSt12domain_errorC1EPKc",
   "parameters" :
   [
    {
     "is_this_ptr" : true,
     "referenced_type" : "_ZTIPSt12domain_error"
    },
    {
     "referenced_type" : "_ZTIPKc"
    }
   ],
   "return_type" : "_ZTIv",
   "source_file" : "external/libcxx/include/stdexcept"
  },
  {
   "function_name" : "std::domain_error::domain_error",
   "linker_set_key" : "_ZNSt12domain_errorC1ERKNSt3__112basic_stringIcNS0_11char_traitsIcEENS0_9allocatorIcEEEE",
   "parameters" :
   [
    {
     "is_this_ptr" : true,
     "referenced_type" : "_ZTIPSt12domain_error"
    },
    {
     "referenced_type" : "_ZTIRKNSt3__112basic_stringIcNS_11char_traitsIcEENS_9allocatorIcEEEE"
    }
   ],
   "return_type" : "_ZTIv",
   "source_file" : "external/libcxx/include/stdexcept"
  },
  {
   "function_name" : "std::domain_error::domain_error",
   "linker_set_key" : "_ZNSt12domain_errorC2EPKc",
   "parameters" :
   [
    {
     "is_this_ptr" : true,
     "referenced_type" : "_ZTIPSt12domain_error"
    },
    {
     "referenced_type" : "_ZTIPKc"
    }
   ],
   "return_type" : "_ZTIv",
   "source_file" : "external/libcxx/include/stdexcept"
  },
  {
   "function_name" : "std::domain_error::domain_error",
   "linker_set_key" : "_ZNSt12domain_errorC2ERKNSt3__112basic_stringIcNS0_11char_traitsIcEENS0_9allocatorIcEEEE",
   "parameters" :
   [
    {
     "is_this_ptr" : true,
     "referenced_type" : "_ZTIPSt12domain_error"
    },
    {
     "referenced_type" : "_ZTIRKNSt3__112basic_stringIcNS_11char_traitsIcEENS_9allocatorIcEEEE"
    }
   ],
   "return_type" : "_ZTIv",
   "source_file" : "external/libcxx/include/stdexcept"
  },
  {
   "function_name" : "std::length_error::length_error",
   "linker_set_key" : "_ZNSt12length_errorC1EPKc",
   "parameters" :
   [
    {
     "is_this_ptr" : true,
     "referenced_type" : "_ZTIPSt12length_error"
    },
    {
     "referenced_type" : "_ZTIPKc"
    }
   ],
   "return_type" : "_ZTIv",
   "source_file" : "external/libcxx/include/stdexcept"
  },
  {
   "function_name" : "std::length_error::length_error",
   "linker_set_key" : "_ZNSt12length_errorC1ERKNSt3__112basic_stringIcNS0_11char_traitsIcEENS0_9allocatorIcEEEE",
   "parameters" :
   [
    {
     "is_this_ptr" : true,
     "referenced_type" : "_ZTIPSt12length_error"
    },
    {
     "referenced_type" : "_ZTIRKNSt3__112basic_stringIcNS_11char_traitsIcEENS_9allocatorIcEEEE"
    }
   ],
   "return_type" : "_ZTIv",
   "source_file" : "external/libcxx/include/stdexcept"
  },
  {
   "function_name" : "std::length_error::length_error",
   "linker_set_key" : "_ZNSt12length_errorC2EPKc",
   "parameters" :
   [
    {
     "is_this_ptr" : true,
     "referenced_type" : "_ZTIPSt12length_error"
    },
    {
     "referenced_type" : "_ZTIPKc"
    }
   ],
   "return_type" : "_ZTIv",
   "source_file" : "external/libcxx/include/stdexcept"
  },
  {
   "function_name" : "std::length_error::length_error",
   "linker_set_key" : "_ZNSt12length_errorC2ERKNSt3__112basic_stringIcNS0_11char_traitsIcEENS0_9allocatorIcEEEE",
   "parameters" :
   [
    {
     "is_this_ptr" : true,
     "referenced_type" : "_ZTIPSt12length_error"
    },
    {
     "referenced_type" : "_ZTIRKNSt3__112basic_stringIcNS_11char_traitsIcEENS_9allocatorIcEEEE"
    }
   ],
   "return_type" : "_ZTIv",
   "source_file" : "external/libcxx/include/stdexcept"
  },
  {
   "function_name" : "std::out_of_range::out_of_range",
   "linker_set_key" : "_ZNSt12out_of_rangeC1EPKc",
   "parameters" :
   [
    {
     "is_this_ptr" : true,
     "referenced_type" : "_ZTIPSt12out_of_range"
    },
    {
     "referenced_type" : "_ZTIPKc"
    }
   ],
   "return_type" : "_ZTIv",
   "source_file" : "external/libcxx/include/stdexcept"
  },
  {
   "function_name" : "std::out_of_range::out_of_range",
   "linker_set_key" : "_ZNSt12out_of_rangeC1ERKNSt3__112basic_stringIcNS0_11char_traitsIcEENS0_9allocatorIcEEEE",
   "parameters" :
   [
    {
     "is_this_ptr" : true,
     "referenced_type" : "_ZTIPSt12out_of_range"
    },
    {
     "referenced_type" : "_ZTIRKNSt3__112basic_stringIcNS_11char_traitsIcEENS_9allocatorIcEEEE"
    }
   ],
   "return_type" : "_ZTIv",
   "source_file" : "external/libcxx/include/stdexcept"
  },
  {
   "function_name" : "std::out_of_range::out_of_range",
   "linker_set_key" : "_ZNSt12out_of_rangeC2EPKc",
   "parameters" :
   [
    {
     "is_this_ptr" : true,
     "referenced_type" : "_ZTIPSt12out_of_range"
    },
    {
     "referenced_type" : "_ZTIPKc"
    }
   ],
   "return_type" : "_ZTIv",
   "source_file" : "external/libcxx/include/stdexcept"
  },
  {
   "function_name" : "std::out_of_range::out_of_range",
   "linker_set_key" : "_ZNSt12out_of_rangeC2ERKNSt3__112basic_stringIcNS0_11char_traitsIcEENS0_9allocatorIcEEEE",
   "parameters" :
   [
    {
     "is_this_ptr" : true,
     "referenced_type" : "_ZTIPSt12out_of_range"
    },
    {
     "referenced_type" : "_ZTIRKNSt3__112basic_stringIcNS_11char_traitsIcEENS_9allocatorIcEEEE"
    }
   ],
   "return_type" : "_ZTIv",
   "source_file" : "external/libcxx/include/stdexcept"
  },
  {
   "function_name" : "std::bad_exception::bad_exception",
   "linker_set_key" : "_ZNSt13bad_exceptionC1Ev",
   "parameters" :
   [
    {
     "is_this_ptr" : true,
     "referenced_type" : "_ZTIPSt13bad_exception"
    }
   ],
   "return_type" : "_ZTIv",
   "source_file" : "external/libcxx/include/exception"
  },
  {
   "function_name" : "std::bad_exception::bad_exception",
   "linker_set_key" : "_ZNSt13bad_exceptionC2Ev",
   "parameters" :
   [
    {
     "is_this_ptr" : true,
     "referenced_type" : "_ZTIPSt13bad_exception"
    }
   ],
   "return_type" : "_ZTIv",
   "source_file" : "external/libcxx/include/exception"
  },
  {
   "function_name" : "std::exception_ptr::exception_ptr",
   "linker_set_key" : "_ZNSt13exception_ptrC1EDn",
   "parameters" :
   [
    {
     "is_this_ptr" : true,
     "referenced_type" : "_ZTIPSt13exception_ptr"
    },
    {
     "referenced_type" : "_ZTIDn"
    }
   ],
   "return_type" : "_ZTIv",
   "source_file" : "external/libcxx/include/exception"
  },
  {
   "function_name" : "std::exception_ptr::exception_ptr",
   "linker_set_key" : "_ZNSt13exception_ptrC1Ev",
   "parameters" :
   [
    {
     "is_this_ptr" : true,
     "referenced_type" : "_ZTIPSt13exception_ptr"
    }
   ],
   "return_type" : "_ZTIv",
   "source_file" : "external/libcxx/include/exception"
  },
  {
   "function_name" : "std::exception_ptr::exception_ptr",
   "linker_set_key" : "_ZNSt13exception_ptrC2EDn",
   "parameters" :
   [
    {
     "is_this_ptr" : true,
     "referenced_type" : "_ZTIPSt13exception_ptr"
    },
    {
     "referenced_type" : "_ZTIDn"
    }
   ],
   "return_type" : "_ZTIv",
   "source_file" : "external/libcxx/include/exception"
  },
  {
   "function_name" : "std::exception_ptr::exception_ptr",
   "linker_set_key" : "_ZNSt13exception_ptrC2Ev",
   "parameters" :
   [
    {
     "is_this_ptr" : true,
     "referenced_type" : "_ZTIPSt13exception_ptr"
    }
   ],
   "return_type" : "_ZTIv",
   "source_file" : "external/libcxx/include/exception"
  },
  {
   "function_name" : "std::overflow_error::overflow_error",
   "linker_set_key" : "_ZNSt14overflow_errorC1EPKc",
   "parameters" :
   [
    {
     "is_this_ptr" : true,
     "referenced_type" : "_ZTIPSt14overflow_error"
    },
    {
     "referenced_type" : "_ZTIPKc"
    }
   ],
   "return_type" : "_ZTIv",
   "source_file" : "external/libcxx/include/stdexcept"
  },
  {
   "function_name" : "std::overflow_error::overflow_error",
   "linker_set_key" : "_ZNSt14overflow_errorC1ERKNSt3__112basic_stringIcNS0_11char_traitsIcEENS0_9allocatorIcEEEE",
   "parameters" :
   [
    {
     "is_this_ptr" : true,
     "referenced_type" : "_ZTIPSt14overflow_error"
    },
    {
     "referenced_type" : "_ZTIRKNSt3__112basic_stringIcNS_11char_traitsIcEENS_9allocatorIcEEEE"
    }
   ],
   "return_type" : "_ZTIv",
   "source_file" : "external/libcxx/include/stdexcept"
  },
  {
   "function_name" : "std::overflow_error::overflow_error",
   "linker_set_key" : "_ZNSt14overflow_errorC2EPKc",
   "parameters" :
   [
    {
     "is_this_ptr" : true,
     "referenced_type" : "_ZTIPSt14overflow_error"
    },
    {
     "referenced_type" : "_ZTIPKc"
    }
   ],
   "return_type" : "_ZTIv",
   "source_file" : "external/libcxx/include/stdexcept"
  },
  {
   "function_name" : "std::overflow_error::overflow_error",
   "linker_set_key" : "_ZNSt14overflow_errorC2ERKNSt3__112basic_stringIcNS0_11char_traitsIcEENS0_9allocatorIcEEEE",
   "parameters" :
   [
    {
     "is_this_ptr" : true,
     "referenced_type" : "_ZTIPSt14overflow_error"
    },
    {
     "referenced_type" : "_ZTIRKNSt3__112basic_stringIcNS_11char_traitsIcEENS_9allocatorIcEEEE"
    }
   ],
   "return_type" : "_ZTIv",
   "source_file" : "external/libcxx/include/stdexcept"
  },
  {
   "function_name" : "std::underflow_error::underflow_error",
   "linker_set_key" : "_ZNSt15underflow_errorC1EPKc",
   "parameters" :
   [
    {
     "is_this_ptr" : true,
     "referenced_type" : "_ZTIPSt15underflow_error"
    },
    {
     "referenced_type" : "_ZTIPKc"
    }
   ],
   "return_type" : "_ZTIv",
   "source_file" : "external/libcxx/include/stdexcept"
  },
  {
   "function_name" : "std::underflow_error::underflow_error",
   "linker_set_key" : "_ZNSt15underflow_errorC1ERKNSt3__112basic_stringIcNS0_11char_traitsIcEENS0_9allocatorIcEEEE",
   "parameters" :
   [
    {
     "is_this_ptr" : true,
     "referenced_type" : "_ZTIPSt15underflow_error"
    },
    {
     "referenced_type" : "_ZTIRKNSt3__112basic_stringIcNS_11char_traitsIcEENS_9allocatorIcEEEE"
    }
   ],
   "return_type" : "_ZTIv",
   "source_file" : "external/libcxx/include/stdexcept"
  },
  {
   "function_name" : "std::underflow_error::underflow_error",
   "linker_set_key" : "_ZNSt15underflow_errorC2EPKc",
   "parameters" :
   [
    {
     "is_this_ptr" : true,
     "referenced_type" : "_ZTIPSt15underflow_error"
    },
    {
     "referenced_type" : "_ZTIPKc"
    }
   ],
   "return_type" : "_ZTIv",
   "source_file" : "external/libcxx/include/stdexcept"
  },
  {
   "function_name" : "std::underflow_error::underflow_error",
   "linker_set_key" : "_ZNSt15underflow_errorC2ERKNSt3__112basic_stringIcNS0_11char_traitsIcEENS0_9allocatorIcEEEE",
   "parameters" :
   [
    {
     "is_this_ptr" : true,
     "referenced_type" : "_ZTIPSt15underflow_error"
    },
    {
     "referenced_type" : "_ZTIRKNSt3__112basic_stringIcNS_11char_traitsIcEENS_9allocatorIcEEEE"
    }
   ],
   "return_type" : "_ZTIv",
   "source_file" : "external/libcxx/include/stdexcept"
  },
  {
   "function_name" : "std::invalid_argument::invalid_argument",
   "linker_set_key" : "_ZNSt16invalid_argumentC1EPKc",
   "parameters" :
   [
    {
     "is_this_ptr" : true,
     "referenced_type" : "_ZTIPSt16invalid_argument"
    },
    {
     "referenced_type" : "_ZTIPKc"
    }
   ],
   "return_type" : "_ZTIv",
   "source_file" : "external/libcxx/include/stdexcept"
  },
  {
   "function_name" : "std::invalid_argument::invalid_argument",
   "linker_set_key" : "_ZNSt16invalid_argumentC1ERKNSt3__112basic_stringIcNS0_11char_traitsIcEENS0_9allocatorIcEEEE",
   "parameters" :
   [
    {
     "is_this_ptr" : true,
     "referenced_type" : "_ZTIPSt16invalid_argument"
    },
    {
     "referenced_type" : "_ZTIRKNSt3__112basic_stringIcNS_11char_traitsIcEENS_9allocatorIcEEEE"
    }
   ],
   "return_type" : "_ZTIv",
   "source_file" : "external/libcxx/include/stdexcept"
  },
  {
   "function_name" : "std::invalid_argument::invalid_argument",
   "linker_set_key" : "_ZNSt16invalid_argumentC2EPKc",
   "parameters" :
   [
    {
     "is_this_ptr" : true,
     "referenced_type" : "_ZTIPSt16invalid_argument"
    },
    {
     "referenced_type" : "_ZTIPKc"
    }
   ],
   "return_type" : "_ZTIv",
   "source_file" : "external/libcxx/include/stdexcept"
  },
  {
   "function_name" : "std::invalid_argument::invalid_argument",
   "linker_set_key" : "_ZNSt16invalid_argumentC2ERKNSt3__112basic_stringIcNS0_11char_traitsIcEENS0_9allocatorIcEEEE",
   "parameters" :
   [
    {
     "is_this_ptr" : true,
     "referenced_type" : "_ZTIPSt16invalid_argument"
    },
    {
     "referenced_type" : "_ZTIRKNSt3__112basic_stringIcNS_11char_traitsIcEENS_9allocatorIcEEEE"
    }
   ],
   "return_type" : "_ZTIv",
   "source_file" : "external/libcxx/include/stdexcept"
  },
  {
   "function_name" : "std::__1::__distance",
   "linker_set_key" : "_ZNSt3__110__distanceINS_11__wrap_iterIPKNS_3setIjNS_4lessIjEENS_9allocatorIjEEEEEEEENS_15iterator_traitsIT_E15difference_typeESC_SC_NS_26random_access_iterator_tagE",
   "parameters" :
   [
    {
     "referenced_type" : "_ZTINSt3__111__wrap_iterIPKNS_3setIjNS_4lessIjEENS_9allocatorIjEEEEEE"
    },
    {
     "referenced_type" : "_ZTINSt3__111__wrap_iterIPKNS_3setIjNS_4lessIjEENS_9allocatorIjEEEEEE"
    },
    {
     "referenced_type" : "_ZTINSt3__126random_access_iterator_tagE"
    }
   ],
   "return_type" : "_ZTIl",
   "source_file" : "external/libcxx/include/iterator",
   "template_args" :
   [
    "_ZTINSt3__111__wrap_iterIPKNS_3setIjNS_4lessIjEENS_9allocatorIjEEEEEE"
   ]
  },
  {
   "function_name" : "std::__1::__function::__policy::__create_empty",
   "linker_set_key" : "_ZNSt3__110__function8__policy14__create_emptyEv",
   "return_type" : "_ZTIPKNSt3__110__function8__policyE",
   "source_file" : "external/libcxx/include/functional"
  },
  {
   "function_name" : "std::__1::__loadword",
   "linker_set_key" : "_ZNSt3__110__loadwordIjEET_PKv",
   "parameters" :
   [
    {
     "referenced_type" : "_ZTIPKv"
    }
   ],
   "return_type" : "_ZTIj",
   "source_file" : "external/libcxx/include/utility",
   "template_args" : [ "_ZTIj" ]
  },
  {
   "function_name" : "std::__1::__loadword",
   "linker_set_key" : "_ZNSt3__110__loadwordImEET_PKv",
   "parameters" :
   [
    {
     "referenced_type" : "_ZTIPKv"
    }
   ],
   "return_type" : "_ZTIm",
   "source_file" : "external/libcxx/include/utility",
   "template_args" : [ "_ZTIm" ]
  },
  {
   "function_name" : "std::__1::__popcount",
   "linker_set_key" : "_ZNSt3__110__popcountEj",
   "parameters" :
   [
    {
     "referenced_type" : "_ZTIj"
    }
   ],
   "return_type" : "_ZTIi",
   "source_file" : "external/libcxx/include/bit"
  },
  {
   "function_name" : "std::__1::__popcount",
   "linker_set_key" : "_ZNSt3__110__popcountEm",
   "parameters" :
   [
    {
     "referenced_type" : "_ZTIm"
    }
   ],
   "return_type" : "_ZTIi",
   "source_file" : "external/libcxx/include/bit"
  },
  {
   "function_name" : "std::__1::__popcount",
   "linker_set_key" : "_ZNSt3__110__popcountEy",
   "parameters" :
   [
    {
     "referenced_type" : "_ZTIy"
    }
   ],
   "return_type" : "_ZTIi",
   "source_file" : "external/libcxx/include/bit"
  },
  {
   "function_name" : "std::__1::__tree_max",
   "linker_set_key" : "_ZNSt3__110__tree_maxIPNS_16__tree_node_baseIPvEEEET_S5_",
   "parameters" :
   [
    {
     "referenced_type" : "_ZTIPNSt3__116__tree_node_baseIPvEE"
    }
   ],
   "return_type" : "_ZTIPNSt3__116__tree_node_baseIPvEE",
   "source_file" : "external/libcxx/include/__tree",
   "template_args" : [ "_ZTIPNSt3__116__tree_node_baseIPvEE" ]
  },
  {
   "function_name" : "std::__1::__tree_min",
   "linker_set_key" : "_ZNSt3__110__tree_minIPNS_16__tree_node_baseIPvEEEET_S5_",
   "parameters" :
   [
    {
     "referenced_type" : "_ZTIPNSt3__116__tree_node_baseIPvEE"
    }
   ],
   "return_type" : "_ZTIPNSt3__116__tree_node_baseIPvEE",
   "source_file" : "external/libcxx/include/__tree",
   "template_args" : [ "_ZTIPNSt3__116__tree_node_baseIPvEE" ]
  },
  {
   "function_name" : "std::__1::unique_ptr<std::__1::__tree_node<std::__1::set<unsigned int, std::__1::less<unsigned int>, std::__1::allocator<unsigned int>>, void *>, std::__1::__tree_node_destructor<std::__1::allocator<std::__1::__tree_node<std::__1::set<unsigned int, std::__1::less<unsigned int>, std::__1::allocator<unsigned int>>, void *>>>>::get_deleter",
   "linker_set_key" : "_ZNSt3__110unique_ptrINS_11__tree_nodeINS_3setIjNS_4lessIjEENS_9allocatorIjEEEEPvEENS_22__tree_node_destructorINS5_IS9_EEEEE11get_deleterEv",
   "parameters" :
   [
    {
     "is_this_ptr" : true,
     "referenced_type" : "_ZTIPNSt3__110unique_ptrINS_11__tree_nodeINS_3setIjNS_4lessIjEENS_9allocatorIjEEEEPvEENS_22__tree_node_destructorINS5_IS9_EEEEEE"
    }
   ],
   "return_type" : "_ZTIRNSt3__122__tree_node_destructorINS_9allocatorINS_11__tree_nodeINS_3setIjNS_4lessIjEENS1_IjEEEEPvEEEEEE",
   "source_file" : "external/libcxx/include/memory"
  },
  {
   "function_name" : "std::__1::unique_ptr<std::__1::__tree_node<std::__1::set<unsigned int, std::__1::less<unsigned int>, std::__1::allocator<unsigned int>>, void *>, std::__1::__tree_node_destructor<std::__1::allocator<std::__1::__tree_node<std::__1::set<unsigned int, std::__1::less<unsigned int>, std::__1::allocator<unsigned int>>, void *>>>>::reset",
   "linker_set_key" : "_ZNSt3__110unique_ptrINS_11__tree_nodeINS_3setIjNS_4lessIjEENS_9allocatorIjEEEEPvEENS_22__tree_node_destructorINS5_IS9_EEEEE5resetEPS9_",
   "parameters" :
   [
    {
     "is_this_ptr" : true,
     "referenced_type" : "_ZTIPNSt3__110unique_ptrINS_11__tree_nodeINS_3setIjNS_4lessIjEENS_9allocatorIjEEEEPvEENS_22__tree_node_destructorINS5_IS9_EEEEEE"
    },
    {
     "default_arg" : true,
     "referenced_type" : "_ZTIPNSt3__111__tree_nodeINS_3setIjNS_4lessIjEENS_9allocatorIjEEEEPvEE"
    }
   ],
   "return_type" : "_ZTIv",
   "source_file" : "external/libcxx/include/memory"
  },
  {
   "function_name" : "std::__1::unique_ptr<std::__1::__tree_node<std::__1::set<unsigned int, std::__1::less<unsigned int>, std::__1::allocator<unsigned int>>, void *>, std::__1::__tree_node_destructor<std::__1::allocator<std::__1::__tree_node<std::__1::set<unsigned int, std::__1::less<unsigned int>, std::__1::allocator<unsigned int>>, void *>>>>::release",
   "linker_set_key" : "_ZNSt3__110unique_ptrINS_11__tree_nodeINS_3setIjNS_4lessIjEENS_9allocatorIjEEEEPvEENS_22__tree_node_destructorINS5_IS9_EEEEE7releaseEv",
   "parameters" :
   [
    {
     "is_this_ptr" : true,
     "referenced_type" : "_ZTIPNSt3__110unique_ptrINS_11__tree_nodeINS_3setIjNS_4lessIjEENS_9allocatorIjEEEEPvEENS_22__tree_node_destructorINS5_IS9_EEEEEE"
    }
   ],
   "return_type" : "_ZTIPNSt3__111__tree_nodeINS_3setIjNS_4lessIjEENS_9allocatorIjEEEEPvEE",
   "source_file" : "external/libcxx/include/memory"
  },
  {
   "function_name" : "std::__1::unique_ptr<std::__1::__tree_node<std::__1::set<unsigned int, std::__1::less<unsigned int>, std::__1::allocator<unsigned int>>, void *>, std::__1::__tree_node_destructor<std::__1::allocator<std::__1::__tree_node<std::__1::set<unsigned int, std::__1::less<unsigned int>, std::__1::allocator<unsigned int>>, void *>>>>::unique_ptr",
   "linker_set_key" : "_ZNSt3__110unique_ptrINS_11__tree_nodeINS_3setIjNS_4lessIjEENS_9allocatorIjEEEEPvEENS_22__tree_node_destructorINS5_IS9_EEEEEC1EOSD_",
   "parameters" :
   [
    {
     "is_this_ptr" : true,
     "referenced_type" : "_ZTIPNSt3__110unique_ptrINS_11__tree_nodeINS_3setIjNS_4lessIjEENS_9allocatorIjEEEEPvEENS_22__tree_node_destructorINS5_IS9_EEEEEE"
    },
    {
     "referenced_type" : "_ZTIONSt3__110unique_ptrINS_11__tree_nodeINS_3setIjNS_4lessIjEENS_9allocatorIjEEEEPvEENS_22__tree_node_destructorINS5_IS9_EEEEEE"
    }
   ],
   "return_type" : "_ZTIv",
   "source_file" : "external/libcxx/include/memory"
  },
  {
   "function_name" : "std::__1::unique_ptr<std::__1::__tree_node<std::__1::set<unsigned int, std::__1::less<unsigned int>, std::__1::allocator<unsigned int>>, void *>, std::__1::__tree_node_destructor<std::__1::allocator<std::__1::__tree_node<std::__1::set<unsigned int, std::__1::less<unsigned int>, std::__1::allocator<unsigned int>>, void *>>>>::unique_ptr",
   "linker_set_key" : "_ZNSt3__110unique_ptrINS_11__tree_nodeINS_3setIjNS_4lessIjEENS_9allocatorIjEEEEPvEENS_22__tree_node_destructorINS5_IS9_EEEEEC1ILb1EvEEPS9_NS_16__dependent_typeINS_27__unique_ptr_deleter_sfinaeISC_EEXT_EE20__good_rval_ref_typeE",
   "parameters" :
   [
    {
     "is_this_ptr" : true,
     "referenced_type" : "_ZTIPNSt3__110unique_ptrINS_11__tree_nodeINS_3setIjNS_4lessIjEENS_9allocatorIjEEEEPvEENS_22__tree_node_destructorINS5_IS9_EEEEEE"
    },
    {
     "referenced_type" : "_ZTIPNSt3__111__tree_nodeINS_3setIjNS_4lessIjEENS_9allocatorIjEEEEPvEE"
    },
    {
     "referenced_type" : "_ZTIONSt3__122__tree_node_destructorINS_9allocatorINS_11__tree_nodeINS_3setIjNS_4lessIjEENS1_IjEEEEPvEEEEEE"
    }
   ],
   "return_type" : "_ZTIv",
   "source_file" : "external/libcxx/include/memory",
   "template_args" : [ "_ZTIv" ]
  },
  {
   "function_name" : "std::__1::unique_ptr<std::__1::__tree_node<std::__1::set<unsigned int, std::__1::less<unsigned int>, std::__1::allocator<unsigned int>>, void *>, std::__1::__tree_node_destructor<std::__1::allocator<std::__1::__tree_node<std::__1::set<unsigned int, std::__1::less<unsigned int>, std::__1::allocator<unsigned int>>, void *>>>>::unique_ptr",
   "linker_set_key" : "_ZNSt3__110unique_ptrINS_11__tree_nodeINS_3setIjNS_4lessIjEENS_9allocatorIjEEEEPvEENS_22__tree_node_destructorINS5_IS9_EEEEEC2EOSD_",
   "parameters" :
   [
    {
     "is_this_ptr" : true,
     "referenced_type" : "_ZTIPNSt3__110unique_ptrINS_11__tree_nodeINS_3setIjNS_4lessIjEENS_9allocatorIjEEEEPvEENS_22__tree_node_destructorINS5_IS9_EEEEEE"
    },
    {
     "referenced_type" : "_ZTIONSt3__110unique_ptrINS_11__tree_nodeINS_3setIjNS_4lessIjEENS_9allocatorIjEEEEPvEENS_22__tree_node_destructorINS5_IS9_EEEEEE"
    }
   ],
   "return_type" : "_ZTIv",
   "source_file" : "external/libcxx/include/memory"
  },
  {
   "function_name" : "std::__1::unique_ptr<std::__1::__tree_node<std::__1::set<unsigned int, std::__1::less<unsigned int>, std::__1::allocator<unsigned int>>, void *>, std::__1::__tree_node_destructor<std::__1::allocator<std::__1::__tree_node<std::__1::set<unsigned int, std::__1::less<unsigned int>, std::__1::allocator<unsigned int>>, void *>>>>::unique_ptr",
   "linker_set_key" : "_ZNSt3__110unique_ptrINS_11__tree_nodeINS_3setIjNS_4lessIjEENS_9allocatorIjEEEEPvEENS_22__tree_node_destructorINS5_IS9_EEEEEC2ILb1EvEEPS9_NS_16__dependent_typeINS_27__unique_ptr_deleter_sfinaeISC_EEXT_EE20__good_rval_ref_typeE",
   "parameters" :
   [
    {
     "is_this_ptr" : true,
     "referenced_type" : "_ZTIPNSt3__110unique_ptrINS_11__tree_nodeINS_3setIjNS_4lessIjEENS_9allocatorIjEEEEPvEENS_22__tree_node_destructorINS5_IS9_EEEEEE"
    },
    {
     "referenced_type" : "_ZTIPNSt3__111__tree_nodeINS_3setIjNS_4lessIjEENS_9allocatorIjEEEEPvEE"
    },
    {
     "referenced_type" : "_ZTIONSt3__122__tree_node_destructorINS_9allocatorINS_11__tree_nodeINS_3setIjNS_4lessIjEENS1_IjEEEEPvEEEEEE"
    }
   ],
   "return_type" : "_ZTIv",
   "source_file" : "external/libcxx/include/memory",
   "template_args" : [ "_ZTIv" ]
  },
  {
   "function_name" : "std::__1::unique_ptr<std::__1::__tree_node<std::__1::set<unsigned int, std::__1::less<unsigned int>, std::__1::allocator<unsigned int>>, void *>, std::__1::__tree_node_destructor<std::__1::allocator<std::__1::__tree_node<std::__1::set<unsigned int, std::__1::less<unsigned int>, std::__1::allocator<unsigned int>>, void *>>>>::~unique_ptr",
   "linker_set_key" : "_ZNSt3__110unique_ptrINS_11__tree_nodeINS_3setIjNS_4lessIjEENS_9allocatorIjEEEEPvEENS_22__tree_node_destructorINS5_IS9_EEEEED1Ev",
   "parameters" :
   [
    {
     "is_this_ptr" : true,
     "referenced_type" : "_ZTIPNSt3__110unique_ptrINS_11__tree_nodeINS_3setIjNS_4lessIjEENS_9allocatorIjEEEEPvEENS_22__tree_node_destructorINS5_IS9_EEEEEE"
    }
   ],
   "return_type" : "_ZTIv",
   "source_file" : "external/libcxx/include/memory"
  },
  {
   "function_name" : "std::__1::unique_ptr<std::__1::__tree_node<std::__1::set<unsigned int, std::__1::less<unsigned int>, std::__1::allocator<unsigned int>>, void *>, std::__1::__tree_node_destructor<std::__1::allocator<std::__1::__tree_node<std::__1::set<unsigned int, std::__1::less<unsigned int>, std::__1::allocator<unsigned int>>, void *>>>>::~unique_ptr",
   "linker_set_key" : "_ZNSt3__110unique_ptrINS_11__tree_nodeINS_3setIjNS_4lessIjEENS_9allocatorIjEEEEPvEENS_22__tree_node_destructorINS5_IS9_EEEEED2Ev",
   "parameters" :
   [
    {
     "is_this_ptr" : true,
     "referenced_type" : "_ZTIPNSt3__110unique_ptrINS_11__tree_nodeINS_3setIjNS_4lessIjEENS_9allocatorIjEEEEPvEENS_22__tree_node_destructorINS5_IS9_EEEEEE"
    }
   ],
   "return_type" : "_ZTIv",
   "source_file" : "external/libcxx/include/memory"
  },
  {
   "function_name" : "std::__1::unique_ptr<std::__1::__tree_node<unsigned int, void *>, std::__1::__tree_node_destructor<std::__1::allocator<std::__1::__tree_node<unsigned int, void *>>>>::get_deleter",
   "linker_set_key" : "_ZNSt3__110unique_ptrINS_11__tree_nodeIjPvEENS_22__tree_node_destructorINS_9allocatorIS3_EEEEE11get_deleterEv",
   "parameters" :
   [
    {
     "is_this_ptr" : true,
     "referenced_type" : "_ZTIPNSt3__110unique_ptrINS_11__tree_nodeIjPvEENS_22__tree_node_destructorINS_9allocatorIS3_EEEEEE"
    }
   ],
   "return_type" : "_ZTIRNSt3__122__tree_node_destructorINS_9allocatorINS_11__tree_nodeIjPvEEEEEE",
   "source_file" : "external/libcxx/include/memory"
  },
  {
   "function_name" : "std::__1::unique_ptr<std::__1::__tree_node<unsigned int, void *>, std::__1::__tree_node_destructor<std::__1::allocator<std::__1::__tree_node<unsigned int, void *>>>>::reset",
   "linker_set_key" : "_ZNSt3__110unique_ptrINS_11__tree_nodeIjPvEENS_22__tree_node_destructorINS_9allocatorIS3_EEEEE5resetEPS3_",
   "parameters" :
   [
    {
     "is_this_ptr" : true,
     "referenced_type" : "_ZTIPNSt3__110unique_ptrINS_11__tree_nodeIjPvEENS_22__tree_node_destructorINS_9allocatorIS3_EEEEEE"
    },
    {
     "default_arg" : true,
     "referenced_type" : "_ZTIPNSt3__111__tree_nodeIjPvEE"
    }
   ],
   "return_type" : "_ZTIv",
   "source_file" : "external/libcxx/include/memory"
  },
  {
   "function_name" : "std::__1::unique_ptr<std::__1::__tree_node<unsigned int, void *>, std::__1::__tree_node_destructor<std::__1::allocator<std::__1::__tree_node<unsigned int, void *>>>>::release",
   "linker_set_key" : "_ZNSt3__110unique_ptrINS_11__tree_nodeIjPvEENS_22__tree_node_destructorINS_9allocatorIS3_EEEEE7releaseEv",
   "parameters" :
   [
    {
     "is_this_ptr" : true,
     "referenced_type" : "_ZTIPNSt3__110unique_ptrINS_11__tree_nodeIjPvEENS_22__tree_node_destructorINS_9allocatorIS3_EEEEEE"
    }
   ],
   "return_type" : "_ZTIPNSt3__111__tree_nodeIjPvEE",
   "source_file" : "external/libcxx/include/memory"
  },
  {
   "function_name" : "std::__1::unique_ptr<std::__1::__tree_node<unsigned int, void *>, std::__1::__tree_node_destructor<std::__1::allocator<std::__1::__tree_node<unsigned int, void *>>>>::unique_ptr",
   "linker_set_key" : "_ZNSt3__110unique_ptrINS_11__tree_nodeIjPvEENS_22__tree_node_destructorINS_9allocatorIS3_EEEEEC1EOS8_",
   "parameters" :
   [
    {
     "is_this_ptr" : true,
     "referenced_type" : "_ZTIPNSt3__110unique_ptrINS_11__tree_nodeIjPvEENS_22__tree_node_destructorINS_9allocatorIS3_EEEEEE"
    },
    {
     "referenced_type" : "_ZTIONSt3__110unique_ptrINS_11__tree_nodeIjPvEENS_22__tree_node_destructorINS_9allocatorIS3_EEEEEE"
    }
   ],
   "return_type" : "_ZTIv",
   "source_file" : "external/libcxx/include/memory"
  },
  {
   "function_name" : "std::__1::unique_ptr<std::__1::__tree_node<unsigned int, void *>, std::__1::__tree_node_destructor<std::__1::allocator<std::__1::__tree_node<unsigned int, void *>>>>::unique_ptr",
   "linker_set_key" : "_ZNSt3__110unique_ptrINS_11__tree_nodeIjPvEENS_22__tree_node_destructorINS_9allocatorIS3_EEEEEC1ILb1EvEEPS3_NS_16__dependent_typeINS_27__unique_ptr_deleter_sfinaeIS7_EEXT_EE20__good_rval_ref_typeE",
   "parameters" :
   [
    {
     "is_this_ptr" : true,
     "referenced_type" : "_ZTIPNSt3__110unique_ptrINS_11__tree_nodeIjPvEENS_22__tree_node_destructorINS_9allocatorIS3_EEEEEE"
    },
    {
     "referenced_type" : "_ZTIPNSt3__111__tree_nodeIjPvEE"
    },
    {
     "referenced_type" : "_ZTIONSt3__122__tree_node_destructorINS_9allocatorINS_11__tree_nodeIjPvEEEEEE"
    }
   ],
   "return_type" : "_ZTIv",
   "source_file" : "external/libcxx/include/memory",
   "template_args" : [ "_ZTIv" ]
  },
  {
   "function_name" : "std::__1::unique_ptr<std::__1::__tree_node<unsigned int, void *>, std::__1::__tree_node_destructor<std::__1::allocator<std::__1::__tree_node<unsigned int, void *>>>>::unique_ptr",
   "linker_set_key" : "_ZNSt3__110unique_ptrINS_11__tree_nodeIjPvEENS_22__tree_node_destructorINS_9allocatorIS3_EEEEEC2EOS8_",
   "parameters" :
   [
    {
     "is_this_ptr" : true,
     "referenced_type" : "_ZTIPNSt3__110unique_ptrINS_11__tree_nodeIjPvEENS_22__tree_node_destructorINS_9allocatorIS3_EEEEEE"
    },
    {
     "referenced_type" : "_ZTIONSt3__110unique_ptrINS_11__tree_nodeIjPvEENS_22__tree_node_destructorINS_9allocatorIS3_EEEEEE"
    }
   ],
   "return_type" : "_ZTIv",
   "source_file" : "external/libcxx/include/memory"
  },
  {
   "function_name" : "std::__1::unique_ptr<std::__1::__tree_node<unsigned int, void *>, std::__1::__tree_node_destructor<std::__1::allocator<std::__1::__tree_node<unsigned int, void *>>>>::unique_ptr",
   "linker_set_key" : "_ZNSt3__110unique_ptrINS_11__tree_nodeIjPvEENS_22__tree_node_destructorINS_9allocatorIS3_EEEEEC2ILb1EvEEPS3_NS_16__dependent_typeINS_27__unique_ptr_deleter_sfinaeIS7_EEXT_EE20__good_rval_ref_typeE",
   "parameters" :
   [
    {
     "is_this_ptr" : true,
     "referenced_type" : "_ZTIPNSt3__110unique_ptrINS_11__tree_nodeIjPvEENS_22__tree_node_destructorINS_9allocatorIS3_EEEEEE"
    },
    {
     "referenced_type" : "_ZTIPNSt3__111__tree_nodeIjPvEE"
    },
    {
     "referenced_type" : "_ZTIONSt3__122__tree_node_destructorINS_9allocatorINS_11__tree_nodeIjPvEEEEEE"
    }
   ],
   "return_type" : "_ZTIv",
   "source_file" : "external/libcxx/include/memory",
   "template_args" : [ "_ZTIv" ]
  },
  {
   "function_name" : "std::__1::unique_ptr<std::__1::__tree_node<unsigned int, void *>, std::__1::__tree_node_destructor<std::__1::allocator<std::__1::__tree_node<unsigned int, void *>>>>::~unique_ptr",
   "linker_set_key" : "_ZNSt3__110unique_ptrINS_11__tree_nodeIjPvEENS_22__tree_node_destructorINS_9allocatorIS3_EEEEED1Ev",
   "parameters" :
   [
    {
     "is_this_ptr" : true,
     "referenced_type" : "_ZTIPNSt3__110unique_ptrINS_11__tree_nodeIjPvEENS_22__tree_node_destructorINS_9allocatorIS3_EEEEEE"
    }
   ],
   "return_type" : "_ZTIv",
   "source_file" : "external/libcxx/include/memory"
  },
  {
   "function_name" : "std::__1::unique_ptr<std::__1::__tree_node<unsigned int, void *>, std::__1::__tree_node_destructor<std::__1::allocator<std::__1::__tree_node<unsigned int, void *>>>>::~unique_ptr",
   "linker_set_key" : "_ZNSt3__110unique_ptrINS_11__tree_nodeIjPvEENS_22__tree_node_destructorINS_9allocatorIS3_EEEEED2Ev",
   "parameters" :
   [
    {
     "is_this_ptr" : true,
     "referenced_type" : "_ZTIPNSt3__110unique_ptrINS_11__tree_nodeIjPvEENS_22__tree_node_destructorINS_9allocatorIS3_EEEEEE"
    }
   ],
   "return_type" : "_ZTIv",
   "source_file" : "external/libcxx/include/memory"
  },
  {
   "function_name" : "std::__1::__tree_leaf",
   "linker_set_key" : "_ZNSt3__111__tree_leafIPNS_16__tree_node_baseIPvEEEET_S5_",
   "parameters" :
   [
    {
     "referenced_type" : "_ZTIPNSt3__116__tree_node_baseIPvEE"
    }
   ],
   "return_type" : "_ZTIPNSt3__116__tree_node_baseIPvEE",
   "source_file" : "external/libcxx/include/__tree",
   "template_args" : [ "_ZTIPNSt3__116__tree_node_baseIPvEE" ]
  },
  {
   "access" : "private",
   "function_name" : "std::__1::__wrap_iter<const std::__1::set<unsigned int, std::__1::less<unsigned int>, std::__1::allocator<unsigned int>> *>::__wrap_iter",
   "linker_set_key" : "_ZNSt3__111__wrap_iterIPKNS_3setIjNS_4lessIjEENS_9allocatorIjEEEEEC1ES8_",
   "parameters" :
   [
    {
     "is_this_ptr" : true,
     "referenced_type" : "_ZTIPNSt3__111__wrap_iterIPKNS_3setIjNS_4lessIjEENS_9allocatorIjEEEEEE"
    },
    {
     "referenced_type" : "_ZTIPKNSt3__13setIjNS_4lessIjEENS_9allocatorIjEEEE"
    }
   ],
   "return_type" : "_ZTIv",
   "source_file" : "external/libcxx/include/iterator"
  },
  {
   "function_name" : "std::__1::__wrap_iter<const std::__1::set<unsigned int, std::__1::less<unsigned int>, std::__1::allocator<unsigned int>> *>::__wrap_iter",
   "linker_set_key" : "_ZNSt3__111__wrap_iterIPKNS_3setIjNS_4lessIjEENS_9allocatorIjEEEEEC1IPS6_EERKNS0_IT_EEPNS_9enable_ifIXsr14is_convertibleISC_S8_EE5valueEvE4typeE",
   "parameters" :
   [
    {
     "is_this_ptr" : true,
     "referenced_type" : "_ZTIPNSt3__111__wrap_iterIPKNS_3setIjNS_4lessIjEENS_9allocatorIjEEEEEE"
    },
    {
     "referenced_type" : "_ZTIRKNSt3__111__wrap_iterIPNS_3setIjNS_4lessIjEENS_9allocatorIjEEEEEE"
    },
    {
     "default_arg" : true,
     "referenced_type" : "_ZTIPv"
    }
   ],
   "return_type" : "_ZTIv",
   "source_file" : "external/libcxx/include/iterator",
   "template_args" : [ "_ZTIPNSt3__13setIjNS_4lessIjEENS_9allocatorIjEEEE" ]
  },
  {
   "access" : "private",
   "function_name" : "std::__1::__wrap_iter<const std::__1::set<unsigned int, std::__1::less<unsigned int>, std::__1::allocator<unsigned int>> *>::__wrap_iter",
   "linker_set_key" : "_ZNSt3__111__wrap_iterIPKNS_3setIjNS_4lessIjEENS_9allocatorIjEEEEEC2ES8_",
   "parameters" :
   [
    {
     "is_this_ptr" : true,
     "referenced_type" : "_ZTIPNSt3__111__wrap_iterIPKNS_3setIjNS_4lessIjEENS_9allocatorIjEEEEEE"
    },
    {
     "referenced_type" : "_ZTIPKNSt3__13setIjNS_4lessIjEENS_9allocatorIjEEEE"
    }
   ],
   "return_type" : "_ZTIv",
   "source_file" : "external/libcxx/include/iterator"
  },
  {
   "function_name" : "std::__1::__wrap_iter<const std::__1::set<unsigned int, std::__1::less<unsigned int>, std::__1::allocator<unsigned int>> *>::__wrap_iter",
   "linker_set_key" : "_ZNSt3__111__wrap_iterIPKNS_3setIjNS_4lessIjEENS_9allocatorIjEEEEEC2IPS6_EERKNS0_IT_EEPNS_9enable_ifIXsr14is_convertibleISC_S8_EE5valueEvE4typeE",
   "parameters" :
   [
    {
     "is_this_ptr" : true,
     "referenced_type" : "_ZTIPNSt3__111__wrap_iterIPKNS_3setIjNS_4lessIjEENS_9allocatorIjEEEEEE"
    },
    {
     "referenced_type" : "_ZTIRKNSt3__111__wrap_iterIPNS_3setIjNS_4lessIjEENS_9allocatorIjEEEEEE"
    },
    {
     "default_arg" : true,
     "referenced_type" : "_ZTIPv"
    }
   ],
   "return_type" : "_ZTIv",
   "source_file" : "external/libcxx/include/iterator",
   "template_args" : [ "_ZTIPNSt3__13setIjNS_4lessIjEENS_9allocatorIjEEEE" ]
  },
  {
   "function_name" : "std::__1::__wrap_iter<const std::__1::set<unsigned int, std::__1::less<unsigned int>, std::__1::allocator<unsigned int>> *>::operator+=",
   "linker_set_key" : "_ZNSt3__111__wrap_iterIPKNS_3setIjNS_4lessIjEENS_9allocatorIjEEEEEpLEl",
   "parameters" :
   [
    {
     "is_this_ptr" : true,
     "referenced_type" : "_ZTIPNSt3__111__wrap_iterIPKNS_3setIjNS_4lessIjEENS_9allocatorIjEEEEEE"
    },
    {
     "referenced_type" : "_ZTIl"
    }
   ],
   "return_type" : "_ZTIRNSt3__111__wrap_iterIPKNS_3setIjNS_4lessIjEENS_9allocatorIjEEEEEE",
   "source_file" : "external/libcxx/include/iterator"
  },
  {
   "function_name" : "std::__1::__wrap_iter<const std::__1::set<unsigned int, std::__1::less<unsigned int>, std::__1::allocator<unsigned int>> *>::operator++",
   "linker_set_key" : "_ZNSt3__111__wrap_iterIPKNS_3setIjNS_4lessIjEENS_9allocatorIjEEEEEppEv",
   "parameters" :
   [
    {
     "is_this_ptr" : true,
     "referenced_type" : "_ZTIPNSt3__111__wrap_iterIPKNS_3setIjNS_4lessIjEENS_9allocatorIjEEEEEE"
    }
   ],
   "return_type" : "_ZTIRNSt3__111__wrap_iterIPKNS_3setIjNS_4lessIjEENS_9allocatorIjEEEEEE",
   "source_file" : "external/libcxx/include/iterator"
  },
  {
   "access" : "private",
   "function_name" : "std::__1::__wrap_iter<std::__1::set<unsigned int, std::__1::less<unsigned int>, std::__1::allocator<unsigned int>> *>::__wrap_iter",
   "linker_set_key" : "_ZNSt3__111__wrap_iterIPNS_3setIjNS_4lessIjEENS_9allocatorIjEEEEEC1ES7_",
   "parameters" :
   [
    {
     "is_this_ptr" : true,
     "referenced_type" : "_ZTIPNSt3__111__wrap_iterIPNS_3setIjNS_4lessIjEENS_9allocatorIjEEEEEE"
    },
    {
     "referenced_type" : "_ZTIPNSt3__13setIjNS_4lessIjEENS_9allocatorIjEEEE"
    }
   ],
   "return_type" : "_ZTIv",
   "source_file" : "external/libcxx/include/iterator"
  },
  {
   "access" : "private",
   "function_name" : "std::__1::__wrap_iter<std::__1::set<unsigned int, std::__1::less<unsigned int>, std::__1::allocator<unsigned int>> *>::__wrap_iter",
   "linker_set_key" : "_ZNSt3__111__wrap_iterIPNS_3setIjNS_4lessIjEENS_9allocatorIjEEEEEC2ES7_",
   "parameters" :
   [
    {
     "is_this_ptr" : true,
     "referenced_type" : "_ZTIPNSt3__111__wrap_iterIPNS_3setIjNS_4lessIjEENS_9allocatorIjEEEEEE"
    },
    {
     "referenced_type" : "_ZTIPNSt3__13setIjNS_4lessIjEENS_9allocatorIjEEEE"
    }
   ],
   "return_type" : "_ZTIv",
   "source_file" : "external/libcxx/include/iterator"
  },
  {
   "function_name" : "std::__1::atomic_flag::test_and_set",
   "linker_set_key" : "_ZNSt3__111atomic_flag12test_and_setENS_12memory_orderE",
   "parameters" :
   [
    {
     "is_this_ptr" : true,
     "referenced_type" : "_ZTIPNSt3__111atomic_flagE"
    },
    {
     "default_arg" : true,
     "referenced_type" : "_ZTINSt3__112memory_orderE"
    }
   ],
   "return_type" : "_ZTIb",
   "source_file" : "external/libcxx/include/atomic"
  },
  {
   "function_name" : "std::__1::atomic_flag::clear",
   "linker_set_key" : "_ZNSt3__111atomic_flag5clearENS_12memory_orderE",
   "parameters" :
   [
    {
     "is_this_ptr" : true,
     "referenced_type" : "_ZTIPNSt3__111atomic_flagE"
    },
    {
     "default_arg" : true,
     "referenced_type" : "_ZTINSt3__112memory_orderE"
    }
   ],
   "return_type" : "_ZTIv",
   "source_file" : "external/libcxx/include/atomic"
  },
  {
   "function_name" : "std::__1::atomic_flag::atomic_flag",
   "linker_set_key" : "_ZNSt3__111atomic_flagC1Eb",
   "parameters" :
   [
    {
     "is_this_ptr" : true,
     "referenced_type" : "_ZTIPNSt3__111atomic_flagE"
    },
    {
     "referenced_type" : "_ZTIb"
    }
   ],
   "return_type" : "_ZTIv",
   "source_file" : "external/libcxx/include/atomic"
  },
  {
   "function_name" : "std::__1::atomic_flag::atomic_flag",
   "linker_set_key" : "_ZNSt3__111atomic_flagC1Ev",
   "parameters" :
   [
    {
     "is_this_ptr" : true,
     "referenced_type" : "_ZTIPNSt3__111atomic_flagE"
    }
   ],
   "return_type" : "_ZTIv",
   "source_file" : "external/libcxx/include/atomic"
  },
  {
   "function_name" : "std::__1::atomic_flag::atomic_flag",
   "linker_set_key" : "_ZNSt3__111atomic_flagC2Eb",
   "parameters" :
   [
    {
     "is_this_ptr" : true,
     "referenced_type" : "_ZTIPNSt3__111atomic_flagE"
    },
    {
     "referenced_type" : "_ZTIb"
    }
   ],
   "return_type" : "_ZTIv",
   "source_file" : "external/libcxx/include/atomic"
  },
  {
   "function_name" : "std::__1::atomic_flag::atomic_flag",
   "linker_set_key" : "_ZNSt3__111atomic_flagC2Ev",
   "parameters" :
   [
    {
     "is_this_ptr" : true,
     "referenced_type" : "_ZTIPNSt3__111atomic_flagE"
    }
   ],
   "return_type" : "_ZTIv",
   "source_file" : "external/libcxx/include/atomic"
  },
  {
   "access" : "private",
   "function_name" : "std::__1::__destruct_n::__set",
   "linker_set_key" : "_ZNSt3__112__destruct_n5__setEmNS_17integral_constantIbLb0EEE",
   "parameters" :
   [
    {
     "is_this_ptr" : true,
     "referenced_type" : "_ZTIPNSt3__112__destruct_nE"
    },
    {
     "referenced_type" : "_ZTIm"
    },
    {
     "referenced_type" : "_ZTINSt3__117integral_constantIbLb0EEE"
    }
   ],
   "return_type" : "_ZTIv",
   "source_file" : "external/libcxx/include/memory"
  },
  {
   "access" : "private",
   "function_name" : "std::__1::__destruct_n::__set",
   "linker_set_key" : "_ZNSt3__112__destruct_n5__setEmNS_17integral_constantIbLb1EEE",
   "parameters" :
   [
    {
     "is_this_ptr" : true,
     "referenced_type" : "_ZTIPNSt3__112__destruct_nE"
    },
    {
     "referenced_type" : "_ZTIm"
    },
    {
     "referenced_type" : "_ZTINSt3__117integral_constantIbLb1EEE"
    }
   ],
   "return_type" : "_ZTIv",
   "source_file" : "external/libcxx/include/memory"
  },
  {
   "access" : "private",
   "function_name" : "std::__1::__destruct_n::__incr",
   "linker_set_key" : "_ZNSt3__112__destruct_n6__incrENS_17integral_constantIbLb0EEE",
   "parameters" :
   [
    {
     "is_this_ptr" : true,
     "referenced_type" : "_ZTIPNSt3__112__destruct_nE"
    },
    {
     "referenced_type" : "_ZTINSt3__117integral_constantIbLb0EEE"
    }
   ],
   "return_type" : "_ZTIv",
   "source_file" : "external/libcxx/include/memory"
  },
  {
   "access" : "private",
   "function_name" : "std::__1::__destruct_n::__incr",
   "linker_set_key" : "_ZNSt3__112__destruct_n6__incrENS_17integral_constantIbLb1EEE",
   "parameters" :
   [
    {
     "is_this_ptr" : true,
     "referenced_type" : "_ZTIPNSt3__112__destruct_nE"
    },
    {
     "referenced_type" : "_ZTINSt3__117integral_constantIbLb1EEE"
    }
   ],
   "return_type" : "_ZTIv",
   "source_file" : "external/libcxx/include/memory"
  },
  {
   "function_name" : "std::__1::__destruct_n::__destruct_n",
   "linker_set_key" : "_ZNSt3__112__destruct_nC1Em",
   "parameters" :
   [
    {
     "is_this_ptr" : true,
     "referenced_type" : "_ZTIPNSt3__112__destruct_nE"
    },
    {
     "referenced_type" : "_ZTIm"
    }
   ],
   "return_type" : "_ZTIv",
   "source_file" : "external/libcxx/include/memory"
  },
  {
   "function_name" : "std::__1::__destruct_n::__destruct_n",
   "linker_set_key" : "_ZNSt3__112__destruct_nC2Em",
   "parameters" :
   [
    {
     "is_this_ptr" : true,
     "referenced_type" : "_ZTIPNSt3__112__destruct_nE"
    },
    {
     "referenced_type" : "_ZTIm"
    }
   ],
   "return_type" : "_ZTIv",
   "source_file" : "external/libcxx/include/memory"
  },
  {
   "function_name" : "std::__1::__rs_default::max",
   "linker_set_key" : "_ZNSt3__112__rs_default3maxEv",
   "return_type" : "_ZTIm",
   "source_file" : "external/libcxx/include/algorithm"
  },
  {
   "function_name" : "std::__1::__rs_default::min",
   "linker_set_key" : "_ZNSt3__112__rs_default3minEv",
   "return_type" : "_ZTIm",
   "source_file" : "external/libcxx/include/algorithm"
  },
  {
   "function_name" : "std::__1::__unwrap_iter",
   "linker_set_key" : "_ZNSt3__113__unwrap_iterINS_11__wrap_iterIPKNS_3setIjNS_4lessIjEENS_9allocatorIjEEEEEEEET_SB_",
   "parameters" :
   [
    {
     "referenced_type" : "_ZTINSt3__111__wrap_iterIPKNS_3setIjNS_4lessIjEENS_9allocatorIjEEEEEE"
    }
   ],
   "return_type" : "_ZTINSt3__111__wrap_iterIPKNS_3setIjNS_4lessIjEENS_9allocatorIjEEEEEE",
   "source_file" : "external/libcxx/include/algorithm",
   "template_args" :
   [
    "_ZTINSt3__111__wrap_iterIPKNS_3setIjNS_4lessIjEENS_9allocatorIjEEEEEE"
   ]
  },
  {
   "function_name" : "std::__1::__unwrap_iter",
   "linker_set_key" : "_ZNSt3__113__unwrap_iterINS_15insert_iteratorINS_3setIjNS_4lessIjEENS_9allocatorIjEEEEEEEET_S9_",
   "parameters" :
   [
    {
     "referenced_type" : "_ZTINSt3__115insert_iteratorINS_3setIjNS_4lessIjEENS_9allocatorIjEEEEEE"
    }
   ],
   "return_type" : "_ZTINSt3__115insert_iteratorINS_3setIjNS_4lessIjEENS_9allocatorIjEEEEEE",
   "source_file" : "external/libcxx/include/algorithm",
   "template_args" :
   [
    "_ZTINSt3__115insert_iteratorINS_3setIjNS_4lessIjEENS_9allocatorIjEEEEEE"
   ]
  },
  {
   "function_name" : "std::__1::__unwrap_iter",
   "linker_set_key" : "_ZNSt3__113__unwrap_iterINS_21__tree_const_iteratorIjPNS_11__tree_nodeIjPvEElEEEET_S7_",
   "parameters" :
   [
    {
     "referenced_type" : "_ZTINSt3__121__tree_const_iteratorIjPNS_11__tree_nodeIjPvEElEE"
    }
   ],
   "return_type" : "_ZTINSt3__121__tree_const_iteratorIjPNS_11__tree_nodeIjPvEElEE",
   "source_file" : "external/libcxx/include/algorithm",
   "template_args" : [ "_ZTINSt3__121__tree_const_iteratorIjPNS_11__tree_nodeIjPvEElEE" ]
  },
  {
   "function_name" : "std::__1::__unwrap_iter",
   "linker_set_key" : "_ZNSt3__113__unwrap_iterIPNS_3setIjNS_4lessIjEENS_9allocatorIjEEEEEET_S8_",
   "parameters" :
   [
    {
     "referenced_type" : "_ZTIPNSt3__13setIjNS_4lessIjEENS_9allocatorIjEEEE"
    }
   ],
   "return_type" : "_ZTIPNSt3__13setIjNS_4lessIjEENS_9allocatorIjEEEE",
   "source_file" : "external/libcxx/include/algorithm",
   "template_args" : [ "_ZTIPNSt3__13setIjNS_4lessIjEENS_9allocatorIjEEEE" ]
  },
  {
   "access" : "protected",
   "function_name" : "std::__1::__vector_base<std::__1::set<unsigned int, std::__1::less<unsigned int>, std::__1::allocator<unsigned int>>, std::__1::allocator<std::__1::set<unsigned int, std::__1::less<unsigned int>, std::__1::allocator<unsigned int>>>>::__destruct_at_end",
   "linker_set_key" : "_ZNSt3__113__vector_baseINS_3setIjNS_4lessIjEENS_9allocatorIjEEEENS4_IS6_EEE17__destruct_at_endEPS6_",
   "parameters" :
   [
    {
     "is_this_ptr" : true,
     "referenced_type" : "_ZTIPNSt3__113__vector_baseINS_3setIjNS_4lessIjEENS_9allocatorIjEEEENS4_IS6_EEEE"
    },
    {
     "referenced_type" : "_ZTIPNSt3__13setIjNS_4lessIjEENS_9allocatorIjEEEE"
    }
   ],
   "return_type" : "_ZTIv",
   "source_file" : "external/libcxx/include/vector"
  },
  {
   "access" : "protected",
   "function_name" : "std::__1::__vector_base<std::__1::set<unsigned int, std::__1::less<unsigned int>, std::__1::allocator<unsigned int>>, std::__1::allocator<std::__1::set<unsigned int, std::__1::less<unsigned int>, std::__1::allocator<unsigned int>>>>::clear",
   "linker_set_key" : "_ZNSt3__113__vector_baseINS_3setIjNS_4lessIjEENS_9allocatorIjEEEENS4_IS6_EEE5clearEv",
   "parameters" :
   [
    {
     "is_this_ptr" : true,
     "referenced_type" : "_ZTIPNSt3__113__vector_baseINS_3setIjNS_4lessIjEENS_9allocatorIjEEEENS4_IS6_EEEE"
    }
   ],
   "return_type" : "_ZTIv",
   "source_file" : "external/libcxx/include/vector"
  },
  {
   "access" : "protected",
   "function_name" : "std::__1::__vector_base<std::__1::set<unsigned int, std::__1::less<unsigned int>, std::__1::allocator<unsigned int>>, std::__1::allocator<std::__1::set<unsigned int, std::__1::less<unsigned int>, std::__1::allocator<unsigned int>>>>::__alloc",
   "linker_set_key" : "_ZNSt3__113__vector_baseINS_3setIjNS_4lessIjEENS_9allocatorIjEEEENS4_IS6_EEE7__allocEv",
   "parameters" :
   [
    {
     "is_this_ptr" : true,
     "referenced_type" : "_ZTIPNSt3__113__vector_baseINS_3setIjNS_4lessIjEENS_9allocatorIjEEEENS4_IS6_EEEE"
    }
   ],
   "return_type" : "_ZTIRNSt3__19allocatorINS_3setIjNS_4lessIjEENS0_IjEEEEEE",
   "source_file" : "external/libcxx/include/vector"
  },
  {
   "access" : "protected",
   "function_name" : "std::__1::__vector_base<std::__1::set<unsigned int, std::__1::less<unsigned int>, std::__1::allocator<unsigned int>>, std::__1::allocator<std::__1::set<unsigned int, std::__1::less<unsigned int>, std::__1::allocator<unsigned int>>>>::__end_cap",
   "linker_set_key" : "_ZNSt3__113__vector_baseINS_3setIjNS_4lessIjEENS_9allocatorIjEEEENS4_IS6_EEE9__end_capEv",
   "parameters" :
   [
    {
     "is_this_ptr" : true,
     "referenced_type" : "_ZTIPNSt3__113__vector_baseINS_3setIjNS_4lessIjEENS_9allocatorIjEEEENS4_IS6_EEEE"
    }
   ],
   "return_type" : "_ZTIRPNSt3__13setIjNS_4lessIjEENS_9allocatorIjEEEE",
   "source_file" : "external/libcxx/include/vector"
  },
  {
   "access" : "protected",
   "function_name" : "std::__1::__vector_base<std::__1::set<unsigned int, std::__1::less<unsigned int>, std::__1::allocator<unsigned int>>, std::__1::allocator<std::__1::set<unsigned int, std::__1::less<unsigned int>, std::__1::allocator<unsigned int>>>>::__vector_base",
   "linker_set_key" : "_ZNSt3__113__vector_baseINS_3setIjNS_4lessIjEENS_9allocatorIjEEEENS4_IS6_EEEC1Ev",
   "parameters" :
   [
    {
     "is_this_ptr" : true,
     "referenced_type" : "_ZTIPNSt3__113__vector_baseINS_3setIjNS_4lessIjEENS_9allocatorIjEEEENS4_IS6_EEEE"
    }
   ],
   "return_type" : "_ZTIv",
   "source_file" : "external/libcxx/include/vector"
  },
  {
   "access" : "protected",
   "function_name" : "std::__1::__vector_base<std::__1::set<unsigned int, std::__1::less<unsigned int>, std::__1::allocator<unsigned int>>, std::__1::allocator<std::__1::set<unsigned int, std::__1::less<unsigned int>, std::__1::allocator<unsigned int>>>>::__vector_base",
   "linker_set_key" : "_ZNSt3__113__vector_baseINS_3setIjNS_4lessIjEENS_9allocatorIjEEEENS4_IS6_EEEC2Ev",
   "parameters" :
   [
    {
     "is_this_ptr" : true,
     "referenced_type" : "_ZTIPNSt3__113__vector_baseINS_3setIjNS_4lessIjEENS_9allocatorIjEEEENS4_IS6_EEEE"
    }
   ],
   "return_type" : "_ZTIv",
   "source_file" : "external/libcxx/include/vector"
  },
  {
   "access" : "protected",
   "function_name" : "std::__1::__vector_base<std::__1::set<unsigned int, std::__1::less<unsigned int>, std::__1::allocator<unsigned int>>, std::__1::allocator<std::__1::set<unsigned int, std::__1::less<unsigned int>, std::__1::allocator<unsigned int>>>>::~__vector_base",
   "linker_set_key" : "_ZNSt3__113__vector_baseINS_3setIjNS_4lessIjEENS_9allocatorIjEEEENS4_IS6_EEED1Ev",
   "parameters" :
   [
    {
     "is_this_ptr" : true,
     "referenced_type" : "_ZTIPNSt3__113__vector_baseINS_3setIjNS_4lessIjEENS_9allocatorIjEEEENS4_IS6_EEEE"
    }
   ],
   "return_type" : "_ZTIv",
   "source_file" : "external/libcxx/include/vector"
  },
  {
   "access" : "protected",
   "function_name" : "std::__1::__vector_base<std::__1::set<unsigned int, std::__1::less<unsigned int>, std::__1::allocator<unsigned int>>, std::__1::allocator<std::__1::set<unsigned int, std::__1::less<unsigned int>, std::__1::allocator<unsigned int>>>>::~__vector_base",
   "linker_set_key" : "_ZNSt3__113__vector_baseINS_3setIjNS_4lessIjEENS_9allocatorIjEEEENS4_IS6_EEED2Ev",
   "parameters" :
   [
    {
     "is_this_ptr" : true,
     "referenced_type" : "_ZTIPNSt3__113__vector_baseINS_3setIjNS_4lessIjEENS_9allocatorIjEEEENS4_IS6_EEEE"
    }
   ],
   "return_type" : "_ZTIv",
   "source_file" : "external/libcxx/include/vector"
  },
  {
   "function_name" : "std::__1::move_backward",
   "linker_set_key" : "_ZNSt3__113move_backwardIPNS_3setIjNS_4lessIjEENS_9allocatorIjEEEES7_EET0_T_S9_S8_",
   "parameters" :
   [
    {
     "referenced_type" : "_ZTIPNSt3__13setIjNS_4lessIjEENS_9allocatorIjEEEE"
    },
    {
     "referenced_type" : "_ZTIPNSt3__13setIjNS_4lessIjEENS_9allocatorIjEEEE"
    },
    {
     "referenced_type" : "_ZTIPNSt3__13setIjNS_4lessIjEENS_9allocatorIjEEEE"
    }
   ],
   "return_type" : "_ZTIPNSt3__13setIjNS_4lessIjEENS_9allocatorIjEEEE",
   "source_file" : "external/libcxx/include/algorithm",
   "template_args" :
   [
    "_ZTIPNSt3__13setIjNS_4lessIjEENS_9allocatorIjEEEE",
    "_ZTIPNSt3__13setIjNS_4lessIjEENS_9allocatorIjEEEE"
   ]
  },
  {
   "function_name" : "std::__1::__hash_combine",
   "linker_set_key" : "_ZNSt3__114__hash_combineEmm",
   "parameters" :
   [
    {
     "referenced_type" : "_ZTIm"
    },
    {
     "referenced_type" : "_ZTIm"
    }
   ],
   "return_type" : "_ZTIm",
   "source_file" : "external/libcxx/include/utility"
  },
  {
   "function_name" : "std::__1::__shared_count::__add_shared",
   "linker_set_key" : "_ZNSt3__114__shared_count12__add_sharedEv",
   "parameters" :
   [
    {
     "is_this_ptr" : true,
     "referenced_type" : "_ZTIPNSt3__114__shared_countE"
    }
   ],
   "return_type" : "_ZTIv",
   "source_file" : "external/libcxx/include/memory"
  },
  {
   "function_name" : "std::__1::__shared_count::__release_shared",
   "linker_set_key" : "_ZNSt3__114__shared_count16__release_sharedEv",
   "parameters" :
   [
    {
     "is_this_ptr" : true,
     "referenced_type" : "_ZTIPNSt3__114__shared_countE"
    }
   ],
   "return_type" : "_ZTIb",
   "source_file" : "external/libcxx/include/memory"
  },
  {
   "function_name" : "std::__1::__shared_count::__shared_count",
   "linker_set_key" : "_ZNSt3__114__shared_countC2El",
   "parameters" :
   [
    {
     "is_this_ptr" : true,
     "referenced_type" : "_ZTIPNSt3__114__shared_countE"
    },
    {
     "default_arg" : true,
     "referenced_type" : "_ZTIl"
    }
   ],
   "return_type" : "_ZTIv",
   "source_file" : "external/libcxx/include/memory"
  },
  {
   "function_name" : "std::__1::__split_buffer<std::__1::set<unsigned int, std::__1::less<unsigned int>, std::__1::allocator<unsigned int>>, std::__1::allocator<std::__1::set<unsigned int, std::__1::less<unsigned int>, std::__1::allocator<unsigned int>>> &>::__destruct_at_end",
   "linker_set_key" : "_ZNSt3__114__split_bufferINS_3setIjNS_4lessIjEENS_9allocatorIjEEEERNS4_IS6_EEE17__destruct_at_endEPS6_",
   "parameters" :
   [
    {
     "is_this_ptr" : true,
     "referenced_type" : "_ZTIPNSt3__114__split_bufferINS_3setIjNS_4lessIjEENS_9allocatorIjEEEERNS4_IS6_EEEE"
    },
    {
     "referenced_type" : "_ZTIPNSt3__13setIjNS_4lessIjEENS_9allocatorIjEEEE"
    }
   ],
   "return_type" : "_ZTIv",
   "source_file" : "external/libcxx/include/__split_buffer"
  },
  {
   "function_name" : "std::__1::__split_buffer<std::__1::set<unsigned int, std::__1::less<unsigned int>, std::__1::allocator<unsigned int>>, std::__1::allocator<std::__1::set<unsigned int, std::__1::less<unsigned int>, std::__1::allocator<unsigned int>>> &>::__destruct_at_end",
   "linker_set_key" : "_ZNSt3__114__split_bufferINS_3setIjNS_4lessIjEENS_9allocatorIjEEEERNS4_IS6_EEE17__destruct_at_endEPS6_NS_17integral_constantIbLb0EEE",
   "parameters" :
   [
    {
     "is_this_ptr" : true,
     "referenced_type" : "_ZTIPNSt3__114__split_bufferINS_3setIjNS_4lessIjEENS_9allocatorIjEEEERNS4_IS6_EEEE"
    },
    {
     "referenced_type" : "_ZTIPNSt3__13setIjNS_4lessIjEENS_9allocatorIjEEEE"
    },
    {
     "referenced_type" : "_ZTINSt3__117integral_constantIbLb0EEE"
    }
   ],
   "return_type" : "_ZTIv",
   "source_file" : "external/libcxx/include/__split_buffer"
  },
  {
   "function_name" : "std::__1::__split_buffer<std::__1::set<unsigned int, std::__1::less<unsigned int>, std::__1::allocator<unsigned int>>, std::__1::allocator<std::__1::set<unsigned int, std::__1::less<unsigned int>, std::__1::allocator<unsigned int>>> &>::__construct_at_end",
   "linker_set_key" : "_ZNSt3__114__split_bufferINS_3setIjNS_4lessIjEENS_9allocatorIjEEEERNS4_IS6_EEE18__construct_at_endINS_11__wrap_iterIPKS6_EEEENS_9enable_ifIXsr21__is_forward_iteratorIT_EE5valueEvE4typeESG_SG_",
   "parameters" :
   [
    {
     "is_this_ptr" : true,
     "referenced_type" : "_ZTIPNSt3__114__split_bufferINS_3setIjNS_4lessIjEENS_9allocatorIjEEEERNS4_IS6_EEEE"
    },
    {
     "referenced_type" : "_ZTINSt3__111__wrap_iterIPKNS_3setIjNS_4lessIjEENS_9allocatorIjEEEEEE"
    },
    {
     "referenced_type" : "_ZTINSt3__111__wrap_iterIPKNS_3setIjNS_4lessIjEENS_9allocatorIjEEEEEE"
    }
   ],
   "return_type" : "_ZTIv",
   "source_file" : "external/libcxx/include/__split_buffer",
   "template_args" :
   [
    "_ZTINSt3__111__wrap_iterIPKNS_3setIjNS_4lessIjEENS_9allocatorIjEEEEEE"
   ]
  },
  {
   "function_name" : "std::__1::__split_buffer<std::__1::set<unsigned int, std::__1::less<unsigned int>, std::__1::allocator<unsigned int>>, std::__1::allocator<std::__1::set<unsigned int, std::__1::less<unsigned int>, std::__1::allocator<unsigned int>>> &>::clear",
   "linker_set_key" : "_ZNSt3__114__split_bufferINS_3setIjNS_4lessIjEENS_9allocatorIjEEEERNS4_IS6_EEE5clearEv",
   "parameters" :
   [
    {
     "is_this_ptr" : true,
     "referenced_type" : "_ZTIPNSt3__114__split_bufferINS_3setIjNS_4lessIjEENS_9allocatorIjEEEERNS4_IS6_EEEE"
    }
   ],
   "return_type" : "_ZTIv",
   "source_file" : "external/libcxx/include/__split_buffer"
  },
  {
   "function_name" : "std::__1::__split_buffer<std::__1::set<unsigned int, std::__1::less<unsigned int>, std::__1::allocator<unsigned int>>, std::__1::allocator<std::__1::set<unsigned int, std::__1::less<unsigned int>, std::__1::allocator<unsigned int>>> &>::__alloc",
   "linker_set_key" : "_ZNSt3__114__split_bufferINS_3setIjNS_4lessIjEENS_9allocatorIjEEEERNS4_IS6_EEE7__allocEv",
   "parameters" :
   [
    {
     "is_this_ptr" : true,
     "referenced_type" : "_ZTIPNSt3__114__split_bufferINS_3setIjNS_4lessIjEENS_9allocatorIjEEEERNS4_IS6_EEEE"
    }
   ],
   "return_type" : "_ZTIRNSt3__19allocatorINS_3setIjNS_4lessIjEENS0_IjEEEEEE",
   "source_file" : "external/libcxx/include/__split_buffer"
  },
  {
   "function_name" : "std::__1::__split_buffer<std::__1::set<unsigned int, std::__1::less<unsigned int>, std::__1::allocator<unsigned int>>, std::__1::allocator<std::__1::set<unsigned int, std::__1::less<unsigned int>, std::__1::allocator<unsigned int>>> &>::__end_cap",
   "linker_set_key" : "_ZNSt3__114__split_bufferINS_3setIjNS_4lessIjEENS_9allocatorIjEEEERNS4_IS6_EEE9__end_capEv",
   "parameters" :
   [
    {
     "is_this_ptr" : true,
     "referenced_type" : "_ZTIPNSt3__114__split_bufferINS_3setIjNS_4lessIjEENS_9allocatorIjEEEERNS4_IS6_EEEE"
    }
   ],
   "return_type" : "_ZTIRPNSt3__13setIjNS_4lessIjEENS_9allocatorIjEEEE",
   "source_file" : "external/libcxx/include/__split_buffer"
  },
  {
   "function_name" : "std::__1::__split_buffer<std::__1::set<unsigned int, std::__1::less<unsigned int>, std::__1::allocator<unsigned int>>, std::__1::allocator<std::__1::set<unsigned int, std::__1::less<unsigned int>, std::__1::allocator<unsigned int>>> &>::__split_buffer",
   "linker_set_key" : "_ZNSt3__114__split_bufferINS_3setIjNS_4lessIjEENS_9allocatorIjEEEERNS4_IS6_EEEC1EmmS8_",
   "parameters" :
   [
    {
     "is_this_ptr" : true,
     "referenced_type" : "_ZTIPNSt3__114__split_bufferINS_3setIjNS_4lessIjEENS_9allocatorIjEEEERNS4_IS6_EEEE"
    },
    {
     "referenced_type" : "_ZTIm"
    },
    {
     "referenced_type" : "_ZTIm"
    },
    {
     "referenced_type" : "_ZTIRNSt3__19allocatorINS_3setIjNS_4lessIjEENS0_IjEEEEEE"
    }
   ],
   "return_type" : "_ZTIv",
   "source_file" : "external/libcxx/include/__split_buffer"
  },
  {
   "function_name" : "std::__1::__split_buffer<std::__1::set<unsigned int, std::__1::less<unsigned int>, std::__1::allocator<unsigned int>>, std::__1::allocator<std::__1::set<unsigned int, std::__1::less<unsigned int>, std::__1::allocator<unsigned int>>> &>::__split_buffer",
   "linker_set_key" : "_ZNSt3__114__split_bufferINS_3setIjNS_4lessIjEENS_9allocatorIjEEEERNS4_IS6_EEEC2EmmS8_",
   "parameters" :
   [
    {
     "is_this_ptr" : true,
     "referenced_type" : "_ZTIPNSt3__114__split_bufferINS_3setIjNS_4lessIjEENS_9allocatorIjEEEERNS4_IS6_EEEE"
    },
    {
     "referenced_type" : "_ZTIm"
    },
    {
     "referenced_type" : "_ZTIm"
    },
    {
     "referenced_type" : "_ZTIRNSt3__19allocatorINS_3setIjNS_4lessIjEENS0_IjEEEEEE"
    }
   ],
   "return_type" : "_ZTIv",
   "source_file" : "external/libcxx/include/__split_buffer"
  },
  {
   "function_name" : "std::__1::__split_buffer<std::__1::set<unsigned int, std::__1::less<unsigned int>, std::__1::allocator<unsigned int>>, std::__1::allocator<std::__1::set<unsigned int, std::__1::less<unsigned int>, std::__1::allocator<unsigned int>>> &>::~__split_buffer",
   "linker_set_key" : "_ZNSt3__114__split_bufferINS_3setIjNS_4lessIjEENS_9allocatorIjEEEERNS4_IS6_EEED1Ev",
   "parameters" :
   [
    {
     "is_this_ptr" : true,
     "referenced_type" : "_ZTIPNSt3__114__split_bufferINS_3setIjNS_4lessIjEENS_9allocatorIjEEEERNS4_IS6_EEEE"
    }
   ],
   "return_type" : "_ZTIv",
   "source_file" : "external/libcxx/include/__split_buffer"
  },
  {
   "function_name" : "std::__1::__split_buffer<std::__1::set<unsigned int, std::__1::less<unsigned int>, std::__1::allocator<unsigned int>>, std::__1::allocator<std::__1::set<unsigned int, std::__1::less<unsigned int>, std::__1::allocator<unsigned int>>> &>::~__split_buffer",
   "linker_set_key" : "_ZNSt3__114__split_bufferINS_3setIjNS_4lessIjEENS_9allocatorIjEEEERNS4_IS6_EEED2Ev",
   "parameters" :
   [
    {
     "is_this_ptr" : true,
     "referenced_type" : "_ZTIPNSt3__114__split_bufferINS_3setIjNS_4lessIjEENS_9allocatorIjEEEERNS4_IS6_EEEE"
    }
   ],
   "return_type" : "_ZTIv",
   "source_file" : "external/libcxx/include/__split_buffer"
  },
  {
   "function_name" : "std::__1::numeric_limits<long>::max",
   "linker_set_key" : "_ZNSt3__114numeric_limitsIlE3maxEv",
   "return_type" : "_ZTIl",
   "source_file" : "external/libcxx/include/limits"
  },
  {
   "function_name" : "std::__1::pointer_safety::pointer_safety",
   "linker_set_key" : "_ZNSt3__114pointer_safetyC1ENS0_4__lxE",
   "parameters" :
   [
    {
     "is_this_ptr" : true,
     "referenced_type" : "_ZTIPNSt3__114pointer_safetyE"
    },
    {
     "referenced_type" : "_ZTINSt3__114pointer_safety4__lxE"
    }
   ],
   "return_type" : "_ZTIv",
   "source_file" : "external/libcxx/include/memory"
  },
  {
   "function_name" : "std::__1::pointer_safety::pointer_safety",
   "linker_set_key" : "_ZNSt3__114pointer_safetyC1Ev",
   "parameters" :
   [
    {
     "is_this_ptr" : true,
     "referenced_type" : "_ZTIPNSt3__114pointer_safetyE"
    }
   ],
   "return_type" : "_ZTIv",
   "source_file" : "external/libcxx/include/memory"
  },
  {
   "function_name" : "std::__1::pointer_safety::pointer_safety",
   "linker_set_key" : "_ZNSt3__114pointer_safetyC2ENS0_4__lxE",
   "parameters" :
   [
    {
     "is_this_ptr" : true,
     "referenced_type" : "_ZTIPNSt3__114pointer_safetyE"
    },
    {
     "referenced_type" : "_ZTINSt3__114pointer_safety4__lxE"
    }
   ],
   "return_type" : "_ZTIv",
   "source_file" : "external/libcxx/include/memory"
  },
  {
   "function_name" : "std::__1::pointer_safety::pointer_safety",
   "linker_set_key" : "_ZNSt3__114pointer_safetyC2Ev",
   "parameters" :
   [
    {
     "is_this_ptr" : true,
     "referenced_type" : "_ZTIPNSt3__114pointer_safetyE"
    }
   ],
   "return_type" : "_ZTIv",
   "source_file" : "external/libcxx/include/memory"
  },
  {
   "function_name" : "std::__1::pointer_traits<std::__1::__tree_end_node<std::__1::__tree_node_base<void *> *> *>::pointer_to",
   "linker_set_key" : "_ZNSt3__114pointer_traitsIPNS_15__tree_end_nodeIPNS_16__tree_node_baseIPvEEEEE10pointer_toERS6_",
   "parameters" :
   [
    {
     "referenced_type" : "_ZTIRNSt3__115__tree_end_nodeIPNS_16__tree_node_baseIPvEEEE"
    }
   ],
   "return_type" : "_ZTIPNSt3__115__tree_end_nodeIPNS_16__tree_node_baseIPvEEEE",
   "source_file" : "external/libcxx/include/memory"
  },
  {
   "function_name" : "std::__1::set_difference",
   "linker_set_key" : "_ZNSt3__114set_differenceINS_21__tree_const_iteratorIjPNS_11__tree_nodeIjPvEElEES6_NS_15insert_iteratorINS_3setIjNS_4lessIjEENS_9allocatorIjEEEEEEEET1_T_SG_T0_SH_SF_",
   "parameters" :
   [
    {
     "referenced_type" : "_ZTINSt3__121__tree_const_iteratorIjPNS_11__tree_nodeIjPvEElEE"
    },
    {
     "referenced_type" : "_ZTINSt3__121__tree_const_iteratorIjPNS_11__tree_nodeIjPvEElEE"
    },
    {
     "referenced_type" : "_ZTINSt3__121__tree_const_iteratorIjPNS_11__tree_nodeIjPvEElEE"
    },
    {
     "referenced_type" : "_ZTINSt3__121__tree_const_iteratorIjPNS_11__tree_nodeIjPvEElEE"
    },
    {
     "referenced_type" : "_ZTINSt3__115insert_iteratorINS_3setIjNS_4lessIjEENS_9allocatorIjEEEEEE"
    }
   ],
   "return_type" : "_ZTINSt3__115insert_iteratorINS_3setIjNS_4lessIjEENS_9allocatorIjEEEEEE",
   "source_file" : "external/libcxx/include/algorithm",
   "template_args" :
   [
    "_ZTINSt3__121__tree_const_iteratorIjPNS_11__tree_nodeIjPvEElEE",
    "_ZTINSt3__121__tree_const_iteratorIjPNS_11__tree_nodeIjPvEElEE",
    "_ZTINSt3__115insert_iteratorINS_3setIjNS_4lessIjEENS_9allocatorIjEEEEEE"
   ]
  },
  {
   "function_name" : "std::__1::set_difference",
   "linker_set_key" : "_ZNSt3__114set_differenceINS_21__tree_const_iteratorIjPNS_11__tree_nodeIjPvEElEES6_NS_15insert_iteratorINS_3setIjNS_4lessIjEENS_9allocatorIjEEEEEENS_6__lessIjjEEEET1_T_SI_T0_SJ_SH_T2_",
   "parameters" :
   [
    {
     "referenced_type" : "_ZTINSt3__121__tree_const_iteratorIjPNS_11__tree_nodeIjPvEElEE"
    },
    {
     "referenced_type" : "_ZTINSt3__121__tree_const_iteratorIjPNS_11__tree_nodeIjPvEElEE"
    },
    {
     "referenced_type" : "_ZTINSt3__121__tree_const_iteratorIjPNS_11__tree_nodeIjPvEElEE"
    },
    {
     "referenced_type" : "_ZTINSt3__121__tree_const_iteratorIjPNS_11__tree_nodeIjPvEElEE"
    },
    {
     "referenced_type" : "_ZTINSt3__115insert_iteratorINS_3setIjNS_4lessIjEENS_9allocatorIjEEEEEE"
    },
    {
     "referenced_type" : "_ZTINSt3__16__lessIjjEE"
    }
   ],
   "return_type" : "_ZTINSt3__115insert_iteratorINS_3setIjNS_4lessIjEENS_9allocatorIjEEEEEE",
   "source_file" : "external/libcxx/include/algorithm",
   "template_args" :
   [
    "_ZTINSt3__121__tree_const_iteratorIjPNS_11__tree_nodeIjPvEElEE",
    "_ZTINSt3__121__tree_const_iteratorIjPNS_11__tree_nodeIjPvEElEE",
    "_ZTINSt3__115insert_iteratorINS_3setIjNS_4lessIjEENS_9allocatorIjEEEEEE",
    "_ZTINSt3__16__lessIjjEE"
   ]
  },
  {
   "function_name" : "std::__1::__move_backward",
   "linker_set_key" : "_ZNSt3__115__move_backwardIPNS_3setIjNS_4lessIjEENS_9allocatorIjEEEES7_EET0_T_S9_S8_",
   "parameters" :
   [
    {
     "referenced_type" : "_ZTIPNSt3__13setIjNS_4lessIjEENS_9allocatorIjEEEE"
    },
    {
     "referenced_type" : "_ZTIPNSt3__13setIjNS_4lessIjEENS_9allocatorIjEEEE"
    },
    {
     "referenced_type" : "_ZTIPNSt3__13setIjNS_4lessIjEENS_9allocatorIjEEEE"
    }
   ],
   "return_type" : "_ZTIPNSt3__13setIjNS_4lessIjEENS_9allocatorIjEEEE",
   "source_file" : "external/libcxx/include/algorithm",
   "template_args" :
   [
    "_ZTIPNSt3__13setIjNS_4lessIjEENS_9allocatorIjEEEE",
    "_ZTIPNSt3__13setIjNS_4lessIjEENS_9allocatorIjEEEE"
   ]
  },
  {
   "function_name" : "std::__1::__tree_end_node<std::__1::__tree_node_base<void *> *>::__tree_end_node",
   "linker_set_key" : "_ZNSt3__115__tree_end_nodeIPNS_16__tree_node_baseIPvEEEC1Ev",
   "parameters" :
   [
    {
     "is_this_ptr" : true,
     "referenced_type" : "_ZTIPNSt3__115__tree_end_nodeIPNS_16__tree_node_baseIPvEEEE"
    }
   ],
   "return_type" : "_ZTIv",
   "source_file" : "external/libcxx/include/__tree"
  },
  {
   "function_name" : "std::__1::__tree_end_node<std::__1::__tree_node_base<void *> *>::__tree_end_node",
   "linker_set_key" : "_ZNSt3__115__tree_end_nodeIPNS_16__tree_node_baseIPvEEEC2Ev",
   "parameters" :
   [
    {
     "is_this_ptr" : true,
     "referenced_type" : "_ZTIPNSt3__115__tree_end_nodeIPNS_16__tree_node_baseIPvEEEE"
    }
   ],
   "return_type" : "_ZTIv",
   "source_file" : "external/libcxx/include/__tree"
  },
  {
   "access" : "private",
   "function_name" : "std::__1::__tree_iterator<std::__1::set<unsigned int, std::__1::less<unsigned int>, std::__1::allocator<unsigned int>>, std::__1::__tree_node<std::__1::set<unsigned int, std::__1::less<unsigned int>, std::__1::allocator<unsigned int>>, void *> *, long>::__tree_iterator",
   "linker_set_key" : "_ZNSt3__115__tree_iteratorINS_3setIjNS_4lessIjEENS_9allocatorIjEEEEPNS_11__tree_nodeIS6_PvEElEC1ESA_",
   "parameters" :
   [
    {
     "is_this_ptr" : true,
     "referenced_type" : "_ZTIPNSt3__115__tree_iteratorINS_3setIjNS_4lessIjEENS_9allocatorIjEEEEPNS_11__tree_nodeIS6_PvEElEE"
    },
    {
     "referenced_type" : "_ZTIPNSt3__111__tree_nodeINS_3setIjNS_4lessIjEENS_9allocatorIjEEEEPvEE"
    }
   ],
   "return_type" : "_ZTIv",
   "source_file" : "external/libcxx/include/__tree"
  },
  {
   "access" : "private",
   "function_name" : "std::__1::__tree_iterator<std::__1::set<unsigned int, std::__1::less<unsigned int>, std::__1::allocator<unsigned int>>, std::__1::__tree_node<std::__1::set<unsigned int, std::__1::less<unsigned int>, std::__1::allocator<unsigned int>>, void *> *, long>::__tree_iterator",
   "linker_set_key" : "_ZNSt3__115__tree_iteratorINS_3setIjNS_4lessIjEENS_9allocatorIjEEEEPNS_11__tree_nodeIS6_PvEElEC2ESA_",
   "parameters" :
   [
    {
     "is_this_ptr" : true,
     "referenced_type" : "_ZTIPNSt3__115__tree_iteratorINS_3setIjNS_4lessIjEENS_9allocatorIjEEEEPNS_11__tree_nodeIS6_PvEElEE"
    },
    {
     "referenced_type" : "_ZTIPNSt3__111__tree_nodeINS_3setIjNS_4lessIjEENS_9allocatorIjEEEEPvEE"
    }
   ],
   "return_type" : "_ZTIv",
   "source_file" : "external/libcxx/include/__tree"
  },
  {
   "access" : "private",
   "function_name" : "std::__1::__tree_iterator<unsigned int, std::__1::__tree_node<unsigned int, void *> *, long>::__tree_iterator",
   "linker_set_key" : "_ZNSt3__115__tree_iteratorIjPNS_11__tree_nodeIjPvEElEC1EPNS_15__tree_end_nodeIPNS_16__tree_node_baseIS2_EEEE",
   "parameters" :
   [
    {
     "is_this_ptr" : true,
     "referenced_type" : "_ZTIPNSt3__115__tree_iteratorIjPNS_11__tree_nodeIjPvEElEE"
    },
    {
     "referenced_type" : "_ZTIPNSt3__115__tree_end_nodeIPNS_16__tree_node_baseIPvEEEE"
    }
   ],
   "return_type" : "_ZTIv",
   "source_file" : "external/libcxx/include/__tree"
  },
  {
   "access" : "private",
   "function_name" : "std::__1::__tree_iterator<unsigned int, std::__1::__tree_node<unsigned int, void *> *, long>::__tree_iterator",
   "linker_set_key" : "_ZNSt3__115__tree_iteratorIjPNS_11__tree_nodeIjPvEElEC1ES4_",
   "parameters" :
   [
    {
     "is_this_ptr" : true,
     "referenced_type" : "_ZTIPNSt3__115__tree_iteratorIjPNS_11__tree_nodeIjPvEElEE"
    },
    {
     "referenced_type" : "_ZTIPNSt3__111__tree_nodeIjPvEE"
    }
   ],
   "return_type" : "_ZTIv",
   "source_file" : "external/libcxx/include/__tree"
  },
  {
   "access" : "private",
   "function_name" : "std::__1::__tree_iterator<unsigned int, std::__1::__tree_node<unsigned int, void *> *, long>::__tree_iterator",
   "linker_set_key" : "_ZNSt3__115__tree_iteratorIjPNS_11__tree_nodeIjPvEElEC2EPNS_15__tree_end_nodeIPNS_16__tree_node_baseIS2_EEEE",
   "parameters" :
   [
    {
     "is_this_ptr" : true,
     "referenced_type" : "_ZTIPNSt3__115__tree_iteratorIjPNS_11__tree_nodeIjPvEElEE"
    },
    {
     "referenced_type" : "_ZTIPNSt3__115__tree_end_nodeIPNS_16__tree_node_baseIPvEEEE"
    }
   ],
   "return_type" : "_ZTIv",
   "source_file" : "external/libcxx/include/__tree"
  },
  {
   "access" : "private",
   "function_name" : "std::__1::__tree_iterator<unsigned int, std::__1::__tree_node<unsigned int, void *> *, long>::__tree_iterator",
   "linker_set_key" : "_ZNSt3__115__tree_iteratorIjPNS_11__tree_nodeIjPvEElEC2ES4_",
   "parameters" :
   [
    {
     "is_this_ptr" : true,
     "referenced_type" : "_ZTIPNSt3__115__tree_iteratorIjPNS_11__tree_nodeIjPvEElEE"
    },
    {
     "referenced_type" : "_ZTIPNSt3__111__tree_nodeIjPvEE"
    }
   ],
   "return_type" : "_ZTIv",
   "source_file" : "external/libcxx/include/__tree"
  },
  {
   "function_name" : "std::__1::insert_iterator<std::__1::set<unsigned int, std::__1::less<unsigned int>, std::__1::allocator<unsigned int>>>::insert_iterator",
   "linker_set_key" : "_ZNSt3__115insert_iteratorINS_3setIjNS_4lessIjEENS_9allocatorIjEEEEEC1ERS6_NS_21__tree_const_iteratorIjPNS_11__tree_nodeIjPvEElEE",
   "parameters" :
   [
    {
     "is_this_ptr" : true,
     "referenced_type" : "_ZTIPNSt3__115insert_iteratorINS_3setIjNS_4lessIjEENS_9allocatorIjEEEEEE"
    },
    {
     "referenced_type" : "_ZTIRNSt3__13setIjNS_4lessIjEENS_9allocatorIjEEEE"
    },
    {
     "referenced_type" : "_ZTINSt3__121__tree_const_iteratorIjPNS_11__tree_nodeIjPvEElEE"
    }
   ],
   "return_type" : "_ZTIv",
   "source_file" : "external/libcxx/include/iterator"
  },
  {
   "function_name" : "std::__1::insert_iterator<std::__1::set<unsigned int, std::__1::less<unsigned int>, std::__1::allocator<unsigned int>>>::insert_iterator",
   "linker_set_key" : "_ZNSt3__115insert_iteratorINS_3setIjNS_4lessIjEENS_9allocatorIjEEEEEC2ERS6_NS_21__tree_const_iteratorIjPNS_11__tree_nodeIjPvEElEE",
   "parameters" :
   [
    {
     "is_this_ptr" : true,
     "referenced_type" : "_ZTIPNSt3__115insert_iteratorINS_3setIjNS_4lessIjEENS_9allocatorIjEEEEEE"
    },
    {
     "referenced_type" : "_ZTIRNSt3__13setIjNS_4lessIjEENS_9allocatorIjEEEE"
    },
    {
     "referenced_type" : "_ZTINSt3__121__tree_const_iteratorIjPNS_11__tree_nodeIjPvEElEE"
    }
   ],
   "return_type" : "_ZTIv",
   "source_file" : "external/libcxx/include/iterator"
  },
  {
   "function_name" : "std::__1::insert_iterator<std::__1::set<unsigned int, std::__1::less<unsigned int>, std::__1::allocator<unsigned int>>>::operator=",
   "linker_set_key" : "_ZNSt3__115insert_iteratorINS_3setIjNS_4lessIjEENS_9allocatorIjEEEEEaSERKj",
   "parameters" :
   [
    {
     "is_this_ptr" : true,
     "referenced_type" : "_ZTIPNSt3__115insert_iteratorINS_3setIjNS_4lessIjEENS_9allocatorIjEEEEEE"
    },
    {
     "referenced_type" : "_ZTIRKj"
    }
   ],
   "return_type" : "_ZTIRNSt3__115insert_iteratorINS_3setIjNS_4lessIjEENS_9allocatorIjEEEEEE",
   "source_file" : "external/libcxx/include/iterator"
  },
  {
   "function_name" : "std::__1::insert_iterator<std::__1::set<unsigned int, std::__1::less<unsigned int>, std::__1::allocator<unsigned int>>>::operator*",
   "linker_set_key" : "_ZNSt3__115insert_iteratorINS_3setIjNS_4lessIjEENS_9allocatorIjEEEEEdeEv",
   "parameters" :
   [
    {
     "is_this_ptr" : true,
     "referenced_type" : "_ZTIPNSt3__115insert_iteratorINS_3setIjNS_4lessIjEENS_9allocatorIjEEEEEE"
    }
   ],
   "return_type" : "_ZTIRNSt3__115insert_iteratorINS_3setIjNS_4lessIjEENS_9allocatorIjEEEEEE",
   "source_file" : "external/libcxx/include/iterator"
  },
  {
   "function_name" : "std::__1::insert_iterator<std::__1::set<unsigned int, std::__1::less<unsigned int>, std::__1::allocator<unsigned int>>>::operator++",
   "linker_set_key" : "_ZNSt3__115insert_iteratorINS_3setIjNS_4lessIjEENS_9allocatorIjEEEEEppEv",
   "parameters" :
   [
    {
     "is_this_ptr" : true,
     "referenced_type" : "_ZTIPNSt3__115insert_iteratorINS_3setIjNS_4lessIjEENS_9allocatorIjEEEEEE"
    }
   ],
   "return_type" : "_ZTIRNSt3__115insert_iteratorINS_3setIjNS_4lessIjEENS_9allocatorIjEEEEEE",
   "source_file" : "external/libcxx/include/iterator"
  },
  {
   "function_name" : "std::__1::__set_difference",
   "linker_set_key" : "_ZNSt3__116__set_differenceIRNS_6__lessIjjEENS_21__tree_const_iteratorIjPNS_11__tree_nodeIjPvEElEES9_NS_15insert_iteratorINS_3setIjNS_4lessIjEENS_9allocatorIjEEEEEEEET2_T0_SJ_T1_SK_SI_T_",
   "parameters" :
   [
    {
     "referenced_type" : "_ZTINSt3__121__tree_const_iteratorIjPNS_11__tree_nodeIjPvEElEE"
    },
    {
     "referenced_type" : "_ZTINSt3__121__tree_const_iteratorIjPNS_11__tree_nodeIjPvEElEE"
    },
    {
     "referenced_type" : "_ZTINSt3__121__tree_const_iteratorIjPNS_11__tree_nodeIjPvEElEE"
    },
    {
     "referenced_type" : "_ZTINSt3__121__tree_const_iteratorIjPNS_11__tree_nodeIjPvEElEE"
    },
    {
     "referenced_type" : "_ZTINSt3__115insert_iteratorINS_3setIjNS_4lessIjEENS_9allocatorIjEEEEEE"
    },
    {
     "referenced_type" : "_ZTIRNSt3__16__lessIjjEE"
    }
   ],
   "return_type" : "_ZTINSt3__115insert_iteratorINS_3setIjNS_4lessIjEENS_9allocatorIjEEEEEE",
   "source_file" : "external/libcxx/include/algorithm",
   "template_args" :
   [
    "_ZTIRNSt3__16__lessIjjEE",
    "_ZTINSt3__121__tree_const_iteratorIjPNS_11__tree_nodeIjPvEElEE",
    "_ZTINSt3__121__tree_const_iteratorIjPNS_11__tree_nodeIjPvEElEE",
    "_ZTINSt3__115insert_iteratorINS_3setIjNS_4lessIjEENS_9allocatorIjEEEEEE"
   ]
  },
  {
   "function_name" : "std::__1::__throw_bad_cast",
   "linker_set_key" : "_ZNSt3__116__throw_bad_castEv",
   "return_type" : "_ZTIv",
   "source_file" : "external/libcxx/include/typeinfo"
  },
  {
   "function_name" : "std::__1::__to_raw_pointer",
   "linker_set_key" : "_ZNSt3__116__to_raw_pointerINS_3setIjNS_4lessIjEENS_9allocatorIjEEEEEEPT_S8_",
   "parameters" :
   [
    {
     "referenced_type" : "_ZTIPNSt3__13setIjNS_4lessIjEENS_9allocatorIjEEEE"
    }
   ],
   "return_type" : "_ZTIPNSt3__13setIjNS_4lessIjEENS_9allocatorIjEEEE",
   "source_file" : "external/libcxx/include/memory",
   "template_args" : [ "_ZTINSt3__13setIjNS_4lessIjEENS_9allocatorIjEEEE" ]
  },
  {
   "function_name" : "std::__1::__tree_next_iter",
   "linker_set_key" : "_ZNSt3__116__tree_next_iterIPNS_15__tree_end_nodeIPNS_16__tree_node_baseIPvEEEES5_EET_T0_",
   "parameters" :
   [
    {
     "referenced_type" : "_ZTIPNSt3__116__tree_node_baseIPvEE"
    }
   ],
   "return_type" : "_ZTIPNSt3__115__tree_end_nodeIPNS_16__tree_node_baseIPvEEEE",
   "source_file" : "external/libcxx/include/__tree",
   "template_args" :
   [
    "_ZTIPNSt3__115__tree_end_nodeIPNS_16__tree_node_baseIPvEEEE",
    "_ZTIPNSt3__116__tree_node_baseIPvEE"
   ]
  },
  {
   "function_name" : "std::__1::__tree_node_base<void *>::__set_parent",
   "linker_set_key" : "_ZNSt3__116__tree_node_baseIPvE12__set_parentEPS2_",
   "parameters" :
   [
    {
     "is_this_ptr" : true,
     "referenced_type" : "_ZTIPNSt3__116__tree_node_baseIPvEE"
    },
    {
     "referenced_type" : "_ZTIPNSt3__116__tree_node_baseIPvEE"
    }
   ],
   "return_type" : "_ZTIv",
   "source_file" : "external/libcxx/include/__tree"
  },
  {
   "function_name" : "std::__1::__tree_prev_iter",
   "linker_set_key" : "_ZNSt3__116__tree_prev_iterIPNS_16__tree_node_baseIPvEEPNS_15__tree_end_nodeIS4_EEEET_T0_",
   "parameters" :
   [
    {
     "referenced_type" : "_ZTIPNSt3__115__tree_end_nodeIPNS_16__tree_node_baseIPvEEEE"
    }
   ],
   "return_type" : "_ZTIPNSt3__116__tree_node_baseIPvEE",
   "source_file" : "external/libcxx/include/__tree",
   "template_args" :
   [
    "_ZTIPNSt3__116__tree_node_baseIPvEE",
    "_ZTIPNSt3__115__tree_end_nodeIPNS_16__tree_node_baseIPvEEEE"
   ]
  },
  {
   "function_name" : "std::__1::allocator_traits<std::__1::allocator<std::__1::__tree_node<std::__1::set<unsigned int, std::__1::less<unsigned int>, std::__1::allocator<unsigned int>>, void *>>>::deallocate",
   "linker_set_key" : "_ZNSt3__116allocator_traitsINS_9allocatorINS_11__tree_nodeINS_3setIjNS_4lessIjEENS1_IjEEEEPvEEEEE10deallocateERSA_PS9_m",
   "parameters" :
   [
    {
     "referenced_type" : "_ZTIRNSt3__19allocatorINS_11__tree_nodeINS_3setIjNS_4lessIjEENS0_IjEEEEPvEEEE"
    },
    {
     "referenced_type" : "_ZTIPNSt3__111__tree_nodeINS_3setIjNS_4lessIjEENS_9allocatorIjEEEEPvEE"
    },
    {
     "referenced_type" : "_ZTIm"
    }
   ],
   "return_type" : "_ZTIv",
   "source_file" : "external/libcxx/include/memory"
  },
  {
   "access" : "private",
   "function_name" : "std::__1::allocator_traits<std::__1::allocator<std::__1::__tree_node<std::__1::set<unsigned int, std::__1::less<unsigned int>, std::__1::allocator<unsigned int>>, void *>>>::__construct",
   "linker_set_key" : "_ZNSt3__116allocator_traitsINS_9allocatorINS_11__tree_nodeINS_3setIjNS_4lessIjEENS1_IjEEEEPvEEEEE11__constructIS7_JRKS7_EEEvNS_17integral_constantIbLb1EEERSA_PT_DpOT0_",
   "parameters" :
   [
    {
     "referenced_type" : "_ZTINSt3__117integral_constantIbLb1EEE"
    },
    {
     "referenced_type" : "_ZTIRNSt3__19allocatorINS_11__tree_nodeINS_3setIjNS_4lessIjEENS0_IjEEEEPvEEEE"
    },
    {
     "referenced_type" : "_ZTIPNSt3__13setIjNS_4lessIjEENS_9allocatorIjEEEE"
    },
    {
     "referenced_type" : "_ZTIRKNSt3__13setIjNS_4lessIjEENS_9allocatorIjEEEE"
    }
   ],
   "return_type" : "_ZTIv",
   "source_file" : "external/libcxx/include/memory",
   "template_args" : [ "_ZTINSt3__13setIjNS_4lessIjEENS_9allocatorIjEEEE" ]
  },
  {
   "function_name" : "std::__1::allocator_traits<std::__1::allocator<std::__1::__tree_node<std::__1::set<unsigned int, std::__1::less<unsigned int>, std::__1::allocator<unsigned int>>, void *>>>::destroy",
   "linker_set_key" : "_ZNSt3__116allocator_traitsINS_9allocatorINS_11__tree_nodeINS_3setIjNS_4lessIjEENS1_IjEEEEPvEEEEE7destroyIS7_EEvRSA_PT_",
   "parameters" :
   [
    {
     "referenced_type" : "_ZTIRNSt3__19allocatorINS_11__tree_nodeINS_3setIjNS_4lessIjEENS0_IjEEEEPvEEEE"
    },
    {
     "referenced_type" : "_ZTIPNSt3__13setIjNS_4lessIjEENS_9allocatorIjEEEE"
    }
   ],
   "return_type" : "_ZTIv",
   "source_file" : "external/libcxx/include/memory",
   "template_args" : [ "_ZTINSt3__13setIjNS_4lessIjEENS_9allocatorIjEEEE" ]
  },
  {
   "function_name" : "std::__1::allocator_traits<std::__1::allocator<std::__1::__tree_node<std::__1::set<unsigned int, std::__1::less<unsigned int>, std::__1::allocator<unsigned int>>, void *>>>::allocate",
   "linker_set_key" : "_ZNSt3__116allocator_traitsINS_9allocatorINS_11__tree_nodeINS_3setIjNS_4lessIjEENS1_IjEEEEPvEEEEE8allocateERSA_m",
   "parameters" :
   [
    {
     "referenced_type" : "_ZTIRNSt3__19allocatorINS_11__tree_nodeINS_3setIjNS_4lessIjEENS0_IjEEEEPvEEEE"
    },
    {
     "referenced_type" : "_ZTIm"
    }
   ],
   "return_type" : "_ZTIPNSt3__111__tree_nodeINS_3setIjNS_4lessIjEENS_9allocatorIjEEEEPvEE",
   "source_file" : "external/libcxx/include/memory"
  },
  {
   "access" : "private",
   "function_name" : "std::__1::allocator_traits<std::__1::allocator<std::__1::__tree_node<std::__1::set<unsigned int, std::__1::less<unsigned int>, std::__1::allocator<unsigned int>>, void *>>>::__destroy",
   "linker_set_key" : "_ZNSt3__116allocator_traitsINS_9allocatorINS_11__tree_nodeINS_3setIjNS_4lessIjEENS1_IjEEEEPvEEEEE9__destroyIS7_EEvNS_17integral_constantIbLb0EEERSA_PT_",
   "parameters" :
   [
    {
     "referenced_type" : "_ZTINSt3__117integral_constantIbLb0EEE"
    },
    {
     "referenced_type" : "_ZTIRNSt3__19allocatorINS_11__tree_nodeINS_3setIjNS_4lessIjEENS0_IjEEEEPvEEEE"
    },
    {
     "referenced_type" : "_ZTIPNSt3__13setIjNS_4lessIjEENS_9allocatorIjEEEE"
    }
   ],
   "return_type" : "_ZTIv",
   "source_file" : "external/libcxx/include/memory",
   "template_args" : [ "_ZTINSt3__13setIjNS_4lessIjEENS_9allocatorIjEEEE" ]
  },
  {
   "function_name" : "std::__1::allocator_traits<std::__1::allocator<std::__1::__tree_node<std::__1::set<unsigned int, std::__1::less<unsigned int>, std::__1::allocator<unsigned int>>, void *>>>::construct",
   "linker_set_key" : "_ZNSt3__116allocator_traitsINS_9allocatorINS_11__tree_nodeINS_3setIjNS_4lessIjEENS1_IjEEEEPvEEEEE9constructIS7_JRKS7_EEEvRSA_PT_DpOT0_",
   "parameters" :
   [
    {
     "referenced_type" : "_ZTIRNSt3__19allocatorINS_11__tree_nodeINS_3setIjNS_4lessIjEENS0_IjEEEEPvEEEE"
    },
    {
     "referenced_type" : "_ZTIPNSt3__13setIjNS_4lessIjEENS_9allocatorIjEEEE"
    },
    {
     "referenced_type" : "_ZTIRKNSt3__13setIjNS_4lessIjEENS_9allocatorIjEEEE"
    }
   ],
   "return_type" : "_ZTIv",
   "source_file" : "external/libcxx/include/memory",
   "template_args" : [ "_ZTINSt3__13setIjNS_4lessIjEENS_9allocatorIjEEEE" ]
  },
  {
   "function_name" : "std::__1::allocator_traits<std::__1::allocator<std::__1::__tree_node<unsigned int, void *>>>::deallocate",
   "linker_set_key" : "_ZNSt3__116allocator_traitsINS_9allocatorINS_11__tree_nodeIjPvEEEEE10deallocateERS5_PS4_m",
   "parameters" :
   [
    {
     "referenced_type" : "_ZTIRNSt3__19allocatorINS_11__tree_nodeIjPvEEEE"
    },
    {
     "referenced_type" : "_ZTIPNSt3__111__tree_nodeIjPvEE"
    },
    {
     "referenced_type" : "_ZTIm"
    }
   ],
   "return_type" : "_ZTIv",
   "source_file" : "external/libcxx/include/memory"
  },
  {
   "access" : "private",
   "function_name" : "std::__1::allocator_traits<std::__1::allocator<std::__1::__tree_node<unsigned int, void *>>>::__construct",
   "linker_set_key" : "_ZNSt3__116allocator_traitsINS_9allocatorINS_11__tree_nodeIjPvEEEEE11__constructIjJRKjEEEvNS_17integral_constantIbLb1EEERS5_PT_DpOT0_",
   "parameters" :
   [
    {
     "referenced_type" : "_ZTINSt3__117integral_constantIbLb1EEE"
    },
    {
     "referenced_type" : "_ZTIRNSt3__19allocatorINS_11__tree_nodeIjPvEEEE"
    },
    {
     "referenced_type" : "_ZTIPj"
    },
    {
     "referenced_type" : "_ZTIRKj"
    }
   ],
   "return_type" : "_ZTIv",
   "source_file" : "external/libcxx/include/memory",
   "template_args" : [ "_ZTIj" ]
  },
  {
   "function_name" : "std::__1::allocator_traits<std::__1::allocator<std::__1::__tree_node<unsigned int, void *>>>::select_on_container_copy_construction",
   "linker_set_key" : "_ZNSt3__116allocator_traitsINS_9allocatorINS_11__tree_nodeIjPvEEEEE37select_on_container_copy_constructionERKS5_",
   "parameters" :
   [
    {
     "referenced_type" : "_ZTIRKNSt3__19allocatorINS_11__tree_nodeIjPvEEEE"
    }
   ],
   "return_type" : "_ZTINSt3__19allocatorINS_11__tree_nodeIjPvEEEE",
   "source_file" : "external/libcxx/include/memory"
  },
  {
   "access" : "private",
   "function_name" : "std::__1::allocator_traits<std::__1::allocator<std::__1::__tree_node<unsigned int, void *>>>::__select_on_container_copy_construction",
   "linker_set_key" : "_ZNSt3__116allocator_traitsINS_9allocatorINS_11__tree_nodeIjPvEEEEE39__select_on_container_copy_constructionENS_17integral_constantIbLb0EEERKS5_",
   "parameters" :
   [
    {
     "referenced_type" : "_ZTINSt3__117integral_constantIbLb0EEE"
    },
    {
     "referenced_type" : "_ZTIRKNSt3__19allocatorINS_11__tree_nodeIjPvEEEE"
    }
   ],
   "return_type" : "_ZTINSt3__19allocatorINS_11__tree_nodeIjPvEEEE",
   "source_file" : "external/libcxx/include/memory"
  },
  {
   "function_name" : "std::__1::allocator_traits<std::__1::allocator<std::__1::__tree_node<unsigned int, void *>>>::destroy",
   "linker_set_key" : "_ZNSt3__116allocator_traitsINS_9allocatorINS_11__tree_nodeIjPvEEEEE7destroyIjEEvRS5_PT_",
   "parameters" :
   [
    {
     "referenced_type" : "_ZTIRNSt3__19allocatorINS_11__tree_nodeIjPvEEEE"
    },
    {
     "referenced_type" : "_ZTIPj"
    }
   ],
   "return_type" : "_ZTIv",
   "source_file" : "external/libcxx/include/memory",
   "template_args" : [ "_ZTIj" ]
  },
  {
   "function_name" : "std::__1::allocator_traits<std::__1::allocator<std::__1::__tree_node<unsigned int, void *>>>::allocate",
   "linker_set_key" : "_ZNSt3__116allocator_traitsINS_9allocatorINS_11__tree_nodeIjPvEEEEE8allocateERS5_m",
   "parameters" :
   [
    {
     "referenced_type" : "_ZTIRNSt3__19allocatorINS_11__tree_nodeIjPvEEEE"
    },
    {
     "referenced_type" : "_ZTIm"
    }
   ],
   "return_type" : "_ZTIPNSt3__111__tree_nodeIjPvEE",
   "source_file" : "external/libcxx/include/memory"
  },
  {
   "access" : "private",
   "function_name" : "std::__1::allocator_traits<std::__1::allocator<std::__1::__tree_node<unsigned int, void *>>>::__destroy",
   "linker_set_key" : "_ZNSt3__116allocator_traitsINS_9allocatorINS_11__tree_nodeIjPvEEEEE9__destroyIjEEvNS_17integral_constantIbLb0EEERS5_PT_",
   "parameters" :
   [
    {
     "referenced_type" : "_ZTINSt3__117integral_constantIbLb0EEE"
    },
    {
     "referenced_type" : "_ZTIRNSt3__19allocatorINS_11__tree_nodeIjPvEEEE"
    },
    {
     "referenced_type" : "_ZTIPj"
    }
   ],
   "return_type" : "_ZTIv",
   "source_file" : "external/libcxx/include/memory",
   "template_args" : [ "_ZTIj" ]
  },
  {
   "function_name" : "std::__1::allocator_traits<std::__1::allocator<std::__1::__tree_node<unsigned int, void *>>>::construct",
   "linker_set_key" : "_ZNSt3__116allocator_traitsINS_9allocatorINS_11__tree_nodeIjPvEEEEE9constructIjJRKjEEEvRS5_PT_DpOT0_",
   "parameters" :
   [
    {
     "referenced_type" : "_ZTIRNSt3__19allocatorINS_11__tree_nodeIjPvEEEE"
    },
    {
     "referenced_type" : "_ZTIPj"
    },
    {
     "referenced_type" : "_ZTIRKj"
    }
   ],
   "return_type" : "_ZTIv",
   "source_file" : "external/libcxx/include/memory",
   "template_args" : [ "_ZTIj" ]
  },
  {
   "access" : "private",
   "function_name" : "std::__1::allocator_traits<std::__1::allocator<std::__1::set<unsigned int, std::__1::less<unsigned int>, std::__1::allocator<unsigned int>>>>::__max_size",
   "linker_set_key" : "_ZNSt3__116allocator_traitsINS_9allocatorINS_3setIjNS_4lessIjEENS1_IjEEEEEEE10__max_sizeENS_17integral_constantIbLb1EEERKS7_",
   "parameters" :
   [
    {
     "referenced_type" : "_ZTINSt3__117integral_constantIbLb1EEE"
    },
    {
     "referenced_type" : "_ZTIRKNSt3__19allocatorINS_3setIjNS_4lessIjEENS0_IjEEEEEE"
    }
   ],
   "return_type" : "_ZTIm",
   "source_file" : "external/libcxx/include/memory"
  },
  {
   "function_name" : "std::__1::allocator_traits<std::__1::allocator<std::__1::set<unsigned int, std::__1::less<unsigned int>, std::__1::allocator<unsigned int>>>>::deallocate",
   "linker_set_key" : "_ZNSt3__116allocator_traitsINS_9allocatorINS_3setIjNS_4lessIjEENS1_IjEEEEEEE10deallocateERS7_PS6_m",
   "parameters" :
   [
    {
     "referenced_type" : "_ZTIRNSt3__19allocatorINS_3setIjNS_4lessIjEENS0_IjEEEEEE"
    },
    {
     "referenced_type" : "_ZTIPNSt3__13setIjNS_4lessIjEENS_9allocatorIjEEEE"
    },
    {
     "referenced_type" : "_ZTIm"
    }
   ],
   "return_type" : "_ZTIv",
   "source_file" : "external/libcxx/include/memory"
  },
  {
   "access" : "private",
   "function_name" : "std::__1::allocator_traits<std::__1::allocator<std::__1::set<unsigned int, std::__1::less<unsigned int>, std::__1::allocator<unsigned int>>>>::__construct",
   "linker_set_key" : "_ZNSt3__116allocator_traitsINS_9allocatorINS_3setIjNS_4lessIjEENS1_IjEEEEEEE11__constructIS6_JRKS6_EEEvNS_17integral_constantIbLb1EEERS7_PT_DpOT0_",
   "parameters" :
   [
    {
     "referenced_type" : "_ZTINSt3__117integral_constantIbLb1EEE"
    },
    {
     "referenced_type" : "_ZTIRNSt3__19allocatorINS_3setIjNS_4lessIjEENS0_IjEEEEEE"
    },
    {
     "referenced_type" : "_ZTIPNSt3__13setIjNS_4lessIjEENS_9allocatorIjEEEE"
    },
    {
     "referenced_type" : "_ZTIRKNSt3__13setIjNS_4lessIjEENS_9allocatorIjEEEE"
    }
   ],
   "return_type" : "_ZTIv",
   "source_file" : "external/libcxx/include/memory",
   "template_args" : [ "_ZTINSt3__13setIjNS_4lessIjEENS_9allocatorIjEEEE" ]
  },
  {
   "access" : "private",
   "function_name" : "std::__1::allocator_traits<std::__1::allocator<std::__1::set<unsigned int, std::__1::less<unsigned int>, std::__1::allocator<unsigned int>>>>::__construct",
   "linker_set_key" : "_ZNSt3__116allocator_traitsINS_9allocatorINS_3setIjNS_4lessIjEENS1_IjEEEEEEE11__constructIS6_JS6_EEEvNS_17integral_constantIbLb1EEERS7_PT_DpOT0_",
   "parameters" :
   [
    {
     "referenced_type" : "_ZTINSt3__117integral_constantIbLb1EEE"
    },
    {
     "referenced_type" : "_ZTIRNSt3__19allocatorINS_3setIjNS_4lessIjEENS0_IjEEEEEE"
    },
    {
     "referenced_type" : "_ZTIPNSt3__13setIjNS_4lessIjEENS_9allocatorIjEEEE"
    },
    {
     "referenced_type" : "_ZTIONSt3__13setIjNS_4lessIjEENS_9allocatorIjEEEE"
    }
   ],
   "return_type" : "_ZTIv",
   "source_file" : "external/libcxx/include/memory",
   "template_args" : [ "_ZTINSt3__13setIjNS_4lessIjEENS_9allocatorIjEEEE" ]
  },
  {
   "function_name" : "std::__1::allocator_traits<std::__1::allocator<std::__1::set<unsigned int, std::__1::less<unsigned int>, std::__1::allocator<unsigned int>>>>::__construct_forward",
   "linker_set_key" : "_ZNSt3__116allocator_traitsINS_9allocatorINS_3setIjNS_4lessIjEENS1_IjEEEEEEE19__construct_forwardIPS6_EEvRS7_T_SC_RSC_",
   "parameters" :
   [
    {
     "referenced_type" : "_ZTIRNSt3__19allocatorINS_3setIjNS_4lessIjEENS0_IjEEEEEE"
    },
    {
     "referenced_type" : "_ZTIPNSt3__13setIjNS_4lessIjEENS_9allocatorIjEEEE"
    },
    {
     "referenced_type" : "_ZTIPNSt3__13setIjNS_4lessIjEENS_9allocatorIjEEEE"
    },
    {
     "referenced_type" : "_ZTIRPNSt3__13setIjNS_4lessIjEENS_9allocatorIjEEEE"
    }
   ],
   "return_type" : "_ZTIv",
   "source_file" : "external/libcxx/include/memory",
   "template_args" : [ "_ZTIPNSt3__13setIjNS_4lessIjEENS_9allocatorIjEEEE" ]
  },
  {
   "function_name" : "std::__1::allocator_traits<std::__1::allocator<std::__1::set<unsigned int, std::__1::less<unsigned int>, std::__1::allocator<unsigned int>>>>::__construct_backward",
   "linker_set_key" : "_ZNSt3__116allocator_traitsINS_9allocatorINS_3setIjNS_4lessIjEENS1_IjEEEEEEE20__construct_backwardIPS6_EEvRS7_T_SC_RSC_",
   "parameters" :
   [
    {
     "referenced_type" : "_ZTIRNSt3__19allocatorINS_3setIjNS_4lessIjEENS0_IjEEEEEE"
    },
    {
     "referenced_type" : "_ZTIPNSt3__13setIjNS_4lessIjEENS_9allocatorIjEEEE"
    },
    {
     "referenced_type" : "_ZTIPNSt3__13setIjNS_4lessIjEENS_9allocatorIjEEEE"
    },
    {
     "referenced_type" : "_ZTIRPNSt3__13setIjNS_4lessIjEENS_9allocatorIjEEEE"
    }
   ],
   "return_type" : "_ZTIv",
   "source_file" : "external/libcxx/include/memory",
   "template_args" : [ "_ZTIPNSt3__13setIjNS_4lessIjEENS_9allocatorIjEEEE" ]
  },
  {
   "function_name" : "std::__1::allocator_traits<std::__1::allocator<std::__1::set<unsigned int, std::__1::less<unsigned int>, std::__1::allocator<unsigned int>>>>::__construct_range_forward",
   "linker_set_key" : "_ZNSt3__116allocator_traitsINS_9allocatorINS_3setIjNS_4lessIjEENS1_IjEEEEEEE25__construct_range_forwardINS_11__wrap_iterIPKS6_EEPS6_EEvRS7_T_SG_RT0_",
   "parameters" :
   [
    {
     "referenced_type" : "_ZTIRNSt3__19allocatorINS_3setIjNS_4lessIjEENS0_IjEEEEEE"
    },
    {
     "referenced_type" : "_ZTINSt3__111__wrap_iterIPKNS_3setIjNS_4lessIjEENS_9allocatorIjEEEEEE"
    },
    {
     "referenced_type" : "_ZTINSt3__111__wrap_iterIPKNS_3setIjNS_4lessIjEENS_9allocatorIjEEEEEE"
    },
    {
     "referenced_type" : "_ZTIRPNSt3__13setIjNS_4lessIjEENS_9allocatorIjEEEE"
    }
   ],
   "return_type" : "_ZTIv",
   "source_file" : "external/libcxx/include/memory",
   "template_args" :
   [
    "_ZTINSt3__111__wrap_iterIPKNS_3setIjNS_4lessIjEENS_9allocatorIjEEEEEE",
    "_ZTIPNSt3__13setIjNS_4lessIjEENS_9allocatorIjEEEE"
   ]
  },
  {
   "function_name" : "std::__1::allocator_traits<std::__1::allocator<std::__1::set<unsigned int, std::__1::less<unsigned int>, std::__1::allocator<unsigned int>>>>::destroy",
   "linker_set_key" : "_ZNSt3__116allocator_traitsINS_9allocatorINS_3setIjNS_4lessIjEENS1_IjEEEEEEE7destroyIS6_EEvRS7_PT_",
   "parameters" :
   [
    {
     "referenced_type" : "_ZTIRNSt3__19allocatorINS_3setIjNS_4lessIjEENS0_IjEEEEEE"
    },
    {
     "referenced_type" : "_ZTIPNSt3__13setIjNS_4lessIjEENS_9allocatorIjEEEE"
    }
   ],
   "return_type" : "_ZTIv",
   "source_file" : "external/libcxx/include/memory",
   "template_args" : [ "_ZTINSt3__13setIjNS_4lessIjEENS_9allocatorIjEEEE" ]
  },
  {
   "function_name" : "std::__1::allocator_traits<std::__1::allocator<std::__1::set<unsigned int, std::__1::less<unsigned int>, std::__1::allocator<unsigned int>>>>::allocate",
   "linker_set_key" : "_ZNSt3__116allocator_traitsINS_9allocatorINS_3setIjNS_4lessIjEENS1_IjEEEEEEE8allocateERS7_m",
   "parameters" :
   [
    {
     "referenced_type" : "_ZTIRNSt3__19allocatorINS_3setIjNS_4lessIjEENS0_IjEEEEEE"
    },
    {
     "referenced_type" : "_ZTIm"
    }
   ],
   "return_type" : "_ZTIPNSt3__13setIjNS_4lessIjEENS_9allocatorIjEEEE",
   "source_file" : "external/libcxx/include/memory"
  },
  {
   "function_name" : "std::__1::allocator_traits<std::__1::allocator<std::__1::set<unsigned int, std::__1::less<unsigned int>, std::__1::allocator<unsigned int>>>>::max_size",
   "linker_set_key" : "_ZNSt3__116allocator_traitsINS_9allocatorINS_3setIjNS_4lessIjEENS1_IjEEEEEEE8max_sizeERKS7_",
   "parameters" :
   [
    {
     "referenced_type" : "_ZTIRKNSt3__19allocatorINS_3setIjNS_4lessIjEENS0_IjEEEEEE"
    }
   ],
   "return_type" : "_ZTIm",
   "source_file" : "external/libcxx/include/memory"
  },
  {
   "access" : "private",
   "function_name" : "std::__1::allocator_traits<std::__1::allocator<std::__1::set<unsigned int, std::__1::less<unsigned int>, std::__1::allocator<unsigned int>>>>::__destroy",
   "linker_set_key" : "_ZNSt3__116allocator_traitsINS_9allocatorINS_3setIjNS_4lessIjEENS1_IjEEEEEEE9__destroyIS6_EEvNS_17integral_constantIbLb1EEERS7_PT_",
   "parameters" :
   [
    {
     "referenced_type" : "_ZTINSt3__117integral_constantIbLb1EEE"
    },
    {
     "referenced_type" : "_ZTIRNSt3__19allocatorINS_3setIjNS_4lessIjEENS0_IjEEEEEE"
    },
    {
     "referenced_type" : "_ZTIPNSt3__13setIjNS_4lessIjEENS_9allocatorIjEEEE"
    }
   ],
   "return_type" : "_ZTIv",
   "source_file" : "external/libcxx/include/memory",
   "template_args" : [ "_ZTINSt3__13setIjNS_4lessIjEENS_9allocatorIjEEEE" ]
  },
  {
   "function_name" : "std::__1::allocator_traits<std::__1::allocator<std::__1::set<unsigned int, std::__1::less<unsigned int>, std::__1::allocator<unsigned int>>>>::construct",
   "linker_set_key" : "_ZNSt3__116allocator_traitsINS_9allocatorINS_3setIjNS_4lessIjEENS1_IjEEEEEEE9constructIS6_JRKS6_EEEvRS7_PT_DpOT0_",
   "parameters" :
   [
    {
     "referenced_type" : "_ZTIRNSt3__19allocatorINS_3setIjNS_4lessIjEENS0_IjEEEEEE"
    },
    {
     "referenced_type" : "_ZTIPNSt3__13setIjNS_4lessIjEENS_9allocatorIjEEEE"
    },
    {
     "referenced_type" : "_ZTIRKNSt3__13setIjNS_4lessIjEENS_9allocatorIjEEEE"
    }
   ],
   "return_type" : "_ZTIv",
   "source_file" : "external/libcxx/include/memory",
   "template_args" : [ "_ZTINSt3__13setIjNS_4lessIjEENS_9allocatorIjEEEE" ]
  },
  {
   "function_name" : "std::__1::allocator_traits<std::__1::allocator<std::__1::set<unsigned int, std::__1::less<unsigned int>, std::__1::allocator<unsigned int>>>>::construct",
   "linker_set_key" : "_ZNSt3__116allocator_traitsINS_9allocatorINS_3setIjNS_4lessIjEENS1_IjEEEEEEE9constructIS6_JS6_EEEvRS7_PT_DpOT0_",
   "parameters" :
   [
    {
     "referenced_type" : "_ZTIRNSt3__19allocatorINS_3setIjNS_4lessIjEENS0_IjEEEEEE"
    },
    {
     "referenced_type" : "_ZTIPNSt3__13setIjNS_4lessIjEENS_9allocatorIjEEEE"
    },
    {
     "referenced_type" : "_ZTIONSt3__13setIjNS_4lessIjEENS_9allocatorIjEEEE"
    }
   ],
   "return_type" : "_ZTIv",
   "source_file" : "external/libcxx/include/memory",
   "template_args" : [ "_ZTINSt3__13setIjNS_4lessIjEENS_9allocatorIjEEEE" ]
  },
  {
   "function_name" : "std::__1::move_if_noexcept",
   "linker_set_key" : "_ZNSt3__116move_if_noexceptINS_3setIjNS_4lessIjEENS_9allocatorIjEEEEEENS_11conditionalIXaantsr29is_nothrow_move_constructibleIT_EE5valuesr21is_copy_constructibleIS8_EE5valueERKS8_OS8_E4typeERS8_",
   "parameters" :
   [
    {
     "referenced_type" : "_ZTIRNSt3__13setIjNS_4lessIjEENS_9allocatorIjEEEE"
    }
   ],
   "return_type" : "_ZTIONSt3__13setIjNS_4lessIjEENS_9allocatorIjEEEE",
   "source_file" : "external/libcxx/include/utility",
   "template_args" : [ "_ZTINSt3__13setIjNS_4lessIjEENS_9allocatorIjEEEE" ]
  },
  {
   "access" : "private",
   "function_name" : "std::__1::_DeallocateCaller::__do_deallocate_handle_size",
   "linker_set_key" : "_ZNSt3__117_DeallocateCaller27__do_deallocate_handle_sizeEPvm",
   "parameters" :
   [
    {
     "referenced_type" : "_ZTIPv"
    },
    {
     "referenced_type" : "_ZTIm"
    }
   ],
   "return_type" : "_ZTIv",
   "source_file" : "external/libcxx/include/new"
  },
  {
   "function_name" : "std::__1::_DeallocateCaller::__do_deallocate_handle_align",
   "linker_set_key" : "_ZNSt3__117_DeallocateCaller28__do_deallocate_handle_alignEPvm",
   "parameters" :
   [
    {
     "referenced_type" : "_ZTIPv"
    },
    {
     "referenced_type" : "_ZTIm"
    }
   ],
   "return_type" : "_ZTIv",
   "source_file" : "external/libcxx/include/new"
  },
  {
   "function_name" : "std::__1::_DeallocateCaller::__do_deallocate_handle_size_align",
   "linker_set_key" : "_ZNSt3__117_DeallocateCaller33__do_deallocate_handle_size_alignEPvmm",
   "parameters" :
   [
    {
     "referenced_type" : "_ZTIPv"
    },
    {
     "referenced_type" : "_ZTIm"
    },
    {
     "referenced_type" : "_ZTIm"
    }
   ],
   "return_type" : "_ZTIv",
   "source_file" : "external/libcxx/include/new"
  },
  {
   "access" : "private",
   "function_name" : "std::__1::_DeallocateCaller::__do_call",
   "linker_set_key" : "_ZNSt3__117_DeallocateCaller9__do_callEPv",
   "parameters" :
   [
    {
     "referenced_type" : "_ZTIPv"
    }
   ],
   "return_type" : "_ZTIv",
   "source_file" : "external/libcxx/include/new"
  },
  {
   "function_name" : "std::__1::__compressed_pair<std::__1::__tree_end_node<std::__1::__tree_node_base<void *> *>, std::__1::allocator<std::__1::__tree_node<std::__1::set<unsigned int, std::__1::less<unsigned int>, std::__1::allocator<unsigned int>>, void *>>>::first",
   "linker_set_key" : "_ZNSt3__117__compressed_pairINS_15__tree_end_nodeIPNS_16__tree_node_baseIPvEEEENS_9allocatorINS_11__tree_nodeINS_3setIjNS_4lessIjEENS7_IjEEEES3_EEEEE5firstEv",
   "parameters" :
   [
    {
     "is_this_ptr" : true,
     "referenced_type" : "_ZTIPNSt3__117__compressed_pairINS_15__tree_end_nodeIPNS_16__tree_node_baseIPvEEEENS_9allocatorINS_11__tree_nodeINS_3setIjNS_4lessIjEENS7_IjEEEES3_EEEEEE"
    }
   ],
   "return_type" : "_ZTIRNSt3__115__tree_end_nodeIPNS_16__tree_node_baseIPvEEEE",
   "source_file" : "external/libcxx/include/memory"
  },
  {
   "function_name" : "std::__1::__compressed_pair<std::__1::__tree_end_node<std::__1::__tree_node_base<void *> *>, std::__1::allocator<std::__1::__tree_node<std::__1::set<unsigned int, std::__1::less<unsigned int>, std::__1::allocator<unsigned int>>, void *>>>::second",
   "linker_set_key" : "_ZNSt3__117__compressed_pairINS_15__tree_end_nodeIPNS_16__tree_node_baseIPvEEEENS_9allocatorINS_11__tree_nodeINS_3setIjNS_4lessIjEENS7_IjEEEES3_EEEEE6secondEv",
   "parameters" :
   [
    {
     "is_this_ptr" : true,
     "referenced_type" : "_ZTIPNSt3__117__compressed_pairINS_15__tree_end_nodeIPNS_16__tree_node_baseIPvEEEENS_9allocatorINS_11__tree_nodeINS_3setIjNS_4lessIjEENS7_IjEEEES3_EEEEEE"
    }
   ],
   "return_type" : "_ZTIRNSt3__19allocatorINS_11__tree_nodeINS_3setIjNS_4lessIjEENS0_IjEEEEPvEEEE",
   "source_file" : "external/libcxx/include/memory"
  },
  {
   "function_name" : "std::__1::__compressed_pair<std::__1::__tree_end_node<std::__1::__tree_node_base<void *> *>, std::__1::allocator<std::__1::__tree_node<unsigned int, void *>>>::first",
   "linker_set_key" : "_ZNSt3__117__compressed_pairINS_15__tree_end_nodeIPNS_16__tree_node_baseIPvEEEENS_9allocatorINS_11__tree_nodeIjS3_EEEEE5firstEv",
   "parameters" :
   [
    {
     "is_this_ptr" : true,
     "referenced_type" : "_ZTIPNSt3__117__compressed_pairINS_15__tree_end_nodeIPNS_16__tree_node_baseIPvEEEENS_9allocatorINS_11__tree_nodeIjS3_EEEEEE"
    }
   ],
   "return_type" : "_ZTIRNSt3__115__tree_end_nodeIPNS_16__tree_node_baseIPvEEEE",
   "source_file" : "external/libcxx/include/memory"
  },
  {
   "function_name" : "std::__1::__compressed_pair<std::__1::__tree_end_node<std::__1::__tree_node_base<void *> *>, std::__1::allocator<std::__1::__tree_node<unsigned int, void *>>>::second",
   "linker_set_key" : "_ZNSt3__117__compressed_pairINS_15__tree_end_nodeIPNS_16__tree_node_baseIPvEEEENS_9allocatorINS_11__tree_nodeIjS3_EEEEE6secondEv",
   "parameters" :
   [
    {
     "is_this_ptr" : true,
     "referenced_type" : "_ZTIPNSt3__117__compressed_pairINS_15__tree_end_nodeIPNS_16__tree_node_baseIPvEEEENS_9allocatorINS_11__tree_nodeIjS3_EEEEEE"
    }
   ],
   "return_type" : "_ZTIRNSt3__19allocatorINS_11__tree_nodeIjPvEEEE",
   "source_file" : "external/libcxx/include/memory"
  },
  {
   "function_name" : "std::__1::__compressed_pair<std::__1::__tree_end_node<std::__1::__tree_node_base<void *> *>, std::__1::allocator<std::__1::__tree_node<unsigned int, void *>>>::__compressed_pair",
   "linker_set_key" : "_ZNSt3__117__compressed_pairINS_15__tree_end_nodeIPNS_16__tree_node_baseIPvEEEENS_9allocatorINS_11__tree_nodeIjS3_EEEEEC1ILb1EvEEv",
   "parameters" :
   [
    {
     "is_this_ptr" : true,
     "referenced_type" : "_ZTIPNSt3__117__compressed_pairINS_15__tree_end_nodeIPNS_16__tree_node_baseIPvEEEENS_9allocatorINS_11__tree_nodeIjS3_EEEEEE"
    }
   ],
   "return_type" : "_ZTIv",
   "source_file" : "external/libcxx/include/memory",
   "template_args" : [ "_ZTIv" ]
  },
  {
   "function_name" : "std::__1::__compressed_pair<std::__1::__tree_end_node<std::__1::__tree_node_base<void *> *>, std::__1::allocator<std::__1::__tree_node<unsigned int, void *>>>::__compressed_pair",
   "linker_set_key" : "_ZNSt3__117__compressed_pairINS_15__tree_end_nodeIPNS_16__tree_node_baseIPvEEEENS_9allocatorINS_11__tree_nodeIjS3_EEEEEC1ISA_EENS_12__second_tagEOT_",
   "parameters" :
   [
    {
     "is_this_ptr" : true,
     "referenced_type" : "_ZTIPNSt3__117__compressed_pairINS_15__tree_end_nodeIPNS_16__tree_node_baseIPvEEEENS_9allocatorINS_11__tree_nodeIjS3_EEEEEE"
    },
    {
     "referenced_type" : "_ZTINSt3__112__second_tagE"
    },
    {
     "referenced_type" : "_ZTIONSt3__19allocatorINS_11__tree_nodeIjPvEEEE"
    }
   ],
   "return_type" : "_ZTIv",
   "source_file" : "external/libcxx/include/memory",
   "template_args" : [ "_ZTINSt3__19allocatorINS_11__tree_nodeIjPvEEEE" ]
  },
  {
   "function_name" : "std::__1::__compressed_pair<std::__1::__tree_end_node<std::__1::__tree_node_base<void *> *>, std::__1::allocator<std::__1::__tree_node<unsigned int, void *>>>::__compressed_pair",
   "linker_set_key" : "_ZNSt3__117__compressed_pairINS_15__tree_end_nodeIPNS_16__tree_node_baseIPvEEEENS_9allocatorINS_11__tree_nodeIjS3_EEEEEC2ILb1EvEEv",
   "parameters" :
   [
    {
     "is_this_ptr" : true,
     "referenced_type" : "_ZTIPNSt3__117__compressed_pairINS_15__tree_end_nodeIPNS_16__tree_node_baseIPvEEEENS_9allocatorINS_11__tree_nodeIjS3_EEEEEE"
    }
   ],
   "return_type" : "_ZTIv",
   "source_file" : "external/libcxx/include/memory",
   "template_args" : [ "_ZTIv" ]
  },
  {
   "function_name" : "std::__1::__compressed_pair<std::__1::__tree_end_node<std::__1::__tree_node_base<void *> *>, std::__1::allocator<std::__1::__tree_node<unsigned int, void *>>>::__compressed_pair",
   "linker_set_key" : "_ZNSt3__117__compressed_pairINS_15__tree_end_nodeIPNS_16__tree_node_baseIPvEEEENS_9allocatorINS_11__tree_nodeIjS3_EEEEEC2ISA_EENS_12__second_tagEOT_",
   "parameters" :
   [
    {
     "is_this_ptr" : true,
     "referenced_type" : "_ZTIPNSt3__117__compressed_pairINS_15__tree_end_nodeIPNS_16__tree_node_baseIPvEEEENS_9allocatorINS_11__tree_nodeIjS3_EEEEEE"
    },
    {
     "referenced_type" : "_ZTINSt3__112__second_tagE"
    },
    {
     "referenced_type" : "_ZTIONSt3__19allocatorINS_11__tree_nodeIjPvEEEE"
    }
   ],
   "return_type" : "_ZTIv",
   "source_file" : "external/libcxx/include/memory",
   "template_args" : [ "_ZTINSt3__19allocatorINS_11__tree_nodeIjPvEEEE" ]
  },
  {
   "function_name" : "std::__1::__compressed_pair<std::__1::__tree_node<std::__1::set<unsigned int, std::__1::less<unsigned int>, std::__1::allocator<unsigned int>>, void *> *, std::__1::__tree_node_destructor<std::__1::allocator<std::__1::__tree_node<std::__1::set<unsigned int, std::__1::less<unsigned int>, std::__1::allocator<unsigned int>>, void *>>>>::first",
   "linker_set_key" : "_ZNSt3__117__compressed_pairIPNS_11__tree_nodeINS_3setIjNS_4lessIjEENS_9allocatorIjEEEEPvEENS_22__tree_node_destructorINS5_IS9_EEEEE5firstEv",
   "parameters" :
   [
    {
     "is_this_ptr" : true,
     "referenced_type" : "_ZTIPNSt3__117__compressed_pairIPNS_11__tree_nodeINS_3setIjNS_4lessIjEENS_9allocatorIjEEEEPvEENS_22__tree_node_destructorINS5_IS9_EEEEEE"
    }
   ],
   "return_type" : "_ZTIRPNSt3__111__tree_nodeINS_3setIjNS_4lessIjEENS_9allocatorIjEEEEPvEE",
   "source_file" : "external/libcxx/include/memory"
  },
  {
   "function_name" : "std::__1::__compressed_pair<std::__1::__tree_node<std::__1::set<unsigned int, std::__1::less<unsigned int>, std::__1::allocator<unsigned int>>, void *> *, std::__1::__tree_node_destructor<std::__1::allocator<std::__1::__tree_node<std::__1::set<unsigned int, std::__1::less<unsigned int>, std::__1::allocator<unsigned int>>, void *>>>>::second",
   "linker_set_key" : "_ZNSt3__117__compressed_pairIPNS_11__tree_nodeINS_3setIjNS_4lessIjEENS_9allocatorIjEEEEPvEENS_22__tree_node_destructorINS5_IS9_EEEEE6secondEv",
   "parameters" :
   [
    {
     "is_this_ptr" : true,
     "referenced_type" : "_ZTIPNSt3__117__compressed_pairIPNS_11__tree_nodeINS_3setIjNS_4lessIjEENS_9allocatorIjEEEEPvEENS_22__tree_node_destructorINS5_IS9_EEEEEE"
    }
   ],
   "return_type" : "_ZTIRNSt3__122__tree_node_destructorINS_9allocatorINS_11__tree_nodeINS_3setIjNS_4lessIjEENS1_IjEEEEPvEEEEEE",
   "source_file" : "external/libcxx/include/memory"
  },
  {
   "function_name" : "std::__1::__compressed_pair<std::__1::__tree_node<std::__1::set<unsigned int, std::__1::less<unsigned int>, std::__1::allocator<unsigned int>>, void *> *, std::__1::__tree_node_destructor<std::__1::allocator<std::__1::__tree_node<std::__1::set<unsigned int, std::__1::less<unsigned int>, std::__1::allocator<unsigned int>>, void *>>>>::__compressed_pair",
   "linker_set_key" : "_ZNSt3__117__compressed_pairIPNS_11__tree_nodeINS_3setIjNS_4lessIjEENS_9allocatorIjEEEEPvEENS_22__tree_node_destructorINS5_IS9_EEEEEC1IRSA_SD_EEOT_OT0_",
   "parameters" :
   [
    {
     "is_this_ptr" : true,
     "referenced_type" : "_ZTIPNSt3__117__compressed_pairIPNS_11__tree_nodeINS_3setIjNS_4lessIjEENS_9allocatorIjEEEEPvEENS_22__tree_node_destructorINS5_IS9_EEEEEE"
    },
    {
     "referenced_type" : "_ZTIRPNSt3__111__tree_nodeINS_3setIjNS_4lessIjEENS_9allocatorIjEEEEPvEE"
    },
    {
     "referenced_type" : "_ZTIONSt3__122__tree_node_destructorINS_9allocatorINS_11__tree_nodeINS_3setIjNS_4lessIjEENS1_IjEEEEPvEEEEEE"
    }
   ],
   "return_type" : "_ZTIv",
   "source_file" : "external/libcxx/include/memory",
   "template_args" :
   [
    "_ZTIRPNSt3__111__tree_nodeINS_3setIjNS_4lessIjEENS_9allocatorIjEEEEPvEE",
    "_ZTINSt3__122__tree_node_destructorINS_9allocatorINS_11__tree_nodeINS_3setIjNS_4lessIjEENS1_IjEEEEPvEEEEEE"
   ]
  },
  {
   "function_name" : "std::__1::__compressed_pair<std::__1::__tree_node<std::__1::set<unsigned int, std::__1::less<unsigned int>, std::__1::allocator<unsigned int>>, void *> *, std::__1::__tree_node_destructor<std::__1::allocator<std::__1::__tree_node<std::__1::set<unsigned int, std::__1::less<unsigned int>, std::__1::allocator<unsigned int>>, void *>>>>::__compressed_pair",
   "linker_set_key" : "_ZNSt3__117__compressed_pairIPNS_11__tree_nodeINS_3setIjNS_4lessIjEENS_9allocatorIjEEEEPvEENS_22__tree_node_destructorINS5_IS9_EEEEEC1ISA_SD_EEOT_OT0_",
   "parameters" :
   [
    {
     "is_this_ptr" : true,
     "referenced_type" : "_ZTIPNSt3__117__compressed_pairIPNS_11__tree_nodeINS_3setIjNS_4lessIjEENS_9allocatorIjEEEEPvEENS_22__tree_node_destructorINS5_IS9_EEEEEE"
    },
    {
     "referenced_type" : "_ZTIOPNSt3__111__tree_nodeINS_3setIjNS_4lessIjEENS_9allocatorIjEEEEPvEE"
    },
    {
     "referenced_type" : "_ZTIONSt3__122__tree_node_destructorINS_9allocatorINS_11__tree_nodeINS_3setIjNS_4lessIjEENS1_IjEEEEPvEEEEEE"
    }
   ],
   "return_type" : "_ZTIv",
   "source_file" : "external/libcxx/include/memory",
   "template_args" :
   [
    "_ZTIPNSt3__111__tree_nodeINS_3setIjNS_4lessIjEENS_9allocatorIjEEEEPvEE",
    "_ZTINSt3__122__tree_node_destructorINS_9allocatorINS_11__tree_nodeINS_3setIjNS_4lessIjEENS1_IjEEEEPvEEEEEE"
   ]
  },
  {
   "function_name" : "std::__1::__compressed_pair<std::__1::__tree_node<std::__1::set<unsigned int, std::__1::less<unsigned int>, std::__1::allocator<unsigned int>>, void *> *, std::__1::__tree_node_destructor<std::__1::allocator<std::__1::__tree_node<std::__1::set<unsigned int, std::__1::less<unsigned int>, std::__1::allocator<unsigned int>>, void *>>>>::__compressed_pair",
   "linker_set_key" : "_ZNSt3__117__compressed_pairIPNS_11__tree_nodeINS_3setIjNS_4lessIjEENS_9allocatorIjEEEEPvEENS_22__tree_node_destructorINS5_IS9_EEEEEC2IRSA_SD_EEOT_OT0_",
   "parameters" :
   [
    {
     "is_this_ptr" : true,
     "referenced_type" : "_ZTIPNSt3__117__compressed_pairIPNS_11__tree_nodeINS_3setIjNS_4lessIjEENS_9allocatorIjEEEEPvEENS_22__tree_node_destructorINS5_IS9_EEEEEE"
    },
    {
     "referenced_type" : "_ZTIRPNSt3__111__tree_nodeINS_3setIjNS_4lessIjEENS_9allocatorIjEEEEPvEE"
    },
    {
     "referenced_type" : "_ZTIONSt3__122__tree_node_destructorINS_9allocatorINS_11__tree_nodeINS_3setIjNS_4lessIjEENS1_IjEEEEPvEEEEEE"
    }
   ],
   "return_type" : "_ZTIv",
   "source_file" : "external/libcxx/include/memory",
   "template_args" :
   [
    "_ZTIRPNSt3__111__tree_nodeINS_3setIjNS_4lessIjEENS_9allocatorIjEEEEPvEE",
    "_ZTINSt3__122__tree_node_destructorINS_9allocatorINS_11__tree_nodeINS_3setIjNS_4lessIjEENS1_IjEEEEPvEEEEEE"
   ]
  },
  {
   "function_name" : "std::__1::__compressed_pair<std::__1::__tree_node<std::__1::set<unsigned int, std::__1::less<unsigned int>, std::__1::allocator<unsigned int>>, void *> *, std::__1::__tree_node_destructor<std::__1::allocator<std::__1::__tree_node<std::__1::set<unsigned int, std::__1::less<unsigned int>, std::__1::allocator<unsigned int>>, void *>>>>::__compressed_pair",
   "linker_set_key" : "_ZNSt3__117__compressed_pairIPNS_11__tree_nodeINS_3setIjNS_4lessIjEENS_9allocatorIjEEEEPvEENS_22__tree_node_destructorINS5_IS9_EEEEEC2ISA_SD_EEOT_OT0_",
   "parameters" :
   [
    {
     "is_this_ptr" : true,
     "referenced_type" : "_ZTIPNSt3__117__compressed_pairIPNS_11__tree_nodeINS_3setIjNS_4lessIjEENS_9allocatorIjEEEEPvEENS_22__tree_node_destructorINS5_IS9_EEEEEE"
    },
    {
     "referenced_type" : "_ZTIOPNSt3__111__tree_nodeINS_3setIjNS_4lessIjEENS_9allocatorIjEEEEPvEE"
    },
    {
     "referenced_type" : "_ZTIONSt3__122__tree_node_destructorINS_9allocatorINS_11__tree_nodeINS_3setIjNS_4lessIjEENS1_IjEEEEPvEEEEEE"
    }
   ],
   "return_type" : "_ZTIv",
   "source_file" : "external/libcxx/include/memory",
   "template_args" :
   [
    "_ZTIPNSt3__111__tree_nodeINS_3setIjNS_4lessIjEENS_9allocatorIjEEEEPvEE",
    "_ZTINSt3__122__tree_node_destructorINS_9allocatorINS_11__tree_nodeINS_3setIjNS_4lessIjEENS1_IjEEEEPvEEEEEE"
   ]
  },
  {
   "function_name" : "std::__1::__compressed_pair<std::__1::__tree_node<unsigned int, void *> *, std::__1::__tree_node_destructor<std::__1::allocator<std::__1::__tree_node<unsigned int, void *>>>>::first",
   "linker_set_key" : "_ZNSt3__117__compressed_pairIPNS_11__tree_nodeIjPvEENS_22__tree_node_destructorINS_9allocatorIS3_EEEEE5firstEv",
   "parameters" :
   [
    {
     "is_this_ptr" : true,
     "referenced_type" : "_ZTIPNSt3__117__compressed_pairIPNS_11__tree_nodeIjPvEENS_22__tree_node_destructorINS_9allocatorIS3_EEEEEE"
    }
   ],
   "return_type" : "_ZTIRPNSt3__111__tree_nodeIjPvEE",
   "source_file" : "external/libcxx/include/memory"
  },
  {
   "function_name" : "std::__1::__compressed_pair<std::__1::__tree_node<unsigned int, void *> *, std::__1::__tree_node_destructor<std::__1::allocator<std::__1::__tree_node<unsigned int, void *>>>>::second",
   "linker_set_key" : "_ZNSt3__117__compressed_pairIPNS_11__tree_nodeIjPvEENS_22__tree_node_destructorINS_9allocatorIS3_EEEEE6secondEv",
   "parameters" :
   [
    {
     "is_this_ptr" : true,
     "referenced_type" : "_ZTIPNSt3__117__compressed_pairIPNS_11__tree_nodeIjPvEENS_22__tree_node_destructorINS_9allocatorIS3_EEEEEE"
    }
   ],
   "return_type" : "_ZTIRNSt3__122__tree_node_destructorINS_9allocatorINS_11__tree_nodeIjPvEEEEEE",
   "source_file" : "external/libcxx/include/memory"
  },
  {
   "function_name" : "std::__1::__compressed_pair<std::__1::__tree_node<unsigned int, void *> *, std::__1::__tree_node_destructor<std::__1::allocator<std::__1::__tree_node<unsigned int, void *>>>>::__compressed_pair",
   "linker_set_key" : "_ZNSt3__117__compressed_pairIPNS_11__tree_nodeIjPvEENS_22__tree_node_destructorINS_9allocatorIS3_EEEEEC1IRS4_S8_EEOT_OT0_",
   "parameters" :
   [
    {
     "is_this_ptr" : true,
     "referenced_type" : "_ZTIPNSt3__117__compressed_pairIPNS_11__tree_nodeIjPvEENS_22__tree_node_destructorINS_9allocatorIS3_EEEEEE"
    },
    {
     "referenced_type" : "_ZTIRPNSt3__111__tree_nodeIjPvEE"
    },
    {
     "referenced_type" : "_ZTIONSt3__122__tree_node_destructorINS_9allocatorINS_11__tree_nodeIjPvEEEEEE"
    }
   ],
   "return_type" : "_ZTIv",
   "source_file" : "external/libcxx/include/memory",
   "template_args" :
   [
    "_ZTIRPNSt3__111__tree_nodeIjPvEE",
    "_ZTINSt3__122__tree_node_destructorINS_9allocatorINS_11__tree_nodeIjPvEEEEEE"
   ]
  },
  {
   "function_name" : "std::__1::__compressed_pair<std::__1::__tree_node<unsigned int, void *> *, std::__1::__tree_node_destructor<std::__1::allocator<std::__1::__tree_node<unsigned int, void *>>>>::__compressed_pair",
   "linker_set_key" : "_ZNSt3__117__compressed_pairIPNS_11__tree_nodeIjPvEENS_22__tree_node_destructorINS_9allocatorIS3_EEEEEC1IS4_S8_EEOT_OT0_",
   "parameters" :
   [
    {
     "is_this_ptr" : true,
     "referenced_type" : "_ZTIPNSt3__117__compressed_pairIPNS_11__tree_nodeIjPvEENS_22__tree_node_destructorINS_9allocatorIS3_EEEEEE"
    },
    {
     "referenced_type" : "_ZTIOPNSt3__111__tree_nodeIjPvEE"
    },
    {
     "referenced_type" : "_ZTIONSt3__122__tree_node_destructorINS_9allocatorINS_11__tree_nodeIjPvEEEEEE"
    }
   ],
   "return_type" : "_ZTIv",
   "source_file" : "external/libcxx/include/memory",
   "template_args" :
   [
    "_ZTIPNSt3__111__tree_nodeIjPvEE",
    "_ZTINSt3__122__tree_node_destructorINS_9allocatorINS_11__tree_nodeIjPvEEEEEE"
   ]
  },
  {
   "function_name" : "std::__1::__compressed_pair<std::__1::__tree_node<unsigned int, void *> *, std::__1::__tree_node_destructor<std::__1::allocator<std::__1::__tree_node<unsigned int, void *>>>>::__compressed_pair",
   "linker_set_key" : "_ZNSt3__117__compressed_pairIPNS_11__tree_nodeIjPvEENS_22__tree_node_destructorINS_9allocatorIS3_EEEEEC2IRS4_S8_EEOT_OT0_",
   "parameters" :
   [
    {
     "is_this_ptr" : true,
     "referenced_type" : "_ZTIPNSt3__117__compressed_pairIPNS_11__tree_nodeIjPvEENS_22__tree_node_destructorINS_9allocatorIS3_EEEEEE"
    },
    {
     "referenced_type" : "_ZTIRPNSt3__111__tree_nodeIjPvEE"
    },
    {
     "referenced_type" : "_ZTIONSt3__122__tree_node_destructorINS_9allocatorINS_11__tree_nodeIjPvEEEEEE"
    }
   ],
   "return_type" : "_ZTIv",
   "source_file" : "external/libcxx/include/memory",
   "template_args" :
   [
    "_ZTIRPNSt3__111__tree_nodeIjPvEE",
    "_ZTINSt3__122__tree_node_destructorINS_9allocatorINS_11__tree_nodeIjPvEEEEEE"
   ]
  },
  {
   "function_name" : "std::__1::__compressed_pair<std::__1::__tree_node<unsigned int, void *> *, std::__1::__tree_node_destructor<std::__1::allocator<std::__1::__tree_node<unsigned int, void *>>>>::__compressed_pair",
   "linker_set_key" : "_ZNSt3__117__compressed_pairIPNS_11__tree_nodeIjPvEENS_22__tree_node_destructorINS_9allocatorIS3_EEEEEC2IS4_S8_EEOT_OT0_",
   "parameters" :
   [
    {
     "is_this_ptr" : true,
     "referenced_type" : "_ZTIPNSt3__117__compressed_pairIPNS_11__tree_nodeIjPvEENS_22__tree_node_destructorINS_9allocatorIS3_EEEEEE"
    },
    {
     "referenced_type" : "_ZTIOPNSt3__111__tree_nodeIjPvEE"
    },
    {
     "referenced_type" : "_ZTIONSt3__122__tree_node_destructorINS_9allocatorINS_11__tree_nodeIjPvEEEEEE"
    }
   ],
   "return_type" : "_ZTIv",
   "source_file" : "external/libcxx/include/memory",
   "template_args" :
   [
    "_ZTIPNSt3__111__tree_nodeIjPvEE",
    "_ZTINSt3__122__tree_node_destructorINS_9allocatorINS_11__tree_nodeIjPvEEEEEE"
   ]
  },
  {
   "function_name" : "std::__1::__compressed_pair<std::__1::set<unsigned int, std::__1::less<unsigned int>, std::__1::allocator<unsigned int>> *, std::__1::allocator<std::__1::set<unsigned int, std::__1::less<unsigned int>, std::__1::allocator<unsigned int>>>>::first",
   "linker_set_key" : "_ZNSt3__117__compressed_pairIPNS_3setIjNS_4lessIjEENS_9allocatorIjEEEENS4_IS6_EEE5firstEv",
   "parameters" :
   [
    {
     "is_this_ptr" : true,
     "referenced_type" : "_ZTIPNSt3__117__compressed_pairIPNS_3setIjNS_4lessIjEENS_9allocatorIjEEEENS4_IS6_EEEE"
    }
   ],
   "return_type" : "_ZTIRPNSt3__13setIjNS_4lessIjEENS_9allocatorIjEEEE",
   "source_file" : "external/libcxx/include/memory"
  },
  {
   "function_name" : "std::__1::__compressed_pair<std::__1::set<unsigned int, std::__1::less<unsigned int>, std::__1::allocator<unsigned int>> *, std::__1::allocator<std::__1::set<unsigned int, std::__1::less<unsigned int>, std::__1::allocator<unsigned int>>>>::second",
   "linker_set_key" : "_ZNSt3__117__compressed_pairIPNS_3setIjNS_4lessIjEENS_9allocatorIjEEEENS4_IS6_EEE6secondEv",
   "parameters" :
   [
    {
     "is_this_ptr" : true,
     "referenced_type" : "_ZTIPNSt3__117__compressed_pairIPNS_3setIjNS_4lessIjEENS_9allocatorIjEEEENS4_IS6_EEEE"
    }
   ],
   "return_type" : "_ZTIRNSt3__19allocatorINS_3setIjNS_4lessIjEENS0_IjEEEEEE",
   "source_file" : "external/libcxx/include/memory"
  },
  {
   "function_name" : "std::__1::__compressed_pair<std::__1::set<unsigned int, std::__1::less<unsigned int>, std::__1::allocator<unsigned int>> *, std::__1::allocator<std::__1::set<unsigned int, std::__1::less<unsigned int>, std::__1::allocator<unsigned int>>>>::__compressed_pair",
   "linker_set_key" : "_ZNSt3__117__compressed_pairIPNS_3setIjNS_4lessIjEENS_9allocatorIjEEEENS4_IS6_EEEC1IDnLb1EEEOT_",
   "parameters" :
   [
    {
     "is_this_ptr" : true,
     "referenced_type" : "_ZTIPNSt3__117__compressed_pairIPNS_3setIjNS_4lessIjEENS_9allocatorIjEEEENS4_IS6_EEEE"
    },
    {
     "referenced_type" : "_ZTIODn"
    }
   ],
   "return_type" : "_ZTIv",
   "source_file" : "external/libcxx/include/memory",
   "template_args" : [ "_ZTIDn" ]
  },
  {
   "function_name" : "std::__1::__compressed_pair<std::__1::set<unsigned int, std::__1::less<unsigned int>, std::__1::allocator<unsigned int>> *, std::__1::allocator<std::__1::set<unsigned int, std::__1::less<unsigned int>, std::__1::allocator<unsigned int>>>>::__compressed_pair",
   "linker_set_key" : "_ZNSt3__117__compressed_pairIPNS_3setIjNS_4lessIjEENS_9allocatorIjEEEENS4_IS6_EEEC2IDnLb1EEEOT_",
   "parameters" :
   [
    {
     "is_this_ptr" : true,
     "referenced_type" : "_ZTIPNSt3__117__compressed_pairIPNS_3setIjNS_4lessIjEENS_9allocatorIjEEEENS4_IS6_EEEE"
    },
    {
     "referenced_type" : "_ZTIODn"
    }
   ],
   "return_type" : "_ZTIv",
   "source_file" : "external/libcxx/include/memory",
   "template_args" : [ "_ZTIDn" ]
  },
  {
   "function_name" : "std::__1::__compressed_pair<std::__1::set<unsigned int, std::__1::less<unsigned int>, std::__1::allocator<unsigned int>> *, std::__1::allocator<std::__1::set<unsigned int, std::__1::less<unsigned int>, std::__1::allocator<unsigned int>>> &>::first",
   "linker_set_key" : "_ZNSt3__117__compressed_pairIPNS_3setIjNS_4lessIjEENS_9allocatorIjEEEERNS4_IS6_EEE5firstEv",
   "parameters" :
   [
    {
     "is_this_ptr" : true,
     "referenced_type" : "_ZTIPNSt3__117__compressed_pairIPNS_3setIjNS_4lessIjEENS_9allocatorIjEEEERNS4_IS6_EEEE"
    }
   ],
   "return_type" : "_ZTIRPNSt3__13setIjNS_4lessIjEENS_9allocatorIjEEEE",
   "source_file" : "external/libcxx/include/memory"
  },
  {
   "function_name" : "std::__1::__compressed_pair<std::__1::set<unsigned int, std::__1::less<unsigned int>, std::__1::allocator<unsigned int>> *, std::__1::allocator<std::__1::set<unsigned int, std::__1::less<unsigned int>, std::__1::allocator<unsigned int>>> &>::second",
   "linker_set_key" : "_ZNSt3__117__compressed_pairIPNS_3setIjNS_4lessIjEENS_9allocatorIjEEEERNS4_IS6_EEE6secondEv",
   "parameters" :
   [
    {
     "is_this_ptr" : true,
     "referenced_type" : "_ZTIPNSt3__117__compressed_pairIPNS_3setIjNS_4lessIjEENS_9allocatorIjEEEERNS4_IS6_EEEE"
    }
   ],
   "return_type" : "_ZTIRNSt3__19allocatorINS_3setIjNS_4lessIjEENS0_IjEEEEEE",
   "source_file" : "external/libcxx/include/memory"
  },
  {
   "function_name" : "std::__1::__compressed_pair<std::__1::set<unsigned int, std::__1::less<unsigned int>, std::__1::allocator<unsigned int>> *, std::__1::allocator<std::__1::set<unsigned int, std::__1::less<unsigned int>, std::__1::allocator<unsigned int>>> &>::__compressed_pair",
   "linker_set_key" : "_ZNSt3__117__compressed_pairIPNS_3setIjNS_4lessIjEENS_9allocatorIjEEEERNS4_IS6_EEEC1IDnS9_EEOT_OT0_",
   "parameters" :
   [
    {
     "is_this_ptr" : true,
     "referenced_type" : "_ZTIPNSt3__117__compressed_pairIPNS_3setIjNS_4lessIjEENS_9allocatorIjEEEERNS4_IS6_EEEE"
    },
    {
     "referenced_type" : "_ZTIODn"
    },
    {
     "referenced_type" : "_ZTIRNSt3__19allocatorINS_3setIjNS_4lessIjEENS0_IjEEEEEE"
    }
   ],
   "return_type" : "_ZTIv",
   "source_file" : "external/libcxx/include/memory",
   "template_args" : [ "_ZTIDn", "_ZTIRNSt3__19allocatorINS_3setIjNS_4lessIjEENS0_IjEEEEEE" ]
  },
  {
   "function_name" : "std::__1::__compressed_pair<std::__1::set<unsigned int, std::__1::less<unsigned int>, std::__1::allocator<unsigned int>> *, std::__1::allocator<std::__1::set<unsigned int, std::__1::less<unsigned int>, std::__1::allocator<unsigned int>>> &>::__compressed_pair",
   "linker_set_key" : "_ZNSt3__117__compressed_pairIPNS_3setIjNS_4lessIjEENS_9allocatorIjEEEERNS4_IS6_EEEC2IDnS9_EEOT_OT0_",
   "parameters" :
   [
    {
     "is_this_ptr" : true,
     "referenced_type" : "_ZTIPNSt3__117__compressed_pairIPNS_3setIjNS_4lessIjEENS_9allocatorIjEEEERNS4_IS6_EEEE"
    },
    {
     "referenced_type" : "_ZTIODn"
    },
    {
     "referenced_type" : "_ZTIRNSt3__19allocatorINS_3setIjNS_4lessIjEENS0_IjEEEEEE"
    }
   ],
   "return_type" : "_ZTIv",
   "source_file" : "external/libcxx/include/memory",
   "template_args" : [ "_ZTIDn", "_ZTIRNSt3__19allocatorINS_3setIjNS_4lessIjEENS0_IjEEEEEE" ]
  },
  {
   "function_name" : "std::__1::__compressed_pair<unsigned long, std::__1::less<std::__1::set<unsigned int, std::__1::less<unsigned int>, std::__1::allocator<unsigned int>>>>::first",
   "linker_set_key" : "_ZNSt3__117__compressed_pairImNS_4lessINS_3setIjNS1_IjEENS_9allocatorIjEEEEEEE5firstEv",
   "parameters" :
   [
    {
     "is_this_ptr" : true,
     "referenced_type" : "_ZTIPNSt3__117__compressed_pairImNS_4lessINS_3setIjNS1_IjEENS_9allocatorIjEEEEEEEE"
    }
   ],
   "return_type" : "_ZTIRm",
   "source_file" : "external/libcxx/include/memory"
  },
  {
   "function_name" : "std::__1::__compressed_pair<unsigned long, std::__1::less<std::__1::set<unsigned int, std::__1::less<unsigned int>, std::__1::allocator<unsigned int>>>>::second",
   "linker_set_key" : "_ZNSt3__117__compressed_pairImNS_4lessINS_3setIjNS1_IjEENS_9allocatorIjEEEEEEE6secondEv",
   "parameters" :
   [
    {
     "is_this_ptr" : true,
     "referenced_type" : "_ZTIPNSt3__117__compressed_pairImNS_4lessINS_3setIjNS1_IjEENS_9allocatorIjEEEEEEEE"
    }
   ],
   "return_type" : "_ZTIRNSt3__14lessINS_3setIjNS0_IjEENS_9allocatorIjEEEEEE",
   "source_file" : "external/libcxx/include/memory"
  },
  {
   "function_name" : "std::__1::__compressed_pair<unsigned long, std::__1::less<unsigned int>>::first",
   "linker_set_key" : "_ZNSt3__117__compressed_pairImNS_4lessIjEEE5firstEv",
   "parameters" :
   [
    {
     "is_this_ptr" : true,
     "referenced_type" : "_ZTIPNSt3__117__compressed_pairImNS_4lessIjEEEE"
    }
   ],
   "return_type" : "_ZTIRm",
   "source_file" : "external/libcxx/include/memory"
  },
  {
   "function_name" : "std::__1::__compressed_pair<unsigned long, std::__1::less<unsigned int>>::second",
   "linker_set_key" : "_ZNSt3__117__compressed_pairImNS_4lessIjEEE6secondEv",
   "parameters" :
   [
    {
     "is_this_ptr" : true,
     "referenced_type" : "_ZTIPNSt3__117__compressed_pairImNS_4lessIjEEEE"
    }
   ],
   "return_type" : "_ZTIRNSt3__14lessIjEE",
   "source_file" : "external/libcxx/include/memory"
  },
  {
   "function_name" : "std::__1::__compressed_pair<unsigned long, std::__1::less<unsigned int>>::__compressed_pair",
   "linker_set_key" : "_ZNSt3__117__compressed_pairImNS_4lessIjEEEC1IiRKS2_EEOT_OT0_",
   "parameters" :
   [
    {
     "is_this_ptr" : true,
     "referenced_type" : "_ZTIPNSt3__117__compressed_pairImNS_4lessIjEEEE"
    },
    {
     "referenced_type" : "_ZTIOi"
    },
    {
     "referenced_type" : "_ZTIRKNSt3__14lessIjEE"
    }
   ],
   "return_type" : "_ZTIv",
   "source_file" : "external/libcxx/include/memory",
   "template_args" : [ "_ZTIi", "_ZTIRKNSt3__14lessIjEE" ]
  },
  {
   "function_name" : "std::__1::__compressed_pair<unsigned long, std::__1::less<unsigned int>>::__compressed_pair",
   "linker_set_key" : "_ZNSt3__117__compressed_pairImNS_4lessIjEEEC2IiRKS2_EEOT_OT0_",
   "parameters" :
   [
    {
     "is_this_ptr" : true,
     "referenced_type" : "_ZTIPNSt3__117__compressed_pairImNS_4lessIjEEEE"
    },
    {
     "referenced_type" : "_ZTIOi"
    },
    {
     "referenced_type" : "_ZTIRKNSt3__14lessIjEE"
    }
   ],
   "return_type" : "_ZTIv",
   "source_file" : "external/libcxx/include/memory",
   "template_args" : [ "_ZTIi", "_ZTIRKNSt3__14lessIjEE" ]
  },
  {
   "function_name" : "std::__1::__libcpp_allocate",
   "linker_set_key" : "_ZNSt3__117__libcpp_allocateEmm",
   "parameters" :
   [
    {
     "referenced_type" : "_ZTIm"
    },
    {
     "referenced_type" : "_ZTIm"
    }
   ],
   "return_type" : "_ZTIPv",
   "source_file" : "external/libcxx/include/new"
  },
  {
   "function_name" : "std::__1::atomic_flag_clear",
   "linker_set_key" : "_ZNSt3__117atomic_flag_clearEPNS_11atomic_flagE",
   "parameters" :
   [
    {
     "referenced_type" : "_ZTIPNSt3__111atomic_flagE"
    }
   ],
   "return_type" : "_ZTIv",
   "source_file" : "external/libcxx/include/atomic"
  },
  {
   "function_name" : "std::__1::atomic_flag_clear",
   "linker_set_key" : "_ZNSt3__117atomic_flag_clearEPVNS_11atomic_flagE",
   "parameters" :
   [
    {
     "referenced_type" : "_ZTIPVNSt3__111atomic_flagE"
    }
   ],
   "return_type" : "_ZTIv",
   "source_file" : "external/libcxx/include/atomic"
  },
  {
   "function_name" : "std::__1::__tree_left_rotate",
   "linker_set_key" : "_ZNSt3__118__tree_left_rotateIPNS_16__tree_node_baseIPvEEEEvT_",
   "parameters" :
   [
    {
     "referenced_type" : "_ZTIPNSt3__116__tree_node_baseIPvEE"
    }
   ],
   "return_type" : "_ZTIv",
   "source_file" : "external/libcxx/include/__tree",
   "template_args" : [ "_ZTIPNSt3__116__tree_node_baseIPvEE" ]
  },
  {
   "function_name" : "std::__1::get_pointer_safety",
   "linker_set_key" : "_ZNSt3__118get_pointer_safetyEv",
   "return_type" : "_ZTINSt3__114pointer_safetyE",
   "source_file" : "external/libcxx/include/memory"
  },
  {
   "function_name" : "std::__1::__libcpp_deallocate",
   "linker_set_key" : "_ZNSt3__119__libcpp_deallocateEPvmm",
   "parameters" :
   [
    {
     "referenced_type" : "_ZTIPv"
    },
    {
     "referenced_type" : "_ZTIm"
    },
    {
     "referenced_type" : "_ZTIm"
    }
   ],
   "return_type" : "_ZTIv",
   "source_file" : "external/libcxx/include/new"
  },
  {
   "function_name" : "std::__1::__libcpp_debug_info::__libcpp_debug_info",
   "linker_set_key" : "_ZNSt3__119__libcpp_debug_infoC1EPKciS2_S2_",
   "parameters" :
   [
    {
     "is_this_ptr" : true,
     "referenced_type" : "_ZTIPNSt3__119__libcpp_debug_infoE"
    },
    {
     "referenced_type" : "_ZTIPKc"
    },
    {
     "referenced_type" : "_ZTIi"
    },
    {
     "referenced_type" : "_ZTIPKc"
    },
    {
     "referenced_type" : "_ZTIPKc"
    }
   ],
   "return_type" : "_ZTIv",
   "source_file" : "external/libcxx/include/__debug"
  },
  {
   "function_name" : "std::__1::__libcpp_debug_info::__libcpp_debug_info",
   "linker_set_key" : "_ZNSt3__119__libcpp_debug_infoC1Ev",
   "parameters" :
   [
    {
     "is_this_ptr" : true,
     "referenced_type" : "_ZTIPNSt3__119__libcpp_debug_infoE"
    }
   ],
   "return_type" : "_ZTIv",
   "source_file" : "external/libcxx/include/__debug"
  },
  {
   "function_name" : "std::__1::__libcpp_debug_info::__libcpp_debug_info",
   "linker_set_key" : "_ZNSt3__119__libcpp_debug_infoC2EPKciS2_S2_",
   "parameters" :
   [
    {
     "is_this_ptr" : true,
     "referenced_type" : "_ZTIPNSt3__119__libcpp_debug_infoE"
    },
    {
     "referenced_type" : "_ZTIPKc"
    },
    {
     "referenced_type" : "_ZTIi"
    },
    {
     "referenced_type" : "_ZTIPKc"
    },
    {
     "referenced_type" : "_ZTIPKc"
    }
   ],
   "return_type" : "_ZTIv",
   "source_file" : "external/libcxx/include/__debug"
  },
  {
   "function_name" : "std::__1::__libcpp_debug_info::__libcpp_debug_info",
   "linker_set_key" : "_ZNSt3__119__libcpp_debug_infoC2Ev",
   "parameters" :
   [
    {
     "is_this_ptr" : true,
     "referenced_type" : "_ZTIPNSt3__119__libcpp_debug_infoE"
    }
   ],
   "return_type" : "_ZTIv",
   "source_file" : "external/libcxx/include/__debug"
  },
  {
   "function_name" : "std::__1::__shared_weak_count::__add_weak",
   "linker_set_key" : "_ZNSt3__119__shared_weak_count10__add_weakEv",
   "parameters" :
   [
    {
     "is_this_ptr" : true,
     "referenced_type" : "_ZTIPNSt3__119__shared_weak_countE"
    }
   ],
   "return_type" : "_ZTIv",
   "source_file" : "external/libcxx/include/memory"
  },
  {
   "function_name" : "std::__1::__shared_weak_count::__add_shared",
   "linker_set_key" : "_ZNSt3__119__shared_weak_count12__add_sharedEv",
   "parameters" :
   [
    {
     "is_this_ptr" : true,
     "referenced_type" : "_ZTIPNSt3__119__shared_weak_countE"
    }
   ],
   "return_type" : "_ZTIv",
   "source_file" : "external/libcxx/include/memory"
  },
  {
   "function_name" : "std::__1::__shared_weak_count::__release_shared",
   "linker_set_key" : "_ZNSt3__119__shared_weak_count16__release_sharedEv",
   "parameters" :
   [
    {
     "is_this_ptr" : true,
     "referenced_type" : "_ZTIPNSt3__119__shared_weak_countE"
    }
   ],
   "return_type" : "_ZTIv",
   "source_file" : "external/libcxx/include/memory"
  },
  {
   "function_name" : "std::__1::__shared_weak_count::__shared_weak_count",
   "linker_set_key" : "_ZNSt3__119__shared_weak_countC2El",
   "parameters" :
   [
    {
     "is_this_ptr" : true,
     "referenced_type" : "_ZTIPNSt3__119__shared_weak_countE"
    },
    {
     "default_arg" : true,
     "referenced_type" : "_ZTIl"
    }
   ],
   "return_type" : "_ZTIv",
   "source_file" : "external/libcxx/include/memory"
  },
  {
   "function_name" : "std::__1::__throw_logic_error",
   "linker_set_key" : "_ZNSt3__119__throw_logic_errorEPKc",
   "parameters" :
   [
    {
     "referenced_type" : "_ZTIPKc"
    }
   ],
   "return_type" : "_ZTIv",
   "source_file" : "external/libcxx/include/stdexcept"
  },
  {
   "function_name" : "std::__1::__throw_range_error",
   "linker_set_key" : "_ZNSt3__119__throw_range_errorEPKc",
   "parameters" :
   [
    {
     "referenced_type" : "_ZTIPKc"
    }
   ],
   "return_type" : "_ZTIv",
   "source_file" : "external/libcxx/include/stdexcept"
  },
  {
   "function_name" : "std::__1::__tree_right_rotate",
   "linker_set_key" : "_ZNSt3__119__tree_right_rotateIPNS_16__tree_node_baseIPvEEEEvT_",
   "parameters" :
   [
    {
     "referenced_type" : "_ZTIPNSt3__116__tree_node_baseIPvEE"
    }
   ],
   "return_type" : "_ZTIv",
   "source_file" : "external/libcxx/include/__tree",
   "template_args" : [ "_ZTIPNSt3__116__tree_node_baseIPvEE" ]
  },
  {
   "function_name" : "std::__1::atomic_signal_fence",
   "linker_set_key" : "_ZNSt3__119atomic_signal_fenceENS_12memory_orderE",
   "parameters" :
   [
    {
     "referenced_type" : "_ZTINSt3__112memory_orderE"
    }
   ],
   "return_type" : "_ZTIv",
   "source_file" : "external/libcxx/include/atomic"
  },
  {
   "function_name" : "std::__1::atomic_thread_fence",
   "linker_set_key" : "_ZNSt3__119atomic_thread_fenceENS_12memory_orderE",
   "parameters" :
   [
    {
     "referenced_type" : "_ZTINSt3__112memory_orderE"
    }
   ],
   "return_type" : "_ZTIv",
   "source_file" : "external/libcxx/include/atomic"
  },
  {
   "function_name" : "std::__1::__throw_bad_weak_ptr",
   "linker_set_key" : "_ZNSt3__120__throw_bad_weak_ptrEv",
   "return_type" : "_ZTIv",
   "source_file" : "external/libcxx/include/memory"
  },
  {
   "function_name" : "std::__1::__throw_domain_error",
   "linker_set_key" : "_ZNSt3__120__throw_domain_errorEPKc",
   "parameters" :
   [
    {
     "referenced_type" : "_ZTIPKc"
    }
   ],
   "return_type" : "_ZTIv",
   "source_file" : "external/libcxx/include/stdexcept"
  },
  {
   "function_name" : "std::__1::__throw_length_error",
   "linker_set_key" : "_ZNSt3__120__throw_length_errorEPKc",
   "parameters" :
   [
    {
     "referenced_type" : "_ZTIPKc"
    }
   ],
   "return_type" : "_ZTIv",
   "source_file" : "external/libcxx/include/stdexcept"
  },
  {
   "function_name" : "std::__1::__throw_out_of_range",
   "linker_set_key" : "_ZNSt3__120__throw_out_of_rangeEPKc",
   "parameters" :
   [
    {
     "referenced_type" : "_ZTIPKc"
    }
   ],
   "return_type" : "_ZTIv",
   "source_file" : "external/libcxx/include/stdexcept"
  },
  {
   "function_name" : "std::__1::__tree_is_left_child",
   "linker_set_key" : "_ZNSt3__120__tree_is_left_childIPNS_16__tree_node_baseIPvEEEEbT_",
   "parameters" :
   [
    {
     "referenced_type" : "_ZTIPNSt3__116__tree_node_baseIPvEE"
    }
   ],
   "return_type" : "_ZTIb",
   "source_file" : "external/libcxx/include/__tree",
   "template_args" : [ "_ZTIPNSt3__116__tree_node_baseIPvEE" ]
  },
  {
   "access" : "protected",
   "function_name" : "std::__1::__vector_base_common<true>::__vector_base_common",
   "linker_set_key" : "_ZNSt3__120__vector_base_commonILb1EEC1Ev",
   "parameters" :
   [
    {
     "is_this_ptr" : true,
     "referenced_type" : "_ZTIPNSt3__120__vector_base_commonILb1EEE"
    }
   ],
   "return_type" : "_ZTIv",
   "source_file" : "external/libcxx/include/vector"
  },
  {
   "access" : "protected",
   "function_name" : "std::__1::__vector_base_common<true>::__vector_base_common",
   "linker_set_key" : "_ZNSt3__120__vector_base_commonILb1EEC2Ev",
   "parameters" :
   [
    {
     "is_this_ptr" : true,
     "referenced_type" : "_ZTIPNSt3__120__vector_base_commonILb1EEE"
    }
   ],
   "return_type" : "_ZTIv",
   "source_file" : "external/libcxx/include/vector"
  },
  {
   "function_name" : "std::__1::__convert_to_integral",
   "linker_set_key" : "_ZNSt3__121__convert_to_integralEi",
   "parameters" :
   [
    {
     "referenced_type" : "_ZTIi"
    }
   ],
   "return_type" : "_ZTIi",
   "source_file" : "external/libcxx/include/type_traits"
  },
  {
   "function_name" : "std::__1::__convert_to_integral",
   "linker_set_key" : "_ZNSt3__121__convert_to_integralEj",
   "parameters" :
   [
    {
     "referenced_type" : "_ZTIj"
    }
   ],
   "return_type" : "_ZTIj",
   "source_file" : "external/libcxx/include/type_traits"
  },
  {
   "function_name" : "std::__1::__convert_to_integral",
   "linker_set_key" : "_ZNSt3__121__convert_to_integralEl",
   "parameters" :
   [
    {
     "referenced_type" : "_ZTIl"
    }
   ],
   "return_type" : "_ZTIl",
   "source_file" : "external/libcxx/include/type_traits"
  },
  {
   "function_name" : "std::__1::__convert_to_integral",
   "linker_set_key" : "_ZNSt3__121__convert_to_integralEm",
   "parameters" :
   [
    {
     "referenced_type" : "_ZTIm"
    }
   ],
   "return_type" : "_ZTIm",
   "source_file" : "external/libcxx/include/type_traits"
  },
  {
   "function_name" : "std::__1::__convert_to_integral",
   "linker_set_key" : "_ZNSt3__121__convert_to_integralEn",
   "parameters" :
   [
    {
     "referenced_type" : "_ZTIn"
    }
   ],
   "return_type" : "_ZTIn",
   "source_file" : "external/libcxx/include/type_traits"
  },
  {
   "function_name" : "std::__1::__convert_to_integral",
   "linker_set_key" : "_ZNSt3__121__convert_to_integralEo",
   "parameters" :
   [
    {
     "referenced_type" : "_ZTIo"
    }
   ],
   "return_type" : "_ZTIo",
   "source_file" : "external/libcxx/include/type_traits"
  },
  {
   "function_name" : "std::__1::__convert_to_integral",
   "linker_set_key" : "_ZNSt3__121__convert_to_integralEx",
   "parameters" :
   [
    {
     "referenced_type" : "_ZTIx"
    }
   ],
   "return_type" : "_ZTIx",
   "source_file" : "external/libcxx/include/type_traits"
  },
  {
   "function_name" : "std::__1::__convert_to_integral",
   "linker_set_key" : "_ZNSt3__121__convert_to_integralEy",
   "parameters" :
   [
    {
     "referenced_type" : "_ZTIy"
    }
   ],
   "return_type" : "_ZTIy",
   "source_file" : "external/libcxx/include/type_traits"
  },
  {
   "function_name" : "std::__1::__libcpp_relaxed_load",
   "linker_set_key" : "_ZNSt3__121__libcpp_relaxed_loadIlEET_PKS1_",
   "parameters" :
   [
    {
     "referenced_type" : "_ZTIPKl"
    }
   ],
   "return_type" : "_ZTIl",
   "source_file" : "external/libcxx/include/memory",
   "template_args" : [ "_ZTIl" ]
  },
  {
   "access" : "private",
   "function_name" : "std::__1::__murmur2_or_cityhash<unsigned long, 64>::__shift_mix",
   "linker_set_key" : "_ZNSt3__121__murmur2_or_cityhashImLm64EE11__shift_mixEm",
   "parameters" :
   [
    {
     "referenced_type" : "_ZTIm"
    }
   ],
   "return_type" : "_ZTIm",
   "source_file" : "external/libcxx/include/utility"
  },
  {
   "access" : "private",
   "function_name" : "std::__1::__murmur2_or_cityhash<unsigned long, 64>::__hash_len_16",
   "linker_set_key" : "_ZNSt3__121__murmur2_or_cityhashImLm64EE13__hash_len_16Emm",
   "parameters" :
   [
    {
     "referenced_type" : "_ZTIm"
    },
    {
     "referenced_type" : "_ZTIm"
    }
   ],
   "return_type" : "_ZTIm",
   "source_file" : "external/libcxx/include/utility"
  },
  {
   "access" : "private",
   "function_name" : "std::__1::__murmur2_or_cityhash<unsigned long, 64>::__hash_len_0_to_16",
   "linker_set_key" : "_ZNSt3__121__murmur2_or_cityhashImLm64EE18__hash_len_0_to_16EPKcm",
   "parameters" :
   [
    {
     "referenced_type" : "_ZTIPKc"
    },
    {
     "referenced_type" : "_ZTIm"
    }
   ],
   "return_type" : "_ZTIm",
   "source_file" : "external/libcxx/include/utility"
  },
  {
   "access" : "private",
   "function_name" : "std::__1::__murmur2_or_cityhash<unsigned long, 64>::__hash_len_17_to_32",
   "linker_set_key" : "_ZNSt3__121__murmur2_or_cityhashImLm64EE19__hash_len_17_to_32EPKcm",
   "parameters" :
   [
    {
     "referenced_type" : "_ZTIPKc"
    },
    {
     "referenced_type" : "_ZTIm"
    }
   ],
   "return_type" : "_ZTIm",
   "source_file" : "external/libcxx/include/utility"
  },
  {
   "access" : "private",
   "function_name" : "std::__1::__murmur2_or_cityhash<unsigned long, 64>::__hash_len_33_to_64",
   "linker_set_key" : "_ZNSt3__121__murmur2_or_cityhashImLm64EE19__hash_len_33_to_64EPKcm",
   "parameters" :
   [
    {
     "referenced_type" : "_ZTIPKc"
    },
    {
     "referenced_type" : "_ZTIm"
    }
   ],
   "return_type" : "_ZTIm",
   "source_file" : "external/libcxx/include/utility"
  },
  {
   "access" : "private",
   "function_name" : "std::__1::__murmur2_or_cityhash<unsigned long, 64>::__rotate_by_at_least_1",
   "linker_set_key" : "_ZNSt3__121__murmur2_or_cityhashImLm64EE22__rotate_by_at_least_1Emi",
   "parameters" :
   [
    {
     "referenced_type" : "_ZTIm"
    },
    {
     "referenced_type" : "_ZTIi"
    }
   ],
   "return_type" : "_ZTIm",
   "source_file" : "external/libcxx/include/utility"
  },
  {
   "access" : "private",
   "function_name" : "std::__1::__murmur2_or_cityhash<unsigned long, 64>::__weak_hash_len_32_with_seeds",
   "linker_set_key" : "_ZNSt3__121__murmur2_or_cityhashImLm64EE29__weak_hash_len_32_with_seedsEPKcmm",
   "parameters" :
   [
    {
     "referenced_type" : "_ZTIPKc"
    },
    {
     "referenced_type" : "_ZTIm"
    },
    {
     "referenced_type" : "_ZTIm"
    }
   ],
   "return_type" : "_ZTINSt3__14pairImmEE",
   "source_file" : "external/libcxx/include/utility"
  },
  {
   "access" : "private",
   "function_name" : "std::__1::__murmur2_or_cityhash<unsigned long, 64>::__weak_hash_len_32_with_seeds",
   "linker_set_key" : "_ZNSt3__121__murmur2_or_cityhashImLm64EE29__weak_hash_len_32_with_seedsEmmmmmm",
   "parameters" :
   [
    {
     "referenced_type" : "_ZTIm"
    },
    {
     "referenced_type" : "_ZTIm"
    },
    {
     "referenced_type" : "_ZTIm"
    },
    {
     "referenced_type" : "_ZTIm"
    },
    {
     "referenced_type" : "_ZTIm"
    },
    {
     "referenced_type" : "_ZTIm"
    }
   ],
   "return_type" : "_ZTINSt3__14pairImmEE",
   "source_file" : "external/libcxx/include/utility"
  },
  {
   "access" : "private",
   "function_name" : "std::__1::__murmur2_or_cityhash<unsigned long, 64>::__rotate",
   "linker_set_key" : "_ZNSt3__121__murmur2_or_cityhashImLm64EE8__rotateEmi",
   "parameters" :
   [
    {
     "referenced_type" : "_ZTIm"
    },
    {
     "referenced_type" : "_ZTIi"
    }
   ],
   "return_type" : "_ZTIm",
   "source_file" : "external/libcxx/include/utility"
  },
  {
   "function_name" : "std::__1::__murmur2_or_cityhash<unsigned long, 64>::operator()",
   "linker_set_key" : "_ZNSt3__121__murmur2_or_cityhashImLm64EEclEPKvm",
   "parameters" :
   [
    {
     "is_this_ptr" : true,
     "referenced_type" : "_ZTIPNSt3__121__murmur2_or_cityhashImLm64EEE"
    },
    {
     "referenced_type" : "_ZTIPKv"
    },
    {
     "referenced_type" : "_ZTIm"
    }
   ],
   "return_type" : "_ZTIm",
   "source_file" : "external/libcxx/include/utility"
  },
  {
   "function_name" : "std::__1::__tree_const_iterator<std::__1::set<unsigned int, std::__1::less<unsigned int>, std::__1::allocator<unsigned int>>, std::__1::__tree_node<std::__1::set<unsigned int, std::__1::less<unsigned int>, std::__1::allocator<unsigned int>>, void *> *, long>::__tree_const_iterator",
   "linker_set_key" : "_ZNSt3__121__tree_const_iteratorINS_3setIjNS_4lessIjEENS_9allocatorIjEEEEPNS_11__tree_nodeIS6_PvEElEC1ENS_15__tree_iteratorIS6_SA_lEE",
   "parameters" :
   [
    {
     "is_this_ptr" : true,
     "referenced_type" : "_ZTIPNSt3__121__tree_const_iteratorINS_3setIjNS_4lessIjEENS_9allocatorIjEEEEPNS_11__tree_nodeIS6_PvEElEE"
    },
    {
     "referenced_type" : "_ZTINSt3__115__tree_iteratorINS_3setIjNS_4lessIjEENS_9allocatorIjEEEEPNS_11__tree_nodeIS6_PvEElEE"
    }
   ],
   "return_type" : "_ZTIv",
   "source_file" : "external/libcxx/include/__tree"
  },
  {
   "function_name" : "std::__1::__tree_const_iterator<std::__1::set<unsigned int, std::__1::less<unsigned int>, std::__1::allocator<unsigned int>>, std::__1::__tree_node<std::__1::set<unsigned int, std::__1::less<unsigned int>, std::__1::allocator<unsigned int>>, void *> *, long>::__tree_const_iterator",
   "linker_set_key" : "_ZNSt3__121__tree_const_iteratorINS_3setIjNS_4lessIjEENS_9allocatorIjEEEEPNS_11__tree_nodeIS6_PvEElEC2ENS_15__tree_iteratorIS6_SA_lEE",
   "parameters" :
   [
    {
     "is_this_ptr" : true,
     "referenced_type" : "_ZTIPNSt3__121__tree_const_iteratorINS_3setIjNS_4lessIjEENS_9allocatorIjEEEEPNS_11__tree_nodeIS6_PvEElEE"
    },
    {
     "referenced_type" : "_ZTINSt3__115__tree_iteratorINS_3setIjNS_4lessIjEENS_9allocatorIjEEEEPNS_11__tree_nodeIS6_PvEElEE"
    }
   ],
   "return_type" : "_ZTIv",
   "source_file" : "external/libcxx/include/__tree"
  },
  {
   "function_name" : "std::__1::__tree_const_iterator<unsigned int, std::__1::__tree_node<unsigned int, void *> *, long>::__tree_const_iterator",
   "linker_set_key" : "_ZNSt3__121__tree_const_iteratorIjPNS_11__tree_nodeIjPvEElEC1ENS_15__tree_iteratorIjS4_lEE",
   "parameters" :
   [
    {
     "is_this_ptr" : true,
     "referenced_type" : "_ZTIPNSt3__121__tree_const_iteratorIjPNS_11__tree_nodeIjPvEElEE"
    },
    {
     "referenced_type" : "_ZTINSt3__115__tree_iteratorIjPNS_11__tree_nodeIjPvEElEE"
    }
   ],
   "return_type" : "_ZTIv",
   "source_file" : "external/libcxx/include/__tree"
  },
  {
   "access" : "private",
   "function_name" : "std::__1::__tree_const_iterator<unsigned int, std::__1::__tree_node<unsigned int, void *> *, long>::__tree_const_iterator",
   "linker_set_key" : "_ZNSt3__121__tree_const_iteratorIjPNS_11__tree_nodeIjPvEElEC1EPNS_15__tree_end_nodeIPNS_16__tree_node_baseIS2_EEEE",
   "parameters" :
   [
    {
     "is_this_ptr" : true,
     "referenced_type" : "_ZTIPNSt3__121__tree_const_iteratorIjPNS_11__tree_nodeIjPvEElEE"
    },
    {
     "referenced_type" : "_ZTIPNSt3__115__tree_end_nodeIPNS_16__tree_node_baseIPvEEEE"
    }
   ],
   "return_type" : "_ZTIv",
   "source_file" : "external/libcxx/include/__tree"
  },
  {
   "function_name" : "std::__1::__tree_const_iterator<unsigned int, std::__1::__tree_node<unsigned int, void *> *, long>::__tree_const_iterator",
   "linker_set_key" : "_ZNSt3__121__tree_const_iteratorIjPNS_11__tree_nodeIjPvEElEC2ENS_15__tree_iteratorIjS4_lEE",
   "parameters" :
   [
    {
     "is_this_ptr" : true,
     "referenced_type" : "_ZTIPNSt3__121__tree_const_iteratorIjPNS_11__tree_nodeIjPvEElEE"
    },
    {
     "referenced_type" : "_ZTINSt3__115__tree_iteratorIjPNS_11__tree_nodeIjPvEElEE"
    }
   ],
   "return_type" : "_ZTIv",
   "source_file" : "external/libcxx/include/__tree"
  },
  {
   "access" : "private",
   "function_name" : "std::__1::__tree_const_iterator<unsigned int, std::__1::__tree_node<unsigned int, void *> *, long>::__tree_const_iterator",
   "linker_set_key" : "_ZNSt3__121__tree_const_iteratorIjPNS_11__tree_nodeIjPvEElEC2EPNS_15__tree_end_nodeIPNS_16__tree_node_baseIS2_EEEE",
   "parameters" :
   [
    {
     "is_this_ptr" : true,
     "referenced_type" : "_ZTIPNSt3__121__tree_const_iteratorIjPNS_11__tree_nodeIjPvEElEE"
    },
    {
     "referenced_type" : "_ZTIPNSt3__115__tree_end_nodeIPNS_16__tree_node_baseIPvEEEE"
    }
   ],
   "return_type" : "_ZTIv",
   "source_file" : "external/libcxx/include/__tree"
  },
  {
   "function_name" : "std::__1::__tree_const_iterator<unsigned int, std::__1::__tree_node<unsigned int, void *> *, long>::operator--",
   "linker_set_key" : "_ZNSt3__121__tree_const_iteratorIjPNS_11__tree_nodeIjPvEElEmmEv",
   "parameters" :
   [
    {
     "is_this_ptr" : true,
     "referenced_type" : "_ZTIPNSt3__121__tree_const_iteratorIjPNS_11__tree_nodeIjPvEElEE"
    }
   ],
   "return_type" : "_ZTIRNSt3__121__tree_const_iteratorIjPNS_11__tree_nodeIjPvEElEE",
   "source_file" : "external/libcxx/include/__tree"
  },
  {
   "function_name" : "std::__1::__tree_const_iterator<unsigned int, std::__1::__tree_node<unsigned int, void *> *, long>::operator++",
   "linker_set_key" : "_ZNSt3__121__tree_const_iteratorIjPNS_11__tree_nodeIjPvEElEppEv",
   "parameters" :
   [
    {
     "is_this_ptr" : true,
     "referenced_type" : "_ZTIPNSt3__121__tree_const_iteratorIjPNS_11__tree_nodeIjPvEElEE"
    }
   ],
   "return_type" : "_ZTIRNSt3__121__tree_const_iteratorIjPNS_11__tree_nodeIjPvEElEE",
   "source_file" : "external/libcxx/include/__tree"
  },
  {
   "function_name" : "std::__1::__compressed_pair_elem<std::__1::__tree_end_node<std::__1::__tree_node_base<void *> *>, 0, false>::__get",
   "linker_set_key" : "_ZNSt3__122__compressed_pair_elemINS_15__tree_end_nodeIPNS_16__tree_node_baseIPvEEEELi0ELb0EE5__getEv",
   "parameters" :
   [
    {
     "is_this_ptr" : true,
     "referenced_type" : "_ZTIPNSt3__122__compressed_pair_elemINS_15__tree_end_nodeIPNS_16__tree_node_baseIPvEEEELi0ELb0EEE"
    }
   ],
   "return_type" : "_ZTIRNSt3__115__tree_end_nodeIPNS_16__tree_node_baseIPvEEEE",
   "source_file" : "external/libcxx/include/memory"
  },
  {
   "function_name" : "std::__1::__compressed_pair_elem<std::__1::__tree_end_node<std::__1::__tree_node_base<void *> *>, 0, false>::__compressed_pair_elem",
   "linker_set_key" : "_ZNSt3__122__compressed_pair_elemINS_15__tree_end_nodeIPNS_16__tree_node_baseIPvEEEELi0ELb0EEC1Ev",
   "parameters" :
   [
    {
     "is_this_ptr" : true,
     "referenced_type" : "_ZTIPNSt3__122__compressed_pair_elemINS_15__tree_end_nodeIPNS_16__tree_node_baseIPvEEEELi0ELb0EEE"
    }
   ],
   "return_type" : "_ZTIv",
   "source_file" : "external/libcxx/include/memory"
  },
  {
   "function_name" : "std::__1::__compressed_pair_elem<std::__1::__tree_end_node<std::__1::__tree_node_base<void *> *>, 0, false>::__compressed_pair_elem",
   "linker_set_key" : "_ZNSt3__122__compressed_pair_elemINS_15__tree_end_nodeIPNS_16__tree_node_baseIPvEEEELi0ELb0EEC2Ev",
   "parameters" :
   [
    {
     "is_this_ptr" : true,
     "referenced_type" : "_ZTIPNSt3__122__compressed_pair_elemINS_15__tree_end_nodeIPNS_16__tree_node_baseIPvEEEELi0ELb0EEE"
    }
   ],
   "return_type" : "_ZTIv",
   "source_file" : "external/libcxx/include/memory"
  },
  {
   "function_name" : "std::__1::__compressed_pair_elem<std::__1::__tree_node_destructor<std::__1::allocator<std::__1::__tree_node<std::__1::set<unsigned int, std::__1::less<unsigned int>, std::__1::allocator<unsigned int>>, void *>>>, 1, false>::__get",
   "linker_set_key" : "_ZNSt3__122__compressed_pair_elemINS_22__tree_node_destructorINS_9allocatorINS_11__tree_nodeINS_3setIjNS_4lessIjEENS2_IjEEEEPvEEEEEELi1ELb0EE5__getEv",
   "parameters" :
   [
    {
     "is_this_ptr" : true,
     "referenced_type" : "_ZTIPNSt3__122__compressed_pair_elemINS_22__tree_node_destructorINS_9allocatorINS_11__tree_nodeINS_3setIjNS_4lessIjEENS2_IjEEEEPvEEEEEELi1ELb0EEE"
    }
   ],
   "return_type" : "_ZTIRNSt3__122__tree_node_destructorINS_9allocatorINS_11__tree_nodeINS_3setIjNS_4lessIjEENS1_IjEEEEPvEEEEEE",
   "source_file" : "external/libcxx/include/memory"
  },
  {
   "function_name" : "std::__1::__compressed_pair_elem<std::__1::__tree_node_destructor<std::__1::allocator<std::__1::__tree_node<std::__1::set<unsigned int, std::__1::less<unsigned int>, std::__1::allocator<unsigned int>>, void *>>>, 1, false>::__compressed_pair_elem",
   "linker_set_key" : "_ZNSt3__122__compressed_pair_elemINS_22__tree_node_destructorINS_9allocatorINS_11__tree_nodeINS_3setIjNS_4lessIjEENS2_IjEEEEPvEEEEEELi1ELb0EEC1ISC_vEEOT_",
   "parameters" :
   [
    {
     "is_this_ptr" : true,
     "referenced_type" : "_ZTIPNSt3__122__compressed_pair_elemINS_22__tree_node_destructorINS_9allocatorINS_11__tree_nodeINS_3setIjNS_4lessIjEENS2_IjEEEEPvEEEEEELi1ELb0EEE"
    },
    {
     "referenced_type" : "_ZTIONSt3__122__tree_node_destructorINS_9allocatorINS_11__tree_nodeINS_3setIjNS_4lessIjEENS1_IjEEEEPvEEEEEE"
    }
   ],
   "return_type" : "_ZTIv",
   "source_file" : "external/libcxx/include/memory",
   "template_args" :
   [
    "_ZTINSt3__122__tree_node_destructorINS_9allocatorINS_11__tree_nodeINS_3setIjNS_4lessIjEENS1_IjEEEEPvEEEEEE",
    "_ZTIv"
   ]
  },
  {
   "function_name" : "std::__1::__compressed_pair_elem<std::__1::__tree_node_destructor<std::__1::allocator<std::__1::__tree_node<std::__1::set<unsigned int, std::__1::less<unsigned int>, std::__1::allocator<unsigned int>>, void *>>>, 1, false>::__compressed_pair_elem",
   "linker_set_key" : "_ZNSt3__122__compressed_pair_elemINS_22__tree_node_destructorINS_9allocatorINS_11__tree_nodeINS_3setIjNS_4lessIjEENS2_IjEEEEPvEEEEEELi1ELb0EEC2ISC_vEEOT_",
   "parameters" :
   [
    {
     "is_this_ptr" : true,
     "referenced_type" : "_ZTIPNSt3__122__compressed_pair_elemINS_22__tree_node_destructorINS_9allocatorINS_11__tree_nodeINS_3setIjNS_4lessIjEENS2_IjEEEEPvEEEEEELi1ELb0EEE"
    },
    {
     "referenced_type" : "_ZTIONSt3__122__tree_node_destructorINS_9allocatorINS_11__tree_nodeINS_3setIjNS_4lessIjEENS1_IjEEEEPvEEEEEE"
    }
   ],
   "return_type" : "_ZTIv",
   "source_file" : "external/libcxx/include/memory",
   "template_args" :
   [
    "_ZTINSt3__122__tree_node_destructorINS_9allocatorINS_11__tree_nodeINS_3setIjNS_4lessIjEENS1_IjEEEEPvEEEEEE",
    "_ZTIv"
   ]
  },
  {
   "function_name" : "std::__1::__compressed_pair_elem<std::__1::__tree_node_destructor<std::__1::allocator<std::__1::__tree_node<unsigned int, void *>>>, 1, false>::__get",
   "linker_set_key" : "_ZNSt3__122__compressed_pair_elemINS_22__tree_node_destructorINS_9allocatorINS_11__tree_nodeIjPvEEEEEELi1ELb0EE5__getEv",
   "parameters" :
   [
    {
     "is_this_ptr" : true,
     "referenced_type" : "_ZTIPNSt3__122__compressed_pair_elemINS_22__tree_node_destructorINS_9allocatorINS_11__tree_nodeIjPvEEEEEELi1ELb0EEE"
    }
   ],
   "return_type" : "_ZTIRNSt3__122__tree_node_destructorINS_9allocatorINS_11__tree_nodeIjPvEEEEEE",
   "source_file" : "external/libcxx/include/memory"
  },
  {
   "function_name" : "std::__1::__compressed_pair_elem<std::__1::__tree_node_destructor<std::__1::allocator<std::__1::__tree_node<unsigned int, void *>>>, 1, false>::__compressed_pair_elem",
   "linker_set_key" : "_ZNSt3__122__compressed_pair_elemINS_22__tree_node_destructorINS_9allocatorINS_11__tree_nodeIjPvEEEEEELi1ELb0EEC1IS7_vEEOT_",
   "parameters" :
   [
    {
     "is_this_ptr" : true,
     "referenced_type" : "_ZTIPNSt3__122__compressed_pair_elemINS_22__tree_node_destructorINS_9allocatorINS_11__tree_nodeIjPvEEEEEELi1ELb0EEE"
    },
    {
     "referenced_type" : "_ZTIONSt3__122__tree_node_destructorINS_9allocatorINS_11__tree_nodeIjPvEEEEEE"
    }
   ],
   "return_type" : "_ZTIv",
   "source_file" : "external/libcxx/include/memory",
   "template_args" :
   [
    "_ZTINSt3__122__tree_node_destructorINS_9allocatorINS_11__tree_nodeIjPvEEEEEE",
    "_ZTIv"
   ]
  },
  {
   "function_name" : "std::__1::__compressed_pair_elem<std::__1::__tree_node_destructor<std::__1::allocator<std::__1::__tree_node<unsigned int, void *>>>, 1, false>::__compressed_pair_elem",
   "linker_set_key" : "_ZNSt3__122__compressed_pair_elemINS_22__tree_node_destructorINS_9allocatorINS_11__tree_nodeIjPvEEEEEELi1ELb0EEC2IS7_vEEOT_",
   "parameters" :
   [
    {
     "is_this_ptr" : true,
     "referenced_type" : "_ZTIPNSt3__122__compressed_pair_elemINS_22__tree_node_destructorINS_9allocatorINS_11__tree_nodeIjPvEEEEEELi1ELb0EEE"
    },
    {
     "referenced_type" : "_ZTIONSt3__122__tree_node_destructorINS_9allocatorINS_11__tree_nodeIjPvEEEEEE"
    }
   ],
   "return_type" : "_ZTIv",
   "source_file" : "external/libcxx/include/memory",
   "template_args" :
   [
    "_ZTINSt3__122__tree_node_destructorINS_9allocatorINS_11__tree_nodeIjPvEEEEEE",
    "_ZTIv"
   ]
  },
  {
   "function_name" : "std::__1::__compressed_pair_elem<std::__1::less<std::__1::set<unsigned int, std::__1::less<unsigned int>, std::__1::allocator<unsigned int>>>, 1, true>::__get",
   "linker_set_key" : "_ZNSt3__122__compressed_pair_elemINS_4lessINS_3setIjNS1_IjEENS_9allocatorIjEEEEEELi1ELb1EE5__getEv",
   "parameters" :
   [
    {
     "is_this_ptr" : true,
     "referenced_type" : "_ZTIPNSt3__122__compressed_pair_elemINS_4lessINS_3setIjNS1_IjEENS_9allocatorIjEEEEEELi1ELb1EEE"
    }
   ],
   "return_type" : "_ZTIRNSt3__14lessINS_3setIjNS0_IjEENS_9allocatorIjEEEEEE",
   "source_file" : "external/libcxx/include/memory"
  },
  {
   "function_name" : "std::__1::__compressed_pair_elem<std::__1::less<std::__1::set<unsigned int, std::__1::less<unsigned int>, std::__1::allocator<unsigned int>>>, 1, true>::__compressed_pair_elem",
   "linker_set_key" : "_ZNSt3__122__compressed_pair_elemINS_4lessINS_3setIjNS1_IjEENS_9allocatorIjEEEEEELi1ELb1EEC1Ev",
   "parameters" :
   [
    {
     "is_this_ptr" : true,
     "referenced_type" : "_ZTIPNSt3__122__compressed_pair_elemINS_4lessINS_3setIjNS1_IjEENS_9allocatorIjEEEEEELi1ELb1EEE"
    }
   ],
   "return_type" : "_ZTIv",
   "source_file" : "external/libcxx/include/memory"
  },
  {
   "function_name" : "std::__1::__compressed_pair_elem<std::__1::less<std::__1::set<unsigned int, std::__1::less<unsigned int>, std::__1::allocator<unsigned int>>>, 1, true>::__compressed_pair_elem",
   "linker_set_key" : "_ZNSt3__122__compressed_pair_elemINS_4lessINS_3setIjNS1_IjEENS_9allocatorIjEEEEEELi1ELb1EEC2Ev",
   "parameters" :
   [
    {
     "is_this_ptr" : true,
     "referenced_type" : "_ZTIPNSt3__122__compressed_pair_elemINS_4lessINS_3setIjNS1_IjEENS_9allocatorIjEEEEEELi1ELb1EEE"
    }
   ],
   "return_type" : "_ZTIv",
   "source_file" : "external/libcxx/include/memory"
  },
  {
   "function_name" : "std::__1::__compressed_pair_elem<std::__1::less<unsigned int>, 1, true>::__get",
   "linker_set_key" : "_ZNSt3__122__compressed_pair_elemINS_4lessIjEELi1ELb1EE5__getEv",
   "parameters" :
   [
    {
     "is_this_ptr" : true,
     "referenced_type" : "_ZTIPNSt3__122__compressed_pair_elemINS_4lessIjEELi1ELb1EEE"
    }
   ],
   "return_type" : "_ZTIRNSt3__14lessIjEE",
   "source_file" : "external/libcxx/include/memory"
  },
  {
   "function_name" : "std::__1::__compressed_pair_elem<std::__1::less<unsigned int>, 1, true>::__compressed_pair_elem",
   "linker_set_key" : "_ZNSt3__122__compressed_pair_elemINS_4lessIjEELi1ELb1EEC1Ev",
   "parameters" :
   [
    {
     "is_this_ptr" : true,
     "referenced_type" : "_ZTIPNSt3__122__compressed_pair_elemINS_4lessIjEELi1ELb1EEE"
    }
   ],
   "return_type" : "_ZTIv",
   "source_file" : "external/libcxx/include/memory"
  },
  {
   "function_name" : "std::__1::__compressed_pair_elem<std::__1::less<unsigned int>, 1, true>::__compressed_pair_elem",
   "linker_set_key" : "_ZNSt3__122__compressed_pair_elemINS_4lessIjEELi1ELb1EEC1IRKS2_vEEOT_",
   "parameters" :
   [
    {
     "is_this_ptr" : true,
     "referenced_type" : "_ZTIPNSt3__122__compressed_pair_elemINS_4lessIjEELi1ELb1EEE"
    },
    {
     "referenced_type" : "_ZTIRKNSt3__14lessIjEE"
    }
   ],
   "return_type" : "_ZTIv",
   "source_file" : "external/libcxx/include/memory",
   "template_args" : [ "_ZTIRKNSt3__14lessIjEE", "_ZTIv" ]
  },
  {
   "function_name" : "std::__1::__compressed_pair_elem<std::__1::less<unsigned int>, 1, true>::__compressed_pair_elem",
   "linker_set_key" : "_ZNSt3__122__compressed_pair_elemINS_4lessIjEELi1ELb1EEC2Ev",
   "parameters" :
   [
    {
     "is_this_ptr" : true,
     "referenced_type" : "_ZTIPNSt3__122__compressed_pair_elemINS_4lessIjEELi1ELb1EEE"
    }
   ],
   "return_type" : "_ZTIv",
   "source_file" : "external/libcxx/include/memory"
  },
  {
   "function_name" : "std::__1::__compressed_pair_elem<std::__1::less<unsigned int>, 1, true>::__compressed_pair_elem",
   "linker_set_key" : "_ZNSt3__122__compressed_pair_elemINS_4lessIjEELi1ELb1EEC2IRKS2_vEEOT_",
   "parameters" :
   [
    {
     "is_this_ptr" : true,
     "referenced_type" : "_ZTIPNSt3__122__compressed_pair_elemINS_4lessIjEELi1ELb1EEE"
    },
    {
     "referenced_type" : "_ZTIRKNSt3__14lessIjEE"
    }
   ],
   "return_type" : "_ZTIv",
   "source_file" : "external/libcxx/include/memory",
   "template_args" : [ "_ZTIRKNSt3__14lessIjEE", "_ZTIv" ]
  },
  {
   "function_name" : "std::__1::__compressed_pair_elem<std::__1::allocator<std::__1::__tree_node<std::__1::set<unsigned int, std::__1::less<unsigned int>, std::__1::allocator<unsigned int>>, void *>>, 1, true>::__get",
   "linker_set_key" : "_ZNSt3__122__compressed_pair_elemINS_9allocatorINS_11__tree_nodeINS_3setIjNS_4lessIjEENS1_IjEEEEPvEEEELi1ELb1EE5__getEv",
   "parameters" :
   [
    {
     "is_this_ptr" : true,
     "referenced_type" : "_ZTIPNSt3__122__compressed_pair_elemINS_9allocatorINS_11__tree_nodeINS_3setIjNS_4lessIjEENS1_IjEEEEPvEEEELi1ELb1EEE"
    }
   ],
   "return_type" : "_ZTIRNSt3__19allocatorINS_11__tree_nodeINS_3setIjNS_4lessIjEENS0_IjEEEEPvEEEE",
   "source_file" : "external/libcxx/include/memory"
  },
  {
   "function_name" : "std::__1::__compressed_pair_elem<std::__1::allocator<std::__1::__tree_node<std::__1::set<unsigned int, std::__1::less<unsigned int>, std::__1::allocator<unsigned int>>, void *>>, 1, true>::__compressed_pair_elem",
   "linker_set_key" : "_ZNSt3__122__compressed_pair_elemINS_9allocatorINS_11__tree_nodeINS_3setIjNS_4lessIjEENS1_IjEEEEPvEEEELi1ELb1EEC1Ev",
   "parameters" :
   [
    {
     "is_this_ptr" : true,
     "referenced_type" : "_ZTIPNSt3__122__compressed_pair_elemINS_9allocatorINS_11__tree_nodeINS_3setIjNS_4lessIjEENS1_IjEEEEPvEEEELi1ELb1EEE"
    }
   ],
   "return_type" : "_ZTIv",
   "source_file" : "external/libcxx/include/memory"
  },
  {
   "function_name" : "std::__1::__compressed_pair_elem<std::__1::allocator<std::__1::__tree_node<std::__1::set<unsigned int, std::__1::less<unsigned int>, std::__1::allocator<unsigned int>>, void *>>, 1, true>::__compressed_pair_elem",
   "linker_set_key" : "_ZNSt3__122__compressed_pair_elemINS_9allocatorINS_11__tree_nodeINS_3setIjNS_4lessIjEENS1_IjEEEEPvEEEELi1ELb1EEC2Ev",
   "parameters" :
   [
    {
     "is_this_ptr" : true,
     "referenced_type" : "_ZTIPNSt3__122__compressed_pair_elemINS_9allocatorINS_11__tree_nodeINS_3setIjNS_4lessIjEENS1_IjEEEEPvEEEELi1ELb1EEE"
    }
   ],
   "return_type" : "_ZTIv",
   "source_file" : "external/libcxx/include/memory"
  },
  {
   "function_name" : "std::__1::__compressed_pair_elem<std::__1::allocator<std::__1::__tree_node<unsigned int, void *>>, 1, true>::__get",
   "linker_set_key" : "_ZNSt3__122__compressed_pair_elemINS_9allocatorINS_11__tree_nodeIjPvEEEELi1ELb1EE5__getEv",
   "parameters" :
   [
    {
     "is_this_ptr" : true,
     "referenced_type" : "_ZTIPNSt3__122__compressed_pair_elemINS_9allocatorINS_11__tree_nodeIjPvEEEELi1ELb1EEE"
    }
   ],
   "return_type" : "_ZTIRNSt3__19allocatorINS_11__tree_nodeIjPvEEEE",
   "source_file" : "external/libcxx/include/memory"
  },
  {
   "function_name" : "std::__1::__compressed_pair_elem<std::__1::allocator<std::__1::__tree_node<unsigned int, void *>>, 1, true>::__compressed_pair_elem",
   "linker_set_key" : "_ZNSt3__122__compressed_pair_elemINS_9allocatorINS_11__tree_nodeIjPvEEEELi1ELb1EEC1Ev",
   "parameters" :
   [
    {
     "is_this_ptr" : true,
     "referenced_type" : "_ZTIPNSt3__122__compressed_pair_elemINS_9allocatorINS_11__tree_nodeIjPvEEEELi1ELb1EEE"
    }
   ],
   "return_type" : "_ZTIv",
   "source_file" : "external/libcxx/include/memory"
  },
  {
   "function_name" : "std::__1::__compressed_pair_elem<std::__1::allocator<std::__1::__tree_node<unsigned int, void *>>, 1, true>::__compressed_pair_elem",
   "linker_set_key" : "_ZNSt3__122__compressed_pair_elemINS_9allocatorINS_11__tree_nodeIjPvEEEELi1ELb1EEC1IS5_vEEOT_",
   "parameters" :
   [
    {
     "is_this_ptr" : true,
     "referenced_type" : "_ZTIPNSt3__122__compressed_pair_elemINS_9allocatorINS_11__tree_nodeIjPvEEEELi1ELb1EEE"
    },
    {
     "referenced_type" : "_ZTIONSt3__19allocatorINS_11__tree_nodeIjPvEEEE"
    }
   ],
   "return_type" : "_ZTIv",
   "source_file" : "external/libcxx/include/memory",
   "template_args" : [ "_ZTINSt3__19allocatorINS_11__tree_nodeIjPvEEEE", "_ZTIv" ]
  },
  {
   "function_name" : "std::__1::__compressed_pair_elem<std::__1::allocator<std::__1::__tree_node<unsigned int, void *>>, 1, true>::__compressed_pair_elem",
   "linker_set_key" : "_ZNSt3__122__compressed_pair_elemINS_9allocatorINS_11__tree_nodeIjPvEEEELi1ELb1EEC2Ev",
   "parameters" :
   [
    {
     "is_this_ptr" : true,
     "referenced_type" : "_ZTIPNSt3__122__compressed_pair_elemINS_9allocatorINS_11__tree_nodeIjPvEEEELi1ELb1EEE"
    }
   ],
   "return_type" : "_ZTIv",
   "source_file" : "external/libcxx/include/memory"
  },
  {
   "function_name" : "std::__1::__compressed_pair_elem<std::__1::allocator<std::__1::__tree_node<unsigned int, void *>>, 1, true>::__compressed_pair_elem",
   "linker_set_key" : "_ZNSt3__122__compressed_pair_elemINS_9allocatorINS_11__tree_nodeIjPvEEEELi1ELb1EEC2IS5_vEEOT_",
   "parameters" :
   [
    {
     "is_this_ptr" : true,
     "referenced_type" : "_ZTIPNSt3__122__compressed_pair_elemINS_9allocatorINS_11__tree_nodeIjPvEEEELi1ELb1EEE"
    },
    {
     "referenced_type" : "_ZTIONSt3__19allocatorINS_11__tree_nodeIjPvEEEE"
    }
   ],
   "return_type" : "_ZTIv",
   "source_file" : "external/libcxx/include/memory",
   "template_args" : [ "_ZTINSt3__19allocatorINS_11__tree_nodeIjPvEEEE", "_ZTIv" ]
  },
  {
   "function_name" : "std::__1::__compressed_pair_elem<std::__1::allocator<std::__1::set<unsigned int, std::__1::less<unsigned int>, std::__1::allocator<unsigned int>>>, 1, true>::__get",
   "linker_set_key" : "_ZNSt3__122__compressed_pair_elemINS_9allocatorINS_3setIjNS_4lessIjEENS1_IjEEEEEELi1ELb1EE5__getEv",
   "parameters" :
   [
    {
     "is_this_ptr" : true,
     "referenced_type" : "_ZTIPNSt3__122__compressed_pair_elemINS_9allocatorINS_3setIjNS_4lessIjEENS1_IjEEEEEELi1ELb1EEE"
    }
   ],
   "return_type" : "_ZTIRNSt3__19allocatorINS_3setIjNS_4lessIjEENS0_IjEEEEEE",
   "source_file" : "external/libcxx/include/memory"
  },
  {
   "function_name" : "std::__1::__compressed_pair_elem<std::__1::allocator<std::__1::set<unsigned int, std::__1::less<unsigned int>, std::__1::allocator<unsigned int>>>, 1, true>::__compressed_pair_elem",
   "linker_set_key" : "_ZNSt3__122__compressed_pair_elemINS_9allocatorINS_3setIjNS_4lessIjEENS1_IjEEEEEELi1ELb1EEC1Ev",
   "parameters" :
   [
    {
     "is_this_ptr" : true,
     "referenced_type" : "_ZTIPNSt3__122__compressed_pair_elemINS_9allocatorINS_3setIjNS_4lessIjEENS1_IjEEEEEELi1ELb1EEE"
    }
   ],
   "return_type" : "_ZTIv",
   "source_file" : "external/libcxx/include/memory"
  },
  {
   "function_name" : "std::__1::__compressed_pair_elem<std::__1::allocator<std::__1::set<unsigned int, std::__1::less<unsigned int>, std::__1::allocator<unsigned int>>>, 1, true>::__compressed_pair_elem",
   "linker_set_key" : "_ZNSt3__122__compressed_pair_elemINS_9allocatorINS_3setIjNS_4lessIjEENS1_IjEEEEEELi1ELb1EEC2Ev",
   "parameters" :
   [
    {
     "is_this_ptr" : true,
     "referenced_type" : "_ZTIPNSt3__122__compressed_pair_elemINS_9allocatorINS_3setIjNS_4lessIjEENS1_IjEEEEEELi1ELb1EEE"
    }
   ],
   "return_type" : "_ZTIv",
   "source_file" : "external/libcxx/include/memory"
  },
  {
   "function_name" : "std::__1::__compressed_pair_elem<std::__1::__tree_node<std::__1::set<unsigned int, std::__1::less<unsigned int>, std::__1::allocator<unsigned int>>, void *> *, 0, false>::__get",
   "linker_set_key" : "_ZNSt3__122__compressed_pair_elemIPNS_11__tree_nodeINS_3setIjNS_4lessIjEENS_9allocatorIjEEEEPvEELi0ELb0EE5__getEv",
   "parameters" :
   [
    {
     "is_this_ptr" : true,
     "referenced_type" : "_ZTIPNSt3__122__compressed_pair_elemIPNS_11__tree_nodeINS_3setIjNS_4lessIjEENS_9allocatorIjEEEEPvEELi0ELb0EEE"
    }
   ],
   "return_type" : "_ZTIRPNSt3__111__tree_nodeINS_3setIjNS_4lessIjEENS_9allocatorIjEEEEPvEE",
   "source_file" : "external/libcxx/include/memory"
  },
  {
   "function_name" : "std::__1::__compressed_pair_elem<std::__1::__tree_node<std::__1::set<unsigned int, std::__1::less<unsigned int>, std::__1::allocator<unsigned int>>, void *> *, 0, false>::__compressed_pair_elem",
   "linker_set_key" : "_ZNSt3__122__compressed_pair_elemIPNS_11__tree_nodeINS_3setIjNS_4lessIjEENS_9allocatorIjEEEEPvEELi0ELb0EEC1IRSA_vEEOT_",
   "parameters" :
   [
    {
     "is_this_ptr" : true,
     "referenced_type" : "_ZTIPNSt3__122__compressed_pair_elemIPNS_11__tree_nodeINS_3setIjNS_4lessIjEENS_9allocatorIjEEEEPvEELi0ELb0EEE"
    },
    {
     "referenced_type" : "_ZTIRPNSt3__111__tree_nodeINS_3setIjNS_4lessIjEENS_9allocatorIjEEEEPvEE"
    }
   ],
   "return_type" : "_ZTIv",
   "source_file" : "external/libcxx/include/memory",
   "template_args" :
   [
    "_ZTIRPNSt3__111__tree_nodeINS_3setIjNS_4lessIjEENS_9allocatorIjEEEEPvEE",
    "_ZTIv"
   ]
  },
  {
   "function_name" : "std::__1::__compressed_pair_elem<std::__1::__tree_node<std::__1::set<unsigned int, std::__1::less<unsigned int>, std::__1::allocator<unsigned int>>, void *> *, 0, false>::__compressed_pair_elem",
   "linker_set_key" : "_ZNSt3__122__compressed_pair_elemIPNS_11__tree_nodeINS_3setIjNS_4lessIjEENS_9allocatorIjEEEEPvEELi0ELb0EEC1ISA_vEEOT_",
   "parameters" :
   [
    {
     "is_this_ptr" : true,
     "referenced_type" : "_ZTIPNSt3__122__compressed_pair_elemIPNS_11__tree_nodeINS_3setIjNS_4lessIjEENS_9allocatorIjEEEEPvEELi0ELb0EEE"
    },
    {
     "referenced_type" : "_ZTIOPNSt3__111__tree_nodeINS_3setIjNS_4lessIjEENS_9allocatorIjEEEEPvEE"
    }
   ],
   "return_type" : "_ZTIv",
   "source_file" : "external/libcxx/include/memory",
   "template_args" :
   [
    "_ZTIPNSt3__111__tree_nodeINS_3setIjNS_4lessIjEENS_9allocatorIjEEEEPvEE",
    "_ZTIv"
   ]
  },
  {
   "function_name" : "std::__1::__compressed_pair_elem<std::__1::__tree_node<std::__1::set<unsigned int, std::__1::less<unsigned int>, std::__1::allocator<unsigned int>>, void *> *, 0, false>::__compressed_pair_elem",
   "linker_set_key" : "_ZNSt3__122__compressed_pair_elemIPNS_11__tree_nodeINS_3setIjNS_4lessIjEENS_9allocatorIjEEEEPvEELi0ELb0EEC2IRSA_vEEOT_",
   "parameters" :
   [
    {
     "is_this_ptr" : true,
     "referenced_type" : "_ZTIPNSt3__122__compressed_pair_elemIPNS_11__tree_nodeINS_3setIjNS_4lessIjEENS_9allocatorIjEEEEPvEELi0ELb0EEE"
    },
    {
     "referenced_type" : "_ZTIRPNSt3__111__tree_nodeINS_3setIjNS_4lessIjEENS_9allocatorIjEEEEPvEE"
    }
   ],
   "return_type" : "_ZTIv",
   "source_file" : "external/libcxx/include/memory",
   "template_args" :
   [
    "_ZTIRPNSt3__111__tree_nodeINS_3setIjNS_4lessIjEENS_9allocatorIjEEEEPvEE",
    "_ZTIv"
   ]
  },
  {
   "function_name" : "std::__1::__compressed_pair_elem<std::__1::__tree_node<std::__1::set<unsigned int, std::__1::less<unsigned int>, std::__1::allocator<unsigned int>>, void *> *, 0, false>::__compressed_pair_elem",
   "linker_set_key" : "_ZNSt3__122__compressed_pair_elemIPNS_11__tree_nodeINS_3setIjNS_4lessIjEENS_9allocatorIjEEEEPvEELi0ELb0EEC2ISA_vEEOT_",
   "parameters" :
   [
    {
     "is_this_ptr" : true,
     "referenced_type" : "_ZTIPNSt3__122__compressed_pair_elemIPNS_11__tree_nodeINS_3setIjNS_4lessIjEENS_9allocatorIjEEEEPvEELi0ELb0EEE"
    },
    {
     "referenced_type" : "_ZTIOPNSt3__111__tree_nodeINS_3setIjNS_4lessIjEENS_9allocatorIjEEEEPvEE"
    }
   ],
   "return_type" : "_ZTIv",
   "source_file" : "external/libcxx/include/memory",
   "template_args" :
   [
    "_ZTIPNSt3__111__tree_nodeINS_3setIjNS_4lessIjEENS_9allocatorIjEEEEPvEE",
    "_ZTIv"
   ]
  },
  {
   "function_name" : "std::__1::__compressed_pair_elem<std::__1::__tree_node<unsigned int, void *> *, 0, false>::__get",
   "linker_set_key" : "_ZNSt3__122__compressed_pair_elemIPNS_11__tree_nodeIjPvEELi0ELb0EE5__getEv",
   "parameters" :
   [
    {
     "is_this_ptr" : true,
     "referenced_type" : "_ZTIPNSt3__122__compressed_pair_elemIPNS_11__tree_nodeIjPvEELi0ELb0EEE"
    }
   ],
   "return_type" : "_ZTIRPNSt3__111__tree_nodeIjPvEE",
   "source_file" : "external/libcxx/include/memory"
  },
  {
   "function_name" : "std::__1::__compressed_pair_elem<std::__1::__tree_node<unsigned int, void *> *, 0, false>::__compressed_pair_elem",
   "linker_set_key" : "_ZNSt3__122__compressed_pair_elemIPNS_11__tree_nodeIjPvEELi0ELb0EEC1IRS4_vEEOT_",
   "parameters" :
   [
    {
     "is_this_ptr" : true,
     "referenced_type" : "_ZTIPNSt3__122__compressed_pair_elemIPNS_11__tree_nodeIjPvEELi0ELb0EEE"
    },
    {
     "referenced_type" : "_ZTIRPNSt3__111__tree_nodeIjPvEE"
    }
   ],
   "return_type" : "_ZTIv",
   "source_file" : "external/libcxx/include/memory",
   "template_args" : [ "_ZTIRPNSt3__111__tree_nodeIjPvEE", "_ZTIv" ]
  },
  {
   "function_name" : "std::__1::__compressed_pair_elem<std::__1::__tree_node<unsigned int, void *> *, 0, false>::__compressed_pair_elem",
   "linker_set_key" : "_ZNSt3__122__compressed_pair_elemIPNS_11__tree_nodeIjPvEELi0ELb0EEC1IS4_vEEOT_",
   "parameters" :
   [
    {
     "is_this_ptr" : true,
     "referenced_type" : "_ZTIPNSt3__122__compressed_pair_elemIPNS_11__tree_nodeIjPvEELi0ELb0EEE"
    },
    {
     "referenced_type" : "_ZTIOPNSt3__111__tree_nodeIjPvEE"
    }
   ],
   "return_type" : "_ZTIv",
   "source_file" : "external/libcxx/include/memory",
   "template_args" : [ "_ZTIPNSt3__111__tree_nodeIjPvEE", "_ZTIv" ]
  },
  {
   "function_name" : "std::__1::__compressed_pair_elem<std::__1::__tree_node<unsigned int, void *> *, 0, false>::__compressed_pair_elem",
   "linker_set_key" : "_ZNSt3__122__compressed_pair_elemIPNS_11__tree_nodeIjPvEELi0ELb0EEC2IRS4_vEEOT_",
   "parameters" :
   [
    {
     "is_this_ptr" : true,
     "referenced_type" : "_ZTIPNSt3__122__compressed_pair_elemIPNS_11__tree_nodeIjPvEELi0ELb0EEE"
    },
    {
     "referenced_type" : "_ZTIRPNSt3__111__tree_nodeIjPvEE"
    }
   ],
   "return_type" : "_ZTIv",
   "source_file" : "external/libcxx/include/memory",
   "template_args" : [ "_ZTIRPNSt3__111__tree_nodeIjPvEE", "_ZTIv" ]
  },
  {
   "function_name" : "std::__1::__compressed_pair_elem<std::__1::__tree_node<unsigned int, void *> *, 0, false>::__compressed_pair_elem",
   "linker_set_key" : "_ZNSt3__122__compressed_pair_elemIPNS_11__tree_nodeIjPvEELi0ELb0EEC2IS4_vEEOT_",
   "parameters" :
   [
    {
     "is_this_ptr" : true,
     "referenced_type" : "_ZTIPNSt3__122__compressed_pair_elemIPNS_11__tree_nodeIjPvEELi0ELb0EEE"
    },
    {
     "referenced_type" : "_ZTIOPNSt3__111__tree_nodeIjPvEE"
    }
   ],
   "return_type" : "_ZTIv",
   "source_file" : "external/libcxx/include/memory",
   "template_args" : [ "_ZTIPNSt3__111__tree_nodeIjPvEE", "_ZTIv" ]
  },
  {
   "function_name" : "std::__1::__compressed_pair_elem<std::__1::set<unsigned int, std::__1::less<unsigned int>, std::__1::allocator<unsigned int>> *, 0, false>::__get",
   "linker_set_key" : "_ZNSt3__122__compressed_pair_elemIPNS_3setIjNS_4lessIjEENS_9allocatorIjEEEELi0ELb0EE5__getEv",
   "parameters" :
   [
    {
     "is_this_ptr" : true,
     "referenced_type" : "_ZTIPNSt3__122__compressed_pair_elemIPNS_3setIjNS_4lessIjEENS_9allocatorIjEEEELi0ELb0EEE"
    }
   ],
   "return_type" : "_ZTIRPNSt3__13setIjNS_4lessIjEENS_9allocatorIjEEEE",
   "source_file" : "external/libcxx/include/memory"
  },
  {
   "function_name" : "std::__1::__compressed_pair_elem<std::__1::set<unsigned int, std::__1::less<unsigned int>, std::__1::allocator<unsigned int>> *, 0, false>::__compressed_pair_elem",
   "linker_set_key" : "_ZNSt3__122__compressed_pair_elemIPNS_3setIjNS_4lessIjEENS_9allocatorIjEEEELi0ELb0EEC1IDnvEEOT_",
   "parameters" :
   [
    {
     "is_this_ptr" : true,
     "referenced_type" : "_ZTIPNSt3__122__compressed_pair_elemIPNS_3setIjNS_4lessIjEENS_9allocatorIjEEEELi0ELb0EEE"
    },
    {
     "referenced_type" : "_ZTIODn"
    }
   ],
   "return_type" : "_ZTIv",
   "source_file" : "external/libcxx/include/memory",
   "template_args" : [ "_ZTIDn", "_ZTIv" ]
  },
  {
   "function_name" : "std::__1::__compressed_pair_elem<std::__1::set<unsigned int, std::__1::less<unsigned int>, std::__1::allocator<unsigned int>> *, 0, false>::__compressed_pair_elem",
   "linker_set_key" : "_ZNSt3__122__compressed_pair_elemIPNS_3setIjNS_4lessIjEENS_9allocatorIjEEEELi0ELb0EEC2IDnvEEOT_",
   "parameters" :
   [
    {
     "is_this_ptr" : true,
     "referenced_type" : "_ZTIPNSt3__122__compressed_pair_elemIPNS_3setIjNS_4lessIjEENS_9allocatorIjEEEELi0ELb0EEE"
    },
    {
     "referenced_type" : "_ZTIODn"
    }
   ],
   "return_type" : "_ZTIv",
   "source_file" : "external/libcxx/include/memory",
   "template_args" : [ "_ZTIDn", "_ZTIv" ]
  },
  {
   "function_name" : "std::__1::__compressed_pair_elem<std::__1::allocator<std::__1::set<unsigned int, std::__1::less<unsigned int>, std::__1::allocator<unsigned int>>> &, 1, false>::__get",
   "linker_set_key" : "_ZNSt3__122__compressed_pair_elemIRNS_9allocatorINS_3setIjNS_4lessIjEENS1_IjEEEEEELi1ELb0EE5__getEv",
   "parameters" :
   [
    {
     "is_this_ptr" : true,
     "referenced_type" : "_ZTIPNSt3__122__compressed_pair_elemIRNS_9allocatorINS_3setIjNS_4lessIjEENS1_IjEEEEEELi1ELb0EEE"
    }
   ],
   "return_type" : "_ZTIRNSt3__19allocatorINS_3setIjNS_4lessIjEENS0_IjEEEEEE",
   "source_file" : "external/libcxx/include/memory"
  },
  {
   "function_name" : "std::__1::__compressed_pair_elem<std::__1::allocator<std::__1::set<unsigned int, std::__1::less<unsigned int>, std::__1::allocator<unsigned int>>> &, 1, false>::__compressed_pair_elem",
   "linker_set_key" : "_ZNSt3__122__compressed_pair_elemIRNS_9allocatorINS_3setIjNS_4lessIjEENS1_IjEEEEEELi1ELb0EEC1IS8_vEEOT_",
   "parameters" :
   [
    {
     "is_this_ptr" : true,
     "referenced_type" : "_ZTIPNSt3__122__compressed_pair_elemIRNS_9allocatorINS_3setIjNS_4lessIjEENS1_IjEEEEEELi1ELb0EEE"
    },
    {
     "referenced_type" : "_ZTIRNSt3__19allocatorINS_3setIjNS_4lessIjEENS0_IjEEEEEE"
    }
   ],
   "return_type" : "_ZTIv",
   "source_file" : "external/libcxx/include/memory",
   "template_args" : [ "_ZTIRNSt3__19allocatorINS_3setIjNS_4lessIjEENS0_IjEEEEEE", "_ZTIv" ]
  },
  {
   "function_name" : "std::__1::__compressed_pair_elem<std::__1::allocator<std::__1::set<unsigned int, std::__1::less<unsigned int>, std::__1::allocator<unsigned int>>> &, 1, false>::__compressed_pair_elem",
   "linker_set_key" : "_ZNSt3__122__compressed_pair_elemIRNS_9allocatorINS_3setIjNS_4lessIjEENS1_IjEEEEEELi1ELb0EEC2IS8_vEEOT_",
   "parameters" :
   [
    {
     "is_this_ptr" : true,
     "referenced_type" : "_ZTIPNSt3__122__compressed_pair_elemIRNS_9allocatorINS_3setIjNS_4lessIjEENS1_IjEEEEEELi1ELb0EEE"
    },
    {
     "referenced_type" : "_ZTIRNSt3__19allocatorINS_3setIjNS_4lessIjEENS0_IjEEEEEE"
    }
   ],
   "return_type" : "_ZTIv",
   "source_file" : "external/libcxx/include/memory",
   "template_args" : [ "_ZTIRNSt3__19allocatorINS_3setIjNS_4lessIjEENS0_IjEEEEEE", "_ZTIv" ]
  },
  {
   "function_name" : "std::__1::__compressed_pair_elem<unsigned long, 0, false>::__get",
   "linker_set_key" : "_ZNSt3__122__compressed_pair_elemImLi0ELb0EE5__getEv",
   "parameters" :
   [
    {
     "is_this_ptr" : true,
     "referenced_type" : "_ZTIPNSt3__122__compressed_pair_elemImLi0ELb0EEE"
    }
   ],
   "return_type" : "_ZTIRm",
   "source_file" : "external/libcxx/include/memory"
  },
  {
   "function_name" : "std::__1::__compressed_pair_elem<unsigned long, 0, false>::__compressed_pair_elem",
   "linker_set_key" : "_ZNSt3__122__compressed_pair_elemImLi0ELb0EEC1IivEEOT_",
   "parameters" :
   [
    {
     "is_this_ptr" : true,
     "referenced_type" : "_ZTIPNSt3__122__compressed_pair_elemImLi0ELb0EEE"
    },
    {
     "referenced_type" : "_ZTIOi"
    }
   ],
   "return_type" : "_ZTIv",
   "source_file" : "external/libcxx/include/memory",
   "template_args" : [ "_ZTIi", "_ZTIv" ]
  },
  {
   "function_name" : "std::__1::__compressed_pair_elem<unsigned long, 0, false>::__compressed_pair_elem",
   "linker_set_key" : "_ZNSt3__122__compressed_pair_elemImLi0ELb0EEC2IivEEOT_",
   "parameters" :
   [
    {
     "is_this_ptr" : true,
     "referenced_type" : "_ZTIPNSt3__122__compressed_pair_elemImLi0ELb0EEE"
    },
    {
     "referenced_type" : "_ZTIOi"
    }
   ],
   "return_type" : "_ZTIv",
   "source_file" : "external/libcxx/include/memory",
   "template_args" : [ "_ZTIi", "_ZTIv" ]
  },
  {
   "function_name" : "std::__1::__throw_overflow_error",
   "linker_set_key" : "_ZNSt3__122__throw_overflow_errorEPKc",
   "parameters" :
   [
    {
     "referenced_type" : "_ZTIPKc"
    }
   ],
   "return_type" : "_ZTIv",
   "source_file" : "external/libcxx/include/stdexcept"
  },
  {
   "function_name" : "std::__1::__tree_key_value_types<std::__1::set<unsigned int, std::__1::less<unsigned int>, std::__1::allocator<unsigned int>>>::__get_key",
   "linker_set_key" : "_ZNSt3__122__tree_key_value_typesINS_3setIjNS_4lessIjEENS_9allocatorIjEEEEE9__get_keyERKS6_",
   "parameters" :
   [
    {
     "referenced_type" : "_ZTIRKNSt3__13setIjNS_4lessIjEENS_9allocatorIjEEEE"
    }
   ],
   "return_type" : "_ZTIRKNSt3__13setIjNS_4lessIjEENS_9allocatorIjEEEE",
   "source_file" : "external/libcxx/include/__tree"
  },
  {
   "function_name" : "std::__1::__tree_key_value_types<std::__1::set<unsigned int, std::__1::less<unsigned int>, std::__1::allocator<unsigned int>>>::__get_ptr",
   "linker_set_key" : "_ZNSt3__122__tree_key_value_typesINS_3setIjNS_4lessIjEENS_9allocatorIjEEEEE9__get_ptrERS6_",
   "parameters" :
   [
    {
     "referenced_type" : "_ZTIRNSt3__13setIjNS_4lessIjEENS_9allocatorIjEEEE"
    }
   ],
   "return_type" : "_ZTIPNSt3__13setIjNS_4lessIjEENS_9allocatorIjEEEE",
   "source_file" : "external/libcxx/include/__tree"
  },
  {
   "function_name" : "std::__1::__tree_key_value_types<unsigned int>::__get_value",
   "linker_set_key" : "_ZNSt3__122__tree_key_value_typesIjE11__get_valueERKj",
   "parameters" :
   [
    {
     "referenced_type" : "_ZTIRKj"
    }
   ],
   "return_type" : "_ZTIRKj",
   "source_file" : "external/libcxx/include/__tree"
  },
  {
   "function_name" : "std::__1::__tree_key_value_types<unsigned int>::__get_key",
   "linker_set_key" : "_ZNSt3__122__tree_key_value_typesIjE9__get_keyERKj",
   "parameters" :
   [
    {
     "referenced_type" : "_ZTIRKj"
    }
   ],
   "return_type" : "_ZTIRKj",
   "source_file" : "external/libcxx/include/__tree"
  },
  {
   "function_name" : "std::__1::__tree_key_value_types<unsigned int>::__get_ptr",
   "linker_set_key" : "_ZNSt3__122__tree_key_value_typesIjE9__get_ptrERj",
   "parameters" :
   [
    {
     "referenced_type" : "_ZTIRj"
    }
   ],
   "return_type" : "_ZTIPj",
   "source_file" : "external/libcxx/include/__tree"
  },
  {
   "function_name" : "std::__1::__tree_node_destructor<std::__1::allocator<std::__1::__tree_node<std::__1::set<unsigned int, std::__1::less<unsigned int>, std::__1::allocator<unsigned int>>, void *>>>::__tree_node_destructor",
   "linker_set_key" : "_ZNSt3__122__tree_node_destructorINS_9allocatorINS_11__tree_nodeINS_3setIjNS_4lessIjEENS1_IjEEEEPvEEEEEC1ERSA_b",
   "parameters" :
   [
    {
     "is_this_ptr" : true,
     "referenced_type" : "_ZTIPNSt3__122__tree_node_destructorINS_9allocatorINS_11__tree_nodeINS_3setIjNS_4lessIjEENS1_IjEEEEPvEEEEEE"
    },
    {
     "referenced_type" : "_ZTIRNSt3__19allocatorINS_11__tree_nodeINS_3setIjNS_4lessIjEENS0_IjEEEEPvEEEE"
    },
    {
     "default_arg" : true,
     "referenced_type" : "_ZTIb"
    }
   ],
   "return_type" : "_ZTIv",
   "source_file" : "external/libcxx/include/__tree"
  },
  {
   "function_name" : "std::__1::__tree_node_destructor<std::__1::allocator<std::__1::__tree_node<std::__1::set<unsigned int, std::__1::less<unsigned int>, std::__1::allocator<unsigned int>>, void *>>>::__tree_node_destructor",
   "linker_set_key" : "_ZNSt3__122__tree_node_destructorINS_9allocatorINS_11__tree_nodeINS_3setIjNS_4lessIjEENS1_IjEEEEPvEEEEEC2ERSA_b",
   "parameters" :
   [
    {
     "is_this_ptr" : true,
     "referenced_type" : "_ZTIPNSt3__122__tree_node_destructorINS_9allocatorINS_11__tree_nodeINS_3setIjNS_4lessIjEENS1_IjEEEEPvEEEEEE"
    },
    {
     "referenced_type" : "_ZTIRNSt3__19allocatorINS_11__tree_nodeINS_3setIjNS_4lessIjEENS0_IjEEEEPvEEEE"
    },
    {
     "default_arg" : true,
     "referenced_type" : "_ZTIb"
    }
   ],
   "return_type" : "_ZTIv",
   "source_file" : "external/libcxx/include/__tree"
  },
  {
   "function_name" : "std::__1::__tree_node_destructor<std::__1::allocator<std::__1::__tree_node<std::__1::set<unsigned int, std::__1::less<unsigned int>, std::__1::allocator<unsigned int>>, void *>>>::operator()",
   "linker_set_key" : "_ZNSt3__122__tree_node_destructorINS_9allocatorINS_11__tree_nodeINS_3setIjNS_4lessIjEENS1_IjEEEEPvEEEEEclEPS9_",
   "parameters" :
   [
    {
     "is_this_ptr" : true,
     "referenced_type" : "_ZTIPNSt3__122__tree_node_destructorINS_9allocatorINS_11__tree_nodeINS_3setIjNS_4lessIjEENS1_IjEEEEPvEEEEEE"
    },
    {
     "referenced_type" : "_ZTIPNSt3__111__tree_nodeINS_3setIjNS_4lessIjEENS_9allocatorIjEEEEPvEE"
    }
   ],
   "return_type" : "_ZTIv",
   "source_file" : "external/libcxx/include/__tree"
  },
  {
   "function_name" : "std::__1::__tree_node_destructor<std::__1::allocator<std::__1::__tree_node<unsigned int, void *>>>::__tree_node_destructor",
   "linker_set_key" : "_ZNSt3__122__tree_node_destructorINS_9allocatorINS_11__tree_nodeIjPvEEEEEC1ERS5_b",
   "parameters" :
   [
    {
     "is_this_ptr" : true,
     "referenced_type" : "_ZTIPNSt3__122__tree_node_destructorINS_9allocatorINS_11__tree_nodeIjPvEEEEEE"
    },
    {
     "referenced_type" : "_ZTIRNSt3__19allocatorINS_11__tree_nodeIjPvEEEE"
    },
    {
     "default_arg" : true,
     "referenced_type" : "_ZTIb"
    }
   ],
   "return_type" : "_ZTIv",
   "source_file" : "external/libcxx/include/__tree"
  },
  {
   "function_name" : "std::__1::__tree_node_destructor<std::__1::allocator<std::__1::__tree_node<unsigned int, void *>>>::__tree_node_destructor",
   "linker_set_key" : "_ZNSt3__122__tree_node_destructorINS_9allocatorINS_11__tree_nodeIjPvEEEEEC2ERS5_b",
   "parameters" :
   [
    {
     "is_this_ptr" : true,
     "referenced_type" : "_ZTIPNSt3__122__tree_node_destructorINS_9allocatorINS_11__tree_nodeIjPvEEEEEE"
    },
    {
     "referenced_type" : "_ZTIRNSt3__19allocatorINS_11__tree_nodeIjPvEEEE"
    },
    {
     "default_arg" : true,
     "referenced_type" : "_ZTIb"
    }
   ],
   "return_type" : "_ZTIv",
   "source_file" : "external/libcxx/include/__tree"
  },
  {
   "function_name" : "std::__1::__tree_node_destructor<std::__1::allocator<std::__1::__tree_node<unsigned int, void *>>>::operator()",
   "linker_set_key" : "_ZNSt3__122__tree_node_destructorINS_9allocatorINS_11__tree_nodeIjPvEEEEEclEPS4_",
   "parameters" :
   [
    {
     "is_this_ptr" : true,
     "referenced_type" : "_ZTIPNSt3__122__tree_node_destructorINS_9allocatorINS_11__tree_nodeIjPvEEEEEE"
    },
    {
     "referenced_type" : "_ZTIPNSt3__111__tree_nodeIjPvEE"
    }
   ],
   "return_type" : "_ZTIv",
   "source_file" : "external/libcxx/include/__tree"
  },
  {
   "access" : "protected",
   "function_name" : "std::__1::__libcpp_numeric_limits<bool, true>::denorm_min",
   "linker_set_key" : "_ZNSt3__123__libcpp_numeric_limitsIbLb1EE10denorm_minEv",
   "return_type" : "_ZTIb",
   "source_file" : "external/libcxx/include/limits"
  },
  {
   "access" : "protected",
   "function_name" : "std::__1::__libcpp_numeric_limits<bool, true>::round_error",
   "linker_set_key" : "_ZNSt3__123__libcpp_numeric_limitsIbLb1EE11round_errorEv",
   "return_type" : "_ZTIb",
   "source_file" : "external/libcxx/include/limits"
  },
  {
   "access" : "protected",
   "function_name" : "std::__1::__libcpp_numeric_limits<bool, true>::signaling_NaN",
   "linker_set_key" : "_ZNSt3__123__libcpp_numeric_limitsIbLb1EE13signaling_NaNEv",
   "return_type" : "_ZTIb",
   "source_file" : "external/libcxx/include/limits"
  },
  {
   "access" : "protected",
   "function_name" : "std::__1::__libcpp_numeric_limits<bool, true>::max",
   "linker_set_key" : "_ZNSt3__123__libcpp_numeric_limitsIbLb1EE3maxEv",
   "return_type" : "_ZTIb",
   "source_file" : "external/libcxx/include/limits"
  },
  {
   "access" : "protected",
   "function_name" : "std::__1::__libcpp_numeric_limits<bool, true>::min",
   "linker_set_key" : "_ZNSt3__123__libcpp_numeric_limitsIbLb1EE3minEv",
   "return_type" : "_ZTIb",
   "source_file" : "external/libcxx/include/limits"
  },
  {
   "access" : "protected",
   "function_name" : "std::__1::__libcpp_numeric_limits<bool, true>::lowest",
   "linker_set_key" : "_ZNSt3__123__libcpp_numeric_limitsIbLb1EE6lowestEv",
   "return_type" : "_ZTIb",
   "source_file" : "external/libcxx/include/limits"
  },
  {
   "access" : "protected",
   "function_name" : "std::__1::__libcpp_numeric_limits<bool, true>::epsilon",
   "linker_set_key" : "_ZNSt3__123__libcpp_numeric_limitsIbLb1EE7epsilonEv",
   "return_type" : "_ZTIb",
   "source_file" : "external/libcxx/include/limits"
  },
  {
   "access" : "protected",
   "function_name" : "std::__1::__libcpp_numeric_limits<bool, true>::infinity",
   "linker_set_key" : "_ZNSt3__123__libcpp_numeric_limitsIbLb1EE8infinityEv",
   "return_type" : "_ZTIb",
   "source_file" : "external/libcxx/include/limits"
  },
  {
   "access" : "protected",
   "function_name" : "std::__1::__libcpp_numeric_limits<bool, true>::quiet_NaN",
   "linker_set_key" : "_ZNSt3__123__libcpp_numeric_limitsIbLb1EE9quiet_NaNEv",
   "return_type" : "_ZTIb",
   "source_file" : "external/libcxx/include/limits"
  },
  {
   "access" : "protected",
   "function_name" : "std::__1::__libcpp_numeric_limits<double, true>::denorm_min",
   "linker_set_key" : "_ZNSt3__123__libcpp_numeric_limitsIdLb1EE10denorm_minEv",
   "return_type" : "_ZTId",
   "source_file" : "external/libcxx/include/limits"
  },
  {
   "access" : "protected",
   "function_name" : "std::__1::__libcpp_numeric_limits<double, true>::round_error",
   "linker_set_key" : "_ZNSt3__123__libcpp_numeric_limitsIdLb1EE11round_errorEv",
   "return_type" : "_ZTId",
   "source_file" : "external/libcxx/include/limits"
  },
  {
   "access" : "protected",
   "function_name" : "std::__1::__libcpp_numeric_limits<double, true>::signaling_NaN",
   "linker_set_key" : "_ZNSt3__123__libcpp_numeric_limitsIdLb1EE13signaling_NaNEv",
   "return_type" : "_ZTId",
   "source_file" : "external/libcxx/include/limits"
  },
  {
   "access" : "protected",
   "function_name" : "std::__1::__libcpp_numeric_limits<double, true>::max",
   "linker_set_key" : "_ZNSt3__123__libcpp_numeric_limitsIdLb1EE3maxEv",
   "return_type" : "_ZTId",
   "source_file" : "external/libcxx/include/limits"
  },
  {
   "access" : "protected",
   "function_name" : "std::__1::__libcpp_numeric_limits<double, true>::min",
   "linker_set_key" : "_ZNSt3__123__libcpp_numeric_limitsIdLb1EE3minEv",
   "return_type" : "_ZTId",
   "source_file" : "external/libcxx/include/limits"
  },
  {
   "access" : "protected",
   "function_name" : "std::__1::__libcpp_numeric_limits<double, true>::lowest",
   "linker_set_key" : "_ZNSt3__123__libcpp_numeric_limitsIdLb1EE6lowestEv",
   "return_type" : "_ZTId",
   "source_file" : "external/libcxx/include/limits"
  },
  {
   "access" : "protected",
   "function_name" : "std::__1::__libcpp_numeric_limits<double, true>::epsilon",
   "linker_set_key" : "_ZNSt3__123__libcpp_numeric_limitsIdLb1EE7epsilonEv",
   "return_type" : "_ZTId",
   "source_file" : "external/libcxx/include/limits"
  },
  {
   "access" : "protected",
   "function_name" : "std::__1::__libcpp_numeric_limits<double, true>::infinity",
   "linker_set_key" : "_ZNSt3__123__libcpp_numeric_limitsIdLb1EE8infinityEv",
   "return_type" : "_ZTId",
   "source_file" : "external/libcxx/include/limits"
  },
  {
   "access" : "protected",
   "function_name" : "std::__1::__libcpp_numeric_limits<double, true>::quiet_NaN",
   "linker_set_key" : "_ZNSt3__123__libcpp_numeric_limitsIdLb1EE9quiet_NaNEv",
   "return_type" : "_ZTId",
   "source_file" : "external/libcxx/include/limits"
  },
  {
   "access" : "protected",
   "function_name" : "std::__1::__libcpp_numeric_limits<long double, true>::denorm_min",
   "linker_set_key" : "_ZNSt3__123__libcpp_numeric_limitsIeLb1EE10denorm_minEv",
   "return_type" : "_ZTIe",
   "source_file" : "external/libcxx/include/limits"
  },
  {
   "access" : "protected",
   "function_name" : "std::__1::__libcpp_numeric_limits<long double, true>::round_error",
   "linker_set_key" : "_ZNSt3__123__libcpp_numeric_limitsIeLb1EE11round_errorEv",
   "return_type" : "_ZTIe",
   "source_file" : "external/libcxx/include/limits"
  },
  {
   "access" : "protected",
   "function_name" : "std::__1::__libcpp_numeric_limits<long double, true>::signaling_NaN",
   "linker_set_key" : "_ZNSt3__123__libcpp_numeric_limitsIeLb1EE13signaling_NaNEv",
   "return_type" : "_ZTIe",
   "source_file" : "external/libcxx/include/limits"
  },
  {
   "access" : "protected",
   "function_name" : "std::__1::__libcpp_numeric_limits<long double, true>::max",
   "linker_set_key" : "_ZNSt3__123__libcpp_numeric_limitsIeLb1EE3maxEv",
   "return_type" : "_ZTIe",
   "source_file" : "external/libcxx/include/limits"
  },
  {
   "access" : "protected",
   "function_name" : "std::__1::__libcpp_numeric_limits<long double, true>::min",
   "linker_set_key" : "_ZNSt3__123__libcpp_numeric_limitsIeLb1EE3minEv",
   "return_type" : "_ZTIe",
   "source_file" : "external/libcxx/include/limits"
  },
  {
   "access" : "protected",
   "function_name" : "std::__1::__libcpp_numeric_limits<long double, true>::lowest",
   "linker_set_key" : "_ZNSt3__123__libcpp_numeric_limitsIeLb1EE6lowestEv",
   "return_type" : "_ZTIe",
   "source_file" : "external/libcxx/include/limits"
  },
  {
   "access" : "protected",
   "function_name" : "std::__1::__libcpp_numeric_limits<long double, true>::epsilon",
   "linker_set_key" : "_ZNSt3__123__libcpp_numeric_limitsIeLb1EE7epsilonEv",
   "return_type" : "_ZTIe",
   "source_file" : "external/libcxx/include/limits"
  },
  {
   "access" : "protected",
   "function_name" : "std::__1::__libcpp_numeric_limits<long double, true>::infinity",
   "linker_set_key" : "_ZNSt3__123__libcpp_numeric_limitsIeLb1EE8infinityEv",
   "return_type" : "_ZTIe",
   "source_file" : "external/libcxx/include/limits"
  },
  {
   "access" : "protected",
   "function_name" : "std::__1::__libcpp_numeric_limits<long double, true>::quiet_NaN",
   "linker_set_key" : "_ZNSt3__123__libcpp_numeric_limitsIeLb1EE9quiet_NaNEv",
   "return_type" : "_ZTIe",
   "source_file" : "external/libcxx/include/limits"
  },
  {
   "access" : "protected",
   "function_name" : "std::__1::__libcpp_numeric_limits<float, true>::denorm_min",
   "linker_set_key" : "_ZNSt3__123__libcpp_numeric_limitsIfLb1EE10denorm_minEv",
   "return_type" : "_ZTIf",
   "source_file" : "external/libcxx/include/limits"
  },
  {
   "access" : "protected",
   "function_name" : "std::__1::__libcpp_numeric_limits<float, true>::round_error",
   "linker_set_key" : "_ZNSt3__123__libcpp_numeric_limitsIfLb1EE11round_errorEv",
   "return_type" : "_ZTIf",
   "source_file" : "external/libcxx/include/limits"
  },
  {
   "access" : "protected",
   "function_name" : "std::__1::__libcpp_numeric_limits<float, true>::signaling_NaN",
   "linker_set_key" : "_ZNSt3__123__libcpp_numeric_limitsIfLb1EE13signaling_NaNEv",
   "return_type" : "_ZTIf",
   "source_file" : "external/libcxx/include/limits"
  },
  {
   "access" : "protected",
   "function_name" : "std::__1::__libcpp_numeric_limits<float, true>::max",
   "linker_set_key" : "_ZNSt3__123__libcpp_numeric_limitsIfLb1EE3maxEv",
   "return_type" : "_ZTIf",
   "source_file" : "external/libcxx/include/limits"
  },
  {
   "access" : "protected",
   "function_name" : "std::__1::__libcpp_numeric_limits<float, true>::min",
   "linker_set_key" : "_ZNSt3__123__libcpp_numeric_limitsIfLb1EE3minEv",
   "return_type" : "_ZTIf",
   "source_file" : "external/libcxx/include/limits"
  },
  {
   "access" : "protected",
   "function_name" : "std::__1::__libcpp_numeric_limits<float, true>::lowest",
   "linker_set_key" : "_ZNSt3__123__libcpp_numeric_limitsIfLb1EE6lowestEv",
   "return_type" : "_ZTIf",
   "source_file" : "external/libcxx/include/limits"
  },
  {
   "access" : "protected",
   "function_name" : "std::__1::__libcpp_numeric_limits<float, true>::epsilon",
   "linker_set_key" : "_ZNSt3__123__libcpp_numeric_limitsIfLb1EE7epsilonEv",
   "return_type" : "_ZTIf",
   "source_file" : "external/libcxx/include/limits"
  },
  {
   "access" : "protected",
   "function_name" : "std::__1::__libcpp_numeric_limits<float, true>::infinity",
   "linker_set_key" : "_ZNSt3__123__libcpp_numeric_limitsIfLb1EE8infinityEv",
   "return_type" : "_ZTIf",
   "source_file" : "external/libcxx/include/limits"
  },
  {
   "access" : "protected",
   "function_name" : "std::__1::__libcpp_numeric_limits<float, true>::quiet_NaN",
   "linker_set_key" : "_ZNSt3__123__libcpp_numeric_limitsIfLb1EE9quiet_NaNEv",
   "return_type" : "_ZTIf",
   "source_file" : "external/libcxx/include/limits"
  },
  {
   "access" : "protected",
   "function_name" : "std::__1::__libcpp_numeric_limits<long, true>::max",
   "linker_set_key" : "_ZNSt3__123__libcpp_numeric_limitsIlLb1EE3maxEv",
   "return_type" : "_ZTIl",
   "source_file" : "external/libcxx/include/limits"
  },
  {
   "function_name" : "std::__1::__throw_underflow_error",
   "linker_set_key" : "_ZNSt3__123__throw_underflow_errorEPKc",
   "parameters" :
   [
    {
     "referenced_type" : "_ZTIPKc"
    }
   ],
   "return_type" : "_ZTIv",
   "source_file" : "external/libcxx/include/stdexcept"
  },
  {
   "function_name" : "std::__1::lexicographical_compare",
   "linker_set_key" : "_ZNSt3__123lexicographical_compareINS_21__tree_const_iteratorIjPNS_11__tree_nodeIjPvEElEES6_EEbT_S7_T0_S8_",
   "parameters" :
   [
    {
     "referenced_type" : "_ZTINSt3__121__tree_const_iteratorIjPNS_11__tree_nodeIjPvEElEE"
    },
    {
     "referenced_type" : "_ZTINSt3__121__tree_const_iteratorIjPNS_11__tree_nodeIjPvEElEE"
    },
    {
     "referenced_type" : "_ZTINSt3__121__tree_const_iteratorIjPNS_11__tree_nodeIjPvEElEE"
    },
    {
     "referenced_type" : "_ZTINSt3__121__tree_const_iteratorIjPNS_11__tree_nodeIjPvEElEE"
    }
   ],
   "return_type" : "_ZTIb",
   "source_file" : "external/libcxx/include/algorithm",
   "template_args" :
   [
    "_ZTINSt3__121__tree_const_iteratorIjPNS_11__tree_nodeIjPvEElEE",
    "_ZTINSt3__121__tree_const_iteratorIjPNS_11__tree_nodeIjPvEElEE"
   ]
  },
  {
   "function_name" : "std::__1::lexicographical_compare",
   "linker_set_key" : "_ZNSt3__123lexicographical_compareINS_21__tree_const_iteratorIjPNS_11__tree_nodeIjPvEElEES6_NS_6__lessIjjEEEEbT_S9_T0_SA_T1_",
   "parameters" :
   [
    {
     "referenced_type" : "_ZTINSt3__121__tree_const_iteratorIjPNS_11__tree_nodeIjPvEElEE"
    },
    {
     "referenced_type" : "_ZTINSt3__121__tree_const_iteratorIjPNS_11__tree_nodeIjPvEElEE"
    },
    {
     "referenced_type" : "_ZTINSt3__121__tree_const_iteratorIjPNS_11__tree_nodeIjPvEElEE"
    },
    {
     "referenced_type" : "_ZTINSt3__121__tree_const_iteratorIjPNS_11__tree_nodeIjPvEElEE"
    },
    {
     "referenced_type" : "_ZTINSt3__16__lessIjjEE"
    }
   ],
   "return_type" : "_ZTIb",
   "source_file" : "external/libcxx/include/algorithm",
   "template_args" :
   [
    "_ZTINSt3__121__tree_const_iteratorIjPNS_11__tree_nodeIjPvEElEE",
    "_ZTINSt3__121__tree_const_iteratorIjPNS_11__tree_nodeIjPvEElEE",
    "_ZTINSt3__16__lessIjjEE"
   ]
  },
  {
   "function_name" : "std::__1::__is_overaligned_for_new",
   "linker_set_key" : "_ZNSt3__124__is_overaligned_for_newEm",
   "parameters" :
   [
    {
     "referenced_type" : "_ZTIm"
    }
   ],
   "return_type" : "_ZTIb",
   "source_file" : "external/libcxx/include/new"
  },
  {
   "function_name" : "std::__1::__throw_invalid_argument",
   "linker_set_key" : "_ZNSt3__124__throw_invalid_argumentEPKc",
   "parameters" :
   [
    {
     "referenced_type" : "_ZTIPKc"
    }
   ],
   "return_type" : "_ZTIv",
   "source_file" : "external/libcxx/include/stdexcept"
  },
  {
   "function_name" : "std::__1::atomic_flag_test_and_set",
   "linker_set_key" : "_ZNSt3__124atomic_flag_test_and_setEPNS_11atomic_flagE",
   "parameters" :
   [
    {
     "referenced_type" : "_ZTIPNSt3__111atomic_flagE"
    }
   ],
   "return_type" : "_ZTIb",
   "source_file" : "external/libcxx/include/atomic"
  },
  {
   "function_name" : "std::__1::atomic_flag_test_and_set",
   "linker_set_key" : "_ZNSt3__124atomic_flag_test_and_setEPVNS_11atomic_flagE",
   "parameters" :
   [
    {
     "referenced_type" : "_ZTIPVNSt3__111atomic_flagE"
    }
   ],
   "return_type" : "_ZTIb",
   "source_file" : "external/libcxx/include/atomic"
  },
  {
   "function_name" : "std::__1::__lexicographical_compare",
   "linker_set_key" : "_ZNSt3__125__lexicographical_compareIRNS_6__lessIjjEENS_21__tree_const_iteratorIjPNS_11__tree_nodeIjPvEElEES9_EEbT0_SA_T1_SB_T_",
   "parameters" :
   [
    {
     "referenced_type" : "_ZTINSt3__121__tree_const_iteratorIjPNS_11__tree_nodeIjPvEElEE"
    },
    {
     "referenced_type" : "_ZTINSt3__121__tree_const_iteratorIjPNS_11__tree_nodeIjPvEElEE"
    },
    {
     "referenced_type" : "_ZTINSt3__121__tree_const_iteratorIjPNS_11__tree_nodeIjPvEElEE"
    },
    {
     "referenced_type" : "_ZTINSt3__121__tree_const_iteratorIjPNS_11__tree_nodeIjPvEElEE"
    },
    {
     "referenced_type" : "_ZTIRNSt3__16__lessIjjEE"
    }
   ],
   "return_type" : "_ZTIb",
   "source_file" : "external/libcxx/include/algorithm",
   "template_args" :
   [
    "_ZTIRNSt3__16__lessIjjEE",
    "_ZTINSt3__121__tree_const_iteratorIjPNS_11__tree_nodeIjPvEElEE",
    "_ZTINSt3__121__tree_const_iteratorIjPNS_11__tree_nodeIjPvEElEE"
   ]
  },
  {
   "function_name" : "std::__1::__throw_bad_function_call",
   "linker_set_key" : "_ZNSt3__125__throw_bad_function_callEv",
   "return_type" : "_ZTIv",
   "source_file" : "external/libcxx/include/functional"
  },
  {
   "function_name" : "std::__1::atomic_flag_clear_explicit",
   "linker_set_key" : "_ZNSt3__126atomic_flag_clear_explicitEPNS_11atomic_flagENS_12memory_orderE",
   "parameters" :
   [
    {
     "referenced_type" : "_ZTIPNSt3__111atomic_flagE"
    },
    {
     "referenced_type" : "_ZTINSt3__112memory_orderE"
    }
   ],
   "return_type" : "_ZTIv",
   "source_file" : "external/libcxx/include/atomic"
  },
  {
   "function_name" : "std::__1::atomic_flag_clear_explicit",
   "linker_set_key" : "_ZNSt3__126atomic_flag_clear_explicitEPVNS_11atomic_flagENS_12memory_orderE",
   "parameters" :
   [
    {
     "referenced_type" : "_ZTIPVNSt3__111atomic_flagE"
    },
    {
     "referenced_type" : "_ZTINSt3__112memory_orderE"
    }
   ],
   "return_type" : "_ZTIv",
   "source_file" : "external/libcxx/include/atomic"
  },
  {
   "function_name" : "std::__1::__libcpp_deallocate_unsized",
   "linker_set_key" : "_ZNSt3__127__libcpp_deallocate_unsizedEPvm",
   "parameters" :
   [
    {
     "referenced_type" : "_ZTIPv"
    },
    {
     "referenced_type" : "_ZTIm"
    }
   ],
   "return_type" : "_ZTIv",
   "source_file" : "external/libcxx/include/new"
  },
  {
   "function_name" : "std::__1::__tree_balance_after_insert",
   "linker_set_key" : "_ZNSt3__127__tree_balance_after_insertIPNS_16__tree_node_baseIPvEEEEvT_S5_",
   "parameters" :
   [
    {
     "referenced_type" : "_ZTIPNSt3__116__tree_node_baseIPvEE"
    },
    {
     "referenced_type" : "_ZTIPNSt3__116__tree_node_baseIPvEE"
    }
   ],
   "return_type" : "_ZTIv",
   "source_file" : "external/libcxx/include/__tree",
   "template_args" : [ "_ZTIPNSt3__116__tree_node_baseIPvEE" ]
  },
  {
   "function_name" : "std::__1::__check_tuple_constructor_fail::__enable_assign",
   "linker_set_key" : "_ZNSt3__130__check_tuple_constructor_fail15__enable_assignIJNS_4pairImmEEEEEbv",
   "return_type" : "_ZTIb",
   "source_file" : "external/libcxx/include/__tuple"
  },
  {
   "function_name" : "std::__1::__check_tuple_constructor_fail::__enable_explicit",
   "linker_set_key" : "_ZNSt3__130__check_tuple_constructor_fail17__enable_explicitIJNS_4pairINS_21__tree_const_iteratorINS_3setIjNS_4lessIjEENS_9allocatorIjEEEEPNS_11__tree_nodeIS9_PvEElEEbEEEEEbv",
   "return_type" : "_ZTIb",
   "source_file" : "external/libcxx/include/__tuple"
  },
  {
   "function_name" : "std::__1::__check_tuple_constructor_fail::__enable_explicit",
   "linker_set_key" : "_ZNSt3__130__check_tuple_constructor_fail17__enable_explicitIJNS_4pairINS_21__tree_const_iteratorIjPNS_11__tree_nodeIjPvEElEEbEEEEEbv",
   "return_type" : "_ZTIb",
   "source_file" : "external/libcxx/include/__tuple"
  },
  {
   "function_name" : "std::__1::__check_tuple_constructor_fail::__enable_implicit",
   "linker_set_key" : "_ZNSt3__130__check_tuple_constructor_fail17__enable_implicitIJNS_4pairINS_15__tree_iteratorINS_3setIjNS_4lessIjEENS_9allocatorIjEEEEPNS_11__tree_nodeIS9_PvEElEEbEEEEEbv",
   "return_type" : "_ZTIb",
   "source_file" : "external/libcxx/include/__tuple"
  },
  {
   "function_name" : "std::__1::__check_tuple_constructor_fail::__enable_implicit",
   "linker_set_key" : "_ZNSt3__130__check_tuple_constructor_fail17__enable_implicitIJNS_4pairINS_15__tree_iteratorIjPNS_11__tree_nodeIjPvEElEEbEEEEEbv",
   "return_type" : "_ZTIb",
   "source_file" : "external/libcxx/include/__tuple"
  },
  {
   "function_name" : "std::__1::__check_tuple_constructor_fail::__enable_implicit",
   "linker_set_key" : "_ZNSt3__130__check_tuple_constructor_fail17__enable_implicitIJNS_4pairINS_21__tree_const_iteratorINS_3setIjNS_4lessIjEENS_9allocatorIjEEEEPNS_11__tree_nodeIS9_PvEElEEbEEEEEbv",
   "return_type" : "_ZTIb",
   "source_file" : "external/libcxx/include/__tuple"
  },
  {
   "function_name" : "std::__1::__check_tuple_constructor_fail::__enable_implicit",
   "linker_set_key" : "_ZNSt3__130__check_tuple_constructor_fail17__enable_implicitIJNS_4pairINS_21__tree_const_iteratorIjPNS_11__tree_nodeIjPvEElEEbEEEEEbv",
   "return_type" : "_ZTIb",
   "source_file" : "external/libcxx/include/__tuple"
  },
  {
   "function_name" : "std::__1::__check_tuple_constructor_fail::__enable_implicit",
   "linker_set_key" : "_ZNSt3__130__check_tuple_constructor_fail17__enable_implicitIJNS_4pairImmEEEEEbv",
   "return_type" : "_ZTIb",
   "source_file" : "external/libcxx/include/__tuple"
  },
  {
   "function_name" : "std::__1::atomic_flag_test_and_set_explicit",
   "linker_set_key" : "_ZNSt3__133atomic_flag_test_and_set_explicitEPNS_11atomic_flagENS_12memory_orderE",
   "parameters" :
   [
    {
     "referenced_type" : "_ZTIPNSt3__111atomic_flagE"
    },
    {
     "referenced_type" : "_ZTINSt3__112memory_orderE"
    }
   ],
   "return_type" : "_ZTIb",
   "source_file" : "external/libcxx/include/atomic"
  },
  {
   "function_name" : "std::__1::atomic_flag_test_and_set_explicit",
   "linker_set_key" : "_ZNSt3__133atomic_flag_test_and_set_explicitEPVNS_11atomic_flagENS_12memory_orderE",
   "parameters" :
   [
    {
     "referenced_type" : "_ZTIPVNSt3__111atomic_flagE"
    },
    {
     "referenced_type" : "_ZTINSt3__112memory_orderE"
    }
   ],
   "return_type" : "_ZTIb",
   "source_file" : "external/libcxx/include/atomic"
  },
  {
   "function_name" : "std::__1::__libcpp_atomic_refcount_decrement",
   "linker_set_key" : "_ZNSt3__134__libcpp_atomic_refcount_decrementIlEET_RS1_",
   "parameters" :
   [
    {
     "referenced_type" : "_ZTIRl"
    }
   ],
   "return_type" : "_ZTIl",
   "source_file" : "external/libcxx/include/memory",
   "template_args" : [ "_ZTIl" ]
  },
  {
   "function_name" : "std::__1::__libcpp_atomic_refcount_increment",
   "linker_set_key" : "_ZNSt3__134__libcpp_atomic_refcount_incrementIlEET_RS1_",
   "parameters" :
   [
    {
     "referenced_type" : "_ZTIRl"
    }
   ],
   "return_type" : "_ZTIl",
   "source_file" : "external/libcxx/include/memory",
   "template_args" : [ "_ZTIl" ]
  },
  {
   "function_name" : "std::__1::max",
   "linker_set_key" : "_ZNSt3__13maxImEERKT_S3_S3_",
   "parameters" :
   [
    {
     "referenced_type" : "_ZTIRKm"
    },
    {
     "referenced_type" : "_ZTIRKm"
    }
   ],
   "return_type" : "_ZTIRKm",
   "source_file" : "external/libcxx/include/algorithm",
   "template_args" : [ "_ZTIm" ]
  },
  {
   "function_name" : "std::__1::max",
   "linker_set_key" : "_ZNSt3__13maxImNS_6__lessImmEEEERKT_S5_S5_T0_",
   "parameters" :
   [
    {
     "referenced_type" : "_ZTIRKm"
    },
    {
     "referenced_type" : "_ZTIRKm"
    },
    {
     "referenced_type" : "_ZTINSt3__16__lessImmEE"
    }
   ],
   "return_type" : "_ZTIRKm",
   "source_file" : "external/libcxx/include/algorithm",
   "template_args" : [ "_ZTIm", "_ZTINSt3__16__lessImmEE" ]
  },
  {
   "function_name" : "std::__1::min",
   "linker_set_key" : "_ZNSt3__13minImEERKT_S3_S3_",
   "parameters" :
   [
    {
     "referenced_type" : "_ZTIRKm"
    },
    {
     "referenced_type" : "_ZTIRKm"
    }
   ],
   "return_type" : "_ZTIRKm",
   "source_file" : "external/libcxx/include/algorithm",
   "template_args" : [ "_ZTIm" ]
  },
  {
   "function_name" : "std::__1::min",
   "linker_set_key" : "_ZNSt3__13minImNS_6__lessImmEEEERKT_S5_S5_T0_",
   "parameters" :
   [
    {
     "referenced_type" : "_ZTIRKm"
    },
    {
     "referenced_type" : "_ZTIRKm"
    },
    {
     "referenced_type" : "_ZTINSt3__16__lessImmEE"
    }
   ],
   "return_type" : "_ZTIRKm",
   "source_file" : "external/libcxx/include/algorithm",
   "template_args" : [ "_ZTIm", "_ZTINSt3__16__lessImmEE" ]
  },
  {
   "function_name" : "std::__1::set<std::__1::set<unsigned int, std::__1::less<unsigned int>, std::__1::allocator<unsigned int>>, std::__1::less<std::__1::set<unsigned int, std::__1::less<unsigned int>, std::__1::allocator<unsigned int>>>, std::__1::allocator<std::__1::set<unsigned int, std::__1::less<unsigned int>, std::__1::allocator<unsigned int>>>>::insert",
   "linker_set_key" : "_ZNSt3__13setINS0_IjNS_4lessIjEENS_9allocatorIjEEEENS1_IS5_EENS3_IS5_EEE6insertERKS5_",
   "parameters" :
   [
    {
     "is_this_ptr" : true,
     "referenced_type" : "_ZTIPNSt3__13setINS0_IjNS_4lessIjEENS_9allocatorIjEEEENS1_IS5_EENS3_IS5_EEEE"
    },
    {
     "referenced_type" : "_ZTIRKNSt3__13setIjNS_4lessIjEENS_9allocatorIjEEEE"
    }
   ],
   "return_type" : "_ZTINSt3__14pairINS_21__tree_const_iteratorINS_3setIjNS_4lessIjEENS_9allocatorIjEEEEPNS_11__tree_nodeIS7_PvEElEEbEE",
   "source_file" : "external/libcxx/include/set"
  },
  {
   "function_name" : "std::__1::set<unsigned int, std::__1::less<unsigned int>, std::__1::allocator<unsigned int>>::begin",
   "linker_set_key" : "_ZNSt3__13setIjNS_4lessIjEENS_9allocatorIjEEE5beginEv",
   "parameters" :
   [
    {
     "is_this_ptr" : true,
     "referenced_type" : "_ZTIPNSt3__13setIjNS_4lessIjEENS_9allocatorIjEEEE"
    }
   ],
   "return_type" : "_ZTINSt3__121__tree_const_iteratorIjPNS_11__tree_nodeIjPvEElEE",
   "source_file" : "external/libcxx/include/set"
  },
  {
   "function_name" : "std::__1::set<unsigned int, std::__1::less<unsigned int>, std::__1::allocator<unsigned int>>::insert",
   "linker_set_key" : "_ZNSt3__13setIjNS_4lessIjEENS_9allocatorIjEEE6insertENS_21__tree_const_iteratorIjPNS_11__tree_nodeIjPvEElEERKj",
   "parameters" :
   [
    {
     "is_this_ptr" : true,
     "referenced_type" : "_ZTIPNSt3__13setIjNS_4lessIjEENS_9allocatorIjEEEE"
    },
    {
     "referenced_type" : "_ZTINSt3__121__tree_const_iteratorIjPNS_11__tree_nodeIjPvEElEE"
    },
    {
     "referenced_type" : "_ZTIRKj"
    }
   ],
   "return_type" : "_ZTINSt3__121__tree_const_iteratorIjPNS_11__tree_nodeIjPvEElEE",
   "source_file" : "external/libcxx/include/set"
  },
  {
   "function_name" : "std::__1::set<unsigned int, std::__1::less<unsigned int>, std::__1::allocator<unsigned int>>::insert",
   "linker_set_key" : "_ZNSt3__13setIjNS_4lessIjEENS_9allocatorIjEEE6insertERKj",
   "parameters" :
   [
    {
     "is_this_ptr" : true,
     "referenced_type" : "_ZTIPNSt3__13setIjNS_4lessIjEENS_9allocatorIjEEEE"
    },
    {
     "referenced_type" : "_ZTIRKj"
    }
   ],
   "return_type" : "_ZTINSt3__14pairINS_21__tree_const_iteratorIjPNS_11__tree_nodeIjPvEElEEbEE",
   "source_file" : "external/libcxx/include/set"
  },
  {
   "function_name" : "std::__1::set<unsigned int, std::__1::less<unsigned int>, std::__1::allocator<unsigned int>>::insert",
   "linker_set_key" : "_ZNSt3__13setIjNS_4lessIjEENS_9allocatorIjEEE6insertINS_21__tree_const_iteratorIjPNS_11__tree_nodeIjPvEElEEEEvT_SD_",
   "parameters" :
   [
    {
     "is_this_ptr" : true,
     "referenced_type" : "_ZTIPNSt3__13setIjNS_4lessIjEENS_9allocatorIjEEEE"
    },
    {
     "referenced_type" : "_ZTINSt3__121__tree_const_iteratorIjPNS_11__tree_nodeIjPvEElEE"
    },
    {
     "referenced_type" : "_ZTINSt3__121__tree_const_iteratorIjPNS_11__tree_nodeIjPvEElEE"
    }
   ],
   "return_type" : "_ZTIv",
   "source_file" : "external/libcxx/include/set",
   "template_args" : [ "_ZTINSt3__121__tree_const_iteratorIjPNS_11__tree_nodeIjPvEElEE" ]
  },
  {
   "function_name" : "std::__1::set<unsigned int, std::__1::less<unsigned int>, std::__1::allocator<unsigned int>>::set",
   "linker_set_key" : "_ZNSt3__13setIjNS_4lessIjEENS_9allocatorIjEEEC1EOS5_",
   "parameters" :
   [
    {
     "is_this_ptr" : true,
     "referenced_type" : "_ZTIPNSt3__13setIjNS_4lessIjEENS_9allocatorIjEEEE"
    },
    {
     "referenced_type" : "_ZTIONSt3__13setIjNS_4lessIjEENS_9allocatorIjEEEE"
    }
   ],
   "return_type" : "_ZTIv",
   "source_file" : "external/libcxx/include/set"
  },
  {
   "function_name" : "std::__1::set<unsigned int, std::__1::less<unsigned int>, std::__1::allocator<unsigned int>>::set",
   "linker_set_key" : "_ZNSt3__13setIjNS_4lessIjEENS_9allocatorIjEEEC1ERKS5_",
   "parameters" :
   [
    {
     "is_this_ptr" : true,
     "referenced_type" : "_ZTIPNSt3__13setIjNS_4lessIjEENS_9allocatorIjEEEE"
    },
    {
     "referenced_type" : "_ZTIRKNSt3__13setIjNS_4lessIjEENS_9allocatorIjEEEE"
    }
   ],
   "return_type" : "_ZTIv",
   "source_file" : "external/libcxx/include/set"
  },
  {
   "function_name" : "std::__1::set<unsigned int, std::__1::less<unsigned int>, std::__1::allocator<unsigned int>>::set",
   "linker_set_key" : "_ZNSt3__13setIjNS_4lessIjEENS_9allocatorIjEEEC1Ev",
   "parameters" :
   [
    {
     "is_this_ptr" : true,
     "referenced_type" : "_ZTIPNSt3__13setIjNS_4lessIjEENS_9allocatorIjEEEE"
    }
   ],
   "return_type" : "_ZTIv",
   "source_file" : "external/libcxx/include/set"
  },
  {
   "function_name" : "std::__1::set<unsigned int, std::__1::less<unsigned int>, std::__1::allocator<unsigned int>>::set",
   "linker_set_key" : "_ZNSt3__13setIjNS_4lessIjEENS_9allocatorIjEEEC2EOS5_",
   "parameters" :
   [
    {
     "is_this_ptr" : true,
     "referenced_type" : "_ZTIPNSt3__13setIjNS_4lessIjEENS_9allocatorIjEEEE"
    },
    {
     "referenced_type" : "_ZTIONSt3__13setIjNS_4lessIjEENS_9allocatorIjEEEE"
    }
   ],
   "return_type" : "_ZTIv",
   "source_file" : "external/libcxx/include/set"
  },
  {
   "function_name" : "std::__1::set<unsigned int, std::__1::less<unsigned int>, std::__1::allocator<unsigned int>>::set",
   "linker_set_key" : "_ZNSt3__13setIjNS_4lessIjEENS_9allocatorIjEEEC2ERKS5_",
   "parameters" :
   [
    {
     "is_this_ptr" : true,
     "referenced_type" : "_ZTIPNSt3__13setIjNS_4lessIjEENS_9allocatorIjEEEE"
    },
    {
     "referenced_type" : "_ZTIRKNSt3__13setIjNS_4lessIjEENS_9allocatorIjEEEE"
    }
   ],
   "return_type" : "_ZTIv",
   "source_file" : "external/libcxx/include/set"
  },
  {
   "function_name" : "std::__1::set<unsigned int, std::__1::less<unsigned int>, std::__1::allocator<unsigned int>>::set",
   "linker_set_key" : "_ZNSt3__13setIjNS_4lessIjEENS_9allocatorIjEEEC2Ev",
   "parameters" :
   [
    {
     "is_this_ptr" : true,
     "referenced_type" : "_ZTIPNSt3__13setIjNS_4lessIjEENS_9allocatorIjEEEE"
    }
   ],
   "return_type" : "_ZTIv",
   "source_file" : "external/libcxx/include/set"
  },
  {
   "function_name" : "std::__1::set<unsigned int, std::__1::less<unsigned int>, std::__1::allocator<unsigned int>>::operator=",
   "linker_set_key" : "_ZNSt3__13setIjNS_4lessIjEENS_9allocatorIjEEEaSEOS5_",
   "parameters" :
   [
    {
     "is_this_ptr" : true,
     "referenced_type" : "_ZTIPNSt3__13setIjNS_4lessIjEENS_9allocatorIjEEEE"
    },
    {
     "referenced_type" : "_ZTIONSt3__13setIjNS_4lessIjEENS_9allocatorIjEEEE"
    }
   ],
   "return_type" : "_ZTIRNSt3__13setIjNS_4lessIjEENS_9allocatorIjEEEE",
   "source_file" : "external/libcxx/include/set"
  },
  {
   "function_name" : "std::__1::set<unsigned int, std::__1::less<unsigned int>, std::__1::allocator<unsigned int>>::operator=",
   "linker_set_key" : "_ZNSt3__13setIjNS_4lessIjEENS_9allocatorIjEEEaSERKS5_",
   "parameters" :
   [
    {
     "is_this_ptr" : true,
     "referenced_type" : "_ZTIPNSt3__13setIjNS_4lessIjEENS_9allocatorIjEEEE"
    },
    {
     "referenced_type" : "_ZTIRKNSt3__13setIjNS_4lessIjEENS_9allocatorIjEEEE"
    }
   ],
   "return_type" : "_ZTIRNSt3__13setIjNS_4lessIjEENS_9allocatorIjEEEE",
   "source_file" : "external/libcxx/include/set"
  },
  {
   "function_name" : "std::__1::copy",
   "linker_set_key" : "_ZNSt3__14copyINS_11__wrap_iterIPKNS_3setIjNS_4lessIjEENS_9allocatorIjEEEEEEPS7_EET0_T_SD_SC_",
   "parameters" :
   [
    {
     "referenced_type" : "_ZTINSt3__111__wrap_iterIPKNS_3setIjNS_4lessIjEENS_9allocatorIjEEEEEE"
    },
    {
     "referenced_type" : "_ZTINSt3__111__wrap_iterIPKNS_3setIjNS_4lessIjEENS_9allocatorIjEEEEEE"
    },
    {
     "referenced_type" : "_ZTIPNSt3__13setIjNS_4lessIjEENS_9allocatorIjEEEE"
    }
   ],
   "return_type" : "_ZTIPNSt3__13setIjNS_4lessIjEENS_9allocatorIjEEEE",
   "source_file" : "external/libcxx/include/algorithm",
   "template_args" :
   [
    "_ZTINSt3__111__wrap_iterIPKNS_3setIjNS_4lessIjEENS_9allocatorIjEEEEEE",
    "_ZTIPNSt3__13setIjNS_4lessIjEENS_9allocatorIjEEEE"
   ]
  },
  {
   "function_name" : "std::__1::copy",
   "linker_set_key" : "_ZNSt3__14copyINS_21__tree_const_iteratorIjPNS_11__tree_nodeIjPvEElEENS_15insert_iteratorINS_3setIjNS_4lessIjEENS_9allocatorIjEEEEEEEET0_T_SG_SF_",
   "parameters" :
   [
    {
     "referenced_type" : "_ZTINSt3__121__tree_const_iteratorIjPNS_11__tree_nodeIjPvEElEE"
    },
    {
     "referenced_type" : "_ZTINSt3__121__tree_const_iteratorIjPNS_11__tree_nodeIjPvEElEE"
    },
    {
     "referenced_type" : "_ZTINSt3__115insert_iteratorINS_3setIjNS_4lessIjEENS_9allocatorIjEEEEEE"
    }
   ],
   "return_type" : "_ZTINSt3__115insert_iteratorINS_3setIjNS_4lessIjEENS_9allocatorIjEEEEEE",
   "source_file" : "external/libcxx/include/algorithm",
   "template_args" :
   [
    "_ZTINSt3__121__tree_const_iteratorIjPNS_11__tree_nodeIjPvEElEE",
    "_ZTINSt3__115insert_iteratorINS_3setIjNS_4lessIjEENS_9allocatorIjEEEEEE"
   ]
  },
  {
   "function_name" : "std::__1::move",
   "linker_set_key" : "_ZNSt3__14moveIRNS_17__compressed_pairINS_15__tree_end_nodeIPNS_16__tree_node_baseIPvEEEENS_9allocatorINS_11__tree_nodeIjS4_EEEEEEEEONS_16remove_referenceIT_E4typeEOSF_",
   "parameters" :
   [
    {
     "referenced_type" : "_ZTIRNSt3__117__compressed_pairINS_15__tree_end_nodeIPNS_16__tree_node_baseIPvEEEENS_9allocatorINS_11__tree_nodeIjS3_EEEEEE"
    }
   ],
   "return_type" : "_ZTIONSt3__117__compressed_pairINS_15__tree_end_nodeIPNS_16__tree_node_baseIPvEEEENS_9allocatorINS_11__tree_nodeIjS3_EEEEEE",
   "source_file" : "external/libcxx/include/type_traits",
   "template_args" :
   [
    "_ZTIRNSt3__117__compressed_pairINS_15__tree_end_nodeIPNS_16__tree_node_baseIPvEEEENS_9allocatorINS_11__tree_nodeIjS3_EEEEEE"
   ]
  },
  {
   "function_name" : "std::__1::move",
   "linker_set_key" : "_ZNSt3__14moveIRNS_17__compressed_pairImNS_4lessIjEEEEEEONS_16remove_referenceIT_E4typeEOS7_",
   "parameters" :
   [
    {
     "referenced_type" : "_ZTIRNSt3__117__compressed_pairImNS_4lessIjEEEE"
    }
   ],
   "return_type" : "_ZTIONSt3__117__compressed_pairImNS_4lessIjEEEE",
   "source_file" : "external/libcxx/include/type_traits",
   "template_args" : [ "_ZTIRNSt3__117__compressed_pairImNS_4lessIjEEEE" ]
  },
  {
   "function_name" : "std::__1::move",
   "linker_set_key" : "_ZNSt3__14moveIRNS_22__tree_node_destructorINS_9allocatorINS_11__tree_nodeINS_3setIjNS_4lessIjEENS2_IjEEEEPvEEEEEEEEONS_16remove_referenceIT_E4typeEOSF_",
   "parameters" :
   [
    {
     "referenced_type" : "_ZTIRNSt3__122__tree_node_destructorINS_9allocatorINS_11__tree_nodeINS_3setIjNS_4lessIjEENS1_IjEEEEPvEEEEEE"
    }
   ],
   "return_type" : "_ZTIONSt3__122__tree_node_destructorINS_9allocatorINS_11__tree_nodeINS_3setIjNS_4lessIjEENS1_IjEEEEPvEEEEEE",
   "source_file" : "external/libcxx/include/type_traits",
   "template_args" :
   [
    "_ZTIRNSt3__122__tree_node_destructorINS_9allocatorINS_11__tree_nodeINS_3setIjNS_4lessIjEENS1_IjEEEEPvEEEEEE"
   ]
  },
  {
   "function_name" : "std::__1::move",
   "linker_set_key" : "_ZNSt3__14moveIRNS_22__tree_node_destructorINS_9allocatorINS_11__tree_nodeIjPvEEEEEEEEONS_16remove_referenceIT_E4typeEOSA_",
   "parameters" :
   [
    {
     "referenced_type" : "_ZTIRNSt3__122__tree_node_destructorINS_9allocatorINS_11__tree_nodeIjPvEEEEEE"
    }
   ],
   "return_type" : "_ZTIONSt3__122__tree_node_destructorINS_9allocatorINS_11__tree_nodeIjPvEEEEEE",
   "source_file" : "external/libcxx/include/type_traits",
   "template_args" :
   [
    "_ZTIRNSt3__122__tree_node_destructorINS_9allocatorINS_11__tree_nodeIjPvEEEEEE"
   ]
  },
  {
   "function_name" : "std::__1::move",
   "linker_set_key" : "_ZNSt3__14moveIRNS_3setIjNS_4lessIjEENS_9allocatorIjEEEEEEONS_16remove_referenceIT_E4typeEOS9_",
   "parameters" :
   [
    {
     "referenced_type" : "_ZTIRNSt3__13setIjNS_4lessIjEENS_9allocatorIjEEEE"
    }
   ],
   "return_type" : "_ZTIONSt3__13setIjNS_4lessIjEENS_9allocatorIjEEEE",
   "source_file" : "external/libcxx/include/type_traits",
   "template_args" : [ "_ZTIRNSt3__13setIjNS_4lessIjEENS_9allocatorIjEEEE" ]
  },
  {
   "function_name" : "std::__1::move",
   "linker_set_key" : "_ZNSt3__14moveIRNS_6__treeIjNS_4lessIjEENS_9allocatorIjEEEEEEONS_16remove_referenceIT_E4typeEOS9_",
   "parameters" :
   [
    {
     "referenced_type" : "_ZTIRNSt3__16__treeIjNS_4lessIjEENS_9allocatorIjEEEE"
    }
   ],
   "return_type" : "_ZTIONSt3__16__treeIjNS_4lessIjEENS_9allocatorIjEEEE",
   "source_file" : "external/libcxx/include/type_traits",
   "template_args" : [ "_ZTIRNSt3__16__treeIjNS_4lessIjEENS_9allocatorIjEEEE" ]
  },
  {
   "function_name" : "std::__1::move",
   "linker_set_key" : "_ZNSt3__14moveIRNS_9allocatorINS_11__tree_nodeIjPvEEEEEEONS_16remove_referenceIT_E4typeEOS8_",
   "parameters" :
   [
    {
     "referenced_type" : "_ZTIRNSt3__19allocatorINS_11__tree_nodeIjPvEEEE"
    }
   ],
   "return_type" : "_ZTIONSt3__19allocatorINS_11__tree_nodeIjPvEEEE",
   "source_file" : "external/libcxx/include/type_traits",
   "template_args" : [ "_ZTIRNSt3__19allocatorINS_11__tree_nodeIjPvEEEE" ]
  },
  {
   "function_name" : "std::__1::move",
   "linker_set_key" : "_ZNSt3__14moveIRPNS_15__tree_end_nodeIPNS_16__tree_node_baseIPvEEEEEEONS_16remove_referenceIT_E4typeEOSA_",
   "parameters" :
   [
    {
     "referenced_type" : "_ZTIRPNSt3__115__tree_end_nodeIPNS_16__tree_node_baseIPvEEEE"
    }
   ],
   "return_type" : "_ZTIOPNSt3__115__tree_end_nodeIPNS_16__tree_node_baseIPvEEEE",
   "source_file" : "external/libcxx/include/type_traits",
   "template_args" : [ "_ZTIRPNSt3__115__tree_end_nodeIPNS_16__tree_node_baseIPvEEEE" ]
  },
  {
   "function_name" : "std::__1::move",
   "linker_set_key" : "_ZNSt3__14moveIRPNS_3setIjNS_4lessIjEENS_9allocatorIjEEEEEEONS_16remove_referenceIT_E4typeEOSA_",
   "parameters" :
   [
    {
     "referenced_type" : "_ZTIRPNSt3__13setIjNS_4lessIjEENS_9allocatorIjEEEE"
    }
   ],
   "return_type" : "_ZTIOPNSt3__13setIjNS_4lessIjEENS_9allocatorIjEEEE",
   "source_file" : "external/libcxx/include/type_traits",
   "template_args" : [ "_ZTIRPNSt3__13setIjNS_4lessIjEENS_9allocatorIjEEEE" ]
  },
  {
   "function_name" : "std::__1::move",
   "linker_set_key" : "_ZNSt3__14moveIRmEEONS_16remove_referenceIT_E4typeEOS3_",
   "parameters" :
   [
    {
     "referenced_type" : "_ZTIRm"
    }
   ],
   "return_type" : "_ZTIOm",
   "source_file" : "external/libcxx/include/type_traits",
   "template_args" : [ "_ZTIRm" ]
  },
  {
   "function_name" : "std::__1::next",
   "linker_set_key" : "_ZNSt3__14nextINS_21__tree_const_iteratorIjPNS_11__tree_nodeIjPvEElEEEENS_9enable_ifIXsr19__is_input_iteratorIT_EE5valueES8_E4typeES8_NS_15iterator_traitsIS8_E15difference_typeE",
   "parameters" :
   [
    {
     "referenced_type" : "_ZTINSt3__121__tree_const_iteratorIjPNS_11__tree_nodeIjPvEElEE"
    },
    {
     "default_arg" : true,
     "referenced_type" : "_ZTIl"
    }
   ],
   "return_type" : "_ZTINSt3__121__tree_const_iteratorIjPNS_11__tree_nodeIjPvEElEE",
   "source_file" : "external/libcxx/include/iterator",
   "template_args" : [ "_ZTINSt3__121__tree_const_iteratorIjPNS_11__tree_nodeIjPvEElEE" ]
  },
  {
   "function_name" : "std::__1::pair<std::__1::__tree_iterator<std::__1::set<unsigned int, std::__1::less<unsigned int>, std::__1::allocator<unsigned int>>, std::__1::__tree_node<std::__1::set<unsigned int, std::__1::less<unsigned int>, std::__1::allocator<unsigned int>>, void *> *, long>, bool>::_CheckArgs::__enable_explicit",
   "linker_set_key" : "_ZNSt3__14pairINS_15__tree_iteratorINS_3setIjNS_4lessIjEENS_9allocatorIjEEEEPNS_11__tree_nodeIS7_PvEElEEbE10_CheckArgs17__enable_explicitIRKSC_RKbEEbv",
   "return_type" : "_ZTIb",
   "source_file" : "external/libcxx/include/utility",
   "template_args" :
   [
    "_ZTIRKNSt3__115__tree_iteratorINS_3setIjNS_4lessIjEENS_9allocatorIjEEEEPNS_11__tree_nodeIS6_PvEElEE",
    "_ZTIRKb"
   ]
  },
  {
   "function_name" : "std::__1::pair<std::__1::__tree_iterator<std::__1::set<unsigned int, std::__1::less<unsigned int>, std::__1::allocator<unsigned int>>, std::__1::__tree_node<std::__1::set<unsigned int, std::__1::less<unsigned int>, std::__1::allocator<unsigned int>>, void *> *, long>, bool>::_CheckArgs::__enable_explicit",
   "linker_set_key" : "_ZNSt3__14pairINS_15__tree_iteratorINS_3setIjNS_4lessIjEENS_9allocatorIjEEEEPNS_11__tree_nodeIS7_PvEElEEbE10_CheckArgs17__enable_explicitISC_RbEEbv",
   "return_type" : "_ZTIb",
   "source_file" : "external/libcxx/include/utility",
   "template_args" :
   [
    "_ZTINSt3__115__tree_iteratorINS_3setIjNS_4lessIjEENS_9allocatorIjEEEEPNS_11__tree_nodeIS6_PvEElEE",
    "_ZTIRb"
   ]
  },
  {
   "function_name" : "std::__1::pair<std::__1::__tree_iterator<std::__1::set<unsigned int, std::__1::less<unsigned int>, std::__1::allocator<unsigned int>>, std::__1::__tree_node<std::__1::set<unsigned int, std::__1::less<unsigned int>, std::__1::allocator<unsigned int>>, void *> *, long>, bool>::_CheckArgs::__enable_implicit",
   "linker_set_key" : "_ZNSt3__14pairINS_15__tree_iteratorINS_3setIjNS_4lessIjEENS_9allocatorIjEEEEPNS_11__tree_nodeIS7_PvEElEEbE10_CheckArgs17__enable_implicitIRKSC_RKbEEbv",
   "return_type" : "_ZTIb",
   "source_file" : "external/libcxx/include/utility",
   "template_args" :
   [
    "_ZTIRKNSt3__115__tree_iteratorINS_3setIjNS_4lessIjEENS_9allocatorIjEEEEPNS_11__tree_nodeIS6_PvEElEE",
    "_ZTIRKb"
   ]
  },
  {
   "function_name" : "std::__1::pair<std::__1::__tree_iterator<std::__1::set<unsigned int, std::__1::less<unsigned int>, std::__1::allocator<unsigned int>>, std::__1::__tree_node<std::__1::set<unsigned int, std::__1::less<unsigned int>, std::__1::allocator<unsigned int>>, void *> *, long>, bool>::_CheckArgs::__enable_implicit",
   "linker_set_key" : "_ZNSt3__14pairINS_15__tree_iteratorINS_3setIjNS_4lessIjEENS_9allocatorIjEEEEPNS_11__tree_nodeIS7_PvEElEEbE10_CheckArgs17__enable_implicitISC_RbEEbv",
   "return_type" : "_ZTIb",
   "source_file" : "external/libcxx/include/utility",
   "template_args" :
   [
    "_ZTINSt3__115__tree_iteratorINS_3setIjNS_4lessIjEENS_9allocatorIjEEEEPNS_11__tree_nodeIS6_PvEElEE",
    "_ZTIRb"
   ]
  },
  {
   "function_name" : "std::__1::pair<std::__1::__tree_iterator<std::__1::set<unsigned int, std::__1::less<unsigned int>, std::__1::allocator<unsigned int>>, std::__1::__tree_node<std::__1::set<unsigned int, std::__1::less<unsigned int>, std::__1::allocator<unsigned int>>, void *> *, long>, bool>::_CheckArgs::__enable_implicit",
   "linker_set_key" : "_ZNSt3__14pairINS_15__tree_iteratorINS_3setIjNS_4lessIjEENS_9allocatorIjEEEEPNS_11__tree_nodeIS7_PvEElEEbE10_CheckArgs17__enable_implicitISC_bEEbv",
   "return_type" : "_ZTIb",
   "source_file" : "external/libcxx/include/utility",
   "template_args" :
   [
    "_ZTINSt3__115__tree_iteratorINS_3setIjNS_4lessIjEENS_9allocatorIjEEEEPNS_11__tree_nodeIS6_PvEElEE",
    "_ZTIb"
   ]
  },
  {
   "function_name" : "std::__1::pair<std::__1::__tree_iterator<std::__1::set<unsigned int, std::__1::less<unsigned int>, std::__1::allocator<unsigned int>>, std::__1::__tree_node<std::__1::set<unsigned int, std::__1::less<unsigned int>, std::__1::allocator<unsigned int>>, void *> *, long>, bool>::pair",
   "linker_set_key" : "_ZNSt3__14pairINS_15__tree_iteratorINS_3setIjNS_4lessIjEENS_9allocatorIjEEEEPNS_11__tree_nodeIS7_PvEElEEbEC1EOSD_",
   "parameters" :
   [
    {
     "is_this_ptr" : true,
     "referenced_type" : "_ZTIPNSt3__14pairINS_15__tree_iteratorINS_3setIjNS_4lessIjEENS_9allocatorIjEEEEPNS_11__tree_nodeIS7_PvEElEEbEE"
    },
    {
     "referenced_type" : "_ZTIONSt3__14pairINS_15__tree_iteratorINS_3setIjNS_4lessIjEENS_9allocatorIjEEEEPNS_11__tree_nodeIS7_PvEElEEbEE"
    }
   ],
   "return_type" : "_ZTIv",
   "source_file" : "external/libcxx/include/utility"
  },
  {
   "function_name" : "std::__1::pair<std::__1::__tree_iterator<std::__1::set<unsigned int, std::__1::less<unsigned int>, std::__1::allocator<unsigned int>>, std::__1::__tree_node<std::__1::set<unsigned int, std::__1::less<unsigned int>, std::__1::allocator<unsigned int>>, void *> *, long>, bool>::pair",
   "linker_set_key" : "_ZNSt3__14pairINS_15__tree_iteratorINS_3setIjNS_4lessIjEENS_9allocatorIjEEEEPNS_11__tree_nodeIS7_PvEElEEbEC1ERKSD_",
   "parameters" :
   [
    {
     "is_this_ptr" : true,
     "referenced_type" : "_ZTIPNSt3__14pairINS_15__tree_iteratorINS_3setIjNS_4lessIjEENS_9allocatorIjEEEEPNS_11__tree_nodeIS7_PvEElEEbEE"
    },
    {
     "referenced_type" : "_ZTIRKNSt3__14pairINS_15__tree_iteratorINS_3setIjNS_4lessIjEENS_9allocatorIjEEEEPNS_11__tree_nodeIS7_PvEElEEbEE"
    }
   ],
   "return_type" : "_ZTIv",
   "source_file" : "external/libcxx/include/utility"
  },
  {
   "function_name" : "std::__1::pair<std::__1::__tree_iterator<std::__1::set<unsigned int, std::__1::less<unsigned int>, std::__1::allocator<unsigned int>>, std::__1::__tree_node<std::__1::set<unsigned int, std::__1::less<unsigned int>, std::__1::allocator<unsigned int>>, void *> *, long>, bool>::pair",
   "linker_set_key" : "_ZNSt3__14pairINS_15__tree_iteratorINS_3setIjNS_4lessIjEENS_9allocatorIjEEEEPNS_11__tree_nodeIS7_PvEElEEbEC1ISC_RbLb0EEEOT_OT0_",
   "parameters" :
   [
    {
     "is_this_ptr" : true,
     "referenced_type" : "_ZTIPNSt3__14pairINS_15__tree_iteratorINS_3setIjNS_4lessIjEENS_9allocatorIjEEEEPNS_11__tree_nodeIS7_PvEElEEbEE"
    },
    {
     "referenced_type" : "_ZTIONSt3__115__tree_iteratorINS_3setIjNS_4lessIjEENS_9allocatorIjEEEEPNS_11__tree_nodeIS6_PvEElEE"
    },
    {
     "referenced_type" : "_ZTIRb"
    }
   ],
   "return_type" : "_ZTIv",
   "source_file" : "external/libcxx/include/utility",
   "template_args" :
   [
    "_ZTINSt3__115__tree_iteratorINS_3setIjNS_4lessIjEENS_9allocatorIjEEEEPNS_11__tree_nodeIS6_PvEElEE",
    "_ZTIRb"
   ]
  },
  {
   "function_name" : "std::__1::pair<std::__1::__tree_iterator<std::__1::set<unsigned int, std::__1::less<unsigned int>, std::__1::allocator<unsigned int>>, std::__1::__tree_node<std::__1::set<unsigned int, std::__1::less<unsigned int>, std::__1::allocator<unsigned int>>, void *> *, long>, bool>::pair",
   "linker_set_key" : "_ZNSt3__14pairINS_15__tree_iteratorINS_3setIjNS_4lessIjEENS_9allocatorIjEEEEPNS_11__tree_nodeIS7_PvEElEEbEC2EOSD_",
   "parameters" :
   [
    {
     "is_this_ptr" : true,
     "referenced_type" : "_ZTIPNSt3__14pairINS_15__tree_iteratorINS_3setIjNS_4lessIjEENS_9allocatorIjEEEEPNS_11__tree_nodeIS7_PvEElEEbEE"
    },
    {
     "referenced_type" : "_ZTIONSt3__14pairINS_15__tree_iteratorINS_3setIjNS_4lessIjEENS_9allocatorIjEEEEPNS_11__tree_nodeIS7_PvEElEEbEE"
    }
   ],
   "return_type" : "_ZTIv",
   "source_file" : "external/libcxx/include/utility"
  },
  {
   "function_name" : "std::__1::pair<std::__1::__tree_iterator<std::__1::set<unsigned int, std::__1::less<unsigned int>, std::__1::allocator<unsigned int>>, std::__1::__tree_node<std::__1::set<unsigned int, std::__1::less<unsigned int>, std::__1::allocator<unsigned int>>, void *> *, long>, bool>::pair",
   "linker_set_key" : "_ZNSt3__14pairINS_15__tree_iteratorINS_3setIjNS_4lessIjEENS_9allocatorIjEEEEPNS_11__tree_nodeIS7_PvEElEEbEC2ERKSD_",
   "parameters" :
   [
    {
     "is_this_ptr" : true,
     "referenced_type" : "_ZTIPNSt3__14pairINS_15__tree_iteratorINS_3setIjNS_4lessIjEENS_9allocatorIjEEEEPNS_11__tree_nodeIS7_PvEElEEbEE"
    },
    {
     "referenced_type" : "_ZTIRKNSt3__14pairINS_15__tree_iteratorINS_3setIjNS_4lessIjEENS_9allocatorIjEEEEPNS_11__tree_nodeIS7_PvEElEEbEE"
    }
   ],
   "return_type" : "_ZTIv",
   "source_file" : "external/libcxx/include/utility"
  },
  {
   "function_name" : "std::__1::pair<std::__1::__tree_iterator<std::__1::set<unsigned int, std::__1::less<unsigned int>, std::__1::allocator<unsigned int>>, std::__1::__tree_node<std::__1::set<unsigned int, std::__1::less<unsigned int>, std::__1::allocator<unsigned int>>, void *> *, long>, bool>::pair",
   "linker_set_key" : "_ZNSt3__14pairINS_15__tree_iteratorINS_3setIjNS_4lessIjEENS_9allocatorIjEEEEPNS_11__tree_nodeIS7_PvEElEEbEC2ISC_RbLb0EEEOT_OT0_",
   "parameters" :
   [
    {
     "is_this_ptr" : true,
     "referenced_type" : "_ZTIPNSt3__14pairINS_15__tree_iteratorINS_3setIjNS_4lessIjEENS_9allocatorIjEEEEPNS_11__tree_nodeIS7_PvEElEEbEE"
    },
    {
     "referenced_type" : "_ZTIONSt3__115__tree_iteratorINS_3setIjNS_4lessIjEENS_9allocatorIjEEEEPNS_11__tree_nodeIS6_PvEElEE"
    },
    {
     "referenced_type" : "_ZTIRb"
    }
   ],
   "return_type" : "_ZTIv",
   "source_file" : "external/libcxx/include/utility",
   "template_args" :
   [
    "_ZTINSt3__115__tree_iteratorINS_3setIjNS_4lessIjEENS_9allocatorIjEEEEPNS_11__tree_nodeIS6_PvEElEE",
    "_ZTIRb"
   ]
  },
  {
   "function_name" : "std::__1::pair<std::__1::__tree_iterator<unsigned int, std::__1::__tree_node<unsigned int, void *> *, long>, bool>::_CheckArgs::__enable_explicit",
   "linker_set_key" : "_ZNSt3__14pairINS_15__tree_iteratorIjPNS_11__tree_nodeIjPvEElEEbE10_CheckArgs17__enable_explicitIRKS6_RKbEEbv",
   "return_type" : "_ZTIb",
   "source_file" : "external/libcxx/include/utility",
   "template_args" :
   [
    "_ZTIRKNSt3__115__tree_iteratorIjPNS_11__tree_nodeIjPvEElEE",
    "_ZTIRKb"
   ]
  },
  {
   "function_name" : "std::__1::pair<std::__1::__tree_iterator<unsigned int, std::__1::__tree_node<unsigned int, void *> *, long>, bool>::_CheckArgs::__enable_explicit",
   "linker_set_key" : "_ZNSt3__14pairINS_15__tree_iteratorIjPNS_11__tree_nodeIjPvEElEEbE10_CheckArgs17__enable_explicitIS6_RbEEbv",
   "return_type" : "_ZTIb",
   "source_file" : "external/libcxx/include/utility",
   "template_args" : [ "_ZTINSt3__115__tree_iteratorIjPNS_11__tree_nodeIjPvEElEE", "_ZTIRb" ]
  },
  {
   "function_name" : "std::__1::pair<std::__1::__tree_iterator<unsigned int, std::__1::__tree_node<unsigned int, void *> *, long>, bool>::_CheckArgs::__enable_implicit",
   "linker_set_key" : "_ZNSt3__14pairINS_15__tree_iteratorIjPNS_11__tree_nodeIjPvEElEEbE10_CheckArgs17__enable_implicitIRKS6_RKbEEbv",
   "return_type" : "_ZTIb",
   "source_file" : "external/libcxx/include/utility",
   "template_args" :
   [
    "_ZTIRKNSt3__115__tree_iteratorIjPNS_11__tree_nodeIjPvEElEE",
    "_ZTIRKb"
   ]
  },
  {
   "function_name" : "std::__1::pair<std::__1::__tree_iterator<unsigned int, std::__1::__tree_node<unsigned int, void *> *, long>, bool>::_CheckArgs::__enable_implicit",
   "linker_set_key" : "_ZNSt3__14pairINS_15__tree_iteratorIjPNS_11__tree_nodeIjPvEElEEbE10_CheckArgs17__enable_implicitIS6_RbEEbv",
   "return_type" : "_ZTIb",
   "source_file" : "external/libcxx/include/utility",
   "template_args" : [ "_ZTINSt3__115__tree_iteratorIjPNS_11__tree_nodeIjPvEElEE", "_ZTIRb" ]
  },
  {
   "function_name" : "std::__1::pair<std::__1::__tree_iterator<unsigned int, std::__1::__tree_node<unsigned int, void *> *, long>, bool>::_CheckArgs::__enable_implicit",
   "linker_set_key" : "_ZNSt3__14pairINS_15__tree_iteratorIjPNS_11__tree_nodeIjPvEElEEbE10_CheckArgs17__enable_implicitIS6_bEEbv",
   "return_type" : "_ZTIb",
   "source_file" : "external/libcxx/include/utility",
   "template_args" : [ "_ZTINSt3__115__tree_iteratorIjPNS_11__tree_nodeIjPvEElEE", "_ZTIb" ]
  },
  {
   "function_name" : "std::__1::pair<std::__1::__tree_iterator<unsigned int, std::__1::__tree_node<unsigned int, void *> *, long>, bool>::pair",
   "linker_set_key" : "_ZNSt3__14pairINS_15__tree_iteratorIjPNS_11__tree_nodeIjPvEElEEbEC1EOS7_",
   "parameters" :
   [
    {
     "is_this_ptr" : true,
     "referenced_type" : "_ZTIPNSt3__14pairINS_15__tree_iteratorIjPNS_11__tree_nodeIjPvEElEEbEE"
    },
    {
     "referenced_type" : "_ZTIONSt3__14pairINS_15__tree_iteratorIjPNS_11__tree_nodeIjPvEElEEbEE"
    }
   ],
   "return_type" : "_ZTIv",
   "source_file" : "external/libcxx/include/utility"
  },
  {
   "function_name" : "std::__1::pair<std::__1::__tree_iterator<unsigned int, std::__1::__tree_node<unsigned int, void *> *, long>, bool>::pair",
   "linker_set_key" : "_ZNSt3__14pairINS_15__tree_iteratorIjPNS_11__tree_nodeIjPvEElEEbEC1ERKS7_",
   "parameters" :
   [
    {
     "is_this_ptr" : true,
     "referenced_type" : "_ZTIPNSt3__14pairINS_15__tree_iteratorIjPNS_11__tree_nodeIjPvEElEEbEE"
    },
    {
     "referenced_type" : "_ZTIRKNSt3__14pairINS_15__tree_iteratorIjPNS_11__tree_nodeIjPvEElEEbEE"
    }
   ],
   "return_type" : "_ZTIv",
   "source_file" : "external/libcxx/include/utility"
  },
  {
   "function_name" : "std::__1::pair<std::__1::__tree_iterator<unsigned int, std::__1::__tree_node<unsigned int, void *> *, long>, bool>::pair",
   "linker_set_key" : "_ZNSt3__14pairINS_15__tree_iteratorIjPNS_11__tree_nodeIjPvEElEEbEC1IS6_RbLb0EEEOT_OT0_",
   "parameters" :
   [
    {
     "is_this_ptr" : true,
     "referenced_type" : "_ZTIPNSt3__14pairINS_15__tree_iteratorIjPNS_11__tree_nodeIjPvEElEEbEE"
    },
    {
     "referenced_type" : "_ZTIONSt3__115__tree_iteratorIjPNS_11__tree_nodeIjPvEElEE"
    },
    {
     "referenced_type" : "_ZTIRb"
    }
   ],
   "return_type" : "_ZTIv",
   "source_file" : "external/libcxx/include/utility",
   "template_args" : [ "_ZTINSt3__115__tree_iteratorIjPNS_11__tree_nodeIjPvEElEE", "_ZTIRb" ]
  },
  {
   "function_name" : "std::__1::pair<std::__1::__tree_iterator<unsigned int, std::__1::__tree_node<unsigned int, void *> *, long>, bool>::pair",
   "linker_set_key" : "_ZNSt3__14pairINS_15__tree_iteratorIjPNS_11__tree_nodeIjPvEElEEbEC2EOS7_",
   "parameters" :
   [
    {
     "is_this_ptr" : true,
     "referenced_type" : "_ZTIPNSt3__14pairINS_15__tree_iteratorIjPNS_11__tree_nodeIjPvEElEEbEE"
    },
    {
     "referenced_type" : "_ZTIONSt3__14pairINS_15__tree_iteratorIjPNS_11__tree_nodeIjPvEElEEbEE"
    }
   ],
   "return_type" : "_ZTIv",
   "source_file" : "external/libcxx/include/utility"
  },
  {
   "function_name" : "std::__1::pair<std::__1::__tree_iterator<unsigned int, std::__1::__tree_node<unsigned int, void *> *, long>, bool>::pair",
   "linker_set_key" : "_ZNSt3__14pairINS_15__tree_iteratorIjPNS_11__tree_nodeIjPvEElEEbEC2ERKS7_",
   "parameters" :
   [
    {
     "is_this_ptr" : true,
     "referenced_type" : "_ZTIPNSt3__14pairINS_15__tree_iteratorIjPNS_11__tree_nodeIjPvEElEEbEE"
    },
    {
     "referenced_type" : "_ZTIRKNSt3__14pairINS_15__tree_iteratorIjPNS_11__tree_nodeIjPvEElEEbEE"
    }
   ],
   "return_type" : "_ZTIv",
   "source_file" : "external/libcxx/include/utility"
  },
  {
   "function_name" : "std::__1::pair<std::__1::__tree_iterator<unsigned int, std::__1::__tree_node<unsigned int, void *> *, long>, bool>::pair",
   "linker_set_key" : "_ZNSt3__14pairINS_15__tree_iteratorIjPNS_11__tree_nodeIjPvEElEEbEC2IS6_RbLb0EEEOT_OT0_",
   "parameters" :
   [
    {
     "is_this_ptr" : true,
     "referenced_type" : "_ZTIPNSt3__14pairINS_15__tree_iteratorIjPNS_11__tree_nodeIjPvEElEEbEE"
    },
    {
     "referenced_type" : "_ZTIONSt3__115__tree_iteratorIjPNS_11__tree_nodeIjPvEElEE"
    },
    {
     "referenced_type" : "_ZTIRb"
    }
   ],
   "return_type" : "_ZTIv",
   "source_file" : "external/libcxx/include/utility",
   "template_args" : [ "_ZTINSt3__115__tree_iteratorIjPNS_11__tree_nodeIjPvEElEE", "_ZTIRb" ]
  },
  {
   "function_name" : "std::__1::pair<std::__1::__tree_const_iterator<std::__1::set<unsigned int, std::__1::less<unsigned int>, std::__1::allocator<unsigned int>>, std::__1::__tree_node<std::__1::set<unsigned int, std::__1::less<unsigned int>, std::__1::allocator<unsigned int>>, void *> *, long>, bool>::_CheckArgs::__enable_explicit",
   "linker_set_key" : "_ZNSt3__14pairINS_21__tree_const_iteratorINS_3setIjNS_4lessIjEENS_9allocatorIjEEEEPNS_11__tree_nodeIS7_PvEElEEbE10_CheckArgs17__enable_explicitIRKSC_RKbEEbv",
   "return_type" : "_ZTIb",
   "source_file" : "external/libcxx/include/utility",
   "template_args" :
   [
    "_ZTIRKNSt3__121__tree_const_iteratorINS_3setIjNS_4lessIjEENS_9allocatorIjEEEEPNS_11__tree_nodeIS6_PvEElEE",
    "_ZTIRKb"
   ]
  },
  {
   "function_name" : "std::__1::pair<std::__1::__tree_const_iterator<std::__1::set<unsigned int, std::__1::less<unsigned int>, std::__1::allocator<unsigned int>>, std::__1::__tree_node<std::__1::set<unsigned int, std::__1::less<unsigned int>, std::__1::allocator<unsigned int>>, void *> *, long>, bool>::_CheckArgs::__enable_explicit",
   "linker_set_key" : "_ZNSt3__14pairINS_21__tree_const_iteratorINS_3setIjNS_4lessIjEENS_9allocatorIjEEEEPNS_11__tree_nodeIS7_PvEElEEbE10_CheckArgs17__enable_explicitISC_bEEbv",
   "return_type" : "_ZTIb",
   "source_file" : "external/libcxx/include/utility",
   "template_args" :
   [
    "_ZTINSt3__121__tree_const_iteratorINS_3setIjNS_4lessIjEENS_9allocatorIjEEEEPNS_11__tree_nodeIS6_PvEElEE",
    "_ZTIb"
   ]
  },
  {
   "function_name" : "std::__1::pair<std::__1::__tree_const_iterator<std::__1::set<unsigned int, std::__1::less<unsigned int>, std::__1::allocator<unsigned int>>, std::__1::__tree_node<std::__1::set<unsigned int, std::__1::less<unsigned int>, std::__1::allocator<unsigned int>>, void *> *, long>, bool>::_CheckArgs::__enable_implicit",
   "linker_set_key" : "_ZNSt3__14pairINS_21__tree_const_iteratorINS_3setIjNS_4lessIjEENS_9allocatorIjEEEEPNS_11__tree_nodeIS7_PvEElEEbE10_CheckArgs17__enable_implicitINS_15__tree_iteratorIS7_SB_lEEbEEbv",
   "return_type" : "_ZTIb",
   "source_file" : "external/libcxx/include/utility",
   "template_args" :
   [
    "_ZTINSt3__115__tree_iteratorINS_3setIjNS_4lessIjEENS_9allocatorIjEEEEPNS_11__tree_nodeIS6_PvEElEE",
    "_ZTIb"
   ]
  },
  {
   "function_name" : "std::__1::pair<std::__1::__tree_const_iterator<std::__1::set<unsigned int, std::__1::less<unsigned int>, std::__1::allocator<unsigned int>>, std::__1::__tree_node<std::__1::set<unsigned int, std::__1::less<unsigned int>, std::__1::allocator<unsigned int>>, void *> *, long>, bool>::_CheckArgs::__enable_implicit",
   "linker_set_key" : "_ZNSt3__14pairINS_21__tree_const_iteratorINS_3setIjNS_4lessIjEENS_9allocatorIjEEEEPNS_11__tree_nodeIS7_PvEElEEbE10_CheckArgs17__enable_implicitIRKNS_15__tree_iteratorIS7_SB_lEERKbEEbv",
   "return_type" : "_ZTIb",
   "source_file" : "external/libcxx/include/utility",
   "template_args" :
   [
    "_ZTIRKNSt3__115__tree_iteratorINS_3setIjNS_4lessIjEENS_9allocatorIjEEEEPNS_11__tree_nodeIS6_PvEElEE",
    "_ZTIRKb"
   ]
  },
  {
   "function_name" : "std::__1::pair<std::__1::__tree_const_iterator<std::__1::set<unsigned int, std::__1::less<unsigned int>, std::__1::allocator<unsigned int>>, std::__1::__tree_node<std::__1::set<unsigned int, std::__1::less<unsigned int>, std::__1::allocator<unsigned int>>, void *> *, long>, bool>::_CheckArgs::__enable_implicit",
   "linker_set_key" : "_ZNSt3__14pairINS_21__tree_const_iteratorINS_3setIjNS_4lessIjEENS_9allocatorIjEEEEPNS_11__tree_nodeIS7_PvEElEEbE10_CheckArgs17__enable_implicitIRKSC_RKbEEbv",
   "return_type" : "_ZTIb",
   "source_file" : "external/libcxx/include/utility",
   "template_args" :
   [
    "_ZTIRKNSt3__121__tree_const_iteratorINS_3setIjNS_4lessIjEENS_9allocatorIjEEEEPNS_11__tree_nodeIS6_PvEElEE",
    "_ZTIRKb"
   ]
  },
  {
   "function_name" : "std::__1::pair<std::__1::__tree_const_iterator<std::__1::set<unsigned int, std::__1::less<unsigned int>, std::__1::allocator<unsigned int>>, std::__1::__tree_node<std::__1::set<unsigned int, std::__1::less<unsigned int>, std::__1::allocator<unsigned int>>, void *> *, long>, bool>::_CheckArgs::__enable_implicit",
   "linker_set_key" : "_ZNSt3__14pairINS_21__tree_const_iteratorINS_3setIjNS_4lessIjEENS_9allocatorIjEEEEPNS_11__tree_nodeIS7_PvEElEEbE10_CheckArgs17__enable_implicitISC_bEEbv",
   "return_type" : "_ZTIb",
   "source_file" : "external/libcxx/include/utility",
   "template_args" :
   [
    "_ZTINSt3__121__tree_const_iteratorINS_3setIjNS_4lessIjEENS_9allocatorIjEEEEPNS_11__tree_nodeIS6_PvEElEE",
    "_ZTIb"
   ]
  },
  {
   "function_name" : "std::__1::pair<std::__1::__tree_const_iterator<std::__1::set<unsigned int, std::__1::less<unsigned int>, std::__1::allocator<unsigned int>>, std::__1::__tree_node<std::__1::set<unsigned int, std::__1::less<unsigned int>, std::__1::allocator<unsigned int>>, void *> *, long>, bool>::_CheckTupleLikeConstructor::__enable_implicit",
   "linker_set_key" : "_ZNSt3__14pairINS_21__tree_const_iteratorINS_3setIjNS_4lessIjEENS_9allocatorIjEEEEPNS_11__tree_nodeIS7_PvEElEEbE26_CheckTupleLikeConstructor17__enable_implicitINS0_INS_15__tree_iteratorIS7_SB_lEEbEEEEbv",
   "return_type" : "_ZTIb",
   "source_file" : "external/libcxx/include/utility",
   "template_args" :
   [
    "_ZTINSt3__14pairINS_15__tree_iteratorINS_3setIjNS_4lessIjEENS_9allocatorIjEEEEPNS_11__tree_nodeIS7_PvEElEEbEE"
   ]
  },
  {
   "function_name" : "std::__1::pair<std::__1::__tree_const_iterator<std::__1::set<unsigned int, std::__1::less<unsigned int>, std::__1::allocator<unsigned int>>, std::__1::__tree_node<std::__1::set<unsigned int, std::__1::less<unsigned int>, std::__1::allocator<unsigned int>>, void *> *, long>, bool>::pair",
   "linker_set_key" : "_ZNSt3__14pairINS_21__tree_const_iteratorINS_3setIjNS_4lessIjEENS_9allocatorIjEEEEPNS_11__tree_nodeIS7_PvEElEEbEC1EOSD_",
   "parameters" :
   [
    {
     "is_this_ptr" : true,
     "referenced_type" : "_ZTIPNSt3__14pairINS_21__tree_const_iteratorINS_3setIjNS_4lessIjEENS_9allocatorIjEEEEPNS_11__tree_nodeIS7_PvEElEEbEE"
    },
    {
     "referenced_type" : "_ZTIONSt3__14pairINS_21__tree_const_iteratorINS_3setIjNS_4lessIjEENS_9allocatorIjEEEEPNS_11__tree_nodeIS7_PvEElEEbEE"
    }
   ],
   "return_type" : "_ZTIv",
   "source_file" : "external/libcxx/include/utility"
  },
  {
   "function_name" : "std::__1::pair<std::__1::__tree_const_iterator<std::__1::set<unsigned int, std::__1::less<unsigned int>, std::__1::allocator<unsigned int>>, std::__1::__tree_node<std::__1::set<unsigned int, std::__1::less<unsigned int>, std::__1::allocator<unsigned int>>, void *> *, long>, bool>::pair",
   "linker_set_key" : "_ZNSt3__14pairINS_21__tree_const_iteratorINS_3setIjNS_4lessIjEENS_9allocatorIjEEEEPNS_11__tree_nodeIS7_PvEElEEbEC1ERKSD_",
   "parameters" :
   [
    {
     "is_this_ptr" : true,
     "referenced_type" : "_ZTIPNSt3__14pairINS_21__tree_const_iteratorINS_3setIjNS_4lessIjEENS_9allocatorIjEEEEPNS_11__tree_nodeIS7_PvEElEEbEE"
    },
    {
     "referenced_type" : "_ZTIRKNSt3__14pairINS_21__tree_const_iteratorINS_3setIjNS_4lessIjEENS_9allocatorIjEEEEPNS_11__tree_nodeIS7_PvEElEEbEE"
    }
   ],
   "return_type" : "_ZTIv",
   "source_file" : "external/libcxx/include/utility"
  },
  {
   "function_name" : "std::__1::pair<std::__1::__tree_const_iterator<std::__1::set<unsigned int, std::__1::less<unsigned int>, std::__1::allocator<unsigned int>>, std::__1::__tree_node<std::__1::set<unsigned int, std::__1::less<unsigned int>, std::__1::allocator<unsigned int>>, void *> *, long>, bool>::pair",
   "linker_set_key" : "_ZNSt3__14pairINS_21__tree_const_iteratorINS_3setIjNS_4lessIjEENS_9allocatorIjEEEEPNS_11__tree_nodeIS7_PvEElEEbEC1INS_15__tree_iteratorIS7_SB_lEEbLb0EEEONS0_IT_T0_EE",
   "parameters" :
   [
    {
     "is_this_ptr" : true,
     "referenced_type" : "_ZTIPNSt3__14pairINS_21__tree_const_iteratorINS_3setIjNS_4lessIjEENS_9allocatorIjEEEEPNS_11__tree_nodeIS7_PvEElEEbEE"
    },
    {
     "referenced_type" : "_ZTIONSt3__14pairINS_15__tree_iteratorINS_3setIjNS_4lessIjEENS_9allocatorIjEEEEPNS_11__tree_nodeIS7_PvEElEEbEE"
    }
   ],
   "return_type" : "_ZTIv",
   "source_file" : "external/libcxx/include/utility",
   "template_args" :
   [
    "_ZTINSt3__115__tree_iteratorINS_3setIjNS_4lessIjEENS_9allocatorIjEEEEPNS_11__tree_nodeIS6_PvEElEE",
    "_ZTIb"
   ]
  },
  {
   "function_name" : "std::__1::pair<std::__1::__tree_const_iterator<std::__1::set<unsigned int, std::__1::less<unsigned int>, std::__1::allocator<unsigned int>>, std::__1::__tree_node<std::__1::set<unsigned int, std::__1::less<unsigned int>, std::__1::allocator<unsigned int>>, void *> *, long>, bool>::pair",
   "linker_set_key" : "_ZNSt3__14pairINS_21__tree_const_iteratorINS_3setIjNS_4lessIjEENS_9allocatorIjEEEEPNS_11__tree_nodeIS7_PvEElEEbEC2EOSD_",
   "parameters" :
   [
    {
     "is_this_ptr" : true,
     "referenced_type" : "_ZTIPNSt3__14pairINS_21__tree_const_iteratorINS_3setIjNS_4lessIjEENS_9allocatorIjEEEEPNS_11__tree_nodeIS7_PvEElEEbEE"
    },
    {
     "referenced_type" : "_ZTIONSt3__14pairINS_21__tree_const_iteratorINS_3setIjNS_4lessIjEENS_9allocatorIjEEEEPNS_11__tree_nodeIS7_PvEElEEbEE"
    }
   ],
   "return_type" : "_ZTIv",
   "source_file" : "external/libcxx/include/utility"
  },
  {
   "function_name" : "std::__1::pair<std::__1::__tree_const_iterator<std::__1::set<unsigned int, std::__1::less<unsigned int>, std::__1::allocator<unsigned int>>, std::__1::__tree_node<std::__1::set<unsigned int, std::__1::less<unsigned int>, std::__1::allocator<unsigned int>>, void *> *, long>, bool>::pair",
   "linker_set_key" : "_ZNSt3__14pairINS_21__tree_const_iteratorINS_3setIjNS_4lessIjEENS_9allocatorIjEEEEPNS_11__tree_nodeIS7_PvEElEEbEC2ERKSD_",
   "parameters" :
   [
    {
     "is_this_ptr" : true,
     "referenced_type" : "_ZTIPNSt3__14pairINS_21__tree_const_iteratorINS_3setIjNS_4lessIjEENS_9allocatorIjEEEEPNS_11__tree_nodeIS7_PvEElEEbEE"
    },
    {
     "referenced_type" : "_ZTIRKNSt3__14pairINS_21__tree_const_iteratorINS_3setIjNS_4lessIjEENS_9allocatorIjEEEEPNS_11__tree_nodeIS7_PvEElEEbEE"
    }
   ],
   "return_type" : "_ZTIv",
   "source_file" : "external/libcxx/include/utility"
  },
  {
   "function_name" : "std::__1::pair<std::__1::__tree_const_iterator<std::__1::set<unsigned int, std::__1::less<unsigned int>, std::__1::allocator<unsigned int>>, std::__1::__tree_node<std::__1::set<unsigned int, std::__1::less<unsigned int>, std::__1::allocator<unsigned int>>, void *> *, long>, bool>::pair",
   "linker_set_key" : "_ZNSt3__14pairINS_21__tree_const_iteratorINS_3setIjNS_4lessIjEENS_9allocatorIjEEEEPNS_11__tree_nodeIS7_PvEElEEbEC2INS_15__tree_iteratorIS7_SB_lEEbLb0EEEONS0_IT_T0_EE",
   "parameters" :
   [
    {
     "is_this_ptr" : true,
     "referenced_type" : "_ZTIPNSt3__14pairINS_21__tree_const_iteratorINS_3setIjNS_4lessIjEENS_9allocatorIjEEEEPNS_11__tree_nodeIS7_PvEElEEbEE"
    },
    {
     "referenced_type" : "_ZTIONSt3__14pairINS_15__tree_iteratorINS_3setIjNS_4lessIjEENS_9allocatorIjEEEEPNS_11__tree_nodeIS7_PvEElEEbEE"
    }
   ],
   "return_type" : "_ZTIv",
   "source_file" : "external/libcxx/include/utility",
   "template_args" :
   [
    "_ZTINSt3__115__tree_iteratorINS_3setIjNS_4lessIjEENS_9allocatorIjEEEEPNS_11__tree_nodeIS6_PvEElEE",
    "_ZTIb"
   ]
  },
  {
   "function_name" : "std::__1::pair<std::__1::__tree_const_iterator<unsigned int, std::__1::__tree_node<unsigned int, void *> *, long>, bool>::_CheckArgs::__enable_explicit",
   "linker_set_key" : "_ZNSt3__14pairINS_21__tree_const_iteratorIjPNS_11__tree_nodeIjPvEElEEbE10_CheckArgs17__enable_explicitIRKS6_RKbEEbv",
   "return_type" : "_ZTIb",
   "source_file" : "external/libcxx/include/utility",
   "template_args" :
   [
    "_ZTIRKNSt3__121__tree_const_iteratorIjPNS_11__tree_nodeIjPvEElEE",
    "_ZTIRKb"
   ]
  },
  {
   "function_name" : "std::__1::pair<std::__1::__tree_const_iterator<unsigned int, std::__1::__tree_node<unsigned int, void *> *, long>, bool>::_CheckArgs::__enable_explicit",
   "linker_set_key" : "_ZNSt3__14pairINS_21__tree_const_iteratorIjPNS_11__tree_nodeIjPvEElEEbE10_CheckArgs17__enable_explicitIS6_bEEbv",
   "return_type" : "_ZTIb",
   "source_file" : "external/libcxx/include/utility",
   "template_args" :
   [
    "_ZTINSt3__121__tree_const_iteratorIjPNS_11__tree_nodeIjPvEElEE",
    "_ZTIb"
   ]
  },
  {
   "function_name" : "std::__1::pair<std::__1::__tree_const_iterator<unsigned int, std::__1::__tree_node<unsigned int, void *> *, long>, bool>::_CheckArgs::__enable_implicit",
   "linker_set_key" : "_ZNSt3__14pairINS_21__tree_const_iteratorIjPNS_11__tree_nodeIjPvEElEEbE10_CheckArgs17__enable_implicitINS_15__tree_iteratorIjS5_lEEbEEbv",
   "return_type" : "_ZTIb",
   "source_file" : "external/libcxx/include/utility",
   "template_args" : [ "_ZTINSt3__115__tree_iteratorIjPNS_11__tree_nodeIjPvEElEE", "_ZTIb" ]
  },
  {
   "function_name" : "std::__1::pair<std::__1::__tree_const_iterator<unsigned int, std::__1::__tree_node<unsigned int, void *> *, long>, bool>::_CheckArgs::__enable_implicit",
   "linker_set_key" : "_ZNSt3__14pairINS_21__tree_const_iteratorIjPNS_11__tree_nodeIjPvEElEEbE10_CheckArgs17__enable_implicitIRKNS_15__tree_iteratorIjS5_lEERKbEEbv",
   "return_type" : "_ZTIb",
   "source_file" : "external/libcxx/include/utility",
   "template_args" :
   [
    "_ZTIRKNSt3__115__tree_iteratorIjPNS_11__tree_nodeIjPvEElEE",
    "_ZTIRKb"
   ]
  },
  {
   "function_name" : "std::__1::pair<std::__1::__tree_const_iterator<unsigned int, std::__1::__tree_node<unsigned int, void *> *, long>, bool>::_CheckArgs::__enable_implicit",
   "linker_set_key" : "_ZNSt3__14pairINS_21__tree_const_iteratorIjPNS_11__tree_nodeIjPvEElEEbE10_CheckArgs17__enable_implicitIRKS6_RKbEEbv",
   "return_type" : "_ZTIb",
   "source_file" : "external/libcxx/include/utility",
   "template_args" :
   [
    "_ZTIRKNSt3__121__tree_const_iteratorIjPNS_11__tree_nodeIjPvEElEE",
    "_ZTIRKb"
   ]
  },
  {
   "function_name" : "std::__1::pair<std::__1::__tree_const_iterator<unsigned int, std::__1::__tree_node<unsigned int, void *> *, long>, bool>::_CheckArgs::__enable_implicit",
   "linker_set_key" : "_ZNSt3__14pairINS_21__tree_const_iteratorIjPNS_11__tree_nodeIjPvEElEEbE10_CheckArgs17__enable_implicitIS6_bEEbv",
   "return_type" : "_ZTIb",
   "source_file" : "external/libcxx/include/utility",
   "template_args" :
   [
    "_ZTINSt3__121__tree_const_iteratorIjPNS_11__tree_nodeIjPvEElEE",
    "_ZTIb"
   ]
  },
  {
   "function_name" : "std::__1::pair<std::__1::__tree_const_iterator<unsigned int, std::__1::__tree_node<unsigned int, void *> *, long>, bool>::_CheckTupleLikeConstructor::__enable_implicit",
   "linker_set_key" : "_ZNSt3__14pairINS_21__tree_const_iteratorIjPNS_11__tree_nodeIjPvEElEEbE26_CheckTupleLikeConstructor17__enable_implicitINS0_INS_15__tree_iteratorIjS5_lEEbEEEEbv",
   "return_type" : "_ZTIb",
   "source_file" : "external/libcxx/include/utility",
   "template_args" :
   [
    "_ZTINSt3__14pairINS_15__tree_iteratorIjPNS_11__tree_nodeIjPvEElEEbEE"
   ]
  },
  {
   "function_name" : "std::__1::pair<std::__1::__tree_const_iterator<unsigned int, std::__1::__tree_node<unsigned int, void *> *, long>, bool>::pair",
   "linker_set_key" : "_ZNSt3__14pairINS_21__tree_const_iteratorIjPNS_11__tree_nodeIjPvEElEEbEC1EOS7_",
   "parameters" :
   [
    {
     "is_this_ptr" : true,
     "referenced_type" : "_ZTIPNSt3__14pairINS_21__tree_const_iteratorIjPNS_11__tree_nodeIjPvEElEEbEE"
    },
    {
     "referenced_type" : "_ZTIONSt3__14pairINS_21__tree_const_iteratorIjPNS_11__tree_nodeIjPvEElEEbEE"
    }
   ],
   "return_type" : "_ZTIv",
   "source_file" : "external/libcxx/include/utility"
  },
  {
   "function_name" : "std::__1::pair<std::__1::__tree_const_iterator<unsigned int, std::__1::__tree_node<unsigned int, void *> *, long>, bool>::pair",
   "linker_set_key" : "_ZNSt3__14pairINS_21__tree_const_iteratorIjPNS_11__tree_nodeIjPvEElEEbEC1ERKS7_",
   "parameters" :
   [
    {
     "is_this_ptr" : true,
     "referenced_type" : "_ZTIPNSt3__14pairINS_21__tree_const_iteratorIjPNS_11__tree_nodeIjPvEElEEbEE"
    },
    {
     "referenced_type" : "_ZTIRKNSt3__14pairINS_21__tree_const_iteratorIjPNS_11__tree_nodeIjPvEElEEbEE"
    }
   ],
   "return_type" : "_ZTIv",
   "source_file" : "external/libcxx/include/utility"
  },
  {
   "function_name" : "std::__1::pair<std::__1::__tree_const_iterator<unsigned int, std::__1::__tree_node<unsigned int, void *> *, long>, bool>::pair",
   "linker_set_key" : "_ZNSt3__14pairINS_21__tree_const_iteratorIjPNS_11__tree_nodeIjPvEElEEbEC1INS_15__tree_iteratorIjS5_lEEbLb0EEEONS0_IT_T0_EE",
   "parameters" :
   [
    {
     "is_this_ptr" : true,
     "referenced_type" : "_ZTIPNSt3__14pairINS_21__tree_const_iteratorIjPNS_11__tree_nodeIjPvEElEEbEE"
    },
    {
     "referenced_type" : "_ZTIONSt3__14pairINS_15__tree_iteratorIjPNS_11__tree_nodeIjPvEElEEbEE"
    }
   ],
   "return_type" : "_ZTIv",
   "source_file" : "external/libcxx/include/utility",
   "template_args" : [ "_ZTINSt3__115__tree_iteratorIjPNS_11__tree_nodeIjPvEElEE", "_ZTIb" ]
  },
  {
   "function_name" : "std::__1::pair<std::__1::__tree_const_iterator<unsigned int, std::__1::__tree_node<unsigned int, void *> *, long>, bool>::pair",
   "linker_set_key" : "_ZNSt3__14pairINS_21__tree_const_iteratorIjPNS_11__tree_nodeIjPvEElEEbEC2EOS7_",
   "parameters" :
   [
    {
     "is_this_ptr" : true,
     "referenced_type" : "_ZTIPNSt3__14pairINS_21__tree_const_iteratorIjPNS_11__tree_nodeIjPvEElEEbEE"
    },
    {
     "referenced_type" : "_ZTIONSt3__14pairINS_21__tree_const_iteratorIjPNS_11__tree_nodeIjPvEElEEbEE"
    }
   ],
   "return_type" : "_ZTIv",
   "source_file" : "external/libcxx/include/utility"
  },
  {
   "function_name" : "std::__1::pair<std::__1::__tree_const_iterator<unsigned int, std::__1::__tree_node<unsigned int, void *> *, long>, bool>::pair",
   "linker_set_key" : "_ZNSt3__14pairINS_21__tree_const_iteratorIjPNS_11__tree_nodeIjPvEElEEbEC2ERKS7_",
   "parameters" :
   [
    {
     "is_this_ptr" : true,
     "referenced_type" : "_ZTIPNSt3__14pairINS_21__tree_const_iteratorIjPNS_11__tree_nodeIjPvEElEEbEE"
    },
    {
     "referenced_type" : "_ZTIRKNSt3__14pairINS_21__tree_const_iteratorIjPNS_11__tree_nodeIjPvEElEEbEE"
    }
   ],
   "return_type" : "_ZTIv",
   "source_file" : "external/libcxx/include/utility"
  },
  {
   "function_name" : "std::__1::pair<std::__1::__tree_const_iterator<unsigned int, std::__1::__tree_node<unsigned int, void *> *, long>, bool>::pair",
   "linker_set_key" : "_ZNSt3__14pairINS_21__tree_const_iteratorIjPNS_11__tree_nodeIjPvEElEEbEC2INS_15__tree_iteratorIjS5_lEEbLb0EEEONS0_IT_T0_EE",
   "parameters" :
   [
    {
     "is_this_ptr" : true,
     "referenced_type" : "_ZTIPNSt3__14pairINS_21__tree_const_iteratorIjPNS_11__tree_nodeIjPvEElEEbEE"
    },
    {
     "referenced_type" : "_ZTIONSt3__14pairINS_15__tree_iteratorIjPNS_11__tree_nodeIjPvEElEEbEE"
    }
   ],
   "return_type" : "_ZTIv",
   "source_file" : "external/libcxx/include/utility",
   "template_args" : [ "_ZTINSt3__115__tree_iteratorIjPNS_11__tree_nodeIjPvEElEE", "_ZTIb" ]
  },
  {
   "function_name" : "std::__1::pair<unsigned long, unsigned long>::_CheckArgs::__enable_explicit",
   "linker_set_key" : "_ZNSt3__14pairImmE10_CheckArgs17__enable_explicitIRKmS5_EEbv",
   "return_type" : "_ZTIb",
   "source_file" : "external/libcxx/include/utility",
   "template_args" : [ "_ZTIRKm", "_ZTIRKm" ]
  },
  {
   "function_name" : "std::__1::pair<unsigned long, unsigned long>::_CheckArgs::__enable_explicit",
   "linker_set_key" : "_ZNSt3__14pairImmE10_CheckArgs17__enable_explicitImmEEbv",
   "return_type" : "_ZTIb",
   "source_file" : "external/libcxx/include/utility",
   "template_args" : [ "_ZTIm", "_ZTIm" ]
  },
  {
   "function_name" : "std::__1::pair<unsigned long, unsigned long>::_CheckArgs::__enable_implicit",
   "linker_set_key" : "_ZNSt3__14pairImmE10_CheckArgs17__enable_implicitIRKmS5_EEbv",
   "return_type" : "_ZTIb",
   "source_file" : "external/libcxx/include/utility",
   "template_args" : [ "_ZTIRKm", "_ZTIRKm" ]
  },
  {
   "function_name" : "std::__1::pair<unsigned long, unsigned long>::_CheckArgs::__enable_implicit",
   "linker_set_key" : "_ZNSt3__14pairImmE10_CheckArgs17__enable_implicitImmEEbv",
   "return_type" : "_ZTIb",
   "source_file" : "external/libcxx/include/utility",
   "template_args" : [ "_ZTIm", "_ZTIm" ]
  },
  {
   "function_name" : "std::__1::pair<unsigned long, unsigned long>::pair",
   "linker_set_key" : "_ZNSt3__14pairImmEC1EOS1_",
   "parameters" :
   [
    {
     "is_this_ptr" : true,
     "referenced_type" : "_ZTIPNSt3__14pairImmEE"
    },
    {
     "referenced_type" : "_ZTIONSt3__14pairImmEE"
    }
   ],
   "return_type" : "_ZTIv",
   "source_file" : "external/libcxx/include/utility"
  },
  {
   "function_name" : "std::__1::pair<unsigned long, unsigned long>::pair",
   "linker_set_key" : "_ZNSt3__14pairImmEC1ERKS1_",
   "parameters" :
   [
    {
     "is_this_ptr" : true,
     "referenced_type" : "_ZTIPNSt3__14pairImmEE"
    },
    {
     "referenced_type" : "_ZTIRKNSt3__14pairImmEE"
    }
   ],
   "return_type" : "_ZTIv",
   "source_file" : "external/libcxx/include/utility"
  },
  {
   "function_name" : "std::__1::pair<unsigned long, unsigned long>::pair",
   "linker_set_key" : "_ZNSt3__14pairImmEC1ImmLb0EEEOT_OT0_",
   "parameters" :
   [
    {
     "is_this_ptr" : true,
     "referenced_type" : "_ZTIPNSt3__14pairImmEE"
    },
    {
     "referenced_type" : "_ZTIOm"
    },
    {
     "referenced_type" : "_ZTIOm"
    }
   ],
   "return_type" : "_ZTIv",
   "source_file" : "external/libcxx/include/utility",
   "template_args" : [ "_ZTIm", "_ZTIm" ]
  },
  {
   "function_name" : "std::__1::pair<unsigned long, unsigned long>::pair",
   "linker_set_key" : "_ZNSt3__14pairImmEC2EOS1_",
   "parameters" :
   [
    {
     "is_this_ptr" : true,
     "referenced_type" : "_ZTIPNSt3__14pairImmEE"
    },
    {
     "referenced_type" : "_ZTIONSt3__14pairImmEE"
    }
   ],
   "return_type" : "_ZTIv",
   "source_file" : "external/libcxx/include/utility"
  },
  {
   "function_name" : "std::__1::pair<unsigned long, unsigned long>::pair",
   "linker_set_key" : "_ZNSt3__14pairImmEC2ERKS1_",
   "parameters" :
   [
    {
     "is_this_ptr" : true,
     "referenced_type" : "_ZTIPNSt3__14pairImmEE"
    },
    {
     "referenced_type" : "_ZTIRKNSt3__14pairImmEE"
    }
   ],
   "return_type" : "_ZTIv",
   "source_file" : "external/libcxx/include/utility"
  },
  {
   "function_name" : "std::__1::pair<unsigned long, unsigned long>::pair",
   "linker_set_key" : "_ZNSt3__14pairImmEC2ImmLb0EEEOT_OT0_",
   "parameters" :
   [
    {
     "is_this_ptr" : true,
     "referenced_type" : "_ZTIPNSt3__14pairImmEE"
    },
    {
     "referenced_type" : "_ZTIOm"
    },
    {
     "referenced_type" : "_ZTIOm"
    }
   ],
   "return_type" : "_ZTIv",
   "source_file" : "external/libcxx/include/utility",
   "template_args" : [ "_ZTIm", "_ZTIm" ]
  },
  {
   "function_name" : "std::__1::pair<unsigned long, unsigned long>::operator=",
   "linker_set_key" : "_ZNSt3__14pairImmEaSEOS1_",
   "parameters" :
   [
    {
     "is_this_ptr" : true,
     "referenced_type" : "_ZTIPNSt3__14pairImmEE"
    },
    {
     "referenced_type" : "_ZTIONSt3__14pairImmEE"
    }
   ],
   "return_type" : "_ZTIRNSt3__14pairImmEE",
   "source_file" : "external/libcxx/include/utility"
  },
  {
   "function_name" : "std::__1::swap",
   "linker_set_key" : "_ZNSt3__14swapIPNS_3setIjNS_4lessIjEENS_9allocatorIjEEEEEENS_9enable_ifIXaasr21is_move_constructibleIT_EE5valuesr18is_move_assignableIS9_EE5valueEvE4typeERS9_SC_",
   "parameters" :
   [
    {
     "referenced_type" : "_ZTIRPNSt3__13setIjNS_4lessIjEENS_9allocatorIjEEEE"
    },
    {
     "referenced_type" : "_ZTIRPNSt3__13setIjNS_4lessIjEENS_9allocatorIjEEEE"
    }
   ],
   "return_type" : "_ZTIv",
   "source_file" : "external/libcxx/include/type_traits",
   "template_args" : [ "_ZTIPNSt3__13setIjNS_4lessIjEENS_9allocatorIjEEEE" ]
  },
  {
   "function_name" : "std::__1::swap",
   "linker_set_key" : "_ZNSt3__14swapImEENS_9enable_ifIXaasr21is_move_constructibleIT_EE5valuesr18is_move_assignableIS2_EE5valueEvE4typeERS2_S5_",
   "parameters" :
   [
    {
     "referenced_type" : "_ZTIRm"
    },
    {
     "referenced_type" : "_ZTIRm"
    }
   ],
   "return_type" : "_ZTIv",
   "source_file" : "external/libcxx/include/type_traits",
   "template_args" : [ "_ZTIm" ]
  },
  {
   "function_name" : "std::__1::__clz",
   "linker_set_key" : "_ZNSt3__15__clzEj",
   "parameters" :
   [
    {
     "referenced_type" : "_ZTIj"
    }
   ],
   "return_type" : "_ZTIi",
   "source_file" : "external/libcxx/include/bit"
  },
  {
   "function_name" : "std::__1::__clz",
   "linker_set_key" : "_ZNSt3__15__clzEm",
   "parameters" :
   [
    {
     "referenced_type" : "_ZTIm"
    }
   ],
   "return_type" : "_ZTIi",
   "source_file" : "external/libcxx/include/bit"
  },
  {
   "function_name" : "std::__1::__clz",
   "linker_set_key" : "_ZNSt3__15__clzEy",
   "parameters" :
   [
    {
     "referenced_type" : "_ZTIy"
    }
   ],
   "return_type" : "_ZTIi",
   "source_file" : "external/libcxx/include/bit"
  },
  {
   "function_name" : "std::__1::__ctz",
   "linker_set_key" : "_ZNSt3__15__ctzEj",
   "parameters" :
   [
    {
     "referenced_type" : "_ZTIj"
    }
   ],
   "return_type" : "_ZTIi",
   "source_file" : "external/libcxx/include/bit"
  },
  {
   "function_name" : "std::__1::__ctz",
   "linker_set_key" : "_ZNSt3__15__ctzEm",
   "parameters" :
   [
    {
     "referenced_type" : "_ZTIm"
    }
   ],
   "return_type" : "_ZTIi",
   "source_file" : "external/libcxx/include/bit"
  },
  {
   "function_name" : "std::__1::__ctz",
   "linker_set_key" : "_ZNSt3__15__ctzEy",
   "parameters" :
   [
    {
     "referenced_type" : "_ZTIy"
    }
   ],
   "return_type" : "_ZTIi",
   "source_file" : "external/libcxx/include/bit"
  },
  {
   "function_name" : "std::__1::tuple<>::swap",
   "linker_set_key" : "_ZNSt3__15tupleIJEE4swapERS1_",
   "parameters" :
   [
    {
     "is_this_ptr" : true,
     "referenced_type" : "_ZTIPNSt3__15tupleIJEEE"
    },
    {
     "referenced_type" : "_ZTIRNSt3__15tupleIJEEE"
    }
   ],
   "return_type" : "_ZTIv",
   "source_file" : "external/libcxx/include/tuple"
  },
  {
   "function_name" : "std::__1::tuple<>::tuple",
   "linker_set_key" : "_ZNSt3__15tupleIJEEC1Ev",
   "parameters" :
   [
    {
     "is_this_ptr" : true,
     "referenced_type" : "_ZTIPNSt3__15tupleIJEEE"
    }
   ],
   "return_type" : "_ZTIv",
   "source_file" : "external/libcxx/include/tuple"
  },
  {
   "function_name" : "std::__1::tuple<>::tuple",
   "linker_set_key" : "_ZNSt3__15tupleIJEEC2Ev",
   "parameters" :
   [
    {
     "is_this_ptr" : true,
     "referenced_type" : "_ZTIPNSt3__15tupleIJEEE"
    }
   ],
   "return_type" : "_ZTIv",
   "source_file" : "external/libcxx/include/tuple"
  },
  {
   "function_name" : "std::__1::__copy",
   "linker_set_key" : "_ZNSt3__16__copyINS_11__wrap_iterIPKNS_3setIjNS_4lessIjEENS_9allocatorIjEEEEEEPS7_EET0_T_SD_SC_",
   "parameters" :
   [
    {
     "referenced_type" : "_ZTINSt3__111__wrap_iterIPKNS_3setIjNS_4lessIjEENS_9allocatorIjEEEEEE"
    },
    {
     "referenced_type" : "_ZTINSt3__111__wrap_iterIPKNS_3setIjNS_4lessIjEENS_9allocatorIjEEEEEE"
    },
    {
     "referenced_type" : "_ZTIPNSt3__13setIjNS_4lessIjEENS_9allocatorIjEEEE"
    }
   ],
   "return_type" : "_ZTIPNSt3__13setIjNS_4lessIjEENS_9allocatorIjEEEE",
   "source_file" : "external/libcxx/include/algorithm",
   "template_args" :
   [
    "_ZTINSt3__111__wrap_iterIPKNS_3setIjNS_4lessIjEENS_9allocatorIjEEEEEE",
    "_ZTIPNSt3__13setIjNS_4lessIjEENS_9allocatorIjEEEE"
   ]
  },
  {
   "function_name" : "std::__1::__copy",
   "linker_set_key" : "_ZNSt3__16__copyINS_21__tree_const_iteratorIjPNS_11__tree_nodeIjPvEElEENS_15insert_iteratorINS_3setIjNS_4lessIjEENS_9allocatorIjEEEEEEEET0_T_SG_SF_",
   "parameters" :
   [
    {
     "referenced_type" : "_ZTINSt3__121__tree_const_iteratorIjPNS_11__tree_nodeIjPvEElEE"
    },
    {
     "referenced_type" : "_ZTINSt3__121__tree_const_iteratorIjPNS_11__tree_nodeIjPvEElEE"
    },
    {
     "referenced_type" : "_ZTINSt3__115insert_iteratorINS_3setIjNS_4lessIjEENS_9allocatorIjEEEEEE"
    }
   ],
   "return_type" : "_ZTINSt3__115insert_iteratorINS_3setIjNS_4lessIjEENS_9allocatorIjEEEEEE",
   "source_file" : "external/libcxx/include/algorithm",
   "template_args" :
   [
    "_ZTINSt3__121__tree_const_iteratorIjPNS_11__tree_nodeIjPvEElEE",
    "_ZTINSt3__115insert_iteratorINS_3setIjNS_4lessIjEENS_9allocatorIjEEEEEE"
   ]
  },
  {
   "function_name" : "std::__1::__tree<std::__1::set<unsigned int, std::__1::less<unsigned int>, std::__1::allocator<unsigned int>>, std::__1::less<std::__1::set<unsigned int, std::__1::less<unsigned int>, std::__1::allocator<unsigned int>>>, std::__1::allocator<std::__1::set<unsigned int, std::__1::less<unsigned int>, std::__1::allocator<unsigned int>>>>::__end_node",
   "linker_set_key" : "_ZNSt3__16__treeINS_3setIjNS_4lessIjEENS_9allocatorIjEEEENS2_IS6_EENS4_IS6_EEE10__end_nodeEv",
   "parameters" :
   [
    {
     "is_this_ptr" : true,
     "referenced_type" : "_ZTIPNSt3__16__treeINS_3setIjNS_4lessIjEENS_9allocatorIjEEEENS2_IS6_EENS4_IS6_EEEE"
    }
   ],
   "return_type" : "_ZTIPNSt3__115__tree_end_nodeIPNS_16__tree_node_baseIPvEEEE",
   "source_file" : "external/libcxx/include/__tree"
  },
  {
   "function_name" : "std::__1::__tree<std::__1::set<unsigned int, std::__1::less<unsigned int>, std::__1::allocator<unsigned int>>, std::__1::less<std::__1::set<unsigned int, std::__1::less<unsigned int>, std::__1::allocator<unsigned int>>>, std::__1::allocator<std::__1::set<unsigned int, std::__1::less<unsigned int>, std::__1::allocator<unsigned int>>>>::value_comp",
   "linker_set_key" : "_ZNSt3__16__treeINS_3setIjNS_4lessIjEENS_9allocatorIjEEEENS2_IS6_EENS4_IS6_EEE10value_compEv",
   "parameters" :
   [
    {
     "is_this_ptr" : true,
     "referenced_type" : "_ZTIPNSt3__16__treeINS_3setIjNS_4lessIjEENS_9allocatorIjEEEENS2_IS6_EENS4_IS6_EEEE"
    }
   ],
   "return_type" : "_ZTIRNSt3__14lessINS_3setIjNS0_IjEENS_9allocatorIjEEEEEE",
   "source_file" : "external/libcxx/include/__tree"
  },
  {
   "access" : "private",
   "function_name" : "std::__1::__tree<std::__1::set<unsigned int, std::__1::less<unsigned int>, std::__1::allocator<unsigned int>>, std::__1::less<std::__1::set<unsigned int, std::__1::less<unsigned int>, std::__1::allocator<unsigned int>>>, std::__1::allocator<std::__1::set<unsigned int, std::__1::less<unsigned int>, std::__1::allocator<unsigned int>>>>::__begin_node",
   "linker_set_key" : "_ZNSt3__16__treeINS_3setIjNS_4lessIjEENS_9allocatorIjEEEENS2_IS6_EENS4_IS6_EEE12__begin_nodeEv",
   "parameters" :
   [
    {
     "is_this_ptr" : true,
     "referenced_type" : "_ZTIPNSt3__16__treeINS_3setIjNS_4lessIjEENS_9allocatorIjEEEENS2_IS6_EENS4_IS6_EEEE"
    }
   ],
   "return_type" : "_ZTIRPNSt3__115__tree_end_nodeIPNS_16__tree_node_baseIPvEEEE",
   "source_file" : "external/libcxx/include/__tree"
  },
  {
   "access" : "private",
   "function_name" : "std::__1::__tree<std::__1::set<unsigned int, std::__1::less<unsigned int>, std::__1::allocator<unsigned int>>, std::__1::less<std::__1::set<unsigned int, std::__1::less<unsigned int>, std::__1::allocator<unsigned int>>>, std::__1::allocator<std::__1::set<unsigned int, std::__1::less<unsigned int>, std::__1::allocator<unsigned int>>>>::__find_equal",
   "linker_set_key" : "_ZNSt3__16__treeINS_3setIjNS_4lessIjEENS_9allocatorIjEEEENS2_IS6_EENS4_IS6_EEE12__find_equalIS6_EERPNS_16__tree_node_baseIPvEERPNS_15__tree_end_nodeISE_EERKT_",
   "parameters" :
   [
    {
     "is_this_ptr" : true,
     "referenced_type" : "_ZTIPNSt3__16__treeINS_3setIjNS_4lessIjEENS_9allocatorIjEEEENS2_IS6_EENS4_IS6_EEEE"
    },
    {
     "referenced_type" : "_ZTIRPNSt3__115__tree_end_nodeIPNS_16__tree_node_baseIPvEEEE"
    },
    {
     "referenced_type" : "_ZTIRKNSt3__13setIjNS_4lessIjEENS_9allocatorIjEEEE"
    }
   ],
   "return_type" : "_ZTIRPNSt3__116__tree_node_baseIPvEE",
   "source_file" : "external/libcxx/include/__tree",
   "template_args" : [ "_ZTINSt3__13setIjNS_4lessIjEENS_9allocatorIjEEEE" ]
  },
  {
   "function_name" : "std::__1::__tree<std::__1::set<unsigned int, std::__1::less<unsigned int>, std::__1::allocator<unsigned int>>, std::__1::less<std::__1::set<unsigned int, std::__1::less<unsigned int>, std::__1::allocator<unsigned int>>>, std::__1::allocator<std::__1::set<unsigned int, std::__1::less<unsigned int>, std::__1::allocator<unsigned int>>>>::__node_alloc",
   "linker_set_key" : "_ZNSt3__16__treeINS_3setIjNS_4lessIjEENS_9allocatorIjEEEENS2_IS6_EENS4_IS6_EEE12__node_allocEv",
   "parameters" :
   [
    {
     "is_this_ptr" : true,
     "referenced_type" : "_ZTIPNSt3__16__treeINS_3setIjNS_4lessIjEENS_9allocatorIjEEEENS2_IS6_EENS4_IS6_EEEE"
    }
   ],
   "return_type" : "_ZTIRNSt3__19allocatorINS_11__tree_nodeINS_3setIjNS_4lessIjEENS0_IjEEEEPvEEEE",
   "source_file" : "external/libcxx/include/__tree"
  },
  {
   "function_name" : "std::__1::__tree<std::__1::set<unsigned int, std::__1::less<unsigned int>, std::__1::allocator<unsigned int>>, std::__1::less<std::__1::set<unsigned int, std::__1::less<unsigned int>, std::__1::allocator<unsigned int>>>, std::__1::allocator<std::__1::set<unsigned int, std::__1::less<unsigned int>, std::__1::allocator<unsigned int>>>>::__insert_unique",
   "linker_set_key" : "_ZNSt3__16__treeINS_3setIjNS_4lessIjEENS_9allocatorIjEEEENS2_IS6_EENS4_IS6_EEE15__insert_uniqueERKS6_",
   "parameters" :
   [
    {
     "is_this_ptr" : true,
     "referenced_type" : "_ZTIPNSt3__16__treeINS_3setIjNS_4lessIjEENS_9allocatorIjEEEENS2_IS6_EENS4_IS6_EEEE"
    },
    {
     "referenced_type" : "_ZTIRKNSt3__13setIjNS_4lessIjEENS_9allocatorIjEEEE"
    }
   ],
   "return_type" : "_ZTINSt3__14pairINS_15__tree_iteratorINS_3setIjNS_4lessIjEENS_9allocatorIjEEEEPNS_11__tree_nodeIS7_PvEElEEbEE",
   "source_file" : "external/libcxx/include/__tree"
  },
  {
   "access" : "private",
   "function_name" : "std::__1::__tree<std::__1::set<unsigned int, std::__1::less<unsigned int>, std::__1::allocator<unsigned int>>, std::__1::less<std::__1::set<unsigned int, std::__1::less<unsigned int>, std::__1::allocator<unsigned int>>>, std::__1::allocator<std::__1::set<unsigned int, std::__1::less<unsigned int>, std::__1::allocator<unsigned int>>>>::__construct_node",
   "linker_set_key" : "_ZNSt3__16__treeINS_3setIjNS_4lessIjEENS_9allocatorIjEEEENS2_IS6_EENS4_IS6_EEE16__construct_nodeIJRKS6_EEENS_10unique_ptrINS_11__tree_nodeIS6_PvEENS_22__tree_node_destructorINS4_ISG_EEEEEEDpOT_",
   "parameters" :
   [
    {
     "is_this_ptr" : true,
     "referenced_type" : "_ZTIPNSt3__16__treeINS_3setIjNS_4lessIjEENS_9allocatorIjEEEENS2_IS6_EENS4_IS6_EEEE"
    },
    {
     "referenced_type" : "_ZTIRKNSt3__13setIjNS_4lessIjEENS_9allocatorIjEEEE"
    }
   ],
   "return_type" : "_ZTINSt3__110unique_ptrINS_11__tree_nodeINS_3setIjNS_4lessIjEENS_9allocatorIjEEEEPvEENS_22__tree_node_destructorINS5_IS9_EEEEEE",
   "source_file" : "external/libcxx/include/__tree"
  },
  {
   "function_name" : "std::__1::__tree<std::__1::set<unsigned int, std::__1::less<unsigned int>, std::__1::allocator<unsigned int>>, std::__1::less<std::__1::set<unsigned int, std::__1::less<unsigned int>, std::__1::allocator<unsigned int>>>, std::__1::allocator<std::__1::set<unsigned int, std::__1::less<unsigned int>, std::__1::allocator<unsigned int>>>>::__insert_node_at",
   "linker_set_key" : "_ZNSt3__16__treeINS_3setIjNS_4lessIjEENS_9allocatorIjEEEENS2_IS6_EENS4_IS6_EEE16__insert_node_atEPNS_15__tree_end_nodeIPNS_16__tree_node_baseIPvEEEERSE_SE_",
   "parameters" :
   [
    {
     "is_this_ptr" : true,
     "referenced_type" : "_ZTIPNSt3__16__treeINS_3setIjNS_4lessIjEENS_9allocatorIjEEEENS2_IS6_EENS4_IS6_EEEE"
    },
    {
     "referenced_type" : "_ZTIPNSt3__115__tree_end_nodeIPNS_16__tree_node_baseIPvEEEE"
    },
    {
     "referenced_type" : "_ZTIRPNSt3__116__tree_node_baseIPvEE"
    },
    {
     "referenced_type" : "_ZTIPNSt3__116__tree_node_baseIPvEE"
    }
   ],
   "return_type" : "_ZTIv",
   "source_file" : "external/libcxx/include/__tree"
  },
  {
   "function_name" : "std::__1::__tree<std::__1::set<unsigned int, std::__1::less<unsigned int>, std::__1::allocator<unsigned int>>, std::__1::less<std::__1::set<unsigned int, std::__1::less<unsigned int>, std::__1::allocator<unsigned int>>>, std::__1::allocator<std::__1::set<unsigned int, std::__1::less<unsigned int>, std::__1::allocator<unsigned int>>>>::__emplace_unique_key_args",
   "linker_set_key" : "_ZNSt3__16__treeINS_3setIjNS_4lessIjEENS_9allocatorIjEEEENS2_IS6_EENS4_IS6_EEE25__emplace_unique_key_argsIS6_JRKS6_EEENS_4pairINS_15__tree_iteratorIS6_PNS_11__tree_nodeIS6_PvEElEEbEERKT_DpOT0_",
   "parameters" :
   [
    {
     "is_this_ptr" : true,
     "referenced_type" : "_ZTIPNSt3__16__treeINS_3setIjNS_4lessIjEENS_9allocatorIjEEEENS2_IS6_EENS4_IS6_EEEE"
    },
    {
     "referenced_type" : "_ZTIRKNSt3__13setIjNS_4lessIjEENS_9allocatorIjEEEE"
    },
    {
     "referenced_type" : "_ZTIRKNSt3__13setIjNS_4lessIjEENS_9allocatorIjEEEE"
    }
   ],
   "return_type" : "_ZTINSt3__14pairINS_15__tree_iteratorINS_3setIjNS_4lessIjEENS_9allocatorIjEEEEPNS_11__tree_nodeIS7_PvEElEEbEE",
   "source_file" : "external/libcxx/include/__tree",
   "template_args" : [ "_ZTINSt3__13setIjNS_4lessIjEENS_9allocatorIjEEEE" ]
  },
  {
   "access" : "private",
   "function_name" : "std::__1::__tree<std::__1::set<unsigned int, std::__1::less<unsigned int>, std::__1::allocator<unsigned int>>, std::__1::less<std::__1::set<unsigned int, std::__1::less<unsigned int>, std::__1::allocator<unsigned int>>>, std::__1::allocator<std::__1::set<unsigned int, std::__1::less<unsigned int>, std::__1::allocator<unsigned int>>>>::size",
   "linker_set_key" : "_ZNSt3__16__treeINS_3setIjNS_4lessIjEENS_9allocatorIjEEEENS2_IS6_EENS4_IS6_EEE4sizeEv",
   "parameters" :
   [
    {
     "is_this_ptr" : true,
     "referenced_type" : "_ZTIPNSt3__16__treeINS_3setIjNS_4lessIjEENS_9allocatorIjEEEENS2_IS6_EENS4_IS6_EEEE"
    }
   ],
   "return_type" : "_ZTIRm",
   "source_file" : "external/libcxx/include/__tree"
  },
  {
   "access" : "private",
   "function_name" : "std::__1::__tree<std::__1::set<unsigned int, std::__1::less<unsigned int>, std::__1::allocator<unsigned int>>, std::__1::less<std::__1::set<unsigned int, std::__1::less<unsigned int>, std::__1::allocator<unsigned int>>>, std::__1::allocator<std::__1::set<unsigned int, std::__1::less<unsigned int>, std::__1::allocator<unsigned int>>>>::destroy",
   "linker_set_key" : "_ZNSt3__16__treeINS_3setIjNS_4lessIjEENS_9allocatorIjEEEENS2_IS6_EENS4_IS6_EEE7destroyEPNS_11__tree_nodeIS6_PvEE",
   "parameters" :
   [
    {
     "is_this_ptr" : true,
     "referenced_type" : "_ZTIPNSt3__16__treeINS_3setIjNS_4lessIjEENS_9allocatorIjEEEENS2_IS6_EENS4_IS6_EEEE"
    },
    {
     "referenced_type" : "_ZTIPNSt3__111__tree_nodeINS_3setIjNS_4lessIjEENS_9allocatorIjEEEEPvEE"
    }
   ],
   "return_type" : "_ZTIv",
   "source_file" : "external/libcxx/include/__tree"
  },
  {
   "function_name" : "std::__1::__tree<std::__1::set<unsigned int, std::__1::less<unsigned int>, std::__1::allocator<unsigned int>>, std::__1::less<std::__1::set<unsigned int, std::__1::less<unsigned int>, std::__1::allocator<unsigned int>>>, std::__1::allocator<std::__1::set<unsigned int, std::__1::less<unsigned int>, std::__1::allocator<unsigned int>>>>::~__tree",
   "linker_set_key" : "_ZNSt3__16__treeINS_3setIjNS_4lessIjEENS_9allocatorIjEEEENS2_IS6_EENS4_IS6_EEED1Ev",
   "parameters" :
   [
    {
     "is_this_ptr" : true,
     "referenced_type" : "_ZTIPNSt3__16__treeINS_3setIjNS_4lessIjEENS_9allocatorIjEEEENS2_IS6_EENS4_IS6_EEEE"
    }
   ],
   "return_type" : "_ZTIv",
   "source_file" : "external/libcxx/include/__tree"
  },
  {
   "function_name" : "std::__1::__tree<std::__1::set<unsigned int, std::__1::less<unsigned int>, std::__1::allocator<unsigned int>>, std::__1::less<std::__1::set<unsigned int, std::__1::less<unsigned int>, std::__1::allocator<unsigned int>>>, std::__1::allocator<std::__1::set<unsigned int, std::__1::less<unsigned int>, std::__1::allocator<unsigned int>>>>::~__tree",
   "linker_set_key" : "_ZNSt3__16__treeINS_3setIjNS_4lessIjEENS_9allocatorIjEEEENS2_IS6_EENS4_IS6_EEED2Ev",
   "parameters" :
   [
    {
     "is_this_ptr" : true,
     "referenced_type" : "_ZTIPNSt3__16__treeINS_3setIjNS_4lessIjEENS_9allocatorIjEEEENS2_IS6_EENS4_IS6_EEEE"
    }
   ],
   "return_type" : "_ZTIv",
   "source_file" : "external/libcxx/include/__tree"
  },
  {
   "function_name" : "std::__1::__tree<unsigned int, std::__1::less<unsigned int>, std::__1::allocator<unsigned int>>::__end_node",
   "linker_set_key" : "_ZNSt3__16__treeIjNS_4lessIjEENS_9allocatorIjEEE10__end_nodeEv",
   "parameters" :
   [
    {
     "is_this_ptr" : true,
     "referenced_type" : "_ZTIPNSt3__16__treeIjNS_4lessIjEENS_9allocatorIjEEEE"
    }
   ],
   "return_type" : "_ZTIPNSt3__115__tree_end_nodeIPNS_16__tree_node_baseIPvEEEE",
   "source_file" : "external/libcxx/include/__tree"
  },
  {
   "function_name" : "std::__1::__tree<unsigned int, std::__1::less<unsigned int>, std::__1::allocator<unsigned int>>::value_comp",
   "linker_set_key" : "_ZNSt3__16__treeIjNS_4lessIjEENS_9allocatorIjEEE10value_compEv",
   "parameters" :
   [
    {
     "is_this_ptr" : true,
     "referenced_type" : "_ZTIPNSt3__16__treeIjNS_4lessIjEENS_9allocatorIjEEEE"
    }
   ],
   "return_type" : "_ZTIRNSt3__14lessIjEE",
   "source_file" : "external/libcxx/include/__tree"
  },
  {
   "access" : "private",
   "function_name" : "std::__1::__tree<unsigned int, std::__1::less<unsigned int>, std::__1::allocator<unsigned int>>::__begin_node",
   "linker_set_key" : "_ZNSt3__16__treeIjNS_4lessIjEENS_9allocatorIjEEE12__begin_nodeEv",
   "parameters" :
   [
    {
     "is_this_ptr" : true,
     "referenced_type" : "_ZTIPNSt3__16__treeIjNS_4lessIjEENS_9allocatorIjEEEE"
    }
   ],
   "return_type" : "_ZTIRPNSt3__115__tree_end_nodeIPNS_16__tree_node_baseIPvEEEE",
   "source_file" : "external/libcxx/include/__tree"
  },
  {
   "access" : "private",
   "function_name" : "std::__1::__tree<unsigned int, std::__1::less<unsigned int>, std::__1::allocator<unsigned int>>::__find_equal",
   "linker_set_key" : "_ZNSt3__16__treeIjNS_4lessIjEENS_9allocatorIjEEE12__find_equalIjEERPNS_16__tree_node_baseIPvEENS_21__tree_const_iteratorIjPNS_11__tree_nodeIjS8_EElEERPNS_15__tree_end_nodeISA_EESB_RKT_",
   "parameters" :
   [
    {
     "is_this_ptr" : true,
     "referenced_type" : "_ZTIPNSt3__16__treeIjNS_4lessIjEENS_9allocatorIjEEEE"
    },
    {
     "referenced_type" : "_ZTINSt3__121__tree_const_iteratorIjPNS_11__tree_nodeIjPvEElEE"
    },
    {
     "referenced_type" : "_ZTIRPNSt3__115__tree_end_nodeIPNS_16__tree_node_baseIPvEEEE"
    },
    {
     "referenced_type" : "_ZTIRPNSt3__116__tree_node_baseIPvEE"
    },
    {
     "referenced_type" : "_ZTIRKj"
    }
   ],
   "return_type" : "_ZTIRPNSt3__116__tree_node_baseIPvEE",
   "source_file" : "external/libcxx/include/__tree",
   "template_args" : [ "_ZTIj" ]
  },
  {
   "access" : "private",
   "function_name" : "std::__1::__tree<unsigned int, std::__1::less<unsigned int>, std::__1::allocator<unsigned int>>::__find_equal",
   "linker_set_key" : "_ZNSt3__16__treeIjNS_4lessIjEENS_9allocatorIjEEE12__find_equalIjEERPNS_16__tree_node_baseIPvEERPNS_15__tree_end_nodeISA_EERKT_",
   "parameters" :
   [
    {
     "is_this_ptr" : true,
     "referenced_type" : "_ZTIPNSt3__16__treeIjNS_4lessIjEENS_9allocatorIjEEEE"
    },
    {
     "referenced_type" : "_ZTIRPNSt3__115__tree_end_nodeIPNS_16__tree_node_baseIPvEEEE"
    },
    {
     "referenced_type" : "_ZTIRKj"
    }
   ],
   "return_type" : "_ZTIRPNSt3__116__tree_node_baseIPvEE",
   "source_file" : "external/libcxx/include/__tree",
   "template_args" : [ "_ZTIj" ]
  },
  {
   "function_name" : "std::__1::__tree<unsigned int, std::__1::less<unsigned int>, std::__1::allocator<unsigned int>>::__node_alloc",
   "linker_set_key" : "_ZNSt3__16__treeIjNS_4lessIjEENS_9allocatorIjEEE12__node_allocEv",
   "parameters" :
   [
    {
     "is_this_ptr" : true,
     "referenced_type" : "_ZTIPNSt3__16__treeIjNS_4lessIjEENS_9allocatorIjEEEE"
    }
   ],
   "return_type" : "_ZTIRNSt3__19allocatorINS_11__tree_nodeIjPvEEEE",
   "source_file" : "external/libcxx/include/__tree"
  },
  {
   "access" : "private",
   "function_name" : "std::__1::__tree<unsigned int, std::__1::less<unsigned int>, std::__1::allocator<unsigned int>>::__move_assign",
   "linker_set_key" : "_ZNSt3__16__treeIjNS_4lessIjEENS_9allocatorIjEEE13__move_assignERS5_NS_17integral_constantIbLb1EEE",
   "parameters" :
   [
    {
     "is_this_ptr" : true,
     "referenced_type" : "_ZTIPNSt3__16__treeIjNS_4lessIjEENS_9allocatorIjEEEE"
    },
    {
     "referenced_type" : "_ZTIRNSt3__16__treeIjNS_4lessIjEENS_9allocatorIjEEEE"
    },
    {
     "referenced_type" : "_ZTINSt3__117integral_constantIbLb1EEE"
    }
   ],
   "return_type" : "_ZTIv",
   "source_file" : "external/libcxx/include/__tree"
  },
  {
   "function_name" : "std::__1::__tree<unsigned int, std::__1::less<unsigned int>, std::__1::allocator<unsigned int>>::__assign_multi",
   "linker_set_key" : "_ZNSt3__16__treeIjNS_4lessIjEENS_9allocatorIjEEE14__assign_multiINS_21__tree_const_iteratorIjPNS_11__tree_nodeIjPvEElEEEEvT_SD_",
   "parameters" :
   [
    {
     "is_this_ptr" : true,
     "referenced_type" : "_ZTIPNSt3__16__treeIjNS_4lessIjEENS_9allocatorIjEEEE"
    },
    {
     "referenced_type" : "_ZTINSt3__121__tree_const_iteratorIjPNS_11__tree_nodeIjPvEElEE"
    },
    {
     "referenced_type" : "_ZTINSt3__121__tree_const_iteratorIjPNS_11__tree_nodeIjPvEElEE"
    }
   ],
   "return_type" : "_ZTIv",
   "source_file" : "external/libcxx/include/__tree",
   "template_args" : [ "_ZTINSt3__121__tree_const_iteratorIjPNS_11__tree_nodeIjPvEElEE" ]
  },
  {
   "function_name" : "std::__1::__tree<unsigned int, std::__1::less<unsigned int>, std::__1::allocator<unsigned int>>::__insert_multi",
   "linker_set_key" : "_ZNSt3__16__treeIjNS_4lessIjEENS_9allocatorIjEEE14__insert_multiIRKjEENS_15__tree_iteratorIjPNS_11__tree_nodeIjPvEElEEOT_",
   "parameters" :
   [
    {
     "is_this_ptr" : true,
     "referenced_type" : "_ZTIPNSt3__16__treeIjNS_4lessIjEENS_9allocatorIjEEEE"
    },
    {
     "referenced_type" : "_ZTIRKj"
    }
   ],
   "return_type" : "_ZTINSt3__115__tree_iteratorIjPNS_11__tree_nodeIjPvEElEE",
   "source_file" : "external/libcxx/include/__tree",
   "template_args" : [ "_ZTIRKj" ]
  },
  {
   "function_name" : "std::__1::__tree<unsigned int, std::__1::less<unsigned int>, std::__1::allocator<unsigned int>>::__emplace_multi",
   "linker_set_key" : "_ZNSt3__16__treeIjNS_4lessIjEENS_9allocatorIjEEE15__emplace_multiIJRKjEEENS_15__tree_iteratorIjPNS_11__tree_nodeIjPvEElEEDpOT_",
   "parameters" :
   [
    {
     "is_this_ptr" : true,
     "referenced_type" : "_ZTIPNSt3__16__treeIjNS_4lessIjEENS_9allocatorIjEEEE"
    },
    {
     "referenced_type" : "_ZTIRKj"
    }
   ],
   "return_type" : "_ZTINSt3__115__tree_iteratorIjPNS_11__tree_nodeIjPvEElEE",
   "source_file" : "external/libcxx/include/__tree"
  },
  {
   "function_name" : "std::__1::__tree<unsigned int, std::__1::less<unsigned int>, std::__1::allocator<unsigned int>>::__insert_unique",
   "linker_set_key" : "_ZNSt3__16__treeIjNS_4lessIjEENS_9allocatorIjEEE15__insert_uniqueENS_21__tree_const_iteratorIjPNS_11__tree_nodeIjPvEElEERKj",
   "parameters" :
   [
    {
     "is_this_ptr" : true,
     "referenced_type" : "_ZTIPNSt3__16__treeIjNS_4lessIjEENS_9allocatorIjEEEE"
    },
    {
     "referenced_type" : "_ZTINSt3__121__tree_const_iteratorIjPNS_11__tree_nodeIjPvEElEE"
    },
    {
     "referenced_type" : "_ZTIRKj"
    }
   ],
   "return_type" : "_ZTINSt3__115__tree_iteratorIjPNS_11__tree_nodeIjPvEElEE",
   "source_file" : "external/libcxx/include/__tree"
  },
  {
   "function_name" : "std::__1::__tree<unsigned int, std::__1::less<unsigned int>, std::__1::allocator<unsigned int>>::__insert_unique",
   "linker_set_key" : "_ZNSt3__16__treeIjNS_4lessIjEENS_9allocatorIjEEE15__insert_uniqueERKj",
   "parameters" :
   [
    {
     "is_this_ptr" : true,
     "referenced_type" : "_ZTIPNSt3__16__treeIjNS_4lessIjEENS_9allocatorIjEEEE"
    },
    {
     "referenced_type" : "_ZTIRKj"
    }
   ],
   "return_type" : "_ZTINSt3__14pairINS_15__tree_iteratorIjPNS_11__tree_nodeIjPvEElEEbEE",
   "source_file" : "external/libcxx/include/__tree"
  },
  {
   "access" : "private",
   "function_name" : "std::__1::__tree<unsigned int, std::__1::less<unsigned int>, std::__1::allocator<unsigned int>>::__construct_node",
   "linker_set_key" : "_ZNSt3__16__treeIjNS_4lessIjEENS_9allocatorIjEEE16__construct_nodeIJRKjEEENS_10unique_ptrINS_11__tree_nodeIjPvEENS_22__tree_node_destructorINS3_ISC_EEEEEEDpOT_",
   "parameters" :
   [
    {
     "is_this_ptr" : true,
     "referenced_type" : "_ZTIPNSt3__16__treeIjNS_4lessIjEENS_9allocatorIjEEEE"
    },
    {
     "referenced_type" : "_ZTIRKj"
    }
   ],
   "return_type" : "_ZTINSt3__110unique_ptrINS_11__tree_nodeIjPvEENS_22__tree_node_destructorINS_9allocatorIS3_EEEEEE",
   "source_file" : "external/libcxx/include/__tree"
  },
  {
   "access" : "private",
   "function_name" : "std::__1::__tree<unsigned int, std::__1::less<unsigned int>, std::__1::allocator<unsigned int>>::__find_leaf_high",
   "linker_set_key" : "_ZNSt3__16__treeIjNS_4lessIjEENS_9allocatorIjEEE16__find_leaf_highERPNS_15__tree_end_nodeIPNS_16__tree_node_baseIPvEEEERKj",
   "parameters" :
   [
    {
     "is_this_ptr" : true,
     "referenced_type" : "_ZTIPNSt3__16__treeIjNS_4lessIjEENS_9allocatorIjEEEE"
    },
    {
     "referenced_type" : "_ZTIRPNSt3__115__tree_end_nodeIPNS_16__tree_node_baseIPvEEEE"
    },
    {
     "referenced_type" : "_ZTIRKj"
    }
   ],
   "return_type" : "_ZTIRPNSt3__116__tree_node_baseIPvEE",
   "source_file" : "external/libcxx/include/__tree"
  },
  {
   "function_name" : "std::__1::__tree<unsigned int, std::__1::less<unsigned int>, std::__1::allocator<unsigned int>>::__insert_node_at",
   "linker_set_key" : "_ZNSt3__16__treeIjNS_4lessIjEENS_9allocatorIjEEE16__insert_node_atEPNS_15__tree_end_nodeIPNS_16__tree_node_baseIPvEEEERSA_SA_",
   "parameters" :
   [
    {
     "is_this_ptr" : true,
     "referenced_type" : "_ZTIPNSt3__16__treeIjNS_4lessIjEENS_9allocatorIjEEEE"
    },
    {
     "referenced_type" : "_ZTIPNSt3__115__tree_end_nodeIPNS_16__tree_node_baseIPvEEEE"
    },
    {
     "referenced_type" : "_ZTIRPNSt3__116__tree_node_baseIPvEE"
    },
    {
     "referenced_type" : "_ZTIPNSt3__116__tree_node_baseIPvEE"
    }
   ],
   "return_type" : "_ZTIv",
   "source_file" : "external/libcxx/include/__tree"
  },
  {
   "access" : "private",
   "function_name" : "std::__1::__tree<unsigned int, std::__1::less<unsigned int>, std::__1::allocator<unsigned int>>::__copy_assign_alloc",
   "linker_set_key" : "_ZNSt3__16__treeIjNS_4lessIjEENS_9allocatorIjEEE19__copy_assign_allocERKS5_",
   "parameters" :
   [
    {
     "is_this_ptr" : true,
     "referenced_type" : "_ZTIPNSt3__16__treeIjNS_4lessIjEENS_9allocatorIjEEEE"
    },
    {
     "referenced_type" : "_ZTIRKNSt3__16__treeIjNS_4lessIjEENS_9allocatorIjEEEE"
    }
   ],
   "return_type" : "_ZTIv",
   "source_file" : "external/libcxx/include/__tree"
  },
  {
   "access" : "private",
   "function_name" : "std::__1::__tree<unsigned int, std::__1::less<unsigned int>, std::__1::allocator<unsigned int>>::__copy_assign_alloc",
   "linker_set_key" : "_ZNSt3__16__treeIjNS_4lessIjEENS_9allocatorIjEEE19__copy_assign_allocERKS5_NS_17integral_constantIbLb0EEE",
   "parameters" :
   [
    {
     "is_this_ptr" : true,
     "referenced_type" : "_ZTIPNSt3__16__treeIjNS_4lessIjEENS_9allocatorIjEEEE"
    },
    {
     "referenced_type" : "_ZTIRKNSt3__16__treeIjNS_4lessIjEENS_9allocatorIjEEEE"
    },
    {
     "referenced_type" : "_ZTINSt3__117integral_constantIbLb0EEE"
    }
   ],
   "return_type" : "_ZTIv",
   "source_file" : "external/libcxx/include/__tree"
  },
  {
   "access" : "private",
   "function_name" : "std::__1::__tree<unsigned int, std::__1::less<unsigned int>, std::__1::allocator<unsigned int>>::__move_assign_alloc",
   "linker_set_key" : "_ZNSt3__16__treeIjNS_4lessIjEENS_9allocatorIjEEE19__move_assign_allocERS5_",
   "parameters" :
   [
    {
     "is_this_ptr" : true,
     "referenced_type" : "_ZTIPNSt3__16__treeIjNS_4lessIjEENS_9allocatorIjEEEE"
    },
    {
     "referenced_type" : "_ZTIRNSt3__16__treeIjNS_4lessIjEENS_9allocatorIjEEEE"
    }
   ],
   "return_type" : "_ZTIv",
   "source_file" : "external/libcxx/include/__tree"
  },
  {
   "access" : "private",
   "function_name" : "std::__1::__tree<unsigned int, std::__1::less<unsigned int>, std::__1::allocator<unsigned int>>::__move_assign_alloc",
   "linker_set_key" : "_ZNSt3__16__treeIjNS_4lessIjEENS_9allocatorIjEEE19__move_assign_allocERS5_NS_17integral_constantIbLb1EEE",
   "parameters" :
   [
    {
     "is_this_ptr" : true,
     "referenced_type" : "_ZTIPNSt3__16__treeIjNS_4lessIjEENS_9allocatorIjEEEE"
    },
    {
     "referenced_type" : "_ZTIRNSt3__16__treeIjNS_4lessIjEENS_9allocatorIjEEEE"
    },
    {
     "referenced_type" : "_ZTINSt3__117integral_constantIbLb1EEE"
    }
   ],
   "return_type" : "_ZTIv",
   "source_file" : "external/libcxx/include/__tree"
  },
  {
   "function_name" : "std::__1::__tree<unsigned int, std::__1::less<unsigned int>, std::__1::allocator<unsigned int>>::__node_insert_multi",
   "linker_set_key" : "_ZNSt3__16__treeIjNS_4lessIjEENS_9allocatorIjEEE19__node_insert_multiEPNS_11__tree_nodeIjPvEE",
   "parameters" :
   [
    {
     "is_this_ptr" : true,
     "referenced_type" : "_ZTIPNSt3__16__treeIjNS_4lessIjEENS_9allocatorIjEEEE"
    },
    {
     "referenced_type" : "_ZTIPNSt3__111__tree_nodeIjPvEE"
    }
   ],
   "return_type" : "_ZTINSt3__115__tree_iteratorIjPNS_11__tree_nodeIjPvEElEE",
   "source_file" : "external/libcxx/include/__tree"
  },
  {
   "function_name" : "std::__1::__tree<unsigned int, std::__1::less<unsigned int>, std::__1::allocator<unsigned int>>::__emplace_unique_key_args",
   "linker_set_key" : "_ZNSt3__16__treeIjNS_4lessIjEENS_9allocatorIjEEE25__emplace_unique_key_argsIjJRKjEEENS_4pairINS_15__tree_iteratorIjPNS_11__tree_nodeIjPvEElEEbEERKT_DpOT0_",
   "parameters" :
   [
    {
     "is_this_ptr" : true,
     "referenced_type" : "_ZTIPNSt3__16__treeIjNS_4lessIjEENS_9allocatorIjEEEE"
    },
    {
     "referenced_type" : "_ZTIRKj"
    },
    {
     "referenced_type" : "_ZTIRKj"
    }
   ],
   "return_type" : "_ZTINSt3__14pairINS_15__tree_iteratorIjPNS_11__tree_nodeIjPvEElEEbEE",
   "source_file" : "external/libcxx/include/__tree",
   "template_args" : [ "_ZTIj" ]
  },
  {
   "function_name" : "std::__1::__tree<unsigned int, std::__1::less<unsigned int>, std::__1::allocator<unsigned int>>::__emplace_hint_unique_key_args",
   "linker_set_key" : "_ZNSt3__16__treeIjNS_4lessIjEENS_9allocatorIjEEE30__emplace_hint_unique_key_argsIjJRKjEEENS_15__tree_iteratorIjPNS_11__tree_nodeIjPvEElEENS_21__tree_const_iteratorIjSD_lEERKT_DpOT0_",
   "parameters" :
   [
    {
     "is_this_ptr" : true,
     "referenced_type" : "_ZTIPNSt3__16__treeIjNS_4lessIjEENS_9allocatorIjEEEE"
    },
    {
     "referenced_type" : "_ZTINSt3__121__tree_const_iteratorIjPNS_11__tree_nodeIjPvEElEE"
    },
    {
     "referenced_type" : "_ZTIRKj"
    },
    {
     "referenced_type" : "_ZTIRKj"
    }
   ],
   "return_type" : "_ZTINSt3__115__tree_iteratorIjPNS_11__tree_nodeIjPvEElEE",
   "source_file" : "external/libcxx/include/__tree",
   "template_args" : [ "_ZTIj" ]
  },
  {
   "function_name" : "std::__1::__tree<unsigned int, std::__1::less<unsigned int>, std::__1::allocator<unsigned int>>::end",
   "linker_set_key" : "_ZNSt3__16__treeIjNS_4lessIjEENS_9allocatorIjEEE3endEv",
   "parameters" :
   [
    {
     "is_this_ptr" : true,
     "referenced_type" : "_ZTIPNSt3__16__treeIjNS_4lessIjEENS_9allocatorIjEEEE"
    }
   ],
   "return_type" : "_ZTINSt3__115__tree_iteratorIjPNS_11__tree_nodeIjPvEElEE",
   "source_file" : "external/libcxx/include/__tree"
  },
  {
   "access" : "private",
   "function_name" : "std::__1::__tree<unsigned int, std::__1::less<unsigned int>, std::__1::allocator<unsigned int>>::size",
   "linker_set_key" : "_ZNSt3__16__treeIjNS_4lessIjEENS_9allocatorIjEEE4sizeEv",
   "parameters" :
   [
    {
     "is_this_ptr" : true,
     "referenced_type" : "_ZTIPNSt3__16__treeIjNS_4lessIjEENS_9allocatorIjEEEE"
    }
   ],
   "return_type" : "_ZTIRm",
   "source_file" : "external/libcxx/include/__tree"
  },
  {
   "function_name" : "std::__1::__tree<unsigned int, std::__1::less<unsigned int>, std::__1::allocator<unsigned int>>::begin",
   "linker_set_key" : "_ZNSt3__16__treeIjNS_4lessIjEENS_9allocatorIjEEE5beginEv",
   "parameters" :
   [
    {
     "is_this_ptr" : true,
     "referenced_type" : "_ZTIPNSt3__16__treeIjNS_4lessIjEENS_9allocatorIjEEEE"
    }
   ],
   "return_type" : "_ZTINSt3__115__tree_iteratorIjPNS_11__tree_nodeIjPvEElEE",
   "source_file" : "external/libcxx/include/__tree"
  },
  {
   "access" : "private",
   "function_name" : "std::__1::__tree<unsigned int, std::__1::less<unsigned int>, std::__1::allocator<unsigned int>>::destroy",
   "linker_set_key" : "_ZNSt3__16__treeIjNS_4lessIjEENS_9allocatorIjEEE7destroyEPNS_11__tree_nodeIjPvEE",
   "parameters" :
   [
    {
     "is_this_ptr" : true,
     "referenced_type" : "_ZTIPNSt3__16__treeIjNS_4lessIjEENS_9allocatorIjEEEE"
    },
    {
     "referenced_type" : "_ZTIPNSt3__111__tree_nodeIjPvEE"
    }
   ],
   "return_type" : "_ZTIv",
   "source_file" : "external/libcxx/include/__tree"
  },
  {
   "access" : "private",
   "function_name" : "std::__1::__tree<unsigned int, std::__1::less<unsigned int>, std::__1::allocator<unsigned int>>::__detach",
   "linker_set_key" : "_ZNSt3__16__treeIjNS_4lessIjEENS_9allocatorIjEEE8__detachEPNS_11__tree_nodeIjPvEE",
   "parameters" :
   [
    {
     "referenced_type" : "_ZTIPNSt3__111__tree_nodeIjPvEE"
    }
   ],
   "return_type" : "_ZTIPNSt3__111__tree_nodeIjPvEE",
   "source_file" : "external/libcxx/include/__tree"
  },
  {
   "access" : "private",
   "function_name" : "std::__1::__tree<unsigned int, std::__1::less<unsigned int>, std::__1::allocator<unsigned int>>::__detach",
   "linker_set_key" : "_ZNSt3__16__treeIjNS_4lessIjEENS_9allocatorIjEEE8__detachEv",
   "parameters" :
   [
    {
     "is_this_ptr" : true,
     "referenced_type" : "_ZTIPNSt3__16__treeIjNS_4lessIjEENS_9allocatorIjEEEE"
    }
   ],
   "return_type" : "_ZTIPNSt3__111__tree_nodeIjPvEE",
   "source_file" : "external/libcxx/include/__tree"
  },
  {
   "function_name" : "std::__1::__tree<unsigned int, std::__1::less<unsigned int>, std::__1::allocator<unsigned int>>::__tree",
   "linker_set_key" : "_ZNSt3__16__treeIjNS_4lessIjEENS_9allocatorIjEEEC1EOS5_",
   "parameters" :
   [
    {
     "is_this_ptr" : true,
     "referenced_type" : "_ZTIPNSt3__16__treeIjNS_4lessIjEENS_9allocatorIjEEEE"
    },
    {
     "referenced_type" : "_ZTIONSt3__16__treeIjNS_4lessIjEENS_9allocatorIjEEEE"
    }
   ],
   "return_type" : "_ZTIv",
   "source_file" : "external/libcxx/include/__tree"
  },
  {
   "function_name" : "std::__1::__tree<unsigned int, std::__1::less<unsigned int>, std::__1::allocator<unsigned int>>::__tree",
   "linker_set_key" : "_ZNSt3__16__treeIjNS_4lessIjEENS_9allocatorIjEEEC1ERKS2_",
   "parameters" :
   [
    {
     "is_this_ptr" : true,
     "referenced_type" : "_ZTIPNSt3__16__treeIjNS_4lessIjEENS_9allocatorIjEEEE"
    },
    {
     "referenced_type" : "_ZTIRKNSt3__14lessIjEE"
    }
   ],
   "return_type" : "_ZTIv",
   "source_file" : "external/libcxx/include/__tree"
  },
  {
   "function_name" : "std::__1::__tree<unsigned int, std::__1::less<unsigned int>, std::__1::allocator<unsigned int>>::__tree",
   "linker_set_key" : "_ZNSt3__16__treeIjNS_4lessIjEENS_9allocatorIjEEEC1ERKS5_",
   "parameters" :
   [
    {
     "is_this_ptr" : true,
     "referenced_type" : "_ZTIPNSt3__16__treeIjNS_4lessIjEENS_9allocatorIjEEEE"
    },
    {
     "referenced_type" : "_ZTIRKNSt3__16__treeIjNS_4lessIjEENS_9allocatorIjEEEE"
    }
   ],
   "return_type" : "_ZTIv",
   "source_file" : "external/libcxx/include/__tree"
  },
  {
   "function_name" : "std::__1::__tree<unsigned int, std::__1::less<unsigned int>, std::__1::allocator<unsigned int>>::__tree",
   "linker_set_key" : "_ZNSt3__16__treeIjNS_4lessIjEENS_9allocatorIjEEEC2EOS5_",
   "parameters" :
   [
    {
     "is_this_ptr" : true,
     "referenced_type" : "_ZTIPNSt3__16__treeIjNS_4lessIjEENS_9allocatorIjEEEE"
    },
    {
     "referenced_type" : "_ZTIONSt3__16__treeIjNS_4lessIjEENS_9allocatorIjEEEE"
    }
   ],
   "return_type" : "_ZTIv",
   "source_file" : "external/libcxx/include/__tree"
  },
  {
   "function_name" : "std::__1::__tree<unsigned int, std::__1::less<unsigned int>, std::__1::allocator<unsigned int>>::__tree",
   "linker_set_key" : "_ZNSt3__16__treeIjNS_4lessIjEENS_9allocatorIjEEEC2ERKS2_",
   "parameters" :
   [
    {
     "is_this_ptr" : true,
     "referenced_type" : "_ZTIPNSt3__16__treeIjNS_4lessIjEENS_9allocatorIjEEEE"
    },
    {
     "referenced_type" : "_ZTIRKNSt3__14lessIjEE"
    }
   ],
   "return_type" : "_ZTIv",
   "source_file" : "external/libcxx/include/__tree"
  },
  {
   "function_name" : "std::__1::__tree<unsigned int, std::__1::less<unsigned int>, std::__1::allocator<unsigned int>>::__tree",
   "linker_set_key" : "_ZNSt3__16__treeIjNS_4lessIjEENS_9allocatorIjEEEC2ERKS5_",
   "parameters" :
   [
    {
     "is_this_ptr" : true,
     "referenced_type" : "_ZTIPNSt3__16__treeIjNS_4lessIjEENS_9allocatorIjEEEE"
    },
    {
     "referenced_type" : "_ZTIRKNSt3__16__treeIjNS_4lessIjEENS_9allocatorIjEEEE"
    }
   ],
   "return_type" : "_ZTIv",
   "source_file" : "external/libcxx/include/__tree"
  },
  {
   "function_name" : "std::__1::__tree<unsigned int, std::__1::less<unsigned int>, std::__1::allocator<unsigned int>>::~__tree",
   "linker_set_key" : "_ZNSt3__16__treeIjNS_4lessIjEENS_9allocatorIjEEED1Ev",
   "parameters" :
   [
    {
     "is_this_ptr" : true,
     "referenced_type" : "_ZTIPNSt3__16__treeIjNS_4lessIjEENS_9allocatorIjEEEE"
    }
   ],
   "return_type" : "_ZTIv",
   "source_file" : "external/libcxx/include/__tree"
  },
  {
   "function_name" : "std::__1::__tree<unsigned int, std::__1::less<unsigned int>, std::__1::allocator<unsigned int>>::~__tree",
   "linker_set_key" : "_ZNSt3__16__treeIjNS_4lessIjEENS_9allocatorIjEEED2Ev",
   "parameters" :
   [
    {
     "is_this_ptr" : true,
     "referenced_type" : "_ZTIPNSt3__16__treeIjNS_4lessIjEENS_9allocatorIjEEEE"
    }
   ],
   "return_type" : "_ZTIv",
   "source_file" : "external/libcxx/include/__tree"
  },
  {
   "function_name" : "std::__1::__tree<unsigned int, std::__1::less<unsigned int>, std::__1::allocator<unsigned int>>::operator=",
   "linker_set_key" : "_ZNSt3__16__treeIjNS_4lessIjEENS_9allocatorIjEEEaSEOS5_",
   "parameters" :
   [
    {
     "is_this_ptr" : true,
     "referenced_type" : "_ZTIPNSt3__16__treeIjNS_4lessIjEENS_9allocatorIjEEEE"
    },
    {
     "referenced_type" : "_ZTIONSt3__16__treeIjNS_4lessIjEENS_9allocatorIjEEEE"
    }
   ],
   "return_type" : "_ZTIRNSt3__16__treeIjNS_4lessIjEENS_9allocatorIjEEEE",
   "source_file" : "external/libcxx/include/__tree"
  },
  {
   "function_name" : "std::__1::__tree<unsigned int, std::__1::less<unsigned int>, std::__1::allocator<unsigned int>>::operator=",
   "linker_set_key" : "_ZNSt3__16__treeIjNS_4lessIjEENS_9allocatorIjEEEaSERKS5_",
   "parameters" :
   [
    {
     "is_this_ptr" : true,
     "referenced_type" : "_ZTIPNSt3__16__treeIjNS_4lessIjEENS_9allocatorIjEEEE"
    },
    {
     "referenced_type" : "_ZTIRKNSt3__16__treeIjNS_4lessIjEENS_9allocatorIjEEEE"
    }
   ],
   "return_type" : "_ZTIRNSt3__16__treeIjNS_4lessIjEENS_9allocatorIjEEEE",
   "source_file" : "external/libcxx/include/__tree"
  },
  {
   "access" : "private",
   "function_name" : "std::__1::vector<std::__1::set<unsigned int, std::__1::less<unsigned int>, std::__1::allocator<unsigned int>>, std::__1::allocator<std::__1::set<unsigned int, std::__1::less<unsigned int>, std::__1::allocator<unsigned int>>>>::__make_iter",
   "linker_set_key" : "_ZNSt3__16vectorINS_3setIjNS_4lessIjEENS_9allocatorIjEEEENS4_IS6_EEE11__make_iterEPS6_",
   "parameters" :
   [
    {
     "is_this_ptr" : true,
     "referenced_type" : "_ZTIPNSt3__16vectorINS_3setIjNS_4lessIjEENS_9allocatorIjEEEENS4_IS6_EEEE"
    },
    {
     "referenced_type" : "_ZTIPNSt3__13setIjNS_4lessIjEENS_9allocatorIjEEEE"
    }
   ],
   "return_type" : "_ZTINSt3__111__wrap_iterIPNS_3setIjNS_4lessIjEENS_9allocatorIjEEEEEE",
   "source_file" : "external/libcxx/include/vector"
  },
  {
   "access" : "private",
   "function_name" : "std::__1::vector<std::__1::set<unsigned int, std::__1::less<unsigned int>, std::__1::allocator<unsigned int>>, std::__1::allocator<std::__1::set<unsigned int, std::__1::less<unsigned int>, std::__1::allocator<unsigned int>>>>::__move_range",
   "linker_set_key" : "_ZNSt3__16vectorINS_3setIjNS_4lessIjEENS_9allocatorIjEEEENS4_IS6_EEE12__move_rangeEPS6_S9_S9_",
   "parameters" :
   [
    {
     "is_this_ptr" : true,
     "referenced_type" : "_ZTIPNSt3__16vectorINS_3setIjNS_4lessIjEENS_9allocatorIjEEEENS4_IS6_EEEE"
    },
    {
     "referenced_type" : "_ZTIPNSt3__13setIjNS_4lessIjEENS_9allocatorIjEEEE"
    },
    {
     "referenced_type" : "_ZTIPNSt3__13setIjNS_4lessIjEENS_9allocatorIjEEEE"
    },
    {
     "referenced_type" : "_ZTIPNSt3__13setIjNS_4lessIjEENS_9allocatorIjEEEE"
    }
   ],
   "return_type" : "_ZTIv",
   "source_file" : "external/libcxx/include/vector"
  },
  {
   "access" : "private",
   "function_name" : "std::__1::vector<std::__1::set<unsigned int, std::__1::less<unsigned int>, std::__1::allocator<unsigned int>>, std::__1::allocator<std::__1::set<unsigned int, std::__1::less<unsigned int>, std::__1::allocator<unsigned int>>>>::__construct_at_end",
   "linker_set_key" : "_ZNSt3__16vectorINS_3setIjNS_4lessIjEENS_9allocatorIjEEEENS4_IS6_EEE18__construct_at_endINS_11__wrap_iterIPKS6_EEEENS_9enable_ifIXsr21__is_forward_iteratorIT_EE5valueEvE4typeESF_SF_m",
   "parameters" :
   [
    {
     "is_this_ptr" : true,
     "referenced_type" : "_ZTIPNSt3__16vectorINS_3setIjNS_4lessIjEENS_9allocatorIjEEEENS4_IS6_EEEE"
    },
    {
     "referenced_type" : "_ZTINSt3__111__wrap_iterIPKNS_3setIjNS_4lessIjEENS_9allocatorIjEEEEEE"
    },
    {
     "referenced_type" : "_ZTINSt3__111__wrap_iterIPKNS_3setIjNS_4lessIjEENS_9allocatorIjEEEEEE"
    },
    {
     "referenced_type" : "_ZTIm"
    }
   ],
   "return_type" : "_ZTIv",
   "source_file" : "external/libcxx/include/vector",
   "template_args" :
   [
    "_ZTINSt3__111__wrap_iterIPKNS_3setIjNS_4lessIjEENS_9allocatorIjEEEEEE"
   ]
  },
  {
   "access" : "private",
   "function_name" : "std::__1::vector<std::__1::set<unsigned int, std::__1::less<unsigned int>, std::__1::allocator<unsigned int>>, std::__1::allocator<std::__1::set<unsigned int, std::__1::less<unsigned int>, std::__1::allocator<unsigned int>>>>::__push_back_slow_path",
   "linker_set_key" : "_ZNSt3__16vectorINS_3setIjNS_4lessIjEENS_9allocatorIjEEEENS4_IS6_EEE21__push_back_slow_pathIRKS6_EEvOT_",
   "parameters" :
   [
    {
     "is_this_ptr" : true,
     "referenced_type" : "_ZTIPNSt3__16vectorINS_3setIjNS_4lessIjEENS_9allocatorIjEEEENS4_IS6_EEEE"
    },
    {
     "referenced_type" : "_ZTIRKNSt3__13setIjNS_4lessIjEENS_9allocatorIjEEEE"
    }
   ],
   "return_type" : "_ZTIv",
   "source_file" : "external/libcxx/include/vector",
   "template_args" : [ "_ZTIRKNSt3__13setIjNS_4lessIjEENS_9allocatorIjEEEE" ]
  },
  {
   "function_name" : "std::__1::vector<std::__1::set<unsigned int, std::__1::less<unsigned int>, std::__1::allocator<unsigned int>>, std::__1::allocator<std::__1::set<unsigned int, std::__1::less<unsigned int>, std::__1::allocator<unsigned int>>>>::__RAII_IncreaseAnnotator::__done",
   "linker_set_key" : "_ZNSt3__16vectorINS_3setIjNS_4lessIjEENS_9allocatorIjEEEENS4_IS6_EEE24__RAII_IncreaseAnnotator6__doneEv",
   "parameters" :
   [
    {
     "is_this_ptr" : true,
     "referenced_type" : "_ZTIPNSt3__16vectorINS_3setIjNS_4lessIjEENS_9allocatorIjEEEENS4_IS6_EEE24__RAII_IncreaseAnnotatorE"
    }
   ],
   "return_type" : "_ZTIv",
   "source_file" : "external/libcxx/include/vector"
  },
  {
   "function_name" : "std::__1::vector<std::__1::set<unsigned int, std::__1::less<unsigned int>, std::__1::allocator<unsigned int>>, std::__1::allocator<std::__1::set<unsigned int, std::__1::less<unsigned int>, std::__1::allocator<unsigned int>>>>::__RAII_IncreaseAnnotator::__RAII_IncreaseAnnotator",
   "linker_set_key" : "_ZNSt3__16vectorINS_3setIjNS_4lessIjEENS_9allocatorIjEEEENS4_IS6_EEE24__RAII_IncreaseAnnotatorC1ERKS8_m",
   "parameters" :
   [
    {
     "is_this_ptr" : true,
     "referenced_type" : "_ZTIPNSt3__16vectorINS_3setIjNS_4lessIjEENS_9allocatorIjEEEENS4_IS6_EEE24__RAII_IncreaseAnnotatorE"
    },
    {
     "referenced_type" : "_ZTIRKNSt3__16vectorINS_3setIjNS_4lessIjEENS_9allocatorIjEEEENS4_IS6_EEEE"
    },
    {
     "default_arg" : true,
     "referenced_type" : "_ZTIm"
    }
   ],
   "return_type" : "_ZTIv",
   "source_file" : "external/libcxx/include/vector"
  },
  {
   "function_name" : "std::__1::vector<std::__1::set<unsigned int, std::__1::less<unsigned int>, std::__1::allocator<unsigned int>>, std::__1::allocator<std::__1::set<unsigned int, std::__1::less<unsigned int>, std::__1::allocator<unsigned int>>>>::__RAII_IncreaseAnnotator::__RAII_IncreaseAnnotator",
   "linker_set_key" : "_ZNSt3__16vectorINS_3setIjNS_4lessIjEENS_9allocatorIjEEEENS4_IS6_EEE24__RAII_IncreaseAnnotatorC2ERKS8_m",
   "parameters" :
   [
    {
     "is_this_ptr" : true,
     "referenced_type" : "_ZTIPNSt3__16vectorINS_3setIjNS_4lessIjEENS_9allocatorIjEEEENS4_IS6_EEE24__RAII_IncreaseAnnotatorE"
    },
    {
     "referenced_type" : "_ZTIRKNSt3__16vectorINS_3setIjNS_4lessIjEENS_9allocatorIjEEEENS4_IS6_EEEE"
    },
    {
     "default_arg" : true,
     "referenced_type" : "_ZTIm"
    }
   ],
   "return_type" : "_ZTIv",
   "source_file" : "external/libcxx/include/vector"
  },
  {
   "access" : "private",
   "function_name" : "std::__1::vector<std::__1::set<unsigned int, std::__1::less<unsigned int>, std::__1::allocator<unsigned int>>, std::__1::allocator<std::__1::set<unsigned int, std::__1::less<unsigned int>, std::__1::allocator<unsigned int>>>>::__invalidate_all_iterators",
   "linker_set_key" : "_ZNSt3__16vectorINS_3setIjNS_4lessIjEENS_9allocatorIjEEEENS4_IS6_EEE26__invalidate_all_iteratorsEv",
   "parameters" :
   [
    {
     "is_this_ptr" : true,
     "referenced_type" : "_ZTIPNSt3__16vectorINS_3setIjNS_4lessIjEENS_9allocatorIjEEEENS4_IS6_EEEE"
    }
   ],
   "return_type" : "_ZTIv",
   "source_file" : "external/libcxx/include/vector"
  },
  {
   "access" : "private",
   "function_name" : "std::__1::vector<std::__1::set<unsigned int, std::__1::less<unsigned int>, std::__1::allocator<unsigned int>>, std::__1::allocator<std::__1::set<unsigned int, std::__1::less<unsigned int>, std::__1::allocator<unsigned int>>>>::__swap_out_circular_buffer",
   "linker_set_key" : "_ZNSt3__16vectorINS_3setIjNS_4lessIjEENS_9allocatorIjEEEENS4_IS6_EEE26__swap_out_circular_bufferERNS_14__split_bufferIS6_RS7_EE",
   "parameters" :
   [
    {
     "is_this_ptr" : true,
     "referenced_type" : "_ZTIPNSt3__16vectorINS_3setIjNS_4lessIjEENS_9allocatorIjEEEENS4_IS6_EEEE"
    },
    {
     "referenced_type" : "_ZTIRNSt3__114__split_bufferINS_3setIjNS_4lessIjEENS_9allocatorIjEEEERNS4_IS6_EEEE"
    }
   ],
   "return_type" : "_ZTIv",
   "source_file" : "external/libcxx/include/vector"
  },
  {
   "access" : "private",
   "function_name" : "std::__1::vector<std::__1::set<unsigned int, std::__1::less<unsigned int>, std::__1::allocator<unsigned int>>, std::__1::allocator<std::__1::set<unsigned int, std::__1::less<unsigned int>, std::__1::allocator<unsigned int>>>>::__swap_out_circular_buffer",
   "linker_set_key" : "_ZNSt3__16vectorINS_3setIjNS_4lessIjEENS_9allocatorIjEEEENS4_IS6_EEE26__swap_out_circular_bufferERNS_14__split_bufferIS6_RS7_EEPS6_",
   "parameters" :
   [
    {
     "is_this_ptr" : true,
     "referenced_type" : "_ZTIPNSt3__16vectorINS_3setIjNS_4lessIjEENS_9allocatorIjEEEENS4_IS6_EEEE"
    },
    {
     "referenced_type" : "_ZTIRNSt3__114__split_bufferINS_3setIjNS_4lessIjEENS_9allocatorIjEEEERNS4_IS6_EEEE"
    },
    {
     "referenced_type" : "_ZTIPNSt3__13setIjNS_4lessIjEENS_9allocatorIjEEEE"
    }
   ],
   "return_type" : "_ZTIPNSt3__13setIjNS_4lessIjEENS_9allocatorIjEEEE",
   "source_file" : "external/libcxx/include/vector"
  },
  {
   "function_name" : "std::__1::vector<std::__1::set<unsigned int, std::__1::less<unsigned int>, std::__1::allocator<unsigned int>>, std::__1::allocator<std::__1::set<unsigned int, std::__1::less<unsigned int>, std::__1::allocator<unsigned int>>>>::end",
   "linker_set_key" : "_ZNSt3__16vectorINS_3setIjNS_4lessIjEENS_9allocatorIjEEEENS4_IS6_EEE3endEv",
   "parameters" :
   [
    {
     "is_this_ptr" : true,
     "referenced_type" : "_ZTIPNSt3__16vectorINS_3setIjNS_4lessIjEENS_9allocatorIjEEEENS4_IS6_EEEE"
    }
   ],
   "return_type" : "_ZTINSt3__111__wrap_iterIPNS_3setIjNS_4lessIjEENS_9allocatorIjEEEEEE",
   "source_file" : "external/libcxx/include/vector"
  },
  {
   "function_name" : "std::__1::vector<std::__1::set<unsigned int, std::__1::less<unsigned int>, std::__1::allocator<unsigned int>>, std::__1::allocator<std::__1::set<unsigned int, std::__1::less<unsigned int>, std::__1::allocator<unsigned int>>>>::begin",
   "linker_set_key" : "_ZNSt3__16vectorINS_3setIjNS_4lessIjEENS_9allocatorIjEEEENS4_IS6_EEE5beginEv",
   "parameters" :
   [
    {
     "is_this_ptr" : true,
     "referenced_type" : "_ZTIPNSt3__16vectorINS_3setIjNS_4lessIjEENS_9allocatorIjEEEENS4_IS6_EEEE"
    }
   ],
   "return_type" : "_ZTINSt3__111__wrap_iterIPNS_3setIjNS_4lessIjEENS_9allocatorIjEEEEEE",
   "source_file" : "external/libcxx/include/vector"
  },
  {
   "function_name" : "std::__1::vector<std::__1::set<unsigned int, std::__1::less<unsigned int>, std::__1::allocator<unsigned int>>, std::__1::allocator<std::__1::set<unsigned int, std::__1::less<unsigned int>, std::__1::allocator<unsigned int>>>>::insert",
   "linker_set_key" : "_ZNSt3__16vectorINS_3setIjNS_4lessIjEENS_9allocatorIjEEEENS4_IS6_EEE6insertINS_11__wrap_iterIPKS6_EEEENS_9enable_ifIXaasr21__is_forward_iteratorIT_EE5valuesr16is_constructibleIS6_NS_15iterator_traitsISF_E9referenceEEE5valueENSA_IPS6_EEE4typeESD_SF_SF_",
   "parameters" :
   [
    {
     "is_this_ptr" : true,
     "referenced_type" : "_ZTIPNSt3__16vectorINS_3setIjNS_4lessIjEENS_9allocatorIjEEEENS4_IS6_EEEE"
    },
    {
     "referenced_type" : "_ZTINSt3__111__wrap_iterIPKNS_3setIjNS_4lessIjEENS_9allocatorIjEEEEEE"
    },
    {
     "referenced_type" : "_ZTINSt3__111__wrap_iterIPKNS_3setIjNS_4lessIjEENS_9allocatorIjEEEEEE"
    },
    {
     "referenced_type" : "_ZTINSt3__111__wrap_iterIPKNS_3setIjNS_4lessIjEENS_9allocatorIjEEEEEE"
    }
   ],
   "return_type" : "_ZTINSt3__111__wrap_iterIPNS_3setIjNS_4lessIjEENS_9allocatorIjEEEEEE",
   "source_file" : "external/libcxx/include/vector",
   "template_args" :
   [
    "_ZTINSt3__111__wrap_iterIPKNS_3setIjNS_4lessIjEENS_9allocatorIjEEEEEE"
   ]
  },
  {
   "function_name" : "std::__1::vector<std::__1::set<unsigned int, std::__1::less<unsigned int>, std::__1::allocator<unsigned int>>, std::__1::allocator<std::__1::set<unsigned int, std::__1::less<unsigned int>, std::__1::allocator<unsigned int>>>>::push_back",
   "linker_set_key" : "_ZNSt3__16vectorINS_3setIjNS_4lessIjEENS_9allocatorIjEEEENS4_IS6_EEE9push_backERKS6_",
   "parameters" :
   [
    {
     "is_this_ptr" : true,
     "referenced_type" : "_ZTIPNSt3__16vectorINS_3setIjNS_4lessIjEENS_9allocatorIjEEEENS4_IS6_EEEE"
    },
    {
     "referenced_type" : "_ZTIRKNSt3__13setIjNS_4lessIjEENS_9allocatorIjEEEE"
    }
   ],
   "return_type" : "_ZTIv",
   "source_file" : "external/libcxx/include/vector"
  },
  {
   "function_name" : "std::__1::vector<std::__1::set<unsigned int, std::__1::less<unsigned int>, std::__1::allocator<unsigned int>>, std::__1::allocator<std::__1::set<unsigned int, std::__1::less<unsigned int>, std::__1::allocator<unsigned int>>>>::vector",
   "linker_set_key" : "_ZNSt3__16vectorINS_3setIjNS_4lessIjEENS_9allocatorIjEEEENS4_IS6_EEEC1Ev",
   "parameters" :
   [
    {
     "is_this_ptr" : true,
     "referenced_type" : "_ZTIPNSt3__16vectorINS_3setIjNS_4lessIjEENS_9allocatorIjEEEENS4_IS6_EEEE"
    }
   ],
   "return_type" : "_ZTIv",
   "source_file" : "external/libcxx/include/vector"
  },
  {
   "function_name" : "std::__1::vector<std::__1::set<unsigned int, std::__1::less<unsigned int>, std::__1::allocator<unsigned int>>, std::__1::allocator<std::__1::set<unsigned int, std::__1::less<unsigned int>, std::__1::allocator<unsigned int>>>>::vector",
   "linker_set_key" : "_ZNSt3__16vectorINS_3setIjNS_4lessIjEENS_9allocatorIjEEEENS4_IS6_EEEC2Ev",
   "parameters" :
   [
    {
     "is_this_ptr" : true,
     "referenced_type" : "_ZTIPNSt3__16vectorINS_3setIjNS_4lessIjEENS_9allocatorIjEEEENS4_IS6_EEEE"
    }
   ],
   "return_type" : "_ZTIv",
   "source_file" : "external/libcxx/include/vector"
  },
  {
   "function_name" : "std::__1::vector<std::__1::set<unsigned int, std::__1::less<unsigned int>, std::__1::allocator<unsigned int>>, std::__1::allocator<std::__1::set<unsigned int, std::__1::less<unsigned int>, std::__1::allocator<unsigned int>>>>::~vector",
   "linker_set_key" : "_ZNSt3__16vectorINS_3setIjNS_4lessIjEENS_9allocatorIjEEEENS4_IS6_EEED1Ev",
   "parameters" :
   [
    {
     "is_this_ptr" : true,
     "referenced_type" : "_ZTIPNSt3__16vectorINS_3setIjNS_4lessIjEENS_9allocatorIjEEEENS4_IS6_EEEE"
    }
   ],
   "return_type" : "_ZTIv",
   "source_file" : "external/libcxx/include/vector"
  },
  {
   "function_name" : "std::__1::vector<std::__1::set<unsigned int, std::__1::less<unsigned int>, std::__1::allocator<unsigned int>>, std::__1::allocator<std::__1::set<unsigned int, std::__1::less<unsigned int>, std::__1::allocator<unsigned int>>>>::~vector",
   "linker_set_key" : "_ZNSt3__16vectorINS_3setIjNS_4lessIjEENS_9allocatorIjEEEENS4_IS6_EEED2Ev",
   "parameters" :
   [
    {
     "is_this_ptr" : true,
     "referenced_type" : "_ZTIPNSt3__16vectorINS_3setIjNS_4lessIjEENS_9allocatorIjEEEENS4_IS6_EEEE"
    }
   ],
   "return_type" : "_ZTIv",
   "source_file" : "external/libcxx/include/vector"
  },
  {
   "function_name" : "std::__1::advance",
   "linker_set_key" : "_ZNSt3__17advanceINS_11__wrap_iterIPKNS_3setIjNS_4lessIjEENS_9allocatorIjEEEEEEEEvRT_NS_15iterator_traitsISB_E15difference_typeE",
   "parameters" :
   [
    {
     "referenced_type" : "_ZTIRNSt3__111__wrap_iterIPKNS_3setIjNS_4lessIjEENS_9allocatorIjEEEEEE"
    },
    {
     "referenced_type" : "_ZTIl"
    }
   ],
   "return_type" : "_ZTIv",
   "source_file" : "external/libcxx/include/iterator",
   "template_args" :
   [
    "_ZTINSt3__111__wrap_iterIPKNS_3setIjNS_4lessIjEENS_9allocatorIjEEEEEE"
   ]
  },
  {
   "function_name" : "std::__1::advance",
   "linker_set_key" : "_ZNSt3__17advanceINS_21__tree_const_iteratorIjPNS_11__tree_nodeIjPvEElEEEEvRT_NS_15iterator_traitsIS7_E15difference_typeE",
   "parameters" :
   [
    {
     "referenced_type" : "_ZTIRNSt3__121__tree_const_iteratorIjPNS_11__tree_nodeIjPvEElEE"
    },
    {
     "referenced_type" : "_ZTIl"
    }
   ],
   "return_type" : "_ZTIv",
   "source_file" : "external/libcxx/include/iterator",
   "template_args" : [ "_ZTINSt3__121__tree_const_iteratorIjPNS_11__tree_nodeIjPvEElEE" ]
  },
  {
   "function_name" : "std::__1::forward",
   "linker_set_key" : "_ZNSt3__17forwardIDnEEOT_RNS_16remove_referenceIS1_E4typeE",
   "parameters" :
   [
    {
     "referenced_type" : "_ZTIRDn"
    }
   ],
   "return_type" : "_ZTIODn",
   "source_file" : "external/libcxx/include/type_traits",
   "template_args" : [ "_ZTIDn" ]
  },
  {
   "function_name" : "std::__1::forward",
   "linker_set_key" : "_ZNSt3__17forwardINS_15__tree_iteratorINS_3setIjNS_4lessIjEENS_9allocatorIjEEEEPNS_11__tree_nodeIS7_PvEElEEEEOT_RNS_16remove_referenceISD_E4typeE",
   "parameters" :
   [
    {
     "referenced_type" : "_ZTIRNSt3__115__tree_iteratorINS_3setIjNS_4lessIjEENS_9allocatorIjEEEEPNS_11__tree_nodeIS6_PvEElEE"
    }
   ],
   "return_type" : "_ZTIONSt3__115__tree_iteratorINS_3setIjNS_4lessIjEENS_9allocatorIjEEEEPNS_11__tree_nodeIS6_PvEElEE",
   "source_file" : "external/libcxx/include/type_traits",
   "template_args" :
   [
    "_ZTINSt3__115__tree_iteratorINS_3setIjNS_4lessIjEENS_9allocatorIjEEEEPNS_11__tree_nodeIS6_PvEElEE"
   ]
  },
  {
   "function_name" : "std::__1::forward",
   "linker_set_key" : "_ZNSt3__17forwardINS_15__tree_iteratorIjPNS_11__tree_nodeIjPvEElEEEEOT_RNS_16remove_referenceIS7_E4typeE",
   "parameters" :
   [
    {
     "referenced_type" : "_ZTIRNSt3__115__tree_iteratorIjPNS_11__tree_nodeIjPvEElEE"
    }
   ],
   "return_type" : "_ZTIONSt3__115__tree_iteratorIjPNS_11__tree_nodeIjPvEElEE",
   "source_file" : "external/libcxx/include/type_traits",
   "template_args" : [ "_ZTINSt3__115__tree_iteratorIjPNS_11__tree_nodeIjPvEElEE" ]
  },
  {
   "function_name" : "std::__1::forward",
   "linker_set_key" : "_ZNSt3__17forwardINS_22__tree_node_destructorINS_9allocatorINS_11__tree_nodeINS_3setIjNS_4lessIjEENS2_IjEEEEPvEEEEEEEEOT_RNS_16remove_referenceISD_E4typeE",
   "parameters" :
   [
    {
     "referenced_type" : "_ZTIRNSt3__122__tree_node_destructorINS_9allocatorINS_11__tree_nodeINS_3setIjNS_4lessIjEENS1_IjEEEEPvEEEEEE"
    }
   ],
   "return_type" : "_ZTIONSt3__122__tree_node_destructorINS_9allocatorINS_11__tree_nodeINS_3setIjNS_4lessIjEENS1_IjEEEEPvEEEEEE",
   "source_file" : "external/libcxx/include/type_traits",
   "template_args" :
   [
    "_ZTINSt3__122__tree_node_destructorINS_9allocatorINS_11__tree_nodeINS_3setIjNS_4lessIjEENS1_IjEEEEPvEEEEEE"
   ]
  },
  {
   "function_name" : "std::__1::forward",
   "linker_set_key" : "_ZNSt3__17forwardINS_22__tree_node_destructorINS_9allocatorINS_11__tree_nodeIjPvEEEEEEEEOT_RNS_16remove_referenceIS8_E4typeE",
   "parameters" :
   [
    {
     "referenced_type" : "_ZTIRNSt3__122__tree_node_destructorINS_9allocatorINS_11__tree_nodeIjPvEEEEEE"
    }
   ],
   "return_type" : "_ZTIONSt3__122__tree_node_destructorINS_9allocatorINS_11__tree_nodeIjPvEEEEEE",
   "source_file" : "external/libcxx/include/type_traits",
   "template_args" :
   [
    "_ZTINSt3__122__tree_node_destructorINS_9allocatorINS_11__tree_nodeIjPvEEEEEE"
   ]
  },
  {
   "function_name" : "std::__1::forward",
   "linker_set_key" : "_ZNSt3__17forwardINS_3setIjNS_4lessIjEENS_9allocatorIjEEEEEEOT_RNS_16remove_referenceIS7_E4typeE",
   "parameters" :
   [
    {
     "referenced_type" : "_ZTIRNSt3__13setIjNS_4lessIjEENS_9allocatorIjEEEE"
    }
   ],
   "return_type" : "_ZTIONSt3__13setIjNS_4lessIjEENS_9allocatorIjEEEE",
   "source_file" : "external/libcxx/include/type_traits",
   "template_args" : [ "_ZTINSt3__13setIjNS_4lessIjEENS_9allocatorIjEEEE" ]
  },
  {
   "function_name" : "std::__1::forward",
   "linker_set_key" : "_ZNSt3__17forwardINS_9allocatorINS_11__tree_nodeIjPvEEEEEEOT_RNS_16remove_referenceIS6_E4typeE",
   "parameters" :
   [
    {
     "referenced_type" : "_ZTIRNSt3__19allocatorINS_11__tree_nodeIjPvEEEE"
    }
   ],
   "return_type" : "_ZTIONSt3__19allocatorINS_11__tree_nodeIjPvEEEE",
   "source_file" : "external/libcxx/include/type_traits",
   "template_args" : [ "_ZTINSt3__19allocatorINS_11__tree_nodeIjPvEEEE" ]
  },
  {
   "function_name" : "std::__1::forward",
   "linker_set_key" : "_ZNSt3__17forwardIPNS_11__tree_nodeINS_3setIjNS_4lessIjEENS_9allocatorIjEEEEPvEEEEOT_RNS_16remove_referenceISB_E4typeE",
   "parameters" :
   [
    {
     "referenced_type" : "_ZTIRPNSt3__111__tree_nodeINS_3setIjNS_4lessIjEENS_9allocatorIjEEEEPvEE"
    }
   ],
   "return_type" : "_ZTIOPNSt3__111__tree_nodeINS_3setIjNS_4lessIjEENS_9allocatorIjEEEEPvEE",
   "source_file" : "external/libcxx/include/type_traits",
   "template_args" :
   [
    "_ZTIPNSt3__111__tree_nodeINS_3setIjNS_4lessIjEENS_9allocatorIjEEEEPvEE"
   ]
  },
  {
   "function_name" : "std::__1::forward",
   "linker_set_key" : "_ZNSt3__17forwardIPNS_11__tree_nodeIjPvEEEEOT_RNS_16remove_referenceIS5_E4typeE",
   "parameters" :
   [
    {
     "referenced_type" : "_ZTIRPNSt3__111__tree_nodeIjPvEE"
    }
   ],
   "return_type" : "_ZTIOPNSt3__111__tree_nodeIjPvEE",
   "source_file" : "external/libcxx/include/type_traits",
   "template_args" : [ "_ZTIPNSt3__111__tree_nodeIjPvEE" ]
  },
  {
   "function_name" : "std::__1::forward",
   "linker_set_key" : "_ZNSt3__17forwardIRKNS_3setIjNS_4lessIjEENS_9allocatorIjEEEEEEOT_RNS_16remove_referenceIS9_E4typeE",
   "parameters" :
   [
    {
     "referenced_type" : "_ZTIRKNSt3__13setIjNS_4lessIjEENS_9allocatorIjEEEE"
    }
   ],
   "return_type" : "_ZTIRKNSt3__13setIjNS_4lessIjEENS_9allocatorIjEEEE",
   "source_file" : "external/libcxx/include/type_traits",
   "template_args" : [ "_ZTIRKNSt3__13setIjNS_4lessIjEENS_9allocatorIjEEEE" ]
  },
  {
   "function_name" : "std::__1::forward",
   "linker_set_key" : "_ZNSt3__17forwardIRKNS_4lessIjEEEEOT_RNS_16remove_referenceIS5_E4typeE",
   "parameters" :
   [
    {
     "referenced_type" : "_ZTIRKNSt3__14lessIjEE"
    }
   ],
   "return_type" : "_ZTIRKNSt3__14lessIjEE",
   "source_file" : "external/libcxx/include/type_traits",
   "template_args" : [ "_ZTIRKNSt3__14lessIjEE" ]
  },
  {
   "function_name" : "std::__1::forward",
   "linker_set_key" : "_ZNSt3__17forwardIRKjEEOT_RNS_16remove_referenceIS3_E4typeE",
   "parameters" :
   [
    {
     "referenced_type" : "_ZTIRKj"
    }
   ],
   "return_type" : "_ZTIRKj",
   "source_file" : "external/libcxx/include/type_traits",
   "template_args" : [ "_ZTIRKj" ]
  },
  {
   "function_name" : "std::__1::forward",
   "linker_set_key" : "_ZNSt3__17forwardIRNS_9allocatorINS_3setIjNS_4lessIjEENS1_IjEEEEEEEEOT_RNS_16remove_referenceIS9_E4typeE",
   "parameters" :
   [
    {
     "referenced_type" : "_ZTIRNSt3__19allocatorINS_3setIjNS_4lessIjEENS0_IjEEEEEE"
    }
   ],
   "return_type" : "_ZTIRNSt3__19allocatorINS_3setIjNS_4lessIjEENS0_IjEEEEEE",
   "source_file" : "external/libcxx/include/type_traits",
   "template_args" : [ "_ZTIRNSt3__19allocatorINS_3setIjNS_4lessIjEENS0_IjEEEEEE" ]
  },
  {
   "function_name" : "std::__1::forward",
   "linker_set_key" : "_ZNSt3__17forwardIRPNS_11__tree_nodeINS_3setIjNS_4lessIjEENS_9allocatorIjEEEEPvEEEEOT_RNS_16remove_referenceISC_E4typeE",
   "parameters" :
   [
    {
     "referenced_type" : "_ZTIRPNSt3__111__tree_nodeINS_3setIjNS_4lessIjEENS_9allocatorIjEEEEPvEE"
    }
   ],
   "return_type" : "_ZTIRPNSt3__111__tree_nodeINS_3setIjNS_4lessIjEENS_9allocatorIjEEEEPvEE",
   "source_file" : "external/libcxx/include/type_traits",
   "template_args" :
   [
    "_ZTIRPNSt3__111__tree_nodeINS_3setIjNS_4lessIjEENS_9allocatorIjEEEEPvEE"
   ]
  },
  {
   "function_name" : "std::__1::forward",
   "linker_set_key" : "_ZNSt3__17forwardIRPNS_11__tree_nodeIjPvEEEEOT_RNS_16remove_referenceIS6_E4typeE",
   "parameters" :
   [
    {
     "referenced_type" : "_ZTIRPNSt3__111__tree_nodeIjPvEE"
    }
   ],
   "return_type" : "_ZTIRPNSt3__111__tree_nodeIjPvEE",
   "source_file" : "external/libcxx/include/type_traits",
   "template_args" : [ "_ZTIRPNSt3__111__tree_nodeIjPvEE" ]
  },
  {
   "function_name" : "std::__1::forward",
   "linker_set_key" : "_ZNSt3__17forwardIRbEEOT_RNS_16remove_referenceIS2_E4typeE",
   "parameters" :
   [
    {
     "referenced_type" : "_ZTIRb"
    }
   ],
   "return_type" : "_ZTIRb",
   "source_file" : "external/libcxx/include/type_traits",
   "template_args" : [ "_ZTIRb" ]
  },
  {
   "function_name" : "std::__1::forward",
   "linker_set_key" : "_ZNSt3__17forwardIbEEOT_RNS_16remove_referenceIS1_E4typeE",
   "parameters" :
   [
    {
     "referenced_type" : "_ZTIRb"
    }
   ],
   "return_type" : "_ZTIOb",
   "source_file" : "external/libcxx/include/type_traits",
   "template_args" : [ "_ZTIb" ]
  },
  {
   "function_name" : "std::__1::forward",
   "linker_set_key" : "_ZNSt3__17forwardIiEEOT_RNS_16remove_referenceIS1_E4typeE",
   "parameters" :
   [
    {
     "referenced_type" : "_ZTIRi"
    }
   ],
   "return_type" : "_ZTIOi",
   "source_file" : "external/libcxx/include/type_traits",
   "template_args" : [ "_ZTIi" ]
  },
  {
   "function_name" : "std::__1::forward",
   "linker_set_key" : "_ZNSt3__17forwardImEEOT_RNS_16remove_referenceIS1_E4typeE",
   "parameters" :
   [
    {
     "referenced_type" : "_ZTIRm"
    }
   ],
   "return_type" : "_ZTIOm",
   "source_file" : "external/libcxx/include/type_traits",
   "template_args" : [ "_ZTIm" ]
  },
  {
   "function_name" : "std::__1::distance",
   "linker_set_key" : "_ZNSt3__18distanceINS_11__wrap_iterIPKNS_3setIjNS_4lessIjEENS_9allocatorIjEEEEEEEENS_15iterator_traitsIT_E15difference_typeESC_SC_",
   "parameters" :
   [
    {
     "referenced_type" : "_ZTINSt3__111__wrap_iterIPKNS_3setIjNS_4lessIjEENS_9allocatorIjEEEEEE"
    },
    {
     "referenced_type" : "_ZTINSt3__111__wrap_iterIPKNS_3setIjNS_4lessIjEENS_9allocatorIjEEEEEE"
    }
   ],
   "return_type" : "_ZTIl",
   "source_file" : "external/libcxx/include/iterator",
   "template_args" :
   [
    "_ZTINSt3__111__wrap_iterIPKNS_3setIjNS_4lessIjEENS_9allocatorIjEEEEEE"
   ]
  },
  {
   "function_name" : "std::__1::__advance",
   "linker_set_key" : "_ZNSt3__19__advanceINS_11__wrap_iterIPKNS_3setIjNS_4lessIjEENS_9allocatorIjEEEEEEEEvRT_NS_15iterator_traitsISB_E15difference_typeENS_26random_access_iterator_tagE",
   "parameters" :
   [
    {
     "referenced_type" : "_ZTIRNSt3__111__wrap_iterIPKNS_3setIjNS_4lessIjEENS_9allocatorIjEEEEEE"
    },
    {
     "referenced_type" : "_ZTIl"
    },
    {
     "referenced_type" : "_ZTINSt3__126random_access_iterator_tagE"
    }
   ],
   "return_type" : "_ZTIv",
   "source_file" : "external/libcxx/include/iterator",
   "template_args" :
   [
    "_ZTINSt3__111__wrap_iterIPKNS_3setIjNS_4lessIjEENS_9allocatorIjEEEEEE"
   ]
  },
  {
   "function_name" : "std::__1::__advance",
   "linker_set_key" : "_ZNSt3__19__advanceINS_21__tree_const_iteratorIjPNS_11__tree_nodeIjPvEElEEEEvRT_NS_15iterator_traitsIS7_E15difference_typeENS_26bidirectional_iterator_tagE",
   "parameters" :
   [
    {
     "referenced_type" : "_ZTIRNSt3__121__tree_const_iteratorIjPNS_11__tree_nodeIjPvEElEE"
    },
    {
     "referenced_type" : "_ZTIl"
    },
    {
     "referenced_type" : "_ZTINSt3__126bidirectional_iterator_tagE"
    }
   ],
   "return_type" : "_ZTIv",
   "source_file" : "external/libcxx/include/iterator",
   "template_args" : [ "_ZTINSt3__121__tree_const_iteratorIjPNS_11__tree_nodeIjPvEElEE" ]
  },
  {
   "function_name" : "std::__1::addressof",
   "linker_set_key" : "_ZNSt3__19addressofIKNS_3setIjNS_4lessIjEENS_9allocatorIjEEEEEEPT_RS8_",
   "parameters" :
   [
    {
     "referenced_type" : "_ZTIRKNSt3__13setIjNS_4lessIjEENS_9allocatorIjEEEE"
    }
   ],
   "return_type" : "_ZTIPKNSt3__13setIjNS_4lessIjEENS_9allocatorIjEEEE",
   "source_file" : "external/libcxx/include/type_traits",
   "template_args" : [ "_ZTIKNSt3__13setIjNS_4lessIjEENS_9allocatorIjEEEE" ]
  },
  {
   "function_name" : "std::__1::addressof",
   "linker_set_key" : "_ZNSt3__19addressofINS_15__tree_end_nodeIPNS_16__tree_node_baseIPvEEEEEEPT_RS7_",
   "parameters" :
   [
    {
     "referenced_type" : "_ZTIRNSt3__115__tree_end_nodeIPNS_16__tree_node_baseIPvEEEE"
    }
   ],
   "return_type" : "_ZTIPNSt3__115__tree_end_nodeIPNS_16__tree_node_baseIPvEEEE",
   "source_file" : "external/libcxx/include/type_traits",
   "template_args" : [ "_ZTINSt3__115__tree_end_nodeIPNS_16__tree_node_baseIPvEEEE" ]
  },
  {
   "function_name" : "std::__1::addressof",
   "linker_set_key" : "_ZNSt3__19addressofINS_3setIjNS_4lessIjEENS_9allocatorIjEEEEEEPT_RS7_",
   "parameters" :
   [
    {
     "referenced_type" : "_ZTIRNSt3__13setIjNS_4lessIjEENS_9allocatorIjEEEE"
    }
   ],
   "return_type" : "_ZTIPNSt3__13setIjNS_4lessIjEENS_9allocatorIjEEEE",
   "source_file" : "external/libcxx/include/type_traits",
   "template_args" : [ "_ZTINSt3__13setIjNS_4lessIjEENS_9allocatorIjEEEE" ]
  },
  {
   "function_name" : "std::__1::addressof",
   "linker_set_key" : "_ZNSt3__19addressofIPNS_16__tree_node_baseIPvEEEEPT_RS5_",
   "parameters" :
   [
    {
     "referenced_type" : "_ZTIRPNSt3__116__tree_node_baseIPvEE"
    }
   ],
   "return_type" : "_ZTIPPNSt3__116__tree_node_baseIPvEE",
   "source_file" : "external/libcxx/include/type_traits",
   "template_args" : [ "_ZTIPNSt3__116__tree_node_baseIPvEE" ]
  },
  {
   "function_name" : "std::__1::addressof",
   "linker_set_key" : "_ZNSt3__19addressofIjEEPT_RS1_",
   "parameters" :
   [
    {
     "referenced_type" : "_ZTIRj"
    }
   ],
   "return_type" : "_ZTIPj",
   "source_file" : "external/libcxx/include/type_traits",
   "template_args" : [ "_ZTIj" ]
  },
  {
   "function_name" : "std::__1::allocator<std::__1::__tree_node<std::__1::set<unsigned int, std::__1::less<unsigned int>, std::__1::allocator<unsigned int>>, void *>>::deallocate",
   "linker_set_key" : "_ZNSt3__19allocatorINS_11__tree_nodeINS_3setIjNS_4lessIjEENS0_IjEEEEPvEEE10deallocateEPS8_m",
   "parameters" :
   [
    {
     "is_this_ptr" : true,
     "referenced_type" : "_ZTIPNSt3__19allocatorINS_11__tree_nodeINS_3setIjNS_4lessIjEENS0_IjEEEEPvEEEE"
    },
    {
     "referenced_type" : "_ZTIPNSt3__111__tree_nodeINS_3setIjNS_4lessIjEENS_9allocatorIjEEEEPvEE"
    },
    {
     "referenced_type" : "_ZTIm"
    }
   ],
   "return_type" : "_ZTIv",
   "source_file" : "external/libcxx/include/memory"
  },
  {
   "function_name" : "std::__1::allocator<std::__1::__tree_node<std::__1::set<unsigned int, std::__1::less<unsigned int>, std::__1::allocator<unsigned int>>, void *>>::allocate",
   "linker_set_key" : "_ZNSt3__19allocatorINS_11__tree_nodeINS_3setIjNS_4lessIjEENS0_IjEEEEPvEEE8allocateEmPKv",
   "parameters" :
   [
    {
     "is_this_ptr" : true,
     "referenced_type" : "_ZTIPNSt3__19allocatorINS_11__tree_nodeINS_3setIjNS_4lessIjEENS0_IjEEEEPvEEEE"
    },
    {
     "referenced_type" : "_ZTIm"
    },
    {
     "default_arg" : true,
     "referenced_type" : "_ZTIPKv"
    }
   ],
   "return_type" : "_ZTIPNSt3__111__tree_nodeINS_3setIjNS_4lessIjEENS_9allocatorIjEEEEPvEE",
   "source_file" : "external/libcxx/include/memory"
  },
  {
   "function_name" : "std::__1::allocator<std::__1::__tree_node<std::__1::set<unsigned int, std::__1::less<unsigned int>, std::__1::allocator<unsigned int>>, void *>>::construct",
   "linker_set_key" : "_ZNSt3__19allocatorINS_11__tree_nodeINS_3setIjNS_4lessIjEENS0_IjEEEEPvEEE9constructIS6_JRKS6_EEEvPT_DpOT0_",
   "parameters" :
   [
    {
     "is_this_ptr" : true,
     "referenced_type" : "_ZTIPNSt3__19allocatorINS_11__tree_nodeINS_3setIjNS_4lessIjEENS0_IjEEEEPvEEEE"
    },
    {
     "referenced_type" : "_ZTIPNSt3__13setIjNS_4lessIjEENS_9allocatorIjEEEE"
    },
    {
     "referenced_type" : "_ZTIRKNSt3__13setIjNS_4lessIjEENS_9allocatorIjEEEE"
    }
   ],
   "return_type" : "_ZTIv",
   "source_file" : "external/libcxx/include/memory",
   "template_args" : [ "_ZTINSt3__13setIjNS_4lessIjEENS_9allocatorIjEEEE" ]
  },
  {
   "function_name" : "std::__1::allocator<std::__1::__tree_node<unsigned int, void *>>::deallocate",
   "linker_set_key" : "_ZNSt3__19allocatorINS_11__tree_nodeIjPvEEE10deallocateEPS3_m",
   "parameters" :
   [
    {
     "is_this_ptr" : true,
     "referenced_type" : "_ZTIPNSt3__19allocatorINS_11__tree_nodeIjPvEEEE"
    },
    {
     "referenced_type" : "_ZTIPNSt3__111__tree_nodeIjPvEE"
    },
    {
     "referenced_type" : "_ZTIm"
    }
   ],
   "return_type" : "_ZTIv",
   "source_file" : "external/libcxx/include/memory"
  },
  {
   "function_name" : "std::__1::allocator<std::__1::__tree_node<unsigned int, void *>>::allocate",
   "linker_set_key" : "_ZNSt3__19allocatorINS_11__tree_nodeIjPvEEE8allocateEmPKv",
   "parameters" :
   [
    {
     "is_this_ptr" : true,
     "referenced_type" : "_ZTIPNSt3__19allocatorINS_11__tree_nodeIjPvEEEE"
    },
    {
     "referenced_type" : "_ZTIm"
    },
    {
     "default_arg" : true,
     "referenced_type" : "_ZTIPKv"
    }
   ],
   "return_type" : "_ZTIPNSt3__111__tree_nodeIjPvEE",
   "source_file" : "external/libcxx/include/memory"
  },
  {
   "function_name" : "std::__1::allocator<std::__1::__tree_node<unsigned int, void *>>::construct",
   "linker_set_key" : "_ZNSt3__19allocatorINS_11__tree_nodeIjPvEEE9constructIjJRKjEEEvPT_DpOT0_",
   "parameters" :
   [
    {
     "is_this_ptr" : true,
     "referenced_type" : "_ZTIPNSt3__19allocatorINS_11__tree_nodeIjPvEEEE"
    },
    {
     "referenced_type" : "_ZTIPj"
    },
    {
     "referenced_type" : "_ZTIRKj"
    }
   ],
   "return_type" : "_ZTIv",
   "source_file" : "external/libcxx/include/memory",
   "template_args" : [ "_ZTIj" ]
  },
  {
   "function_name" : "std::__1::allocator<std::__1::__tree_node<unsigned int, void *>>::allocator",
   "linker_set_key" : "_ZNSt3__19allocatorINS_11__tree_nodeIjPvEEEC1Ev",
   "parameters" :
   [
    {
     "is_this_ptr" : true,
     "referenced_type" : "_ZTIPNSt3__19allocatorINS_11__tree_nodeIjPvEEEE"
    }
   ],
   "return_type" : "_ZTIv",
   "source_file" : "external/libcxx/include/memory"
  },
  {
   "function_name" : "std::__1::allocator<std::__1::__tree_node<unsigned int, void *>>::allocator",
   "linker_set_key" : "_ZNSt3__19allocatorINS_11__tree_nodeIjPvEEEC2Ev",
   "parameters" :
   [
    {
     "is_this_ptr" : true,
     "referenced_type" : "_ZTIPNSt3__19allocatorINS_11__tree_nodeIjPvEEEE"
    }
   ],
   "return_type" : "_ZTIv",
   "source_file" : "external/libcxx/include/memory"
  },
  {
   "function_name" : "std::__1::allocator<std::__1::set<unsigned int, std::__1::less<unsigned int>, std::__1::allocator<unsigned int>>>::deallocate",
   "linker_set_key" : "_ZNSt3__19allocatorINS_3setIjNS_4lessIjEENS0_IjEEEEE10deallocateEPS5_m",
   "parameters" :
   [
    {
     "is_this_ptr" : true,
     "referenced_type" : "_ZTIPNSt3__19allocatorINS_3setIjNS_4lessIjEENS0_IjEEEEEE"
    },
    {
     "referenced_type" : "_ZTIPNSt3__13setIjNS_4lessIjEENS_9allocatorIjEEEE"
    },
    {
     "referenced_type" : "_ZTIm"
    }
   ],
   "return_type" : "_ZTIv",
   "source_file" : "external/libcxx/include/memory"
  },
  {
   "function_name" : "std::__1::allocator<std::__1::set<unsigned int, std::__1::less<unsigned int>, std::__1::allocator<unsigned int>>>::destroy",
   "linker_set_key" : "_ZNSt3__19allocatorINS_3setIjNS_4lessIjEENS0_IjEEEEE7destroyEPS5_",
   "parameters" :
   [
    {
     "is_this_ptr" : true,
     "referenced_type" : "_ZTIPNSt3__19allocatorINS_3setIjNS_4lessIjEENS0_IjEEEEEE"
    },
    {
     "referenced_type" : "_ZTIPNSt3__13setIjNS_4lessIjEENS_9allocatorIjEEEE"
    }
   ],
   "return_type" : "_ZTIv",
   "source_file" : "external/libcxx/include/memory"
  },
  {
   "function_name" : "std::__1::allocator<std::__1::set<unsigned int, std::__1::less<unsigned int>, std::__1::allocator<unsigned int>>>::allocate",
   "linker_set_key" : "_ZNSt3__19allocatorINS_3setIjNS_4lessIjEENS0_IjEEEEE8allocateEmPKv",
   "parameters" :
   [
    {
     "is_this_ptr" : true,
     "referenced_type" : "_ZTIPNSt3__19allocatorINS_3setIjNS_4lessIjEENS0_IjEEEEEE"
    },
    {
     "referenced_type" : "_ZTIm"
    },
    {
     "default_arg" : true,
     "referenced_type" : "_ZTIPKv"
    }
   ],
   "return_type" : "_ZTIPNSt3__13setIjNS_4lessIjEENS_9allocatorIjEEEE",
   "source_file" : "external/libcxx/include/memory"
  },
  {
   "function_name" : "std::__1::allocator<std::__1::set<unsigned int, std::__1::less<unsigned int>, std::__1::allocator<unsigned int>>>::construct",
   "linker_set_key" : "_ZNSt3__19allocatorINS_3setIjNS_4lessIjEENS0_IjEEEEE9constructIS5_JRKS5_EEEvPT_DpOT0_",
   "parameters" :
   [
    {
     "is_this_ptr" : true,
     "referenced_type" : "_ZTIPNSt3__19allocatorINS_3setIjNS_4lessIjEENS0_IjEEEEEE"
    },
    {
     "referenced_type" : "_ZTIPNSt3__13setIjNS_4lessIjEENS_9allocatorIjEEEE"
    },
    {
     "referenced_type" : "_ZTIRKNSt3__13setIjNS_4lessIjEENS_9allocatorIjEEEE"
    }
   ],
   "return_type" : "_ZTIv",
   "source_file" : "external/libcxx/include/memory",
   "template_args" : [ "_ZTINSt3__13setIjNS_4lessIjEENS_9allocatorIjEEEE" ]
  },
  {
   "function_name" : "std::__1::allocator<std::__1::set<unsigned int, std::__1::less<unsigned int>, std::__1::allocator<unsigned int>>>::construct",
   "linker_set_key" : "_ZNSt3__19allocatorINS_3setIjNS_4lessIjEENS0_IjEEEEE9constructIS5_JS5_EEEvPT_DpOT0_",
   "parameters" :
   [
    {
     "is_this_ptr" : true,
     "referenced_type" : "_ZTIPNSt3__19allocatorINS_3setIjNS_4lessIjEENS0_IjEEEEEE"
    },
    {
     "referenced_type" : "_ZTIPNSt3__13setIjNS_4lessIjEENS_9allocatorIjEEEE"
    },
    {
     "referenced_type" : "_ZTIONSt3__13setIjNS_4lessIjEENS_9allocatorIjEEEE"
    }
   ],
   "return_type" : "_ZTIv",
   "source_file" : "external/libcxx/include/memory",
   "template_args" : [ "_ZTINSt3__13setIjNS_4lessIjEENS_9allocatorIjEEEE" ]
  },
  {
   "function_name" : "std::__1::allocator<std::__1::set<unsigned int, std::__1::less<unsigned int>, std::__1::allocator<unsigned int>>>::allocator",
   "linker_set_key" : "_ZNSt3__19allocatorINS_3setIjNS_4lessIjEENS0_IjEEEEEC1Ev",
   "parameters" :
   [
    {
     "is_this_ptr" : true,
     "referenced_type" : "_ZTIPNSt3__19allocatorINS_3setIjNS_4lessIjEENS0_IjEEEEEE"
    }
   ],
   "return_type" : "_ZTIv",
   "source_file" : "external/libcxx/include/memory"
  },
  {
   "function_name" : "std::__1::allocator<std::__1::set<unsigned int, std::__1::less<unsigned int>, std::__1::allocator<unsigned int>>>::allocator",
   "linker_set_key" : "_ZNSt3__19allocatorINS_3setIjNS_4lessIjEENS0_IjEEEEEC2Ev",
   "parameters" :
   [
    {
     "is_this_ptr" : true,
     "referenced_type" : "_ZTIPNSt3__19allocatorINS_3setIjNS_4lessIjEENS0_IjEEEEEE"
    }
   ],
   "return_type" : "_ZTIv",
   "source_file" : "external/libcxx/include/memory"
  },
  {
   "function_name" : "std::__1::tuple_cat",
   "linker_set_key" : "_ZNSt3__19tuple_catEv",
   "return_type" : "_ZTINSt3__15tupleIJEEE",
   "source_file" : "external/libcxx/include/tuple"
  },
  {
   "function_name" : "std::__1::operator==",
   "linker_set_key" : "_ZNSt3__1eqERKNS_14__bit_iteratorIT_XT0_EXT1_EEES5_",
   "parameters" :
   [
    {
     "referenced_type" : "_ZTIRKNSt3__114__bit_iteratorIT_XT0_EXT1_EEE"
    },
    {
     "referenced_type" : "_ZTIRKNSt3__114__bit_iteratorIT_XT0_EXT1_EEE"
    }
   ],
   "return_type" : "_ZTIb",
   "source_file" : "external/libcxx/include/__bit_reference"
  },
  {
   "function_name" : "std::__1::operator==",
   "linker_set_key" : "_ZNSt3__1eqERKNS_15__tree_iteratorIT_T0_T1_EES7_",
   "parameters" :
   [
    {
     "referenced_type" : "_ZTIRKNSt3__115__tree_iteratorIT_T0_T1_EE"
    },
    {
     "referenced_type" : "_ZTIRKNSt3__115__tree_iteratorIT_T0_T1_EE"
    }
   ],
   "return_type" : "_ZTIb",
   "source_file" : "external/libcxx/include/__tree"
  },
  {
   "function_name" : "std::__1::operator==",
   "linker_set_key" : "_ZNSt3__1eqERKNS_21__tree_const_iteratorIT_T0_T1_EES7_",
   "parameters" :
   [
    {
     "referenced_type" : "_ZTIRKNSt3__121__tree_const_iteratorIT_T0_T1_EE"
    },
    {
     "referenced_type" : "_ZTIRKNSt3__121__tree_const_iteratorIT_T0_T1_EE"
    }
   ],
   "return_type" : "_ZTIb",
   "source_file" : "external/libcxx/include/__tree"
  },
  {
   "function_name" : "std::__1::operator==",
   "linker_set_key" : "_ZNSt3__1eqERKNS_21__tree_const_iteratorIjPNS_11__tree_nodeIjPvEElEES7_",
   "parameters" :
   [
    {
     "referenced_type" : "_ZTIRKNSt3__121__tree_const_iteratorIjPNS_11__tree_nodeIjPvEElEE"
    },
    {
     "referenced_type" : "_ZTIRKNSt3__121__tree_const_iteratorIjPNS_11__tree_nodeIjPvEElEE"
    }
   ],
   "return_type" : "_ZTIb",
   "source_file" : "external/libcxx/include/__tree"
  },
  {
   "function_name" : "std::__1::operator==",
   "linker_set_key" : "_ZNSt3__1eqERKNS_24uniform_int_distribution10param_typeES3_",
   "parameters" :
   [
    {
     "referenced_type" : "_ZTIRKNSt3__124uniform_int_distribution10param_typeE"
    },
    {
     "referenced_type" : "_ZTIRKNSt3__124uniform_int_distribution10param_typeE"
    }
   ],
   "return_type" : "_ZTIb",
   "source_file" : "external/libcxx/include/algorithm"
  },
  {
   "function_name" : "std::__1::operator==",
   "linker_set_key" : "_ZNSt3__1eqERKNS_24uniform_int_distributionIT_EES5_",
   "parameters" :
   [
    {
     "referenced_type" : "_ZTIRKNSt3__124uniform_int_distributionIT_EE"
    },
    {
     "referenced_type" : "_ZTIRKNSt3__124uniform_int_distributionIT_EE"
    }
   ],
   "return_type" : "_ZTIb",
   "source_file" : "external/libcxx/include/algorithm"
  },
  {
   "function_name" : "std::__1::operator==",
   "linker_set_key" : "_ZNSt3__1eqIPKNS_3setIjNS_4lessIjEENS_9allocatorIjEEEES8_EEbRKNS_11__wrap_iterIT_EERKNS9_IT0_EE",
   "parameters" :
   [
    {
     "referenced_type" : "_ZTIRKNSt3__111__wrap_iterIPKNS_3setIjNS_4lessIjEENS_9allocatorIjEEEEEE"
    },
    {
     "referenced_type" : "_ZTIRKNSt3__111__wrap_iterIPKNS_3setIjNS_4lessIjEENS_9allocatorIjEEEEEE"
    }
   ],
   "return_type" : "_ZTIb",
   "source_file" : "external/libcxx/include/iterator",
   "template_args" :
   [
    "_ZTIPKNSt3__13setIjNS_4lessIjEENS_9allocatorIjEEEE",
    "_ZTIPKNSt3__13setIjNS_4lessIjEENS_9allocatorIjEEEE"
   ]
  },
  {
   "function_name" : "std::__1::operator>=",
   "linker_set_key" : "_ZNSt3__1geERKNS_14__bit_iteratorIT_XT0_EXT1_EEES5_",
   "parameters" :
   [
    {
     "referenced_type" : "_ZTIRKNSt3__114__bit_iteratorIT_XT0_EXT1_EEE"
    },
    {
     "referenced_type" : "_ZTIRKNSt3__114__bit_iteratorIT_XT0_EXT1_EEE"
    }
   ],
   "return_type" : "_ZTIb",
   "source_file" : "external/libcxx/include/__bit_reference"
  },
  {
   "function_name" : "std::__1::operator>",
   "linker_set_key" : "_ZNSt3__1gtERKNS_14__bit_iteratorIT_XT0_EXT1_EEES5_",
   "parameters" :
   [
    {
     "referenced_type" : "_ZTIRKNSt3__114__bit_iteratorIT_XT0_EXT1_EEE"
    },
    {
     "referenced_type" : "_ZTIRKNSt3__114__bit_iteratorIT_XT0_EXT1_EEE"
    }
   ],
   "return_type" : "_ZTIb",
   "source_file" : "external/libcxx/include/__bit_reference"
  },
  {
   "function_name" : "std::__1::operator<=",
   "linker_set_key" : "_ZNSt3__1leERKNS_14__bit_iteratorIT_XT0_EXT1_EEES5_",
   "parameters" :
   [
    {
     "referenced_type" : "_ZTIRKNSt3__114__bit_iteratorIT_XT0_EXT1_EEE"
    },
    {
     "referenced_type" : "_ZTIRKNSt3__114__bit_iteratorIT_XT0_EXT1_EEE"
    }
   ],
   "return_type" : "_ZTIb",
   "source_file" : "external/libcxx/include/__bit_reference"
  },
  {
   "function_name" : "std::__1::operator<",
   "linker_set_key" : "_ZNSt3__1ltERKNS_14__bit_iteratorIT_XT0_EXT1_EEES5_",
   "parameters" :
   [
    {
     "referenced_type" : "_ZTIRKNSt3__114__bit_iteratorIT_XT0_EXT1_EEE"
    },
    {
     "referenced_type" : "_ZTIRKNSt3__114__bit_iteratorIT_XT0_EXT1_EEE"
    }
   ],
   "return_type" : "_ZTIb",
   "source_file" : "external/libcxx/include/__bit_reference"
  },
  {
   "function_name" : "std::__1::operator<",
   "linker_set_key" : "_ZNSt3__1ltIjNS_4lessIjEENS_9allocatorIjEEEEbRKNS_3setIT_T0_T1_EESB_",
   "parameters" :
   [
    {
     "referenced_type" : "_ZTIRKNSt3__13setIjNS_4lessIjEENS_9allocatorIjEEEE"
    },
    {
     "referenced_type" : "_ZTIRKNSt3__13setIjNS_4lessIjEENS_9allocatorIjEEEE"
    }
   ],
   "return_type" : "_ZTIb",
   "source_file" : "external/libcxx/include/set",
   "template_args" : [ "_ZTIj", "_ZTINSt3__14lessIjEE", "_ZTINSt3__19allocatorIjEE" ]
  },
  {
   "function_name" : "std::__1::operator-",
   "linker_set_key" : "_ZNSt3__1miERKNS_14__bit_iteratorIT_XT0_EXT1_EEES5_",
   "parameters" :
   [
    {
     "referenced_type" : "_ZTIRKNSt3__114__bit_iteratorIT_XT0_EXT1_EEE"
    },
    {
     "referenced_type" : "_ZTIRKNSt3__114__bit_iteratorIT_XT0_EXT1_EEE"
    }
   ],
   "return_type" : "_ZTINT_15difference_typeE",
   "source_file" : "external/libcxx/include/__bit_reference"
  },
  {
   "function_name" : "std::__1::operator-",
   "linker_set_key" : "_ZNSt3__1miIPKNS_3setIjNS_4lessIjEENS_9allocatorIjEEEEPS6_EEDTmicldtfp_4baseEcldtfp0_4baseEERKNS_11__wrap_iterIT_EERKNSB_IT0_EE",
   "parameters" :
   [
    {
     "referenced_type" : "_ZTIRKNSt3__111__wrap_iterIPKNS_3setIjNS_4lessIjEENS_9allocatorIjEEEEEE"
    },
    {
     "referenced_type" : "_ZTIRKNSt3__111__wrap_iterIPNS_3setIjNS_4lessIjEENS_9allocatorIjEEEEEE"
    }
   ],
   "return_type" : "_ZTIl",
   "source_file" : "external/libcxx/include/iterator",
   "template_args" :
   [
    "_ZTIPKNSt3__13setIjNS_4lessIjEENS_9allocatorIjEEEE",
    "_ZTIPNSt3__13setIjNS_4lessIjEENS_9allocatorIjEEEE"
   ]
  },
  {
   "function_name" : "std::__1::operator-",
   "linker_set_key" : "_ZNSt3__1miIPKNS_3setIjNS_4lessIjEENS_9allocatorIjEEEES8_EEDTmicldtfp_4baseEcldtfp0_4baseEERKNS_11__wrap_iterIT_EERKNSA_IT0_EE",
   "parameters" :
   [
    {
     "referenced_type" : "_ZTIRKNSt3__111__wrap_iterIPKNS_3setIjNS_4lessIjEENS_9allocatorIjEEEEEE"
    },
    {
     "referenced_type" : "_ZTIRKNSt3__111__wrap_iterIPKNS_3setIjNS_4lessIjEENS_9allocatorIjEEEEEE"
    }
   ],
   "return_type" : "_ZTIl",
   "source_file" : "external/libcxx/include/iterator",
   "template_args" :
   [
    "_ZTIPKNSt3__13setIjNS_4lessIjEENS_9allocatorIjEEEE",
    "_ZTIPKNSt3__13setIjNS_4lessIjEENS_9allocatorIjEEEE"
   ]
  },
  {
   "function_name" : "std::__1::operator!=",
   "linker_set_key" : "_ZNSt3__1neERKNS_14__bit_iteratorIT_XT0_EXT1_EEES5_",
   "parameters" :
   [
    {
     "referenced_type" : "_ZTIRKNSt3__114__bit_iteratorIT_XT0_EXT1_EEE"
    },
    {
     "referenced_type" : "_ZTIRKNSt3__114__bit_iteratorIT_XT0_EXT1_EEE"
    }
   ],
   "return_type" : "_ZTIb",
   "source_file" : "external/libcxx/include/__bit_reference"
  },
  {
   "function_name" : "std::__1::operator!=",
   "linker_set_key" : "_ZNSt3__1neERKNS_15__tree_iteratorIT_T0_T1_EES7_",
   "parameters" :
   [
    {
     "referenced_type" : "_ZTIRKNSt3__115__tree_iteratorIT_T0_T1_EE"
    },
    {
     "referenced_type" : "_ZTIRKNSt3__115__tree_iteratorIT_T0_T1_EE"
    }
   ],
   "return_type" : "_ZTIb",
   "source_file" : "external/libcxx/include/__tree"
  },
  {
   "function_name" : "std::__1::operator!=",
   "linker_set_key" : "_ZNSt3__1neERKNS_21__tree_const_iteratorIT_T0_T1_EES7_",
   "parameters" :
   [
    {
     "referenced_type" : "_ZTIRKNSt3__121__tree_const_iteratorIT_T0_T1_EE"
    },
    {
     "referenced_type" : "_ZTIRKNSt3__121__tree_const_iteratorIT_T0_T1_EE"
    }
   ],
   "return_type" : "_ZTIb",
   "source_file" : "external/libcxx/include/__tree"
  },
  {
   "function_name" : "std::__1::operator!=",
   "linker_set_key" : "_ZNSt3__1neERKNS_21__tree_const_iteratorIjPNS_11__tree_nodeIjPvEElEES7_",
   "parameters" :
   [
    {
     "referenced_type" : "_ZTIRKNSt3__121__tree_const_iteratorIjPNS_11__tree_nodeIjPvEElEE"
    },
    {
     "referenced_type" : "_ZTIRKNSt3__121__tree_const_iteratorIjPNS_11__tree_nodeIjPvEElEE"
    }
   ],
   "return_type" : "_ZTIb",
   "source_file" : "external/libcxx/include/__tree"
  },
  {
   "function_name" : "std::__1::operator!=",
   "linker_set_key" : "_ZNSt3__1neERKNS_24uniform_int_distribution10param_typeES3_",
   "parameters" :
   [
    {
     "referenced_type" : "_ZTIRKNSt3__124uniform_int_distribution10param_typeE"
    },
    {
     "referenced_type" : "_ZTIRKNSt3__124uniform_int_distribution10param_typeE"
    }
   ],
   "return_type" : "_ZTIb",
   "source_file" : "external/libcxx/include/algorithm"
  },
  {
   "function_name" : "std::__1::operator!=",
   "linker_set_key" : "_ZNSt3__1neERKNS_24uniform_int_distributionIT_EES5_",
   "parameters" :
   [
    {
     "referenced_type" : "_ZTIRKNSt3__124uniform_int_distributionIT_EE"
    },
    {
     "referenced_type" : "_ZTIRKNSt3__124uniform_int_distributionIT_EE"
    }
   ],
   "return_type" : "_ZTIb",
   "source_file" : "external/libcxx/include/algorithm"
  },
  {
   "function_name" : "std::__1::operator!=",
   "linker_set_key" : "_ZNSt3__1neIPKNS_3setIjNS_4lessIjEENS_9allocatorIjEEEEEEbRKNS_11__wrap_iterIT_EESD_",
   "parameters" :
   [
    {
     "referenced_type" : "_ZTIRKNSt3__111__wrap_iterIPKNS_3setIjNS_4lessIjEENS_9allocatorIjEEEEEE"
    },
    {
     "referenced_type" : "_ZTIRKNSt3__111__wrap_iterIPKNS_3setIjNS_4lessIjEENS_9allocatorIjEEEEEE"
    }
   ],
   "return_type" : "_ZTIb",
   "source_file" : "external/libcxx/include/iterator",
   "template_args" : [ "_ZTIPKNSt3__13setIjNS_4lessIjEENS_9allocatorIjEEEE" ]
  },
  {
   "function_name" : "std::__1::operator+",
   "linker_set_key" : "_ZNSt3__1plENT_15difference_typeERKNS_14__bit_iteratorIS0_XT0_EXT1_EEE",
   "parameters" :
   [
    {
     "referenced_type" : "_ZTINT_15difference_typeE"
    },
    {
     "referenced_type" : "_ZTIRKNSt3__114__bit_iteratorIT_XT0_EXT1_EEE"
    }
   ],
   "return_type" : "_ZTINSt3__114__bit_iteratorIT_XT0_EXT1_EEE",
   "source_file" : "external/libcxx/include/__bit_reference"
  },
  {
   "function_name" : "std::exception::exception",
   "linker_set_key" : "_ZNSt9exceptionC1Ev",
   "parameters" :
   [
    {
     "is_this_ptr" : true,
     "referenced_type" : "_ZTIPSt9exception"
    }
   ],
   "return_type" : "_ZTIv",
   "source_file" : "external/libcxx/include/exception"
  },
  {
   "function_name" : "std::exception::exception",
   "linker_set_key" : "_ZNSt9exceptionC2Ev",
   "parameters" :
   [
    {
     "is_this_ptr" : true,
     "referenced_type" : "_ZTIPSt9exception"
    }
   ],
   "return_type" : "_ZTIv",
   "source_file" : "external/libcxx/include/exception"
  },
  {
   "access" : "protected",
   "function_name" : "std::type_info::type_info",
   "linker_set_key" : "_ZNSt9type_infoC1EPKc",
   "parameters" :
   [
    {
     "is_this_ptr" : true,
     "referenced_type" : "_ZTIPSt9type_info"
    },
    {
     "referenced_type" : "_ZTIPKc"
    }
   ],
   "return_type" : "_ZTIv",
   "source_file" : "external/libcxx/include/typeinfo"
  },
  {
   "access" : "protected",
   "function_name" : "std::type_info::type_info",
   "linker_set_key" : "_ZNSt9type_infoC2EPKc",
   "parameters" :
   [
    {
     "is_this_ptr" : true,
     "referenced_type" : "_ZTIPSt9type_info"
    },
    {
     "referenced_type" : "_ZTIPKc"
    }
   ],
   "return_type" : "_ZTIv",
   "source_file" : "external/libcxx/include/typeinfo"
  },
  {
   "function_name" : "std::__1::atomic_flag::test_and_set",
   "linker_set_key" : "_ZNVSt3__111atomic_flag12test_and_setENS_12memory_orderE",
   "parameters" :
   [
    {
     "is_this_ptr" : true,
     "referenced_type" : "_ZTIPVNSt3__111atomic_flagE"
    },
    {
     "default_arg" : true,
     "referenced_type" : "_ZTINSt3__112memory_orderE"
    }
   ],
   "return_type" : "_ZTIb",
   "source_file" : "external/libcxx/include/atomic"
  },
  {
   "function_name" : "std::__1::atomic_flag::clear",
   "linker_set_key" : "_ZNVSt3__111atomic_flag5clearENS_12memory_orderE",
   "parameters" :
   [
    {
     "is_this_ptr" : true,
     "referenced_type" : "_ZTIPVNSt3__111atomic_flagE"
    },
    {
     "default_arg" : true,
     "referenced_type" : "_ZTINSt3__112memory_orderE"
    }
   ],
   "return_type" : "_ZTIv",
   "source_file" : "external/libcxx/include/atomic"
  },
  {
   "function_name" : "std::operator==",
   "linker_set_key" : "_ZSteqRKSt13exception_ptrS1_",
   "parameters" :
   [
    {
     "referenced_type" : "_ZTIRKSt13exception_ptr"
    },
    {
     "referenced_type" : "_ZTIRKSt13exception_ptr"
    }
   ],
   "return_type" : "_ZTIb",
   "source_file" : "external/libcxx/include/exception"
  },
  {
   "function_name" : "std::operator!=",
   "linker_set_key" : "_ZStneRKSt13exception_ptrS1_",
   "parameters" :
   [
    {
     "referenced_type" : "_ZTIRKSt13exception_ptr"
    },
    {
     "referenced_type" : "_ZTIRKSt13exception_ptr"
    }
   ],
   "return_type" : "_ZTIb",
   "source_file" : "external/libcxx/include/exception"
  },
  {
   "function_name" : "operator delete[]",
   "linker_set_key" : "_ZdaPvS_",
   "parameters" :
   [
    {
     "referenced_type" : "_ZTIPv"
    },
    {
     "referenced_type" : "_ZTIPv"
    }
   ],
   "return_type" : "_ZTIv",
   "source_file" : "external/libcxx/include/new"
  },
  {
   "function_name" : "operator delete",
   "linker_set_key" : "_ZdlPvS_",
   "parameters" :
   [
    {
     "referenced_type" : "_ZTIPv"
    },
    {
     "referenced_type" : "_ZTIPv"
    }
   ],
   "return_type" : "_ZTIv",
   "source_file" : "external/libcxx/include/new"
  },
  {
   "function_name" : "operator new[]",
   "linker_set_key" : "_ZnamPv",
   "parameters" :
   [
    {
     "referenced_type" : "_ZTIm"
    },
    {
     "referenced_type" : "_ZTIPv"
    }
   ],
   "return_type" : "_ZTIPv",
   "source_file" : "external/libcxx/include/new"
  },
  {
   "function_name" : "operator new",
   "linker_set_key" : "_ZnwmPv",
   "parameters" :
   [
    {
     "referenced_type" : "_ZTIm"
    },
    {
     "referenced_type" : "_ZTIPv"
    }
   ],
   "return_type" : "_ZTIPv",
   "source_file" : "external/libcxx/include/new"
  }
 ],
 "global_vars" :
 [
  {
   "linker_set_key" : "_ZNSt3__110__log2_imp5valueE",
   "name" : "std::__1::__log2_imp::value",
   "referenced_type" : "_ZTIKm",
   "source_file" : "external/libcxx/include/algorithm"
  },
  {
   "linker_set_key" : "_ZNSt3__110__log2_impILy0EXT_EE5valueE",
   "name" : "std::__1::__log2_imp<0, _Rp>::value",
   "referenced_type" : "_ZTIKm",
   "source_file" : "external/libcxx/include/algorithm"
  },
  {
   "linker_set_key" : "_ZNSt3__110__log2_impIXT_ELm0EE5valueE",
   "name" : "std::__1::__log2_imp<_Xp, 0>::value",
   "referenced_type" : "_ZTIKm",
   "source_file" : "external/libcxx/include/algorithm"
  },
  {
   "linker_set_key" : "_ZNSt3__111__bit_array15__bits_per_wordE",
   "name" : "std::__1::__bit_array::__bits_per_word",
   "referenced_type" : "_ZTIKj",
   "source_file" : "external/libcxx/include/__bit_reference"
  },
  {
   "linker_set_key" : "_ZNSt3__111__bit_array3_NpE",
   "name" : "std::__1::__bit_array::_Np",
   "referenced_type" : "_ZTIKj",
   "source_file" : "external/libcxx/include/__bit_reference"
  },
  {
   "linker_set_key" : "_ZNSt3__112_GLOBAL__N_16ignoreE",
   "name" : "std::__1::(anonymous namespace)::ignore",
   "referenced_type" : "_ZTIKNSt3__110__ignore_tIhEE",
   "source_file" : "external/libcxx/include/tuple"
  },
  {
   "linker_set_key" : "_ZNSt3__112__align_type5valueE",
   "name" : "std::__1::__align_type::value",
   "referenced_type" : "_ZTIKm",
   "source_file" : "external/libcxx/include/type_traits"
  },
  {
   "linker_set_key" : "_ZNSt3__112__align_typeINS_15__struct_doubleEE5valueE",
   "name" : "std::__1::__align_type<std::__1::__struct_double>::value",
   "referenced_type" : "_ZTIKm",
   "source_file" : "external/libcxx/include/type_traits"
  },
  {
   "linker_set_key" : "_ZNSt3__112__align_typeINS_16__struct_double4EE5valueE",
   "name" : "std::__1::__align_type<std::__1::__struct_double4>::value",
   "referenced_type" : "_ZTIKm",
   "source_file" : "external/libcxx/include/type_traits"
  },
  {
   "linker_set_key" : "_ZNSt3__112__align_typeIPiE5valueE",
   "name" : "std::__1::__align_type<int *>::value",
   "referenced_type" : "_ZTIKm",
   "source_file" : "external/libcxx/include/type_traits"
  },
  {
   "linker_set_key" : "_ZNSt3__112__align_typeIdE5valueE",
   "name" : "std::__1::__align_type<double>::value",
   "referenced_type" : "_ZTIKm",
   "source_file" : "external/libcxx/include/type_traits"
  },
  {
   "linker_set_key" : "_ZNSt3__112__align_typeIeE5valueE",
   "name" : "std::__1::__align_type<long double>::value",
   "referenced_type" : "_ZTIKm",
   "source_file" : "external/libcxx/include/type_traits"
  },
  {
   "linker_set_key" : "_ZNSt3__112__align_typeIhE5valueE",
   "name" : "std::__1::__align_type<unsigned char>::value",
   "referenced_type" : "_ZTIKm",
   "source_file" : "external/libcxx/include/type_traits"
  },
  {
   "linker_set_key" : "_ZNSt3__112__align_typeIjE5valueE",
   "name" : "std::__1::__align_type<unsigned int>::value",
   "referenced_type" : "_ZTIKm",
   "source_file" : "external/libcxx/include/type_traits"
  },
  {
   "linker_set_key" : "_ZNSt3__112__align_typeImE5valueE",
   "name" : "std::__1::__align_type<unsigned long>::value",
   "referenced_type" : "_ZTIKm",
   "source_file" : "external/libcxx/include/type_traits"
  },
  {
   "linker_set_key" : "_ZNSt3__112__align_typeItE5valueE",
   "name" : "std::__1::__align_type<unsigned short>::value",
   "referenced_type" : "_ZTIKm",
   "source_file" : "external/libcxx/include/type_traits"
  },
  {
   "linker_set_key" : "_ZNSt3__112__align_typeIyE5valueE",
   "name" : "std::__1::__align_type<unsigned long long>::value",
   "referenced_type" : "_ZTIKm",
   "source_file" : "external/libcxx/include/type_traits"
  },
  {
   "linker_set_key" : "_ZNSt3__112__has_rebind5valueE",
   "name" : "std::__1::__has_rebind::value",
   "referenced_type" : "_ZTIKb",
   "source_file" : "external/libcxx/include/memory"
  },
  {
   "linker_set_key" : "_ZNSt3__112__has_rebindINS_9allocatorINS_11__tree_nodeINS_3setIjNS_4lessIjEENS1_IjEEEEPvEEEENS_16__tree_node_baseIS8_EEE5valueE",
   "name" : "std::__1::__has_rebind<std::__1::allocator<std::__1::__tree_node<std::__1::set<unsigned int, std::__1::less<unsigned int>, std::__1::allocator<unsigned int>>, void *>>, std::__1::__tree_node_base<void *>>::value",
   "referenced_type" : "_ZTIKb",
   "source_file" : "external/libcxx/include/memory"
  },
  {
   "linker_set_key" : "_ZNSt3__112__has_rebindINS_9allocatorINS_11__tree_nodeIjPvEEEENS_16__tree_node_baseIS3_EEE5valueE",
   "name" : "std::__1::__has_rebind<std::__1::allocator<std::__1::__tree_node<unsigned int, void *>>, std::__1::__tree_node_base<void *>>::value",
   "referenced_type" : "_ZTIKb",
   "source_file" : "external/libcxx/include/memory"
  },
  {
   "linker_set_key" : "_ZNSt3__112__has_rebindINS_9allocatorINS_3setIjNS_4lessIjEENS1_IjEEEEEENS_11__tree_nodeIS6_PvEEE5valueE",
   "name" : "std::__1::__has_rebind<std::__1::allocator<std::__1::set<unsigned int, std::__1::less<unsigned int>, std::__1::allocator<unsigned int>>>, std::__1::__tree_node<std::__1::set<unsigned int, std::__1::less<unsigned int>, std::__1::allocator<unsigned int>>, void *>>::value",
   "referenced_type" : "_ZTIKb",
   "source_file" : "external/libcxx/include/memory"
  },
  {
   "linker_set_key" : "_ZNSt3__112__has_rebindINS_9allocatorIjEENS_11__tree_nodeIjPvEEE5valueE",
   "name" : "std::__1::__has_rebind<std::__1::allocator<unsigned int>, std::__1::__tree_node<unsigned int, void *>>::value",
   "referenced_type" : "_ZTIKb",
   "source_file" : "external/libcxx/include/memory"
  },
  {
   "linker_set_key" : "_ZNSt3__112__rs_default4_MaxE",
   "name" : "std::__1::__rs_default::_Max",
   "referenced_type" : "_ZTIKm",
   "source_file" : "external/libcxx/include/algorithm"
  },
  {
   "linker_set_key" : "_ZNSt3__112__rs_default4_MinE",
   "name" : "std::__1::__rs_default::_Min",
   "referenced_type" : "_ZTIKm",
   "source_file" : "external/libcxx/include/algorithm"
  },
  {
   "access" : "private",
   "linker_set_key" : "_ZNSt3__112__rs_default4__c_E",
   "name" : "std::__1::__rs_default::__c_",
   "referenced_type" : "_ZTIj",
   "source_file" : "external/libcxx/include/algorithm"
  },
  {
   "linker_set_key" : "_ZNSt3__112__static_maxIXT_EJEE5valueE",
   "name" : "std::__1::__static_max<_I0>::value",
   "referenced_type" : "_ZTIKm",
   "source_file" : "external/libcxx/include/type_traits"
  },
  {
   "linker_set_key" : "_ZNSt3__112__static_maxIXT_EJXT0_EXspT1_EEE5valueE",
   "name" : "std::__1::__static_max<_I0, _I1, _In...>::value",
   "referenced_type" : "_ZTIKm",
   "source_file" : "external/libcxx/include/type_traits"
  },
  {
   "linker_set_key" : "_ZNSt3__112placeholdersL2_1E",
   "name" : "std::__1::placeholders::_1",
   "referenced_type" : "_ZTIKNSt3__112placeholders4__phILi1EEE",
   "source_file" : "external/libcxx/include/functional"
  },
  {
   "linker_set_key" : "_ZNSt3__112placeholdersL2_2E",
   "name" : "std::__1::placeholders::_2",
   "referenced_type" : "_ZTIKNSt3__112placeholders4__phILi2EEE",
   "source_file" : "external/libcxx/include/functional"
  },
  {
   "linker_set_key" : "_ZNSt3__112placeholdersL2_3E",
   "name" : "std::__1::placeholders::_3",
   "referenced_type" : "_ZTIKNSt3__112placeholders4__phILi3EEE",
   "source_file" : "external/libcxx/include/functional"
  },
  {
   "linker_set_key" : "_ZNSt3__112placeholdersL2_4E",
   "name" : "std::__1::placeholders::_4",
   "referenced_type" : "_ZTIKNSt3__112placeholders4__phILi4EEE",
   "source_file" : "external/libcxx/include/functional"
  },
  {
   "linker_set_key" : "_ZNSt3__112placeholdersL2_5E",
   "name" : "std::__1::placeholders::_5",
   "referenced_type" : "_ZTIKNSt3__112placeholders4__phILi5EEE",
   "source_file" : "external/libcxx/include/functional"
  },
  {
   "linker_set_key" : "_ZNSt3__112placeholdersL2_6E",
   "name" : "std::__1::placeholders::_6",
   "referenced_type" : "_ZTIKNSt3__112placeholders4__phILi6EEE",
   "source_file" : "external/libcxx/include/functional"
  },
  {
   "linker_set_key" : "_ZNSt3__112placeholdersL2_7E",
   "name" : "std::__1::placeholders::_7",
   "referenced_type" : "_ZTIKNSt3__112placeholders4__phILi7EEE",
   "source_file" : "external/libcxx/include/functional"
  },
  {
   "linker_set_key" : "_ZNSt3__112placeholdersL2_8E",
   "name" : "std::__1::placeholders::_8",
   "referenced_type" : "_ZTIKNSt3__112placeholders4__phILi8EEE",
   "source_file" : "external/libcxx/include/functional"
  },
  {
   "linker_set_key" : "_ZNSt3__112placeholdersL2_9E",
   "name" : "std::__1::placeholders::_9",
   "referenced_type" : "_ZTIKNSt3__112placeholders4__phILi9EEE",
   "source_file" : "external/libcxx/include/functional"
  },
  {
   "linker_set_key" : "_ZNSt3__112placeholdersL3_10E",
   "name" : "std::__1::placeholders::_10",
   "referenced_type" : "_ZTIKNSt3__112placeholders4__phILi10EEE",
   "source_file" : "external/libcxx/include/functional"
  },
  {
   "linker_set_key" : "_ZNSt3__113__invokable_r5valueE",
   "name" : "std::__1::__invokable_r::value",
   "referenced_type" : "_ZTIKb",
   "source_file" : "external/libcxx/include/type_traits"
  },
  {
   "linker_set_key" : "_ZNSt3__113__invokable_rIvRKNS_4lessINS_3setIjNS1_IjEENS_9allocatorIjEEEEEEJRKS6_SB_EE5valueE",
   "name" : "std::__1::__invokable_r<void, const std::__1::less<std::__1::set<unsigned int, std::__1::less<unsigned int>, std::__1::allocator<unsigned int>>> &, const std::__1::set<unsigned int, std::__1::less<unsigned int>, std::__1::allocator<unsigned int>> &, const std::__1::set<unsigned int, std::__1::less<unsigned int>, std::__1::allocator<unsigned int>> &>::value",
   "referenced_type" : "_ZTIKb",
   "source_file" : "external/libcxx/include/type_traits"
  },
  {
   "linker_set_key" : "_ZNSt3__113__invokable_rIvRKNS_4lessIjEEJRKjS6_EE5valueE",
   "name" : "std::__1::__invokable_r<void, const std::__1::less<unsigned int> &, const unsigned int &, const unsigned int &>::value",
   "referenced_type" : "_ZTIKb",
   "source_file" : "external/libcxx/include/type_traits"
  },
  {
   "linker_set_key" : "_ZNSt3__113__promote_imp5valueE",
   "name" : "std::__1::__promote_imp::value",
   "referenced_type" : "_ZTIKb",
   "source_file" : "external/libcxx/include/type_traits"
  },
  {
   "linker_set_key" : "_ZNSt3__113__promote_impIT_T0_T1_Lb1EE5valueE",
   "name" : "std::__1::__promote_imp<type-parameter-0-0, type-parameter-0-1, type-parameter-0-2, true>::value",
   "referenced_type" : "_ZTIKb",
   "source_file" : "external/libcxx/include/type_traits"
  },
  {
   "linker_set_key" : "_ZNSt3__113__promote_impIT_T0_vLb1EE5valueE",
   "name" : "std::__1::__promote_imp<type-parameter-0-0, type-parameter-0-1, void, true>::value",
   "referenced_type" : "_ZTIKb",
   "source_file" : "external/libcxx/include/type_traits"
  },
  {
   "linker_set_key" : "_ZNSt3__113__promote_impIT_vvLb1EE5valueE",
   "name" : "std::__1::__promote_imp<type-parameter-0-0, void, void, true>::value",
   "referenced_type" : "_ZTIKb",
   "source_file" : "external/libcxx/include/type_traits"
  },
  {
   "linker_set_key" : "_ZNSt3__113aligned_union15alignment_valueE",
   "name" : "std::__1::aligned_union::alignment_value",
   "referenced_type" : "_ZTIKm",
   "source_file" : "external/libcxx/include/type_traits"
  },
  {
   "linker_set_key" : "_ZNSt3__113aligned_union5__lenE",
   "name" : "std::__1::aligned_union::__len",
   "referenced_type" : "_ZTIKm",
   "source_file" : "external/libcxx/include/type_traits"
  },
  {
   "access" : "private",
   "linker_set_key" : "_ZNSt3__114__bit_iterator15__bits_per_wordE",
   "name" : "std::__1::__bit_iterator::__bits_per_word",
   "referenced_type" : "_ZTIKj",
   "source_file" : "external/libcxx/include/__bit_reference"
  },
  {
   "linker_set_key" : "_ZNSt3__114__numeric_type5valueE",
   "name" : "std::__1::__numeric_type::value",
   "referenced_type" : "_ZTIKb",
   "source_file" : "external/libcxx/include/type_traits"
  },
  {
   "linker_set_key" : "_ZNSt3__114__numeric_typeIvE5valueE",
   "name" : "std::__1::__numeric_type<void>::value",
   "referenced_type" : "_ZTIKb",
   "source_file" : "external/libcxx/include/type_traits"
  },
  {
   "access" : "private",
   "linker_set_key" : "_ZNSt3__114__select_align5__maxE",
   "name" : "std::__1::__select_align::__max",
   "referenced_type" : "_ZTIKm",
   "source_file" : "external/libcxx/include/type_traits"
  },
  {
   "access" : "private",
   "linker_set_key" : "_ZNSt3__114__select_align5__minE",
   "name" : "std::__1::__select_align::__min",
   "referenced_type" : "_ZTIKm",
   "source_file" : "external/libcxx/include/type_traits"
  },
  {
   "linker_set_key" : "_ZNSt3__114__select_align5valueE",
   "name" : "std::__1::__select_align::value",
   "referenced_type" : "_ZTIKm",
   "source_file" : "external/libcxx/include/type_traits"
  },
  {
   "access" : "private",
   "linker_set_key" : "_ZNSt3__114__select_alignILm24ELm16ELm16EE5__maxE",
   "name" : "std::__1::__select_align<24, 16, 16>::__max",
   "referenced_type" : "_ZTIKm",
   "source_file" : "external/libcxx/include/type_traits"
  },
  {
   "access" : "private",
   "linker_set_key" : "_ZNSt3__114__select_alignILm24ELm16ELm16EE5__minE",
   "name" : "std::__1::__select_align<24, 16, 16>::__min",
   "referenced_type" : "_ZTIKm",
   "source_file" : "external/libcxx/include/type_traits"
  },
  {
   "linker_set_key" : "_ZNSt3__114__select_alignILm24ELm16ELm16EE5valueE",
   "name" : "std::__1::__select_align<24, 16, 16>::value",
   "referenced_type" : "_ZTIKm",
   "source_file" : "external/libcxx/include/type_traits"
  },
  {
   "access" : "private",
   "linker_set_key" : "_ZNSt3__114__select_alignILm24ELm16ELm8EE5__maxE",
   "name" : "std::__1::__select_align<24, 16, 8>::__max",
   "referenced_type" : "_ZTIKm",
   "source_file" : "external/libcxx/include/type_traits"
  },
  {
   "access" : "private",
   "linker_set_key" : "_ZNSt3__114__select_alignILm24ELm16ELm8EE5__minE",
   "name" : "std::__1::__select_align<24, 16, 8>::__min",
   "referenced_type" : "_ZTIKm",
   "source_file" : "external/libcxx/include/type_traits"
  },
  {
   "linker_set_key" : "_ZNSt3__114__select_alignILm24ELm16ELm8EE5valueE",
   "name" : "std::__1::__select_align<24, 16, 8>::value",
   "referenced_type" : "_ZTIKm",
   "source_file" : "external/libcxx/include/type_traits"
  },
  {
   "access" : "private",
   "linker_set_key" : "_ZNSt3__114__select_alignILm24ELm1ELm16EE5__maxE",
   "name" : "std::__1::__select_align<24, 1, 16>::__max",
   "referenced_type" : "_ZTIKm",
   "source_file" : "external/libcxx/include/type_traits"
  },
  {
   "access" : "private",
   "linker_set_key" : "_ZNSt3__114__select_alignILm24ELm1ELm16EE5__minE",
   "name" : "std::__1::__select_align<24, 1, 16>::__min",
   "referenced_type" : "_ZTIKm",
   "source_file" : "external/libcxx/include/type_traits"
  },
  {
   "linker_set_key" : "_ZNSt3__114__select_alignILm24ELm1ELm16EE5valueE",
   "name" : "std::__1::__select_align<24, 1, 16>::value",
   "referenced_type" : "_ZTIKm",
   "source_file" : "external/libcxx/include/type_traits"
  },
  {
   "access" : "private",
   "linker_set_key" : "_ZNSt3__114__select_alignILm24ELm2ELm16EE5__maxE",
   "name" : "std::__1::__select_align<24, 2, 16>::__max",
   "referenced_type" : "_ZTIKm",
   "source_file" : "external/libcxx/include/type_traits"
  },
  {
   "access" : "private",
   "linker_set_key" : "_ZNSt3__114__select_alignILm24ELm2ELm16EE5__minE",
   "name" : "std::__1::__select_align<24, 2, 16>::__min",
   "referenced_type" : "_ZTIKm",
   "source_file" : "external/libcxx/include/type_traits"
  },
  {
   "linker_set_key" : "_ZNSt3__114__select_alignILm24ELm2ELm16EE5valueE",
   "name" : "std::__1::__select_align<24, 2, 16>::value",
   "referenced_type" : "_ZTIKm",
   "source_file" : "external/libcxx/include/type_traits"
  },
  {
   "access" : "private",
   "linker_set_key" : "_ZNSt3__114__select_alignILm24ELm4ELm16EE5__maxE",
   "name" : "std::__1::__select_align<24, 4, 16>::__max",
   "referenced_type" : "_ZTIKm",
   "source_file" : "external/libcxx/include/type_traits"
  },
  {
   "access" : "private",
   "linker_set_key" : "_ZNSt3__114__select_alignILm24ELm4ELm16EE5__minE",
   "name" : "std::__1::__select_align<24, 4, 16>::__min",
   "referenced_type" : "_ZTIKm",
   "source_file" : "external/libcxx/include/type_traits"
  },
  {
   "linker_set_key" : "_ZNSt3__114__select_alignILm24ELm4ELm16EE5valueE",
   "name" : "std::__1::__select_align<24, 4, 16>::value",
   "referenced_type" : "_ZTIKm",
   "source_file" : "external/libcxx/include/type_traits"
  },
  {
   "access" : "private",
   "linker_set_key" : "_ZNSt3__114__select_alignILm24ELm8ELm16EE5__maxE",
   "name" : "std::__1::__select_align<24, 8, 16>::__max",
   "referenced_type" : "_ZTIKm",
   "source_file" : "external/libcxx/include/type_traits"
  },
  {
   "access" : "private",
   "linker_set_key" : "_ZNSt3__114__select_alignILm24ELm8ELm16EE5__minE",
   "name" : "std::__1::__select_align<24, 8, 16>::__min",
   "referenced_type" : "_ZTIKm",
   "source_file" : "external/libcxx/include/type_traits"
  },
  {
   "linker_set_key" : "_ZNSt3__114__select_alignILm24ELm8ELm16EE5valueE",
   "name" : "std::__1::__select_align<24, 8, 16>::value",
   "referenced_type" : "_ZTIKm",
   "source_file" : "external/libcxx/include/type_traits"
  },
  {
   "access" : "private",
   "linker_set_key" : "_ZNSt3__114__select_alignILm24ELm8ELm8EE5__maxE",
   "name" : "std::__1::__select_align<24, 8, 8>::__max",
   "referenced_type" : "_ZTIKm",
   "source_file" : "external/libcxx/include/type_traits"
  },
  {
   "access" : "private",
   "linker_set_key" : "_ZNSt3__114__select_alignILm24ELm8ELm8EE5__minE",
   "name" : "std::__1::__select_align<24, 8, 8>::__min",
   "referenced_type" : "_ZTIKm",
   "source_file" : "external/libcxx/include/type_traits"
  },
  {
   "linker_set_key" : "_ZNSt3__114__select_alignILm24ELm8ELm8EE5valueE",
   "name" : "std::__1::__select_align<24, 8, 8>::value",
   "referenced_type" : "_ZTIKm",
   "source_file" : "external/libcxx/include/type_traits"
  },
  {
   "access" : "private",
   "linker_set_key" : "_ZNSt3__114__select_alignILm32ELm16ELm16EE5__maxE",
   "name" : "std::__1::__select_align<32, 16, 16>::__max",
   "referenced_type" : "_ZTIKm",
   "source_file" : "external/libcxx/include/type_traits"
  },
  {
   "access" : "private",
   "linker_set_key" : "_ZNSt3__114__select_alignILm32ELm16ELm16EE5__minE",
   "name" : "std::__1::__select_align<32, 16, 16>::__min",
   "referenced_type" : "_ZTIKm",
   "source_file" : "external/libcxx/include/type_traits"
  },
  {
   "linker_set_key" : "_ZNSt3__114__select_alignILm32ELm16ELm16EE5valueE",
   "name" : "std::__1::__select_align<32, 16, 16>::value",
   "referenced_type" : "_ZTIKm",
   "source_file" : "external/libcxx/include/type_traits"
  },
  {
   "access" : "private",
   "linker_set_key" : "_ZNSt3__114__select_alignILm32ELm16ELm8EE5__maxE",
   "name" : "std::__1::__select_align<32, 16, 8>::__max",
   "referenced_type" : "_ZTIKm",
   "source_file" : "external/libcxx/include/type_traits"
  },
  {
   "access" : "private",
   "linker_set_key" : "_ZNSt3__114__select_alignILm32ELm16ELm8EE5__minE",
   "name" : "std::__1::__select_align<32, 16, 8>::__min",
   "referenced_type" : "_ZTIKm",
   "source_file" : "external/libcxx/include/type_traits"
  },
  {
   "linker_set_key" : "_ZNSt3__114__select_alignILm32ELm16ELm8EE5valueE",
   "name" : "std::__1::__select_align<32, 16, 8>::value",
   "referenced_type" : "_ZTIKm",
   "source_file" : "external/libcxx/include/type_traits"
  },
  {
   "access" : "private",
   "linker_set_key" : "_ZNSt3__114__select_alignILm32ELm1ELm16EE5__maxE",
   "name" : "std::__1::__select_align<32, 1, 16>::__max",
   "referenced_type" : "_ZTIKm",
   "source_file" : "external/libcxx/include/type_traits"
  },
  {
   "access" : "private",
   "linker_set_key" : "_ZNSt3__114__select_alignILm32ELm1ELm16EE5__minE",
   "name" : "std::__1::__select_align<32, 1, 16>::__min",
   "referenced_type" : "_ZTIKm",
   "source_file" : "external/libcxx/include/type_traits"
  },
  {
   "linker_set_key" : "_ZNSt3__114__select_alignILm32ELm1ELm16EE5valueE",
   "name" : "std::__1::__select_align<32, 1, 16>::value",
   "referenced_type" : "_ZTIKm",
   "source_file" : "external/libcxx/include/type_traits"
  },
  {
   "access" : "private",
   "linker_set_key" : "_ZNSt3__114__select_alignILm32ELm2ELm16EE5__maxE",
   "name" : "std::__1::__select_align<32, 2, 16>::__max",
   "referenced_type" : "_ZTIKm",
   "source_file" : "external/libcxx/include/type_traits"
  },
  {
   "access" : "private",
   "linker_set_key" : "_ZNSt3__114__select_alignILm32ELm2ELm16EE5__minE",
   "name" : "std::__1::__select_align<32, 2, 16>::__min",
   "referenced_type" : "_ZTIKm",
   "source_file" : "external/libcxx/include/type_traits"
  },
  {
   "linker_set_key" : "_ZNSt3__114__select_alignILm32ELm2ELm16EE5valueE",
   "name" : "std::__1::__select_align<32, 2, 16>::value",
   "referenced_type" : "_ZTIKm",
   "source_file" : "external/libcxx/include/type_traits"
  },
  {
   "access" : "private",
   "linker_set_key" : "_ZNSt3__114__select_alignILm32ELm4ELm16EE5__maxE",
   "name" : "std::__1::__select_align<32, 4, 16>::__max",
   "referenced_type" : "_ZTIKm",
   "source_file" : "external/libcxx/include/type_traits"
  },
  {
   "access" : "private",
   "linker_set_key" : "_ZNSt3__114__select_alignILm32ELm4ELm16EE5__minE",
   "name" : "std::__1::__select_align<32, 4, 16>::__min",
   "referenced_type" : "_ZTIKm",
   "source_file" : "external/libcxx/include/type_traits"
  },
  {
   "linker_set_key" : "_ZNSt3__114__select_alignILm32ELm4ELm16EE5valueE",
   "name" : "std::__1::__select_align<32, 4, 16>::value",
   "referenced_type" : "_ZTIKm",
   "source_file" : "external/libcxx/include/type_traits"
  },
  {
   "access" : "private",
   "linker_set_key" : "_ZNSt3__114__select_alignILm32ELm8ELm16EE5__maxE",
   "name" : "std::__1::__select_align<32, 8, 16>::__max",
   "referenced_type" : "_ZTIKm",
   "source_file" : "external/libcxx/include/type_traits"
  },
  {
   "access" : "private",
   "linker_set_key" : "_ZNSt3__114__select_alignILm32ELm8ELm16EE5__minE",
   "name" : "std::__1::__select_align<32, 8, 16>::__min",
   "referenced_type" : "_ZTIKm",
   "source_file" : "external/libcxx/include/type_traits"
  },
  {
   "linker_set_key" : "_ZNSt3__114__select_alignILm32ELm8ELm16EE5valueE",
   "name" : "std::__1::__select_align<32, 8, 16>::value",
   "referenced_type" : "_ZTIKm",
   "source_file" : "external/libcxx/include/type_traits"
  },
  {
   "access" : "private",
   "linker_set_key" : "_ZNSt3__114__select_alignILm32ELm8ELm8EE5__maxE",
   "name" : "std::__1::__select_align<32, 8, 8>::__max",
   "referenced_type" : "_ZTIKm",
   "source_file" : "external/libcxx/include/type_traits"
  },
  {
   "access" : "private",
   "linker_set_key" : "_ZNSt3__114__select_alignILm32ELm8ELm8EE5__minE",
   "name" : "std::__1::__select_align<32, 8, 8>::__min",
   "referenced_type" : "_ZTIKm",
   "source_file" : "external/libcxx/include/type_traits"
  },
  {
   "linker_set_key" : "_ZNSt3__114__select_alignILm32ELm8ELm8EE5valueE",
   "name" : "std::__1::__select_align<32, 8, 8>::value",
   "referenced_type" : "_ZTIKm",
   "source_file" : "external/libcxx/include/type_traits"
  },
  {
   "linker_set_key" : "_ZNSt3__114numeric_limits10has_denormE",
   "name" : "std::__1::numeric_limits::has_denorm",
   "referenced_type" : "_ZTIKNSt3__118float_denorm_styleE",
   "source_file" : "external/libcxx/include/limits"
  },
  {
   "linker_set_key" : "_ZNSt3__114numeric_limits10is_boundedE",
   "name" : "std::__1::numeric_limits::is_bounded",
   "referenced_type" : "_ZTIKb",
   "source_file" : "external/libcxx/include/limits"
  },
  {
   "linker_set_key" : "_ZNSt3__114numeric_limits10is_integerE",
   "name" : "std::__1::numeric_limits::is_integer",
   "referenced_type" : "_ZTIKb",
   "source_file" : "external/libcxx/include/limits"
  },
  {
   "linker_set_key" : "_ZNSt3__114numeric_limits11round_styleE",
   "name" : "std::__1::numeric_limits::round_style",
   "referenced_type" : "_ZTIKNSt3__117float_round_styleE",
   "source_file" : "external/libcxx/include/limits"
  },
  {
   "linker_set_key" : "_ZNSt3__114numeric_limits12has_infinityE",
   "name" : "std::__1::numeric_limits::has_infinity",
   "referenced_type" : "_ZTIKb",
   "source_file" : "external/libcxx/include/limits"
  },
  {
   "linker_set_key" : "_ZNSt3__114numeric_limits12max_digits10E",
   "name" : "std::__1::numeric_limits::max_digits10",
   "referenced_type" : "_ZTIKi",
   "source_file" : "external/libcxx/include/limits"
  },
  {
   "linker_set_key" : "_ZNSt3__114numeric_limits12max_exponentE",
   "name" : "std::__1::numeric_limits::max_exponent",
   "referenced_type" : "_ZTIKi",
   "source_file" : "external/libcxx/include/limits"
  },
  {
   "linker_set_key" : "_ZNSt3__114numeric_limits12min_exponentE",
   "name" : "std::__1::numeric_limits::min_exponent",
   "referenced_type" : "_ZTIKi",
   "source_file" : "external/libcxx/include/limits"
  },
  {
   "linker_set_key" : "_ZNSt3__114numeric_limits13has_quiet_NaNE",
   "name" : "std::__1::numeric_limits::has_quiet_NaN",
   "referenced_type" : "_ZTIKb",
   "source_file" : "external/libcxx/include/limits"
  },
  {
   "linker_set_key" : "_ZNSt3__114numeric_limits14is_specializedE",
   "name" : "std::__1::numeric_limits::is_specialized",
   "referenced_type" : "_ZTIKb",
   "source_file" : "external/libcxx/include/limits"
  },
  {
   "linker_set_key" : "_ZNSt3__114numeric_limits14max_exponent10E",
   "name" : "std::__1::numeric_limits::max_exponent10",
   "referenced_type" : "_ZTIKi",
   "source_file" : "external/libcxx/include/limits"
  },
  {
   "linker_set_key" : "_ZNSt3__114numeric_limits14min_exponent10E",
   "name" : "std::__1::numeric_limits::min_exponent10",
   "referenced_type" : "_ZTIKi",
   "source_file" : "external/libcxx/include/limits"
  },
  {
   "linker_set_key" : "_ZNSt3__114numeric_limits15has_denorm_lossE",
   "name" : "std::__1::numeric_limits::has_denorm_loss",
   "referenced_type" : "_ZTIKb",
   "source_file" : "external/libcxx/include/limits"
  },
  {
   "linker_set_key" : "_ZNSt3__114numeric_limits15tinyness_beforeE",
   "name" : "std::__1::numeric_limits::tinyness_before",
   "referenced_type" : "_ZTIKb",
   "source_file" : "external/libcxx/include/limits"
  },
  {
   "linker_set_key" : "_ZNSt3__114numeric_limits17has_signaling_NaNE",
   "name" : "std::__1::numeric_limits::has_signaling_NaN",
   "referenced_type" : "_ZTIKb",
   "source_file" : "external/libcxx/include/limits"
  },
  {
   "linker_set_key" : "_ZNSt3__114numeric_limits5radixE",
   "name" : "std::__1::numeric_limits::radix",
   "referenced_type" : "_ZTIKi",
   "source_file" : "external/libcxx/include/limits"
  },
  {
   "linker_set_key" : "_ZNSt3__114numeric_limits5trapsE",
   "name" : "std::__1::numeric_limits::traps",
   "referenced_type" : "_ZTIKb",
   "source_file" : "external/libcxx/include/limits"
  },
  {
   "linker_set_key" : "_ZNSt3__114numeric_limits6digitsE",
   "name" : "std::__1::numeric_limits::digits",
   "referenced_type" : "_ZTIKi",
   "source_file" : "external/libcxx/include/limits"
  },
  {
   "linker_set_key" : "_ZNSt3__114numeric_limits8digits10E",
   "name" : "std::__1::numeric_limits::digits10",
   "referenced_type" : "_ZTIKi",
   "source_file" : "external/libcxx/include/limits"
  },
  {
   "linker_set_key" : "_ZNSt3__114numeric_limits8is_exactE",
   "name" : "std::__1::numeric_limits::is_exact",
   "referenced_type" : "_ZTIKb",
   "source_file" : "external/libcxx/include/limits"
  },
  {
   "linker_set_key" : "_ZNSt3__114numeric_limits9is_iec559E",
   "name" : "std::__1::numeric_limits::is_iec559",
   "referenced_type" : "_ZTIKb",
   "source_file" : "external/libcxx/include/limits"
  },
  {
   "linker_set_key" : "_ZNSt3__114numeric_limits9is_moduloE",
   "name" : "std::__1::numeric_limits::is_modulo",
   "referenced_type" : "_ZTIKb",
   "source_file" : "external/libcxx/include/limits"
  },
  {
   "linker_set_key" : "_ZNSt3__114numeric_limits9is_signedE",
   "name" : "std::__1::numeric_limits::is_signed",
   "referenced_type" : "_ZTIKb",
   "source_file" : "external/libcxx/include/limits"
  },
  {
   "linker_set_key" : "_ZNSt3__114numeric_limitsIKT_E10has_denormE",
   "name" : "std::__1::numeric_limits<const type-parameter-0-0>::has_denorm",
   "referenced_type" : "_ZTIKNSt3__118float_denorm_styleE",
   "source_file" : "external/libcxx/include/limits"
  },
  {
   "linker_set_key" : "_ZNSt3__114numeric_limitsIKT_E10is_boundedE",
   "name" : "std::__1::numeric_limits<const type-parameter-0-0>::is_bounded",
   "referenced_type" : "_ZTIKb",
   "source_file" : "external/libcxx/include/limits"
  },
  {
   "linker_set_key" : "_ZNSt3__114numeric_limitsIKT_E10is_integerE",
   "name" : "std::__1::numeric_limits<const type-parameter-0-0>::is_integer",
   "referenced_type" : "_ZTIKb",
   "source_file" : "external/libcxx/include/limits"
  },
  {
   "linker_set_key" : "_ZNSt3__114numeric_limitsIKT_E11round_styleE",
   "name" : "std::__1::numeric_limits<const type-parameter-0-0>::round_style",
   "referenced_type" : "_ZTIKNSt3__117float_round_styleE",
   "source_file" : "external/libcxx/include/limits"
  },
  {
   "linker_set_key" : "_ZNSt3__114numeric_limitsIKT_E12has_infinityE",
   "name" : "std::__1::numeric_limits<const type-parameter-0-0>::has_infinity",
   "referenced_type" : "_ZTIKb",
   "source_file" : "external/libcxx/include/limits"
  },
  {
   "linker_set_key" : "_ZNSt3__114numeric_limitsIKT_E12max_digits10E",
   "name" : "std::__1::numeric_limits<const type-parameter-0-0>::max_digits10",
   "referenced_type" : "_ZTIKi",
   "source_file" : "external/libcxx/include/limits"
  },
  {
   "linker_set_key" : "_ZNSt3__114numeric_limitsIKT_E12max_exponentE",
   "name" : "std::__1::numeric_limits<const type-parameter-0-0>::max_exponent",
   "referenced_type" : "_ZTIKi",
   "source_file" : "external/libcxx/include/limits"
  },
  {
   "linker_set_key" : "_ZNSt3__114numeric_limitsIKT_E12min_exponentE",
   "name" : "std::__1::numeric_limits<const type-parameter-0-0>::min_exponent",
   "referenced_type" : "_ZTIKi",
   "source_file" : "external/libcxx/include/limits"
  },
  {
   "linker_set_key" : "_ZNSt3__114numeric_limitsIKT_E13has_quiet_NaNE",
   "name" : "std::__1::numeric_limits<const type-parameter-0-0>::has_quiet_NaN",
   "referenced_type" : "_ZTIKb",
   "source_file" : "external/libcxx/include/limits"
  },
  {
   "linker_set_key" : "_ZNSt3__114numeric_limitsIKT_E14is_specializedE",
   "name" : "std::__1::numeric_limits<const type-parameter-0-0>::is_specialized",
   "referenced_type" : "_ZTIKb",
   "source_file" : "external/libcxx/include/limits"
  },
  {
   "linker_set_key" : "_ZNSt3__114numeric_limitsIKT_E14max_exponent10E",
   "name" : "std::__1::numeric_limits<const type-parameter-0-0>::max_exponent10",
   "referenced_type" : "_ZTIKi",
   "source_file" : "external/libcxx/include/limits"
  },
  {
   "linker_set_key" : "_ZNSt3__114numeric_limitsIKT_E14min_exponent10E",
   "name" : "std::__1::numeric_limits<const type-parameter-0-0>::min_exponent10",
   "referenced_type" : "_ZTIKi",
   "source_file" : "external/libcxx/include/limits"
  },
  {
   "linker_set_key" : "_ZNSt3__114numeric_limitsIKT_E15has_denorm_lossE",
   "name" : "std::__1::numeric_limits<const type-parameter-0-0>::has_denorm_loss",
   "referenced_type" : "_ZTIKb",
   "source_file" : "external/libcxx/include/limits"
  },
  {
   "linker_set_key" : "_ZNSt3__114numeric_limitsIKT_E15tinyness_beforeE",
   "name" : "std::__1::numeric_limits<const type-parameter-0-0>::tinyness_before",
   "referenced_type" : "_ZTIKb",
   "source_file" : "external/libcxx/include/limits"
  },
  {
   "linker_set_key" : "_ZNSt3__114numeric_limitsIKT_E17has_signaling_NaNE",
   "name" : "std::__1::numeric_limits<const type-parameter-0-0>::has_signaling_NaN",
   "referenced_type" : "_ZTIKb",
   "source_file" : "external/libcxx/include/limits"
  },
  {
   "linker_set_key" : "_ZNSt3__114numeric_limitsIKT_E5radixE",
   "name" : "std::__1::numeric_limits<const type-parameter-0-0>::radix",
   "referenced_type" : "_ZTIKi",
   "source_file" : "external/libcxx/include/limits"
  },
  {
   "linker_set_key" : "_ZNSt3__114numeric_limitsIKT_E5trapsE",
   "name" : "std::__1::numeric_limits<const type-parameter-0-0>::traps",
   "referenced_type" : "_ZTIKb",
   "source_file" : "external/libcxx/include/limits"
  },
  {
   "linker_set_key" : "_ZNSt3__114numeric_limitsIKT_E6digitsE",
   "name" : "std::__1::numeric_limits<const type-parameter-0-0>::digits",
   "referenced_type" : "_ZTIKi",
   "source_file" : "external/libcxx/include/limits"
  },
  {
   "linker_set_key" : "_ZNSt3__114numeric_limitsIKT_E8digits10E",
   "name" : "std::__1::numeric_limits<const type-parameter-0-0>::digits10",
   "referenced_type" : "_ZTIKi",
   "source_file" : "external/libcxx/include/limits"
  },
  {
   "linker_set_key" : "_ZNSt3__114numeric_limitsIKT_E8is_exactE",
   "name" : "std::__1::numeric_limits<const type-parameter-0-0>::is_exact",
   "referenced_type" : "_ZTIKb",
   "source_file" : "external/libcxx/include/limits"
  },
  {
   "linker_set_key" : "_ZNSt3__114numeric_limitsIKT_E9is_iec559E",
   "name" : "std::__1::numeric_limits<const type-parameter-0-0>::is_iec559",
   "referenced_type" : "_ZTIKb",
   "source_file" : "external/libcxx/include/limits"
  },
  {
   "linker_set_key" : "_ZNSt3__114numeric_limitsIKT_E9is_moduloE",
   "name" : "std::__1::numeric_limits<const type-parameter-0-0>::is_modulo",
   "referenced_type" : "_ZTIKb",
   "source_file" : "external/libcxx/include/limits"
  },
  {
   "linker_set_key" : "_ZNSt3__114numeric_limitsIKT_E9is_signedE",
   "name" : "std::__1::numeric_limits<const type-parameter-0-0>::is_signed",
   "referenced_type" : "_ZTIKb",
   "source_file" : "external/libcxx/include/limits"
  },
  {
   "linker_set_key" : "_ZNSt3__114numeric_limitsIVKT_E10has_denormE",
   "name" : "std::__1::numeric_limits<const volatile type-parameter-0-0>::has_denorm",
   "referenced_type" : "_ZTIKNSt3__118float_denorm_styleE",
   "source_file" : "external/libcxx/include/limits"
  },
  {
   "linker_set_key" : "_ZNSt3__114numeric_limitsIVKT_E10is_boundedE",
   "name" : "std::__1::numeric_limits<const volatile type-parameter-0-0>::is_bounded",
   "referenced_type" : "_ZTIKb",
   "source_file" : "external/libcxx/include/limits"
  },
  {
   "linker_set_key" : "_ZNSt3__114numeric_limitsIVKT_E10is_integerE",
   "name" : "std::__1::numeric_limits<const volatile type-parameter-0-0>::is_integer",
   "referenced_type" : "_ZTIKb",
   "source_file" : "external/libcxx/include/limits"
  },
  {
   "linker_set_key" : "_ZNSt3__114numeric_limitsIVKT_E11round_styleE",
   "name" : "std::__1::numeric_limits<const volatile type-parameter-0-0>::round_style",
   "referenced_type" : "_ZTIKNSt3__117float_round_styleE",
   "source_file" : "external/libcxx/include/limits"
  },
  {
   "linker_set_key" : "_ZNSt3__114numeric_limitsIVKT_E12has_infinityE",
   "name" : "std::__1::numeric_limits<const volatile type-parameter-0-0>::has_infinity",
   "referenced_type" : "_ZTIKb",
   "source_file" : "external/libcxx/include/limits"
  },
  {
   "linker_set_key" : "_ZNSt3__114numeric_limitsIVKT_E12max_digits10E",
   "name" : "std::__1::numeric_limits<const volatile type-parameter-0-0>::max_digits10",
   "referenced_type" : "_ZTIKi",
   "source_file" : "external/libcxx/include/limits"
  },
  {
   "linker_set_key" : "_ZNSt3__114numeric_limitsIVKT_E12max_exponentE",
   "name" : "std::__1::numeric_limits<const volatile type-parameter-0-0>::max_exponent",
   "referenced_type" : "_ZTIKi",
   "source_file" : "external/libcxx/include/limits"
  },
  {
   "linker_set_key" : "_ZNSt3__114numeric_limitsIVKT_E12min_exponentE",
   "name" : "std::__1::numeric_limits<const volatile type-parameter-0-0>::min_exponent",
   "referenced_type" : "_ZTIKi",
   "source_file" : "external/libcxx/include/limits"
  },
  {
   "linker_set_key" : "_ZNSt3__114numeric_limitsIVKT_E13has_quiet_NaNE",
   "name" : "std::__1::numeric_limits<const volatile type-parameter-0-0>::has_quiet_NaN",
   "referenced_type" : "_ZTIKb",
   "source_file" : "external/libcxx/include/limits"
  },
  {
   "linker_set_key" : "_ZNSt3__114numeric_limitsIVKT_E14is_specializedE",
   "name" : "std::__1::numeric_limits<const volatile type-parameter-0-0>::is_specialized",
   "referenced_type" : "_ZTIKb",
   "source_file" : "external/libcxx/include/limits"
  },
  {
   "linker_set_key" : "_ZNSt3__114numeric_limitsIVKT_E14max_exponent10E",
   "name" : "std::__1::numeric_limits<const volatile type-parameter-0-0>::max_exponent10",
   "referenced_type" : "_ZTIKi",
   "source_file" : "external/libcxx/include/limits"
  },
  {
   "linker_set_key" : "_ZNSt3__114numeric_limitsIVKT_E14min_exponent10E",
   "name" : "std::__1::numeric_limits<const volatile type-parameter-0-0>::min_exponent10",
   "referenced_type" : "_ZTIKi",
   "source_file" : "external/libcxx/include/limits"
  },
  {
   "linker_set_key" : "_ZNSt3__114numeric_limitsIVKT_E15has_denorm_lossE",
   "name" : "std::__1::numeric_limits<const volatile type-parameter-0-0>::has_denorm_loss",
   "referenced_type" : "_ZTIKb",
   "source_file" : "external/libcxx/include/limits"
  },
  {
   "linker_set_key" : "_ZNSt3__114numeric_limitsIVKT_E15tinyness_beforeE",
   "name" : "std::__1::numeric_limits<const volatile type-parameter-0-0>::tinyness_before",
   "referenced_type" : "_ZTIKb",
   "source_file" : "external/libcxx/include/limits"
  },
  {
   "linker_set_key" : "_ZNSt3__114numeric_limitsIVKT_E17has_signaling_NaNE",
   "name" : "std::__1::numeric_limits<const volatile type-parameter-0-0>::has_signaling_NaN",
   "referenced_type" : "_ZTIKb",
   "source_file" : "external/libcxx/include/limits"
  },
  {
   "linker_set_key" : "_ZNSt3__114numeric_limitsIVKT_E5radixE",
   "name" : "std::__1::numeric_limits<const volatile type-parameter-0-0>::radix",
   "referenced_type" : "_ZTIKi",
   "source_file" : "external/libcxx/include/limits"
  },
  {
   "linker_set_key" : "_ZNSt3__114numeric_limitsIVKT_E5trapsE",
   "name" : "std::__1::numeric_limits<const volatile type-parameter-0-0>::traps",
   "referenced_type" : "_ZTIKb",
   "source_file" : "external/libcxx/include/limits"
  },
  {
   "linker_set_key" : "_ZNSt3__114numeric_limitsIVKT_E6digitsE",
   "name" : "std::__1::numeric_limits<const volatile type-parameter-0-0>::digits",
   "referenced_type" : "_ZTIKi",
   "source_file" : "external/libcxx/include/limits"
  },
  {
   "linker_set_key" : "_ZNSt3__114numeric_limitsIVKT_E8digits10E",
   "name" : "std::__1::numeric_limits<const volatile type-parameter-0-0>::digits10",
   "referenced_type" : "_ZTIKi",
   "source_file" : "external/libcxx/include/limits"
  },
  {
   "linker_set_key" : "_ZNSt3__114numeric_limitsIVKT_E8is_exactE",
   "name" : "std::__1::numeric_limits<const volatile type-parameter-0-0>::is_exact",
   "referenced_type" : "_ZTIKb",
   "source_file" : "external/libcxx/include/limits"
  },
  {
   "linker_set_key" : "_ZNSt3__114numeric_limitsIVKT_E9is_iec559E",
   "name" : "std::__1::numeric_limits<const volatile type-parameter-0-0>::is_iec559",
   "referenced_type" : "_ZTIKb",
   "source_file" : "external/libcxx/include/limits"
  },
  {
   "linker_set_key" : "_ZNSt3__114numeric_limitsIVKT_E9is_moduloE",
   "name" : "std::__1::numeric_limits<const volatile type-parameter-0-0>::is_modulo",
   "referenced_type" : "_ZTIKb",
   "source_file" : "external/libcxx/include/limits"
  },
  {
   "linker_set_key" : "_ZNSt3__114numeric_limitsIVKT_E9is_signedE",
   "name" : "std::__1::numeric_limits<const volatile type-parameter-0-0>::is_signed",
   "referenced_type" : "_ZTIKb",
   "source_file" : "external/libcxx/include/limits"
  },
  {
   "linker_set_key" : "_ZNSt3__114numeric_limitsIVT_E10has_denormE",
   "name" : "std::__1::numeric_limits<volatile type-parameter-0-0>::has_denorm",
   "referenced_type" : "_ZTIKNSt3__118float_denorm_styleE",
   "source_file" : "external/libcxx/include/limits"
  },
  {
   "linker_set_key" : "_ZNSt3__114numeric_limitsIVT_E10is_boundedE",
   "name" : "std::__1::numeric_limits<volatile type-parameter-0-0>::is_bounded",
   "referenced_type" : "_ZTIKb",
   "source_file" : "external/libcxx/include/limits"
  },
  {
   "linker_set_key" : "_ZNSt3__114numeric_limitsIVT_E10is_integerE",
   "name" : "std::__1::numeric_limits<volatile type-parameter-0-0>::is_integer",
   "referenced_type" : "_ZTIKb",
   "source_file" : "external/libcxx/include/limits"
  },
  {
   "linker_set_key" : "_ZNSt3__114numeric_limitsIVT_E11round_styleE",
   "name" : "std::__1::numeric_limits<volatile type-parameter-0-0>::round_style",
   "referenced_type" : "_ZTIKNSt3__117float_round_styleE",
   "source_file" : "external/libcxx/include/limits"
  },
  {
   "linker_set_key" : "_ZNSt3__114numeric_limitsIVT_E12has_infinityE",
   "name" : "std::__1::numeric_limits<volatile type-parameter-0-0>::has_infinity",
   "referenced_type" : "_ZTIKb",
   "source_file" : "external/libcxx/include/limits"
  },
  {
   "linker_set_key" : "_ZNSt3__114numeric_limitsIVT_E12max_digits10E",
   "name" : "std::__1::numeric_limits<volatile type-parameter-0-0>::max_digits10",
   "referenced_type" : "_ZTIKi",
   "source_file" : "external/libcxx/include/limits"
  },
  {
   "linker_set_key" : "_ZNSt3__114numeric_limitsIVT_E12max_exponentE",
   "name" : "std::__1::numeric_limits<volatile type-parameter-0-0>::max_exponent",
   "referenced_type" : "_ZTIKi",
   "source_file" : "external/libcxx/include/limits"
  },
  {
   "linker_set_key" : "_ZNSt3__114numeric_limitsIVT_E12min_exponentE",
   "name" : "std::__1::numeric_limits<volatile type-parameter-0-0>::min_exponent",
   "referenced_type" : "_ZTIKi",
   "source_file" : "external/libcxx/include/limits"
  },
  {
   "linker_set_key" : "_ZNSt3__114numeric_limitsIVT_E13has_quiet_NaNE",
   "name" : "std::__1::numeric_limits<volatile type-parameter-0-0>::has_quiet_NaN",
   "referenced_type" : "_ZTIKb",
   "source_file" : "external/libcxx/include/limits"
  },
  {
   "linker_set_key" : "_ZNSt3__114numeric_limitsIVT_E14is_specializedE",
   "name" : "std::__1::numeric_limits<volatile type-parameter-0-0>::is_specialized",
   "referenced_type" : "_ZTIKb",
   "source_file" : "external/libcxx/include/limits"
  },
  {
   "linker_set_key" : "_ZNSt3__114numeric_limitsIVT_E14max_exponent10E",
