{
 "array_types" : [],
 "builtin_types" :
 [
  {
   "alignment" : 1,
   "is_integral" : true,
   "is_unsigned" : true,
   "linker_set_key" : "_ZTIb",
   "name" : "bool",
   "referenced_type" : "_ZTIb",
   "self_type" : "_ZTIb",
   "size" : 1
  },
  {
   "alignment" : 1,
   "is_integral" : true,
   "is_unsigned" : true,
   "linker_set_key" : "_ZTIc",
   "name" : "char",
   "referenced_type" : "_ZTIc",
   "self_type" : "_ZTIc",
   "size" : 1
  },
  {
   "alignment" : 4,
   "is_integral" : true,
   "linker_set_key" : "_ZTIi",
   "name" : "int",
   "referenced_type" : "_ZTIi",
   "self_type" : "_ZTIi",
   "size" : 4
  },
  {
   "alignment" : 4,
   "is_integral" : true,
   "is_unsigned" : true,
   "linker_set_key" : "_ZTIj",
   "name" : "unsigned int",
   "referenced_type" : "_ZTIj",
   "self_type" : "_ZTIj",
   "size" : 4
  },
  {
   "alignment" : 8,
   "is_integral" : true,
   "linker_set_key" : "_ZTIl",
   "name" : "long",
   "referenced_type" : "_ZTIl",
   "self_type" : "_ZTIl",
   "size" : 8
  },
  {
   "alignment" : 8,
   "is_integral" : true,
   "is_unsigned" : true,
   "linker_set_key" : "_ZTIm",
   "name" : "unsigned long",
   "referenced_type" : "_ZTIm",
   "self_type" : "_ZTIm",
   "size" : 8
  },
  {
   "alignment" : 2,
   "is_integral" : true,
   "is_unsigned" : true,
   "linker_set_key" : "_ZTIt",
   "name" : "unsigned short",
   "referenced_type" : "_ZTIt",
   "self_type" : "_ZTIt",
   "size" : 2
  },
  {
   "linker_set_key" : "_ZTIv",
   "name" : "void",
   "referenced_type" : "_ZTIv",
   "self_type" : "_ZTIv"
  }
 ],
 "elf_functions" : [],
 "elf_objects" : [],
 "enum_types" :
 [
  {
   "alignment" : 4,
   "enum_fields" :
   [
    {
     "enum_field_value" : 0,
     "name" : "google::protobuf::util::error::OK"
    },
    {
     "enum_field_value" : 1,
     "name" : "google::protobuf::util::error::CANCELLED"
    },
    {
     "enum_field_value" : 2,
     "name" : "google::protobuf::util::error::UNKNOWN"
    },
    {
     "enum_field_value" : 3,
     "name" : "google::protobuf::util::error::INVALID_ARGUMENT"
    },
    {
     "enum_field_value" : 4,
     "name" : "google::protobuf::util::error::DEADLINE_EXCEEDED"
    },
    {
     "enum_field_value" : 5,
     "name" : "google::protobuf::util::error::NOT_FOUND"
    },
    {
     "enum_field_value" : 6,
     "name" : "google::protobuf::util::error::ALREADY_EXISTS"
    },
    {
     "enum_field_value" : 7,
     "name" : "google::protobuf::util::error::PERMISSION_DENIED"
    },
    {
     "enum_field_value" : 16,
     "name" : "google::protobuf::util::error::UNAUTHENTICATED"
    },
    {
     "enum_field_value" : 8,
     "name" : "google::protobuf::util::error::RESOURCE_EXHAUSTED"
    },
    {
     "enum_field_value" : 9,
     "name" : "google::protobuf::util::error::FAILED_PRECONDITION"
    },
    {
     "enum_field_value" : 10,
     "name" : "google::protobuf::util::error::ABORTED"
    },
    {
     "enum_field_value" : 11,
     "name" : "google::protobuf::util::error::OUT_OF_RANGE"
    },
    {
     "enum_field_value" : 12,
     "name" : "google::protobuf::util::error::UNIMPLEMENTED"
    },
    {
     "enum_field_value" : 13,
     "name" : "google::protobuf::util::error::INTERNAL"
    },
    {
     "enum_field_value" : 14,
     "name" : "google::protobuf::util::error::UNAVAILABLE"
    },
    {
     "enum_field_value" : 15,
     "name" : "google::protobuf::util::error::DATA_LOSS"
    }
   ],
   "linker_set_key" : "_ZTIN6google8protobuf4util5error4CodeE",
   "name" : "google::protobuf::util::error::Code",
   "referenced_type" : "_ZTIN6google8protobuf4util5error4CodeE",
   "self_type" : "_ZTIN6google8protobuf4util5error4CodeE",
   "size" : 4,
   "source_file" : "external/protobuf/src/google/protobuf/stubs/status.h",
   "underlying_type" : "_ZTIj"
  }
 ],
 "function_types" : [],
 "functions" :
 [
  {
   "function_name" : "google::protobuf::StringPiece::remove_prefix",
   "linker_set_key" : "_ZN6google8protobuf11StringPiece13remove_prefixEl",
   "parameters" :
   [
    {
     "is_this_ptr" : true,
     "referenced_type" : "_ZTIPN6google8protobuf11StringPieceE"
    },
    {
     "referenced_type" : "_ZTIl"
    }
   ],
   "return_type" : "_ZTIv",
   "source_file" : "external/protobuf/src/google/protobuf/stubs/stringpiece.h"
  },
  {
   "function_name" : "google::protobuf::StringPiece::remove_suffix",
   "linker_set_key" : "_ZN6google8protobuf11StringPiece13remove_suffixEl",
   "parameters" :
   [
    {
     "is_this_ptr" : true,
     "referenced_type" : "_ZTIPN6google8protobuf11StringPieceE"
    },
    {
     "referenced_type" : "_ZTIl"
    }
   ],
   "return_type" : "_ZTIv",
   "source_file" : "external/protobuf/src/google/protobuf/stubs/stringpiece.h"
  },
  {
   "access" : "private",
   "function_name" : "google::protobuf::StringPiece::CheckedSsizeTFromSizeT",
   "linker_set_key" : "_ZN6google8protobuf11StringPiece22CheckedSsizeTFromSizeTEm",
   "parameters" :
   [
    {
     "referenced_type" : "_ZTIm"
    }
   ],
   "return_type" : "_ZTIl",
   "source_file" : "external/protobuf/src/google/protobuf/stubs/stringpiece.h"
  },
  {
   "function_name" : "google::protobuf::StringPiece::set",
   "linker_set_key" : "_ZN6google8protobuf11StringPiece3setEPKc",
   "parameters" :
   [
    {
     "is_this_ptr" : true,
     "referenced_type" : "_ZTIPN6google8protobuf11StringPieceE"
    },
    {
     "referenced_type" : "_ZTIPKc"
    }
   ],
   "return_type" : "_ZTIv",
   "source_file" : "external/protobuf/src/google/protobuf/stubs/stringpiece.h"
  },
  {
   "function_name" : "google::protobuf::StringPiece::set",
   "linker_set_key" : "_ZN6google8protobuf11StringPiece3setEPKcl",
   "parameters" :
   [
    {
     "is_this_ptr" : true,
     "referenced_type" : "_ZTIPN6google8protobuf11StringPieceE"
    },
    {
     "referenced_type" : "_ZTIPKc"
    },
    {
     "referenced_type" : "_ZTIl"
    }
   ],
   "return_type" : "_ZTIv",
   "source_file" : "external/protobuf/src/google/protobuf/stubs/stringpiece.h"
  },
  {
   "function_name" : "google::protobuf::StringPiece::set",
   "linker_set_key" : "_ZN6google8protobuf11StringPiece3setEPKvl",
   "parameters" :
   [
    {
     "is_this_ptr" : true,
     "referenced_type" : "_ZTIPN6google8protobuf11StringPieceE"
    },
    {
     "referenced_type" : "_ZTIPKv"
    },
    {
     "referenced_type" : "_ZTIl"
    }
   ],
   "return_type" : "_ZTIv",
   "source_file" : "external/protobuf/src/google/protobuf/stubs/stringpiece.h"
  },
  {
   "function_name" : "google::protobuf::StringPiece::clear",
   "linker_set_key" : "_ZN6google8protobuf11StringPiece5clearEv",
   "parameters" :
   [
    {
     "is_this_ptr" : true,
     "referenced_type" : "_ZTIPN6google8protobuf11StringPieceE"
    }
   ],
   "return_type" : "_ZTIv",
   "source_file" : "external/protobuf/src/google/protobuf/stubs/stringpiece.h"
  },
  {
   "function_name" : "google::protobuf::StringPiece::StringPiece",
   "linker_set_key" : "_ZN6google8protobuf11StringPieceC1EPKc",
   "parameters" :
   [
    {
     "is_this_ptr" : true,
     "referenced_type" : "_ZTIPN6google8protobuf11StringPieceE"
    },
    {
     "referenced_type" : "_ZTIPKc"
    }
   ],
   "return_type" : "_ZTIv",
   "source_file" : "external/protobuf/src/google/protobuf/stubs/stringpiece.h"
  },
  {
   "function_name" : "google::protobuf::StringPiece::StringPiece",
   "linker_set_key" : "_ZN6google8protobuf11StringPieceC1EPKcl",
   "parameters" :
   [
    {
     "is_this_ptr" : true,
     "referenced_type" : "_ZTIPN6google8protobuf11StringPieceE"
    },
    {
     "referenced_type" : "_ZTIPKc"
    },
    {
     "referenced_type" : "_ZTIl"
    }
   ],
   "return_type" : "_ZTIv",
   "source_file" : "external/protobuf/src/google/protobuf/stubs/stringpiece.h"
  },
  {
   "function_name" : "google::protobuf::StringPiece::StringPiece",
   "linker_set_key" : "_ZN6google8protobuf11StringPieceC1Ev",
   "parameters" :
   [
    {
     "is_this_ptr" : true,
     "referenced_type" : "_ZTIPN6google8protobuf11StringPieceE"
    }
   ],
   "return_type" : "_ZTIv",
   "source_file" : "external/protobuf/src/google/protobuf/stubs/stringpiece.h"
  },
  {
   "function_name" : "google::protobuf::StringPiece::StringPiece",
   "linker_set_key" : "_ZN6google8protobuf11StringPieceC1INSt3__19allocatorIcEEEERKNS3_12basic_stringIcNS3_11char_traitsIcEET_EE",
   "parameters" :
   [
    {
     "is_this_ptr" : true,
     "referenced_type" : "_ZTIPN6google8protobuf11StringPieceE"
    },
    {
     "referenced_type" : "_ZTIRKNSt3__112basic_stringIcNS_11char_traitsIcEENS_9allocatorIcEEEE"
    }
   ],
   "return_type" : "_ZTIv",
   "source_file" : "external/protobuf/src/google/protobuf/stubs/stringpiece.h",
   "template_args" : [ "_ZTINSt3__19allocatorIcEE" ]
  },
  {
   "function_name" : "google::protobuf::StringPiece::StringPiece",
   "linker_set_key" : "_ZN6google8protobuf11StringPieceC2EPKc",
   "parameters" :
   [
    {
     "is_this_ptr" : true,
     "referenced_type" : "_ZTIPN6google8protobuf11StringPieceE"
    },
    {
     "referenced_type" : "_ZTIPKc"
    }
   ],
   "return_type" : "_ZTIv",
   "source_file" : "external/protobuf/src/google/protobuf/stubs/stringpiece.h"
  },
  {
   "function_name" : "google::protobuf::StringPiece::StringPiece",
   "linker_set_key" : "_ZN6google8protobuf11StringPieceC2EPKcl",
   "parameters" :
   [
    {
     "is_this_ptr" : true,
     "referenced_type" : "_ZTIPN6google8protobuf11StringPieceE"
    },
    {
     "referenced_type" : "_ZTIPKc"
    },
    {
     "referenced_type" : "_ZTIl"
    }
   ],
   "return_type" : "_ZTIv",
   "source_file" : "external/protobuf/src/google/protobuf/stubs/stringpiece.h"
  },
  {
   "function_name" : "google::protobuf::StringPiece::StringPiece",
   "linker_set_key" : "_ZN6google8protobuf11StringPieceC2Ev",
   "parameters" :
   [
    {
     "is_this_ptr" : true,
     "referenced_type" : "_ZTIPN6google8protobuf11StringPieceE"
    }
   ],
   "return_type" : "_ZTIv",
   "source_file" : "external/protobuf/src/google/protobuf/stubs/stringpiece.h"
  },
  {
   "function_name" : "google::protobuf::StringPiece::StringPiece",
   "linker_set_key" : "_ZN6google8protobuf11StringPieceC2INSt3__19allocatorIcEEEERKNS3_12basic_stringIcNS3_11char_traitsIcEET_EE",
   "parameters" :
   [
    {
     "is_this_ptr" : true,
     "referenced_type" : "_ZTIPN6google8protobuf11StringPieceE"
    },
    {
     "referenced_type" : "_ZTIRKNSt3__112basic_stringIcNS_11char_traitsIcEENS_9allocatorIcEEEE"
    }
   ],
   "return_type" : "_ZTIv",
   "source_file" : "external/protobuf/src/google/protobuf/stubs/stringpiece.h",
   "template_args" : [ "_ZTINSt3__19allocatorIcEE" ]
  },
  {
   "function_name" : "google::protobuf::GOOGLE_UNALIGNED_LOAD16",
   "linker_set_key" : "_ZN6google8protobuf23GOOGLE_UNALIGNED_LOAD16EPKv",
   "parameters" :
   [
    {
     "referenced_type" : "_ZTIPKv"
    }
   ],
   "return_type" : "_ZTIt",
   "source_file" : "external/protobuf/src/google/protobuf/stubs/port.h"
  },
  {
   "function_name" : "google::protobuf::GOOGLE_UNALIGNED_LOAD32",
   "linker_set_key" : "_ZN6google8protobuf23GOOGLE_UNALIGNED_LOAD32EPKv",
   "parameters" :
   [
    {
     "referenced_type" : "_ZTIPKv"
    }
   ],
   "return_type" : "_ZTIj",
   "source_file" : "external/protobuf/src/google/protobuf/stubs/port.h"
  },
  {
   "function_name" : "google::protobuf::GOOGLE_UNALIGNED_LOAD64",
   "linker_set_key" : "_ZN6google8protobuf23GOOGLE_UNALIGNED_LOAD64EPKv",
   "parameters" :
   [
    {
     "referenced_type" : "_ZTIPKv"
    }
   ],
   "return_type" : "_ZTIm",
   "source_file" : "external/protobuf/src/google/protobuf/stubs/port.h"
  },
  {
   "function_name" : "google::protobuf::GOOGLE_UNALIGNED_STORE16",
   "linker_set_key" : "_ZN6google8protobuf24GOOGLE_UNALIGNED_STORE16EPvt",
   "parameters" :
   [
    {
     "referenced_type" : "_ZTIPv"
    },
    {
     "referenced_type" : "_ZTIt"
    }
   ],
   "return_type" : "_ZTIv",
   "source_file" : "external/protobuf/src/google/protobuf/stubs/port.h"
  },
  {
   "function_name" : "google::protobuf::GOOGLE_UNALIGNED_STORE32",
   "linker_set_key" : "_ZN6google8protobuf24GOOGLE_UNALIGNED_STORE32EPvj",
   "parameters" :
   [
    {
     "referenced_type" : "_ZTIPv"
    },
    {
     "referenced_type" : "_ZTIj"
    }
   ],
   "return_type" : "_ZTIv",
   "source_file" : "external/protobuf/src/google/protobuf/stubs/port.h"
  },
  {
   "function_name" : "google::protobuf::GOOGLE_UNALIGNED_STORE64",
   "linker_set_key" : "_ZN6google8protobuf24GOOGLE_UNALIGNED_STORE64EPvm",
   "parameters" :
   [
    {
     "referenced_type" : "_ZTIPv"
    },
    {
     "referenced_type" : "_ZTIm"
    }
   ],
   "return_type" : "_ZTIv",
   "source_file" : "external/protobuf/src/google/protobuf/stubs/port.h"
  },
  {
   "function_name" : "google::protobuf::Bits::Log2FloorNonZero",
   "linker_set_key" : "_ZN6google8protobuf4Bits16Log2FloorNonZeroEj",
   "parameters" :
   [
    {
     "referenced_type" : "_ZTIj"
    }
   ],
   "return_type" : "_ZTIj",
   "source_file" : "external/protobuf/src/google/protobuf/stubs/port.h"
  },
  {
   "function_name" : "google::protobuf::Bits::Log2FloorNonZero64",
   "linker_set_key" : "_ZN6google8protobuf4Bits18Log2FloorNonZero64Em",
   "parameters" :
   [
    {
     "referenced_type" : "_ZTIm"
    }
   ],
   "return_type" : "_ZTIj",
   "source_file" : "external/protobuf/src/google/protobuf/stubs/port.h"
  },
  {
   "access" : "private",
   "function_name" : "google::protobuf::Bits::Log2FloorNonZero_Portable",
   "linker_set_key" : "_ZN6google8protobuf4Bits25Log2FloorNonZero_PortableEj",
   "parameters" :
   [
    {
     "referenced_type" : "_ZTIj"
    }
   ],
   "return_type" : "_ZTIi",
   "source_file" : "external/protobuf/src/google/protobuf/stubs/port.h"
  },
  {
   "access" : "private",
   "function_name" : "google::protobuf::Bits::Log2FloorNonZero64_Portable",
   "linker_set_key" : "_ZN6google8protobuf4Bits27Log2FloorNonZero64_PortableEm",
   "parameters" :
   [
    {
     "referenced_type" : "_ZTIm"
    }
   ],
   "return_type" : "_ZTIi",
   "source_file" : "external/protobuf/src/google/protobuf/stubs/port.h"
  },
  {
   "function_name" : "google::protobuf::util::Status::Status",
   "linker_set_key" : "_ZN6google8protobuf4util6StatusC1ENS1_5error4CodeENS0_11StringPieceE",
   "parameters" :
   [
    {
     "is_this_ptr" : true,
     "referenced_type" : "_ZTIPN6google8protobuf4util6StatusE"
    },
    {
     "referenced_type" : "_ZTIN6google8protobuf4util5error4CodeE"
    },
    {
     "referenced_type" : "_ZTIN6google8protobuf11StringPieceE"
    }
   ],
   "return_type" : "_ZTIv",
   "source_file" : "external/protobuf/src/google/protobuf/stubs/status.h"
  },
  {
   "function_name" : "google::protobuf::util::Status::Status",
   "linker_set_key" : "_ZN6google8protobuf4util6StatusC1ERKS2_",
   "parameters" :
   [
    {
     "is_this_ptr" : true,
     "referenced_type" : "_ZTIPN6google8protobuf4util6StatusE"
    },
    {
     "referenced_type" : "_ZTIRKN6google8protobuf4util6StatusE"
    }
   ],
   "return_type" : "_ZTIv",
   "source_file" : "external/protobuf/src/google/protobuf/stubs/status.h"
  },
  {
   "function_name" : "google::protobuf::util::Status::Status",
   "linker_set_key" : "_ZN6google8protobuf4util6StatusC1Ev",
   "parameters" :
   [
    {
     "is_this_ptr" : true,
     "referenced_type" : "_ZTIPN6google8protobuf4util6StatusE"
    }
   ],
   "return_type" : "_ZTIv",
   "source_file" : "external/protobuf/src/google/protobuf/stubs/status.h"
  },
  {
   "function_name" : "google::protobuf::util::Status::Status",
   "linker_set_key" : "_ZN6google8protobuf4util6StatusC2ENS1_5error4CodeENS0_11StringPieceE",
   "parameters" :
   [
    {
     "is_this_ptr" : true,
     "referenced_type" : "_ZTIPN6google8protobuf4util6StatusE"
    },
    {
     "referenced_type" : "_ZTIN6google8protobuf4util5error4CodeE"
    },
    {
     "referenced_type" : "_ZTIN6google8protobuf11StringPieceE"
    }
   ],
   "return_type" : "_ZTIv",
   "source_file" : "external/protobuf/src/google/protobuf/stubs/status.h"
  },
  {
   "function_name" : "google::protobuf::util::Status::Status",
   "linker_set_key" : "_ZN6google8protobuf4util6StatusC2ERKS2_",
   "parameters" :
   [
    {
     "is_this_ptr" : true,
     "referenced_type" : "_ZTIPN6google8protobuf4util6StatusE"
    },
    {
     "referenced_type" : "_ZTIRKN6google8protobuf4util6StatusE"
    }
   ],
   "return_type" : "_ZTIv",
   "source_file" : "external/protobuf/src/google/protobuf/stubs/status.h"
  },
  {
   "function_name" : "google::protobuf::util::Status::Status",
   "linker_set_key" : "_ZN6google8protobuf4util6StatusC2Ev",
   "parameters" :
   [
    {
     "is_this_ptr" : true,
     "referenced_type" : "_ZTIPN6google8protobuf4util6StatusE"
    }
   ],
   "return_type" : "_ZTIv",
   "source_file" : "external/protobuf/src/google/protobuf/stubs/status.h"
  },
  {
   "function_name" : "google::protobuf::util::Status::~Status",
   "linker_set_key" : "_ZN6google8protobuf4util6StatusD1Ev",
   "parameters" :
   [
    {
     "is_this_ptr" : true,
     "referenced_type" : "_ZTIPN6google8protobuf4util6StatusE"
    }
   ],
   "return_type" : "_ZTIv",
   "source_file" : "external/protobuf/src/google/protobuf/stubs/status.h"
  },
  {
   "function_name" : "google::protobuf::util::Status::~Status",
   "linker_set_key" : "_ZN6google8protobuf4util6StatusD2Ev",
   "parameters" :
   [
    {
     "is_this_ptr" : true,
     "referenced_type" : "_ZTIPN6google8protobuf4util6StatusE"
    }
   ],
   "return_type" : "_ZTIv",
   "source_file" : "external/protobuf/src/google/protobuf/stubs/status.h"
  },
  {
   "function_name" : "google::protobuf::util::Status::operator=",
   "linker_set_key" : "_ZN6google8protobuf4util6StatusaSERKS2_",
   "parameters" :
   [
    {
     "is_this_ptr" : true,
     "referenced_type" : "_ZTIPN6google8protobuf4util6StatusE"
    },
    {
     "referenced_type" : "_ZTIRKN6google8protobuf4util6StatusE"
    }
   ],
   "return_type" : "_ZTIRN6google8protobuf4util6StatusE",
   "source_file" : "external/protobuf/src/google/protobuf/stubs/status.h"
  },
  {
   "function_name" : "google::protobuf::util::operator<<",
   "linker_set_key" : "_ZN6google8protobuf4utillsERNSt3__113basic_ostreamIcNS2_11char_traitsIcEEEERKNS1_6StatusE",
   "parameters" :
   [
    {
     "referenced_type" : "_ZTIRNSt3__113basic_ostreamIcNS_11char_traitsIcEEEE"
    },
    {
     "referenced_type" : "_ZTIRKN6google8protobuf4util6StatusE"
    }
   ],
   "return_type" : "_ZTIRNSt3__113basic_ostreamIcNS_11char_traitsIcEEEE",
   "source_file" : "external/protobuf/src/google/protobuf/stubs/status.h"
  },
  {
   "function_name" : "google::protobuf::internal::StringPiecePod::CreateFromStringPiece",
   "linker_set_key" : "_ZN6google8protobuf8internal14StringPiecePod21CreateFromStringPieceENS0_11StringPieceE",
   "parameters" :
   [
    {
     "referenced_type" : "_ZTIN6google8protobuf11StringPieceE"
    }
   ],
   "return_type" : "_ZTIN6google8protobuf8internal14StringPiecePodE",
   "source_file" : "external/protobuf/src/google/protobuf/stubs/stringpiece.h"
  },
  {
   "function_name" : "google::protobuf::internal::IsStructurallyValidUTF8",
   "linker_set_key" : "_ZN6google8protobuf8internal23IsStructurallyValidUTF8ERKNSt3__112basic_stringIcNS2_11char_traitsIcEENS2_9allocatorIcEEEE",
   "parameters" :
   [
    {
     "referenced_type" : "_ZTIRKNSt3__112basic_stringIcNS_11char_traitsIcEENS_9allocatorIcEEEE"
    }
   ],
   "return_type" : "_ZTIb",
   "source_file" : "external/protobuf/src/google/protobuf/stubs/common.h"
  },
  {
   "function_name" : "google::protobuf::BigEndian::FromHost16",
   "linker_set_key" : "_ZN6google8protobuf9BigEndian10FromHost16Et",
   "parameters" :
   [
    {
     "referenced_type" : "_ZTIt"
    }
   ],
   "return_type" : "_ZTIt",
   "source_file" : "external/protobuf/src/google/protobuf/stubs/port.h"
  },
  {
   "function_name" : "google::protobuf::BigEndian::FromHost32",
   "linker_set_key" : "_ZN6google8protobuf9BigEndian10FromHost32Ej",
   "parameters" :
   [
    {
     "referenced_type" : "_ZTIj"
    }
   ],
   "return_type" : "_ZTIj",
   "source_file" : "external/protobuf/src/google/protobuf/stubs/port.h"
  },
  {
   "function_name" : "google::protobuf::BigEndian::FromHost64",
   "linker_set_key" : "_ZN6google8protobuf9BigEndian10FromHost64Em",
   "parameters" :
   [
    {
     "referenced_type" : "_ZTIm"
    }
   ],
   "return_type" : "_ZTIm",
   "source_file" : "external/protobuf/src/google/protobuf/stubs/port.h"
  },
  {
   "function_name" : "google::protobuf::BigEndian::IsLittleEndian",
   "linker_set_key" : "_ZN6google8protobuf9BigEndian14IsLittleEndianEv",
   "return_type" : "_ZTIb",
   "source_file" : "external/protobuf/src/google/protobuf/stubs/port.h"
  },
  {
   "function_name" : "google::protobuf::BigEndian::Load16",
   "linker_set_key" : "_ZN6google8protobuf9BigEndian6Load16EPKv",
   "parameters" :
   [
    {
     "referenced_type" : "_ZTIPKv"
    }
   ],
   "return_type" : "_ZTIt",
   "source_file" : "external/protobuf/src/google/protobuf/stubs/port.h"
  },
  {
   "function_name" : "google::protobuf::BigEndian::Load32",
   "linker_set_key" : "_ZN6google8protobuf9BigEndian6Load32EPKv",
   "parameters" :
   [
    {
     "referenced_type" : "_ZTIPKv"
    }
   ],
   "return_type" : "_ZTIj",
   "source_file" : "external/protobuf/src/google/protobuf/stubs/port.h"
  },
  {
   "function_name" : "google::protobuf::BigEndian::Load64",
   "linker_set_key" : "_ZN6google8protobuf9BigEndian6Load64EPKv",
   "parameters" :
   [
    {
     "referenced_type" : "_ZTIPKv"
    }
   ],
   "return_type" : "_ZTIm",
   "source_file" : "external/protobuf/src/google/protobuf/stubs/port.h"
  },
  {
   "function_name" : "google::protobuf::BigEndian::Store16",
   "linker_set_key" : "_ZN6google8protobuf9BigEndian7Store16EPvt",
   "parameters" :
   [
    {
     "referenced_type" : "_ZTIPv"
    },
    {
     "referenced_type" : "_ZTIt"
    }
   ],
   "return_type" : "_ZTIv",
   "source_file" : "external/protobuf/src/google/protobuf/stubs/port.h"
  },
  {
   "function_name" : "google::protobuf::BigEndian::Store32",
   "linker_set_key" : "_ZN6google8protobuf9BigEndian7Store32EPvj",
   "parameters" :
   [
    {
     "referenced_type" : "_ZTIPv"
    },
    {
     "referenced_type" : "_ZTIj"
    }
   ],
   "return_type" : "_ZTIv",
   "source_file" : "external/protobuf/src/google/protobuf/stubs/port.h"
  },
  {
   "function_name" : "google::protobuf::BigEndian::Store64",
   "linker_set_key" : "_ZN6google8protobuf9BigEndian7Store64EPvm",
   "parameters" :
   [
    {
     "referenced_type" : "_ZTIPv"
    },
    {
     "referenced_type" : "_ZTIm"
    }
   ],
   "return_type" : "_ZTIv",
   "source_file" : "external/protobuf/src/google/protobuf/stubs/port.h"
  },
  {
   "function_name" : "google::protobuf::BigEndian::ToHost16",
   "linker_set_key" : "_ZN6google8protobuf9BigEndian8ToHost16Et",
   "parameters" :
   [
    {
     "referenced_type" : "_ZTIt"
    }
   ],
   "return_type" : "_ZTIt",
   "source_file" : "external/protobuf/src/google/protobuf/stubs/port.h"
  },
  {
   "function_name" : "google::protobuf::BigEndian::ToHost32",
   "linker_set_key" : "_ZN6google8protobuf9BigEndian8ToHost32Ej",
   "parameters" :
   [
    {
     "referenced_type" : "_ZTIj"
    }
   ],
   "return_type" : "_ZTIj",
   "source_file" : "external/protobuf/src/google/protobuf/stubs/port.h"
  },
  {
   "function_name" : "google::protobuf::BigEndian::ToHost64",
   "linker_set_key" : "_ZN6google8protobuf9BigEndian8ToHost64Em",
   "parameters" :
   [
    {
     "referenced_type" : "_ZTIm"
    }
   ],
   "return_type" : "_ZTIm",
   "source_file" : "external/protobuf/src/google/protobuf/stubs/port.h"
  },
  {
   "function_name" : "google::protobuf::operator==",
   "linker_set_key" : "_ZN6google8protobufeqENS0_11StringPieceES1_",
   "parameters" :
   [
    {
     "referenced_type" : "_ZTIN6google8protobuf11StringPieceE"
    },
    {
     "referenced_type" : "_ZTIN6google8protobuf11StringPieceE"
    }
   ],
   "return_type" : "_ZTIb",
   "source_file" : "external/protobuf/src/google/protobuf/stubs/stringpiece.h"
  },
  {
   "function_name" : "google::protobuf::operator>=",
   "linker_set_key" : "_ZN6google8protobufgeENS0_11StringPieceES1_",
   "parameters" :
   [
    {
     "referenced_type" : "_ZTIN6google8protobuf11StringPieceE"
    },
    {
     "referenced_type" : "_ZTIN6google8protobuf11StringPieceE"
    }
   ],
   "return_type" : "_ZTIb",
   "source_file" : "external/protobuf/src/google/protobuf/stubs/stringpiece.h"
  },
  {
   "function_name" : "google::protobuf::operator>",
   "linker_set_key" : "_ZN6google8protobufgtENS0_11StringPieceES1_",
   "parameters" :
   [
    {
     "referenced_type" : "_ZTIN6google8protobuf11StringPieceE"
    },
    {
     "referenced_type" : "_ZTIN6google8protobuf11StringPieceE"
    }
   ],
   "return_type" : "_ZTIb",
   "source_file" : "external/protobuf/src/google/protobuf/stubs/stringpiece.h"
  },
  {
   "function_name" : "google::protobuf::operator<=",
   "linker_set_key" : "_ZN6google8protobufleENS0_11StringPieceES1_",
   "parameters" :
   [
    {
     "referenced_type" : "_ZTIN6google8protobuf11StringPieceE"
    },
    {
     "referenced_type" : "_ZTIN6google8protobuf11StringPieceE"
    }
   ],
   "return_type" : "_ZTIb",
   "source_file" : "external/protobuf/src/google/protobuf/stubs/stringpiece.h"
  },
  {
   "function_name" : "google::protobuf::operator<",
   "linker_set_key" : "_ZN6google8protobufltENS0_11StringPieceES1_",
   "parameters" :
   [
    {
     "referenced_type" : "_ZTIN6google8protobuf11StringPieceE"
    },
    {
     "referenced_type" : "_ZTIN6google8protobuf11StringPieceE"
    }
   ],
   "return_type" : "_ZTIb",
   "source_file" : "external/protobuf/src/google/protobuf/stubs/stringpiece.h"
  },
  {
   "function_name" : "google::protobuf::operator!=",
   "linker_set_key" : "_ZN6google8protobufneENS0_11StringPieceES1_",
   "parameters" :
   [
    {
     "referenced_type" : "_ZTIN6google8protobuf11StringPieceE"
    },
    {
     "referenced_type" : "_ZTIN6google8protobuf11StringPieceE"
    }
   ],
   "return_type" : "_ZTIb",
   "source_file" : "external/protobuf/src/google/protobuf/stubs/stringpiece.h"
  },
  {
   "function_name" : "google::protobuf::StringPiece::starts_with",
   "linker_set_key" : "_ZNK6google8protobuf11StringPiece11starts_withES1_",
   "parameters" :
   [
    {
     "is_this_ptr" : true,
     "referenced_type" : "_ZTIPKN6google8protobuf11StringPieceE"
    },
    {
     "referenced_type" : "_ZTIN6google8protobuf11StringPieceE"
    }
   ],
   "return_type" : "_ZTIb",
   "source_file" : "external/protobuf/src/google/protobuf/stubs/stringpiece.h"
  },
  {
   "function_name" : "google::protobuf::StringPiece::find_last_of",
   "linker_set_key" : "_ZNK6google8protobuf11StringPiece12find_last_ofEcm",
   "parameters" :
   [
    {
     "is_this_ptr" : true,
     "referenced_type" : "_ZTIPKN6google8protobuf11StringPieceE"
    },
    {
     "referenced_type" : "_ZTIc"
    },
    {
     "default_arg" : true,
     "referenced_type" : "_ZTIm"
    }
   ],
   "return_type" : "_ZTIl",
   "source_file" : "external/protobuf/src/google/protobuf/stubs/stringpiece.h"
  },
  {
   "function_name" : "google::protobuf::StringPiece::find_first_of",
   "linker_set_key" : "_ZNK6google8protobuf11StringPiece13find_first_ofEcm",
   "parameters" :
   [
    {
     "is_this_ptr" : true,
     "referenced_type" : "_ZTIPKN6google8protobuf11StringPieceE"
    },
    {
     "referenced_type" : "_ZTIc"
    },
    {
     "default_arg" : true,
     "referenced_type" : "_ZTIm"
    }
   ],
   "return_type" : "_ZTIl",
   "source_file" : "external/protobuf/src/google/protobuf/stubs/stringpiece.h"
  },
  {
   "function_name" : "google::protobuf::StringPiece::end",
   "linker_set_key" : "_ZNK6google8protobuf11StringPiece3endEv",
   "parameters" :
   [
    {
     "is_this_ptr" : true,
     "referenced_type" : "_ZTIPKN6google8protobuf11StringPieceE"
    }
   ],
   "return_type" : "_ZTIPKc",
   "source_file" : "external/protobuf/src/google/protobuf/stubs/stringpiece.h"
  },
  {
   "function_name" : "google::protobuf::StringPiece::data",
   "linker_set_key" : "_ZNK6google8protobuf11StringPiece4dataEv",
   "parameters" :
   [
    {
     "is_this_ptr" : true,
     "referenced_type" : "_ZTIPKN6google8protobuf11StringPieceE"
    }
   ],
   "return_type" : "_ZTIPKc",
   "source_file" : "external/protobuf/src/google/protobuf/stubs/stringpiece.h"
  },
  {
   "function_name" : "google::protobuf::StringPiece::rend",
   "linker_set_key" : "_ZNK6google8protobuf11StringPiece4rendEv",
   "parameters" :
   [
    {
     "is_this_ptr" : true,
     "referenced_type" : "_ZTIPKN6google8protobuf11StringPieceE"
    }
   ],
   "return_type" : "_ZTINSt3__116reverse_iteratorIPKcEE",
   "source_file" : "external/protobuf/src/google/protobuf/stubs/stringpiece.h"
  },
  {
   "function_name" : "google::protobuf::StringPiece::size",
   "linker_set_key" : "_ZNK6google8protobuf11StringPiece4sizeEv",
   "parameters" :
   [
    {
     "is_this_ptr" : true,
     "referenced_type" : "_ZTIPKN6google8protobuf11StringPieceE"
    }
   ],
   "return_type" : "_ZTIl",
   "source_file" : "external/protobuf/src/google/protobuf/stubs/stringpiece.h"
  },
  {
   "function_name" : "google::protobuf::StringPiece::begin",
   "linker_set_key" : "_ZNK6google8protobuf11StringPiece5beginEv",
   "parameters" :
   [
    {
     "is_this_ptr" : true,
     "referenced_type" : "_ZTIPKN6google8protobuf11StringPieceE"
    }
   ],
   "return_type" : "_ZTIPKc",
   "source_file" : "external/protobuf/src/google/protobuf/stubs/stringpiece.h"
  },
  {
   "function_name" : "google::protobuf::StringPiece::empty",
   "linker_set_key" : "_ZNK6google8protobuf11StringPiece5emptyEv",
   "parameters" :
   [
    {
     "is_this_ptr" : true,
     "referenced_type" : "_ZTIPKN6google8protobuf11StringPieceE"
    }
   ],
   "return_type" : "_ZTIb",
   "source_file" : "external/protobuf/src/google/protobuf/stubs/stringpiece.h"
  },
  {
   "function_name" : "google::protobuf::StringPiece::length",
   "linker_set_key" : "_ZNK6google8protobuf11StringPiece6lengthEv",
   "parameters" :
   [
    {
     "is_this_ptr" : true,
     "referenced_type" : "_ZTIPKN6google8protobuf11StringPieceE"
    }
   ],
   "return_type" : "_ZTIl",
   "source_file" : "external/protobuf/src/google/protobuf/stubs/stringpiece.h"
  },
  {
   "function_name" : "google::protobuf::StringPiece::rbegin",
   "linker_set_key" : "_ZNK6google8protobuf11StringPiece6rbeginEv",
   "parameters" :
   [
    {
     "is_this_ptr" : true,
     "referenced_type" : "_ZTIPKN6google8protobuf11StringPieceE"
    }
   ],
   "return_type" : "_ZTINSt3__116reverse_iteratorIPKcEE",
   "source_file" : "external/protobuf/src/google/protobuf/stubs/stringpiece.h"
  },
  {
   "function_name" : "google::protobuf::StringPiece::compare",
   "linker_set_key" : "_ZNK6google8protobuf11StringPiece7compareES1_",
   "parameters" :
   [
    {
     "is_this_ptr" : true,
     "referenced_type" : "_ZTIPKN6google8protobuf11StringPieceE"
    },
    {
     "referenced_type" : "_ZTIN6google8protobuf11StringPieceE"
    }
   ],
   "return_type" : "_ZTIi",
   "source_file" : "external/protobuf/src/google/protobuf/stubs/stringpiece.h"
  },
  {
   "function_name" : "google::protobuf::StringPiece::ToString",
   "linker_set_key" : "_ZNK6google8protobuf11StringPiece8ToStringEv",
   "parameters" :
   [
    {
     "is_this_ptr" : true,
     "referenced_type" : "_ZTIPKN6google8protobuf11StringPieceE"
    }
   ],
   "return_type" : "_ZTINSt3__112basic_stringIcNS_11char_traitsIcEENS_9allocatorIcEEEE",
   "source_file" : "external/protobuf/src/google/protobuf/stubs/stringpiece.h"
  },
  {
   "function_name" : "google::protobuf::StringPiece::capacity",
   "linker_set_key" : "_ZNK6google8protobuf11StringPiece8capacityEv",
   "parameters" :
   [
    {
     "is_this_ptr" : true,
     "referenced_type" : "_ZTIPKN6google8protobuf11StringPieceE"
    }
   ],
   "return_type" : "_ZTIl",
   "source_file" : "external/protobuf/src/google/protobuf/stubs/stringpiece.h"
  },
  {
   "function_name" : "google::protobuf::StringPiece::max_size",
   "linker_set_key" : "_ZNK6google8protobuf11StringPiece8max_sizeEv",
   "parameters" :
   [
    {
     "is_this_ptr" : true,
     "referenced_type" : "_ZTIPKN6google8protobuf11StringPieceE"
    }
   ],
   "return_type" : "_ZTIl",
   "source_file" : "external/protobuf/src/google/protobuf/stubs/stringpiece.h"
  },
  {
   "function_name" : "google::protobuf::StringPiece::as_string",
   "linker_set_key" : "_ZNK6google8protobuf11StringPiece9as_stringEv",
   "parameters" :
   [
    {
     "is_this_ptr" : true,
     "referenced_type" : "_ZTIPKN6google8protobuf11StringPieceE"
    }
   ],
   "return_type" : "_ZTINSt3__112basic_stringIcNS_11char_traitsIcEENS_9allocatorIcEEEE",
   "source_file" : "external/protobuf/src/google/protobuf/stubs/stringpiece.h"
  },
  {
   "function_name" : "google::protobuf::StringPiece::ends_with",
   "linker_set_key" : "_ZNK6google8protobuf11StringPiece9ends_withES1_",
   "parameters" :
   [
    {
     "is_this_ptr" : true,
     "referenced_type" : "_ZTIPKN6google8protobuf11StringPieceE"
    },
    {
     "referenced_type" : "_ZTIN6google8protobuf11StringPieceE"
    }
   ],
   "return_type" : "_ZTIb",
   "source_file" : "external/protobuf/src/google/protobuf/stubs/stringpiece.h"
  },
  {
   "function_name" : "google::protobuf::StringPiece::operator basic_string",
   "linker_set_key" : "_ZNK6google8protobuf11StringPiececvNSt3__112basic_stringIcNS2_11char_traitsIcEENS2_9allocatorIcEEEEEv",
   "parameters" :
   [
    {
     "is_this_ptr" : true,
     "referenced_type" : "_ZTIPKN6google8protobuf11StringPieceE"
    }
   ],
   "return_type" : "_ZTINSt3__112basic_stringIcNS_11char_traitsIcEENS_9allocatorIcEEEE",
   "source_file" : "external/protobuf/src/google/protobuf/stubs/stringpiece.h"
  },
  {
   "function_name" : "google::protobuf::StringPiece::operator[]",
   "linker_set_key" : "_ZNK6google8protobuf11StringPieceixEl",
   "parameters" :
   [
    {
     "is_this_ptr" : true,
     "referenced_type" : "_ZTIPKN6google8protobuf11StringPieceE"
    },
    {
     "referenced_type" : "_ZTIl"
    }
   ],
   "return_type" : "_ZTIc",
   "source_file" : "external/protobuf/src/google/protobuf/stubs/stringpiece.h"
  },
  {
   "function_name" : "google::protobuf::hash<google::protobuf::StringPiece>::operator()",
   "linker_set_key" : "_ZNK6google8protobuf4hashINS0_11StringPieceEEclERKS2_",
   "parameters" :
   [
    {
     "is_this_ptr" : true,
     "referenced_type" : "_ZTIPKN6google8protobuf4hashINS0_11StringPieceEEE"
    },
    {
     "referenced_type" : "_ZTIRKN6google8protobuf11StringPieceE"
    }
   ],
   "return_type" : "_ZTIm",
   "source_file" : "external/protobuf/src/google/protobuf/stubs/stringpiece.h"
  },
  {
   "function_name" : "google::protobuf::hash<std::__1::basic_string<char>>::operator()",
   "linker_set_key" : "_ZNK6google8protobuf4hashINSt3__112basic_stringIcNS2_11char_traitsIcEENS2_9allocatorIcEEEEEclERKS8_",
   "parameters" :
   [
    {
     "is_this_ptr" : true,
     "referenced_type" : "_ZTIPKN6google8protobuf4hashINSt3__112basic_stringIcNS2_11char_traitsIcEENS2_9allocatorIcEEEEEE"
    },
    {
     "referenced_type" : "_ZTIRKNSt3__112basic_stringIcNS_11char_traitsIcEENS_9allocatorIcEEEE"
    }
   ],
   "return_type" : "_ZTIm",
   "source_file" : "external/protobuf/src/google/protobuf/stubs/hash.h"
  },
  {
   "function_name" : "google::protobuf::hash<std::__1::basic_string<char>>::operator()",
   "linker_set_key" : "_ZNK6google8protobuf4hashINSt3__112basic_stringIcNS2_11char_traitsIcEENS2_9allocatorIcEEEEEclERKS8_SB_",
   "parameters" :
   [
    {
     "is_this_ptr" : true,
     "referenced_type" : "_ZTIPKN6google8protobuf4hashINSt3__112basic_stringIcNS2_11char_traitsIcEENS2_9allocatorIcEEEEEE"
    },
    {
     "referenced_type" : "_ZTIRKNSt3__112basic_stringIcNS_11char_traitsIcEENS_9allocatorIcEEEE"
    },
    {
     "referenced_type" : "_ZTIRKNSt3__112basic_stringIcNS_11char_traitsIcEENS_9allocatorIcEEEE"
    }
   ],
   "return_type" : "_ZTIb",
   "source_file" : "external/protobuf/src/google/protobuf/stubs/hash.h"
  },
  {
   "function_name" : "google::protobuf::hash<const char *>::operator()",
   "linker_set_key" : "_ZNK6google8protobuf4hashIPKcEclES3_",
   "parameters" :
   [
    {
     "is_this_ptr" : true,
     "referenced_type" : "_ZTIPKN6google8protobuf4hashIPKcEE"
    },
    {
     "referenced_type" : "_ZTIPKc"
    }
   ],
   "return_type" : "_ZTIm",
   "source_file" : "external/protobuf/src/google/protobuf/stubs/hash.h"
  },
  {
   "function_name" : "google::protobuf::hash<bool>::operator()",
   "linker_set_key" : "_ZNK6google8protobuf4hashIbEclEb",
   "parameters" :
   [
    {
     "is_this_ptr" : true,
     "referenced_type" : "_ZTIPKN6google8protobuf4hashIbEE"
    },
    {
     "referenced_type" : "_ZTIb"
    }
   ],
   "return_type" : "_ZTIm",
   "source_file" : "external/protobuf/src/google/protobuf/stubs/hash.h"
  },
  {
   "function_name" : "google::protobuf::util::Status::error_code",
   "linker_set_key" : "_ZNK6google8protobuf4util6Status10error_codeEv",
   "parameters" :
   [
    {
     "is_this_ptr" : true,
     "referenced_type" : "_ZTIPKN6google8protobuf4util6StatusE"
    }
   ],
   "return_type" : "_ZTIi",
   "source_file" : "external/protobuf/src/google/protobuf/stubs/status.h"
  },
  {
   "function_name" : "google::protobuf::util::Status::error_message",
   "linker_set_key" : "_ZNK6google8protobuf4util6Status13error_messageEv",
   "parameters" :
   [
    {
     "is_this_ptr" : true,
     "referenced_type" : "_ZTIPKN6google8protobuf4util6StatusE"
    }
   ],
   "return_type" : "_ZTIN6google8protobuf11StringPieceE",
   "source_file" : "external/protobuf/src/google/protobuf/stubs/status.h"
  },
  {
   "function_name" : "google::protobuf::util::Status::ok",
   "linker_set_key" : "_ZNK6google8protobuf4util6Status2okEv",
   "parameters" :
   [
    {
     "is_this_ptr" : true,
     "referenced_type" : "_ZTIPKN6google8protobuf4util6StatusE"
    }
   ],
   "return_type" : "_ZTIb",
   "source_file" : "external/protobuf/src/google/protobuf/stubs/status.h"
  },
  {
   "function_name" : "google::protobuf::util::Status::code",
   "linker_set_key" : "_ZNK6google8protobuf4util6Status4codeEv",
   "parameters" :
   [
    {
     "is_this_ptr" : true,
     "referenced_type" : "_ZTIPKN6google8protobuf4util6StatusE"
    }
   ],
   "return_type" : "_ZTIN6google8protobuf4util5error4CodeE",
   "source_file" : "external/protobuf/src/google/protobuf/stubs/status.h"
  },
  {
   "function_name" : "google::protobuf::util::Status::message",
   "linker_set_key" : "_ZNK6google8protobuf4util6Status7messageEv",
   "parameters" :
   [
    {
     "is_this_ptr" : true,
     "referenced_type" : "_ZTIPKN6google8protobuf4util6StatusE"
    }
   ],
   "return_type" : "_ZTIN6google8protobuf11StringPieceE",
   "source_file" : "external/protobuf/src/google/protobuf/stubs/status.h"
  },
  {
   "function_name" : "google::protobuf::util::Status::ToString",
   "linker_set_key" : "_ZNK6google8protobuf4util6Status8ToStringEv",
   "parameters" :
   [
    {
     "is_this_ptr" : true,
     "referenced_type" : "_ZTIPKN6google8protobuf4util6StatusE"
    }
   ],
   "return_type" : "_ZTINSt3__112basic_stringIcNS_11char_traitsIcEENS_9allocatorIcEEEE",
   "source_file" : "external/protobuf/src/google/protobuf/stubs/status.h"
  },
  {
   "function_name" : "google::protobuf::util::Status::operator==",
   "linker_set_key" : "_ZNK6google8protobuf4util6StatuseqERKS2_",
   "parameters" :
   [
    {
     "is_this_ptr" : true,
     "referenced_type" : "_ZTIPKN6google8protobuf4util6StatusE"
    },
    {
     "referenced_type" : "_ZTIRKN6google8protobuf4util6StatusE"
    }
   ],
   "return_type" : "_ZTIb",
   "source_file" : "external/protobuf/src/google/protobuf/stubs/status.h"
  },
  {
   "function_name" : "google::protobuf::util::Status::operator!=",
   "linker_set_key" : "_ZNK6google8protobuf4util6StatusneERKS2_",
   "parameters" :
   [
    {
     "is_this_ptr" : true,
     "referenced_type" : "_ZTIPKN6google8protobuf4util6StatusE"
    },
    {
     "referenced_type" : "_ZTIRKN6google8protobuf4util6StatusE"
    }
   ],
   "return_type" : "_ZTIb",
   "source_file" : "external/protobuf/src/google/protobuf/stubs/status.h"
  },
  {
   "function_name" : "google::protobuf::streq::operator()",
   "linker_set_key" : "_ZNK6google8protobuf5streqclEPKcS3_",
   "parameters" :
   [
    {
     "is_this_ptr" : true,
     "referenced_type" : "_ZTIPKN6google8protobuf5streqE"
    },
    {
     "referenced_type" : "_ZTIPKc"
    },
    {
     "referenced_type" : "_ZTIPKc"
    }
   ],
   "return_type" : "_ZTIb",
   "source_file" : "external/protobuf/src/google/protobuf/stubs/hash.h"
  },
  {
   "function_name" : "google::protobuf::internal::StringPiecePod::data",
   "linker_set_key" : "_ZNK6google8protobuf8internal14StringPiecePod4dataEv",
   "parameters" :
   [
    {
     "is_this_ptr" : true,
     "referenced_type" : "_ZTIPKN6google8protobuf8internal14StringPiecePodE"
    }
   ],
   "return_type" : "_ZTIPKc",
   "source_file" : "external/protobuf/src/google/protobuf/stubs/stringpiece.h"
  },
  {
   "function_name" : "google::protobuf::internal::StringPiecePod::size",
   "linker_set_key" : "_ZNK6google8protobuf8internal14StringPiecePod4sizeEv",
   "parameters" :
   [
    {
     "is_this_ptr" : true,
     "referenced_type" : "_ZTIPKN6google8protobuf8internal14StringPiecePodE"
    }
   ],
   "return_type" : "_ZTIl",
   "source_file" : "external/protobuf/src/google/protobuf/stubs/stringpiece.h"
  },
  {
   "function_name" : "google::protobuf::internal::StringPiecePod::ToString",
   "linker_set_key" : "_ZNK6google8protobuf8internal14StringPiecePod8ToStringEv",
   "parameters" :
   [
    {
     "is_this_ptr" : true,
     "referenced_type" : "_ZTIPKN6google8protobuf8internal14StringPiecePodE"
    }
   ],
   "return_type" : "_ZTINSt3__112basic_stringIcNS_11char_traitsIcEENS_9allocatorIcEEEE",
   "source_file" : "external/protobuf/src/google/protobuf/stubs/stringpiece.h"
  },
  {
   "function_name" : "google::protobuf::internal::StringPiecePod::operator StringPiece",
   "linker_set_key" : "_ZNK6google8protobuf8internal14StringPiecePodcvNS0_11StringPieceEEv",
   "parameters" :
   [
    {
     "is_this_ptr" : true,
     "referenced_type" : "_ZTIPKN6google8protobuf8internal14StringPiecePodE"
    }
   ],
   "return_type" : "_ZTIN6google8protobuf11StringPieceE",
   "source_file" : "external/protobuf/src/google/protobuf/stubs/stringpiece.h"
  },
  {
   "function_name" : "google::protobuf::internal::StringPiecePod::operator basic_string",
   "linker_set_key" : "_ZNK6google8protobuf8internal14StringPiecePodcvNSt3__112basic_stringIcNS3_11char_traitsIcEENS3_9allocatorIcEEEEEv",
   "parameters" :
   [
    {
     "is_this_ptr" : true,
     "referenced_type" : "_ZTIPKN6google8protobuf8internal14StringPiecePodE"
    }
   ],
   "return_type" : "_ZTINSt3__112basic_stringIcNS_11char_traitsIcEENS_9allocatorIcEEEE",
   "source_file" : "external/protobuf/src/google/protobuf/stubs/stringpiece.h"
  },
  {
   "function_name" : "google::protobuf::internal::StringPiecePod::operator==",
   "linker_set_key" : "_ZNK6google8protobuf8internal14StringPiecePodeqEPKc",
   "parameters" :
   [
    {
     "is_this_ptr" : true,
     "referenced_type" : "_ZTIPKN6google8protobuf8internal14StringPiecePodE"
    },
    {
     "referenced_type" : "_ZTIPKc"
    }
   ],
   "return_type" : "_ZTIb",
   "source_file" : "external/protobuf/src/google/protobuf/stubs/stringpiece.h"
  },
  {
   "function_name" : "google::protobuf::internal::StringPiecePod::operator[]",
   "linker_set_key" : "_ZNK6google8protobuf8internal14StringPiecePodixEl",
   "parameters" :
   [
    {
     "is_this_ptr" : true,
     "referenced_type" : "_ZTIPKN6google8protobuf8internal14StringPiecePodE"
    },
    {
     "referenced_type" : "_ZTIl"
    }
   ],
   "return_type" : "_ZTIc",
   "source_file" : "external/protobuf/src/google/protobuf/stubs/stringpiece.h"
  }
 ],
 "global_vars" :
 [
  {
   "linker_set_key" : "_ZN6google8protobuf11StringPiece4nposE",
   "name" : "google::protobuf::StringPiece::npos",
   "referenced_type" : "_ZTIKm",
   "source_file" : "external/protobuf/src/google/protobuf/stubs/stringpiece.h"
  },
  {
   "linker_set_key" : "_ZN6google8protobuf4hashINSt3__112basic_stringIcNS2_11char_traitsIcEENS2_9allocatorIcEEEEE11bucket_sizeE",
   "name" : "google::protobuf::hash<std::__1::basic_string<char>>::bucket_size",
   "referenced_type" : "_ZTIKm",
   "source_file" : "external/protobuf/src/google/protobuf/stubs/hash.h"
  },
  {
   "linker_set_key" : "_ZN6google8protobuf4hashINSt3__112basic_stringIcNS2_11char_traitsIcEENS2_9allocatorIcEEEEE11min_bucketsE",
   "name" : "google::protobuf::hash<std::__1::basic_string<char>>::min_buckets",
   "referenced_type" : "_ZTIKm",
   "source_file" : "external/protobuf/src/google/protobuf/stubs/hash.h"
  },
  {
   "linker_set_key" : "_ZN6google8protobuf4hashINSt3__14pairIT_T0_EEE11bucket_sizeE",
   "name" : "google::protobuf::hash<pair<type-parameter-0-0, type-parameter-0-1>>::bucket_size",
   "referenced_type" : "_ZTIKm",
   "source_file" : "external/protobuf/src/google/protobuf/stubs/hash.h"
  },
  {
   "linker_set_key" : "_ZN6google8protobuf4hashINSt3__14pairIT_T0_EEE11min_bucketsE",
   "name" : "google::protobuf::hash<pair<type-parameter-0-0, type-parameter-0-1>>::min_buckets",
   "referenced_type" : "_ZTIKm",
   "source_file" : "external/protobuf/src/google/protobuf/stubs/hash.h"
  },
  {
   "linker_set_key" : "_ZN6google8protobuf4util6Status2OKE",
   "name" : "google::protobuf::util::Status::OK",
   "referenced_type" : "_ZTIKN6google8protobuf4util6StatusE",
   "source_file" : "external/protobuf/src/google/protobuf/stubs/status.h"
  },
  {
   "linker_set_key" : "_ZN6google8protobuf4util6Status7UNKNOWNE",
   "name" : "google::protobuf::util::Status::UNKNOWN",
   "referenced_type" : "_ZTIKN6google8protobuf4util6StatusE",
   "source_file" : "external/protobuf/src/google/protobuf/stubs/status.h"
  },
  {
   "linker_set_key" : "_ZN6google8protobuf4util6Status9CANCELLEDE",
   "name" : "google::protobuf::util::Status::CANCELLED",
   "referenced_type" : "_ZTIKN6google8protobuf4util6StatusE",
   "source_file" : "external/protobuf/src/google/protobuf/stubs/status.h"
  },
  {
   "linker_set_key" : "_ZN6google8protobuf8internalL26kMinHeaderVersionForProtocE",
   "name" : "google::protobuf::internal::kMinHeaderVersionForProtoc",
   "referenced_type" : "_ZTIKi",
   "source_file" : "external/protobuf/src/google/protobuf/stubs/common.h"
  },
  {
   "linker_set_key" : "_ZN6google8protobuf8internalL27kMinHeaderVersionForLibraryE",
   "name" : "google::protobuf::internal::kMinHeaderVersionForLibrary",
   "referenced_type" : "_ZTIKi",
   "source_file" : "external/protobuf/src/google/protobuf/stubs/common.h"
  },
  {
   "linker_set_key" : "_ZN6google8protobufL10kuint32maxE",
   "name" : "google::protobuf::kuint32max",
   "referenced_type" : "_ZTIKj",
   "source_file" : "external/protobuf/src/google/protobuf/stubs/port.h"
  },
  {
   "linker_set_key" : "_ZN6google8protobufL10kuint64maxE",
   "name" : "google::protobuf::kuint64max",
   "referenced_type" : "_ZTIKm",
   "source_file" : "external/protobuf/src/google/protobuf/stubs/port.h"
  },
  {
   "linker_set_key" : "_ZN6google8protobufL9kint32maxE",
   "name" : "google::protobuf::kint32max",
   "referenced_type" : "_ZTIKi",
   "source_file" : "external/protobuf/src/google/protobuf/stubs/port.h"
  },
  {
   "linker_set_key" : "_ZN6google8protobufL9kint32minE",
   "name" : "google::protobuf::kint32min",
   "referenced_type" : "_ZTIKi",
   "source_file" : "external/protobuf/src/google/protobuf/stubs/port.h"
  },
  {
   "linker_set_key" : "_ZN6google8protobufL9kint64maxE",
   "name" : "google::protobuf::kint64max",
   "referenced_type" : "_ZTIKl",
   "source_file" : "external/protobuf/src/google/protobuf/stubs/port.h"
  },
  {
   "linker_set_key" : "_ZN6google8protobufL9kint64minE",
   "name" : "google::protobuf::kint64min",
   "referenced_type" : "_ZTIKl",
   "source_file" : "external/protobuf/src/google/protobuf/stubs/port.h"
  }
 ],
 "lvalue_reference_types" :
 [
  {
   "alignment" : 8,
   "linker_set_key" : "_ZTIRKN6google8protobuf11StringPieceE",
   "name" : "const google::protobuf::StringPiece &",
   "referenced_type" : "_ZTIKN6google8protobuf11StringPieceE",
   "self_type" : "_ZTIRKN6google8protobuf11StringPieceE",
   "size" : 8,
   "source_file" : "external/protobuf/src/google/protobuf/stubs/stringpiece.h"
  },
  {
   "alignment" : 8,
   "linker_set_key" : "_ZTIRKN6google8protobuf4util6StatusE",
   "name" : "const google::protobuf::util::Status &",
   "referenced_type" : "_ZTIKN6google8protobuf4util6StatusE",
   "self_type" : "_ZTIRKN6google8protobuf4util6StatusE",
   "size" : 8,
   "source_file" : "external/protobuf/src/google/protobuf/stubs/status.h"
  },
  {
   "alignment" : 8,
   "linker_set_key" : "_ZTIRKNSt3__112basic_stringIcNS_11char_traitsIcEENS_9allocatorIcEEEE",
   "name" : "const std::basic_string<char, std::char_traits<char>, std::allocator<char>> &",
   "referenced_type" : "_ZTIKNSt3__112basic_stringIcNS_11char_traitsIcEENS_9allocatorIcEEEE",
   "self_type" : "_ZTIRKNSt3__112basic_stringIcNS_11char_traitsIcEENS_9allocatorIcEEEE",
   "size" : 8,
   "source_file" : "external/protobuf/src/google/protobuf/stubs/common.h"
  },
  {
   "alignment" : 8,
   "linker_set_key" : "_ZTIRN6google8protobuf4util6StatusE",
   "name" : "google::protobuf::util::Status &",
   "referenced_type" : "_ZTIN6google8protobuf4util6StatusE",
   "self_type" : "_ZTIRN6google8protobuf4util6StatusE",
   "size" : 8,
   "source_file" : "external/protobuf/src/google/protobuf/stubs/status.h"
  },
  {
   "alignment" : 8,
   "linker_set_key" : "_ZTIRNSt3__113basic_ostreamIcNS_11char_traitsIcEEEE",
   "name" : "std::basic_ostream<char, std::char_traits<char>> &",
   "referenced_type" : "_ZTINSt3__113basic_ostreamIcNS_11char_traitsIcEEEE",
   "self_type" : "_ZTIRNSt3__113basic_ostreamIcNS_11char_traitsIcEEEE",
   "size" : 8,
   "source_file" : "external/protobuf/src/google/protobuf/stubs/status.h"
  }
 ],
 "pointer_types" :
 [
  {
   "alignment" : 8,
   "linker_set_key" : "_ZTIPKN6google8protobuf11StringPieceE",
   "name" : "const google::protobuf::StringPiece *",
   "referenced_type" : "_ZTIKN6google8protobuf11StringPieceE",
   "self_type" : "_ZTIPKN6google8protobuf11StringPieceE",
   "size" : 8,
   "source_file" : "external/protobuf/src/google/protobuf/stubs/stringpiece.h"
  },
  {
   "alignment" : 8,
   "linker_set_key" : "_ZTIPKN6google8protobuf4hashINS0_11StringPieceEEE",
   "name" : "const google::protobuf::hash<google::protobuf::StringPiece> *",
   "referenced_type" : "_ZTIKN6google8protobuf4hashINS0_11StringPieceEEE",
   "self_type" : "_ZTIPKN6google8protobuf4hashINS0_11StringPieceEEE",
   "size" : 8,
   "source_file" : "external/protobuf/src/google/protobuf/stubs/stringpiece.h"
  },
  {
   "alignment" : 8,
   "linker_set_key" : "_ZTIPKN6google8protobuf4hashINSt3__112basic_stringIcNS2_11char_traitsIcEENS2_9allocatorIcEEEEEE",
   "name" : "const google::protobuf::hash<std::basic_string<char, std::char_traits<char>, std::allocator<char>>> *",
   "referenced_type" : "_ZTIKN6google8protobuf4hashINSt3__112basic_stringIcNS2_11char_traitsIcEENS2_9allocatorIcEEEEEE",
   "self_type" : "_ZTIPKN6google8protobuf4hashINSt3__112basic_stringIcNS2_11char_traitsIcEENS2_9allocatorIcEEEEEE",
   "size" : 8,
   "source_file" : "external/protobuf/src/google/protobuf/stubs/hash.h"
  },
  {
   "alignment" : 8,
   "linker_set_key" : "_ZTIPKN6google8protobuf4hashIPKcEE",
   "name" : "const google::protobuf::hash<const char *> *",
   "referenced_type" : "_ZTIKN6google8protobuf4hashIPKcEE",
   "self_type" : "_ZTIPKN6google8protobuf4hashIPKcEE",
   "size" : 8,
   "source_file" : "external/protobuf/src/google/protobuf/stubs/hash.h"
  },
  {
   "alignment" : 8,
   "linker_set_key" : "_ZTIPKN6google8protobuf4hashIbEE",
   "name" : "const google::protobuf::hash<bool> *",
   "referenced_type" : "_ZTIKN6google8protobuf4hashIbEE",
   "self_type" : "_ZTIPKN6google8protobuf4hashIbEE",
   "size" : 8,
   "source_file" : "external/protobuf/src/google/protobuf/stubs/hash.h"
  },
  {
   "alignment" : 8,
   "linker_set_key" : "_ZTIPKN6google8protobuf4util6StatusE",
   "name" : "const google::protobuf::util::Status *",
   "referenced_type" : "_ZTIKN6google8protobuf4util6StatusE",
   "self_type" : "_ZTIPKN6google8protobuf4util6StatusE",
   "size" : 8,
   "source_file" : "external/protobuf/src/google/protobuf/stubs/status.h"
  },
  {
   "alignment" : 8,
   "linker_set_key" : "_ZTIPKN6google8protobuf5streqE",
   "name" : "const google::protobuf::streq *",
   "referenced_type" : "_ZTIKN6google8protobuf5streqE",
   "self_type" : "_ZTIPKN6google8protobuf5streqE",
   "size" : 8,
   "source_file" : "external/protobuf/src/google/protobuf/stubs/hash.h"
  },
  {
   "alignment" : 8,
   "linker_set_key" : "_ZTIPKN6google8protobuf8internal14StringPiecePodE",
   "name" : "const google::protobuf::internal::StringPiecePod *",
   "referenced_type" : "_ZTIKN6google8protobuf8internal14StringPiecePodE",
   "self_type" : "_ZTIPKN6google8protobuf8internal14StringPiecePodE",
   "size" : 8,
   "source_file" : "external/protobuf/src/google/protobuf/stubs/stringpiece.h"
  },
  {
   "alignment" : 8,
   "linker_set_key" : "_ZTIPKc",
   "name" : "const char *",
   "referenced_type" : "_ZTIKc",
   "self_type" : "_ZTIPKc",
   "size" : 8,
   "source_file" : "external/protobuf/src/google/protobuf/stubs/hash.h"
  },
  {
   "alignment" : 8,
   "linker_set_key" : "_ZTIPKv",
   "name" : "const void *",
   "referenced_type" : "_ZTIKv",
   "self_type" : "_ZTIPKv",
   "size" : 8,
   "source_file" : "external/protobuf/src/google/protobuf/stubs/port.h"
  },
  {
   "alignment" : 8,
   "linker_set_key" : "_ZTIPN6google8protobuf11StringPieceE",
   "name" : "google::protobuf::StringPiece *",
   "referenced_type" : "_ZTIN6google8protobuf11StringPieceE",
   "self_type" : "_ZTIPN6google8protobuf11StringPieceE",
   "size" : 8,
   "source_file" : "external/protobuf/src/google/protobuf/stubs/stringpiece.h"
  },
  {
   "alignment" : 8,
   "linker_set_key" : "_ZTIPN6google8protobuf4util6StatusE",
   "name" : "google::protobuf::util::Status *",
   "referenced_type" : "_ZTIN6google8protobuf4util6StatusE",
   "self_type" : "_ZTIPN6google8protobuf4util6StatusE",
   "size" : 8,
   "source_file" : "external/protobuf/src/google/protobuf/stubs/status.h"
  },
  {
   "alignment" : 8,
   "linker_set_key" : "_ZTIPv",
   "name" : "void *",
   "referenced_type" : "_ZTIv",
   "self_type" : "_ZTIPv",
   "size" : 8,
   "source_file" : "external/protobuf/src/google/protobuf/stubs/port.h"
  }
 ],
 "qualified_types" :
 [
  {
   "alignment" : 8,
   "is_const" : true,
   "linker_set_key" : "_ZTIKN6google8protobuf11StringPieceE",
   "name" : "const google::protobuf::StringPiece",
   "referenced_type" : "_ZTIN6google8protobuf11StringPieceE",
   "self_type" : "_ZTIKN6google8protobuf11StringPieceE",
   "size" : 16,
   "source_file" : "external/protobuf/src/google/protobuf/stubs/stringpiece.h"
  },
  {
   "alignment" : 1,
   "is_const" : true,
   "linker_set_key" : "_ZTIKN6google8protobuf4hashINS0_11StringPieceEEE",
   "name" : "const google::protobuf::hash<google::protobuf::StringPiece>",
   "referenced_type" : "_ZTIN6google8protobuf4hashINS0_11StringPieceEEE",
   "self_type" : "_ZTIKN6google8protobuf4hashINS0_11StringPieceEEE",
   "size" : 1,
   "source_file" : "external/protobuf/src/google/protobuf/stubs/stringpiece.h"
  },
  {
   "alignment" : 1,
   "is_const" : true,
   "linker_set_key" : "_ZTIKN6google8protobuf4hashINSt3__112basic_stringIcNS2_11char_traitsIcEENS2_9allocatorIcEEEEEE",
   "name" : "const google::protobuf::hash<std::basic_string<char, std::char_traits<char>, std::allocator<char>>>",
   "referenced_type" : "_ZTIN6google8protobuf4hashINSt3__112basic_stringIcNS2_11char_traitsIcEENS2_9allocatorIcEEEEEE",
   "self_type" : "_ZTIKN6google8protobuf4hashINSt3__112basic_stringIcNS2_11char_traitsIcEENS2_9allocatorIcEEEEEE",
   "size" : 1,
   "source_file" : "external/protobuf/src/google/protobuf/stubs/hash.h"
  },
  {
   "alignment" : 1,
   "is_const" : true,
   "linker_set_key" : "_ZTIKN6google8protobuf4hashIPKcEE",
   "name" : "const google::protobuf::hash<const char *>",
   "referenced_type" : "_ZTIN6google8protobuf4hashIPKcEE",
   "self_type" : "_ZTIKN6google8protobuf4hashIPKcEE",
   "size" : 1,
   "source_file" : "external/protobuf/src/google/protobuf/stubs/hash.h"
  },
  {
   "alignment" : 1,
   "is_const" : true,
   "linker_set_key" : "_ZTIKN6google8protobuf4hashIbEE",
   "name" : "const google::protobuf::hash<bool>",
   "referenced_type" : "_ZTIN6google8protobuf4hashIbEE",
   "self_type" : "_ZTIKN6google8protobuf4hashIbEE",
   "size" : 1,
   "source_file" : "external/protobuf/src/google/protobuf/stubs/hash.h"
  },
  {
   "alignment" : 8,
   "is_const" : true,
   "linker_set_key" : "_ZTIKN6google8protobuf4util6StatusE",
   "name" : "const google::protobuf::util::Status",
   "referenced_type" : "_ZTIN6google8protobuf4util6StatusE",
   "self_type" : "_ZTIKN6google8protobuf4util6StatusE",
   "size" : 32,
   "source_file" : "external/protobuf/src/google/protobuf/stubs/status.h"
  },
  {
   "alignment" : 1,
   "is_const" : true,
   "linker_set_key" : "_ZTIKN6google8protobuf5streqE",
   "name" : "const google::protobuf::streq",
   "referenced_type" : "_ZTIN6google8protobuf5streqE",
   "self_type" : "_ZTIKN6google8protobuf5streqE",
   "size" : 1,
   "source_file" : "external/protobuf/src/google/protobuf/stubs/hash.h"
  },
  {
   "alignment" : 8,
   "is_const" : true,
   "linker_set_key" : "_ZTIKN6google8protobuf8internal14StringPiecePodE",
   "name" : "const google::protobuf::internal::StringPiecePod",
   "referenced_type" : "_ZTIN6google8protobuf8internal14StringPiecePodE",
   "self_type" : "_ZTIKN6google8protobuf8internal14StringPiecePodE",
   "size" : 16,
   "source_file" : "external/protobuf/src/google/protobuf/stubs/stringpiece.h"
  },
  {
   "alignment" : 8,
   "is_const" : true,
   "linker_set_key" : "_ZTIKNSt3__112basic_stringIcNS_11char_traitsIcEENS_9allocatorIcEEEE",
   "name" : "const std::basic_string<char, std::char_traits<char>, std::allocator<char>>",
   "referenced_type" : "_ZTINSt3__112basic_stringIcNS_11char_traitsIcEENS_9allocatorIcEEEE",
   "self_type" : "_ZTIKNSt3__112basic_stringIcNS_11char_traitsIcEENS_9allocatorIcEEEE",
   "size" : 24,
   "source_file" : "external/protobuf/src/google/protobuf/stubs/common.h"
  },
  {
   "alignment" : 1,
   "is_const" : true,
   "linker_set_key" : "_ZTIKc",
   "name" : "const char",
   "referenced_type" : "_ZTIc",
   "self_type" : "_ZTIKc",
   "size" : 1,
   "source_file" : "external/protobuf/src/google/protobuf/stubs/hash.h"
  },
  {
   "alignment" : 4,
   "is_const" : true,
   "linker_set_key" : "_ZTIKi",
   "name" : "const int",
   "referenced_type" : "_ZTIi",
   "self_type" : "_ZTIKi",
   "size" : 4,
   "source_file" : "external/protobuf/src/google/protobuf/stubs/port.h"
  },
  {
   "alignment" : 4,
   "is_const" : true,
   "linker_set_key" : "_ZTIKj",
   "name" : "const unsigned int",
   "referenced_type" : "_ZTIj",
   "self_type" : "_ZTIKj",
   "size" : 4,
   "source_file" : "external/protobuf/src/google/protobuf/stubs/port.h"
  },
  {
   "alignment" : 8,
   "is_const" : true,
   "linker_set_key" : "_ZTIKl",
   "name" : "const long",
   "referenced_type" : "_ZTIl",
   "self_type" : "_ZTIKl",
   "size" : 8,
   "source_file" : "external/protobuf/src/google/protobuf/stubs/port.h"
  },
  {
   "alignment" : 8,
   "is_const" : true,
   "linker_set_key" : "_ZTIKm",
   "name" : "const unsigned long",
   "referenced_type" : "_ZTIm",
   "self_type" : "_ZTIKm",
   "size" : 8,
   "source_file" : "external/protobuf/src/google/protobuf/stubs/port.h"
  },
  {
   "is_const" : true,
   "linker_set_key" : "_ZTIKv",
   "name" : "const void",
   "referenced_type" : "_ZTIv",
   "self_type" : "_ZTIKv",
   "source_file" : "external/protobuf/src/google/protobuf/stubs/port.h"
  }
 ],
 "record_types" :
 [
  {
   "alignment" : 8,
   "fields" :
   [
    {
     "access" : "private",
     "field_name" : "ptr_",
     "referenced_type" : "_ZTIPKc"
    },
    {
     "access" : "private",
     "field_name" : "length_",
     "field_offset" : 64,
     "referenced_type" : "_ZTIl"
    }
   ],
   "linker_set_key" : "_ZTIN6google8protobuf11StringPieceE",
   "name" : "google::protobuf::StringPiece",
   "record_kind" : "class",
   "referenced_type" : "_ZTIN6google8protobuf11StringPieceE",
   "self_type" : "_ZTIN6google8protobuf11StringPieceE",
   "size" : 16,
   "source_file" : "external/protobuf/src/google/protobuf/stubs/stringpiece.h"
  },
  {
   "alignment" : 1,
   "linker_set_key" : "_ZTIN6google8protobuf4BitsE",
   "name" : "google::protobuf::Bits",
   "record_kind" : "class",
   "referenced_type" : "_ZTIN6google8protobuf4BitsE",
   "self_type" : "_ZTIN6google8protobuf4BitsE",
   "size" : 1,
   "source_file" : "external/protobuf/src/google/protobuf/stubs/port.h"
  },
  {
   "alignment" : 1,
   "linker_set_key" : "_ZTIN6google8protobuf4hashINS0_11StringPieceEEE",
   "name" : "google::protobuf::hash<google::protobuf::StringPiece>",
   "referenced_type" : "_ZTIN6google8protobuf4hashINS0_11StringPieceEEE",
   "self_type" : "_ZTIN6google8protobuf4hashINS0_11StringPieceEEE",
   "size" : 1,
   "source_file" : "external/protobuf/src/google/protobuf/stubs/stringpiece.h",
   "template_args" : [ "_ZTIN6google8protobuf11StringPieceE" ]
  },
  {
   "alignment" : 1,
   "linker_set_key" : "_ZTIN6google8protobuf4hashINSt3__112basic_stringIcNS2_11char_traitsIcEENS2_9allocatorIcEEEEEE",
   "name" : "google::protobuf::hash<std::basic_string<char, std::char_traits<char>, std::allocator<char>>>",
   "referenced_type" : "_ZTIN6google8protobuf4hashINSt3__112basic_stringIcNS2_11char_traitsIcEENS2_9allocatorIcEEEEEE",
   "self_type" : "_ZTIN6google8protobuf4hashINSt3__112basic_stringIcNS2_11char_traitsIcEENS2_9allocatorIcEEEEEE",
   "size" : 1,
   "source_file" : "external/protobuf/src/google/protobuf/stubs/hash.h",
   "template_args" : [ "_ZTINSt3__112basic_stringIcNS_11char_traitsIcEENS_9allocatorIcEEEE" ]
  },
  {
   "alignment" : 1,
   "linker_set_key" : "_ZTIN6google8protobuf4hashIPKcEE",
   "name" : "google::protobuf::hash<const char *>",
   "referenced_type" : "_ZTIN6google8protobuf4hashIPKcEE",
   "self_type" : "_ZTIN6google8protobuf4hashIPKcEE",
   "size" : 1,
   "source_file" : "external/protobuf/src/google/protobuf/stubs/hash.h",
   "template_args" : [ "_ZTIPKc" ]
  },
  {
   "alignment" : 1,
   "linker_set_key" : "_ZTIN6google8protobuf4hashIbEE",
   "name" : "google::protobuf::hash<bool>",
   "referenced_type" : "_ZTIN6google8protobuf4hashIbEE",
   "self_type" : "_ZTIN6google8protobuf4hashIbEE",
   "size" : 1,
   "source_file" : "external/protobuf/src/google/protobuf/stubs/hash.h",
   "template_args" : [ "_ZTIb" ]
  },
  {
   "alignment" : 8,
   "fields" :
   [
    {
     "access" : "private",
     "field_name" : "error_code_",
     "referenced_type" : "_ZTIN6google8protobuf4util5error4CodeE"
    },
    {
     "access" : "private",
     "field_name" : "error_message_",
     "field_offset" : 64,
     "referenced_type" : "_ZTINSt3__112basic_stringIcNS_11char_traitsIcEENS_9allocatorIcEEEE"
    }
   ],
   "linker_set_key" : "_ZTIN6google8protobuf4util6StatusE",
   "name" : "google::protobuf::util::Status",
   "record_kind" : "class",
   "referenced_type" : "_ZTIN6google8protobuf4util6StatusE",
   "self_type" : "_ZTIN6google8protobuf4util6StatusE",
   "size" : 32,
   "source_file" : "external/protobuf/src/google/protobuf/stubs/status.h"
  },
  {
   "alignment" : 1,
   "linker_set_key" : "_ZTIN6google8protobuf5streqE",
   "name" : "google::protobuf::streq",
   "referenced_type" : "_ZTIN6google8protobuf5streqE",
   "self_type" : "_ZTIN6google8protobuf5streqE",
   "size" : 1,
   "source_file" : "external/protobuf/src/google/protobuf/stubs/hash.h"
  },
  {
   "alignment" : 8,
   "fields" :
   [
    {
     "access" : "private",
     "field_name" : "data_",
     "referenced_type" : "_ZTIPKc"
    },
    {
     "access" : "private",
     "field_name" : "size_",
     "field_offset" : 64,
     "referenced_type" : "_ZTIl"
    }
   ],
   "linker_set_key" : "_ZTIN6google8protobuf8internal14StringPiecePodE",
   "name" : "google::protobuf::internal::StringPiecePod",
   "referenced_type" : "_ZTIN6google8protobuf8internal14StringPiecePodE",
   "self_type" : "_ZTIN6google8protobuf8internal14StringPiecePodE",
   "size" : 16,
   "source_file" : "external/protobuf/src/google/protobuf/stubs/stringpiece.h"
  },
  {
   "alignment" : 1,
   "linker_set_key" : "_ZTIN6google8protobuf9BigEndianE",
   "name" : "google::protobuf::BigEndian",
   "record_kind" : "class",
   "referenced_type" : "_ZTIN6google8protobuf9BigEndianE",
   "self_type" : "_ZTIN6google8protobuf9BigEndianE",
   "size" : 1,
   "source_file" : "external/protobuf/src/google/protobuf/stubs/port.h"
  }
 ],
 "rvalue_reference_types" : []
}
