{
 "array_types" :
 [
  {
   "alignment" : 4,
   "linker_set_key" : "_ZTIA10_i",
   "name" : "int [10]",
   "referenced_type" : "_ZTIi",
   "self_type" : "_ZTIA10_i",
   "size" : 40,
   "source_file" : "bionic/libc/include/bits/pthread_types.h"
  },
  {
   "alignment" : 1,
   "linker_set_key" : "_ZTIA120_c",
   "name" : "char [120]",
   "referenced_type" : "_ZTIc",
   "self_type" : "_ZTIA120_c",
   "size" : 120,
   "source_file" : "bionic/libc/include/sys/ucontext.h"
  },
  {
   "alignment" : 4,
   "linker_set_key" : "_ZTIA12_i",
   "name" : "int [12]",
   "referenced_type" : "_ZTIi",
   "self_type" : "_ZTIA12_i",
   "size" : 48,
   "source_file" : "bionic/libc/include/bits/pthread_types.h"
  },
  {
   "alignment" : 4,
   "linker_set_key" : "_ZTIA14_i",
   "name" : "int [14]",
   "referenced_type" : "_ZTIi",
   "self_type" : "_ZTIA14_i",
   "size" : 56,
   "source_file" : "bionic/libc/include/bits/pthread_types.h"
  },
  {
   "alignment" : 1,
   "linker_set_key" : "_ZTIA16_c",
   "name" : "char [16]",
   "referenced_type" : "_ZTIc",
   "self_type" : "_ZTIA16_c",
   "size" : 16,
   "source_file" : "bionic/libc/include/bits/pthread_types.h"
  },
  {
   "alignment" : 8,
   "linker_set_key" : "_ZTIA16_m",
   "name" : "unsigned long [16]",
   "referenced_type" : "_ZTIm",
   "self_type" : "_ZTIA16_m",
   "size" : 128,
   "source_file" : "bionic/libc/kernel/uapi/linux/posix_types.h"
  },
  {
   "alignment" : 8,
   "linker_set_key" : "_ZTIA1_m",
   "name" : "unsigned long [1]",
   "referenced_type" : "_ZTIm",
   "self_type" : "_ZTIA1_m",
   "size" : 8,
   "source_file" : "bionic/libc/kernel/uapi/asm-generic/signal.h"
  },
  {
   "alignment" : 1,
   "linker_set_key" : "_ZTIA256_h",
   "name" : "unsigned char [256]",
   "referenced_type" : "_ZTIh",
   "self_type" : "_ZTIA256_h",
   "size" : 256,
   "source_file" : "external/gwp_asan/gwp_asan/common.h"
  },
  {
   "alignment" : 4,
   "linker_set_key" : "_ZTIA2_i",
   "name" : "int [2]",
   "referenced_type" : "_ZTIi",
   "self_type" : "_ZTIA2_i",
   "size" : 8,
   "source_file" : "bionic/libc/kernel/uapi/asm-generic/posix_types.h"
  },
  {
   "alignment" : 8,
   "linker_set_key" : "_ZTIA31_m",
   "name" : "unsigned long [31]",
   "referenced_type" : "_ZTIm",
   "self_type" : "_ZTIA31_m",
   "size" : 248,
   "source_file" : "bionic/libc/include/sys/user.h"
  },
  {
   "alignment" : 8,
   "linker_set_key" : "_ZTIA31_y",
   "name" : "unsigned long long [31]",
   "referenced_type" : "_ZTIy",
   "self_type" : "_ZTIA31_y",
   "size" : 248,
   "source_file" : "bionic/libc/kernel/uapi/asm-arm64/asm/sigcontext.h"
  },
  {
   "alignment" : 4,
   "linker_set_key" : "_ZTIA32_i",
   "name" : "int [32]",
   "referenced_type" : "_ZTIi",
   "self_type" : "_ZTIA32_i",
   "size" : 128,
   "source_file" : "bionic/libc/kernel/uapi/asm-generic/siginfo.h"
  },
  {
   "alignment" : 16,
   "linker_set_key" : "_ZTIA32_o",
   "name" : "unsigned __int128 [32]",
   "referenced_type" : "_ZTIo",
   "self_type" : "_ZTIA32_o",
   "size" : 512,
   "source_file" : "bionic/libc/kernel/uapi/asm-arm64/asm/sigcontext.h"
  },
  {
   "alignment" : 4,
   "linker_set_key" : "_ZTIA3_j",
   "name" : "unsigned int [3]",
   "referenced_type" : "_ZTIj",
   "self_type" : "_ZTIA3_j",
   "size" : 12,
   "source_file" : "bionic/libc/kernel/uapi/asm-arm64/asm/sigcontext.h"
  },
  {
   "alignment" : 2,
   "linker_set_key" : "_ZTIA3_t",
   "name" : "unsigned short [3]",
   "referenced_type" : "_ZTIt",
   "self_type" : "_ZTIA3_t",
   "size" : 6,
   "source_file" : "bionic/libc/kernel/uapi/asm-arm64/asm/sigcontext.h"
  },
  {
   "alignment" : 1,
   "linker_set_key" : "_ZTIA4096_h",
   "name" : "unsigned char [4096]",
   "referenced_type" : "_ZTIh",
   "self_type" : "_ZTIA4096_h",
   "size" : 4096,
   "source_file" : "bionic/libc/kernel/uapi/asm-arm64/asm/sigcontext.h"
  },
  {
   "alignment" : 8,
   "linker_set_key" : "_ZTIA4_l",
   "name" : "long [4]",
   "referenced_type" : "_ZTIl",
   "self_type" : "_ZTIA4_l",
   "size" : 32,
   "source_file" : "bionic/libc/include/bits/pthread_types.h"
  },
  {
   "alignment" : 8,
   "linker_set_key" : "_ZTIA65_PKc",
   "name" : "const char *[65]",
   "referenced_type" : "_ZTIPKc",
   "self_type" : "_ZTIA65_PKc",
   "size" : 520,
   "source_file" : "bionic/libc/include/signal.h"
  },
  {
   "alignment" : 1,
   "linker_set_key" : "_ZTIA8_c",
   "name" : "char [8]",
   "referenced_type" : "_ZTIc",
   "self_type" : "_ZTIA8_c",
   "size" : 8,
   "source_file" : "bionic/libc/kernel/uapi/asm-generic/siginfo.h"
  },
  {
   "linker_set_key" : "_ZTIA_Pc",
   "name" : "char *[]",
   "referenced_type" : "_ZTIPc",
   "self_type" : "_ZTIA_Pc",
   "source_file" : "bionic/libc/include/time.h"
  }
 ],
 "builtin_types" :
 [
  {
   "alignment" : 1,
   "is_integral" : true,
   "is_unsigned" : true,
   "linker_set_key" : "_ZTIb",
   "name" : "bool",
   "referenced_type" : "_ZTIb",
   "self_type" : "_ZTIb",
   "size" : 1
  },
  {
   "alignment" : 1,
   "is_integral" : true,
   "is_unsigned" : true,
   "linker_set_key" : "_ZTIc",
   "name" : "char",
   "referenced_type" : "_ZTIc",
   "self_type" : "_ZTIc",
   "size" : 1
  },
  {
   "alignment" : 16,
   "linker_set_key" : "_ZTIe",
   "name" : "long double",
   "referenced_type" : "_ZTIe",
   "self_type" : "_ZTIe",
   "size" : 16
  },
  {
   "alignment" : 1,
   "is_integral" : true,
   "is_unsigned" : true,
   "linker_set_key" : "_ZTIh",
   "name" : "unsigned char",
   "referenced_type" : "_ZTIh",
   "self_type" : "_ZTIh",
   "size" : 1
  },
  {
   "alignment" : 4,
   "is_integral" : true,
   "linker_set_key" : "_ZTIi",
   "name" : "int",
   "referenced_type" : "_ZTIi",
   "self_type" : "_ZTIi",
   "size" : 4
  },
  {
   "alignment" : 4,
   "is_integral" : true,
   "is_unsigned" : true,
   "linker_set_key" : "_ZTIj",
   "name" : "unsigned int",
   "referenced_type" : "_ZTIj",
   "self_type" : "_ZTIj",
   "size" : 4
  },
  {
   "alignment" : 8,
   "is_integral" : true,
   "linker_set_key" : "_ZTIl",
   "name" : "long",
   "referenced_type" : "_ZTIl",
   "self_type" : "_ZTIl",
   "size" : 8
  },
  {
   "alignment" : 8,
   "is_integral" : true,
   "is_unsigned" : true,
   "linker_set_key" : "_ZTIm",
   "name" : "unsigned long",
   "referenced_type" : "_ZTIm",
   "self_type" : "_ZTIm",
   "size" : 8
  },
  {
   "alignment" : 16,
   "is_integral" : true,
   "is_unsigned" : true,
   "linker_set_key" : "_ZTIo",
   "name" : "unsigned __int128",
   "referenced_type" : "_ZTIo",
   "self_type" : "_ZTIo",
   "size" : 16
  },
  {
   "alignment" : 2,
   "is_integral" : true,
   "linker_set_key" : "_ZTIs",
   "name" : "short",
   "referenced_type" : "_ZTIs",
   "self_type" : "_ZTIs",
   "size" : 2
  },
  {
   "alignment" : 2,
   "is_integral" : true,
   "is_unsigned" : true,
   "linker_set_key" : "_ZTIt",
   "name" : "unsigned short",
   "referenced_type" : "_ZTIt",
   "self_type" : "_ZTIt",
   "size" : 2
  },
  {
   "linker_set_key" : "_ZTIv",
   "name" : "void",
   "referenced_type" : "_ZTIv",
   "self_type" : "_ZTIv"
  },
  {
   "alignment" : 8,
   "is_integral" : true,
   "linker_set_key" : "_ZTIx",
   "name" : "long long",
   "referenced_type" : "_ZTIx",
   "self_type" : "_ZTIx",
   "size" : 8
  },
  {
   "alignment" : 8,
   "is_integral" : true,
   "is_unsigned" : true,
   "linker_set_key" : "_ZTIy",
   "name" : "unsigned long long",
   "referenced_type" : "_ZTIy",
   "self_type" : "_ZTIy",
   "size" : 8
  }
 ],
 "elf_functions" : [],
 "elf_objects" : [],
 "enum_types" :
 [
  {
   "alignment" : 4,
   "enum_fields" :
   [
    {
     "enum_field_value" : 0,
     "name" : "M_HEAP_TAGGING_LEVEL_NONE"
    },
    {
     "enum_field_value" : 1,
     "name" : "M_HEAP_TAGGING_LEVEL_TBI"
    },
    {
     "enum_field_value" : 2,
     "name" : "M_HEAP_TAGGING_LEVEL_ASYNC"
    },
    {
     "enum_field_value" : 3,
     "name" : "M_HEAP_TAGGING_LEVEL_SYNC"
    }
   ],
   "linker_set_key" : "_ZTI16HeapTaggingLevel",
   "name" : "HeapTaggingLevel",
   "referenced_type" : "_ZTI16HeapTaggingLevel",
   "self_type" : "_ZTI16HeapTaggingLevel",
   "size" : 4,
   "source_file" : "bionic/libc/include/malloc.h",
   "underlying_type" : "_ZTIj"
  },
  {
   "alignment" : 4,
   "enum_fields" :
   [
    {
     "enum_field_value" : 0,
     "name" : "PTHREAD_MUTEX_NORMAL"
    },
    {
     "enum_field_value" : 1,
     "name" : "PTHREAD_MUTEX_RECURSIVE"
    },
    {
     "enum_field_value" : 2,
     "name" : "PTHREAD_MUTEX_ERRORCHECK"
    },
    {
     "enum_field_value" : 2,
     "name" : "PTHREAD_MUTEX_ERRORCHECK_NP"
    },
    {
     "enum_field_value" : 1,
     "name" : "PTHREAD_MUTEX_RECURSIVE_NP"
    },
    {
     "enum_field_value" : 0,
     "name" : "PTHREAD_MUTEX_DEFAULT"
    }
   ],
   "linker_set_key" : "_ZTI22$PTHREAD_MUTEX_DEFAULT",
   "name" : "(anonymous enum at bionic/libc/include/pthread.h:41:1)",
   "referenced_type" : "_ZTI22$PTHREAD_MUTEX_DEFAULT",
   "self_type" : "_ZTI22$PTHREAD_MUTEX_DEFAULT",
   "size" : 4,
   "source_file" : "bionic/libc/include/pthread.h",
   "underlying_type" : "_ZTIj"
  },
  {
   "alignment" : 4,
   "enum_fields" :
   [
    {
     "enum_field_value" : 0,
     "name" : "PTHREAD_RWLOCK_PREFER_READER_NP"
    },
    {
     "enum_field_value" : 1,
     "name" : "PTHREAD_RWLOCK_PREFER_WRITER_NONRECURSIVE_NP"
    }
   ],
   "linker_set_key" : "_ZTI32$PTHREAD_RWLOCK_PREFER_READER_NP",
   "name" : "(anonymous enum at bionic/libc/include/pthread.h:63:1)",
   "referenced_type" : "_ZTI32$PTHREAD_RWLOCK_PREFER_READER_NP",
   "self_type" : "_ZTI32$PTHREAD_RWLOCK_PREFER_READER_NP",
   "size" : 4,
   "source_file" : "bionic/libc/include/pthread.h",
   "underlying_type" : "_ZTIj"
  },
  {
   "alignment" : 4,
   "enum_fields" :
   [
    {
     "enum_field_value" : 0,
     "name" : "gwp_asan::Error::UNKNOWN"
    },
    {
     "enum_field_value" : 1,
     "name" : "gwp_asan::Error::USE_AFTER_FREE"
    },
    {
     "enum_field_value" : 2,
     "name" : "gwp_asan::Error::DOUBLE_FREE"
    },
    {
     "enum_field_value" : 3,
     "name" : "gwp_asan::Error::INVALID_FREE"
    },
    {
     "enum_field_value" : 4,
     "name" : "gwp_asan::Error::BUFFER_OVERFLOW"
    },
    {
     "enum_field_value" : 5,
     "name" : "gwp_asan::Error::BUFFER_UNDERFLOW"
    }
   ],
   "linker_set_key" : "_ZTIN8gwp_asan5ErrorE",
   "name" : "gwp_asan::Error",
   "referenced_type" : "_ZTIN8gwp_asan5ErrorE",
   "self_type" : "_ZTIN8gwp_asan5ErrorE",
   "size" : 4,
   "source_file" : "external/gwp_asan/gwp_asan/common.h",
   "underlying_type" : "_ZTIi"
  }
 ],
 "function_types" :
 [
  {
   "alignment" : 4,
   "linker_set_key" : "_ZTIFPvS_mPKvE",
   "name" : "void *(void *, unsigned long, const void *)",
   "parameters" :
   [
    {
     "referenced_type" : "_ZTIPv"
    },
    {
     "referenced_type" : "_ZTIm"
    },
    {
     "referenced_type" : "_ZTIPKv"
    }
   ],
   "referenced_type" : "_ZTIFPvS_mPKvE",
   "return_type" : "_ZTIPv",
   "self_type" : "_ZTIFPvS_mPKvE",
   "source_file" : "bionic/libc/include/malloc.h"
  },
  {
   "alignment" : 4,
   "linker_set_key" : "_ZTIFPvmPKvE",
   "name" : "void *(unsigned long, const void *)",
   "parameters" :
   [
    {
     "referenced_type" : "_ZTIm"
    },
    {
     "referenced_type" : "_ZTIPKv"
    }
   ],
   "referenced_type" : "_ZTIFPvmPKvE",
   "return_type" : "_ZTIPv",
   "self_type" : "_ZTIFPvmPKvE",
   "source_file" : "bionic/libc/include/malloc.h"
  },
  {
   "alignment" : 4,
   "linker_set_key" : "_ZTIFPvmmPKvE",
   "name" : "void *(unsigned long, unsigned long, const void *)",
   "parameters" :
   [
    {
     "referenced_type" : "_ZTIm"
    },
    {
     "referenced_type" : "_ZTIm"
    },
    {
     "referenced_type" : "_ZTIPKv"
    }
   ],
   "referenced_type" : "_ZTIFPvmmPKvE",
   "return_type" : "_ZTIPv",
   "self_type" : "_ZTIFPvmmPKvE",
   "source_file" : "bionic/libc/include/malloc.h"
  },
  {
   "alignment" : 4,
   "linker_set_key" : "_ZTIFmPmmE",
   "name" : "unsigned long (unsigned long *, unsigned long)",
   "parameters" :
   [
    {
     "referenced_type" : "_ZTIPm"
    },
    {
     "referenced_type" : "_ZTIm"
    }
   ],
   "referenced_type" : "_ZTIFmPmmE",
   "return_type" : "_ZTIm",
   "self_type" : "_ZTIFmPmmE",
   "source_file" : "external/gwp_asan/gwp_asan/options.h"
  },
  {
   "alignment" : 4,
   "linker_set_key" : "_ZTIFv6sigvalE",
   "name" : "void (sigval)",
   "parameters" :
   [
    {
     "referenced_type" : "_ZTI6sigval"
    }
   ],
   "referenced_type" : "_ZTIFv6sigvalE",
   "return_type" : "_ZTIv",
   "self_type" : "_ZTIFv6sigvalE",
   "source_file" : "bionic/libc/kernel/uapi/asm-generic/siginfo.h"
  },
  {
   "alignment" : 4,
   "linker_set_key" : "_ZTIFvPvE",
   "name" : "void (void *)",
   "parameters" :
   [
    {
     "referenced_type" : "_ZTIPv"
    }
   ],
   "referenced_type" : "_ZTIFvPvE",
   "return_type" : "_ZTIv",
   "self_type" : "_ZTIFvPvE",
   "source_file" : "bionic/libc/include/pthread.h"
  },
  {
   "alignment" : 4,
   "linker_set_key" : "_ZTIFvPvPKvE",
   "name" : "void (void *, const void *)",
   "parameters" :
   [
    {
     "referenced_type" : "_ZTIPv"
    },
    {
     "referenced_type" : "_ZTIPKv"
    }
   ],
   "referenced_type" : "_ZTIFvPvPKvE",
   "return_type" : "_ZTIv",
   "self_type" : "_ZTIFvPvPKvE",
   "source_file" : "bionic/libc/include/malloc.h"
  },
  {
   "alignment" : 4,
   "linker_set_key" : "_ZTIFviE",
   "name" : "void (int)",
   "parameters" :
   [
    {
     "referenced_type" : "_ZTIi"
    }
   ],
   "referenced_type" : "_ZTIFviE",
   "return_type" : "_ZTIv",
   "self_type" : "_ZTIFviE",
   "source_file" : "bionic/libc/kernel/uapi/asm-generic/signal.h"
  },
  {
   "alignment" : 4,
   "linker_set_key" : "_ZTIFviP7siginfoPvE",
   "name" : "void (int, siginfo *, void *)",
   "parameters" :
   [
    {
     "referenced_type" : "_ZTIi"
    },
    {
     "referenced_type" : "_ZTIP7siginfo"
    },
    {
     "referenced_type" : "_ZTIPv"
    }
   ],
   "referenced_type" : "_ZTIFviP7siginfoPvE",
   "return_type" : "_ZTIv",
   "self_type" : "_ZTIFviP7siginfoPvE",
   "source_file" : "bionic/libc/include/bits/signal_types.h"
  },
  {
   "alignment" : 4,
   "linker_set_key" : "_ZTIFvvE",
   "name" : "void ()",
   "referenced_type" : "_ZTIFvvE",
   "return_type" : "_ZTIv",
   "self_type" : "_ZTIFvvE",
   "source_file" : "bionic/libc/kernel/uapi/asm-generic/signal.h"
  }
 ],
 "functions" :
 [
  {
   "function_name" : "gwp_asan::ScopedLock::ScopedLock",
   "linker_set_key" : "_ZN8gwp_asan10ScopedLockC1ERNS_5MutexE",
   "parameters" :
   [
    {
     "is_this_ptr" : true,
     "referenced_type" : "_ZTIPN8gwp_asan10ScopedLockE"
    },
    {
     "referenced_type" : "_ZTIRN8gwp_asan5MutexE"
    }
   ],
   "return_type" : "_ZTIv",
   "source_file" : "external/gwp_asan/gwp_asan/mutex.h"
  },
  {
   "function_name" : "gwp_asan::ScopedLock::ScopedLock",
   "linker_set_key" : "_ZN8gwp_asan10ScopedLockC2ERNS_5MutexE",
   "parameters" :
   [
    {
     "is_this_ptr" : true,
     "referenced_type" : "_ZTIPN8gwp_asan10ScopedLockE"
    },
    {
     "referenced_type" : "_ZTIRN8gwp_asan5MutexE"
    }
   ],
   "return_type" : "_ZTIv",
   "source_file" : "external/gwp_asan/gwp_asan/mutex.h"
  },
  {
   "function_name" : "gwp_asan::ScopedLock::~ScopedLock",
   "linker_set_key" : "_ZN8gwp_asan10ScopedLockD1Ev",
   "parameters" :
   [
    {
     "is_this_ptr" : true,
     "referenced_type" : "_ZTIPN8gwp_asan10ScopedLockE"
    }
   ],
   "return_type" : "_ZTIv",
   "source_file" : "external/gwp_asan/gwp_asan/mutex.h"
  },
  {
   "function_name" : "gwp_asan::ScopedLock::~ScopedLock",
   "linker_set_key" : "_ZN8gwp_asan10ScopedLockD2Ev",
   "parameters" :
   [
    {
     "is_this_ptr" : true,
     "referenced_type" : "_ZTIPN8gwp_asan10ScopedLockE"
    }
   ],
   "return_type" : "_ZTIv",
   "source_file" : "external/gwp_asan/gwp_asan/mutex.h"
  },
  {
   "function_name" : "gwp_asan::AllocatorState::AllocatorState",
   "linker_set_key" : "_ZN8gwp_asan14AllocatorStateC1Ev",
   "parameters" :
   [
    {
     "is_this_ptr" : true,
     "referenced_type" : "_ZTIPN8gwp_asan14AllocatorStateE"
    }
   ],
   "return_type" : "_ZTIv",
   "source_file" : "external/gwp_asan/gwp_asan/common.h"
  },
  {
   "function_name" : "gwp_asan::AllocatorState::AllocatorState",
   "linker_set_key" : "_ZN8gwp_asan14AllocatorStateC2Ev",
   "parameters" :
   [
    {
     "is_this_ptr" : true,
     "referenced_type" : "_ZTIPN8gwp_asan14AllocatorStateE"
    }
   ],
   "return_type" : "_ZTIv",
   "source_file" : "external/gwp_asan/gwp_asan/common.h"
  },
  {
   "function_name" : "gwp_asan::getThreadLocals",
   "linker_set_key" : "_ZN8gwp_asan15getThreadLocalsEv",
   "return_type" : "_ZTIPN8gwp_asan26ThreadLocalPackedVariablesE",
   "source_file" : "external/gwp_asan/gwp_asan/platform_specific/guarded_pool_allocator_tls.h"
  },
  {
   "function_name" : "gwp_asan::GuardedPoolAllocator::shouldSample",
   "linker_set_key" : "_ZN8gwp_asan20GuardedPoolAllocator12shouldSampleEv",
   "parameters" :
   [
    {
     "is_this_ptr" : true,
     "referenced_type" : "_ZTIPN8gwp_asan20GuardedPoolAllocatorE"
    }
   ],
   "return_type" : "_ZTIb",
   "source_file" : "external/gwp_asan/gwp_asan/guarded_pool_allocator.h"
  },
  {
   "access" : "private",
   "function_name" : "gwp_asan::GuardedPoolAllocator::installAtFork",
   "linker_set_key" : "_ZN8gwp_asan20GuardedPoolAllocator13installAtForkEv",
   "parameters" :
   [
    {
     "is_this_ptr" : true,
     "referenced_type" : "_ZTIPN8gwp_asan20GuardedPoolAllocatorE"
    }
   ],
   "return_type" : "_ZTIv",
   "source_file" : "external/gwp_asan/gwp_asan/guarded_pool_allocator.h"
  },
  {
   "access" : "private",
   "function_name" : "gwp_asan::GuardedPoolAllocator::reserveGuardedPool",
   "linker_set_key" : "_ZN8gwp_asan20GuardedPoolAllocator18reserveGuardedPoolEm",
   "parameters" :
   [
    {
     "is_this_ptr" : true,
     "referenced_type" : "_ZTIPN8gwp_asan20GuardedPoolAllocatorE"
    },
    {
     "referenced_type" : "_ZTIm"
    }
   ],
   "return_type" : "_ZTIPv",
   "source_file" : "external/gwp_asan/gwp_asan/guarded_pool_allocator.h"
  },
  {
   "access" : "private",
   "function_name" : "gwp_asan::GuardedPoolAllocator::getPlatformPageSize",
   "linker_set_key" : "_ZN8gwp_asan20GuardedPoolAllocator19getPlatformPageSizeEv",
   "return_type" : "_ZTIm",
   "source_file" : "external/gwp_asan/gwp_asan/guarded_pool_allocator.h"
  },
  {
   "function_name" : "gwp_asan::GuardedPoolAllocator::ScopedRecursiveGuard::ScopedRecursiveGuard",
   "linker_set_key" : "_ZN8gwp_asan20GuardedPoolAllocator20ScopedRecursiveGuardC1Ev",
   "parameters" :
   [
    {
     "is_this_ptr" : true,
     "referenced_type" : "_ZTIPN8gwp_asan20GuardedPoolAllocator20ScopedRecursiveGuardE"
    }
   ],
   "return_type" : "_ZTIv",
   "source_file" : "external/gwp_asan/gwp_asan/guarded_pool_allocator.h"
  },
  {
   "function_name" : "gwp_asan::GuardedPoolAllocator::ScopedRecursiveGuard::ScopedRecursiveGuard",
   "linker_set_key" : "_ZN8gwp_asan20GuardedPoolAllocator20ScopedRecursiveGuardC2Ev",
   "parameters" :
   [
    {
     "is_this_ptr" : true,
     "referenced_type" : "_ZTIPN8gwp_asan20GuardedPoolAllocator20ScopedRecursiveGuardE"
    }
   ],
   "return_type" : "_ZTIv",
   "source_file" : "external/gwp_asan/gwp_asan/guarded_pool_allocator.h"
  },
  {
   "function_name" : "gwp_asan::GuardedPoolAllocator::ScopedRecursiveGuard::~ScopedRecursiveGuard",
   "linker_set_key" : "_ZN8gwp_asan20GuardedPoolAllocator20ScopedRecursiveGuardD1Ev",
   "parameters" :
   [
    {
     "is_this_ptr" : true,
     "referenced_type" : "_ZTIPN8gwp_asan20GuardedPoolAllocator20ScopedRecursiveGuardE"
    }
   ],
   "return_type" : "_ZTIv",
   "source_file" : "external/gwp_asan/gwp_asan/guarded_pool_allocator.h"
  },
  {
   "function_name" : "gwp_asan::GuardedPoolAllocator::ScopedRecursiveGuard::~ScopedRecursiveGuard",
   "linker_set_key" : "_ZN8gwp_asan20GuardedPoolAllocator20ScopedRecursiveGuardD2Ev",
   "parameters" :
   [
    {
     "is_this_ptr" : true,
     "referenced_type" : "_ZTIPN8gwp_asan20GuardedPoolAllocator20ScopedRecursiveGuardE"
    }
   ],
   "return_type" : "_ZTIv",
   "source_file" : "external/gwp_asan/gwp_asan/guarded_pool_allocator.h"
  },
  {
   "access" : "private",
   "function_name" : "gwp_asan::GuardedPoolAllocator::unreserveGuardedPool",
   "linker_set_key" : "_ZN8gwp_asan20GuardedPoolAllocator20unreserveGuardedPoolEv",
   "parameters" :
   [
    {
     "is_this_ptr" : true,
     "referenced_type" : "_ZTIPN8gwp_asan20GuardedPoolAllocatorE"
    }
   ],
   "return_type" : "_ZTIv",
   "source_file" : "external/gwp_asan/gwp_asan/guarded_pool_allocator.h"
  },
  {
   "access" : "private",
   "function_name" : "gwp_asan::GuardedPoolAllocator::initPRNG",
   "linker_set_key" : "_ZN8gwp_asan20GuardedPoolAllocator8initPRNGEv",
   "parameters" :
   [
    {
     "is_this_ptr" : true,
     "referenced_type" : "_ZTIPN8gwp_asan20GuardedPoolAllocatorE"
    }
   ],
   "return_type" : "_ZTIv",
   "source_file" : "external/gwp_asan/gwp_asan/guarded_pool_allocator.h"
  },
  {
   "function_name" : "gwp_asan::GuardedPoolAllocator::GuardedPoolAllocator",
   "linker_set_key" : "_ZN8gwp_asan20GuardedPoolAllocatorC1Ev",
   "parameters" :
   [
    {
     "is_this_ptr" : true,
     "referenced_type" : "_ZTIPN8gwp_asan20GuardedPoolAllocatorE"
    }
   ],
   "return_type" : "_ZTIv",
   "source_file" : "external/gwp_asan/gwp_asan/guarded_pool_allocator.h"
  },
  {
   "function_name" : "gwp_asan::GuardedPoolAllocator::GuardedPoolAllocator",
   "linker_set_key" : "_ZN8gwp_asan20GuardedPoolAllocatorC2Ev",
   "parameters" :
   [
    {
     "is_this_ptr" : true,
     "referenced_type" : "_ZTIPN8gwp_asan20GuardedPoolAllocatorE"
    }
   ],
   "return_type" : "_ZTIv",
   "source_file" : "external/gwp_asan/gwp_asan/guarded_pool_allocator.h"
  },
  {
   "function_name" : "gwp_asan::GuardedPoolAllocator::~GuardedPoolAllocator",
   "linker_set_key" : "_ZN8gwp_asan20GuardedPoolAllocatorD1Ev",
   "parameters" :
   [
    {
     "is_this_ptr" : true,
     "referenced_type" : "_ZTIPN8gwp_asan20GuardedPoolAllocatorE"
    }
   ],
   "return_type" : "_ZTIv",
   "source_file" : "external/gwp_asan/gwp_asan/guarded_pool_allocator.h"
  },
  {
   "function_name" : "gwp_asan::GuardedPoolAllocator::~GuardedPoolAllocator",
   "linker_set_key" : "_ZN8gwp_asan20GuardedPoolAllocatorD2Ev",
   "parameters" :
   [
    {
     "is_this_ptr" : true,
     "referenced_type" : "_ZTIPN8gwp_asan20GuardedPoolAllocatorE"
    }
   ],
   "return_type" : "_ZTIv",
   "source_file" : "external/gwp_asan/gwp_asan/guarded_pool_allocator.h"
  },
  {
   "function_name" : "gwp_asan::ThreadLocalPackedVariables::ThreadLocalPackedVariables",
   "linker_set_key" : "_ZN8gwp_asan26ThreadLocalPackedVariablesC1Ev",
   "parameters" :
   [
    {
     "is_this_ptr" : true,
     "referenced_type" : "_ZTIPN8gwp_asan26ThreadLocalPackedVariablesE"
    }
   ],
   "return_type" : "_ZTIv",
   "source_file" : "external/gwp_asan/gwp_asan/platform_specific/guarded_pool_allocator_tls.h"
  },
  {
   "function_name" : "gwp_asan::ThreadLocalPackedVariables::ThreadLocalPackedVariables",
   "linker_set_key" : "_ZN8gwp_asan26ThreadLocalPackedVariablesC2Ev",
   "parameters" :
   [
    {
     "is_this_ptr" : true,
     "referenced_type" : "_ZTIPN8gwp_asan26ThreadLocalPackedVariablesE"
    }
   ],
   "return_type" : "_ZTIv",
   "source_file" : "external/gwp_asan/gwp_asan/platform_specific/guarded_pool_allocator_tls.h"
  },
  {
   "function_name" : "gwp_asan::Check",
   "linker_set_key" : "_ZN8gwp_asan5CheckEbPKc",
   "parameters" :
   [
    {
     "referenced_type" : "_ZTIb"
    },
    {
     "referenced_type" : "_ZTIPKc"
    }
   ],
   "return_type" : "_ZTIv",
   "source_file" : "external/gwp_asan/gwp_asan/utilities.h"
  },
  {
   "function_name" : "gwp_asan::Mutex::Mutex",
   "linker_set_key" : "_ZN8gwp_asan5MutexC1Ev",
   "parameters" :
   [
    {
     "is_this_ptr" : true,
     "referenced_type" : "_ZTIPN8gwp_asan5MutexE"
    }
   ],
   "return_type" : "_ZTIv",
   "source_file" : "external/gwp_asan/gwp_asan/mutex.h"
  },
  {
   "function_name" : "gwp_asan::Mutex::Mutex",
   "linker_set_key" : "_ZN8gwp_asan5MutexC2Ev",
   "parameters" :
   [
    {
     "is_this_ptr" : true,
     "referenced_type" : "_ZTIPN8gwp_asan5MutexE"
    }
   ],
   "return_type" : "_ZTIv",
   "source_file" : "external/gwp_asan/gwp_asan/mutex.h"
  },
  {
   "function_name" : "gwp_asan::Mutex::~Mutex",
   "linker_set_key" : "_ZN8gwp_asan5MutexD1Ev",
   "parameters" :
   [
    {
     "is_this_ptr" : true,
     "referenced_type" : "_ZTIPN8gwp_asan5MutexE"
    }
   ],
   "return_type" : "_ZTIv",
   "source_file" : "external/gwp_asan/gwp_asan/mutex.h"
  },
  {
   "function_name" : "gwp_asan::Mutex::~Mutex",
   "linker_set_key" : "_ZN8gwp_asan5MutexD2Ev",
   "parameters" :
   [
    {
     "is_this_ptr" : true,
     "referenced_type" : "_ZTIPN8gwp_asan5MutexE"
    }
   ],
   "return_type" : "_ZTIv",
   "source_file" : "external/gwp_asan/gwp_asan/mutex.h"
  },
  {
   "function_name" : "gwp_asan::options::Options::setDefaults",
   "linker_set_key" : "_ZN8gwp_asan7options7Options11setDefaultsEv",
   "parameters" :
   [
    {
     "is_this_ptr" : true,
     "referenced_type" : "_ZTIPN8gwp_asan7options7OptionsE"
    }
   ],
   "return_type" : "_ZTIv",
   "source_file" : "external/gwp_asan/gwp_asan/options.h"
  },
  {
   "function_name" : "gwp_asan::AllocatorState::pointerIsMine",
   "linker_set_key" : "_ZNK8gwp_asan14AllocatorState13pointerIsMineEPKv",
   "parameters" :
   [
    {
     "is_this_ptr" : true,
     "referenced_type" : "_ZTIPKN8gwp_asan14AllocatorStateE"
    },
    {
     "referenced_type" : "_ZTIPKv"
    }
   ],
   "return_type" : "_ZTIb",
   "source_file" : "external/gwp_asan/gwp_asan/common.h"
  },
  {
   "function_name" : "gwp_asan::GuardedPoolAllocator::pointerIsMine",
   "linker_set_key" : "_ZNK8gwp_asan20GuardedPoolAllocator13pointerIsMineEPKv",
   "parameters" :
   [
    {
     "is_this_ptr" : true,
     "referenced_type" : "_ZTIPKN8gwp_asan20GuardedPoolAllocatorE"
    },
    {
     "referenced_type" : "_ZTIPKv"
    }
   ],
   "return_type" : "_ZTIb",
   "source_file" : "external/gwp_asan/gwp_asan/guarded_pool_allocator.h"
  },
  {
   "function_name" : "gwp_asan::GuardedPoolAllocator::getAllocatorState",
   "linker_set_key" : "_ZNK8gwp_asan20GuardedPoolAllocator17getAllocatorStateEv",
   "parameters" :
   [
    {
     "is_this_ptr" : true,
     "referenced_type" : "_ZTIPKN8gwp_asan20GuardedPoolAllocatorE"
    }
   ],
   "return_type" : "_ZTIPKN8gwp_asan14AllocatorStateE",
   "source_file" : "external/gwp_asan/gwp_asan/guarded_pool_allocator.h"
  },
  {
   "function_name" : "gwp_asan::GuardedPoolAllocator::getMetadataRegion",
   "linker_set_key" : "_ZNK8gwp_asan20GuardedPoolAllocator17getMetadataRegionEv",
   "parameters" :
   [
    {
     "is_this_ptr" : true,
     "referenced_type" : "_ZTIPKN8gwp_asan20GuardedPoolAllocatorE"
    }
   ],
   "return_type" : "_ZTIPKN8gwp_asan18AllocationMetadataE",
   "source_file" : "external/gwp_asan/gwp_asan/guarded_pool_allocator.h"
  },
  {
   "access" : "private",
   "function_name" : "gwp_asan::GuardedPoolAllocator::allocateInGuardedPool",
   "linker_set_key" : "_ZNK8gwp_asan20GuardedPoolAllocator21allocateInGuardedPoolEPvm",
   "parameters" :
   [
    {
     "is_this_ptr" : true,
     "referenced_type" : "_ZTIPKN8gwp_asan20GuardedPoolAllocatorE"
    },
    {
     "referenced_type" : "_ZTIPv"
    },
    {
     "referenced_type" : "_ZTIm"
    }
   ],
   "return_type" : "_ZTIv",
   "source_file" : "external/gwp_asan/gwp_asan/guarded_pool_allocator.h"
  },
  {
   "access" : "private",
   "function_name" : "gwp_asan::GuardedPoolAllocator::deallocateInGuardedPool",
   "linker_set_key" : "_ZNK8gwp_asan20GuardedPoolAllocator23deallocateInGuardedPoolEPvm",
   "parameters" :
   [
    {
     "is_this_ptr" : true,
     "referenced_type" : "_ZTIPKN8gwp_asan20GuardedPoolAllocatorE"
    },
    {
     "referenced_type" : "_ZTIPv"
    },
    {
     "referenced_type" : "_ZTIm"
    }
   ],
   "return_type" : "_ZTIv",
   "source_file" : "external/gwp_asan/gwp_asan/guarded_pool_allocator.h"
  },
  {
   "access" : "private",
   "function_name" : "gwp_asan::GuardedPoolAllocator::map",
   "linker_set_key" : "_ZNK8gwp_asan20GuardedPoolAllocator3mapEmPKc",
   "parameters" :
   [
    {
     "is_this_ptr" : true,
     "referenced_type" : "_ZTIPKN8gwp_asan20GuardedPoolAllocatorE"
    },
    {
     "referenced_type" : "_ZTIm"
    },
    {
     "referenced_type" : "_ZTIPKc"
    }
   ],
   "return_type" : "_ZTIPv",
   "source_file" : "external/gwp_asan/gwp_asan/guarded_pool_allocator.h"
  },
  {
   "access" : "private",
   "function_name" : "gwp_asan::GuardedPoolAllocator::unmap",
   "linker_set_key" : "_ZNK8gwp_asan20GuardedPoolAllocator5unmapEPvm",
   "parameters" :
   [
    {
     "is_this_ptr" : true,
     "referenced_type" : "_ZTIPKN8gwp_asan20GuardedPoolAllocatorE"
    },
    {
     "referenced_type" : "_ZTIPv"
    },
    {
     "referenced_type" : "_ZTIm"
    }
   ],
   "return_type" : "_ZTIv",
   "source_file" : "external/gwp_asan/gwp_asan/guarded_pool_allocator.h"
  }
 ],
 "global_vars" :
 [
  {
   "linker_set_key" : "_ZN8gwp_asan18AllocationMetadata23kStackFrameStorageBytesE",
   "name" : "gwp_asan::AllocationMetadata::kStackFrameStorageBytes",
   "referenced_type" : "_ZTIKm",
   "source_file" : "external/gwp_asan/gwp_asan/common.h"
  },
  {
   "linker_set_key" : "_ZN8gwp_asan18AllocationMetadata24kMaxTraceLengthToCollectE",
   "name" : "gwp_asan::AllocationMetadata::kMaxTraceLengthToCollect",
   "referenced_type" : "_ZTIKm",
   "source_file" : "external/gwp_asan/gwp_asan/common.h"
  },
  {
   "access" : "private",
   "linker_set_key" : "_ZN8gwp_asan20GuardedPoolAllocator14kInvalidSlotIDE",
   "name" : "gwp_asan::GuardedPoolAllocator::kInvalidSlotID",
   "referenced_type" : "_ZTIKm",
   "source_file" : "external/gwp_asan/gwp_asan/guarded_pool_allocator.h"
  },
  {
   "linker_set_key" : "_ZN8gwp_asan20GuardedPoolAllocator20kGwpAsanMetadataNameE",
   "name" : "gwp_asan::GuardedPoolAllocator::kGwpAsanMetadataName",
   "referenced_type" : "_ZTIKPKc",
   "source_file" : "external/gwp_asan/gwp_asan/guarded_pool_allocator.h"
  },
  {
   "access" : "private",
   "linker_set_key" : "_ZN8gwp_asan20GuardedPoolAllocator21kGwpAsanAliveSlotNameE",
   "name" : "gwp_asan::GuardedPoolAllocator::kGwpAsanAliveSlotName",
   "referenced_type" : "_ZTIKPKc",
   "source_file" : "external/gwp_asan/gwp_asan/guarded_pool_allocator.h"
  },
  {
   "access" : "private",
   "linker_set_key" : "_ZN8gwp_asan20GuardedPoolAllocator21kGwpAsanFreeSlotsNameE",
   "name" : "gwp_asan::GuardedPoolAllocator::kGwpAsanFreeSlotsName",
   "referenced_type" : "_ZTIKPKc",
   "source_file" : "external/gwp_asan/gwp_asan/guarded_pool_allocator.h"
  },
  {
   "access" : "private",
   "linker_set_key" : "_ZN8gwp_asan20GuardedPoolAllocator21kGwpAsanGuardPageNameE",
   "name" : "gwp_asan::GuardedPoolAllocator::kGwpAsanGuardPageName",
   "referenced_type" : "_ZTIKPKc",
   "source_file" : "external/gwp_asan/gwp_asan/guarded_pool_allocator.h"
  },
  {
   "linker_set_key" : "_ZN8gwp_asan26ThreadLocalPackedVariables21NextSampleCounterMaskE",
   "name" : "gwp_asan::ThreadLocalPackedVariables::NextSampleCounterMask",
   "referenced_type" : "_ZTIKj",
   "source_file" : "external/gwp_asan/gwp_asan/platform_specific/guarded_pool_allocator_tls.h"
  },
  {
   "linker_set_key" : "_ZN8gwp_asanL16kInvalidThreadIDE",
   "name" : "gwp_asan::kInvalidThreadID",
   "referenced_type" : "_ZTIKm",
   "source_file" : "external/gwp_asan/gwp_asan/common.h"
  },
  {
   "linker_set_key" : "_ZZN8gwp_asan15getThreadLocalsEvE6Locals",
   "name" : "Locals",
   "referenced_type" : "_ZTIN8gwp_asan26ThreadLocalPackedVariablesE",
   "source_file" : "external/gwp_asan/gwp_asan/platform_specific/guarded_pool_allocator_tls.h"
  },
  {
   "linker_set_key" : "__free_hook",
   "name" : "__free_hook",
   "referenced_type" : "_ZTIVPFvPvPKvE",
   "source_file" : "bionic/libc/include/malloc.h"
  },
  {
   "linker_set_key" : "__malloc_hook",
   "name" : "__malloc_hook",
   "referenced_type" : "_ZTIVPFPvmPKvE",
   "source_file" : "bionic/libc/include/malloc.h"
  },
  {
   "linker_set_key" : "__memalign_hook",
   "name" : "__memalign_hook",
   "referenced_type" : "_ZTIVPFPvmmPKvE",
   "source_file" : "bionic/libc/include/malloc.h"
  },
  {
   "linker_set_key" : "__realloc_hook",
   "name" : "__realloc_hook",
   "referenced_type" : "_ZTIVPFPvS_mPKvE",
   "source_file" : "bionic/libc/include/malloc.h"
  },
  {
   "linker_set_key" : "daylight",
   "name" : "daylight",
   "referenced_type" : "_ZTIi",
   "source_file" : "bionic/libc/include/time.h"
  },
  {
   "linker_set_key" : "environ",
   "name" : "environ",
   "referenced_type" : "_ZTIPPc",
   "source_file" : "bionic/libc/include/unistd.h"
  },
  {
   "linker_set_key" : "optarg",
   "name" : "optarg",
   "referenced_type" : "_ZTIPc",
   "source_file" : "bionic/libc/include/bits/getopt.h"
  },
  {
   "linker_set_key" : "opterr",
   "name" : "opterr",
   "referenced_type" : "_ZTIi",
   "source_file" : "bionic/libc/include/bits/getopt.h"
  },
  {
   "linker_set_key" : "optind",
   "name" : "optind",
   "referenced_type" : "_ZTIi",
   "source_file" : "bionic/libc/include/bits/getopt.h"
  },
  {
   "linker_set_key" : "optopt",
   "name" : "optopt",
   "referenced_type" : "_ZTIi",
   "source_file" : "bionic/libc/include/bits/getopt.h"
  },
  {
   "linker_set_key" : "stderr",
   "name" : "stderr",
   "referenced_type" : "_ZTIP7__sFILE",
   "source_file" : "bionic/libc/include/stdio.h"
  },
  {
   "linker_set_key" : "stdin",
   "name" : "stdin",
   "referenced_type" : "_ZTIP7__sFILE",
   "source_file" : "bionic/libc/include/stdio.h"
  },
  {
   "linker_set_key" : "stdout",
   "name" : "stdout",
   "referenced_type" : "_ZTIP7__sFILE",
   "source_file" : "bionic/libc/include/stdio.h"
  },
  {
   "linker_set_key" : "sys_siglist",
   "name" : "sys_siglist",
   "referenced_type" : "_ZTIA65_KPKc",
   "source_file" : "bionic/libc/include/signal.h"
  },
  {
   "linker_set_key" : "sys_signame",
   "name" : "sys_signame",
   "referenced_type" : "_ZTIA65_KPKc",
   "source_file" : "bionic/libc/include/signal.h"
  },
  {
   "linker_set_key" : "timezone",
   "name" : "timezone",
   "referenced_type" : "_ZTIl",
   "source_file" : "bionic/libc/include/time.h"
  },
  {
   "linker_set_key" : "tzname",
   "name" : "tzname",
   "referenced_type" : "_ZTIA_Pc",
   "source_file" : "bionic/libc/include/time.h"
  }
 ],
 "lvalue_reference_types" :
 [
  {
   "alignment" : 8,
   "linker_set_key" : "_ZTIRN8gwp_asan5MutexE",
   "name" : "gwp_asan::Mutex &",
   "referenced_type" : "_ZTIN8gwp_asan5MutexE",
   "self_type" : "_ZTIRN8gwp_asan5MutexE",
   "size" : 8,
   "source_file" : "external/gwp_asan/gwp_asan/mutex.h"
  }
 ],
 "pointer_types" :
 [
  {
   "alignment" : 8,
   "linker_set_key" : "_ZTIP19__pthread_cleanup_t",
   "name" : "__pthread_cleanup_t *",
   "referenced_type" : "_ZTI19__pthread_cleanup_t",
   "self_type" : "_ZTIP19__pthread_cleanup_t",
   "size" : 8,
   "source_file" : "bionic/libc/include/pthread.h"
  },
  {
   "alignment" : 8,
   "linker_set_key" : "_ZTIP7__sFILE",
   "name" : "__sFILE *",
   "referenced_type" : "_ZTI7__sFILE",
   "self_type" : "_ZTIP7__sFILE",
   "size" : 8,
   "source_file" : "bionic/libc/include/stdio.h"
  },
  {
   "alignment" : 8,
   "linker_set_key" : "_ZTIP7siginfo",
   "name" : "siginfo *",
   "referenced_type" : "_ZTI7siginfo",
   "self_type" : "_ZTIP7siginfo",
   "size" : 8,
   "source_file" : "bionic/libc/include/bits/signal_types.h"
  },
  {
   "alignment" : 8,
   "linker_set_key" : "_ZTIP8ucontext",
   "name" : "ucontext *",
   "referenced_type" : "_ZTI8ucontext",
   "self_type" : "_ZTIP8ucontext",
   "size" : 8,
   "source_file" : "bionic/libc/include/sys/ucontext.h"
  },
  {
   "alignment" : 8,
   "linker_set_key" : "_ZTIPFPvS_mPKvE",
   "name" : "void *(*)(void *, unsigned long, const void *)",
   "referenced_type" : "_ZTIFPvS_mPKvE",
   "self_type" : "_ZTIPFPvS_mPKvE",
   "size" : 8,
   "source_file" : "bionic/libc/include/malloc.h"
  },
  {
   "alignment" : 8,
   "linker_set_key" : "_ZTIPFPvmPKvE",
   "name" : "void *(*)(unsigned long, const void *)",
   "referenced_type" : "_ZTIFPvmPKvE",
   "self_type" : "_ZTIPFPvmPKvE",
   "size" : 8,
   "source_file" : "bionic/libc/include/malloc.h"
  },
  {
   "alignment" : 8,
   "linker_set_key" : "_ZTIPFPvmmPKvE",
   "name" : "void *(*)(unsigned long, unsigned long, const void *)",
   "referenced_type" : "_ZTIFPvmmPKvE",
   "self_type" : "_ZTIPFPvmmPKvE",
   "size" : 8,
   "source_file" : "bionic/libc/include/malloc.h"
  },
  {
   "alignment" : 8,
   "linker_set_key" : "_ZTIPFmPmmE",
   "name" : "unsigned long (*)(unsigned long *, unsigned long)",
   "referenced_type" : "_ZTIFmPmmE",
   "self_type" : "_ZTIPFmPmmE",
   "size" : 8,
   "source_file" : "external/gwp_asan/gwp_asan/options.h"
  },
  {
   "alignment" : 8,
   "linker_set_key" : "_ZTIPFv6sigvalE",
   "name" : "void (*)(sigval)",
   "referenced_type" : "_ZTIFv6sigvalE",
   "self_type" : "_ZTIPFv6sigvalE",
   "size" : 8,
   "source_file" : "bionic/libc/kernel/uapi/asm-generic/siginfo.h"
  },
  {
   "alignment" : 8,
   "linker_set_key" : "_ZTIPFvPvE",
   "name" : "void (*)(void *)",
   "referenced_type" : "_ZTIFvPvE",
   "self_type" : "_ZTIPFvPvE",
   "size" : 8,
   "source_file" : "bionic/libc/include/pthread.h"
  },
  {
   "alignment" : 8,
   "linker_set_key" : "_ZTIPFvPvPKvE",
   "name" : "void (*)(void *, const void *)",
   "referenced_type" : "_ZTIFvPvPKvE",
   "self_type" : "_ZTIPFvPvPKvE",
   "size" : 8,
   "source_file" : "bionic/libc/include/malloc.h"
  },
  {
   "alignment" : 8,
   "linker_set_key" : "_ZTIPFviE",
   "name" : "void (*)(int)",
   "referenced_type" : "_ZTIFviE",
   "self_type" : "_ZTIPFviE",
   "size" : 8,
   "source_file" : "bionic/libc/kernel/uapi/asm-generic/signal.h"
  },
  {
   "alignment" : 8,
   "linker_set_key" : "_ZTIPFviP7siginfoPvE",
   "name" : "void (*)(int, siginfo *, void *)",
   "referenced_type" : "_ZTIFviP7siginfoPvE",
   "self_type" : "_ZTIPFviP7siginfoPvE",
   "size" : 8,
   "source_file" : "bionic/libc/include/bits/signal_types.h"
  },
  {
   "alignment" : 8,
   "linker_set_key" : "_ZTIPFvvE",
   "name" : "void (*)()",
   "referenced_type" : "_ZTIFvvE",
   "self_type" : "_ZTIPFvvE",
   "size" : 8,
   "source_file" : "bionic/libc/kernel/uapi/asm-generic/signal.h"
  },
  {
   "alignment" : 8,
   "linker_set_key" : "_ZTIPKN8gwp_asan14AllocatorStateE",
   "name" : "const gwp_asan::AllocatorState *",
   "referenced_type" : "_ZTIKN8gwp_asan14AllocatorStateE",
   "self_type" : "_ZTIPKN8gwp_asan14AllocatorStateE",
   "size" : 8,
   "source_file" : "external/gwp_asan/gwp_asan/common.h"
  },
  {
   "alignment" : 8,
   "linker_set_key" : "_ZTIPKN8gwp_asan18AllocationMetadataE",
   "name" : "const gwp_asan::AllocationMetadata *",
   "referenced_type" : "_ZTIKN8gwp_asan18AllocationMetadataE",
   "self_type" : "_ZTIPKN8gwp_asan18AllocationMetadataE",
   "size" : 8,
   "source_file" : "external/gwp_asan/gwp_asan/guarded_pool_allocator.h"
  },
  {
   "alignment" : 8,
   "linker_set_key" : "_ZTIPKN8gwp_asan20GuardedPoolAllocatorE",
   "name" : "const gwp_asan::GuardedPoolAllocator *",
   "referenced_type" : "_ZTIKN8gwp_asan20GuardedPoolAllocatorE",
   "self_type" : "_ZTIPKN8gwp_asan20GuardedPoolAllocatorE",
   "size" : 8,
   "source_file" : "external/gwp_asan/gwp_asan/guarded_pool_allocator.h"
  },
  {
   "alignment" : 8,
   "linker_set_key" : "_ZTIPKc",
   "name" : "const char *",
   "referenced_type" : "_ZTIKc",
   "self_type" : "_ZTIPKc",
   "size" : 8,
   "source_file" : "bionic/libc/include/signal.h"
  },
  {
   "alignment" : 8,
   "linker_set_key" : "_ZTIPKv",
   "name" : "const void *",
   "referenced_type" : "_ZTIKv",
   "self_type" : "_ZTIPKv",
   "size" : 8,
   "source_file" : "external/gwp_asan/gwp_asan/common.h"
  },
  {
   "alignment" : 8,
   "linker_set_key" : "_ZTIPN8gwp_asan10ScopedLockE",
   "name" : "gwp_asan::ScopedLock *",
   "referenced_type" : "_ZTIN8gwp_asan10ScopedLockE",
   "self_type" : "_ZTIPN8gwp_asan10ScopedLockE",
   "size" : 8,
   "source_file" : "external/gwp_asan/gwp_asan/mutex.h"
  },
  {
   "alignment" : 8,
   "linker_set_key" : "_ZTIPN8gwp_asan14AllocatorStateE",
   "name" : "gwp_asan::AllocatorState *",
   "referenced_type" : "_ZTIN8gwp_asan14AllocatorStateE",
   "self_type" : "_ZTIPN8gwp_asan14AllocatorStateE",
   "size" : 8,
   "source_file" : "external/gwp_asan/gwp_asan/common.h"
  },
  {
   "alignment" : 8,
   "linker_set_key" : "_ZTIPN8gwp_asan18AllocationMetadataE",
   "name" : "gwp_asan::AllocationMetadata *",
   "referenced_type" : "_ZTIN8gwp_asan18AllocationMetadataE",
   "self_type" : "_ZTIPN8gwp_asan18AllocationMetadataE",
   "size" : 8,
   "source_file" : "external/gwp_asan/gwp_asan/guarded_pool_allocator.h"
  },
  {
   "alignment" : 8,
   "linker_set_key" : "_ZTIPN8gwp_asan20GuardedPoolAllocator20ScopedRecursiveGuardE",
   "name" : "gwp_asan::GuardedPoolAllocator::ScopedRecursiveGuard *",
   "referenced_type" : "_ZTIN8gwp_asan20GuardedPoolAllocator20ScopedRecursiveGuardE",
   "self_type" : "_ZTIPN8gwp_asan20GuardedPoolAllocator20ScopedRecursiveGuardE",
   "size" : 8,
   "source_file" : "external/gwp_asan/gwp_asan/guarded_pool_allocator.h"
  },
  {
   "alignment" : 8,
   "linker_set_key" : "_ZTIPN8gwp_asan20GuardedPoolAllocatorE",
   "name" : "gwp_asan::GuardedPoolAllocator *",
   "referenced_type" : "_ZTIN8gwp_asan20GuardedPoolAllocatorE",
   "self_type" : "_ZTIPN8gwp_asan20GuardedPoolAllocatorE",
   "size" : 8,
   "source_file" : "external/gwp_asan/gwp_asan/guarded_pool_allocator.h"
  },
  {
   "alignment" : 8,
   "linker_set_key" : "_ZTIPN8gwp_asan26ThreadLocalPackedVariablesE",
   "name" : "gwp_asan::ThreadLocalPackedVariables *",
   "referenced_type" : "_ZTIN8gwp_asan26ThreadLocalPackedVariablesE",
   "self_type" : "_ZTIPN8gwp_asan26ThreadLocalPackedVariablesE",
   "size" : 8,
   "source_file" : "external/gwp_asan/gwp_asan/platform_specific/guarded_pool_allocator_tls.h"
  },
  {
   "alignment" : 8,
   "linker_set_key" : "_ZTIPN8gwp_asan5MutexE",
   "name" : "gwp_asan::Mutex *",
   "referenced_type" : "_ZTIN8gwp_asan5MutexE",
   "self_type" : "_ZTIPN8gwp_asan5MutexE",
   "size" : 8,
   "source_file" : "external/gwp_asan/gwp_asan/mutex.h"
  },
  {
   "alignment" : 8,
   "linker_set_key" : "_ZTIPN8gwp_asan7options7OptionsE",
   "name" : "gwp_asan::options::Options *",
   "referenced_type" : "_ZTIN8gwp_asan7options7OptionsE",
   "self_type" : "_ZTIPN8gwp_asan7options7OptionsE",
   "size" : 8,
   "source_file" : "external/gwp_asan/gwp_asan/options.h"
  },
  {
   "alignment" : 8,
   "linker_set_key" : "_ZTIPPc",
   "name" : "char **",
   "referenced_type" : "_ZTIPc",
   "self_type" : "_ZTIPPc",
   "size" : 8,
   "source_file" : "bionic/libc/include/unistd.h"
  },
  {
   "alignment" : 8,
   "linker_set_key" : "_ZTIPc",
   "name" : "char *",
   "referenced_type" : "_ZTIc",
   "self_type" : "_ZTIPc",
   "size" : 8,
   "source_file" : "bionic/libc/include/time.h"
  },
  {
   "alignment" : 8,
   "linker_set_key" : "_ZTIPm",
   "name" : "unsigned long *",
   "referenced_type" : "_ZTIm",
   "self_type" : "_ZTIPm",
   "size" : 8,
   "source_file" : "external/gwp_asan/gwp_asan/options.h"
  },
  {
   "alignment" : 8,
   "linker_set_key" : "_ZTIPv",
   "name" : "void *",
   "referenced_type" : "_ZTIv",
   "self_type" : "_ZTIPv",
   "size" : 8,
   "source_file" : "bionic/libc/include/bits/pthread_types.h"
  },
  {
   "alignment" : 8,
   "linker_set_key" : "_ZTIPy",
   "name" : "unsigned long long *",
   "referenced_type" : "_ZTIy",
   "self_type" : "_ZTIPy",
   "size" : 8,
   "source_file" : "bionic/libc/kernel/uapi/linux/prctl.h"
  }
 ],
 "qualified_types" :
 [
  {
   "alignment" : 8,
   "is_const" : true,
   "linker_set_key" : "_ZTIA65_KPKc",
   "name" : "const char *const[65]",
   "referenced_type" : "_ZTIA65_PKc",
   "self_type" : "_ZTIA65_KPKc",
   "size" : 520,
   "source_file" : "bionic/libc/include/signal.h"
  },
  {
   "alignment" : 8,
   "is_const" : true,
   "linker_set_key" : "_ZTIKN8gwp_asan14AllocatorStateE",
   "name" : "const gwp_asan::AllocatorState",
   "referenced_type" : "_ZTIN8gwp_asan14AllocatorStateE",
   "self_type" : "_ZTIKN8gwp_asan14AllocatorStateE",
   "size" : 48,
   "source_file" : "external/gwp_asan/gwp_asan/common.h"
  },
  {
   "alignment" : 8,
   "is_const" : true,
   "linker_set_key" : "_ZTIKN8gwp_asan18AllocationMetadataE",
   "name" : "const gwp_asan::AllocationMetadata",
   "referenced_type" : "_ZTIN8gwp_asan18AllocationMetadataE",
   "self_type" : "_ZTIKN8gwp_asan18AllocationMetadataE",
   "size" : 568,
   "source_file" : "external/gwp_asan/gwp_asan/guarded_pool_allocator.h"
  },
  {
   "alignment" : 8,
   "is_const" : true,
   "linker_set_key" : "_ZTIKN8gwp_asan20GuardedPoolAllocatorE",
   "name" : "const gwp_asan::GuardedPoolAllocator",
   "referenced_type" : "_ZTIN8gwp_asan20GuardedPoolAllocatorE",
   "self_type" : "_ZTIKN8gwp_asan20GuardedPoolAllocatorE",
   "size" : 184,
   "source_file" : "external/gwp_asan/gwp_asan/guarded_pool_allocator.h"
  },
  {
   "alignment" : 8,
   "is_const" : true,
   "linker_set_key" : "_ZTIKPKc",
   "name" : "const char *const",
   "referenced_type" : "_ZTIPKc",
   "self_type" : "_ZTIKPKc",
   "size" : 8,
   "source_file" : "external/gwp_asan/gwp_asan/guarded_pool_allocator.h"
  },
  {
   "alignment" : 1,
   "is_const" : true,
   "linker_set_key" : "_ZTIKc",
   "name" : "const char",
   "referenced_type" : "_ZTIc",
   "self_type" : "_ZTIKc",
   "size" : 1,
   "source_file" : "bionic/libc/include/signal.h"
  },
  {
   "alignment" : 4,
   "is_const" : true,
   "linker_set_key" : "_ZTIKj",
   "name" : "const unsigned int",
   "referenced_type" : "_ZTIj",
   "self_type" : "_ZTIKj",
   "size" : 4,
   "source_file" : "external/gwp_asan/gwp_asan/platform_specific/guarded_pool_allocator_tls.h"
  },
  {
   "alignment" : 8,
   "is_const" : true,
   "linker_set_key" : "_ZTIKm",
   "name" : "const unsigned long",
   "referenced_type" : "_ZTIm",
   "self_type" : "_ZTIKm",
   "size" : 8,
   "source_file" : "external/gwp_asan/gwp_asan/common.h"
  },
  {
   "is_const" : true,
   "linker_set_key" : "_ZTIKv",
   "name" : "const void",
   "referenced_type" : "_ZTIv",
   "self_type" : "_ZTIKv",
   "source_file" : "external/gwp_asan/gwp_asan/common.h"
  },
  {
   "alignment" : 8,
   "is_volatile" : true,
   "linker_set_key" : "_ZTIVPFPvS_mPKvE",
   "name" : "void *(*volatile)(void *, unsigned long, const void *)",
   "referenced_type" : "_ZTIPFPvS_mPKvE",
   "self_type" : "_ZTIVPFPvS_mPKvE",
   "size" : 8,
   "source_file" : "bionic/libc/include/malloc.h"
  },
  {
   "alignment" : 8,
   "is_volatile" : true,
   "linker_set_key" : "_ZTIVPFPvmPKvE",
   "name" : "void *(*volatile)(unsigned long, const void *)",
   "referenced_type" : "_ZTIPFPvmPKvE",
   "self_type" : "_ZTIVPFPvmPKvE",
   "size" : 8,
   "source_file" : "bionic/libc/include/malloc.h"
  },
  {
   "alignment" : 8,
   "is_volatile" : true,
   "linker_set_key" : "_ZTIVPFPvmmPKvE",
   "name" : "void *(*volatile)(unsigned long, unsigned long, const void *)",
   "referenced_type" : "_ZTIPFPvmmPKvE",
   "self_type" : "_ZTIVPFPvmmPKvE",
   "size" : 8,
   "source_file" : "bionic/libc/include/malloc.h"
  },
  {
   "alignment" : 8,
   "is_volatile" : true,
   "linker_set_key" : "_ZTIVPFvPvPKvE",
   "name" : "void (*volatile)(void *, const void *)",
   "referenced_type" : "_ZTIPFvPvPKvE",
   "self_type" : "_ZTIVPFvPvPKvE",
   "size" : 8,
   "source_file" : "bionic/libc/include/malloc.h"
  }
 ],
 "record_types" :
 [
  {
   "alignment" : 8,
   "fields" :
   [
    {
     "field_name" : "_kill",
     "referenced_type" : "_ZTIN10__sifieldsUt_E"
    },
    {
     "field_name" : "_timer",
     "referenced_type" : "_ZTIN10__sifieldsUt0_E"
    },
    {
     "field_name" : "_rt",
     "referenced_type" : "_ZTIN10__sifieldsUt1_E"
    },
    {
     "field_name" : "_sigchld",
     "referenced_type" : "_ZTIN10__sifieldsUt2_E"
    },
    {
     "field_name" : "_sigfault",
     "referenced_type" : "_ZTIN10__sifieldsUt3_E"
    },
    {
     "field_name" : "_sigpoll",
     "referenced_type" : "_ZTIN10__sifieldsUt4_E"
    },
    {
     "field_name" : "_sigsys",
     "referenced_type" : "_ZTIN10__sifieldsUt5_E"
    }
   ],
   "linker_set_key" : "_ZTI10__sifields",
   "name" : "__sifields",
   "record_kind" : "union",
   "referenced_type" : "_ZTI10__sifields",
   "self_type" : "_ZTI10__sifields",
   "size" : 32,
   "source_file" : "bionic/libc/kernel/uapi/asm-generic/siginfo.h"
  },
  {
   "alignment" : 8,
   "fields" :
   [
    {
     "field_name" : "flags",
     "referenced_type" : "_ZTIy"
    },
    {
     "field_name" : "pidfd",
     "field_offset" : 64,
     "referenced_type" : "_ZTIy"
    },
    {
     "field_name" : "child_tid",
     "field_offset" : 128,
     "referenced_type" : "_ZTIy"
    },
    {
     "field_name" : "parent_tid",
     "field_offset" : 192,
     "referenced_type" : "_ZTIy"
    },
    {
     "field_name" : "exit_signal",
     "field_offset" : 256,
     "referenced_type" : "_ZTIy"
    },
    {
     "field_name" : "stack",
     "field_offset" : 320,
     "referenced_type" : "_ZTIy"
    },
    {
     "field_name" : "stack_size",
     "field_offset" : 384,
     "referenced_type" : "_ZTIy"
    },
    {
     "field_name" : "tls",
     "field_offset" : 448,
     "referenced_type" : "_ZTIy"
    },
    {
     "field_name" : "set_tid",
     "field_offset" : 512,
     "referenced_type" : "_ZTIy"
    },
    {
     "field_name" : "set_tid_size",
     "field_offset" : 576,
     "referenced_type" : "_ZTIy"
    },
    {
     "field_name" : "cgroup",
     "field_offset" : 640,
     "referenced_type" : "_ZTIy"
    }
   ],
   "linker_set_key" : "_ZTI10clone_args",
   "name" : "clone_args",
   "referenced_type" : "_ZTI10clone_args",
   "self_type" : "_ZTI10clone_args",
   "size" : 88,
   "source_file" : "bionic/libc/kernel/uapi/linux/sched.h"
  },
  {
   "alignment" : 8,
   "fields" :
   [
    {
     "field_name" : "it_interval",
     "referenced_type" : "_ZTI8timespec"
    },
    {
     "field_name" : "it_value",
     "field_offset" : 128,
     "referenced_type" : "_ZTI8timespec"
    }
   ],
   "linker_set_key" : "_ZTI10itimerspec",
   "name" : "itimerspec",
   "referenced_type" : "_ZTI10itimerspec",
   "self_type" : "_ZTI10itimerspec",
   "size" : 32,
   "source_file" : "bionic/libc/kernel/uapi/linux/time.h"
  },
  {
   "alignment" : 16,
   "fields" :
   [
    {
     "field_name" : "fault_address",
     "referenced_type" : "_ZTIy"
    },
    {
     "field_name" : "regs",
     "field_offset" : 64,
     "referenced_type" : "_ZTIA31_y"
    },
    {
     "field_name" : "sp",
     "field_offset" : 2048,
     "referenced_type" : "_ZTIy"
    },
    {
     "field_name" : "pc",
     "field_offset" : 2112,
     "referenced_type" : "_ZTIy"
    },
    {
     "field_name" : "pstate",
     "field_offset" : 2176,
     "referenced_type" : "_ZTIy"
    },
    {
     "field_name" : "__reserved",
     "field_offset" : 2304,
     "referenced_type" : "_ZTIA4096_h"
    }
   ],
   "linker_set_key" : "_ZTI10sigcontext",
   "name" : "sigcontext",
   "referenced_type" : "_ZTI10sigcontext",
   "self_type" : "_ZTI10sigcontext",
   "size" : 4384,
   "source_file" : "bionic/libc/kernel/uapi/asm-arm64/asm/sigcontext.h"
  },
  {
   "alignment" : 8,
   "fields" :
   [
    {
     "field_name" : "head",
     "referenced_type" : "_ZTI12_aarch64_ctx"
    },
    {
     "field_name" : "esr",
     "field_offset" : 64,
     "referenced_type" : "_ZTIy"
    }
   ],
   "linker_set_key" : "_ZTI11esr_context",
   "name" : "esr_context",
   "referenced_type" : "_ZTI11esr_context",
   "self_type" : "_ZTI11esr_context",
   "size" : 16,
   "source_file" : "bionic/libc/kernel/uapi/asm-arm64/asm/sigcontext.h"
  },
  {
   "alignment" : 16,
   "fields" :
   [
    {
     "field_name" : "__clang_max_align_nonce1",
     "referenced_type" : "_ZTIx"
    },
    {
     "field_name" : "__clang_max_align_nonce2",
     "field_offset" : 128,
     "referenced_type" : "_ZTIe"
    }
   ],
   "linker_set_key" : "_ZTI11max_align_t",
   "name" : "max_align_t",
   "referenced_type" : "_ZTI11max_align_t",
   "self_type" : "_ZTI11max_align_t",
   "size" : 32,
   "source_file" : "prebuilts/clang-tools/linux-x86/clang-headers/__stddef_max_align_t.h"
  },
  {
   "alignment" : 4,
   "fields" :
   [
    {
     "field_name" : "sched_priority",
     "referenced_type" : "_ZTIi"
    }
   ],
   "linker_set_key" : "_ZTI11sched_param",
   "name" : "sched_param",
   "referenced_type" : "_ZTI11sched_param",
   "self_type" : "_ZTI11sched_param",
   "size" : 4,
   "source_file" : "bionic/libc/include/sched.h"
  },
  {
   "alignment" : 8,
   "fields" :
   [
    {
     "field_name" : "sa_flags",
     "referenced_type" : "_ZTIi"
    },
    {
     "field_offset" : 64,
     "referenced_type" : "_ZTIN11sigaction64Ut_E"
    },
    {
     "field_name" : "sa_mask",
     "field_offset" : 128,
     "referenced_type" : "_ZTI8sigset_t"
    },
    {
     "field_name" : "sa_restorer",
     "field_offset" : 192,
     "referenced_type" : "_ZTIPFvvE"
    }
   ],
   "linker_set_key" : "_ZTI11sigaction64",
   "name" : "sigaction64",
   "referenced_type" : "_ZTI11sigaction64",
   "self_type" : "_ZTI11sigaction64",
   "size" : 32,
   "source_file" : "bionic/libc/include/bits/signal_types.h"
  },
  {
   "alignment" : 8,
   "fields" :
   [
    {
     "field_name" : "ss_sp",
     "referenced_type" : "_ZTIPv"
    },
    {
     "field_name" : "ss_flags",
     "field_offset" : 64,
     "referenced_type" : "_ZTIi"
    },
    {
     "field_name" : "ss_size",
     "field_offset" : 128,
     "referenced_type" : "_ZTIm"
    }
   ],
   "linker_set_key" : "_ZTI11sigaltstack",
   "name" : "sigaltstack",
   "referenced_type" : "_ZTI11sigaltstack",
   "self_type" : "_ZTI11sigaltstack",
   "size" : 24,
   "source_file" : "bionic/libc/kernel/uapi/asm-generic/signal.h"
  },
  {
   "alignment" : 4,
   "fields" :
   [
    {
     "field_name" : "head",
     "referenced_type" : "_ZTI12_aarch64_ctx"
    },
    {
     "field_name" : "vl",
     "field_offset" : 64,
     "referenced_type" : "_ZTIt"
    },
    {
     "field_name" : "__reserved",
     "field_offset" : 80,
     "referenced_type" : "_ZTIA3_t"
    }
   ],
   "linker_set_key" : "_ZTI11sve_context",
   "name" : "sve_context",
   "referenced_type" : "_ZTI11sve_context",
   "self_type" : "_ZTI11sve_context",
   "size" : 16,
   "source_file" : "bionic/libc/kernel/uapi/asm-arm64/asm/sigcontext.h"
  },
  {
   "alignment" : 4,
   "fields" :
   [
    {
     "field_name" : "magic",
     "referenced_type" : "_ZTIj"
    },
    {
     "field_name" : "size",
     "field_offset" : 32,
     "referenced_type" : "_ZTIj"
    }
   ],
   "linker_set_key" : "_ZTI12_aarch64_ctx",
   "name" : "_aarch64_ctx",
   "referenced_type" : "_ZTI12_aarch64_ctx",
   "self_type" : "_ZTI12_aarch64_ctx",
   "size" : 8,
   "source_file" : "bionic/libc/kernel/uapi/asm-arm64/asm/sigcontext.h"
  },
  {
   "alignment" : 8,
   "fields" :
   [
    {
     "field_name" : "start_code",
     "referenced_type" : "_ZTIy"
    },
    {
     "field_name" : "end_code",
     "field_offset" : 64,
     "referenced_type" : "_ZTIy"
    },
    {
     "field_name" : "start_data",
     "field_offset" : 128,
     "referenced_type" : "_ZTIy"
    },
    {
     "field_name" : "end_data",
     "field_offset" : 192,
     "referenced_type" : "_ZTIy"
    },
    {
     "field_name" : "start_brk",
     "field_offset" : 256,
     "referenced_type" : "_ZTIy"
    },
    {
     "field_name" : "brk",
     "field_offset" : 320,
     "referenced_type" : "_ZTIy"
    },
    {
     "field_name" : "start_stack",
     "field_offset" : 384,
     "referenced_type" : "_ZTIy"
    },
    {
     "field_name" : "arg_start",
     "field_offset" : 448,
     "referenced_type" : "_ZTIy"
    },
    {
     "field_name" : "arg_end",
     "field_offset" : 512,
     "referenced_type" : "_ZTIy"
    },
    {
     "field_name" : "env_start",
     "field_offset" : 576,
     "referenced_type" : "_ZTIy"
    },
    {
     "field_name" : "env_end",
     "field_offset" : 640,
     "referenced_type" : "_ZTIy"
    },
    {
     "field_name" : "auxv",
     "field_offset" : 704,
     "referenced_type" : "_ZTIPy"
    },
    {
     "field_name" : "auxv_size",
     "field_offset" : 768,
     "referenced_type" : "_ZTIj"
    },
    {
     "field_name" : "exe_fd",
     "field_offset" : 800,
     "referenced_type" : "_ZTIj"
    }
   ],
   "linker_set_key" : "_ZTI12prctl_mm_map",
   "name" : "prctl_mm_map",
   "referenced_type" : "_ZTI12prctl_mm_map",
   "self_type" : "_ZTI12prctl_mm_map",
   "size" : 104,
   "source_file" : "bionic/libc/kernel/uapi/linux/prctl.h"
  },
  {
   "alignment" : 8,
   "fields" :
   [
    {
     "field_name" : "head",
     "referenced_type" : "_ZTI12_aarch64_ctx"
    },
    {
     "field_name" : "datap",
     "field_offset" : 64,
     "referenced_type" : "_ZTIy"
    },
    {
     "field_name" : "size",
     "field_offset" : 128,
     "referenced_type" : "_ZTIj"
    },
    {
     "field_name" : "__reserved",
     "field_offset" : 160,
     "referenced_type" : "_ZTIA3_j"
    }
   ],
   "linker_set_key" : "_ZTI13extra_context",
   "name" : "extra_context",
   "referenced_type" : "_ZTI13extra_context",
   "self_type" : "_ZTI13extra_context",
   "size" : 32,
   "source_file" : "bionic/libc/kernel/uapi/asm-arm64/asm/sigcontext.h"
  },
  {
   "alignment" : 16,
   "fields" :
   [
    {
     "field_name" : "head",
     "referenced_type" : "_ZTI12_aarch64_ctx"
    },
    {
     "field_name" : "fpsr",
     "field_offset" : 64,
     "referenced_type" : "_ZTIj"
    },
    {
     "field_name" : "fpcr",
     "field_offset" : 96,
     "referenced_type" : "_ZTIj"
    },
    {
     "field_name" : "vregs",
     "field_offset" : 128,
     "referenced_type" : "_ZTIA32_o"
    }
   ],
   "linker_set_key" : "_ZTI14fpsimd_context",
   "name" : "fpsimd_context",
   "referenced_type" : "_ZTI14fpsimd_context",
   "self_type" : "_ZTI14fpsimd_context",
   "size" : 528,
   "source_file" : "bionic/libc/kernel/uapi/asm-arm64/asm/sigcontext.h"
  },
  {
   "alignment" : 8,
   "fields" :
   [
    {
     "field_name" : "flags",
     "referenced_type" : "_ZTIj"
    },
    {
     "field_name" : "stack_base",
     "field_offset" : 64,
     "referenced_type" : "_ZTIPv"
    },
    {
     "field_name" : "stack_size",
     "field_offset" : 128,
     "referenced_type" : "_ZTIm"
    },
    {
     "field_name" : "guard_size",
     "field_offset" : 192,
     "referenced_type" : "_ZTIm"
    },
    {
     "field_name" : "sched_policy",
     "field_offset" : 256,
     "referenced_type" : "_ZTIi"
    },
    {
     "field_name" : "sched_priority",
     "field_offset" : 288,
     "referenced_type" : "_ZTIi"
    },
    {
     "field_name" : "__reserved",
     "field_offset" : 320,
     "referenced_type" : "_ZTIA16_c"
    }
   ],
   "linker_set_key" : "_ZTI14pthread_attr_t",
   "name" : "pthread_attr_t",
   "referenced_type" : "_ZTI14pthread_attr_t",
   "self_type" : "_ZTI14pthread_attr_t",
   "size" : 56,
   "source_file" : "bionic/libc/include/bits/pthread_types.h"
  },
  {
   "alignment" : 4,
   "fields" :
   [
    {
     "field_name" : "__private",
     "referenced_type" : "_ZTIA12_i"
    }
   ],
   "linker_set_key" : "_ZTI14pthread_cond_t",
   "name" : "pthread_cond_t",
   "referenced_type" : "_ZTI14pthread_cond_t",
   "self_type" : "_ZTI14pthread_cond_t",
   "size" : 48,
   "source_file" : "bionic/libc/include/bits/pthread_types.h"
  },
  {
   "alignment" : 8,
   "fields" :
   [
    {
     "field_name" : "fds_bits",
     "referenced_type" : "_ZTIA16_m"
    }
   ],
   "linker_set_key" : "_ZTI15__kernel_fd_set",
   "name" : "__kernel_fd_set",
   "referenced_type" : "_ZTI15__kernel_fd_set",
   "self_type" : "_ZTI15__kernel_fd_set",
   "size" : 128,
   "source_file" : "bionic/libc/kernel/uapi/linux/posix_types.h"
  },
  {
   "alignment" : 4,
   "fields" :
   [
    {
     "field_name" : "val",
     "referenced_type" : "_ZTIA2_i"
    }
   ],
   "linker_set_key" : "_ZTI15__kernel_fsid_t",
   "name" : "__kernel_fsid_t",
   "referenced_type" : "_ZTI15__kernel_fsid_t",
   "self_type" : "_ZTI15__kernel_fsid_t",
   "size" : 8,
   "source_file" : "bionic/libc/kernel/uapi/asm-generic/posix_types.h"
  },
  {
   "alignment" : 4,
   "fields" :
   [
    {
     "field_name" : "__private",
     "referenced_type" : "_ZTIA10_i"
    }
   ],
   "linker_set_key" : "_ZTI15pthread_mutex_t",
   "name" : "pthread_mutex_t",
   "referenced_type" : "_ZTI15pthread_mutex_t",
   "self_type" : "_ZTI15pthread_mutex_t",
   "size" : 40,
   "source_file" : "bionic/libc/include/bits/pthread_types.h"
  },
  {
   "alignment" : 4,
   "fields" :
   [
    {
     "field_name" : "__private",
     "referenced_type" : "_ZTIA14_i"
    }
   ],
   "linker_set_key" : "_ZTI16pthread_rwlock_t",
   "name" : "pthread_rwlock_t",
   "referenced_type" : "_ZTI16pthread_rwlock_t",
   "self_type" : "_ZTI16pthread_rwlock_t",
   "size" : 56,
   "source_file" : "bionic/libc/include/bits/pthread_types.h"
  },
  {
   "alignment" : 8,
   "fields" :
   [
    {
     "field_name" : "regs",
     "referenced_type" : "_ZTIA31_m"
    },
    {
     "field_name" : "sp",
     "field_offset" : 1984,
     "referenced_type" : "_ZTIm"
    },
    {
     "field_name" : "pc",
     "field_offset" : 2048,
     "referenced_type" : "_ZTIm"
    },
    {
     "field_name" : "pstate",
     "field_offset" : 2112,
     "referenced_type" : "_ZTIm"
    }
   ],
   "linker_set_key" : "_ZTI16user_regs_struct",
   "name" : "user_regs_struct",
   "referenced_type" : "_ZTI16user_regs_struct",
   "self_type" : "_ZTI16user_regs_struct",
   "size" : 272,
   "source_file" : "bionic/libc/include/sys/user.h"
  },
  {
   "alignment" : 8,
   "fields" :
   [
    {
     "field_name" : "tv_sec",
     "referenced_type" : "_ZTIx"
    },
    {
     "field_name" : "tv_nsec",
     "field_offset" : 64,
     "referenced_type" : "_ZTIx"
    }
   ],
   "linker_set_key" : "_ZTI17__kernel_timespec",
   "name" : "__kernel_timespec",
   "referenced_type" : "_ZTI17__kernel_timespec",
   "self_type" : "_ZTI17__kernel_timespec",
   "size" : 16,
   "source_file" : "bionic/libc/kernel/uapi/linux/time_types.h"
  },
  {
   "alignment" : 8,
   "fields" :
   [
    {
     "field_name" : "__private",
     "referenced_type" : "_ZTIA4_l"
    }
   ],
   "linker_set_key" : "_ZTI17pthread_barrier_t",
   "name" : "pthread_barrier_t",
   "referenced_type" : "_ZTI17pthread_barrier_t",
   "self_type" : "_ZTI17pthread_barrier_t",
   "size" : 32,
   "source_file" : "bionic/libc/include/bits/pthread_types.h"
  },
  {
   "alignment" : 8,
   "fields" :
   [
    {
     "field_name" : "sa_handler",
     "referenced_type" : "_ZTIPFviE"
    },
    {
     "field_name" : "sa_flags",
     "field_offset" : 64,
     "referenced_type" : "_ZTIm"
    },
    {
     "field_name" : "sa_restorer",
     "field_offset" : 128,
     "referenced_type" : "_ZTIPFvvE"
    },
    {
     "field_name" : "sa_mask",
     "field_offset" : 192,
     "referenced_type" : "_ZTI8sigset_t"
    }
   ],
   "linker_set_key" : "_ZTI18__kernel_sigaction",
   "name" : "__kernel_sigaction",
   "referenced_type" : "_ZTI18__kernel_sigaction",
   "self_type" : "_ZTI18__kernel_sigaction",
   "size" : 32,
   "source_file" : "bionic/libc/kernel/uapi/asm-generic/signal.h"
  },
  {
   "alignment" : 8,
   "fields" :
   [
    {
     "field_name" : "__private",
     "referenced_type" : "_ZTIl"
    }
   ],
   "linker_set_key" : "_ZTI18pthread_spinlock_t",
   "name" : "pthread_spinlock_t",
   "referenced_type" : "_ZTI18pthread_spinlock_t",
   "self_type" : "_ZTI18pthread_spinlock_t",
   "size" : 8,
   "source_file" : "bionic/libc/include/bits/pthread_types.h"
  },
  {
   "alignment" : 16,
   "fields" :
   [
    {
     "field_name" : "vregs",
     "referenced_type" : "_ZTIA32_o"
    },
    {
     "field_name" : "fpsr",
     "field_offset" : 4096,
     "referenced_type" : "_ZTIj"
    },
    {
     "field_name" : "fpcr",
     "field_offset" : 4128,
     "referenced_type" : "_ZTIj"
    }
   ],
   "linker_set_key" : "_ZTI18user_fpsimd_struct",
   "name" : "user_fpsimd_struct",
   "referenced_type" : "_ZTI18user_fpsimd_struct",
   "self_type" : "_ZTI18user_fpsimd_struct",
   "size" : 528,
   "source_file" : "bionic/libc/include/sys/user.h"
  },
  {
   "alignment" : 8,
   "fields" :
   [
    {
     "field_name" : "it_interval",
     "referenced_type" : "_ZTI17__kernel_timespec"
    },
    {
     "field_name" : "it_value",
     "field_offset" : 128,
     "referenced_type" : "_ZTI17__kernel_timespec"
    }
   ],
   "linker_set_key" : "_ZTI19__kernel_itimerspec",
   "name" : "__kernel_itimerspec",
   "referenced_type" : "_ZTI19__kernel_itimerspec",
   "self_type" : "_ZTI19__kernel_itimerspec",
   "size" : 32,
   "source_file" : "bionic/libc/kernel/uapi/linux/time_types.h"
  },
  {
   "alignment" : 8,
   "fields" :
   [
    {
     "field_name" : "__cleanup_prev",
     "referenced_type" : "_ZTIP19__pthread_cleanup_t"
    },
    {
     "field_name" : "__cleanup_routine",
     "field_offset" : 64,
     "referenced_type" : "_ZTIPFvPvE"
    },
    {
     "field_name" : "__cleanup_arg",
     "field_offset" : 128,
     "referenced_type" : "_ZTIPv"
    }
   ],
   "linker_set_key" : "_ZTI19__pthread_cleanup_t",
   "name" : "__pthread_cleanup_t",
   "referenced_type" : "_ZTI19__pthread_cleanup_t",
   "self_type" : "_ZTI19__pthread_cleanup_t",
   "size" : 24,
   "source_file" : "bionic/libc/include/pthread.h"
  },
  {
   "alignment" : 8,
   "fields" :
   [
    {
     "field_name" : "tv_sec",
     "referenced_type" : "_ZTIl"
    },
    {
     "field_name" : "tv_nsec",
     "field_offset" : 64,
     "referenced_type" : "_ZTIl"
    }
   ],
   "linker_set_key" : "_ZTI21__kernel_old_timespec",
   "name" : "__kernel_old_timespec",
   "referenced_type" : "_ZTI21__kernel_old_timespec",
   "self_type" : "_ZTI21__kernel_old_timespec",
   "size" : 16,
   "source_file" : "bionic/libc/kernel/uapi/linux/time_types.h"
  },
  {
   "alignment" : 8,
   "fields" :
   [
    {
     "field_name" : "tv_sec",
     "referenced_type" : "_ZTIx"
    },
    {
     "field_name" : "tv_usec",
     "field_offset" : 64,
     "referenced_type" : "_ZTIx"
    }
   ],
   "linker_set_key" : "_ZTI21__kernel_sock_timeval",
   "name" : "__kernel_sock_timeval",
   "referenced_type" : "_ZTI21__kernel_sock_timeval",
   "self_type" : "_ZTI21__kernel_sock_timeval",
   "size" : 16,
   "source_file" : "bionic/libc/kernel/uapi/linux/time_types.h"
  },
  {
   "alignment" : 8,
   "fields" :
   [
    {
     "field_name" : "tm_sec",
     "referenced_type" : "_ZTIi"
    },
    {
     "field_name" : "tm_min",
     "field_offset" : 32,
     "referenced_type" : "_ZTIi"
    },
    {
     "field_name" : "tm_hour",
     "field_offset" : 64,
     "referenced_type" : "_ZTIi"
    },
    {
     "field_name" : "tm_mday",
     "field_offset" : 96,
     "referenced_type" : "_ZTIi"
    },
    {
     "field_name" : "tm_mon",
     "field_offset" : 128,
     "referenced_type" : "_ZTIi"
    },
    {
     "field_name" : "tm_year",
     "field_offset" : 160,
     "referenced_type" : "_ZTIi"
    },
    {
     "field_name" : "tm_wday",
     "field_offset" : 192,
     "referenced_type" : "_ZTIi"
    },
    {
     "field_name" : "tm_yday",
     "field_offset" : 224,
     "referenced_type" : "_ZTIi"
    },
    {
     "field_name" : "tm_isdst",
     "field_offset" : 256,
     "referenced_type" : "_ZTIi"
    },
    {
     "field_name" : "tm_gmtoff",
     "field_offset" : 320,
     "referenced_type" : "_ZTIl"
    },
    {
     "field_name" : "tm_zone",
     "field_offset" : 384,
     "referenced_type" : "_ZTIPKc"
    }
   ],
   "linker_set_key" : "_ZTI2tm",
   "name" : "tm",
   "referenced_type" : "_ZTI2tm",
   "self_type" : "_ZTI2tm",
   "size" : 56,
   "source_file" : "bionic/libc/include/time.h"
  },
  {
   "alignment" : 4,
   "fields" :
   [
    {
     "field_name" : "quot",
     "referenced_type" : "_ZTIi"
    },
    {
     "field_name" : "rem",
     "field_offset" : 32,
     "referenced_type" : "_ZTIi"
    }
   ],
   "linker_set_key" : "_ZTI5div_t",
   "name" : "div_t",
   "referenced_type" : "_ZTI5div_t",
   "self_type" : "_ZTI5div_t",
   "size" : 8,
   "source_file" : "bionic/libc/include/stdlib.h"
  },
  {
   "alignment" : 8,
   "fields" :
   [
    {
     "field_name" : "iov_base",
     "referenced_type" : "_ZTIPv"
    },
    {
     "field_name" : "iov_len",
     "field_offset" : 64,
     "referenced_type" : "_ZTIm"
    }
   ],
   "linker_set_key" : "_ZTI5iovec",
   "name" : "iovec",
   "referenced_type" : "_ZTI5iovec",
   "self_type" : "_ZTI5iovec",
   "size" : 16,
   "source_file" : "bionic/libc/kernel/uapi/linux/uio.h"
  },
  {
   "alignment" : 8,
   "fields" :
   [
    {
     "field_name" : "fds_bits",
     "referenced_type" : "_ZTIA16_m"
    }
   ],
   "linker_set_key" : "_ZTI6fd_set",
   "name" : "fd_set",
   "referenced_type" : "_ZTI6fd_set",
   "self_type" : "_ZTI6fd_set",
   "size" : 128,
   "source_file" : "bionic/libc/include/sys/select.h"
  },
  {
   "alignment" : 8,
   "fields" :
   [
    {
     "field_name" : "quot",
     "referenced_type" : "_ZTIl"
    },
    {
     "field_name" : "rem",
     "field_offset" : 64,
     "referenced_type" : "_ZTIl"
    }
   ],
   "linker_set_key" : "_ZTI6ldiv_t",
   "name" : "ldiv_t",
   "referenced_type" : "_ZTI6ldiv_t",
   "self_type" : "_ZTI6ldiv_t",
   "size" : 16,
   "source_file" : "bionic/libc/include/stdlib.h"
  },
  {
   "alignment" : 8,
   "fields" :
   [
    {
     "field_name" : "sival_int",
     "referenced_type" : "_ZTIi"
    },
    {
     "field_name" : "sival_ptr",
     "referenced_type" : "_ZTIPv"
    }
   ],
   "linker_set_key" : "_ZTI6sigval",
   "name" : "sigval",
   "record_kind" : "union",
   "referenced_type" : "_ZTI6sigval",
   "self_type" : "_ZTI6sigval",
   "size" : 8,
   "source_file" : "bionic/libc/kernel/uapi/asm-generic/siginfo.h"
  },
  {
   "alignment" : 8,
   "fields" :
   [
    {
     "field_name" : "quot",
     "referenced_type" : "_ZTIx"
    },
    {
     "field_name" : "rem",
     "field_offset" : 64,
     "referenced_type" : "_ZTIx"
    }
   ],
   "linker_set_key" : "_ZTI7lldiv_t",
   "name" : "lldiv_t",
   "referenced_type" : "_ZTI7lldiv_t",
   "self_type" : "_ZTI7lldiv_t",
   "size" : 16,
   "source_file" : "bionic/libc/include/stdlib.h"
  },
  {
   "alignment" : 8,
   "fields" :
   [
    {
     "referenced_type" : "_ZTIN7siginfoUt_E"
    }
   ],
   "linker_set_key" : "_ZTI7siginfo",
   "name" : "siginfo",
   "referenced_type" : "_ZTI7siginfo",
   "self_type" : "_ZTI7siginfo",
   "size" : 128,
   "source_file" : "bionic/libc/kernel/uapi/asm-generic/siginfo.h"
  },
  {
   "alignment" : 8,
   "fields" :
   [
    {
     "field_name" : "tv_sec",
     "referenced_type" : "_ZTIl"
    },
    {
     "field_name" : "tv_usec",
     "field_offset" : 64,
     "referenced_type" : "_ZTIl"
    }
   ],
   "linker_set_key" : "_ZTI7timeval",
   "name" : "timeval",
   "referenced_type" : "_ZTI7timeval",
   "self_type" : "_ZTI7timeval",
   "size" : 16,
   "source_file" : "bionic/libc/kernel/uapi/linux/time.h"
  },
  {
   "alignment" : 8,
   "fields" :
   [
    {
     "field_name" : "arena",
     "referenced_type" : "_ZTIm"
    },
    {
     "field_name" : "ordblks",
     "field_offset" : 64,
     "referenced_type" : "_ZTIm"
    },
    {
     "field_name" : "smblks",
     "field_offset" : 128,
     "referenced_type" : "_ZTIm"
    },
    {
     "field_name" : "hblks",
     "field_offset" : 192,
     "referenced_type" : "_ZTIm"
    },
    {
     "field_name" : "hblkhd",
     "field_offset" : 256,
     "referenced_type" : "_ZTIm"
    },
    {
     "field_name" : "usmblks",
     "field_offset" : 320,
     "referenced_type" : "_ZTIm"
    },
    {
     "field_name" : "fsmblks",
     "field_offset" : 384,
     "referenced_type" : "_ZTIm"
    },
    {
     "field_name" : "uordblks",
     "field_offset" : 448,
     "referenced_type" : "_ZTIm"
    },
    {
     "field_name" : "fordblks",
     "field_offset" : 512,
     "referenced_type" : "_ZTIm"
    },
    {
     "field_name" : "keepcost",
     "field_offset" : 576,
     "referenced_type" : "_ZTIm"
    }
   ],
   "linker_set_key" : "_ZTI8mallinfo",
   "name" : "mallinfo",
   "referenced_type" : "_ZTI8mallinfo",
   "self_type" : "_ZTI8mallinfo",
   "size" : 80,
   "source_file" : "bionic/libc/include/malloc.h"
  },
  {
   "alignment" : 8,
   "fields" :
   [
    {
     "field_name" : "sigev_value",
     "referenced_type" : "_ZTI6sigval"
    },
    {
     "field_name" : "sigev_signo",
     "field_offset" : 64,
     "referenced_type" : "_ZTIi"
    },
    {
     "field_name" : "sigev_notify",
     "field_offset" : 96,
     "referenced_type" : "_ZTIi"
    },
    {
     "field_name" : "_sigev_un",
     "field_offset" : 128,
     "referenced_type" : "_ZTIN8sigeventUt_E"
    }
   ],
   "linker_set_key" : "_ZTI8sigevent",
   "name" : "sigevent",
   "referenced_type" : "_ZTI8sigevent",
   "self_type" : "_ZTI8sigevent",
   "size" : 64,
   "source_file" : "bionic/libc/kernel/uapi/asm-generic/siginfo.h"
  },
  {
   "alignment" : 8,
   "fields" :
   [
    {
     "field_name" : "sig",
     "referenced_type" : "_ZTIA1_m"
    }
   ],
   "linker_set_key" : "_ZTI8sigset_t",
   "name" : "sigset_t",
   "referenced_type" : "_ZTI8sigset_t",
   "self_type" : "_ZTI8sigset_t",
   "size" : 8,
   "source_file" : "bionic/libc/kernel/uapi/asm-generic/signal.h"
  },
  {
   "alignment" : 8,
   "fields" :
   [
    {
     "field_name" : "tv_sec",
     "referenced_type" : "_ZTIl"
    },
    {
     "field_name" : "tv_nsec",
     "field_offset" : 64,
     "referenced_type" : "_ZTIl"
    }
   ],
   "linker_set_key" : "_ZTI8timespec",
   "name" : "timespec",
   "referenced_type" : "_ZTI8timespec",
   "self_type" : "_ZTI8timespec",
   "size" : 16,
   "source_file" : "bionic/libc/include/bits/timespec.h"
  },
  {
   "alignment" : 4,
   "fields" :
   [
    {
     "field_name" : "tz_minuteswest",
     "referenced_type" : "_ZTIi"
    },
    {
     "field_name" : "tz_dsttime",
     "field_offset" : 32,
     "referenced_type" : "_ZTIi"
    }
   ],
   "linker_set_key" : "_ZTI8timezone",
   "name" : "timezone",
   "referenced_type" : "_ZTI8timezone",
   "self_type" : "_ZTI8timezone",
   "size" : 8,
   "source_file" : "bionic/libc/kernel/uapi/linux/time.h"
  },
  {
   "alignment" : 16,
   "fields" :
   [
    {
     "field_name" : "uc_flags",
     "referenced_type" : "_ZTIm"
    },
    {
     "field_name" : "uc_link",
     "field_offset" : 64,
     "referenced_type" : "_ZTIP8ucontext"
    },
    {
     "field_name" : "uc_stack",
     "field_offset" : 128,
     "referenced_type" : "_ZTI11sigaltstack"
    },
    {
     "field_offset" : 320,
     "referenced_type" : "_ZTIN8ucontextUt_E"
    },
    {
     "field_name" : "__padding",
     "field_offset" : 384,
     "referenced_type" : "_ZTIA120_c"
    },
    {
     "field_name" : "uc_mcontext",
     "field_offset" : 1408,
     "referenced_type" : "_ZTI10sigcontext"
    }
   ],
   "linker_set_key" : "_ZTI8ucontext",
   "name" : "ucontext",
   "referenced_type" : "_ZTI8ucontext",
   "self_type" : "_ZTI8ucontext",
   "size" : 4560,
   "source_file" : "bionic/libc/include/sys/ucontext.h"
  },
  {
   "alignment" : 8,
   "fields" :
   [
    {
     "field_name" : "__bits",
     "referenced_type" : "_ZTIA16_m"
    }
   ],
   "linker_set_key" : "_ZTI9cpu_set_t",
   "name" : "cpu_set_t",
   "referenced_type" : "_ZTI9cpu_set_t",
   "self_type" : "_ZTI9cpu_set_t",
   "size" : 128,
   "source_file" : "bionic/libc/include/sched.h"
  },
  {
   "alignment" : 8,
   "fields" :
   [
    {
     "field_name" : "it_interval",
     "referenced_type" : "_ZTI7timeval"
    },
    {
     "field_name" : "it_value",
     "field_offset" : 128,
     "referenced_type" : "_ZTI7timeval"
    }
   ],
   "linker_set_key" : "_ZTI9itimerval",
   "name" : "itimerval",
   "referenced_type" : "_ZTI9itimerval",
   "self_type" : "_ZTI9itimerval",
   "size" : 32,
   "source_file" : "bionic/libc/kernel/uapi/linux/time.h"
  },
  {
   "alignment" : 8,
   "fields" :
   [
    {
     "field_name" : "sa_flags",
     "referenced_type" : "_ZTIi"
    },
    {
     "field_offset" : 64,
     "referenced_type" : "_ZTIN9sigactionUt_E"
    },
    {
     "field_name" : "sa_mask",
     "field_offset" : 128,
     "referenced_type" : "_ZTI8sigset_t"
    },
    {
     "field_name" : "sa_restorer",
     "field_offset" : 192,
     "referenced_type" : "_ZTIPFvvE"
    }
   ],
   "linker_set_key" : "_ZTI9sigaction",
   "name" : "sigaction",
   "referenced_type" : "_ZTI9sigaction",
   "self_type" : "_ZTI9sigaction",
   "size" : 32,
   "source_file" : "bionic/libc/include/bits/signal_types.h"
  },
  {
   "alignment" : 8,
   "fields" :
   [
    {
     "field_name" : "_tid",
     "referenced_type" : "_ZTIi"
    },
    {
     "field_name" : "_overrun",
     "field_offset" : 32,
     "referenced_type" : "_ZTIi"
    },
    {
     "field_name" : "_sigval",
     "field_offset" : 64,
     "referenced_type" : "_ZTI6sigval"
    },
    {
     "field_name" : "_sys_private",
     "field_offset" : 128,
     "referenced_type" : "_ZTIi"
    }
   ],
   "is_anonymous" : true,
   "linker_set_key" : "_ZTIN10__sifieldsUt0_E",
   "name" : "__sifields::(anonymous struct at bionic/libc/kernel/uapi/asm-generic/siginfo.h:42:3)",
   "referenced_type" : "_ZTIN10__sifieldsUt0_E",
   "self_type" : "_ZTIN10__sifieldsUt0_E",
   "size" : 24,
   "source_file" : "bionic/libc/kernel/uapi/asm-generic/siginfo.h"
  },
  {
   "alignment" : 8,
   "fields" :
   [
    {
     "field_name" : "_pid",
     "referenced_type" : "_ZTIi"
    },
    {
     "field_name" : "_uid",
     "field_offset" : 32,
     "referenced_type" : "_ZTIj"
    },
    {
     "field_name" : "_sigval",
     "field_offset" : 64,
     "referenced_type" : "_ZTI6sigval"
    }
   ],
   "is_anonymous" : true,
   "linker_set_key" : "_ZTIN10__sifieldsUt1_E",
   "name" : "__sifields::(anonymous struct at bionic/libc/kernel/uapi/asm-generic/siginfo.h:48:3)",
   "referenced_type" : "_ZTIN10__sifieldsUt1_E",
   "self_type" : "_ZTIN10__sifieldsUt1_E",
   "size" : 16,
   "source_file" : "bionic/libc/kernel/uapi/asm-generic/siginfo.h"
  },
  {
   "alignment" : 8,
   "fields" :
   [
    {
     "field_name" : "_pid",
     "referenced_type" : "_ZTIi"
    },
    {
     "field_name" : "_uid",
     "field_offset" : 32,
     "referenced_type" : "_ZTIj"
    },
    {
     "field_name" : "_status",
     "field_offset" : 64,
     "referenced_type" : "_ZTIi"
    },
    {
     "field_name" : "_utime",
     "field_offset" : 128,
     "referenced_type" : "_ZTIl"
    },
    {
     "field_name" : "_stime",
     "field_offset" : 192,
     "referenced_type" : "_ZTIl"
    }
   ],
   "is_anonymous" : true,
   "linker_set_key" : "_ZTIN10__sifieldsUt2_E",
   "name" : "__sifields::(anonymous struct at bionic/libc/kernel/uapi/asm-generic/siginfo.h:53:3)",
   "referenced_type" : "_ZTIN10__sifieldsUt2_E",
   "self_type" : "_ZTIN10__sifieldsUt2_E",
   "size" : 32,
   "source_file" : "bionic/libc/kernel/uapi/asm-generic/siginfo.h"
  },
  {
   "alignment" : 8,
   "fields" :
   [
    {
     "field_name" : "_addr",
     "referenced_type" : "_ZTIPv"
    },
    {
     "field_offset" : 64,
     "referenced_type" : "_ZTIN10__sifieldsUt3_Ut_E"
    }
   ],
   "is_anonymous" : true,
   "linker_set_key" : "_ZTIN10__sifieldsUt3_E",
   "name" : "__sifields::(anonymous struct at bionic/libc/kernel/uapi/asm-generic/siginfo.h:60:3)",
   "referenced_type" : "_ZTIN10__sifieldsUt3_E",
   "self_type" : "_ZTIN10__sifieldsUt3_E",
   "size" : 32,
   "source_file" : "bionic/libc/kernel/uapi/asm-generic/siginfo.h"
  },
  {
   "alignment" : 8,
   "fields" :
   [
    {
     "field_name" : "_addr_lsb",
     "referenced_type" : "_ZTIs"
    },
    {
     "field_name" : "_addr_bnd",
     "referenced_type" : "_ZTIN10__sifieldsUt3_Ut_Ut_E"
    },
    {
     "field_name" : "_addr_pkey",
     "referenced_type" : "_ZTIN10__sifieldsUt3_Ut_Ut0_E"
    }
   ],
   "is_anonymous" : true,
   "linker_set_key" : "_ZTIN10__sifieldsUt3_Ut_E",
   "name" : "__sifields::(anonymous struct at bionic/libc/kernel/uapi/asm-generic/siginfo.h:60:3)::(anonymous union at bionic/libc/kernel/uapi/asm-generic/siginfo.h:71:5)",
   "record_kind" : "union",
   "referenced_type" : "_ZTIN10__sifieldsUt3_Ut_E",
   "self_type" : "_ZTIN10__sifieldsUt3_Ut_E",
   "size" : 24,
   "source_file" : "bionic/libc/kernel/uapi/asm-generic/siginfo.h"
  },
  {
   "alignment" : 4,
   "fields" :
   [
    {
     "field_name" : "_dummy_pkey",
     "referenced_type" : "_ZTIA8_c"
    },
    {
     "field_name" : "_pkey",
     "field_offset" : 64,
     "referenced_type" : "_ZTIj"
    }
   ],
   "is_anonymous" : true,
   "linker_set_key" : "_ZTIN10__sifieldsUt3_Ut_Ut0_E",
   "name" : "__sifields::(anonymous struct at bionic/libc/kernel/uapi/asm-generic/siginfo.h:60:3)::(anonymous union at bionic/libc/kernel/uapi/asm-generic/siginfo.h:71:5)::(anonymous struct at bionic/libc/kernel/uapi/asm-generic/siginfo.h:78:7)",
   "referenced_type" : "_ZTIN10__sifieldsUt3_Ut_Ut0_E",
   "self_type" : "_ZTIN10__sifieldsUt3_Ut_Ut0_E",
   "size" : 12,
   "source_file" : "bionic/libc/kernel/uapi/asm-generic/siginfo.h"
  },
  {
   "alignment" : 8,
   "fields" :
   [
    {
     "field_name" : "_dummy_bnd",
     "referenced_type" : "_ZTIA8_c"
    },
    {
     "field_name" : "_lower",
     "field_offset" : 64,
     "referenced_type" : "_ZTIPv"
    },
    {
     "field_name" : "_upper",
     "field_offset" : 128,
     "referenced_type" : "_ZTIPv"
    }
   ],
   "is_anonymous" : true,
   "linker_set_key" : "_ZTIN10__sifieldsUt3_Ut_Ut_E",
   "name" : "__sifields::(anonymous struct at bionic/libc/kernel/uapi/asm-generic/siginfo.h:60:3)::(anonymous union at bionic/libc/kernel/uapi/asm-generic/siginfo.h:71:5)::(anonymous struct at bionic/libc/kernel/uapi/asm-generic/siginfo.h:73:7)",
   "referenced_type" : "_ZTIN10__sifieldsUt3_Ut_Ut_E",
   "self_type" : "_ZTIN10__sifieldsUt3_Ut_Ut_E",
   "size" : 24,
   "source_file" : "bionic/libc/kernel/uapi/asm-generic/siginfo.h"
  },
  {
   "alignment" : 8,
   "fields" :
   [
    {
     "field_name" : "_band",
     "referenced_type" : "_ZTIl"
    },
    {
     "field_name" : "_fd",
     "field_offset" : 64,
     "referenced_type" : "_ZTIi"
    }
   ],
   "is_anonymous" : true,
   "linker_set_key" : "_ZTIN10__sifieldsUt4_E",
   "name" : "__sifields::(anonymous struct at bionic/libc/kernel/uapi/asm-generic/siginfo.h:84:3)",
   "referenced_type" : "_ZTIN10__sifieldsUt4_E",
   "self_type" : "_ZTIN10__sifieldsUt4_E",
   "size" : 16,
   "source_file" : "bionic/libc/kernel/uapi/asm-generic/siginfo.h"
  },
  {
   "alignment" : 8,
   "fields" :
   [
    {
     "field_name" : "_call_addr",
     "referenced_type" : "_ZTIPv"
    },
    {
     "field_name" : "_syscall",
     "field_offset" : 64,
     "referenced_type" : "_ZTIi"
    },
    {
     "field_name" : "_arch",
     "field_offset" : 96,
     "referenced_type" : "_ZTIj"
    }
   ],
   "is_anonymous" : true,
   "linker_set_key" : "_ZTIN10__sifieldsUt5_E",
   "name" : "__sifields::(anonymous struct at bionic/libc/kernel/uapi/asm-generic/siginfo.h:88:3)",
   "referenced_type" : "_ZTIN10__sifieldsUt5_E",
   "self_type" : "_ZTIN10__sifieldsUt5_E",
   "size" : 16,
   "source_file" : "bionic/libc/kernel/uapi/asm-generic/siginfo.h"
  },
  {
   "alignment" : 4,
   "fields" :
   [
    {
     "field_name" : "_pid",
     "referenced_type" : "_ZTIi"
    },
    {
     "field_name" : "_uid",
     "field_offset" : 32,
     "referenced_type" : "_ZTIj"
    }
   ],
   "is_anonymous" : true,
   "linker_set_key" : "_ZTIN10__sifieldsUt_E",
   "name" : "__sifields::(anonymous struct at bionic/libc/kernel/uapi/asm-generic/siginfo.h:38:3)",
   "referenced_type" : "_ZTIN10__sifieldsUt_E",
   "self_type" : "_ZTIN10__sifieldsUt_E",
   "size" : 8,
   "source_file" : "bionic/libc/kernel/uapi/asm-generic/siginfo.h"
  },
  {
   "alignment" : 8,
   "fields" :
   [
    {
     "field_name" : "sa_handler",
     "referenced_type" : "_ZTIPFviE"
    },
    {
     "field_name" : "sa_sigaction",
     "referenced_type" : "_ZTIPFviP7siginfoPvE"
    }
   ],
   "is_anonymous" : true,
   "linker_set_key" : "_ZTIN11sigaction64Ut_E",
   "name" : "sigaction64::(anonymous union at bionic/libc/include/bits/signal_types.h:79:22)",
   "record_kind" : "union",
   "referenced_type" : "_ZTIN11sigaction64Ut_E",
   "self_type" : "_ZTIN11sigaction64Ut_E",
   "size" : 8,
   "source_file" : "bionic/libc/include/bits/signal_types.h"
  },
  {
   "alignment" : 8,
   "fields" :
   [
    {
     "referenced_type" : "_ZTIN7siginfoUt_Ut_E"
    },
    {
     "field_name" : "_si_pad",
     "referenced_type" : "_ZTIA32_i"
    }
   ],
   "is_anonymous" : true,
   "linker_set_key" : "_ZTIN7siginfoUt_E",
   "name" : "siginfo::(anonymous union at bionic/libc/kernel/uapi/asm-generic/siginfo.h:102:3)",
   "record_kind" : "union",
   "referenced_type" : "_ZTIN7siginfoUt_E",
   "self_type" : "_ZTIN7siginfoUt_E",
   "size" : 128,
   "source_file" : "bionic/libc/kernel/uapi/asm-generic/siginfo.h"
  },
  {
   "alignment" : 8,
   "fields" :
   [
    {
     "field_name" : "si_signo",
     "referenced_type" : "_ZTIi"
    },
    {
     "field_name" : "si_errno",
     "field_offset" : 32,
     "referenced_type" : "_ZTIi"
    },
    {
     "field_name" : "si_code",
     "field_offset" : 64,
     "referenced_type" : "_ZTIi"
    },
    {
     "field_name" : "_sifields",
     "field_offset" : 128,
     "referenced_type" : "_ZTI10__sifields"
    }
   ],
   "is_anonymous" : true,
   "linker_set_key" : "_ZTIN7siginfoUt_Ut_E",
   "name" : "siginfo::(anonymous union at bionic/libc/kernel/uapi/asm-generic/siginfo.h:102:3)::(anonymous struct at bionic/libc/kernel/uapi/asm-generic/siginfo.h:103:5)",
   "referenced_type" : "_ZTIN7siginfoUt_Ut_E",
   "self_type" : "_ZTIN7siginfoUt_Ut_E",
   "size" : 48,
   "source_file" : "bionic/libc/kernel/uapi/asm-generic/siginfo.h"
  },
  {
   "alignment" : 8,
   "fields" :
   [
    {
     "access" : "private",
     "field_name" : "Mu",
     "referenced_type" : "_ZTIRN8gwp_asan5MutexE"
    }
   ],
   "linker_set_key" : "_ZTIN8gwp_asan10ScopedLockE",
   "name" : "gwp_asan::ScopedLock",
   "record_kind" : "class",
   "referenced_type" : "_ZTIN8gwp_asan10ScopedLockE",
   "self_type" : "_ZTIN8gwp_asan10ScopedLockE",
   "size" : 8,
   "source_file" : "external/gwp_asan/gwp_asan/mutex.h"
  },
  {
   "alignment" : 4,
   "fields" :
   [
    {
     "access" : "protected",
     "field_name" : "Mu",
     "referenced_type" : "_ZTI15pthread_mutex_t"
    }
   ],
   "linker_set_key" : "_ZTIN8gwp_asan13PlatformMutexE",
   "name" : "gwp_asan::PlatformMutex",
   "record_kind" : "class",
   "referenced_type" : "_ZTIN8gwp_asan13PlatformMutexE",
   "self_type" : "_ZTIN8gwp_asan13PlatformMutexE",
   "size" : 40,
   "source_file" : "external/gwp_asan/gwp_asan/platform_specific/mutex_posix.h"
  },
  {
   "alignment" : 8,
   "fields" :
   [
    {
     "field_name" : "MaxSimultaneousAllocations",
     "referenced_type" : "_ZTIm"
    },
    {
     "field_name" : "GuardedPagePool",
     "field_offset" : 64,
     "referenced_type" : "_ZTIm"
    },
    {
     "field_name" : "GuardedPagePoolEnd",
     "field_offset" : 128,
     "referenced_type" : "_ZTIm"
    },
    {
     "field_name" : "PageSize",
     "field_offset" : 192,
     "referenced_type" : "_ZTIm"
    },
    {
     "field_name" : "FailureType",
     "field_offset" : 256,
     "referenced_type" : "_ZTIN8gwp_asan5ErrorE"
    },
    {
     "field_name" : "FailureAddress",
     "field_offset" : 320,
     "referenced_type" : "_ZTIm"
    }
   ],
   "linker_set_key" : "_ZTIN8gwp_asan14AllocatorStateE",
   "name" : "gwp_asan::AllocatorState",
   "referenced_type" : "_ZTIN8gwp_asan14AllocatorStateE",
   "self_type" : "_ZTIN8gwp_asan14AllocatorStateE",
   "size" : 48,
   "source_file" : "external/gwp_asan/gwp_asan/common.h"
  },
  {
   "alignment" : 8,
   "fields" :
   [
    {
     "field_name" : "CompressedTrace",
     "referenced_type" : "_ZTIA256_h"
    },
    {
     "field_name" : "ThreadID",
     "field_offset" : 2048,
     "referenced_type" : "_ZTIm"
    },
    {
     "field_name" : "TraceSize",
     "field_offset" : 2112,
     "referenced_type" : "_ZTIm"
    }
   ],
   "linker_set_key" : "_ZTIN8gwp_asan18AllocationMetadata12CallSiteInfoE",
   "name" : "gwp_asan::AllocationMetadata::CallSiteInfo",
   "referenced_type" : "_ZTIN8gwp_asan18AllocationMetadata12CallSiteInfoE",
   "self_type" : "_ZTIN8gwp_asan18AllocationMetadata12CallSiteInfoE",
   "size" : 272,
   "source_file" : "external/gwp_asan/gwp_asan/common.h"
  },
  {
   "alignment" : 8,
   "fields" :
   [
    {
     "field_name" : "Addr",
     "referenced_type" : "_ZTIm"
    },
    {
     "field_name" : "RequestedSize",
     "field_offset" : 64,
     "referenced_type" : "_ZTIm"
    },
    {
     "field_name" : "AllocationTrace",
     "field_offset" : 128,
     "referenced_type" : "_ZTIN8gwp_asan18AllocationMetadata12CallSiteInfoE"
    },
    {
     "field_name" : "DeallocationTrace",
     "field_offset" : 2304,
     "referenced_type" : "_ZTIN8gwp_asan18AllocationMetadata12CallSiteInfoE"
    },
    {
     "field_name" : "IsDeallocated",
     "field_offset" : 4480,
     "referenced_type" : "_ZTIb"
    }
   ],
   "linker_set_key" : "_ZTIN8gwp_asan18AllocationMetadataE",
   "name" : "gwp_asan::AllocationMetadata",
   "referenced_type" : "_ZTIN8gwp_asan18AllocationMetadataE",
   "self_type" : "_ZTIN8gwp_asan18AllocationMetadataE",
   "size" : 568,
   "source_file" : "external/gwp_asan/gwp_asan/common.h"
  },
  {
   "access" : "private",
   "alignment" : 1,
   "linker_set_key" : "_ZTIN8gwp_asan20GuardedPoolAllocator20ScopedRecursiveGuardE",
   "name" : "gwp_asan::GuardedPoolAllocator::ScopedRecursiveGuard",
   "record_kind" : "class",
   "referenced_type" : "_ZTIN8gwp_asan20GuardedPoolAllocator20ScopedRecursiveGuardE",
   "self_type" : "_ZTIN8gwp_asan20GuardedPoolAllocator20ScopedRecursiveGuardE",
   "size" : 1,
   "source_file" : "external/gwp_asan/gwp_asan/guarded_pool_allocator.h"
  },
  {
   "alignment" : 8,
   "fields" :
   [
    {
     "access" : "private",
     "field_name" : "State",
     "referenced_type" : "_ZTIN8gwp_asan14AllocatorStateE"
    },
    {
     "access" : "private",
     "field_name" : "PoolMutex",
     "field_offset" : 384,
     "referenced_type" : "_ZTIN8gwp_asan5MutexE"
    },
    {
     "access" : "private",
     "field_name" : "BacktraceMutex",
     "field_offset" : 704,
     "referenced_type" : "_ZTIN8gwp_asan5MutexE"
    },
    {
     "access" : "private",
     "field_name" : "NumSampledAllocations",
     "field_offset" : 1024,
     "referenced_type" : "_ZTIm"
    },
    {
     "access" : "private",
     "field_name" : "Metadata",
     "field_offset" : 1088,
     "referenced_type" : "_ZTIPN8gwp_asan18AllocationMetadataE"
    },
    {
     "access" : "private",
     "field_name" : "FreeSlots",
     "field_offset" : 1152,
     "referenced_type" : "_ZTIPm"
    },
    {
     "access" : "private",
     "field_name" : "FreeSlotsLength",
     "field_offset" : 1216,
     "referenced_type" : "_ZTIm"
    },
    {
     "access" : "private",
     "field_name" : "PerfectlyRightAlign",
     "field_offset" : 1280,
     "referenced_type" : "_ZTIb"
    },
    {
     "access" : "private",
     "field_name" : "Backtrace",
     "field_offset" : 1344,
     "referenced_type" : "_ZTIPFmPmmE"
    },
    {
     "access" : "private",
     "field_name" : "AdjustedSampleRatePlusOne",
     "field_offset" : 1408,
     "referenced_type" : "_ZTIj"
    },
    {
     "access" : "private",
     "field_name" : "GuardedPagePoolPlatformData",
     "field_offset" : 1440,
     "referenced_type" : "_ZTIN8gwp_asan23PlatformSpecificMapDataE"
    }
   ],
   "linker_set_key" : "_ZTIN8gwp_asan20GuardedPoolAllocatorE",
   "name" : "gwp_asan::GuardedPoolAllocator",
   "record_kind" : "class",
   "referenced_type" : "_ZTIN8gwp_asan20GuardedPoolAllocatorE",
   "self_type" : "_ZTIN8gwp_asan20GuardedPoolAllocatorE",
   "size" : 184,
   "source_file" : "external/gwp_asan/gwp_asan/guarded_pool_allocator.h"
  },
  {
   "alignment" : 1,
   "linker_set_key" : "_ZTIN8gwp_asan23PlatformSpecificMapDataE",
   "name" : "gwp_asan::PlatformSpecificMapData",
   "referenced_type" : "_ZTIN8gwp_asan23PlatformSpecificMapDataE",
   "self_type" : "_ZTIN8gwp_asan23PlatformSpecificMapDataE",
   "size" : 1,
   "source_file" : "external/gwp_asan/gwp_asan/platform_specific/guarded_pool_allocator_posix.h"
  },
  {
   "alignment" : 4,
   "fields" :
   [
    {
     "field_name" : "RandomState",
     "referenced_type" : "_ZTIj"
    },
    {
     "field_name" : "NextSampleCounter",
     "field_offset" : 32,
     "referenced_type" : "_ZTIj"
    },
    {
     "field_name" : "RecursiveGuard",
     "field_offset" : 63,
     "referenced_type" : "_ZTIb"
    }
   ],
   "linker_set_key" : "_ZTIN8gwp_asan26ThreadLocalPackedVariablesE",
   "name" : "gwp_asan::ThreadLocalPackedVariables",
   "referenced_type" : "_ZTIN8gwp_asan26ThreadLocalPackedVariablesE",
   "self_type" : "_ZTIN8gwp_asan26ThreadLocalPackedVariablesE",
   "size" : 8,
   "source_file" : "external/gwp_asan/gwp_asan/platform_specific/guarded_pool_allocator_tls.h"
  },
  {
   "alignment" : 4,
   "base_specifiers" :
   [
    {
     "access" : "private",
     "referenced_type" : "_ZTIN8gwp_asan13PlatformMutexE"
    }
   ],
   "linker_set_key" : "_ZTIN8gwp_asan5MutexE",
   "name" : "gwp_asan::Mutex",
   "record_kind" : "class",
   "referenced_type" : "_ZTIN8gwp_asan5MutexE",
   "self_type" : "_ZTIN8gwp_asan5MutexE",
   "size" : 40,
   "source_file" : "external/gwp_asan/gwp_asan/mutex.h"
  },
  {
   "alignment" : 8,
   "fields" :
   [
    {
     "field_name" : "Backtrace",
     "referenced_type" : "_ZTIPFmPmmE"
    },
    {
     "field_name" : "Enabled",
     "field_offset" : 64,
     "referenced_type" : "_ZTIb"
    },
    {
     "field_name" : "MaxSimultaneousAllocations",
     "field_offset" : 96,
     "referenced_type" : "_ZTIi"
    },
    {
     "field_name" : "SampleRate",
     "field_offset" : 128,
     "referenced_type" : "_ZTIi"
    },
    {
     "field_name" : "InstallSignalHandlers",
     "field_offset" : 160,
     "referenced_type" : "_ZTIb"
    },
    {
     "field_name" : "InstallForkHandlers",
     "field_offset" : 168,
     "referenced_type" : "_ZTIb"
    },
    {
     "field_name" : "help",
     "field_offset" : 176,
     "referenced_type" : "_ZTIb"
    }
   ],
   "linker_set_key" : "_ZTIN8gwp_asan7options7OptionsE",
   "name" : "gwp_asan::options::Options",
   "referenced_type" : "_ZTIN8gwp_asan7options7OptionsE",
   "self_type" : "_ZTIN8gwp_asan7options7OptionsE",
   "size" : 24,
   "source_file" : "external/gwp_asan/gwp_asan/options.h"
  },
  {
   "alignment" : 8,
   "fields" :
   [
    {
     "field_name" : "_pad",
     "referenced_type" : "_ZTIA12_i"
    },
    {
     "field_name" : "_tid",
     "referenced_type" : "_ZTIi"
    },
    {
     "field_name" : "_sigev_thread",
     "referenced_type" : "_ZTIN8sigeventUt_Ut_E"
    }
   ],
   "is_anonymous" : true,
   "linker_set_key" : "_ZTIN8sigeventUt_E",
   "name" : "sigevent::(anonymous union at bionic/libc/kernel/uapi/asm-generic/siginfo.h:229:3)",
   "record_kind" : "union",
   "referenced_type" : "_ZTIN8sigeventUt_E",
   "self_type" : "_ZTIN8sigeventUt_E",
   "size" : 48,
   "source_file" : "bionic/libc/kernel/uapi/asm-generic/siginfo.h"
  },
  {
   "alignment" : 8,
   "fields" :
   [
    {
     "field_name" : "_function",
     "referenced_type" : "_ZTIPFv6sigvalE"
    },
    {
     "field_name" : "_attribute",
     "field_offset" : 64,
     "referenced_type" : "_ZTIPv"
    }
   ],
   "is_anonymous" : true,
   "linker_set_key" : "_ZTIN8sigeventUt_Ut_E",
   "name" : "sigevent::(anonymous union at bionic/libc/kernel/uapi/asm-generic/siginfo.h:229:3)::(anonymous struct at bionic/libc/kernel/uapi/asm-generic/siginfo.h:232:5)",
   "referenced_type" : "_ZTIN8sigeventUt_Ut_E",
   "self_type" : "_ZTIN8sigeventUt_Ut_E",
   "size" : 16,
   "source_file" : "bionic/libc/kernel/uapi/asm-generic/siginfo.h"
  },
  {
   "alignment" : 8,
   "fields" :
   [
    {
     "field_name" : "uc_sigmask",
     "referenced_type" : "_ZTI8sigset_t"
    },
    {
     "field_name" : "uc_sigmask64",
     "referenced_type" : "_ZTI8sigset_t"
    }
   ],
   "is_anonymous" : true,
   "linker_set_key" : "_ZTIN8ucontextUt_E",
   "name" : "ucontext::(anonymous union at bionic/libc/include/sys/ucontext.h:117:3)",
   "record_kind" : "union",
   "referenced_type" : "_ZTIN8ucontextUt_E",
   "self_type" : "_ZTIN8ucontextUt_E",
   "size" : 8,
   "source_file" : "bionic/libc/include/sys/ucontext.h"
  },
  {
   "alignment" : 8,
   "fields" :
   [
    {
     "field_name" : "sa_handler",
     "referenced_type" : "_ZTIPFviE"
    },
    {
     "field_name" : "sa_sigaction",
     "referenced_type" : "_ZTIPFviP7siginfoPvE"
    }
   ],
   "is_anonymous" : true,
   "linker_set_key" : "_ZTIN9sigactionUt_E",
   "name" : "sigaction::(anonymous union at bionic/libc/include/bits/signal_types.h:78:20)",
   "record_kind" : "union",
   "referenced_type" : "_ZTIN9sigactionUt_E",
   "self_type" : "_ZTIN9sigactionUt_E",
   "size" : 8,
   "source_file" : "bionic/libc/include/bits/signal_types.h"
  }
 ],
 "rvalue_reference_types" : []
}
