{
 "array_types" :
 [
  {
   "alignment" : 4,
   "linker_set_key" : "_ZTIA8_j",
   "name" : "unsigned int [8]",
   "referenced_type" : "_ZTIj",
   "self_type" : "_ZTIA8_j",
   "size" : 32,
   "source_file" : "system/core/libsystem/include/system/graphics.h"
  },
  {
   "linker_set_key" : "_ZTIA_f",
   "name" : "float []",
   "referenced_type" : "_ZTIf",
   "self_type" : "_ZTIA_f",
   "source_file" : "system/core/libsystem/include/system/graphics.h"
  }
 ],
 "builtin_types" :
 [
  {
   "alignment" : 1,
   "is_integral" : true,
   "linker_set_key" : "_ZTIa",
   "name" : "signed char",
   "referenced_type" : "_ZTIa",
   "self_type" : "_ZTIa",
   "size" : 1
  },
  {
   "alignment" : 1,
   "is_integral" : true,
   "is_unsigned" : true,
   "linker_set_key" : "_ZTIb",
   "name" : "bool",
   "referenced_type" : "_ZTIb",
   "self_type" : "_ZTIb",
   "size" : 1
  },
  {
   "alignment" : 1,
   "is_integral" : true,
   "is_unsigned" : true,
   "linker_set_key" : "_ZTIc",
   "name" : "char",
   "referenced_type" : "_ZTIc",
   "self_type" : "_ZTIc",
   "size" : 1
  },
  {
   "alignment" : 8,
   "linker_set_key" : "_ZTId",
   "name" : "double",
   "referenced_type" : "_ZTId",
   "self_type" : "_ZTId",
   "size" : 8
  },
  {
   "alignment" : 4,
   "linker_set_key" : "_ZTIf",
   "name" : "float",
   "referenced_type" : "_ZTIf",
   "self_type" : "_ZTIf",
   "size" : 4
  },
  {
   "alignment" : 1,
   "is_integral" : true,
   "is_unsigned" : true,
   "linker_set_key" : "_ZTIh",
   "name" : "unsigned char",
   "referenced_type" : "_ZTIh",
   "self_type" : "_ZTIh",
   "size" : 1
  },
  {
   "alignment" : 4,
   "is_integral" : true,
   "linker_set_key" : "_ZTIi",
   "name" : "int",
   "referenced_type" : "_ZTIi",
   "self_type" : "_ZTIi",
   "size" : 4
  },
  {
   "alignment" : 4,
   "is_integral" : true,
   "is_unsigned" : true,
   "linker_set_key" : "_ZTIj",
   "name" : "unsigned int",
   "referenced_type" : "_ZTIj",
   "self_type" : "_ZTIj",
   "size" : 4
  },
  {
   "alignment" : 4,
   "is_integral" : true,
   "linker_set_key" : "_ZTIl",
   "name" : "long",
   "referenced_type" : "_ZTIl",
   "self_type" : "_ZTIl",
   "size" : 4
  },
  {
   "alignment" : 4,
   "is_integral" : true,
   "is_unsigned" : true,
   "linker_set_key" : "_ZTIm",
   "name" : "unsigned long",
   "referenced_type" : "_ZTIm",
   "self_type" : "_ZTIm",
   "size" : 4
  },
  {
   "alignment" : 2,
   "is_integral" : true,
   "linker_set_key" : "_ZTIs",
   "name" : "short",
   "referenced_type" : "_ZTIs",
   "self_type" : "_ZTIs",
   "size" : 2
  },
  {
   "alignment" : 2,
   "is_integral" : true,
   "is_unsigned" : true,
   "linker_set_key" : "_ZTIt",
   "name" : "unsigned short",
   "referenced_type" : "_ZTIt",
   "self_type" : "_ZTIt",
   "size" : 2
  },
  {
   "linker_set_key" : "_ZTIv",
   "name" : "void",
   "referenced_type" : "_ZTIv",
   "self_type" : "_ZTIv"
  },
  {
   "alignment" : 8,
   "is_integral" : true,
   "linker_set_key" : "_ZTIx",
   "name" : "long long",
   "referenced_type" : "_ZTIx",
   "self_type" : "_ZTIx",
   "size" : 8
  },
  {
   "alignment" : 8,
   "is_integral" : true,
   "is_unsigned" : true,
   "linker_set_key" : "_ZTIy",
   "name" : "unsigned long long",
   "referenced_type" : "_ZTIy",
   "self_type" : "_ZTIy",
   "size" : 8
  }
 ],
 "elf_functions" : [],
 "elf_objects" : [],
 "enum_types" :
 [
  {
   "alignment" : 4,
   "enum_fields" :
   [
    {
     "enum_field_value" : 1,
     "name" : "HAL_HDR_DOLBY_VISION"
    },
    {
     "enum_field_value" : 2,
     "name" : "HAL_HDR_HDR10"
    },
    {
     "enum_field_value" : 3,
     "name" : "HAL_HDR_HLG"
    }
   ],
   "linker_set_key" : "_ZTI13android_hdr_t",
   "name" : "android_hdr_t",
   "referenced_type" : "_ZTI13android_hdr_t",
   "self_type" : "_ZTI13android_hdr_t",
   "size" : 4,
   "source_file" : "system/core/libsystem/include/system/graphics-base-v1.0.h",
   "underlying_type" : "_ZTIj"
  },
  {
   "alignment" : 4,
   "enum_fields" :
   [
    {
     "enum_field_value" : 0,
     "name" : "AMEDIA_OK"
    },
    {
     "enum_field_value" : 1100,
     "name" : "AMEDIACODEC_ERROR_INSUFFICIENT_RESOURCE"
    },
    {
     "enum_field_value" : 1101,
     "name" : "AMEDIACODEC_ERROR_RECLAIMED"
    },
    {
     "enum_field_value" : -10000,
     "name" : "AMEDIA_ERROR_BASE"
    },
    {
     "enum_field_value" : -10000,
     "name" : "AMEDIA_ERROR_UNKNOWN"
    },
    {
     "enum_field_value" : -10001,
     "name" : "AMEDIA_ERROR_MALFORMED"
    },
    {
     "enum_field_value" : -10002,
     "name" : "AMEDIA_ERROR_UNSUPPORTED"
    },
    {
     "enum_field_value" : -10003,
     "name" : "AMEDIA_ERROR_INVALID_OBJECT"
    },
    {
     "enum_field_value" : -10004,
     "name" : "AMEDIA_ERROR_INVALID_PARAMETER"
    },
    {
     "enum_field_value" : -10005,
     "name" : "AMEDIA_ERROR_INVALID_OPERATION"
    },
    {
     "enum_field_value" : -10006,
     "name" : "AMEDIA_ERROR_END_OF_STREAM"
    },
    {
     "enum_field_value" : -10007,
     "name" : "AMEDIA_ERROR_IO"
    },
    {
     "enum_field_value" : -10008,
     "name" : "AMEDIA_ERROR_WOULD_BLOCK"
    },
    {
     "enum_field_value" : -20000,
     "name" : "AMEDIA_DRM_ERROR_BASE"
    },
    {
     "enum_field_value" : -20001,
     "name" : "AMEDIA_DRM_NOT_PROVISIONED"
    },
    {
     "enum_field_value" : -20002,
     "name" : "AMEDIA_DRM_RESOURCE_BUSY"
    },
    {
     "enum_field_value" : -20003,
     "name" : "AMEDIA_DRM_DEVICE_REVOKED"
    },
    {
     "enum_field_value" : -20004,
     "name" : "AMEDIA_DRM_SHORT_BUFFER"
    },
    {
     "enum_field_value" : -20005,
     "name" : "AMEDIA_DRM_SESSION_NOT_OPENED"
    },
    {
     "enum_field_value" : -20006,
     "name" : "AMEDIA_DRM_TAMPER_DETECTED"
    },
    {
     "enum_field_value" : -20007,
     "name" : "AMEDIA_DRM_VERIFY_FAILED"
    },
    {
     "enum_field_value" : -20008,
     "name" : "AMEDIA_DRM_NEED_KEY"
    },
    {
     "enum_field_value" : -20009,
     "name" : "AMEDIA_DRM_LICENSE_EXPIRED"
    },
    {
     "enum_field_value" : -30000,
     "name" : "AMEDIA_IMGREADER_ERROR_BASE"
    },
    {
     "enum_field_value" : -30001,
     "name" : "AMEDIA_IMGREADER_NO_BUFFER_AVAILABLE"
    },
    {
     "enum_field_value" : -30002,
     "name" : "AMEDIA_IMGREADER_MAX_IMAGES_ACQUIRED"
    },
    {
     "enum_field_value" : -30003,
     "name" : "AMEDIA_IMGREADER_CANNOT_LOCK_IMAGE"
    },
    {
     "enum_field_value" : -30004,
     "name" : "AMEDIA_IMGREADER_CANNOT_UNLOCK_IMAGE"
    },
    {
     "enum_field_value" : -30005,
     "name" : "AMEDIA_IMGREADER_IMAGE_NOT_LOCKED"
    }
   ],
   "linker_set_key" : "_ZTI14media_status_t",
   "name" : "media_status_t",
   "referenced_type" : "_ZTI14media_status_t",
   "self_type" : "_ZTI14media_status_t",
   "size" : 4,
   "source_file" : "frameworks/av/media/ndk/include/media/NdkMediaError.h",
   "underlying_type" : "_ZTIi"
  },
  {
   "alignment" : 4,
   "enum_fields" :
   [
    {
     "enum_field_value" : 4,
     "name" : "HAL_HDR_HDR10_PLUS"
    }
   ],
   "linker_set_key" : "_ZTI18android_hdr_v1_2_t",
   "name" : "android_hdr_v1_2_t",
   "referenced_type" : "_ZTI18android_hdr_v1_2_t",
   "self_type" : "_ZTI18android_hdr_v1_2_t",
   "size" : 4,
   "source_file" : "system/core/libsystem/include/system/graphics-base-v1.2.h",
   "underlying_type" : "_ZTIj"
  },
  {
   "alignment" : 4,
   "enum_fields" :
   [
    {
     "enum_field_value" : 10,
     "name" : "EVENT_TYPE_LIST_STOP"
    },
    {
     "enum_field_value" : 63,
     "name" : "EVENT_TYPE_UNKNOWN"
    },
    {
     "enum_field_value" : 0,
     "name" : "EVENT_TYPE_INT"
    },
    {
     "enum_field_value" : 1,
     "name" : "EVENT_TYPE_LONG"
    },
    {
     "enum_field_value" : 2,
     "name" : "EVENT_TYPE_STRING"
    },
    {
     "enum_field_value" : 3,
     "name" : "EVENT_TYPE_LIST"
    },
    {
     "enum_field_value" : 4,
     "name" : "EVENT_TYPE_FLOAT"
    }
   ],
   "linker_set_key" : "_ZTI19AndroidEventLogType",
   "name" : "AndroidEventLogType",
   "referenced_type" : "_ZTI19AndroidEventLogType",
   "self_type" : "_ZTI19AndroidEventLogType",
   "size" : 4,
   "source_file" : "system/logging/liblog/include/log/log.h",
   "underlying_type" : "_ZTIj"
  },
  {
   "alignment" : 4,
   "enum_fields" :
   [
    {
     "enum_field_value" : 0,
     "name" : "ANDROID_LOG_UNKNOWN"
    },
    {
     "enum_field_value" : 1,
     "name" : "ANDROID_LOG_DEFAULT"
    },
    {
     "enum_field_value" : 2,
     "name" : "ANDROID_LOG_VERBOSE"
    },
    {
     "enum_field_value" : 3,
     "name" : "ANDROID_LOG_DEBUG"
    },
    {
     "enum_field_value" : 4,
     "name" : "ANDROID_LOG_INFO"
    },
    {
     "enum_field_value" : 5,
     "name" : "ANDROID_LOG_WARN"
    },
    {
     "enum_field_value" : 6,
     "name" : "ANDROID_LOG_ERROR"
    },
    {
     "enum_field_value" : 7,
     "name" : "ANDROID_LOG_FATAL"
    },
    {
     "enum_field_value" : 8,
     "name" : "ANDROID_LOG_SILENT"
    }
   ],
   "linker_set_key" : "_ZTI19android_LogPriority",
   "name" : "android_LogPriority",
   "referenced_type" : "_ZTI19android_LogPriority",
   "self_type" : "_ZTI19android_LogPriority",
   "size" : 4,
   "source_file" : "system/logging/liblog/include/android/log.h",
   "underlying_type" : "_ZTIj"
  },
  {
   "alignment" : 4,
   "enum_fields" :
   [
    {
     "enum_field_value" : 0,
     "name" : "HAL_DATASPACE_UNKNOWN"
    },
    {
     "enum_field_value" : 1,
     "name" : "HAL_DATASPACE_ARBITRARY"
    },
    {
     "enum_field_value" : 16,
     "name" : "HAL_DATASPACE_STANDARD_SHIFT"
    },
    {
     "enum_field_value" : 4128768,
     "name" : "HAL_DATASPACE_STANDARD_MASK"
    },
    {
     "enum_field_value" : 0,
     "name" : "HAL_DATASPACE_STANDARD_UNSPECIFIED"
    },
    {
     "enum_field_value" : 65536,
     "name" : "HAL_DATASPACE_STANDARD_BT709"
    },
    {
     "enum_field_value" : 131072,
     "name" : "HAL_DATASPACE_STANDARD_BT601_625"
    },
    {
     "enum_field_value" : 196608,
     "name" : "HAL_DATASPACE_STANDARD_BT601_625_UNADJUSTED"
    },
    {
     "enum_field_value" : 262144,
     "name" : "HAL_DATASPACE_STANDARD_BT601_525"
    },
    {
     "enum_field_value" : 327680,
     "name" : "HAL_DATASPACE_STANDARD_BT601_525_UNADJUSTED"
    },
    {
     "enum_field_value" : 393216,
     "name" : "HAL_DATASPACE_STANDARD_BT2020"
    },
    {
     "enum_field_value" : 458752,
     "name" : "HAL_DATASPACE_STANDARD_BT2020_CONSTANT_LUMINANCE"
    },
    {
     "enum_field_value" : 524288,
     "name" : "HAL_DATASPACE_STANDARD_BT470M"
    },
    {
     "enum_field_value" : 589824,
     "name" : "HAL_DATASPACE_STANDARD_FILM"
    },
    {
     "enum_field_value" : 655360,
     "name" : "HAL_DATASPACE_STANDARD_DCI_P3"
    },
    {
     "enum_field_value" : 720896,
     "name" : "HAL_DATASPACE_STANDARD_ADOBE_RGB"
    },
    {
     "enum_field_value" : 22,
     "name" : "HAL_DATASPACE_TRANSFER_SHIFT"
    },
    {
     "enum_field_value" : 130023424,
     "name" : "HAL_DATASPACE_TRANSFER_MASK"
    },
    {
     "enum_field_value" : 0,
     "name" : "HAL_DATASPACE_TRANSFER_UNSPECIFIED"
    },
    {
     "enum_field_value" : 4194304,
     "name" : "HAL_DATASPACE_TRANSFER_LINEAR"
    },
    {
     "enum_field_value" : 8388608,
     "name" : "HAL_DATASPACE_TRANSFER_SRGB"
    },
    {
     "enum_field_value" : 12582912,
     "name" : "HAL_DATASPACE_TRANSFER_SMPTE_170M"
    },
    {
     "enum_field_value" : 16777216,
     "name" : "HAL_DATASPACE_TRANSFER_GAMMA2_2"
    },
    {
     "enum_field_value" : 20971520,
     "name" : "HAL_DATASPACE_TRANSFER_GAMMA2_6"
    },
    {
     "enum_field_value" : 25165824,
     "name" : "HAL_DATASPACE_TRANSFER_GAMMA2_8"
    },
    {
     "enum_field_value" : 29360128,
     "name" : "HAL_DATASPACE_TRANSFER_ST2084"
    },
    {
     "enum_field_value" : 33554432,
     "name" : "HAL_DATASPACE_TRANSFER_HLG"
    },
    {
     "enum_field_value" : 27,
     "name" : "HAL_DATASPACE_RANGE_SHIFT"
    },
    {
     "enum_field_value" : 939524096,
     "name" : "HAL_DATASPACE_RANGE_MASK"
    },
    {
     "enum_field_value" : 0,
     "name" : "HAL_DATASPACE_RANGE_UNSPECIFIED"
    },
    {
     "enum_field_value" : 134217728,
     "name" : "HAL_DATASPACE_RANGE_FULL"
    },
    {
     "enum_field_value" : 268435456,
     "name" : "HAL_DATASPACE_RANGE_LIMITED"
    },
    {
     "enum_field_value" : 402653184,
     "name" : "HAL_DATASPACE_RANGE_EXTENDED"
    },
    {
     "enum_field_value" : 512,
     "name" : "HAL_DATASPACE_SRGB_LINEAR"
    },
    {
     "enum_field_value" : 138477568,
     "name" : "HAL_DATASPACE_V0_SRGB_LINEAR"
    },
    {
     "enum_field_value" : 406913024,
     "name" : "HAL_DATASPACE_V0_SCRGB_LINEAR"
    },
    {
     "enum_field_value" : 513,
     "name" : "HAL_DATASPACE_SRGB"
    },
    {
     "enum_field_value" : 142671872,
     "name" : "HAL_DATASPACE_V0_SRGB"
    },
    {
     "enum_field_value" : 411107328,
     "name" : "HAL_DATASPACE_V0_SCRGB"
    },
    {
     "enum_field_value" : 257,
     "name" : "HAL_DATASPACE_JFIF"
    },
    {
     "enum_field_value" : 146931712,
     "name" : "HAL_DATASPACE_V0_JFIF"
    },
    {
     "enum_field_value" : 258,
     "name" : "HAL_DATASPACE_BT601_625"
    },
    {
     "enum_field_value" : 281149440,
     "name" : "HAL_DATASPACE_V0_BT601_625"
    },
    {
     "enum_field_value" : 259,
     "name" : "HAL_DATASPACE_BT601_525"
    },
    {
     "enum_field_value" : 281280512,
     "name" : "HAL_DATASPACE_V0_BT601_525"
    },
    {
     "enum_field_value" : 260,
     "name" : "HAL_DATASPACE_BT709"
    },
    {
     "enum_field_value" : 281083904,
     "name" : "HAL_DATASPACE_V0_BT709"
    },
    {
     "enum_field_value" : 139067392,
     "name" : "HAL_DATASPACE_DCI_P3_LINEAR"
    },
    {
     "enum_field_value" : 155844608,
     "name" : "HAL_DATASPACE_DCI_P3"
    },
    {
     "enum_field_value" : 139067392,
     "name" : "HAL_DATASPACE_DISPLAY_P3_LINEAR"
    },
    {
     "enum_field_value" : 143261696,
     "name" : "HAL_DATASPACE_DISPLAY_P3"
    },
    {
     "enum_field_value" : 151715840,
     "name" : "HAL_DATASPACE_ADOBE_RGB"
    },
    {
     "enum_field_value" : 138805248,
     "name" : "HAL_DATASPACE_BT2020_LINEAR"
    },
    {
     "enum_field_value" : 147193856,
     "name" : "HAL_DATASPACE_BT2020"
    },
    {
     "enum_field_value" : 163971072,
     "name" : "HAL_DATASPACE_BT2020_PQ"
    },
    {
     "enum_field_value" : 4096,
     "name" : "HAL_DATASPACE_DEPTH"
    },
    {
     "enum_field_value" : 4097,
     "name" : "HAL_DATASPACE_SENSOR"
    }
   ],
   "linker_set_key" : "_ZTI19android_dataspace_t",
   "name" : "android_dataspace_t",
   "referenced_type" : "_ZTI19android_dataspace_t",
   "self_type" : "_ZTI19android_dataspace_t",
   "size" : 4,
   "source_file" : "system/core/libsystem/include/system/graphics-base-v1.0.h",
   "underlying_type" : "_ZTIj"
  },
  {
   "alignment" : 4,
   "enum_fields" :
   [
    {
     "enum_field_value" : 0,
     "name" : "FLEX_FORMAT_INVALID"
    },
    {
     "enum_field_value" : 1,
     "name" : "FLEX_FORMAT_Y"
    },
    {
     "enum_field_value" : 7,
     "name" : "FLEX_FORMAT_YCbCr"
    },
    {
     "enum_field_value" : 1073741831,
     "name" : "FLEX_FORMAT_YCbCrA"
    },
    {
     "enum_field_value" : 7168,
     "name" : "FLEX_FORMAT_RGB"
    },
    {
     "enum_field_value" : 1073748992,
     "name" : "FLEX_FORMAT_RGBA"
    }
   ],
   "linker_set_key" : "_ZTI19android_flex_format",
   "name" : "android_flex_format",
   "referenced_type" : "_ZTI19android_flex_format",
   "self_type" : "_ZTI19android_flex_format",
   "size" : 4,
   "source_file" : "system/core/libsystem/include/system/graphics.h",
   "underlying_type" : "_ZTIj"
  },
  {
   "alignment" : 4,
   "enum_fields" :
   [
    {
     "enum_field_value" : 1,
     "name" : "HAL_TRANSFORM_FLIP_H"
    },
    {
     "enum_field_value" : 2,
     "name" : "HAL_TRANSFORM_FLIP_V"
    },
    {
     "enum_field_value" : 4,
     "name" : "HAL_TRANSFORM_ROT_90"
    },
    {
     "enum_field_value" : 3,
     "name" : "HAL_TRANSFORM_ROT_180"
    },
    {
     "enum_field_value" : 7,
     "name" : "HAL_TRANSFORM_ROT_270"
    }
   ],
   "linker_set_key" : "_ZTI19android_transform_t",
   "name" : "android_transform_t",
   "referenced_type" : "_ZTI19android_transform_t",
   "self_type" : "_ZTI19android_transform_t",
   "size" : 4,
   "source_file" : "system/core/libsystem/include/system/graphics-base-v1.0.h",
   "underlying_type" : "_ZTIj"
  },
  {
   "alignment" : 4,
   "enum_fields" :
   [
    {
     "enum_field_value" : 0,
     "name" : "HAL_COLOR_MODE_NATIVE"
    },
    {
     "enum_field_value" : 1,
     "name" : "HAL_COLOR_MODE_STANDARD_BT601_625"
    },
    {
     "enum_field_value" : 2,
     "name" : "HAL_COLOR_MODE_STANDARD_BT601_625_UNADJUSTED"
    },
    {
     "enum_field_value" : 3,
     "name" : "HAL_COLOR_MODE_STANDARD_BT601_525"
    },
    {
     "enum_field_value" : 4,
     "name" : "HAL_COLOR_MODE_STANDARD_BT601_525_UNADJUSTED"
    },
    {
     "enum_field_value" : 5,
     "name" : "HAL_COLOR_MODE_STANDARD_BT709"
    },
    {
     "enum_field_value" : 6,
     "name" : "HAL_COLOR_MODE_DCI_P3"
    },
    {
     "enum_field_value" : 7,
     "name" : "HAL_COLOR_MODE_SRGB"
    },
    {
     "enum_field_value" : 8,
     "name" : "HAL_COLOR_MODE_ADOBE_RGB"
    },
    {
     "enum_field_value" : 9,
     "name" : "HAL_COLOR_MODE_DISPLAY_P3"
    }
   ],
   "linker_set_key" : "_ZTI20android_color_mode_t",
   "name" : "android_color_mode_t",
   "referenced_type" : "_ZTI20android_color_mode_t",
   "self_type" : "_ZTI20android_color_mode_t",
   "size" : 4,
   "source_file" : "system/core/libsystem/include/system/graphics-base-v1.0.h",
   "underlying_type" : "_ZTIj"
  },
  {
   "alignment" : 4,
   "enum_fields" :
   [
    {
     "enum_field_value" : 0,
     "name" : "SYSTEM_TIME_REALTIME"
    },
    {
     "enum_field_value" : 1,
     "name" : "SYSTEM_TIME_MONOTONIC"
    },
    {
     "enum_field_value" : 2,
     "name" : "SYSTEM_TIME_PROCESS"
    },
    {
     "enum_field_value" : 3,
     "name" : "SYSTEM_TIME_THREAD"
    },
    {
     "enum_field_value" : 4,
     "name" : "SYSTEM_TIME_BOOTTIME"
    }
   ],
   "linker_set_key" : "_ZTI21$SYSTEM_TIME_BOOTTIME",
   "name" : "(anonymous enum at system/core/libutils/include/utils/Timers.h:75:1)",
   "referenced_type" : "_ZTI21$SYSTEM_TIME_BOOTTIME",
   "self_type" : "_ZTI21$SYSTEM_TIME_BOOTTIME",
   "size" : 4,
   "source_file" : "system/core/libutils/include/utils/Timers.h",
   "underlying_type" : "_ZTIj"
  },
  {
   "alignment" : 4,
   "enum_fields" :
   [
    {
     "enum_field_value" : 1,
     "name" : "FLEX_COMPONENT_Y"
    },
    {
     "enum_field_value" : 2,
     "name" : "FLEX_COMPONENT_Cb"
    },
    {
     "enum_field_value" : 4,
     "name" : "FLEX_COMPONENT_Cr"
    },
    {
     "enum_field_value" : 1024,
     "name" : "FLEX_COMPONENT_R"
    },
    {
     "enum_field_value" : 2048,
     "name" : "FLEX_COMPONENT_G"
    },
    {
     "enum_field_value" : 4096,
     "name" : "FLEX_COMPONENT_B"
    },
    {
     "enum_field_value" : 1073741824,
     "name" : "FLEX_COMPONENT_A"
    }
   ],
   "linker_set_key" : "_ZTI22android_flex_component",
   "name" : "android_flex_component",
   "referenced_type" : "_ZTI22android_flex_component",
   "self_type" : "_ZTI22android_flex_component",
   "size" : 4,
   "source_file" : "system/core/libsystem/include/system/graphics.h",
   "underlying_type" : "_ZTIj"
  },
  {
   "alignment" : 4,
   "enum_fields" :
   [
    {
     "enum_field_value" : 1,
     "name" : "HAL_PIXEL_FORMAT_RGBA_8888"
    },
    {
     "enum_field_value" : 2,
     "name" : "HAL_PIXEL_FORMAT_RGBX_8888"
    },
    {
     "enum_field_value" : 3,
     "name" : "HAL_PIXEL_FORMAT_RGB_888"
    },
    {
     "enum_field_value" : 4,
     "name" : "HAL_PIXEL_FORMAT_RGB_565"
    },
    {
     "enum_field_value" : 5,
     "name" : "HAL_PIXEL_FORMAT_BGRA_8888"
    },
    {
     "enum_field_value" : 16,
     "name" : "HAL_PIXEL_FORMAT_YCBCR_422_SP"
    },
    {
     "enum_field_value" : 17,
     "name" : "HAL_PIXEL_FORMAT_YCRCB_420_SP"
    },
    {
     "enum_field_value" : 20,
     "name" : "HAL_PIXEL_FORMAT_YCBCR_422_I"
    },
    {
     "enum_field_value" : 22,
     "name" : "HAL_PIXEL_FORMAT_RGBA_FP16"
    },
    {
     "enum_field_value" : 32,
     "name" : "HAL_PIXEL_FORMAT_RAW16"
    },
    {
     "enum_field_value" : 33,
     "name" : "HAL_PIXEL_FORMAT_BLOB"
    },
    {
     "enum_field_value" : 34,
     "name" : "HAL_PIXEL_FORMAT_IMPLEMENTATION_DEFINED"
    },
    {
     "enum_field_value" : 35,
     "name" : "HAL_PIXEL_FORMAT_YCBCR_420_888"
    },
    {
     "enum_field_value" : 36,
     "name" : "HAL_PIXEL_FORMAT_RAW_OPAQUE"
    },
    {
     "enum_field_value" : 37,
     "name" : "HAL_PIXEL_FORMAT_RAW10"
    },
    {
     "enum_field_value" : 38,
     "name" : "HAL_PIXEL_FORMAT_RAW12"
    },
    {
     "enum_field_value" : 43,
     "name" : "HAL_PIXEL_FORMAT_RGBA_1010102"
    },
    {
     "enum_field_value" : 538982489,
     "name" : "HAL_PIXEL_FORMAT_Y8"
    },
    {
     "enum_field_value" : 540422489,
     "name" : "HAL_PIXEL_FORMAT_Y16"
    },
    {
     "enum_field_value" : 842094169,
     "name" : "HAL_PIXEL_FORMAT_YV12"
    }
   ],
   "linker_set_key" : "_ZTI22android_pixel_format_t",
   "name" : "android_pixel_format_t",
   "referenced_type" : "_ZTI22android_pixel_format_t",
   "self_type" : "_ZTI22android_pixel_format_t",
   "size" : 4,
   "source_file" : "system/core/libsystem/include/system/graphics-base-v1.0.h",
   "underlying_type" : "_ZTIj"
  },
  {
   "alignment" : 4,
   "enum_fields" :
   [
    {
     "enum_field_value" : 19,
     "name" : "ANDROID_PRIORITY_LOWEST"
    },
    {
     "enum_field_value" : 10,
     "name" : "ANDROID_PRIORITY_BACKGROUND"
    },
    {
     "enum_field_value" : 0,
     "name" : "ANDROID_PRIORITY_NORMAL"
    },
    {
     "enum_field_value" : -2,
     "name" : "ANDROID_PRIORITY_FOREGROUND"
    },
    {
     "enum_field_value" : -4,
     "name" : "ANDROID_PRIORITY_DISPLAY"
    },
    {
     "enum_field_value" : -8,
     "name" : "ANDROID_PRIORITY_URGENT_DISPLAY"
    },
    {
     "enum_field_value" : -10,
     "name" : "ANDROID_PRIORITY_VIDEO"
    },
    {
     "enum_field_value" : -16,
     "name" : "ANDROID_PRIORITY_AUDIO"
    },
    {
     "enum_field_value" : -19,
     "name" : "ANDROID_PRIORITY_URGENT_AUDIO"
    },
    {
     "enum_field_value" : -20,
     "name" : "ANDROID_PRIORITY_HIGHEST"
    },
    {
     "enum_field_value" : 0,
     "name" : "ANDROID_PRIORITY_DEFAULT"
    },
    {
     "enum_field_value" : -1,
     "name" : "ANDROID_PRIORITY_MORE_FAVORABLE"
    },
    {
     "enum_field_value" : 1,
     "name" : "ANDROID_PRIORITY_LESS_FAVORABLE"
    }
   ],
   "linker_set_key" : "_ZTI23$ANDROID_PRIORITY_AUDIO",
   "name" : "(anonymous enum at system/core/libsystem/include/system/thread_defs.h:26:1)",
   "referenced_type" : "_ZTI23$ANDROID_PRIORITY_AUDIO",
   "self_type" : "_ZTI23$ANDROID_PRIORITY_AUDIO",
   "size" : 4,
   "source_file" : "system/core/libsystem/include/system/thread_defs.h",
   "underlying_type" : "_ZTIi"
  },
  {
   "alignment" : 4,
   "enum_fields" :
   [
    {
     "enum_field_value" : 281411584,
     "name" : "HAL_DATASPACE_BT2020_ITU"
    },
    {
     "enum_field_value" : 298188800,
     "name" : "HAL_DATASPACE_BT2020_ITU_PQ"
    },
    {
     "enum_field_value" : 302383104,
     "name" : "HAL_DATASPACE_BT2020_ITU_HLG"
    },
    {
     "enum_field_value" : 168165376,
     "name" : "HAL_DATASPACE_BT2020_HLG"
    }
   ],
   "linker_set_key" : "_ZTI24android_dataspace_v1_1_t",
   "name" : "android_dataspace_v1_1_t",
   "referenced_type" : "_ZTI24android_dataspace_v1_1_t",
   "self_type" : "_ZTI24android_dataspace_v1_1_t",
   "size" : 4,
   "source_file" : "system/core/libsystem/include/system/graphics-base-v1.1.h",
   "underlying_type" : "_ZTIj"
  },
  {
   "alignment" : 4,
   "enum_fields" :
   [
    {
     "enum_field_value" : 142999552,
     "name" : "HAL_DATASPACE_DISPLAY_BT2020"
    },
    {
     "enum_field_value" : 4098,
     "name" : "HAL_DATASPACE_DYNAMIC_DEPTH"
    },
    {
     "enum_field_value" : 4099,
     "name" : "HAL_DATASPACE_JPEG_APP_SEGMENTS"
    },
    {
     "enum_field_value" : 4100,
     "name" : "HAL_DATASPACE_HEIF"
    }
   ],
   "linker_set_key" : "_ZTI24android_dataspace_v1_2_t",
   "name" : "android_dataspace_v1_2_t",
   "referenced_type" : "_ZTI24android_dataspace_v1_2_t",
   "self_type" : "_ZTI24android_dataspace_v1_2_t",
   "size" : 4,
   "source_file" : "system/core/libsystem/include/system/graphics-base-v1.2.h",
   "underlying_type" : "_ZTIj"
  },
  {
   "alignment" : 4,
   "enum_fields" :
   [
    {
     "enum_field_value" : 10,
     "name" : "HAL_COLOR_MODE_BT2020"
    },
    {
     "enum_field_value" : 11,
     "name" : "HAL_COLOR_MODE_BT2100_PQ"
    },
    {
     "enum_field_value" : 12,
     "name" : "HAL_COLOR_MODE_BT2100_HLG"
    }
   ],
   "linker_set_key" : "_ZTI25android_color_mode_v1_1_t",
   "name" : "android_color_mode_v1_1_t",
   "referenced_type" : "_ZTI25android_color_mode_v1_1_t",
   "self_type" : "_ZTI25android_color_mode_v1_1_t",
   "size" : 4,
   "source_file" : "system/core/libsystem/include/system/graphics-base-v1.1.h",
   "underlying_type" : "_ZTIj"
  },
  {
   "alignment" : 4,
   "enum_fields" :
   [
    {
     "enum_field_value" : 0,
     "name" : "HAL_COLOR_TRANSFORM_IDENTITY"
    },
    {
     "enum_field_value" : 1,
     "name" : "HAL_COLOR_TRANSFORM_ARBITRARY_MATRIX"
    },
    {
     "enum_field_value" : 2,
     "name" : "HAL_COLOR_TRANSFORM_VALUE_INVERSE"
    },
    {
     "enum_field_value" : 3,
     "name" : "HAL_COLOR_TRANSFORM_GRAYSCALE"
    },
    {
     "enum_field_value" : 4,
     "name" : "HAL_COLOR_TRANSFORM_CORRECT_PROTANOPIA"
    },
    {
     "enum_field_value" : 5,
     "name" : "HAL_COLOR_TRANSFORM_CORRECT_DEUTERANOPIA"
    },
    {
     "enum_field_value" : 6,
     "name" : "HAL_COLOR_TRANSFORM_CORRECT_TRITANOPIA"
    }
   ],
   "linker_set_key" : "_ZTI25android_color_transform_t",
   "name" : "android_color_transform_t",
   "referenced_type" : "_ZTI25android_color_transform_t",
   "self_type" : "_ZTI25android_color_transform_t",
   "size" : 4,
   "source_file" : "system/core/libsystem/include/system/graphics-base-v1.0.h",
   "underlying_type" : "_ZTIj"
  },
  {
   "alignment" : 4,
   "enum_fields" :
   [
    {
     "enum_field_value" : 39,
     "name" : "HAL_PIXEL_FORMAT_YCBCR_422_888"
    },
    {
     "enum_field_value" : 40,
     "name" : "HAL_PIXEL_FORMAT_YCBCR_444_888"
    },
    {
     "enum_field_value" : 41,
     "name" : "HAL_PIXEL_FORMAT_FLEX_RGB_888"
    },
    {
     "enum_field_value" : 42,
     "name" : "HAL_PIXEL_FORMAT_FLEX_RGBA_8888"
    }
   ],
   "linker_set_key" : "_ZTI25android_pixel_format_sw_t",
   "name" : "android_pixel_format_sw_t",
   "referenced_type" : "_ZTI25android_pixel_format_sw_t",
   "self_type" : "_ZTI25android_pixel_format_sw_t",
   "size" : 4,
   "source_file" : "system/core/libsystem/include/system/graphics-sw.h",
   "underlying_type" : "_ZTIj"
  },
  {
   "alignment" : 4,
   "enum_fields" :
   [
    {
     "enum_field_value" : 48,
     "name" : "HAL_PIXEL_FORMAT_DEPTH_16"
    },
    {
     "enum_field_value" : 49,
     "name" : "HAL_PIXEL_FORMAT_DEPTH_24"
    },
    {
     "enum_field_value" : 50,
     "name" : "HAL_PIXEL_FORMAT_DEPTH_24_STENCIL_8"
    },
    {
     "enum_field_value" : 51,
     "name" : "HAL_PIXEL_FORMAT_DEPTH_32F"
    },
    {
     "enum_field_value" : 52,
     "name" : "HAL_PIXEL_FORMAT_DEPTH_32F_STENCIL_8"
    },
    {
     "enum_field_value" : 53,
     "name" : "HAL_PIXEL_FORMAT_STENCIL_8"
    },
    {
     "enum_field_value" : 54,
     "name" : "HAL_PIXEL_FORMAT_YCBCR_P010"
    }
   ],
   "linker_set_key" : "_ZTI27android_pixel_format_v1_1_t",
   "name" : "android_pixel_format_v1_1_t",
   "referenced_type" : "_ZTI27android_pixel_format_v1_1_t",
   "self_type" : "_ZTI27android_pixel_format_v1_1_t",
   "size" : 4,
   "source_file" : "system/core/libsystem/include/system/graphics-base-v1.1.h",
   "underlying_type" : "_ZTIj"
  },
  {
   "alignment" : 4,
   "enum_fields" :
   [
    {
     "enum_field_value" : 55,
     "name" : "HAL_PIXEL_FORMAT_HSV_888"
    }
   ],
   "linker_set_key" : "_ZTI27android_pixel_format_v1_2_t",
   "name" : "android_pixel_format_v1_2_t",
   "referenced_type" : "_ZTI27android_pixel_format_v1_2_t",
   "self_type" : "_ZTI27android_pixel_format_v1_2_t",
   "size" : 4,
   "source_file" : "system/core/libsystem/include/system/graphics-base-v1.2.h",
   "underlying_type" : "_ZTIj"
  },
  {
   "alignment" : 4,
   "enum_fields" :
   [
    {
     "enum_field_value" : 0,
     "name" : "HAL_RENDER_INTENT_COLORIMETRIC"
    },
    {
     "enum_field_value" : 1,
     "name" : "HAL_RENDER_INTENT_ENHANCE"
    },
    {
     "enum_field_value" : 2,
     "name" : "HAL_RENDER_INTENT_TONE_MAP_COLORIMETRIC"
    },
    {
     "enum_field_value" : 3,
     "name" : "HAL_RENDER_INTENT_TONE_MAP_ENHANCE"
    }
   ],
   "linker_set_key" : "_ZTI28android_render_intent_v1_1_t",
   "name" : "android_render_intent_v1_1_t",
   "referenced_type" : "_ZTI28android_render_intent_v1_1_t",
   "self_type" : "_ZTI28android_render_intent_v1_1_t",
   "size" : 4,
   "source_file" : "system/core/libsystem/include/system/graphics-base-v1.1.h",
   "underlying_type" : "_ZTIj"
  },
  {
   "alignment" : 4,
   "enum_fields" :
   [
    {
     "enum_field_value" : 0,
     "name" : "LOG_ID_MIN"
    },
    {
     "enum_field_value" : 0,
     "name" : "LOG_ID_MAIN"
    },
    {
     "enum_field_value" : 1,
     "name" : "LOG_ID_RADIO"
    },
    {
     "enum_field_value" : 2,
     "name" : "LOG_ID_EVENTS"
    },
    {
     "enum_field_value" : 3,
     "name" : "LOG_ID_SYSTEM"
    },
    {
     "enum_field_value" : 4,
     "name" : "LOG_ID_CRASH"
    },
    {
     "enum_field_value" : 5,
     "name" : "LOG_ID_STATS"
    },
    {
     "enum_field_value" : 6,
     "name" : "LOG_ID_SECURITY"
    },
    {
     "enum_field_value" : 7,
     "name" : "LOG_ID_KERNEL"
    },
    {
     "enum_field_value" : 8,
     "name" : "LOG_ID_MAX"
    },
    {
     "enum_field_value" : 2147483647,
     "name" : "LOG_ID_DEFAULT"
    }
   ],
   "linker_set_key" : "_ZTI6log_id",
   "name" : "log_id",
   "referenced_type" : "_ZTI6log_id",
   "self_type" : "_ZTI6log_id",
   "size" : 4,
   "source_file" : "system/logging/liblog/include/android/log.h",
   "underlying_type" : "_ZTIj"
  },
  {
   "alignment" : 4,
   "enum_fields" :
   [
    {
     "enum_field_value" : 1,
     "name" : "android::VectorImpl::HAS_TRIVIAL_CTOR"
    },
    {
     "enum_field_value" : 2,
     "name" : "android::VectorImpl::HAS_TRIVIAL_DTOR"
    },
    {
     "enum_field_value" : 4,
     "name" : "android::VectorImpl::HAS_TRIVIAL_COPY"
    }
   ],
   "linker_set_key" : "_ZTIN7android10VectorImpl17$HAS_TRIVIAL_COPYE",
   "name" : "android::VectorImpl::(anonymous enum at system/core/libutils/include/utils/VectorImpl.h:43:5)",
   "referenced_type" : "_ZTIN7android10VectorImpl17$HAS_TRIVIAL_COPYE",
   "self_type" : "_ZTIN7android10VectorImpl17$HAS_TRIVIAL_COPYE",
   "size" : 4,
   "source_file" : "system/core/libutils/include/utils/VectorImpl.h",
   "underlying_type" : "_ZTIj"
  },
  {
   "alignment" : 4,
   "enum_fields" :
   [
    {
     "enum_field_value" : 0,
     "name" : "android::trait_pointer<android::key_value_pair_t<android::String8, android::String8>>::value"
    }
   ],
   "linker_set_key" : "_ZTIN7android13trait_pointerINS_16key_value_pair_tINS_7String8ES2_EEE6$valueE",
   "name" : "android::trait_pointer<key_value_pair_t<String8, String8>>::(anonymous enum at system/core/libutils/include/utils/TypeHelpers.h:39:51)",
   "referenced_type" : "_ZTIN7android13trait_pointerINS_16key_value_pair_tINS_7String8ES2_EEE6$valueE",
   "self_type" : "_ZTIN7android13trait_pointerINS_16key_value_pair_tINS_7String8ES2_EEE6$valueE",
   "size" : 4,
   "source_file" : "system/core/libutils/include/utils/TypeHelpers.h",
   "underlying_type" : "_ZTIj"
  },
  {
   "alignment" : 4,
   "enum_fields" :
   [
    {
     "enum_field_value" : 0,
     "name" : "android::trait_pointer<android::String8>::value"
    }
   ],
   "linker_set_key" : "_ZTIN7android13trait_pointerINS_7String8EE6$valueE",
   "name" : "android::trait_pointer<String8>::(anonymous enum at system/core/libutils/include/utils/TypeHelpers.h:39:51)",
   "referenced_type" : "_ZTIN7android13trait_pointerINS_7String8EE6$valueE",
   "self_type" : "_ZTIN7android13trait_pointerINS_7String8EE6$valueE",
   "size" : 4,
   "source_file" : "system/core/libutils/include/utils/TypeHelpers.h",
   "underlying_type" : "_ZTIj"
  },
  {
   "alignment" : 4,
   "enum_fields" :
   [
    {
     "enum_field_value" : 0,
     "name" : "android::OK"
    },
    {
     "enum_field_value" : 0,
     "name" : "android::NO_ERROR"
    },
    {
     "enum_field_value" : -2147483648,
     "name" : "android::UNKNOWN_ERROR"
    },
    {
     "enum_field_value" : -12,
     "name" : "android::NO_MEMORY"
    },
    {
     "enum_field_value" : -38,
     "name" : "android::INVALID_OPERATION"
    },
    {
     "enum_field_value" : -22,
     "name" : "android::BAD_VALUE"
    },
    {
     "enum_field_value" : -2147483647,
     "name" : "android::BAD_TYPE"
    },
    {
     "enum_field_value" : -2,
     "name" : "android::NAME_NOT_FOUND"
    },
    {
     "enum_field_value" : -1,
     "name" : "android::PERMISSION_DENIED"
    },
    {
     "enum_field_value" : -19,
     "name" : "android::NO_INIT"
    },
    {
     "enum_field_value" : -17,
     "name" : "android::ALREADY_EXISTS"
    },
    {
     "enum_field_value" : -32,
     "name" : "android::DEAD_OBJECT"
    },
    {
     "enum_field_value" : -2147483646,
     "name" : "android::FAILED_TRANSACTION"
    },
    {
     "enum_field_value" : -75,
     "name" : "android::BAD_INDEX"
    },
    {
     "enum_field_value" : -61,
     "name" : "android::NOT_ENOUGH_DATA"
    },
    {
     "enum_field_value" : -11,
     "name" : "android::WOULD_BLOCK"
    },
    {
     "enum_field_value" : -110,
     "name" : "android::TIMED_OUT"
    },
    {
     "enum_field_value" : -74,
     "name" : "android::UNKNOWN_TRANSACTION"
    },
    {
     "enum_field_value" : -2147483641,
     "name" : "android::FDS_NOT_ALLOWED"
    },
    {
     "enum_field_value" : -2147483640,
     "name" : "android::UNEXPECTED_NULL"
    }
   ],
   "linker_set_key" : "_ZTIN7android15$ALREADY_EXISTSE",
   "name" : "android::(anonymous enum at system/core/libutils/include/utils/Errors.h:43:1)",
   "referenced_type" : "_ZTIN7android15$ALREADY_EXISTSE",
   "self_type" : "_ZTIN7android15$ALREADY_EXISTSE",
   "size" : 4,
   "source_file" : "system/core/libutils/include/utils/Errors.h",
   "underlying_type" : "_ZTIi"
  },
  {
   "alignment" : 4,
   "enum_fields" :
   [
    {
     "enum_field_value" : 19,
     "name" : "android::PRIORITY_LOWEST"
    },
    {
     "enum_field_value" : 10,
     "name" : "android::PRIORITY_BACKGROUND"
    },
    {
     "enum_field_value" : 0,
     "name" : "android::PRIORITY_NORMAL"
    },
    {
     "enum_field_value" : -2,
     "name" : "android::PRIORITY_FOREGROUND"
    },
    {
     "enum_field_value" : -4,
     "name" : "android::PRIORITY_DISPLAY"
    },
    {
     "enum_field_value" : -8,
     "name" : "android::PRIORITY_URGENT_DISPLAY"
    },
    {
     "enum_field_value" : -16,
     "name" : "android::PRIORITY_AUDIO"
    },
    {
     "enum_field_value" : -19,
     "name" : "android::PRIORITY_URGENT_AUDIO"
    },
    {
     "enum_field_value" : -20,
     "name" : "android::PRIORITY_HIGHEST"
    },
    {
     "enum_field_value" : 0,
     "name" : "android::PRIORITY_DEFAULT"
    },
    {
     "enum_field_value" : -1,
     "name" : "android::PRIORITY_MORE_FAVORABLE"
    },
    {
     "enum_field_value" : 1,
     "name" : "android::PRIORITY_LESS_FAVORABLE"
    }
   ],
   "linker_set_key" : "_ZTIN7android15$PRIORITY_AUDIOE",
   "name" : "android::(anonymous enum at system/core/libutils/include/utils/ThreadDefs.h:53:1)",
   "referenced_type" : "_ZTIN7android15$PRIORITY_AUDIOE",
   "self_type" : "_ZTIN7android15$PRIORITY_AUDIOE",
   "size" : 4,
   "source_file" : "system/core/libutils/include/utils/ThreadDefs.h",
   "underlying_type" : "_ZTIi"
  },
  {
   "alignment" : 4,
   "enum_fields" :
   [
    {
     "enum_field_value" : 0,
     "name" : "android::aggregate_traits<android::String8, android::String8>::is_pointer"
    },
    {
     "enum_field_value" : 0,
     "name" : "android::aggregate_traits<android::String8, android::String8>::has_trivial_ctor"
    },
    {
     "enum_field_value" : 0,
     "name" : "android::aggregate_traits<android::String8, android::String8>::has_trivial_dtor"
    },
    {
     "enum_field_value" : 0,
     "name" : "android::aggregate_traits<android::String8, android::String8>::has_trivial_copy"
    },
    {
     "enum_field_value" : 1,
     "name" : "android::aggregate_traits<android::String8, android::String8>::has_trivial_move"
    }
   ],
   "linker_set_key" : "_ZTIN7android16aggregate_traitsINS_7String8ES1_E17$has_trivial_copyE",
   "name" : "android::aggregate_traits<String8, String8>::(anonymous enum at system/core/libutils/include/utils/TypeHelpers.h:60:5)",
   "referenced_type" : "_ZTIN7android16aggregate_traitsINS_7String8ES1_E17$has_trivial_copyE",
   "self_type" : "_ZTIN7android16aggregate_traitsINS_7String8ES1_E17$has_trivial_copyE",
   "size" : 4,
   "source_file" : "system/core/libutils/include/utils/TypeHelpers.h",
   "underlying_type" : "_ZTIj"
  },
  {
   "alignment" : 4,
   "enum_fields" :
   [
    {
     "enum_field_value" : 0,
     "name" : "android::trait_trivial_copy<android::key_value_pair_t<android::String8, android::String8>>::value"
    }
   ],
   "linker_set_key" : "_ZTIN7android18trait_trivial_copyINS_16key_value_pair_tINS_7String8ES2_EEE6$valueE",
   "name" : "android::trait_trivial_copy<key_value_pair_t<String8, String8>>::(anonymous enum at system/core/libutils/include/utils/TypeHelpers.h:287:3)",
   "referenced_type" : "_ZTIN7android18trait_trivial_copyINS_16key_value_pair_tINS_7String8ES2_EEE6$valueE",
   "self_type" : "_ZTIN7android18trait_trivial_copyINS_16key_value_pair_tINS_7String8ES2_EEE6$valueE",
   "size" : 4,
   "source_file" : "system/core/libutils/include/utils/TypeHelpers.h",
   "underlying_type" : "_ZTIj"
  },
  {
   "alignment" : 4,
   "enum_fields" :
   [
    {
     "enum_field_value" : 0,
     "name" : "android::trait_trivial_copy<android::String8>::value"
    }
   ],
   "linker_set_key" : "_ZTIN7android18trait_trivial_copyINS_7String8EE6$valueE",
   "name" : "android::trait_trivial_copy<String8>::(anonymous enum at system/core/libutils/include/utils/TypeHelpers.h:37:51)",
   "referenced_type" : "_ZTIN7android18trait_trivial_copyINS_7String8EE6$valueE",
   "self_type" : "_ZTIN7android18trait_trivial_copyINS_7String8EE6$valueE",
   "size" : 4,
   "source_file" : "system/core/libutils/include/utils/TypeHelpers.h",
   "underlying_type" : "_ZTIj"
  },
  {
   "alignment" : 4,
   "enum_fields" :
   [
    {
     "enum_field_value" : 1,
     "name" : "android::trait_trivial_copy<bool>::value"
    }
   ],
   "linker_set_key" : "_ZTIN7android18trait_trivial_copyIbE6$valueE",
   "name" : "android::trait_trivial_copy<bool>::(anonymous enum at system/core/libutils/include/utils/TypeHelpers.h:98:1)",
   "referenced_type" : "_ZTIN7android18trait_trivial_copyIbE6$valueE",
   "self_type" : "_ZTIN7android18trait_trivial_copyIbE6$valueE",
   "size" : 4,
   "source_file" : "system/core/libutils/include/utils/TypeHelpers.h",
   "underlying_type" : "_ZTIj"
  },
  {
   "alignment" : 4,
   "enum_fields" :
   [
    {
     "enum_field_value" : 1,
     "name" : "android::trait_trivial_copy<char>::value"
    }
   ],
   "linker_set_key" : "_ZTIN7android18trait_trivial_copyIcE6$valueE",
   "name" : "android::trait_trivial_copy<char>::(anonymous enum at system/core/libutils/include/utils/TypeHelpers.h:99:1)",
   "referenced_type" : "_ZTIN7android18trait_trivial_copyIcE6$valueE",
   "self_type" : "_ZTIN7android18trait_trivial_copyIcE6$valueE",
   "size" : 4,
   "source_file" : "system/core/libutils/include/utils/TypeHelpers.h",
   "underlying_type" : "_ZTIj"
  },
  {
   "alignment" : 4,
   "enum_fields" :
   [
    {
     "enum_field_value" : 1,
     "name" : "android::trait_trivial_copy<double>::value"
    }
   ],
   "linker_set_key" : "_ZTIN7android18trait_trivial_copyIdE6$valueE",
   "name" : "android::trait_trivial_copy<double>::(anonymous enum at system/core/libutils/include/utils/TypeHelpers.h:110:1)",
   "referenced_type" : "_ZTIN7android18trait_trivial_copyIdE6$valueE",
   "self_type" : "_ZTIN7android18trait_trivial_copyIdE6$valueE",
   "size" : 4,
   "source_file" : "system/core/libutils/include/utils/TypeHelpers.h",
   "underlying_type" : "_ZTIj"
  },
  {
   "alignment" : 4,
   "enum_fields" :
   [
    {
     "enum_field_value" : 1,
     "name" : "android::trait_trivial_copy<float>::value"
    }
   ],
   "linker_set_key" : "_ZTIN7android18trait_trivial_copyIfE6$valueE",
   "name" : "android::trait_trivial_copy<float>::(anonymous enum at system/core/libutils/include/utils/TypeHelpers.h:109:1)",
   "referenced_type" : "_ZTIN7android18trait_trivial_copyIfE6$valueE",
   "self_type" : "_ZTIN7android18trait_trivial_copyIfE6$valueE",
   "size" : 4,
   "source_file" : "system/core/libutils/include/utils/TypeHelpers.h",
   "underlying_type" : "_ZTIj"
  },
  {
   "alignment" : 4,
   "enum_fields" :
   [
    {
     "enum_field_value" : 1,
     "name" : "android::trait_trivial_copy<unsigned char>::value"
    }
   ],
   "linker_set_key" : "_ZTIN7android18trait_trivial_copyIhE6$valueE",
   "name" : "android::trait_trivial_copy<unsigned char>::(anonymous enum at system/core/libutils/include/utils/TypeHelpers.h:100:1)",
   "referenced_type" : "_ZTIN7android18trait_trivial_copyIhE6$valueE",
   "self_type" : "_ZTIN7android18trait_trivial_copyIhE6$valueE",
   "size" : 4,
   "source_file" : "system/core/libutils/include/utils/TypeHelpers.h",
   "underlying_type" : "_ZTIj"
  },
  {
   "alignment" : 4,
   "enum_fields" :
   [
    {
     "enum_field_value" : 1,
     "name" : "android::trait_trivial_copy<int>::value"
    }
   ],
   "linker_set_key" : "_ZTIN7android18trait_trivial_copyIiE6$valueE",
   "name" : "android::trait_trivial_copy<int>::(anonymous enum at system/core/libutils/include/utils/TypeHelpers.h:103:1)",
   "referenced_type" : "_ZTIN7android18trait_trivial_copyIiE6$valueE",
   "self_type" : "_ZTIN7android18trait_trivial_copyIiE6$valueE",
   "size" : 4,
   "source_file" : "system/core/libutils/include/utils/TypeHelpers.h",
   "underlying_type" : "_ZTIj"
  },
  {
   "alignment" : 4,
   "enum_fields" :
   [
    {
     "enum_field_value" : 1,
     "name" : "android::trait_trivial_copy<unsigned int>::value"
    }
   ],
   "linker_set_key" : "_ZTIN7android18trait_trivial_copyIjE6$valueE",
   "name" : "android::trait_trivial_copy<unsigned int>::(anonymous enum at system/core/libutils/include/utils/TypeHelpers.h:104:1)",
   "referenced_type" : "_ZTIN7android18trait_trivial_copyIjE6$valueE",
   "self_type" : "_ZTIN7android18trait_trivial_copyIjE6$valueE",
   "size" : 4,
   "source_file" : "system/core/libutils/include/utils/TypeHelpers.h",
   "underlying_type" : "_ZTIj"
  },
  {
   "alignment" : 4,
   "enum_fields" :
   [
    {
     "enum_field_value" : 1,
     "name" : "android::trait_trivial_copy<long>::value"
    }
   ],
   "linker_set_key" : "_ZTIN7android18trait_trivial_copyIlE6$valueE",
   "name" : "android::trait_trivial_copy<long>::(anonymous enum at system/core/libutils/include/utils/TypeHelpers.h:105:1)",
   "referenced_type" : "_ZTIN7android18trait_trivial_copyIlE6$valueE",
   "self_type" : "_ZTIN7android18trait_trivial_copyIlE6$valueE",
   "size" : 4,
   "source_file" : "system/core/libutils/include/utils/TypeHelpers.h",
   "underlying_type" : "_ZTIj"
  },
  {
   "alignment" : 4,
   "enum_fields" :
   [
    {
     "enum_field_value" : 1,
     "name" : "android::trait_trivial_copy<unsigned long>::value"
    }
   ],
   "linker_set_key" : "_ZTIN7android18trait_trivial_copyImE6$valueE",
   "name" : "android::trait_trivial_copy<unsigned long>::(anonymous enum at system/core/libutils/include/utils/TypeHelpers.h:106:1)",
   "referenced_type" : "_ZTIN7android18trait_trivial_copyImE6$valueE",
   "self_type" : "_ZTIN7android18trait_trivial_copyImE6$valueE",
   "size" : 4,
   "source_file" : "system/core/libutils/include/utils/TypeHelpers.h",
   "underlying_type" : "_ZTIj"
  },
  {
   "alignment" : 4,
   "enum_fields" :
   [
    {
     "enum_field_value" : 1,
     "name" : "android::trait_trivial_copy<short>::value"
    }
   ],
   "linker_set_key" : "_ZTIN7android18trait_trivial_copyIsE6$valueE",
   "name" : "android::trait_trivial_copy<short>::(anonymous enum at system/core/libutils/include/utils/TypeHelpers.h:101:1)",
   "referenced_type" : "_ZTIN7android18trait_trivial_copyIsE6$valueE",
   "self_type" : "_ZTIN7android18trait_trivial_copyIsE6$valueE",
   "size" : 4,
   "source_file" : "system/core/libutils/include/utils/TypeHelpers.h",
   "underlying_type" : "_ZTIj"
  },
  {
   "alignment" : 4,
   "enum_fields" :
   [
    {
     "enum_field_value" : 1,
     "name" : "android::trait_trivial_copy<unsigned short>::value"
    }
   ],
   "linker_set_key" : "_ZTIN7android18trait_trivial_copyItE6$valueE",
   "name" : "android::trait_trivial_copy<unsigned short>::(anonymous enum at system/core/libutils/include/utils/TypeHelpers.h:102:1)",
   "referenced_type" : "_ZTIN7android18trait_trivial_copyItE6$valueE",
   "self_type" : "_ZTIN7android18trait_trivial_copyItE6$valueE",
   "size" : 4,
   "source_file" : "system/core/libutils/include/utils/TypeHelpers.h",
   "underlying_type" : "_ZTIj"
  },
  {
   "alignment" : 4,
   "enum_fields" :
   [
    {
     "enum_field_value" : 1,
     "name" : "android::trait_trivial_copy<void>::value"
    }
   ],
   "linker_set_key" : "_ZTIN7android18trait_trivial_copyIvE6$valueE",
   "name" : "android::trait_trivial_copy<void>::(anonymous enum at system/core/libutils/include/utils/TypeHelpers.h:97:1)",
   "referenced_type" : "_ZTIN7android18trait_trivial_copyIvE6$valueE",
   "self_type" : "_ZTIN7android18trait_trivial_copyIvE6$valueE",
   "size" : 4,
   "source_file" : "system/core/libutils/include/utils/TypeHelpers.h",
   "underlying_type" : "_ZTIj"
  },
  {
   "alignment" : 4,
   "enum_fields" :
   [
    {
     "enum_field_value" : 1,
     "name" : "android::trait_trivial_copy<long long>::value"
    }
   ],
   "linker_set_key" : "_ZTIN7android18trait_trivial_copyIxE6$valueE",
   "name" : "android::trait_trivial_copy<long long>::(anonymous enum at system/core/libutils/include/utils/TypeHelpers.h:107:1)",
   "referenced_type" : "_ZTIN7android18trait_trivial_copyIxE6$valueE",
   "self_type" : "_ZTIN7android18trait_trivial_copyIxE6$valueE",
   "size" : 4,
   "source_file" : "system/core/libutils/include/utils/TypeHelpers.h",
   "underlying_type" : "_ZTIj"
  },
  {
   "alignment" : 4,
   "enum_fields" :
   [
    {
     "enum_field_value" : 1,
     "name" : "android::trait_trivial_copy<unsigned long long>::value"
    }
   ],
   "linker_set_key" : "_ZTIN7android18trait_trivial_copyIyE6$valueE",
   "name" : "android::trait_trivial_copy<unsigned long long>::(anonymous enum at system/core/libutils/include/utils/TypeHelpers.h:108:1)",
   "referenced_type" : "_ZTIN7android18trait_trivial_copyIyE6$valueE",
   "self_type" : "_ZTIN7android18trait_trivial_copyIyE6$valueE",
   "size" : 4,
   "source_file" : "system/core/libutils/include/utils/TypeHelpers.h",
   "underlying_type" : "_ZTIj"
  },
  {
   "alignment" : 4,
   "enum_fields" :
   [
    {
     "enum_field_value" : 0,
     "name" : "android::trait_trivial_ctor<android::key_value_pair_t<android::String8, android::String8>>::value"
    }
   ],
   "linker_set_key" : "_ZTIN7android18trait_trivial_ctorINS_16key_value_pair_tINS_7String8ES2_EEE6$valueE",
   "name" : "android::trait_trivial_ctor<key_value_pair_t<String8, String8>>::(anonymous enum at system/core/libutils/include/utils/TypeHelpers.h:281:3)",
   "referenced_type" : "_ZTIN7android18trait_trivial_ctorINS_16key_value_pair_tINS_7String8ES2_EEE6$valueE",
   "self_type" : "_ZTIN7android18trait_trivial_ctorINS_16key_value_pair_tINS_7String8ES2_EEE6$valueE",
   "size" : 4,
   "source_file" : "system/core/libutils/include/utils/TypeHelpers.h",
   "underlying_type" : "_ZTIj"
  },
  {
   "alignment" : 4,
   "enum_fields" :
   [
    {
     "enum_field_value" : 0,
     "name" : "android::trait_trivial_ctor<android::String8>::value"
    }
   ],
   "linker_set_key" : "_ZTIN7android18trait_trivial_ctorINS_7String8EE6$valueE",
   "name" : "android::trait_trivial_ctor<String8>::(anonymous enum at system/core/libutils/include/utils/TypeHelpers.h:35:51)",
   "referenced_type" : "_ZTIN7android18trait_trivial_ctorINS_7String8EE6$valueE",
   "self_type" : "_ZTIN7android18trait_trivial_ctorINS_7String8EE6$valueE",
   "size" : 4,
   "source_file" : "system/core/libutils/include/utils/TypeHelpers.h",
   "underlying_type" : "_ZTIj"
  },
  {
   "alignment" : 4,
   "enum_fields" :
   [
    {
     "enum_field_value" : 1,
     "name" : "android::trait_trivial_ctor<bool>::value"
    }
   ],
   "linker_set_key" : "_ZTIN7android18trait_trivial_ctorIbE6$valueE",
   "name" : "android::trait_trivial_ctor<bool>::(anonymous enum at system/core/libutils/include/utils/TypeHelpers.h:98:1)",
   "referenced_type" : "_ZTIN7android18trait_trivial_ctorIbE6$valueE",
   "self_type" : "_ZTIN7android18trait_trivial_ctorIbE6$valueE",
   "size" : 4,
   "source_file" : "system/core/libutils/include/utils/TypeHelpers.h",
   "underlying_type" : "_ZTIj"
  },
  {
   "alignment" : 4,
   "enum_fields" :
   [
    {
     "enum_field_value" : 1,
     "name" : "android::trait_trivial_ctor<char>::value"
    }
   ],
   "linker_set_key" : "_ZTIN7android18trait_trivial_ctorIcE6$valueE",
   "name" : "android::trait_trivial_ctor<char>::(anonymous enum at system/core/libutils/include/utils/TypeHelpers.h:99:1)",
   "referenced_type" : "_ZTIN7android18trait_trivial_ctorIcE6$valueE",
   "self_type" : "_ZTIN7android18trait_trivial_ctorIcE6$valueE",
   "size" : 4,
   "source_file" : "system/core/libutils/include/utils/TypeHelpers.h",
   "underlying_type" : "_ZTIj"
  },
  {
   "alignment" : 4,
   "enum_fields" :
   [
    {
     "enum_field_value" : 1,
     "name" : "android::trait_trivial_ctor<double>::value"
    }
   ],
   "linker_set_key" : "_ZTIN7android18trait_trivial_ctorIdE6$valueE",
   "name" : "android::trait_trivial_ctor<double>::(anonymous enum at system/core/libutils/include/utils/TypeHelpers.h:110:1)",
   "referenced_type" : "_ZTIN7android18trait_trivial_ctorIdE6$valueE",
   "self_type" : "_ZTIN7android18trait_trivial_ctorIdE6$valueE",
   "size" : 4,
   "source_file" : "system/core/libutils/include/utils/TypeHelpers.h",
   "underlying_type" : "_ZTIj"
  },
  {
   "alignment" : 4,
   "enum_fields" :
   [
    {
     "enum_field_value" : 1,
     "name" : "android::trait_trivial_ctor<float>::value"
    }
   ],
   "linker_set_key" : "_ZTIN7android18trait_trivial_ctorIfE6$valueE",
   "name" : "android::trait_trivial_ctor<float>::(anonymous enum at system/core/libutils/include/utils/TypeHelpers.h:109:1)",
   "referenced_type" : "_ZTIN7android18trait_trivial_ctorIfE6$valueE",
   "self_type" : "_ZTIN7android18trait_trivial_ctorIfE6$valueE",
   "size" : 4,
   "source_file" : "system/core/libutils/include/utils/TypeHelpers.h",
   "underlying_type" : "_ZTIj"
  },
  {
   "alignment" : 4,
   "enum_fields" :
   [
    {
     "enum_field_value" : 1,
     "name" : "android::trait_trivial_ctor<unsigned char>::value"
    }
   ],
   "linker_set_key" : "_ZTIN7android18trait_trivial_ctorIhE6$valueE",
   "name" : "android::trait_trivial_ctor<unsigned char>::(anonymous enum at system/core/libutils/include/utils/TypeHelpers.h:100:1)",
   "referenced_type" : "_ZTIN7android18trait_trivial_ctorIhE6$valueE",
   "self_type" : "_ZTIN7android18trait_trivial_ctorIhE6$valueE",
   "size" : 4,
   "source_file" : "system/core/libutils/include/utils/TypeHelpers.h",
   "underlying_type" : "_ZTIj"
  },
  {
   "alignment" : 4,
   "enum_fields" :
   [
    {
     "enum_field_value" : 1,
     "name" : "android::trait_trivial_ctor<int>::value"
    }
   ],
   "linker_set_key" : "_ZTIN7android18trait_trivial_ctorIiE6$valueE",
   "name" : "android::trait_trivial_ctor<int>::(anonymous enum at system/core/libutils/include/utils/TypeHelpers.h:103:1)",
   "referenced_type" : "_ZTIN7android18trait_trivial_ctorIiE6$valueE",
   "self_type" : "_ZTIN7android18trait_trivial_ctorIiE6$valueE",
   "size" : 4,
   "source_file" : "system/core/libutils/include/utils/TypeHelpers.h",
   "underlying_type" : "_ZTIj"
  },
  {
   "alignment" : 4,
   "enum_fields" :
   [
    {
     "enum_field_value" : 1,
     "name" : "android::trait_trivial_ctor<unsigned int>::value"
    }
   ],
   "linker_set_key" : "_ZTIN7android18trait_trivial_ctorIjE6$valueE",
   "name" : "android::trait_trivial_ctor<unsigned int>::(anonymous enum at system/core/libutils/include/utils/TypeHelpers.h:104:1)",
   "referenced_type" : "_ZTIN7android18trait_trivial_ctorIjE6$valueE",
   "self_type" : "_ZTIN7android18trait_trivial_ctorIjE6$valueE",
   "size" : 4,
   "source_file" : "system/core/libutils/include/utils/TypeHelpers.h",
   "underlying_type" : "_ZTIj"
  },
  {
   "alignment" : 4,
   "enum_fields" :
   [
    {
     "enum_field_value" : 1,
     "name" : "android::trait_trivial_ctor<long>::value"
    }
   ],
   "linker_set_key" : "_ZTIN7android18trait_trivial_ctorIlE6$valueE",
   "name" : "android::trait_trivial_ctor<long>::(anonymous enum at system/core/libutils/include/utils/TypeHelpers.h:105:1)",
   "referenced_type" : "_ZTIN7android18trait_trivial_ctorIlE6$valueE",
   "self_type" : "_ZTIN7android18trait_trivial_ctorIlE6$valueE",
   "size" : 4,
   "source_file" : "system/core/libutils/include/utils/TypeHelpers.h",
   "underlying_type" : "_ZTIj"
  },
  {
   "alignment" : 4,
   "enum_fields" :
   [
    {
     "enum_field_value" : 1,
     "name" : "android::trait_trivial_ctor<unsigned long>::value"
    }
   ],
   "linker_set_key" : "_ZTIN7android18trait_trivial_ctorImE6$valueE",
   "name" : "android::trait_trivial_ctor<unsigned long>::(anonymous enum at system/core/libutils/include/utils/TypeHelpers.h:106:1)",
   "referenced_type" : "_ZTIN7android18trait_trivial_ctorImE6$valueE",
   "self_type" : "_ZTIN7android18trait_trivial_ctorImE6$valueE",
   "size" : 4,
   "source_file" : "system/core/libutils/include/utils/TypeHelpers.h",
   "underlying_type" : "_ZTIj"
  },
  {
   "alignment" : 4,
   "enum_fields" :
   [
    {
     "enum_field_value" : 1,
     "name" : "android::trait_trivial_ctor<short>::value"
    }
   ],
   "linker_set_key" : "_ZTIN7android18trait_trivial_ctorIsE6$valueE",
   "name" : "android::trait_trivial_ctor<short>::(anonymous enum at system/core/libutils/include/utils/TypeHelpers.h:101:1)",
   "referenced_type" : "_ZTIN7android18trait_trivial_ctorIsE6$valueE",
   "self_type" : "_ZTIN7android18trait_trivial_ctorIsE6$valueE",
   "size" : 4,
   "source_file" : "system/core/libutils/include/utils/TypeHelpers.h",
   "underlying_type" : "_ZTIj"
  },
  {
   "alignment" : 4,
   "enum_fields" :
   [
    {
     "enum_field_value" : 1,
     "name" : "android::trait_trivial_ctor<unsigned short>::value"
    }
   ],
   "linker_set_key" : "_ZTIN7android18trait_trivial_ctorItE6$valueE",
   "name" : "android::trait_trivial_ctor<unsigned short>::(anonymous enum at system/core/libutils/include/utils/TypeHelpers.h:102:1)",
   "referenced_type" : "_ZTIN7android18trait_trivial_ctorItE6$valueE",
   "self_type" : "_ZTIN7android18trait_trivial_ctorItE6$valueE",
   "size" : 4,
   "source_file" : "system/core/libutils/include/utils/TypeHelpers.h",
   "underlying_type" : "_ZTIj"
  },
  {
   "alignment" : 4,
   "enum_fields" :
   [
    {
     "enum_field_value" : 1,
     "name" : "android::trait_trivial_ctor<void>::value"
    }
   ],
   "linker_set_key" : "_ZTIN7android18trait_trivial_ctorIvE6$valueE",
   "name" : "android::trait_trivial_ctor<void>::(anonymous enum at system/core/libutils/include/utils/TypeHelpers.h:97:1)",
   "referenced_type" : "_ZTIN7android18trait_trivial_ctorIvE6$valueE",
   "self_type" : "_ZTIN7android18trait_trivial_ctorIvE6$valueE",
   "size" : 4,
   "source_file" : "system/core/libutils/include/utils/TypeHelpers.h",
   "underlying_type" : "_ZTIj"
  },
  {
   "alignment" : 4,
   "enum_fields" :
   [
    {
     "enum_field_value" : 1,
     "name" : "android::trait_trivial_ctor<long long>::value"
    }
   ],
   "linker_set_key" : "_ZTIN7android18trait_trivial_ctorIxE6$valueE",
   "name" : "android::trait_trivial_ctor<long long>::(anonymous enum at system/core/libutils/include/utils/TypeHelpers.h:107:1)",
   "referenced_type" : "_ZTIN7android18trait_trivial_ctorIxE6$valueE",
   "self_type" : "_ZTIN7android18trait_trivial_ctorIxE6$valueE",
   "size" : 4,
   "source_file" : "system/core/libutils/include/utils/TypeHelpers.h",
   "underlying_type" : "_ZTIj"
  },
  {
   "alignment" : 4,
   "enum_fields" :
   [
    {
     "enum_field_value" : 1,
     "name" : "android::trait_trivial_ctor<unsigned long long>::value"
    }
   ],
   "linker_set_key" : "_ZTIN7android18trait_trivial_ctorIyE6$valueE",
   "name" : "android::trait_trivial_ctor<unsigned long long>::(anonymous enum at system/core/libutils/include/utils/TypeHelpers.h:108:1)",
   "referenced_type" : "_ZTIN7android18trait_trivial_ctorIyE6$valueE",
   "self_type" : "_ZTIN7android18trait_trivial_ctorIyE6$valueE",
   "size" : 4,
   "source_file" : "system/core/libutils/include/utils/TypeHelpers.h",
   "underlying_type" : "_ZTIj"
  },
  {
   "alignment" : 4,
   "enum_fields" :
   [
    {
     "enum_field_value" : 0,
     "name" : "android::trait_trivial_dtor<android::key_value_pair_t<android::String8, android::String8>>::value"
    }
   ],
   "linker_set_key" : "_ZTIN7android18trait_trivial_dtorINS_16key_value_pair_tINS_7String8ES2_EEE6$valueE",
   "name" : "android::trait_trivial_dtor<key_value_pair_t<String8, String8>>::(anonymous enum at system/core/libutils/include/utils/TypeHelpers.h:284:3)",
   "referenced_type" : "_ZTIN7android18trait_trivial_dtorINS_16key_value_pair_tINS_7String8ES2_EEE6$valueE",
   "self_type" : "_ZTIN7android18trait_trivial_dtorINS_16key_value_pair_tINS_7String8ES2_EEE6$valueE",
   "size" : 4,
   "source_file" : "system/core/libutils/include/utils/TypeHelpers.h",
   "underlying_type" : "_ZTIj"
  },
  {
   "alignment" : 4,
   "enum_fields" :
   [
    {
     "enum_field_value" : 0,
     "name" : "android::trait_trivial_dtor<android::String8>::value"
    }
   ],
   "linker_set_key" : "_ZTIN7android18trait_trivial_dtorINS_7String8EE6$valueE",
   "name" : "android::trait_trivial_dtor<String8>::(anonymous enum at system/core/libutils/include/utils/TypeHelpers.h:36:51)",
   "referenced_type" : "_ZTIN7android18trait_trivial_dtorINS_7String8EE6$valueE",
   "self_type" : "_ZTIN7android18trait_trivial_dtorINS_7String8EE6$valueE",
   "size" : 4,
   "source_file" : "system/core/libutils/include/utils/TypeHelpers.h",
   "underlying_type" : "_ZTIj"
  },
  {
   "alignment" : 4,
   "enum_fields" :
   [
    {
     "enum_field_value" : 1,
     "name" : "android::trait_trivial_dtor<bool>::value"
    }
   ],
   "linker_set_key" : "_ZTIN7android18trait_trivial_dtorIbE6$valueE",
   "name" : "android::trait_trivial_dtor<bool>::(anonymous enum at system/core/libutils/include/utils/TypeHelpers.h:98:1)",
   "referenced_type" : "_ZTIN7android18trait_trivial_dtorIbE6$valueE",
   "self_type" : "_ZTIN7android18trait_trivial_dtorIbE6$valueE",
   "size" : 4,
   "source_file" : "system/core/libutils/include/utils/TypeHelpers.h",
   "underlying_type" : "_ZTIj"
  },
  {
   "alignment" : 4,
   "enum_fields" :
   [
    {
     "enum_field_value" : 1,
     "name" : "android::trait_trivial_dtor<char>::value"
    }
   ],
   "linker_set_key" : "_ZTIN7android18trait_trivial_dtorIcE6$valueE",
   "name" : "android::trait_trivial_dtor<char>::(anonymous enum at system/core/libutils/include/utils/TypeHelpers.h:99:1)",
   "referenced_type" : "_ZTIN7android18trait_trivial_dtorIcE6$valueE",
   "self_type" : "_ZTIN7android18trait_trivial_dtorIcE6$valueE",
   "size" : 4,
   "source_file" : "system/core/libutils/include/utils/TypeHelpers.h",
   "underlying_type" : "_ZTIj"
  },
  {
   "alignment" : 4,
   "enum_fields" :
   [
    {
     "enum_field_value" : 1,
     "name" : "android::trait_trivial_dtor<double>::value"
    }
   ],
   "linker_set_key" : "_ZTIN7android18trait_trivial_dtorIdE6$valueE",
   "name" : "android::trait_trivial_dtor<double>::(anonymous enum at system/core/libutils/include/utils/TypeHelpers.h:110:1)",
   "referenced_type" : "_ZTIN7android18trait_trivial_dtorIdE6$valueE",
   "self_type" : "_ZTIN7android18trait_trivial_dtorIdE6$valueE",
   "size" : 4,
   "source_file" : "system/core/libutils/include/utils/TypeHelpers.h",
   "underlying_type" : "_ZTIj"
  },
  {
   "alignment" : 4,
   "enum_fields" :
   [
    {
     "enum_field_value" : 1,
     "name" : "android::trait_trivial_dtor<float>::value"
    }
   ],
   "linker_set_key" : "_ZTIN7android18trait_trivial_dtorIfE6$valueE",
   "name" : "android::trait_trivial_dtor<float>::(anonymous enum at system/core/libutils/include/utils/TypeHelpers.h:109:1)",
   "referenced_type" : "_ZTIN7android18trait_trivial_dtorIfE6$valueE",
   "self_type" : "_ZTIN7android18trait_trivial_dtorIfE6$valueE",
   "size" : 4,
   "source_file" : "system/core/libutils/include/utils/TypeHelpers.h",
   "underlying_type" : "_ZTIj"
  },
  {
   "alignment" : 4,
   "enum_fields" :
   [
    {
     "enum_field_value" : 1,
     "name" : "android::trait_trivial_dtor<unsigned char>::value"
    }
   ],
   "linker_set_key" : "_ZTIN7android18trait_trivial_dtorIhE6$valueE",
   "name" : "android::trait_trivial_dtor<unsigned char>::(anonymous enum at system/core/libutils/include/utils/TypeHelpers.h:100:1)",
   "referenced_type" : "_ZTIN7android18trait_trivial_dtorIhE6$valueE",
   "self_type" : "_ZTIN7android18trait_trivial_dtorIhE6$valueE",
   "size" : 4,
   "source_file" : "system/core/libutils/include/utils/TypeHelpers.h",
   "underlying_type" : "_ZTIj"
  },
  {
   "alignment" : 4,
   "enum_fields" :
   [
    {
     "enum_field_value" : 1,
     "name" : "android::trait_trivial_dtor<int>::value"
    }
   ],
   "linker_set_key" : "_ZTIN7android18trait_trivial_dtorIiE6$valueE",
   "name" : "android::trait_trivial_dtor<int>::(anonymous enum at system/core/libutils/include/utils/TypeHelpers.h:103:1)",
   "referenced_type" : "_ZTIN7android18trait_trivial_dtorIiE6$valueE",
   "self_type" : "_ZTIN7android18trait_trivial_dtorIiE6$valueE",
   "size" : 4,
   "source_file" : "system/core/libutils/include/utils/TypeHelpers.h",
   "underlying_type" : "_ZTIj"
  },
  {
   "alignment" : 4,
   "enum_fields" :
   [
    {
     "enum_field_value" : 1,
     "name" : "android::trait_trivial_dtor<unsigned int>::value"
    }
   ],
   "linker_set_key" : "_ZTIN7android18trait_trivial_dtorIjE6$valueE",
   "name" : "android::trait_trivial_dtor<unsigned int>::(anonymous enum at system/core/libutils/include/utils/TypeHelpers.h:104:1)",
   "referenced_type" : "_ZTIN7android18trait_trivial_dtorIjE6$valueE",
   "self_type" : "_ZTIN7android18trait_trivial_dtorIjE6$valueE",
   "size" : 4,
   "source_file" : "system/core/libutils/include/utils/TypeHelpers.h",
   "underlying_type" : "_ZTIj"
  },
  {
   "alignment" : 4,
   "enum_fields" :
   [
    {
     "enum_field_value" : 1,
     "name" : "android::trait_trivial_dtor<long>::value"
    }
   ],
   "linker_set_key" : "_ZTIN7android18trait_trivial_dtorIlE6$valueE",
   "name" : "android::trait_trivial_dtor<long>::(anonymous enum at system/core/libutils/include/utils/TypeHelpers.h:105:1)",
   "referenced_type" : "_ZTIN7android18trait_trivial_dtorIlE6$valueE",
   "self_type" : "_ZTIN7android18trait_trivial_dtorIlE6$valueE",
   "size" : 4,
   "source_file" : "system/core/libutils/include/utils/TypeHelpers.h",
   "underlying_type" : "_ZTIj"
  },
  {
   "alignment" : 4,
   "enum_fields" :
   [
    {
     "enum_field_value" : 1,
     "name" : "android::trait_trivial_dtor<unsigned long>::value"
    }
   ],
   "linker_set_key" : "_ZTIN7android18trait_trivial_dtorImE6$valueE",
   "name" : "android::trait_trivial_dtor<unsigned long>::(anonymous enum at system/core/libutils/include/utils/TypeHelpers.h:106:1)",
   "referenced_type" : "_ZTIN7android18trait_trivial_dtorImE6$valueE",
   "self_type" : "_ZTIN7android18trait_trivial_dtorImE6$valueE",
   "size" : 4,
   "source_file" : "system/core/libutils/include/utils/TypeHelpers.h",
   "underlying_type" : "_ZTIj"
  },
  {
   "alignment" : 4,
   "enum_fields" :
   [
    {
     "enum_field_value" : 1,
     "name" : "android::trait_trivial_dtor<short>::value"
    }
   ],
   "linker_set_key" : "_ZTIN7android18trait_trivial_dtorIsE6$valueE",
   "name" : "android::trait_trivial_dtor<short>::(anonymous enum at system/core/libutils/include/utils/TypeHelpers.h:101:1)",
   "referenced_type" : "_ZTIN7android18trait_trivial_dtorIsE6$valueE",
   "self_type" : "_ZTIN7android18trait_trivial_dtorIsE6$valueE",
   "size" : 4,
   "source_file" : "system/core/libutils/include/utils/TypeHelpers.h",
   "underlying_type" : "_ZTIj"
  },
  {
   "alignment" : 4,
   "enum_fields" :
   [
    {
     "enum_field_value" : 1,
     "name" : "android::trait_trivial_dtor<unsigned short>::value"
    }
   ],
   "linker_set_key" : "_ZTIN7android18trait_trivial_dtorItE6$valueE",
   "name" : "android::trait_trivial_dtor<unsigned short>::(anonymous enum at system/core/libutils/include/utils/TypeHelpers.h:102:1)",
   "referenced_type" : "_ZTIN7android18trait_trivial_dtorItE6$valueE",
   "self_type" : "_ZTIN7android18trait_trivial_dtorItE6$valueE",
   "size" : 4,
   "source_file" : "system/core/libutils/include/utils/TypeHelpers.h",
   "underlying_type" : "_ZTIj"
  },
  {
   "alignment" : 4,
   "enum_fields" :
   [
    {
     "enum_field_value" : 1,
     "name" : "android::trait_trivial_dtor<void>::value"
    }
   ],
   "linker_set_key" : "_ZTIN7android18trait_trivial_dtorIvE6$valueE",
   "name" : "android::trait_trivial_dtor<void>::(anonymous enum at system/core/libutils/include/utils/TypeHelpers.h:97:1)",
   "referenced_type" : "_ZTIN7android18trait_trivial_dtorIvE6$valueE",
   "self_type" : "_ZTIN7android18trait_trivial_dtorIvE6$valueE",
   "size" : 4,
   "source_file" : "system/core/libutils/include/utils/TypeHelpers.h",
   "underlying_type" : "_ZTIj"
  },
  {
   "alignment" : 4,
   "enum_fields" :
   [
    {
     "enum_field_value" : 1,
     "name" : "android::trait_trivial_dtor<long long>::value"
    }
   ],
   "linker_set_key" : "_ZTIN7android18trait_trivial_dtorIxE6$valueE",
   "name" : "android::trait_trivial_dtor<long long>::(anonymous enum at system/core/libutils/include/utils/TypeHelpers.h:107:1)",
   "referenced_type" : "_ZTIN7android18trait_trivial_dtorIxE6$valueE",
   "self_type" : "_ZTIN7android18trait_trivial_dtorIxE6$valueE",
   "size" : 4,
   "source_file" : "system/core/libutils/include/utils/TypeHelpers.h",
   "underlying_type" : "_ZTIj"
  },
  {
   "alignment" : 4,
   "enum_fields" :
   [
    {
     "enum_field_value" : 1,
     "name" : "android::trait_trivial_dtor<unsigned long long>::value"
    }
   ],
   "linker_set_key" : "_ZTIN7android18trait_trivial_dtorIyE6$valueE",
   "name" : "android::trait_trivial_dtor<unsigned long long>::(anonymous enum at system/core/libutils/include/utils/TypeHelpers.h:108:1)",
   "referenced_type" : "_ZTIN7android18trait_trivial_dtorIyE6$valueE",
   "self_type" : "_ZTIN7android18trait_trivial_dtorIyE6$valueE",
   "size" : 4,
   "source_file" : "system/core/libutils/include/utils/TypeHelpers.h",
   "underlying_type" : "_ZTIj"
  },
  {
   "alignment" : 4,
   "enum_fields" :
   [
    {
     "enum_field_value" : 1,
     "name" : "android::trait_trivial_move<android::key_value_pair_t<android::String8, android::String8>>::value"
    }
   ],
   "linker_set_key" : "_ZTIN7android18trait_trivial_moveINS_16key_value_pair_tINS_7String8ES2_EEE6$valueE",
   "name" : "android::trait_trivial_move<key_value_pair_t<String8, String8>>::(anonymous enum at system/core/libutils/include/utils/TypeHelpers.h:290:3)",
   "referenced_type" : "_ZTIN7android18trait_trivial_moveINS_16key_value_pair_tINS_7String8ES2_EEE6$valueE",
   "self_type" : "_ZTIN7android18trait_trivial_moveINS_16key_value_pair_tINS_7String8ES2_EEE6$valueE",
   "size" : 4,
   "source_file" : "system/core/libutils/include/utils/TypeHelpers.h",
   "underlying_type" : "_ZTIj"
  },
  {
   "alignment" : 4,
   "enum_fields" :
   [
    {
     "enum_field_value" : 1,
     "name" : "android::trait_trivial_move<android::String8>::value"
    }
   ],
   "linker_set_key" : "_ZTIN7android18trait_trivial_moveINS_7String8EE6$valueE",
   "name" : "android::trait_trivial_move<String8>::(anonymous enum at system/core/libutils/include/utils/String8.h:231:1)",
   "referenced_type" : "_ZTIN7android18trait_trivial_moveINS_7String8EE6$valueE",
   "self_type" : "_ZTIN7android18trait_trivial_moveINS_7String8EE6$valueE",
   "size" : 4,
   "source_file" : "system/core/libutils/include/utils/String8.h",
   "underlying_type" : "_ZTIj"
  },
  {
   "alignment" : 4,
   "enum_fields" :
   [
    {
     "enum_field_value" : 1,
     "name" : "android::trait_trivial_move<bool>::value"
    }
   ],
   "linker_set_key" : "_ZTIN7android18trait_trivial_moveIbE6$valueE",
   "name" : "android::trait_trivial_move<bool>::(anonymous enum at system/core/libutils/include/utils/TypeHelpers.h:98:1)",
   "referenced_type" : "_ZTIN7android18trait_trivial_moveIbE6$valueE",
   "self_type" : "_ZTIN7android18trait_trivial_moveIbE6$valueE",
   "size" : 4,
   "source_file" : "system/core/libutils/include/utils/TypeHelpers.h",
   "underlying_type" : "_ZTIj"
  },
  {
   "alignment" : 4,
   "enum_fields" :
   [
    {
     "enum_field_value" : 1,
     "name" : "android::trait_trivial_move<char>::value"
    }
   ],
   "linker_set_key" : "_ZTIN7android18trait_trivial_moveIcE6$valueE",
   "name" : "android::trait_trivial_move<char>::(anonymous enum at system/core/libutils/include/utils/TypeHelpers.h:99:1)",
   "referenced_type" : "_ZTIN7android18trait_trivial_moveIcE6$valueE",
   "self_type" : "_ZTIN7android18trait_trivial_moveIcE6$valueE",
   "size" : 4,
   "source_file" : "system/core/libutils/include/utils/TypeHelpers.h",
   "underlying_type" : "_ZTIj"
  },
  {
   "alignment" : 4,
   "enum_fields" :
   [
    {
     "enum_field_value" : 1,
     "name" : "android::trait_trivial_move<double>::value"
    }
   ],
   "linker_set_key" : "_ZTIN7android18trait_trivial_moveIdE6$valueE",
   "name" : "android::trait_trivial_move<double>::(anonymous enum at system/core/libutils/include/utils/TypeHelpers.h:110:1)",
   "referenced_type" : "_ZTIN7android18trait_trivial_moveIdE6$valueE",
   "self_type" : "_ZTIN7android18trait_trivial_moveIdE6$valueE",
   "size" : 4,
   "source_file" : "system/core/libutils/include/utils/TypeHelpers.h",
   "underlying_type" : "_ZTIj"
  },
  {
   "alignment" : 4,
   "enum_fields" :
   [
    {
     "enum_field_value" : 1,
     "name" : "android::trait_trivial_move<float>::value"
    }
   ],
   "linker_set_key" : "_ZTIN7android18trait_trivial_moveIfE6$valueE",
   "name" : "android::trait_trivial_move<float>::(anonymous enum at system/core/libutils/include/utils/TypeHelpers.h:109:1)",
   "referenced_type" : "_ZTIN7android18trait_trivial_moveIfE6$valueE",
   "self_type" : "_ZTIN7android18trait_trivial_moveIfE6$valueE",
   "size" : 4,
   "source_file" : "system/core/libutils/include/utils/TypeHelpers.h",
   "underlying_type" : "_ZTIj"
  },
  {
   "alignment" : 4,
   "enum_fields" :
   [
    {
     "enum_field_value" : 1,
     "name" : "android::trait_trivial_move<unsigned char>::value"
    }
   ],
   "linker_set_key" : "_ZTIN7android18trait_trivial_moveIhE6$valueE",
   "name" : "android::trait_trivial_move<unsigned char>::(anonymous enum at system/core/libutils/include/utils/TypeHelpers.h:100:1)",
   "referenced_type" : "_ZTIN7android18trait_trivial_moveIhE6$valueE",
   "self_type" : "_ZTIN7android18trait_trivial_moveIhE6$valueE",
   "size" : 4,
   "source_file" : "system/core/libutils/include/utils/TypeHelpers.h",
   "underlying_type" : "_ZTIj"
  },
  {
   "alignment" : 4,
   "enum_fields" :
   [
    {
     "enum_field_value" : 1,
     "name" : "android::trait_trivial_move<int>::value"
    }
   ],
   "linker_set_key" : "_ZTIN7android18trait_trivial_moveIiE6$valueE",
   "name" : "android::trait_trivial_move<int>::(anonymous enum at system/core/libutils/include/utils/TypeHelpers.h:103:1)",
   "referenced_type" : "_ZTIN7android18trait_trivial_moveIiE6$valueE",
   "self_type" : "_ZTIN7android18trait_trivial_moveIiE6$valueE",
   "size" : 4,
   "source_file" : "system/core/libutils/include/utils/TypeHelpers.h",
   "underlying_type" : "_ZTIj"
  },
  {
   "alignment" : 4,
   "enum_fields" :
   [
    {
     "enum_field_value" : 1,
     "name" : "android::trait_trivial_move<unsigned int>::value"
    }
   ],
   "linker_set_key" : "_ZTIN7android18trait_trivial_moveIjE6$valueE",
   "name" : "android::trait_trivial_move<unsigned int>::(anonymous enum at system/core/libutils/include/utils/TypeHelpers.h:104:1)",
   "referenced_type" : "_ZTIN7android18trait_trivial_moveIjE6$valueE",
   "self_type" : "_ZTIN7android18trait_trivial_moveIjE6$valueE",
   "size" : 4,
   "source_file" : "system/core/libutils/include/utils/TypeHelpers.h",
   "underlying_type" : "_ZTIj"
  },
  {
   "alignment" : 4,
   "enum_fields" :
   [
    {
     "enum_field_value" : 1,
     "name" : "android::trait_trivial_move<long>::value"
    }
   ],
   "linker_set_key" : "_ZTIN7android18trait_trivial_moveIlE6$valueE",
   "name" : "android::trait_trivial_move<long>::(anonymous enum at system/core/libutils/include/utils/TypeHelpers.h:105:1)",
   "referenced_type" : "_ZTIN7android18trait_trivial_moveIlE6$valueE",
   "self_type" : "_ZTIN7android18trait_trivial_moveIlE6$valueE",
   "size" : 4,
   "source_file" : "system/core/libutils/include/utils/TypeHelpers.h",
   "underlying_type" : "_ZTIj"
  },
  {
   "alignment" : 4,
   "enum_fields" :
   [
    {
     "enum_field_value" : 1,
     "name" : "android::trait_trivial_move<unsigned long>::value"
    }
   ],
   "linker_set_key" : "_ZTIN7android18trait_trivial_moveImE6$valueE",
   "name" : "android::trait_trivial_move<unsigned long>::(anonymous enum at system/core/libutils/include/utils/TypeHelpers.h:106:1)",
   "referenced_type" : "_ZTIN7android18trait_trivial_moveImE6$valueE",
   "self_type" : "_ZTIN7android18trait_trivial_moveImE6$valueE",
   "size" : 4,
   "source_file" : "system/core/libutils/include/utils/TypeHelpers.h",
   "underlying_type" : "_ZTIj"
  },
  {
   "alignment" : 4,
   "enum_fields" :
   [
    {
     "enum_field_value" : 1,
     "name" : "android::trait_trivial_move<short>::value"
    }
   ],
   "linker_set_key" : "_ZTIN7android18trait_trivial_moveIsE6$valueE",
   "name" : "android::trait_trivial_move<short>::(anonymous enum at system/core/libutils/include/utils/TypeHelpers.h:101:1)",
   "referenced_type" : "_ZTIN7android18trait_trivial_moveIsE6$valueE",
   "self_type" : "_ZTIN7android18trait_trivial_moveIsE6$valueE",
   "size" : 4,
   "source_file" : "system/core/libutils/include/utils/TypeHelpers.h",
   "underlying_type" : "_ZTIj"
  },
  {
   "alignment" : 4,
   "enum_fields" :
   [
    {
     "enum_field_value" : 1,
     "name" : "android::trait_trivial_move<unsigned short>::value"
    }
   ],
   "linker_set_key" : "_ZTIN7android18trait_trivial_moveItE6$valueE",
   "name" : "android::trait_trivial_move<unsigned short>::(anonymous enum at system/core/libutils/include/utils/TypeHelpers.h:102:1)",
   "referenced_type" : "_ZTIN7android18trait_trivial_moveItE6$valueE",
   "self_type" : "_ZTIN7android18trait_trivial_moveItE6$valueE",
   "size" : 4,
   "source_file" : "system/core/libutils/include/utils/TypeHelpers.h",
   "underlying_type" : "_ZTIj"
  },
  {
   "alignment" : 4,
   "enum_fields" :
   [
    {
     "enum_field_value" : 1,
     "name" : "android::trait_trivial_move<void>::value"
    }
   ],
   "linker_set_key" : "_ZTIN7android18trait_trivial_moveIvE6$valueE",
   "name" : "android::trait_trivial_move<void>::(anonymous enum at system/core/libutils/include/utils/TypeHelpers.h:97:1)",
   "referenced_type" : "_ZTIN7android18trait_trivial_moveIvE6$valueE",
   "self_type" : "_ZTIN7android18trait_trivial_moveIvE6$valueE",
   "size" : 4,
   "source_file" : "system/core/libutils/include/utils/TypeHelpers.h",
   "underlying_type" : "_ZTIj"
  },
  {
   "alignment" : 4,
   "enum_fields" :
   [
    {
     "enum_field_value" : 1,
     "name" : "android::trait_trivial_move<long long>::value"
    }
   ],
   "linker_set_key" : "_ZTIN7android18trait_trivial_moveIxE6$valueE",
   "name" : "android::trait_trivial_move<long long>::(anonymous enum at system/core/libutils/include/utils/TypeHelpers.h:107:1)",
   "referenced_type" : "_ZTIN7android18trait_trivial_moveIxE6$valueE",
   "self_type" : "_ZTIN7android18trait_trivial_moveIxE6$valueE",
   "size" : 4,
   "source_file" : "system/core/libutils/include/utils/TypeHelpers.h",
   "underlying_type" : "_ZTIj"
  },
  {
   "alignment" : 4,
   "enum_fields" :
   [
    {
     "enum_field_value" : 1,
     "name" : "android::trait_trivial_move<unsigned long long>::value"
    }
   ],
   "linker_set_key" : "_ZTIN7android18trait_trivial_moveIyE6$valueE",
   "name" : "android::trait_trivial_move<unsigned long long>::(anonymous enum at system/core/libutils/include/utils/TypeHelpers.h:108:1)",
   "referenced_type" : "_ZTIN7android18trait_trivial_moveIyE6$valueE",
   "self_type" : "_ZTIN7android18trait_trivial_moveIyE6$valueE",
   "size" : 4,
   "source_file" : "system/core/libutils/include/utils/TypeHelpers.h",
   "underlying_type" : "_ZTIj"
  },
  {
   "alignment" : 4,
   "enum_fields" :
   [
    {
     "enum_field_value" : 0,
     "name" : "android::Mutex::PRIVATE"
    },
    {
     "enum_field_value" : 1,
     "name" : "android::Mutex::SHARED"
    }
   ],
   "linker_set_key" : "_ZTIN7android5Mutex8$PRIVATEE",
   "name" : "android::Mutex::(anonymous enum at system/core/libutils/include/utils/Mutex.h:96:5)",
   "referenced_type" : "_ZTIN7android5Mutex8$PRIVATEE",
   "self_type" : "_ZTIN7android5Mutex8$PRIVATEE",
   "size" : 4,
   "source_file" : "system/core/libutils/include/utils/Mutex.h",
   "underlying_type" : "_ZTIj"
  },
  {
   "alignment" : 4,
   "enum_fields" :
   [
    {
     "enum_field_value" : 0,
     "name" : "android::RWLock::PRIVATE"
    },
    {
     "enum_field_value" : 1,
     "name" : "android::RWLock::SHARED"
    }
   ],
   "linker_set_key" : "_ZTIN7android6RWLock8$PRIVATEE",
   "name" : "android::RWLock::(anonymous enum at system/core/libutils/include/utils/RWLock.h:44:5)",
   "referenced_type" : "_ZTIN7android6RWLock8$PRIVATEE",
   "self_type" : "_ZTIN7android6RWLock8$PRIVATEE",
   "size" : 4,
   "source_file" : "system/core/libutils/include/utils/RWLock.h",
   "underlying_type" : "_ZTIj"
  },
  {
   "alignment" : 4,
   "enum_fields" :
   [
    {
     "enum_field_value" : 0,
     "name" : "android::traits<android::key_value_pair_t<android::String8, android::String8>>::is_pointer"
    },
    {
     "enum_field_value" : 0,
     "name" : "android::traits<android::key_value_pair_t<android::String8, android::String8>>::has_trivial_ctor"
    },
    {
     "enum_field_value" : 0,
     "name" : "android::traits<android::key_value_pair_t<android::String8, android::String8>>::has_trivial_dtor"
    },
    {
     "enum_field_value" : 0,
     "name" : "android::traits<android::key_value_pair_t<android::String8, android::String8>>::has_trivial_copy"
    },
    {
     "enum_field_value" : 1,
     "name" : "android::traits<android::key_value_pair_t<android::String8, android::String8>>::has_trivial_move"
    }
   ],
   "linker_set_key" : "_ZTIN7android6traitsINS_16key_value_pair_tINS_7String8ES2_EEE17$has_trivial_copyE",
   "name" : "android::traits<key_value_pair_t<String8, String8>>::(anonymous enum at system/core/libutils/include/utils/TypeHelpers.h:44:5)",
   "referenced_type" : "_ZTIN7android6traitsINS_16key_value_pair_tINS_7String8ES2_EEE17$has_trivial_copyE",
   "self_type" : "_ZTIN7android6traitsINS_16key_value_pair_tINS_7String8ES2_EEE17$has_trivial_copyE",
   "size" : 4,
   "source_file" : "system/core/libutils/include/utils/TypeHelpers.h",
   "underlying_type" : "_ZTIj"
  },
  {
   "alignment" : 4,
   "enum_fields" :
   [
    {
     "enum_field_value" : 0,
     "name" : "android::traits<android::String8>::is_pointer"
    },
    {
     "enum_field_value" : 0,
     "name" : "android::traits<android::String8>::has_trivial_ctor"
    },
    {
     "enum_field_value" : 0,
     "name" : "android::traits<android::String8>::has_trivial_dtor"
    },
    {
     "enum_field_value" : 0,
     "name" : "android::traits<android::String8>::has_trivial_copy"
    },
    {
     "enum_field_value" : 1,
     "name" : "android::traits<android::String8>::has_trivial_move"
    }
   ],
   "linker_set_key" : "_ZTIN7android6traitsINS_7String8EE17$has_trivial_copyE",
   "name" : "android::traits<String8>::(anonymous enum at system/core/libutils/include/utils/TypeHelpers.h:44:5)",
   "referenced_type" : "_ZTIN7android6traitsINS_7String8EE17$has_trivial_copyE",
   "self_type" : "_ZTIN7android6traitsINS_7String8EE17$has_trivial_copyE",
   "size" : 4,
   "source_file" : "system/core/libutils/include/utils/TypeHelpers.h",
   "underlying_type" : "_ZTIj"
  },
  {
   "access" : "protected",
   "alignment" : 4,
   "enum_fields" :
   [
    {
     "enum_field_value" : 1,
     "name" : "android::RefBase::FIRST_INC_STRONG"
    }
   ],
   "linker_set_key" : "_ZTIN7android7RefBase17$FIRST_INC_STRONGE",
   "name" : "android::RefBase::(anonymous enum at system/core/libutils/include/utils/RefBase.h:358:5)",
   "referenced_type" : "_ZTIN7android7RefBase17$FIRST_INC_STRONGE",
   "self_type" : "_ZTIN7android7RefBase17$FIRST_INC_STRONGE",
   "size" : 4,
   "source_file" : "system/core/libutils/include/utils/RefBase.h",
   "underlying_type" : "_ZTIj"
  },
  {
   "access" : "protected",
   "alignment" : 4,
   "enum_fields" :
   [
    {
     "enum_field_value" : 0,
     "name" : "android::RefBase::OBJECT_LIFETIME_STRONG"
    },
    {
     "enum_field_value" : 1,
     "name" : "android::RefBase::OBJECT_LIFETIME_WEAK"
    },
    {
     "enum_field_value" : 1,
     "name" : "android::RefBase::OBJECT_LIFETIME_MASK"
    }
   ],
   "linker_set_key" : "_ZTIN7android7RefBase21$OBJECT_LIFETIME_MASKE",
   "name" : "android::RefBase::(anonymous enum at system/core/libutils/include/utils/RefBase.h:349:5)",
   "referenced_type" : "_ZTIN7android7RefBase21$OBJECT_LIFETIME_MASKE",
   "self_type" : "_ZTIN7android7RefBase21$OBJECT_LIFETIME_MASKE",
   "size" : 4,
   "source_file" : "system/core/libutils/include/utils/RefBase.h",
   "underlying_type" : "_ZTIj"
  },
  {
   "alignment" : 4,
   "enum_fields" :
   [
    {
     "enum_field_value" : 0,
     "name" : "android::Condition::WAKE_UP_ONE"
    },
    {
     "enum_field_value" : 1,
     "name" : "android::Condition::WAKE_UP_ALL"
    }
   ],
   "linker_set_key" : "_ZTIN7android9Condition10WakeUpTypeE",
   "name" : "android::Condition::WakeUpType",
   "referenced_type" : "_ZTIN7android9Condition10WakeUpTypeE",
   "self_type" : "_ZTIN7android9Condition10WakeUpTypeE",
   "size" : 4,
   "source_file" : "system/core/libutils/include/utils/Condition.h",
   "underlying_type" : "_ZTIj"
  },
  {
   "alignment" : 4,
   "enum_fields" :
   [
    {
     "enum_field_value" : 0,
     "name" : "android::Condition::PRIVATE"
    },
    {
     "enum_field_value" : 1,
     "name" : "android::Condition::SHARED"
    }
   ],
   "linker_set_key" : "_ZTIN7android9Condition8$PRIVATEE",
   "name" : "android::Condition::(anonymous enum at system/core/libutils/include/utils/Condition.h:54:5)",
   "referenced_type" : "_ZTIN7android9Condition8$PRIVATEE",
   "self_type" : "_ZTIN7android9Condition8$PRIVATEE",
   "size" : 4,
   "source_file" : "system/core/libutils/include/utils/Condition.h",
   "underlying_type" : "_ZTIj"
  }
 ],
 "function_types" :
 [
  {
   "alignment" : 4,
   "linker_set_key" : "_ZTIFiPvE",
   "name" : "int (void *)",
   "parameters" :
   [
    {
     "referenced_type" : "_ZTIPv"
    }
   ],
   "referenced_type" : "_ZTIFiPvE",
   "return_type" : "_ZTIi",
   "self_type" : "_ZTIFiPvE",
   "source_file" : "system/core/libutils/include/utils/AndroidThreads.h"
  }
 ],
 "functions" :
 [
  {
   "function_name" : "AMediaFormat_clear",
   "linker_set_key" : "AMediaFormat_clear",
   "parameters" :
   [
    {
     "referenced_type" : "_ZTIP12AMediaFormat"
    }
   ],
   "return_type" : "_ZTIv",
   "source_file" : "frameworks/av/media/ndk/include/media/NdkMediaFormat.h"
  },
  {
   "function_name" : "AMediaFormat_copy",
   "linker_set_key" : "AMediaFormat_copy",
   "parameters" :
   [
    {
     "referenced_type" : "_ZTIP12AMediaFormat"
    },
    {
     "referenced_type" : "_ZTIP12AMediaFormat"
    }
   ],
   "return_type" : "_ZTI14media_status_t",
   "source_file" : "frameworks/av/media/ndk/include/media/NdkMediaFormat.h"
  },
  {
   "function_name" : "AMediaFormat_delete",
   "linker_set_key" : "AMediaFormat_delete",
   "parameters" :
   [
    {
     "referenced_type" : "_ZTIP12AMediaFormat"
    }
   ],
   "return_type" : "_ZTI14media_status_t",
   "source_file" : "frameworks/av/media/ndk/include/media/NdkMediaFormat.h"
  },
  {
   "function_name" : "AMediaFormat_getBuffer",
   "linker_set_key" : "AMediaFormat_getBuffer",
   "parameters" :
   [
    {
     "referenced_type" : "_ZTIP12AMediaFormat"
    },
    {
     "referenced_type" : "_ZTIPKc"
    },
    {
     "referenced_type" : "_ZTIPPv"
    },
    {
     "referenced_type" : "_ZTIPj"
    }
   ],
   "return_type" : "_ZTIb",
   "source_file" : "frameworks/av/media/ndk/include/media/NdkMediaFormat.h"
  },
  {
   "function_name" : "AMediaFormat_getDouble",
   "linker_set_key" : "AMediaFormat_getDouble",
   "parameters" :
   [
    {
     "referenced_type" : "_ZTIP12AMediaFormat"
    },
    {
     "referenced_type" : "_ZTIPKc"
    },
    {
     "referenced_type" : "_ZTIPd"
    }
   ],
   "return_type" : "_ZTIb",
   "source_file" : "frameworks/av/media/ndk/include/media/NdkMediaFormat.h"
  },
  {
   "function_name" : "AMediaFormat_getFloat",
   "linker_set_key" : "AMediaFormat_getFloat",
   "parameters" :
   [
    {
     "referenced_type" : "_ZTIP12AMediaFormat"
    },
    {
     "referenced_type" : "_ZTIPKc"
    },
    {
     "referenced_type" : "_ZTIPf"
    }
   ],
   "return_type" : "_ZTIb",
   "source_file" : "frameworks/av/media/ndk/include/media/NdkMediaFormat.h"
  },
  {
   "function_name" : "AMediaFormat_getInt32",
   "linker_set_key" : "AMediaFormat_getInt32",
   "parameters" :
   [
    {
     "referenced_type" : "_ZTIP12AMediaFormat"
    },
    {
     "referenced_type" : "_ZTIPKc"
    },
    {
     "referenced_type" : "_ZTIPi"
    }
   ],
   "return_type" : "_ZTIb",
   "source_file" : "frameworks/av/media/ndk/include/media/NdkMediaFormat.h"
  },
  {
   "function_name" : "AMediaFormat_getInt64",
   "linker_set_key" : "AMediaFormat_getInt64",
   "parameters" :
   [
    {
     "referenced_type" : "_ZTIP12AMediaFormat"
    },
    {
     "referenced_type" : "_ZTIPKc"
    },
    {
     "referenced_type" : "_ZTIPx"
    }
   ],
   "return_type" : "_ZTIb",
   "source_file" : "frameworks/av/media/ndk/include/media/NdkMediaFormat.h"
  },
  {
   "function_name" : "AMediaFormat_getRect",
   "linker_set_key" : "AMediaFormat_getRect",
   "parameters" :
   [
    {
     "referenced_type" : "_ZTIP12AMediaFormat"
    },
    {
     "referenced_type" : "_ZTIPKc"
    },
    {
     "referenced_type" : "_ZTIPi"
    },
    {
     "referenced_type" : "_ZTIPi"
    },
    {
     "referenced_type" : "_ZTIPi"
    },
    {
     "referenced_type" : "_ZTIPi"
    }
   ],
   "return_type" : "_ZTIb",
   "source_file" : "frameworks/av/media/ndk/include/media/NdkMediaFormat.h"
  },
  {
   "function_name" : "AMediaFormat_getSize",
   "linker_set_key" : "AMediaFormat_getSize",
   "parameters" :
   [
    {
     "referenced_type" : "_ZTIP12AMediaFormat"
    },
    {
     "referenced_type" : "_ZTIPKc"
    },
    {
     "referenced_type" : "_ZTIPj"
    }
   ],
   "return_type" : "_ZTIb",
   "source_file" : "frameworks/av/media/ndk/include/media/NdkMediaFormat.h"
  },
  {
   "function_name" : "AMediaFormat_getString",
   "linker_set_key" : "AMediaFormat_getString",
   "parameters" :
   [
    {
     "referenced_type" : "_ZTIP12AMediaFormat"
    },
    {
     "referenced_type" : "_ZTIPKc"
    },
    {
     "referenced_type" : "_ZTIPPKc"
    }
   ],
   "return_type" : "_ZTIb",
   "source_file" : "frameworks/av/media/ndk/include/media/NdkMediaFormat.h"
  },
  {
   "function_name" : "AMediaFormat_new",
   "linker_set_key" : "AMediaFormat_new",
   "return_type" : "_ZTIP12AMediaFormat",
   "source_file" : "frameworks/av/media/ndk/include/media/NdkMediaFormat.h"
  },
  {
   "function_name" : "AMediaFormat_setBuffer",
   "linker_set_key" : "AMediaFormat_setBuffer",
   "parameters" :
   [
    {
     "referenced_type" : "_ZTIP12AMediaFormat"
    },
    {
     "referenced_type" : "_ZTIPKc"
    },
    {
     "referenced_type" : "_ZTIPKv"
    },
    {
     "referenced_type" : "_ZTIj"
    }
   ],
   "return_type" : "_ZTIv",
   "source_file" : "frameworks/av/media/ndk/include/media/NdkMediaFormat.h"
  },
  {
   "function_name" : "AMediaFormat_setDouble",
   "linker_set_key" : "AMediaFormat_setDouble",
   "parameters" :
   [
    {
     "referenced_type" : "_ZTIP12AMediaFormat"
    },
    {
     "referenced_type" : "_ZTIPKc"
    },
    {
     "referenced_type" : "_ZTId"
    }
   ],
   "return_type" : "_ZTIv",
   "source_file" : "frameworks/av/media/ndk/include/media/NdkMediaFormat.h"
  },
  {
   "function_name" : "AMediaFormat_setFloat",
   "linker_set_key" : "AMediaFormat_setFloat",
   "parameters" :
   [
    {
     "referenced_type" : "_ZTIP12AMediaFormat"
    },
    {
     "referenced_type" : "_ZTIPKc"
    },
    {
     "referenced_type" : "_ZTIf"
    }
   ],
   "return_type" : "_ZTIv",
   "source_file" : "frameworks/av/media/ndk/include/media/NdkMediaFormat.h"
  },
  {
   "function_name" : "AMediaFormat_setInt32",
   "linker_set_key" : "AMediaFormat_setInt32",
   "parameters" :
   [
    {
     "referenced_type" : "_ZTIP12AMediaFormat"
    },
    {
     "referenced_type" : "_ZTIPKc"
    },
    {
     "referenced_type" : "_ZTIi"
    }
   ],
   "return_type" : "_ZTIv",
   "source_file" : "frameworks/av/media/ndk/include/media/NdkMediaFormat.h"
  },
  {
   "function_name" : "AMediaFormat_setInt64",
   "linker_set_key" : "AMediaFormat_setInt64",
   "parameters" :
   [
    {
     "referenced_type" : "_ZTIP12AMediaFormat"
    },
    {
     "referenced_type" : "_ZTIPKc"
    },
    {
     "referenced_type" : "_ZTIx"
    }
   ],
   "return_type" : "_ZTIv",
   "source_file" : "frameworks/av/media/ndk/include/media/NdkMediaFormat.h"
  },
  {
   "function_name" : "AMediaFormat_setRect",
   "linker_set_key" : "AMediaFormat_setRect",
   "parameters" :
   [
    {
     "referenced_type" : "_ZTIP12AMediaFormat"
    },
    {
     "referenced_type" : "_ZTIPKc"
    },
    {
     "referenced_type" : "_ZTIi"
    },
    {
     "referenced_type" : "_ZTIi"
    },
    {
     "referenced_type" : "_ZTIi"
    },
    {
     "referenced_type" : "_ZTIi"
    }
   ],
   "return_type" : "_ZTIv",
   "source_file" : "frameworks/av/media/ndk/include/media/NdkMediaFormat.h"
  },
  {
   "function_name" : "AMediaFormat_setSize",
   "linker_set_key" : "AMediaFormat_setSize",
   "parameters" :
   [
    {
     "referenced_type" : "_ZTIP12AMediaFormat"
    },
    {
     "referenced_type" : "_ZTIPKc"
    },
    {
     "referenced_type" : "_ZTIj"
    }
   ],
   "return_type" : "_ZTIv",
   "source_file" : "frameworks/av/media/ndk/include/media/NdkMediaFormat.h"
  },
  {
   "function_name" : "AMediaFormat_setString",
   "linker_set_key" : "AMediaFormat_setString",
   "parameters" :
   [
    {
     "referenced_type" : "_ZTIP12AMediaFormat"
    },
    {
     "referenced_type" : "_ZTIPKc"
    },
    {
     "referenced_type" : "_ZTIPKc"
    }
   ],
   "return_type" : "_ZTIv",
   "source_file" : "frameworks/av/media/ndk/include/media/NdkMediaFormat.h"
  },
  {
   "function_name" : "AMediaFormat_toString",
   "linker_set_key" : "AMediaFormat_toString",
   "parameters" :
   [
    {
     "referenced_type" : "_ZTIP12AMediaFormat"
    }
   ],
   "return_type" : "_ZTIPKc",
   "source_file" : "frameworks/av/media/ndk/include/media/NdkMediaFormat.h"
  },
  {
   "function_name" : "android::splat_type",
   "linker_set_key" : "_ZN7android10splat_typeINS_16key_value_pair_tINS_7String8ES2_EEEEvPT_PKS4_j",
   "parameters" :
   [
    {
     "referenced_type" : "_ZTIPN7android16key_value_pair_tINS_7String8ES1_EE"
    },
    {
     "referenced_type" : "_ZTIPKN7android16key_value_pair_tINS_7String8ES1_EE"
    },
    {
     "referenced_type" : "_ZTIj"
    }
   ],
   "return_type" : "_ZTIv",
   "source_file" : "system/core/libutils/include/utils/TypeHelpers.h",
   "template_args" : [ "_ZTIN7android16key_value_pair_tINS_7String8ES1_EE" ]
  },
  {
   "function_name" : "android::KeyedVector<android::String8, android::String8>::removeItemsAt",
   "linker_set_key" : "_ZN7android11KeyedVectorINS_7String8ES1_E13removeItemsAtEjj",
   "parameters" :
   [
    {
     "is_this_ptr" : true,
     "referenced_type" : "_ZTIPN7android11KeyedVectorINS_7String8ES1_EE"
    },
    {
     "referenced_type" : "_ZTIj"
    },
    {
     "default_arg" : true,
     "referenced_type" : "_ZTIj"
    }
   ],
   "return_type" : "_ZTIi",
   "source_file" : "system/core/libutils/include/utils/KeyedVector.h"
  },
  {
   "function_name" : "android::KeyedVector<android::String8, android::String8>::add",
   "linker_set_key" : "_ZN7android11KeyedVectorINS_7String8ES1_E3addERKS1_S4_",
   "parameters" :
   [
    {
     "is_this_ptr" : true,
     "referenced_type" : "_ZTIPN7android11KeyedVectorINS_7String8ES1_EE"
    },
    {
     "referenced_type" : "_ZTIRKN7android7String8E"
    },
    {
     "referenced_type" : "_ZTIRKN7android7String8E"
    }
   ],
   "return_type" : "_ZTIi",
   "source_file" : "system/core/libutils/include/utils/KeyedVector.h"
  },
  {
   "function_name" : "android::getThreadId",
   "linker_set_key" : "_ZN7android11getThreadIdEv",
   "return_type" : "_ZTIPv",
   "source_file" : "system/core/libutils/include/utils/AndroidThreads.h"
  },
  {
   "function_name" : "android::SortedVector<android::key_value_pair_t<android::String8, android::String8>>::removeItemsAt",
   "linker_set_key" : "_ZN7android12SortedVectorINS_16key_value_pair_tINS_7String8ES2_EEE13removeItemsAtEjj",
   "parameters" :
   [
    {
     "is_this_ptr" : true,
     "referenced_type" : "_ZTIPN7android12SortedVectorINS_16key_value_pair_tINS_7String8ES2_EEEE"
    },
    {
     "referenced_type" : "_ZTIj"
    },
    {
     "default_arg" : true,
     "referenced_type" : "_ZTIj"
    }
   ],
   "return_type" : "_ZTIi",
   "source_file" : "system/core/libutils/include/utils/SortedVector.h"
  },
  {
   "function_name" : "android::SortedVector<android::key_value_pair_t<android::String8, android::String8>>::add",
   "linker_set_key" : "_ZN7android12SortedVectorINS_16key_value_pair_tINS_7String8ES2_EEE3addERKS3_",
   "parameters" :
   [
    {
     "is_this_ptr" : true,
     "referenced_type" : "_ZTIPN7android12SortedVectorINS_16key_value_pair_tINS_7String8ES2_EEEE"
    },
    {
     "referenced_type" : "_ZTIRKN7android16key_value_pair_tINS_7String8ES1_EE"
    }
   ],
   "return_type" : "_ZTIi",
   "source_file" : "system/core/libutils/include/utils/SortedVector.h"
  },
  {
   "function_name" : "android::SortedVector<android::key_value_pair_t<android::String8, android::String8>>::~SortedVector",
   "linker_set_key" : "_ZN7android12SortedVectorINS_16key_value_pair_tINS_7String8ES2_EEED0Ev",
   "parameters" :
   [
    {
     "is_this_ptr" : true,
     "referenced_type" : "_ZTIPN7android12SortedVectorINS_16key_value_pair_tINS_7String8ES2_EEEE"
    }
   ],
   "return_type" : "_ZTIv",
   "source_file" : "system/core/libutils/include/utils/SortedVector.h"
  },
  {
   "function_name" : "android::SortedVector<android::key_value_pair_t<android::String8, android::String8>>::~SortedVector",
   "linker_set_key" : "_ZN7android12SortedVectorINS_16key_value_pair_tINS_7String8ES2_EEED1Ev",
   "parameters" :
   [
    {
     "is_this_ptr" : true,
     "referenced_type" : "_ZTIPN7android12SortedVectorINS_16key_value_pair_tINS_7String8ES2_EEEE"
    }
   ],
   "return_type" : "_ZTIv",
   "source_file" : "system/core/libutils/include/utils/SortedVector.h"
  },
  {
   "function_name" : "android::SortedVector<android::key_value_pair_t<android::String8, android::String8>>::~SortedVector",
   "linker_set_key" : "_ZN7android12SortedVectorINS_16key_value_pair_tINS_7String8ES2_EEED2Ev",
   "parameters" :
   [
    {
     "is_this_ptr" : true,
     "referenced_type" : "_ZTIPN7android12SortedVectorINS_16key_value_pair_tINS_7String8ES2_EEEE"
    }
   ],
   "return_type" : "_ZTIv",
   "source_file" : "system/core/libutils/include/utils/SortedVector.h"
  },
  {
   "function_name" : "android::compare_type",
   "linker_set_key" : "_ZN7android12compare_typeERKNS_7String8ES2_",
   "parameters" :
   [
    {
     "referenced_type" : "_ZTIRKN7android7String8E"
    },
    {
     "referenced_type" : "_ZTIRKN7android7String8E"
    }
   ],
   "return_type" : "_ZTIi",
   "source_file" : "system/core/libutils/include/utils/String8.h"
  },
  {
   "function_name" : "android::compare_type",
   "linker_set_key" : "_ZN7android12compare_typeINS_16key_value_pair_tINS_7String8ES2_EEEEiRKT_S6_",
   "parameters" :
   [
    {
     "referenced_type" : "_ZTIRKN7android16key_value_pair_tINS_7String8ES1_EE"
    },
    {
     "referenced_type" : "_ZTIRKN7android16key_value_pair_tINS_7String8ES1_EE"
    }
   ],
   "return_type" : "_ZTIi",
   "source_file" : "system/core/libutils/include/utils/TypeHelpers.h",
   "template_args" : [ "_ZTIN7android16key_value_pair_tINS_7String8ES1_EE" ]
  },
  {
   "function_name" : "android::createThread",
   "linker_set_key" : "_ZN7android12createThreadEPFiPvES0_",
   "parameters" :
   [
    {
     "referenced_type" : "_ZTIPFiPvE"
    },
    {
     "referenced_type" : "_ZTIPv"
    }
   ],
   "return_type" : "_ZTIb",
   "source_file" : "system/core/libutils/include/utils/AndroidThreads.h"
  },
  {
   "function_name" : "android::destroy_type",
   "linker_set_key" : "_ZN7android12destroy_typeINS_16key_value_pair_tINS_7String8ES2_EEEEvPT_j",
   "parameters" :
   [
    {
     "referenced_type" : "_ZTIPN7android16key_value_pair_tINS_7String8ES1_EE"
    },
    {
     "referenced_type" : "_ZTIj"
    }
   ],
   "return_type" : "_ZTIv",
   "source_file" : "system/core/libutils/include/utils/TypeHelpers.h",
   "template_args" : [ "_ZTIN7android16key_value_pair_tINS_7String8ES1_EE" ]
  },
  {
   "function_name" : "android::construct_type",
   "linker_set_key" : "_ZN7android14construct_typeINS_16key_value_pair_tINS_7String8ES2_EEEEvPT_j",
   "parameters" :
   [
    {
     "referenced_type" : "_ZTIPN7android16key_value_pair_tINS_7String8ES1_EE"
    },
    {
     "referenced_type" : "_ZTIj"
    }
   ],
   "return_type" : "_ZTIv",
   "source_file" : "system/core/libutils/include/utils/TypeHelpers.h",
   "template_args" : [ "_ZTIN7android16key_value_pair_tINS_7String8ES1_EE" ]
  },
  {
   "function_name" : "android::createThreadEtc",
   "linker_set_key" : "_ZN7android15createThreadEtcEPFiPvES0_PKcijPS0_",
   "parameters" :
   [
    {
     "referenced_type" : "_ZTIPFiPvE"
    },
    {
     "referenced_type" : "_ZTIPv"
    },
    {
     "default_arg" : true,
     "referenced_type" : "_ZTIPKc"
    },
    {
     "default_arg" : true,
     "referenced_type" : "_ZTIi"
    },
    {
     "default_arg" : true,
     "referenced_type" : "_ZTIj"
    },
    {
     "default_arg" : true,
     "referenced_type" : "_ZTIPPv"
    }
   ],
   "return_type" : "_ZTIb",
   "source_file" : "system/core/libutils/include/utils/AndroidThreads.h"
  },
  {
   "access" : "protected",
   "function_name" : "android::ReferenceRenamer::~ReferenceRenamer",
   "linker_set_key" : "_ZN7android16ReferenceRenamerD1Ev",
   "parameters" :
   [
    {
     "is_this_ptr" : true,
     "referenced_type" : "_ZTIPN7android16ReferenceRenamerE"
    }
   ],
   "return_type" : "_ZTIv",
   "source_file" : "system/core/libutils/include/utils/RefBase.h"
  },
  {
   "access" : "protected",
   "function_name" : "android::ReferenceRenamer::~ReferenceRenamer",
   "linker_set_key" : "_ZN7android16ReferenceRenamerD2Ev",
   "parameters" :
   [
    {
     "is_this_ptr" : true,
     "referenced_type" : "_ZTIPN7android16ReferenceRenamerE"
    }
   ],
   "return_type" : "_ZTIv",
   "source_file" : "system/core/libutils/include/utils/RefBase.h"
  },
  {
   "function_name" : "android::key_value_pair_t<android::String8, android::String8>::key_value_pair_t",
   "linker_set_key" : "_ZN7android16key_value_pair_tINS_7String8ES1_EC1ERKS1_S4_",
   "parameters" :
   [
    {
     "is_this_ptr" : true,
     "referenced_type" : "_ZTIPN7android16key_value_pair_tINS_7String8ES1_EE"
    },
    {
     "referenced_type" : "_ZTIRKN7android7String8E"
    },
    {
     "referenced_type" : "_ZTIRKN7android7String8E"
    }
   ],
   "return_type" : "_ZTIv",
   "source_file" : "system/core/libutils/include/utils/TypeHelpers.h"
  },
  {
   "function_name" : "android::key_value_pair_t<android::String8, android::String8>::key_value_pair_t",
   "linker_set_key" : "_ZN7android16key_value_pair_tINS_7String8ES1_EC1ERKS2_",
   "parameters" :
   [
    {
     "is_this_ptr" : true,
     "referenced_type" : "_ZTIPN7android16key_value_pair_tINS_7String8ES1_EE"
    },
    {
     "referenced_type" : "_ZTIRKN7android16key_value_pair_tINS_7String8ES1_EE"
    }
   ],
   "return_type" : "_ZTIv",
   "source_file" : "system/core/libutils/include/utils/TypeHelpers.h"
  },
  {
   "function_name" : "android::key_value_pair_t<android::String8, android::String8>::key_value_pair_t",
   "linker_set_key" : "_ZN7android16key_value_pair_tINS_7String8ES1_EC1Ev",
   "parameters" :
   [
    {
     "is_this_ptr" : true,
     "referenced_type" : "_ZTIPN7android16key_value_pair_tINS_7String8ES1_EE"
    }
   ],
   "return_type" : "_ZTIv",
   "source_file" : "system/core/libutils/include/utils/TypeHelpers.h"
  },
  {
   "function_name" : "android::key_value_pair_t<android::String8, android::String8>::key_value_pair_t",
   "linker_set_key" : "_ZN7android16key_value_pair_tINS_7String8ES1_EC2ERKS1_S4_",
   "parameters" :
   [
    {
     "is_this_ptr" : true,
     "referenced_type" : "_ZTIPN7android16key_value_pair_tINS_7String8ES1_EE"
    },
    {
     "referenced_type" : "_ZTIRKN7android7String8E"
    },
    {
     "referenced_type" : "_ZTIRKN7android7String8E"
    }
   ],
   "return_type" : "_ZTIv",
   "source_file" : "system/core/libutils/include/utils/TypeHelpers.h"
  },
  {
   "function_name" : "android::key_value_pair_t<android::String8, android::String8>::key_value_pair_t",
   "linker_set_key" : "_ZN7android16key_value_pair_tINS_7String8ES1_EC2ERKS2_",
   "parameters" :
   [
    {
     "is_this_ptr" : true,
     "referenced_type" : "_ZTIPN7android16key_value_pair_tINS_7String8ES1_EE"
    },
    {
     "referenced_type" : "_ZTIRKN7android16key_value_pair_tINS_7String8ES1_EE"
    }
   ],
   "return_type" : "_ZTIv",
   "source_file" : "system/core/libutils/include/utils/TypeHelpers.h"
  },
  {
   "function_name" : "android::key_value_pair_t<android::String8, android::String8>::key_value_pair_t",
   "linker_set_key" : "_ZN7android16key_value_pair_tINS_7String8ES1_EC2Ev",
   "parameters" :
   [
    {
     "is_this_ptr" : true,
     "referenced_type" : "_ZTIPN7android16key_value_pair_tINS_7String8ES1_EE"
    }
   ],
   "return_type" : "_ZTIv",
   "source_file" : "system/core/libutils/include/utils/TypeHelpers.h"
  },
  {
   "function_name" : "android::key_value_pair_t<android::String8, android::String8>::operator=",
   "linker_set_key" : "_ZN7android16key_value_pair_tINS_7String8ES1_EaSERKS2_",
   "parameters" :
   [
    {
     "is_this_ptr" : true,
     "referenced_type" : "_ZTIPN7android16key_value_pair_tINS_7String8ES1_EE"
    },
    {
     "referenced_type" : "_ZTIRKN7android16key_value_pair_tINS_7String8ES1_EE"
    }
   ],
   "return_type" : "_ZTIRN7android16key_value_pair_tINS_7String8ES1_EE",
   "source_file" : "system/core/libutils/include/utils/TypeHelpers.h"
  },
  {
   "function_name" : "android::move_forward_type",
   "linker_set_key" : "_ZN7android17move_forward_typeINS_16key_value_pair_tINS_7String8ES2_EEEENSt3__19enable_ifIXsr16use_trivial_moveIT_EE5valueEvE4typeEPS6_PKS6_j",
   "parameters" :
   [
    {
     "referenced_type" : "_ZTIPN7android16key_value_pair_tINS_7String8ES1_EE"
    },
    {
     "referenced_type" : "_ZTIPKN7android16key_value_pair_tINS_7String8ES1_EE"
    },
    {
     "default_arg" : true,
     "referenced_type" : "_ZTIj"
    }
   ],
   "return_type" : "_ZTIv",
   "source_file" : "system/core/libutils/include/utils/TypeHelpers.h",
   "template_args" : [ "_ZTIN7android16key_value_pair_tINS_7String8ES1_EE" ]
  },
  {
   "function_name" : "android::move_backward_type",
   "linker_set_key" : "_ZN7android18move_backward_typeINS_16key_value_pair_tINS_7String8ES2_EEEENSt3__19enable_ifIXsr16use_trivial_moveIT_EE5valueEvE4typeEPS6_PKS6_j",
   "parameters" :
   [
    {
     "referenced_type" : "_ZTIPN7android16key_value_pair_tINS_7String8ES1_EE"
    },
    {
     "referenced_type" : "_ZTIPKN7android16key_value_pair_tINS_7String8ES1_EE"
    },
    {
     "default_arg" : true,
     "referenced_type" : "_ZTIj"
    }
   ],
   "return_type" : "_ZTIv",
   "source_file" : "system/core/libutils/include/utils/TypeHelpers.h",
   "template_args" : [ "_ZTIN7android16key_value_pair_tINS_7String8ES1_EE" ]
  },
  {
   "function_name" : "android::VirtualLightRefBase::~VirtualLightRefBase",
   "linker_set_key" : "_ZN7android19VirtualLightRefBaseD0Ev",
   "parameters" :
   [
    {
     "is_this_ptr" : true,
     "referenced_type" : "_ZTIPN7android19VirtualLightRefBaseE"
    }
   ],
   "return_type" : "_ZTIv",
   "source_file" : "system/core/libutils/include/utils/LightRefBase.h"
  },
  {
   "function_name" : "android::VirtualLightRefBase::~VirtualLightRefBase",
   "linker_set_key" : "_ZN7android19VirtualLightRefBaseD1Ev",
   "parameters" :
   [
    {
     "is_this_ptr" : true,
     "referenced_type" : "_ZTIPN7android19VirtualLightRefBaseE"
    }
   ],
   "return_type" : "_ZTIv",
   "source_file" : "system/core/libutils/include/utils/LightRefBase.h"
  },
  {
   "function_name" : "android::VirtualLightRefBase::~VirtualLightRefBase",
   "linker_set_key" : "_ZN7android19VirtualLightRefBaseD2Ev",
   "parameters" :
   [
    {
     "is_this_ptr" : true,
     "referenced_type" : "_ZTIPN7android19VirtualLightRefBaseE"
    }
   ],
   "return_type" : "_ZTIv",
   "source_file" : "system/core/libutils/include/utils/LightRefBase.h"
  },
  {
   "function_name" : "android::strictly_order_type",
   "linker_set_key" : "_ZN7android19strictly_order_typeERKNS_7String8ES2_",
   "parameters" :
   [
    {
     "referenced_type" : "_ZTIRKN7android7String8E"
    },
    {
     "referenced_type" : "_ZTIRKN7android7String8E"
    }
   ],
   "return_type" : "_ZTIi",
   "source_file" : "system/core/libutils/include/utils/String8.h"
  },
  {
   "function_name" : "android::strictly_order_type",
   "linker_set_key" : "_ZN7android19strictly_order_typeINS_16key_value_pair_tINS_7String8ES2_EEEEiRKT_S6_",
   "parameters" :
   [
    {
     "referenced_type" : "_ZTIRKN7android16key_value_pair_tINS_7String8ES1_EE"
    },
    {
     "referenced_type" : "_ZTIRKN7android16key_value_pair_tINS_7String8ES1_EE"
    }
   ],
   "return_type" : "_ZTIi",
   "source_file" : "system/core/libutils/include/utils/TypeHelpers.h",
   "template_args" : [ "_ZTIN7android16key_value_pair_tINS_7String8ES1_EE" ]
  },
  {
   "access" : "private",
   "function_name" : "android::sp<android::ABuffer>::check_not_on_stack",
   "linker_set_key" : "_ZN7android2spINS_7ABufferEE18check_not_on_stackEPKv",
   "parameters" :
   [
    {
     "referenced_type" : "_ZTIPKv"
    }
   ],
   "return_type" : "_ZTIv",
   "source_file" : "system/core/libutils/include/utils/StrongPointer.h"
  },
  {
   "function_name" : "android::sp<android::ABuffer>::sp",
   "linker_set_key" : "_ZN7android2spINS_7ABufferEEC1EPS1_",
   "parameters" :
   [
    {
     "is_this_ptr" : true,
     "referenced_type" : "_ZTIPN7android2spINS_7ABufferEEE"
    },
    {
     "referenced_type" : "_ZTIPN7android7ABufferE"
    }
   ],
   "return_type" : "_ZTIv",
   "source_file" : "system/core/libutils/include/utils/StrongPointer.h"
  },
  {
   "function_name" : "android::sp<android::ABuffer>::sp",
   "linker_set_key" : "_ZN7android2spINS_7ABufferEEC1Ev",
   "parameters" :
   [
    {
     "is_this_ptr" : true,
     "referenced_type" : "_ZTIPN7android2spINS_7ABufferEEE"
    }
   ],
   "return_type" : "_ZTIv",
   "source_file" : "system/core/libutils/include/utils/StrongPointer.h"
  },
  {
   "function_name" : "android::sp<android::ABuffer>::sp",
   "linker_set_key" : "_ZN7android2spINS_7ABufferEEC2EPS1_",
   "parameters" :
   [
    {
     "is_this_ptr" : true,
     "referenced_type" : "_ZTIPN7android2spINS_7ABufferEEE"
    },
    {
     "referenced_type" : "_ZTIPN7android7ABufferE"
    }
   ],
   "return_type" : "_ZTIv",
   "source_file" : "system/core/libutils/include/utils/StrongPointer.h"
  },
  {
   "function_name" : "android::sp<android::ABuffer>::sp",
   "linker_set_key" : "_ZN7android2spINS_7ABufferEEC2Ev",
   "parameters" :
   [
    {
     "is_this_ptr" : true,
     "referenced_type" : "_ZTIPN7android2spINS_7ABufferEEE"
    }
   ],
   "return_type" : "_ZTIv",
   "source_file" : "system/core/libutils/include/utils/StrongPointer.h"
  },
  {
   "function_name" : "android::sp<android::ABuffer>::~sp",
   "linker_set_key" : "_ZN7android2spINS_7ABufferEED1Ev",
   "parameters" :
   [
    {
     "is_this_ptr" : true,
     "referenced_type" : "_ZTIPN7android2spINS_7ABufferEEE"
    }
   ],
   "return_type" : "_ZTIv",
   "source_file" : "system/core/libutils/include/utils/StrongPointer.h"
  },
  {
   "function_name" : "android::sp<android::ABuffer>::~sp",
   "linker_set_key" : "_ZN7android2spINS_7ABufferEED2Ev",
   "parameters" :
   [
    {
     "is_this_ptr" : true,
     "referenced_type" : "_ZTIPN7android2spINS_7ABufferEEE"
    }
   ],
   "return_type" : "_ZTIv",
   "source_file" : "system/core/libutils/include/utils/StrongPointer.h"
  },
  {
   "access" : "private",
   "function_name" : "android::sp<android::ALooper>::set_pointer",
   "linker_set_key" : "_ZN7android2spINS_7ALooperEE11set_pointerEPS1_",
   "parameters" :
   [
    {
     "is_this_ptr" : true,
     "referenced_type" : "_ZTIPN7android2spINS_7ALooperEEE"
    },
    {
     "referenced_type" : "_ZTIPN7android7ALooperE"
    }
   ],
   "return_type" : "_ZTIv",
   "source_file" : "system/core/libutils/include/utils/StrongPointer.h"
  },
  {
   "function_name" : "android::sp<android::ALooper>::sp",
   "linker_set_key" : "_ZN7android2spINS_7ALooperEEC1EOS2_",
   "parameters" :
   [
    {
     "is_this_ptr" : true,
     "referenced_type" : "_ZTIPN7android2spINS_7ALooperEEE"
    },
    {
     "referenced_type" : "_ZTION7android2spINS_7ALooperEEE"
    }
   ],
   "return_type" : "_ZTIv",
   "source_file" : "system/core/libutils/include/utils/StrongPointer.h"
  },
  {
   "function_name" : "android::sp<android::ALooper>::sp",
   "linker_set_key" : "_ZN7android2spINS_7ALooperEEC1Ev",
   "parameters" :
   [
    {
     "is_this_ptr" : true,
     "referenced_type" : "_ZTIPN7android2spINS_7ALooperEEE"
    }
   ],
   "return_type" : "_ZTIv",
   "source_file" : "system/core/libutils/include/utils/StrongPointer.h"
  },
  {
   "function_name" : "android::sp<android::ALooper>::sp",
   "linker_set_key" : "_ZN7android2spINS_7ALooperEEC2EOS2_",
   "parameters" :
   [
    {
     "is_this_ptr" : true,
     "referenced_type" : "_ZTIPN7android2spINS_7ALooperEEE"
    },
    {
     "referenced_type" : "_ZTION7android2spINS_7ALooperEEE"
    }
   ],
   "return_type" : "_ZTIv",
   "source_file" : "system/core/libutils/include/utils/StrongPointer.h"
  },
  {
   "function_name" : "android::sp<android::ALooper>::sp",
   "linker_set_key" : "_ZN7android2spINS_7ALooperEEC2Ev",
   "parameters" :
   [
    {
     "is_this_ptr" : true,
     "referenced_type" : "_ZTIPN7android2spINS_7ALooperEEE"
    }
   ],
   "return_type" : "_ZTIv",
   "source_file" : "system/core/libutils/include/utils/StrongPointer.h"
  },
  {
   "function_name" : "android::sp<android::ALooper>::~sp",
   "linker_set_key" : "_ZN7android2spINS_7ALooperEED1Ev",
   "parameters" :
   [
    {
     "is_this_ptr" : true,
     "referenced_type" : "_ZTIPN7android2spINS_7ALooperEEE"
    }
   ],
   "return_type" : "_ZTIv",
   "source_file" : "system/core/libutils/include/utils/StrongPointer.h"
  },
  {
   "function_name" : "android::sp<android::ALooper>::~sp",
   "linker_set_key" : "_ZN7android2spINS_7ALooperEED2Ev",
   "parameters" :
   [
    {
     "is_this_ptr" : true,
     "referenced_type" : "_ZTIPN7android2spINS_7ALooperEEE"
    }
   ],
   "return_type" : "_ZTIv",
   "source_file" : "system/core/libutils/include/utils/StrongPointer.h"
  },
  {
   "access" : "private",
   "function_name" : "android::sp<android::AMessage>::check_not_on_stack",
   "linker_set_key" : "_ZN7android2spINS_8AMessageEE18check_not_on_stackEPKv",
   "parameters" :
   [
    {
     "referenced_type" : "_ZTIPKv"
    }
   ],
   "return_type" : "_ZTIv",
   "source_file" : "system/core/libutils/include/utils/StrongPointer.h"
  },
  {
   "function_name" : "android::sp<android::AMessage>::clear",
   "linker_set_key" : "_ZN7android2spINS_8AMessageEE5clearEv",
   "parameters" :
   [
    {
     "is_this_ptr" : true,
     "referenced_type" : "_ZTIPN7android2spINS_8AMessageEEE"
    }
   ],
   "return_type" : "_ZTIv",
   "source_file" : "system/core/libutils/include/utils/StrongPointer.h"
  },
  {
   "function_name" : "android::sp<android::AMessage>::sp",
   "linker_set_key" : "_ZN7android2spINS_8AMessageEEC1EPS1_",
   "parameters" :
   [
    {
     "is_this_ptr" : true,
     "referenced_type" : "_ZTIPN7android2spINS_8AMessageEEE"
    },
    {
     "referenced_type" : "_ZTIPN7android8AMessageE"
    }
   ],
   "return_type" : "_ZTIv",
   "source_file" : "system/core/libutils/include/utils/StrongPointer.h"
  },
  {
   "function_name" : "android::sp<android::AMessage>::sp",
   "linker_set_key" : "_ZN7android2spINS_8AMessageEEC1ERKS2_",
   "parameters" :
   [
    {
     "is_this_ptr" : true,
     "referenced_type" : "_ZTIPN7android2spINS_8AMessageEEE"
    },
    {
     "referenced_type" : "_ZTIRKN7android2spINS_8AMessageEEE"
    }
   ],
   "return_type" : "_ZTIv",
   "source_file" : "system/core/libutils/include/utils/StrongPointer.h"
  },
  {
   "function_name" : "android::sp<android::AMessage>::sp",
   "linker_set_key" : "_ZN7android2spINS_8AMessageEEC1Ev",
   "parameters" :
   [
    {
     "is_this_ptr" : true,
     "referenced_type" : "_ZTIPN7android2spINS_8AMessageEEE"
    }
   ],
   "return_type" : "_ZTIv",
   "source_file" : "system/core/libutils/include/utils/StrongPointer.h"
  },
  {
   "function_name" : "android::sp<android::AMessage>::sp",
   "linker_set_key" : "_ZN7android2spINS_8AMessageEEC2EPS1_",
   "parameters" :
   [
    {
     "is_this_ptr" : true,
     "referenced_type" : "_ZTIPN7android2spINS_8AMessageEEE"
    },
    {
     "referenced_type" : "_ZTIPN7android8AMessageE"
    }
   ],
   "return_type" : "_ZTIv",
   "source_file" : "system/core/libutils/include/utils/StrongPointer.h"
  },
  {
   "function_name" : "android::sp<android::AMessage>::sp",
   "linker_set_key" : "_ZN7android2spINS_8AMessageEEC2ERKS2_",
   "parameters" :
   [
    {
     "is_this_ptr" : true,
     "referenced_type" : "_ZTIPN7android2spINS_8AMessageEEE"
    },
    {
     "referenced_type" : "_ZTIRKN7android2spINS_8AMessageEEE"
    }
   ],
   "return_type" : "_ZTIv",
   "source_file" : "system/core/libutils/include/utils/StrongPointer.h"
  },
  {
   "function_name" : "android::sp<android::AMessage>::sp",
   "linker_set_key" : "_ZN7android2spINS_8AMessageEEC2Ev",
   "parameters" :
   [
    {
     "is_this_ptr" : true,
     "referenced_type" : "_ZTIPN7android2spINS_8AMessageEEE"
    }
   ],
   "return_type" : "_ZTIv",
   "source_file" : "system/core/libutils/include/utils/StrongPointer.h"
  },
  {
   "function_name" : "android::sp<android::AMessage>::~sp",
   "linker_set_key" : "_ZN7android2spINS_8AMessageEED1Ev",
   "parameters" :
   [
    {
     "is_this_ptr" : true,
     "referenced_type" : "_ZTIPN7android2spINS_8AMessageEEE"
    }
   ],
   "return_type" : "_ZTIv",
   "source_file" : "system/core/libutils/include/utils/StrongPointer.h"
  },
  {
   "function_name" : "android::sp<android::AMessage>::~sp",
   "linker_set_key" : "_ZN7android2spINS_8AMessageEED2Ev",
   "parameters" :
   [
    {
     "is_this_ptr" : true,
     "referenced_type" : "_ZTIPN7android2spINS_8AMessageEEE"
    }
   ],
   "return_type" : "_ZTIv",
   "source_file" : "system/core/libutils/include/utils/StrongPointer.h"
  },
  {
   "function_name" : "android::sp<android::AMessage>::operator=",
   "linker_set_key" : "_ZN7android2spINS_8AMessageEEaSERKS2_",
   "parameters" :
   [
    {
     "is_this_ptr" : true,
     "referenced_type" : "_ZTIPN7android2spINS_8AMessageEEE"
    },
    {
     "referenced_type" : "_ZTIRKN7android2spINS_8AMessageEEE"
    }
   ],
   "return_type" : "_ZTIRN7android2spINS_8AMessageEEE",
   "source_file" : "system/core/libutils/include/utils/StrongPointer.h"
  },
  {
   "function_name" : "android::wp<android::ALooper>::wp",
   "linker_set_key" : "_ZN7android2wpINS_7ALooperEEC1ERKNS_2spIS1_EE",
   "parameters" :
   [
    {
     "is_this_ptr" : true,
     "referenced_type" : "_ZTIPN7android2wpINS_7ALooperEEE"
    },
    {
     "referenced_type" : "_ZTIRKN7android2spINS_7ALooperEEE"
    }
   ],
   "return_type" : "_ZTIv",
   "source_file" : "system/core/libutils/include/utils/RefBase.h"
  },
  {
   "function_name" : "android::wp<android::ALooper>::wp",
   "linker_set_key" : "_ZN7android2wpINS_7ALooperEEC2ERKNS_2spIS1_EE",
   "parameters" :
   [
    {
     "is_this_ptr" : true,
     "referenced_type" : "_ZTIPN7android2wpINS_7ALooperEEE"
    },
    {
     "referenced_type" : "_ZTIRKN7android2spINS_7ALooperEEE"
    }
   ],
   "return_type" : "_ZTIv",
   "source_file" : "system/core/libutils/include/utils/RefBase.h"
  },
  {
   "function_name" : "android::wp<android::ALooper>::~wp",
   "linker_set_key" : "_ZN7android2wpINS_7ALooperEED1Ev",
   "parameters" :
   [
    {
     "is_this_ptr" : true,
     "referenced_type" : "_ZTIPN7android2wpINS_7ALooperEEE"
    }
   ],
   "return_type" : "_ZTIv",
   "source_file" : "system/core/libutils/include/utils/RefBase.h"
  },
  {
   "function_name" : "android::wp<android::ALooper>::~wp",
   "linker_set_key" : "_ZN7android2wpINS_7ALooperEED2Ev",
   "parameters" :
   [
    {
     "is_this_ptr" : true,
     "referenced_type" : "_ZTIPN7android2wpINS_7ALooperEEE"
    }
   ],
   "return_type" : "_ZTIv",
   "source_file" : "system/core/libutils/include/utils/RefBase.h"
  },
  {
   "function_name" : "android::Mutex::lock",
   "linker_set_key" : "_ZN7android5Mutex4lockEv",
   "parameters" :
   [
    {
     "is_this_ptr" : true,
     "referenced_type" : "_ZTIPN7android5MutexE"
    }
   ],
   "return_type" : "_ZTIi",
   "source_file" : "system/core/libutils/include/utils/Mutex.h"
  },
  {
   "function_name" : "android::Mutex::unlock",
   "linker_set_key" : "_ZN7android5Mutex6unlockEv",
   "parameters" :
   [
    {
     "is_this_ptr" : true,
     "referenced_type" : "_ZTIPN7android5MutexE"
    }
   ],
   "return_type" : "_ZTIv",
   "source_file" : "system/core/libutils/include/utils/Mutex.h"
  },
  {
   "function_name" : "android::Mutex::tryLock",
   "linker_set_key" : "_ZN7android5Mutex7tryLockEv",
   "parameters" :
   [
    {
     "is_this_ptr" : true,
     "referenced_type" : "_ZTIPN7android5MutexE"
    }
   ],
   "return_type" : "_ZTIi",
   "source_file" : "system/core/libutils/include/utils/Mutex.h"
  },
  {
   "function_name" : "android::Mutex::Autolock::Autolock",
   "linker_set_key" : "_ZN7android5Mutex8AutolockC1EPS0_",
   "parameters" :
   [
    {
     "is_this_ptr" : true,
     "referenced_type" : "_ZTIPN7android5Mutex8AutolockE"
    },
    {
     "referenced_type" : "_ZTIPN7android5MutexE"
    }
   ],
   "return_type" : "_ZTIv",
   "source_file" : "system/core/libutils/include/utils/Mutex.h"
  },
  {
   "function_name" : "android::Mutex::Autolock::Autolock",
   "linker_set_key" : "_ZN7android5Mutex8AutolockC1ERS0_",
   "parameters" :
   [
    {
     "is_this_ptr" : true,
     "referenced_type" : "_ZTIPN7android5Mutex8AutolockE"
    },
    {
     "referenced_type" : "_ZTIRN7android5MutexE"
    }
   ],
   "return_type" : "_ZTIv",
   "source_file" : "system/core/libutils/include/utils/Mutex.h"
  },
  {
   "function_name" : "android::Mutex::Autolock::Autolock",
   "linker_set_key" : "_ZN7android5Mutex8AutolockC2EPS0_",
   "parameters" :
   [
    {
     "is_this_ptr" : true,
     "referenced_type" : "_ZTIPN7android5Mutex8AutolockE"
    },
    {
     "referenced_type" : "_ZTIPN7android5MutexE"
    }
   ],
   "return_type" : "_ZTIv",
   "source_file" : "system/core/libutils/include/utils/Mutex.h"
  },
  {
   "function_name" : "android::Mutex::Autolock::Autolock",
   "linker_set_key" : "_ZN7android5Mutex8AutolockC2ERS0_",
   "parameters" :
   [
    {
     "is_this_ptr" : true,
     "referenced_type" : "_ZTIPN7android5Mutex8AutolockE"
    },
    {
     "referenced_type" : "_ZTIRN7android5MutexE"
    }
   ],
   "return_type" : "_ZTIv",
   "source_file" : "system/core/libutils/include/utils/Mutex.h"
  },
  {
   "function_name" : "android::Mutex::Autolock::~Autolock",
   "linker_set_key" : "_ZN7android5Mutex8AutolockD1Ev",
   "parameters" :
   [
    {
     "is_this_ptr" : true,
     "referenced_type" : "_ZTIPN7android5Mutex8AutolockE"
    }
   ],
   "return_type" : "_ZTIv",
   "source_file" : "system/core/libutils/include/utils/Mutex.h"
  },
  {
   "function_name" : "android::Mutex::Autolock::~Autolock",
   "linker_set_key" : "_ZN7android5Mutex8AutolockD2Ev",
   "parameters" :
   [
    {
     "is_this_ptr" : true,
     "referenced_type" : "_ZTIPN7android5Mutex8AutolockE"
    }
   ],
   "return_type" : "_ZTIv",
   "source_file" : "system/core/libutils/include/utils/Mutex.h"
  },
  {
   "function_name" : "android::Mutex::timedLock",
   "linker_set_key" : "_ZN7android5Mutex9timedLockEx",
   "parameters" :
   [
    {
     "is_this_ptr" : true,
     "referenced_type" : "_ZTIPN7android5MutexE"
    },
    {
     "referenced_type" : "_ZTIx"
    }
   ],
   "return_type" : "_ZTIi",
   "source_file" : "system/core/libutils/include/utils/Mutex.h"
  },
  {
   "function_name" : "android::Mutex::Mutex",
   "linker_set_key" : "_ZN7android5MutexC1EPKc",
   "parameters" :
   [
    {
     "is_this_ptr" : true,
     "referenced_type" : "_ZTIPN7android5MutexE"
    },
    {
     "referenced_type" : "_ZTIPKc"
    }
   ],
   "return_type" : "_ZTIv",
   "source_file" : "system/core/libutils/include/utils/Mutex.h"
  },
  {
   "function_name" : "android::Mutex::Mutex",
   "linker_set_key" : "_ZN7android5MutexC1EiPKc",
   "parameters" :
   [
    {
     "is_this_ptr" : true,
     "referenced_type" : "_ZTIPN7android5MutexE"
    },
    {
     "referenced_type" : "_ZTIi"
    },
    {
     "default_arg" : true,
     "referenced_type" : "_ZTIPKc"
    }
   ],
   "return_type" : "_ZTIv",
   "source_file" : "system/core/libutils/include/utils/Mutex.h"
  },
  {
   "function_name" : "android::Mutex::Mutex",
   "linker_set_key" : "_ZN7android5MutexC1Ev",
   "parameters" :
   [
    {
     "is_this_ptr" : true,
     "referenced_type" : "_ZTIPN7android5MutexE"
    }
   ],
   "return_type" : "_ZTIv",
   "source_file" : "system/core/libutils/include/utils/Mutex.h"
  },
  {
   "function_name" : "android::Mutex::Mutex",
   "linker_set_key" : "_ZN7android5MutexC2EPKc",
   "parameters" :
   [
    {
     "is_this_ptr" : true,
     "referenced_type" : "_ZTIPN7android5MutexE"
    },
    {
     "referenced_type" : "_ZTIPKc"
    }
   ],
   "return_type" : "_ZTIv",
   "source_file" : "system/core/libutils/include/utils/Mutex.h"
  },
  {
   "function_name" : "android::Mutex::Mutex",
   "linker_set_key" : "_ZN7android5MutexC2EiPKc",
   "parameters" :
   [
    {
     "is_this_ptr" : true,
     "referenced_type" : "_ZTIPN7android5MutexE"
    },
    {
     "referenced_type" : "_ZTIi"
    },
    {
     "default_arg" : true,
     "referenced_type" : "_ZTIPKc"
    }
   ],
   "return_type" : "_ZTIv",
   "source_file" : "system/core/libutils/include/utils/Mutex.h"
  },
  {
   "function_name" : "android::Mutex::Mutex",
   "linker_set_key" : "_ZN7android5MutexC2Ev",
   "parameters" :
   [
    {
     "is_this_ptr" : true,
     "referenced_type" : "_ZTIPN7android5MutexE"
    }
   ],
   "return_type" : "_ZTIv",
   "source_file" : "system/core/libutils/include/utils/Mutex.h"
  },
  {
   "function_name" : "android::Mutex::~Mutex",
   "linker_set_key" : "_ZN7android5MutexD1Ev",
   "parameters" :
   [
    {
     "is_this_ptr" : true,
     "referenced_type" : "_ZTIPN7android5MutexE"
    }
   ],
   "return_type" : "_ZTIv",
   "source_file" : "system/core/libutils/include/utils/Mutex.h"
  },
  {
   "function_name" : "android::Mutex::~Mutex",
   "linker_set_key" : "_ZN7android5MutexD2Ev",
   "parameters" :
   [
    {
     "is_this_ptr" : true,
     "referenced_type" : "_ZTIPN7android5MutexE"
    }
   ],
   "return_type" : "_ZTIv",
   "source_file" : "system/core/libutils/include/utils/Mutex.h"
  },
  {
   "function_name" : "android::RWLock::tryReadLock",
   "linker_set_key" : "_ZN7android6RWLock11tryReadLockEv",
   "parameters" :
   [
    {
     "is_this_ptr" : true,
     "referenced_type" : "_ZTIPN7android6RWLockE"
    }
   ],
   "return_type" : "_ZTIi",
   "source_file" : "system/core/libutils/include/utils/RWLock.h"
  },
  {
   "function_name" : "android::RWLock::tryWriteLock",
   "linker_set_key" : "_ZN7android6RWLock12tryWriteLockEv",
   "parameters" :
   [
    {
     "is_this_ptr" : true,
     "referenced_type" : "_ZTIPN7android6RWLockE"
    }
   ],
   "return_type" : "_ZTIi",
   "source_file" : "system/core/libutils/include/utils/RWLock.h"
  },
  {
   "function_name" : "android::RWLock::unlock",
   "linker_set_key" : "_ZN7android6RWLock6unlockEv",
   "parameters" :
   [
    {
     "is_this_ptr" : true,
     "referenced_type" : "_ZTIPN7android6RWLockE"
    }
   ],
   "return_type" : "_ZTIv",
   "source_file" : "system/core/libutils/include/utils/RWLock.h"
  },
  {
   "function_name" : "android::RWLock::readLock",
   "linker_set_key" : "_ZN7android6RWLock8readLockEv",
   "parameters" :
   [
    {
     "is_this_ptr" : true,
     "referenced_type" : "_ZTIPN7android6RWLockE"
    }
   ],
   "return_type" : "_ZTIi",
   "source_file" : "system/core/libutils/include/utils/RWLock.h"
  },
  {
   "function_name" : "android::RWLock::AutoRLock::AutoRLock",
   "linker_set_key" : "_ZN7android6RWLock9AutoRLockC1ERS0_",
   "parameters" :
   [
    {
     "is_this_ptr" : true,
     "referenced_type" : "_ZTIPN7android6RWLock9AutoRLockE"
    },
    {
     "referenced_type" : "_ZTIRN7android6RWLockE"
    }
   ],
   "return_type" : "_ZTIv",
   "source_file" : "system/core/libutils/include/utils/RWLock.h"
  },
  {
   "function_name" : "android::RWLock::AutoRLock::AutoRLock",
   "linker_set_key" : "_ZN7android6RWLock9AutoRLockC2ERS0_",
   "parameters" :
   [
    {
     "is_this_ptr" : true,
     "referenced_type" : "_ZTIPN7android6RWLock9AutoRLockE"
    },
    {
     "referenced_type" : "_ZTIRN7android6RWLockE"
    }
   ],
   "return_type" : "_ZTIv",
   "source_file" : "system/core/libutils/include/utils/RWLock.h"
  },
  {
   "function_name" : "android::RWLock::AutoRLock::~AutoRLock",
   "linker_set_key" : "_ZN7android6RWLock9AutoRLockD1Ev",
   "parameters" :
   [
    {
     "is_this_ptr" : true,
     "referenced_type" : "_ZTIPN7android6RWLock9AutoRLockE"
    }
   ],
   "return_type" : "_ZTIv",
   "source_file" : "system/core/libutils/include/utils/RWLock.h"
  },
  {
   "function_name" : "android::RWLock::AutoRLock::~AutoRLock",
   "linker_set_key" : "_ZN7android6RWLock9AutoRLockD2Ev",
   "parameters" :
   [
    {
     "is_this_ptr" : true,
     "referenced_type" : "_ZTIPN7android6RWLock9AutoRLockE"
    }
   ],
   "return_type" : "_ZTIv",
   "source_file" : "system/core/libutils/include/utils/RWLock.h"
  },
  {
   "function_name" : "android::RWLock::AutoWLock::AutoWLock",
   "linker_set_key" : "_ZN7android6RWLock9AutoWLockC1ERS0_",
   "parameters" :
   [
    {
     "is_this_ptr" : true,
     "referenced_type" : "_ZTIPN7android6RWLock9AutoWLockE"
    },
    {
     "referenced_type" : "_ZTIRN7android6RWLockE"
    }
   ],
   "return_type" : "_ZTIv",
   "source_file" : "system/core/libutils/include/utils/RWLock.h"
  },
  {
   "function_name" : "android::RWLock::AutoWLock::AutoWLock",
   "linker_set_key" : "_ZN7android6RWLock9AutoWLockC2ERS0_",
   "parameters" :
   [
    {
     "is_this_ptr" : true,
     "referenced_type" : "_ZTIPN7android6RWLock9AutoWLockE"
    },
    {
     "referenced_type" : "_ZTIRN7android6RWLockE"
    }
   ],
   "return_type" : "_ZTIv",
   "source_file" : "system/core/libutils/include/utils/RWLock.h"
  },
  {
   "function_name" : "android::RWLock::AutoWLock::~AutoWLock",
   "linker_set_key" : "_ZN7android6RWLock9AutoWLockD1Ev",
   "parameters" :
   [
    {
     "is_this_ptr" : true,
     "referenced_type" : "_ZTIPN7android6RWLock9AutoWLockE"
    }
   ],
   "return_type" : "_ZTIv",
   "source_file" : "system/core/libutils/include/utils/RWLock.h"
  },
  {
   "function_name" : "android::RWLock::AutoWLock::~AutoWLock",
   "linker_set_key" : "_ZN7android6RWLock9AutoWLockD2Ev",
   "parameters" :
   [
    {
     "is_this_ptr" : true,
     "referenced_type" : "_ZTIPN7android6RWLock9AutoWLockE"
    }
   ],
   "return_type" : "_ZTIv",
   "source_file" : "system/core/libutils/include/utils/RWLock.h"
  },
  {
   "function_name" : "android::RWLock::writeLock",
   "linker_set_key" : "_ZN7android6RWLock9writeLockEv",
   "parameters" :
   [
    {
     "is_this_ptr" : true,
     "referenced_type" : "_ZTIPN7android6RWLockE"
    }
   ],
   "return_type" : "_ZTIi",
   "source_file" : "system/core/libutils/include/utils/RWLock.h"
  },
  {
   "function_name" : "android::RWLock::RWLock",
   "linker_set_key" : "_ZN7android6RWLockC1EPKc",
   "parameters" :
   [
    {
     "is_this_ptr" : true,
     "referenced_type" : "_ZTIPN7android6RWLockE"
    },
    {
     "referenced_type" : "_ZTIPKc"
    }
   ],
   "return_type" : "_ZTIv",
   "source_file" : "system/core/libutils/include/utils/RWLock.h"
  },
  {
   "function_name" : "android::RWLock::RWLock",
   "linker_set_key" : "_ZN7android6RWLockC1EiPKc",
   "parameters" :
   [
    {
     "is_this_ptr" : true,
     "referenced_type" : "_ZTIPN7android6RWLockE"
    },
    {
     "referenced_type" : "_ZTIi"
    },
    {
     "default_arg" : true,
     "referenced_type" : "_ZTIPKc"
    }
   ],
   "return_type" : "_ZTIv",
   "source_file" : "system/core/libutils/include/utils/RWLock.h"
  },
  {
   "function_name" : "android::RWLock::RWLock",
   "linker_set_key" : "_ZN7android6RWLockC1Ev",
   "parameters" :
   [
    {
     "is_this_ptr" : true,
     "referenced_type" : "_ZTIPN7android6RWLockE"
    }
   ],
   "return_type" : "_ZTIv",
   "source_file" : "system/core/libutils/include/utils/RWLock.h"
  },
  {
   "function_name" : "android::RWLock::RWLock",
   "linker_set_key" : "_ZN7android6RWLockC2EPKc",
   "parameters" :
   [
    {
     "is_this_ptr" : true,
     "referenced_type" : "_ZTIPN7android6RWLockE"
    },
    {
     "referenced_type" : "_ZTIPKc"
    }
   ],
   "return_type" : "_ZTIv",
   "source_file" : "system/core/libutils/include/utils/RWLock.h"
  },
  {
   "function_name" : "android::RWLock::RWLock",
   "linker_set_key" : "_ZN7android6RWLockC2EiPKc",
   "parameters" :
   [
    {
     "is_this_ptr" : true,
     "referenced_type" : "_ZTIPN7android6RWLockE"
    },
    {
     "referenced_type" : "_ZTIi"
    },
    {
     "default_arg" : true,
     "referenced_type" : "_ZTIPKc"
    }
   ],
   "return_type" : "_ZTIv",
   "source_file" : "system/core/libutils/include/utils/RWLock.h"
  },
  {
   "function_name" : "android::RWLock::RWLock",
   "linker_set_key" : "_ZN7android6RWLockC2Ev",
   "parameters" :
   [
    {
     "is_this_ptr" : true,
     "referenced_type" : "_ZTIPN7android6RWLockE"
    }
   ],
   "return_type" : "_ZTIv",
   "source_file" : "system/core/libutils/include/utils/RWLock.h"
  },
  {
   "function_name" : "android::RWLock::~RWLock",
   "linker_set_key" : "_ZN7android6RWLockD1Ev",
   "parameters" :
   [
    {
     "is_this_ptr" : true,
     "referenced_type" : "_ZTIPN7android6RWLockE"
    }
   ],
   "return_type" : "_ZTIv",
   "source_file" : "system/core/libutils/include/utils/RWLock.h"
  },
  {
   "function_name" : "android::RWLock::~RWLock",
   "linker_set_key" : "_ZN7android6RWLockD2Ev",
   "parameters" :
   [
    {
     "is_this_ptr" : true,
     "referenced_type" : "_ZTIPN7android6RWLockE"
    }
   ],
   "return_type" : "_ZTIv",
   "source_file" : "system/core/libutils/include/utils/RWLock.h"
  },
  {
   "function_name" : "android::RefBase::trackMe",
   "linker_set_key" : "_ZN7android7RefBase7trackMeEbb",
   "parameters" :
   [
    {
     "is_this_ptr" : true,
     "referenced_type" : "_ZTIPN7android7RefBaseE"
    },
    {
     "referenced_type" : "_ZTIb"
    },
    {
     "referenced_type" : "_ZTIb"
    }
   ],
   "return_type" : "_ZTIv",
   "source_file" : "system/core/libutils/include/utils/RefBase.h"
  },
  {
   "function_name" : "android::String8::appendPath",
   "linker_set_key" : "_ZN7android7String810appendPathERKS0_",
   "parameters" :
   [
    {
     "is_this_ptr" : true,
     "referenced_type" : "_ZTIPN7android7String8E"
    },
    {
     "referenced_type" : "_ZTIRKN7android7String8E"
    }
   ],
   "return_type" : "_ZTIRN7android7String8E",
   "source_file" : "system/core/libutils/include/utils/String8.h"
  },
  {
   "access" : "private",
   "function_name" : "android::String8::std_string",
   "linker_set_key" : "_ZN7android7String810std_stringERKS0_",
   "parameters" :
   [
    {
     "referenced_type" : "_ZTIRKN7android7String8E"
    }
   ],
   "return_type" : "_ZTINSt3__112basic_stringIcNS_11char_traitsIcEENS_9allocatorIcEEEE",
   "source_file" : "system/core/libutils/include/utils/String8.h"
  },
  {
   "function_name" : "android::String8::empty",
   "linker_set_key" : "_ZN7android7String85emptyEv",
   "return_type" : "_ZTIKN7android7String8E",
   "source_file" : "system/core/libutils/include/utils/String8.h"
  },
  {
   "function_name" : "android::String8::operator=",
   "linker_set_key" : "_ZN7android7String8aSEPKc",
   "parameters" :
   [
    {
     "is_this_ptr" : true,
     "referenced_type" : "_ZTIPN7android7String8E"
    },
    {
     "referenced_type" : "_ZTIPKc"
    }
   ],
   "return_type" : "_ZTIRN7android7String8E",
   "source_file" : "system/core/libutils/include/utils/String8.h"
  },
  {
   "function_name" : "android::String8::operator=",
   "linker_set_key" : "_ZN7android7String8aSERKS0_",
   "parameters" :
   [
    {
     "is_this_ptr" : true,
     "referenced_type" : "_ZTIPN7android7String8E"
    },
    {
     "referenced_type" : "_ZTIRKN7android7String8E"
    }
   ],
   "return_type" : "_ZTIRN7android7String8E",
   "source_file" : "system/core/libutils/include/utils/String8.h"
  },
  {
   "function_name" : "android::String8::operator+=",
   "linker_set_key" : "_ZN7android7String8pLEPKc",
   "parameters" :
   [
    {
     "is_this_ptr" : true,
     "referenced_type" : "_ZTIPN7android7String8E"
    },
    {
     "referenced_type" : "_ZTIPKc"
    }
   ],
   "return_type" : "_ZTIRN7android7String8E",
   "source_file" : "system/core/libutils/include/utils/String8.h"
  },
  {
   "function_name" : "android::String8::operator+=",
   "linker_set_key" : "_ZN7android7String8pLERKS0_",
   "parameters" :
   [
    {
     "is_this_ptr" : true,
     "referenced_type" : "_ZTIPN7android7String8E"
    },
    {
     "referenced_type" : "_ZTIRKN7android7String8E"
    }
   ],
   "return_type" : "_ZTIRN7android7String8E",
   "source_file" : "system/core/libutils/include/utils/String8.h"
  },
  {
   "function_name" : "android::Condition::waitRelative",
   "linker_set_key" : "_ZN7android9Condition12waitRelativeERNS_5MutexEx",
   "parameters" :
   [
    {
     "is_this_ptr" : true,
     "referenced_type" : "_ZTIPN7android9ConditionE"
    },
    {
     "referenced_type" : "_ZTIRN7android5MutexE"
    },
    {
     "referenced_type" : "_ZTIx"
    }
   ],
   "return_type" : "_ZTIi",
   "source_file" : "system/core/libutils/include/utils/Condition.h"
  },
  {
   "function_name" : "android::Condition::wait",
   "linker_set_key" : "_ZN7android9Condition4waitERNS_5MutexE",
   "parameters" :
   [
    {
     "is_this_ptr" : true,
     "referenced_type" : "_ZTIPN7android9ConditionE"
    },
    {
     "referenced_type" : "_ZTIRN7android5MutexE"
    }
   ],
   "return_type" : "_ZTIi",
   "source_file" : "system/core/libutils/include/utils/Condition.h"
  },
  {
   "function_name" : "android::Condition::signal",
   "linker_set_key" : "_ZN7android9Condition6signalENS0_10WakeUpTypeE",
   "parameters" :
   [
    {
     "is_this_ptr" : true,
     "referenced_type" : "_ZTIPN7android9ConditionE"
    },
    {
     "referenced_type" : "_ZTIN7android9Condition10WakeUpTypeE"
    }
   ],
   "return_type" : "_ZTIv",
   "source_file" : "system/core/libutils/include/utils/Condition.h"
  },
  {
   "function_name" : "android::Condition::signal",
   "linker_set_key" : "_ZN7android9Condition6signalEv",
   "parameters" :
   [
    {
     "is_this_ptr" : true,
     "referenced_type" : "_ZTIPN7android9ConditionE"
    }
   ],
   "return_type" : "_ZTIv",
   "source_file" : "system/core/libutils/include/utils/Condition.h"
  },
  {
   "function_name" : "android::Condition::broadcast",
   "linker_set_key" : "_ZN7android9Condition9broadcastEv",
   "parameters" :
   [
    {
     "is_this_ptr" : true,
     "referenced_type" : "_ZTIPN7android9ConditionE"
    }
   ],
   "return_type" : "_ZTIv",
   "source_file" : "system/core/libutils/include/utils/Condition.h"
  },
  {
   "function_name" : "android::Condition::Condition",
   "linker_set_key" : "_ZN7android9ConditionC1Ei",
   "parameters" :
   [
    {
     "is_this_ptr" : true,
     "referenced_type" : "_ZTIPN7android9ConditionE"
    },
    {
     "referenced_type" : "_ZTIi"
    }
   ],
   "return_type" : "_ZTIv",
   "source_file" : "system/core/libutils/include/utils/Condition.h"
  },
  {
   "function_name" : "android::Condition::Condition",
   "linker_set_key" : "_ZN7android9ConditionC1Ev",
   "parameters" :
   [
    {
     "is_this_ptr" : true,
     "referenced_type" : "_ZTIPN7android9ConditionE"
    }
   ],
   "return_type" : "_ZTIv",
   "source_file" : "system/core/libutils/include/utils/Condition.h"
  },
  {
   "function_name" : "android::Condition::Condition",
   "linker_set_key" : "_ZN7android9ConditionC2Ei",
   "parameters" :
   [
    {
     "is_this_ptr" : true,
     "referenced_type" : "_ZTIPN7android9ConditionE"
    },
    {
     "referenced_type" : "_ZTIi"
    }
   ],
   "return_type" : "_ZTIv",
   "source_file" : "system/core/libutils/include/utils/Condition.h"
  },
  {
   "function_name" : "android::Condition::Condition",
   "linker_set_key" : "_ZN7android9ConditionC2Ev",
   "parameters" :
   [
    {
     "is_this_ptr" : true,
     "referenced_type" : "_ZTIPN7android9ConditionE"
    }
   ],
   "return_type" : "_ZTIv",
   "source_file" : "system/core/libutils/include/utils/Condition.h"
  },
  {
   "function_name" : "android::Condition::~Condition",
   "linker_set_key" : "_ZN7android9ConditionD1Ev",
   "parameters" :
   [
    {
     "is_this_ptr" : true,
     "referenced_type" : "_ZTIPN7android9ConditionE"
    }
   ],
   "return_type" : "_ZTIv",
   "source_file" : "system/core/libutils/include/utils/Condition.h"
  },
  {
   "function_name" : "android::Condition::~Condition",
   "linker_set_key" : "_ZN7android9ConditionD2Ev",
   "parameters" :
   [
    {
     "is_this_ptr" : true,
     "referenced_type" : "_ZTIPN7android9ConditionE"
    }
   ],
   "return_type" : "_ZTIv",
   "source_file" : "system/core/libutils/include/utils/Condition.h"
  },
  {
   "function_name" : "android::copy_type",
   "linker_set_key" : "_ZN7android9copy_typeINS_16key_value_pair_tINS_7String8ES2_EEEENSt3__19enable_ifIXntsr6traitsIT_EE16has_trivial_copyEvE4typeEPS6_PKS6_j",
   "parameters" :
   [
    {
     "referenced_type" : "_ZTIPN7android16key_value_pair_tINS_7String8ES1_EE"
    },
    {
     "referenced_type" : "_ZTIPKN7android16key_value_pair_tINS_7String8ES1_EE"
    },
    {
     "referenced_type" : "_ZTIj"
    }
   ],
   "return_type" : "_ZTIv",
   "source_file" : "system/core/libutils/include/utils/TypeHelpers.h",
   "template_args" : [ "_ZTIN7android16key_value_pair_tINS_7String8ES1_EE" ]
  },
  {
   "function_name" : "android::hash_type",
   "linker_set_key" : "_ZN7android9hash_typeIaEEjRKT_",
   "parameters" :
   [
    {
     "referenced_type" : "_ZTIRKa"
    }
   ],
   "return_type" : "_ZTIj",
   "source_file" : "system/core/libutils/include/utils/TypeHelpers.h",
   "template_args" : [ "_ZTIa" ]
  },
  {
   "function_name" : "android::hash_type",
   "linker_set_key" : "_ZN7android9hash_typeIbEEjRKT_",
   "parameters" :
   [
    {
     "referenced_type" : "_ZTIRKb"
    }
   ],
   "return_type" : "_ZTIj",
   "source_file" : "system/core/libutils/include/utils/TypeHelpers.h",
   "template_args" : [ "_ZTIb" ]
  },
  {
   "function_name" : "android::hash_type",
   "linker_set_key" : "_ZN7android9hash_typeIdEEjRKT_",
   "parameters" :
   [
    {
     "referenced_type" : "_ZTIRKd"
    }
   ],
   "return_type" : "_ZTIj",
   "source_file" : "system/core/libutils/include/utils/TypeHelpers.h",
   "template_args" : [ "_ZTId" ]
  },
  {
   "function_name" : "android::hash_type",
   "linker_set_key" : "_ZN7android9hash_typeIfEEjRKT_",
   "parameters" :
   [
    {
     "referenced_type" : "_ZTIRKf"
    }
   ],
   "return_type" : "_ZTIj",
   "source_file" : "system/core/libutils/include/utils/TypeHelpers.h",
   "template_args" : [ "_ZTIf" ]
  },
  {
   "function_name" : "android::hash_type",
   "linker_set_key" : "_ZN7android9hash_typeIhEEjRKT_",
   "parameters" :
   [
    {
     "referenced_type" : "_ZTIRKh"
    }
   ],
   "return_type" : "_ZTIj",
   "source_file" : "system/core/libutils/include/utils/TypeHelpers.h",
   "template_args" : [ "_ZTIh" ]
  },
  {
   "function_name" : "android::hash_type",
   "linker_set_key" : "_ZN7android9hash_typeIiEEjRKT_",
   "parameters" :
   [
    {
     "referenced_type" : "_ZTIRKi"
    }
   ],
   "return_type" : "_ZTIj",
   "source_file" : "system/core/libutils/include/utils/TypeHelpers.h",
   "template_args" : [ "_ZTIi" ]
  },
  {
   "function_name" : "android::hash_type",
   "linker_set_key" : "_ZN7android9hash_typeIjEEjRKT_",
   "parameters" :
   [
    {
     "referenced_type" : "_ZTIRKj"
    }
   ],
   "return_type" : "_ZTIj",
   "source_file" : "system/core/libutils/include/utils/TypeHelpers.h",
   "template_args" : [ "_ZTIj" ]
  },
  {
   "function_name" : "android::hash_type",
   "linker_set_key" : "_ZN7android9hash_typeIsEEjRKT_",
   "parameters" :
   [
    {
     "referenced_type" : "_ZTIRKs"
    }
   ],
   "return_type" : "_ZTIj",
   "source_file" : "system/core/libutils/include/utils/TypeHelpers.h",
   "template_args" : [ "_ZTIs" ]
  },
  {
   "function_name" : "android::hash_type",
   "linker_set_key" : "_ZN7android9hash_typeItEEjRKT_",
   "parameters" :
   [
    {
     "referenced_type" : "_ZTIRKt"
    }
   ],
   "return_type" : "_ZTIj",
   "source_file" : "system/core/libutils/include/utils/TypeHelpers.h",
   "template_args" : [ "_ZTIt" ]
  },
  {
   "function_name" : "android::hash_type",
   "linker_set_key" : "_ZN7android9hash_typeIxEEjRKT_",
   "parameters" :
   [
    {
     "referenced_type" : "_ZTIRKx"
    }
   ],
   "return_type" : "_ZTIj",
   "source_file" : "system/core/libutils/include/utils/TypeHelpers.h",
   "template_args" : [ "_ZTIx" ]
  },
  {
   "function_name" : "android::hash_type",
   "linker_set_key" : "_ZN7android9hash_typeIyEEjRKT_",
   "parameters" :
   [
    {
     "referenced_type" : "_ZTIRKy"
    }
   ],
   "return_type" : "_ZTIj",
   "source_file" : "system/core/libutils/include/utils/TypeHelpers.h",
   "template_args" : [ "_ZTIy" ]
  },
  {
   "function_name" : "log_time::log_time",
   "linker_set_key" : "_ZN8log_timeC1ERK8timespec",
   "parameters" :
   [
    {
     "is_this_ptr" : true,
     "referenced_type" : "_ZTIP8log_time"
    },
    {
     "referenced_type" : "_ZTIRK8timespec"
    }
   ],
   "return_type" : "_ZTIv",
   "source_file" : "system/logging/liblog/include/log/log_time.h"
  },
  {
   "function_name" : "log_time::log_time",
   "linker_set_key" : "_ZN8log_timeC1Ei",
   "parameters" :
   [
    {
     "is_this_ptr" : true,
     "referenced_type" : "_ZTIP8log_time"
    },
    {
     "referenced_type" : "_ZTIi"
    }
   ],
   "return_type" : "_ZTIv",
   "source_file" : "system/logging/liblog/include/log/log_time.h"
  },
  {
   "function_name" : "log_time::log_time",
   "linker_set_key" : "_ZN8log_timeC1Ejj",
   "parameters" :
   [
    {
     "is_this_ptr" : true,
     "referenced_type" : "_ZTIP8log_time"
    },
    {
     "referenced_type" : "_ZTIj"
    },
    {
     "default_arg" : true,
     "referenced_type" : "_ZTIj"
    }
   ],
   "return_type" : "_ZTIv",
   "source_file" : "system/logging/liblog/include/log/log_time.h"
  },
  {
   "function_name" : "log_time::log_time",
   "linker_set_key" : "_ZN8log_timeC1Ev",
   "parameters" :
   [
    {
     "is_this_ptr" : true,
     "referenced_type" : "_ZTIP8log_time"
    }
   ],
   "return_type" : "_ZTIv",
   "source_file" : "system/logging/liblog/include/log/log_time.h"
  },
  {
   "function_name" : "log_time::log_time",
   "linker_set_key" : "_ZN8log_timeC2ERK8timespec",
   "parameters" :
   [
    {
     "is_this_ptr" : true,
     "referenced_type" : "_ZTIP8log_time"
    },
    {
     "referenced_type" : "_ZTIRK8timespec"
    }
   ],
   "return_type" : "_ZTIv",
   "source_file" : "system/logging/liblog/include/log/log_time.h"
  },
  {
   "function_name" : "log_time::log_time",
   "linker_set_key" : "_ZN8log_timeC2Ei",
   "parameters" :
   [
    {
     "is_this_ptr" : true,
     "referenced_type" : "_ZTIP8log_time"
    },
    {
     "referenced_type" : "_ZTIi"
    }
   ],
   "return_type" : "_ZTIv",
   "source_file" : "system/logging/liblog/include/log/log_time.h"
  },
  {
   "function_name" : "log_time::log_time",
   "linker_set_key" : "_ZN8log_timeC2Ejj",
   "parameters" :
   [
    {
     "is_this_ptr" : true,
     "referenced_type" : "_ZTIP8log_time"
    },
    {
     "referenced_type" : "_ZTIj"
    },
    {
     "default_arg" : true,
     "referenced_type" : "_ZTIj"
    }
   ],
   "return_type" : "_ZTIv",
   "source_file" : "system/logging/liblog/include/log/log_time.h"
  },
  {
   "function_name" : "log_time::log_time",
   "linker_set_key" : "_ZN8log_timeC2Ev",
   "parameters" :
   [
    {
     "is_this_ptr" : true,
     "referenced_type" : "_ZTIP8log_time"
    }
   ],
   "return_type" : "_ZTIv",
   "source_file" : "system/logging/liblog/include/log/log_time.h"
  },
  {
   "function_name" : "log_time::operator-=",
   "linker_set_key" : "_ZN8log_timemIERKS_",
   "parameters" :
   [
    {
     "is_this_ptr" : true,
     "referenced_type" : "_ZTIP8log_time"
    },
    {
     "referenced_type" : "_ZTIRK8log_time"
    }
   ],
   "return_type" : "_ZTI8log_time",
   "source_file" : "system/logging/liblog/include/log/log_time.h"
  },
  {
   "function_name" : "log_time::operator+=",
   "linker_set_key" : "_ZN8log_timepLERKS_",
   "parameters" :
   [
    {
     "is_this_ptr" : true,
     "referenced_type" : "_ZTIP8log_time"
    },
    {
     "referenced_type" : "_ZTIRK8log_time"
    }
   ],
   "return_type" : "_ZTI8log_time",
   "source_file" : "system/logging/liblog/include/log/log_time.h"
  },
  {
   "function_name" : "android::VectorImpl::size",
   "linker_set_key" : "_ZNK7android10VectorImpl4sizeEv",
   "parameters" :
   [
    {
     "is_this_ptr" : true,
     "referenced_type" : "_ZTIPKN7android10VectorImplE"
    }
   ],
   "return_type" : "_ZTIj",
   "source_file" : "system/core/libutils/include/utils/VectorImpl.h"
  },
  {
   "function_name" : "android::VectorImpl::isEmpty",
   "linker_set_key" : "_ZNK7android10VectorImpl7isEmptyEv",
   "parameters" :
   [
    {
     "is_this_ptr" : true,
     "referenced_type" : "_ZTIPKN7android10VectorImplE"
    }
   ],
   "return_type" : "_ZTIb",
   "source_file" : "system/core/libutils/include/utils/VectorImpl.h"
  },
  {
   "function_name" : "android::VectorImpl::arrayImpl",
   "linker_set_key" : "_ZNK7android10VectorImpl9arrayImplEv",
   "parameters" :
   [
    {
     "is_this_ptr" : true,
     "referenced_type" : "_ZTIPKN7android10VectorImplE"
    }
   ],
   "return_type" : "_ZTIPKv",
   "source_file" : "system/core/libutils/include/utils/VectorImpl.h"
  },
  {
   "function_name" : "android::KeyedVector<android::String8, android::String8>::size",
   "linker_set_key" : "_ZNK7android11KeyedVectorINS_7String8ES1_E4sizeEv",
   "parameters" :
   [
    {
     "is_this_ptr" : true,
     "referenced_type" : "_ZTIPKN7android11KeyedVectorINS_7String8ES1_EE"
    }
   ],
   "return_type" : "_ZTIj",
   "source_file" : "system/core/libutils/include/utils/KeyedVector.h"
  },
  {
   "function_name" : "android::KeyedVector<android::String8, android::String8>::keyAt",
   "linker_set_key" : "_ZNK7android11KeyedVectorINS_7String8ES1_E5keyAtEj",
   "parameters" :
   [
    {
     "is_this_ptr" : true,
     "referenced_type" : "_ZTIPKN7android11KeyedVectorINS_7String8ES1_EE"
    },
    {
     "referenced_type" : "_ZTIj"
    }
   ],
   "return_type" : "_ZTIRKN7android7String8E",
   "source_file" : "system/core/libutils/include/utils/KeyedVector.h"
  },
  {
   "function_name" : "android::KeyedVector<android::String8, android::String8>::valueAt",
   "linker_set_key" : "_ZNK7android11KeyedVectorINS_7String8ES1_E7valueAtEj",
   "parameters" :
   [
    {
     "is_this_ptr" : true,
     "referenced_type" : "_ZTIPKN7android11KeyedVectorINS_7String8ES1_EE"
    },
    {
     "referenced_type" : "_ZTIj"
    }
   ],
   "return_type" : "_ZTIRKN7android7String8E",
   "source_file" : "system/core/libutils/include/utils/KeyedVector.h"
  },
  {
   "access" : "protected",
   "function_name" : "android::SortedVector<android::key_value_pair_t<android::String8, android::String8>>::do_compare",
   "linker_set_key" : "_ZNK7android12SortedVectorINS_16key_value_pair_tINS_7String8ES2_EEE10do_compareEPKvS6_",
   "parameters" :
   [
    {
     "is_this_ptr" : true,
     "referenced_type" : "_ZTIPKN7android12SortedVectorINS_16key_value_pair_tINS_7String8ES2_EEEE"
    },
    {
     "referenced_type" : "_ZTIPKv"
    },
    {
     "referenced_type" : "_ZTIPKv"
    }
   ],
   "return_type" : "_ZTIi",
   "source_file" : "system/core/libutils/include/utils/SortedVector.h"
  },
  {
   "access" : "protected",
   "function_name" : "android::SortedVector<android::key_value_pair_t<android::String8, android::String8>>::do_destroy",
   "linker_set_key" : "_ZNK7android12SortedVectorINS_16key_value_pair_tINS_7String8ES2_EEE10do_destroyEPvj",
   "parameters" :
   [
    {
     "is_this_ptr" : true,
     "referenced_type" : "_ZTIPKN7android12SortedVectorINS_16key_value_pair_tINS_7String8ES2_EEEE"
    },
    {
     "referenced_type" : "_ZTIPv"
    },
    {
     "referenced_type" : "_ZTIj"
    }
   ],
   "return_type" : "_ZTIv",
   "source_file" : "system/core/libutils/include/utils/SortedVector.h"
  },
  {
   "access" : "protected",
   "function_name" : "android::SortedVector<android::key_value_pair_t<android::String8, android::String8>>::do_construct",
   "linker_set_key" : "_ZNK7android12SortedVectorINS_16key_value_pair_tINS_7String8ES2_EEE12do_constructEPvj",
   "parameters" :
   [
    {
     "is_this_ptr" : true,
     "referenced_type" : "_ZTIPKN7android12SortedVectorINS_16key_value_pair_tINS_7String8ES2_EEEE"
    },
    {
     "referenced_type" : "_ZTIPv"
    },
    {
     "referenced_type" : "_ZTIj"
    }
   ],
   "return_type" : "_ZTIv",
   "source_file" : "system/core/libutils/include/utils/SortedVector.h"
  },
  {
   "access" : "protected",
   "function_name" : "android::SortedVector<android::key_value_pair_t<android::String8, android::String8>>::do_move_forward",
   "linker_set_key" : "_ZNK7android12SortedVectorINS_16key_value_pair_tINS_7String8ES2_EEE15do_move_forwardEPvPKvj",
   "parameters" :
   [
    {
     "is_this_ptr" : true,
     "referenced_type" : "_ZTIPKN7android12SortedVectorINS_16key_value_pair_tINS_7String8ES2_EEEE"
    },
    {
     "referenced_type" : "_ZTIPv"
    },
    {
     "referenced_type" : "_ZTIPKv"
    },
    {
     "referenced_type" : "_ZTIj"
    }
   ],
   "return_type" : "_ZTIv",
   "source_file" : "system/core/libutils/include/utils/SortedVector.h"
  },
  {
   "access" : "protected",
   "function_name" : "android::SortedVector<android::key_value_pair_t<android::String8, android::String8>>::do_move_backward",
   "linker_set_key" : "_ZNK7android12SortedVectorINS_16key_value_pair_tINS_7String8ES2_EEE16do_move_backwardEPvPKvj",
   "parameters" :
   [
    {
     "is_this_ptr" : true,
     "referenced_type" : "_ZTIPKN7android12SortedVectorINS_16key_value_pair_tINS_7String8ES2_EEEE"
    },
    {
     "referenced_type" : "_ZTIPv"
    },
    {
     "referenced_type" : "_ZTIPKv"
    },
    {
     "referenced_type" : "_ZTIj"
    }
   ],
   "return_type" : "_ZTIv",
   "source_file" : "system/core/libutils/include/utils/SortedVector.h"
  },
  {
   "function_name" : "android::SortedVector<android::key_value_pair_t<android::String8, android::String8>>::size",
   "linker_set_key" : "_ZNK7android12SortedVectorINS_16key_value_pair_tINS_7String8ES2_EEE4sizeEv",
   "parameters" :
   [
    {
     "is_this_ptr" : true,
     "referenced_type" : "_ZTIPKN7android12SortedVectorINS_16key_value_pair_tINS_7String8ES2_EEEE"
    }
   ],
   "return_type" : "_ZTIj",
   "source_file" : "system/core/libutils/include/utils/SortedVector.h"
  },
  {
   "function_name" : "android::SortedVector<android::key_value_pair_t<android::String8, android::String8>>::array",
   "linker_set_key" : "_ZNK7android12SortedVectorINS_16key_value_pair_tINS_7String8ES2_EEE5arrayEv",
   "parameters" :
   [
    {
     "is_this_ptr" : true,
     "referenced_type" : "_ZTIPKN7android12SortedVectorINS_16key_value_pair_tINS_7String8ES2_EEEE"
    }
   ],
   "return_type" : "_ZTIPKN7android16key_value_pair_tINS_7String8ES1_EE",
   "source_file" : "system/core/libutils/include/utils/SortedVector.h"
  },
  {
   "function_name" : "android::SortedVector<android::key_value_pair_t<android::String8, android::String8>>::itemAt",
   "linker_set_key" : "_ZNK7android12SortedVectorINS_16key_value_pair_tINS_7String8ES2_EEE6itemAtEj",
   "parameters" :
   [
    {
     "is_this_ptr" : true,
     "referenced_type" : "_ZTIPKN7android12SortedVectorINS_16key_value_pair_tINS_7String8ES2_EEEE"
    },
    {
     "referenced_type" : "_ZTIj"
    }
   ],
   "return_type" : "_ZTIRKN7android16key_value_pair_tINS_7String8ES1_EE",
   "source_file" : "system/core/libutils/include/utils/SortedVector.h"
  },
  {
   "access" : "protected",
   "function_name" : "android::SortedVector<android::key_value_pair_t<android::String8, android::String8>>::do_copy",
   "linker_set_key" : "_ZNK7android12SortedVectorINS_16key_value_pair_tINS_7String8ES2_EEE7do_copyEPvPKvj",
   "parameters" :
   [
    {
     "is_this_ptr" : true,
     "referenced_type" : "_ZTIPKN7android12SortedVectorINS_16key_value_pair_tINS_7String8ES2_EEEE"
    },
    {
     "referenced_type" : "_ZTIPv"
    },
    {
     "referenced_type" : "_ZTIPKv"
    },
    {
     "referenced_type" : "_ZTIj"
    }
   ],
   "return_type" : "_ZTIv",
   "source_file" : "system/core/libutils/include/utils/SortedVector.h"
  },
  {
   "access" : "protected",
   "function_name" : "android::SortedVector<android::key_value_pair_t<android::String8, android::String8>>::do_splat",
   "linker_set_key" : "_ZNK7android12SortedVectorINS_16key_value_pair_tINS_7String8ES2_EEE8do_splatEPvPKvj",
   "parameters" :
   [
    {
     "is_this_ptr" : true,
     "referenced_type" : "_ZTIPKN7android12SortedVectorINS_16key_value_pair_tINS_7String8ES2_EEEE"
    },
    {
     "referenced_type" : "_ZTIPv"
    },
    {
     "referenced_type" : "_ZTIPKv"
    },
    {
     "referenced_type" : "_ZTIj"
    }
   ],
   "return_type" : "_ZTIv",
   "source_file" : "system/core/libutils/include/utils/SortedVector.h"
  },
  {
   "function_name" : "android::SortedVector<android::key_value_pair_t<android::String8, android::String8>>::operator[]",
   "linker_set_key" : "_ZNK7android12SortedVectorINS_16key_value_pair_tINS_7String8ES2_EEEixEj",
   "parameters" :
   [
    {
     "is_this_ptr" : true,
     "referenced_type" : "_ZTIPKN7android12SortedVectorINS_16key_value_pair_tINS_7String8ES2_EEEE"
    },
    {
     "referenced_type" : "_ZTIj"
    }
   ],
   "return_type" : "_ZTIRKN7android16key_value_pair_tINS_7String8ES1_EE",
   "source_file" : "system/core/libutils/include/utils/SortedVector.h"
  },
  {
   "function_name" : "android::key_value_pair_t<android::String8, android::String8>::operator<",
   "linker_set_key" : "_ZNK7android16key_value_pair_tINS_7String8ES1_EltERKS2_",
   "parameters" :
   [
    {
     "is_this_ptr" : true,
     "referenced_type" : "_ZTIPKN7android16key_value_pair_tINS_7String8ES1_EE"
    },
    {
     "referenced_type" : "_ZTIRKN7android16key_value_pair_tINS_7String8ES1_EE"
    }
   ],
   "return_type" : "_ZTIb",
   "source_file" : "system/core/libutils/include/utils/TypeHelpers.h"
  },
  {
   "function_name" : "android::sp<android::ABuffer>::operator->",
   "linker_set_key" : "_ZNK7android2spINS_7ABufferEEptEv",
   "parameters" :
   [
    {
     "is_this_ptr" : true,
     "referenced_type" : "_ZTIPKN7android2spINS_7ABufferEEE"
    }
   ],
   "return_type" : "_ZTIPN7android7ABufferE",
   "source_file" : "system/core/libutils/include/utils/StrongPointer.h"
  },
  {
   "function_name" : "android::sp<android::AMessage>::operator->",
   "linker_set_key" : "_ZNK7android2spINS_8AMessageEEptEv",
   "parameters" :
   [
    {
     "is_this_ptr" : true,
     "referenced_type" : "_ZTIPKN7android2spINS_8AMessageEEE"
    }
   ],
   "return_type" : "_ZTIPN7android8AMessageE",
   "source_file" : "system/core/libutils/include/utils/StrongPointer.h"
  },
  {
   "function_name" : "android::wp<android::ALooper>::promote",
   "linker_set_key" : "_ZNK7android2wpINS_7ALooperEE7promoteEv",
   "parameters" :
   [
    {
     "is_this_ptr" : true,
     "referenced_type" : "_ZTIPKN7android2wpINS_7ALooperEEE"
    }
   ],
   "return_type" : "_ZTIN7android2spINS_7ALooperEEE",
   "source_file" : "system/core/libutils/include/utils/RefBase.h"
  },
  {
   "function_name" : "android::RefBase::printRefs",
   "linker_set_key" : "_ZNK7android7RefBase9printRefsEv",
   "parameters" :
   [
    {
     "is_this_ptr" : true,
     "referenced_type" : "_ZTIPKN7android7RefBaseE"
    }
   ],
   "return_type" : "_ZTIv",
   "source_file" : "system/core/libutils/include/utils/RefBase.h"
  },
  {
   "function_name" : "android::String8::appendPathCopy",
   "linker_set_key" : "_ZNK7android7String814appendPathCopyEPKc",
   "parameters" :
   [
    {
     "is_this_ptr" : true,
     "referenced_type" : "_ZTIPKN7android7String8E"
    },
    {
     "referenced_type" : "_ZTIPKc"
    }
   ],
   "return_type" : "_ZTIN7android7String8E",
   "source_file" : "system/core/libutils/include/utils/String8.h"
  },
  {
   "function_name" : "android::String8::appendPathCopy",
   "linker_set_key" : "_ZNK7android7String814appendPathCopyERKS0_",
   "parameters" :
   [
    {
     "is_this_ptr" : true,
     "referenced_type" : "_ZTIPKN7android7String8E"
    },
    {
     "referenced_type" : "_ZTIRKN7android7String8E"
    }
   ],
   "return_type" : "_ZTIN7android7String8E",
   "source_file" : "system/core/libutils/include/utils/String8.h"
  },
  {
   "function_name" : "android::String8::size",
   "linker_set_key" : "_ZNK7android7String84sizeEv",
   "parameters" :
   [
    {
     "is_this_ptr" : true,
     "referenced_type" : "_ZTIPKN7android7String8E"
    }
   ],
   "return_type" : "_ZTIj",
   "source_file" : "system/core/libutils/include/utils/String8.h"
  },
  {
   "function_name" : "android::String8::bytes",
   "linker_set_key" : "_ZNK7android7String85bytesEv",
   "parameters" :
   [
    {
     "is_this_ptr" : true,
     "referenced_type" : "_ZTIPKN7android7String8E"
    }
   ],
   "return_type" : "_ZTIj",
   "source_file" : "system/core/libutils/include/utils/String8.h"
  },
  {
   "function_name" : "android::String8::c_str",
   "linker_set_key" : "_ZNK7android7String85c_strEv",
   "parameters" :
   [
    {
     "is_this_ptr" : true,
     "referenced_type" : "_ZTIPKN7android7String8E"
    }
   ],
   "return_type" : "_ZTIPKc",
   "source_file" : "system/core/libutils/include/utils/String8.h"
  },
  {
   "function_name" : "android::String8::string",
   "linker_set_key" : "_ZNK7android7String86stringEv",
   "parameters" :
   [
    {
     "is_this_ptr" : true,
     "referenced_type" : "_ZTIPKN7android7String8E"
    }
   ],
   "return_type" : "_ZTIPKc",
   "source_file" : "system/core/libutils/include/utils/String8.h"
  },
  {
   "function_name" : "android::String8::compare",
   "linker_set_key" : "_ZNK7android7String87compareERKS0_",
   "parameters" :
   [
    {
     "is_this_ptr" : true,
     "referenced_type" : "_ZTIPKN7android7String8E"
    },
    {
     "referenced_type" : "_ZTIRKN7android7String8E"
    }
   ],
   "return_type" : "_ZTIi",
   "source_file" : "system/core/libutils/include/utils/String8.h"
  },
  {
   "function_name" : "android::String8::isEmpty",
   "linker_set_key" : "_ZNK7android7String87isEmptyEv",
   "parameters" :
   [
    {
     "is_this_ptr" : true,
     "referenced_type" : "_ZTIPKN7android7String8E"
    }
   ],
   "return_type" : "_ZTIb",
   "source_file" : "system/core/libutils/include/utils/String8.h"
  },
  {
   "function_name" : "android::String8::contains",
   "linker_set_key" : "_ZNK7android7String88containsEPKc",
   "parameters" :
   [
    {
     "is_this_ptr" : true,
     "referenced_type" : "_ZTIPKN7android7String8E"
    },
    {
     "referenced_type" : "_ZTIPKc"
    }
   ],
   "return_type" : "_ZTIb",
   "source_file" : "system/core/libutils/include/utils/String8.h"
  },
  {
   "function_name" : "android::String8::operator const char *",
   "linker_set_key" : "_ZNK7android7String8cvPKcEv",
   "parameters" :
   [
    {
     "is_this_ptr" : true,
     "referenced_type" : "_ZTIPKN7android7String8E"
    }
   ],
   "return_type" : "_ZTIPKc",
   "source_file" : "system/core/libutils/include/utils/String8.h"
  },
  {
   "function_name" : "android::String8::operator==",
   "linker_set_key" : "_ZNK7android7String8eqEPKc",
   "parameters" :
   [
    {
     "is_this_ptr" : true,
     "referenced_type" : "_ZTIPKN7android7String8E"
    },
    {
     "referenced_type" : "_ZTIPKc"
    }
   ],
   "return_type" : "_ZTIb",
   "source_file" : "system/core/libutils/include/utils/String8.h"
  },
  {
   "function_name" : "android::String8::operator==",
   "linker_set_key" : "_ZNK7android7String8eqERKS0_",
   "parameters" :
   [
    {
     "is_this_ptr" : true,
     "referenced_type" : "_ZTIPKN7android7String8E"
    },
    {
     "referenced_type" : "_ZTIRKN7android7String8E"
    }
   ],
   "return_type" : "_ZTIb",
   "source_file" : "system/core/libutils/include/utils/String8.h"
  },
  {
   "function_name" : "android::String8::operator>=",
   "linker_set_key" : "_ZNK7android7String8geEPKc",
   "parameters" :
   [
    {
     "is_this_ptr" : true,
     "referenced_type" : "_ZTIPKN7android7String8E"
    },
    {
     "referenced_type" : "_ZTIPKc"
    }
   ],
   "return_type" : "_ZTIb",
   "source_file" : "system/core/libutils/include/utils/String8.h"
  },
  {
   "function_name" : "android::String8::operator>=",
   "linker_set_key" : "_ZNK7android7String8geERKS0_",
   "parameters" :
   [
    {
     "is_this_ptr" : true,
     "referenced_type" : "_ZTIPKN7android7String8E"
    },
    {
     "referenced_type" : "_ZTIRKN7android7String8E"
    }
   ],
   "return_type" : "_ZTIb",
   "source_file" : "system/core/libutils/include/utils/String8.h"
  },
  {
   "function_name" : "android::String8::operator>",
   "linker_set_key" : "_ZNK7android7String8gtEPKc",
   "parameters" :
   [
    {
     "is_this_ptr" : true,
     "referenced_type" : "_ZTIPKN7android7String8E"
    },
    {
     "referenced_type" : "_ZTIPKc"
    }
   ],
   "return_type" : "_ZTIb",
   "source_file" : "system/core/libutils/include/utils/String8.h"
  },
  {
   "function_name" : "android::String8::operator>",
   "linker_set_key" : "_ZNK7android7String8gtERKS0_",
   "parameters" :
   [
    {
     "is_this_ptr" : true,
     "referenced_type" : "_ZTIPKN7android7String8E"
    },
    {
     "referenced_type" : "_ZTIRKN7android7String8E"
    }
   ],
   "return_type" : "_ZTIb",
   "source_file" : "system/core/libutils/include/utils/String8.h"
  },
  {
   "function_name" : "android::String8::operator<=",
   "linker_set_key" : "_ZNK7android7String8leEPKc",
   "parameters" :
   [
    {
     "is_this_ptr" : true,
     "referenced_type" : "_ZTIPKN7android7String8E"
    },
    {
     "referenced_type" : "_ZTIPKc"
    }
   ],
   "return_type" : "_ZTIb",
   "source_file" : "system/core/libutils/include/utils/String8.h"
  },
  {
   "function_name" : "android::String8::operator<=",
   "linker_set_key" : "_ZNK7android7String8leERKS0_",
   "parameters" :
   [
    {
     "is_this_ptr" : true,
     "referenced_type" : "_ZTIPKN7android7String8E"
    },
    {
     "referenced_type" : "_ZTIRKN7android7String8E"
    }
   ],
   "return_type" : "_ZTIb",
   "source_file" : "system/core/libutils/include/utils/String8.h"
  },
  {
   "function_name" : "android::String8::operator<",
   "linker_set_key" : "_ZNK7android7String8ltEPKc",
   "parameters" :
   [
    {
     "is_this_ptr" : true,
     "referenced_type" : "_ZTIPKN7android7String8E"
    },
    {
     "referenced_type" : "_ZTIPKc"
    }
   ],
   "return_type" : "_ZTIb",
   "source_file" : "system/core/libutils/include/utils/String8.h"
  },
  {
   "function_name" : "android::String8::operator<",
   "linker_set_key" : "_ZNK7android7String8ltERKS0_",
   "parameters" :
   [
    {
     "is_this_ptr" : true,
     "referenced_type" : "_ZTIPKN7android7String8E"
    },
    {
     "referenced_type" : "_ZTIRKN7android7String8E"
    }
   ],
   "return_type" : "_ZTIb",
   "source_file" : "system/core/libutils/include/utils/String8.h"
  },
  {
   "function_name" : "android::String8::operator!=",
   "linker_set_key" : "_ZNK7android7String8neEPKc",
   "parameters" :
   [
    {
     "is_this_ptr" : true,
     "referenced_type" : "_ZTIPKN7android7String8E"
    },
    {
     "referenced_type" : "_ZTIPKc"
    }
   ],
   "return_type" : "_ZTIb",
   "source_file" : "system/core/libutils/include/utils/String8.h"
  },
  {
   "function_name" : "android::String8::operator!=",
   "linker_set_key" : "_ZNK7android7String8neERKS0_",
   "parameters" :
   [
    {
     "is_this_ptr" : true,
     "referenced_type" : "_ZTIPKN7android7String8E"
    },
    {
     "referenced_type" : "_ZTIRKN7android7String8E"
    }
   ],
   "return_type" : "_ZTIb",
   "source_file" : "system/core/libutils/include/utils/String8.h"
  },
  {
   "function_name" : "android::String8::operator+",
   "linker_set_key" : "_ZNK7android7String8plEPKc",
   "parameters" :
   [
    {
     "is_this_ptr" : true,
     "referenced_type" : "_ZTIPKN7android7String8E"
    },
    {
     "referenced_type" : "_ZTIPKc"
    }
   ],
   "return_type" : "_ZTIN7android7String8E",
   "source_file" : "system/core/libutils/include/utils/String8.h"
  },
  {
   "function_name" : "android::String8::operator+",
   "linker_set_key" : "_ZNK7android7String8plERKS0_",
   "parameters" :
   [
    {
     "is_this_ptr" : true,
     "referenced_type" : "_ZTIPKN7android7String8E"
    },
    {
     "referenced_type" : "_ZTIRKN7android7String8E"
    }
   ],
   "return_type" : "_ZTIN7android7String8E",
   "source_file" : "system/core/libutils/include/utils/String8.h"
  },
  {
   "function_name" : "log_time::msec",
   "linker_set_key" : "_ZNK8log_time4msecEv",
   "parameters" :
   [
    {
     "is_this_ptr" : true,
     "referenced_type" : "_ZTIPK8log_time"
    }
   ],
   "return_type" : "_ZTIy",
   "source_file" : "system/logging/liblog/include/log/log_time.h"
  },
  {
   "function_name" : "log_time::nsec",
   "linker_set_key" : "_ZNK8log_time4nsecEv",
   "parameters" :
   [
    {
     "is_this_ptr" : true,
     "referenced_type" : "_ZTIPK8log_time"
    }
   ],
   "return_type" : "_ZTIy",
   "source_file" : "system/logging/liblog/include/log/log_time.h"
  },
  {
   "function_name" : "log_time::usec",
   "linker_set_key" : "_ZNK8log_time4usecEv",
   "parameters" :
   [
    {
     "is_this_ptr" : true,
     "referenced_type" : "_ZTIPK8log_time"
    }
   ],
   "return_type" : "_ZTIy",
   "source_file" : "system/logging/liblog/include/log/log_time.h"
  },
  {
   "function_name" : "log_time::operator==",
   "linker_set_key" : "_ZNK8log_timeeqERK8timespec",
   "parameters" :
   [
    {
     "is_this_ptr" : true,
     "referenced_type" : "_ZTIPK8log_time"
    },
    {
     "referenced_type" : "_ZTIRK8timespec"
    }
   ],
   "return_type" : "_ZTIb",
   "source_file" : "system/logging/liblog/include/log/log_time.h"
  },
  {
   "function_name" : "log_time::operator==",
   "linker_set_key" : "_ZNK8log_timeeqERKS_",
   "parameters" :
   [
    {
     "is_this_ptr" : true,
     "referenced_type" : "_ZTIPK8log_time"
    },
    {
     "referenced_type" : "_ZTIRK8log_time"
    }
   ],
   "return_type" : "_ZTIb",
   "source_file" : "system/logging/liblog/include/log/log_time.h"
  },
  {
   "function_name" : "log_time::operator>=",
   "linker_set_key" : "_ZNK8log_timegeERK8timespec",
   "parameters" :
   [
    {
     "is_this_ptr" : true,
     "referenced_type" : "_ZTIPK8log_time"
    },
    {
     "referenced_type" : "_ZTIRK8timespec"
    }
   ],
   "return_type" : "_ZTIb",
   "source_file" : "system/logging/liblog/include/log/log_time.h"
  },
  {
   "function_name" : "log_time::operator>=",
   "linker_set_key" : "_ZNK8log_timegeERKS_",
   "parameters" :
   [
    {
     "is_this_ptr" : true,
     "referenced_type" : "_ZTIPK8log_time"
    },
    {
     "referenced_type" : "_ZTIRK8log_time"
    }
   ],
   "return_type" : "_ZTIb",
   "source_file" : "system/logging/liblog/include/log/log_time.h"
  },
  {
   "function_name" : "log_time::operator>",
   "linker_set_key" : "_ZNK8log_timegtERK8timespec",
   "parameters" :
   [
    {
     "is_this_ptr" : true,
     "referenced_type" : "_ZTIPK8log_time"
    },
    {
     "referenced_type" : "_ZTIRK8timespec"
    }
   ],
   "return_type" : "_ZTIb",
   "source_file" : "system/logging/liblog/include/log/log_time.h"
  },
  {
   "function_name" : "log_time::operator>",
   "linker_set_key" : "_ZNK8log_timegtERKS_",
   "parameters" :
   [
    {
     "is_this_ptr" : true,
     "referenced_type" : "_ZTIPK8log_time"
    },
    {
     "referenced_type" : "_ZTIRK8log_time"
    }
   ],
   "return_type" : "_ZTIb",
   "source_file" : "system/logging/liblog/include/log/log_time.h"
  },
  {
   "function_name" : "log_time::operator<=",
   "linker_set_key" : "_ZNK8log_timeleERK8timespec",
   "parameters" :
   [
    {
     "is_this_ptr" : true,
     "referenced_type" : "_ZTIPK8log_time"
    },
    {
     "referenced_type" : "_ZTIRK8timespec"
    }
   ],
   "return_type" : "_ZTIb",
   "source_file" : "system/logging/liblog/include/log/log_time.h"
  },
  {
   "function_name" : "log_time::operator<=",
   "linker_set_key" : "_ZNK8log_timeleERKS_",
   "parameters" :
   [
    {
     "is_this_ptr" : true,
     "referenced_type" : "_ZTIPK8log_time"
    },
    {
     "referenced_type" : "_ZTIRK8log_time"
    }
   ],
   "return_type" : "_ZTIb",
   "source_file" : "system/logging/liblog/include/log/log_time.h"
  },
  {
   "function_name" : "log_time::operator<",
   "linker_set_key" : "_ZNK8log_timeltERK8timespec",
   "parameters" :
   [
    {
     "is_this_ptr" : true,
     "referenced_type" : "_ZTIPK8log_time"
    },
    {
     "referenced_type" : "_ZTIRK8timespec"
    }
   ],
   "return_type" : "_ZTIb",
   "source_file" : "system/logging/liblog/include/log/log_time.h"
  },
  {
   "function_name" : "log_time::operator<",
   "linker_set_key" : "_ZNK8log_timeltERKS_",
   "parameters" :
   [
    {
     "is_this_ptr" : true,
     "referenced_type" : "_ZTIPK8log_time"
    },
    {
     "referenced_type" : "_ZTIRK8log_time"
    }
   ],
   "return_type" : "_ZTIb",
   "source_file" : "system/logging/liblog/include/log/log_time.h"
  },
  {
   "function_name" : "log_time::operator-",
   "linker_set_key" : "_ZNK8log_timemiERKS_",
   "parameters" :
   [
    {
     "is_this_ptr" : true,
     "referenced_type" : "_ZTIPK8log_time"
    },
    {
     "referenced_type" : "_ZTIRK8log_time"
    }
   ],
   "return_type" : "_ZTI8log_time",
   "source_file" : "system/logging/liblog/include/log/log_time.h"
  },
  {
   "function_name" : "log_time::operator!=",
   "linker_set_key" : "_ZNK8log_timeneERK8timespec",
   "parameters" :
   [
    {
     "is_this_ptr" : true,
     "referenced_type" : "_ZTIPK8log_time"
    },
    {
     "referenced_type" : "_ZTIRK8timespec"
    }
   ],
   "return_type" : "_ZTIb",
   "source_file" : "system/logging/liblog/include/log/log_time.h"
  },
  {
   "function_name" : "log_time::operator!=",
   "linker_set_key" : "_ZNK8log_timeneERKS_",
   "parameters" :
   [
    {
     "is_this_ptr" : true,
     "referenced_type" : "_ZTIPK8log_time"
    },
    {
     "referenced_type" : "_ZTIRK8log_time"
    }
   ],
   "return_type" : "_ZTIb",
   "source_file" : "system/logging/liblog/include/log/log_time.h"
  },
  {
   "function_name" : "log_time::operator+",
   "linker_set_key" : "_ZNK8log_timeplERKS_",
   "parameters" :
   [
    {
     "is_this_ptr" : true,
     "referenced_type" : "_ZTIPK8log_time"
    },
    {
     "referenced_type" : "_ZTIRK8log_time"
    }
   ],
   "return_type" : "_ZTI8log_time",
   "source_file" : "system/logging/liblog/include/log/log_time.h"
  }
 ],
 "global_vars" :
 [
  {
   "linker_set_key" : "AMEDIAFORMAT_KEY_AAC_DRC_ATTENUATION_FACTOR",
   "name" : "AMEDIAFORMAT_KEY_AAC_DRC_ATTENUATION_FACTOR",
   "referenced_type" : "_ZTIPKc",
   "source_file" : "frameworks/av/media/ndk/include/media/NdkMediaFormat.h"
  },
  {
   "linker_set_key" : "AMEDIAFORMAT_KEY_AAC_DRC_BOOST_FACTOR",
   "name" : "AMEDIAFORMAT_KEY_AAC_DRC_BOOST_FACTOR",
   "referenced_type" : "_ZTIPKc",
   "source_file" : "frameworks/av/media/ndk/include/media/NdkMediaFormat.h"
  },
  {
   "linker_set_key" : "AMEDIAFORMAT_KEY_AAC_DRC_HEAVY_COMPRESSION",
   "name" : "AMEDIAFORMAT_KEY_AAC_DRC_HEAVY_COMPRESSION",
   "referenced_type" : "_ZTIPKc",
   "source_file" : "frameworks/av/media/ndk/include/media/NdkMediaFormat.h"
  },
  {
   "linker_set_key" : "AMEDIAFORMAT_KEY_AAC_DRC_TARGET_REFERENCE_LEVEL",
   "name" : "AMEDIAFORMAT_KEY_AAC_DRC_TARGET_REFERENCE_LEVEL",
   "referenced_type" : "_ZTIPKc",
   "source_file" : "frameworks/av/media/ndk/include/media/NdkMediaFormat.h"
  },
  {
   "linker_set_key" : "AMEDIAFORMAT_KEY_AAC_ENCODED_TARGET_LEVEL",
   "name" : "AMEDIAFORMAT_KEY_AAC_ENCODED_TARGET_LEVEL",
   "referenced_type" : "_ZTIPKc",
   "source_file" : "frameworks/av/media/ndk/include/media/NdkMediaFormat.h"
  },
  {
   "linker_set_key" : "AMEDIAFORMAT_KEY_AAC_MAX_OUTPUT_CHANNEL_COUNT",
   "name" : "AMEDIAFORMAT_KEY_AAC_MAX_OUTPUT_CHANNEL_COUNT",
   "referenced_type" : "_ZTIPKc",
   "source_file" : "frameworks/av/media/ndk/include/media/NdkMediaFormat.h"
  },
  {
   "linker_set_key" : "AMEDIAFORMAT_KEY_AAC_PROFILE",
   "name" : "AMEDIAFORMAT_KEY_AAC_PROFILE",
   "referenced_type" : "_ZTIPKc",
   "source_file" : "frameworks/av/media/ndk/include/media/NdkMediaFormat.h"
  },
  {
   "linker_set_key" : "AMEDIAFORMAT_KEY_AAC_SBR_MODE",
   "name" : "AMEDIAFORMAT_KEY_AAC_SBR_MODE",
   "referenced_type" : "_ZTIPKc",
   "source_file" : "frameworks/av/media/ndk/include/media/NdkMediaFormat.h"
  },
  {
   "linker_set_key" : "AMEDIAFORMAT_KEY_ALBUM",
   "name" : "AMEDIAFORMAT_KEY_ALBUM",
   "referenced_type" : "_ZTIPKc",
   "source_file" : "frameworks/av/media/ndk/include/media/NdkMediaFormat.h"
  },
  {
   "linker_set_key" : "AMEDIAFORMAT_KEY_ALBUMART",
   "name" : "AMEDIAFORMAT_KEY_ALBUMART",
   "referenced_type" : "_ZTIPKc",
   "source_file" : "frameworks/av/media/ndk/include/media/NdkMediaFormat.h"
  },
  {
   "linker_set_key" : "AMEDIAFORMAT_KEY_ALBUMARTIST",
   "name" : "AMEDIAFORMAT_KEY_ALBUMARTIST",
   "referenced_type" : "_ZTIPKc",
   "source_file" : "frameworks/av/media/ndk/include/media/NdkMediaFormat.h"
  },
  {
   "linker_set_key" : "AMEDIAFORMAT_KEY_ARTIST",
   "name" : "AMEDIAFORMAT_KEY_ARTIST",
   "referenced_type" : "_ZTIPKc",
   "source_file" : "frameworks/av/media/ndk/include/media/NdkMediaFormat.h"
  },
  {
   "linker_set_key" : "AMEDIAFORMAT_KEY_AUDIO_PRESENTATION_INFO",
   "name" : "AMEDIAFORMAT_KEY_AUDIO_PRESENTATION_INFO",
   "referenced_type" : "_ZTIPKc",
   "source_file" : "frameworks/av/media/ndk/include/media/NdkMediaFormat.h"
  },
  {
   "linker_set_key" : "AMEDIAFORMAT_KEY_AUDIO_PRESENTATION_PRESENTATION_ID",
   "name" : "AMEDIAFORMAT_KEY_AUDIO_PRESENTATION_PRESENTATION_ID",
   "referenced_type" : "_ZTIPKc",
   "source_file" : "frameworks/av/media/ndk/include/media/NdkMediaFormat.h"
  },
  {
   "linker_set_key" : "AMEDIAFORMAT_KEY_AUDIO_PRESENTATION_PROGRAM_ID",
   "name" : "AMEDIAFORMAT_KEY_AUDIO_PRESENTATION_PROGRAM_ID",
   "referenced_type" : "_ZTIPKc",
   "source_file" : "frameworks/av/media/ndk/include/media/NdkMediaFormat.h"
  },
  {
   "linker_set_key" : "AMEDIAFORMAT_KEY_AUDIO_SESSION_ID",
   "name" : "AMEDIAFORMAT_KEY_AUDIO_SESSION_ID",
   "referenced_type" : "_ZTIPKc",
   "source_file" : "frameworks/av/media/ndk/include/media/NdkMediaFormat.h"
  },
  {
   "linker_set_key" : "AMEDIAFORMAT_KEY_AUTHOR",
   "name" : "AMEDIAFORMAT_KEY_AUTHOR",
   "referenced_type" : "_ZTIPKc",
   "source_file" : "frameworks/av/media/ndk/include/media/NdkMediaFormat.h"
  },
  {
   "linker_set_key" : "AMEDIAFORMAT_KEY_BITRATE_MODE",
   "name" : "AMEDIAFORMAT_KEY_BITRATE_MODE",
   "referenced_type" : "_ZTIPKc",
   "source_file" : "frameworks/av/media/ndk/include/media/NdkMediaFormat.h"
  },
  {
   "linker_set_key" : "AMEDIAFORMAT_KEY_BITS_PER_SAMPLE",
   "name" : "AMEDIAFORMAT_KEY_BITS_PER_SAMPLE",
   "referenced_type" : "_ZTIPKc",
   "source_file" : "frameworks/av/media/ndk/include/media/NdkMediaFormat.h"
  },
  {
   "linker_set_key" : "AMEDIAFORMAT_KEY_BIT_RATE",
   "name" : "AMEDIAFORMAT_KEY_BIT_RATE",
   "referenced_type" : "_ZTIPKc",
   "source_file" : "frameworks/av/media/ndk/include/media/NdkMediaFormat.h"
  },
  {
   "linker_set_key" : "AMEDIAFORMAT_KEY_CAPTURE_RATE",
   "name" : "AMEDIAFORMAT_KEY_CAPTURE_RATE",
   "referenced_type" : "_ZTIPKc",
   "source_file" : "frameworks/av/media/ndk/include/media/NdkMediaFormat.h"
  },
  {
   "linker_set_key" : "AMEDIAFORMAT_KEY_CDTRACKNUMBER",
   "name" : "AMEDIAFORMAT_KEY_CDTRACKNUMBER",
   "referenced_type" : "_ZTIPKc",
   "source_file" : "frameworks/av/media/ndk/include/media/NdkMediaFormat.h"
  },
  {
   "linker_set_key" : "AMEDIAFORMAT_KEY_CHANNEL_COUNT",
   "name" : "AMEDIAFORMAT_KEY_CHANNEL_COUNT",
   "referenced_type" : "_ZTIPKc",
   "source_file" : "frameworks/av/media/ndk/include/media/NdkMediaFormat.h"
  },
  {
   "linker_set_key" : "AMEDIAFORMAT_KEY_CHANNEL_MASK",
   "name" : "AMEDIAFORMAT_KEY_CHANNEL_MASK",
   "referenced_type" : "_ZTIPKc",
   "source_file" : "frameworks/av/media/ndk/include/media/NdkMediaFormat.h"
  },
  {
   "linker_set_key" : "AMEDIAFORMAT_KEY_COLOR_FORMAT",
   "name" : "AMEDIAFORMAT_KEY_COLOR_FORMAT",
   "referenced_type" : "_ZTIPKc",
   "source_file" : "frameworks/av/media/ndk/include/media/NdkMediaFormat.h"
  },
  {
   "linker_set_key" : "AMEDIAFORMAT_KEY_COLOR_RANGE",
   "name" : "AMEDIAFORMAT_KEY_COLOR_RANGE",
   "referenced_type" : "_ZTIPKc",
   "source_file" : "frameworks/av/media/ndk/include/media/NdkMediaFormat.h"
  },
  {
   "linker_set_key" : "AMEDIAFORMAT_KEY_COLOR_STANDARD",
   "name" : "AMEDIAFORMAT_KEY_COLOR_STANDARD",
   "referenced_type" : "_ZTIPKc",
   "source_file" : "frameworks/av/media/ndk/include/media/NdkMediaFormat.h"
  },
  {
   "linker_set_key" : "AMEDIAFORMAT_KEY_COLOR_TRANSFER",
   "name" : "AMEDIAFORMAT_KEY_COLOR_TRANSFER",
   "referenced_type" : "_ZTIPKc",
   "source_file" : "frameworks/av/media/ndk/include/media/NdkMediaFormat.h"
  },
  {
   "linker_set_key" : "AMEDIAFORMAT_KEY_COMPILATION",
   "name" : "AMEDIAFORMAT_KEY_COMPILATION",
   "referenced_type" : "_ZTIPKc",
   "source_file" : "frameworks/av/media/ndk/include/media/NdkMediaFormat.h"
  },
  {
   "linker_set_key" : "AMEDIAFORMAT_KEY_COMPLEXITY",
   "name" : "AMEDIAFORMAT_KEY_COMPLEXITY",
   "referenced_type" : "_ZTIPKc",
   "source_file" : "frameworks/av/media/ndk/include/media/NdkMediaFormat.h"
  },
  {
   "linker_set_key" : "AMEDIAFORMAT_KEY_COMPOSER",
   "name" : "AMEDIAFORMAT_KEY_COMPOSER",
   "referenced_type" : "_ZTIPKc",
   "source_file" : "frameworks/av/media/ndk/include/media/NdkMediaFormat.h"
  },
  {
   "linker_set_key" : "AMEDIAFORMAT_KEY_CREATE_INPUT_SURFACE_SUSPENDED",
   "name" : "AMEDIAFORMAT_KEY_CREATE_INPUT_SURFACE_SUSPENDED",
   "referenced_type" : "_ZTIPKc",
   "source_file" : "frameworks/av/media/ndk/include/media/NdkMediaFormat.h"
  },
  {
   "linker_set_key" : "AMEDIAFORMAT_KEY_CRYPTO_DEFAULT_IV_SIZE",
   "name" : "AMEDIAFORMAT_KEY_CRYPTO_DEFAULT_IV_SIZE",
   "referenced_type" : "_ZTIPKc",
   "source_file" : "frameworks/av/media/ndk/include/media/NdkMediaFormat.h"
  },
  {
   "linker_set_key" : "AMEDIAFORMAT_KEY_CRYPTO_ENCRYPTED_BYTE_BLOCK",
   "name" : "AMEDIAFORMAT_KEY_CRYPTO_ENCRYPTED_BYTE_BLOCK",
   "referenced_type" : "_ZTIPKc",
   "source_file" : "frameworks/av/media/ndk/include/media/NdkMediaFormat.h"
  },
  {
   "linker_set_key" : "AMEDIAFORMAT_KEY_CRYPTO_ENCRYPTED_SIZES",
   "name" : "AMEDIAFORMAT_KEY_CRYPTO_ENCRYPTED_SIZES",
   "referenced_type" : "_ZTIPKc",
   "source_file" : "frameworks/av/media/ndk/include/media/NdkMediaFormat.h"
  },
  {
   "linker_set_key" : "AMEDIAFORMAT_KEY_CRYPTO_IV",
   "name" : "AMEDIAFORMAT_KEY_CRYPTO_IV",
   "referenced_type" : "_ZTIPKc",
   "source_file" : "frameworks/av/media/ndk/include/media/NdkMediaFormat.h"
  },
  {
   "linker_set_key" : "AMEDIAFORMAT_KEY_CRYPTO_KEY",
   "name" : "AMEDIAFORMAT_KEY_CRYPTO_KEY",
   "referenced_type" : "_ZTIPKc",
   "source_file" : "frameworks/av/media/ndk/include/media/NdkMediaFormat.h"
  },
  {
   "linker_set_key" : "AMEDIAFORMAT_KEY_CRYPTO_MODE",
   "name" : "AMEDIAFORMAT_KEY_CRYPTO_MODE",
   "referenced_type" : "_ZTIPKc",
   "source_file" : "frameworks/av/media/ndk/include/media/NdkMediaFormat.h"
  },
  {
   "linker_set_key" : "AMEDIAFORMAT_KEY_CRYPTO_PLAIN_SIZES",
   "name" : "AMEDIAFORMAT_KEY_CRYPTO_PLAIN_SIZES",
   "referenced_type" : "_ZTIPKc",
   "source_file" : "frameworks/av/media/ndk/include/media/NdkMediaFormat.h"
  },
  {
   "linker_set_key" : "AMEDIAFORMAT_KEY_CRYPTO_SKIP_BYTE_BLOCK",
   "name" : "AMEDIAFORMAT_KEY_CRYPTO_SKIP_BYTE_BLOCK",
   "referenced_type" : "_ZTIPKc",
   "source_file" : "frameworks/av/media/ndk/include/media/NdkMediaFormat.h"
  },
  {
   "linker_set_key" : "AMEDIAFORMAT_KEY_CSD",
   "name" : "AMEDIAFORMAT_KEY_CSD",
   "referenced_type" : "_ZTIPKc",
   "source_file" : "frameworks/av/media/ndk/include/media/NdkMediaFormat.h"
  },
  {
   "linker_set_key" : "AMEDIAFORMAT_KEY_CSD_0",
   "name" : "AMEDIAFORMAT_KEY_CSD_0",
   "referenced_type" : "_ZTIPKc",
   "source_file" : "frameworks/av/media/ndk/include/media/NdkMediaFormat.h"
  },
  {
   "linker_set_key" : "AMEDIAFORMAT_KEY_CSD_1",
   "name" : "AMEDIAFORMAT_KEY_CSD_1",
   "referenced_type" : "_ZTIPKc",
   "source_file" : "frameworks/av/media/ndk/include/media/NdkMediaFormat.h"
  },
  {
   "linker_set_key" : "AMEDIAFORMAT_KEY_CSD_2",
   "name" : "AMEDIAFORMAT_KEY_CSD_2",
   "referenced_type" : "_ZTIPKc",
   "source_file" : "frameworks/av/media/ndk/include/media/NdkMediaFormat.h"
  },
  {
   "linker_set_key" : "AMEDIAFORMAT_KEY_CSD_AVC",
   "name" : "AMEDIAFORMAT_KEY_CSD_AVC",
   "referenced_type" : "_ZTIPKc",
   "source_file" : "frameworks/av/media/ndk/include/media/NdkMediaFormat.h"
  },
  {
   "linker_set_key" : "AMEDIAFORMAT_KEY_CSD_HEVC",
   "name" : "AMEDIAFORMAT_KEY_CSD_HEVC",
   "referenced_type" : "_ZTIPKc",
   "source_file" : "frameworks/av/media/ndk/include/media/NdkMediaFormat.h"
  },
  {
   "linker_set_key" : "AMEDIAFORMAT_KEY_D263",
   "name" : "AMEDIAFORMAT_KEY_D263",
   "referenced_type" : "_ZTIPKc",
   "source_file" : "frameworks/av/media/ndk/include/media/NdkMediaFormat.h"
  },
  {
   "linker_set_key" : "AMEDIAFORMAT_KEY_DATE",
   "name" : "AMEDIAFORMAT_KEY_DATE",
   "referenced_type" : "_ZTIPKc",
   "source_file" : "frameworks/av/media/ndk/include/media/NdkMediaFormat.h"
  },
  {
   "linker_set_key" : "AMEDIAFORMAT_KEY_DISCNUMBER",
   "name" : "AMEDIAFORMAT_KEY_DISCNUMBER",
   "referenced_type" : "_ZTIPKc",
   "source_file" : "frameworks/av/media/ndk/include/media/NdkMediaFormat.h"
  },
  {
   "linker_set_key" : "AMEDIAFORMAT_KEY_DISPLAY_CROP",
   "name" : "AMEDIAFORMAT_KEY_DISPLAY_CROP",
   "referenced_type" : "_ZTIPKc",
   "source_file" : "frameworks/av/media/ndk/include/media/NdkMediaFormat.h"
  },
  {
   "linker_set_key" : "AMEDIAFORMAT_KEY_DISPLAY_HEIGHT",
   "name" : "AMEDIAFORMAT_KEY_DISPLAY_HEIGHT",
   "referenced_type" : "_ZTIPKc",
   "source_file" : "frameworks/av/media/ndk/include/media/NdkMediaFormat.h"
  },
  {
   "linker_set_key" : "AMEDIAFORMAT_KEY_DISPLAY_WIDTH",
   "name" : "AMEDIAFORMAT_KEY_DISPLAY_WIDTH",
   "referenced_type" : "_ZTIPKc",
   "source_file" : "frameworks/av/media/ndk/include/media/NdkMediaFormat.h"
  },
  {
   "linker_set_key" : "AMEDIAFORMAT_KEY_DURATION",
   "name" : "AMEDIAFORMAT_KEY_DURATION",
   "referenced_type" : "_ZTIPKc",
   "source_file" : "frameworks/av/media/ndk/include/media/NdkMediaFormat.h"
  },
  {
   "linker_set_key" : "AMEDIAFORMAT_KEY_ENCODER_DELAY",
   "name" : "AMEDIAFORMAT_KEY_ENCODER_DELAY",
   "referenced_type" : "_ZTIPKc",
   "source_file" : "frameworks/av/media/ndk/include/media/NdkMediaFormat.h"
  },
  {
   "linker_set_key" : "AMEDIAFORMAT_KEY_ENCODER_PADDING",
   "name" : "AMEDIAFORMAT_KEY_ENCODER_PADDING",
   "referenced_type" : "_ZTIPKc",
   "source_file" : "frameworks/av/media/ndk/include/media/NdkMediaFormat.h"
  },
  {
   "linker_set_key" : "AMEDIAFORMAT_KEY_ESDS",
   "name" : "AMEDIAFORMAT_KEY_ESDS",
   "referenced_type" : "_ZTIPKc",
   "source_file" : "frameworks/av/media/ndk/include/media/NdkMediaFormat.h"
  },
  {
   "linker_set_key" : "AMEDIAFORMAT_KEY_EXIF_OFFSET",
   "name" : "AMEDIAFORMAT_KEY_EXIF_OFFSET",
   "referenced_type" : "_ZTIPKc",
   "source_file" : "frameworks/av/media/ndk/include/media/NdkMediaFormat.h"
  },
  {
   "linker_set_key" : "AMEDIAFORMAT_KEY_EXIF_SIZE",
   "name" : "AMEDIAFORMAT_KEY_EXIF_SIZE",
   "referenced_type" : "_ZTIPKc",
   "source_file" : "frameworks/av/media/ndk/include/media/NdkMediaFormat.h"
  },
  {
   "linker_set_key" : "AMEDIAFORMAT_KEY_FLAC_COMPRESSION_LEVEL",
   "name" : "AMEDIAFORMAT_KEY_FLAC_COMPRESSION_LEVEL",
   "referenced_type" : "_ZTIPKc",
   "source_file" : "frameworks/av/media/ndk/include/media/NdkMediaFormat.h"
  },
  {
   "linker_set_key" : "AMEDIAFORMAT_KEY_FRAME_COUNT",
   "name" : "AMEDIAFORMAT_KEY_FRAME_COUNT",
   "referenced_type" : "_ZTIPKc",
   "source_file" : "frameworks/av/media/ndk/include/media/NdkMediaFormat.h"
  },
  {
   "linker_set_key" : "AMEDIAFORMAT_KEY_FRAME_RATE",
   "name" : "AMEDIAFORMAT_KEY_FRAME_RATE",
   "referenced_type" : "_ZTIPKc",
   "source_file" : "frameworks/av/media/ndk/include/media/NdkMediaFormat.h"
  },
  {
   "linker_set_key" : "AMEDIAFORMAT_KEY_GENRE",
   "name" : "AMEDIAFORMAT_KEY_GENRE",
   "referenced_type" : "_ZTIPKc",
   "source_file" : "frameworks/av/media/ndk/include/media/NdkMediaFormat.h"
  },
  {
   "linker_set_key" : "AMEDIAFORMAT_KEY_GRID_COLUMNS",
   "name" : "AMEDIAFORMAT_KEY_GRID_COLUMNS",
   "referenced_type" : "_ZTIPKc",
   "source_file" : "frameworks/av/media/ndk/include/media/NdkMediaFormat.h"
  },
  {
   "linker_set_key" : "AMEDIAFORMAT_KEY_GRID_ROWS",
   "name" : "AMEDIAFORMAT_KEY_GRID_ROWS",
   "referenced_type" : "_ZTIPKc",
   "source_file" : "frameworks/av/media/ndk/include/media/NdkMediaFormat.h"
  },
  {
   "linker_set_key" : "AMEDIAFORMAT_KEY_HAPTIC_CHANNEL_COUNT",
   "name" : "AMEDIAFORMAT_KEY_HAPTIC_CHANNEL_COUNT",
   "referenced_type" : "_ZTIPKc",
   "source_file" : "frameworks/av/media/ndk/include/media/NdkMediaFormat.h"
  },
  {
   "linker_set_key" : "AMEDIAFORMAT_KEY_HDR10_PLUS_INFO",
   "name" : "AMEDIAFORMAT_KEY_HDR10_PLUS_INFO",
   "referenced_type" : "_ZTIPKc",
   "source_file" : "frameworks/av/media/ndk/include/media/NdkMediaFormat.h"
  },
  {
   "linker_set_key" : "AMEDIAFORMAT_KEY_HDR_STATIC_INFO",
   "name" : "AMEDIAFORMAT_KEY_HDR_STATIC_INFO",
   "referenced_type" : "_ZTIPKc",
   "source_file" : "frameworks/av/media/ndk/include/media/NdkMediaFormat.h"
  },
  {
   "linker_set_key" : "AMEDIAFORMAT_KEY_HEIGHT",
   "name" : "AMEDIAFORMAT_KEY_HEIGHT",
   "referenced_type" : "_ZTIPKc",
   "source_file" : "frameworks/av/media/ndk/include/media/NdkMediaFormat.h"
  },
  {
   "linker_set_key" : "AMEDIAFORMAT_KEY_ICC_PROFILE",
   "name" : "AMEDIAFORMAT_KEY_ICC_PROFILE",
   "referenced_type" : "_ZTIPKc",
   "source_file" : "frameworks/av/media/ndk/include/media/NdkMediaFormat.h"
  },
  {
   "linker_set_key" : "AMEDIAFORMAT_KEY_INTRA_REFRESH_PERIOD",
   "name" : "AMEDIAFORMAT_KEY_INTRA_REFRESH_PERIOD",
   "referenced_type" : "_ZTIPKc",
   "source_file" : "frameworks/av/media/ndk/include/media/NdkMediaFormat.h"
  },
  {
   "linker_set_key" : "AMEDIAFORMAT_KEY_IS_ADTS",
   "name" : "AMEDIAFORMAT_KEY_IS_ADTS",
   "referenced_type" : "_ZTIPKc",
   "source_file" : "frameworks/av/media/ndk/include/media/NdkMediaFormat.h"
  },
  {
   "linker_set_key" : "AMEDIAFORMAT_KEY_IS_AUTOSELECT",
   "name" : "AMEDIAFORMAT_KEY_IS_AUTOSELECT",
   "referenced_type" : "_ZTIPKc",
   "source_file" : "frameworks/av/media/ndk/include/media/NdkMediaFormat.h"
  },
  {
   "linker_set_key" : "AMEDIAFORMAT_KEY_IS_DEFAULT",
   "name" : "AMEDIAFORMAT_KEY_IS_DEFAULT",
   "referenced_type" : "_ZTIPKc",
   "source_file" : "frameworks/av/media/ndk/include/media/NdkMediaFormat.h"
  },
  {
   "linker_set_key" : "AMEDIAFORMAT_KEY_IS_FORCED_SUBTITLE",
   "name" : "AMEDIAFORMAT_KEY_IS_FORCED_SUBTITLE",
   "referenced_type" : "_ZTIPKc",
   "source_file" : "frameworks/av/media/ndk/include/media/NdkMediaFormat.h"
  },
  {
   "linker_set_key" : "AMEDIAFORMAT_KEY_IS_SYNC_FRAME",
   "name" : "AMEDIAFORMAT_KEY_IS_SYNC_FRAME",
   "referenced_type" : "_ZTIPKc",
   "source_file" : "frameworks/av/media/ndk/include/media/NdkMediaFormat.h"
  },
  {
   "linker_set_key" : "AMEDIAFORMAT_KEY_I_FRAME_INTERVAL",
   "name" : "AMEDIAFORMAT_KEY_I_FRAME_INTERVAL",
   "referenced_type" : "_ZTIPKc",
   "source_file" : "frameworks/av/media/ndk/include/media/NdkMediaFormat.h"
  },
  {
   "linker_set_key" : "AMEDIAFORMAT_KEY_LANGUAGE",
   "name" : "AMEDIAFORMAT_KEY_LANGUAGE",
   "referenced_type" : "_ZTIPKc",
   "source_file" : "frameworks/av/media/ndk/include/media/NdkMediaFormat.h"
  },
  {
   "linker_set_key" : "AMEDIAFORMAT_KEY_LAST_SAMPLE_INDEX_IN_CHUNK",
   "name" : "AMEDIAFORMAT_KEY_LAST_SAMPLE_INDEX_IN_CHUNK",
   "referenced_type" : "_ZTIPKc",
   "source_file" : "frameworks/av/media/ndk/include/media/NdkMediaFormat.h"
  },
  {
   "linker_set_key" : "AMEDIAFORMAT_KEY_LATENCY",
   "name" : "AMEDIAFORMAT_KEY_LATENCY",
   "referenced_type" : "_ZTIPKc",
   "source_file" : "frameworks/av/media/ndk/include/media/NdkMediaFormat.h"
  },
  {
   "linker_set_key" : "AMEDIAFORMAT_KEY_LEVEL",
   "name" : "AMEDIAFORMAT_KEY_LEVEL",
   "referenced_type" : "_ZTIPKc",
   "source_file" : "frameworks/av/media/ndk/include/media/NdkMediaFormat.h"
  },
  {
   "linker_set_key" : "AMEDIAFORMAT_KEY_LOCATION",
   "name" : "AMEDIAFORMAT_KEY_LOCATION",
   "referenced_type" : "_ZTIPKc",
   "source_file" : "frameworks/av/media/ndk/include/media/NdkMediaFormat.h"
  },
  {
   "linker_set_key" : "AMEDIAFORMAT_KEY_LOOP",
   "name" : "AMEDIAFORMAT_KEY_LOOP",
   "referenced_type" : "_ZTIPKc",
   "source_file" : "frameworks/av/media/ndk/include/media/NdkMediaFormat.h"
  },
  {
   "linker_set_key" : "AMEDIAFORMAT_KEY_LOW_LATENCY",
   "name" : "AMEDIAFORMAT_KEY_LOW_LATENCY",
   "referenced_type" : "_ZTIPKc",
   "source_file" : "frameworks/av/media/ndk/include/media/NdkMediaFormat.h"
  },
  {
   "linker_set_key" : "AMEDIAFORMAT_KEY_LYRICIST",
   "name" : "AMEDIAFORMAT_KEY_LYRICIST",
   "referenced_type" : "_ZTIPKc",
   "source_file" : "frameworks/av/media/ndk/include/media/NdkMediaFormat.h"
  },
  {
   "linker_set_key" : "AMEDIAFORMAT_KEY_MANUFACTURER",
   "name" : "AMEDIAFORMAT_KEY_MANUFACTURER",
   "referenced_type" : "_ZTIPKc",
   "source_file" : "frameworks/av/media/ndk/include/media/NdkMediaFormat.h"
  },
  {
   "linker_set_key" : "AMEDIAFORMAT_KEY_MAX_BIT_RATE",
   "name" : "AMEDIAFORMAT_KEY_MAX_BIT_RATE",
   "referenced_type" : "_ZTIPKc",
   "source_file" : "frameworks/av/media/ndk/include/media/NdkMediaFormat.h"
  },
  {
   "linker_set_key" : "AMEDIAFORMAT_KEY_MAX_FPS_TO_ENCODER",
   "name" : "AMEDIAFORMAT_KEY_MAX_FPS_TO_ENCODER",
   "referenced_type" : "_ZTIPKc",
   "source_file" : "frameworks/av/media/ndk/include/media/NdkMediaFormat.h"
  },
  {
   "linker_set_key" : "AMEDIAFORMAT_KEY_MAX_HEIGHT",
   "name" : "AMEDIAFORMAT_KEY_MAX_HEIGHT",
   "referenced_type" : "_ZTIPKc",
   "source_file" : "frameworks/av/media/ndk/include/media/NdkMediaFormat.h"
  },
  {
   "linker_set_key" : "AMEDIAFORMAT_KEY_MAX_INPUT_SIZE",
   "name" : "AMEDIAFORMAT_KEY_MAX_INPUT_SIZE",
   "referenced_type" : "_ZTIPKc",
   "source_file" : "frameworks/av/media/ndk/include/media/NdkMediaFormat.h"
  },
  {
   "linker_set_key" : "AMEDIAFORMAT_KEY_MAX_PTS_GAP_TO_ENCODER",
   "name" : "AMEDIAFORMAT_KEY_MAX_PTS_GAP_TO_ENCODER",
   "referenced_type" : "_ZTIPKc",
   "source_file" : "frameworks/av/media/ndk/include/media/NdkMediaFormat.h"
  },
  {
   "linker_set_key" : "AMEDIAFORMAT_KEY_MAX_WIDTH",
   "name" : "AMEDIAFORMAT_KEY_MAX_WIDTH",
   "referenced_type" : "_ZTIPKc",
   "source_file" : "frameworks/av/media/ndk/include/media/NdkMediaFormat.h"
  },
  {
   "linker_set_key" : "AMEDIAFORMAT_KEY_MIME",
   "name" : "AMEDIAFORMAT_KEY_MIME",
   "referenced_type" : "_ZTIPKc",
   "source_file" : "frameworks/av/media/ndk/include/media/NdkMediaFormat.h"
  },
  {
   "linker_set_key" : "AMEDIAFORMAT_KEY_MPEG2_STREAM_HEADER",
   "name" : "AMEDIAFORMAT_KEY_MPEG2_STREAM_HEADER",
   "referenced_type" : "_ZTIPKc",
   "source_file" : "frameworks/av/media/ndk/include/media/NdkMediaFormat.h"
  },
  {
   "linker_set_key" : "AMEDIAFORMAT_KEY_MPEGH_COMPATIBLE_SETS",
   "name" : "AMEDIAFORMAT_KEY_MPEGH_COMPATIBLE_SETS",
   "referenced_type" : "_ZTIPKc",
   "source_file" : "frameworks/av/media/ndk/include/media/NdkMediaFormat.h"
  },
  {
   "linker_set_key" : "AMEDIAFORMAT_KEY_MPEGH_PROFILE_LEVEL_INDICATION",
   "name" : "AMEDIAFORMAT_KEY_MPEGH_PROFILE_LEVEL_INDICATION",
   "referenced_type" : "_ZTIPKc",
   "source_file" : "frameworks/av/media/ndk/include/media/NdkMediaFormat.h"
  },
  {
   "linker_set_key" : "AMEDIAFORMAT_KEY_MPEGH_REFERENCE_CHANNEL_LAYOUT",
   "name" : "AMEDIAFORMAT_KEY_MPEGH_REFERENCE_CHANNEL_LAYOUT",
   "referenced_type" : "_ZTIPKc",
   "source_file" : "frameworks/av/media/ndk/include/media/NdkMediaFormat.h"
  },
  {
   "linker_set_key" : "AMEDIAFORMAT_KEY_MPEG_USER_DATA",
   "name" : "AMEDIAFORMAT_KEY_MPEG_USER_DATA",
   "referenced_type" : "_ZTIPKc",
   "source_file" : "frameworks/av/media/ndk/include/media/NdkMediaFormat.h"
  },
  {
   "linker_set_key" : "AMEDIAFORMAT_KEY_OPERATING_RATE",
   "name" : "AMEDIAFORMAT_KEY_OPERATING_RATE",
   "referenced_type" : "_ZTIPKc",
   "source_file" : "frameworks/av/media/ndk/include/media/NdkMediaFormat.h"
  },
  {
   "linker_set_key" : "AMEDIAFORMAT_KEY_PCM_BIG_ENDIAN",
   "name" : "AMEDIAFORMAT_KEY_PCM_BIG_ENDIAN",
   "referenced_type" : "_ZTIPKc",
   "source_file" : "frameworks/av/media/ndk/include/media/NdkMediaFormat.h"
  },
  {
   "linker_set_key" : "AMEDIAFORMAT_KEY_PCM_ENCODING",
   "name" : "AMEDIAFORMAT_KEY_PCM_ENCODING",
   "referenced_type" : "_ZTIPKc",
   "source_file" : "frameworks/av/media/ndk/include/media/NdkMediaFormat.h"
  },
  {
   "linker_set_key" : "AMEDIAFORMAT_KEY_PRIORITY",
   "name" : "AMEDIAFORMAT_KEY_PRIORITY",
   "referenced_type" : "_ZTIPKc",
   "source_file" : "frameworks/av/media/ndk/include/media/NdkMediaFormat.h"
  },
  {
   "linker_set_key" : "AMEDIAFORMAT_KEY_PROFILE",
   "name" : "AMEDIAFORMAT_KEY_PROFILE",
   "referenced_type" : "_ZTIPKc",
   "source_file" : "frameworks/av/media/ndk/include/media/NdkMediaFormat.h"
  },
  {
   "linker_set_key" : "AMEDIAFORMAT_KEY_PSSH",
   "name" : "AMEDIAFORMAT_KEY_PSSH",
   "referenced_type" : "_ZTIPKc",
   "source_file" : "frameworks/av/media/ndk/include/media/NdkMediaFormat.h"
  },
  {
   "linker_set_key" : "AMEDIAFORMAT_KEY_PUSH_BLANK_BUFFERS_ON_STOP",
   "name" : "AMEDIAFORMAT_KEY_PUSH_BLANK_BUFFERS_ON_STOP",
   "referenced_type" : "_ZTIPKc",
   "source_file" : "frameworks/av/media/ndk/include/media/NdkMediaFormat.h"
  },
  {
   "linker_set_key" : "AMEDIAFORMAT_KEY_REPEAT_PREVIOUS_FRAME_AFTER",
   "name" : "AMEDIAFORMAT_KEY_REPEAT_PREVIOUS_FRAME_AFTER",
   "referenced_type" : "_ZTIPKc",
   "source_file" : "frameworks/av/media/ndk/include/media/NdkMediaFormat.h"
  },
  {
   "linker_set_key" : "AMEDIAFORMAT_KEY_ROTATION",
   "name" : "AMEDIAFORMAT_KEY_ROTATION",
   "referenced_type" : "_ZTIPKc",
   "source_file" : "frameworks/av/media/ndk/include/media/NdkMediaFormat.h"
  },
  {
   "linker_set_key" : "AMEDIAFORMAT_KEY_SAMPLE_FILE_OFFSET",
   "name" : "AMEDIAFORMAT_KEY_SAMPLE_FILE_OFFSET",
   "referenced_type" : "_ZTIPKc",
   "source_file" : "frameworks/av/media/ndk/include/media/NdkMediaFormat.h"
  },
  {
   "linker_set_key" : "AMEDIAFORMAT_KEY_SAMPLE_RATE",
   "name" : "AMEDIAFORMAT_KEY_SAMPLE_RATE",
   "referenced_type" : "_ZTIPKc",
   "source_file" : "frameworks/av/media/ndk/include/media/NdkMediaFormat.h"
  },
  {
   "linker_set_key" : "AMEDIAFORMAT_KEY_SAMPLE_TIME_BEFORE_APPEND",
   "name" : "AMEDIAFORMAT_KEY_SAMPLE_TIME_BEFORE_APPEND",
   "referenced_type" : "_ZTIPKc",
   "source_file" : "frameworks/av/media/ndk/include/media/NdkMediaFormat.h"
  },
  {
   "linker_set_key" : "AMEDIAFORMAT_KEY_SAR_HEIGHT",
   "name" : "AMEDIAFORMAT_KEY_SAR_HEIGHT",
   "referenced_type" : "_ZTIPKc",
   "source_file" : "frameworks/av/media/ndk/include/media/NdkMediaFormat.h"
  },
  {
   "linker_set_key" : "AMEDIAFORMAT_KEY_SAR_WIDTH",
   "name" : "AMEDIAFORMAT_KEY_SAR_WIDTH",
   "referenced_type" : "_ZTIPKc",
   "source_file" : "frameworks/av/media/ndk/include/media/NdkMediaFormat.h"
  },
  {
   "linker_set_key" : "AMEDIAFORMAT_KEY_SEI",
   "name" : "AMEDIAFORMAT_KEY_SEI",
   "referenced_type" : "_ZTIPKc",
   "source_file" : "frameworks/av/media/ndk/include/media/NdkMediaFormat.h"
  },
  {
   "linker_set_key" : "AMEDIAFORMAT_KEY_SLICE_HEIGHT",
   "name" : "AMEDIAFORMAT_KEY_SLICE_HEIGHT",
   "referenced_type" : "_ZTIPKc",
   "source_file" : "frameworks/av/media/ndk/include/media/NdkMediaFormat.h"
  },
  {
   "linker_set_key" : "AMEDIAFORMAT_KEY_SLOW_MOTION_MARKERS",
   "name" : "AMEDIAFORMAT_KEY_SLOW_MOTION_MARKERS",
   "referenced_type" : "_ZTIPKc",
   "source_file" : "frameworks/av/media/ndk/include/media/NdkMediaFormat.h"
  },
  {
   "linker_set_key" : "AMEDIAFORMAT_KEY_STRIDE",
   "name" : "AMEDIAFORMAT_KEY_STRIDE",
   "referenced_type" : "_ZTIPKc",
   "source_file" : "frameworks/av/media/ndk/include/media/NdkMediaFormat.h"
  },
  {
   "linker_set_key" : "AMEDIAFORMAT_KEY_TARGET_TIME",
   "name" : "AMEDIAFORMAT_KEY_TARGET_TIME",
   "referenced_type" : "_ZTIPKc",
   "source_file" : "frameworks/av/media/ndk/include/media/NdkMediaFormat.h"
  },
  {
   "linker_set_key" : "AMEDIAFORMAT_KEY_TEMPORAL_LAYERING",
   "name" : "AMEDIAFORMAT_KEY_TEMPORAL_LAYERING",
   "referenced_type" : "_ZTIPKc",
   "source_file" : "frameworks/av/media/ndk/include/media/NdkMediaFormat.h"
  },
  {
   "linker_set_key" : "AMEDIAFORMAT_KEY_TEMPORAL_LAYER_COUNT",
   "name" : "AMEDIAFORMAT_KEY_TEMPORAL_LAYER_COUNT",
   "referenced_type" : "_ZTIPKc",
   "source_file" : "frameworks/av/media/ndk/include/media/NdkMediaFormat.h"
  },
  {
   "linker_set_key" : "AMEDIAFORMAT_KEY_TEMPORAL_LAYER_ID",
   "name" : "AMEDIAFORMAT_KEY_TEMPORAL_LAYER_ID",
   "referenced_type" : "_ZTIPKc",
   "source_file" : "frameworks/av/media/ndk/include/media/NdkMediaFormat.h"
  },
  {
   "linker_set_key" : "AMEDIAFORMAT_KEY_TEXT_FORMAT_DATA",
   "name" : "AMEDIAFORMAT_KEY_TEXT_FORMAT_DATA",
   "referenced_type" : "_ZTIPKc",
   "source_file" : "frameworks/av/media/ndk/include/media/NdkMediaFormat.h"
  },
  {
   "linker_set_key" : "AMEDIAFORMAT_KEY_THUMBNAIL_CSD_AV1C",
   "name" : "AMEDIAFORMAT_KEY_THUMBNAIL_CSD_AV1C",
   "referenced_type" : "_ZTIPKc",
   "source_file" : "frameworks/av/media/ndk/include/media/NdkMediaFormat.h"
  },
  {
   "linker_set_key" : "AMEDIAFORMAT_KEY_THUMBNAIL_CSD_HEVC",
   "name" : "AMEDIAFORMAT_KEY_THUMBNAIL_CSD_HEVC",
   "referenced_type" : "_ZTIPKc",
   "source_file" : "frameworks/av/media/ndk/include/media/NdkMediaFormat.h"
  },
  {
   "linker_set_key" : "AMEDIAFORMAT_KEY_THUMBNAIL_HEIGHT",
   "name" : "AMEDIAFORMAT_KEY_THUMBNAIL_HEIGHT",
   "referenced_type" : "_ZTIPKc",
   "source_file" : "frameworks/av/media/ndk/include/media/NdkMediaFormat.h"
  },
  {
   "linker_set_key" : "AMEDIAFORMAT_KEY_THUMBNAIL_TIME",
   "name" : "AMEDIAFORMAT_KEY_THUMBNAIL_TIME",
   "referenced_type" : "_ZTIPKc",
   "source_file" : "frameworks/av/media/ndk/include/media/NdkMediaFormat.h"
  },
  {
   "linker_set_key" : "AMEDIAFORMAT_KEY_THUMBNAIL_WIDTH",
   "name" : "AMEDIAFORMAT_KEY_THUMBNAIL_WIDTH",
   "referenced_type" : "_ZTIPKc",
   "source_file" : "frameworks/av/media/ndk/include/media/NdkMediaFormat.h"
  },
  {
   "linker_set_key" : "AMEDIAFORMAT_KEY_TILE_HEIGHT",
   "name" : "AMEDIAFORMAT_KEY_TILE_HEIGHT",
   "referenced_type" : "_ZTIPKc",
   "source_file" : "frameworks/av/media/ndk/include/media/NdkMediaFormat.h"
  },
  {
   "linker_set_key" : "AMEDIAFORMAT_KEY_TILE_WIDTH",
   "name" : "AMEDIAFORMAT_KEY_TILE_WIDTH",
   "referenced_type" : "_ZTIPKc",
   "source_file" : "frameworks/av/media/ndk/include/media/NdkMediaFormat.h"
  },
  {
   "linker_set_key" : "AMEDIAFORMAT_KEY_TIME_US",
   "name" : "AMEDIAFORMAT_KEY_TIME_US",
   "referenced_type" : "_ZTIPKc",
   "source_file" : "frameworks/av/media/ndk/include/media/NdkMediaFormat.h"
  },
  {
   "linker_set_key" : "AMEDIAFORMAT_KEY_TITLE",
   "name" : "AMEDIAFORMAT_KEY_TITLE",
   "referenced_type" : "_ZTIPKc",
   "source_file" : "frameworks/av/media/ndk/include/media/NdkMediaFormat.h"
  },
  {
   "linker_set_key" : "AMEDIAFORMAT_KEY_TRACK_ID",
   "name" : "AMEDIAFORMAT_KEY_TRACK_ID",
   "referenced_type" : "_ZTIPKc",
   "source_file" : "frameworks/av/media/ndk/include/media/NdkMediaFormat.h"
  },
  {
   "linker_set_key" : "AMEDIAFORMAT_KEY_TRACK_INDEX",
   "name" : "AMEDIAFORMAT_KEY_TRACK_INDEX",
   "referenced_type" : "_ZTIPKc",
   "source_file" : "frameworks/av/media/ndk/include/media/NdkMediaFormat.h"
  },
  {
   "linker_set_key" : "AMEDIAFORMAT_KEY_VALID_SAMPLES",
   "name" : "AMEDIAFORMAT_KEY_VALID_SAMPLES",
   "referenced_type" : "_ZTIPKc",
   "source_file" : "frameworks/av/media/ndk/include/media/NdkMediaFormat.h"
  },
  {
   "linker_set_key" : "AMEDIAFORMAT_KEY_WIDTH",
   "name" : "AMEDIAFORMAT_KEY_WIDTH",
   "referenced_type" : "_ZTIPKc",
   "source_file" : "frameworks/av/media/ndk/include/media/NdkMediaFormat.h"
  },
  {
   "linker_set_key" : "AMEDIAFORMAT_KEY_XMP_OFFSET",
   "name" : "AMEDIAFORMAT_KEY_XMP_OFFSET",
   "referenced_type" : "_ZTIPKc",
   "source_file" : "frameworks/av/media/ndk/include/media/NdkMediaFormat.h"
  },
  {
   "linker_set_key" : "AMEDIAFORMAT_KEY_XMP_SIZE",
   "name" : "AMEDIAFORMAT_KEY_XMP_SIZE",
   "referenced_type" : "_ZTIPKc",
   "source_file" : "frameworks/av/media/ndk/include/media/NdkMediaFormat.h"
  },
  {
   "linker_set_key" : "AMEDIAFORMAT_KEY_YEAR",
   "name" : "AMEDIAFORMAT_KEY_YEAR",
   "referenced_type" : "_ZTIPKc",
   "source_file" : "frameworks/av/media/ndk/include/media/NdkMediaFormat.h"
  },
  {
   "linker_set_key" : "AMEDIAFORMAT_VIDEO_QP_B_MAX",
   "name" : "AMEDIAFORMAT_VIDEO_QP_B_MAX",
   "referenced_type" : "_ZTIPKc",
   "source_file" : "frameworks/av/media/ndk/include/media/NdkMediaFormat.h"
  },
  {
   "linker_set_key" : "AMEDIAFORMAT_VIDEO_QP_B_MIN",
   "name" : "AMEDIAFORMAT_VIDEO_QP_B_MIN",
   "referenced_type" : "_ZTIPKc",
   "source_file" : "frameworks/av/media/ndk/include/media/NdkMediaFormat.h"
  },
  {
   "linker_set_key" : "AMEDIAFORMAT_VIDEO_QP_I_MAX",
   "name" : "AMEDIAFORMAT_VIDEO_QP_I_MAX",
   "referenced_type" : "_ZTIPKc",
   "source_file" : "frameworks/av/media/ndk/include/media/NdkMediaFormat.h"
  },
  {
   "linker_set_key" : "AMEDIAFORMAT_VIDEO_QP_I_MIN",
   "name" : "AMEDIAFORMAT_VIDEO_QP_I_MIN",
   "referenced_type" : "_ZTIPKc",
   "source_file" : "frameworks/av/media/ndk/include/media/NdkMediaFormat.h"
  },
  {
   "linker_set_key" : "AMEDIAFORMAT_VIDEO_QP_MAX",
   "name" : "AMEDIAFORMAT_VIDEO_QP_MAX",
   "referenced_type" : "_ZTIPKc",
   "source_file" : "frameworks/av/media/ndk/include/media/NdkMediaFormat.h"
  },
  {
   "linker_set_key" : "AMEDIAFORMAT_VIDEO_QP_MIN",
   "name" : "AMEDIAFORMAT_VIDEO_QP_MIN",
   "referenced_type" : "_ZTIPKc",
   "source_file" : "frameworks/av/media/ndk/include/media/NdkMediaFormat.h"
  },
  {
   "linker_set_key" : "AMEDIAFORMAT_VIDEO_QP_P_MAX",
   "name" : "AMEDIAFORMAT_VIDEO_QP_P_MAX",
   "referenced_type" : "_ZTIPKc",
   "source_file" : "frameworks/av/media/ndk/include/media/NdkMediaFormat.h"
  },
  {
   "linker_set_key" : "AMEDIAFORMAT_VIDEO_QP_P_MIN",
   "name" : "AMEDIAFORMAT_VIDEO_QP_P_MIN",
   "referenced_type" : "_ZTIPKc",
   "source_file" : "frameworks/av/media/ndk/include/media/NdkMediaFormat.h"
  },
  {
   "linker_set_key" : "_ZN8log_time5EPOCHE",
   "name" : "log_time::EPOCH",
   "referenced_type" : "_ZTIK8timespec",
   "source_file" : "system/logging/liblog/include/log/log_time.h"
  },
  {
   "linker_set_key" : "_ZZN7android2sp18check_not_on_stackEPKvE13MIN_PAGE_MASK",
   "name" : "MIN_PAGE_MASK",
   "referenced_type" : "_ZTIKj",
   "source_file" : "system/core/libutils/include/utils/StrongPointer.h"
  },
  {
   "linker_set_key" : "_ZZN7android2sp18check_not_on_stackEPKvE13MIN_PAGE_SIZE",
   "name" : "MIN_PAGE_SIZE",
   "referenced_type" : "_ZTIKi",
   "source_file" : "system/core/libutils/include/utils/StrongPointer.h"
  },
  {
   "linker_set_key" : "_ZZN7android2spINS_7ABufferEE18check_not_on_stackEPKvE13MIN_PAGE_MASK",
   "name" : "MIN_PAGE_MASK",
   "referenced_type" : "_ZTIKj",
   "source_file" : "system/core/libutils/include/utils/StrongPointer.h"
  },
  {
   "linker_set_key" : "_ZZN7android2spINS_7ABufferEE18check_not_on_stackEPKvE13MIN_PAGE_SIZE",
   "name" : "MIN_PAGE_SIZE",
   "referenced_type" : "_ZTIKi",
   "source_file" : "system/core/libutils/include/utils/StrongPointer.h"
  },
  {
   "linker_set_key" : "_ZZN7android2spINS_8AMessageEE18check_not_on_stackEPKvE13MIN_PAGE_MASK",
   "name" : "MIN_PAGE_MASK",
   "referenced_type" : "_ZTIKj",
   "source_file" : "system/core/libutils/include/utils/StrongPointer.h"
  },
  {
   "linker_set_key" : "_ZZN7android2spINS_8AMessageEE18check_not_on_stackEPKvE13MIN_PAGE_SIZE",
   "name" : "MIN_PAGE_SIZE",
   "referenced_type" : "_ZTIKi",
   "source_file" : "system/core/libutils/include/utils/StrongPointer.h"
  }
 ],
 "lvalue_reference_types" :
 [
  {
   "alignment" : 4,
   "linker_set_key" : "_ZTIRK8log_time",
   "name" : "const log_time &",
   "referenced_type" : "_ZTIK8log_time",
   "self_type" : "_ZTIRK8log_time",
   "size" : 4,
   "source_file" : "system/logging/liblog/include/log/log_time.h"
  },
  {
   "alignment" : 4,
   "linker_set_key" : "_ZTIRK8timespec",
   "name" : "const timespec &",
   "referenced_type" : "_ZTIK8timespec",
   "self_type" : "_ZTIRK8timespec",
   "size" : 4,
   "source_file" : "system/logging/liblog/include/log/log_time.h"
  },
  {
   "alignment" : 4,
   "linker_set_key" : "_ZTIRKN7android16key_value_pair_tINS_7String8ES1_EE",
   "name" : "const android::key_value_pair_t<android::String8, android::String8> &",
   "referenced_type" : "_ZTIKN7android16key_value_pair_tINS_7String8ES1_EE",
   "self_type" : "_ZTIRKN7android16key_value_pair_tINS_7String8ES1_EE",
   "size" : 4,
   "source_file" : "system/core/libutils/include/utils/TypeHelpers.h"
  },
  {
   "alignment" : 4,
   "linker_set_key" : "_ZTIRKN7android2spINS_7ALooperEEE",
   "name" : "const android::sp<android::ALooper> &",
   "referenced_type" : "_ZTIKN7android2spINS_7ALooperEEE",
   "self_type" : "_ZTIRKN7android2spINS_7ALooperEEE",
   "size" : 4,
   "source_file" : "system/core/libutils/include/utils/RefBase.h"
  },
  {
   "alignment" : 4,
   "linker_set_key" : "_ZTIRKN7android2spINS_8AMessageEEE",
   "name" : "const android::sp<android::AMessage> &",
   "referenced_type" : "_ZTIKN7android2spINS_8AMessageEEE",
   "self_type" : "_ZTIRKN7android2spINS_8AMessageEEE",
   "size" : 4,
   "source_file" : "system/core/libutils/include/utils/StrongPointer.h"
  },
  {
   "alignment" : 4,
   "linker_set_key" : "_ZTIRKN7android7String8E",
   "name" : "const android::String8 &",
   "referenced_type" : "_ZTIKN7android7String8E",
   "self_type" : "_ZTIRKN7android7String8E",
   "size" : 4,
   "source_file" : "system/core/libutils/include/utils/TypeHelpers.h"
  },
  {
   "alignment" : 4,
   "linker_set_key" : "_ZTIRKa",
   "name" : "const signed char &",
   "referenced_type" : "_ZTIKa",
   "self_type" : "_ZTIRKa",
   "size" : 4,
   "source_file" : "system/core/libutils/include/utils/TypeHelpers.h"
  },
  {
   "alignment" : 4,
   "linker_set_key" : "_ZTIRKb",
   "name" : "const bool &",
   "referenced_type" : "_ZTIKb",
   "self_type" : "_ZTIRKb",
   "size" : 4,
   "source_file" : "system/core/libutils/include/utils/TypeHelpers.h"
  },
  {
   "alignment" : 4,
   "linker_set_key" : "_ZTIRKd",
   "name" : "const double &",
   "referenced_type" : "_ZTIKd",
   "self_type" : "_ZTIRKd",
   "size" : 4,
   "source_file" : "system/core/libutils/include/utils/TypeHelpers.h"
  },
  {
   "alignment" : 4,
   "linker_set_key" : "_ZTIRKf",
   "name" : "const float &",
   "referenced_type" : "_ZTIKf",
   "self_type" : "_ZTIRKf",
   "size" : 4,
   "source_file" : "system/core/libutils/include/utils/TypeHelpers.h"
  },
  {
   "alignment" : 4,
   "linker_set_key" : "_ZTIRKh",
   "name" : "const unsigned char &",
   "referenced_type" : "_ZTIKh",
   "self_type" : "_ZTIRKh",
   "size" : 4,
   "source_file" : "system/core/libutils/include/utils/TypeHelpers.h"
  },
  {
   "alignment" : 4,
   "linker_set_key" : "_ZTIRKi",
   "name" : "const int &",
   "referenced_type" : "_ZTIKi",
   "self_type" : "_ZTIRKi",
   "size" : 4,
   "source_file" : "system/core/libutils/include/utils/TypeHelpers.h"
  },
  {
   "alignment" : 4,
   "linker_set_key" : "_ZTIRKj",
   "name" : "const unsigned int &",
   "referenced_type" : "_ZTIKj",
   "self_type" : "_ZTIRKj",
   "size" : 4,
   "source_file" : "system/core/libutils/include/utils/TypeHelpers.h"
  },
  {
   "alignment" : 4,
   "linker_set_key" : "_ZTIRKs",
   "name" : "const short &",
   "referenced_type" : "_ZTIKs",
   "self_type" : "_ZTIRKs",
   "size" : 4,
   "source_file" : "system/core/libutils/include/utils/TypeHelpers.h"
  },
  {
   "alignment" : 4,
   "linker_set_key" : "_ZTIRKt",
   "name" : "const unsigned short &",
   "referenced_type" : "_ZTIKt",
   "self_type" : "_ZTIRKt",
   "size" : 4,
   "source_file" : "system/core/libutils/include/utils/TypeHelpers.h"
  },
  {
   "alignment" : 4,
   "linker_set_key" : "_ZTIRKx",
   "name" : "const long long &",
   "referenced_type" : "_ZTIKx",
   "self_type" : "_ZTIRKx",
   "size" : 4,
   "source_file" : "system/core/libutils/include/utils/TypeHelpers.h"
  },
  {
   "alignment" : 4,
   "linker_set_key" : "_ZTIRKy",
   "name" : "const unsigned long long &",
   "referenced_type" : "_ZTIKy",
   "self_type" : "_ZTIRKy",
   "size" : 4,
   "source_file" : "system/core/libutils/include/utils/TypeHelpers.h"
  },
  {
   "alignment" : 4,
   "linker_set_key" : "_ZTIRN7android16key_value_pair_tINS_7String8ES1_EE",
   "name" : "android::key_value_pair_t<android::String8, android::String8> &",
   "referenced_type" : "_ZTIN7android16key_value_pair_tINS_7String8ES1_EE",
   "self_type" : "_ZTIRN7android16key_value_pair_tINS_7String8ES1_EE",
   "size" : 4,
   "source_file" : "system/core/libutils/include/utils/TypeHelpers.h"
  },
  {
   "alignment" : 4,
   "linker_set_key" : "_ZTIRN7android2spINS_8AMessageEEE",
   "name" : "android::sp<android::AMessage> &",
   "referenced_type" : "_ZTIN7android2spINS_8AMessageEEE",
   "self_type" : "_ZTIRN7android2spINS_8AMessageEEE",
   "size" : 4,
   "source_file" : "system/core/libutils/include/utils/StrongPointer.h"
  },
  {
   "alignment" : 4,
   "linker_set_key" : "_ZTIRN7android5MutexE",
   "name" : "android::Mutex &",
   "referenced_type" : "_ZTIN7android5MutexE",
   "self_type" : "_ZTIRN7android5MutexE",
   "size" : 4,
   "source_file" : "system/core/libutils/include/utils/Mutex.h"
  },
  {
   "alignment" : 4,
   "linker_set_key" : "_ZTIRN7android6RWLockE",
   "name" : "android::RWLock &",
   "referenced_type" : "_ZTIN7android6RWLockE",
   "self_type" : "_ZTIRN7android6RWLockE",
   "size" : 4,
   "source_file" : "system/core/libutils/include/utils/RWLock.h"
  },
  {
   "alignment" : 4,
   "linker_set_key" : "_ZTIRN7android7String8E",
   "name" : "android::String8 &",
   "referenced_type" : "_ZTIN7android7String8E",
   "self_type" : "_ZTIRN7android7String8E",
   "size" : 4,
   "source_file" : "system/core/libutils/include/utils/String8.h"
  }
 ],
 "pointer_types" :
 [
  {
   "alignment" : 4,
   "linker_set_key" : "_ZTIP12AMediaFormat",
   "name" : "AMediaFormat *",
   "referenced_type" : "_ZTI12AMediaFormat",
   "self_type" : "_ZTIP12AMediaFormat",
   "size" : 4,
   "source_file" : "frameworks/av/media/ndk/include/media/NdkMediaFormat.h"
  },
  {
   "alignment" : 4,
   "linker_set_key" : "_ZTIP18android_flex_plane",
   "name" : "android_flex_plane *",
   "referenced_type" : "_ZTI18android_flex_plane",
   "self_type" : "_ZTIP18android_flex_plane",
   "size" : 4,
   "source_file" : "system/core/libsystem/include/system/graphics.h"
  },
  {
   "alignment" : 4,
   "linker_set_key" : "_ZTIP8log_time",
   "name" : "log_time *",
   "referenced_type" : "_ZTI8log_time",
   "self_type" : "_ZTIP8log_time",
   "size" : 4,
   "source_file" : "system/logging/liblog/include/log/log_time.h"
  },
  {
   "alignment" : 4,
   "linker_set_key" : "_ZTIPFiPvE",
   "name" : "int (*)(void *)",
   "referenced_type" : "_ZTIFiPvE",
   "self_type" : "_ZTIPFiPvE",
   "size" : 4,
   "source_file" : "system/core/libutils/include/utils/AndroidThreads.h"
  },
  {
   "alignment" : 4,
   "linker_set_key" : "_ZTIPK8log_time",
   "name" : "const log_time *",
   "referenced_type" : "_ZTIK8log_time",
   "self_type" : "_ZTIPK8log_time",
   "size" : 4,
   "source_file" : "system/logging/liblog/include/log/log_time.h"
  },
  {
   "alignment" : 4,
   "linker_set_key" : "_ZTIPKN7android10VectorImplE",
   "name" : "const android::VectorImpl *",
   "referenced_type" : "_ZTIKN7android10VectorImplE",
   "self_type" : "_ZTIPKN7android10VectorImplE",
   "size" : 4,
   "source_file" : "system/core/libutils/include/utils/VectorImpl.h"
  },
  {
   "alignment" : 4,
   "linker_set_key" : "_ZTIPKN7android11KeyedVectorINS_7String8ES1_EE",
   "name" : "const android::KeyedVector<android::String8, android::String8> *",
   "referenced_type" : "_ZTIKN7android11KeyedVectorINS_7String8ES1_EE",
   "self_type" : "_ZTIPKN7android11KeyedVectorINS_7String8ES1_EE",
   "size" : 4,
   "source_file" : "system/core/libutils/include/utils/KeyedVector.h"
  },
  {
   "alignment" : 4,
   "linker_set_key" : "_ZTIPKN7android12SortedVectorINS_16key_value_pair_tINS_7String8ES2_EEEE",
   "name" : "const android::SortedVector<android::key_value_pair_t<android::String8, android::String8>> *",
   "referenced_type" : "_ZTIKN7android12SortedVectorINS_16key_value_pair_tINS_7String8ES2_EEEE",
   "self_type" : "_ZTIPKN7android12SortedVectorINS_16key_value_pair_tINS_7String8ES2_EEEE",
   "size" : 4,
   "source_file" : "system/core/libutils/include/utils/SortedVector.h"
  },
  {
   "alignment" : 4,
   "linker_set_key" : "_ZTIPKN7android16key_value_pair_tINS_7String8ES1_EE",
   "name" : "const android::key_value_pair_t<android::String8, android::String8> *",
   "referenced_type" : "_ZTIKN7android16key_value_pair_tINS_7String8ES1_EE",
   "self_type" : "_ZTIPKN7android16key_value_pair_tINS_7String8ES1_EE",
   "size" : 4,
   "source_file" : "system/core/libutils/include/utils/TypeHelpers.h"
  },
  {
   "alignment" : 4,
   "linker_set_key" : "_ZTIPKN7android2spINS_7ABufferEEE",
   "name" : "const android::sp<android::ABuffer> *",
   "referenced_type" : "_ZTIKN7android2spINS_7ABufferEEE",
   "self_type" : "_ZTIPKN7android2spINS_7ABufferEEE",
   "size" : 4,
   "source_file" : "system/core/libutils/include/utils/StrongPointer.h"
  },
  {
   "alignment" : 4,
   "linker_set_key" : "_ZTIPKN7android2spINS_8AMessageEEE",
   "name" : "const android::sp<android::AMessage> *",
   "referenced_type" : "_ZTIKN7android2spINS_8AMessageEEE",
   "self_type" : "_ZTIPKN7android2spINS_8AMessageEEE",
   "size" : 4,
   "source_file" : "system/core/libutils/include/utils/StrongPointer.h"
  },
  {
   "alignment" : 4,
   "linker_set_key" : "_ZTIPKN7android2wpINS_7ALooperEEE",
   "name" : "const android::wp<android::ALooper> *",
   "referenced_type" : "_ZTIKN7android2wpINS_7ALooperEEE",
   "self_type" : "_ZTIPKN7android2wpINS_7ALooperEEE",
   "size" : 4,
   "source_file" : "system/core/libutils/include/utils/RefBase.h"
  },
  {
   "alignment" : 4,
   "linker_set_key" : "_ZTIPKN7android7RefBaseE",
   "name" : "const android::RefBase *",
   "referenced_type" : "_ZTIKN7android7RefBaseE",
   "self_type" : "_ZTIPKN7android7RefBaseE",
   "size" : 4,
   "source_file" : "system/core/libutils/include/utils/RefBase.h"
  },
  {
   "alignment" : 4,
   "linker_set_key" : "_ZTIPKN7android7String8E",
   "name" : "const android::String8 *",
   "referenced_type" : "_ZTIKN7android7String8E",
   "self_type" : "_ZTIPKN7android7String8E",
   "size" : 4,
   "source_file" : "system/core/libutils/include/utils/String8.h"
  },
  {
   "alignment" : 4,
   "linker_set_key" : "_ZTIPKc",
   "name" : "const char *",
   "referenced_type" : "_ZTIKc",
   "self_type" : "_ZTIPKc",
   "size" : 4,
   "source_file" : "frameworks/av/media/ndk/include/media/NdkMediaFormat.h"
  },
  {
   "alignment" : 4,
   "linker_set_key" : "_ZTIPKv",
   "name" : "const void *",
   "referenced_type" : "_ZTIKv",
   "self_type" : "_ZTIPKv",
   "size" : 4,
   "source_file" : "frameworks/av/media/ndk/include/media/NdkMediaFormat.h"
  },
  {
   "alignment" : 4,
   "linker_set_key" : "_ZTIPN7android11KeyedVectorINS_7String8ES1_EE",
   "name" : "android::KeyedVector<android::String8, android::String8> *",
   "referenced_type" : "_ZTIN7android11KeyedVectorINS_7String8ES1_EE",
   "self_type" : "_ZTIPN7android11KeyedVectorINS_7String8ES1_EE",
   "size" : 4,
   "source_file" : "system/core/libutils/include/utils/KeyedVector.h"
  },
  {
   "alignment" : 4,
   "linker_set_key" : "_ZTIPN7android12SortedVectorINS_16key_value_pair_tINS_7String8ES2_EEEE",
   "name" : "android::SortedVector<android::key_value_pair_t<android::String8, android::String8>> *",
   "referenced_type" : "_ZTIN7android12SortedVectorINS_16key_value_pair_tINS_7String8ES2_EEEE",
   "self_type" : "_ZTIPN7android12SortedVectorINS_16key_value_pair_tINS_7String8ES2_EEEE",
   "size" : 4,
   "source_file" : "system/core/libutils/include/utils/SortedVector.h"
  },
  {
   "alignment" : 4,
   "linker_set_key" : "_ZTIPN7android16ReferenceRenamerE",
   "name" : "android::ReferenceRenamer *",
   "referenced_type" : "_ZTIN7android16ReferenceRenamerE",
   "self_type" : "_ZTIPN7android16ReferenceRenamerE",
   "size" : 4,
   "source_file" : "system/core/libutils/include/utils/RefBase.h"
  },
  {
   "alignment" : 4,
   "linker_set_key" : "_ZTIPN7android16key_value_pair_tINS_7String8ES1_EE",
   "name" : "android::key_value_pair_t<android::String8, android::String8> *",
   "referenced_type" : "_ZTIN7android16key_value_pair_tINS_7String8ES1_EE",
   "self_type" : "_ZTIPN7android16key_value_pair_tINS_7String8ES1_EE",
   "size" : 4,
   "source_file" : "system/core/libutils/include/utils/TypeHelpers.h"
  },
  {
   "alignment" : 4,
   "linker_set_key" : "_ZTIPN7android19VirtualLightRefBaseE",
   "name" : "android::VirtualLightRefBase *",
   "referenced_type" : "_ZTIN7android19VirtualLightRefBaseE",
   "self_type" : "_ZTIPN7android19VirtualLightRefBaseE",
   "size" : 4,
   "source_file" : "system/core/libutils/include/utils/LightRefBase.h"
  },
  {
   "alignment" : 4,
   "linker_set_key" : "_ZTIPN7android2spINS_7ABufferEEE",
   "name" : "android::sp<android::ABuffer> *",
   "referenced_type" : "_ZTIN7android2spINS_7ABufferEEE",
   "self_type" : "_ZTIPN7android2spINS_7ABufferEEE",
   "size" : 4,
   "source_file" : "system/core/libutils/include/utils/StrongPointer.h"
  },
  {
   "alignment" : 4,
   "linker_set_key" : "_ZTIPN7android2spINS_7ALooperEEE",
   "name" : "android::sp<android::ALooper> *",
   "referenced_type" : "_ZTIN7android2spINS_7ALooperEEE",
   "self_type" : "_ZTIPN7android2spINS_7ALooperEEE",
   "size" : 4,
   "source_file" : "system/core/libutils/include/utils/StrongPointer.h"
  },
  {
   "alignment" : 4,
   "linker_set_key" : "_ZTIPN7android2spINS_8AMessageEEE",
   "name" : "android::sp<android::AMessage> *",
   "referenced_type" : "_ZTIN7android2spINS_8AMessageEEE",
   "self_type" : "_ZTIPN7android2spINS_8AMessageEEE",
   "size" : 4,
   "source_file" : "system/core/libutils/include/utils/StrongPointer.h"
  },
  {
   "alignment" : 4,
   "linker_set_key" : "_ZTIPN7android2wpINS_7ALooperEEE",
   "name" : "android::wp<android::ALooper> *",
   "referenced_type" : "_ZTIN7android2wpINS_7ALooperEEE",
   "self_type" : "_ZTIPN7android2wpINS_7ALooperEEE",
   "size" : 4,
   "source_file" : "system/core/libutils/include/utils/RefBase.h"
  },
  {
   "alignment" : 4,
   "linker_set_key" : "_ZTIPN7android4ListINS_7ALooper5EventEE5_NodeE",
   "name" : "android::List<Event>::_Node *",
   "referenced_type" : "_ZTIN7android4ListINS_7ALooper5EventEE5_NodeE",
   "self_type" : "_ZTIPN7android4ListINS_7ALooper5EventEE5_NodeE",
   "size" : 4,
   "source_file" : "system/core/libutils/include/utils/List.h"
  },
  {
   "alignment" : 4,
   "linker_set_key" : "_ZTIPN7android5Mutex8AutolockE",
   "name" : "android::Mutex::Autolock *",
   "referenced_type" : "_ZTIN7android5Mutex8AutolockE",
   "self_type" : "_ZTIPN7android5Mutex8AutolockE",
   "size" : 4,
   "source_file" : "system/core/libutils/include/utils/Mutex.h"
  },
  {
   "alignment" : 4,
   "linker_set_key" : "_ZTIPN7android5MutexE",
   "name" : "android::Mutex *",
   "referenced_type" : "_ZTIN7android5MutexE",
   "self_type" : "_ZTIPN7android5MutexE",
   "size" : 4,
   "source_file" : "system/core/libutils/include/utils/Mutex.h"
  },
  {
   "alignment" : 4,
   "linker_set_key" : "_ZTIPN7android6RWLock9AutoRLockE",
   "name" : "android::RWLock::AutoRLock *",
   "referenced_type" : "_ZTIN7android6RWLock9AutoRLockE",
   "self_type" : "_ZTIPN7android6RWLock9AutoRLockE",
   "size" : 4,
   "source_file" : "system/core/libutils/include/utils/RWLock.h"
  },
  {
   "alignment" : 4,
   "linker_set_key" : "_ZTIPN7android6RWLock9AutoWLockE",
   "name" : "android::RWLock::AutoWLock *",
   "referenced_type" : "_ZTIN7android6RWLock9AutoWLockE",
   "self_type" : "_ZTIPN7android6RWLock9AutoWLockE",
   "size" : 4,
   "source_file" : "system/core/libutils/include/utils/RWLock.h"
  },
  {
   "alignment" : 4,
   "linker_set_key" : "_ZTIPN7android6RWLockE",
   "name" : "android::RWLock *",
   "referenced_type" : "_ZTIN7android6RWLockE",
   "self_type" : "_ZTIPN7android6RWLockE",
   "size" : 4,
   "source_file" : "system/core/libutils/include/utils/RWLock.h"
  },
  {
   "alignment" : 4,
   "linker_set_key" : "_ZTIPN7android6ThreadE",
   "name" : "android::Thread *",
   "referenced_type" : "_ZTIN7android6ThreadE",
   "self_type" : "_ZTIPN7android6ThreadE",
   "size" : 4,
   "source_file" : "system/core/libutils/include/utils/StrongPointer.h"
  },
  {
   "alignment" : 4,
   "linker_set_key" : "_ZTIPN7android7ABufferE",
   "name" : "android::ABuffer *",
   "referenced_type" : "_ZTIN7android7ABufferE",
   "self_type" : "_ZTIPN7android7ABufferE",
   "size" : 4,
   "source_file" : "system/core/libutils/include/utils/StrongPointer.h"
  },
  {
   "alignment" : 4,
   "linker_set_key" : "_ZTIPN7android7ALooper12LooperThreadE",
   "name" : "android::ALooper::LooperThread *",
   "referenced_type" : "_ZTIN7android7ALooper12LooperThreadE",
   "self_type" : "_ZTIPN7android7ALooper12LooperThreadE",
   "size" : 4,
   "source_file" : "system/core/libutils/include/utils/StrongPointer.h"
  },
  {
   "alignment" : 4,
   "linker_set_key" : "_ZTIPN7android7ALooperE",
   "name" : "android::ALooper *",
   "referenced_type" : "_ZTIN7android7ALooperE",
   "self_type" : "_ZTIPN7android7ALooperE",
   "size" : 4,
   "source_file" : "system/core/libutils/include/utils/RefBase.h"
  },
  {
   "alignment" : 4,
   "linker_set_key" : "_ZTIPN7android7RefBase12weakref_implE",
   "name" : "android::RefBase::weakref_impl *",
   "referenced_type" : "_ZTIN7android7RefBase12weakref_implE",
   "self_type" : "_ZTIPN7android7RefBase12weakref_implE",
   "size" : 4,
   "source_file" : "system/core/libutils/include/utils/RefBase.h"
  },
  {
   "alignment" : 4,
   "linker_set_key" : "_ZTIPN7android7RefBase12weakref_typeE",
   "name" : "android::RefBase::weakref_type *",
   "referenced_type" : "_ZTIN7android7RefBase12weakref_typeE",
   "self_type" : "_ZTIPN7android7RefBase12weakref_typeE",
   "size" : 4,
   "source_file" : "system/core/libutils/include/utils/RefBase.h"
  },
  {
   "alignment" : 4,
   "linker_set_key" : "_ZTIPN7android7RefBaseE",
   "name" : "android::RefBase *",
   "referenced_type" : "_ZTIN7android7RefBaseE",
   "self_type" : "_ZTIPN7android7RefBaseE",
   "size" : 4,
   "source_file" : "system/core/libutils/include/utils/RefBase.h"
  },
  {
   "alignment" : 4,
   "linker_set_key" : "_ZTIPN7android7String8E",
   "name" : "android::String8 *",
   "referenced_type" : "_ZTIN7android7String8E",
   "self_type" : "_ZTIPN7android7String8E",
   "size" : 4,
   "source_file" : "system/core/libutils/include/utils/String8.h"
  },
  {
   "alignment" : 4,
   "linker_set_key" : "_ZTIPN7android8AHandlerE",
   "name" : "android::AHandler *",
   "referenced_type" : "_ZTIN7android8AHandlerE",
   "self_type" : "_ZTIPN7android8AHandlerE",
   "size" : 4,
   "source_file" : "system/core/libutils/include/utils/RefBase.h"
  },
  {
   "alignment" : 4,
   "linker_set_key" : "_ZTIPN7android8AMessageE",
   "name" : "android::AMessage *",
   "referenced_type" : "_ZTIN7android8AMessageE",
   "self_type" : "_ZTIPN7android8AMessageE",
   "size" : 4,
   "source_file" : "system/core/libutils/include/utils/StrongPointer.h"
  },
  {
   "alignment" : 4,
   "linker_set_key" : "_ZTIPN7android9ConditionE",
   "name" : "android::Condition *",
   "referenced_type" : "_ZTIN7android9ConditionE",
   "self_type" : "_ZTIPN7android9ConditionE",
   "size" : 4,
   "source_file" : "system/core/libutils/include/utils/Condition.h"
  },
  {
   "alignment" : 4,
   "linker_set_key" : "_ZTIPPKc",
   "name" : "const char **",
   "referenced_type" : "_ZTIPKc",
   "self_type" : "_ZTIPPKc",
   "size" : 4,
   "source_file" : "frameworks/av/media/ndk/include/media/NdkMediaFormat.h"
  },
  {
   "alignment" : 4,
   "linker_set_key" : "_ZTIPPv",
   "name" : "void **",
   "referenced_type" : "_ZTIPv",
   "self_type" : "_ZTIPPv",
   "size" : 4,
   "source_file" : "frameworks/av/media/ndk/include/media/NdkMediaFormat.h"
  },
  {
   "alignment" : 4,
   "linker_set_key" : "_ZTIPd",
   "name" : "double *",
   "referenced_type" : "_ZTId",
   "self_type" : "_ZTIPd",
   "size" : 4,
   "source_file" : "frameworks/av/media/ndk/include/media/NdkMediaFormat.h"
  },
  {
   "alignment" : 4,
   "linker_set_key" : "_ZTIPf",
   "name" : "float *",
   "referenced_type" : "_ZTIf",
   "self_type" : "_ZTIPf",
   "size" : 4,
   "source_file" : "frameworks/av/media/ndk/include/media/NdkMediaFormat.h"
  },
  {
   "alignment" : 4,
   "linker_set_key" : "_ZTIPh",
   "name" : "unsigned char *",
   "referenced_type" : "_ZTIh",
   "self_type" : "_ZTIPh",
   "size" : 4,
   "source_file" : "system/core/libsystem/include/system/graphics.h"
  },
  {
   "alignment" : 4,
   "linker_set_key" : "_ZTIPi",
   "name" : "int *",
   "referenced_type" : "_ZTIi",
   "self_type" : "_ZTIPi",
   "size" : 4,
   "source_file" : "frameworks/av/media/ndk/include/media/NdkMediaFormat.h"
  },
  {
   "alignment" : 4,
   "linker_set_key" : "_ZTIPj",
   "name" : "unsigned int *",
   "referenced_type" : "_ZTIj",
   "self_type" : "_ZTIPj",
   "size" : 4,
   "source_file" : "frameworks/av/media/ndk/include/media/NdkMediaFormat.h"
  },
  {
   "alignment" : 4,
   "linker_set_key" : "_ZTIPv",
   "name" : "void *",
   "referenced_type" : "_ZTIv",
   "self_type" : "_ZTIPv",
   "size" : 4,
   "source_file" : "frameworks/av/media/ndk/include/media/NdkMediaFormat.h"
  },
  {
   "alignment" : 4,
   "linker_set_key" : "_ZTIPx",
   "name" : "long long *",
   "referenced_type" : "_ZTIx",
   "self_type" : "_ZTIPx",
   "size" : 4,
   "source_file" : "frameworks/av/media/ndk/include/media/NdkMediaFormat.h"
  }
 ],
 "qualified_types" :
 [
  {
   "alignment" : 1,
   "is_const" : true,
   "linker_set_key" : "_ZTIK8log_time",
   "name" : "const log_time",
   "referenced_type" : "_ZTI8log_time",
   "self_type" : "_ZTIK8log_time",
   "size" : 8,
   "source_file" : "system/logging/liblog/include/log/log_time.h"
  },
  {
   "alignment" : 4,
   "is_const" : true,
   "linker_set_key" : "_ZTIK8timespec",
   "name" : "const timespec",
   "referenced_type" : "_ZTI8timespec",
   "self_type" : "_ZTIK8timespec",
   "size" : 8,
   "source_file" : "system/logging/liblog/include/log/log_time.h"
  },
  {
   "alignment" : 4,
   "is_const" : true,
   "linker_set_key" : "_ZTIKN7android10VectorImplE",
   "name" : "const android::VectorImpl",
   "referenced_type" : "_ZTIN7android10VectorImplE",
   "self_type" : "_ZTIKN7android10VectorImplE",
   "size" : 20,
   "source_file" : "system/core/libutils/include/utils/VectorImpl.h"
  },
  {
   "alignment" : 4,
   "is_const" : true,
   "linker_set_key" : "_ZTIKN7android11KeyedVectorINS_7String8ES1_EE",
   "name" : "const android::KeyedVector<android::String8, android::String8>",
   "referenced_type" : "_ZTIN7android11KeyedVectorINS_7String8ES1_EE",
   "self_type" : "_ZTIKN7android11KeyedVectorINS_7String8ES1_EE",
   "size" : 20,
   "source_file" : "system/core/libutils/include/utils/KeyedVector.h"
  },
  {
   "alignment" : 4,
   "is_const" : true,
   "linker_set_key" : "_ZTIKN7android12SortedVectorINS_16key_value_pair_tINS_7String8ES2_EEEE",
   "name" : "const android::SortedVector<android::key_value_pair_t<android::String8, android::String8>>",
   "referenced_type" : "_ZTIN7android12SortedVectorINS_16key_value_pair_tINS_7String8ES2_EEEE",
   "self_type" : "_ZTIKN7android12SortedVectorINS_16key_value_pair_tINS_7String8ES2_EEEE",
   "size" : 20,
   "source_file" : "system/core/libutils/include/utils/SortedVector.h"
  },
  {
   "alignment" : 4,
   "is_const" : true,
   "linker_set_key" : "_ZTIKN7android16key_value_pair_tINS_7String8ES1_EE",
   "name" : "const android::key_value_pair_t<android::String8, android::String8>",
   "referenced_type" : "_ZTIN7android16key_value_pair_tINS_7String8ES1_EE",
   "self_type" : "_ZTIKN7android16key_value_pair_tINS_7String8ES1_EE",
   "size" : 8,
   "source_file" : "system/core/libutils/include/utils/TypeHelpers.h"
  },
  {
   "alignment" : 4,
   "is_const" : true,
   "linker_set_key" : "_ZTIKN7android2spINS_7ABufferEEE",
   "name" : "const android::sp<android::ABuffer>",
   "referenced_type" : "_ZTIN7android2spINS_7ABufferEEE",
   "self_type" : "_ZTIKN7android2spINS_7ABufferEEE",
   "size" : 4,
   "source_file" : "system/core/libutils/include/utils/StrongPointer.h"
  },
  {
   "alignment" : 4,
   "is_const" : true,
   "linker_set_key" : "_ZTIKN7android2spINS_7ALooperEEE",
   "name" : "const android::sp<android::ALooper>",
   "referenced_type" : "_ZTIN7android2spINS_7ALooperEEE",
   "self_type" : "_ZTIKN7android2spINS_7ALooperEEE",
   "size" : 4,
   "source_file" : "system/core/libutils/include/utils/RefBase.h"
  },
  {
   "alignment" : 4,
   "is_const" : true,
   "linker_set_key" : "_ZTIKN7android2spINS_8AMessageEEE",
   "name" : "const android::sp<android::AMessage>",
   "referenced_type" : "_ZTIN7android2spINS_8AMessageEEE",
   "self_type" : "_ZTIKN7android2spINS_8AMessageEEE",
   "size" : 4,
   "source_file" : "system/core/libutils/include/utils/StrongPointer.h"
  },
  {
   "alignment" : 4,
   "is_const" : true,
   "linker_set_key" : "_ZTIKN7android2wpINS_7ALooperEEE",
   "name" : "const android::wp<android::ALooper>",
   "referenced_type" : "_ZTIN7android2wpINS_7ALooperEEE",
   "self_type" : "_ZTIKN7android2wpINS_7ALooperEEE",
   "size" : 8,
   "source_file" : "system/core/libutils/include/utils/RefBase.h"
  },
  {
   "alignment" : 4,
   "is_const" : true,
   "linker_set_key" : "_ZTIKN7android7RefBaseE",
   "name" : "const android::RefBase",
   "referenced_type" : "_ZTIN7android7RefBaseE",
   "self_type" : "_ZTIKN7android7RefBaseE",
   "size" : 8,
   "source_file" : "system/core/libutils/include/utils/RefBase.h"
  },
  {
   "alignment" : 4,
   "is_const" : true,
   "linker_set_key" : "_ZTIKN7android7String8E",
   "name" : "const android::String8",
   "referenced_type" : "_ZTIN7android7String8E",
   "self_type" : "_ZTIKN7android7String8E",
   "size" : 4,
   "source_file" : "system/core/libutils/include/utils/TypeHelpers.h"
  },
  {
   "alignment" : 4,
   "is_const" : true,
   "linker_set_key" : "_ZTIKPN7android7RefBase12weakref_implE",
   "name" : "android::RefBase::weakref_impl *const",
   "referenced_type" : "_ZTIPN7android7RefBase12weakref_implE",
   "self_type" : "_ZTIKPN7android7RefBase12weakref_implE",
   "size" : 4,
   "source_file" : "system/core/libutils/include/utils/RefBase.h"
  },
  {
   "alignment" : 1,
   "is_const" : true,
   "linker_set_key" : "_ZTIKa",
   "name" : "const signed char",
   "referenced_type" : "_ZTIa",
   "self_type" : "_ZTIKa",
   "size" : 1,
   "source_file" : "system/core/libutils/include/utils/TypeHelpers.h"
  },
  {
   "alignment" : 1,
   "is_const" : true,
   "linker_set_key" : "_ZTIKb",
   "name" : "const bool",
   "referenced_type" : "_ZTIb",
   "self_type" : "_ZTIKb",
   "size" : 1,
   "source_file" : "system/core/libutils/include/utils/TypeHelpers.h"
  },
  {
   "alignment" : 1,
   "is_const" : true,
   "linker_set_key" : "_ZTIKc",
   "name" : "const char",
   "referenced_type" : "_ZTIc",
   "self_type" : "_ZTIKc",
   "size" : 1,
   "source_file" : "frameworks/av/media/ndk/include/media/NdkMediaFormat.h"
  },
  {
   "alignment" : 8,
   "is_const" : true,
   "linker_set_key" : "_ZTIKd",
   "name" : "const double",
   "referenced_type" : "_ZTId",
   "self_type" : "_ZTIKd",
   "size" : 8,
   "source_file" : "system/core/libutils/include/utils/TypeHelpers.h"
  },
  {
   "alignment" : 4,
   "is_const" : true,
   "linker_set_key" : "_ZTIKf",
   "name" : "const float",
   "referenced_type" : "_ZTIf",
   "self_type" : "_ZTIKf",
   "size" : 4,
   "source_file" : "system/core/libutils/include/utils/TypeHelpers.h"
  },
  {
   "alignment" : 1,
   "is_const" : true,
   "linker_set_key" : "_ZTIKh",
   "name" : "const unsigned char",
   "referenced_type" : "_ZTIh",
   "self_type" : "_ZTIKh",
   "size" : 1,
   "source_file" : "system/core/libutils/include/utils/TypeHelpers.h"
  },
  {
   "alignment" : 4,
   "is_const" : true,
   "linker_set_key" : "_ZTIKi",
   "name" : "const int",
   "referenced_type" : "_ZTIi",
   "self_type" : "_ZTIKi",
   "size" : 4,
   "source_file" : "system/core/libutils/include/utils/TypeHelpers.h"
  },
  {
   "alignment" : 4,
   "is_const" : true,
   "linker_set_key" : "_ZTIKj",
   "name" : "const unsigned int",
   "referenced_type" : "_ZTIj",
   "self_type" : "_ZTIKj",
   "size" : 4,
   "source_file" : "system/core/libutils/include/utils/TypeHelpers.h"
  },
  {
   "alignment" : 2,
   "is_const" : true,
   "linker_set_key" : "_ZTIKs",
   "name" : "const short",
   "referenced_type" : "_ZTIs",
   "self_type" : "_ZTIKs",
   "size" : 2,
   "source_file" : "system/core/libutils/include/utils/TypeHelpers.h"
  },
  {
   "alignment" : 2,
   "is_const" : true,
   "linker_set_key" : "_ZTIKt",
   "name" : "const unsigned short",
   "referenced_type" : "_ZTIt",
   "self_type" : "_ZTIKt",
   "size" : 2,
   "source_file" : "system/core/libutils/include/utils/TypeHelpers.h"
  },
  {
   "is_const" : true,
   "linker_set_key" : "_ZTIKv",
   "name" : "const void",
   "referenced_type" : "_ZTIv",
   "self_type" : "_ZTIKv",
   "source_file" : "frameworks/av/media/ndk/include/media/NdkMediaFormat.h"
  },
  {
   "alignment" : 8,
   "is_const" : true,
   "linker_set_key" : "_ZTIKx",
   "name" : "const long long",
   "referenced_type" : "_ZTIx",
   "self_type" : "_ZTIKx",
   "size" : 8,
   "source_file" : "system/core/libutils/include/utils/TypeHelpers.h"
  },
  {
   "alignment" : 8,
   "is_const" : true,
   "linker_set_key" : "_ZTIKy",
   "name" : "const unsigned long long",
   "referenced_type" : "_ZTIy",
   "self_type" : "_ZTIKy",
   "size" : 8,
   "source_file" : "system/core/libutils/include/utils/TypeHelpers.h"
  },
  {
   "alignment" : 1,
   "is_volatile" : true,
   "linker_set_key" : "_ZTIVb",
   "name" : "volatile bool",
   "referenced_type" : "_ZTIb",
   "self_type" : "_ZTIVb",
   "size" : 1,
   "source_file" : "system/core/libutils/include/utils/Thread.h"
  }
 ],
 "record_types" :
 [
  {
   "alignment" : 4,
   "fields" :
   [
    {
     "field_name" : "y",
     "referenced_type" : "_ZTIPv"
    },
    {
     "field_name" : "cb",
     "field_offset" : 32,
     "referenced_type" : "_ZTIPv"
    },
    {
     "field_name" : "cr",
     "field_offset" : 64,
     "referenced_type" : "_ZTIPv"
    },
    {
     "field_name" : "ystride",
     "field_offset" : 96,
     "referenced_type" : "_ZTIj"
    },
    {
     "field_name" : "cstride",
     "field_offset" : 128,
     "referenced_type" : "_ZTIj"
    },
    {
     "field_name" : "chroma_step",
     "field_offset" : 160,
     "referenced_type" : "_ZTIj"
    },
    {
     "field_name" : "reserved",
     "field_offset" : 192,
     "referenced_type" : "_ZTIA8_j"
    }
   ],
   "linker_set_key" : "_ZTI13android_ycbcr",
   "name" : "android_ycbcr",
   "referenced_type" : "_ZTI13android_ycbcr",
   "self_type" : "_ZTI13android_ycbcr",
   "size" : 56,
   "source_file" : "system/core/libsystem/include/system/graphics.h"
  },
  {
   "alignment" : 4,
   "fields" :
   [
    {
     "field_name" : "x",
     "referenced_type" : "_ZTIf"
    },
    {
     "field_name" : "y",
     "field_offset" : 32,
     "referenced_type" : "_ZTIf"
    }
   ],
   "linker_set_key" : "_ZTI16android_xy_color",
   "name" : "android_xy_color",
   "referenced_type" : "_ZTI16android_xy_color",
   "self_type" : "_ZTI16android_xy_color",
   "size" : 8,
   "source_file" : "system/core/libsystem/include/system/graphics.h"
  },
  {
   "alignment" : 4,
   "fields" :
   [
    {
     "field_name" : "top_left",
     "referenced_type" : "_ZTIPh"
    },
    {
     "field_name" : "component",
     "field_offset" : 32,
     "referenced_type" : "_ZTI22android_flex_component"
    },
    {
     "field_name" : "bits_per_component",
     "field_offset" : 64,
     "referenced_type" : "_ZTIi"
    },
    {
     "field_name" : "bits_used",
     "field_offset" : 96,
     "referenced_type" : "_ZTIi"
    },
    {
     "field_name" : "h_increment",
     "field_offset" : 128,
     "referenced_type" : "_ZTIi"
    },
    {
     "field_name" : "v_increment",
     "field_offset" : 160,
     "referenced_type" : "_ZTIi"
    },
    {
     "field_name" : "h_subsampling",
     "field_offset" : 192,
     "referenced_type" : "_ZTIi"
    },
    {
     "field_name" : "v_subsampling",
     "field_offset" : 224,
     "referenced_type" : "_ZTIi"
    }
   ],
   "linker_set_key" : "_ZTI18android_flex_plane",
   "name" : "android_flex_plane",
   "referenced_type" : "_ZTI18android_flex_plane",
   "self_type" : "_ZTI18android_flex_plane",
   "size" : 32,
   "source_file" : "system/core/libsystem/include/system/graphics.h"
  },
  {
   "alignment" : 4,
   "fields" :
   [
    {
     "field_name" : "format",
     "referenced_type" : "_ZTI19android_flex_format"
    },
    {
     "field_name" : "num_planes",
     "field_offset" : 32,
     "referenced_type" : "_ZTIj"
    },
    {
     "field_name" : "planes",
     "field_offset" : 64,
     "referenced_type" : "_ZTIP18android_flex_plane"
    }
   ],
   "linker_set_key" : "_ZTI19android_flex_layout",
   "name" : "android_flex_layout",
   "referenced_type" : "_ZTI19android_flex_layout",
   "self_type" : "_ZTI19android_flex_layout",
   "size" : 12,
   "source_file" : "system/core/libsystem/include/system/graphics.h"
  },
  {
   "alignment" : 4,
   "fields" :
   [
    {
     "field_name" : "num_points",
     "referenced_type" : "_ZTIj"
    },
    {
     "field_name" : "reserved",
     "field_offset" : 32,
     "referenced_type" : "_ZTIA8_j"
    },
    {
     "field_name" : "xyzc_points",
     "field_offset" : 288,
     "referenced_type" : "_ZTIA_f"
    }
   ],
   "linker_set_key" : "_ZTI20android_depth_points",
   "name" : "android_depth_points",
   "referenced_type" : "_ZTI20android_depth_points",
   "self_type" : "_ZTI20android_depth_points",
   "size" : 36,
   "source_file" : "system/core/libsystem/include/system/graphics.h"
  },
  {
   "alignment" : 4,
   "fields" :
   [
    {
     "field_name" : "struct_size",
     "referenced_type" : "_ZTIj"
    },
    {
     "field_name" : "buffer_id",
     "field_offset" : 32,
     "referenced_type" : "_ZTIi"
    },
    {
     "field_name" : "priority",
     "field_offset" : 64,
     "referenced_type" : "_ZTIi"
    },
    {
     "field_name" : "tag",
     "field_offset" : 96,
     "referenced_type" : "_ZTIPKc"
    },
    {
     "field_name" : "file",
     "field_offset" : 128,
     "referenced_type" : "_ZTIPKc"
    },
    {
     "field_name" : "line",
     "field_offset" : 160,
     "referenced_type" : "_ZTIj"
    },
    {
     "field_name" : "message",
     "field_offset" : 192,
     "referenced_type" : "_ZTIPKc"
    }
   ],
   "linker_set_key" : "_ZTI21__android_log_message",
   "name" : "__android_log_message",
   "referenced_type" : "_ZTI21__android_log_message",
   "self_type" : "_ZTI21__android_log_message",
   "size" : 28,
   "source_file" : "system/logging/liblog/include/android/log.h"
  },
  {
   "alignment" : 4,
   "fields" :
   [
    {
     "field_name" : "maxContentLightLevel",
     "referenced_type" : "_ZTIf"
    },
    {
     "field_name" : "maxFrameAverageLightLevel",
     "field_offset" : 32,
     "referenced_type" : "_ZTIf"
    }
   ],
   "linker_set_key" : "_ZTI25android_cta861_3_metadata",
   "name" : "android_cta861_3_metadata",
   "referenced_type" : "_ZTI25android_cta861_3_metadata",
   "self_type" : "_ZTI25android_cta861_3_metadata",
   "size" : 8,
   "source_file" : "system/core/libsystem/include/system/graphics.h"
  },
  {
   "alignment" : 4,
   "fields" :
   [
    {
     "field_name" : "displayPrimaryRed",
     "referenced_type" : "_ZTI16android_xy_color"
    },
    {
     "field_name" : "displayPrimaryGreen",
     "field_offset" : 64,
     "referenced_type" : "_ZTI16android_xy_color"
    },
    {
     "field_name" : "displayPrimaryBlue",
     "field_offset" : 128,
     "referenced_type" : "_ZTI16android_xy_color"
    },
    {
     "field_name" : "whitePoint",
     "field_offset" : 192,
     "referenced_type" : "_ZTI16android_xy_color"
    },
    {
     "field_name" : "maxLuminance",
     "field_offset" : 256,
     "referenced_type" : "_ZTIf"
    },
    {
     "field_name" : "minLuminance",
     "field_offset" : 288,
     "referenced_type" : "_ZTIf"
    }
   ],
   "linker_set_key" : "_ZTI26android_smpte2086_metadata",
   "name" : "android_smpte2086_metadata",
   "referenced_type" : "_ZTI26android_smpte2086_metadata",
   "self_type" : "_ZTI26android_smpte2086_metadata",
   "size" : 40,
   "source_file" : "system/core/libsystem/include/system/graphics.h"
  },
  {
   "alignment" : 1,
   "fields" :
   [
    {
     "field_name" : "tv_sec",
     "referenced_type" : "_ZTIj"
    },
    {
     "field_name" : "tv_nsec",
     "field_offset" : 32,
     "referenced_type" : "_ZTIj"
    }
   ],
   "linker_set_key" : "_ZTI8log_time",
   "name" : "log_time",
   "referenced_type" : "_ZTI8log_time",
   "self_type" : "_ZTI8log_time",
   "size" : 8,
   "source_file" : "system/logging/liblog/include/log/log_time.h"
  },
  {
   "alignment" : 4,
   "fields" :
   [
    {
     "access" : "private",
     "field_name" : "mStorage",
     "field_offset" : 32,
     "referenced_type" : "_ZTIPv"
    },
    {
     "access" : "private",
     "field_name" : "mCount",
     "field_offset" : 64,
     "referenced_type" : "_ZTIj"
    },
    {
     "access" : "private",
     "field_name" : "mFlags",
     "field_offset" : 96,
     "referenced_type" : "_ZTIKj"
    },
    {
     "access" : "private",
     "field_name" : "mItemSize",
     "field_offset" : 128,
     "referenced_type" : "_ZTIKj"
    }
   ],
   "linker_set_key" : "_ZTIN7android10VectorImplE",
   "name" : "android::VectorImpl",
   "record_kind" : "class",
   "referenced_type" : "_ZTIN7android10VectorImplE",
   "self_type" : "_ZTIN7android10VectorImplE",
   "size" : 20,
   "source_file" : "system/core/libutils/include/utils/VectorImpl.h",
   "vtable_components" :
   [
    {
     "kind" : "offset_to_top"
    },
    {
     "kind" : "rtti",
     "mangled_component_name" : "_ZTIN7android10VectorImplE"
    },
    {
     "kind" : "complete_dtor_pointer",
     "mangled_component_name" : "_ZN7android10VectorImplD1Ev"
    },
    {
     "kind" : "deleting_dtor_pointer",
     "mangled_component_name" : "_ZN7android10VectorImplD0Ev"
    },
    {
     "is_pure" : true,
     "mangled_component_name" : "_ZNK7android10VectorImpl12do_constructEPvj"
    },
    {
     "is_pure" : true,
     "mangled_component_name" : "_ZNK7android10VectorImpl10do_destroyEPvj"
    },
    {
     "is_pure" : true,
     "mangled_component_name" : "_ZNK7android10VectorImpl7do_copyEPvPKvj"
    },
    {
     "is_pure" : true,
     "mangled_component_name" : "_ZNK7android10VectorImpl8do_splatEPvPKvj"
    },
    {
     "is_pure" : true,
     "mangled_component_name" : "_ZNK7android10VectorImpl15do_move_forwardEPvPKvj"
    },
    {
     "is_pure" : true,
     "mangled_component_name" : "_ZNK7android10VectorImpl16do_move_backwardEPvPKvj"
    }
   ]
  },
  {
   "alignment" : 4,
   "fields" :
   [
    {
     "access" : "private",
     "field_name" : "mVector",
     "referenced_type" : "_ZTIN7android12SortedVectorINS_16key_value_pair_tINS_7String8ES2_EEEE"
    }
   ],
   "linker_set_key" : "_ZTIN7android11KeyedVectorINS_7String8ES1_EE",
   "name" : "android::KeyedVector<android::String8, android::String8>",
   "record_kind" : "class",
   "referenced_type" : "_ZTIN7android11KeyedVectorINS_7String8ES1_EE",
   "self_type" : "_ZTIN7android11KeyedVectorINS_7String8ES1_EE",
   "size" : 20,
   "source_file" : "system/core/libutils/include/utils/KeyedVector.h",
   "template_args" : [ "_ZTIN7android7String8E", "_ZTIN7android7String8E" ]
  },
  {
   "alignment" : 4,
   "fields" :
   [
    {
     "access" : "private",
     "field_name" : "mCount",
     "referenced_type" : "_ZTINSt3__16atomicIiEE"
    }
   ],
   "linker_set_key" : "_ZTIN7android12LightRefBaseINS_19VirtualLightRefBaseEEE",
   "name" : "android::LightRefBase<android::VirtualLightRefBase>",
   "record_kind" : "class",
   "referenced_type" : "_ZTIN7android12LightRefBaseINS_19VirtualLightRefBaseEEE",
   "self_type" : "_ZTIN7android12LightRefBaseINS_19VirtualLightRefBaseEEE",
   "size" : 4,
   "source_file" : "system/core/libutils/include/utils/LightRefBase.h",
   "template_args" : [ "_ZTIN7android19VirtualLightRefBaseE" ]
  },
  {
   "alignment" : 4,
   "base_specifiers" :
   [
    {
     "access" : "private",
     "referenced_type" : "_ZTIN7android16SortedVectorImplE"
    }
   ],
   "linker_set_key" : "_ZTIN7android12SortedVectorINS_16key_value_pair_tINS_7String8ES2_EEEE",
   "name" : "android::SortedVector<android::key_value_pair_t<android::String8, android::String8>>",
   "record_kind" : "class",
   "referenced_type" : "_ZTIN7android12SortedVectorINS_16key_value_pair_tINS_7String8ES2_EEEE",
   "self_type" : "_ZTIN7android12SortedVectorINS_16key_value_pair_tINS_7String8ES2_EEEE",
   "size" : 20,
   "source_file" : "system/core/libutils/include/utils/SortedVector.h",
   "template_args" : [ "_ZTIN7android16key_value_pair_tINS_7String8ES1_EE" ],
   "vtable_components" :
   [
    {
     "kind" : "offset_to_top"
    },
    {
     "kind" : "rtti",
     "mangled_component_name" : "_ZTIN7android12SortedVectorINS_16key_value_pair_tINS_7String8ES2_EEEE"
    },
    {
     "kind" : "complete_dtor_pointer",
     "mangled_component_name" : "_ZN7android12SortedVectorINS_16key_value_pair_tINS_7String8ES2_EEED1Ev"
    },
    {
     "kind" : "deleting_dtor_pointer",
     "mangled_component_name" : "_ZN7android12SortedVectorINS_16key_value_pair_tINS_7String8ES2_EEED0Ev"
    },
    {
     "mangled_component_name" : "_ZNK7android12SortedVectorINS_16key_value_pair_tINS_7String8ES2_EEE12do_constructEPvj"
    },
    {
     "mangled_component_name" : "_ZNK7android12SortedVectorINS_16key_value_pair_tINS_7String8ES2_EEE10do_destroyEPvj"
    },
    {
     "mangled_component_name" : "_ZNK7android12SortedVectorINS_16key_value_pair_tINS_7String8ES2_EEE7do_copyEPvPKvj"
    },
    {
     "mangled_component_name" : "_ZNK7android12SortedVectorINS_16key_value_pair_tINS_7String8ES2_EEE8do_splatEPvPKvj"
    },
    {
     "mangled_component_name" : "_ZNK7android12SortedVectorINS_16key_value_pair_tINS_7String8ES2_EEE15do_move_forwardEPvPKvj"
    },
    {
     "mangled_component_name" : "_ZNK7android12SortedVectorINS_16key_value_pair_tINS_7String8ES2_EEE16do_move_backwardEPvPKvj"
    },
    {
     "mangled_component_name" : "_ZNK7android12SortedVectorINS_16key_value_pair_tINS_7String8ES2_EEE10do_compareEPKvS6_"
    }
   ]
  },
  {
   "alignment" : 1,
   "linker_set_key" : "_ZTIN7android13trait_pointerINS_16key_value_pair_tINS_7String8ES2_EEEE",
   "name" : "android::trait_pointer<android::key_value_pair_t<android::String8, android::String8>>",
   "referenced_type" : "_ZTIN7android13trait_pointerINS_16key_value_pair_tINS_7String8ES2_EEEE",
   "self_type" : "_ZTIN7android13trait_pointerINS_16key_value_pair_tINS_7String8ES2_EEEE",
   "size" : 1,
   "source_file" : "system/core/libutils/include/utils/TypeHelpers.h",
   "template_args" : [ "_ZTIN7android16key_value_pair_tINS_7String8ES1_EE" ]
  },
  {
   "alignment" : 1,
   "linker_set_key" : "_ZTIN7android13trait_pointerINS_7String8EEE",
   "name" : "android::trait_pointer<android::String8>",
   "referenced_type" : "_ZTIN7android13trait_pointerINS_7String8EEE",
   "self_type" : "_ZTIN7android13trait_pointerINS_7String8EEE",
   "size" : 1,
   "source_file" : "system/core/libutils/include/utils/TypeHelpers.h",
   "template_args" : [ "_ZTIN7android7String8E" ]
  },
  {
   "alignment" : 1,
   "linker_set_key" : "_ZTIN7android14ReferenceMoverE",
   "name" : "android::ReferenceMover",
   "record_kind" : "class",
   "referenced_type" : "_ZTIN7android14ReferenceMoverE",
   "self_type" : "_ZTIN7android14ReferenceMoverE",
   "size" : 1,
   "source_file" : "system/core/libutils/include/utils/RefBase.h"
  },
  {
   "alignment" : 4,
   "linker_set_key" : "_ZTIN7android16ReferenceRenamerE",
   "name" : "android::ReferenceRenamer",
   "record_kind" : "class",
   "referenced_type" : "_ZTIN7android16ReferenceRenamerE",
   "self_type" : "_ZTIN7android16ReferenceRenamerE",
   "size" : 4,
   "source_file" : "system/core/libutils/include/utils/RefBase.h",
   "vtable_components" :
   [
    {
     "kind" : "offset_to_top"
    },
    {
     "kind" : "rtti",
     "mangled_component_name" : "_ZTIN7android16ReferenceRenamerE"
    },
    {
     "is_pure" : true,
     "mangled_component_name" : "_ZNK7android16ReferenceRenamerclEj"
    }
   ]
  },
  {
   "alignment" : 4,
   "base_specifiers" :
   [
    {
     "referenced_type" : "_ZTIN7android10VectorImplE"
    }
   ],
   "linker_set_key" : "_ZTIN7android16SortedVectorImplE",
   "name" : "android::SortedVectorImpl",
   "record_kind" : "class",
   "referenced_type" : "_ZTIN7android16SortedVectorImplE",
   "self_type" : "_ZTIN7android16SortedVectorImplE",
   "size" : 20,
   "source_file" : "system/core/libutils/include/utils/VectorImpl.h",
   "vtable_components" :
   [
    {
     "kind" : "offset_to_top"
    },
    {
     "kind" : "rtti",
     "mangled_component_name" : "_ZTIN7android16SortedVectorImplE"
    },
    {
     "kind" : "complete_dtor_pointer",
     "mangled_component_name" : "_ZN7android16SortedVectorImplD1Ev"
    },
    {
     "kind" : "deleting_dtor_pointer",
     "mangled_component_name" : "_ZN7android16SortedVectorImplD0Ev"
    },
    {
     "is_pure" : true,
     "mangled_component_name" : "_ZNK7android10VectorImpl12do_constructEPvj"
    },
    {
     "is_pure" : true,
     "mangled_component_name" : "_ZNK7android10VectorImpl10do_destroyEPvj"
    },
    {
     "is_pure" : true,
     "mangled_component_name" : "_ZNK7android10VectorImpl7do_copyEPvPKvj"
    },
    {
     "is_pure" : true,
     "mangled_component_name" : "_ZNK7android10VectorImpl8do_splatEPvPKvj"
    },
    {
     "is_pure" : true,
     "mangled_component_name" : "_ZNK7android10VectorImpl15do_move_forwardEPvPKvj"
    },
    {
     "is_pure" : true,
     "mangled_component_name" : "_ZNK7android10VectorImpl16do_move_backwardEPvPKvj"
    },
    {
     "is_pure" : true,
     "mangled_component_name" : "_ZNK7android16SortedVectorImpl10do_compareEPKvS2_"
    }
   ]
  },
  {
   "alignment" : 1,
   "linker_set_key" : "_ZTIN7android16aggregate_traitsINS_7String8ES1_EE",
   "name" : "android::aggregate_traits<android::String8, android::String8>",
   "referenced_type" : "_ZTIN7android16aggregate_traitsINS_7String8ES1_EE",
   "self_type" : "_ZTIN7android16aggregate_traitsINS_7String8ES1_EE",
   "size" : 1,
   "source_file" : "system/core/libutils/include/utils/TypeHelpers.h",
   "template_args" : [ "_ZTIN7android7String8E", "_ZTIN7android7String8E" ]
  },
  {
   "alignment" : 4,
   "fields" :
   [
    {
     "field_name" : "key",
     "referenced_type" : "_ZTIN7android7String8E"
    },
    {
     "field_name" : "value",
     "field_offset" : 32,
     "referenced_type" : "_ZTIN7android7String8E"
    }
   ],
   "linker_set_key" : "_ZTIN7android16key_value_pair_tINS_7String8ES1_EE",
   "name" : "android::key_value_pair_t<android::String8, android::String8>",
   "referenced_type" : "_ZTIN7android16key_value_pair_tINS_7String8ES1_EE",
   "self_type" : "_ZTIN7android16key_value_pair_tINS_7String8ES1_EE",
   "size" : 8,
   "source_file" : "system/core/libutils/include/utils/TypeHelpers.h",
   "template_args" : [ "_ZTIN7android7String8E", "_ZTIN7android7String8E" ]
  },
  {
   "alignment" : 1,
   "base_specifiers" :
   [
    {
     "referenced_type" : "_ZTINSt3__117integral_constantIbLb1EEE"
    }
   ],
   "linker_set_key" : "_ZTIN7android16use_trivial_moveINS_16key_value_pair_tINS_7String8ES2_EEEE",
   "name" : "android::use_trivial_move<android::key_value_pair_t<android::String8, android::String8>>",
   "referenced_type" : "_ZTIN7android16use_trivial_moveINS_16key_value_pair_tINS_7String8ES2_EEEE",
   "self_type" : "_ZTIN7android16use_trivial_moveINS_16key_value_pair_tINS_7String8ES2_EEEE",
   "size" : 1,
   "source_file" : "system/core/libutils/include/utils/TypeHelpers.h",
   "template_args" : [ "_ZTIN7android16key_value_pair_tINS_7String8ES1_EE" ]
  },
  {
   "alignment" : 1,
   "linker_set_key" : "_ZTIN7android18trait_trivial_copyINS_16key_value_pair_tINS_7String8ES2_EEEE",
   "name" : "android::trait_trivial_copy<android::key_value_pair_t<android::String8, android::String8>>",
   "referenced_type" : "_ZTIN7android18trait_trivial_copyINS_16key_value_pair_tINS_7String8ES2_EEEE",
   "self_type" : "_ZTIN7android18trait_trivial_copyINS_16key_value_pair_tINS_7String8ES2_EEEE",
   "size" : 1,
   "source_file" : "system/core/libutils/include/utils/TypeHelpers.h",
   "template_args" : [ "_ZTIN7android16key_value_pair_tINS_7String8ES1_EE" ]
  },
  {
   "alignment" : 1,
   "linker_set_key" : "_ZTIN7android18trait_trivial_copyINS_7String8EEE",
   "name" : "android::trait_trivial_copy<android::String8>",
   "referenced_type" : "_ZTIN7android18trait_trivial_copyINS_7String8EEE",
   "self_type" : "_ZTIN7android18trait_trivial_copyINS_7String8EEE",
   "size" : 1,
   "source_file" : "system/core/libutils/include/utils/TypeHelpers.h",
   "template_args" : [ "_ZTIN7android7String8E" ]
  },
  {
   "alignment" : 1,
   "linker_set_key" : "_ZTIN7android18trait_trivial_copyIbEE",
   "name" : "android::trait_trivial_copy<bool>",
   "referenced_type" : "_ZTIN7android18trait_trivial_copyIbEE",
   "self_type" : "_ZTIN7android18trait_trivial_copyIbEE",
   "size" : 1,
   "source_file" : "system/core/libutils/include/utils/TypeHelpers.h",
   "template_args" : [ "_ZTIb" ]
  },
  {
   "alignment" : 1,
   "linker_set_key" : "_ZTIN7android18trait_trivial_copyIcEE",
   "name" : "android::trait_trivial_copy<char>",
   "referenced_type" : "_ZTIN7android18trait_trivial_copyIcEE",
   "self_type" : "_ZTIN7android18trait_trivial_copyIcEE",
   "size" : 1,
   "source_file" : "system/core/libutils/include/utils/TypeHelpers.h",
   "template_args" : [ "_ZTIc" ]
  },
  {
   "alignment" : 1,
   "linker_set_key" : "_ZTIN7android18trait_trivial_copyIdEE",
   "name" : "android::trait_trivial_copy<double>",
   "referenced_type" : "_ZTIN7android18trait_trivial_copyIdEE",
   "self_type" : "_ZTIN7android18trait_trivial_copyIdEE",
   "size" : 1,
   "source_file" : "system/core/libutils/include/utils/TypeHelpers.h",
   "template_args" : [ "_ZTId" ]
  },
  {
   "alignment" : 1,
   "linker_set_key" : "_ZTIN7android18trait_trivial_copyIfEE",
   "name" : "android::trait_trivial_copy<float>",
   "referenced_type" : "_ZTIN7android18trait_trivial_copyIfEE",
   "self_type" : "_ZTIN7android18trait_trivial_copyIfEE",
   "size" : 1,
   "source_file" : "system/core/libutils/include/utils/TypeHelpers.h",
   "template_args" : [ "_ZTIf" ]
  },
  {
   "alignment" : 1,
   "linker_set_key" : "_ZTIN7android18trait_trivial_copyIhEE",
   "name" : "android::trait_trivial_copy<unsigned char>",
   "referenced_type" : "_ZTIN7android18trait_trivial_copyIhEE",
   "self_type" : "_ZTIN7android18trait_trivial_copyIhEE",
   "size" : 1,
   "source_file" : "system/core/libutils/include/utils/TypeHelpers.h",
   "template_args" : [ "_ZTIh" ]
  },
  {
   "alignment" : 1,
   "linker_set_key" : "_ZTIN7android18trait_trivial_copyIiEE",
   "name" : "android::trait_trivial_copy<int>",
   "referenced_type" : "_ZTIN7android18trait_trivial_copyIiEE",
   "self_type" : "_ZTIN7android18trait_trivial_copyIiEE",
   "size" : 1,
   "source_file" : "system/core/libutils/include/utils/TypeHelpers.h",
   "template_args" : [ "_ZTIi" ]
  },
  {
   "alignment" : 1,
   "linker_set_key" : "_ZTIN7android18trait_trivial_copyIjEE",
   "name" : "android::trait_trivial_copy<unsigned int>",
   "referenced_type" : "_ZTIN7android18trait_trivial_copyIjEE",
   "self_type" : "_ZTIN7android18trait_trivial_copyIjEE",
   "size" : 1,
   "source_file" : "system/core/libutils/include/utils/TypeHelpers.h",
   "template_args" : [ "_ZTIj" ]
  },
  {
   "alignment" : 1,
   "linker_set_key" : "_ZTIN7android18trait_trivial_copyIlEE",
   "name" : "android::trait_trivial_copy<long>",
   "referenced_type" : "_ZTIN7android18trait_trivial_copyIlEE",
   "self_type" : "_ZTIN7android18trait_trivial_copyIlEE",
   "size" : 1,
   "source_file" : "system/core/libutils/include/utils/TypeHelpers.h",
   "template_args" : [ "_ZTIl" ]
  },
  {
   "alignment" : 1,
   "linker_set_key" : "_ZTIN7android18trait_trivial_copyImEE",
   "name" : "android::trait_trivial_copy<unsigned long>",
   "referenced_type" : "_ZTIN7android18trait_trivial_copyImEE",
   "self_type" : "_ZTIN7android18trait_trivial_copyImEE",
   "size" : 1,
   "source_file" : "system/core/libutils/include/utils/TypeHelpers.h",
   "template_args" : [ "_ZTIm" ]
  },
  {
   "alignment" : 1,
   "linker_set_key" : "_ZTIN7android18trait_trivial_copyIsEE",
   "name" : "android::trait_trivial_copy<short>",
   "referenced_type" : "_ZTIN7android18trait_trivial_copyIsEE",
   "self_type" : "_ZTIN7android18trait_trivial_copyIsEE",
   "size" : 1,
   "source_file" : "system/core/libutils/include/utils/TypeHelpers.h",
   "template_args" : [ "_ZTIs" ]
  },
  {
   "alignment" : 1,
   "linker_set_key" : "_ZTIN7android18trait_trivial_copyItEE",
   "name" : "android::trait_trivial_copy<unsigned short>",
   "referenced_type" : "_ZTIN7android18trait_trivial_copyItEE",
   "self_type" : "_ZTIN7android18trait_trivial_copyItEE",
   "size" : 1,
   "source_file" : "system/core/libutils/include/utils/TypeHelpers.h",
   "template_args" : [ "_ZTIt" ]
  },
  {
   "alignment" : 1,
   "linker_set_key" : "_ZTIN7android18trait_trivial_copyIvEE",
   "name" : "android::trait_trivial_copy<void>",
   "referenced_type" : "_ZTIN7android18trait_trivial_copyIvEE",
   "self_type" : "_ZTIN7android18trait_trivial_copyIvEE",
   "size" : 1,
   "source_file" : "system/core/libutils/include/utils/TypeHelpers.h",
   "template_args" : [ "_ZTIv" ]
  },
  {
   "alignment" : 1,
   "linker_set_key" : "_ZTIN7android18trait_trivial_copyIxEE",
   "name" : "android::trait_trivial_copy<long long>",
   "referenced_type" : "_ZTIN7android18trait_trivial_copyIxEE",
   "self_type" : "_ZTIN7android18trait_trivial_copyIxEE",
   "size" : 1,
   "source_file" : "system/core/libutils/include/utils/TypeHelpers.h",
   "template_args" : [ "_ZTIx" ]
  },
  {
   "alignment" : 1,
   "linker_set_key" : "_ZTIN7android18trait_trivial_copyIyEE",
   "name" : "android::trait_trivial_copy<unsigned long long>",
   "referenced_type" : "_ZTIN7android18trait_trivial_copyIyEE",
   "self_type" : "_ZTIN7android18trait_trivial_copyIyEE",
   "size" : 1,
   "source_file" : "system/core/libutils/include/utils/TypeHelpers.h",
   "template_args" : [ "_ZTIy" ]
  },
  {
   "alignment" : 1,
   "linker_set_key" : "_ZTIN7android18trait_trivial_ctorINS_16key_value_pair_tINS_7String8ES2_EEEE",
   "name" : "android::trait_trivial_ctor<android::key_value_pair_t<android::String8, android::String8>>",
   "referenced_type" : "_ZTIN7android18trait_trivial_ctorINS_16key_value_pair_tINS_7String8ES2_EEEE",
   "self_type" : "_ZTIN7android18trait_trivial_ctorINS_16key_value_pair_tINS_7String8ES2_EEEE",
   "size" : 1,
   "source_file" : "system/core/libutils/include/utils/TypeHelpers.h",
   "template_args" : [ "_ZTIN7android16key_value_pair_tINS_7String8ES1_EE" ]
  },
  {
   "alignment" : 1,
   "linker_set_key" : "_ZTIN7android18trait_trivial_ctorINS_7String8EEE",
   "name" : "android::trait_trivial_ctor<android::String8>",
   "referenced_type" : "_ZTIN7android18trait_trivial_ctorINS_7String8EEE",
   "self_type" : "_ZTIN7android18trait_trivial_ctorINS_7String8EEE",
   "size" : 1,
   "source_file" : "system/core/libutils/include/utils/TypeHelpers.h",
   "template_args" : [ "_ZTIN7android7String8E" ]
  },
  {
   "alignment" : 1,
   "linker_set_key" : "_ZTIN7android18trait_trivial_ctorIbEE",
   "name" : "android::trait_trivial_ctor<bool>",
   "referenced_type" : "_ZTIN7android18trait_trivial_ctorIbEE",
   "self_type" : "_ZTIN7android18trait_trivial_ctorIbEE",
   "size" : 1,
   "source_file" : "system/core/libutils/include/utils/TypeHelpers.h",
   "template_args" : [ "_ZTIb" ]
  },
  {
   "alignment" : 1,
   "linker_set_key" : "_ZTIN7android18trait_trivial_ctorIcEE",
   "name" : "android::trait_trivial_ctor<char>",
   "referenced_type" : "_ZTIN7android18trait_trivial_ctorIcEE",
   "self_type" : "_ZTIN7android18trait_trivial_ctorIcEE",
   "size" : 1,
   "source_file" : "system/core/libutils/include/utils/TypeHelpers.h",
   "template_args" : [ "_ZTIc" ]
  },
  {
   "alignment" : 1,
   "linker_set_key" : "_ZTIN7android18trait_trivial_ctorIdEE",
   "name" : "android::trait_trivial_ctor<double>",
   "referenced_type" : "_ZTIN7android18trait_trivial_ctorIdEE",
   "self_type" : "_ZTIN7android18trait_trivial_ctorIdEE",
   "size" : 1,
   "source_file" : "system/core/libutils/include/utils/TypeHelpers.h",
   "template_args" : [ "_ZTId" ]
  },
  {
   "alignment" : 1,
   "linker_set_key" : "_ZTIN7android18trait_trivial_ctorIfEE",
   "name" : "android::trait_trivial_ctor<float>",
   "referenced_type" : "_ZTIN7android18trait_trivial_ctorIfEE",
   "self_type" : "_ZTIN7android18trait_trivial_ctorIfEE",
   "size" : 1,
   "source_file" : "system/core/libutils/include/utils/TypeHelpers.h",
   "template_args" : [ "_ZTIf" ]
  },
  {
   "alignment" : 1,
   "linker_set_key" : "_ZTIN7android18trait_trivial_ctorIhEE",
   "name" : "android::trait_trivial_ctor<unsigned char>",
   "referenced_type" : "_ZTIN7android18trait_trivial_ctorIhEE",
   "self_type" : "_ZTIN7android18trait_trivial_ctorIhEE",
   "size" : 1,
   "source_file" : "system/core/libutils/include/utils/TypeHelpers.h",
   "template_args" : [ "_ZTIh" ]
  },
  {
   "alignment" : 1,
   "linker_set_key" : "_ZTIN7android18trait_trivial_ctorIiEE",
   "name" : "android::trait_trivial_ctor<int>",
   "referenced_type" : "_ZTIN7android18trait_trivial_ctorIiEE",
   "self_type" : "_ZTIN7android18trait_trivial_ctorIiEE",
   "size" : 1,
   "source_file" : "system/core/libutils/include/utils/TypeHelpers.h",
   "template_args" : [ "_ZTIi" ]
  },
  {
   "alignment" : 1,
   "linker_set_key" : "_ZTIN7android18trait_trivial_ctorIjEE",
   "name" : "android::trait_trivial_ctor<unsigned int>",
   "referenced_type" : "_ZTIN7android18trait_trivial_ctorIjEE",
   "self_type" : "_ZTIN7android18trait_trivial_ctorIjEE",
   "size" : 1,
   "source_file" : "system/core/libutils/include/utils/TypeHelpers.h",
   "template_args" : [ "_ZTIj" ]
  },
  {
   "alignment" : 1,
   "linker_set_key" : "_ZTIN7android18trait_trivial_ctorIlEE",
   "name" : "android::trait_trivial_ctor<long>",
   "referenced_type" : "_ZTIN7android18trait_trivial_ctorIlEE",
   "self_type" : "_ZTIN7android18trait_trivial_ctorIlEE",
   "size" : 1,
   "source_file" : "system/core/libutils/include/utils/TypeHelpers.h",
   "template_args" : [ "_ZTIl" ]
  },
  {
   "alignment" : 1,
   "linker_set_key" : "_ZTIN7android18trait_trivial_ctorImEE",
   "name" : "android::trait_trivial_ctor<unsigned long>",
   "referenced_type" : "_ZTIN7android18trait_trivial_ctorImEE",
   "self_type" : "_ZTIN7android18trait_trivial_ctorImEE",
   "size" : 1,
   "source_file" : "system/core/libutils/include/utils/TypeHelpers.h",
   "template_args" : [ "_ZTIm" ]
  },
  {
   "alignment" : 1,
   "linker_set_key" : "_ZTIN7android18trait_trivial_ctorIsEE",
   "name" : "android::trait_trivial_ctor<short>",
   "referenced_type" : "_ZTIN7android18trait_trivial_ctorIsEE",
   "self_type" : "_ZTIN7android18trait_trivial_ctorIsEE",
   "size" : 1,
   "source_file" : "system/core/libutils/include/utils/TypeHelpers.h",
   "template_args" : [ "_ZTIs" ]
  },
  {
   "alignment" : 1,
   "linker_set_key" : "_ZTIN7android18trait_trivial_ctorItEE",
   "name" : "android::trait_trivial_ctor<unsigned short>",
   "referenced_type" : "_ZTIN7android18trait_trivial_ctorItEE",
   "self_type" : "_ZTIN7android18trait_trivial_ctorItEE",
   "size" : 1,
   "source_file" : "system/core/libutils/include/utils/TypeHelpers.h",
   "template_args" : [ "_ZTIt" ]
  },
  {
   "alignment" : 1,
   "linker_set_key" : "_ZTIN7android18trait_trivial_ctorIvEE",
   "name" : "android::trait_trivial_ctor<void>",
   "referenced_type" : "_ZTIN7android18trait_trivial_ctorIvEE",
   "self_type" : "_ZTIN7android18trait_trivial_ctorIvEE",
   "size" : 1,
   "source_file" : "system/core/libutils/include/utils/TypeHelpers.h",
   "template_args" : [ "_ZTIv" ]
  },
  {
   "alignment" : 1,
   "linker_set_key" : "_ZTIN7android18trait_trivial_ctorIxEE",
   "name" : "android::trait_trivial_ctor<long long>",
   "referenced_type" : "_ZTIN7android18trait_trivial_ctorIxEE",
   "self_type" : "_ZTIN7android18trait_trivial_ctorIxEE",
   "size" : 1,
   "source_file" : "system/core/libutils/include/utils/TypeHelpers.h",
   "template_args" : [ "_ZTIx" ]
  },
  {
   "alignment" : 1,
   "linker_set_key" : "_ZTIN7android18trait_trivial_ctorIyEE",
   "name" : "android::trait_trivial_ctor<unsigned long long>",
   "referenced_type" : "_ZTIN7android18trait_trivial_ctorIyEE",
   "self_type" : "_ZTIN7android18trait_trivial_ctorIyEE",
   "size" : 1,
   "source_file" : "system/core/libutils/include/utils/TypeHelpers.h",
   "template_args" : [ "_ZTIy" ]
  },
  {
   "alignment" : 1,
   "linker_set_key" : "_ZTIN7android18trait_trivial_dtorINS_16key_value_pair_tINS_7String8ES2_EEEE",
   "name" : "android::trait_trivial_dtor<android::key_value_pair_t<android::String8, android::String8>>",
   "referenced_type" : "_ZTIN7android18trait_trivial_dtorINS_16key_value_pair_tINS_7String8ES2_EEEE",
   "self_type" : "_ZTIN7android18trait_trivial_dtorINS_16key_value_pair_tINS_7String8ES2_EEEE",
   "size" : 1,
   "source_file" : "system/core/libutils/include/utils/TypeHelpers.h",
   "template_args" : [ "_ZTIN7android16key_value_pair_tINS_7String8ES1_EE" ]
  },
  {
   "alignment" : 1,
   "linker_set_key" : "_ZTIN7android18trait_trivial_dtorINS_7String8EEE",
   "name" : "android::trait_trivial_dtor<android::String8>",
   "referenced_type" : "_ZTIN7android18trait_trivial_dtorINS_7String8EEE",
   "self_type" : "_ZTIN7android18trait_trivial_dtorINS_7String8EEE",
   "size" : 1,
   "source_file" : "system/core/libutils/include/utils/TypeHelpers.h",
   "template_args" : [ "_ZTIN7android7String8E" ]
  },
  {
   "alignment" : 1,
   "linker_set_key" : "_ZTIN7android18trait_trivial_dtorIbEE",
   "name" : "android::trait_trivial_dtor<bool>",
   "referenced_type" : "_ZTIN7android18trait_trivial_dtorIbEE",
   "self_type" : "_ZTIN7android18trait_trivial_dtorIbEE",
   "size" : 1,
   "source_file" : "system/core/libutils/include/utils/TypeHelpers.h",
   "template_args" : [ "_ZTIb" ]
  },
  {
   "alignment" : 1,
   "linker_set_key" : "_ZTIN7android18trait_trivial_dtorIcEE",
   "name" : "android::trait_trivial_dtor<char>",
   "referenced_type" : "_ZTIN7android18trait_trivial_dtorIcEE",
   "self_type" : "_ZTIN7android18trait_trivial_dtorIcEE",
   "size" : 1,
   "source_file" : "system/core/libutils/include/utils/TypeHelpers.h",
   "template_args" : [ "_ZTIc" ]
  },
  {
   "alignment" : 1,
   "linker_set_key" : "_ZTIN7android18trait_trivial_dtorIdEE",
   "name" : "android::trait_trivial_dtor<double>",
   "referenced_type" : "_ZTIN7android18trait_trivial_dtorIdEE",
   "self_type" : "_ZTIN7android18trait_trivial_dtorIdEE",
   "size" : 1,
   "source_file" : "system/core/libutils/include/utils/TypeHelpers.h",
   "template_args" : [ "_ZTId" ]
  },
  {
   "alignment" : 1,
   "linker_set_key" : "_ZTIN7android18trait_trivial_dtorIfEE",
   "name" : "android::trait_trivial_dtor<float>",
   "referenced_type" : "_ZTIN7android18trait_trivial_dtorIfEE",
   "self_type" : "_ZTIN7android18trait_trivial_dtorIfEE",
   "size" : 1,
   "source_file" : "system/core/libutils/include/utils/TypeHelpers.h",
   "template_args" : [ "_ZTIf" ]
  },
  {
   "alignment" : 1,
   "linker_set_key" : "_ZTIN7android18trait_trivial_dtorIhEE",
   "name" : "android::trait_trivial_dtor<unsigned char>",
   "referenced_type" : "_ZTIN7android18trait_trivial_dtorIhEE",
   "self_type" : "_ZTIN7android18trait_trivial_dtorIhEE",
   "size" : 1,
   "source_file" : "system/core/libutils/include/utils/TypeHelpers.h",
   "template_args" : [ "_ZTIh" ]
  },
  {
   "alignment" : 1,
   "linker_set_key" : "_ZTIN7android18trait_trivial_dtorIiEE",
   "name" : "android::trait_trivial_dtor<int>",
   "referenced_type" : "_ZTIN7android18trait_trivial_dtorIiEE",
   "self_type" : "_ZTIN7android18trait_trivial_dtorIiEE",
   "size" : 1,
   "source_file" : "system/core/libutils/include/utils/TypeHelpers.h",
   "template_args" : [ "_ZTIi" ]
  },
  {
   "alignment" : 1,
   "linker_set_key" : "_ZTIN7android18trait_trivial_dtorIjEE",
   "name" : "android::trait_trivial_dtor<unsigned int>",
   "referenced_type" : "_ZTIN7android18trait_trivial_dtorIjEE",
   "self_type" : "_ZTIN7android18trait_trivial_dtorIjEE",
   "size" : 1,
   "source_file" : "system/core/libutils/include/utils/TypeHelpers.h",
   "template_args" : [ "_ZTIj" ]
  },
  {
   "alignment" : 1,
   "linker_set_key" : "_ZTIN7android18trait_trivial_dtorIlEE",
   "name" : "android::trait_trivial_dtor<long>",
   "referenced_type" : "_ZTIN7android18trait_trivial_dtorIlEE",
   "self_type" : "_ZTIN7android18trait_trivial_dtorIlEE",
   "size" : 1,
   "source_file" : "system/core/libutils/include/utils/TypeHelpers.h",
   "template_args" : [ "_ZTIl" ]
  },
  {
   "alignment" : 1,
   "linker_set_key" : "_ZTIN7android18trait_trivial_dtorImEE",
   "name" : "android::trait_trivial_dtor<unsigned long>",
   "referenced_type" : "_ZTIN7android18trait_trivial_dtorImEE",
   "self_type" : "_ZTIN7android18trait_trivial_dtorImEE",
   "size" : 1,
   "source_file" : "system/core/libutils/include/utils/TypeHelpers.h",
   "template_args" : [ "_ZTIm" ]
  },
  {
   "alignment" : 1,
   "linker_set_key" : "_ZTIN7android18trait_trivial_dtorIsEE",
   "name" : "android::trait_trivial_dtor<short>",
   "referenced_type" : "_ZTIN7android18trait_trivial_dtorIsEE",
   "self_type" : "_ZTIN7android18trait_trivial_dtorIsEE",
   "size" : 1,
   "source_file" : "system/core/libutils/include/utils/TypeHelpers.h",
   "template_args" : [ "_ZTIs" ]
  },
  {
   "alignment" : 1,
   "linker_set_key" : "_ZTIN7android18trait_trivial_dtorItEE",
   "name" : "android::trait_trivial_dtor<unsigned short>",
   "referenced_type" : "_ZTIN7android18trait_trivial_dtorItEE",
   "self_type" : "_ZTIN7android18trait_trivial_dtorItEE",
   "size" : 1,
   "source_file" : "system/core/libutils/include/utils/TypeHelpers.h",
   "template_args" : [ "_ZTIt" ]
  },
  {
   "alignment" : 1,
   "linker_set_key" : "_ZTIN7android18trait_trivial_dtorIvEE",
   "name" : "android::trait_trivial_dtor<void>",
   "referenced_type" : "_ZTIN7android18trait_trivial_dtorIvEE",
   "self_type" : "_ZTIN7android18trait_trivial_dtorIvEE",
   "size" : 1,
   "source_file" : "system/core/libutils/include/utils/TypeHelpers.h",
   "template_args" : [ "_ZTIv" ]
  },
  {
   "alignment" : 1,
   "linker_set_key" : "_ZTIN7android18trait_trivial_dtorIxEE",
   "name" : "android::trait_trivial_dtor<long long>",
   "referenced_type" : "_ZTIN7android18trait_trivial_dtorIxEE",
   "self_type" : "_ZTIN7android18trait_trivial_dtorIxEE",
   "size" : 1,
   "source_file" : "system/core/libutils/include/utils/TypeHelpers.h",
   "template_args" : [ "_ZTIx" ]
  },
  {
   "alignment" : 1,
   "linker_set_key" : "_ZTIN7android18trait_trivial_dtorIyEE",
   "name" : "android::trait_trivial_dtor<unsigned long long>",
   "referenced_type" : "_ZTIN7android18trait_trivial_dtorIyEE",
   "self_type" : "_ZTIN7android18trait_trivial_dtorIyEE",
   "size" : 1,
   "source_file" : "system/core/libutils/include/utils/TypeHelpers.h",
   "template_args" : [ "_ZTIy" ]
  },
  {
   "alignment" : 1,
   "linker_set_key" : "_ZTIN7android18trait_trivial_moveINS_16key_value_pair_tINS_7String8ES2_EEEE",
   "name" : "android::trait_trivial_move<android::key_value_pair_t<android::String8, android::String8>>",
   "referenced_type" : "_ZTIN7android18trait_trivial_moveINS_16key_value_pair_tINS_7String8ES2_EEEE",
   "self_type" : "_ZTIN7android18trait_trivial_moveINS_16key_value_pair_tINS_7String8ES2_EEEE",
   "size" : 1,
   "source_file" : "system/core/libutils/include/utils/TypeHelpers.h",
   "template_args" : [ "_ZTIN7android16key_value_pair_tINS_7String8ES1_EE" ]
  },
  {
   "alignment" : 1,
   "linker_set_key" : "_ZTIN7android18trait_trivial_moveINS_7String8EEE",
   "name" : "android::trait_trivial_move<android::String8>",
   "referenced_type" : "_ZTIN7android18trait_trivial_moveINS_7String8EEE",
   "self_type" : "_ZTIN7android18trait_trivial_moveINS_7String8EEE",
   "size" : 1,
   "source_file" : "system/core/libutils/include/utils/String8.h",
   "template_args" : [ "_ZTIN7android7String8E" ]
  },
  {
   "alignment" : 1,
   "linker_set_key" : "_ZTIN7android18trait_trivial_moveIbEE",
   "name" : "android::trait_trivial_move<bool>",
   "referenced_type" : "_ZTIN7android18trait_trivial_moveIbEE",
   "self_type" : "_ZTIN7android18trait_trivial_moveIbEE",
   "size" : 1,
   "source_file" : "system/core/libutils/include/utils/TypeHelpers.h",
   "template_args" : [ "_ZTIb" ]
  },
  {
   "alignment" : 1,
   "linker_set_key" : "_ZTIN7android18trait_trivial_moveIcEE",
   "name" : "android::trait_trivial_move<char>",
   "referenced_type" : "_ZTIN7android18trait_trivial_moveIcEE",
   "self_type" : "_ZTIN7android18trait_trivial_moveIcEE",
   "size" : 1,
   "source_file" : "system/core/libutils/include/utils/TypeHelpers.h",
   "template_args" : [ "_ZTIc" ]
  },
  {
   "alignment" : 1,
   "linker_set_key" : "_ZTIN7android18trait_trivial_moveIdEE",
   "name" : "android::trait_trivial_move<double>",
   "referenced_type" : "_ZTIN7android18trait_trivial_moveIdEE",
   "self_type" : "_ZTIN7android18trait_trivial_moveIdEE",
   "size" : 1,
   "source_file" : "system/core/libutils/include/utils/TypeHelpers.h",
   "template_args" : [ "_ZTId" ]
  },
  {
   "alignment" : 1,
   "linker_set_key" : "_ZTIN7android18trait_trivial_moveIfEE",
   "name" : "android::trait_trivial_move<float>",
   "referenced_type" : "_ZTIN7android18trait_trivial_moveIfEE",
   "self_type" : "_ZTIN7android18trait_trivial_moveIfEE",
   "size" : 1,
   "source_file" : "system/core/libutils/include/utils/TypeHelpers.h",
   "template_args" : [ "_ZTIf" ]
  },
  {
   "alignment" : 1,
   "linker_set_key" : "_ZTIN7android18trait_trivial_moveIhEE",
   "name" : "android::trait_trivial_move<unsigned char>",
   "referenced_type" : "_ZTIN7android18trait_trivial_moveIhEE",
   "self_type" : "_ZTIN7android18trait_trivial_moveIhEE",
   "size" : 1,
   "source_file" : "system/core/libutils/include/utils/TypeHelpers.h",
   "template_args" : [ "_ZTIh" ]
  },
  {
   "alignment" : 1,
   "linker_set_key" : "_ZTIN7android18trait_trivial_moveIiEE",
   "name" : "android::trait_trivial_move<int>",
   "referenced_type" : "_ZTIN7android18trait_trivial_moveIiEE",
   "self_type" : "_ZTIN7android18trait_trivial_moveIiEE",
   "size" : 1,
   "source_file" : "system/core/libutils/include/utils/TypeHelpers.h",
   "template_args" : [ "_ZTIi" ]
  },
  {
   "alignment" : 1,
   "linker_set_key" : "_ZTIN7android18trait_trivial_moveIjEE",
   "name" : "android::trait_trivial_move<unsigned int>",
   "referenced_type" : "_ZTIN7android18trait_trivial_moveIjEE",
   "self_type" : "_ZTIN7android18trait_trivial_moveIjEE",
   "size" : 1,
   "source_file" : "system/core/libutils/include/utils/TypeHelpers.h",
   "template_args" : [ "_ZTIj" ]
  },
  {
   "alignment" : 1,
   "linker_set_key" : "_ZTIN7android18trait_trivial_moveIlEE",
   "name" : "android::trait_trivial_move<long>",
   "referenced_type" : "_ZTIN7android18trait_trivial_moveIlEE",
   "self_type" : "_ZTIN7android18trait_trivial_moveIlEE",
   "size" : 1,
   "source_file" : "system/core/libutils/include/utils/TypeHelpers.h",
   "template_args" : [ "_ZTIl" ]
  },
  {
   "alignment" : 1,
   "linker_set_key" : "_ZTIN7android18trait_trivial_moveImEE",
   "name" : "android::trait_trivial_move<unsigned long>",
   "referenced_type" : "_ZTIN7android18trait_trivial_moveImEE",
   "self_type" : "_ZTIN7android18trait_trivial_moveImEE",
   "size" : 1,
   "source_file" : "system/core/libutils/include/utils/TypeHelpers.h",
   "template_args" : [ "_ZTIm" ]
  },
  {
   "alignment" : 1,
   "linker_set_key" : "_ZTIN7android18trait_trivial_moveIsEE",
   "name" : "android::trait_trivial_move<short>",
   "referenced_type" : "_ZTIN7android18trait_trivial_moveIsEE",
   "self_type" : "_ZTIN7android18trait_trivial_moveIsEE",
   "size" : 1,
   "source_file" : "system/core/libutils/include/utils/TypeHelpers.h",
   "template_args" : [ "_ZTIs" ]
  },
  {
   "alignment" : 1,
   "linker_set_key" : "_ZTIN7android18trait_trivial_moveItEE",
   "name" : "android::trait_trivial_move<unsigned short>",
   "referenced_type" : "_ZTIN7android18trait_trivial_moveItEE",
   "self_type" : "_ZTIN7android18trait_trivial_moveItEE",
   "size" : 1,
   "source_file" : "system/core/libutils/include/utils/TypeHelpers.h",
   "template_args" : [ "_ZTIt" ]
  },
  {
   "alignment" : 1,
   "linker_set_key" : "_ZTIN7android18trait_trivial_moveIvEE",
   "name" : "android::trait_trivial_move<void>",
   "referenced_type" : "_ZTIN7android18trait_trivial_moveIvEE",
   "self_type" : "_ZTIN7android18trait_trivial_moveIvEE",
   "size" : 1,
   "source_file" : "system/core/libutils/include/utils/TypeHelpers.h",
   "template_args" : [ "_ZTIv" ]
  },
  {
   "alignment" : 1,
   "linker_set_key" : "_ZTIN7android18trait_trivial_moveIxEE",
   "name" : "android::trait_trivial_move<long long>",
   "referenced_type" : "_ZTIN7android18trait_trivial_moveIxEE",
   "self_type" : "_ZTIN7android18trait_trivial_moveIxEE",
   "size" : 1,
   "source_file" : "system/core/libutils/include/utils/TypeHelpers.h",
   "template_args" : [ "_ZTIx" ]
  },
  {
   "alignment" : 1,
   "linker_set_key" : "_ZTIN7android18trait_trivial_moveIyEE",
   "name" : "android::trait_trivial_move<unsigned long long>",
   "referenced_type" : "_ZTIN7android18trait_trivial_moveIyEE",
   "self_type" : "_ZTIN7android18trait_trivial_moveIyEE",
   "size" : 1,
   "source_file" : "system/core/libutils/include/utils/TypeHelpers.h",
   "template_args" : [ "_ZTIy" ]
  },
  {
   "alignment" : 4,
   "base_specifiers" :
   [
    {
     "referenced_type" : "_ZTIN7android12LightRefBaseINS_19VirtualLightRefBaseEEE"
    }
   ],
   "linker_set_key" : "_ZTIN7android19VirtualLightRefBaseE",
   "name" : "android::VirtualLightRefBase",
   "record_kind" : "class",
   "referenced_type" : "_ZTIN7android19VirtualLightRefBaseE",
   "self_type" : "_ZTIN7android19VirtualLightRefBaseE",
   "size" : 8,
   "source_file" : "system/core/libutils/include/utils/LightRefBase.h",
   "vtable_components" :
   [
    {
     "kind" : "offset_to_top"
    },
    {
     "kind" : "rtti",
     "mangled_component_name" : "_ZTIN7android19VirtualLightRefBaseE"
    },
    {
     "kind" : "complete_dtor_pointer",
     "mangled_component_name" : "_ZN7android19VirtualLightRefBaseD1Ev"
    },
    {
     "kind" : "deleting_dtor_pointer",
     "mangled_component_name" : "_ZN7android19VirtualLightRefBaseD0Ev"
    }
   ]
  },
  {
   "alignment" : 4,
   "fields" :
   [
    {
     "access" : "private",
     "field_name" : "m_ptr",
     "referenced_type" : "_ZTIPN7android6ThreadE"
    }
   ],
   "linker_set_key" : "_ZTIN7android2spINS_6ThreadEEE",
   "name" : "android::sp<android::Thread>",
   "record_kind" : "class",
   "referenced_type" : "_ZTIN7android2spINS_6ThreadEEE",
   "self_type" : "_ZTIN7android2spINS_6ThreadEEE",
   "size" : 4,
   "source_file" : "system/core/libutils/include/utils/StrongPointer.h",
   "template_args" : [ "_ZTIN7android6ThreadE" ]
  },
  {
   "alignment" : 4,
   "fields" :
   [
    {
     "access" : "private",
     "field_name" : "m_ptr",
     "referenced_type" : "_ZTIPN7android7ABufferE"
    }
   ],
   "linker_set_key" : "_ZTIN7android2spINS_7ABufferEEE",
   "name" : "android::sp<android::ABuffer>",
   "record_kind" : "class",
   "referenced_type" : "_ZTIN7android2spINS_7ABufferEEE",
   "self_type" : "_ZTIN7android2spINS_7ABufferEEE",
   "size" : 4,
   "source_file" : "system/core/libutils/include/utils/StrongPointer.h",
   "template_args" : [ "_ZTIN7android7ABufferE" ]
  },
  {
   "alignment" : 4,
   "fields" :
   [
    {
     "access" : "private",
     "field_name" : "m_ptr",
     "referenced_type" : "_ZTIPN7android7ALooper12LooperThreadE"
    }
   ],
   "linker_set_key" : "_ZTIN7android2spINS_7ALooper12LooperThreadEEE",
   "name" : "android::sp<android::ALooper::LooperThread>",
   "record_kind" : "class",
   "referenced_type" : "_ZTIN7android2spINS_7ALooper12LooperThreadEEE",
   "self_type" : "_ZTIN7android2spINS_7ALooper12LooperThreadEEE",
   "size" : 4,
   "source_file" : "system/core/libutils/include/utils/StrongPointer.h",
   "template_args" : [ "_ZTIN7android7ALooper12LooperThreadE" ]
  },
  {
   "alignment" : 4,
   "fields" :
   [
    {
     "access" : "private",
     "field_name" : "m_ptr",
     "referenced_type" : "_ZTIPN7android7ALooperE"
    }
   ],
   "linker_set_key" : "_ZTIN7android2spINS_7ALooperEEE",
   "name" : "android::sp<android::ALooper>",
   "record_kind" : "class",
   "referenced_type" : "_ZTIN7android2spINS_7ALooperEEE",
   "self_type" : "_ZTIN7android2spINS_7ALooperEEE",
   "size" : 4,
   "source_file" : "system/core/libutils/include/utils/StrongPointer.h",
   "template_args" : [ "_ZTIN7android7ALooperE" ]
  },
  {
   "alignment" : 4,
   "fields" :
   [
    {
     "access" : "private",
     "field_name" : "m_ptr",
     "referenced_type" : "_ZTIPN7android8AMessageE"
    }
   ],
   "linker_set_key" : "_ZTIN7android2spINS_8AMessageEEE",
   "name" : "android::sp<android::AMessage>",
   "record_kind" : "class",
   "referenced_type" : "_ZTIN7android2spINS_8AMessageEEE",
   "self_type" : "_ZTIN7android2spINS_8AMessageEEE",
   "size" : 4,
   "source_file" : "system/core/libutils/include/utils/StrongPointer.h",
   "template_args" : [ "_ZTIN7android8AMessageE" ]
  },
  {
   "alignment" : 4,
   "fields" :
   [
    {
     "access" : "private",
     "field_name" : "m_ptr",
     "referenced_type" : "_ZTIPN7android7ALooperE"
    },
    {
     "access" : "private",
     "field_name" : "m_refs",
     "field_offset" : 32,
     "referenced_type" : "_ZTIPN7android7RefBase12weakref_typeE"
    }
   ],
   "linker_set_key" : "_ZTIN7android2wpINS_7ALooperEEE",
   "name" : "android::wp<android::ALooper>",
   "record_kind" : "class",
   "referenced_type" : "_ZTIN7android2wpINS_7ALooperEEE",
   "self_type" : "_ZTIN7android2wpINS_7ALooperEEE",
   "size" : 8,
   "source_file" : "system/core/libutils/include/utils/RefBase.h",
   "template_args" : [ "_ZTIN7android7ALooperE" ]
  },
  {
   "alignment" : 4,
   "fields" :
   [
    {
     "access" : "private",
     "field_name" : "m_ptr",
     "referenced_type" : "_ZTIPN7android8AHandlerE"
    },
    {
     "access" : "private",
     "field_name" : "m_refs",
     "field_offset" : 32,
     "referenced_type" : "_ZTIPN7android7RefBase12weakref_typeE"
    }
   ],
   "linker_set_key" : "_ZTIN7android2wpINS_8AHandlerEEE",
   "name" : "android::wp<android::AHandler>",
   "record_kind" : "class",
   "referenced_type" : "_ZTIN7android2wpINS_8AHandlerEEE",
   "self_type" : "_ZTIN7android2wpINS_8AHandlerEEE",
   "size" : 8,
   "source_file" : "system/core/libutils/include/utils/RefBase.h",
   "template_args" : [ "_ZTIN7android8AHandlerE" ]
  },
  {
   "alignment" : 4,
   "fields" :
   [
    {
     "access" : "private",
     "field_name" : "mpMiddle",
     "field_offset" : 32,
     "referenced_type" : "_ZTIPN7android4ListINS_7ALooper5EventEE5_NodeE"
    }
   ],
   "linker_set_key" : "_ZTIN7android4ListINS_7ALooper5EventEEE",
   "name" : "android::List<android::ALooper::Event>",
   "record_kind" : "class",
   "referenced_type" : "_ZTIN7android4ListINS_7ALooper5EventEEE",
   "self_type" : "_ZTIN7android4ListINS_7ALooper5EventEEE",
   "size" : 8,
   "source_file" : "system/core/libutils/include/utils/List.h",
   "template_args" : [ "_ZTIN7android7ALooper5EventE" ],
   "vtable_components" :
   [
    {
     "kind" : "offset_to_top"
    },
    {
     "kind" : "rtti",
     "mangled_component_name" : "_ZTIN7android4ListINS_7ALooper5EventEEE"
    },
    {
     "kind" : "complete_dtor_pointer",
     "mangled_component_name" : "_ZN7android4ListINS_7ALooper5EventEED1Ev"
    },
    {
     "kind" : "deleting_dtor_pointer",
     "mangled_component_name" : "_ZN7android4ListINS_7ALooper5EventEED0Ev"
    }
   ]
  },
  {
   "alignment" : 4,
   "fields" :
   [
    {
     "access" : "private",
     "field_name" : "mLock",
     "referenced_type" : "_ZTIRN7android5MutexE"
    }
   ],
   "linker_set_key" : "_ZTIN7android5Mutex8AutolockE",
   "name" : "android::Mutex::Autolock",
   "record_kind" : "class",
   "referenced_type" : "_ZTIN7android5Mutex8AutolockE",
   "self_type" : "_ZTIN7android5Mutex8AutolockE",
   "size" : 4,
   "source_file" : "system/core/libutils/include/utils/Mutex.h"
  },
  {
   "alignment" : 4,
   "fields" :
   [
    {
     "access" : "private",
     "field_name" : "mMutex",
     "referenced_type" : "_ZTI15pthread_mutex_t"
    }
   ],
   "linker_set_key" : "_ZTIN7android5MutexE",
   "name" : "android::Mutex",
   "record_kind" : "class",
   "referenced_type" : "_ZTIN7android5MutexE",
   "self_type" : "_ZTIN7android5MutexE",
   "size" : 4,
   "source_file" : "system/core/libutils/include/utils/Mutex.h"
  },
  {
   "alignment" : 4,
   "fields" :
   [
    {
     "access" : "private",
     "field_name" : "mLock",
     "referenced_type" : "_ZTIRN7android6RWLockE"
    }
   ],
   "linker_set_key" : "_ZTIN7android6RWLock9AutoRLockE",
   "name" : "android::RWLock::AutoRLock",
   "record_kind" : "class",
   "referenced_type" : "_ZTIN7android6RWLock9AutoRLockE",
   "self_type" : "_ZTIN7android6RWLock9AutoRLockE",
   "size" : 4,
   "source_file" : "system/core/libutils/include/utils/RWLock.h"
  },
  {
   "alignment" : 4,
   "fields" :
   [
    {
     "access" : "private",
     "field_name" : "mLock",
     "referenced_type" : "_ZTIRN7android6RWLockE"
    }
   ],
   "linker_set_key" : "_ZTIN7android6RWLock9AutoWLockE",
   "name" : "android::RWLock::AutoWLock",
   "record_kind" : "class",
   "referenced_type" : "_ZTIN7android6RWLock9AutoWLockE",
   "self_type" : "_ZTIN7android6RWLock9AutoWLockE",
   "size" : 4,
   "source_file" : "system/core/libutils/include/utils/RWLock.h"
  },
  {
   "alignment" : 4,
   "fields" :
   [
    {
     "access" : "private",
     "field_name" : "mRWLock",
     "referenced_type" : "_ZTI16pthread_rwlock_t"
    }
   ],
   "linker_set_key" : "_ZTIN7android6RWLockE",
   "name" : "android::RWLock",
   "record_kind" : "class",
   "referenced_type" : "_ZTIN7android6RWLockE",
   "self_type" : "_ZTIN7android6RWLockE",
   "size" : 40,
   "source_file" : "system/core/libutils/include/utils/RWLock.h"
  },
  {
   "alignment" : 4,
   "base_specifiers" :
   [
    {
     "is_virtual" : true,
     "referenced_type" : "_ZTIN7android7RefBaseE"
    }
   ],
   "fields" :
   [
    {
     "access" : "private",
     "field_name" : "mCanCallJava",
     "field_offset" : 32,
     "referenced_type" : "_ZTIKb"
    },
    {
     "access" : "private",
     "field_name" : "mThread",
     "field_offset" : 64,
     "referenced_type" : "_ZTIPv"
    },
    {
     "access" : "private",
     "field_name" : "mLock",
     "field_offset" : 96,
     "referenced_type" : "_ZTIN7android5MutexE"
    },
    {
     "access" : "private",
     "field_name" : "mThreadExitedCondition",
     "field_offset" : 128,
     "referenced_type" : "_ZTIN7android9ConditionE"
    },
    {
     "access" : "private",
     "field_name" : "mStatus",
     "field_offset" : 160,
     "referenced_type" : "_ZTIi"
    },
    {
     "access" : "private",
     "field_name" : "mExitPending",
     "field_offset" : 192,
     "referenced_type" : "_ZTIVb"
    },
    {
     "access" : "private",
     "field_name" : "mRunning",
     "field_offset" : 200,
     "referenced_type" : "_ZTIVb"
    },
    {
     "access" : "private",
     "field_name" : "mHoldSelf",
     "field_offset" : 224,
     "referenced_type" : "_ZTIN7android2spINS_6ThreadEEE"
    },
    {
     "access" : "private",
     "field_name" : "mTid",
     "field_offset" : 256,
     "referenced_type" : "_ZTIi"
    }
   ],
   "linker_set_key" : "_ZTIN7android6ThreadE",
   "name" : "android::Thread",
   "record_kind" : "class",
   "referenced_type" : "_ZTIN7android6ThreadE",
   "self_type" : "_ZTIN7android6ThreadE",
   "size" : 44,
   "source_file" : "system/core/libutils/include/utils/Thread.h",
   "vtable_components" :
   [
    {
     "component_value" : 36,
     "kind" : "vbase_offset"
    },
    {
     "kind" : "offset_to_top"
    },
    {
     "kind" : "rtti",
     "mangled_component_name" : "_ZTIN7android6ThreadE"
    },
    {
     "kind" : "complete_dtor_pointer",
     "mangled_component_name" : "_ZN7android6ThreadD1Ev"
    },
    {
     "kind" : "deleting_dtor_pointer",
     "mangled_component_name" : "_ZN7android6ThreadD0Ev"
    },
    {
     "mangled_component_name" : "_ZN7android6Thread3runEPKcij"
    },
    {
     "mangled_component_name" : "_ZN7android6Thread11requestExitEv"
    },
    {
     "mangled_component_name" : "_ZN7android6Thread10readyToRunEv"
    },
    {
     "is_pure" : true,
     "mangled_component_name" : "_ZN7android6Thread10threadLoopEv"
    },
    {
     "kind" : "vcall_offset"
    },
    {
     "kind" : "vcall_offset"
    },
    {
     "kind" : "vcall_offset"
    },
    {
     "kind" : "vcall_offset"
    },
    {
     "component_value" : -36,
     "kind" : "vcall_offset"
    },
    {
     "component_value" : -36,
     "kind" : "offset_to_top"
    },
    {
     "kind" : "rtti",
     "mangled_component_name" : "_ZTIN7android6ThreadE"
    },
    {
     "kind" : "complete_dtor_pointer",
     "mangled_component_name" : "_ZTv0_n12_N7android6ThreadD1Ev"
    },
    {
     "kind" : "deleting_dtor_pointer",
     "mangled_component_name" : "_ZTv0_n12_N7android6ThreadD0Ev"
    },
    {
     "mangled_component_name" : "_ZN7android7RefBase10onFirstRefEv"
    },
    {
     "mangled_component_name" : "_ZN7android7RefBase15onLastStrongRefEPKv"
    },
    {
     "mangled_component_name" : "_ZN7android7RefBase20onIncStrongAttemptedEjPKv"
    },
    {
     "mangled_component_name" : "_ZN7android7RefBase13onLastWeakRefEPKv"
    }
   ]
  },
  {
   "alignment" : 1,
   "linker_set_key" : "_ZTIN7android6traitsINS_16key_value_pair_tINS_7String8ES2_EEEE",
   "name" : "android::traits<android::key_value_pair_t<android::String8, android::String8>>",
   "referenced_type" : "_ZTIN7android6traitsINS_16key_value_pair_tINS_7String8ES2_EEEE",
   "self_type" : "_ZTIN7android6traitsINS_16key_value_pair_tINS_7String8ES2_EEEE",
   "size" : 1,
   "source_file" : "system/core/libutils/include/utils/TypeHelpers.h",
   "template_args" : [ "_ZTIN7android16key_value_pair_tINS_7String8ES1_EE" ]
  },
  {
   "alignment" : 1,
   "linker_set_key" : "_ZTIN7android6traitsINS_7String8EEE",
   "name" : "android::traits<android::String8>",
   "referenced_type" : "_ZTIN7android6traitsINS_7String8EEE",
   "self_type" : "_ZTIN7android6traitsINS_7String8EEE",
   "size" : 1,
   "source_file" : "system/core/libutils/include/utils/TypeHelpers.h",
   "template_args" : [ "_ZTIN7android7String8E" ]
  },
  {
   "alignment" : 1,
   "linker_set_key" : "_ZTIN7android7RefBase12weakref_typeE",
   "name" : "android::RefBase::weakref_type",
   "record_kind" : "class",
   "referenced_type" : "_ZTIN7android7RefBase12weakref_typeE",
   "self_type" : "_ZTIN7android7RefBase12weakref_typeE",
   "size" : 1,
   "source_file" : "system/core/libutils/include/utils/RefBase.h"
  },
  {
   "alignment" : 4,
   "fields" :
   [
    {
     "access" : "private",
     "field_name" : "mRefs",
     "field_offset" : 32,
     "referenced_type" : "_ZTIKPN7android7RefBase12weakref_implE"
    }
   ],
   "linker_set_key" : "_ZTIN7android7RefBaseE",
   "name" : "android::RefBase",
   "record_kind" : "class",
   "referenced_type" : "_ZTIN7android7RefBaseE",
   "self_type" : "_ZTIN7android7RefBaseE",
   "size" : 8,
   "source_file" : "system/core/libutils/include/utils/RefBase.h",
   "vtable_components" :
   [
    {
     "kind" : "offset_to_top"
    },
    {
     "kind" : "rtti",
     "mangled_component_name" : "_ZTIN7android7RefBaseE"
    },
    {
     "kind" : "complete_dtor_pointer",
     "mangled_component_name" : "_ZN7android7RefBaseD1Ev"
    },
    {
     "kind" : "deleting_dtor_pointer",
     "mangled_component_name" : "_ZN7android7RefBaseD0Ev"
    },
    {
     "mangled_component_name" : "_ZN7android7RefBase10onFirstRefEv"
    },
    {
     "mangled_component_name" : "_ZN7android7RefBase15onLastStrongRefEPKv"
    },
    {
     "mangled_component_name" : "_ZN7android7RefBase20onIncStrongAttemptedEjPKv"
    },
    {
     "mangled_component_name" : "_ZN7android7RefBase13onLastWeakRefEPKv"
    }
   ]
  },
  {
   "alignment" : 4,
   "fields" :
   [
    {
     "access" : "private",
     "field_name" : "mString",
     "referenced_type" : "_ZTIPKc"
    }
   ],
   "linker_set_key" : "_ZTIN7android7String8E",
   "name" : "android::String8",
   "record_kind" : "class",
   "referenced_type" : "_ZTIN7android7String8E",
   "self_type" : "_ZTIN7android7String8E",
   "size" : 4,
   "source_file" : "system/core/libutils/include/utils/String8.h"
  },
  {
   "alignment" : 4,
   "fields" :
   [
    {
     "access" : "private",
     "field_name" : "mCond",
     "referenced_type" : "_ZTI14pthread_cond_t"
    }
   ],
   "linker_set_key" : "_ZTIN7android9ConditionE",
   "name" : "android::Condition",
   "record_kind" : "class",
   "referenced_type" : "_ZTIN7android9ConditionE",
   "self_type" : "_ZTIN7android9ConditionE",
   "size" : 4,
   "source_file" : "system/core/libutils/include/utils/Condition.h"
  }
 ],
 "rvalue_reference_types" :
 [
  {
   "alignment" : 4,
   "linker_set_key" : "_ZTION7android2spINS_7ALooperEEE",
   "name" : "android::sp<android::ALooper> &&",
   "referenced_type" : "_ZTIN7android2spINS_7ALooperEEE",
   "self_type" : "_ZTION7android2spINS_7ALooperEEE",
   "size" : 4,
   "source_file" : "system/core/libutils/include/utils/StrongPointer.h"
  }
 ]
}
