{
 "array_types" :
 [
  {
   "alignment" : 4,
   "linker_set_key" : "_ZTIA0_i",
   "name" : "int [0]",
   "referenced_type" : "_ZTIi",
   "self_type" : "_ZTIA0_i",
   "source_file" : "system/core/libcutils/include/cutils/native_handle.h"
  },
  {
   "alignment" : 1,
   "linker_set_key" : "_ZTIA21_c",
   "name" : "char [21]",
   "referenced_type" : "_ZTIc",
   "self_type" : "_ZTIA21_c",
   "size" : 21,
   "source_file" : "packages/modules/NeuralNetworks/common/include/nnapi/Result.h"
  },
  {
   "alignment" : 1,
   "linker_set_key" : "_ZTIA24_c",
   "name" : "char [24]",
   "referenced_type" : "_ZTIc",
   "self_type" : "_ZTIA24_c",
   "size" : 24,
   "source_file" : "packages/modules/NeuralNetworks/common/include/nnapi/Result.h"
  },
  {
   "alignment" : 1,
   "linker_set_key" : "_ZTIA25_c",
   "name" : "char [25]",
   "referenced_type" : "_ZTIc",
   "self_type" : "_ZTIA25_c",
   "size" : 25,
   "source_file" : "packages/modules/NeuralNetworks/common/include/nnapi/Result.h"
  },
  {
   "alignment" : 1,
   "linker_set_key" : "_ZTIA26_c",
   "name" : "char [26]",
   "referenced_type" : "_ZTIc",
   "self_type" : "_ZTIA26_c",
   "size" : 26,
   "source_file" : "packages/modules/NeuralNetworks/common/include/nnapi/Result.h"
  },
  {
   "alignment" : 1,
   "linker_set_key" : "_ZTIA2_c",
   "name" : "char [2]",
   "referenced_type" : "_ZTIc",
   "self_type" : "_ZTIA2_c",
   "size" : 2,
   "source_file" : "packages/modules/NeuralNetworks/common/include/nnapi/Result.h"
  },
  {
   "alignment" : 1,
   "linker_set_key" : "_ZTIA30_c",
   "name" : "char [30]",
   "referenced_type" : "_ZTIc",
   "self_type" : "_ZTIA30_c",
   "size" : 30,
   "source_file" : "packages/modules/NeuralNetworks/common/include/nnapi/Result.h"
  },
  {
   "alignment" : 1,
   "linker_set_key" : "_ZTIA31_c",
   "name" : "char [31]",
   "referenced_type" : "_ZTIc",
   "self_type" : "_ZTIA31_c",
   "size" : 31,
   "source_file" : "packages/modules/NeuralNetworks/common/include/nnapi/Result.h"
  },
  {
   "alignment" : 1,
   "linker_set_key" : "_ZTIA32_c",
   "name" : "char [32]",
   "referenced_type" : "_ZTIc",
   "self_type" : "_ZTIA32_c",
   "size" : 32,
   "source_file" : "packages/modules/NeuralNetworks/common/include/nnapi/Result.h"
  },
  {
   "alignment" : 1,
   "linker_set_key" : "_ZTIA33_c",
   "name" : "char [33]",
   "referenced_type" : "_ZTIc",
   "self_type" : "_ZTIA33_c",
   "size" : 33,
   "source_file" : "packages/modules/NeuralNetworks/common/include/nnapi/Result.h"
  },
  {
   "alignment" : 1,
   "linker_set_key" : "_ZTIA3_c",
   "name" : "char [3]",
   "referenced_type" : "_ZTIc",
   "self_type" : "_ZTIA3_c",
   "size" : 3,
   "source_file" : "packages/modules/NeuralNetworks/common/include/nnapi/Result.h"
  },
  {
   "alignment" : 1,
   "linker_set_key" : "_ZTIA40_c",
   "name" : "char [40]",
   "referenced_type" : "_ZTIc",
   "self_type" : "_ZTIA40_c",
   "size" : 40,
   "source_file" : "packages/modules/NeuralNetworks/common/include/nnapi/Result.h"
  },
  {
   "alignment" : 1,
   "linker_set_key" : "_ZTIA42_c",
   "name" : "char [42]",
   "referenced_type" : "_ZTIc",
   "self_type" : "_ZTIA42_c",
   "size" : 42,
   "source_file" : "packages/modules/NeuralNetworks/common/include/nnapi/Result.h"
  },
  {
   "alignment" : 1,
   "linker_set_key" : "_ZTIA46_c",
   "name" : "char [46]",
   "referenced_type" : "_ZTIc",
   "self_type" : "_ZTIA46_c",
   "size" : 46,
   "source_file" : "packages/modules/NeuralNetworks/common/include/nnapi/Result.h"
  },
  {
   "alignment" : 1,
   "linker_set_key" : "_ZTIA61_c",
   "name" : "char [61]",
   "referenced_type" : "_ZTIc",
   "self_type" : "_ZTIA61_c",
   "size" : 61,
   "source_file" : "packages/modules/NeuralNetworks/common/include/nnapi/Result.h"
  },
  {
   "alignment" : 1,
   "linker_set_key" : "_ZTIA63_c",
   "name" : "char [63]",
   "referenced_type" : "_ZTIc",
   "self_type" : "_ZTIA63_c",
   "size" : 63,
   "source_file" : "packages/modules/NeuralNetworks/common/include/nnapi/Result.h"
  },
  {
   "alignment" : 1,
   "linker_set_key" : "_ZTIA84_c",
   "name" : "char [84]",
   "referenced_type" : "_ZTIc",
   "self_type" : "_ZTIA84_c",
   "size" : 84,
   "source_file" : "packages/modules/NeuralNetworks/common/include/nnapi/Result.h"
  }
 ],
 "builtin_types" :
 [
  {
   "alignment" : 8,
   "linker_set_key" : "_ZTIDn",
   "name" : "nullptr_t",
   "referenced_type" : "_ZTIDn",
   "self_type" : "_ZTIDn",
   "size" : 8
  },
  {
   "alignment" : 1,
   "is_integral" : true,
   "linker_set_key" : "_ZTIa",
   "name" : "signed char",
   "referenced_type" : "_ZTIa",
   "self_type" : "_ZTIa",
   "size" : 1
  },
  {
   "alignment" : 1,
   "is_integral" : true,
   "is_unsigned" : true,
   "linker_set_key" : "_ZTIb",
   "name" : "bool",
   "referenced_type" : "_ZTIb",
   "self_type" : "_ZTIb",
   "size" : 1
  },
  {
   "alignment" : 1,
   "is_integral" : true,
   "is_unsigned" : true,
   "linker_set_key" : "_ZTIc",
   "name" : "char",
   "referenced_type" : "_ZTIc",
   "self_type" : "_ZTIc",
   "size" : 1
  },
  {
   "alignment" : 8,
   "linker_set_key" : "_ZTId",
   "name" : "double",
   "referenced_type" : "_ZTId",
   "self_type" : "_ZTId",
   "size" : 8
  },
  {
   "alignment" : 4,
   "linker_set_key" : "_ZTIf",
   "name" : "float",
   "referenced_type" : "_ZTIf",
   "self_type" : "_ZTIf",
   "size" : 4
  },
  {
   "alignment" : 1,
   "is_integral" : true,
   "is_unsigned" : true,
   "linker_set_key" : "_ZTIh",
   "name" : "unsigned char",
   "referenced_type" : "_ZTIh",
   "self_type" : "_ZTIh",
   "size" : 1
  },
  {
   "alignment" : 4,
   "is_integral" : true,
   "linker_set_key" : "_ZTIi",
   "name" : "int",
   "referenced_type" : "_ZTIi",
   "self_type" : "_ZTIi",
   "size" : 4
  },
  {
   "alignment" : 4,
   "is_integral" : true,
   "is_unsigned" : true,
   "linker_set_key" : "_ZTIj",
   "name" : "unsigned int",
   "referenced_type" : "_ZTIj",
   "self_type" : "_ZTIj",
   "size" : 4
  },
  {
   "alignment" : 8,
   "is_integral" : true,
   "linker_set_key" : "_ZTIl",
   "name" : "long",
   "referenced_type" : "_ZTIl",
   "self_type" : "_ZTIl",
   "size" : 8
  },
  {
   "alignment" : 8,
   "is_integral" : true,
   "is_unsigned" : true,
   "linker_set_key" : "_ZTIm",
   "name" : "unsigned long",
   "referenced_type" : "_ZTIm",
   "self_type" : "_ZTIm",
   "size" : 8
  },
  {
   "alignment" : 2,
   "is_integral" : true,
   "linker_set_key" : "_ZTIs",
   "name" : "short",
   "referenced_type" : "_ZTIs",
   "self_type" : "_ZTIs",
   "size" : 2
  },
  {
   "alignment" : 2,
   "is_integral" : true,
   "is_unsigned" : true,
   "linker_set_key" : "_ZTIt",
   "name" : "unsigned short",
   "referenced_type" : "_ZTIt",
   "self_type" : "_ZTIt",
   "size" : 2
  },
  {
   "linker_set_key" : "_ZTIv",
   "name" : "void",
   "referenced_type" : "_ZTIv",
   "self_type" : "_ZTIv"
  },
  {
   "alignment" : 8,
   "is_integral" : true,
   "linker_set_key" : "_ZTIx",
   "name" : "long long",
   "referenced_type" : "_ZTIx",
   "self_type" : "_ZTIx",
   "size" : 8
  },
  {
   "alignment" : 8,
   "is_integral" : true,
   "is_unsigned" : true,
   "linker_set_key" : "_ZTIy",
   "name" : "unsigned long long",
   "referenced_type" : "_ZTIy",
   "self_type" : "_ZTIy",
   "size" : 8
  }
 ],
 "elf_functions" : [],
 "elf_objects" : [],
 "enum_types" :
 [
  {
   "alignment" : 4,
   "enum_fields" :
   [
    {
     "enum_field_value" : 0,
     "name" : "android::OK"
    },
    {
     "enum_field_value" : 0,
     "name" : "android::NO_ERROR"
    },
    {
     "enum_field_value" : -2147483648,
     "name" : "android::UNKNOWN_ERROR"
    },
    {
     "enum_field_value" : -12,
     "name" : "android::NO_MEMORY"
    },
    {
     "enum_field_value" : -38,
     "name" : "android::INVALID_OPERATION"
    },
    {
     "enum_field_value" : -22,
     "name" : "android::BAD_VALUE"
    },
    {
     "enum_field_value" : -2147483647,
     "name" : "android::BAD_TYPE"
    },
    {
     "enum_field_value" : -2,
     "name" : "android::NAME_NOT_FOUND"
    },
    {
     "enum_field_value" : -1,
     "name" : "android::PERMISSION_DENIED"
    },
    {
     "enum_field_value" : -19,
     "name" : "android::NO_INIT"
    },
    {
     "enum_field_value" : -17,
     "name" : "android::ALREADY_EXISTS"
    },
    {
     "enum_field_value" : -32,
     "name" : "android::DEAD_OBJECT"
    },
    {
     "enum_field_value" : -2147483646,
     "name" : "android::FAILED_TRANSACTION"
    },
    {
     "enum_field_value" : -75,
     "name" : "android::BAD_INDEX"
    },
    {
     "enum_field_value" : -61,
     "name" : "android::NOT_ENOUGH_DATA"
    },
    {
     "enum_field_value" : -11,
     "name" : "android::WOULD_BLOCK"
    },
    {
     "enum_field_value" : -110,
     "name" : "android::TIMED_OUT"
    },
    {
     "enum_field_value" : -74,
     "name" : "android::UNKNOWN_TRANSACTION"
    },
    {
     "enum_field_value" : -2147483641,
     "name" : "android::FDS_NOT_ALLOWED"
    },
    {
     "enum_field_value" : -2147483640,
     "name" : "android::UNEXPECTED_NULL"
    }
   ],
   "linker_set_key" : "_ZTIN7android15$ALREADY_EXISTSE",
   "name" : "android::(anonymous enum at system/core/libutils/include/utils/Errors.h:43:1)",
   "referenced_type" : "_ZTIN7android15$ALREADY_EXISTSE",
   "self_type" : "_ZTIN7android15$ALREADY_EXISTSE",
   "size" : 4,
   "source_file" : "system/core/libutils/include/utils/Errors.h",
   "underlying_type" : "_ZTIi"
  },
  {
   "alignment" : 4,
   "enum_fields" :
   [
    {
     "enum_field_value" : 1,
     "name" : "android::trait_trivial_copy<bool>::value"
    }
   ],
   "linker_set_key" : "_ZTIN7android18trait_trivial_copyIbE6$valueE",
   "name" : "android::trait_trivial_copy<bool>::(anonymous enum at system/core/libutils/include/utils/TypeHelpers.h:98:1)",
   "referenced_type" : "_ZTIN7android18trait_trivial_copyIbE6$valueE",
   "self_type" : "_ZTIN7android18trait_trivial_copyIbE6$valueE",
   "size" : 4,
   "source_file" : "system/core/libutils/include/utils/TypeHelpers.h",
   "underlying_type" : "_ZTIj"
  },
  {
   "alignment" : 4,
   "enum_fields" :
   [
    {
     "enum_field_value" : 1,
     "name" : "android::trait_trivial_copy<char>::value"
    }
   ],
   "linker_set_key" : "_ZTIN7android18trait_trivial_copyIcE6$valueE",
   "name" : "android::trait_trivial_copy<char>::(anonymous enum at system/core/libutils/include/utils/TypeHelpers.h:99:1)",
   "referenced_type" : "_ZTIN7android18trait_trivial_copyIcE6$valueE",
   "self_type" : "_ZTIN7android18trait_trivial_copyIcE6$valueE",
   "size" : 4,
   "source_file" : "system/core/libutils/include/utils/TypeHelpers.h",
   "underlying_type" : "_ZTIj"
  },
  {
   "alignment" : 4,
   "enum_fields" :
   [
    {
     "enum_field_value" : 1,
     "name" : "android::trait_trivial_copy<double>::value"
    }
   ],
   "linker_set_key" : "_ZTIN7android18trait_trivial_copyIdE6$valueE",
   "name" : "android::trait_trivial_copy<double>::(anonymous enum at system/core/libutils/include/utils/TypeHelpers.h:110:1)",
   "referenced_type" : "_ZTIN7android18trait_trivial_copyIdE6$valueE",
   "self_type" : "_ZTIN7android18trait_trivial_copyIdE6$valueE",
   "size" : 4,
   "source_file" : "system/core/libutils/include/utils/TypeHelpers.h",
   "underlying_type" : "_ZTIj"
  },
  {
   "alignment" : 4,
   "enum_fields" :
   [
    {
     "enum_field_value" : 1,
     "name" : "android::trait_trivial_copy<float>::value"
    }
   ],
   "linker_set_key" : "_ZTIN7android18trait_trivial_copyIfE6$valueE",
   "name" : "android::trait_trivial_copy<float>::(anonymous enum at system/core/libutils/include/utils/TypeHelpers.h:109:1)",
   "referenced_type" : "_ZTIN7android18trait_trivial_copyIfE6$valueE",
   "self_type" : "_ZTIN7android18trait_trivial_copyIfE6$valueE",
   "size" : 4,
   "source_file" : "system/core/libutils/include/utils/TypeHelpers.h",
   "underlying_type" : "_ZTIj"
  },
  {
   "alignment" : 4,
   "enum_fields" :
   [
    {
     "enum_field_value" : 1,
     "name" : "android::trait_trivial_copy<unsigned char>::value"
    }
   ],
   "linker_set_key" : "_ZTIN7android18trait_trivial_copyIhE6$valueE",
   "name" : "android::trait_trivial_copy<unsigned char>::(anonymous enum at system/core/libutils/include/utils/TypeHelpers.h:100:1)",
   "referenced_type" : "_ZTIN7android18trait_trivial_copyIhE6$valueE",
   "self_type" : "_ZTIN7android18trait_trivial_copyIhE6$valueE",
   "size" : 4,
   "source_file" : "system/core/libutils/include/utils/TypeHelpers.h",
   "underlying_type" : "_ZTIj"
  },
  {
   "alignment" : 4,
   "enum_fields" :
   [
    {
     "enum_field_value" : 1,
     "name" : "android::trait_trivial_copy<int>::value"
    }
   ],
   "linker_set_key" : "_ZTIN7android18trait_trivial_copyIiE6$valueE",
   "name" : "android::trait_trivial_copy<int>::(anonymous enum at system/core/libutils/include/utils/TypeHelpers.h:103:1)",
   "referenced_type" : "_ZTIN7android18trait_trivial_copyIiE6$valueE",
   "self_type" : "_ZTIN7android18trait_trivial_copyIiE6$valueE",
   "size" : 4,
   "source_file" : "system/core/libutils/include/utils/TypeHelpers.h",
   "underlying_type" : "_ZTIj"
  },
  {
   "alignment" : 4,
   "enum_fields" :
   [
    {
     "enum_field_value" : 1,
     "name" : "android::trait_trivial_copy<unsigned int>::value"
    }
   ],
   "linker_set_key" : "_ZTIN7android18trait_trivial_copyIjE6$valueE",
   "name" : "android::trait_trivial_copy<unsigned int>::(anonymous enum at system/core/libutils/include/utils/TypeHelpers.h:104:1)",
   "referenced_type" : "_ZTIN7android18trait_trivial_copyIjE6$valueE",
   "self_type" : "_ZTIN7android18trait_trivial_copyIjE6$valueE",
   "size" : 4,
   "source_file" : "system/core/libutils/include/utils/TypeHelpers.h",
   "underlying_type" : "_ZTIj"
  },
  {
   "alignment" : 4,
   "enum_fields" :
   [
    {
     "enum_field_value" : 1,
     "name" : "android::trait_trivial_copy<long>::value"
    }
   ],
   "linker_set_key" : "_ZTIN7android18trait_trivial_copyIlE6$valueE",
   "name" : "android::trait_trivial_copy<long>::(anonymous enum at system/core/libutils/include/utils/TypeHelpers.h:105:1)",
   "referenced_type" : "_ZTIN7android18trait_trivial_copyIlE6$valueE",
   "self_type" : "_ZTIN7android18trait_trivial_copyIlE6$valueE",
   "size" : 4,
   "source_file" : "system/core/libutils/include/utils/TypeHelpers.h",
   "underlying_type" : "_ZTIj"
  },
  {
   "alignment" : 4,
   "enum_fields" :
   [
    {
     "enum_field_value" : 1,
     "name" : "android::trait_trivial_copy<unsigned long>::value"
    }
   ],
   "linker_set_key" : "_ZTIN7android18trait_trivial_copyImE6$valueE",
   "name" : "android::trait_trivial_copy<unsigned long>::(anonymous enum at system/core/libutils/include/utils/TypeHelpers.h:106:1)",
   "referenced_type" : "_ZTIN7android18trait_trivial_copyImE6$valueE",
   "self_type" : "_ZTIN7android18trait_trivial_copyImE6$valueE",
   "size" : 4,
   "source_file" : "system/core/libutils/include/utils/TypeHelpers.h",
   "underlying_type" : "_ZTIj"
  },
  {
   "alignment" : 4,
   "enum_fields" :
   [
    {
     "enum_field_value" : 1,
     "name" : "android::trait_trivial_copy<short>::value"
    }
   ],
   "linker_set_key" : "_ZTIN7android18trait_trivial_copyIsE6$valueE",
   "name" : "android::trait_trivial_copy<short>::(anonymous enum at system/core/libutils/include/utils/TypeHelpers.h:101:1)",
   "referenced_type" : "_ZTIN7android18trait_trivial_copyIsE6$valueE",
   "self_type" : "_ZTIN7android18trait_trivial_copyIsE6$valueE",
   "size" : 4,
   "source_file" : "system/core/libutils/include/utils/TypeHelpers.h",
   "underlying_type" : "_ZTIj"
  },
  {
   "alignment" : 4,
   "enum_fields" :
   [
    {
     "enum_field_value" : 1,
     "name" : "android::trait_trivial_copy<unsigned short>::value"
    }
   ],
   "linker_set_key" : "_ZTIN7android18trait_trivial_copyItE6$valueE",
   "name" : "android::trait_trivial_copy<unsigned short>::(anonymous enum at system/core/libutils/include/utils/TypeHelpers.h:102:1)",
   "referenced_type" : "_ZTIN7android18trait_trivial_copyItE6$valueE",
   "self_type" : "_ZTIN7android18trait_trivial_copyItE6$valueE",
   "size" : 4,
   "source_file" : "system/core/libutils/include/utils/TypeHelpers.h",
   "underlying_type" : "_ZTIj"
  },
  {
   "alignment" : 4,
   "enum_fields" :
   [
    {
     "enum_field_value" : 1,
     "name" : "android::trait_trivial_copy<void>::value"
    }
   ],
   "linker_set_key" : "_ZTIN7android18trait_trivial_copyIvE6$valueE",
   "name" : "android::trait_trivial_copy<void>::(anonymous enum at system/core/libutils/include/utils/TypeHelpers.h:97:1)",
   "referenced_type" : "_ZTIN7android18trait_trivial_copyIvE6$valueE",
   "self_type" : "_ZTIN7android18trait_trivial_copyIvE6$valueE",
   "size" : 4,
   "source_file" : "system/core/libutils/include/utils/TypeHelpers.h",
   "underlying_type" : "_ZTIj"
  },
  {
   "alignment" : 4,
   "enum_fields" :
   [
    {
     "enum_field_value" : 1,
     "name" : "android::trait_trivial_copy<long long>::value"
    }
   ],
   "linker_set_key" : "_ZTIN7android18trait_trivial_copyIxE6$valueE",
   "name" : "android::trait_trivial_copy<long long>::(anonymous enum at system/core/libutils/include/utils/TypeHelpers.h:107:1)",
   "referenced_type" : "_ZTIN7android18trait_trivial_copyIxE6$valueE",
   "self_type" : "_ZTIN7android18trait_trivial_copyIxE6$valueE",
   "size" : 4,
   "source_file" : "system/core/libutils/include/utils/TypeHelpers.h",
   "underlying_type" : "_ZTIj"
  },
  {
   "alignment" : 4,
   "enum_fields" :
   [
    {
     "enum_field_value" : 1,
     "name" : "android::trait_trivial_copy<unsigned long long>::value"
    }
   ],
   "linker_set_key" : "_ZTIN7android18trait_trivial_copyIyE6$valueE",
   "name" : "android::trait_trivial_copy<unsigned long long>::(anonymous enum at system/core/libutils/include/utils/TypeHelpers.h:108:1)",
   "referenced_type" : "_ZTIN7android18trait_trivial_copyIyE6$valueE",
   "self_type" : "_ZTIN7android18trait_trivial_copyIyE6$valueE",
   "size" : 4,
   "source_file" : "system/core/libutils/include/utils/TypeHelpers.h",
   "underlying_type" : "_ZTIj"
  },
  {
   "alignment" : 4,
   "enum_fields" :
   [
    {
     "enum_field_value" : 1,
     "name" : "android::trait_trivial_ctor<bool>::value"
    }
   ],
   "linker_set_key" : "_ZTIN7android18trait_trivial_ctorIbE6$valueE",
   "name" : "android::trait_trivial_ctor<bool>::(anonymous enum at system/core/libutils/include/utils/TypeHelpers.h:98:1)",
   "referenced_type" : "_ZTIN7android18trait_trivial_ctorIbE6$valueE",
   "self_type" : "_ZTIN7android18trait_trivial_ctorIbE6$valueE",
   "size" : 4,
   "source_file" : "system/core/libutils/include/utils/TypeHelpers.h",
   "underlying_type" : "_ZTIj"
  },
  {
   "alignment" : 4,
   "enum_fields" :
   [
    {
     "enum_field_value" : 1,
     "name" : "android::trait_trivial_ctor<char>::value"
    }
   ],
   "linker_set_key" : "_ZTIN7android18trait_trivial_ctorIcE6$valueE",
   "name" : "android::trait_trivial_ctor<char>::(anonymous enum at system/core/libutils/include/utils/TypeHelpers.h:99:1)",
   "referenced_type" : "_ZTIN7android18trait_trivial_ctorIcE6$valueE",
   "self_type" : "_ZTIN7android18trait_trivial_ctorIcE6$valueE",
   "size" : 4,
   "source_file" : "system/core/libutils/include/utils/TypeHelpers.h",
   "underlying_type" : "_ZTIj"
  },
  {
   "alignment" : 4,
   "enum_fields" :
   [
    {
     "enum_field_value" : 1,
     "name" : "android::trait_trivial_ctor<double>::value"
    }
   ],
   "linker_set_key" : "_ZTIN7android18trait_trivial_ctorIdE6$valueE",
   "name" : "android::trait_trivial_ctor<double>::(anonymous enum at system/core/libutils/include/utils/TypeHelpers.h:110:1)",
   "referenced_type" : "_ZTIN7android18trait_trivial_ctorIdE6$valueE",
   "self_type" : "_ZTIN7android18trait_trivial_ctorIdE6$valueE",
   "size" : 4,
   "source_file" : "system/core/libutils/include/utils/TypeHelpers.h",
   "underlying_type" : "_ZTIj"
  },
  {
   "alignment" : 4,
   "enum_fields" :
   [
    {
     "enum_field_value" : 1,
     "name" : "android::trait_trivial_ctor<float>::value"
    }
   ],
   "linker_set_key" : "_ZTIN7android18trait_trivial_ctorIfE6$valueE",
   "name" : "android::trait_trivial_ctor<float>::(anonymous enum at system/core/libutils/include/utils/TypeHelpers.h:109:1)",
   "referenced_type" : "_ZTIN7android18trait_trivial_ctorIfE6$valueE",
   "self_type" : "_ZTIN7android18trait_trivial_ctorIfE6$valueE",
   "size" : 4,
   "source_file" : "system/core/libutils/include/utils/TypeHelpers.h",
   "underlying_type" : "_ZTIj"
  },
  {
   "alignment" : 4,
   "enum_fields" :
   [
    {
     "enum_field_value" : 1,
     "name" : "android::trait_trivial_ctor<unsigned char>::value"
    }
   ],
   "linker_set_key" : "_ZTIN7android18trait_trivial_ctorIhE6$valueE",
   "name" : "android::trait_trivial_ctor<unsigned char>::(anonymous enum at system/core/libutils/include/utils/TypeHelpers.h:100:1)",
   "referenced_type" : "_ZTIN7android18trait_trivial_ctorIhE6$valueE",
   "self_type" : "_ZTIN7android18trait_trivial_ctorIhE6$valueE",
   "size" : 4,
   "source_file" : "system/core/libutils/include/utils/TypeHelpers.h",
   "underlying_type" : "_ZTIj"
  },
  {
   "alignment" : 4,
   "enum_fields" :
   [
    {
     "enum_field_value" : 1,
     "name" : "android::trait_trivial_ctor<int>::value"
    }
   ],
   "linker_set_key" : "_ZTIN7android18trait_trivial_ctorIiE6$valueE",
   "name" : "android::trait_trivial_ctor<int>::(anonymous enum at system/core/libutils/include/utils/TypeHelpers.h:103:1)",
   "referenced_type" : "_ZTIN7android18trait_trivial_ctorIiE6$valueE",
   "self_type" : "_ZTIN7android18trait_trivial_ctorIiE6$valueE",
   "size" : 4,
   "source_file" : "system/core/libutils/include/utils/TypeHelpers.h",
   "underlying_type" : "_ZTIj"
  },
  {
   "alignment" : 4,
   "enum_fields" :
   [
    {
     "enum_field_value" : 1,
     "name" : "android::trait_trivial_ctor<unsigned int>::value"
    }
   ],
   "linker_set_key" : "_ZTIN7android18trait_trivial_ctorIjE6$valueE",
   "name" : "android::trait_trivial_ctor<unsigned int>::(anonymous enum at system/core/libutils/include/utils/TypeHelpers.h:104:1)",
   "referenced_type" : "_ZTIN7android18trait_trivial_ctorIjE6$valueE",
   "self_type" : "_ZTIN7android18trait_trivial_ctorIjE6$valueE",
   "size" : 4,
   "source_file" : "system/core/libutils/include/utils/TypeHelpers.h",
   "underlying_type" : "_ZTIj"
  },
  {
   "alignment" : 4,
   "enum_fields" :
   [
    {
     "enum_field_value" : 1,
     "name" : "android::trait_trivial_ctor<long>::value"
    }
   ],
   "linker_set_key" : "_ZTIN7android18trait_trivial_ctorIlE6$valueE",
   "name" : "android::trait_trivial_ctor<long>::(anonymous enum at system/core/libutils/include/utils/TypeHelpers.h:105:1)",
   "referenced_type" : "_ZTIN7android18trait_trivial_ctorIlE6$valueE",
   "self_type" : "_ZTIN7android18trait_trivial_ctorIlE6$valueE",
   "size" : 4,
   "source_file" : "system/core/libutils/include/utils/TypeHelpers.h",
   "underlying_type" : "_ZTIj"
  },
  {
   "alignment" : 4,
   "enum_fields" :
   [
    {
     "enum_field_value" : 1,
     "name" : "android::trait_trivial_ctor<unsigned long>::value"
    }
   ],
   "linker_set_key" : "_ZTIN7android18trait_trivial_ctorImE6$valueE",
   "name" : "android::trait_trivial_ctor<unsigned long>::(anonymous enum at system/core/libutils/include/utils/TypeHelpers.h:106:1)",
   "referenced_type" : "_ZTIN7android18trait_trivial_ctorImE6$valueE",
   "self_type" : "_ZTIN7android18trait_trivial_ctorImE6$valueE",
   "size" : 4,
   "source_file" : "system/core/libutils/include/utils/TypeHelpers.h",
   "underlying_type" : "_ZTIj"
  },
  {
   "alignment" : 4,
   "enum_fields" :
   [
    {
     "enum_field_value" : 1,
     "name" : "android::trait_trivial_ctor<short>::value"
    }
   ],
   "linker_set_key" : "_ZTIN7android18trait_trivial_ctorIsE6$valueE",
   "name" : "android::trait_trivial_ctor<short>::(anonymous enum at system/core/libutils/include/utils/TypeHelpers.h:101:1)",
   "referenced_type" : "_ZTIN7android18trait_trivial_ctorIsE6$valueE",
   "self_type" : "_ZTIN7android18trait_trivial_ctorIsE6$valueE",
   "size" : 4,
   "source_file" : "system/core/libutils/include/utils/TypeHelpers.h",
   "underlying_type" : "_ZTIj"
  },
  {
   "alignment" : 4,
   "enum_fields" :
   [
    {
     "enum_field_value" : 1,
     "name" : "android::trait_trivial_ctor<unsigned short>::value"
    }
   ],
   "linker_set_key" : "_ZTIN7android18trait_trivial_ctorItE6$valueE",
   "name" : "android::trait_trivial_ctor<unsigned short>::(anonymous enum at system/core/libutils/include/utils/TypeHelpers.h:102:1)",
   "referenced_type" : "_ZTIN7android18trait_trivial_ctorItE6$valueE",
   "self_type" : "_ZTIN7android18trait_trivial_ctorItE6$valueE",
   "size" : 4,
   "source_file" : "system/core/libutils/include/utils/TypeHelpers.h",
   "underlying_type" : "_ZTIj"
  },
  {
   "alignment" : 4,
   "enum_fields" :
   [
    {
     "enum_field_value" : 1,
     "name" : "android::trait_trivial_ctor<void>::value"
    }
   ],
   "linker_set_key" : "_ZTIN7android18trait_trivial_ctorIvE6$valueE",
   "name" : "android::trait_trivial_ctor<void>::(anonymous enum at system/core/libutils/include/utils/TypeHelpers.h:97:1)",
   "referenced_type" : "_ZTIN7android18trait_trivial_ctorIvE6$valueE",
   "self_type" : "_ZTIN7android18trait_trivial_ctorIvE6$valueE",
   "size" : 4,
   "source_file" : "system/core/libutils/include/utils/TypeHelpers.h",
   "underlying_type" : "_ZTIj"
  },
  {
   "alignment" : 4,
   "enum_fields" :
   [
    {
     "enum_field_value" : 1,
     "name" : "android::trait_trivial_ctor<long long>::value"
    }
   ],
   "linker_set_key" : "_ZTIN7android18trait_trivial_ctorIxE6$valueE",
   "name" : "android::trait_trivial_ctor<long long>::(anonymous enum at system/core/libutils/include/utils/TypeHelpers.h:107:1)",
   "referenced_type" : "_ZTIN7android18trait_trivial_ctorIxE6$valueE",
   "self_type" : "_ZTIN7android18trait_trivial_ctorIxE6$valueE",
   "size" : 4,
   "source_file" : "system/core/libutils/include/utils/TypeHelpers.h",
   "underlying_type" : "_ZTIj"
  },
  {
   "alignment" : 4,
   "enum_fields" :
   [
    {
     "enum_field_value" : 1,
     "name" : "android::trait_trivial_ctor<unsigned long long>::value"
    }
   ],
   "linker_set_key" : "_ZTIN7android18trait_trivial_ctorIyE6$valueE",
   "name" : "android::trait_trivial_ctor<unsigned long long>::(anonymous enum at system/core/libutils/include/utils/TypeHelpers.h:108:1)",
   "referenced_type" : "_ZTIN7android18trait_trivial_ctorIyE6$valueE",
   "self_type" : "_ZTIN7android18trait_trivial_ctorIyE6$valueE",
   "size" : 4,
   "source_file" : "system/core/libutils/include/utils/TypeHelpers.h",
   "underlying_type" : "_ZTIj"
  },
  {
   "alignment" : 4,
   "enum_fields" :
   [
    {
     "enum_field_value" : 1,
     "name" : "android::trait_trivial_dtor<bool>::value"
    }
   ],
   "linker_set_key" : "_ZTIN7android18trait_trivial_dtorIbE6$valueE",
   "name" : "android::trait_trivial_dtor<bool>::(anonymous enum at system/core/libutils/include/utils/TypeHelpers.h:98:1)",
   "referenced_type" : "_ZTIN7android18trait_trivial_dtorIbE6$valueE",
   "self_type" : "_ZTIN7android18trait_trivial_dtorIbE6$valueE",
   "size" : 4,
   "source_file" : "system/core/libutils/include/utils/TypeHelpers.h",
   "underlying_type" : "_ZTIj"
  },
  {
   "alignment" : 4,
   "enum_fields" :
   [
    {
     "enum_field_value" : 1,
     "name" : "android::trait_trivial_dtor<char>::value"
    }
   ],
   "linker_set_key" : "_ZTIN7android18trait_trivial_dtorIcE6$valueE",
   "name" : "android::trait_trivial_dtor<char>::(anonymous enum at system/core/libutils/include/utils/TypeHelpers.h:99:1)",
   "referenced_type" : "_ZTIN7android18trait_trivial_dtorIcE6$valueE",
   "self_type" : "_ZTIN7android18trait_trivial_dtorIcE6$valueE",
   "size" : 4,
   "source_file" : "system/core/libutils/include/utils/TypeHelpers.h",
   "underlying_type" : "_ZTIj"
  },
  {
   "alignment" : 4,
   "enum_fields" :
   [
    {
     "enum_field_value" : 1,
     "name" : "android::trait_trivial_dtor<double>::value"
    }
   ],
   "linker_set_key" : "_ZTIN7android18trait_trivial_dtorIdE6$valueE",
   "name" : "android::trait_trivial_dtor<double>::(anonymous enum at system/core/libutils/include/utils/TypeHelpers.h:110:1)",
   "referenced_type" : "_ZTIN7android18trait_trivial_dtorIdE6$valueE",
   "self_type" : "_ZTIN7android18trait_trivial_dtorIdE6$valueE",
   "size" : 4,
   "source_file" : "system/core/libutils/include/utils/TypeHelpers.h",
   "underlying_type" : "_ZTIj"
  },
  {
   "alignment" : 4,
   "enum_fields" :
   [
    {
     "enum_field_value" : 1,
     "name" : "android::trait_trivial_dtor<float>::value"
    }
   ],
   "linker_set_key" : "_ZTIN7android18trait_trivial_dtorIfE6$valueE",
   "name" : "android::trait_trivial_dtor<float>::(anonymous enum at system/core/libutils/include/utils/TypeHelpers.h:109:1)",
   "referenced_type" : "_ZTIN7android18trait_trivial_dtorIfE6$valueE",
   "self_type" : "_ZTIN7android18trait_trivial_dtorIfE6$valueE",
   "size" : 4,
   "source_file" : "system/core/libutils/include/utils/TypeHelpers.h",
   "underlying_type" : "_ZTIj"
  },
  {
   "alignment" : 4,
   "enum_fields" :
   [
    {
     "enum_field_value" : 1,
     "name" : "android::trait_trivial_dtor<unsigned char>::value"
    }
   ],
   "linker_set_key" : "_ZTIN7android18trait_trivial_dtorIhE6$valueE",
   "name" : "android::trait_trivial_dtor<unsigned char>::(anonymous enum at system/core/libutils/include/utils/TypeHelpers.h:100:1)",
   "referenced_type" : "_ZTIN7android18trait_trivial_dtorIhE6$valueE",
   "self_type" : "_ZTIN7android18trait_trivial_dtorIhE6$valueE",
   "size" : 4,
   "source_file" : "system/core/libutils/include/utils/TypeHelpers.h",
   "underlying_type" : "_ZTIj"
  },
  {
   "alignment" : 4,
   "enum_fields" :
   [
    {
     "enum_field_value" : 1,
     "name" : "android::trait_trivial_dtor<int>::value"
    }
   ],
   "linker_set_key" : "_ZTIN7android18trait_trivial_dtorIiE6$valueE",
   "name" : "android::trait_trivial_dtor<int>::(anonymous enum at system/core/libutils/include/utils/TypeHelpers.h:103:1)",
   "referenced_type" : "_ZTIN7android18trait_trivial_dtorIiE6$valueE",
   "self_type" : "_ZTIN7android18trait_trivial_dtorIiE6$valueE",
   "size" : 4,
   "source_file" : "system/core/libutils/include/utils/TypeHelpers.h",
   "underlying_type" : "_ZTIj"
  },
  {
   "alignment" : 4,
   "enum_fields" :
   [
    {
     "enum_field_value" : 1,
     "name" : "android::trait_trivial_dtor<unsigned int>::value"
    }
   ],
   "linker_set_key" : "_ZTIN7android18trait_trivial_dtorIjE6$valueE",
   "name" : "android::trait_trivial_dtor<unsigned int>::(anonymous enum at system/core/libutils/include/utils/TypeHelpers.h:104:1)",
   "referenced_type" : "_ZTIN7android18trait_trivial_dtorIjE6$valueE",
   "self_type" : "_ZTIN7android18trait_trivial_dtorIjE6$valueE",
   "size" : 4,
   "source_file" : "system/core/libutils/include/utils/TypeHelpers.h",
   "underlying_type" : "_ZTIj"
  },
  {
   "alignment" : 4,
   "enum_fields" :
   [
    {
     "enum_field_value" : 1,
     "name" : "android::trait_trivial_dtor<long>::value"
    }
   ],
   "linker_set_key" : "_ZTIN7android18trait_trivial_dtorIlE6$valueE",
   "name" : "android::trait_trivial_dtor<long>::(anonymous enum at system/core/libutils/include/utils/TypeHelpers.h:105:1)",
   "referenced_type" : "_ZTIN7android18trait_trivial_dtorIlE6$valueE",
   "self_type" : "_ZTIN7android18trait_trivial_dtorIlE6$valueE",
   "size" : 4,
   "source_file" : "system/core/libutils/include/utils/TypeHelpers.h",
   "underlying_type" : "_ZTIj"
  },
  {
   "alignment" : 4,
   "enum_fields" :
   [
    {
     "enum_field_value" : 1,
     "name" : "android::trait_trivial_dtor<unsigned long>::value"
    }
   ],
   "linker_set_key" : "_ZTIN7android18trait_trivial_dtorImE6$valueE",
   "name" : "android::trait_trivial_dtor<unsigned long>::(anonymous enum at system/core/libutils/include/utils/TypeHelpers.h:106:1)",
   "referenced_type" : "_ZTIN7android18trait_trivial_dtorImE6$valueE",
   "self_type" : "_ZTIN7android18trait_trivial_dtorImE6$valueE",
   "size" : 4,
   "source_file" : "system/core/libutils/include/utils/TypeHelpers.h",
   "underlying_type" : "_ZTIj"
  },
  {
   "alignment" : 4,
   "enum_fields" :
   [
    {
     "enum_field_value" : 1,
     "name" : "android::trait_trivial_dtor<short>::value"
    }
   ],
   "linker_set_key" : "_ZTIN7android18trait_trivial_dtorIsE6$valueE",
   "name" : "android::trait_trivial_dtor<short>::(anonymous enum at system/core/libutils/include/utils/TypeHelpers.h:101:1)",
   "referenced_type" : "_ZTIN7android18trait_trivial_dtorIsE6$valueE",
   "self_type" : "_ZTIN7android18trait_trivial_dtorIsE6$valueE",
   "size" : 4,
   "source_file" : "system/core/libutils/include/utils/TypeHelpers.h",
   "underlying_type" : "_ZTIj"
  },
  {
   "alignment" : 4,
   "enum_fields" :
   [
    {
     "enum_field_value" : 1,
     "name" : "android::trait_trivial_dtor<unsigned short>::value"
    }
   ],
   "linker_set_key" : "_ZTIN7android18trait_trivial_dtorItE6$valueE",
   "name" : "android::trait_trivial_dtor<unsigned short>::(anonymous enum at system/core/libutils/include/utils/TypeHelpers.h:102:1)",
   "referenced_type" : "_ZTIN7android18trait_trivial_dtorItE6$valueE",
   "self_type" : "_ZTIN7android18trait_trivial_dtorItE6$valueE",
   "size" : 4,
   "source_file" : "system/core/libutils/include/utils/TypeHelpers.h",
   "underlying_type" : "_ZTIj"
  },
  {
   "alignment" : 4,
   "enum_fields" :
   [
    {
     "enum_field_value" : 1,
     "name" : "android::trait_trivial_dtor<void>::value"
    }
   ],
   "linker_set_key" : "_ZTIN7android18trait_trivial_dtorIvE6$valueE",
   "name" : "android::trait_trivial_dtor<void>::(anonymous enum at system/core/libutils/include/utils/TypeHelpers.h:97:1)",
   "referenced_type" : "_ZTIN7android18trait_trivial_dtorIvE6$valueE",
   "self_type" : "_ZTIN7android18trait_trivial_dtorIvE6$valueE",
   "size" : 4,
   "source_file" : "system/core/libutils/include/utils/TypeHelpers.h",
   "underlying_type" : "_ZTIj"
  },
  {
   "alignment" : 4,
   "enum_fields" :
   [
    {
     "enum_field_value" : 1,
     "name" : "android::trait_trivial_dtor<long long>::value"
    }
   ],
   "linker_set_key" : "_ZTIN7android18trait_trivial_dtorIxE6$valueE",
   "name" : "android::trait_trivial_dtor<long long>::(anonymous enum at system/core/libutils/include/utils/TypeHelpers.h:107:1)",
   "referenced_type" : "_ZTIN7android18trait_trivial_dtorIxE6$valueE",
   "self_type" : "_ZTIN7android18trait_trivial_dtorIxE6$valueE",
   "size" : 4,
   "source_file" : "system/core/libutils/include/utils/TypeHelpers.h",
   "underlying_type" : "_ZTIj"
  },
  {
   "alignment" : 4,
   "enum_fields" :
   [
    {
     "enum_field_value" : 1,
     "name" : "android::trait_trivial_dtor<unsigned long long>::value"
    }
   ],
   "linker_set_key" : "_ZTIN7android18trait_trivial_dtorIyE6$valueE",
   "name" : "android::trait_trivial_dtor<unsigned long long>::(anonymous enum at system/core/libutils/include/utils/TypeHelpers.h:108:1)",
   "referenced_type" : "_ZTIN7android18trait_trivial_dtorIyE6$valueE",
   "self_type" : "_ZTIN7android18trait_trivial_dtorIyE6$valueE",
   "size" : 4,
   "source_file" : "system/core/libutils/include/utils/TypeHelpers.h",
   "underlying_type" : "_ZTIj"
  },
  {
   "alignment" : 4,
   "enum_fields" :
   [
    {
     "enum_field_value" : 1,
     "name" : "android::trait_trivial_move<bool>::value"
    }
   ],
   "linker_set_key" : "_ZTIN7android18trait_trivial_moveIbE6$valueE",
   "name" : "android::trait_trivial_move<bool>::(anonymous enum at system/core/libutils/include/utils/TypeHelpers.h:98:1)",
   "referenced_type" : "_ZTIN7android18trait_trivial_moveIbE6$valueE",
   "self_type" : "_ZTIN7android18trait_trivial_moveIbE6$valueE",
   "size" : 4,
   "source_file" : "system/core/libutils/include/utils/TypeHelpers.h",
   "underlying_type" : "_ZTIj"
  },
  {
   "alignment" : 4,
   "enum_fields" :
   [
    {
     "enum_field_value" : 1,
     "name" : "android::trait_trivial_move<char>::value"
    }
   ],
   "linker_set_key" : "_ZTIN7android18trait_trivial_moveIcE6$valueE",
   "name" : "android::trait_trivial_move<char>::(anonymous enum at system/core/libutils/include/utils/TypeHelpers.h:99:1)",
   "referenced_type" : "_ZTIN7android18trait_trivial_moveIcE6$valueE",
   "self_type" : "_ZTIN7android18trait_trivial_moveIcE6$valueE",
   "size" : 4,
   "source_file" : "system/core/libutils/include/utils/TypeHelpers.h",
   "underlying_type" : "_ZTIj"
  },
  {
   "alignment" : 4,
   "enum_fields" :
   [
    {
     "enum_field_value" : 1,
     "name" : "android::trait_trivial_move<double>::value"
    }
   ],
   "linker_set_key" : "_ZTIN7android18trait_trivial_moveIdE6$valueE",
   "name" : "android::trait_trivial_move<double>::(anonymous enum at system/core/libutils/include/utils/TypeHelpers.h:110:1)",
   "referenced_type" : "_ZTIN7android18trait_trivial_moveIdE6$valueE",
   "self_type" : "_ZTIN7android18trait_trivial_moveIdE6$valueE",
   "size" : 4,
   "source_file" : "system/core/libutils/include/utils/TypeHelpers.h",
   "underlying_type" : "_ZTIj"
  },
  {
   "alignment" : 4,
   "enum_fields" :
   [
    {
     "enum_field_value" : 1,
     "name" : "android::trait_trivial_move<float>::value"
    }
   ],
   "linker_set_key" : "_ZTIN7android18trait_trivial_moveIfE6$valueE",
   "name" : "android::trait_trivial_move<float>::(anonymous enum at system/core/libutils/include/utils/TypeHelpers.h:109:1)",
   "referenced_type" : "_ZTIN7android18trait_trivial_moveIfE6$valueE",
   "self_type" : "_ZTIN7android18trait_trivial_moveIfE6$valueE",
   "size" : 4,
   "source_file" : "system/core/libutils/include/utils/TypeHelpers.h",
   "underlying_type" : "_ZTIj"
  },
  {
   "alignment" : 4,
   "enum_fields" :
   [
    {
     "enum_field_value" : 1,
     "name" : "android::trait_trivial_move<unsigned char>::value"
    }
   ],
   "linker_set_key" : "_ZTIN7android18trait_trivial_moveIhE6$valueE",
   "name" : "android::trait_trivial_move<unsigned char>::(anonymous enum at system/core/libutils/include/utils/TypeHelpers.h:100:1)",
   "referenced_type" : "_ZTIN7android18trait_trivial_moveIhE6$valueE",
   "self_type" : "_ZTIN7android18trait_trivial_moveIhE6$valueE",
   "size" : 4,
   "source_file" : "system/core/libutils/include/utils/TypeHelpers.h",
   "underlying_type" : "_ZTIj"
  },
  {
   "alignment" : 4,
   "enum_fields" :
   [
    {
     "enum_field_value" : 1,
     "name" : "android::trait_trivial_move<int>::value"
    }
   ],
   "linker_set_key" : "_ZTIN7android18trait_trivial_moveIiE6$valueE",
   "name" : "android::trait_trivial_move<int>::(anonymous enum at system/core/libutils/include/utils/TypeHelpers.h:103:1)",
   "referenced_type" : "_ZTIN7android18trait_trivial_moveIiE6$valueE",
   "self_type" : "_ZTIN7android18trait_trivial_moveIiE6$valueE",
   "size" : 4,
   "source_file" : "system/core/libutils/include/utils/TypeHelpers.h",
   "underlying_type" : "_ZTIj"
  },
  {
   "alignment" : 4,
   "enum_fields" :
   [
    {
     "enum_field_value" : 1,
     "name" : "android::trait_trivial_move<unsigned int>::value"
    }
   ],
   "linker_set_key" : "_ZTIN7android18trait_trivial_moveIjE6$valueE",
   "name" : "android::trait_trivial_move<unsigned int>::(anonymous enum at system/core/libutils/include/utils/TypeHelpers.h:104:1)",
   "referenced_type" : "_ZTIN7android18trait_trivial_moveIjE6$valueE",
   "self_type" : "_ZTIN7android18trait_trivial_moveIjE6$valueE",
   "size" : 4,
   "source_file" : "system/core/libutils/include/utils/TypeHelpers.h",
   "underlying_type" : "_ZTIj"
  },
  {
   "alignment" : 4,
   "enum_fields" :
   [
    {
     "enum_field_value" : 1,
     "name" : "android::trait_trivial_move<long>::value"
    }
   ],
   "linker_set_key" : "_ZTIN7android18trait_trivial_moveIlE6$valueE",
   "name" : "android::trait_trivial_move<long>::(anonymous enum at system/core/libutils/include/utils/TypeHelpers.h:105:1)",
   "referenced_type" : "_ZTIN7android18trait_trivial_moveIlE6$valueE",
   "self_type" : "_ZTIN7android18trait_trivial_moveIlE6$valueE",
   "size" : 4,
   "source_file" : "system/core/libutils/include/utils/TypeHelpers.h",
   "underlying_type" : "_ZTIj"
  },
  {
   "alignment" : 4,
   "enum_fields" :
   [
    {
     "enum_field_value" : 1,
     "name" : "android::trait_trivial_move<unsigned long>::value"
    }
   ],
   "linker_set_key" : "_ZTIN7android18trait_trivial_moveImE6$valueE",
   "name" : "android::trait_trivial_move<unsigned long>::(anonymous enum at system/core/libutils/include/utils/TypeHelpers.h:106:1)",
   "referenced_type" : "_ZTIN7android18trait_trivial_moveImE6$valueE",
   "self_type" : "_ZTIN7android18trait_trivial_moveImE6$valueE",
   "size" : 4,
   "source_file" : "system/core/libutils/include/utils/TypeHelpers.h",
   "underlying_type" : "_ZTIj"
  },
  {
   "alignment" : 4,
   "enum_fields" :
   [
    {
     "enum_field_value" : 1,
     "name" : "android::trait_trivial_move<short>::value"
    }
   ],
   "linker_set_key" : "_ZTIN7android18trait_trivial_moveIsE6$valueE",
   "name" : "android::trait_trivial_move<short>::(anonymous enum at system/core/libutils/include/utils/TypeHelpers.h:101:1)",
   "referenced_type" : "_ZTIN7android18trait_trivial_moveIsE6$valueE",
   "self_type" : "_ZTIN7android18trait_trivial_moveIsE6$valueE",
   "size" : 4,
   "source_file" : "system/core/libutils/include/utils/TypeHelpers.h",
   "underlying_type" : "_ZTIj"
  },
  {
   "alignment" : 4,
   "enum_fields" :
   [
    {
     "enum_field_value" : 1,
     "name" : "android::trait_trivial_move<unsigned short>::value"
    }
   ],
   "linker_set_key" : "_ZTIN7android18trait_trivial_moveItE6$valueE",
   "name" : "android::trait_trivial_move<unsigned short>::(anonymous enum at system/core/libutils/include/utils/TypeHelpers.h:102:1)",
   "referenced_type" : "_ZTIN7android18trait_trivial_moveItE6$valueE",
   "self_type" : "_ZTIN7android18trait_trivial_moveItE6$valueE",
   "size" : 4,
   "source_file" : "system/core/libutils/include/utils/TypeHelpers.h",
   "underlying_type" : "_ZTIj"
  },
  {
   "alignment" : 4,
   "enum_fields" :
   [
    {
     "enum_field_value" : 1,
     "name" : "android::trait_trivial_move<void>::value"
    }
   ],
   "linker_set_key" : "_ZTIN7android18trait_trivial_moveIvE6$valueE",
   "name" : "android::trait_trivial_move<void>::(anonymous enum at system/core/libutils/include/utils/TypeHelpers.h:97:1)",
   "referenced_type" : "_ZTIN7android18trait_trivial_moveIvE6$valueE",
   "self_type" : "_ZTIN7android18trait_trivial_moveIvE6$valueE",
   "size" : 4,
   "source_file" : "system/core/libutils/include/utils/TypeHelpers.h",
   "underlying_type" : "_ZTIj"
  },
  {
   "alignment" : 4,
   "enum_fields" :
   [
    {
     "enum_field_value" : 1,
     "name" : "android::trait_trivial_move<long long>::value"
    }
   ],
   "linker_set_key" : "_ZTIN7android18trait_trivial_moveIxE6$valueE",
   "name" : "android::trait_trivial_move<long long>::(anonymous enum at system/core/libutils/include/utils/TypeHelpers.h:107:1)",
   "referenced_type" : "_ZTIN7android18trait_trivial_moveIxE6$valueE",
   "self_type" : "_ZTIN7android18trait_trivial_moveIxE6$valueE",
   "size" : 4,
   "source_file" : "system/core/libutils/include/utils/TypeHelpers.h",
   "underlying_type" : "_ZTIj"
  },
  {
   "alignment" : 4,
   "enum_fields" :
   [
    {
     "enum_field_value" : 1,
     "name" : "android::trait_trivial_move<unsigned long long>::value"
    }
   ],
   "linker_set_key" : "_ZTIN7android18trait_trivial_moveIyE6$valueE",
   "name" : "android::trait_trivial_move<unsigned long long>::(anonymous enum at system/core/libutils/include/utils/TypeHelpers.h:108:1)",
   "referenced_type" : "_ZTIN7android18trait_trivial_moveIyE6$valueE",
   "self_type" : "_ZTIN7android18trait_trivial_moveIyE6$valueE",
   "size" : 4,
   "source_file" : "system/core/libutils/include/utils/TypeHelpers.h",
   "underlying_type" : "_ZTIj"
  },
  {
   "alignment" : 4,
   "enum_fields" :
   [
    {
     "enum_field_value" : 0,
     "name" : "android::nn::DeviceType::UNKNOWN"
    },
    {
     "enum_field_value" : 1,
     "name" : "android::nn::DeviceType::OTHER"
    },
    {
     "enum_field_value" : 2,
     "name" : "android::nn::DeviceType::CPU"
    },
    {
     "enum_field_value" : 3,
     "name" : "android::nn::DeviceType::GPU"
    },
    {
     "enum_field_value" : 4,
     "name" : "android::nn::DeviceType::ACCELERATOR"
    }
   ],
   "linker_set_key" : "_ZTIN7android2nn10DeviceTypeE",
   "name" : "android::nn::DeviceType",
   "referenced_type" : "_ZTIN7android2nn10DeviceTypeE",
   "self_type" : "_ZTIN7android2nn10DeviceTypeE",
   "size" : 4,
   "source_file" : "packages/modules/NeuralNetworks/common/include/nnapi/Types.h",
   "underlying_type" : "_ZTIi"
  },
  {
   "alignment" : 4,
   "enum_fields" :
   [
    {
     "enum_field_value" : 0,
     "name" : "android::nn::HalVersion::UNKNOWN"
    },
    {
     "enum_field_value" : 1,
     "name" : "android::nn::HalVersion::V1_0"
    },
    {
     "enum_field_value" : 2,
     "name" : "android::nn::HalVersion::V1_1"
    },
    {
     "enum_field_value" : 3,
     "name" : "android::nn::HalVersion::V1_2"
    },
    {
     "enum_field_value" : 4,
     "name" : "android::nn::HalVersion::V1_3"
    },
    {
     "enum_field_value" : 5,
     "name" : "android::nn::HalVersion::AIDL_UNSTABLE"
    },
    {
     "enum_field_value" : 4,
     "name" : "android::nn::HalVersion::LATEST"
    }
   ],
   "linker_set_key" : "_ZTIN7android2nn10HalVersionE",
   "name" : "android::nn::HalVersion",
   "referenced_type" : "_ZTIN7android2nn10HalVersionE",
   "self_type" : "_ZTIN7android2nn10HalVersionE",
   "size" : 4,
   "source_file" : "packages/modules/NeuralNetworks/common/include/nnapi/TypeUtils.h",
   "underlying_type" : "_ZTIi"
  },
  {
   "alignment" : 4,
   "enum_fields" :
   [
    {
     "enum_field_value" : 0,
     "name" : "android::nn::ErrorStatus::NONE"
    },
    {
     "enum_field_value" : 1,
     "name" : "android::nn::ErrorStatus::DEVICE_UNAVAILABLE"
    },
    {
     "enum_field_value" : 2,
     "name" : "android::nn::ErrorStatus::GENERAL_FAILURE"
    },
    {
     "enum_field_value" : 3,
     "name" : "android::nn::ErrorStatus::OUTPUT_INSUFFICIENT_SIZE"
    },
    {
     "enum_field_value" : 4,
     "name" : "android::nn::ErrorStatus::INVALID_ARGUMENT"
    },
    {
     "enum_field_value" : 5,
     "name" : "android::nn::ErrorStatus::MISSED_DEADLINE_TRANSIENT"
    },
    {
     "enum_field_value" : 6,
     "name" : "android::nn::ErrorStatus::MISSED_DEADLINE_PERSISTENT"
    },
    {
     "enum_field_value" : 7,
     "name" : "android::nn::ErrorStatus::RESOURCE_EXHAUSTED_TRANSIENT"
    },
    {
     "enum_field_value" : 8,
     "name" : "android::nn::ErrorStatus::RESOURCE_EXHAUSTED_PERSISTENT"
    },
    {
     "enum_field_value" : 10000,
     "name" : "android::nn::ErrorStatus::DEAD_OBJECT"
    }
   ],
   "linker_set_key" : "_ZTIN7android2nn11ErrorStatusE",
   "name" : "android::nn::ErrorStatus",
   "referenced_type" : "_ZTIN7android2nn11ErrorStatusE",
   "self_type" : "_ZTIN7android2nn11ErrorStatusE",
   "size" : 4,
   "source_file" : "packages/modules/NeuralNetworks/common/include/nnapi/Types.h",
   "underlying_type" : "_ZTIi"
  },
  {
   "alignment" : 4,
   "enum_fields" :
   [
    {
     "enum_field_value" : 0,
     "name" : "android::nn::OperandType::FLOAT32"
    },
    {
     "enum_field_value" : 1,
     "name" : "android::nn::OperandType::INT32"
    },
    {
     "enum_field_value" : 2,
     "name" : "android::nn::OperandType::UINT32"
    },
    {
     "enum_field_value" : 3,
     "name" : "android::nn::OperandType::TENSOR_FLOAT32"
    },
    {
     "enum_field_value" : 4,
     "name" : "android::nn::OperandType::TENSOR_INT32"
    },
    {
     "enum_field_value" : 5,
     "name" : "android::nn::OperandType::TENSOR_QUANT8_ASYMM"
    },
    {
     "enum_field_value" : 6,
     "name" : "android::nn::OperandType::BOOL"
    },
    {
     "enum_field_value" : 7,
     "name" : "android::nn::OperandType::TENSOR_QUANT16_SYMM"
    },
    {
     "enum_field_value" : 8,
     "name" : "android::nn::OperandType::TENSOR_FLOAT16"
    },
    {
     "enum_field_value" : 9,
     "name" : "android::nn::OperandType::TENSOR_BOOL8"
    },
    {
     "enum_field_value" : 10,
     "name" : "android::nn::OperandType::FLOAT16"
    },
    {
     "enum_field_value" : 11,
     "name" : "android::nn::OperandType::TENSOR_QUANT8_SYMM_PER_CHANNEL"
    },
    {
     "enum_field_value" : 12,
     "name" : "android::nn::OperandType::TENSOR_QUANT16_ASYMM"
    },
    {
     "enum_field_value" : 13,
     "name" : "android::nn::OperandType::TENSOR_QUANT8_SYMM"
    },
    {
     "enum_field_value" : 14,
     "name" : "android::nn::OperandType::TENSOR_QUANT8_ASYMM_SIGNED"
    },
    {
     "enum_field_value" : 15,
     "name" : "android::nn::OperandType::SUBGRAPH"
    },
    {
     "enum_field_value" : 10000,
     "name" : "android::nn::OperandType::OEM"
    },
    {
     "enum_field_value" : 10001,
     "name" : "android::nn::OperandType::TENSOR_OEM_BYTE"
    }
   ],
   "linker_set_key" : "_ZTIN7android2nn11OperandTypeE",
   "name" : "android::nn::OperandType",
   "referenced_type" : "_ZTIN7android2nn11OperandTypeE",
   "self_type" : "_ZTIN7android2nn11OperandTypeE",
   "size" : 4,
   "source_file" : "packages/modules/NeuralNetworks/common/include/nnapi/OperandTypes.h",
   "underlying_type" : "_ZTIi"
  },
  {
   "alignment" : 4,
   "enum_fields" :
   [
    {
     "enum_field_value" : 0,
     "name" : "android::nn::DeviceStatus::AVAILABLE"
    },
    {
     "enum_field_value" : 1,
     "name" : "android::nn::DeviceStatus::BUSY"
    },
    {
     "enum_field_value" : 2,
     "name" : "android::nn::DeviceStatus::OFFLINE"
    },
    {
     "enum_field_value" : 3,
     "name" : "android::nn::DeviceStatus::UNKNOWN"
    }
   ],
   "linker_set_key" : "_ZTIN7android2nn12DeviceStatusE",
   "name" : "android::nn::DeviceStatus",
   "referenced_type" : "_ZTIN7android2nn12DeviceStatusE",
   "self_type" : "_ZTIN7android2nn12DeviceStatusE",
   "size" : 4,
   "source_file" : "packages/modules/NeuralNetworks/common/include/nnapi/Types.h",
   "underlying_type" : "_ZTIi"
  },
  {
   "alignment" : 4,
   "enum_fields" :
   [
    {
     "enum_field_value" : 0,
     "name" : "android::nn::MeasureTiming::NO"
    },
    {
     "enum_field_value" : 1,
     "name" : "android::nn::MeasureTiming::YES"
    }
   ],
   "linker_set_key" : "_ZTIN7android2nn13MeasureTimingE",
   "name" : "android::nn::MeasureTiming",
   "referenced_type" : "_ZTIN7android2nn13MeasureTimingE",
   "self_type" : "_ZTIN7android2nn13MeasureTimingE",
   "size" : 4,
   "source_file" : "packages/modules/NeuralNetworks/common/include/nnapi/Types.h",
   "underlying_type" : "_ZTIi"
  },
  {
   "alignment" : 4,
   "enum_fields" :
   [
    {
     "enum_field_value" : 0,
     "name" : "android::nn::OperationType::ADD"
    },
    {
     "enum_field_value" : 1,
     "name" : "android::nn::OperationType::AVERAGE_POOL_2D"
    },
    {
     "enum_field_value" : 2,
     "name" : "android::nn::OperationType::CONCATENATION"
    },
    {
     "enum_field_value" : 3,
     "name" : "android::nn::OperationType::CONV_2D"
    },
    {
     "enum_field_value" : 4,
     "name" : "android::nn::OperationType::DEPTHWISE_CONV_2D"
    },
    {
     "enum_field_value" : 5,
     "name" : "android::nn::OperationType::DEPTH_TO_SPACE"
    },
    {
     "enum_field_value" : 6,
     "name" : "android::nn::OperationType::DEQUANTIZE"
    },
    {
     "enum_field_value" : 7,
     "name" : "android::nn::OperationType::EMBEDDING_LOOKUP"
    },
    {
     "enum_field_value" : 8,
     "name" : "android::nn::OperationType::FLOOR"
    },
    {
     "enum_field_value" : 9,
     "name" : "android::nn::OperationType::FULLY_CONNECTED"
    },
    {
     "enum_field_value" : 10,
     "name" : "android::nn::OperationType::HASHTABLE_LOOKUP"
    },
    {
     "enum_field_value" : 11,
     "name" : "android::nn::OperationType::L2_NORMALIZATION"
    },
    {
     "enum_field_value" : 12,
     "name" : "android::nn::OperationType::L2_POOL_2D"
    },
    {
     "enum_field_value" : 13,
     "name" : "android::nn::OperationType::LOCAL_RESPONSE_NORMALIZATION"
    },
    {
     "enum_field_value" : 14,
     "name" : "android::nn::OperationType::LOGISTIC"
    },
    {
     "enum_field_value" : 15,
     "name" : "android::nn::OperationType::LSH_PROJECTION"
    },
    {
     "enum_field_value" : 16,
     "name" : "android::nn::OperationType::LSTM"
    },
    {
     "enum_field_value" : 17,
     "name" : "android::nn::OperationType::MAX_POOL_2D"
    },
    {
     "enum_field_value" : 18,
     "name" : "android::nn::OperationType::MUL"
    },
    {
     "enum_field_value" : 19,
     "name" : "android::nn::OperationType::RELU"
    },
    {
     "enum_field_value" : 20,
     "name" : "android::nn::OperationType::RELU1"
    },
    {
     "enum_field_value" : 21,
     "name" : "android::nn::OperationType::RELU6"
    },
    {
     "enum_field_value" : 22,
     "name" : "android::nn::OperationType::RESHAPE"
    },
    {
     "enum_field_value" : 23,
     "name" : "android::nn::OperationType::RESIZE_BILINEAR"
    },
    {
     "enum_field_value" : 24,
     "name" : "android::nn::OperationType::RNN"
    },
    {
     "enum_field_value" : 25,
     "name" : "android::nn::OperationType::SOFTMAX"
    },
    {
     "enum_field_value" : 26,
     "name" : "android::nn::OperationType::SPACE_TO_DEPTH"
    },
    {
     "enum_field_value" : 27,
     "name" : "android::nn::OperationType::SVDF"
    },
    {
     "enum_field_value" : 28,
     "name" : "android::nn::OperationType::TANH"
    },
    {
     "enum_field_value" : 29,
     "name" : "android::nn::OperationType::BATCH_TO_SPACE_ND"
    },
    {
     "enum_field_value" : 30,
     "name" : "android::nn::OperationType::DIV"
    },
    {
     "enum_field_value" : 31,
     "name" : "android::nn::OperationType::MEAN"
    },
    {
     "enum_field_value" : 32,
     "name" : "android::nn::OperationType::PAD"
    },
    {
     "enum_field_value" : 33,
     "name" : "android::nn::OperationType::SPACE_TO_BATCH_ND"
    },
    {
     "enum_field_value" : 34,
     "name" : "android::nn::OperationType::SQUEEZE"
    },
    {
     "enum_field_value" : 35,
     "name" : "android::nn::OperationType::STRIDED_SLICE"
    },
    {
     "enum_field_value" : 36,
     "name" : "android::nn::OperationType::SUB"
    },
    {
     "enum_field_value" : 37,
     "name" : "android::nn::OperationType::TRANSPOSE"
    },
    {
     "enum_field_value" : 38,
     "name" : "android::nn::OperationType::ABS"
    },
    {
     "enum_field_value" : 39,
     "name" : "android::nn::OperationType::ARGMAX"
    },
    {
     "enum_field_value" : 40,
     "name" : "android::nn::OperationType::ARGMIN"
    },
    {
     "enum_field_value" : 41,
     "name" : "android::nn::OperationType::AXIS_ALIGNED_BBOX_TRANSFORM"
    },
    {
     "enum_field_value" : 42,
     "name" : "android::nn::OperationType::BIDIRECTIONAL_SEQUENCE_LSTM"
    },
    {
     "enum_field_value" : 43,
     "name" : "android::nn::OperationType::BIDIRECTIONAL_SEQUENCE_RNN"
    },
    {
     "enum_field_value" : 44,
     "name" : "android::nn::OperationType::BOX_WITH_NMS_LIMIT"
    },
    {
     "enum_field_value" : 45,
     "name" : "android::nn::OperationType::CAST"
    },
    {
     "enum_field_value" : 46,
     "name" : "android::nn::OperationType::CHANNEL_SHUFFLE"
    },
    {
     "enum_field_value" : 47,
     "name" : "android::nn::OperationType::DETECTION_POSTPROCESSING"
    },
    {
     "enum_field_value" : 48,
     "name" : "android::nn::OperationType::EQUAL"
    },
    {
     "enum_field_value" : 49,
     "name" : "android::nn::OperationType::EXP"
    },
    {
     "enum_field_value" : 50,
     "name" : "android::nn::OperationType::EXPAND_DIMS"
    },
    {
     "enum_field_value" : 51,
     "name" : "android::nn::OperationType::GATHER"
    },
    {
     "enum_field_value" : 52,
     "name" : "android::nn::OperationType::GENERATE_PROPOSALS"
    },
    {
     "enum_field_value" : 53,
     "name" : "android::nn::OperationType::GREATER"
    },
    {
     "enum_field_value" : 54,
     "name" : "android::nn::OperationType::GREATER_EQUAL"
    },
    {
     "enum_field_value" : 55,
     "name" : "android::nn::OperationType::GROUPED_CONV_2D"
    },
    {
     "enum_field_value" : 56,
     "name" : "android::nn::OperationType::HEATMAP_MAX_KEYPOINT"
    },
    {
     "enum_field_value" : 57,
     "name" : "android::nn::OperationType::INSTANCE_NORMALIZATION"
    },
    {
     "enum_field_value" : 58,
     "name" : "android::nn::OperationType::LESS"
    },
    {
     "enum_field_value" : 59,
     "name" : "android::nn::OperationType::LESS_EQUAL"
    },
    {
     "enum_field_value" : 60,
     "name" : "android::nn::OperationType::LOG"
    },
    {
     "enum_field_value" : 61,
     "name" : "android::nn::OperationType::LOGICAL_AND"
    },
    {
     "enum_field_value" : 62,
     "name" : "android::nn::OperationType::LOGICAL_NOT"
    },
    {
     "enum_field_value" : 63,
     "name" : "android::nn::OperationType::LOGICAL_OR"
    },
    {
     "enum_field_value" : 64,
     "name" : "android::nn::OperationType::LOG_SOFTMAX"
    },
    {
     "enum_field_value" : 65,
     "name" : "android::nn::OperationType::MAXIMUM"
    },
    {
     "enum_field_value" : 66,
     "name" : "android::nn::OperationType::MINIMUM"
    },
    {
     "enum_field_value" : 67,
     "name" : "android::nn::OperationType::NEG"
    },
    {
     "enum_field_value" : 68,
     "name" : "android::nn::OperationType::NOT_EQUAL"
    },
    {
     "enum_field_value" : 69,
     "name" : "android::nn::OperationType::PAD_V2"
    },
    {
     "enum_field_value" : 70,
     "name" : "android::nn::OperationType::POW"
    },
    {
     "enum_field_value" : 71,
     "name" : "android::nn::OperationType::PRELU"
    },
    {
     "enum_field_value" : 72,
     "name" : "android::nn::OperationType::QUANTIZE"
    },
    {
     "enum_field_value" : 73,
     "name" : "android::nn::OperationType::QUANTIZED_16BIT_LSTM"
    },
    {
     "enum_field_value" : 74,
     "name" : "android::nn::OperationType::RANDOM_MULTINOMIAL"
    },
    {
     "enum_field_value" : 75,
     "name" : "android::nn::OperationType::REDUCE_ALL"
    },
    {
     "enum_field_value" : 76,
     "name" : "android::nn::OperationType::REDUCE_ANY"
    },
    {
     "enum_field_value" : 77,
     "name" : "android::nn::OperationType::REDUCE_MAX"
    },
    {
     "enum_field_value" : 78,
     "name" : "android::nn::OperationType::REDUCE_MIN"
    },
    {
     "enum_field_value" : 79,
     "name" : "android::nn::OperationType::REDUCE_PROD"
    },
    {
     "enum_field_value" : 80,
     "name" : "android::nn::OperationType::REDUCE_SUM"
    },
    {
     "enum_field_value" : 81,
     "name" : "android::nn::OperationType::ROI_ALIGN"
    },
    {
     "enum_field_value" : 82,
     "name" : "android::nn::OperationType::ROI_POOLING"
    },
    {
     "enum_field_value" : 83,
     "name" : "android::nn::OperationType::RSQRT"
    },
    {
     "enum_field_value" : 84,
     "name" : "android::nn::OperationType::SELECT"
    },
    {
     "enum_field_value" : 85,
     "name" : "android::nn::OperationType::SIN"
    },
    {
     "enum_field_value" : 86,
     "name" : "android::nn::OperationType::SLICE"
    },
    {
     "enum_field_value" : 87,
     "name" : "android::nn::OperationType::SPLIT"
    },
    {
     "enum_field_value" : 88,
     "name" : "android::nn::OperationType::SQRT"
    },
    {
     "enum_field_value" : 89,
     "name" : "android::nn::OperationType::TILE"
    },
    {
     "enum_field_value" : 90,
     "name" : "android::nn::OperationType::TOPK_V2"
    },
    {
     "enum_field_value" : 91,
     "name" : "android::nn::OperationType::TRANSPOSE_CONV_2D"
    },
    {
     "enum_field_value" : 92,
     "name" : "android::nn::OperationType::UNIDIRECTIONAL_SEQUENCE_LSTM"
    },
    {
     "enum_field_value" : 93,
     "name" : "android::nn::OperationType::UNIDIRECTIONAL_SEQUENCE_RNN"
    },
    {
     "enum_field_value" : 94,
     "name" : "android::nn::OperationType::RESIZE_NEAREST_NEIGHBOR"
    },
    {
     "enum_field_value" : 95,
     "name" : "android::nn::OperationType::QUANTIZED_LSTM"
    },
    {
     "enum_field_value" : 96,
     "name" : "android::nn::OperationType::IF"
    },
    {
     "enum_field_value" : 97,
     "name" : "android::nn::OperationType::WHILE"
    },
    {
     "enum_field_value" : 98,
     "name" : "android::nn::OperationType::ELU"
    },
    {
     "enum_field_value" : 99,
     "name" : "android::nn::OperationType::HARD_SWISH"
    },
    {
     "enum_field_value" : 100,
     "name" : "android::nn::OperationType::FILL"
    },
    {
     "enum_field_value" : 101,
     "name" : "android::nn::OperationType::RANK"
    },
    {
     "enum_field_value" : 10000,
     "name" : "android::nn::OperationType::OEM_OPERATION"
    }
   ],
   "linker_set_key" : "_ZTIN7android2nn13OperationTypeE",
   "name" : "android::nn::OperationType",
   "referenced_type" : "_ZTIN7android2nn13OperationTypeE",
   "self_type" : "_ZTIN7android2nn13OperationTypeE",
   "size" : 4,
   "source_file" : "packages/modules/NeuralNetworks/common/include/nnapi/OperationTypes.h",
   "underlying_type" : "_ZTIi"
  },
  {
   "alignment" : 4,
   "enum_fields" :
   [
    {
     "enum_field_value" : 0,
     "name" : "android::nn::ExecutionPreference::LOW_POWER"
    },
    {
     "enum_field_value" : 1,
     "name" : "android::nn::ExecutionPreference::FAST_SINGLE_ANSWER"
    },
    {
     "enum_field_value" : 2,
     "name" : "android::nn::ExecutionPreference::SUSTAINED_SPEED"
    },
    {
     "enum_field_value" : 1,
     "name" : "android::nn::ExecutionPreference::DEFAULT"
    }
   ],
   "linker_set_key" : "_ZTIN7android2nn19ExecutionPreferenceE",
   "name" : "android::nn::ExecutionPreference",
   "referenced_type" : "_ZTIN7android2nn19ExecutionPreferenceE",
   "self_type" : "_ZTIN7android2nn19ExecutionPreferenceE",
   "size" : 4,
   "source_file" : "packages/modules/NeuralNetworks/common/include/nnapi/Types.h",
   "underlying_type" : "_ZTIi"
  },
  {
   "alignment" : 4,
   "enum_fields" :
   [
    {
     "enum_field_value" : 0,
     "name" : "android::nn::FusedActivationFunc::NONE"
    },
    {
     "enum_field_value" : 1,
     "name" : "android::nn::FusedActivationFunc::RELU"
    },
    {
     "enum_field_value" : 2,
     "name" : "android::nn::FusedActivationFunc::RELU1"
    },
    {
     "enum_field_value" : 3,
     "name" : "android::nn::FusedActivationFunc::RELU6"
    }
   ],
   "linker_set_key" : "_ZTIN7android2nn19FusedActivationFuncE",
   "name" : "android::nn::FusedActivationFunc",
   "referenced_type" : "_ZTIN7android2nn19FusedActivationFuncE",
   "self_type" : "_ZTIN7android2nn19FusedActivationFuncE",
   "size" : 4,
   "source_file" : "packages/modules/NeuralNetworks/common/include/nnapi/Types.h",
   "underlying_type" : "_ZTIi"
  },
  {
   "alignment" : 4,
   "enum_fields" :
   [
    {
     "enum_field_value" : 0,
     "name" : "android::nn::Operand::LifeTime::TEMPORARY_VARIABLE"
    },
    {
     "enum_field_value" : 1,
     "name" : "android::nn::Operand::LifeTime::SUBGRAPH_INPUT"
    },
    {
     "enum_field_value" : 2,
     "name" : "android::nn::Operand::LifeTime::SUBGRAPH_OUTPUT"
    },
    {
     "enum_field_value" : 3,
     "name" : "android::nn::Operand::LifeTime::CONSTANT_COPY"
    },
    {
     "enum_field_value" : 4,
     "name" : "android::nn::Operand::LifeTime::CONSTANT_REFERENCE"
    },
    {
     "enum_field_value" : 5,
     "name" : "android::nn::Operand::LifeTime::NO_VALUE"
    },
    {
     "enum_field_value" : 6,
     "name" : "android::nn::Operand::LifeTime::SUBGRAPH"
    },
    {
     "enum_field_value" : 7,
     "name" : "android::nn::Operand::LifeTime::POINTER"
    }
   ],
   "linker_set_key" : "_ZTIN7android2nn7Operand8LifeTimeE",
   "name" : "android::nn::Operand::LifeTime",
   "referenced_type" : "_ZTIN7android2nn7Operand8LifeTimeE",
   "self_type" : "_ZTIN7android2nn7Operand8LifeTimeE",
   "size" : 4,
   "source_file" : "packages/modules/NeuralNetworks/common/include/nnapi/Types.h",
   "underlying_type" : "_ZTIi"
  },
  {
   "alignment" : 4,
   "linker_set_key" : "_ZTIN7android2nn7Request17MemoryDomainTokenE",
   "name" : "android::nn::Request::MemoryDomainToken",
   "referenced_type" : "_ZTIN7android2nn7Request17MemoryDomainTokenE",
   "self_type" : "_ZTIN7android2nn7Request17MemoryDomainTokenE",
   "size" : 4,
   "source_file" : "packages/modules/NeuralNetworks/common/include/nnapi/Types.h",
   "underlying_type" : "_ZTIj"
  },
  {
   "alignment" : 4,
   "enum_fields" :
   [
    {
     "enum_field_value" : 0,
     "name" : "android::nn::Request::Argument::LifeTime::POOL"
    },
    {
     "enum_field_value" : 1,
     "name" : "android::nn::Request::Argument::LifeTime::NO_VALUE"
    },
    {
     "enum_field_value" : 2,
     "name" : "android::nn::Request::Argument::LifeTime::POINTER"
    }
   ],
   "linker_set_key" : "_ZTIN7android2nn7Request8Argument8LifeTimeE",
   "name" : "android::nn::Request::Argument::LifeTime",
   "referenced_type" : "_ZTIN7android2nn7Request8Argument8LifeTimeE",
   "self_type" : "_ZTIN7android2nn7Request8Argument8LifeTimeE",
   "size" : 4,
   "source_file" : "packages/modules/NeuralNetworks/common/include/nnapi/Types.h",
   "underlying_type" : "_ZTIi"
  },
  {
   "alignment" : 4,
   "enum_fields" :
   [
    {
     "enum_field_value" : 0,
     "name" : "android::nn::Version::ANDROID_OC_MR1"
    },
    {
     "enum_field_value" : 1,
     "name" : "android::nn::Version::ANDROID_P"
    },
    {
     "enum_field_value" : 2,
     "name" : "android::nn::Version::ANDROID_Q"
    },
    {
     "enum_field_value" : 3,
     "name" : "android::nn::Version::ANDROID_R"
    },
    {
     "enum_field_value" : 4,
     "name" : "android::nn::Version::ANDROID_S"
    },
    {
     "enum_field_value" : 5,
     "name" : "android::nn::Version::CURRENT_RUNTIME"
    }
   ],
   "linker_set_key" : "_ZTIN7android2nn7VersionE",
   "name" : "android::nn::Version",
   "referenced_type" : "_ZTIN7android2nn7VersionE",
   "self_type" : "_ZTIN7android2nn7VersionE",
   "size" : 4,
   "source_file" : "packages/modules/NeuralNetworks/common/include/nnapi/Types.h",
   "underlying_type" : "_ZTIi"
  },
  {
   "alignment" : 4,
   "enum_fields" :
   [
    {
     "enum_field_value" : 0,
     "name" : "android::nn::Priority::LOW"
    },
    {
     "enum_field_value" : 1,
     "name" : "android::nn::Priority::MEDIUM"
    },
    {
     "enum_field_value" : 2,
     "name" : "android::nn::Priority::HIGH"
    },
    {
     "enum_field_value" : 1,
     "name" : "android::nn::Priority::DEFAULT"
    }
   ],
   "linker_set_key" : "_ZTIN7android2nn8PriorityE",
   "name" : "android::nn::Priority",
   "referenced_type" : "_ZTIN7android2nn8PriorityE",
   "self_type" : "_ZTIN7android2nn8PriorityE",
   "size" : 4,
   "source_file" : "packages/modules/NeuralNetworks/common/include/nnapi/Types.h",
   "underlying_type" : "_ZTIi"
  },
  {
   "alignment" : 4,
   "enum_fields" :
   [
    {
     "enum_field_value" : 0,
     "name" : "android::nn::SyncFence::FenceState::ACTIVE"
    },
    {
     "enum_field_value" : 1,
     "name" : "android::nn::SyncFence::FenceState::SIGNALED"
    },
    {
     "enum_field_value" : 2,
     "name" : "android::nn::SyncFence::FenceState::ERROR"
    },
    {
     "enum_field_value" : 3,
     "name" : "android::nn::SyncFence::FenceState::UNKNOWN"
    }
   ],
   "linker_set_key" : "_ZTIN7android2nn9SyncFence10FenceStateE",
   "name" : "android::nn::SyncFence::FenceState",
   "referenced_type" : "_ZTIN7android2nn9SyncFence10FenceStateE",
   "self_type" : "_ZTIN7android2nn9SyncFence10FenceStateE",
   "size" : 4,
   "source_file" : "packages/modules/NeuralNetworks/common/include/nnapi/Types.h",
   "underlying_type" : "_ZTIi"
  },
  {
   "alignment" : 4,
   "enum_fields" :
   [
    {
     "enum_field_value" : 0,
     "name" : "android::base::VERBOSE"
    },
    {
     "enum_field_value" : 1,
     "name" : "android::base::DEBUG"
    },
    {
     "enum_field_value" : 2,
     "name" : "android::base::INFO"
    },
    {
     "enum_field_value" : 3,
     "name" : "android::base::WARNING"
    },
    {
     "enum_field_value" : 4,
     "name" : "android::base::ERROR"
    },
    {
     "enum_field_value" : 5,
     "name" : "android::base::FATAL_WITHOUT_ABORT"
    },
    {
     "enum_field_value" : 6,
     "name" : "android::base::FATAL"
    }
   ],
   "linker_set_key" : "_ZTIN7android4base11LogSeverityE",
   "name" : "android::base::LogSeverity",
   "referenced_type" : "_ZTIN7android4base11LogSeverityE",
   "self_type" : "_ZTIN7android4base11LogSeverityE",
   "size" : 4,
   "source_file" : "system/libbase/include/android-base/logging.h",
   "underlying_type" : "_ZTIj"
  },
  {
   "alignment" : 4,
   "enum_fields" :
   [
    {
     "enum_field_value" : 0,
     "name" : "android::base::DEFAULT"
    },
    {
     "enum_field_value" : 1,
     "name" : "android::base::MAIN"
    },
    {
     "enum_field_value" : 2,
     "name" : "android::base::SYSTEM"
    },
    {
     "enum_field_value" : 3,
     "name" : "android::base::RADIO"
    },
    {
     "enum_field_value" : 4,
     "name" : "android::base::CRASH"
    }
   ],
   "linker_set_key" : "_ZTIN7android4base5LogIdE",
   "name" : "android::base::LogId",
   "referenced_type" : "_ZTIN7android4base5LogIdE",
   "self_type" : "_ZTIN7android4base5LogIdE",
   "size" : 4,
   "source_file" : "system/libbase/include/android-base/logging.h",
   "underlying_type" : "_ZTIj"
  },
  {
   "access" : "protected",
   "alignment" : 4,
   "enum_fields" :
   [
    {
     "enum_field_value" : 1,
     "name" : "android::RefBase::FIRST_INC_STRONG"
    }
   ],
   "linker_set_key" : "_ZTIN7android7RefBase17$FIRST_INC_STRONGE",
   "name" : "android::RefBase::(anonymous enum at system/core/libutils/include/utils/RefBase.h:358:5)",
   "referenced_type" : "_ZTIN7android7RefBase17$FIRST_INC_STRONGE",
   "self_type" : "_ZTIN7android7RefBase17$FIRST_INC_STRONGE",
   "size" : 4,
   "source_file" : "system/core/libutils/include/utils/RefBase.h",
   "underlying_type" : "_ZTIj"
  },
  {
   "access" : "protected",
   "alignment" : 4,
   "enum_fields" :
   [
    {
     "enum_field_value" : 0,
     "name" : "android::RefBase::OBJECT_LIFETIME_STRONG"
    },
    {
     "enum_field_value" : 1,
     "name" : "android::RefBase::OBJECT_LIFETIME_WEAK"
    },
    {
     "enum_field_value" : 1,
     "name" : "android::RefBase::OBJECT_LIFETIME_MASK"
    }
   ],
   "linker_set_key" : "_ZTIN7android7RefBase21$OBJECT_LIFETIME_MASKE",
   "name" : "android::RefBase::(anonymous enum at system/core/libutils/include/utils/RefBase.h:349:5)",
   "referenced_type" : "_ZTIN7android7RefBase21$OBJECT_LIFETIME_MASKE",
   "self_type" : "_ZTIN7android7RefBase21$OBJECT_LIFETIME_MASKE",
   "size" : 4,
   "source_file" : "system/core/libutils/include/utils/RefBase.h",
   "underlying_type" : "_ZTIj"
  }
 ],
 "function_types" : [],
 "functions" :
 [
  {
   "access" : "protected",
   "function_name" : "android::ReferenceRenamer::~ReferenceRenamer",
   "linker_set_key" : "_ZN7android16ReferenceRenamerD1Ev",
   "parameters" :
   [
    {
     "is_this_ptr" : true,
     "referenced_type" : "_ZTIPN7android16ReferenceRenamerE"
    }
   ],
   "return_type" : "_ZTIv",
   "source_file" : "system/core/libutils/include/utils/RefBase.h"
  },
  {
   "access" : "protected",
   "function_name" : "android::ReferenceRenamer::~ReferenceRenamer",
   "linker_set_key" : "_ZN7android16ReferenceRenamerD2Ev",
   "parameters" :
   [
    {
     "is_this_ptr" : true,
     "referenced_type" : "_ZTIPN7android16ReferenceRenamerE"
    }
   ],
   "return_type" : "_ZTIv",
   "source_file" : "system/core/libutils/include/utils/RefBase.h"
  },
  {
   "function_name" : "android::VirtualLightRefBase::~VirtualLightRefBase",
   "linker_set_key" : "_ZN7android19VirtualLightRefBaseD0Ev",
   "parameters" :
   [
    {
     "is_this_ptr" : true,
     "referenced_type" : "_ZTIPN7android19VirtualLightRefBaseE"
    }
   ],
   "return_type" : "_ZTIv",
   "source_file" : "system/core/libutils/include/utils/LightRefBase.h"
  },
  {
   "function_name" : "android::VirtualLightRefBase::~VirtualLightRefBase",
   "linker_set_key" : "_ZN7android19VirtualLightRefBaseD1Ev",
   "parameters" :
   [
    {
     "is_this_ptr" : true,
     "referenced_type" : "_ZTIPN7android19VirtualLightRefBaseE"
    }
   ],
   "return_type" : "_ZTIv",
   "source_file" : "system/core/libutils/include/utils/LightRefBase.h"
  },
  {
   "function_name" : "android::VirtualLightRefBase::~VirtualLightRefBase",
   "linker_set_key" : "_ZN7android19VirtualLightRefBaseD2Ev",
   "parameters" :
   [
    {
     "is_this_ptr" : true,
     "referenced_type" : "_ZTIPN7android19VirtualLightRefBaseE"
    }
   ],
   "return_type" : "_ZTIv",
   "source_file" : "system/core/libutils/include/utils/LightRefBase.h"
  },
  {
   "function_name" : "android::nn::isAhwbBlob",
   "linker_set_key" : "_ZN7android2nn10isAhwbBlobERKNS0_6Memory14HardwareBufferE",
   "parameters" :
   [
    {
     "referenced_type" : "_ZTIRKN7android2nn6Memory14HardwareBufferE"
    }
   ],
   "return_type" : "_ZTIb",
   "source_file" : "packages/modules/NeuralNetworks/common/include/nnapi/SharedMemory.h"
  },
  {
   "function_name" : "android::nn::isAhwbBlob",
   "linker_set_key" : "_ZN7android2nn10isAhwbBlobERKNSt3__110shared_ptrIKNS0_6MemoryEEE",
   "parameters" :
   [
    {
     "referenced_type" : "_ZTIRKNSt3__110shared_ptrIKN7android2nn6MemoryEEE"
    }
   ],
   "return_type" : "_ZTIb",
   "source_file" : "packages/modules/NeuralNetworks/common/include/nnapi/SharedMemory.h"
  },
  {
   "function_name" : "android::nn::nnTryGetError",
   "linker_set_key" : "_ZN7android2nn13nnTryGetErrorINS_4base14unique_fd_implINS2_13DefaultCloserEEENS0_12GeneralErrorEEENS2_10unexpectedIT0_EENS2_8expectedIT_S8_EE",
   "parameters" :
   [
    {
     "referenced_type" : "_ZTIN7android4base8expectedINS0_14unique_fd_implINS0_13DefaultCloserEEENS_2nn12GeneralErrorEEE"
    }
   ],
   "return_type" : "_ZTIN7android4base10unexpectedINS_2nn12GeneralErrorEEE",
   "source_file" : "packages/modules/NeuralNetworks/common/include/nnapi/Result.h",
   "template_args" :
   [
    "_ZTIN7android4base14unique_fd_implINS0_13DefaultCloserEEE",
    "_ZTIN7android2nn12GeneralErrorE"
   ]
  },
  {
   "function_name" : "android::nn::nnTryGetError",
   "linker_set_key" : "_ZN7android2nn13nnTryGetErrorINS_8hardware11hidl_handleENS0_12GeneralErrorEEENS_4base10unexpectedIT0_EENS5_8expectedIT_S7_EE",
   "parameters" :
   [
    {
     "referenced_type" : "_ZTIN7android4base8expectedINS_8hardware11hidl_handleENS_2nn12GeneralErrorEEE"
    }
   ],
   "return_type" : "_ZTIN7android4base10unexpectedINS_2nn12GeneralErrorEEE",
   "source_file" : "packages/modules/NeuralNetworks/common/include/nnapi/Result.h",
   "template_args" :
   [
    "_ZTIN7android8hardware11hidl_handleE",
    "_ZTIN7android2nn12GeneralErrorE"
   ]
  },
  {
   "function_name" : "android::nn::nnTryGetValue",
   "linker_set_key" : "_ZN7android2nn13nnTryGetValueINS_4base14unique_fd_implINS2_13DefaultCloserEEENS0_12GeneralErrorEEET_NS2_8expectedIS7_T0_EE",
   "parameters" :
   [
    {
     "referenced_type" : "_ZTIN7android4base8expectedINS0_14unique_fd_implINS0_13DefaultCloserEEENS_2nn12GeneralErrorEEE"
    }
   ],
   "return_type" : "_ZTIN7android4base14unique_fd_implINS0_13DefaultCloserEEE",
   "source_file" : "packages/modules/NeuralNetworks/common/include/nnapi/Result.h",
   "template_args" :
   [
    "_ZTIN7android4base14unique_fd_implINS0_13DefaultCloserEEE",
    "_ZTIN7android2nn12GeneralErrorE"
   ]
  },
  {
   "function_name" : "android::nn::nnTryGetValue",
   "linker_set_key" : "_ZN7android2nn13nnTryGetValueINS_8hardware11hidl_handleENS0_12GeneralErrorEEET_NS_4base8expectedIS5_T0_EE",
   "parameters" :
   [
    {
     "referenced_type" : "_ZTIN7android4base8expectedINS_8hardware11hidl_handleENS_2nn12GeneralErrorEEE"
    }
   ],
   "return_type" : "_ZTIN7android8hardware11hidl_handleE",
   "source_file" : "packages/modules/NeuralNetworks/common/include/nnapi/Result.h",
   "template_args" :
   [
    "_ZTIN7android8hardware11hidl_handleE",
    "_ZTIN7android2nn12GeneralErrorE"
   ]
  },
  {
   "function_name" : "android::nn::nnTryHasValue",
   "linker_set_key" : "_ZN7android2nn13nnTryHasValueINS_4base14unique_fd_implINS2_13DefaultCloserEEENS0_12GeneralErrorEEEbRKNS2_8expectedIT_T0_EE",
   "parameters" :
   [
    {
     "referenced_type" : "_ZTIRKN7android4base8expectedINS0_14unique_fd_implINS0_13DefaultCloserEEENS_2nn12GeneralErrorEEE"
    }
   ],
   "return_type" : "_ZTIb",
   "source_file" : "packages/modules/NeuralNetworks/common/include/nnapi/Result.h",
   "template_args" :
   [
    "_ZTIN7android4base14unique_fd_implINS0_13DefaultCloserEEE",
    "_ZTIN7android2nn12GeneralErrorE"
   ]
  },
  {
   "function_name" : "android::nn::nnTryHasValue",
   "linker_set_key" : "_ZN7android2nn13nnTryHasValueINS_8hardware11hidl_handleENS0_12GeneralErrorEEEbRKNS_4base8expectedIT_T0_EE",
   "parameters" :
   [
    {
     "referenced_type" : "_ZTIRKN7android4base8expectedINS_8hardware11hidl_handleENS_2nn12GeneralErrorEEE"
    }
   ],
   "return_type" : "_ZTIb",
   "source_file" : "packages/modules/NeuralNetworks/common/include/nnapi/Result.h",
   "template_args" :
   [
    "_ZTIN7android8hardware11hidl_handleE",
    "_ZTIN7android2nn12GeneralErrorE"
   ]
  },
  {
   "function_name" : "android::nn::createSharedMemory",
   "linker_set_key" : "_ZN7android2nn18createSharedMemoryEm",
   "parameters" :
   [
    {
     "referenced_type" : "_ZTIm"
    }
   ],
   "return_type" : "_ZTIN7android4base8expectedINSt3__110shared_ptrIKNS_2nn6MemoryEEENS4_12GeneralErrorEEE",
   "source_file" : "packages/modules/NeuralNetworks/common/include/nnapi/SharedMemory.h"
  },
  {
   "function_name" : "android::nn::getExtensionPrefix",
   "linker_set_key" : "_ZN7android2nn18getExtensionPrefixEj",
   "parameters" :
   [
    {
     "referenced_type" : "_ZTIj"
    }
   ],
   "return_type" : "_ZTIt",
   "source_file" : "packages/modules/NeuralNetworks/common/include/nnapi/TypeUtils.h"
  },
  {
   "function_name" : "android::nn::getTypeWithinExtension",
   "linker_set_key" : "_ZN7android2nn22getTypeWithinExtensionEj",
   "parameters" :
   [
    {
     "referenced_type" : "_ZTIj"
    }
   ],
   "return_type" : "_ZTIt",
   "source_file" : "packages/modules/NeuralNetworks/common/include/nnapi/TypeUtils.h"
  },
  {
   "function_name" : "android::nn::createSharedMemoryFromFd",
   "linker_set_key" : "_ZN7android2nn24createSharedMemoryFromFdEmiim",
   "parameters" :
   [
    {
     "referenced_type" : "_ZTIm"
    },
    {
     "referenced_type" : "_ZTIi"
    },
    {
     "referenced_type" : "_ZTIi"
    },
    {
     "referenced_type" : "_ZTIm"
    }
   ],
   "return_type" : "_ZTIN7android4base8expectedINSt3__110shared_ptrIKNS_2nn6MemoryEEENS4_12GeneralErrorEEE",
   "source_file" : "packages/modules/NeuralNetworks/common/include/nnapi/SharedMemory.h"
  },
  {
   "function_name" : "android::nn::createSharedMemoryFromAHWB",
   "linker_set_key" : "_ZN7android2nn26createSharedMemoryFromAHWBEP15AHardwareBufferb",
   "parameters" :
   [
    {
     "referenced_type" : "_ZTIP15AHardwareBuffer"
    },
    {
     "referenced_type" : "_ZTIb"
    }
   ],
   "return_type" : "_ZTIN7android4base8expectedINSt3__110shared_ptrIKNS_2nn6MemoryEEENS4_12GeneralErrorEEE",
   "source_file" : "packages/modules/NeuralNetworks/common/include/nnapi/SharedMemory.h"
  },
  {
   "function_name" : "android::nn::map",
   "linker_set_key" : "_ZN7android2nn3mapERKNSt3__110shared_ptrIKNS0_6MemoryEEE",
   "parameters" :
   [
    {
     "referenced_type" : "_ZTIRKNSt3__110shared_ptrIKN7android2nn6MemoryEEE"
    }
   ],
   "return_type" : "_ZTIN7android4base8expectedINS_2nn7MappingENS2_12GeneralErrorEEE",
   "source_file" : "packages/modules/NeuralNetworks/common/include/nnapi/SharedMemory.h"
  },
  {
   "function_name" : "android::nn::dupFd",
   "linker_set_key" : "_ZN7android2nn5dupFdEi",
   "parameters" :
   [
    {
     "referenced_type" : "_ZTIi"
    }
   ],
   "return_type" : "_ZTIN7android4base8expectedINS0_14unique_fd_implINS0_13DefaultCloserEEENS_2nn12GeneralErrorEEE",
   "source_file" : "packages/modules/NeuralNetworks/common/include/nnapi/SharedMemory.h"
  },
  {
   "function_name" : "android::nn::error",
   "linker_set_key" : "_ZN7android2nn5errorIJEEENS0_6detail12ErrorBuilderIJDpNSt3__15decayIT_E4typeEEEEDpOS6_",
   "return_type" : "_ZTIN7android2nn6detail12ErrorBuilderIJEEE",
   "source_file" : "packages/modules/NeuralNetworks/common/include/nnapi/Result.h"
  },
  {
   "function_name" : "android::nn::error",
   "linker_set_key" : "_ZN7android2nn5errorIJNS0_11ErrorStatusEEEENS0_6detail12ErrorBuilderIJDpNSt3__15decayIT_E4typeEEEEDpOS7_",
   "parameters" :
   [
    {
     "referenced_type" : "_ZTION7android2nn11ErrorStatusE"
    }
   ],
   "return_type" : "_ZTIN7android2nn6detail12ErrorBuilderIJNS0_11ErrorStatusEEEE",
   "source_file" : "packages/modules/NeuralNetworks/common/include/nnapi/Result.h"
  },
  {
   "function_name" : "android::nn::flush",
   "linker_set_key" : "_ZN7android2nn5flushERKNS0_7MappingE",
   "parameters" :
   [
    {
     "referenced_type" : "_ZTIRKN7android2nn7MappingE"
    }
   ],
   "return_type" : "_ZTIb",
   "source_file" : "packages/modules/NeuralNetworks/common/include/nnapi/SharedMemory.h"
  },
  {
   "function_name" : "android::nn::detail::ErrorBuilder<>::ErrorBuilder",
   "linker_set_key" : "_ZN7android2nn6detail12ErrorBuilderIJEEC1IJEEEDpOT_",
   "parameters" :
   [
    {
     "is_this_ptr" : true,
     "referenced_type" : "_ZTIPN7android2nn6detail12ErrorBuilderIJEEE"
    }
   ],
   "return_type" : "_ZTIv",
   "source_file" : "packages/modules/NeuralNetworks/common/include/nnapi/Result.h"
  },
  {
   "function_name" : "android::nn::detail::ErrorBuilder<>::ErrorBuilder",
   "linker_set_key" : "_ZN7android2nn6detail12ErrorBuilderIJEEC2IJEEEDpOT_",
   "parameters" :
   [
    {
     "is_this_ptr" : true,
     "referenced_type" : "_ZTIPN7android2nn6detail12ErrorBuilderIJEEE"
    }
   ],
   "return_type" : "_ZTIv",
   "source_file" : "packages/modules/NeuralNetworks/common/include/nnapi/Result.h"
  },
  {
   "function_name" : "android::nn::detail::ErrorBuilder<>::operator expected",
   "linker_set_key" : "_ZN7android2nn6detail12ErrorBuilderIJEEcvNS_4base8expectedIT_T0_EEINS0_7MappingENS0_12GeneralErrorEEEv",
   "parameters" :
   [
    {
     "is_this_ptr" : true,
     "referenced_type" : "_ZTIPN7android2nn6detail12ErrorBuilderIJEEE"
    }
   ],
   "return_type" : "_ZTIN7android4base8expectedINS_2nn7MappingENS2_12GeneralErrorEEE",
   "source_file" : "packages/modules/NeuralNetworks/common/include/nnapi/Result.h",
   "template_args" : [ "_ZTIN7android2nn7MappingE", "_ZTIN7android2nn12GeneralErrorE" ]
  },
  {
   "function_name" : "android::nn::detail::ErrorBuilder<>::operator expected",
   "linker_set_key" : "_ZN7android2nn6detail12ErrorBuilderIJEEcvNS_4base8expectedIT_T0_EEINS0_7VersionENSt3__112basic_stringIcNSB_11char_traitsIcEENSB_9allocatorIcEEEEEEv",
   "parameters" :
   [
    {
     "is_this_ptr" : true,
     "referenced_type" : "_ZTIPN7android2nn6detail12ErrorBuilderIJEEE"
    }
   ],
   "return_type" : "_ZTIN7android4base8expectedINS_2nn7VersionENSt3__112basic_stringIcNS4_11char_traitsIcEENS4_9allocatorIcEEEEEE",
   "source_file" : "packages/modules/NeuralNetworks/common/include/nnapi/Result.h",
   "template_args" :
   [
    "_ZTIN7android2nn7VersionE",
    "_ZTINSt3__112basic_stringIcNS_11char_traitsIcEENS_9allocatorIcEEEE"
   ]
  },
  {
   "function_name" : "android::nn::detail::ErrorBuilder<>::operator expected",
   "linker_set_key" : "_ZN7android2nn6detail12ErrorBuilderIJEEcvNS_4base8expectedIT_T0_EEINS_8hardware11hidl_handleENS0_12GeneralErrorEEEv",
   "parameters" :
   [
    {
     "is_this_ptr" : true,
     "referenced_type" : "_ZTIPN7android2nn6detail12ErrorBuilderIJEEE"
    }
   ],
   "return_type" : "_ZTIN7android4base8expectedINS_8hardware11hidl_handleENS_2nn12GeneralErrorEEE",
   "source_file" : "packages/modules/NeuralNetworks/common/include/nnapi/Result.h",
   "template_args" :
   [
    "_ZTIN7android8hardware11hidl_handleE",
    "_ZTIN7android2nn12GeneralErrorE"
   ]
  },
  {
   "function_name" : "android::nn::detail::ErrorBuilder<>::operator expected",
   "linker_set_key" : "_ZN7android2nn6detail12ErrorBuilderIJEEcvNS_4base8expectedIT_T0_EEINSt3__110shared_ptrIKNS0_6MemoryEEENS0_12GeneralErrorEEEv",
   "parameters" :
   [
    {
     "is_this_ptr" : true,
     "referenced_type" : "_ZTIPN7android2nn6detail12ErrorBuilderIJEEE"
    }
   ],
   "return_type" : "_ZTIN7android4base8expectedINSt3__110shared_ptrIKNS_2nn6MemoryEEENS4_12GeneralErrorEEE",
   "source_file" : "packages/modules/NeuralNetworks/common/include/nnapi/Result.h",
   "template_args" :
   [
    "_ZTINSt3__110shared_ptrIKN7android2nn6MemoryEEE",
    "_ZTIN7android2nn12GeneralErrorE"
   ]
  },
  {
   "function_name" : "android::nn::detail::ErrorBuilder<>::operator<<",
   "linker_set_key" : "_ZN7android2nn6detail12ErrorBuilderIJEElsIA24_cEES3_RKT_",
   "parameters" :
   [
    {
     "is_this_ptr" : true,
     "referenced_type" : "_ZTIPN7android2nn6detail12ErrorBuilderIJEEE"
    },
    {
     "referenced_type" : "_ZTIRA24_Kc"
    }
   ],
   "return_type" : "_ZTIN7android2nn6detail12ErrorBuilderIJEEE",
   "source_file" : "packages/modules/NeuralNetworks/common/include/nnapi/Result.h",
   "template_args" : [ "_ZTIA24_c" ]
  },
  {
   "function_name" : "android::nn::detail::ErrorBuilder<>::operator<<",
   "linker_set_key" : "_ZN7android2nn6detail12ErrorBuilderIJEElsIA25_cEES3_RKT_",
   "parameters" :
   [
    {
     "is_this_ptr" : true,
     "referenced_type" : "_ZTIPN7android2nn6detail12ErrorBuilderIJEEE"
    },
    {
     "referenced_type" : "_ZTIRA25_Kc"
    }
   ],
   "return_type" : "_ZTIN7android2nn6detail12ErrorBuilderIJEEE",
   "source_file" : "packages/modules/NeuralNetworks/common/include/nnapi/Result.h",
   "template_args" : [ "_ZTIA25_c" ]
  },
  {
   "function_name" : "android::nn::detail::ErrorBuilder<>::operator<<",
   "linker_set_key" : "_ZN7android2nn6detail12ErrorBuilderIJEElsIA2_cEES3_RKT_",
   "parameters" :
   [
    {
     "is_this_ptr" : true,
     "referenced_type" : "_ZTIPN7android2nn6detail12ErrorBuilderIJEEE"
    },
    {
     "referenced_type" : "_ZTIRA2_Kc"
    }
   ],
   "return_type" : "_ZTIN7android2nn6detail12ErrorBuilderIJEEE",
   "source_file" : "packages/modules/NeuralNetworks/common/include/nnapi/Result.h",
   "template_args" : [ "_ZTIA2_c" ]
  },
  {
   "function_name" : "android::nn::detail::ErrorBuilder<>::operator<<",
   "linker_set_key" : "_ZN7android2nn6detail12ErrorBuilderIJEElsIA31_cEES3_RKT_",
   "parameters" :
   [
    {
     "is_this_ptr" : true,
     "referenced_type" : "_ZTIPN7android2nn6detail12ErrorBuilderIJEEE"
    },
    {
     "referenced_type" : "_ZTIRA31_Kc"
    }
   ],
   "return_type" : "_ZTIN7android2nn6detail12ErrorBuilderIJEEE",
   "source_file" : "packages/modules/NeuralNetworks/common/include/nnapi/Result.h",
   "template_args" : [ "_ZTIA31_c" ]
  },
  {
   "function_name" : "android::nn::detail::ErrorBuilder<>::operator<<",
   "linker_set_key" : "_ZN7android2nn6detail12ErrorBuilderIJEElsIA32_cEES3_RKT_",
   "parameters" :
   [
    {
     "is_this_ptr" : true,
     "referenced_type" : "_ZTIPN7android2nn6detail12ErrorBuilderIJEEE"
    },
    {
     "referenced_type" : "_ZTIRA32_Kc"
    }
   ],
   "return_type" : "_ZTIN7android2nn6detail12ErrorBuilderIJEEE",
   "source_file" : "packages/modules/NeuralNetworks/common/include/nnapi/Result.h",
   "template_args" : [ "_ZTIA32_c" ]
  },
  {
   "function_name" : "android::nn::detail::ErrorBuilder<>::operator<<",
   "linker_set_key" : "_ZN7android2nn6detail12ErrorBuilderIJEElsIA3_cEES3_RKT_",
   "parameters" :
   [
    {
     "is_this_ptr" : true,
     "referenced_type" : "_ZTIPN7android2nn6detail12ErrorBuilderIJEEE"
    },
    {
     "referenced_type" : "_ZTIRA3_Kc"
    }
   ],
   "return_type" : "_ZTIN7android2nn6detail12ErrorBuilderIJEEE",
   "source_file" : "packages/modules/NeuralNetworks/common/include/nnapi/Result.h",
   "template_args" : [ "_ZTIA3_c" ]
  },
  {
   "function_name" : "android::nn::detail::ErrorBuilder<>::operator<<",
   "linker_set_key" : "_ZN7android2nn6detail12ErrorBuilderIJEElsIA40_cEES3_RKT_",
   "parameters" :
   [
    {
     "is_this_ptr" : true,
     "referenced_type" : "_ZTIPN7android2nn6detail12ErrorBuilderIJEEE"
    },
    {
     "referenced_type" : "_ZTIRA40_Kc"
    }
   ],
   "return_type" : "_ZTIN7android2nn6detail12ErrorBuilderIJEEE",
   "source_file" : "packages/modules/NeuralNetworks/common/include/nnapi/Result.h",
   "template_args" : [ "_ZTIA40_c" ]
  },
  {
   "function_name" : "android::nn::detail::ErrorBuilder<>::operator<<",
   "linker_set_key" : "_ZN7android2nn6detail12ErrorBuilderIJEElsIA42_cEES3_RKT_",
   "parameters" :
   [
    {
     "is_this_ptr" : true,
     "referenced_type" : "_ZTIPN7android2nn6detail12ErrorBuilderIJEEE"
    },
    {
     "referenced_type" : "_ZTIRA42_Kc"
    }
   ],
   "return_type" : "_ZTIN7android2nn6detail12ErrorBuilderIJEEE",
   "source_file" : "packages/modules/NeuralNetworks/common/include/nnapi/Result.h",
   "template_args" : [ "_ZTIA42_c" ]
  },
  {
   "function_name" : "android::nn::detail::ErrorBuilder<>::operator<<",
   "linker_set_key" : "_ZN7android2nn6detail12ErrorBuilderIJEElsIA46_cEES3_RKT_",
   "parameters" :
   [
    {
     "is_this_ptr" : true,
     "referenced_type" : "_ZTIPN7android2nn6detail12ErrorBuilderIJEEE"
    },
    {
     "referenced_type" : "_ZTIRA46_Kc"
    }
   ],
   "return_type" : "_ZTIN7android2nn6detail12ErrorBuilderIJEEE",
   "source_file" : "packages/modules/NeuralNetworks/common/include/nnapi/Result.h",
   "template_args" : [ "_ZTIA46_c" ]
  },
  {
   "function_name" : "android::nn::detail::ErrorBuilder<>::operator<<",
   "linker_set_key" : "_ZN7android2nn6detail12ErrorBuilderIJEElsIA61_cEES3_RKT_",
   "parameters" :
   [
    {
     "is_this_ptr" : true,
     "referenced_type" : "_ZTIPN7android2nn6detail12ErrorBuilderIJEEE"
    },
    {
     "referenced_type" : "_ZTIRA61_Kc"
    }
   ],
   "return_type" : "_ZTIN7android2nn6detail12ErrorBuilderIJEEE",
   "source_file" : "packages/modules/NeuralNetworks/common/include/nnapi/Result.h",
   "template_args" : [ "_ZTIA61_c" ]
  },
  {
   "function_name" : "android::nn::detail::ErrorBuilder<>::operator<<",
   "linker_set_key" : "_ZN7android2nn6detail12ErrorBuilderIJEElsIA84_cEES3_RKT_",
   "parameters" :
   [
    {
     "is_this_ptr" : true,
     "referenced_type" : "_ZTIPN7android2nn6detail12ErrorBuilderIJEEE"
    },
    {
     "referenced_type" : "_ZTIRA84_Kc"
    }
   ],
   "return_type" : "_ZTIN7android2nn6detail12ErrorBuilderIJEEE",
   "source_file" : "packages/modules/NeuralNetworks/common/include/nnapi/Result.h",
   "template_args" : [ "_ZTIA84_c" ]
  },
  {
   "function_name" : "android::nn::detail::ErrorBuilder<>::operator<<",
   "linker_set_key" : "_ZN7android2nn6detail12ErrorBuilderIJEElsINSt3__112basic_stringIcNS5_11char_traitsIcEENS5_9allocatorIcEEEEEES3_RKT_",
   "parameters" :
   [
    {
     "is_this_ptr" : true,
     "referenced_type" : "_ZTIPN7android2nn6detail12ErrorBuilderIJEEE"
    },
    {
     "referenced_type" : "_ZTIRKNSt3__112basic_stringIcNS_11char_traitsIcEENS_9allocatorIcEEEE"
    }
   ],
   "return_type" : "_ZTIN7android2nn6detail12ErrorBuilderIJEEE",
   "source_file" : "packages/modules/NeuralNetworks/common/include/nnapi/Result.h",
   "template_args" : [ "_ZTINSt3__112basic_stringIcNS_11char_traitsIcEENS_9allocatorIcEEEE" ]
  },
  {
   "function_name" : "android::nn::detail::ErrorBuilder<>::operator<<",
   "linker_set_key" : "_ZN7android2nn6detail12ErrorBuilderIJEElsIiEES3_RKT_",
   "parameters" :
   [
    {
     "is_this_ptr" : true,
     "referenced_type" : "_ZTIPN7android2nn6detail12ErrorBuilderIJEEE"
    },
    {
     "referenced_type" : "_ZTIRKi"
    }
   ],
   "return_type" : "_ZTIN7android2nn6detail12ErrorBuilderIJEEE",
   "source_file" : "packages/modules/NeuralNetworks/common/include/nnapi/Result.h",
   "template_args" : [ "_ZTIi" ]
  },
  {
   "function_name" : "android::nn::detail::ErrorBuilder<android::nn::ErrorStatus>::ErrorBuilder",
   "linker_set_key" : "_ZN7android2nn6detail12ErrorBuilderIJNS0_11ErrorStatusEEEC1IJS3_EEEDpOT_",
   "parameters" :
   [
    {
     "is_this_ptr" : true,
     "referenced_type" : "_ZTIPN7android2nn6detail12ErrorBuilderIJNS0_11ErrorStatusEEEE"
    },
    {
     "referenced_type" : "_ZTION7android2nn11ErrorStatusE"
    }
   ],
   "return_type" : "_ZTIv",
   "source_file" : "packages/modules/NeuralNetworks/common/include/nnapi/Result.h"
  },
  {
   "function_name" : "android::nn::detail::ErrorBuilder<android::nn::ErrorStatus>::ErrorBuilder",
   "linker_set_key" : "_ZN7android2nn6detail12ErrorBuilderIJNS0_11ErrorStatusEEEC2IJS3_EEEDpOT_",
   "parameters" :
   [
    {
     "is_this_ptr" : true,
     "referenced_type" : "_ZTIPN7android2nn6detail12ErrorBuilderIJNS0_11ErrorStatusEEEE"
    },
    {
     "referenced_type" : "_ZTION7android2nn11ErrorStatusE"
    }
   ],
   "return_type" : "_ZTIv",
   "source_file" : "packages/modules/NeuralNetworks/common/include/nnapi/Result.h"
  },
  {
   "function_name" : "android::nn::detail::ErrorBuilder<android::nn::ErrorStatus>::operator expected",
   "linker_set_key" : "_ZN7android2nn6detail12ErrorBuilderIJNS0_11ErrorStatusEEEcvNS_4base8expectedIT_T0_EEINS0_7MappingENS0_12GeneralErrorEEEv",
   "parameters" :
   [
    {
     "is_this_ptr" : true,
     "referenced_type" : "_ZTIPN7android2nn6detail12ErrorBuilderIJNS0_11ErrorStatusEEEE"
    }
   ],
   "return_type" : "_ZTIN7android4base8expectedINS_2nn7MappingENS2_12GeneralErrorEEE",
   "source_file" : "packages/modules/NeuralNetworks/common/include/nnapi/Result.h",
   "template_args" : [ "_ZTIN7android2nn7MappingE", "_ZTIN7android2nn12GeneralErrorE" ]
  },
  {
   "function_name" : "android::nn::detail::ErrorBuilder<android::nn::ErrorStatus>::operator expected",
   "linker_set_key" : "_ZN7android2nn6detail12ErrorBuilderIJNS0_11ErrorStatusEEEcvNS_4base8expectedIT_T0_EEINS5_14unique_fd_implINS5_13DefaultCloserEEENS0_12GeneralErrorEEEv",
   "parameters" :
   [
    {
     "is_this_ptr" : true,
     "referenced_type" : "_ZTIPN7android2nn6detail12ErrorBuilderIJNS0_11ErrorStatusEEEE"
    }
   ],
   "return_type" : "_ZTIN7android4base8expectedINS0_14unique_fd_implINS0_13DefaultCloserEEENS_2nn12GeneralErrorEEE",
   "source_file" : "packages/modules/NeuralNetworks/common/include/nnapi/Result.h",
   "template_args" :
   [
    "_ZTIN7android4base14unique_fd_implINS0_13DefaultCloserEEE",
    "_ZTIN7android2nn12GeneralErrorE"
   ]
  },
  {
   "function_name" : "android::nn::detail::ErrorBuilder<android::nn::ErrorStatus>::operator expected",
   "linker_set_key" : "_ZN7android2nn6detail12ErrorBuilderIJNS0_11ErrorStatusEEEcvNS_4base8expectedIT_T0_EEINSt3__110shared_ptrIKNS0_6MemoryEEENS0_12GeneralErrorEEEv",
   "parameters" :
   [
    {
     "is_this_ptr" : true,
     "referenced_type" : "_ZTIPN7android2nn6detail12ErrorBuilderIJNS0_11ErrorStatusEEEE"
    }
   ],
   "return_type" : "_ZTIN7android4base8expectedINSt3__110shared_ptrIKNS_2nn6MemoryEEENS4_12GeneralErrorEEE",
   "source_file" : "packages/modules/NeuralNetworks/common/include/nnapi/Result.h",
   "template_args" :
   [
    "_ZTINSt3__110shared_ptrIKN7android2nn6MemoryEEE",
    "_ZTIN7android2nn12GeneralErrorE"
   ]
  },
  {
   "function_name" : "android::nn::detail::ErrorBuilder<android::nn::ErrorStatus>::operator<<",
   "linker_set_key" : "_ZN7android2nn6detail12ErrorBuilderIJNS0_11ErrorStatusEEElsIA21_cEES4_RKT_",
   "parameters" :
   [
    {
     "is_this_ptr" : true,
     "referenced_type" : "_ZTIPN7android2nn6detail12ErrorBuilderIJNS0_11ErrorStatusEEEE"
    },
    {
     "referenced_type" : "_ZTIRA21_Kc"
    }
   ],
   "return_type" : "_ZTIN7android2nn6detail12ErrorBuilderIJNS0_11ErrorStatusEEEE",
   "source_file" : "packages/modules/NeuralNetworks/common/include/nnapi/Result.h",
   "template_args" : [ "_ZTIA21_c" ]
  },
  {
   "function_name" : "android::nn::detail::ErrorBuilder<android::nn::ErrorStatus>::operator<<",
   "linker_set_key" : "_ZN7android2nn6detail12ErrorBuilderIJNS0_11ErrorStatusEEElsIA26_cEES4_RKT_",
   "parameters" :
   [
    {
     "is_this_ptr" : true,
     "referenced_type" : "_ZTIPN7android2nn6detail12ErrorBuilderIJNS0_11ErrorStatusEEEE"
    },
    {
     "referenced_type" : "_ZTIRA26_Kc"
    }
   ],
   "return_type" : "_ZTIN7android2nn6detail12ErrorBuilderIJNS0_11ErrorStatusEEEE",
   "source_file" : "packages/modules/NeuralNetworks/common/include/nnapi/Result.h",
   "template_args" : [ "_ZTIA26_c" ]
  },
  {
   "function_name" : "android::nn::detail::ErrorBuilder<android::nn::ErrorStatus>::operator<<",
   "linker_set_key" : "_ZN7android2nn6detail12ErrorBuilderIJNS0_11ErrorStatusEEElsIA2_cEES4_RKT_",
   "parameters" :
   [
    {
     "is_this_ptr" : true,
     "referenced_type" : "_ZTIPN7android2nn6detail12ErrorBuilderIJNS0_11ErrorStatusEEEE"
    },
    {
     "referenced_type" : "_ZTIRA2_Kc"
    }
   ],
   "return_type" : "_ZTIN7android2nn6detail12ErrorBuilderIJNS0_11ErrorStatusEEEE",
   "source_file" : "packages/modules/NeuralNetworks/common/include/nnapi/Result.h",
   "template_args" : [ "_ZTIA2_c" ]
  },
  {
   "function_name" : "android::nn::detail::ErrorBuilder<android::nn::ErrorStatus>::operator<<",
   "linker_set_key" : "_ZN7android2nn6detail12ErrorBuilderIJNS0_11ErrorStatusEEElsIA30_cEES4_RKT_",
   "parameters" :
   [
    {
     "is_this_ptr" : true,
     "referenced_type" : "_ZTIPN7android2nn6detail12ErrorBuilderIJNS0_11ErrorStatusEEEE"
    },
    {
     "referenced_type" : "_ZTIRA30_Kc"
    }
   ],
   "return_type" : "_ZTIN7android2nn6detail12ErrorBuilderIJNS0_11ErrorStatusEEEE",
   "source_file" : "packages/modules/NeuralNetworks/common/include/nnapi/Result.h",
   "template_args" : [ "_ZTIA30_c" ]
  },
  {
   "function_name" : "android::nn::detail::ErrorBuilder<android::nn::ErrorStatus>::operator<<",
   "linker_set_key" : "_ZN7android2nn6detail12ErrorBuilderIJNS0_11ErrorStatusEEElsIA31_cEES4_RKT_",
   "parameters" :
   [
    {
     "is_this_ptr" : true,
     "referenced_type" : "_ZTIPN7android2nn6detail12ErrorBuilderIJNS0_11ErrorStatusEEEE"
    },
    {
     "referenced_type" : "_ZTIRA31_Kc"
    }
   ],
   "return_type" : "_ZTIN7android2nn6detail12ErrorBuilderIJNS0_11ErrorStatusEEEE",
   "source_file" : "packages/modules/NeuralNetworks/common/include/nnapi/Result.h",
   "template_args" : [ "_ZTIA31_c" ]
  },
  {
   "function_name" : "android::nn::detail::ErrorBuilder<android::nn::ErrorStatus>::operator<<",
   "linker_set_key" : "_ZN7android2nn6detail12ErrorBuilderIJNS0_11ErrorStatusEEElsIA33_cEES4_RKT_",
   "parameters" :
   [
    {
     "is_this_ptr" : true,
     "referenced_type" : "_ZTIPN7android2nn6detail12ErrorBuilderIJNS0_11ErrorStatusEEEE"
    },
    {
     "referenced_type" : "_ZTIRA33_Kc"
    }
   ],
   "return_type" : "_ZTIN7android2nn6detail12ErrorBuilderIJNS0_11ErrorStatusEEEE",
   "source_file" : "packages/modules/NeuralNetworks/common/include/nnapi/Result.h",
   "template_args" : [ "_ZTIA33_c" ]
  },
  {
   "function_name" : "android::nn::detail::ErrorBuilder<android::nn::ErrorStatus>::operator<<",
   "linker_set_key" : "_ZN7android2nn6detail12ErrorBuilderIJNS0_11ErrorStatusEEElsIA3_cEES4_RKT_",
   "parameters" :
   [
    {
     "is_this_ptr" : true,
     "referenced_type" : "_ZTIPN7android2nn6detail12ErrorBuilderIJNS0_11ErrorStatusEEEE"
    },
    {
     "referenced_type" : "_ZTIRA3_Kc"
    }
   ],
   "return_type" : "_ZTIN7android2nn6detail12ErrorBuilderIJNS0_11ErrorStatusEEEE",
   "source_file" : "packages/modules/NeuralNetworks/common/include/nnapi/Result.h",
   "template_args" : [ "_ZTIA3_c" ]
  },
  {
   "function_name" : "android::nn::detail::ErrorBuilder<android::nn::ErrorStatus>::operator<<",
   "linker_set_key" : "_ZN7android2nn6detail12ErrorBuilderIJNS0_11ErrorStatusEEElsIA63_cEES4_RKT_",
   "parameters" :
   [
    {
     "is_this_ptr" : true,
     "referenced_type" : "_ZTIPN7android2nn6detail12ErrorBuilderIJNS0_11ErrorStatusEEEE"
    },
    {
     "referenced_type" : "_ZTIRA63_Kc"
    }
   ],
   "return_type" : "_ZTIN7android2nn6detail12ErrorBuilderIJNS0_11ErrorStatusEEEE",
   "source_file" : "packages/modules/NeuralNetworks/common/include/nnapi/Result.h",
   "template_args" : [ "_ZTIA63_c" ]
  },
  {
   "function_name" : "android::nn::detail::ErrorBuilder<android::nn::ErrorStatus>::operator<<",
   "linker_set_key" : "_ZN7android2nn6detail12ErrorBuilderIJNS0_11ErrorStatusEEElsIA84_cEES4_RKT_",
   "parameters" :
   [
    {
     "is_this_ptr" : true,
     "referenced_type" : "_ZTIPN7android2nn6detail12ErrorBuilderIJNS0_11ErrorStatusEEEE"
    },
    {
     "referenced_type" : "_ZTIRA84_Kc"
    }
   ],
   "return_type" : "_ZTIN7android2nn6detail12ErrorBuilderIJNS0_11ErrorStatusEEEE",
   "source_file" : "packages/modules/NeuralNetworks/common/include/nnapi/Result.h",
   "template_args" : [ "_ZTIA84_c" ]
  },
  {
   "function_name" : "android::nn::detail::ErrorBuilder<android::nn::ErrorStatus>::operator<<",
   "linker_set_key" : "_ZN7android2nn6detail12ErrorBuilderIJNS0_11ErrorStatusEEElsIiEES4_RKT_",
   "parameters" :
   [
    {
     "is_this_ptr" : true,
     "referenced_type" : "_ZTIPN7android2nn6detail12ErrorBuilderIJNS0_11ErrorStatusEEEE"
    },
    {
     "referenced_type" : "_ZTIRKi"
    }
   ],
   "return_type" : "_ZTIN7android2nn6detail12ErrorBuilderIJNS0_11ErrorStatusEEEE",
   "source_file" : "packages/modules/NeuralNetworks/common/include/nnapi/Result.h",
   "template_args" : [ "_ZTIi" ]
  },
  {
   "function_name" : "android::nn::getSize",
   "linker_set_key" : "_ZN7android2nn7getSizeERKNSt3__110shared_ptrIKNS0_6MemoryEEE",
   "parameters" :
   [
    {
     "referenced_type" : "_ZTIRKNSt3__110shared_ptrIKN7android2nn6MemoryEEE"
    }
   ],
   "return_type" : "_ZTIm",
   "source_file" : "packages/modules/NeuralNetworks/common/include/nnapi/SharedMemory.h"
  },
  {
   "function_name" : "android::sp<android::hidl::memory::V1_0::IMemory>::sp",
   "linker_set_key" : "_ZN7android2spINS_4hidl6memory4V1_07IMemoryEEC1EOS5_",
   "parameters" :
   [
    {
     "is_this_ptr" : true,
     "referenced_type" : "_ZTIPN7android2spINS_4hidl6memory4V1_07IMemoryEEE"
    },
    {
     "referenced_type" : "_ZTION7android2spINS_4hidl6memory4V1_07IMemoryEEE"
    }
   ],
   "return_type" : "_ZTIv",
   "source_file" : "system/core/libutils/include/utils/StrongPointer.h"
  },
  {
   "function_name" : "android::sp<android::hidl::memory::V1_0::IMemory>::sp",
   "linker_set_key" : "_ZN7android2spINS_4hidl6memory4V1_07IMemoryEEC1ERKS5_",
   "parameters" :
   [
    {
     "is_this_ptr" : true,
     "referenced_type" : "_ZTIPN7android2spINS_4hidl6memory4V1_07IMemoryEEE"
    },
    {
     "referenced_type" : "_ZTIRKN7android2spINS_4hidl6memory4V1_07IMemoryEEE"
    }
   ],
   "return_type" : "_ZTIv",
   "source_file" : "system/core/libutils/include/utils/StrongPointer.h"
  },
  {
   "function_name" : "android::sp<android::hidl::memory::V1_0::IMemory>::sp",
   "linker_set_key" : "_ZN7android2spINS_4hidl6memory4V1_07IMemoryEEC2EOS5_",
   "parameters" :
   [
    {
     "is_this_ptr" : true,
     "referenced_type" : "_ZTIPN7android2spINS_4hidl6memory4V1_07IMemoryEEE"
    },
    {
     "referenced_type" : "_ZTION7android2spINS_4hidl6memory4V1_07IMemoryEEE"
    }
   ],
   "return_type" : "_ZTIv",
   "source_file" : "system/core/libutils/include/utils/StrongPointer.h"
  },
  {
   "function_name" : "android::sp<android::hidl::memory::V1_0::IMemory>::sp",
   "linker_set_key" : "_ZN7android2spINS_4hidl6memory4V1_07IMemoryEEC2ERKS5_",
   "parameters" :
   [
    {
     "is_this_ptr" : true,
     "referenced_type" : "_ZTIPN7android2spINS_4hidl6memory4V1_07IMemoryEEE"
    },
    {
     "referenced_type" : "_ZTIRKN7android2spINS_4hidl6memory4V1_07IMemoryEEE"
    }
   ],
   "return_type" : "_ZTIv",
   "source_file" : "system/core/libutils/include/utils/StrongPointer.h"
  },
  {
   "function_name" : "android::sp<android::hidl::memory::V1_0::IMemory>::~sp",
   "linker_set_key" : "_ZN7android2spINS_4hidl6memory4V1_07IMemoryEED1Ev",
   "parameters" :
   [
    {
     "is_this_ptr" : true,
     "referenced_type" : "_ZTIPN7android2spINS_4hidl6memory4V1_07IMemoryEEE"
    }
   ],
   "return_type" : "_ZTIv",
   "source_file" : "system/core/libutils/include/utils/StrongPointer.h"
  },
  {
   "function_name" : "android::sp<android::hidl::memory::V1_0::IMemory>::~sp",
   "linker_set_key" : "_ZN7android2spINS_4hidl6memory4V1_07IMemoryEED2Ev",
   "parameters" :
   [
    {
     "is_this_ptr" : true,
     "referenced_type" : "_ZTIPN7android2spINS_4hidl6memory4V1_07IMemoryEEE"
    }
   ],
   "return_type" : "_ZTIv",
   "source_file" : "system/core/libutils/include/utils/StrongPointer.h"
  },
  {
   "function_name" : "android::sp<android::hidl::manager::V1_0::IServiceNotification>::~sp",
   "linker_set_key" : "_ZN7android2spINS_4hidl7manager4V1_020IServiceNotificationEED1Ev",
   "parameters" :
   [
    {
     "is_this_ptr" : true,
     "referenced_type" : "_ZTIPN7android2spINS_4hidl7manager4V1_020IServiceNotificationEEE"
    }
   ],
   "return_type" : "_ZTIv",
   "source_file" : "system/core/libutils/include/utils/StrongPointer.h"
  },
  {
   "function_name" : "android::sp<android::hidl::manager::V1_0::IServiceNotification>::~sp",
   "linker_set_key" : "_ZN7android2spINS_4hidl7manager4V1_020IServiceNotificationEED2Ev",
   "parameters" :
   [
    {
     "is_this_ptr" : true,
     "referenced_type" : "_ZTIPN7android2spINS_4hidl7manager4V1_020IServiceNotificationEEE"
    }
   ],
   "return_type" : "_ZTIv",
   "source_file" : "system/core/libutils/include/utils/StrongPointer.h"
  },
  {
   "function_name" : "android::sp<android::hidl::allocator::V1_0::IAllocator>::~sp",
   "linker_set_key" : "_ZN7android2spINS_4hidl9allocator4V1_010IAllocatorEED1Ev",
   "parameters" :
   [
    {
     "is_this_ptr" : true,
     "referenced_type" : "_ZTIPN7android2spINS_4hidl9allocator4V1_010IAllocatorEEE"
    }
   ],
   "return_type" : "_ZTIv",
   "source_file" : "system/core/libutils/include/utils/StrongPointer.h"
  },
  {
   "function_name" : "android::sp<android::hidl::allocator::V1_0::IAllocator>::~sp",
   "linker_set_key" : "_ZN7android2spINS_4hidl9allocator4V1_010IAllocatorEED2Ev",
   "parameters" :
   [
    {
     "is_this_ptr" : true,
     "referenced_type" : "_ZTIPN7android2spINS_4hidl9allocator4V1_010IAllocatorEEE"
    }
   ],
   "return_type" : "_ZTIv",
   "source_file" : "system/core/libutils/include/utils/StrongPointer.h"
  },
  {
   "access" : "private",
   "function_name" : "android::base::MappedFile::MappedFile",
   "linker_set_key" : "_ZN7android4base10MappedFileC1EPcmm",
   "parameters" :
   [
    {
     "is_this_ptr" : true,
     "referenced_type" : "_ZTIPN7android4base10MappedFileE"
    },
    {
     "referenced_type" : "_ZTIPc"
    },
    {
     "referenced_type" : "_ZTIm"
    },
    {
     "referenced_type" : "_ZTIm"
    }
   ],
   "return_type" : "_ZTIv",
   "source_file" : "system/libbase/include/android-base/mapped_file.h"
  },
  {
   "access" : "private",
   "function_name" : "android::base::MappedFile::MappedFile",
   "linker_set_key" : "_ZN7android4base10MappedFileC2EPcmm",
   "parameters" :
   [
    {
     "is_this_ptr" : true,
     "referenced_type" : "_ZTIPN7android4base10MappedFileE"
    },
    {
     "referenced_type" : "_ZTIPc"
    },
    {
     "referenced_type" : "_ZTIm"
    },
    {
     "referenced_type" : "_ZTIm"
    }
   ],
   "return_type" : "_ZTIv",
   "source_file" : "system/libbase/include/android-base/mapped_file.h"
  },
  {
   "function_name" : "android::base::log_detail::EagerEvaluator<unsigned long, unsigned int>::EagerEvaluator",
   "linker_set_key" : "_ZN7android4base10log_detail14EagerEvaluatorImjEC1IRmjEEOT_OT0_",
   "parameters" :
   [
    {
     "is_this_ptr" : true,
     "referenced_type" : "_ZTIPN7android4base10log_detail14EagerEvaluatorImjEE"
    },
    {
     "referenced_type" : "_ZTIRm"
    },
    {
     "referenced_type" : "_ZTIOj"
    }
   ],
   "return_type" : "_ZTIv",
   "source_file" : "system/libbase/include/android-base/logging.h",
   "template_args" : [ "_ZTIRm", "_ZTIj" ]
  },
  {
   "function_name" : "android::base::log_detail::EagerEvaluator<unsigned long, unsigned int>::EagerEvaluator",
   "linker_set_key" : "_ZN7android4base10log_detail14EagerEvaluatorImjEC2IRmjEEOT_OT0_",
   "parameters" :
   [
    {
     "is_this_ptr" : true,
     "referenced_type" : "_ZTIPN7android4base10log_detail14EagerEvaluatorImjEE"
    },
    {
     "referenced_type" : "_ZTIRm"
    },
    {
     "referenced_type" : "_ZTIOj"
    }
   ],
   "return_type" : "_ZTIv",
   "source_file" : "system/libbase/include/android-base/logging.h",
   "template_args" : [ "_ZTIRm", "_ZTIj" ]
  },
  {
   "function_name" : "android::base::log_detail::EagerEvaluator<unsigned long, unsigned long>::EagerEvaluator",
   "linker_set_key" : "_ZN7android4base10log_detail14EagerEvaluatorImmEC1ImmEEOT_OT0_",
   "parameters" :
   [
    {
     "is_this_ptr" : true,
     "referenced_type" : "_ZTIPN7android4base10log_detail14EagerEvaluatorImmEE"
    },
    {
     "referenced_type" : "_ZTIOm"
    },
    {
     "referenced_type" : "_ZTIOm"
    }
   ],
   "return_type" : "_ZTIv",
   "source_file" : "system/libbase/include/android-base/logging.h",
   "template_args" : [ "_ZTIm", "_ZTIm" ]
  },
  {
   "function_name" : "android::base::log_detail::EagerEvaluator<unsigned long, unsigned long>::EagerEvaluator",
   "linker_set_key" : "_ZN7android4base10log_detail14EagerEvaluatorImmEC2ImmEEOT_OT0_",
   "parameters" :
   [
    {
     "is_this_ptr" : true,
     "referenced_type" : "_ZTIPN7android4base10log_detail14EagerEvaluatorImmEE"
    },
    {
     "referenced_type" : "_ZTIOm"
    },
    {
     "referenced_type" : "_ZTIOm"
    }
   ],
   "return_type" : "_ZTIv",
   "source_file" : "system/libbase/include/android-base/logging.h",
   "template_args" : [ "_ZTIm", "_ZTIm" ]
  },
  {
   "function_name" : "android::base::log_detail::Storage<unsigned int>::Storage",
   "linker_set_key" : "_ZN7android4base10log_detail7StorageIjEC1IjEEOT_",
   "parameters" :
   [
    {
     "is_this_ptr" : true,
     "referenced_type" : "_ZTIPN7android4base10log_detail7StorageIjEE"
    },
    {
     "referenced_type" : "_ZTIOj"
    }
   ],
   "return_type" : "_ZTIv",
   "source_file" : "system/libbase/include/android-base/logging.h",
   "template_args" : [ "_ZTIj" ]
  },
  {
   "function_name" : "android::base::log_detail::Storage<unsigned int>::Storage",
   "linker_set_key" : "_ZN7android4base10log_detail7StorageIjEC2IjEEOT_",
   "parameters" :
   [
    {
     "is_this_ptr" : true,
     "referenced_type" : "_ZTIPN7android4base10log_detail7StorageIjEE"
    },
    {
     "referenced_type" : "_ZTIOj"
    }
   ],
   "return_type" : "_ZTIv",
   "source_file" : "system/libbase/include/android-base/logging.h",
   "template_args" : [ "_ZTIj" ]
  },
  {
   "function_name" : "android::base::log_detail::Storage<unsigned long>::Storage",
   "linker_set_key" : "_ZN7android4base10log_detail7StorageImEC1IRmEEOT_",
   "parameters" :
   [
    {
     "is_this_ptr" : true,
     "referenced_type" : "_ZTIPN7android4base10log_detail7StorageImEE"
    },
    {
     "referenced_type" : "_ZTIRm"
    }
   ],
   "return_type" : "_ZTIv",
   "source_file" : "system/libbase/include/android-base/logging.h",
   "template_args" : [ "_ZTIRm" ]
  },
  {
   "function_name" : "android::base::log_detail::Storage<unsigned long>::Storage",
   "linker_set_key" : "_ZN7android4base10log_detail7StorageImEC1ImEEOT_",
   "parameters" :
   [
    {
     "is_this_ptr" : true,
     "referenced_type" : "_ZTIPN7android4base10log_detail7StorageImEE"
    },
    {
     "referenced_type" : "_ZTIOm"
    }
   ],
   "return_type" : "_ZTIv",
   "source_file" : "system/libbase/include/android-base/logging.h",
   "template_args" : [ "_ZTIm" ]
  },
  {
   "function_name" : "android::base::log_detail::Storage<unsigned long>::Storage",
   "linker_set_key" : "_ZN7android4base10log_detail7StorageImEC2IRmEEOT_",
   "parameters" :
   [
    {
     "is_this_ptr" : true,
     "referenced_type" : "_ZTIPN7android4base10log_detail7StorageImEE"
    },
    {
     "referenced_type" : "_ZTIRm"
    }
   ],
   "return_type" : "_ZTIv",
   "source_file" : "system/libbase/include/android-base/logging.h",
   "template_args" : [ "_ZTIRm" ]
  },
  {
   "function_name" : "android::base::log_detail::Storage<unsigned long>::Storage",
   "linker_set_key" : "_ZN7android4base10log_detail7StorageImEC2ImEEOT_",
   "parameters" :
   [
    {
     "is_this_ptr" : true,
     "referenced_type" : "_ZTIPN7android4base10log_detail7StorageImEE"
    },
    {
     "referenced_type" : "_ZTIOm"
    }
   ],
   "return_type" : "_ZTIv",
   "source_file" : "system/libbase/include/android-base/logging.h",
   "template_args" : [ "_ZTIm" ]
  },
  {
   "function_name" : "android::base::unexpect_t::unexpect_t",
   "linker_set_key" : "_ZN7android4base10unexpect_tC1Ev",
   "parameters" :
   [
    {
     "is_this_ptr" : true,
     "referenced_type" : "_ZTIPN7android4base10unexpect_tE"
    }
   ],
   "return_type" : "_ZTIv",
   "source_file" : "system/libbase/include/android-base/expected.h"
  },
  {
   "function_name" : "android::base::unexpect_t::unexpect_t",
   "linker_set_key" : "_ZN7android4base10unexpect_tC2Ev",
   "parameters" :
   [
    {
     "is_this_ptr" : true,
     "referenced_type" : "_ZTIPN7android4base10unexpect_tE"
    }
   ],
   "return_type" : "_ZTIv",
   "source_file" : "system/libbase/include/android-base/expected.h"
  },
  {
   "function_name" : "android::base::unexpected<android::nn::GeneralError>::unexpected",
   "linker_set_key" : "_ZN7android4base10unexpectedINS_2nn12GeneralErrorEEC1EOS4_",
   "parameters" :
   [
    {
     "is_this_ptr" : true,
     "referenced_type" : "_ZTIPN7android4base10unexpectedINS_2nn12GeneralErrorEEE"
    },
    {
     "referenced_type" : "_ZTION7android4base10unexpectedINS_2nn12GeneralErrorEEE"
    }
   ],
   "return_type" : "_ZTIv",
   "source_file" : "system/libbase/include/android-base/expected.h"
  },
  {
   "function_name" : "android::base::unexpected<android::nn::GeneralError>::unexpected",
   "linker_set_key" : "_ZN7android4base10unexpectedINS_2nn12GeneralErrorEEC1ERKS4_",
   "parameters" :
   [
    {
     "is_this_ptr" : true,
     "referenced_type" : "_ZTIPN7android4base10unexpectedINS_2nn12GeneralErrorEEE"
    },
    {
     "referenced_type" : "_ZTIRKN7android4base10unexpectedINS_2nn12GeneralErrorEEE"
    }
   ],
   "return_type" : "_ZTIv",
   "source_file" : "system/libbase/include/android-base/expected.h"
  },
  {
   "function_name" : "android::base::unexpected<android::nn::GeneralError>::unexpected",
   "linker_set_key" : "_ZN7android4base10unexpectedINS_2nn12GeneralErrorEEC1IS3_LPv0EEEOT_",
   "parameters" :
   [
    {
     "is_this_ptr" : true,
     "referenced_type" : "_ZTIPN7android4base10unexpectedINS_2nn12GeneralErrorEEE"
    },
    {
     "referenced_type" : "_ZTION7android2nn12GeneralErrorE"
    }
   ],
   "return_type" : "_ZTIv",
   "source_file" : "system/libbase/include/android-base/expected.h",
   "template_args" : [ "_ZTIN7android2nn12GeneralErrorE" ]
  },
  {
   "function_name" : "android::base::unexpected<android::nn::GeneralError>::unexpected",
   "linker_set_key" : "_ZN7android4base10unexpectedINS_2nn12GeneralErrorEEC2EOS4_",
   "parameters" :
   [
    {
     "is_this_ptr" : true,
     "referenced_type" : "_ZTIPN7android4base10unexpectedINS_2nn12GeneralErrorEEE"
    },
    {
     "referenced_type" : "_ZTION7android4base10unexpectedINS_2nn12GeneralErrorEEE"
    }
   ],
   "return_type" : "_ZTIv",
   "source_file" : "system/libbase/include/android-base/expected.h"
  },
  {
   "function_name" : "android::base::unexpected<android::nn::GeneralError>::unexpected",
   "linker_set_key" : "_ZN7android4base10unexpectedINS_2nn12GeneralErrorEEC2ERKS4_",
   "parameters" :
   [
    {
     "is_this_ptr" : true,
     "referenced_type" : "_ZTIPN7android4base10unexpectedINS_2nn12GeneralErrorEEE"
    },
    {
     "referenced_type" : "_ZTIRKN7android4base10unexpectedINS_2nn12GeneralErrorEEE"
    }
   ],
   "return_type" : "_ZTIv",
   "source_file" : "system/libbase/include/android-base/expected.h"
  },
  {
   "function_name" : "android::base::unexpected<android::nn::GeneralError>::unexpected",
   "linker_set_key" : "_ZN7android4base10unexpectedINS_2nn12GeneralErrorEEC2IS3_LPv0EEEOT_",
   "parameters" :
   [
    {
     "is_this_ptr" : true,
     "referenced_type" : "_ZTIPN7android4base10unexpectedINS_2nn12GeneralErrorEEE"
    },
    {
     "referenced_type" : "_ZTION7android2nn12GeneralErrorE"
    }
   ],
   "return_type" : "_ZTIv",
   "source_file" : "system/libbase/include/android-base/expected.h",
   "template_args" : [ "_ZTIN7android2nn12GeneralErrorE" ]
  },
  {
   "function_name" : "android::base::unexpected<android::nn::GeneralError>::operator=",
   "linker_set_key" : "_ZN7android4base10unexpectedINS_2nn12GeneralErrorEEaSEOS4_",
   "parameters" :
   [
    {
     "is_this_ptr" : true,
     "referenced_type" : "_ZTIPN7android4base10unexpectedINS_2nn12GeneralErrorEEE"
    },
    {
     "referenced_type" : "_ZTION7android4base10unexpectedINS_2nn12GeneralErrorEEE"
    }
   ],
   "return_type" : "_ZTIRN7android4base10unexpectedINS_2nn12GeneralErrorEEE",
   "source_file" : "system/libbase/include/android-base/expected.h"
  },
  {
   "function_name" : "android::base::unexpected<android::nn::GeneralError>::operator=",
   "linker_set_key" : "_ZN7android4base10unexpectedINS_2nn12GeneralErrorEEaSERKS4_",
   "parameters" :
   [
    {
     "is_this_ptr" : true,
     "referenced_type" : "_ZTIPN7android4base10unexpectedINS_2nn12GeneralErrorEEE"
    },
    {
     "referenced_type" : "_ZTIRKN7android4base10unexpectedINS_2nn12GeneralErrorEEE"
    }
   ],
   "return_type" : "_ZTIRN7android4base10unexpectedINS_2nn12GeneralErrorEEE",
   "source_file" : "system/libbase/include/android-base/expected.h"
  },
  {
   "function_name" : "android::base::unexpected<std::__1::basic_string<char>>::unexpected",
   "linker_set_key" : "_ZN7android4base10unexpectedINSt3__112basic_stringIcNS2_11char_traitsIcEENS2_9allocatorIcEEEEEC1EOS9_",
   "parameters" :
   [
    {
     "is_this_ptr" : true,
     "referenced_type" : "_ZTIPN7android4base10unexpectedINSt3__112basic_stringIcNS2_11char_traitsIcEENS2_9allocatorIcEEEEEE"
    },
    {
     "referenced_type" : "_ZTION7android4base10unexpectedINSt3__112basic_stringIcNS2_11char_traitsIcEENS2_9allocatorIcEEEEEE"
    }
   ],
   "return_type" : "_ZTIv",
   "source_file" : "system/libbase/include/android-base/expected.h"
  },
  {
   "function_name" : "android::base::unexpected<std::__1::basic_string<char>>::unexpected",
   "linker_set_key" : "_ZN7android4base10unexpectedINSt3__112basic_stringIcNS2_11char_traitsIcEENS2_9allocatorIcEEEEEC1ERKS9_",
   "parameters" :
   [
    {
     "is_this_ptr" : true,
     "referenced_type" : "_ZTIPN7android4base10unexpectedINSt3__112basic_stringIcNS2_11char_traitsIcEENS2_9allocatorIcEEEEEE"
    },
    {
     "referenced_type" : "_ZTIRKN7android4base10unexpectedINSt3__112basic_stringIcNS2_11char_traitsIcEENS2_9allocatorIcEEEEEE"
    }
   ],
   "return_type" : "_ZTIv",
   "source_file" : "system/libbase/include/android-base/expected.h"
  },
  {
   "function_name" : "android::base::unexpected<std::__1::basic_string<char>>::unexpected",
   "linker_set_key" : "_ZN7android4base10unexpectedINSt3__112basic_stringIcNS2_11char_traitsIcEENS2_9allocatorIcEEEEEC1IS8_LPv0EEEOT_",
   "parameters" :
   [
    {
     "is_this_ptr" : true,
     "referenced_type" : "_ZTIPN7android4base10unexpectedINSt3__112basic_stringIcNS2_11char_traitsIcEENS2_9allocatorIcEEEEEE"
    },
    {
     "referenced_type" : "_ZTIONSt3__112basic_stringIcNS_11char_traitsIcEENS_9allocatorIcEEEE"
    }
   ],
   "return_type" : "_ZTIv",
   "source_file" : "system/libbase/include/android-base/expected.h",
   "template_args" : [ "_ZTINSt3__112basic_stringIcNS_11char_traitsIcEENS_9allocatorIcEEEE" ]
  },
  {
   "function_name" : "android::base::unexpected<std::__1::basic_string<char>>::unexpected",
   "linker_set_key" : "_ZN7android4base10unexpectedINSt3__112basic_stringIcNS2_11char_traitsIcEENS2_9allocatorIcEEEEEC2EOS9_",
   "parameters" :
   [
    {
     "is_this_ptr" : true,
     "referenced_type" : "_ZTIPN7android4base10unexpectedINSt3__112basic_stringIcNS2_11char_traitsIcEENS2_9allocatorIcEEEEEE"
    },
    {
     "referenced_type" : "_ZTION7android4base10unexpectedINSt3__112basic_stringIcNS2_11char_traitsIcEENS2_9allocatorIcEEEEEE"
    }
   ],
   "return_type" : "_ZTIv",
   "source_file" : "system/libbase/include/android-base/expected.h"
  },
  {
   "function_name" : "android::base::unexpected<std::__1::basic_string<char>>::unexpected",
   "linker_set_key" : "_ZN7android4base10unexpectedINSt3__112basic_stringIcNS2_11char_traitsIcEENS2_9allocatorIcEEEEEC2ERKS9_",
   "parameters" :
   [
    {
     "is_this_ptr" : true,
     "referenced_type" : "_ZTIPN7android4base10unexpectedINSt3__112basic_stringIcNS2_11char_traitsIcEENS2_9allocatorIcEEEEEE"
    },
    {
     "referenced_type" : "_ZTIRKN7android4base10unexpectedINSt3__112basic_stringIcNS2_11char_traitsIcEENS2_9allocatorIcEEEEEE"
    }
   ],
   "return_type" : "_ZTIv",
   "source_file" : "system/libbase/include/android-base/expected.h"
  },
  {
   "function_name" : "android::base::unexpected<std::__1::basic_string<char>>::unexpected",
   "linker_set_key" : "_ZN7android4base10unexpectedINSt3__112basic_stringIcNS2_11char_traitsIcEENS2_9allocatorIcEEEEEC2IS8_LPv0EEEOT_",
   "parameters" :
   [
    {
     "is_this_ptr" : true,
     "referenced_type" : "_ZTIPN7android4base10unexpectedINSt3__112basic_stringIcNS2_11char_traitsIcEENS2_9allocatorIcEEEEEE"
    },
    {
     "referenced_type" : "_ZTIONSt3__112basic_stringIcNS_11char_traitsIcEENS_9allocatorIcEEEE"
    }
   ],
   "return_type" : "_ZTIv",
   "source_file" : "system/libbase/include/android-base/expected.h",
   "template_args" : [ "_ZTINSt3__112basic_stringIcNS_11char_traitsIcEENS_9allocatorIcEEEE" ]
  },
  {
   "function_name" : "android::base::unexpected<std::__1::basic_string<char>>::operator=",
   "linker_set_key" : "_ZN7android4base10unexpectedINSt3__112basic_stringIcNS2_11char_traitsIcEENS2_9allocatorIcEEEEEaSEOS9_",
   "parameters" :
   [
    {
     "is_this_ptr" : true,
     "referenced_type" : "_ZTIPN7android4base10unexpectedINSt3__112basic_stringIcNS2_11char_traitsIcEENS2_9allocatorIcEEEEEE"
    },
    {
     "referenced_type" : "_ZTION7android4base10unexpectedINSt3__112basic_stringIcNS2_11char_traitsIcEENS2_9allocatorIcEEEEEE"
    }
   ],
   "return_type" : "_ZTIRN7android4base10unexpectedINSt3__112basic_stringIcNS2_11char_traitsIcEENS2_9allocatorIcEEEEEE",
   "source_file" : "system/libbase/include/android-base/expected.h"
  },
  {
   "function_name" : "android::base::unexpected<std::__1::basic_string<char>>::operator=",
   "linker_set_key" : "_ZN7android4base10unexpectedINSt3__112basic_stringIcNS2_11char_traitsIcEENS2_9allocatorIcEEEEEaSERKS9_",
   "parameters" :
   [
    {
     "is_this_ptr" : true,
     "referenced_type" : "_ZTIPN7android4base10unexpectedINSt3__112basic_stringIcNS2_11char_traitsIcEENS2_9allocatorIcEEEEEE"
    },
    {
     "referenced_type" : "_ZTIRKN7android4base10unexpectedINSt3__112basic_stringIcNS2_11char_traitsIcEENS2_9allocatorIcEEEEEE"
    }
   ],
   "return_type" : "_ZTIRN7android4base10unexpectedINSt3__112basic_stringIcNS2_11char_traitsIcEENS2_9allocatorIcEEEEEE",
   "source_file" : "system/libbase/include/android-base/expected.h"
  },
  {
   "function_name" : "android::base::borrowed_fd::borrowed_fd",
   "linker_set_key" : "_ZN7android4base11borrowed_fdC1Ei",
   "parameters" :
   [
    {
     "is_this_ptr" : true,
     "referenced_type" : "_ZTIPN7android4base11borrowed_fdE"
    },
    {
     "referenced_type" : "_ZTIi"
    }
   ],
   "return_type" : "_ZTIv",
   "source_file" : "system/libbase/include/android-base/unique_fd.h"
  },
  {
   "function_name" : "android::base::borrowed_fd::borrowed_fd",
   "linker_set_key" : "_ZN7android4base11borrowed_fdC1INS0_13DefaultCloserEEERKNS0_14unique_fd_implIT_EE",
   "parameters" :
   [
    {
     "is_this_ptr" : true,
     "referenced_type" : "_ZTIPN7android4base11borrowed_fdE"
    },
    {
     "referenced_type" : "_ZTIRKN7android4base14unique_fd_implINS0_13DefaultCloserEEE"
    }
   ],
   "return_type" : "_ZTIv",
   "source_file" : "system/libbase/include/android-base/unique_fd.h",
   "template_args" : [ "_ZTIN7android4base13DefaultCloserE" ]
  },
  {
   "function_name" : "android::base::borrowed_fd::borrowed_fd",
   "linker_set_key" : "_ZN7android4base11borrowed_fdC2Ei",
   "parameters" :
   [
    {
     "is_this_ptr" : true,
     "referenced_type" : "_ZTIPN7android4base11borrowed_fdE"
    },
    {
     "referenced_type" : "_ZTIi"
    }
   ],
   "return_type" : "_ZTIv",
   "source_file" : "system/libbase/include/android-base/unique_fd.h"
  },
  {
   "function_name" : "android::base::borrowed_fd::borrowed_fd",
   "linker_set_key" : "_ZN7android4base11borrowed_fdC2INS0_13DefaultCloserEEERKNS0_14unique_fd_implIT_EE",
   "parameters" :
   [
    {
     "is_this_ptr" : true,
     "referenced_type" : "_ZTIPN7android4base11borrowed_fdE"
    },
    {
     "referenced_type" : "_ZTIRKN7android4base14unique_fd_implINS0_13DefaultCloserEEE"
    }
   ],
   "return_type" : "_ZTIv",
   "source_file" : "system/libbase/include/android-base/unique_fd.h",
   "template_args" : [ "_ZTIN7android4base13DefaultCloserE" ]
  },
  {
   "function_name" : "android::base::LogNullGuard<nullptr_t>::Guard",
   "linker_set_key" : "_ZN7android4base12LogNullGuardIDnE5GuardERKDn",
   "parameters" :
   [
    {
     "referenced_type" : "_ZTIRKDn"
    }
   ],
   "return_type" : "_ZTIPKc",
   "source_file" : "system/libbase/include/android-base/logging.h"
  },
  {
   "function_name" : "android::base::LogNullGuard<const char *>::Guard",
   "linker_set_key" : "_ZN7android4base12LogNullGuardIPKcE5GuardES3_",
   "parameters" :
   [
    {
     "referenced_type" : "_ZTIPKc"
    }
   ],
   "return_type" : "_ZTIPKc",
   "source_file" : "system/libbase/include/android-base/logging.h"
  },
  {
   "function_name" : "android::base::LogNullGuard<char *>::Guard",
   "linker_set_key" : "_ZN7android4base12LogNullGuardIPcE5GuardEPKc",
   "parameters" :
   [
    {
     "referenced_type" : "_ZTIPKc"
    }
   ],
   "return_type" : "_ZTIPKc",
   "source_file" : "system/libbase/include/android-base/logging.h"
  },
  {
   "function_name" : "android::base::LogNullGuard<unsigned int>::Guard",
   "linker_set_key" : "_ZN7android4base12LogNullGuardIjE5GuardERKj",
   "parameters" :
   [
    {
     "referenced_type" : "_ZTIRKj"
    }
   ],
   "return_type" : "_ZTIRKj",
   "source_file" : "system/libbase/include/android-base/logging.h"
  },
  {
   "function_name" : "android::base::LogNullGuard<unsigned long>::Guard",
   "linker_set_key" : "_ZN7android4base12LogNullGuardImE5GuardERKm",
   "parameters" :
   [
    {
     "referenced_type" : "_ZTIRKm"
    }
   ],
   "return_type" : "_ZTIRKm",
   "source_file" : "system/libbase/include/android-base/logging.h"
  },
  {
   "function_name" : "android::base::DefaultCloser::Tag",
   "linker_set_key" : "_ZN7android4base13DefaultCloser3TagEiPvS2_",
   "parameters" :
   [
    {
     "referenced_type" : "_ZTIi"
    },
    {
     "referenced_type" : "_ZTIPv"
    },
    {
     "referenced_type" : "_ZTIPv"
    }
   ],
   "return_type" : "_ZTIv",
   "source_file" : "system/libbase/include/android-base/unique_fd.h"
  },
  {
   "function_name" : "android::base::DefaultCloser::Close",
   "linker_set_key" : "_ZN7android4base13DefaultCloser5CloseEiPv",
   "parameters" :
   [
    {
     "referenced_type" : "_ZTIi"
    },
    {
     "referenced_type" : "_ZTIPv"
    }
   ],
   "return_type" : "_ZTIv",
   "source_file" : "system/libbase/include/android-base/unique_fd.h"
  },
  {
   "function_name" : "android::base::ErrnoRestorer::ErrnoRestorer",
   "linker_set_key" : "_ZN7android4base13ErrnoRestorerC1Ev",
   "parameters" :
   [
    {
     "is_this_ptr" : true,
     "referenced_type" : "_ZTIPN7android4base13ErrnoRestorerE"
    }
   ],
   "return_type" : "_ZTIv",
   "source_file" : "system/libbase/include/android-base/errno_restorer.h"
  },
  {
   "function_name" : "android::base::ErrnoRestorer::ErrnoRestorer",
   "linker_set_key" : "_ZN7android4base13ErrnoRestorerC2Ev",
   "parameters" :
   [
    {
     "is_this_ptr" : true,
     "referenced_type" : "_ZTIPN7android4base13ErrnoRestorerE"
    }
   ],
   "return_type" : "_ZTIv",
   "source_file" : "system/libbase/include/android-base/errno_restorer.h"
  },
  {
   "function_name" : "android::base::ErrnoRestorer::~ErrnoRestorer",
   "linker_set_key" : "_ZN7android4base13ErrnoRestorerD1Ev",
   "parameters" :
   [
    {
     "is_this_ptr" : true,
     "referenced_type" : "_ZTIPN7android4base13ErrnoRestorerE"
    }
   ],
   "return_type" : "_ZTIv",
   "source_file" : "system/libbase/include/android-base/errno_restorer.h"
  },
  {
   "function_name" : "android::base::ErrnoRestorer::~ErrnoRestorer",
   "linker_set_key" : "_ZN7android4base13ErrnoRestorerD2Ev",
   "parameters" :
   [
    {
     "is_this_ptr" : true,
     "referenced_type" : "_ZTIPN7android4base13ErrnoRestorerE"
    }
   ],
   "return_type" : "_ZTIv",
   "source_file" : "system/libbase/include/android-base/errno_restorer.h"
  },
  {
   "access" : "private",
   "function_name" : "android::base::unique_fd_impl<android::base::DefaultCloser>::tag",
   "linker_set_key" : "_ZN7android4base14unique_fd_implINS0_13DefaultCloserEE3tagIS2_EEDTcmclsrT_3Tagfp_fp0_fp1_Ecvv_EEiPvS7_",
   "parameters" :
   [
    {
     "referenced_type" : "_ZTIi"
    },
    {
     "referenced_type" : "_ZTIPv"
    },
    {
     "referenced_type" : "_ZTIPv"
    }
   ],
   "return_type" : "_ZTIv",
   "source_file" : "system/libbase/include/android-base/unique_fd.h",
   "template_args" : [ "_ZTIN7android4base13DefaultCloserE" ]
  },
  {
   "access" : "private",
   "function_name" : "android::base::unique_fd_impl<android::base::DefaultCloser>::close",
   "linker_set_key" : "_ZN7android4base14unique_fd_implINS0_13DefaultCloserEE5closeIS2_EEDTcmclsrT_5Closefp_fp0_Ecvv_EEiPv",
   "parameters" :
   [
    {
     "referenced_type" : "_ZTIi"
    },
    {
     "referenced_type" : "_ZTIPv"
    }
   ],
   "return_type" : "_ZTIv",
   "source_file" : "system/libbase/include/android-base/unique_fd.h",
   "template_args" : [ "_ZTIN7android4base13DefaultCloserE" ]
  },
  {
   "function_name" : "android::base::unique_fd_impl<android::base::DefaultCloser>::reset",
   "linker_set_key" : "_ZN7android4base14unique_fd_implINS0_13DefaultCloserEE5resetEi",
   "parameters" :
   [
    {
     "is_this_ptr" : true,
     "referenced_type" : "_ZTIPN7android4base14unique_fd_implINS0_13DefaultCloserEEE"
    },
    {
     "default_arg" : true,
     "referenced_type" : "_ZTIi"
    }
   ],
   "return_type" : "_ZTIv",
   "source_file" : "system/libbase/include/android-base/unique_fd.h"
  },
  {
   "access" : "private",
   "function_name" : "android::base::unique_fd_impl<android::base::DefaultCloser>::reset",
   "linker_set_key" : "_ZN7android4base14unique_fd_implINS0_13DefaultCloserEE5resetEiPv",
   "parameters" :
   [
    {
     "is_this_ptr" : true,
     "referenced_type" : "_ZTIPN7android4base14unique_fd_implINS0_13DefaultCloserEEE"
    },
    {
     "referenced_type" : "_ZTIi"
    },
    {
     "referenced_type" : "_ZTIPv"
    }
   ],
   "return_type" : "_ZTIv",
   "source_file" : "system/libbase/include/android-base/unique_fd.h"
  },
  {
   "function_name" : "android::base::unique_fd_impl<android::base::DefaultCloser>::release",
   "linker_set_key" : "_ZN7android4base14unique_fd_implINS0_13DefaultCloserEE7releaseEv",
   "parameters" :
   [
    {
     "is_this_ptr" : true,
     "referenced_type" : "_ZTIPN7android4base14unique_fd_implINS0_13DefaultCloserEEE"
    }
   ],
   "return_type" : "_ZTIi",
   "source_file" : "system/libbase/include/android-base/unique_fd.h"
  },
  {
   "function_name" : "android::base::unique_fd_impl<android::base::DefaultCloser>::unique_fd_impl",
   "linker_set_key" : "_ZN7android4base14unique_fd_implINS0_13DefaultCloserEEC1EOS3_",
   "parameters" :
   [
    {
     "is_this_ptr" : true,
     "referenced_type" : "_ZTIPN7android4base14unique_fd_implINS0_13DefaultCloserEEE"
    },
    {
     "referenced_type" : "_ZTION7android4base14unique_fd_implINS0_13DefaultCloserEEE"
    }
   ],
   "return_type" : "_ZTIv",
   "source_file" : "system/libbase/include/android-base/unique_fd.h"
  },
  {
   "function_name" : "android::base::unique_fd_impl<android::base::DefaultCloser>::unique_fd_impl",
   "linker_set_key" : "_ZN7android4base14unique_fd_implINS0_13DefaultCloserEEC1Ei",
   "parameters" :
   [
    {
     "is_this_ptr" : true,
     "referenced_type" : "_ZTIPN7android4base14unique_fd_implINS0_13DefaultCloserEEE"
    },
    {
     "referenced_type" : "_ZTIi"
    }
   ],
   "return_type" : "_ZTIv",
   "source_file" : "system/libbase/include/android-base/unique_fd.h"
  },
  {
   "function_name" : "android::base::unique_fd_impl<android::base::DefaultCloser>::unique_fd_impl",
   "linker_set_key" : "_ZN7android4base14unique_fd_implINS0_13DefaultCloserEEC2EOS3_",
   "parameters" :
   [
    {
     "is_this_ptr" : true,
     "referenced_type" : "_ZTIPN7android4base14unique_fd_implINS0_13DefaultCloserEEE"
    },
    {
     "referenced_type" : "_ZTION7android4base14unique_fd_implINS0_13DefaultCloserEEE"
    }
   ],
   "return_type" : "_ZTIv",
   "source_file" : "system/libbase/include/android-base/unique_fd.h"
  },
  {
   "function_name" : "android::base::unique_fd_impl<android::base::DefaultCloser>::unique_fd_impl",
   "linker_set_key" : "_ZN7android4base14unique_fd_implINS0_13DefaultCloserEEC2Ei",
   "parameters" :
   [
    {
     "is_this_ptr" : true,
     "referenced_type" : "_ZTIPN7android4base14unique_fd_implINS0_13DefaultCloserEEE"
    },
    {
     "referenced_type" : "_ZTIi"
    }
   ],
   "return_type" : "_ZTIv",
   "source_file" : "system/libbase/include/android-base/unique_fd.h"
  },
  {
   "function_name" : "android::base::unique_fd_impl<android::base::DefaultCloser>::~unique_fd_impl",
   "linker_set_key" : "_ZN7android4base14unique_fd_implINS0_13DefaultCloserEED1Ev",
   "parameters" :
   [
    {
     "is_this_ptr" : true,
     "referenced_type" : "_ZTIPN7android4base14unique_fd_implINS0_13DefaultCloserEEE"
    }
   ],
   "return_type" : "_ZTIv",
   "source_file" : "system/libbase/include/android-base/unique_fd.h"
  },
  {
   "function_name" : "android::base::unique_fd_impl<android::base::DefaultCloser>::~unique_fd_impl",
   "linker_set_key" : "_ZN7android4base14unique_fd_implINS0_13DefaultCloserEED2Ev",
   "parameters" :
   [
    {
     "is_this_ptr" : true,
     "referenced_type" : "_ZTIPN7android4base14unique_fd_implINS0_13DefaultCloserEEE"
    }
   ],
   "return_type" : "_ZTIv",
   "source_file" : "system/libbase/include/android-base/unique_fd.h"
  },
  {
   "function_name" : "android::base::MakeEagerEvaluator",
   "linker_set_key" : "_ZN7android4base18MakeEagerEvaluatorIRmjEEDaOT_OT0_",
   "parameters" :
   [
    {
     "referenced_type" : "_ZTIRm"
    },
    {
     "referenced_type" : "_ZTIOj"
    }
   ],
   "return_type" : "_ZTIN7android4base10log_detail14EagerEvaluatorImjEE",
   "source_file" : "system/libbase/include/android-base/logging.h",
   "template_args" : [ "_ZTIRm", "_ZTIj" ]
  },
  {
   "function_name" : "android::base::MakeEagerEvaluator",
   "linker_set_key" : "_ZN7android4base18MakeEagerEvaluatorImmEEDaOT_OT0_",
   "parameters" :
   [
    {
     "referenced_type" : "_ZTIOm"
    },
    {
     "referenced_type" : "_ZTIOm"
    }
   ],
   "return_type" : "_ZTIN7android4base10log_detail14EagerEvaluatorImmEE",
   "source_file" : "system/libbase/include/android-base/logging.h",
   "template_args" : [ "_ZTIm", "_ZTIm" ]
  },
  {
   "function_name" : "android::base::Timer::Timer",
   "linker_set_key" : "_ZN7android4base5TimerC1Ev",
   "parameters" :
   [
    {
     "is_this_ptr" : true,
     "referenced_type" : "_ZTIPN7android4base5TimerE"
    }
   ],
   "return_type" : "_ZTIv",
   "source_file" : "system/libbase/include/android-base/chrono_utils.h"
  },
  {
   "function_name" : "android::base::Timer::Timer",
   "linker_set_key" : "_ZN7android4base5TimerC2Ev",
   "parameters" :
   [
    {
     "is_this_ptr" : true,
     "referenced_type" : "_ZTIPN7android4base5TimerE"
    }
   ],
   "return_type" : "_ZTIv",
   "source_file" : "system/libbase/include/android-base/chrono_utils.h"
  },
  {
   "function_name" : "android::base::Fdopen",
   "linker_set_key" : "_ZN7android4base6FdopenEONS0_14unique_fd_implINS0_13DefaultCloserEEEPKc",
   "parameters" :
   [
    {
     "referenced_type" : "_ZTION7android4base14unique_fd_implINS0_13DefaultCloserEEE"
    },
    {
     "referenced_type" : "_ZTIPKc"
    }
   ],
   "return_type" : "_ZTIP7__sFILE",
   "source_file" : "system/libbase/include/android-base/unique_fd.h"
  },
  {
   "function_name" : "android::base::expected<android::base::unique_fd_impl<android::base::DefaultCloser>, android::nn::GeneralError>::expected",
   "linker_set_key" : "_ZN7android4base8expectedINS0_14unique_fd_implINS0_13DefaultCloserEEENS_2nn12GeneralErrorEEC1EOS7_",
   "parameters" :
   [
    {
     "is_this_ptr" : true,
     "referenced_type" : "_ZTIPN7android4base8expectedINS0_14unique_fd_implINS0_13DefaultCloserEEENS_2nn12GeneralErrorEEE"
    },
    {
     "referenced_type" : "_ZTION7android4base8expectedINS0_14unique_fd_implINS0_13DefaultCloserEEENS_2nn12GeneralErrorEEE"
    }
   ],
   "return_type" : "_ZTIv",
   "source_file" : "system/libbase/include/android-base/expected.h"
  },
  {
   "function_name" : "android::base::expected<android::base::unique_fd_impl<android::base::DefaultCloser>, android::nn::GeneralError>::expected",
   "linker_set_key" : "_ZN7android4base8expectedINS0_14unique_fd_implINS0_13DefaultCloserEEENS_2nn12GeneralErrorEEC1Ev",
   "parameters" :
   [
    {
     "is_this_ptr" : true,
     "referenced_type" : "_ZTIPN7android4base8expectedINS0_14unique_fd_implINS0_13DefaultCloserEEENS_2nn12GeneralErrorEEE"
    }
   ],
   "return_type" : "_ZTIv",
   "source_file" : "system/libbase/include/android-base/expected.h"
  },
  {
   "function_name" : "android::base::expected<android::base::unique_fd_impl<android::base::DefaultCloser>, android::nn::GeneralError>::expected",
   "linker_set_key" : "_ZN7android4base8expectedINS0_14unique_fd_implINS0_13DefaultCloserEEENS_2nn12GeneralErrorEEC1IS4_LPv0EEEOT_",
   "parameters" :
   [
    {
     "is_this_ptr" : true,
     "referenced_type" : "_ZTIPN7android4base8expectedINS0_14unique_fd_implINS0_13DefaultCloserEEENS_2nn12GeneralErrorEEE"
    },
    {
     "referenced_type" : "_ZTION7android4base14unique_fd_implINS0_13DefaultCloserEEE"
    }
   ],
   "return_type" : "_ZTIv",
   "source_file" : "system/libbase/include/android-base/expected.h",
   "template_args" : [ "_ZTIN7android4base14unique_fd_implINS0_13DefaultCloserEEE" ]
  },
  {
   "function_name" : "android::base::expected<android::base::unique_fd_impl<android::base::DefaultCloser>, android::nn::GeneralError>::expected",
   "linker_set_key" : "_ZN7android4base8expectedINS0_14unique_fd_implINS0_13DefaultCloserEEENS_2nn12GeneralErrorEEC1IS6_LPv0EEEONS0_10unexpectedIT_EE",
   "parameters" :
   [
    {
     "is_this_ptr" : true,
     "referenced_type" : "_ZTIPN7android4base8expectedINS0_14unique_fd_implINS0_13DefaultCloserEEENS_2nn12GeneralErrorEEE"
    },
    {
     "referenced_type" : "_ZTION7android4base10unexpectedINS_2nn12GeneralErrorEEE"
    }
   ],
   "return_type" : "_ZTIv",
   "source_file" : "system/libbase/include/android-base/expected.h",
   "template_args" : [ "_ZTIN7android2nn12GeneralErrorE" ]
  },
  {
   "function_name" : "android::base::expected<android::base::unique_fd_impl<android::base::DefaultCloser>, android::nn::GeneralError>::expected",
   "linker_set_key" : "_ZN7android4base8expectedINS0_14unique_fd_implINS0_13DefaultCloserEEENS_2nn12GeneralErrorEEC2EOS7_",
   "parameters" :
   [
    {
     "is_this_ptr" : true,
     "referenced_type" : "_ZTIPN7android4base8expectedINS0_14unique_fd_implINS0_13DefaultCloserEEENS_2nn12GeneralErrorEEE"
    },
    {
     "referenced_type" : "_ZTION7android4base8expectedINS0_14unique_fd_implINS0_13DefaultCloserEEENS_2nn12GeneralErrorEEE"
    }
   ],
   "return_type" : "_ZTIv",
   "source_file" : "system/libbase/include/android-base/expected.h"
  },
  {
   "function_name" : "android::base::expected<android::base::unique_fd_impl<android::base::DefaultCloser>, android::nn::GeneralError>::expected",
   "linker_set_key" : "_ZN7android4base8expectedINS0_14unique_fd_implINS0_13DefaultCloserEEENS_2nn12GeneralErrorEEC2Ev",
   "parameters" :
   [
    {
     "is_this_ptr" : true,
     "referenced_type" : "_ZTIPN7android4base8expectedINS0_14unique_fd_implINS0_13DefaultCloserEEENS_2nn12GeneralErrorEEE"
    }
   ],
   "return_type" : "_ZTIv",
   "source_file" : "system/libbase/include/android-base/expected.h"
  },
  {
   "function_name" : "android::base::expected<android::base::unique_fd_impl<android::base::DefaultCloser>, android::nn::GeneralError>::expected",
   "linker_set_key" : "_ZN7android4base8expectedINS0_14unique_fd_implINS0_13DefaultCloserEEENS_2nn12GeneralErrorEEC2IS4_LPv0EEEOT_",
   "parameters" :
   [
    {
     "is_this_ptr" : true,
     "referenced_type" : "_ZTIPN7android4base8expectedINS0_14unique_fd_implINS0_13DefaultCloserEEENS_2nn12GeneralErrorEEE"
    },
    {
     "referenced_type" : "_ZTION7android4base14unique_fd_implINS0_13DefaultCloserEEE"
    }
   ],
   "return_type" : "_ZTIv",
   "source_file" : "system/libbase/include/android-base/expected.h",
   "template_args" : [ "_ZTIN7android4base14unique_fd_implINS0_13DefaultCloserEEE" ]
  },
  {
   "function_name" : "android::base::expected<android::base::unique_fd_impl<android::base::DefaultCloser>, android::nn::GeneralError>::expected",
   "linker_set_key" : "_ZN7android4base8expectedINS0_14unique_fd_implINS0_13DefaultCloserEEENS_2nn12GeneralErrorEEC2IS6_LPv0EEEONS0_10unexpectedIT_EE",
   "parameters" :
   [
    {
     "is_this_ptr" : true,
     "referenced_type" : "_ZTIPN7android4base8expectedINS0_14unique_fd_implINS0_13DefaultCloserEEENS_2nn12GeneralErrorEEE"
    },
    {
     "referenced_type" : "_ZTION7android4base10unexpectedINS_2nn12GeneralErrorEEE"
    }
   ],
   "return_type" : "_ZTIv",
   "source_file" : "system/libbase/include/android-base/expected.h",
   "template_args" : [ "_ZTIN7android2nn12GeneralErrorE" ]
  },
  {
   "function_name" : "android::base::expected<android::base::unique_fd_impl<android::base::DefaultCloser>, android::nn::GeneralError>::~expected",
   "linker_set_key" : "_ZN7android4base8expectedINS0_14unique_fd_implINS0_13DefaultCloserEEENS_2nn12GeneralErrorEED1Ev",
   "parameters" :
   [
    {
     "is_this_ptr" : true,
     "referenced_type" : "_ZTIPN7android4base8expectedINS0_14unique_fd_implINS0_13DefaultCloserEEENS_2nn12GeneralErrorEEE"
    }
   ],
   "return_type" : "_ZTIv",
   "source_file" : "system/libbase/include/android-base/expected.h"
  },
  {
   "function_name" : "android::base::expected<android::base::unique_fd_impl<android::base::DefaultCloser>, android::nn::GeneralError>::~expected",
   "linker_set_key" : "_ZN7android4base8expectedINS0_14unique_fd_implINS0_13DefaultCloserEEENS_2nn12GeneralErrorEED2Ev",
   "parameters" :
   [
    {
     "is_this_ptr" : true,
     "referenced_type" : "_ZTIPN7android4base8expectedINS0_14unique_fd_implINS0_13DefaultCloserEEENS_2nn12GeneralErrorEEE"
    }
   ],
   "return_type" : "_ZTIv",
   "source_file" : "system/libbase/include/android-base/expected.h"
  },
  {
   "function_name" : "android::base::expected<android::base::unique_fd_impl<android::base::DefaultCloser>, android::nn::GeneralError>::operator=",
   "linker_set_key" : "_ZN7android4base8expectedINS0_14unique_fd_implINS0_13DefaultCloserEEENS_2nn12GeneralErrorEEaSEOS7_",
   "parameters" :
   [
    {
     "is_this_ptr" : true,
     "referenced_type" : "_ZTIPN7android4base8expectedINS0_14unique_fd_implINS0_13DefaultCloserEEENS_2nn12GeneralErrorEEE"
    },
    {
     "referenced_type" : "_ZTION7android4base8expectedINS0_14unique_fd_implINS0_13DefaultCloserEEENS_2nn12GeneralErrorEEE"
    }
   ],
   "return_type" : "_ZTIRN7android4base8expectedINS0_14unique_fd_implINS0_13DefaultCloserEEENS_2nn12GeneralErrorEEE",
   "source_file" : "system/libbase/include/android-base/expected.h"
  },
  {
   "function_name" : "android::base::expected<android::nn::Mapping, android::nn::GeneralError>::expected",
   "linker_set_key" : "_ZN7android4base8expectedINS_2nn7MappingENS2_12GeneralErrorEEC1EOS5_",
   "parameters" :
   [
    {
     "is_this_ptr" : true,
     "referenced_type" : "_ZTIPN7android4base8expectedINS_2nn7MappingENS2_12GeneralErrorEEE"
    },
    {
     "referenced_type" : "_ZTION7android4base8expectedINS_2nn7MappingENS2_12GeneralErrorEEE"
    }
   ],
   "return_type" : "_ZTIv",
   "source_file" : "system/libbase/include/android-base/expected.h"
  },
  {
   "function_name" : "android::base::expected<android::nn::Mapping, android::nn::GeneralError>::expected",
   "linker_set_key" : "_ZN7android4base8expectedINS_2nn7MappingENS2_12GeneralErrorEEC1ERKS5_",
   "parameters" :
   [
    {
     "is_this_ptr" : true,
     "referenced_type" : "_ZTIPN7android4base8expectedINS_2nn7MappingENS2_12GeneralErrorEEE"
    },
    {
     "referenced_type" : "_ZTIRKN7android4base8expectedINS_2nn7MappingENS2_12GeneralErrorEEE"
    }
   ],
   "return_type" : "_ZTIv",
   "source_file" : "system/libbase/include/android-base/expected.h"
  },
  {
   "function_name" : "android::base::expected<android::nn::Mapping, android::nn::GeneralError>::expected",
   "linker_set_key" : "_ZN7android4base8expectedINS_2nn7MappingENS2_12GeneralErrorEEC1Ev",
   "parameters" :
   [
    {
     "is_this_ptr" : true,
     "referenced_type" : "_ZTIPN7android4base8expectedINS_2nn7MappingENS2_12GeneralErrorEEE"
    }
   ],
   "return_type" : "_ZTIv",
   "source_file" : "system/libbase/include/android-base/expected.h"
  },
  {
   "function_name" : "android::base::expected<android::nn::Mapping, android::nn::GeneralError>::expected",
   "linker_set_key" : "_ZN7android4base8expectedINS_2nn7MappingENS2_12GeneralErrorEEC1IS3_LPv0EEEOT_",
   "parameters" :
   [
    {
     "is_this_ptr" : true,
     "referenced_type" : "_ZTIPN7android4base8expectedINS_2nn7MappingENS2_12GeneralErrorEEE"
    },
    {
     "referenced_type" : "_ZTION7android2nn7MappingE"
    }
   ],
   "return_type" : "_ZTIv",
   "source_file" : "system/libbase/include/android-base/expected.h",
   "template_args" : [ "_ZTIN7android2nn7MappingE" ]
  },
  {
   "function_name" : "android::base::expected<android::nn::Mapping, android::nn::GeneralError>::expected",
   "linker_set_key" : "_ZN7android4base8expectedINS_2nn7MappingENS2_12GeneralErrorEEC1IS4_LPv0EEEONS0_10unexpectedIT_EE",
   "parameters" :
   [
    {
     "is_this_ptr" : true,
     "referenced_type" : "_ZTIPN7android4base8expectedINS_2nn7MappingENS2_12GeneralErrorEEE"
    },
    {
     "referenced_type" : "_ZTION7android4base10unexpectedINS_2nn12GeneralErrorEEE"
    }
   ],
   "return_type" : "_ZTIv",
   "source_file" : "system/libbase/include/android-base/expected.h",
   "template_args" : [ "_ZTIN7android2nn12GeneralErrorE" ]
  },
  {
   "function_name" : "android::base::expected<android::nn::Mapping, android::nn::GeneralError>::expected",
   "linker_set_key" : "_ZN7android4base8expectedINS_2nn7MappingENS2_12GeneralErrorEEC2EOS5_",
   "parameters" :
   [
    {
     "is_this_ptr" : true,
     "referenced_type" : "_ZTIPN7android4base8expectedINS_2nn7MappingENS2_12GeneralErrorEEE"
    },
    {
     "referenced_type" : "_ZTION7android4base8expectedINS_2nn7MappingENS2_12GeneralErrorEEE"
    }
   ],
   "return_type" : "_ZTIv",
   "source_file" : "system/libbase/include/android-base/expected.h"
  },
  {
   "function_name" : "android::base::expected<android::nn::Mapping, android::nn::GeneralError>::expected",
   "linker_set_key" : "_ZN7android4base8expectedINS_2nn7MappingENS2_12GeneralErrorEEC2ERKS5_",
   "parameters" :
   [
    {
     "is_this_ptr" : true,
     "referenced_type" : "_ZTIPN7android4base8expectedINS_2nn7MappingENS2_12GeneralErrorEEE"
    },
    {
     "referenced_type" : "_ZTIRKN7android4base8expectedINS_2nn7MappingENS2_12GeneralErrorEEE"
    }
   ],
   "return_type" : "_ZTIv",
   "source_file" : "system/libbase/include/android-base/expected.h"
  },
  {
   "function_name" : "android::base::expected<android::nn::Mapping, android::nn::GeneralError>::expected",
   "linker_set_key" : "_ZN7android4base8expectedINS_2nn7MappingENS2_12GeneralErrorEEC2Ev",
   "parameters" :
   [
    {
     "is_this_ptr" : true,
     "referenced_type" : "_ZTIPN7android4base8expectedINS_2nn7MappingENS2_12GeneralErrorEEE"
    }
   ],
   "return_type" : "_ZTIv",
   "source_file" : "system/libbase/include/android-base/expected.h"
  },
  {
   "function_name" : "android::base::expected<android::nn::Mapping, android::nn::GeneralError>::expected",
   "linker_set_key" : "_ZN7android4base8expectedINS_2nn7MappingENS2_12GeneralErrorEEC2IS3_LPv0EEEOT_",
   "parameters" :
   [
    {
     "is_this_ptr" : true,
     "referenced_type" : "_ZTIPN7android4base8expectedINS_2nn7MappingENS2_12GeneralErrorEEE"
    },
    {
     "referenced_type" : "_ZTION7android2nn7MappingE"
    }
   ],
   "return_type" : "_ZTIv",
   "source_file" : "system/libbase/include/android-base/expected.h",
   "template_args" : [ "_ZTIN7android2nn7MappingE" ]
  },
  {
   "function_name" : "android::base::expected<android::nn::Mapping, android::nn::GeneralError>::expected",
   "linker_set_key" : "_ZN7android4base8expectedINS_2nn7MappingENS2_12GeneralErrorEEC2IS4_LPv0EEEONS0_10unexpectedIT_EE",
   "parameters" :
   [
    {
     "is_this_ptr" : true,
     "referenced_type" : "_ZTIPN7android4base8expectedINS_2nn7MappingENS2_12GeneralErrorEEE"
    },
    {
     "referenced_type" : "_ZTION7android4base10unexpectedINS_2nn12GeneralErrorEEE"
    }
   ],
   "return_type" : "_ZTIv",
   "source_file" : "system/libbase/include/android-base/expected.h",
   "template_args" : [ "_ZTIN7android2nn12GeneralErrorE" ]
  },
  {
   "function_name" : "android::base::expected<android::nn::Mapping, android::nn::GeneralError>::~expected",
   "linker_set_key" : "_ZN7android4base8expectedINS_2nn7MappingENS2_12GeneralErrorEED1Ev",
   "parameters" :
   [
    {
     "is_this_ptr" : true,
     "referenced_type" : "_ZTIPN7android4base8expectedINS_2nn7MappingENS2_12GeneralErrorEEE"
    }
   ],
   "return_type" : "_ZTIv",
   "source_file" : "system/libbase/include/android-base/expected.h"
  },
  {
   "function_name" : "android::base::expected<android::nn::Mapping, android::nn::GeneralError>::~expected",
   "linker_set_key" : "_ZN7android4base8expectedINS_2nn7MappingENS2_12GeneralErrorEED2Ev",
   "parameters" :
   [
    {
     "is_this_ptr" : true,
     "referenced_type" : "_ZTIPN7android4base8expectedINS_2nn7MappingENS2_12GeneralErrorEEE"
    }
   ],
   "return_type" : "_ZTIv",
   "source_file" : "system/libbase/include/android-base/expected.h"
  },
  {
   "function_name" : "android::base::expected<android::nn::Mapping, android::nn::GeneralError>::operator=",
   "linker_set_key" : "_ZN7android4base8expectedINS_2nn7MappingENS2_12GeneralErrorEEaSEOS5_",
   "parameters" :
   [
    {
     "is_this_ptr" : true,
     "referenced_type" : "_ZTIPN7android4base8expectedINS_2nn7MappingENS2_12GeneralErrorEEE"
    },
    {
     "referenced_type" : "_ZTION7android4base8expectedINS_2nn7MappingENS2_12GeneralErrorEEE"
    }
   ],
   "return_type" : "_ZTIRN7android4base8expectedINS_2nn7MappingENS2_12GeneralErrorEEE",
   "source_file" : "system/libbase/include/android-base/expected.h"
  },
  {
   "function_name" : "android::base::expected<android::nn::Mapping, android::nn::GeneralError>::operator=",
   "linker_set_key" : "_ZN7android4base8expectedINS_2nn7MappingENS2_12GeneralErrorEEaSERKS5_",
   "parameters" :
   [
    {
     "is_this_ptr" : true,
     "referenced_type" : "_ZTIPN7android4base8expectedINS_2nn7MappingENS2_12GeneralErrorEEE"
    },
    {
     "referenced_type" : "_ZTIRKN7android4base8expectedINS_2nn7MappingENS2_12GeneralErrorEEE"
    }
   ],
   "return_type" : "_ZTIRN7android4base8expectedINS_2nn7MappingENS2_12GeneralErrorEEE",
   "source_file" : "system/libbase/include/android-base/expected.h"
  },
  {
   "function_name" : "android::base::expected<android::nn::Version, std::__1::basic_string<char>>::expected",
   "linker_set_key" : "_ZN7android4base8expectedINS_2nn7VersionENSt3__112basic_stringIcNS4_11char_traitsIcEENS4_9allocatorIcEEEEEC1EOSB_",
   "parameters" :
   [
    {
     "is_this_ptr" : true,
     "referenced_type" : "_ZTIPN7android4base8expectedINS_2nn7VersionENSt3__112basic_stringIcNS4_11char_traitsIcEENS4_9allocatorIcEEEEEE"
    },
    {
     "referenced_type" : "_ZTION7android4base8expectedINS_2nn7VersionENSt3__112basic_stringIcNS4_11char_traitsIcEENS4_9allocatorIcEEEEEE"
    }
   ],
   "return_type" : "_ZTIv",
   "source_file" : "system/libbase/include/android-base/expected.h"
  },
  {
   "function_name" : "android::base::expected<android::nn::Version, std::__1::basic_string<char>>::expected",
   "linker_set_key" : "_ZN7android4base8expectedINS_2nn7VersionENSt3__112basic_stringIcNS4_11char_traitsIcEENS4_9allocatorIcEEEEEC1ERKSB_",
   "parameters" :
   [
    {
     "is_this_ptr" : true,
     "referenced_type" : "_ZTIPN7android4base8expectedINS_2nn7VersionENSt3__112basic_stringIcNS4_11char_traitsIcEENS4_9allocatorIcEEEEEE"
    },
    {
     "referenced_type" : "_ZTIRKN7android4base8expectedINS_2nn7VersionENSt3__112basic_stringIcNS4_11char_traitsIcEENS4_9allocatorIcEEEEEE"
    }
   ],
   "return_type" : "_ZTIv",
   "source_file" : "system/libbase/include/android-base/expected.h"
  },
  {
   "function_name" : "android::base::expected<android::nn::Version, std::__1::basic_string<char>>::expected",
   "linker_set_key" : "_ZN7android4base8expectedINS_2nn7VersionENSt3__112basic_stringIcNS4_11char_traitsIcEENS4_9allocatorIcEEEEEC1Ev",
   "parameters" :
   [
    {
     "is_this_ptr" : true,
     "referenced_type" : "_ZTIPN7android4base8expectedINS_2nn7VersionENSt3__112basic_stringIcNS4_11char_traitsIcEENS4_9allocatorIcEEEEEE"
    }
   ],
   "return_type" : "_ZTIv",
   "source_file" : "system/libbase/include/android-base/expected.h"
  },
  {
   "function_name" : "android::base::expected<android::nn::Version, std::__1::basic_string<char>>::expected",
   "linker_set_key" : "_ZN7android4base8expectedINS_2nn7VersionENSt3__112basic_stringIcNS4_11char_traitsIcEENS4_9allocatorIcEEEEEC1ISA_LPv0EEEONS0_10unexpectedIT_EE",
   "parameters" :
   [
    {
     "is_this_ptr" : true,
     "referenced_type" : "_ZTIPN7android4base8expectedINS_2nn7VersionENSt3__112basic_stringIcNS4_11char_traitsIcEENS4_9allocatorIcEEEEEE"
    },
    {
     "referenced_type" : "_ZTION7android4base10unexpectedINSt3__112basic_stringIcNS2_11char_traitsIcEENS2_9allocatorIcEEEEEE"
    }
   ],
   "return_type" : "_ZTIv",
   "source_file" : "system/libbase/include/android-base/expected.h",
   "template_args" : [ "_ZTINSt3__112basic_stringIcNS_11char_traitsIcEENS_9allocatorIcEEEE" ]
  },
  {
   "function_name" : "android::base::expected<android::nn::Version, std::__1::basic_string<char>>::expected",
   "linker_set_key" : "_ZN7android4base8expectedINS_2nn7VersionENSt3__112basic_stringIcNS4_11char_traitsIcEENS4_9allocatorIcEEEEEC2EOSB_",
   "parameters" :
   [
    {
     "is_this_ptr" : true,
     "referenced_type" : "_ZTIPN7android4base8expectedINS_2nn7VersionENSt3__112basic_stringIcNS4_11char_traitsIcEENS4_9allocatorIcEEEEEE"
    },
    {
     "referenced_type" : "_ZTION7android4base8expectedINS_2nn7VersionENSt3__112basic_stringIcNS4_11char_traitsIcEENS4_9allocatorIcEEEEEE"
    }
   ],
   "return_type" : "_ZTIv",
   "source_file" : "system/libbase/include/android-base/expected.h"
  },
  {
   "function_name" : "android::base::expected<android::nn::Version, std::__1::basic_string<char>>::expected",
   "linker_set_key" : "_ZN7android4base8expectedINS_2nn7VersionENSt3__112basic_stringIcNS4_11char_traitsIcEENS4_9allocatorIcEEEEEC2ERKSB_",
   "parameters" :
   [
    {
     "is_this_ptr" : true,
     "referenced_type" : "_ZTIPN7android4base8expectedINS_2nn7VersionENSt3__112basic_stringIcNS4_11char_traitsIcEENS4_9allocatorIcEEEEEE"
    },
    {
     "referenced_type" : "_ZTIRKN7android4base8expectedINS_2nn7VersionENSt3__112basic_stringIcNS4_11char_traitsIcEENS4_9allocatorIcEEEEEE"
    }
   ],
   "return_type" : "_ZTIv",
   "source_file" : "system/libbase/include/android-base/expected.h"
  },
  {
   "function_name" : "android::base::expected<android::nn::Version, std::__1::basic_string<char>>::expected",
   "linker_set_key" : "_ZN7android4base8expectedINS_2nn7VersionENSt3__112basic_stringIcNS4_11char_traitsIcEENS4_9allocatorIcEEEEEC2Ev",
   "parameters" :
   [
    {
     "is_this_ptr" : true,
     "referenced_type" : "_ZTIPN7android4base8expectedINS_2nn7VersionENSt3__112basic_stringIcNS4_11char_traitsIcEENS4_9allocatorIcEEEEEE"
    }
   ],
   "return_type" : "_ZTIv",
   "source_file" : "system/libbase/include/android-base/expected.h"
  },
  {
   "function_name" : "android::base::expected<android::nn::Version, std::__1::basic_string<char>>::expected",
   "linker_set_key" : "_ZN7android4base8expectedINS_2nn7VersionENSt3__112basic_stringIcNS4_11char_traitsIcEENS4_9allocatorIcEEEEEC2ISA_LPv0EEEONS0_10unexpectedIT_EE",
   "parameters" :
   [
    {
     "is_this_ptr" : true,
     "referenced_type" : "_ZTIPN7android4base8expectedINS_2nn7VersionENSt3__112basic_stringIcNS4_11char_traitsIcEENS4_9allocatorIcEEEEEE"
    },
    {
     "referenced_type" : "_ZTION7android4base10unexpectedINSt3__112basic_stringIcNS2_11char_traitsIcEENS2_9allocatorIcEEEEEE"
    }
   ],
   "return_type" : "_ZTIv",
   "source_file" : "system/libbase/include/android-base/expected.h",
   "template_args" : [ "_ZTINSt3__112basic_stringIcNS_11char_traitsIcEENS_9allocatorIcEEEE" ]
  },
  {
   "function_name" : "android::base::expected<android::nn::Version, std::__1::basic_string<char>>::~expected",
   "linker_set_key" : "_ZN7android4base8expectedINS_2nn7VersionENSt3__112basic_stringIcNS4_11char_traitsIcEENS4_9allocatorIcEEEEED1Ev",
   "parameters" :
   [
    {
     "is_this_ptr" : true,
     "referenced_type" : "_ZTIPN7android4base8expectedINS_2nn7VersionENSt3__112basic_stringIcNS4_11char_traitsIcEENS4_9allocatorIcEEEEEE"
    }
   ],
   "return_type" : "_ZTIv",
   "source_file" : "system/libbase/include/android-base/expected.h"
  },
  {
   "function_name" : "android::base::expected<android::nn::Version, std::__1::basic_string<char>>::~expected",
   "linker_set_key" : "_ZN7android4base8expectedINS_2nn7VersionENSt3__112basic_stringIcNS4_11char_traitsIcEENS4_9allocatorIcEEEEED2Ev",
   "parameters" :
   [
    {
     "is_this_ptr" : true,
     "referenced_type" : "_ZTIPN7android4base8expectedINS_2nn7VersionENSt3__112basic_stringIcNS4_11char_traitsIcEENS4_9allocatorIcEEEEEE"
    }
   ],
   "return_type" : "_ZTIv",
   "source_file" : "system/libbase/include/android-base/expected.h"
  },
  {
   "function_name" : "android::base::expected<android::nn::Version, std::__1::basic_string<char>>::operator=",
   "linker_set_key" : "_ZN7android4base8expectedINS_2nn7VersionENSt3__112basic_stringIcNS4_11char_traitsIcEENS4_9allocatorIcEEEEEaSEOSB_",
   "parameters" :
   [
    {
     "is_this_ptr" : true,
     "referenced_type" : "_ZTIPN7android4base8expectedINS_2nn7VersionENSt3__112basic_stringIcNS4_11char_traitsIcEENS4_9allocatorIcEEEEEE"
    },
    {
     "referenced_type" : "_ZTION7android4base8expectedINS_2nn7VersionENSt3__112basic_stringIcNS4_11char_traitsIcEENS4_9allocatorIcEEEEEE"
    }
   ],
   "return_type" : "_ZTIRN7android4base8expectedINS_2nn7VersionENSt3__112basic_stringIcNS4_11char_traitsIcEENS4_9allocatorIcEEEEEE",
   "source_file" : "system/libbase/include/android-base/expected.h"
  },
  {
   "function_name" : "android::base::expected<android::nn::Version, std::__1::basic_string<char>>::operator=",
   "linker_set_key" : "_ZN7android4base8expectedINS_2nn7VersionENSt3__112basic_stringIcNS4_11char_traitsIcEENS4_9allocatorIcEEEEEaSERKSB_",
   "parameters" :
   [
    {
     "is_this_ptr" : true,
     "referenced_type" : "_ZTIPN7android4base8expectedINS_2nn7VersionENSt3__112basic_stringIcNS4_11char_traitsIcEENS4_9allocatorIcEEEEEE"
    },
    {
     "referenced_type" : "_ZTIRKN7android4base8expectedINS_2nn7VersionENSt3__112basic_stringIcNS4_11char_traitsIcEENS4_9allocatorIcEEEEEE"
    }
   ],
   "return_type" : "_ZTIRN7android4base8expectedINS_2nn7VersionENSt3__112basic_stringIcNS4_11char_traitsIcEENS4_9allocatorIcEEEEEE",
   "source_file" : "system/libbase/include/android-base/expected.h"
  },
  {
   "function_name" : "android::base::expected<android::hardware::hidl_handle, android::nn::GeneralError>::expected",
   "linker_set_key" : "_ZN7android4base8expectedINS_8hardware11hidl_handleENS_2nn12GeneralErrorEEC1EOS6_",
   "parameters" :
   [
    {
     "is_this_ptr" : true,
     "referenced_type" : "_ZTIPN7android4base8expectedINS_8hardware11hidl_handleENS_2nn12GeneralErrorEEE"
    },
    {
     "referenced_type" : "_ZTION7android4base8expectedINS_8hardware11hidl_handleENS_2nn12GeneralErrorEEE"
    }
   ],
   "return_type" : "_ZTIv",
   "source_file" : "system/libbase/include/android-base/expected.h"
  },
  {
   "function_name" : "android::base::expected<android::hardware::hidl_handle, android::nn::GeneralError>::expected",
   "linker_set_key" : "_ZN7android4base8expectedINS_8hardware11hidl_handleENS_2nn12GeneralErrorEEC1ERKS6_",
   "parameters" :
   [
    {
     "is_this_ptr" : true,
     "referenced_type" : "_ZTIPN7android4base8expectedINS_8hardware11hidl_handleENS_2nn12GeneralErrorEEE"
    },
    {
     "referenced_type" : "_ZTIRKN7android4base8expectedINS_8hardware11hidl_handleENS_2nn12GeneralErrorEEE"
    }
   ],
   "return_type" : "_ZTIv",
   "source_file" : "system/libbase/include/android-base/expected.h"
  },
  {
   "function_name" : "android::base::expected<android::hardware::hidl_handle, android::nn::GeneralError>::expected",
   "linker_set_key" : "_ZN7android4base8expectedINS_8hardware11hidl_handleENS_2nn12GeneralErrorEEC1Ev",
   "parameters" :
   [
    {
     "is_this_ptr" : true,
     "referenced_type" : "_ZTIPN7android4base8expectedINS_8hardware11hidl_handleENS_2nn12GeneralErrorEEE"
    }
   ],
   "return_type" : "_ZTIv",
   "source_file" : "system/libbase/include/android-base/expected.h"
  },
  {
   "function_name" : "android::base::expected<android::hardware::hidl_handle, android::nn::GeneralError>::expected",
   "linker_set_key" : "_ZN7android4base8expectedINS_8hardware11hidl_handleENS_2nn12GeneralErrorEEC1IS3_LPv0EEEOT_",
   "parameters" :
   [
    {
     "is_this_ptr" : true,
     "referenced_type" : "_ZTIPN7android4base8expectedINS_8hardware11hidl_handleENS_2nn12GeneralErrorEEE"
    },
    {
     "referenced_type" : "_ZTION7android8hardware11hidl_handleE"
    }
   ],
   "return_type" : "_ZTIv",
   "source_file" : "system/libbase/include/android-base/expected.h",
   "template_args" : [ "_ZTIN7android8hardware11hidl_handleE" ]
  },
  {
   "function_name" : "android::base::expected<android::hardware::hidl_handle, android::nn::GeneralError>::expected",
   "linker_set_key" : "_ZN7android4base8expectedINS_8hardware11hidl_handleENS_2nn12GeneralErrorEEC1IS5_LPv0EEEONS0_10unexpectedIT_EE",
   "parameters" :
   [
    {
     "is_this_ptr" : true,
     "referenced_type" : "_ZTIPN7android4base8expectedINS_8hardware11hidl_handleENS_2nn12GeneralErrorEEE"
    },
    {
     "referenced_type" : "_ZTION7android4base10unexpectedINS_2nn12GeneralErrorEEE"
    }
   ],
   "return_type" : "_ZTIv",
   "source_file" : "system/libbase/include/android-base/expected.h",
   "template_args" : [ "_ZTIN7android2nn12GeneralErrorE" ]
  },
  {
   "function_name" : "android::base::expected<android::hardware::hidl_handle, android::nn::GeneralError>::expected",
   "linker_set_key" : "_ZN7android4base8expectedINS_8hardware11hidl_handleENS_2nn12GeneralErrorEEC2EOS6_",
   "parameters" :
   [
    {
     "is_this_ptr" : true,
     "referenced_type" : "_ZTIPN7android4base8expectedINS_8hardware11hidl_handleENS_2nn12GeneralErrorEEE"
    },
    {
     "referenced_type" : "_ZTION7android4base8expectedINS_8hardware11hidl_handleENS_2nn12GeneralErrorEEE"
    }
   ],
   "return_type" : "_ZTIv",
   "source_file" : "system/libbase/include/android-base/expected.h"
  },
  {
   "function_name" : "android::base::expected<android::hardware::hidl_handle, android::nn::GeneralError>::expected",
   "linker_set_key" : "_ZN7android4base8expectedINS_8hardware11hidl_handleENS_2nn12GeneralErrorEEC2ERKS6_",
   "parameters" :
   [
    {
     "is_this_ptr" : true,
     "referenced_type" : "_ZTIPN7android4base8expectedINS_8hardware11hidl_handleENS_2nn12GeneralErrorEEE"
    },
    {
     "referenced_type" : "_ZTIRKN7android4base8expectedINS_8hardware11hidl_handleENS_2nn12GeneralErrorEEE"
    }
   ],
   "return_type" : "_ZTIv",
   "source_file" : "system/libbase/include/android-base/expected.h"
  },
  {
   "function_name" : "android::base::expected<android::hardware::hidl_handle, android::nn::GeneralError>::expected",
   "linker_set_key" : "_ZN7android4base8expectedINS_8hardware11hidl_handleENS_2nn12GeneralErrorEEC2Ev",
   "parameters" :
   [
    {
     "is_this_ptr" : true,
     "referenced_type" : "_ZTIPN7android4base8expectedINS_8hardware11hidl_handleENS_2nn12GeneralErrorEEE"
    }
   ],
   "return_type" : "_ZTIv",
   "source_file" : "system/libbase/include/android-base/expected.h"
  },
  {
   "function_name" : "android::base::expected<android::hardware::hidl_handle, android::nn::GeneralError>::expected",
   "linker_set_key" : "_ZN7android4base8expectedINS_8hardware11hidl_handleENS_2nn12GeneralErrorEEC2IS3_LPv0EEEOT_",
   "parameters" :
   [
    {
     "is_this_ptr" : true,
     "referenced_type" : "_ZTIPN7android4base8expectedINS_8hardware11hidl_handleENS_2nn12GeneralErrorEEE"
    },
    {
     "referenced_type" : "_ZTION7android8hardware11hidl_handleE"
    }
   ],
   "return_type" : "_ZTIv",
   "source_file" : "system/libbase/include/android-base/expected.h",
   "template_args" : [ "_ZTIN7android8hardware11hidl_handleE" ]
  },
  {
   "function_name" : "android::base::expected<android::hardware::hidl_handle, android::nn::GeneralError>::expected",
   "linker_set_key" : "_ZN7android4base8expectedINS_8hardware11hidl_handleENS_2nn12GeneralErrorEEC2IS5_LPv0EEEONS0_10unexpectedIT_EE",
   "parameters" :
   [
    {
     "is_this_ptr" : true,
     "referenced_type" : "_ZTIPN7android4base8expectedINS_8hardware11hidl_handleENS_2nn12GeneralErrorEEE"
    },
    {
     "referenced_type" : "_ZTION7android4base10unexpectedINS_2nn12GeneralErrorEEE"
    }
   ],
   "return_type" : "_ZTIv",
   "source_file" : "system/libbase/include/android-base/expected.h",
   "template_args" : [ "_ZTIN7android2nn12GeneralErrorE" ]
  },
  {
   "function_name" : "android::base::expected<android::hardware::hidl_handle, android::nn::GeneralError>::~expected",
   "linker_set_key" : "_ZN7android4base8expectedINS_8hardware11hidl_handleENS_2nn12GeneralErrorEED1Ev",
   "parameters" :
   [
    {
     "is_this_ptr" : true,
     "referenced_type" : "_ZTIPN7android4base8expectedINS_8hardware11hidl_handleENS_2nn12GeneralErrorEEE"
    }
   ],
   "return_type" : "_ZTIv",
   "source_file" : "system/libbase/include/android-base/expected.h"
  },
  {
   "function_name" : "android::base::expected<android::hardware::hidl_handle, android::nn::GeneralError>::~expected",
   "linker_set_key" : "_ZN7android4base8expectedINS_8hardware11hidl_handleENS_2nn12GeneralErrorEED2Ev",
   "parameters" :
   [
    {
     "is_this_ptr" : true,
     "referenced_type" : "_ZTIPN7android4base8expectedINS_8hardware11hidl_handleENS_2nn12GeneralErrorEEE"
    }
   ],
   "return_type" : "_ZTIv",
   "source_file" : "system/libbase/include/android-base/expected.h"
  },
  {
   "function_name" : "android::base::expected<android::hardware::hidl_handle, android::nn::GeneralError>::operator=",
   "linker_set_key" : "_ZN7android4base8expectedINS_8hardware11hidl_handleENS_2nn12GeneralErrorEEaSEOS6_",
   "parameters" :
   [
    {
     "is_this_ptr" : true,
     "referenced_type" : "_ZTIPN7android4base8expectedINS_8hardware11hidl_handleENS_2nn12GeneralErrorEEE"
    },
    {
     "referenced_type" : "_ZTION7android4base8expectedINS_8hardware11hidl_handleENS_2nn12GeneralErrorEEE"
    }
   ],
   "return_type" : "_ZTIRN7android4base8expectedINS_8hardware11hidl_handleENS_2nn12GeneralErrorEEE",
   "source_file" : "system/libbase/include/android-base/expected.h"
  },
  {
   "function_name" : "android::base::expected<android::hardware::hidl_handle, android::nn::GeneralError>::operator=",
   "linker_set_key" : "_ZN7android4base8expectedINS_8hardware11hidl_handleENS_2nn12GeneralErrorEEaSERKS6_",
   "parameters" :
   [
    {
     "is_this_ptr" : true,
     "referenced_type" : "_ZTIPN7android4base8expectedINS_8hardware11hidl_handleENS_2nn12GeneralErrorEEE"
    },
    {
     "referenced_type" : "_ZTIRKN7android4base8expectedINS_8hardware11hidl_handleENS_2nn12GeneralErrorEEE"
    }
   ],
   "return_type" : "_ZTIRN7android4base8expectedINS_8hardware11hidl_handleENS_2nn12GeneralErrorEEE",
   "source_file" : "system/libbase/include/android-base/expected.h"
  },
  {
   "function_name" : "android::base::expected<std::__1::shared_ptr<const android::nn::Memory>, android::nn::GeneralError>::expected",
   "linker_set_key" : "_ZN7android4base8expectedINSt3__110shared_ptrIKNS_2nn6MemoryEEENS4_12GeneralErrorEEC1EOS9_",
   "parameters" :
   [
    {
     "is_this_ptr" : true,
     "referenced_type" : "_ZTIPN7android4base8expectedINSt3__110shared_ptrIKNS_2nn6MemoryEEENS4_12GeneralErrorEEE"
    },
    {
     "referenced_type" : "_ZTION7android4base8expectedINSt3__110shared_ptrIKNS_2nn6MemoryEEENS4_12GeneralErrorEEE"
    }
   ],
   "return_type" : "_ZTIv",
   "source_file" : "system/libbase/include/android-base/expected.h"
  },
  {
   "function_name" : "android::base::expected<std::__1::shared_ptr<const android::nn::Memory>, android::nn::GeneralError>::expected",
   "linker_set_key" : "_ZN7android4base8expectedINSt3__110shared_ptrIKNS_2nn6MemoryEEENS4_12GeneralErrorEEC1ERKS9_",
   "parameters" :
   [
    {
     "is_this_ptr" : true,
     "referenced_type" : "_ZTIPN7android4base8expectedINSt3__110shared_ptrIKNS_2nn6MemoryEEENS4_12GeneralErrorEEE"
    },
    {
     "referenced_type" : "_ZTIRKN7android4base8expectedINSt3__110shared_ptrIKNS_2nn6MemoryEEENS4_12GeneralErrorEEE"
    }
   ],
   "return_type" : "_ZTIv",
   "source_file" : "system/libbase/include/android-base/expected.h"
  },
  {
   "function_name" : "android::base::expected<std::__1::shared_ptr<const android::nn::Memory>, android::nn::GeneralError>::expected",
   "linker_set_key" : "_ZN7android4base8expectedINSt3__110shared_ptrIKNS_2nn6MemoryEEENS4_12GeneralErrorEEC1Ev",
   "parameters" :
   [
    {
     "is_this_ptr" : true,
     "referenced_type" : "_ZTIPN7android4base8expectedINSt3__110shared_ptrIKNS_2nn6MemoryEEENS4_12GeneralErrorEEE"
    }
   ],
   "return_type" : "_ZTIv",
   "source_file" : "system/libbase/include/android-base/expected.h"
  },
  {
   "function_name" : "android::base::expected<std::__1::shared_ptr<const android::nn::Memory>, android::nn::GeneralError>::expected",
   "linker_set_key" : "_ZN7android4base8expectedINSt3__110shared_ptrIKNS_2nn6MemoryEEENS4_12GeneralErrorEEC1IS7_LPv0EEEOT_",
   "parameters" :
   [
    {
     "is_this_ptr" : true,
     "referenced_type" : "_ZTIPN7android4base8expectedINSt3__110shared_ptrIKNS_2nn6MemoryEEENS4_12GeneralErrorEEE"
    },
    {
     "referenced_type" : "_ZTIONSt3__110shared_ptrIKN7android2nn6MemoryEEE"
    }
   ],
   "return_type" : "_ZTIv",
   "source_file" : "system/libbase/include/android-base/expected.h",
   "template_args" : [ "_ZTINSt3__110shared_ptrIKN7android2nn6MemoryEEE" ]
  },
  {
   "function_name" : "android::base::expected<std::__1::shared_ptr<const android::nn::Memory>, android::nn::GeneralError>::expected",
   "linker_set_key" : "_ZN7android4base8expectedINSt3__110shared_ptrIKNS_2nn6MemoryEEENS4_12GeneralErrorEEC1IS8_LPv0EEEONS0_10unexpectedIT_EE",
   "parameters" :
   [
    {
     "is_this_ptr" : true,
     "referenced_type" : "_ZTIPN7android4base8expectedINSt3__110shared_ptrIKNS_2nn6MemoryEEENS4_12GeneralErrorEEE"
    },
    {
     "referenced_type" : "_ZTION7android4base10unexpectedINS_2nn12GeneralErrorEEE"
    }
   ],
   "return_type" : "_ZTIv",
   "source_file" : "system/libbase/include/android-base/expected.h",
   "template_args" : [ "_ZTIN7android2nn12GeneralErrorE" ]
  },
  {
   "function_name" : "android::base::expected<std::__1::shared_ptr<const android::nn::Memory>, android::nn::GeneralError>::expected",
   "linker_set_key" : "_ZN7android4base8expectedINSt3__110shared_ptrIKNS_2nn6MemoryEEENS4_12GeneralErrorEEC2EOS9_",
   "parameters" :
   [
    {
     "is_this_ptr" : true,
     "referenced_type" : "_ZTIPN7android4base8expectedINSt3__110shared_ptrIKNS_2nn6MemoryEEENS4_12GeneralErrorEEE"
    },
    {
     "referenced_type" : "_ZTION7android4base8expectedINSt3__110shared_ptrIKNS_2nn6MemoryEEENS4_12GeneralErrorEEE"
    }
   ],
   "return_type" : "_ZTIv",
   "source_file" : "system/libbase/include/android-base/expected.h"
  },
  {
   "function_name" : "android::base::expected<std::__1::shared_ptr<const android::nn::Memory>, android::nn::GeneralError>::expected",
   "linker_set_key" : "_ZN7android4base8expectedINSt3__110shared_ptrIKNS_2nn6MemoryEEENS4_12GeneralErrorEEC2ERKS9_",
   "parameters" :
   [
    {
     "is_this_ptr" : true,
     "referenced_type" : "_ZTIPN7android4base8expectedINSt3__110shared_ptrIKNS_2nn6MemoryEEENS4_12GeneralErrorEEE"
    },
    {
     "referenced_type" : "_ZTIRKN7android4base8expectedINSt3__110shared_ptrIKNS_2nn6MemoryEEENS4_12GeneralErrorEEE"
    }
   ],
   "return_type" : "_ZTIv",
   "source_file" : "system/libbase/include/android-base/expected.h"
  },
  {
   "function_name" : "android::base::expected<std::__1::shared_ptr<const android::nn::Memory>, android::nn::GeneralError>::expected",
   "linker_set_key" : "_ZN7android4base8expectedINSt3__110shared_ptrIKNS_2nn6MemoryEEENS4_12GeneralErrorEEC2Ev",
   "parameters" :
   [
    {
     "is_this_ptr" : true,
     "referenced_type" : "_ZTIPN7android4base8expectedINSt3__110shared_ptrIKNS_2nn6MemoryEEENS4_12GeneralErrorEEE"
    }
   ],
   "return_type" : "_ZTIv",
   "source_file" : "system/libbase/include/android-base/expected.h"
  },
  {
   "function_name" : "android::base::expected<std::__1::shared_ptr<const android::nn::Memory>, android::nn::GeneralError>::expected",
   "linker_set_key" : "_ZN7android4base8expectedINSt3__110shared_ptrIKNS_2nn6MemoryEEENS4_12GeneralErrorEEC2IS7_LPv0EEEOT_",
   "parameters" :
   [
    {
     "is_this_ptr" : true,
     "referenced_type" : "_ZTIPN7android4base8expectedINSt3__110shared_ptrIKNS_2nn6MemoryEEENS4_12GeneralErrorEEE"
    },
    {
     "referenced_type" : "_ZTIONSt3__110shared_ptrIKN7android2nn6MemoryEEE"
    }
   ],
   "return_type" : "_ZTIv",
   "source_file" : "system/libbase/include/android-base/expected.h",
   "template_args" : [ "_ZTINSt3__110shared_ptrIKN7android2nn6MemoryEEE" ]
  },
  {
   "function_name" : "android::base::expected<std::__1::shared_ptr<const android::nn::Memory>, android::nn::GeneralError>::expected",
   "linker_set_key" : "_ZN7android4base8expectedINSt3__110shared_ptrIKNS_2nn6MemoryEEENS4_12GeneralErrorEEC2IS8_LPv0EEEONS0_10unexpectedIT_EE",
   "parameters" :
   [
    {
     "is_this_ptr" : true,
     "referenced_type" : "_ZTIPN7android4base8expectedINSt3__110shared_ptrIKNS_2nn6MemoryEEENS4_12GeneralErrorEEE"
    },
    {
     "referenced_type" : "_ZTION7android4base10unexpectedINS_2nn12GeneralErrorEEE"
    }
   ],
   "return_type" : "_ZTIv",
   "source_file" : "system/libbase/include/android-base/expected.h",
   "template_args" : [ "_ZTIN7android2nn12GeneralErrorE" ]
  },
  {
   "function_name" : "android::base::expected<std::__1::shared_ptr<const android::nn::Memory>, android::nn::GeneralError>::~expected",
   "linker_set_key" : "_ZN7android4base8expectedINSt3__110shared_ptrIKNS_2nn6MemoryEEENS4_12GeneralErrorEED1Ev",
   "parameters" :
   [
    {
     "is_this_ptr" : true,
     "referenced_type" : "_ZTIPN7android4base8expectedINSt3__110shared_ptrIKNS_2nn6MemoryEEENS4_12GeneralErrorEEE"
    }
   ],
   "return_type" : "_ZTIv",
   "source_file" : "system/libbase/include/android-base/expected.h"
  },
  {
   "function_name" : "android::base::expected<std::__1::shared_ptr<const android::nn::Memory>, android::nn::GeneralError>::~expected",
   "linker_set_key" : "_ZN7android4base8expectedINSt3__110shared_ptrIKNS_2nn6MemoryEEENS4_12GeneralErrorEED2Ev",
   "parameters" :
   [
    {
     "is_this_ptr" : true,
     "referenced_type" : "_ZTIPN7android4base8expectedINSt3__110shared_ptrIKNS_2nn6MemoryEEENS4_12GeneralErrorEEE"
    }
   ],
   "return_type" : "_ZTIv",
   "source_file" : "system/libbase/include/android-base/expected.h"
  },
  {
   "function_name" : "android::base::expected<std::__1::shared_ptr<const android::nn::Memory>, android::nn::GeneralError>::operator=",
   "linker_set_key" : "_ZN7android4base8expectedINSt3__110shared_ptrIKNS_2nn6MemoryEEENS4_12GeneralErrorEEaSEOS9_",
   "parameters" :
   [
    {
     "is_this_ptr" : true,
     "referenced_type" : "_ZTIPN7android4base8expectedINSt3__110shared_ptrIKNS_2nn6MemoryEEENS4_12GeneralErrorEEE"
    },
    {
     "referenced_type" : "_ZTION7android4base8expectedINSt3__110shared_ptrIKNS_2nn6MemoryEEENS4_12GeneralErrorEEE"
    }
   ],
   "return_type" : "_ZTIRN7android4base8expectedINSt3__110shared_ptrIKNS_2nn6MemoryEEENS4_12GeneralErrorEEE",
   "source_file" : "system/libbase/include/android-base/expected.h"
  },
  {
   "function_name" : "android::base::expected<std::__1::shared_ptr<const android::nn::Memory>, android::nn::GeneralError>::operator=",
   "linker_set_key" : "_ZN7android4base8expectedINSt3__110shared_ptrIKNS_2nn6MemoryEEENS4_12GeneralErrorEEaSERKS9_",
   "parameters" :
   [
    {
     "is_this_ptr" : true,
     "referenced_type" : "_ZTIPN7android4base8expectedINSt3__110shared_ptrIKNS_2nn6MemoryEEENS4_12GeneralErrorEEE"
    },
    {
     "referenced_type" : "_ZTIRKN7android4base8expectedINSt3__110shared_ptrIKNS_2nn6MemoryEEENS4_12GeneralErrorEEE"
    }
   ],
   "return_type" : "_ZTIRN7android4base8expectedINSt3__110shared_ptrIKNS_2nn6MemoryEEENS4_12GeneralErrorEEE",
   "source_file" : "system/libbase/include/android-base/expected.h"
  },
  {
   "function_name" : "android::base::expected<std::__1::vector<android::base::unique_fd_impl<android::base::DefaultCloser>, std::__1::allocator<android::base::unique_fd_impl<android::base::DefaultCloser>>>, android::nn::GeneralError>::expected",
   "linker_set_key" : "_ZN7android4base8expectedINSt3__16vectorINS0_14unique_fd_implINS0_13DefaultCloserEEENS2_9allocatorIS6_EEEENS_2nn12GeneralErrorEEC1EOSC_",
   "parameters" :
   [
    {
     "is_this_ptr" : true,
     "referenced_type" : "_ZTIPN7android4base8expectedINSt3__16vectorINS0_14unique_fd_implINS0_13DefaultCloserEEENS2_9allocatorIS6_EEEENS_2nn12GeneralErrorEEE"
    },
    {
     "referenced_type" : "_ZTION7android4base8expectedINSt3__16vectorINS0_14unique_fd_implINS0_13DefaultCloserEEENS2_9allocatorIS6_EEEENS_2nn12GeneralErrorEEE"
    }
   ],
   "return_type" : "_ZTIv",
   "source_file" : "system/libbase/include/android-base/expected.h"
  },
  {
   "function_name" : "android::base::expected<std::__1::vector<android::base::unique_fd_impl<android::base::DefaultCloser>, std::__1::allocator<android::base::unique_fd_impl<android::base::DefaultCloser>>>, android::nn::GeneralError>::expected",
   "linker_set_key" : "_ZN7android4base8expectedINSt3__16vectorINS0_14unique_fd_implINS0_13DefaultCloserEEENS2_9allocatorIS6_EEEENS_2nn12GeneralErrorEEC1ERKSC_",
   "parameters" :
   [
    {
     "is_this_ptr" : true,
     "referenced_type" : "_ZTIPN7android4base8expectedINSt3__16vectorINS0_14unique_fd_implINS0_13DefaultCloserEEENS2_9allocatorIS6_EEEENS_2nn12GeneralErrorEEE"
    },
    {
     "referenced_type" : "_ZTIRKN7android4base8expectedINSt3__16vectorINS0_14unique_fd_implINS0_13DefaultCloserEEENS2_9allocatorIS6_EEEENS_2nn12GeneralErrorEEE"
    }
   ],
   "return_type" : "_ZTIv",
   "source_file" : "system/libbase/include/android-base/expected.h"
  },
  {
   "function_name" : "android::base::expected<std::__1::vector<android::base::unique_fd_impl<android::base::DefaultCloser>, std::__1::allocator<android::base::unique_fd_impl<android::base::DefaultCloser>>>, android::nn::GeneralError>::expected",
   "linker_set_key" : "_ZN7android4base8expectedINSt3__16vectorINS0_14unique_fd_implINS0_13DefaultCloserEEENS2_9allocatorIS6_EEEENS_2nn12GeneralErrorEEC1Ev",
   "parameters" :
   [
    {
     "is_this_ptr" : true,
     "referenced_type" : "_ZTIPN7android4base8expectedINSt3__16vectorINS0_14unique_fd_implINS0_13DefaultCloserEEENS2_9allocatorIS6_EEEENS_2nn12GeneralErrorEEE"
    }
   ],
   "return_type" : "_ZTIv",
   "source_file" : "system/libbase/include/android-base/expected.h"
  },
  {
   "function_name" : "android::base::expected<std::__1::vector<android::base::unique_fd_impl<android::base::DefaultCloser>, std::__1::allocator<android::base::unique_fd_impl<android::base::DefaultCloser>>>, android::nn::GeneralError>::expected",
   "linker_set_key" : "_ZN7android4base8expectedINSt3__16vectorINS0_14unique_fd_implINS0_13DefaultCloserEEENS2_9allocatorIS6_EEEENS_2nn12GeneralErrorEEC1IS9_LPv0EEEOT_",
   "parameters" :
   [
    {
     "is_this_ptr" : true,
     "referenced_type" : "_ZTIPN7android4base8expectedINSt3__16vectorINS0_14unique_fd_implINS0_13DefaultCloserEEENS2_9allocatorIS6_EEEENS_2nn12GeneralErrorEEE"
    },
    {
     "referenced_type" : "_ZTIONSt3__16vectorIN7android4base14unique_fd_implINS2_13DefaultCloserEEENS_9allocatorIS5_EEEE"
    }
   ],
   "return_type" : "_ZTIv",
   "source_file" : "system/libbase/include/android-base/expected.h",
   "template_args" :
   [
    "_ZTINSt3__16vectorIN7android4base14unique_fd_implINS2_13DefaultCloserEEENS_9allocatorIS5_EEEE"
   ]
  },
  {
   "function_name" : "android::base::expected<std::__1::vector<android::base::unique_fd_impl<android::base::DefaultCloser>, std::__1::allocator<android::base::unique_fd_impl<android::base::DefaultCloser>>>, android::nn::GeneralError>::expected",
   "linker_set_key" : "_ZN7android4base8expectedINSt3__16vectorINS0_14unique_fd_implINS0_13DefaultCloserEEENS2_9allocatorIS6_EEEENS_2nn12GeneralErrorEEC2EOSC_",
   "parameters" :
   [
    {
     "is_this_ptr" : true,
     "referenced_type" : "_ZTIPN7android4base8expectedINSt3__16vectorINS0_14unique_fd_implINS0_13DefaultCloserEEENS2_9allocatorIS6_EEEENS_2nn12GeneralErrorEEE"
    },
    {
     "referenced_type" : "_ZTION7android4base8expectedINSt3__16vectorINS0_14unique_fd_implINS0_13DefaultCloserEEENS2_9allocatorIS6_EEEENS_2nn12GeneralErrorEEE"
    }
   ],
   "return_type" : "_ZTIv",
   "source_file" : "system/libbase/include/android-base/expected.h"
  },
  {
   "function_name" : "android::base::expected<std::__1::vector<android::base::unique_fd_impl<android::base::DefaultCloser>, std::__1::allocator<android::base::unique_fd_impl<android::base::DefaultCloser>>>, android::nn::GeneralError>::expected",
   "linker_set_key" : "_ZN7android4base8expectedINSt3__16vectorINS0_14unique_fd_implINS0_13DefaultCloserEEENS2_9allocatorIS6_EEEENS_2nn12GeneralErrorEEC2ERKSC_",
   "parameters" :
   [
    {
     "is_this_ptr" : true,
     "referenced_type" : "_ZTIPN7android4base8expectedINSt3__16vectorINS0_14unique_fd_implINS0_13DefaultCloserEEENS2_9allocatorIS6_EEEENS_2nn12GeneralErrorEEE"
    },
    {
     "referenced_type" : "_ZTIRKN7android4base8expectedINSt3__16vectorINS0_14unique_fd_implINS0_13DefaultCloserEEENS2_9allocatorIS6_EEEENS_2nn12GeneralErrorEEE"
    }
   ],
   "return_type" : "_ZTIv",
   "source_file" : "system/libbase/include/android-base/expected.h"
  },
  {
   "function_name" : "android::base::expected<std::__1::vector<android::base::unique_fd_impl<android::base::DefaultCloser>, std::__1::allocator<android::base::unique_fd_impl<android::base::DefaultCloser>>>, android::nn::GeneralError>::expected",
   "linker_set_key" : "_ZN7android4base8expectedINSt3__16vectorINS0_14unique_fd_implINS0_13DefaultCloserEEENS2_9allocatorIS6_EEEENS_2nn12GeneralErrorEEC2Ev",
   "parameters" :
   [
    {
     "is_this_ptr" : true,
     "referenced_type" : "_ZTIPN7android4base8expectedINSt3__16vectorINS0_14unique_fd_implINS0_13DefaultCloserEEENS2_9allocatorIS6_EEEENS_2nn12GeneralErrorEEE"
    }
   ],
   "return_type" : "_ZTIv",
   "source_file" : "system/libbase/include/android-base/expected.h"
  },
  {
   "function_name" : "android::base::expected<std::__1::vector<android::base::unique_fd_impl<android::base::DefaultCloser>, std::__1::allocator<android::base::unique_fd_impl<android::base::DefaultCloser>>>, android::nn::GeneralError>::expected",
   "linker_set_key" : "_ZN7android4base8expectedINSt3__16vectorINS0_14unique_fd_implINS0_13DefaultCloserEEENS2_9allocatorIS6_EEEENS_2nn12GeneralErrorEEC2IS9_LPv0EEEOT_",
   "parameters" :
   [
    {
     "is_this_ptr" : true,
     "referenced_type" : "_ZTIPN7android4base8expectedINSt3__16vectorINS0_14unique_fd_implINS0_13DefaultCloserEEENS2_9allocatorIS6_EEEENS_2nn12GeneralErrorEEE"
    },
    {
     "referenced_type" : "_ZTIONSt3__16vectorIN7android4base14unique_fd_implINS2_13DefaultCloserEEENS_9allocatorIS5_EEEE"
    }
   ],
   "return_type" : "_ZTIv",
   "source_file" : "system/libbase/include/android-base/expected.h",
   "template_args" :
   [
    "_ZTINSt3__16vectorIN7android4base14unique_fd_implINS2_13DefaultCloserEEENS_9allocatorIS5_EEEE"
   ]
  },
  {
   "function_name" : "android::base::expected<std::__1::vector<android::base::unique_fd_impl<android::base::DefaultCloser>, std::__1::allocator<android::base::unique_fd_impl<android::base::DefaultCloser>>>, android::nn::GeneralError>::~expected",
   "linker_set_key" : "_ZN7android4base8expectedINSt3__16vectorINS0_14unique_fd_implINS0_13DefaultCloserEEENS2_9allocatorIS6_EEEENS_2nn12GeneralErrorEED1Ev",
   "parameters" :
   [
    {
     "is_this_ptr" : true,
     "referenced_type" : "_ZTIPN7android4base8expectedINSt3__16vectorINS0_14unique_fd_implINS0_13DefaultCloserEEENS2_9allocatorIS6_EEEENS_2nn12GeneralErrorEEE"
    }
   ],
   "return_type" : "_ZTIv",
   "source_file" : "system/libbase/include/android-base/expected.h"
  },
  {
   "function_name" : "android::base::expected<std::__1::vector<android::base::unique_fd_impl<android::base::DefaultCloser>, std::__1::allocator<android::base::unique_fd_impl<android::base::DefaultCloser>>>, android::nn::GeneralError>::~expected",
   "linker_set_key" : "_ZN7android4base8expectedINSt3__16vectorINS0_14unique_fd_implINS0_13DefaultCloserEEENS2_9allocatorIS6_EEEENS_2nn12GeneralErrorEED2Ev",
   "parameters" :
   [
    {
     "is_this_ptr" : true,
     "referenced_type" : "_ZTIPN7android4base8expectedINSt3__16vectorINS0_14unique_fd_implINS0_13DefaultCloserEEENS2_9allocatorIS6_EEEENS_2nn12GeneralErrorEEE"
    }
   ],
   "return_type" : "_ZTIv",
   "source_file" : "system/libbase/include/android-base/expected.h"
  },
  {
   "function_name" : "android::base::expected<std::__1::vector<android::base::unique_fd_impl<android::base::DefaultCloser>, std::__1::allocator<android::base::unique_fd_impl<android::base::DefaultCloser>>>, android::nn::GeneralError>::operator=",
   "linker_set_key" : "_ZN7android4base8expectedINSt3__16vectorINS0_14unique_fd_implINS0_13DefaultCloserEEENS2_9allocatorIS6_EEEENS_2nn12GeneralErrorEEaSEOSC_",
   "parameters" :
   [
    {
     "is_this_ptr" : true,
     "referenced_type" : "_ZTIPN7android4base8expectedINSt3__16vectorINS0_14unique_fd_implINS0_13DefaultCloserEEENS2_9allocatorIS6_EEEENS_2nn12GeneralErrorEEE"
    },
    {
     "referenced_type" : "_ZTION7android4base8expectedINSt3__16vectorINS0_14unique_fd_implINS0_13DefaultCloserEEENS2_9allocatorIS6_EEEENS_2nn12GeneralErrorEEE"
    }
   ],
   "return_type" : "_ZTIRN7android4base8expectedINSt3__16vectorINS0_14unique_fd_implINS0_13DefaultCloserEEENS2_9allocatorIS6_EEEENS_2nn12GeneralErrorEEE",
   "source_file" : "system/libbase/include/android-base/expected.h"
  },
  {
   "function_name" : "android::base::expected<std::__1::vector<android::base::unique_fd_impl<android::base::DefaultCloser>, std::__1::allocator<android::base::unique_fd_impl<android::base::DefaultCloser>>>, android::nn::GeneralError>::operator=",
   "linker_set_key" : "_ZN7android4base8expectedINSt3__16vectorINS0_14unique_fd_implINS0_13DefaultCloserEEENS2_9allocatorIS6_EEEENS_2nn12GeneralErrorEEaSERKSC_",
   "parameters" :
   [
    {
     "is_this_ptr" : true,
     "referenced_type" : "_ZTIPN7android4base8expectedINSt3__16vectorINS0_14unique_fd_implINS0_13DefaultCloserEEENS2_9allocatorIS6_EEEENS_2nn12GeneralErrorEEE"
    },
    {
     "referenced_type" : "_ZTIRKN7android4base8expectedINSt3__16vectorINS0_14unique_fd_implINS0_13DefaultCloserEEENS2_9allocatorIS6_EEEENS_2nn12GeneralErrorEEE"
    }
   ],
   "return_type" : "_ZTIRN7android4base8expectedINSt3__16vectorINS0_14unique_fd_implINS0_13DefaultCloserEEENS2_9allocatorIS6_EEEENS_2nn12GeneralErrorEEE",
   "source_file" : "system/libbase/include/android-base/expected.h"
  },
  {
   "function_name" : "android::base::Fdopendir",
   "linker_set_key" : "_ZN7android4base9FdopendirEONS0_14unique_fd_implINS0_13DefaultCloserEEE",
   "parameters" :
   [
    {
     "referenced_type" : "_ZTION7android4base14unique_fd_implINS0_13DefaultCloserEEE"
    }
   ],
   "return_type" : "_ZTIP3DIR",
   "source_file" : "system/libbase/include/android-base/unique_fd.h"
  },
  {
   "function_name" : "android::RefBase::trackMe",
   "linker_set_key" : "_ZN7android7RefBase7trackMeEbb",
   "parameters" :
   [
    {
     "is_this_ptr" : true,
     "referenced_type" : "_ZTIPN7android7RefBaseE"
    },
    {
     "referenced_type" : "_ZTIb"
    },
    {
     "referenced_type" : "_ZTIb"
    }
   ],
   "return_type" : "_ZTIv",
   "source_file" : "system/core/libutils/include/utils/RefBase.h"
  },
  {
   "function_name" : "android::hash_type",
   "linker_set_key" : "_ZN7android9hash_typeIaEEjRKT_",
   "parameters" :
   [
    {
     "referenced_type" : "_ZTIRKa"
    }
   ],
   "return_type" : "_ZTIj",
   "source_file" : "system/core/libutils/include/utils/TypeHelpers.h",
   "template_args" : [ "_ZTIa" ]
  },
  {
   "function_name" : "android::hash_type",
   "linker_set_key" : "_ZN7android9hash_typeIbEEjRKT_",
   "parameters" :
   [
    {
     "referenced_type" : "_ZTIRKb"
    }
   ],
   "return_type" : "_ZTIj",
   "source_file" : "system/core/libutils/include/utils/TypeHelpers.h",
   "template_args" : [ "_ZTIb" ]
  },
  {
   "function_name" : "android::hash_type",
   "linker_set_key" : "_ZN7android9hash_typeIdEEjRKT_",
   "parameters" :
   [
    {
     "referenced_type" : "_ZTIRKd"
    }
   ],
   "return_type" : "_ZTIj",
   "source_file" : "system/core/libutils/include/utils/TypeHelpers.h",
   "template_args" : [ "_ZTId" ]
  },
  {
   "function_name" : "android::hash_type",
   "linker_set_key" : "_ZN7android9hash_typeIfEEjRKT_",
   "parameters" :
   [
    {
     "referenced_type" : "_ZTIRKf"
    }
   ],
   "return_type" : "_ZTIj",
   "source_file" : "system/core/libutils/include/utils/TypeHelpers.h",
   "template_args" : [ "_ZTIf" ]
  },
  {
   "function_name" : "android::hash_type",
   "linker_set_key" : "_ZN7android9hash_typeIhEEjRKT_",
   "parameters" :
   [
    {
     "referenced_type" : "_ZTIRKh"
    }
   ],
   "return_type" : "_ZTIj",
   "source_file" : "system/core/libutils/include/utils/TypeHelpers.h",
   "template_args" : [ "_ZTIh" ]
  },
  {
   "function_name" : "android::hash_type",
   "linker_set_key" : "_ZN7android9hash_typeIiEEjRKT_",
   "parameters" :
   [
    {
     "referenced_type" : "_ZTIRKi"
    }
   ],
   "return_type" : "_ZTIj",
   "source_file" : "system/core/libutils/include/utils/TypeHelpers.h",
   "template_args" : [ "_ZTIi" ]
  },
  {
   "function_name" : "android::hash_type",
   "linker_set_key" : "_ZN7android9hash_typeIjEEjRKT_",
   "parameters" :
   [
    {
     "referenced_type" : "_ZTIRKj"
    }
   ],
   "return_type" : "_ZTIj",
   "source_file" : "system/core/libutils/include/utils/TypeHelpers.h",
   "template_args" : [ "_ZTIj" ]
  },
  {
   "function_name" : "android::hash_type",
   "linker_set_key" : "_ZN7android9hash_typeIlEEjRKT_",
   "parameters" :
   [
    {
     "referenced_type" : "_ZTIRKl"
    }
   ],
   "return_type" : "_ZTIj",
   "source_file" : "system/core/libutils/include/utils/TypeHelpers.h",
   "template_args" : [ "_ZTIl" ]
  },
  {
   "function_name" : "android::hash_type",
   "linker_set_key" : "_ZN7android9hash_typeImEEjRKT_",
   "parameters" :
   [
    {
     "referenced_type" : "_ZTIRKm"
    }
   ],
   "return_type" : "_ZTIj",
   "source_file" : "system/core/libutils/include/utils/TypeHelpers.h",
   "template_args" : [ "_ZTIm" ]
  },
  {
   "function_name" : "android::hash_type",
   "linker_set_key" : "_ZN7android9hash_typeIsEEjRKT_",
   "parameters" :
   [
    {
     "referenced_type" : "_ZTIRKs"
    }
   ],
   "return_type" : "_ZTIj",
   "source_file" : "system/core/libutils/include/utils/TypeHelpers.h",
   "template_args" : [ "_ZTIs" ]
  },
  {
   "function_name" : "android::hash_type",
   "linker_set_key" : "_ZN7android9hash_typeItEEjRKT_",
   "parameters" :
   [
    {
     "referenced_type" : "_ZTIRKt"
    }
   ],
   "return_type" : "_ZTIj",
   "source_file" : "system/core/libutils/include/utils/TypeHelpers.h",
   "template_args" : [ "_ZTIt" ]
  },
  {
   "function_name" : "android::NativeHandle::handle",
   "linker_set_key" : "_ZNK7android12NativeHandle6handleEv",
   "parameters" :
   [
    {
     "is_this_ptr" : true,
     "referenced_type" : "_ZTIPKN7android12NativeHandleE"
    }
   ],
   "return_type" : "_ZTIPK13native_handle",
   "source_file" : "system/core/libutils/include/utils/NativeHandle.h"
  },
  {
   "function_name" : "android::sp<android::hidl::base::V1_0::IBase>::operator->",
   "linker_set_key" : "_ZNK7android2spINS_4hidl4base4V1_05IBaseEEptEv",
   "parameters" :
   [
    {
     "is_this_ptr" : true,
     "referenced_type" : "_ZTIPKN7android2spINS_4hidl4base4V1_05IBaseEEE"
    }
   ],
   "return_type" : "_ZTIPN7android4hidl4base4V1_05IBaseE",
   "source_file" : "system/core/libutils/include/utils/StrongPointer.h"
  },
  {
   "function_name" : "android::sp<android::hidl::memory::V1_0::IMemory>::get",
   "linker_set_key" : "_ZNK7android2spINS_4hidl6memory4V1_07IMemoryEE3getEv",
   "parameters" :
   [
    {
     "is_this_ptr" : true,
     "referenced_type" : "_ZTIPKN7android2spINS_4hidl6memory4V1_07IMemoryEEE"
    }
   ],
   "return_type" : "_ZTIPN7android4hidl6memory4V1_07IMemoryE",
   "source_file" : "system/core/libutils/include/utils/StrongPointer.h"
  },
  {
   "function_name" : "android::sp<android::hidl::memory::V1_0::IMemory>::operator->",
   "linker_set_key" : "_ZNK7android2spINS_4hidl6memory4V1_07IMemoryEEptEv",
   "parameters" :
   [
    {
     "is_this_ptr" : true,
     "referenced_type" : "_ZTIPKN7android2spINS_4hidl6memory4V1_07IMemoryEEE"
    }
   ],
   "return_type" : "_ZTIPN7android4hidl6memory4V1_07IMemoryE",
   "source_file" : "system/core/libutils/include/utils/StrongPointer.h"
  },
  {
   "function_name" : "android::sp<android::hidl::manager::V1_0::IServiceNotification>::operator->",
   "linker_set_key" : "_ZNK7android2spINS_4hidl7manager4V1_020IServiceNotificationEEptEv",
   "parameters" :
   [
    {
     "is_this_ptr" : true,
     "referenced_type" : "_ZTIPKN7android2spINS_4hidl7manager4V1_020IServiceNotificationEEE"
    }
   ],
   "return_type" : "_ZTIPN7android4hidl7manager4V1_020IServiceNotificationE",
   "source_file" : "system/core/libutils/include/utils/StrongPointer.h"
  },
  {
   "function_name" : "android::sp<android::hidl::allocator::V1_0::IAllocator>::operator->",
   "linker_set_key" : "_ZNK7android2spINS_4hidl9allocator4V1_010IAllocatorEEptEv",
   "parameters" :
   [
    {
     "is_this_ptr" : true,
     "referenced_type" : "_ZTIPKN7android2spINS_4hidl9allocator4V1_010IAllocatorEEE"
    }
   ],
   "return_type" : "_ZTIPN7android4hidl9allocator4V1_010IAllocatorE",
   "source_file" : "system/core/libutils/include/utils/StrongPointer.h"
  },
  {
   "function_name" : "android::sp<android::hardware::hidl_death_recipient>::get",
   "linker_set_key" : "_ZNK7android2spINS_8hardware20hidl_death_recipientEE3getEv",
   "parameters" :
   [
    {
     "is_this_ptr" : true,
     "referenced_type" : "_ZTIPKN7android2spINS_8hardware20hidl_death_recipientEEE"
    }
   ],
   "return_type" : "_ZTIPN7android8hardware20hidl_death_recipientE",
   "source_file" : "system/core/libutils/include/utils/StrongPointer.h"
  },
  {
   "function_name" : "android::base::MappedFile::data",
   "linker_set_key" : "_ZNK7android4base10MappedFile4dataEv",
   "parameters" :
   [
    {
     "is_this_ptr" : true,
     "referenced_type" : "_ZTIPKN7android4base10MappedFileE"
    }
   ],
   "return_type" : "_ZTIPc",
   "source_file" : "system/libbase/include/android-base/mapped_file.h"
  },
  {
   "function_name" : "android::base::MappedFile::size",
   "linker_set_key" : "_ZNK7android4base10MappedFile4sizeEv",
   "parameters" :
   [
    {
     "is_this_ptr" : true,
     "referenced_type" : "_ZTIPKN7android4base10MappedFileE"
    }
   ],
   "return_type" : "_ZTIm",
   "source_file" : "system/libbase/include/android-base/mapped_file.h"
  },
  {
   "function_name" : "android::base::borrowed_fd::get",
   "linker_set_key" : "_ZNK7android4base11borrowed_fd3getEv",
   "parameters" :
   [
    {
     "is_this_ptr" : true,
     "referenced_type" : "_ZTIPKN7android4base11borrowed_fdE"
    }
   ],
   "return_type" : "_ZTIi",
   "source_file" : "system/libbase/include/android-base/unique_fd.h"
  },
  {
   "function_name" : "android::base::borrowed_fd::operator==",
   "linker_set_key" : "_ZNK7android4base11borrowed_fdeqEi",
   "parameters" :
   [
    {
     "is_this_ptr" : true,
     "referenced_type" : "_ZTIPKN7android4base11borrowed_fdE"
    },
    {
     "referenced_type" : "_ZTIi"
    }
   ],
   "return_type" : "_ZTIb",
   "source_file" : "system/libbase/include/android-base/unique_fd.h"
  },
  {
   "function_name" : "android::base::borrowed_fd::operator>=",
   "linker_set_key" : "_ZNK7android4base11borrowed_fdgeEi",
   "parameters" :
   [
    {
     "is_this_ptr" : true,
     "referenced_type" : "_ZTIPKN7android4base11borrowed_fdE"
    },
    {
     "referenced_type" : "_ZTIi"
    }
   ],
   "return_type" : "_ZTIb",
   "source_file" : "system/libbase/include/android-base/unique_fd.h"
  },
  {
   "function_name" : "android::base::borrowed_fd::operator<",
   "linker_set_key" : "_ZNK7android4base11borrowed_fdltEi",
   "parameters" :
   [
    {
     "is_this_ptr" : true,
     "referenced_type" : "_ZTIPKN7android4base11borrowed_fdE"
    },
    {
     "referenced_type" : "_ZTIi"
    }
   ],
   "return_type" : "_ZTIb",
   "source_file" : "system/libbase/include/android-base/unique_fd.h"
  },
  {
   "function_name" : "android::base::borrowed_fd::operator!=",
   "linker_set_key" : "_ZNK7android4base11borrowed_fdneEi",
   "parameters" :
   [
    {
     "is_this_ptr" : true,
     "referenced_type" : "_ZTIPKN7android4base11borrowed_fdE"
    },
    {
     "referenced_type" : "_ZTIi"
    }
   ],
   "return_type" : "_ZTIb",
   "source_file" : "system/libbase/include/android-base/unique_fd.h"
  },
  {
   "function_name" : "android::base::ErrnoRestorer::operator bool",
   "linker_set_key" : "_ZNK7android4base13ErrnoRestorercvbEv",
   "parameters" :
   [
    {
     "is_this_ptr" : true,
     "referenced_type" : "_ZTIPKN7android4base13ErrnoRestorerE"
    }
   ],
   "return_type" : "_ZTIb",
   "source_file" : "system/libbase/include/android-base/errno_restorer.h"
  },
  {
   "function_name" : "android::base::unique_fd_impl<android::base::DefaultCloser>::ok",
   "linker_set_key" : "_ZNK7android4base14unique_fd_implINS0_13DefaultCloserEE2okEv",
   "parameters" :
   [
    {
     "is_this_ptr" : true,
     "referenced_type" : "_ZTIPKN7android4base14unique_fd_implINS0_13DefaultCloserEEE"
    }
   ],
   "return_type" : "_ZTIb",
   "source_file" : "system/libbase/include/android-base/unique_fd.h"
  },
  {
   "function_name" : "android::base::unique_fd_impl<android::base::DefaultCloser>::get",
   "linker_set_key" : "_ZNK7android4base14unique_fd_implINS0_13DefaultCloserEE3getEv",
   "parameters" :
   [
    {
     "is_this_ptr" : true,
     "referenced_type" : "_ZTIPKN7android4base14unique_fd_implINS0_13DefaultCloserEEE"
    }
   ],
   "return_type" : "_ZTIi",
   "source_file" : "system/libbase/include/android-base/unique_fd.h"
  },
  {
   "function_name" : "android::base::unique_fd_impl<android::base::DefaultCloser>::operator int",
   "linker_set_key" : "_ZNK7android4base14unique_fd_implINS0_13DefaultCloserEEcviEv",
   "parameters" :
   [
    {
     "is_this_ptr" : true,
     "referenced_type" : "_ZTIPKN7android4base14unique_fd_implINS0_13DefaultCloserEEE"
    }
   ],
   "return_type" : "_ZTIi",
   "source_file" : "system/libbase/include/android-base/unique_fd.h"
  },
  {
   "function_name" : "android::base::Timer::duration",
   "linker_set_key" : "_ZNK7android4base5Timer8durationEv",
   "parameters" :
   [
    {
     "is_this_ptr" : true,
     "referenced_type" : "_ZTIPKN7android4base5TimerE"
    }
   ],
   "return_type" : "_ZTINSt3__16chrono8durationIxNS_5ratioILl1ELl1000EEEEE",
   "source_file" : "system/libbase/include/android-base/chrono_utils.h"
  },
  {
   "function_name" : "android::base::expected<android::base::unique_fd_impl<android::base::DefaultCloser>, android::nn::GeneralError>::has_value",
   "linker_set_key" : "_ZNK7android4base8expectedINS0_14unique_fd_implINS0_13DefaultCloserEEENS_2nn12GeneralErrorEE9has_valueEv",
   "parameters" :
   [
    {
     "is_this_ptr" : true,
     "referenced_type" : "_ZTIPKN7android4base8expectedINS0_14unique_fd_implINS0_13DefaultCloserEEENS_2nn12GeneralErrorEEE"
    }
   ],
   "return_type" : "_ZTIb",
   "source_file" : "system/libbase/include/android-base/expected.h"
  },
  {
   "function_name" : "android::base::expected<android::hardware::hidl_handle, android::nn::GeneralError>::has_value",
   "linker_set_key" : "_ZNK7android4base8expectedINS_8hardware11hidl_handleENS_2nn12GeneralErrorEE9has_valueEv",
   "parameters" :
   [
    {
     "is_this_ptr" : true,
     "referenced_type" : "_ZTIPKN7android4base8expectedINS_8hardware11hidl_handleENS_2nn12GeneralErrorEEE"
    }
   ],
   "return_type" : "_ZTIb",
   "source_file" : "system/libbase/include/android-base/expected.h"
  },
  {
   "function_name" : "android::RefBase::printRefs",
   "linker_set_key" : "_ZNK7android7RefBase9printRefsEv",
   "parameters" :
   [
    {
     "is_this_ptr" : true,
     "referenced_type" : "_ZTIPKN7android7RefBaseE"
    }
   ],
   "return_type" : "_ZTIv",
   "source_file" : "system/core/libutils/include/utils/RefBase.h"
  },
  {
   "function_name" : "android::base::unexpected<android::nn::GeneralError>::value",
   "linker_set_key" : "_ZNO7android4base10unexpectedINS_2nn12GeneralErrorEE5valueEv",
   "parameters" :
   [
    {
     "is_this_ptr" : true,
     "referenced_type" : "_ZTIPN7android4base10unexpectedINS_2nn12GeneralErrorEEE"
    }
   ],
   "return_type" : "_ZTION7android2nn12GeneralErrorE",
   "source_file" : "system/libbase/include/android-base/expected.h"
  },
  {
   "function_name" : "android::base::expected<android::base::unique_fd_impl<android::base::DefaultCloser>, android::nn::GeneralError>::error",
   "linker_set_key" : "_ZNO7android4base8expectedINS0_14unique_fd_implINS0_13DefaultCloserEEENS_2nn12GeneralErrorEE5errorEv",
   "parameters" :
   [
    {
     "is_this_ptr" : true,
     "referenced_type" : "_ZTIPN7android4base8expectedINS0_14unique_fd_implINS0_13DefaultCloserEEENS_2nn12GeneralErrorEEE"
    }
   ],
   "return_type" : "_ZTION7android2nn12GeneralErrorE",
   "source_file" : "system/libbase/include/android-base/expected.h"
  },
  {
   "function_name" : "android::base::expected<android::base::unique_fd_impl<android::base::DefaultCloser>, android::nn::GeneralError>::value",
   "linker_set_key" : "_ZNO7android4base8expectedINS0_14unique_fd_implINS0_13DefaultCloserEEENS_2nn12GeneralErrorEE5valueEv",
   "parameters" :
   [
    {
     "is_this_ptr" : true,
     "referenced_type" : "_ZTIPN7android4base8expectedINS0_14unique_fd_implINS0_13DefaultCloserEEENS_2nn12GeneralErrorEEE"
    }
   ],
   "return_type" : "_ZTION7android4base14unique_fd_implINS0_13DefaultCloserEEE",
   "source_file" : "system/libbase/include/android-base/expected.h"
  },
  {
   "function_name" : "android::base::expected<android::hardware::hidl_handle, android::nn::GeneralError>::error",
   "linker_set_key" : "_ZNO7android4base8expectedINS_8hardware11hidl_handleENS_2nn12GeneralErrorEE5errorEv",
   "parameters" :
   [
    {
     "is_this_ptr" : true,
     "referenced_type" : "_ZTIPN7android4base8expectedINS_8hardware11hidl_handleENS_2nn12GeneralErrorEEE"
    }
   ],
   "return_type" : "_ZTION7android2nn12GeneralErrorE",
   "source_file" : "system/libbase/include/android-base/expected.h"
  },
  {
   "function_name" : "android::base::expected<android::hardware::hidl_handle, android::nn::GeneralError>::value",
   "linker_set_key" : "_ZNO7android4base8expectedINS_8hardware11hidl_handleENS_2nn12GeneralErrorEE5valueEv",
   "parameters" :
   [
    {
     "is_this_ptr" : true,
     "referenced_type" : "_ZTIPN7android4base8expectedINS_8hardware11hidl_handleENS_2nn12GeneralErrorEEE"
    }
   ],
   "return_type" : "_ZTION7android8hardware11hidl_handleE",
   "source_file" : "system/libbase/include/android-base/expected.h"
  },
  {
   "function_name" : "android::base::unexpected<android::nn::GeneralError>::value",
   "linker_set_key" : "_ZNR7android4base10unexpectedINS_2nn12GeneralErrorEE5valueEv",
   "parameters" :
   [
    {
     "is_this_ptr" : true,
     "referenced_type" : "_ZTIPN7android4base10unexpectedINS_2nn12GeneralErrorEEE"
    }
   ],
   "return_type" : "_ZTIRN7android2nn12GeneralErrorE",
   "source_file" : "system/libbase/include/android-base/expected.h"
  },
  {
   "function_name" : "android::base::unexpected<std::__1::basic_string<char>>::value",
   "linker_set_key" : "_ZNR7android4base10unexpectedINSt3__112basic_stringIcNS2_11char_traitsIcEENS2_9allocatorIcEEEEE5valueEv",
   "parameters" :
   [
    {
     "is_this_ptr" : true,
     "referenced_type" : "_ZTIPN7android4base10unexpectedINSt3__112basic_stringIcNS2_11char_traitsIcEENS2_9allocatorIcEEEEEE"
    }
   ],
   "return_type" : "_ZTIRNSt3__112basic_stringIcNS_11char_traitsIcEENS_9allocatorIcEEEE",
   "source_file" : "system/libbase/include/android-base/expected.h"
  },
  {
   "function_name" : "std::operator<<",
   "linker_set_key" : "_ZStlsRNSt3__113basic_ostreamIcNS_11char_traitsIcEEEEPKNS_12basic_stringIcS2_NS_9allocatorIcEEEE",
   "parameters" :
   [
    {
     "referenced_type" : "_ZTIRNSt3__113basic_ostreamIcNS_11char_traitsIcEEEE"
    },
    {
     "referenced_type" : "_ZTIPKNSt3__112basic_stringIcNS_11char_traitsIcEENS_9allocatorIcEEEE"
    }
   ],
   "return_type" : "_ZTIRNSt3__113basic_ostreamIcNS_11char_traitsIcEEEE",
   "source_file" : "system/libbase/include/android-base/logging.h"
  }
 ],
 "global_vars" :
 [
  {
   "linker_set_key" : "_ZN7android2nnL16kDefaultExecTimeE",
   "name" : "android::nn::kDefaultExecTime",
   "referenced_type" : "_ZTIKf",
   "source_file" : "packages/modules/NeuralNetworks/common/include/nnapi/Types.h"
  },
  {
   "linker_set_key" : "_ZN7android2nnL17kMinMemoryPaddingE",
   "name" : "android::nn::kMinMemoryPadding",
   "referenced_type" : "_ZTIKj",
   "source_file" : "packages/modules/NeuralNetworks/common/include/nnapi/Types.h"
  },
  {
   "linker_set_key" : "_ZN7android2nnL18kDefaultPowerUsageE",
   "name" : "android::nn::kDefaultPowerUsage",
   "referenced_type" : "_ZTIKf",
   "source_file" : "packages/modules/NeuralNetworks/common/include/nnapi/Types.h"
  },
  {
   "linker_set_key" : "_ZN7android2nnL18kExtensionTypeBitsE",
   "name" : "android::nn::kExtensionTypeBits",
   "referenced_type" : "_ZTIKh",
   "source_file" : "packages/modules/NeuralNetworks/common/include/nnapi/Types.h"
  },
  {
   "linker_set_key" : "_ZN7android2nnL19kLoopTimeoutDefaultE",
   "name" : "android::nn::kLoopTimeoutDefault",
   "referenced_type" : "_ZTIKNSt3__16chrono8durationIxNS_5ratioILl1ELl1EEEEE",
   "source_file" : "packages/modules/NeuralNetworks/common/include/nnapi/Types.h"
  },
  {
   "linker_set_key" : "_ZN7android2nnL19kLoopTimeoutMaximumE",
   "name" : "android::nn::kLoopTimeoutMaximum",
   "referenced_type" : "_ZTIKNSt3__16chrono8durationIxNS_5ratioILl1ELl1EEEEE",
   "source_file" : "packages/modules/NeuralNetworks/common/include/nnapi/Types.h"
  },
  {
   "linker_set_key" : "_ZN7android2nnL19kMinMemoryAlignmentE",
   "name" : "android::nn::kMinMemoryAlignment",
   "referenced_type" : "_ZTIKj",
   "source_file" : "packages/modules/NeuralNetworks/common/include/nnapi/Types.h"
  },
  {
   "linker_set_key" : "_ZN7android2nnL20kExtensionPrefixBitsE",
   "name" : "android::nn::kExtensionPrefixBits",
   "referenced_type" : "_ZTIKh",
   "source_file" : "packages/modules/NeuralNetworks/common/include/nnapi/Types.h"
  },
  {
   "linker_set_key" : "_ZN7android2nnL21kByteSizeOfCacheTokenE",
   "name" : "android::nn::kByteSizeOfCacheToken",
   "referenced_type" : "_ZTIKj",
   "source_file" : "packages/modules/NeuralNetworks/common/include/nnapi/Types.h"
  },
  {
   "linker_set_key" : "_ZN7android2nnL22kMaxNumberOfCacheFilesE",
   "name" : "android::nn::kMaxNumberOfCacheFiles",
   "referenced_type" : "_ZTIKj",
   "source_file" : "packages/modules/NeuralNetworks/common/include/nnapi/Types.h"
  },
  {
   "linker_set_key" : "_ZN7android2nnL24kTypeWithinExtensionMaskE",
   "name" : "android::nn::kTypeWithinExtensionMask",
   "referenced_type" : "_ZTIKj",
   "source_file" : "packages/modules/NeuralNetworks/common/include/nnapi/Types.h"
  },
  {
   "linker_set_key" : "_ZN7android2nnL28kDefaultRequestMemoryPaddingE",
   "name" : "android::nn::kDefaultRequestMemoryPadding",
   "referenced_type" : "_ZTIKj",
   "source_file" : "packages/modules/NeuralNetworks/common/include/nnapi/Types.h"
  },
  {
   "linker_set_key" : "_ZN7android2nnL30kDefaultRequestMemoryAlignmentE",
   "name" : "android::nn::kDefaultRequestMemoryAlignment",
   "referenced_type" : "_ZTIKj",
   "source_file" : "packages/modules/NeuralNetworks/common/include/nnapi/Types.h"
  },
  {
   "linker_set_key" : "_ZN7android4base10log_detail12StorageTypes7voidptrE",
   "name" : "android::base::log_detail::StorageTypes::voidptr",
   "referenced_type" : "_ZTIKb",
   "source_file" : "system/libbase/include/android-base/logging.h"
  },
  {
   "linker_set_key" : "_ZN7android4base10log_detail12StorageTypesImjE7voidptrE",
   "name" : "android::base::log_detail::StorageTypes<unsigned long, unsigned int>::voidptr",
   "referenced_type" : "_ZTIKb",
   "source_file" : "system/libbase/include/android-base/logging.h"
  },
  {
   "linker_set_key" : "_ZN7android4base10log_detail12StorageTypesImmE7voidptrE",
   "name" : "android::base::log_detail::StorageTypes<unsigned long, unsigned long>::voidptr",
   "referenced_type" : "_ZTIKb",
   "source_file" : "system/libbase/include/android-base/logging.h"
  },
  {
   "linker_set_key" : "_ZN7android4base10log_detail13IsCharPointer5valueE",
   "name" : "android::base::log_detail::IsCharPointer::value",
   "referenced_type" : "_ZTIKb",
   "source_file" : "system/libbase/include/android-base/logging.h"
  },
  {
   "linker_set_key" : "_ZN7android4base10log_detail13IsCharPointerIjE5valueE",
   "name" : "android::base::log_detail::IsCharPointer<unsigned int>::value",
   "referenced_type" : "_ZTIKb",
   "source_file" : "system/libbase/include/android-base/logging.h"
  },
  {
   "linker_set_key" : "_ZN7android4base10log_detail13IsCharPointerImE5valueE",
   "name" : "android::base::log_detail::IsCharPointer<unsigned long>::value",
   "referenced_type" : "_ZTIKb",
   "source_file" : "system/libbase/include/android-base/logging.h"
  },
  {
   "linker_set_key" : "_ZN7android4base8unexpectE",
   "name" : "android::base::unexpect",
   "referenced_type" : "_ZTIKN7android4base10unexpect_tE",
   "source_file" : "system/libbase/include/android-base/expected.h"
  },
  {
   "linker_set_key" : "_ZN7android4baseL14kEnableDChecksE",
   "name" : "android::base::kEnableDChecks",
   "referenced_type" : "_ZTIKb",
   "source_file" : "system/libbase/include/android-base/logging.h"
  },
  {
   "linker_set_key" : "_ZZN7android2sp18check_not_on_stackEPKvE13MIN_PAGE_MASK",
   "name" : "MIN_PAGE_MASK",
   "referenced_type" : "_ZTIKm",
   "source_file" : "system/core/libutils/include/utils/StrongPointer.h"
  },
  {
   "linker_set_key" : "_ZZN7android2sp18check_not_on_stackEPKvE13MIN_PAGE_SIZE",
   "name" : "MIN_PAGE_SIZE",
   "referenced_type" : "_ZTIKi",
   "source_file" : "system/core/libutils/include/utils/StrongPointer.h"
  }
 ],
 "lvalue_reference_types" :
 [
  {
   "alignment" : 8,
   "linker_set_key" : "_ZTIRA21_Kc",
   "name" : "char const (&)[21]",
   "referenced_type" : "_ZTIA21_Kc",
   "self_type" : "_ZTIRA21_Kc",
   "size" : 8,
   "source_file" : "packages/modules/NeuralNetworks/common/include/nnapi/Result.h"
  },
  {
   "alignment" : 8,
   "linker_set_key" : "_ZTIRA24_Kc",
   "name" : "char const (&)[24]",
   "referenced_type" : "_ZTIA24_Kc",
   "self_type" : "_ZTIRA24_Kc",
   "size" : 8,
   "source_file" : "packages/modules/NeuralNetworks/common/include/nnapi/Result.h"
  },
  {
   "alignment" : 8,
   "linker_set_key" : "_ZTIRA25_Kc",
   "name" : "char const (&)[25]",
   "referenced_type" : "_ZTIA25_Kc",
   "self_type" : "_ZTIRA25_Kc",
   "size" : 8,
   "source_file" : "packages/modules/NeuralNetworks/common/include/nnapi/Result.h"
  },
  {
   "alignment" : 8,
   "linker_set_key" : "_ZTIRA26_Kc",
   "name" : "char const (&)[26]",
   "referenced_type" : "_ZTIA26_Kc",
   "self_type" : "_ZTIRA26_Kc",
   "size" : 8,
   "source_file" : "packages/modules/NeuralNetworks/common/include/nnapi/Result.h"
  },
  {
   "alignment" : 8,
   "linker_set_key" : "_ZTIRA2_Kc",
   "name" : "char const (&)[2]",
   "referenced_type" : "_ZTIA2_Kc",
   "self_type" : "_ZTIRA2_Kc",
   "size" : 8,
   "source_file" : "packages/modules/NeuralNetworks/common/include/nnapi/Result.h"
  },
  {
   "alignment" : 8,
   "linker_set_key" : "_ZTIRA30_Kc",
   "name" : "char const (&)[30]",
   "referenced_type" : "_ZTIA30_Kc",
   "self_type" : "_ZTIRA30_Kc",
   "size" : 8,
   "source_file" : "packages/modules/NeuralNetworks/common/include/nnapi/Result.h"
  },
  {
   "alignment" : 8,
   "linker_set_key" : "_ZTIRA31_Kc",
   "name" : "char const (&)[31]",
   "referenced_type" : "_ZTIA31_Kc",
   "self_type" : "_ZTIRA31_Kc",
   "size" : 8,
   "source_file" : "packages/modules/NeuralNetworks/common/include/nnapi/Result.h"
  },
  {
   "alignment" : 8,
   "linker_set_key" : "_ZTIRA32_Kc",
   "name" : "char const (&)[32]",
   "referenced_type" : "_ZTIA32_Kc",
   "self_type" : "_ZTIRA32_Kc",
   "size" : 8,
   "source_file" : "packages/modules/NeuralNetworks/common/include/nnapi/Result.h"
  },
  {
   "alignment" : 8,
   "linker_set_key" : "_ZTIRA33_Kc",
   "name" : "char const (&)[33]",
   "referenced_type" : "_ZTIA33_Kc",
   "self_type" : "_ZTIRA33_Kc",
   "size" : 8,
   "source_file" : "packages/modules/NeuralNetworks/common/include/nnapi/Result.h"
  },
  {
   "alignment" : 8,
   "linker_set_key" : "_ZTIRA3_Kc",
   "name" : "char const (&)[3]",
   "referenced_type" : "_ZTIA3_Kc",
   "self_type" : "_ZTIRA3_Kc",
   "size" : 8,
   "source_file" : "packages/modules/NeuralNetworks/common/include/nnapi/Result.h"
  },
  {
   "alignment" : 8,
   "linker_set_key" : "_ZTIRA40_Kc",
   "name" : "char const (&)[40]",
   "referenced_type" : "_ZTIA40_Kc",
   "self_type" : "_ZTIRA40_Kc",
   "size" : 8,
   "source_file" : "packages/modules/NeuralNetworks/common/include/nnapi/Result.h"
  },
  {
   "alignment" : 8,
   "linker_set_key" : "_ZTIRA42_Kc",
   "name" : "char const (&)[42]",
   "referenced_type" : "_ZTIA42_Kc",
   "self_type" : "_ZTIRA42_Kc",
   "size" : 8,
   "source_file" : "packages/modules/NeuralNetworks/common/include/nnapi/Result.h"
  },
  {
   "alignment" : 8,
   "linker_set_key" : "_ZTIRA46_Kc",
   "name" : "char const (&)[46]",
   "referenced_type" : "_ZTIA46_Kc",
   "self_type" : "_ZTIRA46_Kc",
   "size" : 8,
   "source_file" : "packages/modules/NeuralNetworks/common/include/nnapi/Result.h"
  },
  {
   "alignment" : 8,
   "linker_set_key" : "_ZTIRA61_Kc",
   "name" : "char const (&)[61]",
   "referenced_type" : "_ZTIA61_Kc",
   "self_type" : "_ZTIRA61_Kc",
   "size" : 8,
   "source_file" : "packages/modules/NeuralNetworks/common/include/nnapi/Result.h"
  },
  {
   "alignment" : 8,
   "linker_set_key" : "_ZTIRA63_Kc",
   "name" : "char const (&)[63]",
   "referenced_type" : "_ZTIA63_Kc",
   "self_type" : "_ZTIRA63_Kc",
   "size" : 8,
   "source_file" : "packages/modules/NeuralNetworks/common/include/nnapi/Result.h"
  },
  {
   "alignment" : 8,
   "linker_set_key" : "_ZTIRA84_Kc",
   "name" : "char const (&)[84]",
   "referenced_type" : "_ZTIA84_Kc",
   "self_type" : "_ZTIRA84_Kc",
   "size" : 8,
   "source_file" : "packages/modules/NeuralNetworks/common/include/nnapi/Result.h"
  },
  {
   "alignment" : 8,
   "linker_set_key" : "_ZTIRKDn",
   "name" : "const nullptr_t &",
   "referenced_type" : "_ZTIKDn",
   "self_type" : "_ZTIRKDn",
   "size" : 8,
   "source_file" : "system/libbase/include/android-base/logging.h"
  },
  {
   "alignment" : 8,
   "linker_set_key" : "_ZTIRKN7android2nn6Memory14HardwareBufferE",
   "name" : "const android::nn::Memory::HardwareBuffer &",
   "referenced_type" : "_ZTIKN7android2nn6Memory14HardwareBufferE",
   "self_type" : "_ZTIRKN7android2nn6Memory14HardwareBufferE",
   "size" : 8,
   "source_file" : "packages/modules/NeuralNetworks/common/include/nnapi/SharedMemory.h"
  },
  {
   "alignment" : 8,
   "linker_set_key" : "_ZTIRKN7android2nn7MappingE",
   "name" : "const android::nn::Mapping &",
   "referenced_type" : "_ZTIKN7android2nn7MappingE",
   "self_type" : "_ZTIRKN7android2nn7MappingE",
   "size" : 8,
   "source_file" : "packages/modules/NeuralNetworks/common/include/nnapi/SharedMemory.h"
  },
  {
   "alignment" : 8,
   "linker_set_key" : "_ZTIRKN7android2spINS_4hidl6memory4V1_07IMemoryEEE",
   "name" : "const android::sp<android::hidl::memory::V1_0::IMemory> &",
   "referenced_type" : "_ZTIKN7android2spINS_4hidl6memory4V1_07IMemoryEEE",
   "self_type" : "_ZTIRKN7android2spINS_4hidl6memory4V1_07IMemoryEEE",
   "size" : 8,
   "source_file" : "system/core/libutils/include/utils/StrongPointer.h"
  },
  {
   "alignment" : 8,
   "linker_set_key" : "_ZTIRKN7android4base10unexpectedINS_2nn12GeneralErrorEEE",
   "name" : "const android::base::unexpected<android::nn::GeneralError> &",
   "referenced_type" : "_ZTIKN7android4base10unexpectedINS_2nn12GeneralErrorEEE",
   "self_type" : "_ZTIRKN7android4base10unexpectedINS_2nn12GeneralErrorEEE",
   "size" : 8,
   "source_file" : "system/libbase/include/android-base/expected.h"
  },
  {
   "alignment" : 8,
   "linker_set_key" : "_ZTIRKN7android4base10unexpectedINSt3__112basic_stringIcNS2_11char_traitsIcEENS2_9allocatorIcEEEEEE",
   "name" : "const android::base::unexpected<std::basic_string<char, std::char_traits<char>, std::allocator<char>>> &",
   "referenced_type" : "_ZTIKN7android4base10unexpectedINSt3__112basic_stringIcNS2_11char_traitsIcEENS2_9allocatorIcEEEEEE",
   "self_type" : "_ZTIRKN7android4base10unexpectedINSt3__112basic_stringIcNS2_11char_traitsIcEENS2_9allocatorIcEEEEEE",
   "size" : 8,
   "source_file" : "system/libbase/include/android-base/expected.h"
  },
  {
   "alignment" : 8,
   "linker_set_key" : "_ZTIRKN7android4base14unique_fd_implINS0_13DefaultCloserEEE",
   "name" : "const android::base::unique_fd_impl<android::base::DefaultCloser> &",
   "referenced_type" : "_ZTIKN7android4base14unique_fd_implINS0_13DefaultCloserEEE",
   "self_type" : "_ZTIRKN7android4base14unique_fd_implINS0_13DefaultCloserEEE",
   "size" : 8,
   "source_file" : "system/libbase/include/android-base/unique_fd.h"
  },
  {
   "alignment" : 8,
   "linker_set_key" : "_ZTIRKN7android4base8expectedINS0_14unique_fd_implINS0_13DefaultCloserEEENS_2nn12GeneralErrorEEE",
   "name" : "const android::base::expected<android::base::unique_fd_impl<android::base::DefaultCloser>, android::nn::GeneralError> &",
   "referenced_type" : "_ZTIKN7android4base8expectedINS0_14unique_fd_implINS0_13DefaultCloserEEENS_2nn12GeneralErrorEEE",
   "self_type" : "_ZTIRKN7android4base8expectedINS0_14unique_fd_implINS0_13DefaultCloserEEENS_2nn12GeneralErrorEEE",
   "size" : 8,
   "source_file" : "packages/modules/NeuralNetworks/common/include/nnapi/Result.h"
  },
  {
   "alignment" : 8,
   "linker_set_key" : "_ZTIRKN7android4base8expectedINS_2nn7MappingENS2_12GeneralErrorEEE",
   "name" : "const android::base::expected<android::nn::Mapping, android::nn::GeneralError> &",
   "referenced_type" : "_ZTIKN7android4base8expectedINS_2nn7MappingENS2_12GeneralErrorEEE",
   "self_type" : "_ZTIRKN7android4base8expectedINS_2nn7MappingENS2_12GeneralErrorEEE",
   "size" : 8,
   "source_file" : "system/libbase/include/android-base/expected.h"
  },
  {
   "alignment" : 8,
   "linker_set_key" : "_ZTIRKN7android4base8expectedINS_2nn7VersionENSt3__112basic_stringIcNS4_11char_traitsIcEENS4_9allocatorIcEEEEEE",
   "name" : "const android::base::expected<android::nn::Version, std::basic_string<char, std::char_traits<char>, std::allocator<char>>> &",
   "referenced_type" : "_ZTIKN7android4base8expectedINS_2nn7VersionENSt3__112basic_stringIcNS4_11char_traitsIcEENS4_9allocatorIcEEEEEE",
   "self_type" : "_ZTIRKN7android4base8expectedINS_2nn7VersionENSt3__112basic_stringIcNS4_11char_traitsIcEENS4_9allocatorIcEEEEEE",
   "size" : 8,
   "source_file" : "system/libbase/include/android-base/expected.h"
  },
  {
   "alignment" : 8,
   "linker_set_key" : "_ZTIRKN7android4base8expectedINS_8hardware11hidl_handleENS_2nn12GeneralErrorEEE",
   "name" : "const android::base::expected<android::hardware::hidl_handle, android::nn::GeneralError> &",
   "referenced_type" : "_ZTIKN7android4base8expectedINS_8hardware11hidl_handleENS_2nn12GeneralErrorEEE",
   "self_type" : "_ZTIRKN7android4base8expectedINS_8hardware11hidl_handleENS_2nn12GeneralErrorEEE",
   "size" : 8,
   "source_file" : "system/libbase/include/android-base/expected.h"
  },
  {
   "alignment" : 8,
   "linker_set_key" : "_ZTIRKN7android4base8expectedINSt3__110shared_ptrIKNS_2nn6MemoryEEENS4_12GeneralErrorEEE",
   "name" : "const android::base::expected<std::shared_ptr<const android::nn::Memory>, android::nn::GeneralError> &",
   "referenced_type" : "_ZTIKN7android4base8expectedINSt3__110shared_ptrIKNS_2nn6MemoryEEENS4_12GeneralErrorEEE",
   "self_type" : "_ZTIRKN7android4base8expectedINSt3__110shared_ptrIKNS_2nn6MemoryEEENS4_12GeneralErrorEEE",
   "size" : 8,
   "source_file" : "system/libbase/include/android-base/expected.h"
  },
  {
   "alignment" : 8,
   "linker_set_key" : "_ZTIRKN7android4base8expectedINSt3__16vectorINS0_14unique_fd_implINS0_13DefaultCloserEEENS2_9allocatorIS6_EEEENS_2nn12GeneralErrorEEE",
   "name" : "const android::base::expected<std::vector<android::base::unique_fd_impl<android::base::DefaultCloser>, std::allocator<android::base::unique_fd_impl<android::base::DefaultCloser>>>, android::nn::GeneralError> &",
   "referenced_type" : "_ZTIKN7android4base8expectedINSt3__16vectorINS0_14unique_fd_implINS0_13DefaultCloserEEENS2_9allocatorIS6_EEEENS_2nn12GeneralErrorEEE",
   "self_type" : "_ZTIRKN7android4base8expectedINSt3__16vectorINS0_14unique_fd_implINS0_13DefaultCloserEEENS2_9allocatorIS6_EEEENS_2nn12GeneralErrorEEE",
   "size" : 8,
   "source_file" : "system/libbase/include/android-base/expected.h"
  },
  {
   "alignment" : 8,
   "linker_set_key" : "_ZTIRKNSt3__110shared_ptrIKN7android2nn6MemoryEEE",
   "name" : "const std::shared_ptr<const android::nn::Memory> &",
   "referenced_type" : "_ZTIKNSt3__110shared_ptrIKN7android2nn6MemoryEEE",
   "self_type" : "_ZTIRKNSt3__110shared_ptrIKN7android2nn6MemoryEEE",
   "size" : 8,
   "source_file" : "packages/modules/NeuralNetworks/common/include/nnapi/SharedMemory.h"
  },
  {
   "alignment" : 8,
   "linker_set_key" : "_ZTIRKNSt3__112basic_stringIcNS_11char_traitsIcEENS_9allocatorIcEEEE",
   "name" : "const std::basic_string<char, std::char_traits<char>, std::allocator<char>> &",
   "referenced_type" : "_ZTIKNSt3__112basic_stringIcNS_11char_traitsIcEENS_9allocatorIcEEEE",
   "self_type" : "_ZTIRKNSt3__112basic_stringIcNS_11char_traitsIcEENS_9allocatorIcEEEE",
   "size" : 8,
   "source_file" : "packages/modules/NeuralNetworks/common/include/nnapi/Result.h"
  },
  {
   "alignment" : 8,
   "linker_set_key" : "_ZTIRKa",
   "name" : "const signed char &",
   "referenced_type" : "_ZTIKa",
   "self_type" : "_ZTIRKa",
   "size" : 8,
   "source_file" : "system/core/libutils/include/utils/TypeHelpers.h"
  },
  {
   "alignment" : 8,
   "linker_set_key" : "_ZTIRKb",
   "name" : "const bool &",
   "referenced_type" : "_ZTIKb",
   "self_type" : "_ZTIRKb",
   "size" : 8,
   "source_file" : "system/core/libutils/include/utils/TypeHelpers.h"
  },
  {
   "alignment" : 8,
   "linker_set_key" : "_ZTIRKd",
   "name" : "const double &",
   "referenced_type" : "_ZTIKd",
   "self_type" : "_ZTIRKd",
   "size" : 8,
   "source_file" : "system/core/libutils/include/utils/TypeHelpers.h"
  },
  {
   "alignment" : 8,
   "linker_set_key" : "_ZTIRKf",
   "name" : "const float &",
   "referenced_type" : "_ZTIKf",
   "self_type" : "_ZTIRKf",
   "size" : 8,
   "source_file" : "system/core/libutils/include/utils/TypeHelpers.h"
  },
  {
   "alignment" : 8,
   "linker_set_key" : "_ZTIRKh",
   "name" : "const unsigned char &",
   "referenced_type" : "_ZTIKh",
   "self_type" : "_ZTIRKh",
   "size" : 8,
   "source_file" : "system/core/libutils/include/utils/TypeHelpers.h"
  },
  {
   "alignment" : 8,
   "linker_set_key" : "_ZTIRKi",
   "name" : "const int &",
   "referenced_type" : "_ZTIKi",
   "self_type" : "_ZTIRKi",
   "size" : 8,
   "source_file" : "packages/modules/NeuralNetworks/common/include/nnapi/Result.h"
  },
  {
   "alignment" : 8,
   "linker_set_key" : "_ZTIRKj",
   "name" : "const unsigned int &",
   "referenced_type" : "_ZTIKj",
   "self_type" : "_ZTIRKj",
   "size" : 8,
   "source_file" : "system/libbase/include/android-base/logging.h"
  },
  {
   "alignment" : 8,
   "linker_set_key" : "_ZTIRKl",
   "name" : "const long &",
   "referenced_type" : "_ZTIKl",
   "self_type" : "_ZTIRKl",
   "size" : 8,
   "source_file" : "system/core/libutils/include/utils/TypeHelpers.h"
  },
  {
   "alignment" : 8,
   "linker_set_key" : "_ZTIRKm",
   "name" : "const unsigned long &",
   "referenced_type" : "_ZTIKm",
   "self_type" : "_ZTIRKm",
   "size" : 8,
   "source_file" : "system/libbase/include/android-base/logging.h"
  },
  {
   "alignment" : 8,
   "linker_set_key" : "_ZTIRKs",
   "name" : "const short &",
   "referenced_type" : "_ZTIKs",
   "self_type" : "_ZTIRKs",
   "size" : 8,
   "source_file" : "system/core/libutils/include/utils/TypeHelpers.h"
  },
  {
   "alignment" : 8,
   "linker_set_key" : "_ZTIRKt",
   "name" : "const unsigned short &",
   "referenced_type" : "_ZTIKt",
   "self_type" : "_ZTIRKt",
   "size" : 8,
   "source_file" : "system/core/libutils/include/utils/TypeHelpers.h"
  },
  {
   "alignment" : 8,
   "linker_set_key" : "_ZTIRN7android2nn12GeneralErrorE",
   "name" : "android::nn::GeneralError &",
   "referenced_type" : "_ZTIN7android2nn12GeneralErrorE",
   "self_type" : "_ZTIRN7android2nn12GeneralErrorE",
   "size" : 8,
   "source_file" : "system/libbase/include/android-base/expected.h"
  },
  {
   "alignment" : 8,
   "linker_set_key" : "_ZTIRN7android4base10unexpectedINS_2nn12GeneralErrorEEE",
   "name" : "android::base::unexpected<android::nn::GeneralError> &",
   "referenced_type" : "_ZTIN7android4base10unexpectedINS_2nn12GeneralErrorEEE",
   "self_type" : "_ZTIRN7android4base10unexpectedINS_2nn12GeneralErrorEEE",
   "size" : 8,
   "source_file" : "system/libbase/include/android-base/expected.h"
  },
  {
   "alignment" : 8,
   "linker_set_key" : "_ZTIRN7android4base10unexpectedINSt3__112basic_stringIcNS2_11char_traitsIcEENS2_9allocatorIcEEEEEE",
   "name" : "android::base::unexpected<std::basic_string<char, std::char_traits<char>, std::allocator<char>>> &",
   "referenced_type" : "_ZTIN7android4base10unexpectedINSt3__112basic_stringIcNS2_11char_traitsIcEENS2_9allocatorIcEEEEEE",
   "self_type" : "_ZTIRN7android4base10unexpectedINSt3__112basic_stringIcNS2_11char_traitsIcEENS2_9allocatorIcEEEEEE",
   "size" : 8,
   "source_file" : "system/libbase/include/android-base/expected.h"
  },
  {
   "alignment" : 8,
   "linker_set_key" : "_ZTIRN7android4base8expectedINS0_14unique_fd_implINS0_13DefaultCloserEEENS_2nn12GeneralErrorEEE",
   "name" : "android::base::expected<android::base::unique_fd_impl<android::base::DefaultCloser>, android::nn::GeneralError> &",
   "referenced_type" : "_ZTIN7android4base8expectedINS0_14unique_fd_implINS0_13DefaultCloserEEENS_2nn12GeneralErrorEEE",
   "self_type" : "_ZTIRN7android4base8expectedINS0_14unique_fd_implINS0_13DefaultCloserEEENS_2nn12GeneralErrorEEE",
   "size" : 8,
   "source_file" : "system/libbase/include/android-base/expected.h"
  },
  {
   "alignment" : 8,
   "linker_set_key" : "_ZTIRN7android4base8expectedINS_2nn7MappingENS2_12GeneralErrorEEE",
   "name" : "android::base::expected<android::nn::Mapping, android::nn::GeneralError> &",
   "referenced_type" : "_ZTIN7android4base8expectedINS_2nn7MappingENS2_12GeneralErrorEEE",
   "self_type" : "_ZTIRN7android4base8expectedINS_2nn7MappingENS2_12GeneralErrorEEE",
   "size" : 8,
   "source_file" : "system/libbase/include/android-base/expected.h"
  },
  {
   "alignment" : 8,
   "linker_set_key" : "_ZTIRN7android4base8expectedINS_2nn7VersionENSt3__112basic_stringIcNS4_11char_traitsIcEENS4_9allocatorIcEEEEEE",
   "name" : "android::base::expected<android::nn::Version, std::basic_string<char, std::char_traits<char>, std::allocator<char>>> &",
   "referenced_type" : "_ZTIN7android4base8expectedINS_2nn7VersionENSt3__112basic_stringIcNS4_11char_traitsIcEENS4_9allocatorIcEEEEEE",
   "self_type" : "_ZTIRN7android4base8expectedINS_2nn7VersionENSt3__112basic_stringIcNS4_11char_traitsIcEENS4_9allocatorIcEEEEEE",
   "size" : 8,
   "source_file" : "system/libbase/include/android-base/expected.h"
  },
  {
   "alignment" : 8,
   "linker_set_key" : "_ZTIRN7android4base8expectedINS_8hardware11hidl_handleENS_2nn12GeneralErrorEEE",
   "name" : "android::base::expected<android::hardware::hidl_handle, android::nn::GeneralError> &",
   "referenced_type" : "_ZTIN7android4base8expectedINS_8hardware11hidl_handleENS_2nn12GeneralErrorEEE",
   "self_type" : "_ZTIRN7android4base8expectedINS_8hardware11hidl_handleENS_2nn12GeneralErrorEEE",
   "size" : 8,
   "source_file" : "system/libbase/include/android-base/expected.h"
  },
  {
   "alignment" : 8,
   "linker_set_key" : "_ZTIRN7android4base8expectedINSt3__110shared_ptrIKNS_2nn6MemoryEEENS4_12GeneralErrorEEE",
   "name" : "android::base::expected<std::shared_ptr<const android::nn::Memory>, android::nn::GeneralError> &",
   "referenced_type" : "_ZTIN7android4base8expectedINSt3__110shared_ptrIKNS_2nn6MemoryEEENS4_12GeneralErrorEEE",
   "self_type" : "_ZTIRN7android4base8expectedINSt3__110shared_ptrIKNS_2nn6MemoryEEENS4_12GeneralErrorEEE",
   "size" : 8,
   "source_file" : "system/libbase/include/android-base/expected.h"
  },
  {
   "alignment" : 8,
   "linker_set_key" : "_ZTIRN7android4base8expectedINSt3__16vectorINS0_14unique_fd_implINS0_13DefaultCloserEEENS2_9allocatorIS6_EEEENS_2nn12GeneralErrorEEE",
   "name" : "android::base::expected<std::vector<android::base::unique_fd_impl<android::base::DefaultCloser>, std::allocator<android::base::unique_fd_impl<android::base::DefaultCloser>>>, android::nn::GeneralError> &",
   "referenced_type" : "_ZTIN7android4base8expectedINSt3__16vectorINS0_14unique_fd_implINS0_13DefaultCloserEEENS2_9allocatorIS6_EEEENS_2nn12GeneralErrorEEE",
   "self_type" : "_ZTIRN7android4base8expectedINSt3__16vectorINS0_14unique_fd_implINS0_13DefaultCloserEEENS2_9allocatorIS6_EEEENS_2nn12GeneralErrorEEE",
   "size" : 8,
   "source_file" : "system/libbase/include/android-base/expected.h"
  },
  {
   "alignment" : 8,
   "linker_set_key" : "_ZTIRNSt3__112basic_stringIcNS_11char_traitsIcEENS_9allocatorIcEEEE",
   "name" : "std::basic_string<char, std::char_traits<char>, std::allocator<char>> &",
   "referenced_type" : "_ZTINSt3__112basic_stringIcNS_11char_traitsIcEENS_9allocatorIcEEEE",
   "self_type" : "_ZTIRNSt3__112basic_stringIcNS_11char_traitsIcEENS_9allocatorIcEEEE",
   "size" : 8,
   "source_file" : "system/libbase/include/android-base/expected.h"
  },
  {
   "alignment" : 8,
   "linker_set_key" : "_ZTIRNSt3__113basic_ostreamIcNS_11char_traitsIcEEEE",
   "name" : "std::basic_ostream<char, std::char_traits<char>> &",
   "referenced_type" : "_ZTINSt3__113basic_ostreamIcNS_11char_traitsIcEEEE",
   "self_type" : "_ZTIRNSt3__113basic_ostreamIcNS_11char_traitsIcEEEE",
   "size" : 8,
   "source_file" : "system/libbase/include/android-base/logging.h"
  },
  {
   "alignment" : 8,
   "linker_set_key" : "_ZTIRm",
   "name" : "unsigned long &",
   "referenced_type" : "_ZTIm",
   "self_type" : "_ZTIRm",
   "size" : 8,
   "source_file" : "system/libbase/include/android-base/logging.h"
  }
 ],
 "pointer_types" :
 [
  {
   "alignment" : 8,
   "linker_set_key" : "_ZTIP13native_handle",
   "name" : "native_handle *",
   "referenced_type" : "_ZTI13native_handle",
   "self_type" : "_ZTIP13native_handle",
   "size" : 8,
   "source_file" : "system/core/libutils/include/utils/NativeHandle.h"
  },
  {
   "alignment" : 8,
   "linker_set_key" : "_ZTIP15AHardwareBuffer",
   "name" : "AHardwareBuffer *",
   "referenced_type" : "_ZTI15AHardwareBuffer",
   "self_type" : "_ZTIP15AHardwareBuffer",
   "size" : 8,
   "source_file" : "packages/modules/NeuralNetworks/common/include/nnapi/SharedMemory.h"
  },
  {
   "alignment" : 8,
   "linker_set_key" : "_ZTIP3DIR",
   "name" : "DIR *",
   "referenced_type" : "_ZTI3DIR",
   "self_type" : "_ZTIP3DIR",
   "size" : 8,
   "source_file" : "system/libbase/include/android-base/unique_fd.h"
  },
  {
   "alignment" : 8,
   "linker_set_key" : "_ZTIP7__sFILE",
   "name" : "__sFILE *",
   "referenced_type" : "_ZTI7__sFILE",
   "self_type" : "_ZTIP7__sFILE",
   "size" : 8,
   "source_file" : "system/libbase/include/android-base/unique_fd.h"
  },
  {
   "alignment" : 8,
   "linker_set_key" : "_ZTIPK13native_handle",
   "name" : "const native_handle *",
   "referenced_type" : "_ZTIK13native_handle",
   "self_type" : "_ZTIPK13native_handle",
   "size" : 8,
   "source_file" : "system/core/libutils/include/utils/NativeHandle.h"
  },
  {
   "alignment" : 8,
   "linker_set_key" : "_ZTIPKN7android12NativeHandleE",
   "name" : "const android::NativeHandle *",
   "referenced_type" : "_ZTIKN7android12NativeHandleE",
   "self_type" : "_ZTIPKN7android12NativeHandleE",
   "size" : 8,
   "source_file" : "system/core/libutils/include/utils/NativeHandle.h"
  },
  {
   "alignment" : 8,
   "linker_set_key" : "_ZTIPKN7android2spINS_4hidl4base4V1_05IBaseEEE",
   "name" : "const android::sp<android::hidl::base::V1_0::IBase> *",
   "referenced_type" : "_ZTIKN7android2spINS_4hidl4base4V1_05IBaseEEE",
   "self_type" : "_ZTIPKN7android2spINS_4hidl4base4V1_05IBaseEEE",
   "size" : 8,
   "source_file" : "system/core/libutils/include/utils/StrongPointer.h"
  },
  {
   "alignment" : 8,
   "linker_set_key" : "_ZTIPKN7android2spINS_4hidl6memory4V1_07IMemoryEEE",
   "name" : "const android::sp<android::hidl::memory::V1_0::IMemory> *",
   "referenced_type" : "_ZTIKN7android2spINS_4hidl6memory4V1_07IMemoryEEE",
   "self_type" : "_ZTIPKN7android2spINS_4hidl6memory4V1_07IMemoryEEE",
   "size" : 8,
   "source_file" : "system/core/libutils/include/utils/StrongPointer.h"
  },
  {
   "alignment" : 8,
   "linker_set_key" : "_ZTIPKN7android2spINS_4hidl7manager4V1_020IServiceNotificationEEE",
   "name" : "const android::sp<android::hidl::manager::V1_0::IServiceNotification> *",
   "referenced_type" : "_ZTIKN7android2spINS_4hidl7manager4V1_020IServiceNotificationEEE",
   "self_type" : "_ZTIPKN7android2spINS_4hidl7manager4V1_020IServiceNotificationEEE",
   "size" : 8,
   "source_file" : "system/core/libutils/include/utils/StrongPointer.h"
  },
  {
   "alignment" : 8,
   "linker_set_key" : "_ZTIPKN7android2spINS_4hidl9allocator4V1_010IAllocatorEEE",
   "name" : "const android::sp<android::hidl::allocator::V1_0::IAllocator> *",
   "referenced_type" : "_ZTIKN7android2spINS_4hidl9allocator4V1_010IAllocatorEEE",
   "self_type" : "_ZTIPKN7android2spINS_4hidl9allocator4V1_010IAllocatorEEE",
   "size" : 8,
   "source_file" : "system/core/libutils/include/utils/StrongPointer.h"
  },
  {
   "alignment" : 8,
   "linker_set_key" : "_ZTIPKN7android2spINS_8hardware20hidl_death_recipientEEE",
   "name" : "const android::sp<android::hardware::hidl_death_recipient> *",
   "referenced_type" : "_ZTIKN7android2spINS_8hardware20hidl_death_recipientEEE",
   "self_type" : "_ZTIPKN7android2spINS_8hardware20hidl_death_recipientEEE",
   "size" : 8,
   "source_file" : "system/core/libutils/include/utils/StrongPointer.h"
  },
  {
   "alignment" : 8,
   "linker_set_key" : "_ZTIPKN7android4base10MappedFileE",
   "name" : "const android::base::MappedFile *",
   "referenced_type" : "_ZTIKN7android4base10MappedFileE",
   "self_type" : "_ZTIPKN7android4base10MappedFileE",
   "size" : 8,
   "source_file" : "system/libbase/include/android-base/mapped_file.h"
  },
  {
   "alignment" : 8,
   "linker_set_key" : "_ZTIPKN7android4base11borrowed_fdE",
   "name" : "const android::base::borrowed_fd *",
   "referenced_type" : "_ZTIKN7android4base11borrowed_fdE",
   "self_type" : "_ZTIPKN7android4base11borrowed_fdE",
   "size" : 8,
   "source_file" : "system/libbase/include/android-base/unique_fd.h"
  },
  {
   "alignment" : 8,
   "linker_set_key" : "_ZTIPKN7android4base13ErrnoRestorerE",
   "name" : "const android::base::ErrnoRestorer *",
   "referenced_type" : "_ZTIKN7android4base13ErrnoRestorerE",
   "self_type" : "_ZTIPKN7android4base13ErrnoRestorerE",
   "size" : 8,
   "source_file" : "system/libbase/include/android-base/errno_restorer.h"
  },
  {
   "alignment" : 8,
   "linker_set_key" : "_ZTIPKN7android4base14unique_fd_implINS0_13DefaultCloserEEE",
   "name" : "const android::base::unique_fd_impl<android::base::DefaultCloser> *",
   "referenced_type" : "_ZTIKN7android4base14unique_fd_implINS0_13DefaultCloserEEE",
   "self_type" : "_ZTIPKN7android4base14unique_fd_implINS0_13DefaultCloserEEE",
   "size" : 8,
   "source_file" : "system/libbase/include/android-base/unique_fd.h"
  },
  {
   "alignment" : 8,
   "linker_set_key" : "_ZTIPKN7android4base5TimerE",
   "name" : "const android::base::Timer *",
   "referenced_type" : "_ZTIKN7android4base5TimerE",
   "self_type" : "_ZTIPKN7android4base5TimerE",
   "size" : 8,
   "source_file" : "system/libbase/include/android-base/chrono_utils.h"
  },
  {
   "alignment" : 8,
   "linker_set_key" : "_ZTIPKN7android4base8expectedINS0_14unique_fd_implINS0_13DefaultCloserEEENS_2nn12GeneralErrorEEE",
   "name" : "const android::base::expected<android::base::unique_fd_impl<android::base::DefaultCloser>, android::nn::GeneralError> *",
   "referenced_type" : "_ZTIKN7android4base8expectedINS0_14unique_fd_implINS0_13DefaultCloserEEENS_2nn12GeneralErrorEEE",
   "self_type" : "_ZTIPKN7android4base8expectedINS0_14unique_fd_implINS0_13DefaultCloserEEENS_2nn12GeneralErrorEEE",
   "size" : 8,
   "source_file" : "system/libbase/include/android-base/expected.h"
  },
  {
   "alignment" : 8,
   "linker_set_key" : "_ZTIPKN7android4base8expectedINS_8hardware11hidl_handleENS_2nn12GeneralErrorEEE",
   "name" : "const android::base::expected<android::hardware::hidl_handle, android::nn::GeneralError> *",
   "referenced_type" : "_ZTIKN7android4base8expectedINS_8hardware11hidl_handleENS_2nn12GeneralErrorEEE",
   "self_type" : "_ZTIPKN7android4base8expectedINS_8hardware11hidl_handleENS_2nn12GeneralErrorEEE",
   "size" : 8,
   "source_file" : "system/libbase/include/android-base/expected.h"
  },
  {
   "alignment" : 8,
   "linker_set_key" : "_ZTIPKN7android7RefBaseE",
   "name" : "const android::RefBase *",
   "referenced_type" : "_ZTIKN7android7RefBaseE",
   "self_type" : "_ZTIPKN7android7RefBaseE",
   "size" : 8,
   "source_file" : "system/core/libutils/include/utils/RefBase.h"
  },
  {
   "alignment" : 8,
   "linker_set_key" : "_ZTIPKNSt3__112basic_stringIcNS_11char_traitsIcEENS_9allocatorIcEEEE",
   "name" : "const std::basic_string<char, std::char_traits<char>, std::allocator<char>> *",
   "referenced_type" : "_ZTIKNSt3__112basic_stringIcNS_11char_traitsIcEENS_9allocatorIcEEEE",
   "self_type" : "_ZTIPKNSt3__112basic_stringIcNS_11char_traitsIcEENS_9allocatorIcEEEE",
   "size" : 8,
   "source_file" : "system/libbase/include/android-base/logging.h"
  },
  {
   "alignment" : 8,
   "linker_set_key" : "_ZTIPKc",
   "name" : "const char *",
   "referenced_type" : "_ZTIKc",
   "self_type" : "_ZTIPKc",
   "size" : 8,
   "source_file" : "system/libbase/include/android-base/logging.h"
  },
  {
   "alignment" : 8,
   "linker_set_key" : "_ZTIPKv",
   "name" : "const void *",
   "referenced_type" : "_ZTIKv",
   "self_type" : "_ZTIPKv",
   "size" : 8,
   "source_file" : "packages/modules/NeuralNetworks/common/include/nnapi/SharedMemory.h"
  },
  {
   "alignment" : 8,
   "linker_set_key" : "_ZTIPN7android16ReferenceRenamerE",
   "name" : "android::ReferenceRenamer *",
   "referenced_type" : "_ZTIN7android16ReferenceRenamerE",
   "self_type" : "_ZTIPN7android16ReferenceRenamerE",
   "size" : 8,
   "source_file" : "system/core/libutils/include/utils/RefBase.h"
  },
  {
   "alignment" : 8,
   "linker_set_key" : "_ZTIPN7android19VirtualLightRefBaseE",
   "name" : "android::VirtualLightRefBase *",
   "referenced_type" : "_ZTIN7android19VirtualLightRefBaseE",
   "self_type" : "_ZTIPN7android19VirtualLightRefBaseE",
   "size" : 8,
   "source_file" : "system/core/libutils/include/utils/LightRefBase.h"
  },
  {
   "alignment" : 8,
   "linker_set_key" : "_ZTIPN7android2nn6detail12ErrorBuilderIJEEE",
   "name" : "android::nn::detail::ErrorBuilder<> *",
   "referenced_type" : "_ZTIN7android2nn6detail12ErrorBuilderIJEEE",
   "self_type" : "_ZTIPN7android2nn6detail12ErrorBuilderIJEEE",
   "size" : 8,
   "source_file" : "packages/modules/NeuralNetworks/common/include/nnapi/Result.h"
  },
  {
   "alignment" : 8,
   "linker_set_key" : "_ZTIPN7android2nn6detail12ErrorBuilderIJNS0_11ErrorStatusEEEE",
   "name" : "android::nn::detail::ErrorBuilder<ErrorStatus> *",
   "referenced_type" : "_ZTIN7android2nn6detail12ErrorBuilderIJNS0_11ErrorStatusEEEE",
   "self_type" : "_ZTIPN7android2nn6detail12ErrorBuilderIJNS0_11ErrorStatusEEEE",
   "size" : 8,
   "source_file" : "packages/modules/NeuralNetworks/common/include/nnapi/Result.h"
  },
  {
   "alignment" : 8,
   "linker_set_key" : "_ZTIPN7android2spINS_4hidl6memory4V1_07IMemoryEEE",
   "name" : "android::sp<android::hidl::memory::V1_0::IMemory> *",
   "referenced_type" : "_ZTIN7android2spINS_4hidl6memory4V1_07IMemoryEEE",
   "self_type" : "_ZTIPN7android2spINS_4hidl6memory4V1_07IMemoryEEE",
   "size" : 8,
   "source_file" : "system/core/libutils/include/utils/StrongPointer.h"
  },
  {
   "alignment" : 8,
   "linker_set_key" : "_ZTIPN7android2spINS_4hidl7manager4V1_020IServiceNotificationEEE",
   "name" : "android::sp<android::hidl::manager::V1_0::IServiceNotification> *",
   "referenced_type" : "_ZTIN7android2spINS_4hidl7manager4V1_020IServiceNotificationEEE",
   "self_type" : "_ZTIPN7android2spINS_4hidl7manager4V1_020IServiceNotificationEEE",
   "size" : 8,
   "source_file" : "system/core/libutils/include/utils/StrongPointer.h"
  },
  {
   "alignment" : 8,
   "linker_set_key" : "_ZTIPN7android2spINS_4hidl9allocator4V1_010IAllocatorEEE",
   "name" : "android::sp<android::hidl::allocator::V1_0::IAllocator> *",
   "referenced_type" : "_ZTIN7android2spINS_4hidl9allocator4V1_010IAllocatorEEE",
   "self_type" : "_ZTIPN7android2spINS_4hidl9allocator4V1_010IAllocatorEEE",
   "size" : 8,
   "source_file" : "system/core/libutils/include/utils/StrongPointer.h"
  },
  {
   "alignment" : 8,
   "linker_set_key" : "_ZTIPN7android4base10MappedFileE",
   "name" : "android::base::MappedFile *",
   "referenced_type" : "_ZTIN7android4base10MappedFileE",
   "self_type" : "_ZTIPN7android4base10MappedFileE",
   "size" : 8,
   "source_file" : "system/libbase/include/android-base/mapped_file.h"
  },
  {
   "alignment" : 8,
   "linker_set_key" : "_ZTIPN7android4base10log_detail14EagerEvaluatorImjEE",
   "name" : "android::base::log_detail::EagerEvaluator<unsigned long, unsigned int> *",
   "referenced_type" : "_ZTIN7android4base10log_detail14EagerEvaluatorImjEE",
   "self_type" : "_ZTIPN7android4base10log_detail14EagerEvaluatorImjEE",
   "size" : 8,
   "source_file" : "system/libbase/include/android-base/logging.h"
  },
  {
   "alignment" : 8,
   "linker_set_key" : "_ZTIPN7android4base10log_detail14EagerEvaluatorImmEE",
   "name" : "android::base::log_detail::EagerEvaluator<unsigned long, unsigned long> *",
   "referenced_type" : "_ZTIN7android4base10log_detail14EagerEvaluatorImmEE",
   "self_type" : "_ZTIPN7android4base10log_detail14EagerEvaluatorImmEE",
   "size" : 8,
   "source_file" : "system/libbase/include/android-base/logging.h"
  },
  {
   "alignment" : 8,
   "linker_set_key" : "_ZTIPN7android4base10log_detail7StorageIjEE",
   "name" : "android::base::log_detail::Storage<unsigned int> *",
   "referenced_type" : "_ZTIN7android4base10log_detail7StorageIjEE",
   "self_type" : "_ZTIPN7android4base10log_detail7StorageIjEE",
   "size" : 8,
   "source_file" : "system/libbase/include/android-base/logging.h"
  },
  {
   "alignment" : 8,
   "linker_set_key" : "_ZTIPN7android4base10log_detail7StorageImEE",
   "name" : "android::base::log_detail::Storage<unsigned long> *",
   "referenced_type" : "_ZTIN7android4base10log_detail7StorageImEE",
   "self_type" : "_ZTIPN7android4base10log_detail7StorageImEE",
   "size" : 8,
   "source_file" : "system/libbase/include/android-base/logging.h"
  },
  {
   "alignment" : 8,
   "linker_set_key" : "_ZTIPN7android4base10unexpect_tE",
   "name" : "android::base::unexpect_t *",
   "referenced_type" : "_ZTIN7android4base10unexpect_tE",
   "self_type" : "_ZTIPN7android4base10unexpect_tE",
   "size" : 8,
   "source_file" : "system/libbase/include/android-base/expected.h"
  },
  {
   "alignment" : 8,
   "linker_set_key" : "_ZTIPN7android4base10unexpectedINS_2nn12GeneralErrorEEE",
   "name" : "android::base::unexpected<android::nn::GeneralError> *",
   "referenced_type" : "_ZTIN7android4base10unexpectedINS_2nn12GeneralErrorEEE",
   "self_type" : "_ZTIPN7android4base10unexpectedINS_2nn12GeneralErrorEEE",
   "size" : 8,
   "source_file" : "system/libbase/include/android-base/expected.h"
  },
  {
   "alignment" : 8,
   "linker_set_key" : "_ZTIPN7android4base10unexpectedINSt3__112basic_stringIcNS2_11char_traitsIcEENS2_9allocatorIcEEEEEE",
   "name" : "android::base::unexpected<std::basic_string<char, std::char_traits<char>, std::allocator<char>>> *",
   "referenced_type" : "_ZTIN7android4base10unexpectedINSt3__112basic_stringIcNS2_11char_traitsIcEENS2_9allocatorIcEEEEEE",
   "self_type" : "_ZTIPN7android4base10unexpectedINSt3__112basic_stringIcNS2_11char_traitsIcEENS2_9allocatorIcEEEEEE",
   "size" : 8,
   "source_file" : "system/libbase/include/android-base/expected.h"
  },
  {
   "alignment" : 8,
   "linker_set_key" : "_ZTIPN7android4base11borrowed_fdE",
   "name" : "android::base::borrowed_fd *",
   "referenced_type" : "_ZTIN7android4base11borrowed_fdE",
   "self_type" : "_ZTIPN7android4base11borrowed_fdE",
   "size" : 8,
   "source_file" : "system/libbase/include/android-base/unique_fd.h"
  },
  {
   "alignment" : 8,
   "linker_set_key" : "_ZTIPN7android4base13ErrnoRestorerE",
   "name" : "android::base::ErrnoRestorer *",
   "referenced_type" : "_ZTIN7android4base13ErrnoRestorerE",
   "self_type" : "_ZTIPN7android4base13ErrnoRestorerE",
   "size" : 8,
   "source_file" : "system/libbase/include/android-base/errno_restorer.h"
  },
  {
   "alignment" : 8,
   "linker_set_key" : "_ZTIPN7android4base14unique_fd_implINS0_13DefaultCloserEEE",
   "name" : "android::base::unique_fd_impl<android::base::DefaultCloser> *",
   "referenced_type" : "_ZTIN7android4base14unique_fd_implINS0_13DefaultCloserEEE",
   "self_type" : "_ZTIPN7android4base14unique_fd_implINS0_13DefaultCloserEEE",
   "size" : 8,
   "source_file" : "system/libbase/include/android-base/unique_fd.h"
  },
  {
   "alignment" : 8,
   "linker_set_key" : "_ZTIPN7android4base5TimerE",
   "name" : "android::base::Timer *",
   "referenced_type" : "_ZTIN7android4base5TimerE",
   "self_type" : "_ZTIPN7android4base5TimerE",
   "size" : 8,
   "source_file" : "system/libbase/include/android-base/chrono_utils.h"
  },
  {
   "alignment" : 8,
   "linker_set_key" : "_ZTIPN7android4base8expectedINS0_14unique_fd_implINS0_13DefaultCloserEEENS_2nn12GeneralErrorEEE",
   "name" : "android::base::expected<android::base::unique_fd_impl<android::base::DefaultCloser>, android::nn::GeneralError> *",
   "referenced_type" : "_ZTIN7android4base8expectedINS0_14unique_fd_implINS0_13DefaultCloserEEENS_2nn12GeneralErrorEEE",
   "self_type" : "_ZTIPN7android4base8expectedINS0_14unique_fd_implINS0_13DefaultCloserEEENS_2nn12GeneralErrorEEE",
   "size" : 8,
   "source_file" : "system/libbase/include/android-base/expected.h"
  },
  {
   "alignment" : 8,
   "linker_set_key" : "_ZTIPN7android4base8expectedINS_2nn7MappingENS2_12GeneralErrorEEE",
   "name" : "android::base::expected<android::nn::Mapping, android::nn::GeneralError> *",
   "referenced_type" : "_ZTIN7android4base8expectedINS_2nn7MappingENS2_12GeneralErrorEEE",
   "self_type" : "_ZTIPN7android4base8expectedINS_2nn7MappingENS2_12GeneralErrorEEE",
   "size" : 8,
   "source_file" : "system/libbase/include/android-base/expected.h"
  },
  {
   "alignment" : 8,
   "linker_set_key" : "_ZTIPN7android4base8expectedINS_2nn7VersionENSt3__112basic_stringIcNS4_11char_traitsIcEENS4_9allocatorIcEEEEEE",
   "name" : "android::base::expected<android::nn::Version, std::basic_string<char, std::char_traits<char>, std::allocator<char>>> *",
   "referenced_type" : "_ZTIN7android4base8expectedINS_2nn7VersionENSt3__112basic_stringIcNS4_11char_traitsIcEENS4_9allocatorIcEEEEEE",
   "self_type" : "_ZTIPN7android4base8expectedINS_2nn7VersionENSt3__112basic_stringIcNS4_11char_traitsIcEENS4_9allocatorIcEEEEEE",
   "size" : 8,
   "source_file" : "system/libbase/include/android-base/expected.h"
  },
  {
   "alignment" : 8,
   "linker_set_key" : "_ZTIPN7android4base8expectedINS_8hardware11hidl_handleENS_2nn12GeneralErrorEEE",
   "name" : "android::base::expected<android::hardware::hidl_handle, android::nn::GeneralError> *",
   "referenced_type" : "_ZTIN7android4base8expectedINS_8hardware11hidl_handleENS_2nn12GeneralErrorEEE",
   "self_type" : "_ZTIPN7android4base8expectedINS_8hardware11hidl_handleENS_2nn12GeneralErrorEEE",
   "size" : 8,
   "source_file" : "system/libbase/include/android-base/expected.h"
  },
  {
   "alignment" : 8,
   "linker_set_key" : "_ZTIPN7android4base8expectedINSt3__110shared_ptrIKNS_2nn6MemoryEEENS4_12GeneralErrorEEE",
   "name" : "android::base::expected<std::shared_ptr<const android::nn::Memory>, android::nn::GeneralError> *",
   "referenced_type" : "_ZTIN7android4base8expectedINSt3__110shared_ptrIKNS_2nn6MemoryEEENS4_12GeneralErrorEEE",
   "self_type" : "_ZTIPN7android4base8expectedINSt3__110shared_ptrIKNS_2nn6MemoryEEENS4_12GeneralErrorEEE",
   "size" : 8,
   "source_file" : "system/libbase/include/android-base/expected.h"
  },
  {
   "alignment" : 8,
   "linker_set_key" : "_ZTIPN7android4base8expectedINSt3__16vectorINS0_14unique_fd_implINS0_13DefaultCloserEEENS2_9allocatorIS6_EEEENS_2nn12GeneralErrorEEE",
   "name" : "android::base::expected<std::vector<android::base::unique_fd_impl<android::base::DefaultCloser>, std::allocator<android::base::unique_fd_impl<android::base::DefaultCloser>>>, android::nn::GeneralError> *",
   "referenced_type" : "_ZTIN7android4base8expectedINSt3__16vectorINS0_14unique_fd_implINS0_13DefaultCloserEEENS2_9allocatorIS6_EEEENS_2nn12GeneralErrorEEE",
   "self_type" : "_ZTIPN7android4base8expectedINSt3__16vectorINS0_14unique_fd_implINS0_13DefaultCloserEEENS2_9allocatorIS6_EEEENS_2nn12GeneralErrorEEE",
   "size" : 8,
   "source_file" : "system/libbase/include/android-base/expected.h"
  },
  {
   "alignment" : 8,
   "linker_set_key" : "_ZTIPN7android4hidl4base4V1_05IBaseE",
   "name" : "android::hidl::base::V1_0::IBase *",
   "referenced_type" : "_ZTIN7android4hidl4base4V1_05IBaseE",
   "self_type" : "_ZTIPN7android4hidl4base4V1_05IBaseE",
   "size" : 8,
   "source_file" : "system/core/libutils/include/utils/StrongPointer.h"
  },
  {
   "alignment" : 8,
   "linker_set_key" : "_ZTIPN7android4hidl6memory4V1_07IMemoryE",
   "name" : "android::hidl::memory::V1_0::IMemory *",
   "referenced_type" : "_ZTIN7android4hidl6memory4V1_07IMemoryE",
   "self_type" : "_ZTIPN7android4hidl6memory4V1_07IMemoryE",
   "size" : 8,
   "source_file" : "system/core/libutils/include/utils/StrongPointer.h"
  },
  {
   "alignment" : 8,
   "linker_set_key" : "_ZTIPN7android4hidl7manager4V1_020IServiceNotificationE",
   "name" : "android::hidl::manager::V1_0::IServiceNotification *",
   "referenced_type" : "_ZTIN7android4hidl7manager4V1_020IServiceNotificationE",
   "self_type" : "_ZTIPN7android4hidl7manager4V1_020IServiceNotificationE",
   "size" : 8,
   "source_file" : "system/core/libutils/include/utils/StrongPointer.h"
  },
  {
   "alignment" : 8,
   "linker_set_key" : "_ZTIPN7android4hidl9allocator4V1_010IAllocatorE",
   "name" : "android::hidl::allocator::V1_0::IAllocator *",
   "referenced_type" : "_ZTIN7android4hidl9allocator4V1_010IAllocatorE",
   "self_type" : "_ZTIPN7android4hidl9allocator4V1_010IAllocatorE",
   "size" : 8,
   "source_file" : "system/core/libutils/include/utils/StrongPointer.h"
  },
  {
   "alignment" : 8,
   "linker_set_key" : "_ZTIPN7android7RefBase12weakref_implE",
   "name" : "android::RefBase::weakref_impl *",
   "referenced_type" : "_ZTIN7android7RefBase12weakref_implE",
   "self_type" : "_ZTIPN7android7RefBase12weakref_implE",
   "size" : 8,
   "source_file" : "system/core/libutils/include/utils/RefBase.h"
  },
  {
   "alignment" : 8,
   "linker_set_key" : "_ZTIPN7android7RefBaseE",
   "name" : "android::RefBase *",
   "referenced_type" : "_ZTIN7android7RefBaseE",
   "self_type" : "_ZTIPN7android7RefBaseE",
   "size" : 8,
   "source_file" : "system/core/libutils/include/utils/RefBase.h"
  },
  {
   "alignment" : 8,
   "linker_set_key" : "_ZTIPN7android8hardware20hidl_death_recipientE",
   "name" : "android::hardware::hidl_death_recipient *",
   "referenced_type" : "_ZTIN7android8hardware20hidl_death_recipientE",
   "self_type" : "_ZTIPN7android8hardware20hidl_death_recipientE",
   "size" : 8,
   "source_file" : "system/core/libutils/include/utils/StrongPointer.h"
  },
  {
   "alignment" : 8,
   "linker_set_key" : "_ZTIPc",
   "name" : "char *",
   "referenced_type" : "_ZTIc",
   "self_type" : "_ZTIPc",
   "size" : 8,
   "source_file" : "system/libbase/include/android-base/logging.h"
  },
  {
   "alignment" : 8,
   "linker_set_key" : "_ZTIPv",
   "name" : "void *",
   "referenced_type" : "_ZTIv",
   "self_type" : "_ZTIPv",
   "size" : 8,
   "source_file" : "system/libbase/include/android-base/unique_fd.h"
  }
 ],
 "qualified_types" :
 [
  {
   "alignment" : 1,
   "is_const" : true,
   "linker_set_key" : "_ZTIA21_Kc",
   "name" : "char const[21]",
   "referenced_type" : "_ZTIA21_c",
   "self_type" : "_ZTIA21_Kc",
   "size" : 21,
   "source_file" : "packages/modules/NeuralNetworks/common/include/nnapi/Result.h"
  },
  {
   "alignment" : 1,
   "is_const" : true,
   "linker_set_key" : "_ZTIA24_Kc",
   "name" : "char const[24]",
   "referenced_type" : "_ZTIA24_c",
   "self_type" : "_ZTIA24_Kc",
   "size" : 24,
   "source_file" : "packages/modules/NeuralNetworks/common/include/nnapi/Result.h"
  },
  {
   "alignment" : 1,
   "is_const" : true,
   "linker_set_key" : "_ZTIA25_Kc",
   "name" : "char const[25]",
   "referenced_type" : "_ZTIA25_c",
   "self_type" : "_ZTIA25_Kc",
   "size" : 25,
   "source_file" : "packages/modules/NeuralNetworks/common/include/nnapi/Result.h"
  },
  {
   "alignment" : 1,
   "is_const" : true,
   "linker_set_key" : "_ZTIA26_Kc",
   "name" : "char const[26]",
   "referenced_type" : "_ZTIA26_c",
   "self_type" : "_ZTIA26_Kc",
   "size" : 26,
   "source_file" : "packages/modules/NeuralNetworks/common/include/nnapi/Result.h"
  },
  {
   "alignment" : 1,
   "is_const" : true,
   "linker_set_key" : "_ZTIA2_Kc",
   "name" : "char const[2]",
   "referenced_type" : "_ZTIA2_c",
   "self_type" : "_ZTIA2_Kc",
   "size" : 2,
   "source_file" : "packages/modules/NeuralNetworks/common/include/nnapi/Result.h"
  },
  {
   "alignment" : 1,
   "is_const" : true,
   "linker_set_key" : "_ZTIA30_Kc",
   "name" : "char const[30]",
   "referenced_type" : "_ZTIA30_c",
   "self_type" : "_ZTIA30_Kc",
   "size" : 30,
   "source_file" : "packages/modules/NeuralNetworks/common/include/nnapi/Result.h"
  },
  {
   "alignment" : 1,
   "is_const" : true,
   "linker_set_key" : "_ZTIA31_Kc",
   "name" : "char const[31]",
   "referenced_type" : "_ZTIA31_c",
   "self_type" : "_ZTIA31_Kc",
   "size" : 31,
   "source_file" : "packages/modules/NeuralNetworks/common/include/nnapi/Result.h"
  },
  {
   "alignment" : 1,
   "is_const" : true,
   "linker_set_key" : "_ZTIA32_Kc",
   "name" : "char const[32]",
   "referenced_type" : "_ZTIA32_c",
   "self_type" : "_ZTIA32_Kc",
   "size" : 32,
   "source_file" : "packages/modules/NeuralNetworks/common/include/nnapi/Result.h"
  },
  {
   "alignment" : 1,
   "is_const" : true,
   "linker_set_key" : "_ZTIA33_Kc",
   "name" : "char const[33]",
   "referenced_type" : "_ZTIA33_c",
   "self_type" : "_ZTIA33_Kc",
   "size" : 33,
   "source_file" : "packages/modules/NeuralNetworks/common/include/nnapi/Result.h"
  },
  {
   "alignment" : 1,
   "is_const" : true,
   "linker_set_key" : "_ZTIA3_Kc",
   "name" : "char const[3]",
   "referenced_type" : "_ZTIA3_c",
   "self_type" : "_ZTIA3_Kc",
   "size" : 3,
   "source_file" : "packages/modules/NeuralNetworks/common/include/nnapi/Result.h"
  },
  {
   "alignment" : 1,
   "is_const" : true,
   "linker_set_key" : "_ZTIA40_Kc",
   "name" : "char const[40]",
   "referenced_type" : "_ZTIA40_c",
   "self_type" : "_ZTIA40_Kc",
   "size" : 40,
   "source_file" : "packages/modules/NeuralNetworks/common/include/nnapi/Result.h"
  },
  {
   "alignment" : 1,
   "is_const" : true,
   "linker_set_key" : "_ZTIA42_Kc",
   "name" : "char const[42]",
   "referenced_type" : "_ZTIA42_c",
   "self_type" : "_ZTIA42_Kc",
   "size" : 42,
   "source_file" : "packages/modules/NeuralNetworks/common/include/nnapi/Result.h"
  },
  {
   "alignment" : 1,
   "is_const" : true,
   "linker_set_key" : "_ZTIA46_Kc",
   "name" : "char const[46]",
   "referenced_type" : "_ZTIA46_c",
   "self_type" : "_ZTIA46_Kc",
   "size" : 46,
   "source_file" : "packages/modules/NeuralNetworks/common/include/nnapi/Result.h"
  },
  {
   "alignment" : 1,
   "is_const" : true,
   "linker_set_key" : "_ZTIA61_Kc",
   "name" : "char const[61]",
   "referenced_type" : "_ZTIA61_c",
   "self_type" : "_ZTIA61_Kc",
   "size" : 61,
   "source_file" : "packages/modules/NeuralNetworks/common/include/nnapi/Result.h"
  },
  {
   "alignment" : 1,
   "is_const" : true,
   "linker_set_key" : "_ZTIA63_Kc",
   "name" : "char const[63]",
   "referenced_type" : "_ZTIA63_c",
   "self_type" : "_ZTIA63_Kc",
   "size" : 63,
   "source_file" : "packages/modules/NeuralNetworks/common/include/nnapi/Result.h"
  },
  {
   "alignment" : 1,
   "is_const" : true,
   "linker_set_key" : "_ZTIA84_Kc",
   "name" : "char const[84]",
   "referenced_type" : "_ZTIA84_c",
   "self_type" : "_ZTIA84_Kc",
   "size" : 84,
   "source_file" : "packages/modules/NeuralNetworks/common/include/nnapi/Result.h"
  },
  {
   "alignment" : 4,
   "is_const" : true,
   "linker_set_key" : "_ZTIK13native_handle",
   "name" : "const native_handle",
   "referenced_type" : "_ZTI13native_handle",
   "self_type" : "_ZTIK13native_handle",
   "size" : 12,
   "source_file" : "system/core/libutils/include/utils/NativeHandle.h"
  },
  {
   "alignment" : 8,
   "is_const" : true,
   "linker_set_key" : "_ZTIKDn",
   "name" : "const nullptr_t",
   "referenced_type" : "_ZTIDn",
   "self_type" : "_ZTIKDn",
   "size" : 8,
   "source_file" : "system/libbase/include/android-base/logging.h"
  },
  {
   "alignment" : 8,
   "is_const" : true,
   "linker_set_key" : "_ZTIKN7android12NativeHandleE",
   "name" : "const android::NativeHandle",
   "referenced_type" : "_ZTIN7android12NativeHandleE",
   "self_type" : "_ZTIKN7android12NativeHandleE",
   "size" : 24,
   "source_file" : "system/core/libutils/include/utils/NativeHandle.h"
  },
  {
   "alignment" : 8,
   "is_const" : true,
   "linker_set_key" : "_ZTIKN7android2nn6Memory14HardwareBufferE",
   "name" : "const android::nn::Memory::HardwareBuffer",
   "referenced_type" : "_ZTIN7android2nn6Memory14HardwareBufferE",
   "self_type" : "_ZTIKN7android2nn6Memory14HardwareBufferE",
   "size" : 16,
   "source_file" : "packages/modules/NeuralNetworks/common/include/nnapi/SharedMemory.h"
  },
  {
   "alignment" : 8,
   "is_const" : true,
   "linker_set_key" : "_ZTIKN7android2nn7MappingE",
   "name" : "const android::nn::Mapping",
   "referenced_type" : "_ZTIN7android2nn7MappingE",
   "self_type" : "_ZTIKN7android2nn7MappingE",
   "size" : 56,
   "source_file" : "packages/modules/NeuralNetworks/common/include/nnapi/SharedMemory.h"
  },
  {
   "alignment" : 8,
   "is_const" : true,
   "linker_set_key" : "_ZTIKN7android2spINS_4hidl4base4V1_05IBaseEEE",
   "name" : "const android::sp<android::hidl::base::V1_0::IBase>",
   "referenced_type" : "_ZTIN7android2spINS_4hidl4base4V1_05IBaseEEE",
   "self_type" : "_ZTIKN7android2spINS_4hidl4base4V1_05IBaseEEE",
   "size" : 8,
   "source_file" : "system/core/libutils/include/utils/StrongPointer.h"
  },
  {
   "alignment" : 8,
   "is_const" : true,
   "linker_set_key" : "_ZTIKN7android2spINS_4hidl6memory4V1_07IMemoryEEE",
   "name" : "const android::sp<android::hidl::memory::V1_0::IMemory>",
   "referenced_type" : "_ZTIN7android2spINS_4hidl6memory4V1_07IMemoryEEE",
   "self_type" : "_ZTIKN7android2spINS_4hidl6memory4V1_07IMemoryEEE",
   "size" : 8,
   "source_file" : "system/core/libutils/include/utils/StrongPointer.h"
  },
  {
   "alignment" : 8,
   "is_const" : true,
   "linker_set_key" : "_ZTIKN7android2spINS_4hidl7manager4V1_020IServiceNotificationEEE",
   "name" : "const android::sp<android::hidl::manager::V1_0::IServiceNotification>",
   "referenced_type" : "_ZTIN7android2spINS_4hidl7manager4V1_020IServiceNotificationEEE",
   "self_type" : "_ZTIKN7android2spINS_4hidl7manager4V1_020IServiceNotificationEEE",
   "size" : 8,
   "source_file" : "system/core/libutils/include/utils/StrongPointer.h"
  },
  {
   "alignment" : 8,
   "is_const" : true,
   "linker_set_key" : "_ZTIKN7android2spINS_4hidl9allocator4V1_010IAllocatorEEE",
   "name" : "const android::sp<android::hidl::allocator::V1_0::IAllocator>",
   "referenced_type" : "_ZTIN7android2spINS_4hidl9allocator4V1_010IAllocatorEEE",
   "self_type" : "_ZTIKN7android2spINS_4hidl9allocator4V1_010IAllocatorEEE",
   "size" : 8,
   "source_file" : "system/core/libutils/include/utils/StrongPointer.h"
  },
  {
   "alignment" : 8,
   "is_const" : true,
   "linker_set_key" : "_ZTIKN7android2spINS_8hardware20hidl_death_recipientEEE",
   "name" : "const android::sp<android::hardware::hidl_death_recipient>",
   "referenced_type" : "_ZTIN7android2spINS_8hardware20hidl_death_recipientEEE",
   "self_type" : "_ZTIKN7android2spINS_8hardware20hidl_death_recipientEEE",
   "size" : 8,
   "source_file" : "system/core/libutils/include/utils/StrongPointer.h"
  },
  {
   "alignment" : 8,
   "is_const" : true,
   "linker_set_key" : "_ZTIKN7android4base10MappedFileE",
   "name" : "const android::base::MappedFile",
   "referenced_type" : "_ZTIN7android4base10MappedFileE",
   "self_type" : "_ZTIKN7android4base10MappedFileE",
   "size" : 24,
   "source_file" : "system/libbase/include/android-base/mapped_file.h"
  },
  {
   "alignment" : 4,
   "is_const" : true,
   "linker_set_key" : "_ZTIKN7android4base10log_detail7StorageIjEE",
   "name" : "const android::base::log_detail::Storage<unsigned int>",
   "referenced_type" : "_ZTIN7android4base10log_detail7StorageIjEE",
   "self_type" : "_ZTIKN7android4base10log_detail7StorageIjEE",
   "size" : 4,
   "source_file" : "system/libbase/include/android-base/logging.h"
  },
  {
   "alignment" : 8,
   "is_const" : true,
   "linker_set_key" : "_ZTIKN7android4base10log_detail7StorageImEE",
   "name" : "const android::base::log_detail::Storage<unsigned long>",
   "referenced_type" : "_ZTIN7android4base10log_detail7StorageImEE",
   "self_type" : "_ZTIKN7android4base10log_detail7StorageImEE",
   "size" : 8,
   "source_file" : "system/libbase/include/android-base/logging.h"
  },
  {
   "alignment" : 1,
   "is_const" : true,
   "linker_set_key" : "_ZTIKN7android4base10unexpect_tE",
   "name" : "const android::base::unexpect_t",
   "referenced_type" : "_ZTIN7android4base10unexpect_tE",
   "self_type" : "_ZTIKN7android4base10unexpect_tE",
   "size" : 1,
   "source_file" : "system/libbase/include/android-base/expected.h"
  },
  {
   "alignment" : 8,
   "is_const" : true,
   "linker_set_key" : "_ZTIKN7android4base10unexpectedINS_2nn12GeneralErrorEEE",
   "name" : "const android::base::unexpected<android::nn::GeneralError>",
   "referenced_type" : "_ZTIN7android4base10unexpectedINS_2nn12GeneralErrorEEE",
   "self_type" : "_ZTIKN7android4base10unexpectedINS_2nn12GeneralErrorEEE",
   "size" : 32,
   "source_file" : "system/libbase/include/android-base/expected.h"
  },
  {
   "alignment" : 8,
   "is_const" : true,
   "linker_set_key" : "_ZTIKN7android4base10unexpectedINSt3__112basic_stringIcNS2_11char_traitsIcEENS2_9allocatorIcEEEEEE",
   "name" : "const android::base::unexpected<std::basic_string<char, std::char_traits<char>, std::allocator<char>>>",
   "referenced_type" : "_ZTIN7android4base10unexpectedINSt3__112basic_stringIcNS2_11char_traitsIcEENS2_9allocatorIcEEEEEE",
   "self_type" : "_ZTIKN7android4base10unexpectedINSt3__112basic_stringIcNS2_11char_traitsIcEENS2_9allocatorIcEEEEEE",
   "size" : 24,
   "source_file" : "system/libbase/include/android-base/expected.h"
  },
  {
   "alignment" : 4,
   "is_const" : true,
   "linker_set_key" : "_ZTIKN7android4base11borrowed_fdE",
   "name" : "const android::base::borrowed_fd",
   "referenced_type" : "_ZTIN7android4base11borrowed_fdE",
   "self_type" : "_ZTIKN7android4base11borrowed_fdE",
   "size" : 4,
   "source_file" : "system/libbase/include/android-base/unique_fd.h"
  },
  {
   "alignment" : 4,
   "is_const" : true,
   "linker_set_key" : "_ZTIKN7android4base13ErrnoRestorerE",
   "name" : "const android::base::ErrnoRestorer",
   "referenced_type" : "_ZTIN7android4base13ErrnoRestorerE",
   "self_type" : "_ZTIKN7android4base13ErrnoRestorerE",
   "size" : 4,
   "source_file" : "system/libbase/include/android-base/errno_restorer.h"
  },
  {
   "alignment" : 4,
   "is_const" : true,
   "linker_set_key" : "_ZTIKN7android4base14unique_fd_implINS0_13DefaultCloserEEE",
   "name" : "const android::base::unique_fd_impl<android::base::DefaultCloser>",
   "referenced_type" : "_ZTIN7android4base14unique_fd_implINS0_13DefaultCloserEEE",
   "self_type" : "_ZTIKN7android4base14unique_fd_implINS0_13DefaultCloserEEE",
   "size" : 4,
   "source_file" : "system/libbase/include/android-base/unique_fd.h"
  },
  {
   "alignment" : 8,
   "is_const" : true,
   "linker_set_key" : "_ZTIKN7android4base5TimerE",
   "name" : "const android::base::Timer",
   "referenced_type" : "_ZTIN7android4base5TimerE",
   "self_type" : "_ZTIKN7android4base5TimerE",
   "size" : 8,
   "source_file" : "system/libbase/include/android-base/chrono_utils.h"
  },
  {
   "alignment" : 8,
   "is_const" : true,
   "linker_set_key" : "_ZTIKN7android4base8expectedINS0_14unique_fd_implINS0_13DefaultCloserEEENS_2nn12GeneralErrorEEE",
   "name" : "const android::base::expected<android::base::unique_fd_impl<android::base::DefaultCloser>, android::nn::GeneralError>",
   "referenced_type" : "_ZTIN7android4base8expectedINS0_14unique_fd_implINS0_13DefaultCloserEEENS_2nn12GeneralErrorEEE",
   "self_type" : "_ZTIKN7android4base8expectedINS0_14unique_fd_implINS0_13DefaultCloserEEENS_2nn12GeneralErrorEEE",
   "size" : 40,
   "source_file" : "system/libbase/include/android-base/expected.h"
  },
  {
   "alignment" : 8,
   "is_const" : true,
   "linker_set_key" : "_ZTIKN7android4base8expectedINS_2nn7MappingENS2_12GeneralErrorEEE",
   "name" : "const android::base::expected<android::nn::Mapping, android::nn::GeneralError>",
   "referenced_type" : "_ZTIN7android4base8expectedINS_2nn7MappingENS2_12GeneralErrorEEE",
   "self_type" : "_ZTIKN7android4base8expectedINS_2nn7MappingENS2_12GeneralErrorEEE",
   "size" : 72,
   "source_file" : "system/libbase/include/android-base/expected.h"
  },
  {
   "alignment" : 8,
   "is_const" : true,
   "linker_set_key" : "_ZTIKN7android4base8expectedINS_2nn7VersionENSt3__112basic_stringIcNS4_11char_traitsIcEENS4_9allocatorIcEEEEEE",
   "name" : "const android::base::expected<android::nn::Version, std::basic_string<char, std::char_traits<char>, std::allocator<char>>>",
   "referenced_type" : "_ZTIN7android4base8expectedINS_2nn7VersionENSt3__112basic_stringIcNS4_11char_traitsIcEENS4_9allocatorIcEEEEEE",
   "self_type" : "_ZTIKN7android4base8expectedINS_2nn7VersionENSt3__112basic_stringIcNS4_11char_traitsIcEENS4_9allocatorIcEEEEEE",
   "size" : 32,
   "source_file" : "system/libbase/include/android-base/expected.h"
  },
  {
   "alignment" : 8,
   "is_const" : true,
   "linker_set_key" : "_ZTIKN7android4base8expectedINS_8hardware11hidl_handleENS_2nn12GeneralErrorEEE",
   "name" : "const android::base::expected<android::hardware::hidl_handle, android::nn::GeneralError>",
   "referenced_type" : "_ZTIN7android4base8expectedINS_8hardware11hidl_handleENS_2nn12GeneralErrorEEE",
   "self_type" : "_ZTIKN7android4base8expectedINS_8hardware11hidl_handleENS_2nn12GeneralErrorEEE",
   "size" : 40,
   "source_file" : "system/libbase/include/android-base/expected.h"
  },
  {
   "alignment" : 8,
   "is_const" : true,
   "linker_set_key" : "_ZTIKN7android4base8expectedINSt3__110shared_ptrIKNS_2nn6MemoryEEENS4_12GeneralErrorEEE",
   "name" : "const android::base::expected<std::shared_ptr<const android::nn::Memory>, android::nn::GeneralError>",
   "referenced_type" : "_ZTIN7android4base8expectedINSt3__110shared_ptrIKNS_2nn6MemoryEEENS4_12GeneralErrorEEE",
   "self_type" : "_ZTIKN7android4base8expectedINSt3__110shared_ptrIKNS_2nn6MemoryEEENS4_12GeneralErrorEEE",
   "size" : 40,
   "source_file" : "system/libbase/include/android-base/expected.h"
  },
  {
   "alignment" : 8,
   "is_const" : true,
   "linker_set_key" : "_ZTIKN7android4base8expectedINSt3__16vectorINS0_14unique_fd_implINS0_13DefaultCloserEEENS2_9allocatorIS6_EEEENS_2nn12GeneralErrorEEE",
   "name" : "const android::base::expected<std::vector<android::base::unique_fd_impl<android::base::DefaultCloser>, std::allocator<android::base::unique_fd_impl<android::base::DefaultCloser>>>, android::nn::GeneralError>",
   "referenced_type" : "_ZTIN7android4base8expectedINSt3__16vectorINS0_14unique_fd_implINS0_13DefaultCloserEEENS2_9allocatorIS6_EEEENS_2nn12GeneralErrorEEE",
   "self_type" : "_ZTIKN7android4base8expectedINSt3__16vectorINS0_14unique_fd_implINS0_13DefaultCloserEEENS2_9allocatorIS6_EEEENS_2nn12GeneralErrorEEE",
   "size" : 40,
   "source_file" : "system/libbase/include/android-base/expected.h"
  },
  {
   "alignment" : 8,
   "is_const" : true,
   "linker_set_key" : "_ZTIKN7android7RefBaseE",
   "name" : "const android::RefBase",
   "referenced_type" : "_ZTIN7android7RefBaseE",
   "self_type" : "_ZTIKN7android7RefBaseE",
   "size" : 16,
   "source_file" : "system/core/libutils/include/utils/RefBase.h"
  },
  {
   "alignment" : 8,
   "is_const" : true,
   "linker_set_key" : "_ZTIKNSt3__110shared_ptrIKN7android2nn6MemoryEEE",
   "name" : "const std::shared_ptr<const android::nn::Memory>",
   "referenced_type" : "_ZTINSt3__110shared_ptrIKN7android2nn6MemoryEEE",
   "self_type" : "_ZTIKNSt3__110shared_ptrIKN7android2nn6MemoryEEE",
   "size" : 16,
   "source_file" : "packages/modules/NeuralNetworks/common/include/nnapi/SharedMemory.h"
  },
  {
   "alignment" : 8,
   "is_const" : true,
   "linker_set_key" : "_ZTIKNSt3__110unique_ptrIN7android4base14LogMessageDataENS_14default_deleteIS3_EEEE",
   "name" : "const std::unique_ptr<android::base::LogMessageData, std::default_delete<android::base::LogMessageData>>",
   "referenced_type" : "_ZTINSt3__110unique_ptrIN7android4base14LogMessageDataENS_14default_deleteIS3_EEEE",
   "self_type" : "_ZTIKNSt3__110unique_ptrIN7android4base14LogMessageDataENS_14default_deleteIS3_EEEE",
   "size" : 8,
   "source_file" : "system/libbase/include/android-base/logging.h"
  },
  {
   "alignment" : 8,
   "is_const" : true,
   "linker_set_key" : "_ZTIKNSt3__112basic_stringIcNS_11char_traitsIcEENS_9allocatorIcEEEE",
   "name" : "const std::basic_string<char, std::char_traits<char>, std::allocator<char>>",
   "referenced_type" : "_ZTINSt3__112basic_stringIcNS_11char_traitsIcEENS_9allocatorIcEEEE",
   "self_type" : "_ZTIKNSt3__112basic_stringIcNS_11char_traitsIcEENS_9allocatorIcEEEE",
   "size" : 24,
   "source_file" : "system/libbase/include/android-base/logging.h"
  },
  {
   "alignment" : 8,
   "is_const" : true,
   "linker_set_key" : "_ZTIKNSt3__16chrono8durationIxNS_5ratioILl1ELl1EEEEE",
   "name" : "const std::chrono::duration<long long, std::ratio<1, 1>>",
   "referenced_type" : "_ZTINSt3__16chrono8durationIxNS_5ratioILl1ELl1EEEEE",
   "self_type" : "_ZTIKNSt3__16chrono8durationIxNS_5ratioILl1ELl1EEEEE",
   "size" : 8,
   "source_file" : "packages/modules/NeuralNetworks/common/include/nnapi/Types.h"
  },
  {
   "alignment" : 8,
   "is_const" : true,
   "linker_set_key" : "_ZTIKPN7android7RefBase12weakref_implE",
   "name" : "android::RefBase::weakref_impl *const",
   "referenced_type" : "_ZTIPN7android7RefBase12weakref_implE",
   "self_type" : "_ZTIKPN7android7RefBase12weakref_implE",
   "size" : 8,
   "source_file" : "system/core/libutils/include/utils/RefBase.h"
  },
  {
   "alignment" : 1,
   "is_const" : true,
   "linker_set_key" : "_ZTIKa",
   "name" : "const signed char",
   "referenced_type" : "_ZTIa",
   "self_type" : "_ZTIKa",
   "size" : 1,
   "source_file" : "system/core/libutils/include/utils/TypeHelpers.h"
  },
  {
   "alignment" : 1,
   "is_const" : true,
   "linker_set_key" : "_ZTIKb",
   "name" : "const bool",
   "referenced_type" : "_ZTIb",
   "self_type" : "_ZTIKb",
   "size" : 1,
   "source_file" : "system/libbase/include/android-base/logging.h"
  },
  {
   "alignment" : 1,
   "is_const" : true,
   "linker_set_key" : "_ZTIKc",
   "name" : "const char",
   "referenced_type" : "_ZTIc",
   "self_type" : "_ZTIKc",
   "size" : 1,
   "source_file" : "system/libbase/include/android-base/logging.h"
  },
  {
   "alignment" : 8,
   "is_const" : true,
   "linker_set_key" : "_ZTIKd",
   "name" : "const double",
   "referenced_type" : "_ZTId",
   "self_type" : "_ZTIKd",
   "size" : 8,
   "source_file" : "system/core/libutils/include/utils/TypeHelpers.h"
  },
  {
   "alignment" : 4,
   "is_const" : true,
   "linker_set_key" : "_ZTIKf",
   "name" : "const float",
   "referenced_type" : "_ZTIf",
   "self_type" : "_ZTIKf",
   "size" : 4,
   "source_file" : "packages/modules/NeuralNetworks/common/include/nnapi/Types.h"
  },
  {
   "alignment" : 1,
   "is_const" : true,
   "linker_set_key" : "_ZTIKh",
   "name" : "const unsigned char",
   "referenced_type" : "_ZTIh",
   "self_type" : "_ZTIKh",
   "size" : 1,
   "source_file" : "packages/modules/NeuralNetworks/common/include/nnapi/Types.h"
  },
  {
   "alignment" : 4,
   "is_const" : true,
   "linker_set_key" : "_ZTIKi",
   "name" : "const int",
   "referenced_type" : "_ZTIi",
   "self_type" : "_ZTIKi",
   "size" : 4,
   "source_file" : "system/libbase/include/android-base/errno_restorer.h"
  },
  {
   "alignment" : 4,
   "is_const" : true,
   "linker_set_key" : "_ZTIKj",
   "name" : "const unsigned int",
   "referenced_type" : "_ZTIj",
   "self_type" : "_ZTIKj",
   "size" : 4,
   "source_file" : "system/libbase/include/android-base/logging.h"
  },
  {
   "alignment" : 8,
   "is_const" : true,
   "linker_set_key" : "_ZTIKl",
   "name" : "const long",
   "referenced_type" : "_ZTIl",
   "self_type" : "_ZTIKl",
   "size" : 8,
   "source_file" : "system/core/libutils/include/utils/TypeHelpers.h"
  },
  {
   "alignment" : 8,
   "is_const" : true,
   "linker_set_key" : "_ZTIKm",
   "name" : "const unsigned long",
   "referenced_type" : "_ZTIm",
   "self_type" : "_ZTIKm",
   "size" : 8,
   "source_file" : "system/libbase/include/android-base/logging.h"
  },
  {
   "alignment" : 2,
   "is_const" : true,
   "linker_set_key" : "_ZTIKs",
   "name" : "const short",
   "referenced_type" : "_ZTIs",
   "self_type" : "_ZTIKs",
   "size" : 2,
   "source_file" : "system/core/libutils/include/utils/TypeHelpers.h"
  },
  {
   "alignment" : 2,
   "is_const" : true,
   "linker_set_key" : "_ZTIKt",
   "name" : "const unsigned short",
   "referenced_type" : "_ZTIt",
   "self_type" : "_ZTIKt",
   "size" : 2,
   "source_file" : "system/core/libutils/include/utils/TypeHelpers.h"
  },
  {
   "is_const" : true,
   "linker_set_key" : "_ZTIKv",
   "name" : "const void",
   "referenced_type" : "_ZTIv",
   "self_type" : "_ZTIKv",
   "source_file" : "packages/modules/NeuralNetworks/common/include/nnapi/SharedMemory.h"
  }
 ],
 "record_types" :
 [
  {
   "alignment" : 4,
   "fields" :
   [
    {
     "field_name" : "version",
     "referenced_type" : "_ZTIi"
    },
    {
     "field_name" : "numFds",
     "field_offset" : 32,
     "referenced_type" : "_ZTIi"
    },
    {
     "field_name" : "numInts",
     "field_offset" : 64,
     "referenced_type" : "_ZTIi"
    },
    {
     "field_name" : "data",
     "field_offset" : 96,
     "referenced_type" : "_ZTIA0_i"
    }
   ],
   "linker_set_key" : "_ZTI13native_handle",
   "name" : "native_handle",
   "referenced_type" : "_ZTI13native_handle",
   "self_type" : "_ZTI13native_handle",
   "size" : 12,
   "source_file" : "system/core/libcutils/include/cutils/native_handle.h"
  },
  {
   "alignment" : 4,
   "fields" :
   [
    {
     "access" : "private",
     "field_name" : "mCount",
     "referenced_type" : "_ZTINSt3__16atomicIiEE"
    }
   ],
   "linker_set_key" : "_ZTIN7android12LightRefBaseINS_12NativeHandleEEE",
   "name" : "android::LightRefBase<android::NativeHandle>",
   "record_kind" : "class",
   "referenced_type" : "_ZTIN7android12LightRefBaseINS_12NativeHandleEEE",
   "self_type" : "_ZTIN7android12LightRefBaseINS_12NativeHandleEEE",
   "size" : 4,
   "source_file" : "system/core/libutils/include/utils/LightRefBase.h",
   "template_args" : [ "_ZTIN7android12NativeHandleE" ]
  },
  {
   "alignment" : 4,
   "fields" :
   [
    {
     "access" : "private",
     "field_name" : "mCount",
     "referenced_type" : "_ZTINSt3__16atomicIiEE"
    }
   ],
   "linker_set_key" : "_ZTIN7android12LightRefBaseINS_19VirtualLightRefBaseEEE",
   "name" : "android::LightRefBase<android::VirtualLightRefBase>",
   "record_kind" : "class",
   "referenced_type" : "_ZTIN7android12LightRefBaseINS_19VirtualLightRefBaseEEE",
   "self_type" : "_ZTIN7android12LightRefBaseINS_19VirtualLightRefBaseEEE",
   "size" : 4,
   "source_file" : "system/core/libutils/include/utils/LightRefBase.h",
   "template_args" : [ "_ZTIN7android19VirtualLightRefBaseE" ]
  },
  {
   "alignment" : 8,
   "base_specifiers" :
   [
    {
     "referenced_type" : "_ZTIN7android12LightRefBaseINS_12NativeHandleEEE"
    }
   ],
   "fields" :
   [
    {
     "access" : "private",
     "field_name" : "mHandle",
     "field_offset" : 64,
     "referenced_type" : "_ZTIP13native_handle"
    },
    {
     "access" : "private",
     "field_name" : "mOwnsHandle",
     "field_offset" : 128,
     "referenced_type" : "_ZTIb"
    }
   ],
   "linker_set_key" : "_ZTIN7android12NativeHandleE",
   "name" : "android::NativeHandle",
   "record_kind" : "class",
   "referenced_type" : "_ZTIN7android12NativeHandleE",
   "self_type" : "_ZTIN7android12NativeHandleE",
   "size" : 24,
   "source_file" : "system/core/libutils/include/utils/NativeHandle.h"
  },
  {
   "alignment" : 1,
   "linker_set_key" : "_ZTIN7android14ReferenceMoverE",
   "name" : "android::ReferenceMover",
   "record_kind" : "class",
   "referenced_type" : "_ZTIN7android14ReferenceMoverE",
   "self_type" : "_ZTIN7android14ReferenceMoverE",
   "size" : 1,
   "source_file" : "system/core/libutils/include/utils/RefBase.h"
  },
  {
   "alignment" : 8,
   "linker_set_key" : "_ZTIN7android16ReferenceRenamerE",
   "name" : "android::ReferenceRenamer",
   "record_kind" : "class",
   "referenced_type" : "_ZTIN7android16ReferenceRenamerE",
   "self_type" : "_ZTIN7android16ReferenceRenamerE",
   "size" : 8,
   "source_file" : "system/core/libutils/include/utils/RefBase.h",
   "vtable_components" :
   [
    {
     "kind" : "offset_to_top"
    },
    {
     "kind" : "rtti",
     "mangled_component_name" : "_ZTIN7android16ReferenceRenamerE"
    },
    {
     "is_pure" : true,
     "mangled_component_name" : "_ZNK7android16ReferenceRenamerclEm"
    }
   ]
  },
  {
   "alignment" : 1,
   "linker_set_key" : "_ZTIN7android18trait_trivial_copyIbEE",
   "name" : "android::trait_trivial_copy<bool>",
   "referenced_type" : "_ZTIN7android18trait_trivial_copyIbEE",
   "self_type" : "_ZTIN7android18trait_trivial_copyIbEE",
   "size" : 1,
   "source_file" : "system/core/libutils/include/utils/TypeHelpers.h",
   "template_args" : [ "_ZTIb" ]
  },
  {
   "alignment" : 1,
   "linker_set_key" : "_ZTIN7android18trait_trivial_copyIcEE",
   "name" : "android::trait_trivial_copy<char>",
   "referenced_type" : "_ZTIN7android18trait_trivial_copyIcEE",
   "self_type" : "_ZTIN7android18trait_trivial_copyIcEE",
   "size" : 1,
   "source_file" : "system/core/libutils/include/utils/TypeHelpers.h",
   "template_args" : [ "_ZTIc" ]
  },
  {
   "alignment" : 1,
   "linker_set_key" : "_ZTIN7android18trait_trivial_copyIdEE",
   "name" : "android::trait_trivial_copy<double>",
   "referenced_type" : "_ZTIN7android18trait_trivial_copyIdEE",
   "self_type" : "_ZTIN7android18trait_trivial_copyIdEE",
   "size" : 1,
   "source_file" : "system/core/libutils/include/utils/TypeHelpers.h",
   "template_args" : [ "_ZTId" ]
  },
  {
   "alignment" : 1,
   "linker_set_key" : "_ZTIN7android18trait_trivial_copyIfEE",
   "name" : "android::trait_trivial_copy<float>",
   "referenced_type" : "_ZTIN7android18trait_trivial_copyIfEE",
   "self_type" : "_ZTIN7android18trait_trivial_copyIfEE",
   "size" : 1,
   "source_file" : "system/core/libutils/include/utils/TypeHelpers.h",
   "template_args" : [ "_ZTIf" ]
  },
  {
   "alignment" : 1,
   "linker_set_key" : "_ZTIN7android18trait_trivial_copyIhEE",
   "name" : "android::trait_trivial_copy<unsigned char>",
   "referenced_type" : "_ZTIN7android18trait_trivial_copyIhEE",
   "self_type" : "_ZTIN7android18trait_trivial_copyIhEE",
   "size" : 1,
   "source_file" : "system/core/libutils/include/utils/TypeHelpers.h",
   "template_args" : [ "_ZTIh" ]
  },
  {
   "alignment" : 1,
   "linker_set_key" : "_ZTIN7android18trait_trivial_copyIiEE",
   "name" : "android::trait_trivial_copy<int>",
   "referenced_type" : "_ZTIN7android18trait_trivial_copyIiEE",
   "self_type" : "_ZTIN7android18trait_trivial_copyIiEE",
   "size" : 1,
   "source_file" : "system/core/libutils/include/utils/TypeHelpers.h",
   "template_args" : [ "_ZTIi" ]
  },
  {
   "alignment" : 1,
   "linker_set_key" : "_ZTIN7android18trait_trivial_copyIjEE",
   "name" : "android::trait_trivial_copy<unsigned int>",
   "referenced_type" : "_ZTIN7android18trait_trivial_copyIjEE",
   "self_type" : "_ZTIN7android18trait_trivial_copyIjEE",
   "size" : 1,
   "source_file" : "system/core/libutils/include/utils/TypeHelpers.h",
   "template_args" : [ "_ZTIj" ]
  },
  {
   "alignment" : 1,
   "linker_set_key" : "_ZTIN7android18trait_trivial_copyIlEE",
   "name" : "android::trait_trivial_copy<long>",
   "referenced_type" : "_ZTIN7android18trait_trivial_copyIlEE",
   "self_type" : "_ZTIN7android18trait_trivial_copyIlEE",
   "size" : 1,
   "source_file" : "system/core/libutils/include/utils/TypeHelpers.h",
   "template_args" : [ "_ZTIl" ]
  },
  {
   "alignment" : 1,
   "linker_set_key" : "_ZTIN7android18trait_trivial_copyImEE",
   "name" : "android::trait_trivial_copy<unsigned long>",
   "referenced_type" : "_ZTIN7android18trait_trivial_copyImEE",
   "self_type" : "_ZTIN7android18trait_trivial_copyImEE",
   "size" : 1,
   "source_file" : "system/core/libutils/include/utils/TypeHelpers.h",
   "template_args" : [ "_ZTIm" ]
  },
  {
   "alignment" : 1,
   "linker_set_key" : "_ZTIN7android18trait_trivial_copyIsEE",
   "name" : "android::trait_trivial_copy<short>",
   "referenced_type" : "_ZTIN7android18trait_trivial_copyIsEE",
   "self_type" : "_ZTIN7android18trait_trivial_copyIsEE",
   "size" : 1,
   "source_file" : "system/core/libutils/include/utils/TypeHelpers.h",
   "template_args" : [ "_ZTIs" ]
  },
  {
   "alignment" : 1,
   "linker_set_key" : "_ZTIN7android18trait_trivial_copyItEE",
   "name" : "android::trait_trivial_copy<unsigned short>",
   "referenced_type" : "_ZTIN7android18trait_trivial_copyItEE",
   "self_type" : "_ZTIN7android18trait_trivial_copyItEE",
   "size" : 1,
   "source_file" : "system/core/libutils/include/utils/TypeHelpers.h",
   "template_args" : [ "_ZTIt" ]
  },
  {
   "alignment" : 1,
   "linker_set_key" : "_ZTIN7android18trait_trivial_copyIvEE",
   "name" : "android::trait_trivial_copy<void>",
   "referenced_type" : "_ZTIN7android18trait_trivial_copyIvEE",
   "self_type" : "_ZTIN7android18trait_trivial_copyIvEE",
   "size" : 1,
   "source_file" : "system/core/libutils/include/utils/TypeHelpers.h",
   "template_args" : [ "_ZTIv" ]
  },
  {
   "alignment" : 1,
   "linker_set_key" : "_ZTIN7android18trait_trivial_copyIxEE",
   "name" : "android::trait_trivial_copy<long long>",
   "referenced_type" : "_ZTIN7android18trait_trivial_copyIxEE",
   "self_type" : "_ZTIN7android18trait_trivial_copyIxEE",
   "size" : 1,
   "source_file" : "system/core/libutils/include/utils/TypeHelpers.h",
   "template_args" : [ "_ZTIx" ]
  },
  {
   "alignment" : 1,
   "linker_set_key" : "_ZTIN7android18trait_trivial_copyIyEE",
   "name" : "android::trait_trivial_copy<unsigned long long>",
   "referenced_type" : "_ZTIN7android18trait_trivial_copyIyEE",
   "self_type" : "_ZTIN7android18trait_trivial_copyIyEE",
   "size" : 1,
   "source_file" : "system/core/libutils/include/utils/TypeHelpers.h",
   "template_args" : [ "_ZTIy" ]
  },
  {
   "alignment" : 1,
   "linker_set_key" : "_ZTIN7android18trait_trivial_ctorIbEE",
   "name" : "android::trait_trivial_ctor<bool>",
   "referenced_type" : "_ZTIN7android18trait_trivial_ctorIbEE",
   "self_type" : "_ZTIN7android18trait_trivial_ctorIbEE",
   "size" : 1,
   "source_file" : "system/core/libutils/include/utils/TypeHelpers.h",
   "template_args" : [ "_ZTIb" ]
  },
  {
   "alignment" : 1,
   "linker_set_key" : "_ZTIN7android18trait_trivial_ctorIcEE",
   "name" : "android::trait_trivial_ctor<char>",
   "referenced_type" : "_ZTIN7android18trait_trivial_ctorIcEE",
   "self_type" : "_ZTIN7android18trait_trivial_ctorIcEE",
   "size" : 1,
   "source_file" : "system/core/libutils/include/utils/TypeHelpers.h",
   "template_args" : [ "_ZTIc" ]
  },
  {
   "alignment" : 1,
   "linker_set_key" : "_ZTIN7android18trait_trivial_ctorIdEE",
   "name" : "android::trait_trivial_ctor<double>",
   "referenced_type" : "_ZTIN7android18trait_trivial_ctorIdEE",
   "self_type" : "_ZTIN7android18trait_trivial_ctorIdEE",
   "size" : 1,
   "source_file" : "system/core/libutils/include/utils/TypeHelpers.h",
   "template_args" : [ "_ZTId" ]
  },
  {
   "alignment" : 1,
   "linker_set_key" : "_ZTIN7android18trait_trivial_ctorIfEE",
   "name" : "android::trait_trivial_ctor<float>",
   "referenced_type" : "_ZTIN7android18trait_trivial_ctorIfEE",
   "self_type" : "_ZTIN7android18trait_trivial_ctorIfEE",
   "size" : 1,
   "source_file" : "system/core/libutils/include/utils/TypeHelpers.h",
   "template_args" : [ "_ZTIf" ]
  },
  {
   "alignment" : 1,
   "linker_set_key" : "_ZTIN7android18trait_trivial_ctorIhEE",
   "name" : "android::trait_trivial_ctor<unsigned char>",
   "referenced_type" : "_ZTIN7android18trait_trivial_ctorIhEE",
   "self_type" : "_ZTIN7android18trait_trivial_ctorIhEE",
   "size" : 1,
   "source_file" : "system/core/libutils/include/utils/TypeHelpers.h",
   "template_args" : [ "_ZTIh" ]
  },
  {
   "alignment" : 1,
   "linker_set_key" : "_ZTIN7android18trait_trivial_ctorIiEE",
   "name" : "android::trait_trivial_ctor<int>",
   "referenced_type" : "_ZTIN7android18trait_trivial_ctorIiEE",
   "self_type" : "_ZTIN7android18trait_trivial_ctorIiEE",
   "size" : 1,
   "source_file" : "system/core/libutils/include/utils/TypeHelpers.h",
   "template_args" : [ "_ZTIi" ]
  },
  {
   "alignment" : 1,
   "linker_set_key" : "_ZTIN7android18trait_trivial_ctorIjEE",
   "name" : "android::trait_trivial_ctor<unsigned int>",
   "referenced_type" : "_ZTIN7android18trait_trivial_ctorIjEE",
   "self_type" : "_ZTIN7android18trait_trivial_ctorIjEE",
   "size" : 1,
   "source_file" : "system/core/libutils/include/utils/TypeHelpers.h",
   "template_args" : [ "_ZTIj" ]
  },
  {
   "alignment" : 1,
   "linker_set_key" : "_ZTIN7android18trait_trivial_ctorIlEE",
   "name" : "android::trait_trivial_ctor<long>",
   "referenced_type" : "_ZTIN7android18trait_trivial_ctorIlEE",
   "self_type" : "_ZTIN7android18trait_trivial_ctorIlEE",
   "size" : 1,
   "source_file" : "system/core/libutils/include/utils/TypeHelpers.h",
   "template_args" : [ "_ZTIl" ]
  },
  {
   "alignment" : 1,
   "linker_set_key" : "_ZTIN7android18trait_trivial_ctorImEE",
   "name" : "android::trait_trivial_ctor<unsigned long>",
   "referenced_type" : "_ZTIN7android18trait_trivial_ctorImEE",
   "self_type" : "_ZTIN7android18trait_trivial_ctorImEE",
   "size" : 1,
   "source_file" : "system/core/libutils/include/utils/TypeHelpers.h",
   "template_args" : [ "_ZTIm" ]
  },
  {
   "alignment" : 1,
   "linker_set_key" : "_ZTIN7android18trait_trivial_ctorIsEE",
   "name" : "android::trait_trivial_ctor<short>",
   "referenced_type" : "_ZTIN7android18trait_trivial_ctorIsEE",
   "self_type" : "_ZTIN7android18trait_trivial_ctorIsEE",
   "size" : 1,
   "source_file" : "system/core/libutils/include/utils/TypeHelpers.h",
   "template_args" : [ "_ZTIs" ]
  },
  {
   "alignment" : 1,
   "linker_set_key" : "_ZTIN7android18trait_trivial_ctorItEE",
   "name" : "android::trait_trivial_ctor<unsigned short>",
   "referenced_type" : "_ZTIN7android18trait_trivial_ctorItEE",
   "self_type" : "_ZTIN7android18trait_trivial_ctorItEE",
   "size" : 1,
   "source_file" : "system/core/libutils/include/utils/TypeHelpers.h",
   "template_args" : [ "_ZTIt" ]
  },
  {
   "alignment" : 1,
   "linker_set_key" : "_ZTIN7android18trait_trivial_ctorIvEE",
   "name" : "android::trait_trivial_ctor<void>",
   "referenced_type" : "_ZTIN7android18trait_trivial_ctorIvEE",
   "self_type" : "_ZTIN7android18trait_trivial_ctorIvEE",
   "size" : 1,
   "source_file" : "system/core/libutils/include/utils/TypeHelpers.h",
   "template_args" : [ "_ZTIv" ]
  },
  {
   "alignment" : 1,
   "linker_set_key" : "_ZTIN7android18trait_trivial_ctorIxEE",
   "name" : "android::trait_trivial_ctor<long long>",
   "referenced_type" : "_ZTIN7android18trait_trivial_ctorIxEE",
   "self_type" : "_ZTIN7android18trait_trivial_ctorIxEE",
   "size" : 1,
   "source_file" : "system/core/libutils/include/utils/TypeHelpers.h",
   "template_args" : [ "_ZTIx" ]
  },
  {
   "alignment" : 1,
   "linker_set_key" : "_ZTIN7android18trait_trivial_ctorIyEE",
   "name" : "android::trait_trivial_ctor<unsigned long long>",
   "referenced_type" : "_ZTIN7android18trait_trivial_ctorIyEE",
   "self_type" : "_ZTIN7android18trait_trivial_ctorIyEE",
   "size" : 1,
   "source_file" : "system/core/libutils/include/utils/TypeHelpers.h",
   "template_args" : [ "_ZTIy" ]
  },
  {
   "alignment" : 1,
   "linker_set_key" : "_ZTIN7android18trait_trivial_dtorIbEE",
   "name" : "android::trait_trivial_dtor<bool>",
   "referenced_type" : "_ZTIN7android18trait_trivial_dtorIbEE",
   "self_type" : "_ZTIN7android18trait_trivial_dtorIbEE",
   "size" : 1,
   "source_file" : "system/core/libutils/include/utils/TypeHelpers.h",
   "template_args" : [ "_ZTIb" ]
  },
  {
   "alignment" : 1,
   "linker_set_key" : "_ZTIN7android18trait_trivial_dtorIcEE",
   "name" : "android::trait_trivial_dtor<char>",
   "referenced_type" : "_ZTIN7android18trait_trivial_dtorIcEE",
   "self_type" : "_ZTIN7android18trait_trivial_dtorIcEE",
   "size" : 1,
   "source_file" : "system/core/libutils/include/utils/TypeHelpers.h",
   "template_args" : [ "_ZTIc" ]
  },
  {
   "alignment" : 1,
   "linker_set_key" : "_ZTIN7android18trait_trivial_dtorIdEE",
   "name" : "android::trait_trivial_dtor<double>",
   "referenced_type" : "_ZTIN7android18trait_trivial_dtorIdEE",
   "self_type" : "_ZTIN7android18trait_trivial_dtorIdEE",
   "size" : 1,
   "source_file" : "system/core/libutils/include/utils/TypeHelpers.h",
   "template_args" : [ "_ZTId" ]
  },
  {
   "alignment" : 1,
   "linker_set_key" : "_ZTIN7android18trait_trivial_dtorIfEE",
   "name" : "android::trait_trivial_dtor<float>",
   "referenced_type" : "_ZTIN7android18trait_trivial_dtorIfEE",
   "self_type" : "_ZTIN7android18trait_trivial_dtorIfEE",
   "size" : 1,
   "source_file" : "system/core/libutils/include/utils/TypeHelpers.h",
   "template_args" : [ "_ZTIf" ]
  },
  {
   "alignment" : 1,
   "linker_set_key" : "_ZTIN7android18trait_trivial_dtorIhEE",
   "name" : "android::trait_trivial_dtor<unsigned char>",
   "referenced_type" : "_ZTIN7android18trait_trivial_dtorIhEE",
   "self_type" : "_ZTIN7android18trait_trivial_dtorIhEE",
   "size" : 1,
   "source_file" : "system/core/libutils/include/utils/TypeHelpers.h",
   "template_args" : [ "_ZTIh" ]
  },
  {
   "alignment" : 1,
   "linker_set_key" : "_ZTIN7android18trait_trivial_dtorIiEE",
   "name" : "android::trait_trivial_dtor<int>",
   "referenced_type" : "_ZTIN7android18trait_trivial_dtorIiEE",
   "self_type" : "_ZTIN7android18trait_trivial_dtorIiEE",
   "size" : 1,
   "source_file" : "system/core/libutils/include/utils/TypeHelpers.h",
   "template_args" : [ "_ZTIi" ]
  },
  {
   "alignment" : 1,
   "linker_set_key" : "_ZTIN7android18trait_trivial_dtorIjEE",
   "name" : "android::trait_trivial_dtor<unsigned int>",
   "referenced_type" : "_ZTIN7android18trait_trivial_dtorIjEE",
   "self_type" : "_ZTIN7android18trait_trivial_dtorIjEE",
   "size" : 1,
   "source_file" : "system/core/libutils/include/utils/TypeHelpers.h",
   "template_args" : [ "_ZTIj" ]
  },
  {
   "alignment" : 1,
   "linker_set_key" : "_ZTIN7android18trait_trivial_dtorIlEE",
   "name" : "android::trait_trivial_dtor<long>",
   "referenced_type" : "_ZTIN7android18trait_trivial_dtorIlEE",
   "self_type" : "_ZTIN7android18trait_trivial_dtorIlEE",
   "size" : 1,
   "source_file" : "system/core/libutils/include/utils/TypeHelpers.h",
   "template_args" : [ "_ZTIl" ]
  },
  {
   "alignment" : 1,
   "linker_set_key" : "_ZTIN7android18trait_trivial_dtorImEE",
   "name" : "android::trait_trivial_dtor<unsigned long>",
   "referenced_type" : "_ZTIN7android18trait_trivial_dtorImEE",
   "self_type" : "_ZTIN7android18trait_trivial_dtorImEE",
   "size" : 1,
   "source_file" : "system/core/libutils/include/utils/TypeHelpers.h",
   "template_args" : [ "_ZTIm" ]
  },
  {
   "alignment" : 1,
   "linker_set_key" : "_ZTIN7android18trait_trivial_dtorIsEE",
   "name" : "android::trait_trivial_dtor<short>",
   "referenced_type" : "_ZTIN7android18trait_trivial_dtorIsEE",
   "self_type" : "_ZTIN7android18trait_trivial_dtorIsEE",
   "size" : 1,
   "source_file" : "system/core/libutils/include/utils/TypeHelpers.h",
   "template_args" : [ "_ZTIs" ]
  },
  {
   "alignment" : 1,
   "linker_set_key" : "_ZTIN7android18trait_trivial_dtorItEE",
   "name" : "android::trait_trivial_dtor<unsigned short>",
   "referenced_type" : "_ZTIN7android18trait_trivial_dtorItEE",
   "self_type" : "_ZTIN7android18trait_trivial_dtorItEE",
   "size" : 1,
   "source_file" : "system/core/libutils/include/utils/TypeHelpers.h",
   "template_args" : [ "_ZTIt" ]
  },
  {
   "alignment" : 1,
   "linker_set_key" : "_ZTIN7android18trait_trivial_dtorIvEE",
   "name" : "android::trait_trivial_dtor<void>",
   "referenced_type" : "_ZTIN7android18trait_trivial_dtorIvEE",
   "self_type" : "_ZTIN7android18trait_trivial_dtorIvEE",
   "size" : 1,
   "source_file" : "system/core/libutils/include/utils/TypeHelpers.h",
   "template_args" : [ "_ZTIv" ]
  },
  {
   "alignment" : 1,
   "linker_set_key" : "_ZTIN7android18trait_trivial_dtorIxEE",
   "name" : "android::trait_trivial_dtor<long long>",
   "referenced_type" : "_ZTIN7android18trait_trivial_dtorIxEE",
   "self_type" : "_ZTIN7android18trait_trivial_dtorIxEE",
   "size" : 1,
   "source_file" : "system/core/libutils/include/utils/TypeHelpers.h",
   "template_args" : [ "_ZTIx" ]
  },
  {
   "alignment" : 1,
   "linker_set_key" : "_ZTIN7android18trait_trivial_dtorIyEE",
   "name" : "android::trait_trivial_dtor<unsigned long long>",
   "referenced_type" : "_ZTIN7android18trait_trivial_dtorIyEE",
   "self_type" : "_ZTIN7android18trait_trivial_dtorIyEE",
   "size" : 1,
   "source_file" : "system/core/libutils/include/utils/TypeHelpers.h",
   "template_args" : [ "_ZTIy" ]
  },
  {
   "alignment" : 1,
   "linker_set_key" : "_ZTIN7android18trait_trivial_moveIbEE",
   "name" : "android::trait_trivial_move<bool>",
   "referenced_type" : "_ZTIN7android18trait_trivial_moveIbEE",
   "self_type" : "_ZTIN7android18trait_trivial_moveIbEE",
   "size" : 1,
   "source_file" : "system/core/libutils/include/utils/TypeHelpers.h",
   "template_args" : [ "_ZTIb" ]
  },
  {
   "alignment" : 1,
   "linker_set_key" : "_ZTIN7android18trait_trivial_moveIcEE",
   "name" : "android::trait_trivial_move<char>",
   "referenced_type" : "_ZTIN7android18trait_trivial_moveIcEE",
   "self_type" : "_ZTIN7android18trait_trivial_moveIcEE",
   "size" : 1,
   "source_file" : "system/core/libutils/include/utils/TypeHelpers.h",
   "template_args" : [ "_ZTIc" ]
  },
  {
   "alignment" : 1,
   "linker_set_key" : "_ZTIN7android18trait_trivial_moveIdEE",
   "name" : "android::trait_trivial_move<double>",
   "referenced_type" : "_ZTIN7android18trait_trivial_moveIdEE",
   "self_type" : "_ZTIN7android18trait_trivial_moveIdEE",
   "size" : 1,
   "source_file" : "system/core/libutils/include/utils/TypeHelpers.h",
   "template_args" : [ "_ZTId" ]
  },
  {
   "alignment" : 1,
   "linker_set_key" : "_ZTIN7android18trait_trivial_moveIfEE",
   "name" : "android::trait_trivial_move<float>",
   "referenced_type" : "_ZTIN7android18trait_trivial_moveIfEE",
   "self_type" : "_ZTIN7android18trait_trivial_moveIfEE",
   "size" : 1,
   "source_file" : "system/core/libutils/include/utils/TypeHelpers.h",
   "template_args" : [ "_ZTIf" ]
  },
  {
   "alignment" : 1,
   "linker_set_key" : "_ZTIN7android18trait_trivial_moveIhEE",
   "name" : "android::trait_trivial_move<unsigned char>",
   "referenced_type" : "_ZTIN7android18trait_trivial_moveIhEE",
   "self_type" : "_ZTIN7android18trait_trivial_moveIhEE",
   "size" : 1,
   "source_file" : "system/core/libutils/include/utils/TypeHelpers.h",
   "template_args" : [ "_ZTIh" ]
  },
  {
   "alignment" : 1,
   "linker_set_key" : "_ZTIN7android18trait_trivial_moveIiEE",
   "name" : "android::trait_trivial_move<int>",
   "referenced_type" : "_ZTIN7android18trait_trivial_moveIiEE",
   "self_type" : "_ZTIN7android18trait_trivial_moveIiEE",
   "size" : 1,
   "source_file" : "system/core/libutils/include/utils/TypeHelpers.h",
   "template_args" : [ "_ZTIi" ]
  },
  {
   "alignment" : 1,
   "linker_set_key" : "_ZTIN7android18trait_trivial_moveIjEE",
   "name" : "android::trait_trivial_move<unsigned int>",
   "referenced_type" : "_ZTIN7android18trait_trivial_moveIjEE",
   "self_type" : "_ZTIN7android18trait_trivial_moveIjEE",
   "size" : 1,
   "source_file" : "system/core/libutils/include/utils/TypeHelpers.h",
   "template_args" : [ "_ZTIj" ]
  },
  {
   "alignment" : 1,
   "linker_set_key" : "_ZTIN7android18trait_trivial_moveIlEE",
   "name" : "android::trait_trivial_move<long>",
   "referenced_type" : "_ZTIN7android18trait_trivial_moveIlEE",
   "self_type" : "_ZTIN7android18trait_trivial_moveIlEE",
   "size" : 1,
   "source_file" : "system/core/libutils/include/utils/TypeHelpers.h",
   "template_args" : [ "_ZTIl" ]
  },
  {
   "alignment" : 1,
   "linker_set_key" : "_ZTIN7android18trait_trivial_moveImEE",
   "name" : "android::trait_trivial_move<unsigned long>",
   "referenced_type" : "_ZTIN7android18trait_trivial_moveImEE",
   "self_type" : "_ZTIN7android18trait_trivial_moveImEE",
   "size" : 1,
   "source_file" : "system/core/libutils/include/utils/TypeHelpers.h",
   "template_args" : [ "_ZTIm" ]
  },
  {
   "alignment" : 1,
   "linker_set_key" : "_ZTIN7android18trait_trivial_moveIsEE",
   "name" : "android::trait_trivial_move<short>",
   "referenced_type" : "_ZTIN7android18trait_trivial_moveIsEE",
   "self_type" : "_ZTIN7android18trait_trivial_moveIsEE",
   "size" : 1,
   "source_file" : "system/core/libutils/include/utils/TypeHelpers.h",
   "template_args" : [ "_ZTIs" ]
  },
  {
   "alignment" : 1,
   "linker_set_key" : "_ZTIN7android18trait_trivial_moveItEE",
   "name" : "android::trait_trivial_move<unsigned short>",
   "referenced_type" : "_ZTIN7android18trait_trivial_moveItEE",
   "self_type" : "_ZTIN7android18trait_trivial_moveItEE",
   "size" : 1,
   "source_file" : "system/core/libutils/include/utils/TypeHelpers.h",
   "template_args" : [ "_ZTIt" ]
  },
  {
   "alignment" : 1,
   "linker_set_key" : "_ZTIN7android18trait_trivial_moveIvEE",
   "name" : "android::trait_trivial_move<void>",
   "referenced_type" : "_ZTIN7android18trait_trivial_moveIvEE",
   "self_type" : "_ZTIN7android18trait_trivial_moveIvEE",
   "size" : 1,
   "source_file" : "system/core/libutils/include/utils/TypeHelpers.h",
   "template_args" : [ "_ZTIv" ]
  },
  {
   "alignment" : 1,
   "linker_set_key" : "_ZTIN7android18trait_trivial_moveIxEE",
   "name" : "android::trait_trivial_move<long long>",
   "referenced_type" : "_ZTIN7android18trait_trivial_moveIxEE",
   "self_type" : "_ZTIN7android18trait_trivial_moveIxEE",
   "size" : 1,
   "source_file" : "system/core/libutils/include/utils/TypeHelpers.h",
   "template_args" : [ "_ZTIx" ]
  },
  {
   "alignment" : 1,
   "linker_set_key" : "_ZTIN7android18trait_trivial_moveIyEE",
   "name" : "android::trait_trivial_move<unsigned long long>",
   "referenced_type" : "_ZTIN7android18trait_trivial_moveIyEE",
   "self_type" : "_ZTIN7android18trait_trivial_moveIyEE",
   "size" : 1,
   "source_file" : "system/core/libutils/include/utils/TypeHelpers.h",
   "template_args" : [ "_ZTIy" ]
  },
  {
   "alignment" : 8,
   "base_specifiers" :
   [
    {
     "referenced_type" : "_ZTIN7android12LightRefBaseINS_19VirtualLightRefBaseEEE"
    }
   ],
   "linker_set_key" : "_ZTIN7android19VirtualLightRefBaseE",
   "name" : "android::VirtualLightRefBase",
   "record_kind" : "class",
   "referenced_type" : "_ZTIN7android19VirtualLightRefBaseE",
   "self_type" : "_ZTIN7android19VirtualLightRefBaseE",
   "size" : 16,
   "source_file" : "system/core/libutils/include/utils/LightRefBase.h",
   "vtable_components" :
   [
    {
     "kind" : "offset_to_top"
    },
    {
     "kind" : "rtti",
     "mangled_component_name" : "_ZTIN7android19VirtualLightRefBaseE"
    },
    {
     "kind" : "complete_dtor_pointer",
     "mangled_component_name" : "_ZN7android19VirtualLightRefBaseD1Ev"
    },
    {
     "kind" : "deleting_dtor_pointer",
     "mangled_component_name" : "_ZN7android19VirtualLightRefBaseD0Ev"
    }
   ]
  },
  {
   "alignment" : 8,
   "fields" :
   [
    {
     "field_name" : "dimensions",
     "referenced_type" : "_ZTINSt3__16vectorIjNS_9allocatorIjEEEE"
    }
   ],
   "linker_set_key" : "_ZTIN7android2nn10BufferDescE",
   "name" : "android::nn::BufferDesc",
   "referenced_type" : "_ZTIN7android2nn10BufferDescE",
   "self_type" : "_ZTIN7android2nn10BufferDescE",
   "size" : 24,
   "source_file" : "packages/modules/NeuralNetworks/common/include/nnapi/Types.h"
  },
  {
   "alignment" : 4,
   "fields" :
   [
    {
     "field_name" : "modelIndex",
     "referenced_type" : "_ZTIj"
    },
    {
     "field_name" : "ioIndex",
     "field_offset" : 32,
     "referenced_type" : "_ZTIj"
    },
    {
     "field_name" : "probability",
     "field_offset" : 64,
     "referenced_type" : "_ZTIf"
    }
   ],
   "linker_set_key" : "_ZTIN7android2nn10BufferRoleE",
   "name" : "android::nn::BufferRole",
   "referenced_type" : "_ZTIN7android2nn10BufferRoleE",
   "self_type" : "_ZTIN7android2nn10BufferRoleE",
   "size" : 12,
   "source_file" : "packages/modules/NeuralNetworks/common/include/nnapi/Types.h"
  },
  {
   "alignment" : 8,
   "fields" :
   [
    {
     "field_name" : "dimensions",
     "referenced_type" : "_ZTINSt3__16vectorIjNS_9allocatorIjEEEE"
    },
    {
     "field_name" : "isSufficient",
     "field_offset" : 192,
     "referenced_type" : "_ZTIb"
    }
   ],
   "linker_set_key" : "_ZTIN7android2nn11OutputShapeE",
   "name" : "android::nn::OutputShape",
   "referenced_type" : "_ZTIN7android2nn11OutputShapeE",
   "self_type" : "_ZTIN7android2nn11OutputShapeE",
   "size" : 32,
   "source_file" : "packages/modules/NeuralNetworks/common/include/nnapi/Types.h"
  },
  {
   "alignment" : 4,
   "fields" :
   [
    {
     "field_name" : "execTime",
     "referenced_type" : "_ZTIf"
    },
    {
     "field_name" : "powerUsage",
     "field_offset" : 32,
     "referenced_type" : "_ZTIf"
    }
   ],
   "linker_set_key" : "_ZTIN7android2nn12Capabilities15PerformanceInfoE",
   "name" : "android::nn::Capabilities::PerformanceInfo",
   "referenced_type" : "_ZTIN7android2nn12Capabilities15PerformanceInfoE",
   "self_type" : "_ZTIN7android2nn12Capabilities15PerformanceInfoE",
   "size" : 8,
   "source_file" : "packages/modules/NeuralNetworks/common/include/nnapi/Types.h"
  },
  {
   "alignment" : 4,
   "fields" :
   [
    {
     "field_name" : "type",
     "referenced_type" : "_ZTIN7android2nn11OperandTypeE"
    },
    {
     "field_name" : "info",
     "field_offset" : 32,
     "referenced_type" : "_ZTIN7android2nn12Capabilities15PerformanceInfoE"
    }
   ],
   "linker_set_key" : "_ZTIN7android2nn12Capabilities18OperandPerformanceE",
   "name" : "android::nn::Capabilities::OperandPerformance",
   "referenced_type" : "_ZTIN7android2nn12Capabilities18OperandPerformanceE",
   "self_type" : "_ZTIN7android2nn12Capabilities18OperandPerformanceE",
   "size" : 12,
   "source_file" : "packages/modules/NeuralNetworks/common/include/nnapi/Types.h"
  },
  {
   "alignment" : 8,
   "fields" :
   [
    {
     "access" : "private",
     "field_name" : "mSorted",
     "referenced_type" : "_ZTINSt3__16vectorIN7android2nn12Capabilities18OperandPerformanceENS_9allocatorIS4_EEEE"
    }
   ],
   "linker_set_key" : "_ZTIN7android2nn12Capabilities23OperandPerformanceTableE",
   "name" : "android::nn::Capabilities::OperandPerformanceTable",
   "record_kind" : "class",
   "referenced_type" : "_ZTIN7android2nn12Capabilities23OperandPerformanceTableE",
   "self_type" : "_ZTIN7android2nn12Capabilities23OperandPerformanceTableE",
   "size" : 24,
   "source_file" : "packages/modules/NeuralNetworks/common/include/nnapi/Types.h"
  },
  {
   "alignment" : 8,
   "fields" :
   [
    {
     "field_name" : "relaxedFloat32toFloat16PerformanceScalar",
     "referenced_type" : "_ZTIN7android2nn12Capabilities15PerformanceInfoE"
    },
    {
     "field_name" : "relaxedFloat32toFloat16PerformanceTensor",
     "field_offset" : 64,
     "referenced_type" : "_ZTIN7android2nn12Capabilities15PerformanceInfoE"
    },
    {
     "field_name" : "operandPerformance",
     "field_offset" : 128,
     "referenced_type" : "_ZTIN7android2nn12Capabilities23OperandPerformanceTableE"
    },
    {
     "field_name" : "ifPerformance",
     "field_offset" : 320,
     "referenced_type" : "_ZTIN7android2nn12Capabilities15PerformanceInfoE"
    },
    {
     "field_name" : "whilePerformance",
     "field_offset" : 384,
     "referenced_type" : "_ZTIN7android2nn12Capabilities15PerformanceInfoE"
    }
   ],
   "linker_set_key" : "_ZTIN7android2nn12CapabilitiesE",
   "name" : "android::nn::Capabilities",
   "referenced_type" : "_ZTIN7android2nn12CapabilitiesE",
   "self_type" : "_ZTIN7android2nn12CapabilitiesE",
   "size" : 56,
   "source_file" : "packages/modules/NeuralNetworks/common/include/nnapi/Types.h"
  },
  {
   "alignment" : 8,
   "fields" :
   [
    {
     "field_name" : "pointer",
     "referenced_type" : "_ZTINSt3__17variantIJPKvPvEEE"
    },
    {
     "field_name" : "poolIndex",
     "field_offset" : 128,
     "referenced_type" : "_ZTIj"
    },
    {
     "field_name" : "offset",
     "field_offset" : 160,
     "referenced_type" : "_ZTIj"
    },
    {
     "field_name" : "length",
     "field_offset" : 192,
     "referenced_type" : "_ZTIj"
    },
    {
     "field_name" : "padding",
     "field_offset" : 224,
     "referenced_type" : "_ZTIj"
    }
   ],
   "linker_set_key" : "_ZTIN7android2nn12DataLocationE",
   "name" : "android::nn::DataLocation",
   "referenced_type" : "_ZTIN7android2nn12DataLocationE",
   "self_type" : "_ZTIN7android2nn12DataLocationE",
   "size" : 32,
   "source_file" : "packages/modules/NeuralNetworks/common/include/nnapi/Types.h"
  },
  {
   "alignment" : 8,
   "fields" :
   [
    {
     "field_name" : "message",
     "referenced_type" : "_ZTINSt3__112basic_stringIcNS_11char_traitsIcEENS_9allocatorIcEEEE"
    },
    {
     "field_name" : "code",
     "field_offset" : 192,
     "referenced_type" : "_ZTIN7android2nn11ErrorStatusE"
    }
   ],
   "linker_set_key" : "_ZTIN7android2nn12GeneralErrorE",
   "name" : "android::nn::GeneralError",
   "referenced_type" : "_ZTIN7android2nn12GeneralErrorE",
   "self_type" : "_ZTIN7android2nn12GeneralErrorE",
   "size" : 32,
   "source_file" : "packages/modules/NeuralNetworks/common/include/nnapi/Types.h"
  },
  {
   "alignment" : 8,
   "fields" :
   [
    {
     "field_name" : "message",
     "referenced_type" : "_ZTINSt3__112basic_stringIcNS_11char_traitsIcEENS_9allocatorIcEEEE"
    },
    {
     "field_name" : "code",
     "field_offset" : 192,
     "referenced_type" : "_ZTIN7android2nn11ErrorStatusE"
    },
    {
     "field_name" : "outputShapes",
     "field_offset" : 256,
     "referenced_type" : "_ZTINSt3__16vectorIN7android2nn11OutputShapeENS_9allocatorIS3_EEEE"
    }
   ],
   "linker_set_key" : "_ZTIN7android2nn14ExecutionErrorE",
   "name" : "android::nn::ExecutionError",
   "referenced_type" : "_ZTIN7android2nn14ExecutionErrorE",
   "self_type" : "_ZTIN7android2nn14ExecutionErrorE",
   "size" : 56,
   "source_file" : "packages/modules/NeuralNetworks/common/include/nnapi/Types.h"
  },
  {
   "alignment" : 4,
   "fields" :
   [
    {
     "field_name" : "alignment",
     "referenced_type" : "_ZTIj"
    },
    {
     "field_name" : "padding",
     "field_offset" : 32,
     "referenced_type" : "_ZTIj"
    }
   ],
   "linker_set_key" : "_ZTIN7android2nn16MemoryPreferenceE",
   "name" : "android::nn::MemoryPreference",
   "referenced_type" : "_ZTIN7android2nn16MemoryPreferenceE",
   "self_type" : "_ZTIN7android2nn16MemoryPreferenceE",
   "size" : 8,
   "source_file" : "packages/modules/NeuralNetworks/common/include/nnapi/Types.h"
  },
  {
   "alignment" : 8,
   "fields" :
   [
    {
     "access" : "private",
     "field_name" : "mPoolIndex",
     "referenced_type" : "_ZTIj"
    },
    {
     "access" : "private",
     "field_name" : "mSize",
     "field_offset" : 64,
     "referenced_type" : "_ZTIm"
    }
   ],
   "linker_set_key" : "_ZTIN7android2nn20MutableMemoryBuilderE",
   "name" : "android::nn::MutableMemoryBuilder",
   "record_kind" : "class",
   "referenced_type" : "_ZTIN7android2nn20MutableMemoryBuilderE",
   "self_type" : "_ZTIN7android2nn20MutableMemoryBuilderE",
   "size" : 16,
   "source_file" : "packages/modules/NeuralNetworks/common/include/nnapi/SharedMemory.h"
  },
  {
   "access" : "private",
   "alignment" : 8,
   "fields" :
   [
    {
     "field_name" : "data",
     "referenced_type" : "_ZTIPKv"
    },
    {
     "field_name" : "length",
     "field_offset" : 64,
     "referenced_type" : "_ZTIm"
    },
    {
     "field_name" : "offset",
     "field_offset" : 128,
     "referenced_type" : "_ZTIm"
    }
   ],
   "linker_set_key" : "_ZTIN7android2nn21ConstantMemoryBuilder8LazyCopyE",
   "name" : "android::nn::ConstantMemoryBuilder::LazyCopy",
   "referenced_type" : "_ZTIN7android2nn21ConstantMemoryBuilder8LazyCopyE",
   "self_type" : "_ZTIN7android2nn21ConstantMemoryBuilder8LazyCopyE",
   "size" : 24,
   "source_file" : "packages/modules/NeuralNetworks/common/include/nnapi/SharedMemory.h"
  },
  {
   "alignment" : 8,
   "fields" :
   [
    {
     "access" : "private",
     "field_name" : "mBuilder",
     "referenced_type" : "_ZTIN7android2nn20MutableMemoryBuilderE"
    },
    {
     "access" : "private",
     "field_name" : "mSlices",
     "field_offset" : 128,
     "referenced_type" : "_ZTINSt3__16vectorIN7android2nn21ConstantMemoryBuilder8LazyCopyENS_9allocatorIS4_EEEE"
    }
   ],
   "linker_set_key" : "_ZTIN7android2nn21ConstantMemoryBuilderE",
   "name" : "android::nn::ConstantMemoryBuilder",
   "record_kind" : "class",
   "referenced_type" : "_ZTIN7android2nn21ConstantMemoryBuilderE",
   "self_type" : "_ZTIN7android2nn21ConstantMemoryBuilderE",
   "size" : 40,
   "source_file" : "packages/modules/NeuralNetworks/common/include/nnapi/SharedMemory.h"
  },
  {
   "alignment" : 8,
   "fields" :
   [
    {
     "access" : "private",
     "field_name" : "mData",
     "referenced_type" : "_ZTINSt3__16vectorIhNS_9allocatorIhEEEE"
    }
   ],
   "linker_set_key" : "_ZTIN7android2nn5Model13OperandValuesE",
   "name" : "android::nn::Model::OperandValues",
   "record_kind" : "class",
   "referenced_type" : "_ZTIN7android2nn5Model13OperandValuesE",
   "self_type" : "_ZTIN7android2nn5Model13OperandValuesE",
   "size" : 24,
   "source_file" : "packages/modules/NeuralNetworks/common/include/nnapi/Types.h"
  },
  {
   "alignment" : 8,
   "fields" :
   [
    {
     "field_name" : "name",
     "referenced_type" : "_ZTINSt3__112basic_stringIcNS_11char_traitsIcEENS_9allocatorIcEEEE"
    },
    {
     "field_name" : "prefix",
     "field_offset" : 192,
     "referenced_type" : "_ZTIt"
    }
   ],
   "linker_set_key" : "_ZTIN7android2nn5Model22ExtensionNameAndPrefixE",
   "name" : "android::nn::Model::ExtensionNameAndPrefix",
   "referenced_type" : "_ZTIN7android2nn5Model22ExtensionNameAndPrefixE",
   "self_type" : "_ZTIN7android2nn5Model22ExtensionNameAndPrefixE",
   "size" : 32,
   "source_file" : "packages/modules/NeuralNetworks/common/include/nnapi/Types.h"
  },
  {
   "alignment" : 8,
   "fields" :
   [
    {
     "field_name" : "operands",
     "referenced_type" : "_ZTINSt3__16vectorIN7android2nn7OperandENS_9allocatorIS3_EEEE"
    },
    {
     "field_name" : "operations",
     "field_offset" : 192,
     "referenced_type" : "_ZTINSt3__16vectorIN7android2nn9OperationENS_9allocatorIS3_EEEE"
    },
    {
     "field_name" : "inputIndexes",
     "field_offset" : 384,
     "referenced_type" : "_ZTINSt3__16vectorIjNS_9allocatorIjEEEE"
    },
    {
     "field_name" : "outputIndexes",
     "field_offset" : 576,
     "referenced_type" : "_ZTINSt3__16vectorIjNS_9allocatorIjEEEE"
    }
   ],
   "linker_set_key" : "_ZTIN7android2nn5Model8SubgraphE",
   "name" : "android::nn::Model::Subgraph",
   "referenced_type" : "_ZTIN7android2nn5Model8SubgraphE",
   "self_type" : "_ZTIN7android2nn5Model8SubgraphE",
   "size" : 96,
   "source_file" : "packages/modules/NeuralNetworks/common/include/nnapi/Types.h"
  },
  {
   "alignment" : 8,
   "fields" :
   [
    {
     "field_name" : "main",
     "referenced_type" : "_ZTIN7android2nn5Model8SubgraphE"
    },
    {
     "field_name" : "referenced",
     "field_offset" : 768,
     "referenced_type" : "_ZTINSt3__16vectorIN7android2nn5Model8SubgraphENS_9allocatorIS4_EEEE"
    },
    {
     "field_name" : "operandValues",
     "field_offset" : 960,
     "referenced_type" : "_ZTIN7android2nn5Model13OperandValuesE"
    },
    {
     "field_name" : "pools",
     "field_offset" : 1152,
     "referenced_type" : "_ZTINSt3__16vectorINS_10shared_ptrIKN7android2nn6MemoryEEENS_9allocatorIS6_EEEE"
    },
    {
     "field_name" : "relaxComputationFloat32toFloat16",
     "field_offset" : 1344,
     "referenced_type" : "_ZTIb"
    },
    {
     "field_name" : "extensionNameToPrefix",
     "field_offset" : 1408,
     "referenced_type" : "_ZTINSt3__16vectorIN7android2nn5Model22ExtensionNameAndPrefixENS_9allocatorIS4_EEEE"
    }
   ],
   "linker_set_key" : "_ZTIN7android2nn5ModelE",
   "name" : "android::nn::Model",
   "referenced_type" : "_ZTIN7android2nn5ModelE",
   "self_type" : "_ZTIN7android2nn5ModelE",
   "size" : 200,
   "source_file" : "packages/modules/NeuralNetworks/common/include/nnapi/Types.h"
  },
  {
   "alignment" : 8,
   "fields" :
   [
    {
     "field_name" : "fds",
     "referenced_type" : "_ZTINSt3__16vectorIN7android4base14unique_fd_implINS2_13DefaultCloserEEENS_9allocatorIS5_EEEE"
    },
    {
     "field_name" : "ints",
     "field_offset" : 192,
     "referenced_type" : "_ZTINSt3__16vectorIiNS_9allocatorIiEEEE"
    }
   ],
   "linker_set_key" : "_ZTIN7android2nn6HandleE",
   "name" : "android::nn::Handle",
   "referenced_type" : "_ZTIN7android2nn6HandleE",
   "self_type" : "_ZTIN7android2nn6HandleE",
   "size" : 48,
   "source_file" : "packages/modules/NeuralNetworks/common/include/nnapi/Types.h"
  },
  {
   "alignment" : 8,
   "fields" :
   [
    {
     "field_name" : "handle",
     "referenced_type" : "_ZTINSt3__110unique_ptrI15AHardwareBufferPFvPS1_EEE"
    }
   ],
   "linker_set_key" : "_ZTIN7android2nn6Memory14HardwareBufferE",
   "name" : "android::nn::Memory::HardwareBuffer",
   "referenced_type" : "_ZTIN7android2nn6Memory14HardwareBufferE",
   "self_type" : "_ZTIN7android2nn6Memory14HardwareBufferE",
   "size" : 16,
   "source_file" : "packages/modules/NeuralNetworks/common/include/nnapi/Types.h"
  },
  {
   "alignment" : 8,
   "fields" :
   [
    {
     "field_name" : "size",
     "referenced_type" : "_ZTIm"
    },
    {
     "field_name" : "prot",
     "field_offset" : 64,
     "referenced_type" : "_ZTIi"
    },
    {
     "field_name" : "fd",
     "field_offset" : 96,
     "referenced_type" : "_ZTIN7android4base14unique_fd_implINS0_13DefaultCloserEEE"
    },
    {
     "field_name" : "offset",
     "field_offset" : 128,
     "referenced_type" : "_ZTIm"
    }
   ],
   "linker_set_key" : "_ZTIN7android2nn6Memory2FdE",
   "name" : "android::nn::Memory::Fd",
   "referenced_type" : "_ZTIN7android2nn6Memory2FdE",
   "self_type" : "_ZTIN7android2nn6Memory2FdE",
   "size" : 24,
   "source_file" : "packages/modules/NeuralNetworks/common/include/nnapi/Types.h"
  },
  {
   "alignment" : 8,
   "fields" :
   [
    {
     "field_name" : "fd",
     "referenced_type" : "_ZTIN7android4base14unique_fd_implINS0_13DefaultCloserEEE"
    },
    {
     "field_name" : "size",
     "field_offset" : 64,
     "referenced_type" : "_ZTIm"
    }
   ],
   "linker_set_key" : "_ZTIN7android2nn6Memory6AshmemE",
   "name" : "android::nn::Memory::Ashmem",
   "referenced_type" : "_ZTIN7android2nn6Memory6AshmemE",
   "self_type" : "_ZTIN7android2nn6Memory6AshmemE",
   "size" : 16,
   "source_file" : "packages/modules/NeuralNetworks/common/include/nnapi/Types.h"
  },
  {
   "alignment" : 8,
   "fields" :
   [
    {
     "field_name" : "handle",
     "referenced_type" : "_ZTIN7android2nn6HandleE"
    },
    {
     "field_name" : "size",
     "field_offset" : 384,
     "referenced_type" : "_ZTIm"
    },
    {
     "field_name" : "name",
     "field_offset" : 448,
     "referenced_type" : "_ZTINSt3__112basic_stringIcNS_11char_traitsIcEENS_9allocatorIcEEEE"
    }
   ],
   "linker_set_key" : "_ZTIN7android2nn6Memory7UnknownE",
   "name" : "android::nn::Memory::Unknown",
   "referenced_type" : "_ZTIN7android2nn6Memory7UnknownE",
   "self_type" : "_ZTIN7android2nn6Memory7UnknownE",
   "size" : 80,
   "source_file" : "packages/modules/NeuralNetworks/common/include/nnapi/Types.h"
  },
  {
   "alignment" : 8,
   "fields" :
   [
    {
     "field_name" : "handle",
     "referenced_type" : "_ZTINSt3__17variantIJN7android2nn6Memory6AshmemENS3_2FdENS3_14HardwareBufferENS3_7UnknownEEEE"
    }
   ],
   "linker_set_key" : "_ZTIN7android2nn6MemoryE",
   "name" : "android::nn::Memory",
   "referenced_type" : "_ZTIN7android2nn6MemoryE",
   "self_type" : "_ZTIN7android2nn6MemoryE",
   "size" : 88,
   "source_file" : "packages/modules/NeuralNetworks/common/include/nnapi/Types.h"
  },
  {
   "alignment" : 8,
   "fields" :
   [
    {
     "field_name" : "timeOnDevice",
     "referenced_type" : "_ZTINSt3__18optionalINS_6chrono8durationIxNS_5ratioILl1ELl1000000000EEEEEEE"
    },
    {
     "field_name" : "timeInDriver",
     "field_offset" : 128,
     "referenced_type" : "_ZTINSt3__18optionalINS_6chrono8durationIxNS_5ratioILl1ELl1000000000EEEEEEE"
    }
   ],
   "linker_set_key" : "_ZTIN7android2nn6TimingE",
   "name" : "android::nn::Timing",
   "referenced_type" : "_ZTIN7android2nn6TimingE",
   "self_type" : "_ZTIN7android2nn6TimingE",
   "size" : 32,
   "source_file" : "packages/modules/NeuralNetworks/common/include/nnapi/Types.h"
  },
  {
   "alignment" : 8,
   "fields" :
   [
    {
     "access" : "private",
     "field_name" : "mArgs",
     "referenced_type" : "_ZTINSt3__15tupleIJEEE"
    },
    {
     "access" : "private",
     "field_name" : "mStream",
     "field_offset" : 64,
     "referenced_type" : "_ZTINSt3__119basic_ostringstreamIcNS_11char_traitsIcEENS_9allocatorIcEEEE"
    }
   ],
   "linker_set_key" : "_ZTIN7android2nn6detail12ErrorBuilderIJEEE",
   "name" : "android::nn::detail::ErrorBuilder<>",
   "record_kind" : "class",
   "referenced_type" : "_ZTIN7android2nn6detail12ErrorBuilderIJEEE",
   "self_type" : "_ZTIN7android2nn6detail12ErrorBuilderIJEEE",
   "size" : 272,
   "source_file" : "packages/modules/NeuralNetworks/common/include/nnapi/Result.h"
  },
  {
   "alignment" : 8,
   "fields" :
   [
    {
     "access" : "private",
     "field_name" : "mArgs",
     "referenced_type" : "_ZTINSt3__15tupleIJN7android2nn11ErrorStatusEEEE"
    },
    {
     "access" : "private",
     "field_name" : "mStream",
     "field_offset" : 64,
     "referenced_type" : "_ZTINSt3__119basic_ostringstreamIcNS_11char_traitsIcEENS_9allocatorIcEEEE"
    }
   ],
   "linker_set_key" : "_ZTIN7android2nn6detail12ErrorBuilderIJNS0_11ErrorStatusEEEE",
   "name" : "android::nn::detail::ErrorBuilder<ErrorStatus>",
   "record_kind" : "class",
   "referenced_type" : "_ZTIN7android2nn6detail12ErrorBuilderIJNS0_11ErrorStatusEEEE",
   "self_type" : "_ZTIN7android2nn6detail12ErrorBuilderIJNS0_11ErrorStatusEEEE",
   "size" : 272,
   "source_file" : "packages/modules/NeuralNetworks/common/include/nnapi/Result.h"
  },
  {
   "alignment" : 8,
   "fields" :
   [
    {
     "field_name" : "pointer",
     "referenced_type" : "_ZTINSt3__17variantIJPKvPvEEE"
    },
    {
     "field_name" : "size",
     "field_offset" : 128,
     "referenced_type" : "_ZTIm"
    },
    {
     "field_name" : "context",
     "field_offset" : 192,
     "referenced_type" : "_ZTINSt3__13anyE"
    }
   ],
   "linker_set_key" : "_ZTIN7android2nn7MappingE",
   "name" : "android::nn::Mapping",
   "referenced_type" : "_ZTIN7android2nn7MappingE",
   "self_type" : "_ZTIN7android2nn7MappingE",
   "size" : 56,
   "source_file" : "packages/modules/NeuralNetworks/common/include/nnapi/SharedMemory.h"
  },
  {
   "alignment" : 8,
   "fields" :
   [
    {
     "field_name" : "scales",
     "referenced_type" : "_ZTINSt3__16vectorIfNS_9allocatorIfEEEE"
    },
    {
     "field_name" : "channelDim",
     "field_offset" : 192,
     "referenced_type" : "_ZTIj"
    }
   ],
   "linker_set_key" : "_ZTIN7android2nn7Operand25SymmPerChannelQuantParamsE",
   "name" : "android::nn::Operand::SymmPerChannelQuantParams",
   "referenced_type" : "_ZTIN7android2nn7Operand25SymmPerChannelQuantParamsE",
   "self_type" : "_ZTIN7android2nn7Operand25SymmPerChannelQuantParamsE",
   "size" : 32,
   "source_file" : "packages/modules/NeuralNetworks/common/include/nnapi/Types.h"
  },
  {
   "alignment" : 8,
   "fields" :
   [
    {
     "field_name" : "type",
     "referenced_type" : "_ZTIN7android2nn11OperandTypeE"
    },
    {
     "field_name" : "dimensions",
     "field_offset" : 64,
     "referenced_type" : "_ZTINSt3__16vectorIjNS_9allocatorIjEEEE"
    },
    {
     "field_name" : "scale",
     "field_offset" : 256,
     "referenced_type" : "_ZTIf"
    },
    {
     "field_name" : "zeroPoint",
     "field_offset" : 288,
     "referenced_type" : "_ZTIi"
    },
    {
     "field_name" : "lifetime",
     "field_offset" : 320,
     "referenced_type" : "_ZTIN7android2nn7Operand8LifeTimeE"
    },
    {
     "field_name" : "location",
     "field_offset" : 384,
     "referenced_type" : "_ZTIN7android2nn12DataLocationE"
    },
    {
     "field_name" : "extraParams",
     "field_offset" : 640,
     "referenced_type" : "_ZTINSt3__17variantIJNS_9monostateEN7android2nn7Operand25SymmPerChannelQuantParamsENS_6vectorIhNS_9allocatorIhEEEEEEE"
    }
   ],
   "linker_set_key" : "_ZTIN7android2nn7OperandE",
   "name" : "android::nn::Operand",
   "referenced_type" : "_ZTIN7android2nn7OperandE",
   "self_type" : "_ZTIN7android2nn7OperandE",
   "size" : 120,
   "source_file" : "packages/modules/NeuralNetworks/common/include/nnapi/Types.h"
  },
  {
   "alignment" : 8,
   "fields" :
   [
    {
     "field_name" : "lifetime",
     "referenced_type" : "_ZTIN7android2nn7Request8Argument8LifeTimeE"
    },
    {
     "field_name" : "location",
     "field_offset" : 64,
     "referenced_type" : "_ZTIN7android2nn12DataLocationE"
    },
    {
     "field_name" : "dimensions",
     "field_offset" : 320,
     "referenced_type" : "_ZTINSt3__16vectorIjNS_9allocatorIjEEEE"
    }
   ],
   "linker_set_key" : "_ZTIN7android2nn7Request8ArgumentE",
   "name" : "android::nn::Request::Argument",
   "referenced_type" : "_ZTIN7android2nn7Request8ArgumentE",
   "self_type" : "_ZTIN7android2nn7Request8ArgumentE",
   "size" : 64,
   "source_file" : "packages/modules/NeuralNetworks/common/include/nnapi/Types.h"
  },
  {
   "alignment" : 8,
   "fields" :
   [
    {
     "field_name" : "inputs",
     "referenced_type" : "_ZTINSt3__16vectorIN7android2nn7Request8ArgumentENS_9allocatorIS4_EEEE"
    },
    {
     "field_name" : "outputs",
     "field_offset" : 192,
     "referenced_type" : "_ZTINSt3__16vectorIN7android2nn7Request8ArgumentENS_9allocatorIS4_EEEE"
    },
    {
     "field_name" : "pools",
     "field_offset" : 384,
     "referenced_type" : "_ZTINSt3__16vectorINS_7variantIJNS_10shared_ptrIKN7android2nn6MemoryEEENS4_7Request17MemoryDomainTokenENS2_IKNS4_7IBufferEEEEEENS_9allocatorISD_EEEE"
    }
   ],
   "linker_set_key" : "_ZTIN7android2nn7RequestE",
   "name" : "android::nn::Request",
   "referenced_type" : "_ZTIN7android2nn7RequestE",
   "self_type" : "_ZTIN7android2nn7RequestE",
   "size" : 72,
   "source_file" : "packages/modules/NeuralNetworks/common/include/nnapi/Types.h"
  },
  {
   "alignment" : 4,
   "fields" :
   [
    {
     "field_name" : "type",
     "referenced_type" : "_ZTIt"
    },
    {
     "field_name" : "isTensor",
     "field_offset" : 16,
     "referenced_type" : "_ZTIb"
    },
    {
     "field_name" : "byteSize",
     "field_offset" : 32,
     "referenced_type" : "_ZTIj"
    }
   ],
   "linker_set_key" : "_ZTIN7android2nn9Extension22OperandTypeInformationE",
   "name" : "android::nn::Extension::OperandTypeInformation",
   "referenced_type" : "_ZTIN7android2nn9Extension22OperandTypeInformationE",
   "self_type" : "_ZTIN7android2nn9Extension22OperandTypeInformationE",
   "size" : 8,
   "source_file" : "packages/modules/NeuralNetworks/common/include/nnapi/Types.h"
  },
  {
   "alignment" : 8,
   "fields" :
   [
    {
     "field_name" : "name",
     "referenced_type" : "_ZTINSt3__112basic_stringIcNS_11char_traitsIcEENS_9allocatorIcEEEE"
    },
    {
     "field_name" : "operandTypes",
     "field_offset" : 192,
     "referenced_type" : "_ZTINSt3__16vectorIN7android2nn9Extension22OperandTypeInformationENS_9allocatorIS4_EEEE"
    }
   ],
   "linker_set_key" : "_ZTIN7android2nn9ExtensionE",
   "name" : "android::nn::Extension",
   "referenced_type" : "_ZTIN7android2nn9ExtensionE",
   "self_type" : "_ZTIN7android2nn9ExtensionE",
   "size" : 48,
   "source_file" : "packages/modules/NeuralNetworks/common/include/nnapi/Types.h"
  },
  {
   "alignment" : 8,
   "fields" :
   [
    {
     "field_name" : "type",
     "referenced_type" : "_ZTIN7android2nn13OperationTypeE"
    },
    {
     "field_name" : "inputs",
     "field_offset" : 64,
     "referenced_type" : "_ZTINSt3__16vectorIjNS_9allocatorIjEEEE"
    },
    {
     "field_name" : "outputs",
     "field_offset" : 256,
     "referenced_type" : "_ZTINSt3__16vectorIjNS_9allocatorIjEEEE"
    }
   ],
   "linker_set_key" : "_ZTIN7android2nn9OperationE",
   "name" : "android::nn::Operation",
   "referenced_type" : "_ZTIN7android2nn9OperationE",
   "self_type" : "_ZTIN7android2nn9OperationE",
   "size" : 56,
   "source_file" : "packages/modules/NeuralNetworks/common/include/nnapi/Types.h"
  },
  {
   "alignment" : 8,
   "fields" :
   [
    {
     "access" : "private",
     "field_name" : "mSyncFence",
     "referenced_type" : "_ZTINSt3__110shared_ptrIKN7android2nn6HandleEEE"
    }
   ],
   "linker_set_key" : "_ZTIN7android2nn9SyncFenceE",
   "name" : "android::nn::SyncFence",
   "record_kind" : "class",
   "referenced_type" : "_ZTIN7android2nn9SyncFenceE",
   "self_type" : "_ZTIN7android2nn9SyncFenceE",
   "size" : 16,
   "source_file" : "packages/modules/NeuralNetworks/common/include/nnapi/Types.h"
  },
  {
   "alignment" : 8,
   "fields" :
   [
    {
     "access" : "private",
     "field_name" : "m_ptr",
     "referenced_type" : "_ZTIPN7android4hidl4base4V1_05IBaseE"
    }
   ],
   "linker_set_key" : "_ZTIN7android2spINS_4hidl4base4V1_05IBaseEEE",
   "name" : "android::sp<android::hidl::base::V1_0::IBase>",
   "record_kind" : "class",
   "referenced_type" : "_ZTIN7android2spINS_4hidl4base4V1_05IBaseEEE",
   "self_type" : "_ZTIN7android2spINS_4hidl4base4V1_05IBaseEEE",
   "size" : 8,
   "source_file" : "system/core/libutils/include/utils/StrongPointer.h",
   "template_args" : [ "_ZTIN7android4hidl4base4V1_05IBaseE" ]
  },
  {
   "alignment" : 8,
   "fields" :
   [
    {
     "access" : "private",
     "field_name" : "m_ptr",
     "referenced_type" : "_ZTIPN7android4hidl6memory4V1_07IMemoryE"
    }
   ],
   "linker_set_key" : "_ZTIN7android2spINS_4hidl6memory4V1_07IMemoryEEE",
   "name" : "android::sp<android::hidl::memory::V1_0::IMemory>",
   "record_kind" : "class",
   "referenced_type" : "_ZTIN7android2spINS_4hidl6memory4V1_07IMemoryEEE",
   "self_type" : "_ZTIN7android2spINS_4hidl6memory4V1_07IMemoryEEE",
   "size" : 8,
   "source_file" : "system/core/libutils/include/utils/StrongPointer.h",
   "template_args" : [ "_ZTIN7android4hidl6memory4V1_07IMemoryE" ]
  },
  {
   "alignment" : 8,
   "fields" :
   [
    {
     "access" : "private",
     "field_name" : "m_ptr",
     "referenced_type" : "_ZTIPN7android4hidl7manager4V1_020IServiceNotificationE"
    }
   ],
   "linker_set_key" : "_ZTIN7android2spINS_4hidl7manager4V1_020IServiceNotificationEEE",
   "name" : "android::sp<android::hidl::manager::V1_0::IServiceNotification>",
   "record_kind" : "class",
   "referenced_type" : "_ZTIN7android2spINS_4hidl7manager4V1_020IServiceNotificationEEE",
   "self_type" : "_ZTIN7android2spINS_4hidl7manager4V1_020IServiceNotificationEEE",
   "size" : 8,
   "source_file" : "system/core/libutils/include/utils/StrongPointer.h",
   "template_args" : [ "_ZTIN7android4hidl7manager4V1_020IServiceNotificationE" ]
  },
  {
   "alignment" : 8,
   "fields" :
   [
    {
     "access" : "private",
     "field_name" : "m_ptr",
     "referenced_type" : "_ZTIPN7android4hidl9allocator4V1_010IAllocatorE"
    }
   ],
   "linker_set_key" : "_ZTIN7android2spINS_4hidl9allocator4V1_010IAllocatorEEE",
   "name" : "android::sp<android::hidl::allocator::V1_0::IAllocator>",
   "record_kind" : "class",
   "referenced_type" : "_ZTIN7android2spINS_4hidl9allocator4V1_010IAllocatorEEE",
   "self_type" : "_ZTIN7android2spINS_4hidl9allocator4V1_010IAllocatorEEE",
   "size" : 8,
   "source_file" : "system/core/libutils/include/utils/StrongPointer.h",
   "template_args" : [ "_ZTIN7android4hidl9allocator4V1_010IAllocatorE" ]
  },
  {
   "alignment" : 8,
   "fields" :
   [
    {
     "access" : "private",
     "field_name" : "m_ptr",
     "referenced_type" : "_ZTIPN7android8hardware20hidl_death_recipientE"
    }
   ],
   "linker_set_key" : "_ZTIN7android2spINS_8hardware20hidl_death_recipientEEE",
   "name" : "android::sp<android::hardware::hidl_death_recipient>",
   "record_kind" : "class",
   "referenced_type" : "_ZTIN7android2spINS_8hardware20hidl_death_recipientEEE",
   "self_type" : "_ZTIN7android2spINS_8hardware20hidl_death_recipientEEE",
   "size" : 8,
   "source_file" : "system/core/libutils/include/utils/StrongPointer.h",
   "template_args" : [ "_ZTIN7android8hardware20hidl_death_recipientE" ]
  },
  {
   "alignment" : 8,
   "fields" :
   [
    {
     "access" : "private",
     "field_name" : "data_",
     "referenced_type" : "_ZTIKNSt3__110unique_ptrIN7android4base14LogMessageDataENS_14default_deleteIS3_EEEE"
    }
   ],
   "linker_set_key" : "_ZTIN7android4base10LogMessageE",
   "name" : "android::base::LogMessage",
   "record_kind" : "class",
   "referenced_type" : "_ZTIN7android4base10LogMessageE",
   "self_type" : "_ZTIN7android4base10LogMessageE",
   "size" : 8,
   "source_file" : "system/libbase/include/android-base/logging.h"
  },
  {
   "alignment" : 4,
   "fields" :
   [
    {
     "access" : "private",
     "field_name" : "default_log_id_",
     "referenced_type" : "_ZTIN7android4base5LogIdE"
    }
   ],
   "linker_set_key" : "_ZTIN7android4base10LogdLoggerE",
   "name" : "android::base::LogdLogger",
   "record_kind" : "class",
   "referenced_type" : "_ZTIN7android4base10LogdLoggerE",
   "self_type" : "_ZTIN7android4base10LogdLoggerE",
   "size" : 4,
   "source_file" : "system/libbase/include/android-base/logging.h"
  },
  {
   "alignment" : 8,
   "fields" :
   [
    {
     "access" : "private",
     "field_name" : "base_",
     "referenced_type" : "_ZTIPc"
    },
    {
     "access" : "private",
     "field_name" : "size_",
     "field_offset" : 64,
     "referenced_type" : "_ZTIm"
    },
    {
     "access" : "private",
     "field_name" : "offset_",
     "field_offset" : 128,
     "referenced_type" : "_ZTIm"
    }
   ],
   "linker_set_key" : "_ZTIN7android4base10MappedFileE",
   "name" : "android::base::MappedFile",
   "record_kind" : "class",
   "referenced_type" : "_ZTIN7android4base10MappedFileE",
   "self_type" : "_ZTIN7android4base10MappedFileE",
   "size" : 24,
   "source_file" : "system/libbase/include/android-base/mapped_file.h"
  },
  {
   "alignment" : 1,
   "linker_set_key" : "_ZTIN7android4base10boot_clockE",
   "name" : "android::base::boot_clock",
   "record_kind" : "class",
   "referenced_type" : "_ZTIN7android4base10boot_clockE",
   "self_type" : "_ZTIN7android4base10boot_clockE",
   "size" : 1,
   "source_file" : "system/libbase/include/android-base/chrono_utils.h"
  },
  {
   "alignment" : 1,
   "linker_set_key" : "_ZTIN7android4base10log_detail12StorageTypesImjEE",
   "name" : "android::base::log_detail::StorageTypes<unsigned long, unsigned int>",
   "referenced_type" : "_ZTIN7android4base10log_detail12StorageTypesImjEE",
   "self_type" : "_ZTIN7android4base10log_detail12StorageTypesImjEE",
   "size" : 1,
   "source_file" : "system/libbase/include/android-base/logging.h",
   "template_args" : [ "_ZTIm", "_ZTIj" ]
  },
  {
   "alignment" : 1,
   "linker_set_key" : "_ZTIN7android4base10log_detail12StorageTypesImmEE",
   "name" : "android::base::log_detail::StorageTypes<unsigned long, unsigned long>",
   "referenced_type" : "_ZTIN7android4base10log_detail12StorageTypesImmEE",
   "self_type" : "_ZTIN7android4base10log_detail12StorageTypesImmEE",
   "size" : 1,
   "source_file" : "system/libbase/include/android-base/logging.h",
   "template_args" : [ "_ZTIm", "_ZTIm" ]
  },
  {
   "alignment" : 1,
   "linker_set_key" : "_ZTIN7android4base10log_detail13IsCharPointerIjEE",
   "name" : "android::base::log_detail::IsCharPointer<unsigned int>",
   "referenced_type" : "_ZTIN7android4base10log_detail13IsCharPointerIjEE",
   "self_type" : "_ZTIN7android4base10log_detail13IsCharPointerIjEE",
   "size" : 1,
   "source_file" : "system/libbase/include/android-base/logging.h",
   "template_args" : [ "_ZTIj" ]
  },
  {
   "alignment" : 1,
   "linker_set_key" : "_ZTIN7android4base10log_detail13IsCharPointerImEE",
   "name" : "android::base::log_detail::IsCharPointer<unsigned long>",
   "referenced_type" : "_ZTIN7android4base10log_detail13IsCharPointerImEE",
   "self_type" : "_ZTIN7android4base10log_detail13IsCharPointerImEE",
   "size" : 1,
   "source_file" : "system/libbase/include/android-base/logging.h",
   "template_args" : [ "_ZTIm" ]
  },
  {
   "alignment" : 8,
   "fields" :
   [
    {
     "field_name" : "lhs",
     "referenced_type" : "_ZTIKN7android4base10log_detail7StorageImEE"
    },
    {
     "field_name" : "rhs",
     "field_offset" : 64,
     "referenced_type" : "_ZTIKN7android4base10log_detail7StorageIjEE"
    }
   ],
   "linker_set_key" : "_ZTIN7android4base10log_detail14EagerEvaluatorImjEE",
   "name" : "android::base::log_detail::EagerEvaluator<unsigned long, unsigned int>",
   "referenced_type" : "_ZTIN7android4base10log_detail14EagerEvaluatorImjEE",
   "self_type" : "_ZTIN7android4base10log_detail14EagerEvaluatorImjEE",
   "size" : 16,
   "source_file" : "system/libbase/include/android-base/logging.h",
   "template_args" : [ "_ZTIm", "_ZTIj" ]
  },
  {
   "alignment" : 8,
   "fields" :
   [
    {
     "field_name" : "lhs",
     "referenced_type" : "_ZTIKN7android4base10log_detail7StorageImEE"
    },
    {
     "field_name" : "rhs",
     "field_offset" : 64,
     "referenced_type" : "_ZTIKN7android4base10log_detail7StorageImEE"
    }
   ],
   "linker_set_key" : "_ZTIN7android4base10log_detail14EagerEvaluatorImmEE",
   "name" : "android::base::log_detail::EagerEvaluator<unsigned long, unsigned long>",
   "referenced_type" : "_ZTIN7android4base10log_detail14EagerEvaluatorImmEE",
   "self_type" : "_ZTIN7android4base10log_detail14EagerEvaluatorImmEE",
   "size" : 16,
   "source_file" : "system/libbase/include/android-base/logging.h",
   "template_args" : [ "_ZTIm", "_ZTIm" ]
  },
  {
   "alignment" : 4,
   "fields" :
   [
    {
     "field_name" : "v",
     "referenced_type" : "_ZTIj"
    }
   ],
   "linker_set_key" : "_ZTIN7android4base10log_detail7StorageIjEE",
   "name" : "android::base::log_detail::Storage<unsigned int>",
   "referenced_type" : "_ZTIN7android4base10log_detail7StorageIjEE",
   "self_type" : "_ZTIN7android4base10log_detail7StorageIjEE",
   "size" : 4,
   "source_file" : "system/libbase/include/android-base/logging.h",
   "template_args" : [ "_ZTIj" ]
  },
  {
   "alignment" : 8,
   "fields" :
   [
    {
     "field_name" : "v",
     "referenced_type" : "_ZTIm"
    }
   ],
   "linker_set_key" : "_ZTIN7android4base10log_detail7StorageImEE",
   "name" : "android::base::log_detail::Storage<unsigned long>",
   "referenced_type" : "_ZTIN7android4base10log_detail7StorageImEE",
   "self_type" : "_ZTIN7android4base10log_detail7StorageImEE",
   "size" : 8,
   "source_file" : "system/libbase/include/android-base/logging.h",
   "template_args" : [ "_ZTIm" ]
  },
  {
   "alignment" : 1,
   "linker_set_key" : "_ZTIN7android4base10unexpect_tE",
   "name" : "android::base::unexpect_t",
   "referenced_type" : "_ZTIN7android4base10unexpect_tE",
   "self_type" : "_ZTIN7android4base10unexpect_tE",
   "size" : 1,
   "source_file" : "system/libbase/include/android-base/expected.h"
  },
  {
   "alignment" : 8,
   "fields" :
   [
    {
     "access" : "private",
     "field_name" : "val_",
     "referenced_type" : "_ZTIN7android2nn12GeneralErrorE"
    }
   ],
   "linker_set_key" : "_ZTIN7android4base10unexpectedINS_2nn12GeneralErrorEEE",
   "name" : "android::base::unexpected<android::nn::GeneralError>",
   "record_kind" : "class",
   "referenced_type" : "_ZTIN7android4base10unexpectedINS_2nn12GeneralErrorEEE",
   "self_type" : "_ZTIN7android4base10unexpectedINS_2nn12GeneralErrorEEE",
   "size" : 32,
   "source_file" : "system/libbase/include/android-base/expected.h",
   "template_args" : [ "_ZTIN7android2nn12GeneralErrorE" ]
  },
  {
   "alignment" : 8,
   "fields" :
   [
    {
     "access" : "private",
     "field_name" : "val_",
     "referenced_type" : "_ZTINSt3__112basic_stringIcNS_11char_traitsIcEENS_9allocatorIcEEEE"
    }
   ],
   "linker_set_key" : "_ZTIN7android4base10unexpectedINSt3__112basic_stringIcNS2_11char_traitsIcEENS2_9allocatorIcEEEEEE",
   "name" : "android::base::unexpected<std::basic_string<char, std::char_traits<char>, std::allocator<char>>>",
   "record_kind" : "class",
   "referenced_type" : "_ZTIN7android4base10unexpectedINSt3__112basic_stringIcNS2_11char_traitsIcEENS2_9allocatorIcEEEEEE",
   "self_type" : "_ZTIN7android4base10unexpectedINSt3__112basic_stringIcNS2_11char_traitsIcEENS2_9allocatorIcEEEEEE",
   "size" : 24,
   "source_file" : "system/libbase/include/android-base/expected.h",
   "template_args" : [ "_ZTINSt3__112basic_stringIcNS_11char_traitsIcEENS_9allocatorIcEEEE" ]
  },
  {
   "alignment" : 4,
   "fields" :
   [
    {
     "access" : "private",
     "field_name" : "fd_",
     "referenced_type" : "_ZTIi"
    }
   ],
   "linker_set_key" : "_ZTIN7android4base11borrowed_fdE",
   "name" : "android::base::borrowed_fd",
   "referenced_type" : "_ZTIN7android4base11borrowed_fdE",
   "self_type" : "_ZTIN7android4base11borrowed_fdE",
   "size" : 4,
   "source_file" : "system/libbase/include/android-base/unique_fd.h"
  },
  {
   "alignment" : 1,
   "linker_set_key" : "_ZTIN7android4base12LogNullGuardIDnEE",
   "name" : "android::base::LogNullGuard<std::nullptr_t>",
   "referenced_type" : "_ZTIN7android4base12LogNullGuardIDnEE",
   "self_type" : "_ZTIN7android4base12LogNullGuardIDnEE",
   "size" : 1,
   "source_file" : "system/libbase/include/android-base/logging.h",
   "template_args" : [ "_ZTIDn" ]
  },
  {
   "alignment" : 1,
   "linker_set_key" : "_ZTIN7android4base12LogNullGuardIPKcEE",
   "name" : "android::base::LogNullGuard<const char *>",
   "referenced_type" : "_ZTIN7android4base12LogNullGuardIPKcEE",
   "self_type" : "_ZTIN7android4base12LogNullGuardIPKcEE",
   "size" : 1,
   "source_file" : "system/libbase/include/android-base/logging.h",
   "template_args" : [ "_ZTIPKc" ]
  },
  {
   "alignment" : 1,
   "linker_set_key" : "_ZTIN7android4base12LogNullGuardIPcEE",
   "name" : "android::base::LogNullGuard<char *>",
   "referenced_type" : "_ZTIN7android4base12LogNullGuardIPcEE",
   "self_type" : "_ZTIN7android4base12LogNullGuardIPcEE",
   "size" : 1,
   "source_file" : "system/libbase/include/android-base/logging.h",
   "template_args" : [ "_ZTIPc" ]
  },
  {
   "alignment" : 1,
   "linker_set_key" : "_ZTIN7android4base12LogNullGuardIjEE",
   "name" : "android::base::LogNullGuard<unsigned int>",
   "referenced_type" : "_ZTIN7android4base12LogNullGuardIjEE",
   "self_type" : "_ZTIN7android4base12LogNullGuardIjEE",
   "size" : 1,
   "source_file" : "system/libbase/include/android-base/logging.h",
   "template_args" : [ "_ZTIj" ]
  },
  {
   "alignment" : 1,
   "linker_set_key" : "_ZTIN7android4base12LogNullGuardImEE",
   "name" : "android::base::LogNullGuard<unsigned long>",
   "referenced_type" : "_ZTIN7android4base12LogNullGuardImEE",
   "self_type" : "_ZTIN7android4base12LogNullGuardImEE",
   "size" : 1,
   "source_file" : "system/libbase/include/android-base/logging.h",
   "template_args" : [ "_ZTIm" ]
  },
  {
   "alignment" : 1,
   "linker_set_key" : "_ZTIN7android4base13DefaultCloserE",
   "name" : "android::base::DefaultCloser",
   "referenced_type" : "_ZTIN7android4base13DefaultCloserE",
   "self_type" : "_ZTIN7android4base13DefaultCloserE",
   "size" : 1,
   "source_file" : "system/libbase/include/android-base/unique_fd.h"
  },
  {
   "alignment" : 4,
   "fields" :
   [
    {
     "access" : "private",
     "field_name" : "saved_errno_",
     "referenced_type" : "_ZTIKi"
    }
   ],
   "linker_set_key" : "_ZTIN7android4base13ErrnoRestorerE",
   "name" : "android::base::ErrnoRestorer",
   "record_kind" : "class",
   "referenced_type" : "_ZTIN7android4base13ErrnoRestorerE",
   "self_type" : "_ZTIN7android4base13ErrnoRestorerE",
   "size" : 4,
   "source_file" : "system/libbase/include/android-base/errno_restorer.h"
  },
  {
   "alignment" : 4,
   "fields" :
   [
    {
     "access" : "private",
     "field_name" : "fd_",
     "referenced_type" : "_ZTIi"
    }
   ],
   "linker_set_key" : "_ZTIN7android4base14unique_fd_implINS0_13DefaultCloserEEE",
   "name" : "android::base::unique_fd_impl<android::base::DefaultCloser>",
   "record_kind" : "class",
   "referenced_type" : "_ZTIN7android4base14unique_fd_implINS0_13DefaultCloserEEE",
   "self_type" : "_ZTIN7android4base14unique_fd_implINS0_13DefaultCloserEEE",
   "size" : 4,
   "source_file" : "system/libbase/include/android-base/unique_fd.h",
   "template_args" : [ "_ZTIN7android4base13DefaultCloserE" ]
  },
  {
   "alignment" : 4,
   "fields" :
   [
    {
     "access" : "private",
     "field_name" : "old_",
     "referenced_type" : "_ZTIN7android4base11LogSeverityE"
    }
   ],
   "linker_set_key" : "_ZTIN7android4base17ScopedLogSeverityE",
   "name" : "android::base::ScopedLogSeverity",
   "record_kind" : "class",
   "referenced_type" : "_ZTIN7android4base17ScopedLogSeverityE",
   "self_type" : "_ZTIN7android4base17ScopedLogSeverityE",
   "size" : 4,
   "source_file" : "system/libbase/include/android-base/logging.h"
  },
  {
   "alignment" : 8,
   "fields" :
   [
    {
     "access" : "private",
     "field_name" : "start_",
     "referenced_type" : "_ZTINSt3__16chrono10time_pointIN7android4base10boot_clockENS0_8durationIxNS_5ratioILl1ELl1000000000EEEEEEE"
    }
   ],
   "linker_set_key" : "_ZTIN7android4base5TimerE",
   "name" : "android::base::Timer",
   "record_kind" : "class",
   "referenced_type" : "_ZTIN7android4base5TimerE",
   "self_type" : "_ZTIN7android4base5TimerE",
   "size" : 8,
   "source_file" : "system/libbase/include/android-base/chrono_utils.h"
  },
  {
   "alignment" : 8,
   "fields" :
   [
    {
     "access" : "private",
     "field_name" : "var_",
     "referenced_type" : "_ZTINSt3__17variantIJN7android4base14unique_fd_implINS2_13DefaultCloserEEENS2_10unexpectedINS1_2nn12GeneralErrorEEEEEE"
    }
   ],
   "linker_set_key" : "_ZTIN7android4base8expectedINS0_14unique_fd_implINS0_13DefaultCloserEEENS_2nn12GeneralErrorEEE",
   "name" : "android::base::expected<android::base::unique_fd_impl<android::base::DefaultCloser>, android::nn::GeneralError>",
   "record_kind" : "class",
   "referenced_type" : "_ZTIN7android4base8expectedINS0_14unique_fd_implINS0_13DefaultCloserEEENS_2nn12GeneralErrorEEE",
   "self_type" : "_ZTIN7android4base8expectedINS0_14unique_fd_implINS0_13DefaultCloserEEENS_2nn12GeneralErrorEEE",
   "size" : 40,
   "source_file" : "system/libbase/include/android-base/expected.h",
   "template_args" :
   [
    "_ZTIN7android4base14unique_fd_implINS0_13DefaultCloserEEE",
    "_ZTIN7android2nn12GeneralErrorE"
   ]
  },
  {
   "alignment" : 8,
   "fields" :
   [
    {
     "access" : "private",
     "field_name" : "var_",
     "referenced_type" : "_ZTINSt3__17variantIJN7android2nn7MappingENS1_4base10unexpectedINS2_12GeneralErrorEEEEEE"
    }
   ],
   "linker_set_key" : "_ZTIN7android4base8expectedINS_2nn7MappingENS2_12GeneralErrorEEE",
   "name" : "android::base::expected<android::nn::Mapping, android::nn::GeneralError>",
   "record_kind" : "class",
   "referenced_type" : "_ZTIN7android4base8expectedINS_2nn7MappingENS2_12GeneralErrorEEE",
   "self_type" : "_ZTIN7android4base8expectedINS_2nn7MappingENS2_12GeneralErrorEEE",
   "size" : 72,
   "source_file" : "system/libbase/include/android-base/expected.h",
   "template_args" : [ "_ZTIN7android2nn7MappingE", "_ZTIN7android2nn12GeneralErrorE" ]
  },
  {
   "alignment" : 8,
   "fields" :
   [
    {
     "access" : "private",
     "field_name" : "var_",
     "referenced_type" : "_ZTINSt3__17variantIJN7android2nn7VersionENS1_4base10unexpectedINS_12basic_stringIcNS_11char_traitsIcEENS_9allocatorIcEEEEEEEEE"
    }
   ],
   "linker_set_key" : "_ZTIN7android4base8expectedINS_2nn7VersionENSt3__112basic_stringIcNS4_11char_traitsIcEENS4_9allocatorIcEEEEEE",
   "name" : "android::base::expected<android::nn::Version, std::basic_string<char, std::char_traits<char>, std::allocator<char>>>",
   "record_kind" : "class",
   "referenced_type" : "_ZTIN7android4base8expectedINS_2nn7VersionENSt3__112basic_stringIcNS4_11char_traitsIcEENS4_9allocatorIcEEEEEE",
   "self_type" : "_ZTIN7android4base8expectedINS_2nn7VersionENSt3__112basic_stringIcNS4_11char_traitsIcEENS4_9allocatorIcEEEEEE",
   "size" : 32,
   "source_file" : "system/libbase/include/android-base/expected.h",
   "template_args" :
   [
    "_ZTIN7android2nn7VersionE",
    "_ZTINSt3__112basic_stringIcNS_11char_traitsIcEENS_9allocatorIcEEEE"
   ]
  },
  {
   "alignment" : 8,
   "fields" :
   [
    {
     "access" : "private",
     "field_name" : "var_",
     "referenced_type" : "_ZTINSt3__17variantIJN7android8hardware11hidl_handleENS1_4base10unexpectedINS1_2nn12GeneralErrorEEEEEE"
    }
   ],
   "linker_set_key" : "_ZTIN7android4base8expectedINS_8hardware11hidl_handleENS_2nn12GeneralErrorEEE",
   "name" : "android::base::expected<android::hardware::hidl_handle, android::nn::GeneralError>",
   "record_kind" : "class",
   "referenced_type" : "_ZTIN7android4base8expectedINS_8hardware11hidl_handleENS_2nn12GeneralErrorEEE",
   "self_type" : "_ZTIN7android4base8expectedINS_8hardware11hidl_handleENS_2nn12GeneralErrorEEE",
   "size" : 40,
   "source_file" : "system/libbase/include/android-base/expected.h",
   "template_args" :
   [
    "_ZTIN7android8hardware11hidl_handleE",
    "_ZTIN7android2nn12GeneralErrorE"
   ]
  },
  {
   "alignment" : 8,
   "fields" :
   [
    {
     "access" : "private",
     "field_name" : "var_",
     "referenced_type" : "_ZTINSt3__17variantIJNS_10shared_ptrIKN7android2nn6MemoryEEENS2_4base10unexpectedINS3_12GeneralErrorEEEEEE"
    }
   ],
   "linker_set_key" : "_ZTIN7android4base8expectedINSt3__110shared_ptrIKNS_2nn6MemoryEEENS4_12GeneralErrorEEE",
   "name" : "android::base::expected<std::shared_ptr<const android::nn::Memory>, android::nn::GeneralError>",
   "record_kind" : "class",
   "referenced_type" : "_ZTIN7android4base8expectedINSt3__110shared_ptrIKNS_2nn6MemoryEEENS4_12GeneralErrorEEE",
   "self_type" : "_ZTIN7android4base8expectedINSt3__110shared_ptrIKNS_2nn6MemoryEEENS4_12GeneralErrorEEE",
   "size" : 40,
   "source_file" : "system/libbase/include/android-base/expected.h",
   "template_args" :
   [
    "_ZTINSt3__110shared_ptrIKN7android2nn6MemoryEEE",
    "_ZTIN7android2nn12GeneralErrorE"
   ]
  },
  {
   "alignment" : 8,
   "fields" :
   [
    {
     "access" : "private",
     "field_name" : "var_",
     "referenced_type" : "_ZTINSt3__17variantIJNS_6vectorIN7android4base14unique_fd_implINS3_13DefaultCloserEEENS_9allocatorIS6_EEEENS3_10unexpectedINS2_2nn12GeneralErrorEEEEEE"
    }
   ],
   "linker_set_key" : "_ZTIN7android4base8expectedINSt3__16vectorINS0_14unique_fd_implINS0_13DefaultCloserEEENS2_9allocatorIS6_EEEENS_2nn12GeneralErrorEEE",
   "name" : "android::base::expected<std::vector<android::base::unique_fd_impl<android::base::DefaultCloser>, std::allocator<android::base::unique_fd_impl<android::base::DefaultCloser>>>, android::nn::GeneralError>",
   "record_kind" : "class",
   "referenced_type" : "_ZTIN7android4base8expectedINSt3__16vectorINS0_14unique_fd_implINS0_13DefaultCloserEEENS2_9allocatorIS6_EEEENS_2nn12GeneralErrorEEE",
   "self_type" : "_ZTIN7android4base8expectedINSt3__16vectorINS0_14unique_fd_implINS0_13DefaultCloserEEENS2_9allocatorIS6_EEEENS_2nn12GeneralErrorEEE",
   "size" : 40,
   "source_file" : "system/libbase/include/android-base/expected.h",
   "template_args" :
   [
    "_ZTINSt3__16vectorIN7android4base14unique_fd_implINS2_13DefaultCloserEEENS_9allocatorIS5_EEEE",
    "_ZTIN7android2nn12GeneralErrorE"
   ]
  },
  {
   "alignment" : 1,
   "linker_set_key" : "_ZTIN7android7RefBase12weakref_typeE",
   "name" : "android::RefBase::weakref_type",
   "record_kind" : "class",
   "referenced_type" : "_ZTIN7android7RefBase12weakref_typeE",
   "self_type" : "_ZTIN7android7RefBase12weakref_typeE",
   "size" : 1,
   "source_file" : "system/core/libutils/include/utils/RefBase.h"
  },
  {
   "alignment" : 8,
   "fields" :
   [
    {
     "access" : "private",
     "field_name" : "mRefs",
     "field_offset" : 64,
     "referenced_type" : "_ZTIKPN7android7RefBase12weakref_implE"
    }
   ],
   "linker_set_key" : "_ZTIN7android7RefBaseE",
   "name" : "android::RefBase",
   "record_kind" : "class",
   "referenced_type" : "_ZTIN7android7RefBaseE",
   "self_type" : "_ZTIN7android7RefBaseE",
   "size" : 16,
   "source_file" : "system/core/libutils/include/utils/RefBase.h",
   "vtable_components" :
   [
    {
     "kind" : "offset_to_top"
    },
    {
     "kind" : "rtti",
     "mangled_component_name" : "_ZTIN7android7RefBaseE"
    },
    {
     "kind" : "complete_dtor_pointer",
     "mangled_component_name" : "_ZN7android7RefBaseD1Ev"
    },
    {
     "kind" : "deleting_dtor_pointer",
     "mangled_component_name" : "_ZN7android7RefBaseD0Ev"
    },
    {
     "mangled_component_name" : "_ZN7android7RefBase10onFirstRefEv"
    },
    {
     "mangled_component_name" : "_ZN7android7RefBase15onLastStrongRefEPKv"
    },
    {
     "mangled_component_name" : "_ZN7android7RefBase20onIncStrongAttemptedEjPKv"
    },
    {
     "mangled_component_name" : "_ZN7android7RefBase13onLastWeakRefEPKv"
    }
   ]
  }
 ],
 "rvalue_reference_types" :
 [
  {
   "alignment" : 8,
   "linker_set_key" : "_ZTION7android2nn11ErrorStatusE",
   "name" : "android::nn::ErrorStatus &&",
   "referenced_type" : "_ZTIN7android2nn11ErrorStatusE",
   "self_type" : "_ZTION7android2nn11ErrorStatusE",
   "size" : 8,
   "source_file" : "packages/modules/NeuralNetworks/common/include/nnapi/Result.h"
  },
  {
   "alignment" : 8,
   "linker_set_key" : "_ZTION7android2nn12GeneralErrorE",
   "name" : "android::nn::GeneralError &&",
   "referenced_type" : "_ZTIN7android2nn12GeneralErrorE",
   "self_type" : "_ZTION7android2nn12GeneralErrorE",
   "size" : 8,
   "source_file" : "system/libbase/include/android-base/expected.h"
  },
  {
   "alignment" : 8,
   "linker_set_key" : "_ZTION7android2nn7MappingE",
   "name" : "android::nn::Mapping &&",
   "referenced_type" : "_ZTIN7android2nn7MappingE",
   "self_type" : "_ZTION7android2nn7MappingE",
   "size" : 8,
   "source_file" : "system/libbase/include/android-base/expected.h"
  },
  {
   "alignment" : 8,
   "linker_set_key" : "_ZTION7android2spINS_4hidl6memory4V1_07IMemoryEEE",
   "name" : "android::sp<android::hidl::memory::V1_0::IMemory> &&",
   "referenced_type" : "_ZTIN7android2spINS_4hidl6memory4V1_07IMemoryEEE",
   "self_type" : "_ZTION7android2spINS_4hidl6memory4V1_07IMemoryEEE",
   "size" : 8,
   "source_file" : "system/core/libutils/include/utils/StrongPointer.h"
  },
  {
   "alignment" : 8,
   "linker_set_key" : "_ZTION7android4base10unexpectedINS_2nn12GeneralErrorEEE",
   "name" : "android::base::unexpected<android::nn::GeneralError> &&",
   "referenced_type" : "_ZTIN7android4base10unexpectedINS_2nn12GeneralErrorEEE",
   "self_type" : "_ZTION7android4base10unexpectedINS_2nn12GeneralErrorEEE",
   "size" : 8,
   "source_file" : "system/libbase/include/android-base/expected.h"
  },
  {
   "alignment" : 8,
   "linker_set_key" : "_ZTION7android4base10unexpectedINSt3__112basic_stringIcNS2_11char_traitsIcEENS2_9allocatorIcEEEEEE",
   "name" : "android::base::unexpected<std::basic_string<char, std::char_traits<char>, std::allocator<char>>> &&",
   "referenced_type" : "_ZTIN7android4base10unexpectedINSt3__112basic_stringIcNS2_11char_traitsIcEENS2_9allocatorIcEEEEEE",
   "self_type" : "_ZTION7android4base10unexpectedINSt3__112basic_stringIcNS2_11char_traitsIcEENS2_9allocatorIcEEEEEE",
   "size" : 8,
   "source_file" : "system/libbase/include/android-base/expected.h"
  },
  {
   "alignment" : 8,
   "linker_set_key" : "_ZTION7android4base14unique_fd_implINS0_13DefaultCloserEEE",
   "name" : "android::base::unique_fd_impl<android::base::DefaultCloser> &&",
   "referenced_type" : "_ZTIN7android4base14unique_fd_implINS0_13DefaultCloserEEE",
   "self_type" : "_ZTION7android4base14unique_fd_implINS0_13DefaultCloserEEE",
   "size" : 8,
   "source_file" : "system/libbase/include/android-base/unique_fd.h"
  },
  {
   "alignment" : 8,
   "linker_set_key" : "_ZTION7android4base8expectedINS0_14unique_fd_implINS0_13DefaultCloserEEENS_2nn12GeneralErrorEEE",
   "name" : "android::base::expected<android::base::unique_fd_impl<android::base::DefaultCloser>, android::nn::GeneralError> &&",
   "referenced_type" : "_ZTIN7android4base8expectedINS0_14unique_fd_implINS0_13DefaultCloserEEENS_2nn12GeneralErrorEEE",
   "self_type" : "_ZTION7android4base8expectedINS0_14unique_fd_implINS0_13DefaultCloserEEENS_2nn12GeneralErrorEEE",
   "size" : 8,
   "source_file" : "system/libbase/include/android-base/expected.h"
  },
  {
   "alignment" : 8,
   "linker_set_key" : "_ZTION7android4base8expectedINS_2nn7MappingENS2_12GeneralErrorEEE",
   "name" : "android::base::expected<android::nn::Mapping, android::nn::GeneralError> &&",
   "referenced_type" : "_ZTIN7android4base8expectedINS_2nn7MappingENS2_12GeneralErrorEEE",
   "self_type" : "_ZTION7android4base8expectedINS_2nn7MappingENS2_12GeneralErrorEEE",
   "size" : 8,
   "source_file" : "system/libbase/include/android-base/expected.h"
  },
  {
   "alignment" : 8,
   "linker_set_key" : "_ZTION7android4base8expectedINS_2nn7VersionENSt3__112basic_stringIcNS4_11char_traitsIcEENS4_9allocatorIcEEEEEE",
   "name" : "android::base::expected<android::nn::Version, std::basic_string<char, std::char_traits<char>, std::allocator<char>>> &&",
   "referenced_type" : "_ZTIN7android4base8expectedINS_2nn7VersionENSt3__112basic_stringIcNS4_11char_traitsIcEENS4_9allocatorIcEEEEEE",
   "self_type" : "_ZTION7android4base8expectedINS_2nn7VersionENSt3__112basic_stringIcNS4_11char_traitsIcEENS4_9allocatorIcEEEEEE",
   "size" : 8,
   "source_file" : "system/libbase/include/android-base/expected.h"
  },
  {
   "alignment" : 8,
   "linker_set_key" : "_ZTION7android4base8expectedINS_8hardware11hidl_handleENS_2nn12GeneralErrorEEE",
   "name" : "android::base::expected<android::hardware::hidl_handle, android::nn::GeneralError> &&",
   "referenced_type" : "_ZTIN7android4base8expectedINS_8hardware11hidl_handleENS_2nn12GeneralErrorEEE",
   "self_type" : "_ZTION7android4base8expectedINS_8hardware11hidl_handleENS_2nn12GeneralErrorEEE",
   "size" : 8,
   "source_file" : "system/libbase/include/android-base/expected.h"
  },
  {
   "alignment" : 8,
   "linker_set_key" : "_ZTION7android4base8expectedINSt3__110shared_ptrIKNS_2nn6MemoryEEENS4_12GeneralErrorEEE",
   "name" : "android::base::expected<std::shared_ptr<const android::nn::Memory>, android::nn::GeneralError> &&",
   "referenced_type" : "_ZTIN7android4base8expectedINSt3__110shared_ptrIKNS_2nn6MemoryEEENS4_12GeneralErrorEEE",
   "self_type" : "_ZTION7android4base8expectedINSt3__110shared_ptrIKNS_2nn6MemoryEEENS4_12GeneralErrorEEE",
   "size" : 8,
   "source_file" : "system/libbase/include/android-base/expected.h"
  },
  {
   "alignment" : 8,
   "linker_set_key" : "_ZTION7android4base8expectedINSt3__16vectorINS0_14unique_fd_implINS0_13DefaultCloserEEENS2_9allocatorIS6_EEEENS_2nn12GeneralErrorEEE",
   "name" : "android::base::expected<std::vector<android::base::unique_fd_impl<android::base::DefaultCloser>, std::allocator<android::base::unique_fd_impl<android::base::DefaultCloser>>>, android::nn::GeneralError> &&",
   "referenced_type" : "_ZTIN7android4base8expectedINSt3__16vectorINS0_14unique_fd_implINS0_13DefaultCloserEEENS2_9allocatorIS6_EEEENS_2nn12GeneralErrorEEE",
   "self_type" : "_ZTION7android4base8expectedINSt3__16vectorINS0_14unique_fd_implINS0_13DefaultCloserEEENS2_9allocatorIS6_EEEENS_2nn12GeneralErrorEEE",
   "size" : 8,
   "source_file" : "system/libbase/include/android-base/expected.h"
  },
  {
   "alignment" : 8,
   "linker_set_key" : "_ZTION7android8hardware11hidl_handleE",
   "name" : "android::hardware::hidl_handle &&",
   "referenced_type" : "_ZTIN7android8hardware11hidl_handleE",
   "self_type" : "_ZTION7android8hardware11hidl_handleE",
   "size" : 8,
   "source_file" : "system/libbase/include/android-base/expected.h"
  },
  {
   "alignment" : 8,
   "linker_set_key" : "_ZTIONSt3__110shared_ptrIKN7android2nn6MemoryEEE",
   "name" : "std::shared_ptr<const android::nn::Memory> &&",
   "referenced_type" : "_ZTINSt3__110shared_ptrIKN7android2nn6MemoryEEE",
   "self_type" : "_ZTIONSt3__110shared_ptrIKN7android2nn6MemoryEEE",
   "size" : 8,
   "source_file" : "system/libbase/include/android-base/expected.h"
  },
  {
   "alignment" : 8,
   "linker_set_key" : "_ZTIONSt3__112basic_stringIcNS_11char_traitsIcEENS_9allocatorIcEEEE",
   "name" : "std::basic_string<char, std::char_traits<char>, std::allocator<char>> &&",
   "referenced_type" : "_ZTINSt3__112basic_stringIcNS_11char_traitsIcEENS_9allocatorIcEEEE",
   "self_type" : "_ZTIONSt3__112basic_stringIcNS_11char_traitsIcEENS_9allocatorIcEEEE",
   "size" : 8,
   "source_file" : "system/libbase/include/android-base/expected.h"
  },
  {
   "alignment" : 8,
   "linker_set_key" : "_ZTIONSt3__16vectorIN7android4base14unique_fd_implINS2_13DefaultCloserEEENS_9allocatorIS5_EEEE",
   "name" : "std::vector<android::base::unique_fd_impl<android::base::DefaultCloser>, std::allocator<android::base::unique_fd_impl<android::base::DefaultCloser>>> &&",
   "referenced_type" : "_ZTINSt3__16vectorIN7android4base14unique_fd_implINS2_13DefaultCloserEEENS_9allocatorIS5_EEEE",
   "self_type" : "_ZTIONSt3__16vectorIN7android4base14unique_fd_implINS2_13DefaultCloserEEENS_9allocatorIS5_EEEE",
   "size" : 8,
   "source_file" : "system/libbase/include/android-base/expected.h"
  },
  {
   "alignment" : 8,
   "linker_set_key" : "_ZTIOj",
   "name" : "unsigned int &&",
   "referenced_type" : "_ZTIj",
   "self_type" : "_ZTIOj",
   "size" : 8,
   "source_file" : "system/libbase/include/android-base/logging.h"
  },
  {
   "alignment" : 8,
   "linker_set_key" : "_ZTIOm",
   "name" : "unsigned long &&",
   "referenced_type" : "_ZTIm",
   "self_type" : "_ZTIOm",
   "size" : 8,
   "source_file" : "system/libbase/include/android-base/logging.h"
  }
 ]
}
