{
 "array_types" : [],
 "builtin_types" :
 [
  {
   "alignment" : 1,
   "is_integral" : true,
   "is_unsigned" : true,
   "linker_set_key" : "_ZTIc",
   "name" : "char",
   "referenced_type" : "_ZTIc",
   "self_type" : "_ZTIc",
   "size" : 1
  },
  {
   "alignment" : 1,
   "is_integral" : true,
   "is_unsigned" : true,
   "linker_set_key" : "_ZTIh",
   "name" : "unsigned char",
   "referenced_type" : "_ZTIh",
   "self_type" : "_ZTIh",
   "size" : 1
  },
  {
   "alignment" : 4,
   "is_integral" : true,
   "linker_set_key" : "_ZTIi",
   "name" : "int",
   "referenced_type" : "_ZTIi",
   "self_type" : "_ZTIi",
   "size" : 4
  },
  {
   "linker_set_key" : "_ZTIv",
   "name" : "void",
   "referenced_type" : "_ZTIv",
   "self_type" : "_ZTIv"
  }
 ],
 "elf_functions" : [],
 "elf_objects" : [],
 "enum_types" : [],
 "function_types" : [],
 "functions" :
 [
  {
   "function_name" : "android::netdutils::DumpWriter::println",
   "linker_set_key" : "_ZN7android9netdutils10DumpWriter7printlnEPKcz",
   "parameters" :
   [
    {
     "is_this_ptr" : true,
     "referenced_type" : "_ZTIPN7android9netdutils10DumpWriterE"
    },
    {
     "referenced_type" : "_ZTIPKc"
    }
   ],
   "return_type" : "_ZTIv",
   "source_file" : "system/netd/libnetdutils/include/netdutils/DumpWriter.h"
  },
  {
   "function_name" : "android::netdutils::DumpWriter::println",
   "linker_set_key" : "_ZN7android9netdutils10DumpWriter7printlnERKNSt3__112basic_stringIcNS2_11char_traitsIcEENS2_9allocatorIcEEEE",
   "parameters" :
   [
    {
     "is_this_ptr" : true,
     "referenced_type" : "_ZTIPN7android9netdutils10DumpWriterE"
    },
    {
     "referenced_type" : "_ZTIRKNSt3__112basic_stringIcNS_11char_traitsIcEENS_9allocatorIcEEEE"
    }
   ],
   "return_type" : "_ZTIv",
   "source_file" : "system/netd/libnetdutils/include/netdutils/DumpWriter.h"
  },
  {
   "function_name" : "android::netdutils::DumpWriter::blankline",
   "linker_set_key" : "_ZN7android9netdutils10DumpWriter9blanklineEv",
   "parameters" :
   [
    {
     "is_this_ptr" : true,
     "referenced_type" : "_ZTIPN7android9netdutils10DumpWriterE"
    }
   ],
   "return_type" : "_ZTIv",
   "source_file" : "system/netd/libnetdutils/include/netdutils/DumpWriter.h"
  },
  {
   "function_name" : "android::netdutils::DumpWriter::decIndent",
   "linker_set_key" : "_ZN7android9netdutils10DumpWriter9decIndentEv",
   "parameters" :
   [
    {
     "is_this_ptr" : true,
     "referenced_type" : "_ZTIPN7android9netdutils10DumpWriterE"
    }
   ],
   "return_type" : "_ZTIv",
   "source_file" : "system/netd/libnetdutils/include/netdutils/DumpWriter.h"
  },
  {
   "function_name" : "android::netdutils::DumpWriter::incIndent",
   "linker_set_key" : "_ZN7android9netdutils10DumpWriter9incIndentEv",
   "parameters" :
   [
    {
     "is_this_ptr" : true,
     "referenced_type" : "_ZTIPN7android9netdutils10DumpWriterE"
    }
   ],
   "return_type" : "_ZTIv",
   "source_file" : "system/netd/libnetdutils/include/netdutils/DumpWriter.h"
  },
  {
   "function_name" : "android::netdutils::DumpWriter::DumpWriter",
   "linker_set_key" : "_ZN7android9netdutils10DumpWriterC1Ei",
   "parameters" :
   [
    {
     "is_this_ptr" : true,
     "referenced_type" : "_ZTIPN7android9netdutils10DumpWriterE"
    },
    {
     "referenced_type" : "_ZTIi"
    }
   ],
   "return_type" : "_ZTIv",
   "source_file" : "system/netd/libnetdutils/include/netdutils/DumpWriter.h"
  },
  {
   "function_name" : "android::netdutils::DumpWriter::DumpWriter",
   "linker_set_key" : "_ZN7android9netdutils10DumpWriterC2Ei",
   "parameters" :
   [
    {
     "is_this_ptr" : true,
     "referenced_type" : "_ZTIPN7android9netdutils10DumpWriterE"
    },
    {
     "referenced_type" : "_ZTIi"
    }
   ],
   "return_type" : "_ZTIv",
   "source_file" : "system/netd/libnetdutils/include/netdutils/DumpWriter.h"
  },
  {
   "function_name" : "android::netdutils::ScopedIndent::ScopedIndent",
   "linker_set_key" : "_ZN7android9netdutils12ScopedIndentC1ERNS0_10DumpWriterE",
   "parameters" :
   [
    {
     "is_this_ptr" : true,
     "referenced_type" : "_ZTIPN7android9netdutils12ScopedIndentE"
    },
    {
     "referenced_type" : "_ZTIRN7android9netdutils10DumpWriterE"
    }
   ],
   "return_type" : "_ZTIv",
   "source_file" : "system/netd/libnetdutils/include/netdutils/DumpWriter.h"
  },
  {
   "function_name" : "android::netdutils::ScopedIndent::ScopedIndent",
   "linker_set_key" : "_ZN7android9netdutils12ScopedIndentC2ERNS0_10DumpWriterE",
   "parameters" :
   [
    {
     "is_this_ptr" : true,
     "referenced_type" : "_ZTIPN7android9netdutils12ScopedIndentE"
    },
    {
     "referenced_type" : "_ZTIRN7android9netdutils10DumpWriterE"
    }
   ],
   "return_type" : "_ZTIv",
   "source_file" : "system/netd/libnetdutils/include/netdutils/DumpWriter.h"
  },
  {
   "function_name" : "android::netdutils::ScopedIndent::~ScopedIndent",
   "linker_set_key" : "_ZN7android9netdutils12ScopedIndentD1Ev",
   "parameters" :
   [
    {
     "is_this_ptr" : true,
     "referenced_type" : "_ZTIPN7android9netdutils12ScopedIndentE"
    }
   ],
   "return_type" : "_ZTIv",
   "source_file" : "system/netd/libnetdutils/include/netdutils/DumpWriter.h"
  },
  {
   "function_name" : "android::netdutils::ScopedIndent::~ScopedIndent",
   "linker_set_key" : "_ZN7android9netdutils12ScopedIndentD2Ev",
   "parameters" :
   [
    {
     "is_this_ptr" : true,
     "referenced_type" : "_ZTIPN7android9netdutils12ScopedIndentE"
    }
   ],
   "return_type" : "_ZTIv",
   "source_file" : "system/netd/libnetdutils/include/netdutils/DumpWriter.h"
  }
 ],
 "global_vars" : [],
 "lvalue_reference_types" :
 [
  {
   "alignment" : 8,
   "linker_set_key" : "_ZTIRKNSt3__112basic_stringIcNS_11char_traitsIcEENS_9allocatorIcEEEE",
   "name" : "const std::basic_string<char, std::char_traits<char>, std::allocator<char>> &",
   "referenced_type" : "_ZTIKNSt3__112basic_stringIcNS_11char_traitsIcEENS_9allocatorIcEEEE",
   "self_type" : "_ZTIRKNSt3__112basic_stringIcNS_11char_traitsIcEENS_9allocatorIcEEEE",
   "size" : 8,
   "source_file" : "system/netd/libnetdutils/include/netdutils/DumpWriter.h"
  },
  {
   "alignment" : 8,
   "linker_set_key" : "_ZTIRN7android9netdutils10DumpWriterE",
   "name" : "android::netdutils::DumpWriter &",
   "referenced_type" : "_ZTIN7android9netdutils10DumpWriterE",
   "self_type" : "_ZTIRN7android9netdutils10DumpWriterE",
   "size" : 8,
   "source_file" : "system/netd/libnetdutils/include/netdutils/DumpWriter.h"
  }
 ],
 "pointer_types" :
 [
  {
   "alignment" : 8,
   "linker_set_key" : "_ZTIPKc",
   "name" : "const char *",
   "referenced_type" : "_ZTIKc",
   "self_type" : "_ZTIPKc",
   "size" : 8,
   "source_file" : "system/netd/libnetdutils/include/netdutils/DumpWriter.h"
  },
  {
   "alignment" : 8,
   "linker_set_key" : "_ZTIPN7android9netdutils10DumpWriterE",
   "name" : "android::netdutils::DumpWriter *",
   "referenced_type" : "_ZTIN7android9netdutils10DumpWriterE",
   "self_type" : "_ZTIPN7android9netdutils10DumpWriterE",
   "size" : 8,
   "source_file" : "system/netd/libnetdutils/include/netdutils/DumpWriter.h"
  },
  {
   "alignment" : 8,
   "linker_set_key" : "_ZTIPN7android9netdutils12ScopedIndentE",
   "name" : "android::netdutils::ScopedIndent *",
   "referenced_type" : "_ZTIN7android9netdutils12ScopedIndentE",
   "self_type" : "_ZTIPN7android9netdutils12ScopedIndentE",
   "size" : 8,
   "source_file" : "system/netd/libnetdutils/include/netdutils/DumpWriter.h"
  }
 ],
 "qualified_types" :
 [
  {
   "alignment" : 8,
   "is_const" : true,
   "linker_set_key" : "_ZTIKNSt3__112basic_stringIcNS_11char_traitsIcEENS_9allocatorIcEEEE",
   "name" : "const std::basic_string<char, std::char_traits<char>, std::allocator<char>>",
   "referenced_type" : "_ZTINSt3__112basic_stringIcNS_11char_traitsIcEENS_9allocatorIcEEEE",
   "self_type" : "_ZTIKNSt3__112basic_stringIcNS_11char_traitsIcEENS_9allocatorIcEEEE",
   "size" : 24,
   "source_file" : "system/netd/libnetdutils/include/netdutils/DumpWriter.h"
  },
  {
   "alignment" : 1,
   "is_const" : true,
   "linker_set_key" : "_ZTIKc",
   "name" : "const char",
   "referenced_type" : "_ZTIc",
   "self_type" : "_ZTIKc",
   "size" : 1,
   "source_file" : "system/netd/libnetdutils/include/netdutils/DumpWriter.h"
  }
 ],
 "record_types" :
 [
  {
   "alignment" : 4,
   "fields" :
   [
    {
     "access" : "private",
     "field_name" : "mIndentLevel",
     "referenced_type" : "_ZTIh"
    },
    {
     "access" : "private",
     "field_name" : "mFd",
     "field_offset" : 32,
     "referenced_type" : "_ZTIi"
    }
   ],
   "linker_set_key" : "_ZTIN7android9netdutils10DumpWriterE",
   "name" : "android::netdutils::DumpWriter",
   "record_kind" : "class",
   "referenced_type" : "_ZTIN7android9netdutils10DumpWriterE",
   "self_type" : "_ZTIN7android9netdutils10DumpWriterE",
   "size" : 8,
   "source_file" : "system/netd/libnetdutils/include/netdutils/DumpWriter.h"
  },
  {
   "alignment" : 8,
   "fields" :
   [
    {
     "access" : "private",
     "field_name" : "mDw",
     "referenced_type" : "_ZTIRN7android9netdutils10DumpWriterE"
    }
   ],
   "linker_set_key" : "_ZTIN7android9netdutils12ScopedIndentE",
   "name" : "android::netdutils::ScopedIndent",
   "record_kind" : "class",
   "referenced_type" : "_ZTIN7android9netdutils12ScopedIndentE",
   "self_type" : "_ZTIN7android9netdutils12ScopedIndentE",
   "size" : 8,
   "source_file" : "system/netd/libnetdutils/include/netdutils/DumpWriter.h"
  }
 ],
 "rvalue_reference_types" : []
}
