{
 "array_types" :
 [
  {
   "alignment" : 1,
   "linker_set_key" : "_ZTIA22_c",
   "name" : "char [22]",
   "referenced_type" : "_ZTIc",
   "self_type" : "_ZTIA22_c",
   "size" : 22,
   "source_file" : "external/fmtlib/include/fmt/format.h"
  },
  {
   "alignment" : 1,
   "linker_set_key" : "_ZTIA256_c",
   "name" : "char [256]",
   "referenced_type" : "_ZTIc",
   "self_type" : "_ZTIA256_c",
   "size" : 256,
   "source_file" : "external/fmtlib/include/fmt/core.h"
  },
  {
   "alignment" : 1,
   "linker_set_key" : "_ZTIA2_c",
   "name" : "char [2]",
   "referenced_type" : "_ZTIc",
   "self_type" : "_ZTIA2_c",
   "size" : 2,
   "source_file" : "external/fmtlib/include/fmt/format.h"
  },
  {
   "alignment" : 1,
   "linker_set_key" : "_ZTIA3_h",
   "name" : "unsigned char [3]",
   "referenced_type" : "_ZTIh",
   "self_type" : "_ZTIA3_h",
   "size" : 3,
   "source_file" : "external/fmtlib/include/fmt/core.h"
  },
  {
   "alignment" : 1,
   "linker_set_key" : "_ZTIA4_c",
   "name" : "char [4]",
   "referenced_type" : "_ZTIc",
   "self_type" : "_ZTIA4_c",
   "size" : 4,
   "source_file" : "external/fmtlib/include/fmt/format.h"
  },
  {
   "alignment" : 1,
   "linker_set_key" : "_ZTIA500_c",
   "name" : "char [500]",
   "referenced_type" : "_ZTIc",
   "self_type" : "_ZTIA500_c",
   "size" : 500,
   "source_file" : "external/fmtlib/include/fmt/format.h"
  },
  {
   "alignment" : 4,
   "linker_set_key" : "_ZTIA500_w",
   "name" : "wchar_t [500]",
   "referenced_type" : "_ZTIw",
   "self_type" : "_ZTIA500_w",
   "size" : 2000,
   "source_file" : "external/fmtlib/include/fmt/format.h"
  },
  {
   "alignment" : 1,
   "linker_set_key" : "_ZTIA5_c",
   "name" : "char [5]",
   "referenced_type" : "_ZTIc",
   "self_type" : "_ZTIA5_c",
   "size" : 5,
   "source_file" : "external/fmtlib/include/fmt/format.h"
  },
  {
   "alignment" : 4,
   "linker_set_key" : "_ZTIA5_w",
   "name" : "wchar_t [5]",
   "referenced_type" : "_ZTIw",
   "self_type" : "_ZTIA5_w",
   "size" : 20,
   "source_file" : "external/fmtlib/include/fmt/format.h"
  },
  {
   "alignment" : 2,
   "linker_set_key" : "_ZTIA64_t",
   "name" : "unsigned short [64]",
   "referenced_type" : "_ZTIt",
   "self_type" : "_ZTIA64_t",
   "size" : 128,
   "source_file" : "external/fmtlib/include/fmt/format.h"
  },
  {
   "alignment" : 1,
   "linker_set_key" : "_ZTIA8_h",
   "name" : "unsigned char [8]",
   "referenced_type" : "_ZTIh",
   "self_type" : "_ZTIA8_h",
   "size" : 8,
   "source_file" : "external/fmtlib/include/fmt/format.h"
  },
  {
   "linker_set_key" : "_ZTIA_A2_c",
   "name" : "char [][2]",
   "referenced_type" : "_ZTIA2_c",
   "self_type" : "_ZTIA_A2_c",
   "source_file" : "external/fmtlib/include/fmt/format.h"
  },
  {
   "linker_set_key" : "_ZTIA_N3fmt2v76detail15uint128_wrapperE",
   "name" : "fmt::v7::detail::uint128_wrapper []",
   "referenced_type" : "_ZTIN3fmt2v76detail15uint128_wrapperE",
   "self_type" : "_ZTIA_N3fmt2v76detail15uint128_wrapperE",
   "source_file" : "external/fmtlib/include/fmt/format.h"
  },
  {
   "linker_set_key" : "_ZTIA_N3fmt2v76detail19divtest_table_entryIjEE",
   "name" : "fmt::v7::detail::divtest_table_entry<unsigned int> []",
   "referenced_type" : "_ZTIN3fmt2v76detail19divtest_table_entryIjEE",
   "self_type" : "_ZTIA_N3fmt2v76detail19divtest_table_entryIjEE",
   "source_file" : "external/fmtlib/include/fmt/format.h"
  },
  {
   "linker_set_key" : "_ZTIA_N3fmt2v76detail19divtest_table_entryImEE",
   "name" : "fmt::v7::detail::divtest_table_entry<unsigned long> []",
   "referenced_type" : "_ZTIN3fmt2v76detail19divtest_table_entryImEE",
   "self_type" : "_ZTIA_N3fmt2v76detail19divtest_table_entryImEE",
   "source_file" : "external/fmtlib/include/fmt/format.h"
  },
  {
   "linker_set_key" : "_ZTIA_c",
   "name" : "char []",
   "referenced_type" : "_ZTIc",
   "self_type" : "_ZTIA_c",
   "source_file" : "external/fmtlib/include/fmt/format.h"
  },
  {
   "linker_set_key" : "_ZTIA_j",
   "name" : "unsigned int []",
   "referenced_type" : "_ZTIj",
   "self_type" : "_ZTIA_j",
   "source_file" : "external/fmtlib/include/fmt/format.h"
  },
  {
   "linker_set_key" : "_ZTIA_m",
   "name" : "unsigned long []",
   "referenced_type" : "_ZTIm",
   "self_type" : "_ZTIA_m",
   "source_file" : "external/fmtlib/include/fmt/format.h"
  },
  {
   "linker_set_key" : "_ZTIA_s",
   "name" : "short []",
   "referenced_type" : "_ZTIs",
   "self_type" : "_ZTIA_s",
   "source_file" : "external/fmtlib/include/fmt/format.h"
  }
 ],
 "builtin_types" :
 [
  {
   "alignment" : 4,
   "is_integral" : true,
   "is_unsigned" : true,
   "linker_set_key" : "_ZTIDi",
   "name" : "char32_t",
   "referenced_type" : "_ZTIDi",
   "self_type" : "_ZTIDi",
   "size" : 4
  },
  {
   "alignment" : 2,
   "is_integral" : true,
   "is_unsigned" : true,
   "linker_set_key" : "_ZTIDs",
   "name" : "char16_t",
   "referenced_type" : "_ZTIDs",
   "self_type" : "_ZTIDs",
   "size" : 2
  },
  {
   "alignment" : 1,
   "is_integral" : true,
   "is_unsigned" : true,
   "linker_set_key" : "_ZTIDu",
   "name" : "char8_t",
   "referenced_type" : "_ZTIDu",
   "self_type" : "_ZTIDu",
   "size" : 1
  },
  {
   "alignment" : 1,
   "is_integral" : true,
   "is_unsigned" : true,
   "linker_set_key" : "_ZTIb",
   "name" : "bool",
   "referenced_type" : "_ZTIb",
   "self_type" : "_ZTIb",
   "size" : 1
  },
  {
   "alignment" : 1,
   "is_integral" : true,
   "is_unsigned" : true,
   "linker_set_key" : "_ZTIc",
   "name" : "char",
   "referenced_type" : "_ZTIc",
   "self_type" : "_ZTIc",
   "size" : 1
  },
  {
   "alignment" : 8,
   "linker_set_key" : "_ZTId",
   "name" : "double",
   "referenced_type" : "_ZTId",
   "self_type" : "_ZTId",
   "size" : 8
  },
  {
   "alignment" : 4,
   "linker_set_key" : "_ZTIf",
   "name" : "float",
   "referenced_type" : "_ZTIf",
   "self_type" : "_ZTIf",
   "size" : 4
  },
  {
   "alignment" : 1,
   "is_integral" : true,
   "is_unsigned" : true,
   "linker_set_key" : "_ZTIh",
   "name" : "unsigned char",
   "referenced_type" : "_ZTIh",
   "self_type" : "_ZTIh",
   "size" : 1
  },
  {
   "alignment" : 4,
   "is_integral" : true,
   "linker_set_key" : "_ZTIi",
   "name" : "int",
   "referenced_type" : "_ZTIi",
   "self_type" : "_ZTIi",
   "size" : 4
  },
  {
   "alignment" : 4,
   "is_integral" : true,
   "is_unsigned" : true,
   "linker_set_key" : "_ZTIj",
   "name" : "unsigned int",
   "referenced_type" : "_ZTIj",
   "self_type" : "_ZTIj",
   "size" : 4
  },
  {
   "alignment" : 8,
   "is_integral" : true,
   "linker_set_key" : "_ZTIl",
   "name" : "long",
   "referenced_type" : "_ZTIl",
   "self_type" : "_ZTIl",
   "size" : 8
  },
  {
   "alignment" : 8,
   "is_integral" : true,
   "is_unsigned" : true,
   "linker_set_key" : "_ZTIm",
   "name" : "unsigned long",
   "referenced_type" : "_ZTIm",
   "self_type" : "_ZTIm",
   "size" : 8
  },
  {
   "alignment" : 16,
   "is_integral" : true,
   "linker_set_key" : "_ZTIn",
   "name" : "__int128",
   "referenced_type" : "_ZTIn",
   "self_type" : "_ZTIn",
   "size" : 16
  },
  {
   "alignment" : 16,
   "is_integral" : true,
   "is_unsigned" : true,
   "linker_set_key" : "_ZTIo",
   "name" : "unsigned __int128",
   "referenced_type" : "_ZTIo",
   "self_type" : "_ZTIo",
   "size" : 16
  },
  {
   "alignment" : 2,
   "is_integral" : true,
   "linker_set_key" : "_ZTIs",
   "name" : "short",
   "referenced_type" : "_ZTIs",
   "self_type" : "_ZTIs",
   "size" : 2
  },
  {
   "alignment" : 2,
   "is_integral" : true,
   "is_unsigned" : true,
   "linker_set_key" : "_ZTIt",
   "name" : "unsigned short",
   "referenced_type" : "_ZTIt",
   "self_type" : "_ZTIt",
   "size" : 2
  },
  {
   "linker_set_key" : "_ZTIv",
   "name" : "void",
   "referenced_type" : "_ZTIv",
   "self_type" : "_ZTIv"
  },
  {
   "alignment" : 4,
   "is_integral" : true,
   "is_unsigned" : true,
   "linker_set_key" : "_ZTIw",
   "name" : "wchar_t",
   "referenced_type" : "_ZTIw",
   "self_type" : "_ZTIw",
   "size" : 4
  },
  {
   "alignment" : 8,
   "is_integral" : true,
   "linker_set_key" : "_ZTIx",
   "name" : "long long",
   "referenced_type" : "_ZTIx",
   "self_type" : "_ZTIx",
   "size" : 8
  },
  {
   "alignment" : 8,
   "is_integral" : true,
   "is_unsigned" : true,
   "linker_set_key" : "_ZTIy",
   "name" : "unsigned long long",
   "referenced_type" : "_ZTIy",
   "self_type" : "_ZTIy",
   "size" : 8
  }
 ],
 "elf_functions" : [],
 "elf_objects" : [],
 "enum_types" :
 [
  {
   "access" : "private",
   "alignment" : 4,
   "enum_fields" :
   [
    {
     "enum_field_value" : 22,
     "name" : "fmt::v7::format_int::buffer_size"
    }
   ],
   "linker_set_key" : "_ZTIN3fmt2v710format_int12$buffer_sizeE",
   "name" : "fmt::format_int::(anonymous enum at external/fmtlib/include/fmt/format.h:3338:3)",
   "referenced_type" : "_ZTIN3fmt2v710format_int12$buffer_sizeE",
   "self_type" : "_ZTIN3fmt2v710format_int12$buffer_sizeE",
   "size" : 4,
   "source_file" : "external/fmtlib/include/fmt/format.h",
   "underlying_type" : "_ZTIj"
  },
  {
   "alignment" : 4,
   "enum_fields" :
   [
    {
     "enum_field_value" : 500,
     "name" : "fmt::v7::inline_buffer_size"
    }
   ],
   "linker_set_key" : "_ZTIN3fmt2v719$inline_buffer_sizeE",
   "name" : "fmt::(anonymous enum at external/fmtlib/include/fmt/format.h:621:1)",
   "referenced_type" : "_ZTIN3fmt2v719$inline_buffer_sizeE",
   "self_type" : "_ZTIN3fmt2v719$inline_buffer_sizeE",
   "size" : 4,
   "source_file" : "external/fmtlib/include/fmt/format.h",
   "underlying_type" : "_ZTIj"
  },
  {
   "alignment" : 4,
   "enum_fields" :
   [
    {
     "enum_field_value" : 0,
     "name" : "fmt::v7::sign::none"
    },
    {
     "enum_field_value" : 1,
     "name" : "fmt::v7::sign::minus"
    },
    {
     "enum_field_value" : 2,
     "name" : "fmt::v7::sign::plus"
    },
    {
     "enum_field_value" : 3,
     "name" : "fmt::v7::sign::space"
    }
   ],
   "linker_set_key" : "_ZTIN3fmt2v74sign4typeE",
   "name" : "fmt::sign::type",
   "referenced_type" : "_ZTIN3fmt2v74sign4typeE",
   "self_type" : "_ZTIN3fmt2v74sign4typeE",
   "size" : 4,
   "source_file" : "external/fmtlib/include/fmt/format.h",
   "underlying_type" : "_ZTIj"
  },
  {
   "alignment" : 4,
   "enum_fields" :
   [
    {
     "enum_field_value" : 0,
     "name" : "fmt::v7::align::none"
    },
    {
     "enum_field_value" : 1,
     "name" : "fmt::v7::align::left"
    },
    {
     "enum_field_value" : 2,
     "name" : "fmt::v7::align::right"
    },
    {
     "enum_field_value" : 3,
     "name" : "fmt::v7::align::center"
    },
    {
     "enum_field_value" : 4,
     "name" : "fmt::v7::align::numeric"
    }
   ],
   "linker_set_key" : "_ZTIN3fmt2v75align4typeE",
   "name" : "fmt::align::type",
   "referenced_type" : "_ZTIN3fmt2v75align4typeE",
   "self_type" : "_ZTIN3fmt2v75align4typeE",
   "size" : 4,
   "source_file" : "external/fmtlib/include/fmt/format.h",
   "underlying_type" : "_ZTIj"
  },
  {
   "alignment" : 4,
   "enum_fields" :
   [
    {
     "enum_field_value" : 0,
     "name" : "fmt::v7::detail::long_short"
    }
   ],
   "linker_set_key" : "_ZTIN3fmt2v76detail11$long_shortE",
   "name" : "fmt::detail::(anonymous enum at external/fmtlib/include/fmt/core.h:1119:1)",
   "referenced_type" : "_ZTIN3fmt2v76detail11$long_shortE",
   "self_type" : "_ZTIN3fmt2v76detail11$long_shortE",
   "size" : 4,
   "source_file" : "external/fmtlib/include/fmt/core.h",
   "underlying_type" : "_ZTIj"
  },
  {
   "alignment" : 4,
   "enum_fields" :
   [
    {
     "enum_field_value" : 0,
     "name" : "fmt::v7::detail::arg_id_kind::none"
    },
    {
     "enum_field_value" : 1,
     "name" : "fmt::v7::detail::arg_id_kind::index"
    },
    {
     "enum_field_value" : 2,
     "name" : "fmt::v7::detail::arg_id_kind::name"
    }
   ],
   "linker_set_key" : "_ZTIN3fmt2v76detail11arg_id_kindE",
   "name" : "fmt::detail::arg_id_kind",
   "referenced_type" : "_ZTIN3fmt2v76detail11arg_id_kindE",
   "self_type" : "_ZTIN3fmt2v76detail11arg_id_kindE",
   "size" : 4,
   "source_file" : "external/fmtlib/include/fmt/format.h",
   "underlying_type" : "_ZTIi"
  },
  {
   "alignment" : 1,
   "enum_fields" :
   [
    {
     "enum_field_value" : 0,
     "name" : "fmt::v7::detail::float_format::general"
    },
    {
     "enum_field_value" : 1,
     "name" : "fmt::v7::detail::float_format::exp"
    },
    {
     "enum_field_value" : 2,
     "name" : "fmt::v7::detail::float_format::fixed"
    },
    {
     "enum_field_value" : 3,
     "name" : "fmt::v7::detail::float_format::hex"
    }
   ],
   "linker_set_key" : "_ZTIN3fmt2v76detail12float_formatE",
   "name" : "fmt::detail::float_format",
   "referenced_type" : "_ZTIN3fmt2v76detail12float_formatE",
   "self_type" : "_ZTIN3fmt2v76detail12float_formatE",
   "size" : 1,
   "source_file" : "external/fmtlib/include/fmt/format.h",
   "underlying_type" : "_ZTIh"
  },
  {
   "alignment" : 4,
   "enum_fields" :
   [
    {
     "enum_field_value" : 0,
     "name" : "fmt::v7::detail::numeric_system::standard"
    },
    {
     "enum_field_value" : 1,
     "name" : "fmt::v7::detail::numeric_system::alternative"
    }
   ],
   "linker_set_key" : "_ZTIN3fmt2v76detail14numeric_systemE",
   "name" : "fmt::detail::numeric_system",
   "referenced_type" : "_ZTIN3fmt2v76detail14numeric_systemE",
   "self_type" : "_ZTIN3fmt2v76detail14numeric_systemE",
   "size" : 4,
   "source_file" : "external/fmtlib/include/fmt/chrono.h",
   "underlying_type" : "_ZTIi"
  },
  {
   "access" : "private",
   "alignment" : 4,
   "enum_fields" :
   [
    {
     "enum_field_value" : 256,
     "name" : "fmt::v7::detail::counting_buffer<char>::buffer_size"
    }
   ],
   "linker_set_key" : "_ZTIN3fmt2v76detail15counting_bufferIcE12$buffer_sizeE",
   "name" : "fmt::detail::counting_buffer<char>::(anonymous enum at external/fmtlib/include/fmt/core.h:836:3)",
   "referenced_type" : "_ZTIN3fmt2v76detail15counting_bufferIcE12$buffer_sizeE",
   "self_type" : "_ZTIN3fmt2v76detail15counting_bufferIcE12$buffer_sizeE",
   "size" : 4,
   "source_file" : "external/fmtlib/include/fmt/core.h",
   "underlying_type" : "_ZTIj"
  },
  {
   "alignment" : 8,
   "enum_fields" :
   [
    {
     "enum_field_value" : 0,
     "name" : "fmt::v7::detail::is_unpacked_bit"
    }
   ],
   "linker_set_key" : "_ZTIN3fmt2v76detail16$is_unpacked_bitE",
   "name" : "fmt::detail::(anonymous enum at external/fmtlib/include/fmt/core.h:1245:1)",
   "referenced_type" : "_ZTIN3fmt2v76detail16$is_unpacked_bitE",
   "self_type" : "_ZTIN3fmt2v76detail16$is_unpacked_bitE",
   "size" : 8,
   "source_file" : "external/fmtlib/include/fmt/core.h",
   "underlying_type" : "_ZTIy"
  },
  {
   "alignment" : 4,
   "enum_fields" :
   [
    {
     "enum_field_value" : 15,
     "name" : "fmt::v7::detail::max_packed_args"
    }
   ],
   "linker_set_key" : "_ZTIN3fmt2v76detail16$max_packed_argsE",
   "name" : "fmt::detail::(anonymous enum at external/fmtlib/include/fmt/core.h:1244:1)",
   "referenced_type" : "_ZTIN3fmt2v76detail16$max_packed_argsE",
   "self_type" : "_ZTIN3fmt2v76detail16$max_packed_argsE",
   "size" : 4,
   "source_file" : "external/fmtlib/include/fmt/core.h",
   "underlying_type" : "_ZTIj"
  },
  {
   "alignment" : 4,
   "enum_fields" :
   [
    {
     "enum_field_value" : 4,
     "name" : "fmt::v7::detail::packed_arg_bits"
    }
   ],
   "linker_set_key" : "_ZTIN3fmt2v76detail16$packed_arg_bitsE",
   "name" : "fmt::detail::(anonymous enum at external/fmtlib/include/fmt/core.h:1242:1)",
   "referenced_type" : "_ZTIN3fmt2v76detail16$packed_arg_bitsE",
   "self_type" : "_ZTIN3fmt2v76detail16$packed_arg_bitsE",
   "size" : 4,
   "source_file" : "external/fmtlib/include/fmt/core.h",
   "underlying_type" : "_ZTIj"
  },
  {
   "alignment" : 8,
   "enum_fields" :
   [
    {
     "enum_field_value" : 0,
     "name" : "fmt::v7::detail::has_named_args_bit"
    }
   ],
   "linker_set_key" : "_ZTIN3fmt2v76detail19$has_named_args_bitE",
   "name" : "fmt::detail::(anonymous enum at external/fmtlib/include/fmt/core.h:1246:1)",
   "referenced_type" : "_ZTIN3fmt2v76detail19$has_named_args_bitE",
   "self_type" : "_ZTIN3fmt2v76detail19$has_named_args_bitE",
   "size" : 8,
   "source_file" : "external/fmtlib/include/fmt/core.h",
   "underlying_type" : "_ZTIy"
  },
  {
   "alignment" : 4,
   "enum_fields" :
   [
    {
     "enum_field_value" : 0,
     "name" : "fmt::v7::detail::type::none_type"
    },
    {
     "enum_field_value" : 1,
     "name" : "fmt::v7::detail::type::int_type"
    },
    {
     "enum_field_value" : 2,
     "name" : "fmt::v7::detail::type::uint_type"
    },
    {
     "enum_field_value" : 3,
     "name" : "fmt::v7::detail::type::long_long_type"
    },
    {
     "enum_field_value" : 4,
     "name" : "fmt::v7::detail::type::ulong_long_type"
    },
    {
     "enum_field_value" : 5,
     "name" : "fmt::v7::detail::type::int128_type"
    },
    {
     "enum_field_value" : 6,
     "name" : "fmt::v7::detail::type::uint128_type"
    },
    {
     "enum_field_value" : 7,
     "name" : "fmt::v7::detail::type::bool_type"
    },
    {
     "enum_field_value" : 8,
     "name" : "fmt::v7::detail::type::char_type"
    },
    {
     "enum_field_value" : 8,
     "name" : "fmt::v7::detail::type::last_integer_type"
    },
    {
     "enum_field_value" : 9,
     "name" : "fmt::v7::detail::type::float_type"
    },
    {
     "enum_field_value" : 10,
     "name" : "fmt::v7::detail::type::double_type"
    },
    {
     "enum_field_value" : 11,
     "name" : "fmt::v7::detail::type::long_double_type"
    },
    {
     "enum_field_value" : 11,
     "name" : "fmt::v7::detail::type::last_numeric_type"
    },
    {
     "enum_field_value" : 12,
     "name" : "fmt::v7::detail::type::cstring_type"
    },
    {
     "enum_field_value" : 13,
     "name" : "fmt::v7::detail::type::string_type"
    },
    {
     "enum_field_value" : 14,
     "name" : "fmt::v7::detail::type::pointer_type"
    },
    {
     "enum_field_value" : 15,
     "name" : "fmt::v7::detail::type::custom_type"
    }
   ],
   "linker_set_key" : "_ZTIN3fmt2v76detail4typeE",
   "name" : "fmt::detail::type",
   "referenced_type" : "_ZTIN3fmt2v76detail4typeE",
   "self_type" : "_ZTIN3fmt2v76detail4typeE",
   "size" : 4,
   "source_file" : "external/fmtlib/include/fmt/core.h",
   "underlying_type" : "_ZTIi"
  },
  {
   "access" : "private",
   "alignment" : 4,
   "enum_fields" :
   [
    {
     "enum_field_value" : 4,
     "name" : "fmt::v7::detail::fill_t<char>::max_size"
    }
   ],
   "linker_set_key" : "_ZTIN3fmt2v76detail6fill_tIcE9$max_sizeE",
   "name" : "fmt::detail::fill_t<char>::(anonymous enum at external/fmtlib/include/fmt/format.h:1147:3)",
   "referenced_type" : "_ZTIN3fmt2v76detail6fill_tIcE9$max_sizeE",
   "self_type" : "_ZTIN3fmt2v76detail6fill_tIcE9$max_sizeE",
   "size" : 4,
   "source_file" : "external/fmtlib/include/fmt/format.h",
   "underlying_type" : "_ZTIj"
  }
 ],
 "function_types" : [],
 "functions" :
 [
  {
   "access" : "private",
   "function_name" : "fmt::v7::format_int::format_signed",
   "linker_set_key" : "_ZN3fmt2v710format_int13format_signedIiEEPcT_",
   "parameters" :
   [
    {
     "is_this_ptr" : true,
     "referenced_type" : "_ZTIPN3fmt2v710format_intE"
    },
    {
     "referenced_type" : "_ZTIi"
    }
   ],
   "return_type" : "_ZTIPc",
   "source_file" : "external/fmtlib/include/fmt/format.h",
   "template_args" : [ "_ZTIi" ]
  },
  {
   "access" : "private",
   "function_name" : "fmt::v7::format_int::format_signed",
   "linker_set_key" : "_ZN3fmt2v710format_int13format_signedIlEEPcT_",
   "parameters" :
   [
    {
     "is_this_ptr" : true,
     "referenced_type" : "_ZTIPN3fmt2v710format_intE"
    },
    {
     "referenced_type" : "_ZTIl"
    }
   ],
   "return_type" : "_ZTIPc",
   "source_file" : "external/fmtlib/include/fmt/format.h",
   "template_args" : [ "_ZTIl" ]
  },
  {
   "access" : "private",
   "function_name" : "fmt::v7::format_int::format_signed",
   "linker_set_key" : "_ZN3fmt2v710format_int13format_signedIxEEPcT_",
   "parameters" :
   [
    {
     "is_this_ptr" : true,
     "referenced_type" : "_ZTIPN3fmt2v710format_intE"
    },
    {
     "referenced_type" : "_ZTIx"
    }
   ],
   "return_type" : "_ZTIPc",
   "source_file" : "external/fmtlib/include/fmt/format.h",
   "template_args" : [ "_ZTIx" ]
  },
  {
   "access" : "private",
   "function_name" : "fmt::v7::format_int::format_unsigned",
   "linker_set_key" : "_ZN3fmt2v710format_int15format_unsignedIjEEPcT_",
   "parameters" :
   [
    {
     "is_this_ptr" : true,
     "referenced_type" : "_ZTIPN3fmt2v710format_intE"
    },
    {
     "referenced_type" : "_ZTIj"
    }
   ],
   "return_type" : "_ZTIPc",
   "source_file" : "external/fmtlib/include/fmt/format.h",
   "template_args" : [ "_ZTIj" ]
  },
  {
   "access" : "private",
   "function_name" : "fmt::v7::format_int::format_unsigned",
   "linker_set_key" : "_ZN3fmt2v710format_int15format_unsignedImEEPcT_",
   "parameters" :
   [
    {
     "is_this_ptr" : true,
     "referenced_type" : "_ZTIPN3fmt2v710format_intE"
    },
    {
     "referenced_type" : "_ZTIm"
    }
   ],
   "return_type" : "_ZTIPc",
   "source_file" : "external/fmtlib/include/fmt/format.h",
   "template_args" : [ "_ZTIm" ]
  },
  {
   "access" : "private",
   "function_name" : "fmt::v7::format_int::format_unsigned",
   "linker_set_key" : "_ZN3fmt2v710format_int15format_unsignedIyEEPcT_",
   "parameters" :
   [
    {
     "is_this_ptr" : true,
     "referenced_type" : "_ZTIPN3fmt2v710format_intE"
    },
    {
     "referenced_type" : "_ZTIy"
    }
   ],
   "return_type" : "_ZTIPc",
   "source_file" : "external/fmtlib/include/fmt/format.h",
   "template_args" : [ "_ZTIy" ]
  },
  {
   "function_name" : "fmt::v7::format_int::format_int",
   "linker_set_key" : "_ZN3fmt2v710format_intC1Ei",
   "parameters" :
   [
    {
     "is_this_ptr" : true,
     "referenced_type" : "_ZTIPN3fmt2v710format_intE"
    },
    {
     "referenced_type" : "_ZTIi"
    }
   ],
   "return_type" : "_ZTIv",
   "source_file" : "external/fmtlib/include/fmt/format.h"
  },
  {
   "function_name" : "fmt::v7::format_int::format_int",
   "linker_set_key" : "_ZN3fmt2v710format_intC1Ej",
   "parameters" :
   [
    {
     "is_this_ptr" : true,
     "referenced_type" : "_ZTIPN3fmt2v710format_intE"
    },
    {
     "referenced_type" : "_ZTIj"
    }
   ],
   "return_type" : "_ZTIv",
   "source_file" : "external/fmtlib/include/fmt/format.h"
  },
  {
   "function_name" : "fmt::v7::format_int::format_int",
   "linker_set_key" : "_ZN3fmt2v710format_intC1El",
   "parameters" :
   [
    {
     "is_this_ptr" : true,
     "referenced_type" : "_ZTIPN3fmt2v710format_intE"
    },
    {
     "referenced_type" : "_ZTIl"
    }
   ],
   "return_type" : "_ZTIv",
   "source_file" : "external/fmtlib/include/fmt/format.h"
  },
  {
   "function_name" : "fmt::v7::format_int::format_int",
   "linker_set_key" : "_ZN3fmt2v710format_intC1Em",
   "parameters" :
   [
    {
     "is_this_ptr" : true,
     "referenced_type" : "_ZTIPN3fmt2v710format_intE"
    },
    {
     "referenced_type" : "_ZTIm"
    }
   ],
   "return_type" : "_ZTIv",
   "source_file" : "external/fmtlib/include/fmt/format.h"
  },
  {
   "function_name" : "fmt::v7::format_int::format_int",
   "linker_set_key" : "_ZN3fmt2v710format_intC1Ex",
   "parameters" :
   [
    {
     "is_this_ptr" : true,
     "referenced_type" : "_ZTIPN3fmt2v710format_intE"
    },
    {
     "referenced_type" : "_ZTIx"
    }
   ],
   "return_type" : "_ZTIv",
   "source_file" : "external/fmtlib/include/fmt/format.h"
  },
  {
   "function_name" : "fmt::v7::format_int::format_int",
   "linker_set_key" : "_ZN3fmt2v710format_intC1Ey",
   "parameters" :
   [
    {
     "is_this_ptr" : true,
     "referenced_type" : "_ZTIPN3fmt2v710format_intE"
    },
    {
     "referenced_type" : "_ZTIy"
    }
   ],
   "return_type" : "_ZTIv",
   "source_file" : "external/fmtlib/include/fmt/format.h"
  },
  {
   "function_name" : "fmt::v7::format_int::format_int",
   "linker_set_key" : "_ZN3fmt2v710format_intC2Ei",
   "parameters" :
   [
    {
     "is_this_ptr" : true,
     "referenced_type" : "_ZTIPN3fmt2v710format_intE"
    },
    {
     "referenced_type" : "_ZTIi"
    }
   ],
   "return_type" : "_ZTIv",
   "source_file" : "external/fmtlib/include/fmt/format.h"
  },
  {
   "function_name" : "fmt::v7::format_int::format_int",
   "linker_set_key" : "_ZN3fmt2v710format_intC2Ej",
   "parameters" :
   [
    {
     "is_this_ptr" : true,
     "referenced_type" : "_ZTIPN3fmt2v710format_intE"
    },
    {
     "referenced_type" : "_ZTIj"
    }
   ],
   "return_type" : "_ZTIv",
   "source_file" : "external/fmtlib/include/fmt/format.h"
  },
  {
   "function_name" : "fmt::v7::format_int::format_int",
   "linker_set_key" : "_ZN3fmt2v710format_intC2El",
   "parameters" :
   [
    {
     "is_this_ptr" : true,
     "referenced_type" : "_ZTIPN3fmt2v710format_intE"
    },
    {
     "referenced_type" : "_ZTIl"
    }
   ],
   "return_type" : "_ZTIv",
   "source_file" : "external/fmtlib/include/fmt/format.h"
  },
  {
   "function_name" : "fmt::v7::format_int::format_int",
   "linker_set_key" : "_ZN3fmt2v710format_intC2Em",
   "parameters" :
   [
    {
     "is_this_ptr" : true,
     "referenced_type" : "_ZTIPN3fmt2v710format_intE"
    },
    {
     "referenced_type" : "_ZTIm"
    }
   ],
   "return_type" : "_ZTIv",
   "source_file" : "external/fmtlib/include/fmt/format.h"
  },
  {
   "function_name" : "fmt::v7::format_int::format_int",
   "linker_set_key" : "_ZN3fmt2v710format_intC2Ex",
   "parameters" :
   [
    {
     "is_this_ptr" : true,
     "referenced_type" : "_ZTIPN3fmt2v710format_intE"
    },
    {
     "referenced_type" : "_ZTIx"
    }
   ],
   "return_type" : "_ZTIv",
   "source_file" : "external/fmtlib/include/fmt/format.h"
  },
  {
   "function_name" : "fmt::v7::format_int::format_int",
   "linker_set_key" : "_ZN3fmt2v710format_intC2Ey",
   "parameters" :
   [
    {
     "is_this_ptr" : true,
     "referenced_type" : "_ZTIPN3fmt2v710format_intE"
    },
    {
     "referenced_type" : "_ZTIy"
    }
   ],
   "return_type" : "_ZTIv",
   "source_file" : "external/fmtlib/include/fmt/format.h"
  },
  {
   "function_name" : "fmt::v7::format_error::format_error",
   "linker_set_key" : "_ZN3fmt2v712format_errorC1EOS1_",
   "parameters" :
   [
    {
     "is_this_ptr" : true,
     "referenced_type" : "_ZTIPN3fmt2v712format_errorE"
    },
    {
     "referenced_type" : "_ZTION3fmt2v712format_errorE"
    }
   ],
   "return_type" : "_ZTIv",
   "source_file" : "external/fmtlib/include/fmt/format.h"
  },
  {
   "function_name" : "fmt::v7::format_error::format_error",
   "linker_set_key" : "_ZN3fmt2v712format_errorC1EPKc",
   "parameters" :
   [
    {
     "is_this_ptr" : true,
     "referenced_type" : "_ZTIPN3fmt2v712format_errorE"
    },
    {
     "referenced_type" : "_ZTIPKc"
    }
   ],
   "return_type" : "_ZTIv",
   "source_file" : "external/fmtlib/include/fmt/format.h"
  },
  {
   "function_name" : "fmt::v7::format_error::format_error",
   "linker_set_key" : "_ZN3fmt2v712format_errorC1ERKNSt3__112basic_stringIcNS2_11char_traitsIcEENS2_9allocatorIcEEEE",
   "parameters" :
   [
    {
     "is_this_ptr" : true,
     "referenced_type" : "_ZTIPN3fmt2v712format_errorE"
    },
    {
     "referenced_type" : "_ZTIRKNSt3__112basic_stringIcNS_11char_traitsIcEENS_9allocatorIcEEEE"
    }
   ],
   "return_type" : "_ZTIv",
   "source_file" : "external/fmtlib/include/fmt/format.h"
  },
  {
   "function_name" : "fmt::v7::format_error::format_error",
   "linker_set_key" : "_ZN3fmt2v712format_errorC1ERKS1_",
   "parameters" :
   [
    {
     "is_this_ptr" : true,
     "referenced_type" : "_ZTIPN3fmt2v712format_errorE"
    },
    {
     "referenced_type" : "_ZTIRKN3fmt2v712format_errorE"
    }
   ],
   "return_type" : "_ZTIv",
   "source_file" : "external/fmtlib/include/fmt/format.h"
  },
  {
   "function_name" : "fmt::v7::format_error::format_error",
   "linker_set_key" : "_ZN3fmt2v712format_errorC2EOS1_",
   "parameters" :
   [
    {
     "is_this_ptr" : true,
     "referenced_type" : "_ZTIPN3fmt2v712format_errorE"
    },
    {
     "referenced_type" : "_ZTION3fmt2v712format_errorE"
    }
   ],
   "return_type" : "_ZTIv",
   "source_file" : "external/fmtlib/include/fmt/format.h"
  },
  {
   "function_name" : "fmt::v7::format_error::format_error",
   "linker_set_key" : "_ZN3fmt2v712format_errorC2EPKc",
   "parameters" :
   [
    {
     "is_this_ptr" : true,
     "referenced_type" : "_ZTIPN3fmt2v712format_errorE"
    },
    {
     "referenced_type" : "_ZTIPKc"
    }
   ],
   "return_type" : "_ZTIv",
   "source_file" : "external/fmtlib/include/fmt/format.h"
  },
  {
   "function_name" : "fmt::v7::format_error::format_error",
   "linker_set_key" : "_ZN3fmt2v712format_errorC2ERKNSt3__112basic_stringIcNS2_11char_traitsIcEENS2_9allocatorIcEEEE",
   "parameters" :
   [
    {
     "is_this_ptr" : true,
     "referenced_type" : "_ZTIPN3fmt2v712format_errorE"
    },
    {
     "referenced_type" : "_ZTIRKNSt3__112basic_stringIcNS_11char_traitsIcEENS_9allocatorIcEEEE"
    }
   ],
   "return_type" : "_ZTIv",
   "source_file" : "external/fmtlib/include/fmt/format.h"
  },
  {
   "function_name" : "fmt::v7::format_error::format_error",
   "linker_set_key" : "_ZN3fmt2v712format_errorC2ERKS1_",
   "parameters" :
   [
    {
     "is_this_ptr" : true,
     "referenced_type" : "_ZTIPN3fmt2v712format_errorE"
    },
    {
     "referenced_type" : "_ZTIRKN3fmt2v712format_errorE"
    }
   ],
   "return_type" : "_ZTIv",
   "source_file" : "external/fmtlib/include/fmt/format.h"
  },
  {
   "function_name" : "fmt::v7::format_error::operator=",
   "linker_set_key" : "_ZN3fmt2v712format_erroraSEOS1_",
   "parameters" :
   [
    {
     "is_this_ptr" : true,
     "referenced_type" : "_ZTIPN3fmt2v712format_errorE"
    },
    {
     "referenced_type" : "_ZTION3fmt2v712format_errorE"
    }
   ],
   "return_type" : "_ZTIRN3fmt2v712format_errorE",
   "source_file" : "external/fmtlib/include/fmt/format.h"
  },
  {
   "function_name" : "fmt::v7::format_error::operator=",
   "linker_set_key" : "_ZN3fmt2v712format_erroraSERKS1_",
   "parameters" :
   [
    {
     "is_this_ptr" : true,
     "referenced_type" : "_ZTIPN3fmt2v712format_errorE"
    },
    {
     "referenced_type" : "_ZTIRKN3fmt2v712format_errorE"
    }
   ],
   "return_type" : "_ZTIRN3fmt2v712format_errorE",
   "source_file" : "external/fmtlib/include/fmt/format.h"
  },
  {
   "function_name" : "fmt::v7::system_error::system_error",
   "linker_set_key" : "_ZN3fmt2v712system_errorC1EOS1_",
   "parameters" :
   [
    {
     "is_this_ptr" : true,
     "referenced_type" : "_ZTIPN3fmt2v712system_errorE"
    },
    {
     "referenced_type" : "_ZTION3fmt2v712system_errorE"
    }
   ],
   "return_type" : "_ZTIv",
   "source_file" : "external/fmtlib/include/fmt/format.h"
  },
  {
   "function_name" : "fmt::v7::system_error::system_error",
   "linker_set_key" : "_ZN3fmt2v712system_errorC1ERKS1_",
   "parameters" :
   [
    {
     "is_this_ptr" : true,
     "referenced_type" : "_ZTIPN3fmt2v712system_errorE"
    },
    {
     "referenced_type" : "_ZTIRKN3fmt2v712system_errorE"
    }
   ],
   "return_type" : "_ZTIv",
   "source_file" : "external/fmtlib/include/fmt/format.h"
  },
  {
   "access" : "protected",
   "function_name" : "fmt::v7::system_error::system_error",
   "linker_set_key" : "_ZN3fmt2v712system_errorC1Ev",
   "parameters" :
   [
    {
     "is_this_ptr" : true,
     "referenced_type" : "_ZTIPN3fmt2v712system_errorE"
    }
   ],
   "return_type" : "_ZTIv",
   "source_file" : "external/fmtlib/include/fmt/format.h"
  },
  {
   "function_name" : "fmt::v7::system_error::system_error",
   "linker_set_key" : "_ZN3fmt2v712system_errorC2EOS1_",
   "parameters" :
   [
    {
     "is_this_ptr" : true,
     "referenced_type" : "_ZTIPN3fmt2v712system_errorE"
    },
    {
     "referenced_type" : "_ZTION3fmt2v712system_errorE"
    }
   ],
   "return_type" : "_ZTIv",
   "source_file" : "external/fmtlib/include/fmt/format.h"
  },
  {
   "function_name" : "fmt::v7::system_error::system_error",
   "linker_set_key" : "_ZN3fmt2v712system_errorC2ERKS1_",
   "parameters" :
   [
    {
     "is_this_ptr" : true,
     "referenced_type" : "_ZTIPN3fmt2v712system_errorE"
    },
    {
     "referenced_type" : "_ZTIRKN3fmt2v712system_errorE"
    }
   ],
   "return_type" : "_ZTIv",
   "source_file" : "external/fmtlib/include/fmt/format.h"
  },
  {
   "access" : "protected",
   "function_name" : "fmt::v7::system_error::system_error",
   "linker_set_key" : "_ZN3fmt2v712system_errorC2Ev",
   "parameters" :
   [
    {
     "is_this_ptr" : true,
     "referenced_type" : "_ZTIPN3fmt2v712system_errorE"
    }
   ],
   "return_type" : "_ZTIv",
   "source_file" : "external/fmtlib/include/fmt/format.h"
  },
  {
   "function_name" : "fmt::v7::system_error::operator=",
   "linker_set_key" : "_ZN3fmt2v712system_erroraSEOS1_",
   "parameters" :
   [
    {
     "is_this_ptr" : true,
     "referenced_type" : "_ZTIPN3fmt2v712system_errorE"
    },
    {
     "referenced_type" : "_ZTION3fmt2v712system_errorE"
    }
   ],
   "return_type" : "_ZTIRN3fmt2v712system_errorE",
   "source_file" : "external/fmtlib/include/fmt/format.h"
  },
  {
   "function_name" : "fmt::v7::system_error::operator=",
   "linker_set_key" : "_ZN3fmt2v712system_erroraSERKS1_",
   "parameters" :
   [
    {
     "is_this_ptr" : true,
     "referenced_type" : "_ZTIPN3fmt2v712system_errorE"
    },
    {
     "referenced_type" : "_ZTIRKN3fmt2v712system_errorE"
    }
   ],
   "return_type" : "_ZTIRN3fmt2v712system_errorE",
   "source_file" : "external/fmtlib/include/fmt/format.h"
  },
  {
   "function_name" : "fmt::v7::basic_string_view<char>::basic_string_view",
   "linker_set_key" : "_ZN3fmt2v717basic_string_viewIcEC1EPKc",
   "parameters" :
   [
    {
     "is_this_ptr" : true,
     "referenced_type" : "_ZTIPN3fmt2v717basic_string_viewIcEE"
    },
    {
     "referenced_type" : "_ZTIPKc"
    }
   ],
   "return_type" : "_ZTIv",
   "source_file" : "external/fmtlib/include/fmt/core.h"
  },
  {
   "function_name" : "fmt::v7::basic_string_view<char>::basic_string_view",
   "linker_set_key" : "_ZN3fmt2v717basic_string_viewIcEC1EPKcm",
   "parameters" :
   [
    {
     "is_this_ptr" : true,
     "referenced_type" : "_ZTIPN3fmt2v717basic_string_viewIcEE"
    },
    {
     "referenced_type" : "_ZTIPKc"
    },
    {
     "referenced_type" : "_ZTIm"
    }
   ],
   "return_type" : "_ZTIv",
   "source_file" : "external/fmtlib/include/fmt/core.h"
  },
  {
   "function_name" : "fmt::v7::basic_string_view<char>::basic_string_view",
   "linker_set_key" : "_ZN3fmt2v717basic_string_viewIcEC2EPKc",
   "parameters" :
   [
    {
     "is_this_ptr" : true,
     "referenced_type" : "_ZTIPN3fmt2v717basic_string_viewIcEE"
    },
    {
     "referenced_type" : "_ZTIPKc"
    }
   ],
   "return_type" : "_ZTIv",
   "source_file" : "external/fmtlib/include/fmt/core.h"
  },
  {
   "function_name" : "fmt::v7::basic_string_view<char>::basic_string_view",
   "linker_set_key" : "_ZN3fmt2v717basic_string_viewIcEC2EPKcm",
   "parameters" :
   [
    {
     "is_this_ptr" : true,
     "referenced_type" : "_ZTIPN3fmt2v717basic_string_viewIcEE"
    },
    {
     "referenced_type" : "_ZTIPKc"
    },
    {
     "referenced_type" : "_ZTIm"
    }
   ],
   "return_type" : "_ZTIv",
   "source_file" : "external/fmtlib/include/fmt/core.h"
  },
  {
   "function_name" : "fmt::v7::basic_string_view<wchar_t>::basic_string_view",
   "linker_set_key" : "_ZN3fmt2v717basic_string_viewIwEC1EPKwm",
   "parameters" :
   [
    {
     "is_this_ptr" : true,
     "referenced_type" : "_ZTIPN3fmt2v717basic_string_viewIwEE"
    },
    {
     "referenced_type" : "_ZTIPKw"
    },
    {
     "referenced_type" : "_ZTIm"
    }
   ],
   "return_type" : "_ZTIv",
   "source_file" : "external/fmtlib/include/fmt/core.h"
  },
  {
   "function_name" : "fmt::v7::basic_string_view<wchar_t>::basic_string_view",
   "linker_set_key" : "_ZN3fmt2v717basic_string_viewIwEC2EPKwm",
   "parameters" :
   [
    {
     "is_this_ptr" : true,
     "referenced_type" : "_ZTIPN3fmt2v717basic_string_viewIwEE"
    },
    {
     "referenced_type" : "_ZTIPKw"
    },
    {
     "referenced_type" : "_ZTIm"
    }
   ],
   "return_type" : "_ZTIv",
   "source_file" : "external/fmtlib/include/fmt/core.h"
  },
  {
   "function_name" : "fmt::v7::bytes::bytes",
   "linker_set_key" : "_ZN3fmt2v75bytesC1ENS0_17basic_string_viewIcEE",
   "parameters" :
   [
    {
     "is_this_ptr" : true,
     "referenced_type" : "_ZTIPN3fmt2v75bytesE"
    },
    {
     "referenced_type" : "_ZTIN3fmt2v717basic_string_viewIcEE"
    }
   ],
   "return_type" : "_ZTIv",
   "source_file" : "external/fmtlib/include/fmt/format.h"
  },
  {
   "function_name" : "fmt::v7::bytes::bytes",
   "linker_set_key" : "_ZN3fmt2v75bytesC2ENS0_17basic_string_viewIcEE",
   "parameters" :
   [
    {
     "is_this_ptr" : true,
     "referenced_type" : "_ZTIPN3fmt2v75bytesE"
    },
    {
     "referenced_type" : "_ZTIN3fmt2v717basic_string_viewIcEE"
    }
   ],
   "return_type" : "_ZTIv",
   "source_file" : "external/fmtlib/include/fmt/format.h"
  },
  {
   "function_name" : "fmt::v7::detail::locale_ref::locale_ref",
   "linker_set_key" : "_ZN3fmt2v76detail10locale_refC1Ev",
   "parameters" :
   [
    {
     "is_this_ptr" : true,
     "referenced_type" : "_ZTIPN3fmt2v76detail10locale_refE"
    }
   ],
   "return_type" : "_ZTIv",
   "source_file" : "external/fmtlib/include/fmt/core.h"
  },
  {
   "function_name" : "fmt::v7::detail::locale_ref::locale_ref",
   "linker_set_key" : "_ZN3fmt2v76detail10locale_refC2Ev",
   "parameters" :
   [
    {
     "is_this_ptr" : true,
     "referenced_type" : "_ZTIPN3fmt2v76detail10locale_refE"
    }
   ],
   "return_type" : "_ZTIv",
   "source_file" : "external/fmtlib/include/fmt/core.h"
  },
  {
   "function_name" : "fmt::v7::detail::to_uintptr",
   "linker_set_key" : "_ZN3fmt2v76detail10to_uintptrEPKv",
   "parameters" :
   [
    {
     "referenced_type" : "_ZTIPKv"
    }
   ],
   "return_type" : "_ZTIm",
   "source_file" : "external/fmtlib/include/fmt/format.h"
  },
  {
   "function_name" : "fmt::v7::detail::const_check",
   "linker_set_key" : "_ZN3fmt2v76detail11const_checkIbEET_S3_",
   "parameters" :
   [
    {
     "referenced_type" : "_ZTIb"
    }
   ],
   "return_type" : "_ZTIb",
   "source_file" : "external/fmtlib/include/fmt/core.h",
   "template_args" : [ "_ZTIb" ]
  },
  {
   "function_name" : "fmt::v7::detail::const_check",
   "linker_set_key" : "_ZN3fmt2v76detail11const_checkIiEET_S3_",
   "parameters" :
   [
    {
     "referenced_type" : "_ZTIi"
    }
   ],
   "return_type" : "_ZTIi",
   "source_file" : "external/fmtlib/include/fmt/core.h",
   "template_args" : [ "_ZTIi" ]
  },
  {
   "function_name" : "fmt::v7::detail::int_checker<true>::fits_in_int",
   "linker_set_key" : "_ZN3fmt2v76detail11int_checkerILb1EE11fits_in_intEi",
   "parameters" :
   [
    {
     "referenced_type" : "_ZTIi"
    }
   ],
   "return_type" : "_ZTIb",
   "source_file" : "external/fmtlib/include/fmt/printf.h"
  },
  {
   "function_name" : "fmt::v7::detail::localtime_r",
   "linker_set_key" : "_ZN3fmt2v76detail11localtime_rEz",
   "return_type" : "_ZTIN3fmt2v76detail4nullIvEE",
   "source_file" : "external/fmtlib/include/fmt/chrono.h"
  },
  {
   "function_name" : "fmt::v7::detail::localtime_s",
   "linker_set_key" : "_ZN3fmt2v76detail11localtime_sEz",
   "return_type" : "_ZTIN3fmt2v76detail4nullIvEE",
   "source_file" : "external/fmtlib/include/fmt/chrono.h"
  },
  {
   "function_name" : "fmt::v7::detail::to_unsigned",
   "linker_set_key" : "_ZN3fmt2v76detail11to_unsignedIiEENSt3__113make_unsignedIT_E4typeES5_",
   "parameters" :
   [
    {
     "referenced_type" : "_ZTIi"
    }
   ],
   "return_type" : "_ZTIj",
   "source_file" : "external/fmtlib/include/fmt/core.h",
   "template_args" : [ "_ZTIi" ]
  },
  {
   "function_name" : "fmt::v7::detail::to_unsigned",
   "linker_set_key" : "_ZN3fmt2v76detail11to_unsignedIlEENSt3__113make_unsignedIT_E4typeES5_",
   "parameters" :
   [
    {
     "referenced_type" : "_ZTIl"
    }
   ],
   "return_type" : "_ZTIm",
   "source_file" : "external/fmtlib/include/fmt/core.h",
   "template_args" : [ "_ZTIl" ]
  },
  {
   "function_name" : "fmt::v7::detail::count_digits",
   "linker_set_key" : "_ZN3fmt2v76detail12count_digitsEj",
   "parameters" :
   [
    {
     "referenced_type" : "_ZTIj"
    }
   ],
   "return_type" : "_ZTIi",
   "source_file" : "external/fmtlib/include/fmt/format.h"
  },
  {
   "function_name" : "fmt::v7::detail::count_digits",
   "linker_set_key" : "_ZN3fmt2v76detail12count_digitsEm",
   "parameters" :
   [
    {
     "referenced_type" : "_ZTIm"
    }
   ],
   "return_type" : "_ZTIi",
   "source_file" : "external/fmtlib/include/fmt/format.h"
  },
  {
   "function_name" : "fmt::v7::detail::count_digits",
   "linker_set_key" : "_ZN3fmt2v76detail12count_digitsEo",
   "parameters" :
   [
    {
     "referenced_type" : "_ZTIo"
    }
   ],
   "return_type" : "_ZTIi",
   "source_file" : "external/fmtlib/include/fmt/format.h"
  },
  {
   "function_name" : "fmt::v7::detail::buffer_traits::limit",
   "linker_set_key" : "_ZN3fmt2v76detail13buffer_traits5limitEm",
   "parameters" :
   [
    {
     "is_this_ptr" : true,
     "referenced_type" : "_ZTIPN3fmt2v76detail13buffer_traitsE"
    },
    {
     "referenced_type" : "_ZTIm"
    }
   ],
   "return_type" : "_ZTIm",
   "source_file" : "external/fmtlib/include/fmt/core.h"
  },
  {
   "function_name" : "fmt::v7::detail::buffer_traits::buffer_traits",
   "linker_set_key" : "_ZN3fmt2v76detail13buffer_traitsC1Em",
   "parameters" :
   [
    {
     "is_this_ptr" : true,
     "referenced_type" : "_ZTIPN3fmt2v76detail13buffer_traitsE"
    },
    {
     "referenced_type" : "_ZTIm"
    }
   ],
   "return_type" : "_ZTIv",
   "source_file" : "external/fmtlib/include/fmt/core.h"
  },
  {
   "function_name" : "fmt::v7::detail::buffer_traits::buffer_traits",
   "linker_set_key" : "_ZN3fmt2v76detail13buffer_traitsC2Em",
   "parameters" :
   [
    {
     "is_this_ptr" : true,
     "referenced_type" : "_ZTIPN3fmt2v76detail13buffer_traitsE"
    },
    {
     "referenced_type" : "_ZTIm"
    }
   ],
   "return_type" : "_ZTIv",
   "source_file" : "external/fmtlib/include/fmt/core.h"
  },
  {
   "function_name" : "fmt::v7::detail::decimal_point",
   "linker_set_key" : "_ZN3fmt2v76detail13decimal_pointIwEET_NS1_10locale_refE",
   "parameters" :
   [
    {
     "referenced_type" : "_ZTIN3fmt2v76detail10locale_refE"
    }
   ],
   "return_type" : "_ZTIw",
   "source_file" : "external/fmtlib/include/fmt/format.h",
   "template_args" : [ "_ZTIw" ]
  },
  {
   "function_name" : "fmt::v7::detail::error_handler::error_handler",
   "linker_set_key" : "_ZN3fmt2v76detail13error_handlerC1ERKS2_",
   "parameters" :
   [
    {
     "is_this_ptr" : true,
     "referenced_type" : "_ZTIPN3fmt2v76detail13error_handlerE"
    },
    {
     "referenced_type" : "_ZTIRKN3fmt2v76detail13error_handlerE"
    }
   ],
   "return_type" : "_ZTIv",
   "source_file" : "external/fmtlib/include/fmt/core.h"
  },
  {
   "function_name" : "fmt::v7::detail::error_handler::error_handler",
   "linker_set_key" : "_ZN3fmt2v76detail13error_handlerC1Ev",
   "parameters" :
   [
    {
     "is_this_ptr" : true,
     "referenced_type" : "_ZTIPN3fmt2v76detail13error_handlerE"
    }
   ],
   "return_type" : "_ZTIv",
   "source_file" : "external/fmtlib/include/fmt/core.h"
  },
  {
   "function_name" : "fmt::v7::detail::error_handler::error_handler",
   "linker_set_key" : "_ZN3fmt2v76detail13error_handlerC2ERKS2_",
   "parameters" :
   [
    {
     "is_this_ptr" : true,
     "referenced_type" : "_ZTIPN3fmt2v76detail13error_handlerE"
    },
    {
     "referenced_type" : "_ZTIRKN3fmt2v76detail13error_handlerE"
    }
   ],
   "return_type" : "_ZTIv",
   "source_file" : "external/fmtlib/include/fmt/core.h"
  },
  {
   "function_name" : "fmt::v7::detail::error_handler::error_handler",
   "linker_set_key" : "_ZN3fmt2v76detail13error_handlerC2Ev",
   "parameters" :
   [
    {
     "is_this_ptr" : true,
     "referenced_type" : "_ZTIPN3fmt2v76detail13error_handlerE"
    }
   ],
   "return_type" : "_ZTIv",
   "source_file" : "external/fmtlib/include/fmt/core.h"
  },
  {
   "function_name" : "fmt::v7::detail::is_big_endian",
   "linker_set_key" : "_ZN3fmt2v76detail13is_big_endianEv",
   "return_type" : "_ZTIb",
   "source_file" : "external/fmtlib/include/fmt/format.h"
  },
  {
   "function_name" : "fmt::v7::detail::promote_float",
   "linker_set_key" : "_ZN3fmt2v76detail13promote_floatEf",
   "parameters" :
   [
    {
     "referenced_type" : "_ZTIf"
    }
   ],
   "return_type" : "_ZTId",
   "source_file" : "external/fmtlib/include/fmt/format.h"
  },
  {
   "function_name" : "fmt::v7::detail::thousands_sep",
   "linker_set_key" : "_ZN3fmt2v76detail13thousands_sepIwEET_NS1_10locale_refE",
   "parameters" :
   [
    {
     "referenced_type" : "_ZTIN3fmt2v76detail10locale_refE"
    }
   ],
   "return_type" : "_ZTIw",
   "source_file" : "external/fmtlib/include/fmt/format.h",
   "template_args" : [ "_ZTIw" ]
  },
  {
   "function_name" : "fmt::v7::detail::format_decimal",
   "linker_set_key" : "_ZN3fmt2v76detail14format_decimalIcjEENS1_21format_decimal_resultIPT_EES5_T0_i",
   "parameters" :
   [
    {
     "referenced_type" : "_ZTIPc"
    },
    {
     "referenced_type" : "_ZTIj"
    },
    {
     "referenced_type" : "_ZTIi"
    }
   ],
   "return_type" : "_ZTIN3fmt2v76detail21format_decimal_resultIPcEE",
   "source_file" : "external/fmtlib/include/fmt/format.h",
   "template_args" : [ "_ZTIc", "_ZTIj" ]
  },
  {
   "function_name" : "fmt::v7::detail::format_decimal",
   "linker_set_key" : "_ZN3fmt2v76detail14format_decimalIcmEENS1_21format_decimal_resultIPT_EES5_T0_i",
   "parameters" :
   [
    {
     "referenced_type" : "_ZTIPc"
    },
    {
     "referenced_type" : "_ZTIm"
    },
    {
     "referenced_type" : "_ZTIi"
    }
   ],
   "return_type" : "_ZTIN3fmt2v76detail21format_decimal_resultIPcEE",
   "source_file" : "external/fmtlib/include/fmt/format.h",
   "template_args" : [ "_ZTIc", "_ZTIm" ]
  },
  {
   "function_name" : "fmt::v7::detail::uint128_wrapper::uint128_wrapper",
   "linker_set_key" : "_ZN3fmt2v76detail15uint128_wrapperC1Emm",
   "parameters" :
   [
    {
     "is_this_ptr" : true,
     "referenced_type" : "_ZTIPN3fmt2v76detail15uint128_wrapperE"
    },
    {
     "referenced_type" : "_ZTIm"
    },
    {
     "referenced_type" : "_ZTIm"
    }
   ],
   "return_type" : "_ZTIv",
   "source_file" : "external/fmtlib/include/fmt/format.h"
  },
  {
   "function_name" : "fmt::v7::detail::uint128_wrapper::uint128_wrapper",
   "linker_set_key" : "_ZN3fmt2v76detail15uint128_wrapperC1Eo",
   "parameters" :
   [
    {
     "is_this_ptr" : true,
     "referenced_type" : "_ZTIPN3fmt2v76detail15uint128_wrapperE"
    },
    {
     "referenced_type" : "_ZTIo"
    }
   ],
   "return_type" : "_ZTIv",
   "source_file" : "external/fmtlib/include/fmt/format.h"
  },
  {
   "function_name" : "fmt::v7::detail::uint128_wrapper::uint128_wrapper",
   "linker_set_key" : "_ZN3fmt2v76detail15uint128_wrapperC1Ev",
   "parameters" :
   [
    {
     "is_this_ptr" : true,
     "referenced_type" : "_ZTIPN3fmt2v76detail15uint128_wrapperE"
    }
   ],
   "return_type" : "_ZTIv",
   "source_file" : "external/fmtlib/include/fmt/format.h"
  },
  {
   "function_name" : "fmt::v7::detail::uint128_wrapper::uint128_wrapper",
   "linker_set_key" : "_ZN3fmt2v76detail15uint128_wrapperC2Emm",
   "parameters" :
   [
    {
     "is_this_ptr" : true,
     "referenced_type" : "_ZTIPN3fmt2v76detail15uint128_wrapperE"
    },
    {
     "referenced_type" : "_ZTIm"
    },
    {
     "referenced_type" : "_ZTIm"
    }
   ],
   "return_type" : "_ZTIv",
   "source_file" : "external/fmtlib/include/fmt/format.h"
  },
  {
   "function_name" : "fmt::v7::detail::uint128_wrapper::uint128_wrapper",
   "linker_set_key" : "_ZN3fmt2v76detail15uint128_wrapperC2Eo",
   "parameters" :
   [
    {
     "is_this_ptr" : true,
     "referenced_type" : "_ZTIPN3fmt2v76detail15uint128_wrapperE"
    },
    {
     "referenced_type" : "_ZTIo"
    }
   ],
   "return_type" : "_ZTIv",
   "source_file" : "external/fmtlib/include/fmt/format.h"
  },
  {
   "function_name" : "fmt::v7::detail::uint128_wrapper::uint128_wrapper",
   "linker_set_key" : "_ZN3fmt2v76detail15uint128_wrapperC2Ev",
   "parameters" :
   [
    {
     "is_this_ptr" : true,
     "referenced_type" : "_ZTIPN3fmt2v76detail15uint128_wrapperE"
    }
   ],
   "return_type" : "_ZTIv",
   "source_file" : "external/fmtlib/include/fmt/format.h"
  },
  {
   "function_name" : "fmt::v7::detail::uint128_wrapper::operator+=",
   "linker_set_key" : "_ZN3fmt2v76detail15uint128_wrapperpLEm",
   "parameters" :
   [
    {
     "is_this_ptr" : true,
     "referenced_type" : "_ZTIPN3fmt2v76detail15uint128_wrapperE"
    },
    {
     "referenced_type" : "_ZTIm"
    }
   ],
   "return_type" : "_ZTIRN3fmt2v76detail15uint128_wrapperE",
   "source_file" : "external/fmtlib/include/fmt/format.h"
  },
  {
   "function_name" : "fmt::v7::detail::vprint_mojibake",
   "linker_set_key" : "_ZN3fmt2v76detail15vprint_mojibakeEP7__sFILENS0_17basic_string_viewIcEENS0_11format_argsE",
   "parameters" :
   [
    {
     "referenced_type" : "_ZTIP7__sFILE"
    },
    {
     "referenced_type" : "_ZTIN3fmt2v717basic_string_viewIcEE"
    },
    {
     "referenced_type" : "_ZTIN3fmt2v711format_argsE"
    }
   ],
   "return_type" : "_ZTIv",
   "source_file" : "external/fmtlib/include/fmt/core.h"
  },
  {
   "function_name" : "fmt::v7::detail::code_point_index",
   "linker_set_key" : "_ZN3fmt2v76detail16code_point_indexENS0_17basic_string_viewIDuEEm",
   "parameters" :
   [
    {
     "referenced_type" : "_ZTIN3fmt2v717basic_string_viewIDuEE"
    },
    {
     "referenced_type" : "_ZTIm"
    }
   ],
   "return_type" : "_ZTIm",
   "source_file" : "external/fmtlib/include/fmt/format.h"
  },
  {
   "function_name" : "fmt::v7::detail::dynamic_arg_list::node<void>::~node",
   "linker_set_key" : "_ZN3fmt2v76detail16dynamic_arg_list4nodeIvED0Ev",
   "parameters" :
   [
    {
     "is_this_ptr" : true,
     "referenced_type" : "_ZTIPN3fmt2v76detail16dynamic_arg_list4nodeIvEE"
    }
   ],
   "return_type" : "_ZTIv",
   "source_file" : "external/fmtlib/include/fmt/core.h"
  },
  {
   "function_name" : "fmt::v7::detail::dynamic_arg_list::node<void>::~node",
   "linker_set_key" : "_ZN3fmt2v76detail16dynamic_arg_list4nodeIvED1Ev",
   "parameters" :
   [
    {
     "is_this_ptr" : true,
     "referenced_type" : "_ZTIPN3fmt2v76detail16dynamic_arg_list4nodeIvEE"
    }
   ],
   "return_type" : "_ZTIv",
   "source_file" : "external/fmtlib/include/fmt/core.h"
  },
  {
   "function_name" : "fmt::v7::detail::dynamic_arg_list::node<void>::~node",
   "linker_set_key" : "_ZN3fmt2v76detail16dynamic_arg_list4nodeIvED2Ev",
   "parameters" :
   [
    {
     "is_this_ptr" : true,
     "referenced_type" : "_ZTIPN3fmt2v76detail16dynamic_arg_list4nodeIvEE"
    }
   ],
   "return_type" : "_ZTIv",
   "source_file" : "external/fmtlib/include/fmt/core.h"
  },
  {
   "function_name" : "fmt::v7::detail::fallback_uintptr::fallback_uintptr",
   "linker_set_key" : "_ZN3fmt2v76detail16fallback_uintptrC1EPKv",
   "parameters" :
   [
    {
     "is_this_ptr" : true,
     "referenced_type" : "_ZTIPN3fmt2v76detail16fallback_uintptrE"
    },
    {
     "referenced_type" : "_ZTIPKv"
    }
   ],
   "return_type" : "_ZTIv",
   "source_file" : "external/fmtlib/include/fmt/format.h"
  },
  {
   "function_name" : "fmt::v7::detail::fallback_uintptr::fallback_uintptr",
   "linker_set_key" : "_ZN3fmt2v76detail16fallback_uintptrC1Ev",
   "parameters" :
   [
    {
     "is_this_ptr" : true,
     "referenced_type" : "_ZTIPN3fmt2v76detail16fallback_uintptrE"
    }
   ],
   "return_type" : "_ZTIv",
   "source_file" : "external/fmtlib/include/fmt/format.h"
  },
  {
   "function_name" : "fmt::v7::detail::fallback_uintptr::fallback_uintptr",
   "linker_set_key" : "_ZN3fmt2v76detail16fallback_uintptrC2EPKv",
   "parameters" :
   [
    {
     "is_this_ptr" : true,
     "referenced_type" : "_ZTIPN3fmt2v76detail16fallback_uintptrE"
    },
    {
     "referenced_type" : "_ZTIPKv"
    }
   ],
   "return_type" : "_ZTIv",
   "source_file" : "external/fmtlib/include/fmt/format.h"
  },
  {
   "function_name" : "fmt::v7::detail::fallback_uintptr::fallback_uintptr",
   "linker_set_key" : "_ZN3fmt2v76detail16fallback_uintptrC2Ev",
   "parameters" :
   [
    {
     "is_this_ptr" : true,
     "referenced_type" : "_ZTIPN3fmt2v76detail16fallback_uintptrE"
    }
   ],
   "return_type" : "_ZTIv",
   "source_file" : "external/fmtlib/include/fmt/format.h"
  },
  {
   "function_name" : "fmt::v7::detail::is_integral_type",
   "linker_set_key" : "_ZN3fmt2v76detail16is_integral_typeENS1_4typeE",
   "parameters" :
   [
    {
     "referenced_type" : "_ZTIN3fmt2v76detail4typeE"
    }
   ],
   "return_type" : "_ZTIb",
   "source_file" : "external/fmtlib/include/fmt/core.h"
  },
  {
   "function_name" : "fmt::v7::detail::count_code_points",
   "linker_set_key" : "_ZN3fmt2v76detail17count_code_pointsENS0_17basic_string_viewIDuEE",
   "parameters" :
   [
    {
     "referenced_type" : "_ZTIN3fmt2v717basic_string_viewIDuEE"
    }
   ],
   "return_type" : "_ZTIm",
   "source_file" : "external/fmtlib/include/fmt/format.h"
  },
  {
   "function_name" : "fmt::v7::detail::count_code_points",
   "linker_set_key" : "_ZN3fmt2v76detail17count_code_pointsENS0_17basic_string_viewIcEE",
   "parameters" :
   [
    {
     "referenced_type" : "_ZTIN3fmt2v717basic_string_viewIcEE"
    }
   ],
   "return_type" : "_ZTIm",
   "source_file" : "external/fmtlib/include/fmt/format.h"
  },
  {
   "function_name" : "fmt::v7::detail::counting_iterator::counting_iterator",
   "linker_set_key" : "_ZN3fmt2v76detail17counting_iteratorC1Ev",
   "parameters" :
   [
    {
     "is_this_ptr" : true,
     "referenced_type" : "_ZTIPN3fmt2v76detail17counting_iteratorE"
    }
   ],
   "return_type" : "_ZTIv",
   "source_file" : "external/fmtlib/include/fmt/format.h"
  },
  {
   "function_name" : "fmt::v7::detail::counting_iterator::counting_iterator",
   "linker_set_key" : "_ZN3fmt2v76detail17counting_iteratorC2Ev",
   "parameters" :
   [
    {
     "is_this_ptr" : true,
     "referenced_type" : "_ZTIPN3fmt2v76detail17counting_iteratorE"
    }
   ],
   "return_type" : "_ZTIv",
   "source_file" : "external/fmtlib/include/fmt/format.h"
  },
  {
   "function_name" : "fmt::v7::detail::counting_iterator::operator++",
   "linker_set_key" : "_ZN3fmt2v76detail17counting_iteratorppEi",
   "parameters" :
   [
    {
     "is_this_ptr" : true,
     "referenced_type" : "_ZTIPN3fmt2v76detail17counting_iteratorE"
    },
    {
     "referenced_type" : "_ZTIi"
    }
   ],
   "return_type" : "_ZTIN3fmt2v76detail17counting_iteratorE",
   "source_file" : "external/fmtlib/include/fmt/format.h"
  },
  {
   "function_name" : "fmt::v7::detail::counting_iterator::operator++",
   "linker_set_key" : "_ZN3fmt2v76detail17counting_iteratorppEv",
   "parameters" :
   [
    {
     "is_this_ptr" : true,
     "referenced_type" : "_ZTIPN3fmt2v76detail17counting_iteratorE"
    }
   ],
   "return_type" : "_ZTIRN3fmt2v76detail17counting_iteratorE",
   "source_file" : "external/fmtlib/include/fmt/format.h"
  },
  {
   "function_name" : "fmt::v7::detail::is_arithmetic_type",
   "linker_set_key" : "_ZN3fmt2v76detail18is_arithmetic_typeENS1_4typeE",
   "parameters" :
   [
    {
     "referenced_type" : "_ZTIN3fmt2v76detail4typeE"
    }
   ],
   "return_type" : "_ZTIb",
   "source_file" : "external/fmtlib/include/fmt/core.h"
  },
  {
   "function_name" : "fmt::v7::detail::fixed_buffer_traits::limit",
   "linker_set_key" : "_ZN3fmt2v76detail19fixed_buffer_traits5limitEm",
   "parameters" :
   [
    {
     "is_this_ptr" : true,
     "referenced_type" : "_ZTIPN3fmt2v76detail19fixed_buffer_traitsE"
    },
    {
     "referenced_type" : "_ZTIm"
    }
   ],
   "return_type" : "_ZTIm",
   "source_file" : "external/fmtlib/include/fmt/core.h"
  },
  {
   "function_name" : "fmt::v7::detail::fixed_buffer_traits::fixed_buffer_traits",
   "linker_set_key" : "_ZN3fmt2v76detail19fixed_buffer_traitsC1Em",
   "parameters" :
   [
    {
     "is_this_ptr" : true,
     "referenced_type" : "_ZTIPN3fmt2v76detail19fixed_buffer_traitsE"
    },
    {
     "referenced_type" : "_ZTIm"
    }
   ],
   "return_type" : "_ZTIv",
   "source_file" : "external/fmtlib/include/fmt/core.h"
  },
  {
   "function_name" : "fmt::v7::detail::fixed_buffer_traits::fixed_buffer_traits",
   "linker_set_key" : "_ZN3fmt2v76detail19fixed_buffer_traitsC2Em",
   "parameters" :
   [
    {
     "is_this_ptr" : true,
     "referenced_type" : "_ZTIPN3fmt2v76detail19fixed_buffer_traitsE"
    },
    {
     "referenced_type" : "_ZTIm"
    }
   ],
   "return_type" : "_ZTIv",
   "source_file" : "external/fmtlib/include/fmt/core.h"
  },
  {
   "function_name" : "fmt::v7::detail::get_significand_size",
   "linker_set_key" : "_ZN3fmt2v76detail20get_significand_sizeERKNS1_14big_decimal_fpE",
   "parameters" :
   [
    {
     "referenced_type" : "_ZTIRKN3fmt2v76detail14big_decimal_fpE"
    }
   ],
   "return_type" : "_ZTIi",
   "source_file" : "external/fmtlib/include/fmt/format.h"
  },
  {
   "function_name" : "fmt::v7::detail::chrono_format_checker::on_12_hour",
   "linker_set_key" : "_ZN3fmt2v76detail21chrono_format_checker10on_12_hourENS1_14numeric_systemE",
   "parameters" :
   [
    {
     "is_this_ptr" : true,
     "referenced_type" : "_ZTIPN3fmt2v76detail21chrono_format_checkerE"
    },
    {
     "referenced_type" : "_ZTIN3fmt2v76detail14numeric_systemE"
    }
   ],
   "return_type" : "_ZTIv",
   "source_file" : "external/fmtlib/include/fmt/chrono.h"
  },
  {
   "function_name" : "fmt::v7::detail::chrono_format_checker::on_24_hour",
   "linker_set_key" : "_ZN3fmt2v76detail21chrono_format_checker10on_24_hourENS1_14numeric_systemE",
   "parameters" :
   [
    {
     "is_this_ptr" : true,
     "referenced_type" : "_ZTIPN3fmt2v76detail21chrono_format_checkerE"
    },
    {
     "referenced_type" : "_ZTIN3fmt2v76detail14numeric_systemE"
    }
   ],
   "return_type" : "_ZTIv",
   "source_file" : "external/fmtlib/include/fmt/chrono.h"
  },
  {
   "function_name" : "fmt::v7::detail::chrono_format_checker::on_tz_name",
   "linker_set_key" : "_ZN3fmt2v76detail21chrono_format_checker10on_tz_nameEv",
   "parameters" :
   [
    {
     "is_this_ptr" : true,
     "referenced_type" : "_ZTIPN3fmt2v76detail21chrono_format_checkerE"
    }
   ],
   "return_type" : "_ZTIv",
   "source_file" : "external/fmtlib/include/fmt/chrono.h"
  },
  {
   "function_name" : "fmt::v7::detail::chrono_format_checker::on_us_date",
   "linker_set_key" : "_ZN3fmt2v76detail21chrono_format_checker10on_us_dateEv",
   "parameters" :
   [
    {
     "is_this_ptr" : true,
     "referenced_type" : "_ZTIPN3fmt2v76detail21chrono_format_checkerE"
    }
   ],
   "return_type" : "_ZTIv",
   "source_file" : "external/fmtlib/include/fmt/chrono.h"
  },
  {
   "function_name" : "fmt::v7::detail::chrono_format_checker::on_datetime",
   "linker_set_key" : "_ZN3fmt2v76detail21chrono_format_checker11on_datetimeENS1_14numeric_systemE",
   "parameters" :
   [
    {
     "is_this_ptr" : true,
     "referenced_type" : "_ZTIPN3fmt2v76detail21chrono_format_checkerE"
    },
    {
     "referenced_type" : "_ZTIN3fmt2v76detail14numeric_systemE"
    }
   ],
   "return_type" : "_ZTIv",
   "source_file" : "external/fmtlib/include/fmt/chrono.h"
  },
  {
   "function_name" : "fmt::v7::detail::chrono_format_checker::on_iso_date",
   "linker_set_key" : "_ZN3fmt2v76detail21chrono_format_checker11on_iso_dateEv",
   "parameters" :
   [
    {
     "is_this_ptr" : true,
     "referenced_type" : "_ZTIPN3fmt2v76detail21chrono_format_checkerE"
    }
   ],
   "return_type" : "_ZTIv",
   "source_file" : "external/fmtlib/include/fmt/chrono.h"
  },
  {
   "function_name" : "fmt::v7::detail::chrono_format_checker::on_iso_time",
   "linker_set_key" : "_ZN3fmt2v76detail21chrono_format_checker11on_iso_timeEv",
   "parameters" :
   [
    {
     "is_this_ptr" : true,
     "referenced_type" : "_ZTIPN3fmt2v76detail21chrono_format_checkerE"
    }
   ],
   "return_type" : "_ZTIv",
   "source_file" : "external/fmtlib/include/fmt/chrono.h"
  },
  {
   "function_name" : "fmt::v7::detail::chrono_format_checker::on_loc_date",
   "linker_set_key" : "_ZN3fmt2v76detail21chrono_format_checker11on_loc_dateENS1_14numeric_systemE",
   "parameters" :
   [
    {
     "is_this_ptr" : true,
     "referenced_type" : "_ZTIPN3fmt2v76detail21chrono_format_checkerE"
    },
    {
     "referenced_type" : "_ZTIN3fmt2v76detail14numeric_systemE"
    }
   ],
   "return_type" : "_ZTIv",
   "source_file" : "external/fmtlib/include/fmt/chrono.h"
  },
  {
   "function_name" : "fmt::v7::detail::chrono_format_checker::on_loc_time",
   "linker_set_key" : "_ZN3fmt2v76detail21chrono_format_checker11on_loc_timeENS1_14numeric_systemE",
   "parameters" :
   [
    {
     "is_this_ptr" : true,
     "referenced_type" : "_ZTIPN3fmt2v76detail21chrono_format_checkerE"
    },
    {
     "referenced_type" : "_ZTIN3fmt2v76detail14numeric_systemE"
    }
   ],
   "return_type" : "_ZTIv",
   "source_file" : "external/fmtlib/include/fmt/chrono.h"
  },
  {
   "function_name" : "fmt::v7::detail::chrono_format_checker::on_abbr_month",
   "linker_set_key" : "_ZN3fmt2v76detail21chrono_format_checker13on_abbr_monthEv",
   "parameters" :
   [
    {
     "is_this_ptr" : true,
     "referenced_type" : "_ZTIPN3fmt2v76detail21chrono_format_checkerE"
    }
   ],
   "return_type" : "_ZTIv",
   "source_file" : "external/fmtlib/include/fmt/chrono.h"
  },
  {
   "function_name" : "fmt::v7::detail::chrono_format_checker::on_full_month",
   "linker_set_key" : "_ZN3fmt2v76detail21chrono_format_checker13on_full_monthEv",
   "parameters" :
   [
    {
     "is_this_ptr" : true,
     "referenced_type" : "_ZTIPN3fmt2v76detail21chrono_format_checkerE"
    }
   ],
   "return_type" : "_ZTIv",
   "source_file" : "external/fmtlib/include/fmt/chrono.h"
  },
  {
   "function_name" : "fmt::v7::detail::chrono_format_checker::on_utc_offset",
   "linker_set_key" : "_ZN3fmt2v76detail21chrono_format_checker13on_utc_offsetEv",
   "parameters" :
   [
    {
     "is_this_ptr" : true,
     "referenced_type" : "_ZTIPN3fmt2v76detail21chrono_format_checkerE"
    }
   ],
   "return_type" : "_ZTIv",
   "source_file" : "external/fmtlib/include/fmt/chrono.h"
  },
  {
   "function_name" : "fmt::v7::detail::chrono_format_checker::report_no_date",
   "linker_set_key" : "_ZN3fmt2v76detail21chrono_format_checker14report_no_dateEv",
   "parameters" :
   [
    {
     "is_this_ptr" : true,
     "referenced_type" : "_ZTIPN3fmt2v76detail21chrono_format_checkerE"
    }
   ],
   "return_type" : "_ZTIv",
   "source_file" : "external/fmtlib/include/fmt/chrono.h"
  },
  {
   "function_name" : "fmt::v7::detail::chrono_format_checker::on_12_hour_time",
   "linker_set_key" : "_ZN3fmt2v76detail21chrono_format_checker15on_12_hour_timeEv",
   "parameters" :
   [
    {
     "is_this_ptr" : true,
     "referenced_type" : "_ZTIPN3fmt2v76detail21chrono_format_checkerE"
    }
   ],
   "return_type" : "_ZTIv",
   "source_file" : "external/fmtlib/include/fmt/chrono.h"
  },
  {
   "function_name" : "fmt::v7::detail::chrono_format_checker::on_24_hour_time",
   "linker_set_key" : "_ZN3fmt2v76detail21chrono_format_checker15on_24_hour_timeEv",
   "parameters" :
   [
    {
     "is_this_ptr" : true,
     "referenced_type" : "_ZTIPN3fmt2v76detail21chrono_format_checkerE"
    }
   ],
   "return_type" : "_ZTIv",
   "source_file" : "external/fmtlib/include/fmt/chrono.h"
  },
  {
   "function_name" : "fmt::v7::detail::chrono_format_checker::on_abbr_weekday",
   "linker_set_key" : "_ZN3fmt2v76detail21chrono_format_checker15on_abbr_weekdayEv",
   "parameters" :
   [
    {
     "is_this_ptr" : true,
     "referenced_type" : "_ZTIPN3fmt2v76detail21chrono_format_checkerE"
    }
   ],
   "return_type" : "_ZTIv",
   "source_file" : "external/fmtlib/include/fmt/chrono.h"
  },
  {
   "function_name" : "fmt::v7::detail::chrono_format_checker::on_dec0_weekday",
   "linker_set_key" : "_ZN3fmt2v76detail21chrono_format_checker15on_dec0_weekdayENS1_14numeric_systemE",
   "parameters" :
   [
    {
     "is_this_ptr" : true,
     "referenced_type" : "_ZTIPN3fmt2v76detail21chrono_format_checkerE"
    },
    {
     "referenced_type" : "_ZTIN3fmt2v76detail14numeric_systemE"
    }
   ],
   "return_type" : "_ZTIv",
   "source_file" : "external/fmtlib/include/fmt/chrono.h"
  },
  {
   "function_name" : "fmt::v7::detail::chrono_format_checker::on_dec1_weekday",
   "linker_set_key" : "_ZN3fmt2v76detail21chrono_format_checker15on_dec1_weekdayENS1_14numeric_systemE",
   "parameters" :
   [
    {
     "is_this_ptr" : true,
     "referenced_type" : "_ZTIPN3fmt2v76detail21chrono_format_checkerE"
    },
    {
     "referenced_type" : "_ZTIN3fmt2v76detail14numeric_systemE"
    }
   ],
   "return_type" : "_ZTIv",
   "source_file" : "external/fmtlib/include/fmt/chrono.h"
  },
  {
   "function_name" : "fmt::v7::detail::chrono_format_checker::on_full_weekday",
   "linker_set_key" : "_ZN3fmt2v76detail21chrono_format_checker15on_full_weekdayEv",
   "parameters" :
   [
    {
     "is_this_ptr" : true,
     "referenced_type" : "_ZTIPN3fmt2v76detail21chrono_format_checkerE"
    }
   ],
   "return_type" : "_ZTIv",
   "source_file" : "external/fmtlib/include/fmt/chrono.h"
  },
  {
   "function_name" : "fmt::v7::detail::chrono_format_checker::on_duration_unit",
   "linker_set_key" : "_ZN3fmt2v76detail21chrono_format_checker16on_duration_unitEv",
   "parameters" :
   [
    {
     "is_this_ptr" : true,
     "referenced_type" : "_ZTIPN3fmt2v76detail21chrono_format_checkerE"
    }
   ],
   "return_type" : "_ZTIv",
   "source_file" : "external/fmtlib/include/fmt/chrono.h"
  },
  {
   "function_name" : "fmt::v7::detail::chrono_format_checker::on_duration_value",
   "linker_set_key" : "_ZN3fmt2v76detail21chrono_format_checker17on_duration_valueEv",
   "parameters" :
   [
    {
     "is_this_ptr" : true,
     "referenced_type" : "_ZTIPN3fmt2v76detail21chrono_format_checkerE"
    }
   ],
   "return_type" : "_ZTIv",
   "source_file" : "external/fmtlib/include/fmt/chrono.h"
  },
  {
   "function_name" : "fmt::v7::detail::chrono_format_checker::on_am_pm",
   "linker_set_key" : "_ZN3fmt2v76detail21chrono_format_checker8on_am_pmEv",
   "parameters" :
   [
    {
     "is_this_ptr" : true,
     "referenced_type" : "_ZTIPN3fmt2v76detail21chrono_format_checkerE"
    }
   ],
   "return_type" : "_ZTIv",
   "source_file" : "external/fmtlib/include/fmt/chrono.h"
  },
  {
   "function_name" : "fmt::v7::detail::chrono_format_checker::on_minute",
   "linker_set_key" : "_ZN3fmt2v76detail21chrono_format_checker9on_minuteENS1_14numeric_systemE",
   "parameters" :
   [
    {
     "is_this_ptr" : true,
     "referenced_type" : "_ZTIPN3fmt2v76detail21chrono_format_checkerE"
    },
    {
     "referenced_type" : "_ZTIN3fmt2v76detail14numeric_systemE"
    }
   ],
   "return_type" : "_ZTIv",
   "source_file" : "external/fmtlib/include/fmt/chrono.h"
  },
  {
   "function_name" : "fmt::v7::detail::chrono_format_checker::on_second",
   "linker_set_key" : "_ZN3fmt2v76detail21chrono_format_checker9on_secondENS1_14numeric_systemE",
   "parameters" :
   [
    {
     "is_this_ptr" : true,
     "referenced_type" : "_ZTIPN3fmt2v76detail21chrono_format_checkerE"
    },
    {
     "referenced_type" : "_ZTIN3fmt2v76detail14numeric_systemE"
    }
   ],
   "return_type" : "_ZTIv",
   "source_file" : "external/fmtlib/include/fmt/chrono.h"
  },
  {
   "function_name" : "fmt::v7::detail::find",
   "linker_set_key" : "_ZN3fmt2v76detail4findILb0EcPKcEEbT1_S5_T0_RS5_",
   "parameters" :
   [
    {
     "referenced_type" : "_ZTIPKc"
    },
    {
     "referenced_type" : "_ZTIPKc"
    },
    {
     "referenced_type" : "_ZTIc"
    },
    {
     "referenced_type" : "_ZTIRPKc"
    }
   ],
   "return_type" : "_ZTIb",
   "source_file" : "external/fmtlib/include/fmt/format.h",
   "template_args" : [ "_ZTIc", "_ZTIPKc" ]
  },
  {
   "function_name" : "fmt::v7::detail::copy2",
   "linker_set_key" : "_ZN3fmt2v76detail5copy2EPcPKc",
   "parameters" :
   [
    {
     "referenced_type" : "_ZTIPc"
    },
    {
     "referenced_type" : "_ZTIPKc"
    }
   ],
   "return_type" : "_ZTIv",
   "source_file" : "external/fmtlib/include/fmt/format.h"
  },
  {
   "function_name" : "fmt::v7::detail::assume",
   "linker_set_key" : "_ZN3fmt2v76detail6assumeEb",
   "parameters" :
   [
    {
     "referenced_type" : "_ZTIb"
    }
   ],
   "return_type" : "_ZTIv",
   "source_file" : "external/fmtlib/include/fmt/format.h"
  },
  {
   "access" : "protected",
   "function_name" : "fmt::v7::detail::buffer<char>::~buffer",
   "linker_set_key" : "_ZN3fmt2v76detail6bufferIcED1Ev",
   "parameters" :
   [
    {
     "is_this_ptr" : true,
     "referenced_type" : "_ZTIPN3fmt2v76detail6bufferIcEE"
    }
   ],
   "return_type" : "_ZTIv",
   "source_file" : "external/fmtlib/include/fmt/core.h"
  },
  {
   "access" : "protected",
   "function_name" : "fmt::v7::detail::buffer<char>::~buffer",
   "linker_set_key" : "_ZN3fmt2v76detail6bufferIcED2Ev",
   "parameters" :
   [
    {
     "is_this_ptr" : true,
     "referenced_type" : "_ZTIPN3fmt2v76detail6bufferIcEE"
    }
   ],
   "return_type" : "_ZTIv",
   "source_file" : "external/fmtlib/include/fmt/core.h"
  },
  {
   "access" : "protected",
   "function_name" : "fmt::v7::detail::buffer<wchar_t>::~buffer",
   "linker_set_key" : "_ZN3fmt2v76detail6bufferIwED1Ev",
   "parameters" :
   [
    {
     "is_this_ptr" : true,
     "referenced_type" : "_ZTIPN3fmt2v76detail6bufferIwEE"
    }
   ],
   "return_type" : "_ZTIv",
   "source_file" : "external/fmtlib/include/fmt/core.h"
  },
  {
   "access" : "protected",
   "function_name" : "fmt::v7::detail::buffer<wchar_t>::~buffer",
   "linker_set_key" : "_ZN3fmt2v76detail6bufferIwED2Ev",
   "parameters" :
   [
    {
     "is_this_ptr" : true,
     "referenced_type" : "_ZTIPN3fmt2v76detail6bufferIwEE"
    }
   ],
   "return_type" : "_ZTIv",
   "source_file" : "external/fmtlib/include/fmt/core.h"
  },
  {
   "function_name" : "fmt::v7::detail::equal2",
   "linker_set_key" : "_ZN3fmt2v76detail6equal2EPKcS3_",
   "parameters" :
   [
    {
     "referenced_type" : "_ZTIPKc"
    },
    {
     "referenced_type" : "_ZTIPKc"
    }
   ],
   "return_type" : "_ZTIb",
   "source_file" : "external/fmtlib/include/fmt/format.h"
  },
  {
   "function_name" : "fmt::v7::detail::bit_cast",
   "linker_set_key" : "_ZN3fmt2v76detail8bit_castINS1_16fallback_uintptrEPKvEET_RKT0_",
   "parameters" :
   [
    {
     "referenced_type" : "_ZTIRKPKv"
    }
   ],
   "return_type" : "_ZTIN3fmt2v76detail16fallback_uintptrE",
   "source_file" : "external/fmtlib/include/fmt/format.h",
   "template_args" : [ "_ZTIN3fmt2v76detail16fallback_uintptrE", "_ZTIPKv" ]
  },
  {
   "function_name" : "fmt::v7::detail::bit_cast",
   "linker_set_key" : "_ZN3fmt2v76detail8bit_castImPKvEET_RKT0_",
   "parameters" :
   [
    {
     "referenced_type" : "_ZTIRKPKv"
    }
   ],
   "return_type" : "_ZTIm",
   "source_file" : "external/fmtlib/include/fmt/format.h",
   "template_args" : [ "_ZTIm", "_ZTIPKv" ]
  },
  {
   "function_name" : "fmt::v7::detail::digits10",
   "linker_set_key" : "_ZN3fmt2v76detail8digits10InEEiv",
   "return_type" : "_ZTIi",
   "source_file" : "external/fmtlib/include/fmt/format.h",
   "template_args" : [ "_ZTIn" ]
  },
  {
   "function_name" : "fmt::v7::detail::digits10",
   "linker_set_key" : "_ZN3fmt2v76detail8digits10IoEEiv",
   "return_type" : "_ZTIi",
   "source_file" : "external/fmtlib/include/fmt/format.h",
   "template_args" : [ "_ZTIo" ]
  },
  {
   "function_name" : "fmt::v7::detail::gmtime_r",
   "linker_set_key" : "_ZN3fmt2v76detail8gmtime_rEz",
   "return_type" : "_ZTIN3fmt2v76detail4nullIvEE",
   "source_file" : "external/fmtlib/include/fmt/chrono.h"
  },
  {
   "function_name" : "fmt::v7::detail::gmtime_s",
   "linker_set_key" : "_ZN3fmt2v76detail8gmtime_sEz",
   "return_type" : "_ZTIN3fmt2v76detail4nullIvEE",
   "source_file" : "external/fmtlib/include/fmt/chrono.h"
  },
  {
   "function_name" : "fmt::v7::detail::grouping",
   "linker_set_key" : "_ZN3fmt2v76detail8groupingIwEENSt3__112basic_stringIcNS3_11char_traitsIcEENS3_9allocatorIcEEEENS1_10locale_refE",
   "parameters" :
   [
    {
     "referenced_type" : "_ZTIN3fmt2v76detail10locale_refE"
    }
   ],
   "return_type" : "_ZTINSt3__112basic_stringIcNS_11char_traitsIcEENS_9allocatorIcEEEE",
   "source_file" : "external/fmtlib/include/fmt/format.h",
   "template_args" : [ "_ZTIw" ]
  },
  {
   "function_name" : "fmt::v7::detail::num_bits",
   "linker_set_key" : "_ZN3fmt2v76detail8num_bitsINS1_16fallback_uintptrEEEiv",
   "return_type" : "_ZTIi",
   "source_file" : "external/fmtlib/include/fmt/format.h",
   "template_args" : [ "_ZTIN3fmt2v76detail16fallback_uintptrE" ]
  },
  {
   "function_name" : "fmt::v7::detail::num_bits",
   "linker_set_key" : "_ZN3fmt2v76detail8num_bitsIiEEiv",
   "return_type" : "_ZTIi",
   "source_file" : "external/fmtlib/include/fmt/format.h",
   "template_args" : [ "_ZTIi" ]
  },
  {
   "function_name" : "fmt::v7::detail::num_bits",
   "linker_set_key" : "_ZN3fmt2v76detail8num_bitsIjEEiv",
   "return_type" : "_ZTIi",
   "source_file" : "external/fmtlib/include/fmt/format.h",
   "template_args" : [ "_ZTIj" ]
  },
  {
   "function_name" : "fmt::v7::detail::num_bits",
   "linker_set_key" : "_ZN3fmt2v76detail8num_bitsIlEEiv",
   "return_type" : "_ZTIi",
   "source_file" : "external/fmtlib/include/fmt/format.h",
   "template_args" : [ "_ZTIl" ]
  },
  {
   "function_name" : "fmt::v7::detail::num_bits",
   "linker_set_key" : "_ZN3fmt2v76detail8num_bitsImEEiv",
   "return_type" : "_ZTIi",
   "source_file" : "external/fmtlib/include/fmt/format.h",
   "template_args" : [ "_ZTIm" ]
  },
  {
   "function_name" : "fmt::v7::detail::num_bits",
   "linker_set_key" : "_ZN3fmt2v76detail8num_bitsInEEiv",
   "return_type" : "_ZTIi",
   "source_file" : "external/fmtlib/include/fmt/format.h",
   "template_args" : [ "_ZTIn" ]
  },
  {
   "function_name" : "fmt::v7::detail::num_bits",
   "linker_set_key" : "_ZN3fmt2v76detail8num_bitsIoEEiv",
   "return_type" : "_ZTIi",
   "source_file" : "external/fmtlib/include/fmt/format.h",
   "template_args" : [ "_ZTIo" ]
  },
  {
   "function_name" : "fmt::v7::detail::num_bits",
   "linker_set_key" : "_ZN3fmt2v76detail8num_bitsIxEEiv",
   "return_type" : "_ZTIi",
   "source_file" : "external/fmtlib/include/fmt/format.h",
   "template_args" : [ "_ZTIx" ]
  },
  {
   "function_name" : "fmt::v7::detail::num_bits",
   "linker_set_key" : "_ZN3fmt2v76detail8num_bitsIyEEiv",
   "return_type" : "_ZTIi",
   "source_file" : "external/fmtlib/include/fmt/format.h",
   "template_args" : [ "_ZTIy" ]
  },
  {
   "function_name" : "fmt::v7::detail::strftime",
   "linker_set_key" : "_ZN3fmt2v76detail8strftimeEPcmPKcPK2tm",
   "parameters" :
   [
    {
     "referenced_type" : "_ZTIPc"
    },
    {
     "referenced_type" : "_ZTIm"
    },
    {
     "referenced_type" : "_ZTIPKc"
    },
    {
     "referenced_type" : "_ZTIPK2tm"
    }
   ],
   "return_type" : "_ZTIm",
   "source_file" : "external/fmtlib/include/fmt/chrono.h"
  },
  {
   "function_name" : "fmt::v7::detail::strftime",
   "linker_set_key" : "_ZN3fmt2v76detail8strftimeEPwmPKwPK2tm",
   "parameters" :
   [
    {
     "referenced_type" : "_ZTIPw"
    },
    {
     "referenced_type" : "_ZTIm"
    },
    {
     "referenced_type" : "_ZTIPKw"
    },
    {
     "referenced_type" : "_ZTIPK2tm"
    }
   ],
   "return_type" : "_ZTIm",
   "source_file" : "external/fmtlib/include/fmt/chrono.h"
  },
  {
   "function_name" : "fmt::v7::detail::bsr2log10",
   "linker_set_key" : "_ZN3fmt2v76detail9bsr2log10Ei",
   "parameters" :
   [
    {
     "referenced_type" : "_ZTIi"
    }
   ],
   "return_type" : "_ZTIt",
   "source_file" : "external/fmtlib/include/fmt/format.h"
  },
  {
   "function_name" : "fmt::v7::detail::get_units",
   "linker_set_key" : "_ZN3fmt2v76detail9get_unitsINSt3__15ratioILl1000000000000000000ELl1EEEEEPKcv",
   "return_type" : "_ZTIPKc",
   "source_file" : "external/fmtlib/include/fmt/chrono.h",
   "template_args" : [ "_ZTINSt3__15ratioILl1000000000000000000ELl1EEE" ]
  },
  {
   "function_name" : "fmt::v7::detail::get_units",
   "linker_set_key" : "_ZN3fmt2v76detail9get_unitsINSt3__15ratioILl1000000000000000ELl1EEEEEPKcv",
   "return_type" : "_ZTIPKc",
   "source_file" : "external/fmtlib/include/fmt/chrono.h",
   "template_args" : [ "_ZTINSt3__15ratioILl1000000000000000ELl1EEE" ]
  },
  {
   "function_name" : "fmt::v7::detail::get_units",
   "linker_set_key" : "_ZN3fmt2v76detail9get_unitsINSt3__15ratioILl1000000000000ELl1EEEEEPKcv",
   "return_type" : "_ZTIPKc",
   "source_file" : "external/fmtlib/include/fmt/chrono.h",
   "template_args" : [ "_ZTINSt3__15ratioILl1000000000000ELl1EEE" ]
  },
  {
   "function_name" : "fmt::v7::detail::get_units",
   "linker_set_key" : "_ZN3fmt2v76detail9get_unitsINSt3__15ratioILl1000000000ELl1EEEEEPKcv",
   "return_type" : "_ZTIPKc",
   "source_file" : "external/fmtlib/include/fmt/chrono.h",
   "template_args" : [ "_ZTINSt3__15ratioILl1000000000ELl1EEE" ]
  },
  {
   "function_name" : "fmt::v7::detail::get_units",
   "linker_set_key" : "_ZN3fmt2v76detail9get_unitsINSt3__15ratioILl1000000ELl1EEEEEPKcv",
   "return_type" : "_ZTIPKc",
   "source_file" : "external/fmtlib/include/fmt/chrono.h",
   "template_args" : [ "_ZTINSt3__15ratioILl1000000ELl1EEE" ]
  },
  {
   "function_name" : "fmt::v7::detail::get_units",
   "linker_set_key" : "_ZN3fmt2v76detail9get_unitsINSt3__15ratioILl1000ELl1EEEEEPKcv",
   "return_type" : "_ZTIPKc",
   "source_file" : "external/fmtlib/include/fmt/chrono.h",
   "template_args" : [ "_ZTINSt3__15ratioILl1000ELl1EEE" ]
  },
  {
   "function_name" : "fmt::v7::detail::get_units",
   "linker_set_key" : "_ZN3fmt2v76detail9get_unitsINSt3__15ratioILl100ELl1EEEEEPKcv",
   "return_type" : "_ZTIPKc",
   "source_file" : "external/fmtlib/include/fmt/chrono.h",
   "template_args" : [ "_ZTINSt3__15ratioILl100ELl1EEE" ]
  },
  {
   "function_name" : "fmt::v7::detail::get_units",
   "linker_set_key" : "_ZN3fmt2v76detail9get_unitsINSt3__15ratioILl10ELl1EEEEEPKcv",
   "return_type" : "_ZTIPKc",
   "source_file" : "external/fmtlib/include/fmt/chrono.h",
   "template_args" : [ "_ZTINSt3__15ratioILl10ELl1EEE" ]
  },
  {
   "function_name" : "fmt::v7::detail::get_units",
   "linker_set_key" : "_ZN3fmt2v76detail9get_unitsINSt3__15ratioILl1ELl1000000000000000000EEEEEPKcv",
   "return_type" : "_ZTIPKc",
   "source_file" : "external/fmtlib/include/fmt/chrono.h",
   "template_args" : [ "_ZTINSt3__15ratioILl1ELl1000000000000000000EEE" ]
  },
  {
   "function_name" : "fmt::v7::detail::get_units",
   "linker_set_key" : "_ZN3fmt2v76detail9get_unitsINSt3__15ratioILl1ELl1000000000000000EEEEEPKcv",
   "return_type" : "_ZTIPKc",
   "source_file" : "external/fmtlib/include/fmt/chrono.h",
   "template_args" : [ "_ZTINSt3__15ratioILl1ELl1000000000000000EEE" ]
  },
  {
   "function_name" : "fmt::v7::detail::get_units",
   "linker_set_key" : "_ZN3fmt2v76detail9get_unitsINSt3__15ratioILl1ELl1000000000000EEEEEPKcv",
   "return_type" : "_ZTIPKc",
   "source_file" : "external/fmtlib/include/fmt/chrono.h",
   "template_args" : [ "_ZTINSt3__15ratioILl1ELl1000000000000EEE" ]
  },
  {
   "function_name" : "fmt::v7::detail::get_units",
   "linker_set_key" : "_ZN3fmt2v76detail9get_unitsINSt3__15ratioILl1ELl1000000000EEEEEPKcv",
   "return_type" : "_ZTIPKc",
   "source_file" : "external/fmtlib/include/fmt/chrono.h",
   "template_args" : [ "_ZTINSt3__15ratioILl1ELl1000000000EEE" ]
  },
  {
   "function_name" : "fmt::v7::detail::get_units",
   "linker_set_key" : "_ZN3fmt2v76detail9get_unitsINSt3__15ratioILl1ELl1000000EEEEEPKcv",
   "return_type" : "_ZTIPKc",
   "source_file" : "external/fmtlib/include/fmt/chrono.h",
   "template_args" : [ "_ZTINSt3__15ratioILl1ELl1000000EEE" ]
  },
  {
   "function_name" : "fmt::v7::detail::get_units",
   "linker_set_key" : "_ZN3fmt2v76detail9get_unitsINSt3__15ratioILl1ELl1000EEEEEPKcv",
   "return_type" : "_ZTIPKc",
   "source_file" : "external/fmtlib/include/fmt/chrono.h",
   "template_args" : [ "_ZTINSt3__15ratioILl1ELl1000EEE" ]
  },
  {
   "function_name" : "fmt::v7::detail::get_units",
   "linker_set_key" : "_ZN3fmt2v76detail9get_unitsINSt3__15ratioILl1ELl100EEEEEPKcv",
   "return_type" : "_ZTIPKc",
   "source_file" : "external/fmtlib/include/fmt/chrono.h",
   "template_args" : [ "_ZTINSt3__15ratioILl1ELl100EEE" ]
  },
  {
   "function_name" : "fmt::v7::detail::get_units",
   "linker_set_key" : "_ZN3fmt2v76detail9get_unitsINSt3__15ratioILl1ELl10EEEEEPKcv",
   "return_type" : "_ZTIPKc",
   "source_file" : "external/fmtlib/include/fmt/chrono.h",
   "template_args" : [ "_ZTINSt3__15ratioILl1ELl10EEE" ]
  },
  {
   "function_name" : "fmt::v7::detail::get_units",
   "linker_set_key" : "_ZN3fmt2v76detail9get_unitsINSt3__15ratioILl1ELl1EEEEEPKcv",
   "return_type" : "_ZTIPKc",
   "source_file" : "external/fmtlib/include/fmt/chrono.h",
   "template_args" : [ "_ZTINSt3__15ratioILl1ELl1EEE" ]
  },
  {
   "function_name" : "fmt::v7::detail::get_units",
   "linker_set_key" : "_ZN3fmt2v76detail9get_unitsINSt3__15ratioILl3600ELl1EEEEEPKcv",
   "return_type" : "_ZTIPKc",
   "source_file" : "external/fmtlib/include/fmt/chrono.h",
   "template_args" : [ "_ZTINSt3__15ratioILl3600ELl1EEE" ]
  },
  {
   "function_name" : "fmt::v7::detail::get_units",
   "linker_set_key" : "_ZN3fmt2v76detail9get_unitsINSt3__15ratioILl60ELl1EEEEEPKcv",
   "return_type" : "_ZTIPKc",
   "source_file" : "external/fmtlib/include/fmt/chrono.h",
   "template_args" : [ "_ZTINSt3__15ratioILl60ELl1EEE" ]
  },
  {
   "function_name" : "fmt::v7::detail::max_value",
   "linker_set_key" : "_ZN3fmt2v76detail9max_valueIcEET_v",
   "return_type" : "_ZTIc",
   "source_file" : "external/fmtlib/include/fmt/format.h",
   "template_args" : [ "_ZTIc" ]
  },
  {
   "function_name" : "fmt::v7::detail::max_value",
   "linker_set_key" : "_ZN3fmt2v76detail9max_valueIiEET_v",
   "return_type" : "_ZTIi",
   "source_file" : "external/fmtlib/include/fmt/format.h",
   "template_args" : [ "_ZTIi" ]
  },
  {
   "function_name" : "fmt::v7::detail::max_value",
   "linker_set_key" : "_ZN3fmt2v76detail9max_valueIlEET_v",
   "return_type" : "_ZTIl",
   "source_file" : "external/fmtlib/include/fmt/format.h",
   "template_args" : [ "_ZTIl" ]
  },
  {
   "function_name" : "fmt::v7::detail::operator+",
   "linker_set_key" : "_ZN3fmt2v76detailplENS1_17counting_iteratorEl",
   "parameters" :
   [
    {
     "referenced_type" : "_ZTIN3fmt2v76detail17counting_iteratorE"
    },
    {
     "referenced_type" : "_ZTIl"
    }
   ],
   "return_type" : "_ZTIN3fmt2v76detail17counting_iteratorE",
   "source_file" : "external/fmtlib/include/fmt/format.h"
  },
  {
   "function_name" : "fmt::v7::gmtime",
   "linker_set_key" : "_ZN3fmt2v76gmtimeENSt3__16chrono10time_pointINS2_12system_clockENS2_8durationIxNS1_5ratioILl1ELl1000000EEEEEEE",
   "parameters" :
   [
    {
     "referenced_type" : "_ZTINSt3__16chrono10time_pointINS0_12system_clockENS0_8durationIxNS_5ratioILl1ELl1000000EEEEEEE"
    }
   ],
   "return_type" : "_ZTI2tm",
   "source_file" : "external/fmtlib/include/fmt/chrono.h"
  },
  {
   "function_name" : "fmt::v7::gmtime",
   "linker_set_key" : "_ZN3fmt2v76gmtimeEl",
   "parameters" :
   [
    {
     "referenced_type" : "_ZTIl"
    }
   ],
   "return_type" : "_ZTI2tm",
   "source_file" : "external/fmtlib/include/fmt/chrono.h"
  },
  {
   "function_name" : "fmt::v7::literals::operator\"\"_a",
   "linker_set_key" : "_ZN3fmt2v78literalsli2_aEPKcm",
   "parameters" :
   [
    {
     "referenced_type" : "_ZTIPKc"
    },
    {
     "referenced_type" : "_ZTIm"
    }
   ],
   "return_type" : "_ZTIN3fmt2v76detail7udl_argIcEE",
   "source_file" : "external/fmtlib/include/fmt/format.h"
  },
  {
   "function_name" : "fmt::v7::literals::operator\"\"_a",
   "linker_set_key" : "_ZN3fmt2v78literalsli2_aEPKwm",
   "parameters" :
   [
    {
     "referenced_type" : "_ZTIPKw"
    },
    {
     "referenced_type" : "_ZTIm"
    }
   ],
   "return_type" : "_ZTIN3fmt2v76detail7udl_argIwEE",
   "source_file" : "external/fmtlib/include/fmt/format.h"
  },
  {
   "function_name" : "fmt::v7::localtime",
   "linker_set_key" : "_ZN3fmt2v79localtimeENSt3__16chrono10time_pointINS2_12system_clockENS2_8durationIxNS1_5ratioILl1ELl1000000EEEEEEE",
   "parameters" :
   [
    {
     "referenced_type" : "_ZTINSt3__16chrono10time_pointINS0_12system_clockENS0_8durationIxNS_5ratioILl1ELl1000000EEEEEEE"
    }
   ],
   "return_type" : "_ZTI2tm",
   "source_file" : "external/fmtlib/include/fmt/chrono.h"
  },
  {
   "function_name" : "fmt::v7::localtime",
   "linker_set_key" : "_ZN3fmt2v79localtimeEl",
   "parameters" :
   [
    {
     "referenced_type" : "_ZTIl"
    }
   ],
   "return_type" : "_ZTI2tm",
   "source_file" : "external/fmtlib/include/fmt/chrono.h"
  },
  {
   "function_name" : "fmt::v7::operator==",
   "linker_set_key" : "_ZN3fmt2v7eqENS0_17basic_string_viewIT_EES4_",
   "parameters" :
   [
    {
     "referenced_type" : "_ZTIN3fmt2v717basic_string_viewIT_EE"
    },
    {
     "referenced_type" : "_ZTIN3fmt2v717basic_string_viewIT_EE"
    }
   ],
   "return_type" : "_ZTIb",
   "source_file" : "external/fmtlib/include/fmt/core.h"
  },
  {
   "function_name" : "fmt::v7::operator>=",
   "linker_set_key" : "_ZN3fmt2v7geENS0_17basic_string_viewIT_EES4_",
   "parameters" :
   [
    {
     "referenced_type" : "_ZTIN3fmt2v717basic_string_viewIT_EE"
    },
    {
     "referenced_type" : "_ZTIN3fmt2v717basic_string_viewIT_EE"
    }
   ],
   "return_type" : "_ZTIb",
   "source_file" : "external/fmtlib/include/fmt/core.h"
  },
  {
   "function_name" : "fmt::v7::operator>",
   "linker_set_key" : "_ZN3fmt2v7gtENS0_17basic_string_viewIT_EES4_",
   "parameters" :
   [
    {
     "referenced_type" : "_ZTIN3fmt2v717basic_string_viewIT_EE"
    },
    {
     "referenced_type" : "_ZTIN3fmt2v717basic_string_viewIT_EE"
    }
   ],
   "return_type" : "_ZTIb",
   "source_file" : "external/fmtlib/include/fmt/core.h"
  },
  {
   "function_name" : "fmt::v7::operator<=",
   "linker_set_key" : "_ZN3fmt2v7leENS0_17basic_string_viewIT_EES4_",
   "parameters" :
   [
    {
     "referenced_type" : "_ZTIN3fmt2v717basic_string_viewIT_EE"
    },
    {
     "referenced_type" : "_ZTIN3fmt2v717basic_string_viewIT_EE"
    }
   ],
   "return_type" : "_ZTIb",
   "source_file" : "external/fmtlib/include/fmt/core.h"
  },
  {
   "function_name" : "fmt::v7::operator<",
   "linker_set_key" : "_ZN3fmt2v7ltENS0_17basic_string_viewIT_EES4_",
   "parameters" :
   [
    {
     "referenced_type" : "_ZTIN3fmt2v717basic_string_viewIT_EE"
    },
    {
     "referenced_type" : "_ZTIN3fmt2v717basic_string_viewIT_EE"
    }
   ],
   "return_type" : "_ZTIb",
   "source_file" : "external/fmtlib/include/fmt/core.h"
  },
  {
   "function_name" : "fmt::v7::operator!=",
   "linker_set_key" : "_ZN3fmt2v7neENS0_17basic_string_viewIT_EES4_",
   "parameters" :
   [
    {
     "referenced_type" : "_ZTIN3fmt2v717basic_string_viewIT_EE"
    },
    {
     "referenced_type" : "_ZTIN3fmt2v717basic_string_viewIT_EE"
    }
   ],
   "return_type" : "_ZTIb",
   "source_file" : "external/fmtlib/include/fmt/core.h"
  },
  {
   "function_name" : "android::base::ErrnoError",
   "linker_set_key" : "_ZN7android4base10ErrnoErrorEv",
   "return_type" : "_ZTIN7android4base5ErrorE",
   "source_file" : "system/libbase/include/android-base/result.h"
  },
  {
   "function_name" : "android::base::unexpect_t::unexpect_t",
   "linker_set_key" : "_ZN7android4base10unexpect_tC1Ev",
   "parameters" :
   [
    {
     "is_this_ptr" : true,
     "referenced_type" : "_ZTIPN7android4base10unexpect_tE"
    }
   ],
   "return_type" : "_ZTIv",
   "source_file" : "system/libbase/include/android-base/expected.h"
  },
  {
   "function_name" : "android::base::unexpect_t::unexpect_t",
   "linker_set_key" : "_ZN7android4base10unexpect_tC2Ev",
   "parameters" :
   [
    {
     "is_this_ptr" : true,
     "referenced_type" : "_ZTIPN7android4base10unexpect_tE"
    }
   ],
   "return_type" : "_ZTIv",
   "source_file" : "system/libbase/include/android-base/expected.h"
  },
  {
   "function_name" : "android::base::unexpected<android::base::ResultError>::unexpected",
   "linker_set_key" : "_ZN7android4base10unexpectedINS0_11ResultErrorEEC1EOS3_",
   "parameters" :
   [
    {
     "is_this_ptr" : true,
     "referenced_type" : "_ZTIPN7android4base10unexpectedINS0_11ResultErrorEEE"
    },
    {
     "referenced_type" : "_ZTION7android4base10unexpectedINS0_11ResultErrorEEE"
    }
   ],
   "return_type" : "_ZTIv",
   "source_file" : "system/libbase/include/android-base/expected.h"
  },
  {
   "function_name" : "android::base::unexpected<android::base::ResultError>::unexpected",
   "linker_set_key" : "_ZN7android4base10unexpectedINS0_11ResultErrorEEC1ERKS3_",
   "parameters" :
   [
    {
     "is_this_ptr" : true,
     "referenced_type" : "_ZTIPN7android4base10unexpectedINS0_11ResultErrorEEE"
    },
    {
     "referenced_type" : "_ZTIRKN7android4base10unexpectedINS0_11ResultErrorEEE"
    }
   ],
   "return_type" : "_ZTIv",
   "source_file" : "system/libbase/include/android-base/expected.h"
  },
  {
   "function_name" : "android::base::unexpected<android::base::ResultError>::unexpected",
   "linker_set_key" : "_ZN7android4base10unexpectedINS0_11ResultErrorEEC1IS2_LPv0EEEOT_",
   "parameters" :
   [
    {
     "is_this_ptr" : true,
     "referenced_type" : "_ZTIPN7android4base10unexpectedINS0_11ResultErrorEEE"
    },
    {
     "referenced_type" : "_ZTION7android4base11ResultErrorE"
    }
   ],
   "return_type" : "_ZTIv",
   "source_file" : "system/libbase/include/android-base/expected.h",
   "template_args" : [ "_ZTIN7android4base11ResultErrorE" ]
  },
  {
   "function_name" : "android::base::unexpected<android::base::ResultError>::unexpected",
   "linker_set_key" : "_ZN7android4base10unexpectedINS0_11ResultErrorEEC2EOS3_",
   "parameters" :
   [
    {
     "is_this_ptr" : true,
     "referenced_type" : "_ZTIPN7android4base10unexpectedINS0_11ResultErrorEEE"
    },
    {
     "referenced_type" : "_ZTION7android4base10unexpectedINS0_11ResultErrorEEE"
    }
   ],
   "return_type" : "_ZTIv",
   "source_file" : "system/libbase/include/android-base/expected.h"
  },
  {
   "function_name" : "android::base::unexpected<android::base::ResultError>::unexpected",
   "linker_set_key" : "_ZN7android4base10unexpectedINS0_11ResultErrorEEC2ERKS3_",
   "parameters" :
   [
    {
     "is_this_ptr" : true,
     "referenced_type" : "_ZTIPN7android4base10unexpectedINS0_11ResultErrorEEE"
    },
    {
     "referenced_type" : "_ZTIRKN7android4base10unexpectedINS0_11ResultErrorEEE"
    }
   ],
   "return_type" : "_ZTIv",
   "source_file" : "system/libbase/include/android-base/expected.h"
  },
  {
   "function_name" : "android::base::unexpected<android::base::ResultError>::unexpected",
   "linker_set_key" : "_ZN7android4base10unexpectedINS0_11ResultErrorEEC2IS2_LPv0EEEOT_",
   "parameters" :
   [
    {
     "is_this_ptr" : true,
     "referenced_type" : "_ZTIPN7android4base10unexpectedINS0_11ResultErrorEEE"
    },
    {
     "referenced_type" : "_ZTION7android4base11ResultErrorE"
    }
   ],
   "return_type" : "_ZTIv",
   "source_file" : "system/libbase/include/android-base/expected.h",
   "template_args" : [ "_ZTIN7android4base11ResultErrorE" ]
  },
  {
   "function_name" : "android::base::unexpected<android::base::ResultError>::operator=",
   "linker_set_key" : "_ZN7android4base10unexpectedINS0_11ResultErrorEEaSEOS3_",
   "parameters" :
   [
    {
     "is_this_ptr" : true,
     "referenced_type" : "_ZTIPN7android4base10unexpectedINS0_11ResultErrorEEE"
    },
    {
     "referenced_type" : "_ZTION7android4base10unexpectedINS0_11ResultErrorEEE"
    }
   ],
   "return_type" : "_ZTIRN7android4base10unexpectedINS0_11ResultErrorEEE",
   "source_file" : "system/libbase/include/android-base/expected.h"
  },
  {
   "function_name" : "android::base::unexpected<android::base::ResultError>::operator=",
   "linker_set_key" : "_ZN7android4base10unexpectedINS0_11ResultErrorEEaSERKS3_",
   "parameters" :
   [
    {
     "is_this_ptr" : true,
     "referenced_type" : "_ZTIPN7android4base10unexpectedINS0_11ResultErrorEEE"
    },
    {
     "referenced_type" : "_ZTIRKN7android4base10unexpectedINS0_11ResultErrorEEE"
    }
   ],
   "return_type" : "_ZTIRN7android4base10unexpectedINS0_11ResultErrorEEE",
   "source_file" : "system/libbase/include/android-base/expected.h"
  },
  {
   "access" : "private",
   "function_name" : "android::base::Error::Error",
   "linker_set_key" : "_ZN7android4base5ErrorC1EbiRKNSt3__112basic_stringIcNS2_11char_traitsIcEENS2_9allocatorIcEEEE",
   "parameters" :
   [
    {
     "is_this_ptr" : true,
     "referenced_type" : "_ZTIPN7android4base5ErrorE"
    },
    {
     "referenced_type" : "_ZTIb"
    },
    {
     "referenced_type" : "_ZTIi"
    },
    {
     "referenced_type" : "_ZTIRKNSt3__112basic_stringIcNS_11char_traitsIcEENS_9allocatorIcEEEE"
    }
   ],
   "return_type" : "_ZTIv",
   "source_file" : "system/libbase/include/android-base/result.h"
  },
  {
   "function_name" : "android::base::Error::Error",
   "linker_set_key" : "_ZN7android4base5ErrorC1Ei",
   "parameters" :
   [
    {
     "is_this_ptr" : true,
     "referenced_type" : "_ZTIPN7android4base5ErrorE"
    },
    {
     "referenced_type" : "_ZTIi"
    }
   ],
   "return_type" : "_ZTIv",
   "source_file" : "system/libbase/include/android-base/result.h"
  },
  {
   "function_name" : "android::base::Error::Error",
   "linker_set_key" : "_ZN7android4base5ErrorC1Ev",
   "parameters" :
   [
    {
     "is_this_ptr" : true,
     "referenced_type" : "_ZTIPN7android4base5ErrorE"
    }
   ],
   "return_type" : "_ZTIv",
   "source_file" : "system/libbase/include/android-base/result.h"
  },
  {
   "access" : "private",
   "function_name" : "android::base::Error::Error",
   "linker_set_key" : "_ZN7android4base5ErrorC2EbiRKNSt3__112basic_stringIcNS2_11char_traitsIcEENS2_9allocatorIcEEEE",
   "parameters" :
   [
    {
     "is_this_ptr" : true,
     "referenced_type" : "_ZTIPN7android4base5ErrorE"
    },
    {
     "referenced_type" : "_ZTIb"
    },
    {
     "referenced_type" : "_ZTIi"
    },
    {
     "referenced_type" : "_ZTIRKNSt3__112basic_stringIcNS_11char_traitsIcEENS_9allocatorIcEEEE"
    }
   ],
   "return_type" : "_ZTIv",
   "source_file" : "system/libbase/include/android-base/result.h"
  },
  {
   "function_name" : "android::base::Error::Error",
   "linker_set_key" : "_ZN7android4base5ErrorC2Ei",
   "parameters" :
   [
    {
     "is_this_ptr" : true,
     "referenced_type" : "_ZTIPN7android4base5ErrorE"
    },
    {
     "referenced_type" : "_ZTIi"
    }
   ],
   "return_type" : "_ZTIv",
   "source_file" : "system/libbase/include/android-base/result.h"
  },
  {
   "function_name" : "android::base::Error::Error",
   "linker_set_key" : "_ZN7android4base5ErrorC2Ev",
   "parameters" :
   [
    {
     "is_this_ptr" : true,
     "referenced_type" : "_ZTIPN7android4base5ErrorE"
    }
   ],
   "return_type" : "_ZTIv",
   "source_file" : "system/libbase/include/android-base/result.h"
  },
  {
   "function_name" : "android::base::Error::operator<<",
   "linker_set_key" : "_ZN7android4base5ErrorlsIRKNSt3__112basic_stringIcNS3_11char_traitsIcEENS3_9allocatorIcEEEEEERS1_OT_",
   "parameters" :
   [
    {
     "is_this_ptr" : true,
     "referenced_type" : "_ZTIPN7android4base5ErrorE"
    },
    {
     "referenced_type" : "_ZTIRKNSt3__112basic_stringIcNS_11char_traitsIcEENS_9allocatorIcEEEE"
    }
   ],
   "return_type" : "_ZTIRN7android4base5ErrorE",
   "source_file" : "system/libbase/include/android-base/result.h",
   "template_args" :
   [
    "_ZTIRKNSt3__112basic_stringIcNS_11char_traitsIcEENS_9allocatorIcEEEE"
   ]
  },
  {
   "function_name" : "android::base::expected<void, android::base::ResultError>::expected",
   "linker_set_key" : "_ZN7android4base8expectedIvNS0_11ResultErrorEEC1EOS3_",
   "parameters" :
   [
    {
     "is_this_ptr" : true,
     "referenced_type" : "_ZTIPN7android4base8expectedIvNS0_11ResultErrorEEE"
    },
    {
     "referenced_type" : "_ZTION7android4base8expectedIvNS0_11ResultErrorEEE"
    }
   ],
   "return_type" : "_ZTIv",
   "source_file" : "system/libbase/include/android-base/expected.h"
  },
  {
   "function_name" : "android::base::expected<void, android::base::ResultError>::expected",
   "linker_set_key" : "_ZN7android4base8expectedIvNS0_11ResultErrorEEC1ERKS3_",
   "parameters" :
   [
    {
     "is_this_ptr" : true,
     "referenced_type" : "_ZTIPN7android4base8expectedIvNS0_11ResultErrorEEE"
    },
    {
     "referenced_type" : "_ZTIRKN7android4base8expectedIvNS0_11ResultErrorEEE"
    }
   ],
   "return_type" : "_ZTIv",
   "source_file" : "system/libbase/include/android-base/expected.h"
  },
  {
   "function_name" : "android::base::expected<void, android::base::ResultError>::expected",
   "linker_set_key" : "_ZN7android4base8expectedIvNS0_11ResultErrorEEC1Ev",
   "parameters" :
   [
    {
     "is_this_ptr" : true,
     "referenced_type" : "_ZTIPN7android4base8expectedIvNS0_11ResultErrorEEE"
    }
   ],
   "return_type" : "_ZTIv",
   "source_file" : "system/libbase/include/android-base/expected.h"
  },
  {
   "function_name" : "android::base::expected<void, android::base::ResultError>::expected",
   "linker_set_key" : "_ZN7android4base8expectedIvNS0_11ResultErrorEEC2EOS3_",
   "parameters" :
   [
    {
     "is_this_ptr" : true,
     "referenced_type" : "_ZTIPN7android4base8expectedIvNS0_11ResultErrorEEE"
    },
    {
     "referenced_type" : "_ZTION7android4base8expectedIvNS0_11ResultErrorEEE"
    }
   ],
   "return_type" : "_ZTIv",
   "source_file" : "system/libbase/include/android-base/expected.h"
  },
  {
   "function_name" : "android::base::expected<void, android::base::ResultError>::expected",
   "linker_set_key" : "_ZN7android4base8expectedIvNS0_11ResultErrorEEC2ERKS3_",
   "parameters" :
   [
    {
     "is_this_ptr" : true,
     "referenced_type" : "_ZTIPN7android4base8expectedIvNS0_11ResultErrorEEE"
    },
    {
     "referenced_type" : "_ZTIRKN7android4base8expectedIvNS0_11ResultErrorEEE"
    }
   ],
   "return_type" : "_ZTIv",
   "source_file" : "system/libbase/include/android-base/expected.h"
  },
  {
   "function_name" : "android::base::expected<void, android::base::ResultError>::expected",
   "linker_set_key" : "_ZN7android4base8expectedIvNS0_11ResultErrorEEC2Ev",
   "parameters" :
   [
    {
     "is_this_ptr" : true,
     "referenced_type" : "_ZTIPN7android4base8expectedIvNS0_11ResultErrorEEE"
    }
   ],
   "return_type" : "_ZTIv",
   "source_file" : "system/libbase/include/android-base/expected.h"
  },
  {
   "function_name" : "android::base::expected<void, android::base::ResultError>::~expected",
   "linker_set_key" : "_ZN7android4base8expectedIvNS0_11ResultErrorEED1Ev",
   "parameters" :
   [
    {
     "is_this_ptr" : true,
     "referenced_type" : "_ZTIPN7android4base8expectedIvNS0_11ResultErrorEEE"
    }
   ],
   "return_type" : "_ZTIv",
   "source_file" : "system/libbase/include/android-base/expected.h"
  },
  {
   "function_name" : "android::base::expected<void, android::base::ResultError>::~expected",
   "linker_set_key" : "_ZN7android4base8expectedIvNS0_11ResultErrorEED2Ev",
   "parameters" :
   [
    {
     "is_this_ptr" : true,
     "referenced_type" : "_ZTIPN7android4base8expectedIvNS0_11ResultErrorEEE"
    }
   ],
   "return_type" : "_ZTIv",
   "source_file" : "system/libbase/include/android-base/expected.h"
  },
  {
   "function_name" : "android::base::expected<void, android::base::ResultError>::operator=",
   "linker_set_key" : "_ZN7android4base8expectedIvNS0_11ResultErrorEEaSEOS3_",
   "parameters" :
   [
    {
     "is_this_ptr" : true,
     "referenced_type" : "_ZTIPN7android4base8expectedIvNS0_11ResultErrorEEE"
    },
    {
     "referenced_type" : "_ZTION7android4base8expectedIvNS0_11ResultErrorEEE"
    }
   ],
   "return_type" : "_ZTIRN7android4base8expectedIvNS0_11ResultErrorEEE",
   "source_file" : "system/libbase/include/android-base/expected.h"
  },
  {
   "function_name" : "android::base::expected<void, android::base::ResultError>::operator=",
   "linker_set_key" : "_ZN7android4base8expectedIvNS0_11ResultErrorEEaSERKS3_",
   "parameters" :
   [
    {
     "is_this_ptr" : true,
     "referenced_type" : "_ZTIPN7android4base8expectedIvNS0_11ResultErrorEEE"
    },
    {
     "referenced_type" : "_ZTIRKN7android4base8expectedIvNS0_11ResultErrorEEE"
    }
   ],
   "return_type" : "_ZTIRN7android4base8expectedIvNS0_11ResultErrorEEE",
   "source_file" : "system/libbase/include/android-base/expected.h"
  },
  {
   "function_name" : "android::base::ErrorCode",
   "linker_set_key" : "_ZN7android4base9ErrorCodeEi",
   "parameters" :
   [
    {
     "referenced_type" : "_ZTIi"
    }
   ],
   "return_type" : "_ZTIi",
   "source_file" : "system/libbase/include/android-base/result.h"
  },
  {
   "function_name" : "android::base::operator==",
   "linker_set_key" : "_ZN7android4baseeqERKNS0_11ResultErrorES3_",
   "parameters" :
   [
    {
     "referenced_type" : "_ZTIRKN7android4base11ResultErrorE"
    },
    {
     "referenced_type" : "_ZTIRKN7android4base11ResultErrorE"
    }
   ],
   "return_type" : "_ZTIb",
   "source_file" : "system/libbase/include/android-base/result.h"
  },
  {
   "function_name" : "android::base::operator<<",
   "linker_set_key" : "_ZN7android4baselsERNSt3__113basic_ostreamIcNS1_11char_traitsIcEEEERKNS0_11ResultErrorE",
   "parameters" :
   [
    {
     "referenced_type" : "_ZTIRNSt3__113basic_ostreamIcNS_11char_traitsIcEEEE"
    },
    {
     "referenced_type" : "_ZTIRKN7android4base11ResultErrorE"
    }
   ],
   "return_type" : "_ZTIRNSt3__113basic_ostreamIcNS_11char_traitsIcEEEE",
   "source_file" : "system/libbase/include/android-base/result.h"
  },
  {
   "function_name" : "android::base::operator!=",
   "linker_set_key" : "_ZN7android4baseneERKNS0_11ResultErrorES3_",
   "parameters" :
   [
    {
     "referenced_type" : "_ZTIRKN7android4base11ResultErrorE"
    },
    {
     "referenced_type" : "_ZTIRKN7android4base11ResultErrorE"
    }
   ],
   "return_type" : "_ZTIb",
   "source_file" : "system/libbase/include/android-base/result.h"
  },
  {
   "function_name" : "android::netdutils::isWellFormed",
   "linker_set_key" : "_ZN7android9netdutils12isWellFormedENS0_2FdE",
   "parameters" :
   [
    {
     "referenced_type" : "_ZTIKN7android9netdutils2FdE"
    }
   ],
   "return_type" : "_ZTIb",
   "source_file" : "system/netd/libnetdutils/include/netdutils/Fd.h"
  },
  {
   "function_name" : "android::netdutils::Fd::Fd",
   "linker_set_key" : "_ZN7android9netdutils2FdC1Ei",
   "parameters" :
   [
    {
     "is_this_ptr" : true,
     "referenced_type" : "_ZTIPN7android9netdutils2FdE"
    },
    {
     "referenced_type" : "_ZTIi"
    }
   ],
   "return_type" : "_ZTIv",
   "source_file" : "system/netd/libnetdutils/include/netdutils/Fd.h"
  },
  {
   "function_name" : "android::netdutils::Fd::Fd",
   "linker_set_key" : "_ZN7android9netdutils2FdC1Ev",
   "parameters" :
   [
    {
     "is_this_ptr" : true,
     "referenced_type" : "_ZTIPN7android9netdutils2FdE"
    }
   ],
   "return_type" : "_ZTIv",
   "source_file" : "system/netd/libnetdutils/include/netdutils/Fd.h"
  },
  {
   "function_name" : "android::netdutils::Fd::Fd",
   "linker_set_key" : "_ZN7android9netdutils2FdC2Ei",
   "parameters" :
   [
    {
     "is_this_ptr" : true,
     "referenced_type" : "_ZTIPN7android9netdutils2FdE"
    },
    {
     "referenced_type" : "_ZTIi"
    }
   ],
   "return_type" : "_ZTIv",
   "source_file" : "system/netd/libnetdutils/include/netdutils/Fd.h"
  },
  {
   "function_name" : "android::netdutils::Fd::Fd",
   "linker_set_key" : "_ZN7android9netdutils2FdC2Ev",
   "parameters" :
   [
    {
     "is_this_ptr" : true,
     "referenced_type" : "_ZTIPN7android9netdutils2FdE"
    }
   ],
   "return_type" : "_ZTIv",
   "source_file" : "system/netd/libnetdutils/include/netdutils/Fd.h"
  },
  {
   "function_name" : "android::netdutils::isOk",
   "linker_set_key" : "_ZN7android9netdutils4isOkERKNS0_6StatusE",
   "parameters" :
   [
    {
     "referenced_type" : "_ZTIRKN7android9netdutils6StatusE"
    }
   ],
   "return_type" : "_ZTIb",
   "source_file" : "system/netd/libnetdutils/include/netdutils/Status.h"
  },
  {
   "function_name" : "android::netdutils::Status::Status",
   "linker_set_key" : "_ZN7android9netdutils6StatusC1ENS_4base8expectedIvNS2_11ResultErrorEEE",
   "parameters" :
   [
    {
     "is_this_ptr" : true,
     "referenced_type" : "_ZTIPN7android9netdutils6StatusE"
    },
    {
     "referenced_type" : "_ZTIN7android4base8expectedIvNS0_11ResultErrorEEE"
    }
   ],
   "return_type" : "_ZTIv",
   "source_file" : "system/netd/libnetdutils/include/netdutils/Status.h"
  },
  {
   "function_name" : "android::netdutils::Status::Status",
   "linker_set_key" : "_ZN7android9netdutils6StatusC1Ei",
   "parameters" :
   [
    {
     "is_this_ptr" : true,
     "referenced_type" : "_ZTIPN7android9netdutils6StatusE"
    },
    {
     "referenced_type" : "_ZTIi"
    }
   ],
   "return_type" : "_ZTIv",
   "source_file" : "system/netd/libnetdutils/include/netdutils/Status.h"
  },
  {
   "function_name" : "android::netdutils::Status::Status",
   "linker_set_key" : "_ZN7android9netdutils6StatusC1EiNSt3__112basic_stringIcNS2_11char_traitsIcEENS2_9allocatorIcEEEE",
   "parameters" :
   [
    {
     "is_this_ptr" : true,
     "referenced_type" : "_ZTIPN7android9netdutils6StatusE"
    },
    {
     "referenced_type" : "_ZTIi"
    },
    {
     "referenced_type" : "_ZTINSt3__112basic_stringIcNS_11char_traitsIcEENS_9allocatorIcEEEE"
    }
   ],
   "return_type" : "_ZTIv",
   "source_file" : "system/netd/libnetdutils/include/netdutils/Status.h"
  },
  {
   "function_name" : "android::netdutils::Status::Status",
   "linker_set_key" : "_ZN7android9netdutils6StatusC1Ev",
   "parameters" :
   [
    {
     "is_this_ptr" : true,
     "referenced_type" : "_ZTIPN7android9netdutils6StatusE"
    }
   ],
   "return_type" : "_ZTIv",
   "source_file" : "system/netd/libnetdutils/include/netdutils/Status.h"
  },
  {
   "function_name" : "android::netdutils::Status::Status",
   "linker_set_key" : "_ZN7android9netdutils6StatusC2ENS_4base8expectedIvNS2_11ResultErrorEEE",
   "parameters" :
   [
    {
     "is_this_ptr" : true,
     "referenced_type" : "_ZTIPN7android9netdutils6StatusE"
    },
    {
     "referenced_type" : "_ZTIN7android4base8expectedIvNS0_11ResultErrorEEE"
    }
   ],
   "return_type" : "_ZTIv",
   "source_file" : "system/netd/libnetdutils/include/netdutils/Status.h"
  },
  {
   "function_name" : "android::netdutils::Status::Status",
   "linker_set_key" : "_ZN7android9netdutils6StatusC2Ei",
   "parameters" :
   [
    {
     "is_this_ptr" : true,
     "referenced_type" : "_ZTIPN7android9netdutils6StatusE"
    },
    {
     "referenced_type" : "_ZTIi"
    }
   ],
   "return_type" : "_ZTIv",
   "source_file" : "system/netd/libnetdutils/include/netdutils/Status.h"
  },
  {
   "function_name" : "android::netdutils::Status::Status",
   "linker_set_key" : "_ZN7android9netdutils6StatusC2EiNSt3__112basic_stringIcNS2_11char_traitsIcEENS2_9allocatorIcEEEE",
   "parameters" :
   [
    {
     "is_this_ptr" : true,
     "referenced_type" : "_ZTIPN7android9netdutils6StatusE"
    },
    {
     "referenced_type" : "_ZTIi"
    },
    {
     "referenced_type" : "_ZTINSt3__112basic_stringIcNS_11char_traitsIcEENS_9allocatorIcEEEE"
    }
   ],
   "return_type" : "_ZTIv",
   "source_file" : "system/netd/libnetdutils/include/netdutils/Status.h"
  },
  {
   "function_name" : "android::netdutils::Status::Status",
   "linker_set_key" : "_ZN7android9netdutils6StatusC2Ev",
   "parameters" :
   [
    {
     "is_this_ptr" : true,
     "referenced_type" : "_ZTIPN7android9netdutils6StatusE"
    }
   ],
   "return_type" : "_ZTIv",
   "source_file" : "system/netd/libnetdutils/include/netdutils/Status.h"
  },
  {
   "function_name" : "android::netdutils::expectOk",
   "linker_set_key" : "_ZN7android9netdutils8expectOkERKNS0_6StatusE",
   "parameters" :
   [
    {
     "referenced_type" : "_ZTIRKN7android9netdutils6StatusE"
    }
   ],
   "return_type" : "_ZTIv",
   "source_file" : "system/netd/libnetdutils/include/netdutils/Status.h"
  },
  {
   "function_name" : "android::netdutils::operator<<",
   "linker_set_key" : "_ZN7android9netdutilslsERNSt3__113basic_ostreamIcNS1_11char_traitsIcEEEERKNS0_2FdE",
   "parameters" :
   [
    {
     "referenced_type" : "_ZTIRNSt3__113basic_ostreamIcNS_11char_traitsIcEEEE"
    },
    {
     "referenced_type" : "_ZTIRKN7android9netdutils2FdE"
    }
   ],
   "return_type" : "_ZTIRNSt3__113basic_ostreamIcNS_11char_traitsIcEEEE",
   "source_file" : "system/netd/libnetdutils/include/netdutils/Fd.h"
  },
  {
   "function_name" : "fmt::v7::format_int::str",
   "linker_set_key" : "_ZNK3fmt2v710format_int3strEv",
   "parameters" :
   [
    {
     "is_this_ptr" : true,
     "referenced_type" : "_ZTIPKN3fmt2v710format_intE"
    }
   ],
   "return_type" : "_ZTINSt3__112basic_stringIcNS_11char_traitsIcEENS_9allocatorIcEEEE",
   "source_file" : "external/fmtlib/include/fmt/format.h"
  },
  {
   "function_name" : "fmt::v7::format_int::data",
   "linker_set_key" : "_ZNK3fmt2v710format_int4dataEv",
   "parameters" :
   [
    {
     "is_this_ptr" : true,
     "referenced_type" : "_ZTIPKN3fmt2v710format_intE"
    }
   ],
   "return_type" : "_ZTIPKc",
   "source_file" : "external/fmtlib/include/fmt/format.h"
  },
  {
   "function_name" : "fmt::v7::format_int::size",
   "linker_set_key" : "_ZNK3fmt2v710format_int4sizeEv",
   "parameters" :
   [
    {
     "is_this_ptr" : true,
     "referenced_type" : "_ZTIPKN3fmt2v710format_intE"
    }
   ],
   "return_type" : "_ZTIm",
   "source_file" : "external/fmtlib/include/fmt/format.h"
  },
  {
   "function_name" : "fmt::v7::format_int::c_str",
   "linker_set_key" : "_ZNK3fmt2v710format_int5c_strEv",
   "parameters" :
   [
    {
     "is_this_ptr" : true,
     "referenced_type" : "_ZTIPKN3fmt2v710format_intE"
    }
   ],
   "return_type" : "_ZTIPKc",
   "source_file" : "external/fmtlib/include/fmt/format.h"
  },
  {
   "function_name" : "fmt::v7::system_error::error_code",
   "linker_set_key" : "_ZNK3fmt2v712system_error10error_codeEv",
   "parameters" :
   [
    {
     "is_this_ptr" : true,
     "referenced_type" : "_ZTIPKN3fmt2v712system_errorE"
    }
   ],
   "return_type" : "_ZTIi",
   "source_file" : "external/fmtlib/include/fmt/format.h"
  },
  {
   "function_name" : "fmt::v7::basic_string_view<char8_t>::data",
   "linker_set_key" : "_ZNK3fmt2v717basic_string_viewIDuE4dataEv",
   "parameters" :
   [
    {
     "is_this_ptr" : true,
     "referenced_type" : "_ZTIPKN3fmt2v717basic_string_viewIDuEE"
    }
   ],
   "return_type" : "_ZTIPKDu",
   "source_file" : "external/fmtlib/include/fmt/core.h"
  },
  {
   "function_name" : "fmt::v7::basic_string_view<char8_t>::size",
   "linker_set_key" : "_ZNK3fmt2v717basic_string_viewIDuE4sizeEv",
   "parameters" :
   [
    {
     "is_this_ptr" : true,
     "referenced_type" : "_ZTIPKN3fmt2v717basic_string_viewIDuEE"
    }
   ],
   "return_type" : "_ZTIm",
   "source_file" : "external/fmtlib/include/fmt/core.h"
  },
  {
   "function_name" : "fmt::v7::basic_string_view<char>::end",
   "linker_set_key" : "_ZNK3fmt2v717basic_string_viewIcE3endEv",
   "parameters" :
   [
    {
     "is_this_ptr" : true,
     "referenced_type" : "_ZTIPKN3fmt2v717basic_string_viewIcEE"
    }
   ],
   "return_type" : "_ZTIPKc",
   "source_file" : "external/fmtlib/include/fmt/core.h"
  },
  {
   "function_name" : "fmt::v7::basic_string_view<char>::data",
   "linker_set_key" : "_ZNK3fmt2v717basic_string_viewIcE4dataEv",
   "parameters" :
   [
    {
     "is_this_ptr" : true,
     "referenced_type" : "_ZTIPKN3fmt2v717basic_string_viewIcEE"
    }
   ],
   "return_type" : "_ZTIPKc",
   "source_file" : "external/fmtlib/include/fmt/core.h"
  },
  {
   "function_name" : "fmt::v7::basic_string_view<char>::size",
   "linker_set_key" : "_ZNK3fmt2v717basic_string_viewIcE4sizeEv",
   "parameters" :
   [
    {
     "is_this_ptr" : true,
     "referenced_type" : "_ZTIPKN3fmt2v717basic_string_viewIcEE"
    }
   ],
   "return_type" : "_ZTIm",
   "source_file" : "external/fmtlib/include/fmt/core.h"
  },
  {
   "function_name" : "fmt::v7::basic_string_view<char>::begin",
   "linker_set_key" : "_ZNK3fmt2v717basic_string_viewIcE5beginEv",
   "parameters" :
   [
    {
     "is_this_ptr" : true,
     "referenced_type" : "_ZTIPKN3fmt2v717basic_string_viewIcEE"
    }
   ],
   "return_type" : "_ZTIPKc",
   "source_file" : "external/fmtlib/include/fmt/core.h"
  },
  {
   "function_name" : "fmt::v7::basic_string_view<wchar_t>::end",
   "linker_set_key" : "_ZNK3fmt2v717basic_string_viewIwE3endEv",
   "parameters" :
   [
    {
     "is_this_ptr" : true,
     "referenced_type" : "_ZTIPKN3fmt2v717basic_string_viewIwEE"
    }
   ],
   "return_type" : "_ZTIPKw",
   "source_file" : "external/fmtlib/include/fmt/core.h"
  },
  {
   "function_name" : "fmt::v7::basic_string_view<wchar_t>::size",
   "linker_set_key" : "_ZNK3fmt2v717basic_string_viewIwE4sizeEv",
   "parameters" :
   [
    {
     "is_this_ptr" : true,
     "referenced_type" : "_ZTIPKN3fmt2v717basic_string_viewIwEE"
    }
   ],
   "return_type" : "_ZTIm",
   "source_file" : "external/fmtlib/include/fmt/core.h"
  },
  {
   "function_name" : "fmt::v7::basic_string_view<wchar_t>::begin",
   "linker_set_key" : "_ZNK3fmt2v717basic_string_viewIwE5beginEv",
   "parameters" :
   [
    {
     "is_this_ptr" : true,
     "referenced_type" : "_ZTIPKN3fmt2v717basic_string_viewIwEE"
    }
   ],
   "return_type" : "_ZTIPKw",
   "source_file" : "external/fmtlib/include/fmt/core.h"
  },
  {
   "function_name" : "fmt::v7::detail::locale_ref::operator bool",
   "linker_set_key" : "_ZNK3fmt2v76detail10locale_refcvbEv",
   "parameters" :
   [
    {
     "is_this_ptr" : true,
     "referenced_type" : "_ZTIPKN3fmt2v76detail10locale_refE"
    }
   ],
   "return_type" : "_ZTIb",
   "source_file" : "external/fmtlib/include/fmt/core.h"
  },
  {
   "function_name" : "fmt::v7::detail::buffer_traits::count",
   "linker_set_key" : "_ZNK3fmt2v76detail13buffer_traits5countEv",
   "parameters" :
   [
    {
     "is_this_ptr" : true,
     "referenced_type" : "_ZTIPKN3fmt2v76detail13buffer_traitsE"
    }
   ],
   "return_type" : "_ZTIm",
   "source_file" : "external/fmtlib/include/fmt/core.h"
  },
  {
   "function_name" : "fmt::v7::detail::utf8_to_utf16::str",
   "linker_set_key" : "_ZNK3fmt2v76detail13utf8_to_utf163strEv",
   "parameters" :
   [
    {
     "is_this_ptr" : true,
     "referenced_type" : "_ZTIPKN3fmt2v76detail13utf8_to_utf16E"
    }
   ],
   "return_type" : "_ZTINSt3__112basic_stringIwNS_11char_traitsIwEENS_9allocatorIwEEEE",
   "source_file" : "external/fmtlib/include/fmt/format.h"
  },
  {
   "function_name" : "fmt::v7::detail::utf8_to_utf16::size",
   "linker_set_key" : "_ZNK3fmt2v76detail13utf8_to_utf164sizeEv",
   "parameters" :
   [
    {
     "is_this_ptr" : true,
     "referenced_type" : "_ZTIPKN3fmt2v76detail13utf8_to_utf16E"
    }
   ],
   "return_type" : "_ZTIm",
   "source_file" : "external/fmtlib/include/fmt/format.h"
  },
  {
   "function_name" : "fmt::v7::detail::utf8_to_utf16::c_str",
   "linker_set_key" : "_ZNK3fmt2v76detail13utf8_to_utf165c_strEv",
   "parameters" :
   [
    {
     "is_this_ptr" : true,
     "referenced_type" : "_ZTIPKN3fmt2v76detail13utf8_to_utf16E"
    }
   ],
   "return_type" : "_ZTIPKw",
   "source_file" : "external/fmtlib/include/fmt/format.h"
  },
  {
   "function_name" : "fmt::v7::detail::utf8_to_utf16::operator basic_string_view",
   "linker_set_key" : "_ZNK3fmt2v76detail13utf8_to_utf16cvNS0_17basic_string_viewIwEEEv",
   "parameters" :
   [
    {
     "is_this_ptr" : true,
     "referenced_type" : "_ZTIPKN3fmt2v76detail13utf8_to_utf16E"
    }
   ],
   "return_type" : "_ZTIN3fmt2v717basic_string_viewIwEE",
   "source_file" : "external/fmtlib/include/fmt/format.h"
  },
  {
   "function_name" : "fmt::v7::detail::uint128_wrapper::low",
   "linker_set_key" : "_ZNK3fmt2v76detail15uint128_wrapper3lowEv",
   "parameters" :
   [
    {
     "is_this_ptr" : true,
     "referenced_type" : "_ZTIPKN3fmt2v76detail15uint128_wrapperE"
    }
   ],
   "return_type" : "_ZTIm",
   "source_file" : "external/fmtlib/include/fmt/format.h"
  },
  {
   "function_name" : "fmt::v7::detail::uint128_wrapper::high",
   "linker_set_key" : "_ZNK3fmt2v76detail15uint128_wrapper4highEv",
   "parameters" :
   [
    {
     "is_this_ptr" : true,
     "referenced_type" : "_ZTIPKN3fmt2v76detail15uint128_wrapperE"
    }
   ],
   "return_type" : "_ZTIm",
   "source_file" : "external/fmtlib/include/fmt/format.h"
  },
  {
   "function_name" : "fmt::v7::detail::counting_iterator::count",
   "linker_set_key" : "_ZNK3fmt2v76detail17counting_iterator5countEv",
   "parameters" :
   [
    {
     "is_this_ptr" : true,
     "referenced_type" : "_ZTIPKN3fmt2v76detail17counting_iteratorE"
    }
   ],
   "return_type" : "_ZTIm",
   "source_file" : "external/fmtlib/include/fmt/format.h"
  },
  {
   "function_name" : "fmt::v7::detail::counting_iterator::operator*",
   "linker_set_key" : "_ZNK3fmt2v76detail17counting_iteratordeEv",
   "parameters" :
   [
    {
     "is_this_ptr" : true,
     "referenced_type" : "_ZTIPKN3fmt2v76detail17counting_iteratorE"
    }
   ],
   "return_type" : "_ZTIN3fmt2v76detail17counting_iterator10value_typeE",
   "source_file" : "external/fmtlib/include/fmt/format.h"
  },
  {
   "function_name" : "fmt::v7::detail::fixed_buffer_traits::count",
   "linker_set_key" : "_ZNK3fmt2v76detail19fixed_buffer_traits5countEv",
   "parameters" :
   [
    {
     "is_this_ptr" : true,
     "referenced_type" : "_ZTIPKN3fmt2v76detail19fixed_buffer_traitsE"
    }
   ],
   "return_type" : "_ZTIm",
   "source_file" : "external/fmtlib/include/fmt/core.h"
  },
  {
   "function_name" : "fmt::v7::detail::buffer<wchar_t>::size",
   "linker_set_key" : "_ZNK3fmt2v76detail6bufferIwE4sizeEv",
   "parameters" :
   [
    {
     "is_this_ptr" : true,
     "referenced_type" : "_ZTIPKN3fmt2v76detail6bufferIwEE"
    }
   ],
   "return_type" : "_ZTIm",
   "source_file" : "external/fmtlib/include/fmt/core.h"
  },
  {
   "function_name" : "fmt::v7::detail::buffer<wchar_t>::operator[]",
   "linker_set_key" : "_ZNK3fmt2v76detail6bufferIwEixIiEERKwT_",
   "parameters" :
   [
    {
     "is_this_ptr" : true,
     "referenced_type" : "_ZTIPKN3fmt2v76detail6bufferIwEE"
    },
    {
     "referenced_type" : "_ZTIi"
    }
   ],
   "return_type" : "_ZTIRKw",
   "source_file" : "external/fmtlib/include/fmt/core.h",
   "template_args" : [ "_ZTIi" ]
  },
  {
   "function_name" : "android::base::ResultError::code",
   "linker_set_key" : "_ZNK7android4base11ResultError4codeEv",
   "parameters" :
   [
    {
     "is_this_ptr" : true,
     "referenced_type" : "_ZTIPKN7android4base11ResultErrorE"
    }
   ],
   "return_type" : "_ZTIi",
   "source_file" : "system/libbase/include/android-base/result.h"
  },
  {
   "function_name" : "android::base::ResultError::message",
   "linker_set_key" : "_ZNK7android4base11ResultError7messageEv",
   "parameters" :
   [
    {
     "is_this_ptr" : true,
     "referenced_type" : "_ZTIPKN7android4base11ResultErrorE"
    }
   ],
   "return_type" : "_ZTINSt3__112basic_stringIcNS_11char_traitsIcEENS_9allocatorIcEEEE",
   "source_file" : "system/libbase/include/android-base/result.h"
  },
  {
   "function_name" : "android::base::Error::str",
   "linker_set_key" : "_ZNK7android4base5Error3strEv",
   "parameters" :
   [
    {
     "is_this_ptr" : true,
     "referenced_type" : "_ZTIPKN7android4base5ErrorE"
    }
   ],
   "return_type" : "_ZTIKNSt3__112basic_stringIcNS_11char_traitsIcEENS_9allocatorIcEEEE",
   "source_file" : "system/libbase/include/android-base/result.h"
  },
  {
   "function_name" : "android::base::expected<void, android::base::ResultError>::ok",
   "linker_set_key" : "_ZNK7android4base8expectedIvNS0_11ResultErrorEE2okEv",
   "parameters" :
   [
    {
     "is_this_ptr" : true,
     "referenced_type" : "_ZTIPKN7android4base8expectedIvNS0_11ResultErrorEEE"
    }
   ],
   "return_type" : "_ZTIb",
   "source_file" : "system/libbase/include/android-base/expected.h"
  },
  {
   "function_name" : "android::base::expected<void, android::base::ResultError>::has_value",
   "linker_set_key" : "_ZNK7android4base8expectedIvNS0_11ResultErrorEE9has_valueEv",
   "parameters" :
   [
    {
     "is_this_ptr" : true,
     "referenced_type" : "_ZTIPKN7android4base8expectedIvNS0_11ResultErrorEEE"
    }
   ],
   "return_type" : "_ZTIb",
   "source_file" : "system/libbase/include/android-base/expected.h"
  },
  {
   "function_name" : "android::netdutils::Fd::get",
   "linker_set_key" : "_ZNK7android9netdutils2Fd3getEv",
   "parameters" :
   [
    {
     "is_this_ptr" : true,
     "referenced_type" : "_ZTIPKN7android9netdutils2FdE"
    }
   ],
   "return_type" : "_ZTIi",
   "source_file" : "system/netd/libnetdutils/include/netdutils/Fd.h"
  },
  {
   "function_name" : "android::netdutils::Fd::operator==",
   "linker_set_key" : "_ZNK7android9netdutils2FdeqERKS1_",
   "parameters" :
   [
    {
     "is_this_ptr" : true,
     "referenced_type" : "_ZTIPKN7android9netdutils2FdE"
    },
    {
     "referenced_type" : "_ZTIRKN7android9netdutils2FdE"
    }
   ],
   "return_type" : "_ZTIb",
   "source_file" : "system/netd/libnetdutils/include/netdutils/Fd.h"
  },
  {
   "function_name" : "android::netdutils::Fd::operator!=",
   "linker_set_key" : "_ZNK7android9netdutils2FdneERKS1_",
   "parameters" :
   [
    {
     "is_this_ptr" : true,
     "referenced_type" : "_ZTIPKN7android9netdutils2FdE"
    },
    {
     "referenced_type" : "_ZTIRKN7android9netdutils2FdE"
    }
   ],
   "return_type" : "_ZTIb",
   "source_file" : "system/netd/libnetdutils/include/netdutils/Fd.h"
  },
  {
   "function_name" : "android::netdutils::Status::ignoreError",
   "linker_set_key" : "_ZNK7android9netdutils6Status11ignoreErrorEv",
   "parameters" :
   [
    {
     "is_this_ptr" : true,
     "referenced_type" : "_ZTIPKN7android9netdutils6StatusE"
    }
   ],
   "return_type" : "_ZTIv",
   "source_file" : "system/netd/libnetdutils/include/netdutils/Status.h"
  },
  {
   "function_name" : "android::netdutils::Status::ok",
   "linker_set_key" : "_ZNK7android9netdutils6Status2okEv",
   "parameters" :
   [
    {
     "is_this_ptr" : true,
     "referenced_type" : "_ZTIPKN7android9netdutils6StatusE"
    }
   ],
   "return_type" : "_ZTIb",
   "source_file" : "system/netd/libnetdutils/include/netdutils/Status.h"
  },
  {
   "function_name" : "android::netdutils::Status::msg",
   "linker_set_key" : "_ZNK7android9netdutils6Status3msgEv",
   "parameters" :
   [
    {
     "is_this_ptr" : true,
     "referenced_type" : "_ZTIPKN7android9netdutils6StatusE"
    }
   ],
   "return_type" : "_ZTIRKNSt3__112basic_stringIcNS_11char_traitsIcEENS_9allocatorIcEEEE",
   "source_file" : "system/netd/libnetdutils/include/netdutils/Status.h"
  },
  {
   "function_name" : "android::netdutils::Status::code",
   "linker_set_key" : "_ZNK7android9netdutils6Status4codeEv",
   "parameters" :
   [
    {
     "is_this_ptr" : true,
     "referenced_type" : "_ZTIPKN7android9netdutils6StatusE"
    }
   ],
   "return_type" : "_ZTIi",
   "source_file" : "system/netd/libnetdutils/include/netdutils/Status.h"
  },
  {
   "function_name" : "android::netdutils::Status::operator==",
   "linker_set_key" : "_ZNK7android9netdutils6StatuseqERKS1_",
   "parameters" :
   [
    {
     "is_this_ptr" : true,
     "referenced_type" : "_ZTIPKN7android9netdutils6StatusE"
    },
    {
     "referenced_type" : "_ZTIRKN7android9netdutils6StatusE"
    }
   ],
   "return_type" : "_ZTIb",
   "source_file" : "system/netd/libnetdutils/include/netdutils/Status.h"
  },
  {
   "function_name" : "android::netdutils::Status::operator!=",
   "linker_set_key" : "_ZNK7android9netdutils6StatusneERKS1_",
   "parameters" :
   [
    {
     "is_this_ptr" : true,
     "referenced_type" : "_ZTIPKN7android9netdutils6StatusE"
    },
    {
     "referenced_type" : "_ZTIRKN7android9netdutils6StatusE"
    }
   ],
   "return_type" : "_ZTIb",
   "source_file" : "system/netd/libnetdutils/include/netdutils/Status.h"
  },
  {
   "function_name" : "android::base::unexpected<android::base::ResultError>::value",
   "linker_set_key" : "_ZNR7android4base10unexpectedINS0_11ResultErrorEE5valueEv",
   "parameters" :
   [
    {
     "is_this_ptr" : true,
     "referenced_type" : "_ZTIPN7android4base10unexpectedINS0_11ResultErrorEEE"
    }
   ],
   "return_type" : "_ZTIRN7android4base11ResultErrorE",
   "source_file" : "system/libbase/include/android-base/expected.h"
  },
  {
   "function_name" : "android::base::expected<void, android::base::ResultError>::error",
   "linker_set_key" : "_ZNR7android4base8expectedIvNS0_11ResultErrorEE5errorEv",
   "parameters" :
   [
    {
     "is_this_ptr" : true,
     "referenced_type" : "_ZTIPN7android4base8expectedIvNS0_11ResultErrorEEE"
    }
   ],
   "return_type" : "_ZTIRN7android4base11ResultErrorE",
   "source_file" : "system/libbase/include/android-base/expected.h"
  }
 ],
 "global_vars" :
 [
  {
   "access" : "private",
   "linker_set_key" : "_ZN3fmt2v716format_arg_store14num_named_argsE",
   "name" : "fmt::v7::format_arg_store::num_named_args",
   "referenced_type" : "_ZTIKm",
   "source_file" : "external/fmtlib/include/fmt/core.h"
  },
  {
   "access" : "private",
   "linker_set_key" : "_ZN3fmt2v716format_arg_store4descE",
   "name" : "fmt::v7::format_arg_store::desc",
   "referenced_type" : "_ZTIKy",
   "source_file" : "external/fmtlib/include/fmt/core.h"
  },
  {
   "access" : "private",
   "linker_set_key" : "_ZN3fmt2v716format_arg_store8num_argsE",
   "name" : "fmt::v7::format_arg_store::num_args",
   "referenced_type" : "_ZTIKm",
   "source_file" : "external/fmtlib/include/fmt/core.h"
  },
  {
   "access" : "private",
   "linker_set_key" : "_ZN3fmt2v716format_arg_store9is_packedE",
   "name" : "fmt::v7::format_arg_store::is_packed",
   "referenced_type" : "_ZTIKb",
   "source_file" : "external/fmtlib/include/fmt/core.h"
  },
  {
   "linker_set_key" : "_ZN3fmt2v724dynamic_format_arg_store9need_copy11mapped_typeE",
   "name" : "fmt::v7::dynamic_format_arg_store::need_copy::mapped_type",
   "referenced_type" : "_ZTIKN3fmt2v76detail4typeE",
   "source_file" : "external/fmtlib/include/fmt/core.h"
  },
  {
   "linker_set_key" : "_ZN3fmt2v76detail10basic_data10hex_digitsE",
   "name" : "fmt::v7::detail::basic_data::hex_digits",
   "referenced_type" : "_ZTIA_Kc",
   "source_file" : "external/fmtlib/include/fmt/format.h"
  },
  {
   "linker_set_key" : "_ZN3fmt2v76detail10basic_data11reset_colorE",
   "name" : "fmt::v7::detail::basic_data::reset_color",
   "referenced_type" : "_ZTIA5_Kc",
   "source_file" : "external/fmtlib/include/fmt/format.h"
  },
  {
   "linker_set_key" : "_ZN3fmt2v76detail10basic_data12wreset_colorE",
   "name" : "fmt::v7::detail::basic_data::wreset_color",
   "referenced_type" : "_ZTIA5_Kw",
   "source_file" : "external/fmtlib/include/fmt/format.h"
  },
  {
   "linker_set_key" : "_ZN3fmt2v76detail10basic_data14powers_of_5_64E",
   "name" : "fmt::v7::detail::basic_data::powers_of_5_64",
   "referenced_type" : "_ZTIA_Km",
   "source_file" : "external/fmtlib/include/fmt/format.h"
  },
  {
   "linker_set_key" : "_ZN3fmt2v76detail10basic_data15powers_of_10_64E",
   "name" : "fmt::v7::detail::basic_data::powers_of_10_64",
   "referenced_type" : "_ZTIA_Km",
   "source_file" : "external/fmtlib/include/fmt/format.h"
  },
  {
   "linker_set_key" : "_ZN3fmt2v76detail10basic_data16background_colorE",
   "name" : "fmt::v7::detail::basic_data::background_color",
   "referenced_type" : "_ZTIA_Kc",
   "source_file" : "external/fmtlib/include/fmt/format.h"
  },
  {
   "linker_set_key" : "_ZN3fmt2v76detail10basic_data16foreground_colorE",
   "name" : "fmt::v7::detail::basic_data::foreground_color",
   "referenced_type" : "_ZTIA_Kc",
   "source_file" : "external/fmtlib/include/fmt/format.h"
  },
  {
   "linker_set_key" : "_ZN3fmt2v76detail10basic_data19left_padding_shiftsE",
   "name" : "fmt::v7::detail::basic_data::left_padding_shifts",
   "referenced_type" : "_ZTIA5_Kc",
   "source_file" : "external/fmtlib/include/fmt/format.h"
  },
  {
   "linker_set_key" : "_ZN3fmt2v76detail10basic_data19log10_2_significandE",
   "name" : "fmt::v7::detail::basic_data::log10_2_significand",
   "referenced_type" : "_ZTIKm",
   "source_file" : "external/fmtlib/include/fmt/format.h"
  },
  {
   "linker_set_key" : "_ZN3fmt2v76detail10basic_data20right_padding_shiftsE",
   "name" : "fmt::v7::detail::basic_data::right_padding_shifts",
   "referenced_type" : "_ZTIA5_Kc",
   "source_file" : "external/fmtlib/include/fmt/format.h"
  },
  {
   "linker_set_key" : "_ZN3fmt2v76detail10basic_data21grisu_pow10_exponentsE",
   "name" : "fmt::v7::detail::basic_data::grisu_pow10_exponents",
   "referenced_type" : "_ZTIA_Ks",
   "source_file" : "external/fmtlib/include/fmt/format.h"
  },
  {
   "linker_set_key" : "_ZN3fmt2v76detail10basic_data23zero_or_powers_of_10_32E",
   "name" : "fmt::v7::detail::basic_data::zero_or_powers_of_10_32",
   "referenced_type" : "_ZTIA_Kj",
   "source_file" : "external/fmtlib/include/fmt/format.h"
  },
  {
   "linker_set_key" : "_ZN3fmt2v76detail10basic_data23zero_or_powers_of_10_64E",
   "name" : "fmt::v7::detail::basic_data::zero_or_powers_of_10_64",
   "referenced_type" : "_ZTIA_Km",
   "source_file" : "external/fmtlib/include/fmt/format.h"
  },
  {
   "linker_set_key" : "_ZN3fmt2v76detail10basic_data24grisu_pow10_significandsE",
   "name" : "fmt::v7::detail::basic_data::grisu_pow10_significands",
   "referenced_type" : "_ZTIA_Km",
   "source_file" : "external/fmtlib/include/fmt/format.h"
  },
  {
   "linker_set_key" : "_ZN3fmt2v76detail10basic_data25divtest_table_for_pow5_32E",
   "name" : "fmt::v7::detail::basic_data::divtest_table_for_pow5_32",
   "referenced_type" : "_ZTIA_KN3fmt2v76detail19divtest_table_entryIjEE",
   "source_file" : "external/fmtlib/include/fmt/format.h"
  },
  {
   "linker_set_key" : "_ZN3fmt2v76detail10basic_data25divtest_table_for_pow5_64E",
   "name" : "fmt::v7::detail::basic_data::divtest_table_for_pow5_64",
   "referenced_type" : "_ZTIA_KN3fmt2v76detail19divtest_table_entryImEE",
   "source_file" : "external/fmtlib/include/fmt/format.h"
  },
  {
   "linker_set_key" : "_ZN3fmt2v76detail10basic_data27zero_or_powers_of_10_32_newE",
   "name" : "fmt::v7::detail::basic_data::zero_or_powers_of_10_32_new",
   "referenced_type" : "_ZTIA_Kj",
   "source_file" : "external/fmtlib/include/fmt/format.h"
  },
  {
   "linker_set_key" : "_ZN3fmt2v76detail10basic_data27zero_or_powers_of_10_64_newE",
   "name" : "fmt::v7::detail::basic_data::zero_or_powers_of_10_64_new",
   "referenced_type" : "_ZTIA_Km",
   "source_file" : "external/fmtlib/include/fmt/format.h"
  },
  {
   "linker_set_key" : "_ZN3fmt2v76detail10basic_data31dragonbox_pow10_recovery_errorsE",
   "name" : "fmt::v7::detail::basic_data::dragonbox_pow10_recovery_errors",
   "referenced_type" : "_ZTIA_Kj",
   "source_file" : "external/fmtlib/include/fmt/format.h"
  },
  {
   "linker_set_key" : "_ZN3fmt2v76detail10basic_data31dragonbox_pow10_significands_64E",
   "name" : "fmt::v7::detail::basic_data::dragonbox_pow10_significands_64",
   "referenced_type" : "_ZTIA_Km",
   "source_file" : "external/fmtlib/include/fmt/format.h"
  },
  {
   "linker_set_key" : "_ZN3fmt2v76detail10basic_data32dragonbox_pow10_significands_128E",
   "name" : "fmt::v7::detail::basic_data::dragonbox_pow10_significands_128",
   "referenced_type" : "_ZTIA_KN3fmt2v76detail15uint128_wrapperE",
   "source_file" : "external/fmtlib/include/fmt/format.h"
  },
  {
   "linker_set_key" : "_ZN3fmt2v76detail10basic_data5signsE",
   "name" : "fmt::v7::detail::basic_data::signs",
   "referenced_type" : "_ZTIA_Kc",
   "source_file" : "external/fmtlib/include/fmt/format.h"
  },
  {
   "linker_set_key" : "_ZN3fmt2v76detail10basic_data6digitsE",
   "name" : "fmt::v7::detail::basic_data::digits",
   "referenced_type" : "_ZTIA_A2_Kc",
   "source_file" : "external/fmtlib/include/fmt/format.h"
  },
  {
   "linker_set_key" : "_ZN3fmt2v76detail10basic_dataIvE10hex_digitsE",
   "name" : "fmt::v7::detail::basic_data<void>::hex_digits",
   "referenced_type" : "_ZTIA_Kc",
   "source_file" : "external/fmtlib/include/fmt/format.h"
  },
  {
   "linker_set_key" : "_ZN3fmt2v76detail10basic_dataIvE11reset_colorE",
   "name" : "fmt::v7::detail::basic_data<void>::reset_color",
   "referenced_type" : "_ZTIA5_Kc",
   "source_file" : "external/fmtlib/include/fmt/format.h"
  },
  {
   "linker_set_key" : "_ZN3fmt2v76detail10basic_dataIvE12wreset_colorE",
   "name" : "fmt::v7::detail::basic_data<void>::wreset_color",
   "referenced_type" : "_ZTIA5_Kw",
   "source_file" : "external/fmtlib/include/fmt/format.h"
  },
  {
   "linker_set_key" : "_ZN3fmt2v76detail10basic_dataIvE14powers_of_5_64E",
   "name" : "fmt::v7::detail::basic_data<void>::powers_of_5_64",
   "referenced_type" : "_ZTIA_Km",
   "source_file" : "external/fmtlib/include/fmt/format.h"
  },
  {
   "linker_set_key" : "_ZN3fmt2v76detail10basic_dataIvE15powers_of_10_64E",
   "name" : "fmt::v7::detail::basic_data<void>::powers_of_10_64",
   "referenced_type" : "_ZTIA_Km",
   "source_file" : "external/fmtlib/include/fmt/format.h"
  },
  {
   "linker_set_key" : "_ZN3fmt2v76detail10basic_dataIvE16background_colorE",
   "name" : "fmt::v7::detail::basic_data<void>::background_color",
   "referenced_type" : "_ZTIA_Kc",
   "source_file" : "external/fmtlib/include/fmt/format.h"
  },
  {
   "linker_set_key" : "_ZN3fmt2v76detail10basic_dataIvE16foreground_colorE",
   "name" : "fmt::v7::detail::basic_data<void>::foreground_color",
   "referenced_type" : "_ZTIA_Kc",
   "source_file" : "external/fmtlib/include/fmt/format.h"
  },
  {
   "linker_set_key" : "_ZN3fmt2v76detail10basic_dataIvE19left_padding_shiftsE",
   "name" : "fmt::v7::detail::basic_data<void>::left_padding_shifts",
   "referenced_type" : "_ZTIA5_Kc",
   "source_file" : "external/fmtlib/include/fmt/format.h"
  },
  {
   "linker_set_key" : "_ZN3fmt2v76detail10basic_dataIvE19log10_2_significandE",
   "name" : "fmt::v7::detail::basic_data<void>::log10_2_significand",
   "referenced_type" : "_ZTIKm",
   "source_file" : "external/fmtlib/include/fmt/format.h"
  },
  {
   "linker_set_key" : "_ZN3fmt2v76detail10basic_dataIvE20right_padding_shiftsE",
   "name" : "fmt::v7::detail::basic_data<void>::right_padding_shifts",
   "referenced_type" : "_ZTIA5_Kc",
   "source_file" : "external/fmtlib/include/fmt/format.h"
  },
  {
   "linker_set_key" : "_ZN3fmt2v76detail10basic_dataIvE21grisu_pow10_exponentsE",
   "name" : "fmt::v7::detail::basic_data<void>::grisu_pow10_exponents",
   "referenced_type" : "_ZTIA_Ks",
   "source_file" : "external/fmtlib/include/fmt/format.h"
  },
  {
   "linker_set_key" : "_ZN3fmt2v76detail10basic_dataIvE23zero_or_powers_of_10_32E",
   "name" : "fmt::v7::detail::basic_data<void>::zero_or_powers_of_10_32",
   "referenced_type" : "_ZTIA_Kj",
   "source_file" : "external/fmtlib/include/fmt/format.h"
  },
  {
   "linker_set_key" : "_ZN3fmt2v76detail10basic_dataIvE23zero_or_powers_of_10_64E",
   "name" : "fmt::v7::detail::basic_data<void>::zero_or_powers_of_10_64",
   "referenced_type" : "_ZTIA_Km",
   "source_file" : "external/fmtlib/include/fmt/format.h"
  },
  {
   "linker_set_key" : "_ZN3fmt2v76detail10basic_dataIvE24grisu_pow10_significandsE",
   "name" : "fmt::v7::detail::basic_data<void>::grisu_pow10_significands",
   "referenced_type" : "_ZTIA_Km",
   "source_file" : "external/fmtlib/include/fmt/format.h"
  },
  {
   "linker_set_key" : "_ZN3fmt2v76detail10basic_dataIvE25divtest_table_for_pow5_32E",
   "name" : "fmt::v7::detail::basic_data<void>::divtest_table_for_pow5_32",
   "referenced_type" : "_ZTIA_KN3fmt2v76detail19divtest_table_entryIjEE",
   "source_file" : "external/fmtlib/include/fmt/format.h"
  },
  {
   "linker_set_key" : "_ZN3fmt2v76detail10basic_dataIvE25divtest_table_for_pow5_64E",
   "name" : "fmt::v7::detail::basic_data<void>::divtest_table_for_pow5_64",
   "referenced_type" : "_ZTIA_KN3fmt2v76detail19divtest_table_entryImEE",
   "source_file" : "external/fmtlib/include/fmt/format.h"
  },
  {
   "linker_set_key" : "_ZN3fmt2v76detail10basic_dataIvE27zero_or_powers_of_10_32_newE",
   "name" : "fmt::v7::detail::basic_data<void>::zero_or_powers_of_10_32_new",
   "referenced_type" : "_ZTIA_Kj",
   "source_file" : "external/fmtlib/include/fmt/format.h"
  },
  {
   "linker_set_key" : "_ZN3fmt2v76detail10basic_dataIvE27zero_or_powers_of_10_64_newE",
   "name" : "fmt::v7::detail::basic_data<void>::zero_or_powers_of_10_64_new",
   "referenced_type" : "_ZTIA_Km",
   "source_file" : "external/fmtlib/include/fmt/format.h"
  },
  {
   "linker_set_key" : "_ZN3fmt2v76detail10basic_dataIvE31dragonbox_pow10_recovery_errorsE",
   "name" : "fmt::v7::detail::basic_data<void>::dragonbox_pow10_recovery_errors",
   "referenced_type" : "_ZTIA_Kj",
   "source_file" : "external/fmtlib/include/fmt/format.h"
  },
  {
   "linker_set_key" : "_ZN3fmt2v76detail10basic_dataIvE31dragonbox_pow10_significands_64E",
   "name" : "fmt::v7::detail::basic_data<void>::dragonbox_pow10_significands_64",
   "referenced_type" : "_ZTIA_Km",
   "source_file" : "external/fmtlib/include/fmt/format.h"
  },
  {
   "linker_set_key" : "_ZN3fmt2v76detail10basic_dataIvE32dragonbox_pow10_significands_128E",
   "name" : "fmt::v7::detail::basic_data<void>::dragonbox_pow10_significands_128",
   "referenced_type" : "_ZTIA_KN3fmt2v76detail15uint128_wrapperE",
   "source_file" : "external/fmtlib/include/fmt/format.h"
  },
  {
   "linker_set_key" : "_ZN3fmt2v76detail10basic_dataIvE5signsE",
   "name" : "fmt::v7::detail::basic_data<void>::signs",
   "referenced_type" : "_ZTIA_Kc",
   "source_file" : "external/fmtlib/include/fmt/format.h"
  },
  {
   "linker_set_key" : "_ZN3fmt2v76detail10basic_dataIvE6digitsE",
   "name" : "fmt::v7::detail::basic_data<void>::digits",
   "referenced_type" : "_ZTIA_A2_Kc",
   "source_file" : "external/fmtlib/include/fmt/format.h"
  },
  {
   "linker_set_key" : "_ZN3fmt2v76detail13is_streamable5valueE",
   "name" : "fmt::v7::detail::is_streamable::value",
   "referenced_type" : "_ZTIKb",
   "source_file" : "external/fmtlib/include/fmt/ostream.h"
  },
  {
   "linker_set_key" : "_ZN3fmt2v76detail9dragonbox10float_infoIdE10cache_bitsE",
   "name" : "fmt::v7::detail::dragonbox::float_info<double>::cache_bits",
   "referenced_type" : "_ZTIKi",
   "source_file" : "external/fmtlib/include/fmt/format.h"
  },
  {
   "linker_set_key" : "_ZN3fmt2v76detail9dragonbox10float_infoIdE11big_divisorE",
   "name" : "fmt::v7::detail::dragonbox::float_info<double>::big_divisor",
   "referenced_type" : "_ZTIKi",
   "source_file" : "external/fmtlib/include/fmt/format.h"
  },
  {
   "linker_set_key" : "_ZN3fmt2v76detail9dragonbox10float_infoIdE12max_exponentE",
   "name" : "fmt::v7::detail::dragonbox::float_info<double>::max_exponent",
   "referenced_type" : "_ZTIKi",
   "source_file" : "external/fmtlib/include/fmt/format.h"
  },
  {
   "linker_set_key" : "_ZN3fmt2v76detail9dragonbox10float_infoIdE12min_exponentE",
   "name" : "fmt::v7::detail::dragonbox::float_info<double>::min_exponent",
   "referenced_type" : "_ZTIKi",
   "source_file" : "external/fmtlib/include/fmt/format.h"
  },
  {
   "linker_set_key" : "_ZN3fmt2v76detail9dragonbox10float_infoIdE13exponent_biasE",
   "name" : "fmt::v7::detail::dragonbox::float_info<double>::exponent_bias",
   "referenced_type" : "_ZTIKi",
   "source_file" : "external/fmtlib/include/fmt/format.h"
  },
  {
   "linker_set_key" : "_ZN3fmt2v76detail9dragonbox10float_infoIdE13exponent_bitsE",
   "name" : "fmt::v7::detail::dragonbox::float_info<double>::exponent_bits",
   "referenced_type" : "_ZTIKi",
   "source_file" : "external/fmtlib/include/fmt/format.h"
  },
  {
   "linker_set_key" : "_ZN3fmt2v76detail9dragonbox10float_infoIdE13small_divisorE",
   "name" : "fmt::v7::detail::dragonbox::float_info<double>::small_divisor",
   "referenced_type" : "_ZTIKi",
   "source_file" : "external/fmtlib/include/fmt/format.h"
  },
  {
   "linker_set_key" : "_ZN3fmt2v76detail9dragonbox10float_infoIdE14decimal_digitsE",
   "name" : "fmt::v7::detail::dragonbox::float_info<double>::decimal_digits",
   "referenced_type" : "_ZTIKi",
   "source_file" : "external/fmtlib/include/fmt/format.h"
  },
  {
   "linker_set_key" : "_ZN3fmt2v76detail9dragonbox10float_infoIdE16significand_bitsE",
   "name" : "fmt::v7::detail::dragonbox::float_info<double>::significand_bits",
   "referenced_type" : "_ZTIKi",
   "source_file" : "external/fmtlib/include/fmt/format.h"
  },
  {
   "linker_set_key" : "_ZN3fmt2v76detail9dragonbox10float_infoIdE18max_trailing_zerosE",
   "name" : "fmt::v7::detail::dragonbox::float_info<double>::max_trailing_zeros",
   "referenced_type" : "_ZTIKi",
   "source_file" : "external/fmtlib/include/fmt/format.h"
  },
  {
   "linker_set_key" : "_ZN3fmt2v76detail9dragonbox10float_infoIdE23case_fc_lower_thresholdE",
   "name" : "fmt::v7::detail::dragonbox::float_info<double>::case_fc_lower_threshold",
   "referenced_type" : "_ZTIKi",
   "source_file" : "external/fmtlib/include/fmt/format.h"
  },
  {
   "linker_set_key" : "_ZN3fmt2v76detail9dragonbox10float_infoIdE23case_fc_upper_thresholdE",
   "name" : "fmt::v7::detail::dragonbox::float_info<double>::case_fc_upper_threshold",
   "referenced_type" : "_ZTIKi",
   "source_file" : "external/fmtlib/include/fmt/format.h"
  },
  {
   "linker_set_key" : "_ZN3fmt2v76detail9dragonbox10float_infoIdE31case_fc_pm_half_lower_thresholdE",
   "name" : "fmt::v7::detail::dragonbox::float_info<double>::case_fc_pm_half_lower_threshold",
   "referenced_type" : "_ZTIKi",
   "source_file" : "external/fmtlib/include/fmt/format.h"
  },
  {
   "linker_set_key" : "_ZN3fmt2v76detail9dragonbox10float_infoIdE31case_fc_pm_half_upper_thresholdE",
   "name" : "fmt::v7::detail::dragonbox::float_info<double>::case_fc_pm_half_upper_threshold",
   "referenced_type" : "_ZTIKi",
   "source_file" : "external/fmtlib/include/fmt/format.h"
  },
  {
   "linker_set_key" : "_ZN3fmt2v76detail9dragonbox10float_infoIdE33divisibility_check_by_5_thresholdE",
   "name" : "fmt::v7::detail::dragonbox::float_info<double>::divisibility_check_by_5_threshold",
   "referenced_type" : "_ZTIKi",
   "source_file" : "external/fmtlib/include/fmt/format.h"
  },
  {
   "linker_set_key" : "_ZN3fmt2v76detail9dragonbox10float_infoIdE36shorter_interval_tie_lower_thresholdE",
   "name" : "fmt::v7::detail::dragonbox::float_info<double>::shorter_interval_tie_lower_threshold",
   "referenced_type" : "_ZTIKi",
   "source_file" : "external/fmtlib/include/fmt/format.h"
  },
  {
   "linker_set_key" : "_ZN3fmt2v76detail9dragonbox10float_infoIdE36shorter_interval_tie_upper_thresholdE",
   "name" : "fmt::v7::detail::dragonbox::float_info<double>::shorter_interval_tie_upper_threshold",
   "referenced_type" : "_ZTIKi",
   "source_file" : "external/fmtlib/include/fmt/format.h"
  },
  {
   "linker_set_key" : "_ZN3fmt2v76detail9dragonbox10float_infoIdE51case_shorter_interval_left_endpoint_lower_thresholdE",
   "name" : "fmt::v7::detail::dragonbox::float_info<double>::case_shorter_interval_left_endpoint_lower_threshold",
   "referenced_type" : "_ZTIKi",
   "source_file" : "external/fmtlib/include/fmt/format.h"
  },
  {
   "linker_set_key" : "_ZN3fmt2v76detail9dragonbox10float_infoIdE51case_shorter_interval_left_endpoint_upper_thresholdE",
   "name" : "fmt::v7::detail::dragonbox::float_info<double>::case_shorter_interval_left_endpoint_upper_threshold",
   "referenced_type" : "_ZTIKi",
   "source_file" : "external/fmtlib/include/fmt/format.h"
  },
  {
   "linker_set_key" : "_ZN3fmt2v76detail9dragonbox10float_infoIdE5kappaE",
   "name" : "fmt::v7::detail::dragonbox::float_info<double>::kappa",
   "referenced_type" : "_ZTIKi",
   "source_file" : "external/fmtlib/include/fmt/format.h"
  },
  {
   "linker_set_key" : "_ZN3fmt2v76detail9dragonbox10float_infoIdE5max_kE",
   "name" : "fmt::v7::detail::dragonbox::float_info<double>::max_k",
   "referenced_type" : "_ZTIKi",
   "source_file" : "external/fmtlib/include/fmt/format.h"
  },
  {
   "linker_set_key" : "_ZN3fmt2v76detail9dragonbox10float_infoIdE5min_kE",
   "name" : "fmt::v7::detail::dragonbox::float_info<double>::min_k",
   "referenced_type" : "_ZTIKi",
   "source_file" : "external/fmtlib/include/fmt/format.h"
  },
  {
   "linker_set_key" : "_ZN3fmt2v76detail9dragonbox10float_infoIfE10cache_bitsE",
   "name" : "fmt::v7::detail::dragonbox::float_info<float>::cache_bits",
   "referenced_type" : "_ZTIKi",
   "source_file" : "external/fmtlib/include/fmt/format.h"
  },
  {
   "linker_set_key" : "_ZN3fmt2v76detail9dragonbox10float_infoIfE11big_divisorE",
   "name" : "fmt::v7::detail::dragonbox::float_info<float>::big_divisor",
   "referenced_type" : "_ZTIKi",
   "source_file" : "external/fmtlib/include/fmt/format.h"
  },
  {
   "linker_set_key" : "_ZN3fmt2v76detail9dragonbox10float_infoIfE12max_exponentE",
   "name" : "fmt::v7::detail::dragonbox::float_info<float>::max_exponent",
   "referenced_type" : "_ZTIKi",
   "source_file" : "external/fmtlib/include/fmt/format.h"
  },
  {
   "linker_set_key" : "_ZN3fmt2v76detail9dragonbox10float_infoIfE12min_exponentE",
   "name" : "fmt::v7::detail::dragonbox::float_info<float>::min_exponent",
   "referenced_type" : "_ZTIKi",
   "source_file" : "external/fmtlib/include/fmt/format.h"
  },
  {
   "linker_set_key" : "_ZN3fmt2v76detail9dragonbox10float_infoIfE13exponent_biasE",
   "name" : "fmt::v7::detail::dragonbox::float_info<float>::exponent_bias",
   "referenced_type" : "_ZTIKi",
   "source_file" : "external/fmtlib/include/fmt/format.h"
  },
  {
   "linker_set_key" : "_ZN3fmt2v76detail9dragonbox10float_infoIfE13exponent_bitsE",
   "name" : "fmt::v7::detail::dragonbox::float_info<float>::exponent_bits",
   "referenced_type" : "_ZTIKi",
   "source_file" : "external/fmtlib/include/fmt/format.h"
  },
  {
   "linker_set_key" : "_ZN3fmt2v76detail9dragonbox10float_infoIfE13small_divisorE",
   "name" : "fmt::v7::detail::dragonbox::float_info<float>::small_divisor",
   "referenced_type" : "_ZTIKi",
   "source_file" : "external/fmtlib/include/fmt/format.h"
  },
  {
   "linker_set_key" : "_ZN3fmt2v76detail9dragonbox10float_infoIfE14decimal_digitsE",
   "name" : "fmt::v7::detail::dragonbox::float_info<float>::decimal_digits",
   "referenced_type" : "_ZTIKi",
   "source_file" : "external/fmtlib/include/fmt/format.h"
  },
  {
   "linker_set_key" : "_ZN3fmt2v76detail9dragonbox10float_infoIfE16significand_bitsE",
   "name" : "fmt::v7::detail::dragonbox::float_info<float>::significand_bits",
   "referenced_type" : "_ZTIKi",
   "source_file" : "external/fmtlib/include/fmt/format.h"
  },
  {
   "linker_set_key" : "_ZN3fmt2v76detail9dragonbox10float_infoIfE18max_trailing_zerosE",
   "name" : "fmt::v7::detail::dragonbox::float_info<float>::max_trailing_zeros",
   "referenced_type" : "_ZTIKi",
   "source_file" : "external/fmtlib/include/fmt/format.h"
  },
  {
   "linker_set_key" : "_ZN3fmt2v76detail9dragonbox10float_infoIfE23case_fc_lower_thresholdE",
   "name" : "fmt::v7::detail::dragonbox::float_info<float>::case_fc_lower_threshold",
   "referenced_type" : "_ZTIKi",
   "source_file" : "external/fmtlib/include/fmt/format.h"
  },
  {
   "linker_set_key" : "_ZN3fmt2v76detail9dragonbox10float_infoIfE23case_fc_upper_thresholdE",
   "name" : "fmt::v7::detail::dragonbox::float_info<float>::case_fc_upper_threshold",
   "referenced_type" : "_ZTIKi",
   "source_file" : "external/fmtlib/include/fmt/format.h"
  },
  {
   "linker_set_key" : "_ZN3fmt2v76detail9dragonbox10float_infoIfE31case_fc_pm_half_lower_thresholdE",
   "name" : "fmt::v7::detail::dragonbox::float_info<float>::case_fc_pm_half_lower_threshold",
   "referenced_type" : "_ZTIKi",
   "source_file" : "external/fmtlib/include/fmt/format.h"
  },
  {
   "linker_set_key" : "_ZN3fmt2v76detail9dragonbox10float_infoIfE31case_fc_pm_half_upper_thresholdE",
   "name" : "fmt::v7::detail::dragonbox::float_info<float>::case_fc_pm_half_upper_threshold",
   "referenced_type" : "_ZTIKi",
   "source_file" : "external/fmtlib/include/fmt/format.h"
  },
  {
   "linker_set_key" : "_ZN3fmt2v76detail9dragonbox10float_infoIfE33divisibility_check_by_5_thresholdE",
   "name" : "fmt::v7::detail::dragonbox::float_info<float>::divisibility_check_by_5_threshold",
   "referenced_type" : "_ZTIKi",
   "source_file" : "external/fmtlib/include/fmt/format.h"
  },
  {
   "linker_set_key" : "_ZN3fmt2v76detail9dragonbox10float_infoIfE36shorter_interval_tie_lower_thresholdE",
   "name" : "fmt::v7::detail::dragonbox::float_info<float>::shorter_interval_tie_lower_threshold",
   "referenced_type" : "_ZTIKi",
   "source_file" : "external/fmtlib/include/fmt/format.h"
  },
  {
   "linker_set_key" : "_ZN3fmt2v76detail9dragonbox10float_infoIfE36shorter_interval_tie_upper_thresholdE",
   "name" : "fmt::v7::detail::dragonbox::float_info<float>::shorter_interval_tie_upper_threshold",
   "referenced_type" : "_ZTIKi",
   "source_file" : "external/fmtlib/include/fmt/format.h"
  },
  {
   "linker_set_key" : "_ZN3fmt2v76detail9dragonbox10float_infoIfE51case_shorter_interval_left_endpoint_lower_thresholdE",
   "name" : "fmt::v7::detail::dragonbox::float_info<float>::case_shorter_interval_left_endpoint_lower_threshold",
   "referenced_type" : "_ZTIKi",
   "source_file" : "external/fmtlib/include/fmt/format.h"
  },
  {
   "linker_set_key" : "_ZN3fmt2v76detail9dragonbox10float_infoIfE51case_shorter_interval_left_endpoint_upper_thresholdE",
   "name" : "fmt::v7::detail::dragonbox::float_info<float>::case_shorter_interval_left_endpoint_upper_threshold",
   "referenced_type" : "_ZTIKi",
   "source_file" : "external/fmtlib/include/fmt/format.h"
  },
  {
   "linker_set_key" : "_ZN3fmt2v76detail9dragonbox10float_infoIfE5kappaE",
   "name" : "fmt::v7::detail::dragonbox::float_info<float>::kappa",
   "referenced_type" : "_ZTIKi",
   "source_file" : "external/fmtlib/include/fmt/format.h"
  },
  {
   "linker_set_key" : "_ZN3fmt2v76detail9dragonbox10float_infoIfE5max_kE",
   "name" : "fmt::v7::detail::dragonbox::float_info<float>::max_k",
   "referenced_type" : "_ZTIKi",
   "source_file" : "external/fmtlib/include/fmt/format.h"
  },
  {
   "linker_set_key" : "_ZN3fmt2v76detail9dragonbox10float_infoIfE5min_kE",
   "name" : "fmt::v7::detail::dragonbox::float_info<float>::min_k",
   "referenced_type" : "_ZTIKi",
   "source_file" : "external/fmtlib/include/fmt/format.h"
  },
  {
   "linker_set_key" : "_ZN3fmt2v76detailL5microE",
   "name" : "fmt::v7::detail::micro",
   "referenced_type" : "_ZTIA3_Kh",
   "source_file" : "external/fmtlib/include/fmt/core.h"
  },
  {
   "linker_set_key" : "_ZN7android4base8unexpectE",
   "name" : "android::base::unexpect",
   "referenced_type" : "_ZTIKN7android4base10unexpect_tE",
   "source_file" : "system/libbase/include/android-base/expected.h"
  },
  {
   "linker_set_key" : "_ZN7android9netdutils6statusL2okE",
   "name" : "android::netdutils::status::ok",
   "referenced_type" : "_ZTIKN7android9netdutils6StatusE",
   "source_file" : "system/netd/libnetdutils/include/netdutils/Status.h"
  },
  {
   "linker_set_key" : "_ZN7android9netdutils6statusL3eofE",
   "name" : "android::netdutils::status::eof",
   "referenced_type" : "_ZTIKN7android9netdutils6StatusE",
   "source_file" : "system/netd/libnetdutils/include/netdutils/Status.h"
  },
  {
   "linker_set_key" : "_ZN7android9netdutils6statusL9undefinedE",
   "name" : "android::netdutils::status::undefined",
   "referenced_type" : "_ZTIKN7android9netdutils6StatusE",
   "source_file" : "system/netd/libnetdutils/include/netdutils/Status.h"
  },
  {
   "linker_set_key" : "_ZZN3fmt2v76detail9bsr2log10EiE4data",
   "name" : "data",
   "referenced_type" : "_ZTIA64_Kt",
   "source_file" : "external/fmtlib/include/fmt/format.h"
  }
 ],
 "lvalue_reference_types" :
 [
  {
   "alignment" : 8,
   "linker_set_key" : "_ZTIRKN3fmt2v712format_errorE",
   "name" : "const fmt::format_error &",
   "referenced_type" : "_ZTIKN3fmt2v712format_errorE",
   "self_type" : "_ZTIRKN3fmt2v712format_errorE",
   "size" : 8,
   "source_file" : "external/fmtlib/include/fmt/format.h"
  },
  {
   "alignment" : 8,
   "linker_set_key" : "_ZTIRKN3fmt2v712system_errorE",
   "name" : "const fmt::system_error &",
   "referenced_type" : "_ZTIKN3fmt2v712system_errorE",
   "self_type" : "_ZTIRKN3fmt2v712system_errorE",
   "size" : 8,
   "source_file" : "external/fmtlib/include/fmt/format.h"
  },
  {
   "alignment" : 8,
   "linker_set_key" : "_ZTIRKN3fmt2v76detail13error_handlerE",
   "name" : "const fmt::detail::error_handler &",
   "referenced_type" : "_ZTIKN3fmt2v76detail13error_handlerE",
   "self_type" : "_ZTIRKN3fmt2v76detail13error_handlerE",
   "size" : 8,
   "source_file" : "external/fmtlib/include/fmt/core.h"
  },
  {
   "alignment" : 8,
   "linker_set_key" : "_ZTIRKN3fmt2v76detail14big_decimal_fpE",
   "name" : "const fmt::detail::big_decimal_fp &",
   "referenced_type" : "_ZTIKN3fmt2v76detail14big_decimal_fpE",
   "self_type" : "_ZTIRKN3fmt2v76detail14big_decimal_fpE",
   "size" : 8,
   "source_file" : "external/fmtlib/include/fmt/format.h"
  },
  {
   "alignment" : 8,
   "linker_set_key" : "_ZTIRKN7android4base10unexpectedINS0_11ResultErrorEEE",
   "name" : "const android::base::unexpected<android::base::ResultError> &",
   "referenced_type" : "_ZTIKN7android4base10unexpectedINS0_11ResultErrorEEE",
   "self_type" : "_ZTIRKN7android4base10unexpectedINS0_11ResultErrorEEE",
   "size" : 8,
   "source_file" : "system/libbase/include/android-base/expected.h"
  },
  {
   "alignment" : 8,
   "linker_set_key" : "_ZTIRKN7android4base11ResultErrorE",
   "name" : "const android::base::ResultError &",
   "referenced_type" : "_ZTIKN7android4base11ResultErrorE",
   "self_type" : "_ZTIRKN7android4base11ResultErrorE",
   "size" : 8,
   "source_file" : "system/libbase/include/android-base/result.h"
  },
  {
   "alignment" : 8,
   "linker_set_key" : "_ZTIRKN7android4base8expectedIvNS0_11ResultErrorEEE",
   "name" : "const android::base::expected<void, android::base::ResultError> &",
   "referenced_type" : "_ZTIKN7android4base8expectedIvNS0_11ResultErrorEEE",
   "self_type" : "_ZTIRKN7android4base8expectedIvNS0_11ResultErrorEEE",
   "size" : 8,
   "source_file" : "system/libbase/include/android-base/expected.h"
  },
  {
   "alignment" : 8,
   "linker_set_key" : "_ZTIRKN7android9netdutils2FdE",
   "name" : "const android::netdutils::Fd &",
   "referenced_type" : "_ZTIKN7android9netdutils2FdE",
   "self_type" : "_ZTIRKN7android9netdutils2FdE",
   "size" : 8,
   "source_file" : "system/netd/libnetdutils/include/netdutils/Fd.h"
  },
  {
   "alignment" : 8,
   "linker_set_key" : "_ZTIRKN7android9netdutils6StatusE",
   "name" : "const android::netdutils::Status &",
   "referenced_type" : "_ZTIKN7android9netdutils6StatusE",
   "self_type" : "_ZTIRKN7android9netdutils6StatusE",
   "size" : 8,
   "source_file" : "system/netd/libnetdutils/include/netdutils/Status.h"
  },
  {
   "alignment" : 8,
   "linker_set_key" : "_ZTIRKNSt3__112basic_stringIcNS_11char_traitsIcEENS_9allocatorIcEEEE",
   "name" : "const std::basic_string<char, std::char_traits<char>, std::allocator<char>> &",
   "referenced_type" : "_ZTIKNSt3__112basic_stringIcNS_11char_traitsIcEENS_9allocatorIcEEEE",
   "self_type" : "_ZTIRKNSt3__112basic_stringIcNS_11char_traitsIcEENS_9allocatorIcEEEE",
   "size" : 8,
   "source_file" : "external/fmtlib/include/fmt/format.h"
  },
  {
   "alignment" : 8,
   "linker_set_key" : "_ZTIRKPKv",
   "name" : "const void *const &",
   "referenced_type" : "_ZTIKPKv",
   "self_type" : "_ZTIRKPKv",
   "size" : 8,
   "source_file" : "external/fmtlib/include/fmt/format.h"
  },
  {
   "alignment" : 8,
   "linker_set_key" : "_ZTIRKw",
   "name" : "const wchar_t &",
   "referenced_type" : "_ZTIKw",
   "self_type" : "_ZTIRKw",
   "size" : 8,
   "source_file" : "external/fmtlib/include/fmt/core.h"
  },
  {
   "alignment" : 8,
   "linker_set_key" : "_ZTIRN3fmt2v712format_errorE",
   "name" : "fmt::format_error &",
   "referenced_type" : "_ZTIN3fmt2v712format_errorE",
   "self_type" : "_ZTIRN3fmt2v712format_errorE",
   "size" : 8,
   "source_file" : "external/fmtlib/include/fmt/format.h"
  },
  {
   "alignment" : 8,
   "linker_set_key" : "_ZTIRN3fmt2v712system_errorE",
   "name" : "fmt::system_error &",
   "referenced_type" : "_ZTIN3fmt2v712system_errorE",
   "self_type" : "_ZTIRN3fmt2v712system_errorE",
   "size" : 8,
   "source_file" : "external/fmtlib/include/fmt/format.h"
  },
  {
   "alignment" : 8,
   "linker_set_key" : "_ZTIRN3fmt2v76detail15uint128_wrapperE",
   "name" : "fmt::detail::uint128_wrapper &",
   "referenced_type" : "_ZTIN3fmt2v76detail15uint128_wrapperE",
   "self_type" : "_ZTIRN3fmt2v76detail15uint128_wrapperE",
   "size" : 8,
   "source_file" : "external/fmtlib/include/fmt/format.h"
  },
  {
   "alignment" : 8,
   "linker_set_key" : "_ZTIRN3fmt2v76detail17counting_iteratorE",
   "name" : "fmt::detail::counting_iterator &",
   "referenced_type" : "_ZTIN3fmt2v76detail17counting_iteratorE",
   "self_type" : "_ZTIRN3fmt2v76detail17counting_iteratorE",
   "size" : 8,
   "source_file" : "external/fmtlib/include/fmt/format.h"
  },
  {
   "alignment" : 8,
   "linker_set_key" : "_ZTIRN7android4base10unexpectedINS0_11ResultErrorEEE",
   "name" : "android::base::unexpected<android::base::ResultError> &",
   "referenced_type" : "_ZTIN7android4base10unexpectedINS0_11ResultErrorEEE",
   "self_type" : "_ZTIRN7android4base10unexpectedINS0_11ResultErrorEEE",
   "size" : 8,
   "source_file" : "system/libbase/include/android-base/expected.h"
  },
  {
   "alignment" : 8,
   "linker_set_key" : "_ZTIRN7android4base11ResultErrorE",
   "name" : "android::base::ResultError &",
   "referenced_type" : "_ZTIN7android4base11ResultErrorE",
   "self_type" : "_ZTIRN7android4base11ResultErrorE",
   "size" : 8,
   "source_file" : "system/libbase/include/android-base/expected.h"
  },
  {
   "alignment" : 8,
   "linker_set_key" : "_ZTIRN7android4base5ErrorE",
   "name" : "android::base::Error &",
   "referenced_type" : "_ZTIN7android4base5ErrorE",
   "self_type" : "_ZTIRN7android4base5ErrorE",
   "size" : 8,
   "source_file" : "system/libbase/include/android-base/result.h"
  },
  {
   "alignment" : 8,
   "linker_set_key" : "_ZTIRN7android4base8expectedIvNS0_11ResultErrorEEE",
   "name" : "android::base::expected<void, android::base::ResultError> &",
   "referenced_type" : "_ZTIN7android4base8expectedIvNS0_11ResultErrorEEE",
   "self_type" : "_ZTIRN7android4base8expectedIvNS0_11ResultErrorEEE",
   "size" : 8,
   "source_file" : "system/libbase/include/android-base/expected.h"
  },
  {
   "alignment" : 8,
   "linker_set_key" : "_ZTIRNSt3__113basic_ostreamIcNS_11char_traitsIcEEEE",
   "name" : "std::basic_ostream<char, std::char_traits<char>> &",
   "referenced_type" : "_ZTINSt3__113basic_ostreamIcNS_11char_traitsIcEEEE",
   "self_type" : "_ZTIRNSt3__113basic_ostreamIcNS_11char_traitsIcEEEE",
   "size" : 8,
   "source_file" : "system/libbase/include/android-base/result.h"
  },
  {
   "alignment" : 8,
   "linker_set_key" : "_ZTIRPKc",
   "name" : "const char *&",
   "referenced_type" : "_ZTIPKc",
   "self_type" : "_ZTIRPKc",
   "size" : 8,
   "source_file" : "external/fmtlib/include/fmt/format.h"
  }
 ],
 "pointer_types" :
 [
  {
   "alignment" : 8,
   "linker_set_key" : "_ZTIP7__sFILE",
   "name" : "__sFILE *",
   "referenced_type" : "_ZTI7__sFILE",
   "self_type" : "_ZTIP7__sFILE",
   "size" : 8,
   "source_file" : "external/fmtlib/include/fmt/core.h"
  },
  {
   "alignment" : 8,
   "linker_set_key" : "_ZTIPK2tm",
   "name" : "const tm *",
   "referenced_type" : "_ZTIK2tm",
   "self_type" : "_ZTIPK2tm",
   "size" : 8,
   "source_file" : "external/fmtlib/include/fmt/chrono.h"
  },
  {
   "alignment" : 8,
   "linker_set_key" : "_ZTIPKDu",
   "name" : "const char8_t *",
   "referenced_type" : "_ZTIKDu",
   "self_type" : "_ZTIPKDu",
   "size" : 8,
   "source_file" : "external/fmtlib/include/fmt/core.h"
  },
  {
   "alignment" : 8,
   "linker_set_key" : "_ZTIPKN3fmt2v710format_intE",
   "name" : "const fmt::format_int *",
   "referenced_type" : "_ZTIKN3fmt2v710format_intE",
   "self_type" : "_ZTIPKN3fmt2v710format_intE",
   "size" : 8,
   "source_file" : "external/fmtlib/include/fmt/format.h"
  },
  {
   "alignment" : 8,
   "linker_set_key" : "_ZTIPKN3fmt2v712system_errorE",
   "name" : "const fmt::system_error *",
   "referenced_type" : "_ZTIKN3fmt2v712system_errorE",
   "self_type" : "_ZTIPKN3fmt2v712system_errorE",
   "size" : 8,
   "source_file" : "external/fmtlib/include/fmt/format.h"
  },
  {
   "alignment" : 8,
   "linker_set_key" : "_ZTIPKN3fmt2v716basic_format_argINS0_20basic_format_contextINS0_6detail15buffer_appenderIcEEcEEEE",
   "name" : "const fmt::basic_format_arg<fmt::basic_format_context<fmt::detail::buffer_appender<char>, char>> *",
   "referenced_type" : "_ZTIKN3fmt2v716basic_format_argINS0_20basic_format_contextINS0_6detail15buffer_appenderIcEEcEEEE",
   "self_type" : "_ZTIPKN3fmt2v716basic_format_argINS0_20basic_format_contextINS0_6detail15buffer_appenderIcEEcEEEE",
   "size" : 8,
   "source_file" : "external/fmtlib/include/fmt/core.h"
  },
  {
   "alignment" : 8,
   "linker_set_key" : "_ZTIPKN3fmt2v716basic_format_argINS0_20basic_format_contextINS0_6detail15buffer_appenderIwEEwEEEE",
   "name" : "const fmt::basic_format_arg<fmt::basic_format_context<fmt::detail::buffer_appender<wchar_t>, wchar_t>> *",
   "referenced_type" : "_ZTIKN3fmt2v716basic_format_argINS0_20basic_format_contextINS0_6detail15buffer_appenderIwEEwEEEE",
   "self_type" : "_ZTIPKN3fmt2v716basic_format_argINS0_20basic_format_contextINS0_6detail15buffer_appenderIwEEwEEEE",
   "size" : 8,
   "source_file" : "external/fmtlib/include/fmt/core.h"
  },
  {
   "alignment" : 8,
   "linker_set_key" : "_ZTIPKN3fmt2v717basic_string_viewIDuEE",
   "name" : "const fmt::basic_string_view<char8_t> *",
   "referenced_type" : "_ZTIKN3fmt2v717basic_string_viewIDuEE",
   "self_type" : "_ZTIPKN3fmt2v717basic_string_viewIDuEE",
   "size" : 8,
   "source_file" : "external/fmtlib/include/fmt/core.h"
  },
  {
   "alignment" : 8,
   "linker_set_key" : "_ZTIPKN3fmt2v717basic_string_viewIcEE",
   "name" : "const fmt::basic_string_view<char> *",
   "referenced_type" : "_ZTIKN3fmt2v717basic_string_viewIcEE",
   "self_type" : "_ZTIPKN3fmt2v717basic_string_viewIcEE",
   "size" : 8,
   "source_file" : "external/fmtlib/include/fmt/core.h"
  },
  {
   "alignment" : 8,
   "linker_set_key" : "_ZTIPKN3fmt2v717basic_string_viewIwEE",
   "name" : "const fmt::basic_string_view<wchar_t> *",
   "referenced_type" : "_ZTIKN3fmt2v717basic_string_viewIwEE",
   "self_type" : "_ZTIPKN3fmt2v717basic_string_viewIwEE",
   "size" : 8,
   "source_file" : "external/fmtlib/include/fmt/core.h"
  },
  {
   "alignment" : 8,
   "linker_set_key" : "_ZTIPKN3fmt2v76detail10locale_refE",
   "name" : "const fmt::detail::locale_ref *",
   "referenced_type" : "_ZTIKN3fmt2v76detail10locale_refE",
   "self_type" : "_ZTIPKN3fmt2v76detail10locale_refE",
   "size" : 8,
   "source_file" : "external/fmtlib/include/fmt/core.h"
  },
  {
   "alignment" : 8,
   "linker_set_key" : "_ZTIPKN3fmt2v76detail13buffer_traitsE",
   "name" : "const fmt::detail::buffer_traits *",
   "referenced_type" : "_ZTIKN3fmt2v76detail13buffer_traitsE",
   "self_type" : "_ZTIPKN3fmt2v76detail13buffer_traitsE",
   "size" : 8,
   "source_file" : "external/fmtlib/include/fmt/core.h"
  },
  {
   "alignment" : 8,
   "linker_set_key" : "_ZTIPKN3fmt2v76detail13utf8_to_utf16E",
   "name" : "const fmt::detail::utf8_to_utf16 *",
   "referenced_type" : "_ZTIKN3fmt2v76detail13utf8_to_utf16E",
   "self_type" : "_ZTIPKN3fmt2v76detail13utf8_to_utf16E",
   "size" : 8,
   "source_file" : "external/fmtlib/include/fmt/format.h"
  },
  {
   "alignment" : 8,
   "linker_set_key" : "_ZTIPKN3fmt2v76detail15uint128_wrapperE",
   "name" : "const fmt::detail::uint128_wrapper *",
   "referenced_type" : "_ZTIKN3fmt2v76detail15uint128_wrapperE",
   "self_type" : "_ZTIPKN3fmt2v76detail15uint128_wrapperE",
   "size" : 8,
   "source_file" : "external/fmtlib/include/fmt/format.h"
  },
  {
   "alignment" : 8,
   "linker_set_key" : "_ZTIPKN3fmt2v76detail17counting_iteratorE",
   "name" : "const fmt::detail::counting_iterator *",
   "referenced_type" : "_ZTIKN3fmt2v76detail17counting_iteratorE",
   "self_type" : "_ZTIPKN3fmt2v76detail17counting_iteratorE",
   "size" : 8,
   "source_file" : "external/fmtlib/include/fmt/format.h"
  },
  {
   "alignment" : 8,
   "linker_set_key" : "_ZTIPKN3fmt2v76detail19fixed_buffer_traitsE",
   "name" : "const fmt::detail::fixed_buffer_traits *",
   "referenced_type" : "_ZTIKN3fmt2v76detail19fixed_buffer_traitsE",
   "self_type" : "_ZTIPKN3fmt2v76detail19fixed_buffer_traitsE",
   "size" : 8,
   "source_file" : "external/fmtlib/include/fmt/core.h"
  },
  {
   "alignment" : 8,
   "linker_set_key" : "_ZTIPKN3fmt2v76detail5valueINS0_20basic_format_contextINS1_15buffer_appenderIcEEcEEEE",
   "name" : "const fmt::detail::value<fmt::basic_format_context<fmt::detail::buffer_appender<char>, char>> *",
   "referenced_type" : "_ZTIKN3fmt2v76detail5valueINS0_20basic_format_contextINS1_15buffer_appenderIcEEcEEEE",
   "self_type" : "_ZTIPKN3fmt2v76detail5valueINS0_20basic_format_contextINS1_15buffer_appenderIcEEcEEEE",
   "size" : 8,
   "source_file" : "external/fmtlib/include/fmt/core.h"
  },
  {
   "alignment" : 8,
   "linker_set_key" : "_ZTIPKN3fmt2v76detail5valueINS0_20basic_format_contextINS1_15buffer_appenderIwEEwEEEE",
   "name" : "const fmt::detail::value<fmt::basic_format_context<fmt::detail::buffer_appender<wchar_t>, wchar_t>> *",
   "referenced_type" : "_ZTIKN3fmt2v76detail5valueINS0_20basic_format_contextINS1_15buffer_appenderIwEEwEEEE",
   "self_type" : "_ZTIPKN3fmt2v76detail5valueINS0_20basic_format_contextINS1_15buffer_appenderIwEEwEEEE",
   "size" : 8,
   "source_file" : "external/fmtlib/include/fmt/core.h"
  },
  {
   "alignment" : 8,
   "linker_set_key" : "_ZTIPKN3fmt2v76detail6bufferIwEE",
   "name" : "const fmt::detail::buffer<wchar_t> *",
   "referenced_type" : "_ZTIKN3fmt2v76detail6bufferIwEE",
   "self_type" : "_ZTIPKN3fmt2v76detail6bufferIwEE",
   "size" : 8,
   "source_file" : "external/fmtlib/include/fmt/core.h"
  },
  {
   "alignment" : 8,
   "linker_set_key" : "_ZTIPKN7android4base11ResultErrorE",
   "name" : "const android::base::ResultError *",
   "referenced_type" : "_ZTIKN7android4base11ResultErrorE",
   "self_type" : "_ZTIPKN7android4base11ResultErrorE",
   "size" : 8,
   "source_file" : "system/libbase/include/android-base/result.h"
  },
  {
   "alignment" : 8,
   "linker_set_key" : "_ZTIPKN7android4base5ErrorE",
   "name" : "const android::base::Error *",
   "referenced_type" : "_ZTIKN7android4base5ErrorE",
   "self_type" : "_ZTIPKN7android4base5ErrorE",
   "size" : 8,
   "source_file" : "system/libbase/include/android-base/result.h"
  },
  {
   "alignment" : 8,
   "linker_set_key" : "_ZTIPKN7android4base8expectedIvNS0_11ResultErrorEEE",
   "name" : "const android::base::expected<void, android::base::ResultError> *",
   "referenced_type" : "_ZTIKN7android4base8expectedIvNS0_11ResultErrorEEE",
   "self_type" : "_ZTIPKN7android4base8expectedIvNS0_11ResultErrorEEE",
   "size" : 8,
   "source_file" : "system/libbase/include/android-base/expected.h"
  },
  {
   "alignment" : 8,
   "linker_set_key" : "_ZTIPKN7android9netdutils2FdE",
   "name" : "const android::netdutils::Fd *",
   "referenced_type" : "_ZTIKN7android9netdutils2FdE",
   "self_type" : "_ZTIPKN7android9netdutils2FdE",
   "size" : 8,
   "source_file" : "system/netd/libnetdutils/include/netdutils/Fd.h"
  },
  {
   "alignment" : 8,
   "linker_set_key" : "_ZTIPKN7android9netdutils6StatusE",
   "name" : "const android::netdutils::Status *",
   "referenced_type" : "_ZTIKN7android9netdutils6StatusE",
   "self_type" : "_ZTIPKN7android9netdutils6StatusE",
   "size" : 8,
   "source_file" : "system/netd/libnetdutils/include/netdutils/Status.h"
  },
  {
   "alignment" : 8,
   "linker_set_key" : "_ZTIPKc",
   "name" : "const char *",
   "referenced_type" : "_ZTIKc",
   "self_type" : "_ZTIPKc",
   "size" : 8,
   "source_file" : "external/fmtlib/include/fmt/core.h"
  },
  {
   "alignment" : 8,
   "linker_set_key" : "_ZTIPKv",
   "name" : "const void *",
   "referenced_type" : "_ZTIKv",
   "self_type" : "_ZTIPKv",
   "size" : 8,
   "source_file" : "external/fmtlib/include/fmt/core.h"
  },
  {
   "alignment" : 8,
   "linker_set_key" : "_ZTIPKw",
   "name" : "const wchar_t *",
   "referenced_type" : "_ZTIKw",
   "self_type" : "_ZTIPKw",
   "size" : 8,
   "source_file" : "external/fmtlib/include/fmt/core.h"
  },
  {
   "alignment" : 8,
   "linker_set_key" : "_ZTIPN3fmt2v710format_intE",
   "name" : "fmt::format_int *",
   "referenced_type" : "_ZTIN3fmt2v710format_intE",
   "self_type" : "_ZTIPN3fmt2v710format_intE",
   "size" : 8,
   "source_file" : "external/fmtlib/include/fmt/format.h"
  },
  {
   "alignment" : 8,
   "linker_set_key" : "_ZTIPN3fmt2v712format_errorE",
   "name" : "fmt::format_error *",
   "referenced_type" : "_ZTIN3fmt2v712format_errorE",
   "self_type" : "_ZTIPN3fmt2v712format_errorE",
   "size" : 8,
   "source_file" : "external/fmtlib/include/fmt/format.h"
  },
  {
   "alignment" : 8,
   "linker_set_key" : "_ZTIPN3fmt2v712system_errorE",
   "name" : "fmt::system_error *",
   "referenced_type" : "_ZTIN3fmt2v712system_errorE",
   "self_type" : "_ZTIPN3fmt2v712system_errorE",
   "size" : 8,
   "source_file" : "external/fmtlib/include/fmt/format.h"
  },
  {
   "alignment" : 8,
   "linker_set_key" : "_ZTIPN3fmt2v717basic_string_viewIcEE",
   "name" : "fmt::basic_string_view<char> *",
   "referenced_type" : "_ZTIN3fmt2v717basic_string_viewIcEE",
   "self_type" : "_ZTIPN3fmt2v717basic_string_viewIcEE",
   "size" : 8,
   "source_file" : "external/fmtlib/include/fmt/core.h"
  },
  {
   "alignment" : 8,
   "linker_set_key" : "_ZTIPN3fmt2v717basic_string_viewIwEE",
   "name" : "fmt::basic_string_view<wchar_t> *",
   "referenced_type" : "_ZTIN3fmt2v717basic_string_viewIwEE",
   "self_type" : "_ZTIPN3fmt2v717basic_string_viewIwEE",
   "size" : 8,
   "source_file" : "external/fmtlib/include/fmt/core.h"
  },
  {
   "alignment" : 8,
   "linker_set_key" : "_ZTIPN3fmt2v75bytesE",
   "name" : "fmt::bytes *",
   "referenced_type" : "_ZTIN3fmt2v75bytesE",
   "self_type" : "_ZTIPN3fmt2v75bytesE",
   "size" : 8,
   "source_file" : "external/fmtlib/include/fmt/format.h"
  },
  {
   "alignment" : 8,
   "linker_set_key" : "_ZTIPN3fmt2v76detail10locale_refE",
   "name" : "fmt::detail::locale_ref *",
   "referenced_type" : "_ZTIN3fmt2v76detail10locale_refE",
   "self_type" : "_ZTIPN3fmt2v76detail10locale_refE",
   "size" : 8,
   "source_file" : "external/fmtlib/include/fmt/core.h"
  },
  {
   "alignment" : 8,
   "linker_set_key" : "_ZTIPN3fmt2v76detail13buffer_traitsE",
   "name" : "fmt::detail::buffer_traits *",
   "referenced_type" : "_ZTIN3fmt2v76detail13buffer_traitsE",
   "self_type" : "_ZTIPN3fmt2v76detail13buffer_traitsE",
   "size" : 8,
   "source_file" : "external/fmtlib/include/fmt/core.h"
  },
  {
   "alignment" : 8,
   "linker_set_key" : "_ZTIPN3fmt2v76detail13error_handlerE",
   "name" : "fmt::detail::error_handler *",
   "referenced_type" : "_ZTIN3fmt2v76detail13error_handlerE",
   "self_type" : "_ZTIPN3fmt2v76detail13error_handlerE",
   "size" : 8,
   "source_file" : "external/fmtlib/include/fmt/core.h"
  },
  {
   "alignment" : 8,
   "linker_set_key" : "_ZTIPN3fmt2v76detail15uint128_wrapperE",
   "name" : "fmt::detail::uint128_wrapper *",
   "referenced_type" : "_ZTIN3fmt2v76detail15uint128_wrapperE",
   "self_type" : "_ZTIPN3fmt2v76detail15uint128_wrapperE",
   "size" : 8,
   "source_file" : "external/fmtlib/include/fmt/format.h"
  },
  {
   "alignment" : 8,
   "linker_set_key" : "_ZTIPN3fmt2v76detail16dynamic_arg_list4nodeIvEE",
   "name" : "fmt::detail::dynamic_arg_list::node<void> *",
   "referenced_type" : "_ZTIN3fmt2v76detail16dynamic_arg_list4nodeIvEE",
   "self_type" : "_ZTIPN3fmt2v76detail16dynamic_arg_list4nodeIvEE",
   "size" : 8,
   "source_file" : "external/fmtlib/include/fmt/core.h"
  },
  {
   "alignment" : 8,
   "linker_set_key" : "_ZTIPN3fmt2v76detail16fallback_uintptrE",
   "name" : "fmt::detail::fallback_uintptr *",
   "referenced_type" : "_ZTIN3fmt2v76detail16fallback_uintptrE",
   "self_type" : "_ZTIPN3fmt2v76detail16fallback_uintptrE",
   "size" : 8,
   "source_file" : "external/fmtlib/include/fmt/format.h"
  },
  {
   "alignment" : 8,
   "linker_set_key" : "_ZTIPN3fmt2v76detail17counting_iteratorE",
   "name" : "fmt::detail::counting_iterator *",
   "referenced_type" : "_ZTIN3fmt2v76detail17counting_iteratorE",
   "self_type" : "_ZTIPN3fmt2v76detail17counting_iteratorE",
   "size" : 8,
   "source_file" : "external/fmtlib/include/fmt/format.h"
  },
  {
   "alignment" : 8,
   "linker_set_key" : "_ZTIPN3fmt2v76detail19fixed_buffer_traitsE",
   "name" : "fmt::detail::fixed_buffer_traits *",
   "referenced_type" : "_ZTIN3fmt2v76detail19fixed_buffer_traitsE",
   "self_type" : "_ZTIPN3fmt2v76detail19fixed_buffer_traitsE",
   "size" : 8,
   "source_file" : "external/fmtlib/include/fmt/core.h"
  },
  {
   "alignment" : 8,
   "linker_set_key" : "_ZTIPN3fmt2v76detail21chrono_format_checkerE",
   "name" : "fmt::detail::chrono_format_checker *",
   "referenced_type" : "_ZTIN3fmt2v76detail21chrono_format_checkerE",
   "self_type" : "_ZTIPN3fmt2v76detail21chrono_format_checkerE",
   "size" : 8,
   "source_file" : "external/fmtlib/include/fmt/chrono.h"
  },
  {
   "alignment" : 8,
   "linker_set_key" : "_ZTIPN3fmt2v76detail6bufferIcEE",
   "name" : "fmt::detail::buffer<char> *",
   "referenced_type" : "_ZTIN3fmt2v76detail6bufferIcEE",
   "self_type" : "_ZTIPN3fmt2v76detail6bufferIcEE",
   "size" : 8,
   "source_file" : "external/fmtlib/include/fmt/core.h"
  },
  {
   "alignment" : 8,
   "linker_set_key" : "_ZTIPN3fmt2v76detail6bufferIwEE",
   "name" : "fmt::detail::buffer<wchar_t> *",
   "referenced_type" : "_ZTIN3fmt2v76detail6bufferIwEE",
   "self_type" : "_ZTIPN3fmt2v76detail6bufferIwEE",
   "size" : 8,
   "source_file" : "external/fmtlib/include/fmt/core.h"
  },
  {
   "alignment" : 8,
   "linker_set_key" : "_ZTIPN7android4base10unexpect_tE",
   "name" : "android::base::unexpect_t *",
   "referenced_type" : "_ZTIN7android4base10unexpect_tE",
   "self_type" : "_ZTIPN7android4base10unexpect_tE",
   "size" : 8,
   "source_file" : "system/libbase/include/android-base/expected.h"
  },
  {
   "alignment" : 8,
   "linker_set_key" : "_ZTIPN7android4base10unexpectedINS0_11ResultErrorEEE",
   "name" : "android::base::unexpected<android::base::ResultError> *",
   "referenced_type" : "_ZTIN7android4base10unexpectedINS0_11ResultErrorEEE",
   "self_type" : "_ZTIPN7android4base10unexpectedINS0_11ResultErrorEEE",
   "size" : 8,
   "source_file" : "system/libbase/include/android-base/expected.h"
  },
  {
   "alignment" : 8,
   "linker_set_key" : "_ZTIPN7android4base5ErrorE",
   "name" : "android::base::Error *",
   "referenced_type" : "_ZTIN7android4base5ErrorE",
   "self_type" : "_ZTIPN7android4base5ErrorE",
   "size" : 8,
   "source_file" : "system/libbase/include/android-base/result.h"
  },
  {
   "alignment" : 8,
   "linker_set_key" : "_ZTIPN7android4base8expectedIvNS0_11ResultErrorEEE",
   "name" : "android::base::expected<void, android::base::ResultError> *",
   "referenced_type" : "_ZTIN7android4base8expectedIvNS0_11ResultErrorEEE",
   "self_type" : "_ZTIPN7android4base8expectedIvNS0_11ResultErrorEEE",
   "size" : 8,
   "source_file" : "system/libbase/include/android-base/expected.h"
  },
  {
   "alignment" : 8,
   "linker_set_key" : "_ZTIPN7android9netdutils2FdE",
   "name" : "android::netdutils::Fd *",
   "referenced_type" : "_ZTIN7android9netdutils2FdE",
   "self_type" : "_ZTIPN7android9netdutils2FdE",
   "size" : 8,
   "source_file" : "system/netd/libnetdutils/include/netdutils/Fd.h"
  },
  {
   "alignment" : 8,
   "linker_set_key" : "_ZTIPN7android9netdutils6StatusE",
   "name" : "android::netdutils::Status *",
   "referenced_type" : "_ZTIN7android9netdutils6StatusE",
   "self_type" : "_ZTIPN7android9netdutils6StatusE",
   "size" : 8,
   "source_file" : "system/netd/libnetdutils/include/netdutils/Status.h"
  },
  {
   "alignment" : 8,
   "linker_set_key" : "_ZTIPc",
   "name" : "char *",
   "referenced_type" : "_ZTIc",
   "self_type" : "_ZTIPc",
   "size" : 8,
   "source_file" : "external/fmtlib/include/fmt/core.h"
  },
  {
   "alignment" : 8,
   "linker_set_key" : "_ZTIPw",
   "name" : "wchar_t *",
   "referenced_type" : "_ZTIw",
   "self_type" : "_ZTIPw",
   "size" : 8,
   "source_file" : "external/fmtlib/include/fmt/core.h"
  }
 ],
 "qualified_types" :
 [
  {
   "alignment" : 1,
   "is_const" : true,
   "linker_set_key" : "_ZTIA3_Kh",
   "name" : "unsigned char const[3]",
   "referenced_type" : "_ZTIA3_h",
   "self_type" : "_ZTIA3_Kh",
   "size" : 3,
   "source_file" : "external/fmtlib/include/fmt/core.h"
  },
  {
   "alignment" : 1,
   "is_const" : true,
   "linker_set_key" : "_ZTIA5_Kc",
   "name" : "char const[5]",
   "referenced_type" : "_ZTIA5_c",
   "self_type" : "_ZTIA5_Kc",
   "size" : 5,
   "source_file" : "external/fmtlib/include/fmt/format.h"
  },
  {
   "alignment" : 4,
   "is_const" : true,
   "linker_set_key" : "_ZTIA5_Kw",
   "name" : "wchar_t const[5]",
   "referenced_type" : "_ZTIA5_w",
   "self_type" : "_ZTIA5_Kw",
   "size" : 20,
   "source_file" : "external/fmtlib/include/fmt/format.h"
  },
  {
   "alignment" : 2,
   "is_const" : true,
   "linker_set_key" : "_ZTIA64_Kt",
   "name" : "unsigned short const[64]",
   "referenced_type" : "_ZTIA64_t",
   "self_type" : "_ZTIA64_Kt",
   "size" : 128,
   "source_file" : "external/fmtlib/include/fmt/format.h"
  },
  {
   "is_const" : true,
   "linker_set_key" : "_ZTIA_A2_Kc",
   "name" : "char const[][2]",
   "referenced_type" : "_ZTIA_A2_c",
   "self_type" : "_ZTIA_A2_Kc",
   "source_file" : "external/fmtlib/include/fmt/format.h"
  },
  {
   "is_const" : true,
   "linker_set_key" : "_ZTIA_KN3fmt2v76detail15uint128_wrapperE",
   "name" : "fmt::v7::detail::uint128_wrapper const[]",
   "referenced_type" : "_ZTIA_N3fmt2v76detail15uint128_wrapperE",
   "self_type" : "_ZTIA_KN3fmt2v76detail15uint128_wrapperE",
   "source_file" : "external/fmtlib/include/fmt/format.h"
  },
  {
   "is_const" : true,
   "linker_set_key" : "_ZTIA_KN3fmt2v76detail19divtest_table_entryIjEE",
   "name" : "fmt::v7::detail::divtest_table_entry<unsigned int> const[]",
   "referenced_type" : "_ZTIA_N3fmt2v76detail19divtest_table_entryIjEE",
   "self_type" : "_ZTIA_KN3fmt2v76detail19divtest_table_entryIjEE",
   "source_file" : "external/fmtlib/include/fmt/format.h"
  },
  {
   "is_const" : true,
   "linker_set_key" : "_ZTIA_KN3fmt2v76detail19divtest_table_entryImEE",
   "name" : "fmt::v7::detail::divtest_table_entry<unsigned long> const[]",
   "referenced_type" : "_ZTIA_N3fmt2v76detail19divtest_table_entryImEE",
   "self_type" : "_ZTIA_KN3fmt2v76detail19divtest_table_entryImEE",
   "source_file" : "external/fmtlib/include/fmt/format.h"
  },
  {
   "is_const" : true,
   "linker_set_key" : "_ZTIA_Kc",
   "name" : "char const[]",
   "referenced_type" : "_ZTIA_c",
   "self_type" : "_ZTIA_Kc",
   "source_file" : "external/fmtlib/include/fmt/format.h"
  },
  {
   "is_const" : true,
   "linker_set_key" : "_ZTIA_Kj",
   "name" : "unsigned int const[]",
   "referenced_type" : "_ZTIA_j",
   "self_type" : "_ZTIA_Kj",
   "source_file" : "external/fmtlib/include/fmt/format.h"
  },
  {
   "is_const" : true,
   "linker_set_key" : "_ZTIA_Km",
   "name" : "unsigned long const[]",
   "referenced_type" : "_ZTIA_m",
   "self_type" : "_ZTIA_Km",
   "source_file" : "external/fmtlib/include/fmt/format.h"
  },
  {
   "is_const" : true,
   "linker_set_key" : "_ZTIA_Ks",
   "name" : "short const[]",
   "referenced_type" : "_ZTIA_s",
   "self_type" : "_ZTIA_Ks",
   "source_file" : "external/fmtlib/include/fmt/format.h"
  },
  {
   "alignment" : 8,
   "is_const" : true,
   "linker_set_key" : "_ZTIK2tm",
   "name" : "const tm",
   "referenced_type" : "_ZTI2tm",
   "self_type" : "_ZTIK2tm",
   "size" : 56,
   "source_file" : "external/fmtlib/include/fmt/chrono.h"
  },
  {
   "alignment" : 1,
   "is_const" : true,
   "linker_set_key" : "_ZTIKDu",
   "name" : "const char8_t",
   "referenced_type" : "_ZTIDu",
   "self_type" : "_ZTIKDu",
   "size" : 1,
   "source_file" : "external/fmtlib/include/fmt/core.h"
  },
  {
   "alignment" : 8,
   "is_const" : true,
   "linker_set_key" : "_ZTIKN3fmt2v710format_intE",
   "name" : "const fmt::format_int",
   "referenced_type" : "_ZTIN3fmt2v710format_intE",
   "self_type" : "_ZTIKN3fmt2v710format_intE",
   "size" : 32,
   "source_file" : "external/fmtlib/include/fmt/format.h"
  },
  {
   "alignment" : 8,
   "is_const" : true,
   "linker_set_key" : "_ZTIKN3fmt2v712format_errorE",
   "name" : "const fmt::format_error",
   "referenced_type" : "_ZTIN3fmt2v712format_errorE",
   "self_type" : "_ZTIKN3fmt2v712format_errorE",
   "size" : 16,
   "source_file" : "external/fmtlib/include/fmt/format.h"
  },
  {
   "alignment" : 8,
   "is_const" : true,
   "linker_set_key" : "_ZTIKN3fmt2v712system_errorE",
   "name" : "const fmt::system_error",
   "referenced_type" : "_ZTIN3fmt2v712system_errorE",
   "self_type" : "_ZTIKN3fmt2v712system_errorE",
   "size" : 24,
   "source_file" : "external/fmtlib/include/fmt/format.h"
  },
  {
   "is_const" : true,
   "linker_set_key" : "_ZTIKN3fmt2v716basic_format_argINS0_20basic_format_contextINS0_6detail15buffer_appenderIcEEcEEEE",
   "name" : "const fmt::basic_format_arg<fmt::basic_format_context<fmt::detail::buffer_appender<char>, char>>",
   "referenced_type" : "_ZTIN3fmt2v716basic_format_argINS0_20basic_format_contextINS0_6detail15buffer_appenderIcEEcEEEE",
   "self_type" : "_ZTIKN3fmt2v716basic_format_argINS0_20basic_format_contextINS0_6detail15buffer_appenderIcEEcEEEE",
   "source_file" : "external/fmtlib/include/fmt/core.h"
  },
  {
   "is_const" : true,
   "linker_set_key" : "_ZTIKN3fmt2v716basic_format_argINS0_20basic_format_contextINS0_6detail15buffer_appenderIwEEwEEEE",
   "name" : "const fmt::basic_format_arg<fmt::basic_format_context<fmt::detail::buffer_appender<wchar_t>, wchar_t>>",
   "referenced_type" : "_ZTIN3fmt2v716basic_format_argINS0_20basic_format_contextINS0_6detail15buffer_appenderIwEEwEEEE",
   "self_type" : "_ZTIKN3fmt2v716basic_format_argINS0_20basic_format_contextINS0_6detail15buffer_appenderIwEEwEEEE",
   "source_file" : "external/fmtlib/include/fmt/core.h"
  },
  {
   "alignment" : 8,
   "is_const" : true,
   "linker_set_key" : "_ZTIKN3fmt2v717basic_string_viewIDuEE",
   "name" : "const fmt::basic_string_view<char8_t>",
   "referenced_type" : "_ZTIN3fmt2v717basic_string_viewIDuEE",
   "self_type" : "_ZTIKN3fmt2v717basic_string_viewIDuEE",
   "size" : 16,
   "source_file" : "external/fmtlib/include/fmt/core.h"
  },
  {
   "alignment" : 8,
   "is_const" : true,
   "linker_set_key" : "_ZTIKN3fmt2v717basic_string_viewIcEE",
   "name" : "const fmt::basic_string_view<char>",
   "referenced_type" : "_ZTIN3fmt2v717basic_string_viewIcEE",
   "self_type" : "_ZTIKN3fmt2v717basic_string_viewIcEE",
   "size" : 16,
   "source_file" : "external/fmtlib/include/fmt/core.h"
  },
  {
   "alignment" : 8,
   "is_const" : true,
   "linker_set_key" : "_ZTIKN3fmt2v717basic_string_viewIwEE",
   "name" : "const fmt::basic_string_view<wchar_t>",
   "referenced_type" : "_ZTIN3fmt2v717basic_string_viewIwEE",
   "self_type" : "_ZTIKN3fmt2v717basic_string_viewIwEE",
   "size" : 16,
   "source_file" : "external/fmtlib/include/fmt/core.h"
  },
  {
   "alignment" : 8,
   "is_const" : true,
   "linker_set_key" : "_ZTIKN3fmt2v76detail10locale_refE",
   "name" : "const fmt::detail::locale_ref",
   "referenced_type" : "_ZTIN3fmt2v76detail10locale_refE",
   "self_type" : "_ZTIKN3fmt2v76detail10locale_refE",
   "size" : 8,
   "source_file" : "external/fmtlib/include/fmt/core.h"
  },
  {
   "alignment" : 1,
   "is_const" : true,
   "linker_set_key" : "_ZTIKN3fmt2v76detail13buffer_traitsE",
   "name" : "const fmt::detail::buffer_traits",
   "referenced_type" : "_ZTIN3fmt2v76detail13buffer_traitsE",
   "self_type" : "_ZTIKN3fmt2v76detail13buffer_traitsE",
   "size" : 1,
   "source_file" : "external/fmtlib/include/fmt/core.h"
  },
  {
   "alignment" : 1,
   "is_const" : true,
   "linker_set_key" : "_ZTIKN3fmt2v76detail13error_handlerE",
   "name" : "const fmt::detail::error_handler",
   "referenced_type" : "_ZTIN3fmt2v76detail13error_handlerE",
   "self_type" : "_ZTIKN3fmt2v76detail13error_handlerE",
   "size" : 1,
   "source_file" : "external/fmtlib/include/fmt/core.h"
  },
  {
   "alignment" : 8,
   "is_const" : true,
   "linker_set_key" : "_ZTIKN3fmt2v76detail13utf8_to_utf16E",
   "name" : "const fmt::detail::utf8_to_utf16",
   "referenced_type" : "_ZTIN3fmt2v76detail13utf8_to_utf16E",
   "self_type" : "_ZTIKN3fmt2v76detail13utf8_to_utf16E",
   "size" : 2040,
   "source_file" : "external/fmtlib/include/fmt/format.h"
  },
  {
   "alignment" : 8,
   "is_const" : true,
   "linker_set_key" : "_ZTIKN3fmt2v76detail14big_decimal_fpE",
   "name" : "const fmt::detail::big_decimal_fp",
   "referenced_type" : "_ZTIN3fmt2v76detail14big_decimal_fpE",
   "self_type" : "_ZTIKN3fmt2v76detail14big_decimal_fpE",
   "size" : 16,
   "source_file" : "external/fmtlib/include/fmt/format.h"
  },
  {
   "alignment" : 16,
   "is_const" : true,
   "linker_set_key" : "_ZTIKN3fmt2v76detail15uint128_wrapperE",
   "name" : "const fmt::detail::uint128_wrapper",
   "referenced_type" : "_ZTIN3fmt2v76detail15uint128_wrapperE",
   "self_type" : "_ZTIKN3fmt2v76detail15uint128_wrapperE",
   "size" : 16,
   "source_file" : "external/fmtlib/include/fmt/format.h"
  },
  {
   "alignment" : 8,
   "is_const" : true,
   "linker_set_key" : "_ZTIKN3fmt2v76detail17counting_iteratorE",
   "name" : "const fmt::detail::counting_iterator",
   "referenced_type" : "_ZTIN3fmt2v76detail17counting_iteratorE",
   "self_type" : "_ZTIKN3fmt2v76detail17counting_iteratorE",
   "size" : 8,
   "source_file" : "external/fmtlib/include/fmt/format.h"
  },
  {
   "alignment" : 8,
   "is_const" : true,
   "linker_set_key" : "_ZTIKN3fmt2v76detail19fixed_buffer_traitsE",
   "name" : "const fmt::detail::fixed_buffer_traits",
   "referenced_type" : "_ZTIN3fmt2v76detail19fixed_buffer_traitsE",
   "self_type" : "_ZTIKN3fmt2v76detail19fixed_buffer_traitsE",
   "size" : 16,
   "source_file" : "external/fmtlib/include/fmt/core.h"
  },
  {
   "alignment" : 4,
   "is_const" : true,
   "linker_set_key" : "_ZTIKN3fmt2v76detail4typeE",
   "name" : "const fmt::detail::type",
   "referenced_type" : "_ZTIN3fmt2v76detail4typeE",
   "self_type" : "_ZTIKN3fmt2v76detail4typeE",
   "size" : 4,
   "source_file" : "external/fmtlib/include/fmt/core.h"
  },
  {
   "is_const" : true,
   "linker_set_key" : "_ZTIKN3fmt2v76detail5valueINS0_20basic_format_contextINS1_15buffer_appenderIcEEcEEEE",
   "name" : "const fmt::detail::value<fmt::basic_format_context<fmt::detail::buffer_appender<char>, char>>",
   "referenced_type" : "_ZTIN3fmt2v76detail5valueINS0_20basic_format_contextINS1_15buffer_appenderIcEEcEEEE",
   "self_type" : "_ZTIKN3fmt2v76detail5valueINS0_20basic_format_contextINS1_15buffer_appenderIcEEcEEEE",
   "source_file" : "external/fmtlib/include/fmt/core.h"
  },
  {
   "is_const" : true,
   "linker_set_key" : "_ZTIKN3fmt2v76detail5valueINS0_20basic_format_contextINS1_15buffer_appenderIwEEwEEEE",
   "name" : "const fmt::detail::value<fmt::basic_format_context<fmt::detail::buffer_appender<wchar_t>, wchar_t>>",
   "referenced_type" : "_ZTIN3fmt2v76detail5valueINS0_20basic_format_contextINS1_15buffer_appenderIwEEwEEEE",
   "self_type" : "_ZTIKN3fmt2v76detail5valueINS0_20basic_format_contextINS1_15buffer_appenderIwEEwEEEE",
   "source_file" : "external/fmtlib/include/fmt/core.h"
  },
  {
   "alignment" : 8,
   "is_const" : true,
   "linker_set_key" : "_ZTIKN3fmt2v76detail6bufferIwEE",
   "name" : "const fmt::detail::buffer<wchar_t>",
   "referenced_type" : "_ZTIN3fmt2v76detail6bufferIwEE",
   "self_type" : "_ZTIKN3fmt2v76detail6bufferIwEE",
   "size" : 32,
   "source_file" : "external/fmtlib/include/fmt/core.h"
  },
  {
   "alignment" : 1,
   "is_const" : true,
   "linker_set_key" : "_ZTIKN7android4base10unexpect_tE",
   "name" : "const android::base::unexpect_t",
   "referenced_type" : "_ZTIN7android4base10unexpect_tE",
   "self_type" : "_ZTIKN7android4base10unexpect_tE",
   "size" : 1,
   "source_file" : "system/libbase/include/android-base/expected.h"
  },
  {
   "alignment" : 8,
   "is_const" : true,
   "linker_set_key" : "_ZTIKN7android4base10unexpectedINS0_11ResultErrorEEE",
   "name" : "const android::base::unexpected<android::base::ResultError>",
   "referenced_type" : "_ZTIN7android4base10unexpectedINS0_11ResultErrorEEE",
   "self_type" : "_ZTIKN7android4base10unexpectedINS0_11ResultErrorEEE",
   "size" : 32,
   "source_file" : "system/libbase/include/android-base/expected.h"
  },
  {
   "alignment" : 8,
   "is_const" : true,
   "linker_set_key" : "_ZTIKN7android4base11ResultErrorE",
   "name" : "const android::base::ResultError",
   "referenced_type" : "_ZTIN7android4base11ResultErrorE",
   "self_type" : "_ZTIKN7android4base11ResultErrorE",
   "size" : 32,
   "source_file" : "system/libbase/include/android-base/result.h"
  },
  {
   "alignment" : 8,
   "is_const" : true,
   "linker_set_key" : "_ZTIKN7android4base5ErrorE",
   "name" : "const android::base::Error",
   "referenced_type" : "_ZTIN7android4base5ErrorE",
   "self_type" : "_ZTIKN7android4base5ErrorE",
   "size" : 288,
   "source_file" : "system/libbase/include/android-base/result.h"
  },
  {
   "alignment" : 8,
   "is_const" : true,
   "linker_set_key" : "_ZTIKN7android4base8expectedIvNS0_11ResultErrorEEE",
   "name" : "const android::base::expected<void, android::base::ResultError>",
   "referenced_type" : "_ZTIN7android4base8expectedIvNS0_11ResultErrorEEE",
   "self_type" : "_ZTIKN7android4base8expectedIvNS0_11ResultErrorEEE",
   "size" : 40,
   "source_file" : "system/libbase/include/android-base/expected.h"
  },
  {
   "alignment" : 4,
   "is_const" : true,
   "linker_set_key" : "_ZTIKN7android9netdutils2FdE",
   "name" : "const android::netdutils::Fd",
   "referenced_type" : "_ZTIN7android9netdutils2FdE",
   "self_type" : "_ZTIKN7android9netdutils2FdE",
   "size" : 4,
   "source_file" : "system/netd/libnetdutils/include/netdutils/Fd.h"
  },
  {
   "alignment" : 8,
   "is_const" : true,
   "linker_set_key" : "_ZTIKN7android9netdutils6StatusE",
   "name" : "const android::netdutils::Status",
   "referenced_type" : "_ZTIN7android9netdutils6StatusE",
   "self_type" : "_ZTIKN7android9netdutils6StatusE",
   "size" : 32,
   "source_file" : "system/netd/libnetdutils/include/netdutils/Status.h"
  },
  {
   "alignment" : 8,
   "is_const" : true,
   "linker_set_key" : "_ZTIKNSt3__112basic_stringIcNS_11char_traitsIcEENS_9allocatorIcEEEE",
   "name" : "const std::basic_string<char, std::char_traits<char>, std::allocator<char>>",
   "referenced_type" : "_ZTINSt3__112basic_stringIcNS_11char_traitsIcEENS_9allocatorIcEEEE",
   "self_type" : "_ZTIKNSt3__112basic_stringIcNS_11char_traitsIcEENS_9allocatorIcEEEE",
   "size" : 24,
   "source_file" : "external/fmtlib/include/fmt/format.h"
  },
  {
   "alignment" : 8,
   "is_const" : true,
   "linker_set_key" : "_ZTIKPKv",
   "name" : "const void *const",
   "referenced_type" : "_ZTIPKv",
   "self_type" : "_ZTIKPKv",
   "size" : 8,
   "source_file" : "external/fmtlib/include/fmt/format.h"
  },
  {
   "alignment" : 1,
   "is_const" : true,
   "linker_set_key" : "_ZTIKb",
   "name" : "const bool",
   "referenced_type" : "_ZTIb",
   "self_type" : "_ZTIKb",
   "size" : 1,
   "source_file" : "external/fmtlib/include/fmt/core.h"
  },
  {
   "alignment" : 1,
   "is_const" : true,
   "linker_set_key" : "_ZTIKc",
   "name" : "const char",
   "referenced_type" : "_ZTIc",
   "self_type" : "_ZTIKc",
   "size" : 1,
   "source_file" : "external/fmtlib/include/fmt/core.h"
  },
  {
   "alignment" : 4,
   "is_const" : true,
   "linker_set_key" : "_ZTIKi",
   "name" : "const int",
   "referenced_type" : "_ZTIi",
   "self_type" : "_ZTIKi",
   "size" : 4,
   "source_file" : "external/fmtlib/include/fmt/format.h"
  },
  {
   "alignment" : 8,
   "is_const" : true,
   "linker_set_key" : "_ZTIKm",
   "name" : "const unsigned long",
   "referenced_type" : "_ZTIm",
   "self_type" : "_ZTIKm",
   "size" : 8,
   "source_file" : "external/fmtlib/include/fmt/core.h"
  },
  {
   "is_const" : true,
   "linker_set_key" : "_ZTIKv",
   "name" : "const void",
   "referenced_type" : "_ZTIv",
   "self_type" : "_ZTIKv",
   "source_file" : "external/fmtlib/include/fmt/core.h"
  },
  {
   "alignment" : 4,
   "is_const" : true,
   "linker_set_key" : "_ZTIKw",
   "name" : "const wchar_t",
   "referenced_type" : "_ZTIw",
   "self_type" : "_ZTIKw",
   "size" : 4,
   "source_file" : "external/fmtlib/include/fmt/core.h"
  },
  {
   "alignment" : 8,
   "is_const" : true,
   "linker_set_key" : "_ZTIKy",
   "name" : "const unsigned long long",
   "referenced_type" : "_ZTIy",
   "self_type" : "_ZTIKy",
   "size" : 8,
   "source_file" : "external/fmtlib/include/fmt/core.h"
  }
 ],
 "record_types" :
 [
  {
   "alignment" : 8,
   "fields" :
   [
    {
     "access" : "private",
     "field_name" : "buffer_",
     "referenced_type" : "_ZTIA22_c"
    },
    {
     "access" : "private",
     "field_name" : "str_",
     "field_offset" : 192,
     "referenced_type" : "_ZTIPc"
    }
   ],
   "linker_set_key" : "_ZTIN3fmt2v710format_intE",
   "name" : "fmt::format_int",
   "record_kind" : "class",
   "referenced_type" : "_ZTIN3fmt2v710format_intE",
   "self_type" : "_ZTIN3fmt2v710format_intE",
   "size" : 32,
   "source_file" : "external/fmtlib/include/fmt/format.h"
  },
  {
   "alignment" : 8,
   "base_specifiers" :
   [
    {
     "referenced_type" : "_ZTIN3fmt2v717basic_format_argsINS0_20basic_format_contextINS0_6detail15buffer_appenderIcEEcEEEE"
    }
   ],
   "linker_set_key" : "_ZTIN3fmt2v711format_argsE",
   "name" : "fmt::format_args",
   "referenced_type" : "_ZTIN3fmt2v711format_argsE",
   "self_type" : "_ZTIN3fmt2v711format_argsE",
   "size" : 16,
   "source_file" : "external/fmtlib/include/fmt/core.h"
  },
  {
   "alignment" : 8,
   "base_specifiers" :
   [
    {
     "referenced_type" : "_ZTISt13runtime_error"
    }
   ],
   "linker_set_key" : "_ZTIN3fmt2v712format_errorE",
   "name" : "fmt::format_error",
   "record_kind" : "class",
   "referenced_type" : "_ZTIN3fmt2v712format_errorE",
   "self_type" : "_ZTIN3fmt2v712format_errorE",
   "size" : 16,
   "source_file" : "external/fmtlib/include/fmt/format.h",
   "vtable_components" :
   [
    {
     "kind" : "offset_to_top"
    },
    {
     "kind" : "rtti",
     "mangled_component_name" : "_ZTIN3fmt2v712format_errorE"
    },
    {
     "kind" : "complete_dtor_pointer",
     "mangled_component_name" : "_ZN3fmt2v712format_errorD1Ev"
    },
    {
     "kind" : "deleting_dtor_pointer",
     "mangled_component_name" : "_ZN3fmt2v712format_errorD0Ev"
    },
    {
     "mangled_component_name" : "_ZNKSt13runtime_error4whatEv"
    }
   ]
  },
  {
   "alignment" : 8,
   "base_specifiers" :
   [
    {
     "referenced_type" : "_ZTISt13runtime_error"
    }
   ],
   "fields" :
   [
    {
     "access" : "protected",
     "field_name" : "error_code_",
     "field_offset" : 128,
     "referenced_type" : "_ZTIi"
    }
   ],
   "linker_set_key" : "_ZTIN3fmt2v712system_errorE",
   "name" : "fmt::system_error",
   "record_kind" : "class",
   "referenced_type" : "_ZTIN3fmt2v712system_errorE",
   "self_type" : "_ZTIN3fmt2v712system_errorE",
   "size" : 24,
   "source_file" : "external/fmtlib/include/fmt/format.h",
   "vtable_components" :
   [
    {
     "kind" : "offset_to_top"
    },
    {
     "kind" : "rtti",
     "mangled_component_name" : "_ZTIN3fmt2v712system_errorE"
    },
    {
     "kind" : "complete_dtor_pointer",
     "mangled_component_name" : "_ZN3fmt2v712system_errorD1Ev"
    },
    {
     "kind" : "deleting_dtor_pointer",
     "mangled_component_name" : "_ZN3fmt2v712system_errorD0Ev"
    },
    {
     "mangled_component_name" : "_ZNKSt13runtime_error4whatEv"
    }
   ]
  },
  {
   "alignment" : 8,
   "base_specifiers" :
   [
    {
     "referenced_type" : "_ZTIN3fmt2v717basic_format_argsINS0_20basic_format_contextINS0_6detail15buffer_appenderIwEEwEEEE"
    }
   ],
   "linker_set_key" : "_ZTIN3fmt2v712wformat_argsE",
   "name" : "fmt::wformat_args",
   "referenced_type" : "_ZTIN3fmt2v712wformat_argsE",
   "self_type" : "_ZTIN3fmt2v712wformat_argsE",
   "size" : 16,
   "source_file" : "external/fmtlib/include/fmt/core.h"
  },
  {
   "alignment" : 1,
   "linker_set_key" : "_ZTIN3fmt2v713type_identityIcEE",
   "name" : "fmt::type_identity<char>",
   "referenced_type" : "_ZTIN3fmt2v713type_identityIcEE",
   "self_type" : "_ZTIN3fmt2v713type_identityIcEE",
   "size" : 1,
   "source_file" : "external/fmtlib/include/fmt/core.h",
   "template_args" : [ "_ZTIc" ]
  },
  {
   "alignment" : 1,
   "linker_set_key" : "_ZTIN3fmt2v714compile_stringE",
   "name" : "fmt::compile_string",
   "referenced_type" : "_ZTIN3fmt2v714compile_stringE",
   "self_type" : "_ZTIN3fmt2v714compile_stringE",
   "size" : 1,
   "source_file" : "external/fmtlib/include/fmt/core.h"
  },
  {
   "alignment" : 8,
   "fields" :
   [
    {
     "access" : "private",
     "field_name" : "desc_",
     "referenced_type" : "_ZTIy"
    },
    {
     "access" : "private",
     "field_offset" : 64,
     "referenced_type" : "_ZTIN3fmt2v717basic_format_argsINS0_20basic_format_contextINS0_6detail15buffer_appenderIcEEcEEEUt_E"
    }
   ],
   "linker_set_key" : "_ZTIN3fmt2v717basic_format_argsINS0_20basic_format_contextINS0_6detail15buffer_appenderIcEEcEEEE",
   "name" : "fmt::basic_format_args<fmt::basic_format_context<fmt::detail::buffer_appender<char>, char>>",
   "record_kind" : "class",
   "referenced_type" : "_ZTIN3fmt2v717basic_format_argsINS0_20basic_format_contextINS0_6detail15buffer_appenderIcEEcEEEE",
   "self_type" : "_ZTIN3fmt2v717basic_format_argsINS0_20basic_format_contextINS0_6detail15buffer_appenderIcEEcEEEE",
   "size" : 16,
   "source_file" : "external/fmtlib/include/fmt/core.h",
   "template_args" :
   [
    "_ZTIN3fmt2v720basic_format_contextINS0_6detail15buffer_appenderIcEEcEE"
   ]
  },
  {
   "access" : "private",
   "alignment" : 8,
   "fields" :
   [
    {
     "field_name" : "values_",
     "referenced_type" : "_ZTIPKN3fmt2v76detail5valueINS0_20basic_format_contextINS1_15buffer_appenderIcEEcEEEE"
    },
    {
     "field_name" : "args_",
     "referenced_type" : "_ZTIPKN3fmt2v716basic_format_argINS0_20basic_format_contextINS0_6detail15buffer_appenderIcEEcEEEE"
    }
   ],
   "is_anonymous" : true,
   "linker_set_key" : "_ZTIN3fmt2v717basic_format_argsINS0_20basic_format_contextINS0_6detail15buffer_appenderIcEEcEEEUt_E",
   "name" : "fmt::basic_format_args<basic_format_context<buffer_appender<char>, char>>::(anonymous union at external/fmtlib/include/fmt/core.h:1839:3)",
   "record_kind" : "union",
   "referenced_type" : "_ZTIN3fmt2v717basic_format_argsINS0_20basic_format_contextINS0_6detail15buffer_appenderIcEEcEEEUt_E",
   "self_type" : "_ZTIN3fmt2v717basic_format_argsINS0_20basic_format_contextINS0_6detail15buffer_appenderIcEEcEEEUt_E",
   "size" : 8,
   "source_file" : "external/fmtlib/include/fmt/core.h"
  },
  {
   "alignment" : 8,
   "fields" :
   [
    {
     "access" : "private",
     "field_name" : "desc_",
     "referenced_type" : "_ZTIy"
    },
    {
     "access" : "private",
     "field_offset" : 64,
     "referenced_type" : "_ZTIN3fmt2v717basic_format_argsINS0_20basic_format_contextINS0_6detail15buffer_appenderIwEEwEEEUt_E"
    }
   ],
   "linker_set_key" : "_ZTIN3fmt2v717basic_format_argsINS0_20basic_format_contextINS0_6detail15buffer_appenderIwEEwEEEE",
   "name" : "fmt::basic_format_args<fmt::basic_format_context<fmt::detail::buffer_appender<wchar_t>, wchar_t>>",
   "record_kind" : "class",
   "referenced_type" : "_ZTIN3fmt2v717basic_format_argsINS0_20basic_format_contextINS0_6detail15buffer_appenderIwEEwEEEE",
   "self_type" : "_ZTIN3fmt2v717basic_format_argsINS0_20basic_format_contextINS0_6detail15buffer_appenderIwEEwEEEE",
   "size" : 16,
   "source_file" : "external/fmtlib/include/fmt/core.h",
   "template_args" :
   [
    "_ZTIN3fmt2v720basic_format_contextINS0_6detail15buffer_appenderIwEEwEE"
   ]
  },
  {
   "access" : "private",
   "alignment" : 8,
   "fields" :
   [
    {
     "field_name" : "values_",
     "referenced_type" : "_ZTIPKN3fmt2v76detail5valueINS0_20basic_format_contextINS1_15buffer_appenderIwEEwEEEE"
    },
    {
     "field_name" : "args_",
     "referenced_type" : "_ZTIPKN3fmt2v716basic_format_argINS0_20basic_format_contextINS0_6detail15buffer_appenderIwEEwEEEE"
    }
   ],
   "is_anonymous" : true,
   "linker_set_key" : "_ZTIN3fmt2v717basic_format_argsINS0_20basic_format_contextINS0_6detail15buffer_appenderIwEEwEEEUt_E",
   "name" : "fmt::basic_format_args<basic_format_context<buffer_appender<wchar_t>, wchar_t>>::(anonymous union at external/fmtlib/include/fmt/core.h:1839:3)",
   "record_kind" : "union",
   "referenced_type" : "_ZTIN3fmt2v717basic_format_argsINS0_20basic_format_contextINS0_6detail15buffer_appenderIwEEwEEEUt_E",
   "self_type" : "_ZTIN3fmt2v717basic_format_argsINS0_20basic_format_contextINS0_6detail15buffer_appenderIwEEwEEEUt_E",
   "size" : 8,
   "source_file" : "external/fmtlib/include/fmt/core.h"
  },
  {
   "alignment" : 8,
   "fields" :
   [
    {
     "access" : "private",
     "field_name" : "data_",
     "referenced_type" : "_ZTIPKDu"
    },
    {
     "access" : "private",
     "field_name" : "size_",
     "field_offset" : 64,
     "referenced_type" : "_ZTIm"
    }
   ],
   "linker_set_key" : "_ZTIN3fmt2v717basic_string_viewIDuEE",
   "name" : "fmt::basic_string_view<char8_t>",
   "record_kind" : "class",
   "referenced_type" : "_ZTIN3fmt2v717basic_string_viewIDuEE",
   "self_type" : "_ZTIN3fmt2v717basic_string_viewIDuEE",
   "size" : 16,
   "source_file" : "external/fmtlib/include/fmt/core.h",
   "template_args" : [ "_ZTIDu" ]
  },
  {
   "alignment" : 8,
   "fields" :
   [
    {
     "access" : "private",
     "field_name" : "data_",
     "referenced_type" : "_ZTIPKc"
    },
    {
     "access" : "private",
     "field_name" : "size_",
     "field_offset" : 64,
     "referenced_type" : "_ZTIm"
    }
   ],
   "linker_set_key" : "_ZTIN3fmt2v717basic_string_viewIcEE",
   "name" : "fmt::basic_string_view<char>",
   "record_kind" : "class",
   "referenced_type" : "_ZTIN3fmt2v717basic_string_viewIcEE",
   "self_type" : "_ZTIN3fmt2v717basic_string_viewIcEE",
   "size" : 16,
   "source_file" : "external/fmtlib/include/fmt/core.h",
   "template_args" : [ "_ZTIc" ]
  },
  {
   "alignment" : 8,
   "fields" :
   [
    {
     "access" : "private",
     "field_name" : "data_",
     "referenced_type" : "_ZTIPKw"
    },
    {
     "access" : "private",
     "field_name" : "size_",
     "field_offset" : 64,
     "referenced_type" : "_ZTIm"
    }
   ],
   "linker_set_key" : "_ZTIN3fmt2v717basic_string_viewIwEE",
   "name" : "fmt::basic_string_view<wchar_t>",
   "record_kind" : "class",
   "referenced_type" : "_ZTIN3fmt2v717basic_string_viewIwEE",
   "self_type" : "_ZTIN3fmt2v717basic_string_viewIwEE",
   "size" : 16,
   "source_file" : "external/fmtlib/include/fmt/core.h",
   "template_args" : [ "_ZTIw" ]
  },
  {
   "alignment" : 4,
   "fields" :
   [
    {
     "field_name" : "width",
     "referenced_type" : "_ZTIi"
    },
    {
     "field_name" : "precision",
     "field_offset" : 32,
     "referenced_type" : "_ZTIi"
    },
    {
     "field_name" : "type",
     "field_offset" : 64,
     "referenced_type" : "_ZTIc"
    },
    {
     "field_name" : "align",
     "field_offset" : 72,
     "referenced_type" : "_ZTIN3fmt2v75align4typeE"
    },
    {
     "field_name" : "sign",
     "field_offset" : 76,
     "referenced_type" : "_ZTIN3fmt2v74sign4typeE"
    },
    {
     "field_name" : "alt",
     "field_offset" : 79,
     "referenced_type" : "_ZTIb"
    },
    {
     "field_name" : "fill",
     "field_offset" : 80,
     "referenced_type" : "_ZTIN3fmt2v76detail6fill_tIcEE"
    }
   ],
   "linker_set_key" : "_ZTIN3fmt2v718basic_format_specsIcEE",
   "name" : "fmt::basic_format_specs<char>",
   "referenced_type" : "_ZTIN3fmt2v718basic_format_specsIcEE",
   "self_type" : "_ZTIN3fmt2v718basic_format_specsIcEE",
   "size" : 16,
   "source_file" : "external/fmtlib/include/fmt/format.h",
   "template_args" : [ "_ZTIc" ]
  },
  {
   "alignment" : 8,
   "base_specifiers" :
   [
    {
     "referenced_type" : "_ZTIN3fmt2v76detail6bufferIcEE"
    }
   ],
   "fields" :
   [
    {
     "access" : "private",
     "field_name" : "store_",
     "field_offset" : 256,
     "referenced_type" : "_ZTIA500_c"
    },
    {
     "access" : "private",
     "field_name" : "alloc_",
     "field_offset" : 4256,
     "referenced_type" : "_ZTINSt3__19allocatorIcEE"
    }
   ],
   "linker_set_key" : "_ZTIN3fmt2v719basic_memory_bufferIcLm500ENSt3__19allocatorIcEEEE",
   "name" : "fmt::basic_memory_buffer<char, 500, std::allocator<char>>",
   "record_kind" : "class",
   "referenced_type" : "_ZTIN3fmt2v719basic_memory_bufferIcLm500ENSt3__19allocatorIcEEEE",
   "self_type" : "_ZTIN3fmt2v719basic_memory_bufferIcLm500ENSt3__19allocatorIcEEEE",
   "size" : 536,
   "source_file" : "external/fmtlib/include/fmt/format.h",
   "template_args" : [ "_ZTIc", "_ZTINSt3__19allocatorIcEE" ],
   "vtable_components" :
   [
    {
     "kind" : "offset_to_top"
    },
    {
     "kind" : "rtti",
     "mangled_component_name" : "_ZTIN3fmt2v719basic_memory_bufferIcLm500ENSt3__19allocatorIcEEEE"
    },
    {
     "mangled_component_name" : "_ZN3fmt2v719basic_memory_bufferIcLm500ENSt3__19allocatorIcEEE4growEm"
    }
   ]
  },
  {
   "alignment" : 8,
   "base_specifiers" :
   [
    {
     "referenced_type" : "_ZTIN3fmt2v76detail6bufferIwEE"
    }
   ],
   "fields" :
   [
    {
     "access" : "private",
     "field_name" : "store_",
     "field_offset" : 256,
     "referenced_type" : "_ZTIA500_w"
    },
    {
     "access" : "private",
     "field_name" : "alloc_",
     "field_offset" : 16256,
     "referenced_type" : "_ZTINSt3__19allocatorIwEE"
    }
   ],
   "linker_set_key" : "_ZTIN3fmt2v719basic_memory_bufferIwLm500ENSt3__19allocatorIwEEEE",
   "name" : "fmt::basic_memory_buffer<wchar_t, 500, std::allocator<wchar_t>>",
   "record_kind" : "class",
   "referenced_type" : "_ZTIN3fmt2v719basic_memory_bufferIwLm500ENSt3__19allocatorIwEEEE",
   "self_type" : "_ZTIN3fmt2v719basic_memory_bufferIwLm500ENSt3__19allocatorIwEEEE",
   "size" : 2040,
   "source_file" : "external/fmtlib/include/fmt/format.h",
   "template_args" : [ "_ZTIw", "_ZTINSt3__19allocatorIwEE" ],
   "vtable_components" :
   [
    {
     "kind" : "offset_to_top"
    },
    {
     "kind" : "rtti",
     "mangled_component_name" : "_ZTIN3fmt2v719basic_memory_bufferIwLm500ENSt3__19allocatorIwEEEE"
    },
    {
     "mangled_component_name" : "_ZN3fmt2v719basic_memory_bufferIwLm500ENSt3__19allocatorIwEEE4growEm"
    }
   ]
  },
  {
   "alignment" : 8,
   "fields" :
   [
    {
     "access" : "private",
     "field_name" : "data_",
     "referenced_type" : "_ZTIN3fmt2v717basic_string_viewIcEE"
    }
   ],
   "linker_set_key" : "_ZTIN3fmt2v75bytesE",
   "name" : "fmt::bytes",
   "record_kind" : "class",
   "referenced_type" : "_ZTIN3fmt2v75bytesE",
   "self_type" : "_ZTIN3fmt2v75bytesE",
   "size" : 16,
   "source_file" : "external/fmtlib/include/fmt/format.h"
  },
  {
   "alignment" : 1,
   "linker_set_key" : "_ZTIN3fmt2v76detail10basic_dataIvEE",
   "name" : "fmt::detail::basic_data<void>",
   "referenced_type" : "_ZTIN3fmt2v76detail10basic_dataIvEE",
   "self_type" : "_ZTIN3fmt2v76detail10basic_dataIvEE",
   "size" : 1,
   "source_file" : "external/fmtlib/include/fmt/format.h",
   "template_args" : [ "_ZTIv" ]
  },
  {
   "alignment" : 8,
   "fields" :
   [
    {
     "access" : "private",
     "field_name" : "locale_",
     "referenced_type" : "_ZTIPKv"
    }
   ],
   "linker_set_key" : "_ZTIN3fmt2v76detail10locale_refE",
   "name" : "fmt::detail::locale_ref",
   "record_kind" : "class",
   "referenced_type" : "_ZTIN3fmt2v76detail10locale_refE",
   "self_type" : "_ZTIN3fmt2v76detail10locale_refE",
   "size" : 8,
   "source_file" : "external/fmtlib/include/fmt/core.h"
  },
  {
   "alignment" : 4,
   "fields" :
   [
    {
     "field_name" : "precision",
     "referenced_type" : "_ZTIi"
    },
    {
     "field_name" : "format",
     "field_offset" : 32,
     "referenced_type" : "_ZTIN3fmt2v76detail12float_formatE"
    },
    {
     "field_name" : "sign",
     "field_offset" : 40,
     "referenced_type" : "_ZTIN3fmt2v74sign4typeE"
    },
    {
     "field_name" : "upper",
     "field_offset" : 48,
     "referenced_type" : "_ZTIb"
    },
    {
     "field_name" : "locale",
     "field_offset" : 49,
     "referenced_type" : "_ZTIb"
    },
    {
     "field_name" : "binary32",
     "field_offset" : 50,
     "referenced_type" : "_ZTIb"
    },
    {
     "field_name" : "use_grisu",
     "field_offset" : 51,
     "referenced_type" : "_ZTIb"
    },
    {
     "field_name" : "showpoint",
     "field_offset" : 52,
     "referenced_type" : "_ZTIb"
    }
   ],
   "linker_set_key" : "_ZTIN3fmt2v76detail11float_specsE",
   "name" : "fmt::detail::float_specs",
   "referenced_type" : "_ZTIN3fmt2v76detail11float_specsE",
   "self_type" : "_ZTIN3fmt2v76detail11float_specsE",
   "size" : 8,
   "source_file" : "external/fmtlib/include/fmt/format.h"
  },
  {
   "alignment" : 1,
   "linker_set_key" : "_ZTIN3fmt2v76detail11int_checkerILb1EEE",
   "name" : "fmt::detail::int_checker<true>",
   "referenced_type" : "_ZTIN3fmt2v76detail11int_checkerILb1EEE",
   "self_type" : "_ZTIN3fmt2v76detail11int_checkerILb1EEE",
   "size" : 1,
   "source_file" : "external/fmtlib/include/fmt/printf.h"
  },
  {
   "alignment" : 1,
   "base_specifiers" :
   [
    {
     "referenced_type" : "_ZTINSt3__117integral_constantIbLb1EEE"
    }
   ],
   "linker_set_key" : "_ZTIN3fmt2v76detail11is_integralInEE",
   "name" : "fmt::detail::is_integral<int128_t>",
   "referenced_type" : "_ZTIN3fmt2v76detail11is_integralInEE",
   "self_type" : "_ZTIN3fmt2v76detail11is_integralInEE",
   "size" : 1,
   "source_file" : "external/fmtlib/include/fmt/format.h",
   "template_args" : [ "_ZTIn" ]
  },
  {
   "alignment" : 1,
   "base_specifiers" :
   [
    {
     "referenced_type" : "_ZTINSt3__117integral_constantIbLb1EEE"
    }
   ],
   "linker_set_key" : "_ZTIN3fmt2v76detail11is_integralIoEE",
   "name" : "fmt::detail::is_integral<uint128_t>",
   "referenced_type" : "_ZTIN3fmt2v76detail11is_integralIoEE",
   "self_type" : "_ZTIN3fmt2v76detail11is_integralIoEE",
   "size" : 1,
   "source_file" : "external/fmtlib/include/fmt/format.h",
   "template_args" : [ "_ZTIo" ]
  },
  {
   "alignment" : 1,
   "linker_set_key" : "_ZTIN3fmt2v76detail11is_zero_intE",
   "name" : "fmt::detail::is_zero_int",
   "record_kind" : "class",
   "referenced_type" : "_ZTIN3fmt2v76detail11is_zero_intE",
   "self_type" : "_ZTIN3fmt2v76detail11is_zero_intE",
   "size" : 1,
   "source_file" : "external/fmtlib/include/fmt/printf.h"
  },
  {
   "alignment" : 1,
   "linker_set_key" : "_ZTIN3fmt2v76detail11void_t_implIJEEE",
   "name" : "fmt::detail::void_t_impl<>",
   "referenced_type" : "_ZTIN3fmt2v76detail11void_t_implIJEEE",
   "self_type" : "_ZTIN3fmt2v76detail11void_t_implIJEEE",
   "size" : 1,
   "source_file" : "external/fmtlib/include/fmt/core.h"
  },
  {
   "alignment" : 1,
   "linker_set_key" : "_ZTIN3fmt2v76detail13buffer_traitsE",
   "name" : "fmt::detail::buffer_traits",
   "referenced_type" : "_ZTIN3fmt2v76detail13buffer_traitsE",
   "self_type" : "_ZTIN3fmt2v76detail13buffer_traitsE",
   "size" : 1,
   "source_file" : "external/fmtlib/include/fmt/core.h"
  },
  {
   "alignment" : 1,
   "linker_set_key" : "_ZTIN3fmt2v76detail13error_handlerE",
   "name" : "fmt::detail::error_handler",
   "referenced_type" : "_ZTIN3fmt2v76detail13error_handlerE",
   "self_type" : "_ZTIN3fmt2v76detail13error_handlerE",
   "size" : 1,
   "source_file" : "external/fmtlib/include/fmt/core.h"
  },
  {
   "alignment" : 1,
   "linker_set_key" : "_ZTIN3fmt2v76detail13unformattableE",
   "name" : "fmt::detail::unformattable",
   "referenced_type" : "_ZTIN3fmt2v76detail13unformattableE",
   "self_type" : "_ZTIN3fmt2v76detail13unformattableE",
   "size" : 1,
   "source_file" : "external/fmtlib/include/fmt/core.h"
  },
  {
   "alignment" : 8,
   "fields" :
   [
    {
     "access" : "private",
     "field_name" : "buffer_",
     "referenced_type" : "_ZTIN3fmt2v719basic_memory_bufferIwLm500ENSt3__19allocatorIwEEEE"
    }
   ],
   "linker_set_key" : "_ZTIN3fmt2v76detail13utf8_to_utf16E",
   "name" : "fmt::detail::utf8_to_utf16",
   "record_kind" : "class",
   "referenced_type" : "_ZTIN3fmt2v76detail13utf8_to_utf16E",
   "self_type" : "_ZTIN3fmt2v76detail13utf8_to_utf16E",
   "size" : 2040,
   "source_file" : "external/fmtlib/include/fmt/format.h"
  },
  {
   "alignment" : 8,
   "fields" :
   [
    {
     "field_name" : "significand",
     "referenced_type" : "_ZTIPKc"
    },
    {
     "field_name" : "significand_size",
     "field_offset" : 64,
     "referenced_type" : "_ZTIi"
    },
    {
     "field_name" : "exponent",
     "field_offset" : 96,
     "referenced_type" : "_ZTIi"
    }
   ],
   "linker_set_key" : "_ZTIN3fmt2v76detail14big_decimal_fpE",
   "name" : "fmt::detail::big_decimal_fp",
   "referenced_type" : "_ZTIN3fmt2v76detail14big_decimal_fpE",
   "self_type" : "_ZTIN3fmt2v76detail14big_decimal_fpE",
   "size" : 16,
   "source_file" : "external/fmtlib/include/fmt/format.h"
  },
  {
   "alignment" : 8,
   "base_specifiers" :
   [
    {
     "referenced_type" : "_ZTIN3fmt2v76detail6bufferIcEE"
    }
   ],
   "fields" :
   [
    {
     "access" : "private",
     "field_name" : "data_",
     "field_offset" : 256,
     "referenced_type" : "_ZTIA256_c"
    },
    {
     "access" : "private",
     "field_name" : "count_",
     "field_offset" : 2304,
     "referenced_type" : "_ZTIm"
    }
   ],
   "linker_set_key" : "_ZTIN3fmt2v76detail15counting_bufferIcEE",
   "name" : "fmt::detail::counting_buffer<char>",
   "record_kind" : "class",
   "referenced_type" : "_ZTIN3fmt2v76detail15counting_bufferIcEE",
   "self_type" : "_ZTIN3fmt2v76detail15counting_bufferIcEE",
   "size" : 296,
   "source_file" : "external/fmtlib/include/fmt/core.h",
   "template_args" : [ "_ZTIc" ],
   "vtable_components" :
   [
    {
     "kind" : "offset_to_top"
    },
    {
     "kind" : "rtti",
     "mangled_component_name" : "_ZTIN3fmt2v76detail15counting_bufferIcEE"
    },
    {
     "mangled_component_name" : "_ZN3fmt2v76detail15counting_bufferIcE4growEm"
    }
   ]
  },
  {
   "alignment" : 16,
   "fields" :
   [
    {
     "field_name" : "internal_",
     "referenced_type" : "_ZTIo"
    }
   ],
   "linker_set_key" : "_ZTIN3fmt2v76detail15uint128_wrapperE",
   "name" : "fmt::detail::uint128_wrapper",
   "referenced_type" : "_ZTIN3fmt2v76detail15uint128_wrapperE",
   "self_type" : "_ZTIN3fmt2v76detail15uint128_wrapperE",
   "size" : 16,
   "source_file" : "external/fmtlib/include/fmt/format.h"
  },
  {
   "alignment" : 8,
   "fields" :
   [
    {
     "field_name" : "next",
     "field_offset" : 64,
     "referenced_type" : "_ZTINSt3__110unique_ptrIN3fmt2v76detail16dynamic_arg_list4nodeIvEENS_14default_deleteIS6_EEEE"
    }
   ],
   "linker_set_key" : "_ZTIN3fmt2v76detail16dynamic_arg_list4nodeIvEE",
   "name" : "fmt::detail::dynamic_arg_list::node<void>",
   "referenced_type" : "_ZTIN3fmt2v76detail16dynamic_arg_list4nodeIvEE",
   "self_type" : "_ZTIN3fmt2v76detail16dynamic_arg_list4nodeIvEE",
   "size" : 16,
   "source_file" : "external/fmtlib/include/fmt/core.h",
   "template_args" : [ "_ZTIv" ],
   "vtable_components" :
   [
    {
     "kind" : "offset_to_top"
    },
    {
     "kind" : "rtti",
     "mangled_component_name" : "_ZTIN3fmt2v76detail16dynamic_arg_list4nodeIvEE"
    },
    {
     "kind" : "complete_dtor_pointer",
     "mangled_component_name" : "_ZN3fmt2v76detail16dynamic_arg_list4nodeIvED1Ev"
    },
    {
     "kind" : "deleting_dtor_pointer",
     "mangled_component_name" : "_ZN3fmt2v76detail16dynamic_arg_list4nodeIvED0Ev"
    }
   ]
  },
  {
   "alignment" : 8,
   "fields" :
   [
    {
     "access" : "private",
     "field_name" : "head_",
     "referenced_type" : "_ZTINSt3__110unique_ptrIN3fmt2v76detail16dynamic_arg_list4nodeIvEENS_14default_deleteIS6_EEEE"
    }
   ],
   "linker_set_key" : "_ZTIN3fmt2v76detail16dynamic_arg_listE",
   "name" : "fmt::detail::dynamic_arg_list",
   "record_kind" : "class",
   "referenced_type" : "_ZTIN3fmt2v76detail16dynamic_arg_listE",
   "self_type" : "_ZTIN3fmt2v76detail16dynamic_arg_listE",
   "size" : 8,
   "source_file" : "external/fmtlib/include/fmt/core.h"
  },
  {
   "alignment" : 1,
   "fields" :
   [
    {
     "field_name" : "value",
     "referenced_type" : "_ZTIA8_h"
    }
   ],
   "linker_set_key" : "_ZTIN3fmt2v76detail16fallback_uintptrE",
   "name" : "fmt::detail::fallback_uintptr",
   "referenced_type" : "_ZTIN3fmt2v76detail16fallback_uintptrE",
   "self_type" : "_ZTIN3fmt2v76detail16fallback_uintptrE",
   "size" : 8,
   "source_file" : "external/fmtlib/include/fmt/format.h"
  },
  {
   "alignment" : 1,
   "linker_set_key" : "_ZTIN3fmt2v76detail17counting_iterator10value_typeE",
   "name" : "fmt::detail::counting_iterator::value_type",
   "referenced_type" : "_ZTIN3fmt2v76detail17counting_iterator10value_typeE",
   "self_type" : "_ZTIN3fmt2v76detail17counting_iterator10value_typeE",
   "size" : 1,
   "source_file" : "external/fmtlib/include/fmt/format.h"
  },
  {
   "alignment" : 8,
   "fields" :
   [
    {
     "access" : "private",
     "field_name" : "count_",
     "referenced_type" : "_ZTIm"
    }
   ],
   "linker_set_key" : "_ZTIN3fmt2v76detail17counting_iteratorE",
   "name" : "fmt::detail::counting_iterator",
   "record_kind" : "class",
   "referenced_type" : "_ZTIN3fmt2v76detail17counting_iteratorE",
   "self_type" : "_ZTIN3fmt2v76detail17counting_iteratorE",
   "size" : 8,
   "source_file" : "external/fmtlib/include/fmt/format.h"
  },
  {
   "alignment" : 8,
   "fields" :
   [
    {
     "access" : "private",
     "field_name" : "count_",
     "referenced_type" : "_ZTIm"
    },
    {
     "access" : "private",
     "field_name" : "limit_",
     "field_offset" : 64,
     "referenced_type" : "_ZTIm"
    }
   ],
   "linker_set_key" : "_ZTIN3fmt2v76detail19fixed_buffer_traitsE",
   "name" : "fmt::detail::fixed_buffer_traits",
   "record_kind" : "class",
   "referenced_type" : "_ZTIN3fmt2v76detail19fixed_buffer_traitsE",
   "self_type" : "_ZTIN3fmt2v76detail19fixed_buffer_traitsE",
   "size" : 16,
   "source_file" : "external/fmtlib/include/fmt/core.h"
  },
  {
   "alignment" : 8,
   "base_specifiers" :
   [
    {
     "referenced_type" : "_ZTIN3fmt2v718basic_format_specsIcEE"
    }
   ],
   "fields" :
   [
    {
     "field_name" : "width_ref",
     "field_offset" : 128,
     "referenced_type" : "_ZTIN3fmt2v76detail7arg_refIcEE"
    },
    {
     "field_name" : "precision_ref",
     "field_offset" : 320,
     "referenced_type" : "_ZTIN3fmt2v76detail7arg_refIcEE"
    }
   ],
   "linker_set_key" : "_ZTIN3fmt2v76detail20dynamic_format_specsIcEE",
   "name" : "fmt::detail::dynamic_format_specs<char>",
   "referenced_type" : "_ZTIN3fmt2v76detail20dynamic_format_specsIcEE",
   "self_type" : "_ZTIN3fmt2v76detail20dynamic_format_specsIcEE",
   "size" : 64,
   "source_file" : "external/fmtlib/include/fmt/format.h",
   "template_args" : [ "_ZTIc" ]
  },
  {
   "alignment" : 1,
   "linker_set_key" : "_ZTIN3fmt2v76detail21chrono_format_checkerE",
   "name" : "fmt::detail::chrono_format_checker",
   "referenced_type" : "_ZTIN3fmt2v76detail21chrono_format_checkerE",
   "self_type" : "_ZTIN3fmt2v76detail21chrono_format_checkerE",
   "size" : 1,
   "source_file" : "external/fmtlib/include/fmt/chrono.h"
  },
  {
   "alignment" : 8,
   "fields" :
   [
    {
     "field_name" : "begin",
     "referenced_type" : "_ZTIPc"
    },
    {
     "field_name" : "end",
     "field_offset" : 64,
     "referenced_type" : "_ZTIPc"
    }
   ],
   "linker_set_key" : "_ZTIN3fmt2v76detail21format_decimal_resultIPcEE",
   "name" : "fmt::detail::format_decimal_result<char *>",
   "referenced_type" : "_ZTIN3fmt2v76detail21format_decimal_resultIPcEE",
   "self_type" : "_ZTIN3fmt2v76detail21format_decimal_resultIPcEE",
   "size" : 16,
   "source_file" : "external/fmtlib/include/fmt/format.h",
   "template_args" : [ "_ZTIPc" ]
  },
  {
   "alignment" : 1,
   "linker_set_key" : "_ZTIN3fmt2v76detail21make_unsigned_or_boolIbEE",
   "name" : "fmt::detail::make_unsigned_or_bool<bool>",
   "referenced_type" : "_ZTIN3fmt2v76detail21make_unsigned_or_boolIbEE",
   "self_type" : "_ZTIN3fmt2v76detail21make_unsigned_or_boolIbEE",
   "size" : 1,
   "source_file" : "external/fmtlib/include/fmt/printf.h",
   "template_args" : [ "_ZTIb" ]
  },
  {
   "alignment" : 1,
   "linker_set_key" : "_ZTIN3fmt2v76detail24printf_precision_handlerE",
   "name" : "fmt::detail::printf_precision_handler",
   "record_kind" : "class",
   "referenced_type" : "_ZTIN3fmt2v76detail24printf_precision_handlerE",
   "self_type" : "_ZTIN3fmt2v76detail24printf_precision_handlerE",
   "size" : 1,
   "source_file" : "external/fmtlib/include/fmt/printf.h"
  },
  {
   "alignment" : 1,
   "base_specifiers" :
   [
    {
     "referenced_type" : "_ZTIN3fmt2v76detail10basic_dataIvEE"
    }
   ],
   "linker_set_key" : "_ZTIN3fmt2v76detail4dataE",
   "name" : "fmt::detail::data",
   "referenced_type" : "_ZTIN3fmt2v76detail4dataE",
   "self_type" : "_ZTIN3fmt2v76detail4dataE",
   "size" : 1,
   "source_file" : "external/fmtlib/include/fmt/format.h"
  },
  {
   "alignment" : 1,
   "linker_set_key" : "_ZTIN3fmt2v76detail4nullIvEE",
   "name" : "fmt::detail::null<void>",
   "referenced_type" : "_ZTIN3fmt2v76detail4nullIvEE",
   "self_type" : "_ZTIN3fmt2v76detail4nullIvEE",
   "size" : 1,
   "source_file" : "external/fmtlib/include/fmt/format.h",
   "template_args" : [ "_ZTIv" ]
  },
  {
   "alignment" : 1,
   "linker_set_key" : "_ZTIN3fmt2v76detail4viewE",
   "name" : "fmt::detail::view",
   "referenced_type" : "_ZTIN3fmt2v76detail4viewE",
   "self_type" : "_ZTIN3fmt2v76detail4viewE",
   "size" : 1,
   "source_file" : "external/fmtlib/include/fmt/core.h"
  },
  {
   "alignment" : 8,
   "fields" :
   [
    {
     "access" : "private",
     "field_name" : "ptr_",
     "field_offset" : 64,
     "referenced_type" : "_ZTIPc"
    },
    {
     "access" : "private",
     "field_name" : "size_",
     "field_offset" : 128,
     "referenced_type" : "_ZTIm"
    },
    {
     "access" : "private",
     "field_name" : "capacity_",
     "field_offset" : 192,
     "referenced_type" : "_ZTIm"
    }
   ],
   "linker_set_key" : "_ZTIN3fmt2v76detail6bufferIcEE",
   "name" : "fmt::detail::buffer<char>",
   "record_kind" : "class",
   "referenced_type" : "_ZTIN3fmt2v76detail6bufferIcEE",
   "self_type" : "_ZTIN3fmt2v76detail6bufferIcEE",
   "size" : 32,
   "source_file" : "external/fmtlib/include/fmt/core.h",
   "template_args" : [ "_ZTIc" ],
   "vtable_components" :
   [
    {
     "kind" : "offset_to_top"
    },
    {
     "kind" : "rtti",
     "mangled_component_name" : "_ZTIN3fmt2v76detail6bufferIcEE"
    },
    {
     "is_pure" : true,
     "mangled_component_name" : "_ZN3fmt2v76detail6bufferIcE4growEm"
    }
   ]
  },
  {
   "alignment" : 8,
   "fields" :
   [
    {
     "access" : "private",
     "field_name" : "ptr_",
     "field_offset" : 64,
     "referenced_type" : "_ZTIPw"
    },
    {
     "access" : "private",
     "field_name" : "size_",
     "field_offset" : 128,
     "referenced_type" : "_ZTIm"
    },
    {
     "access" : "private",
     "field_name" : "capacity_",
     "field_offset" : 192,
     "referenced_type" : "_ZTIm"
    }
   ],
   "linker_set_key" : "_ZTIN3fmt2v76detail6bufferIwEE",
   "name" : "fmt::detail::buffer<wchar_t>",
   "record_kind" : "class",
   "referenced_type" : "_ZTIN3fmt2v76detail6bufferIwEE",
   "self_type" : "_ZTIN3fmt2v76detail6bufferIwEE",
   "size" : 32,
   "source_file" : "external/fmtlib/include/fmt/core.h",
   "template_args" : [ "_ZTIw" ],
   "vtable_components" :
   [
    {
     "kind" : "offset_to_top"
    },
    {
     "kind" : "rtti",
     "mangled_component_name" : "_ZTIN3fmt2v76detail6bufferIwEE"
    },
    {
     "is_pure" : true,
     "mangled_component_name" : "_ZN3fmt2v76detail6bufferIwE4growEm"
    }
   ]
  },
  {
   "alignment" : 1,
   "fields" :
   [
    {
     "access" : "private",
     "field_name" : "data_",
     "referenced_type" : "_ZTIA4_c"
    },
    {
     "access" : "private",
     "field_name" : "size_",
     "field_offset" : 32,
     "referenced_type" : "_ZTIh"
    }
   ],
   "linker_set_key" : "_ZTIN3fmt2v76detail6fill_tIcEE",
   "name" : "fmt::detail::fill_t<char>",
   "referenced_type" : "_ZTIN3fmt2v76detail6fill_tIcEE",
   "self_type" : "_ZTIN3fmt2v76detail6fill_tIcEE",
   "size" : 5,
   "source_file" : "external/fmtlib/include/fmt/format.h",
   "template_args" : [ "_ZTIc" ]
  },
  {
   "alignment" : 8,
   "fields" :
   [
    {
     "field_name" : "index",
     "referenced_type" : "_ZTIi"
    },
    {
     "field_name" : "name",
     "referenced_type" : "_ZTIN3fmt2v717basic_string_viewIcEE"
    }
   ],
   "linker_set_key" : "_ZTIN3fmt2v76detail7arg_refIcE5valueE",
   "name" : "fmt::detail::arg_ref<char>::value",
   "record_kind" : "union",
   "referenced_type" : "_ZTIN3fmt2v76detail7arg_refIcE5valueE",
   "self_type" : "_ZTIN3fmt2v76detail7arg_refIcE5valueE",
   "size" : 16,
   "source_file" : "external/fmtlib/include/fmt/format.h"
  },
  {
   "alignment" : 8,
   "fields" :
   [
    {
     "field_name" : "kind",
     "referenced_type" : "_ZTIN3fmt2v76detail11arg_id_kindE"
    },
    {
     "field_name" : "val",
     "field_offset" : 64,
     "referenced_type" : "_ZTIN3fmt2v76detail7arg_refIcE5valueE"
    }
   ],
   "linker_set_key" : "_ZTIN3fmt2v76detail7arg_refIcEE",
   "name" : "fmt::detail::arg_ref<char>",
   "referenced_type" : "_ZTIN3fmt2v76detail7arg_refIcEE",
   "self_type" : "_ZTIN3fmt2v76detail7arg_refIcEE",
   "size" : 24,
   "source_file" : "external/fmtlib/include/fmt/format.h",
   "template_args" : [ "_ZTIc" ]
  },
  {
   "alignment" : 1,
   "linker_set_key" : "_ZTIN3fmt2v76detail7auto_idE",
   "name" : "fmt::detail::auto_id",
   "referenced_type" : "_ZTIN3fmt2v76detail7auto_idE",
   "self_type" : "_ZTIN3fmt2v76detail7auto_idE",
   "size" : 1,
   "source_file" : "external/fmtlib/include/fmt/format.h"
  },
  {
   "alignment" : 8,
   "fields" :
   [
    {
     "field_name" : "str",
     "referenced_type" : "_ZTIPKc"
    }
   ],
   "linker_set_key" : "_ZTIN3fmt2v76detail7udl_argIcEE",
   "name" : "fmt::detail::udl_arg<char>",
   "referenced_type" : "_ZTIN3fmt2v76detail7udl_argIcEE",
   "self_type" : "_ZTIN3fmt2v76detail7udl_argIcEE",
   "size" : 8,
   "source_file" : "external/fmtlib/include/fmt/format.h",
   "template_args" : [ "_ZTIc" ]
  },
  {
   "alignment" : 8,
   "fields" :
   [
    {
     "field_name" : "str",
     "referenced_type" : "_ZTIPKw"
    }
   ],
   "linker_set_key" : "_ZTIN3fmt2v76detail7udl_argIwEE",
   "name" : "fmt::detail::udl_arg<wchar_t>",
   "referenced_type" : "_ZTIN3fmt2v76detail7udl_argIwEE",
   "self_type" : "_ZTIN3fmt2v76detail7udl_argIwEE",
   "size" : 8,
   "source_file" : "external/fmtlib/include/fmt/format.h",
   "template_args" : [ "_ZTIw" ]
  },
  {
   "alignment" : 1,
   "linker_set_key" : "_ZTIN3fmt2v76detail9converterE",
   "name" : "fmt::detail::converter",
   "referenced_type" : "_ZTIN3fmt2v76detail9converterE",
   "self_type" : "_ZTIN3fmt2v76detail9converterE",
   "size" : 1,
   "source_file" : "external/fmtlib/include/fmt/ostream.h"
  },
  {
   "alignment" : 1,
   "linker_set_key" : "_ZTIN3fmt2v76detail9dragonbox10float_infoIdEE",
   "name" : "fmt::detail::dragonbox::float_info<double>",
   "referenced_type" : "_ZTIN3fmt2v76detail9dragonbox10float_infoIdEE",
   "self_type" : "_ZTIN3fmt2v76detail9dragonbox10float_infoIdEE",
   "size" : 1,
   "source_file" : "external/fmtlib/include/fmt/format.h",
   "template_args" : [ "_ZTId" ]
  },
  {
   "alignment" : 1,
   "linker_set_key" : "_ZTIN3fmt2v76detail9dragonbox10float_infoIfEE",
   "name" : "fmt::detail::dragonbox::float_info<float>",
   "referenced_type" : "_ZTIN3fmt2v76detail9dragonbox10float_infoIfEE",
   "self_type" : "_ZTIN3fmt2v76detail9dragonbox10float_infoIfEE",
   "size" : 1,
   "source_file" : "external/fmtlib/include/fmt/format.h",
   "template_args" : [ "_ZTIf" ]
  },
  {
   "alignment" : 1,
   "base_specifiers" :
   [
    {
     "referenced_type" : "_ZTINSt3__117integral_constantIbLb1EEE"
    }
   ],
   "linker_set_key" : "_ZTIN3fmt2v77is_charIDiEE",
   "name" : "fmt::is_char<char32_t>",
   "referenced_type" : "_ZTIN3fmt2v77is_charIDiEE",
   "self_type" : "_ZTIN3fmt2v77is_charIDiEE",
   "size" : 1,
   "source_file" : "external/fmtlib/include/fmt/core.h",
   "template_args" : [ "_ZTIDi" ]
  },
  {
   "alignment" : 1,
   "base_specifiers" :
   [
    {
     "referenced_type" : "_ZTINSt3__117integral_constantIbLb1EEE"
    }
   ],
   "linker_set_key" : "_ZTIN3fmt2v77is_charIDsEE",
   "name" : "fmt::is_char<char16_t>",
   "referenced_type" : "_ZTIN3fmt2v77is_charIDsEE",
   "self_type" : "_ZTIN3fmt2v77is_charIDsEE",
   "size" : 1,
   "source_file" : "external/fmtlib/include/fmt/core.h",
   "template_args" : [ "_ZTIDs" ]
  },
  {
   "alignment" : 1,
   "base_specifiers" :
   [
    {
     "referenced_type" : "_ZTINSt3__117integral_constantIbLb1EEE"
    }
   ],
   "linker_set_key" : "_ZTIN3fmt2v77is_charIDuEE",
   "name" : "fmt::is_char<detail::char8_type>",
   "referenced_type" : "_ZTIN3fmt2v77is_charIDuEE",
   "self_type" : "_ZTIN3fmt2v77is_charIDuEE",
   "size" : 1,
   "source_file" : "external/fmtlib/include/fmt/core.h",
   "template_args" : [ "_ZTIDu" ]
  },
  {
   "alignment" : 1,
   "base_specifiers" :
   [
    {
     "referenced_type" : "_ZTINSt3__117integral_constantIbLb1EEE"
    }
   ],
   "linker_set_key" : "_ZTIN3fmt2v77is_charIcEE",
   "name" : "fmt::is_char<char>",
   "referenced_type" : "_ZTIN3fmt2v77is_charIcEE",
   "self_type" : "_ZTIN3fmt2v77is_charIcEE",
   "size" : 1,
   "source_file" : "external/fmtlib/include/fmt/core.h",
   "template_args" : [ "_ZTIc" ]
  },
  {
   "alignment" : 1,
   "base_specifiers" :
   [
    {
     "referenced_type" : "_ZTINSt3__117integral_constantIbLb1EEE"
    }
   ],
   "linker_set_key" : "_ZTIN3fmt2v77is_charIwEE",
   "name" : "fmt::is_char<wchar_t>",
   "referenced_type" : "_ZTIN3fmt2v77is_charIwEE",
   "self_type" : "_ZTIN3fmt2v77is_charIwEE",
   "size" : 1,
   "source_file" : "external/fmtlib/include/fmt/core.h",
   "template_args" : [ "_ZTIw" ]
  },
  {
   "alignment" : 8,
   "fields" :
   [
    {
     "access" : "private",
     "field_name" : "specs_",
     "referenced_type" : "_ZTIN3fmt2v76detail20dynamic_format_specsIcEE"
    }
   ],
   "linker_set_key" : "_ZTIN3fmt2v79formatterINS0_5bytesEcvEE",
   "name" : "fmt::formatter<fmt::bytes, char, void>",
   "referenced_type" : "_ZTIN3fmt2v79formatterINS0_5bytesEcvEE",
   "self_type" : "_ZTIN3fmt2v79formatterINS0_5bytesEcvEE",
   "size" : 64,
   "source_file" : "external/fmtlib/include/fmt/format.h",
   "template_args" : [ "_ZTIN3fmt2v75bytesE", "_ZTIc", "_ZTIv" ]
  },
  {
   "alignment" : 1,
   "linker_set_key" : "_ZTIN3fmt2v79monostateE",
   "name" : "fmt::monostate",
   "referenced_type" : "_ZTIN3fmt2v79monostateE",
   "self_type" : "_ZTIN3fmt2v79monostateE",
   "size" : 1,
   "source_file" : "external/fmtlib/include/fmt/core.h"
  },
  {
   "alignment" : 1,
   "linker_set_key" : "_ZTIN7android4base10unexpect_tE",
   "name" : "android::base::unexpect_t",
   "referenced_type" : "_ZTIN7android4base10unexpect_tE",
   "self_type" : "_ZTIN7android4base10unexpect_tE",
   "size" : 1,
   "source_file" : "system/libbase/include/android-base/expected.h"
  },
  {
   "alignment" : 8,
   "fields" :
   [
    {
     "access" : "private",
     "field_name" : "val_",
     "referenced_type" : "_ZTIN7android4base11ResultErrorE"
    }
   ],
   "linker_set_key" : "_ZTIN7android4base10unexpectedINS0_11ResultErrorEEE",
   "name" : "android::base::unexpected<android::base::ResultError>",
   "record_kind" : "class",
   "referenced_type" : "_ZTIN7android4base10unexpectedINS0_11ResultErrorEEE",
   "self_type" : "_ZTIN7android4base10unexpectedINS0_11ResultErrorEEE",
   "size" : 32,
   "source_file" : "system/libbase/include/android-base/expected.h",
   "template_args" : [ "_ZTIN7android4base11ResultErrorE" ]
  },
  {
   "alignment" : 8,
   "fields" :
   [
    {
     "access" : "private",
     "field_name" : "message_",
     "referenced_type" : "_ZTINSt3__112basic_stringIcNS_11char_traitsIcEENS_9allocatorIcEEEE"
    },
    {
     "access" : "private",
     "field_name" : "code_",
     "field_offset" : 192,
     "referenced_type" : "_ZTIi"
    }
   ],
   "linker_set_key" : "_ZTIN7android4base11ResultErrorE",
   "name" : "android::base::ResultError",
   "referenced_type" : "_ZTIN7android4base11ResultErrorE",
   "self_type" : "_ZTIN7android4base11ResultErrorE",
   "size" : 32,
   "source_file" : "system/libbase/include/android-base/result.h"
  },
  {
   "alignment" : 8,
   "fields" :
   [
    {
     "access" : "private",
     "field_name" : "ss_",
     "referenced_type" : "_ZTINSt3__118basic_stringstreamIcNS_11char_traitsIcEENS_9allocatorIcEEEE"
    },
    {
     "access" : "private",
     "field_name" : "errno_",
     "field_offset" : 2240,
     "referenced_type" : "_ZTIi"
    },
    {
     "access" : "private",
     "field_name" : "append_errno_",
     "field_offset" : 2272,
     "referenced_type" : "_ZTIKb"
    }
   ],
   "linker_set_key" : "_ZTIN7android4base5ErrorE",
   "name" : "android::base::Error",
   "record_kind" : "class",
   "referenced_type" : "_ZTIN7android4base5ErrorE",
   "self_type" : "_ZTIN7android4base5ErrorE",
   "size" : 288,
   "source_file" : "system/libbase/include/android-base/result.h"
  },
  {
   "alignment" : 8,
   "fields" :
   [
    {
     "access" : "private",
     "field_name" : "var_",
     "referenced_type" : "_ZTINSt3__17variantIJNS_9monostateEN7android4base10unexpectedINS3_11ResultErrorEEEEEE"
    }
   ],
   "linker_set_key" : "_ZTIN7android4base8expectedIvNS0_11ResultErrorEEE",
   "name" : "android::base::expected<void, android::base::ResultError>",
   "record_kind" : "class",
   "referenced_type" : "_ZTIN7android4base8expectedIvNS0_11ResultErrorEEE",
   "self_type" : "_ZTIN7android4base8expectedIvNS0_11ResultErrorEEE",
   "size" : 40,
   "source_file" : "system/libbase/include/android-base/expected.h",
   "template_args" : [ "_ZTIv", "_ZTIN7android4base11ResultErrorE" ]
  },
  {
   "alignment" : 4,
   "fields" :
   [
    {
     "access" : "private",
     "field_name" : "mFd",
     "referenced_type" : "_ZTIi"
    }
   ],
   "linker_set_key" : "_ZTIN7android9netdutils2FdE",
   "name" : "android::netdutils::Fd",
   "record_kind" : "class",
   "referenced_type" : "_ZTIN7android9netdutils2FdE",
   "self_type" : "_ZTIN7android9netdutils2FdE",
   "size" : 4,
   "source_file" : "system/netd/libnetdutils/include/netdutils/Fd.h"
  },
  {
   "alignment" : 8,
   "fields" :
   [
    {
     "access" : "private",
     "field_name" : "mCode",
     "referenced_type" : "_ZTIi"
    },
    {
     "access" : "private",
     "field_name" : "mMsg",
     "field_offset" : 64,
     "referenced_type" : "_ZTINSt3__112basic_stringIcNS_11char_traitsIcEENS_9allocatorIcEEEE"
    }
   ],
   "linker_set_key" : "_ZTIN7android9netdutils6StatusE",
   "name" : "android::netdutils::Status",
   "record_kind" : "class",
   "referenced_type" : "_ZTIN7android9netdutils6StatusE",
   "self_type" : "_ZTIN7android9netdutils6StatusE",
   "size" : 32,
   "source_file" : "system/netd/libnetdutils/include/netdutils/Status.h"
  },
  {
   "alignment" : 1,
   "fields" :
   [
    {
     "field_name" : "data",
     "referenced_type" : "_ZTIA4_c"
    }
   ],
   "linker_set_key" : "_ZTIZN3fmt2v76detail13is_big_endianEvE5bytes",
   "name" : "bytes",
   "referenced_type" : "_ZTIZN3fmt2v76detail13is_big_endianEvE5bytes",
   "self_type" : "_ZTIZN3fmt2v76detail13is_big_endianEvE5bytes",
   "size" : 4,
   "source_file" : "external/fmtlib/include/fmt/format.h"
  },
  {
   "alignment" : 8,
   "fields" :
   [
    {
     "field_name" : "time_",
     "referenced_type" : "_ZTIl"
    },
    {
     "field_name" : "tm_",
     "field_offset" : 64,
     "referenced_type" : "_ZTI2tm"
    }
   ],
   "linker_set_key" : "_ZTIZN3fmt2v76gmtimeElE10dispatcher",
   "name" : "dispatcher",
   "referenced_type" : "_ZTIZN3fmt2v76gmtimeElE10dispatcher",
   "self_type" : "_ZTIZN3fmt2v76gmtimeElE10dispatcher",
   "size" : 64,
   "source_file" : "external/fmtlib/include/fmt/chrono.h"
  },
  {
   "alignment" : 8,
   "fields" :
   [
    {
     "field_name" : "time_",
     "referenced_type" : "_ZTIl"
    },
    {
     "field_name" : "tm_",
     "field_offset" : 64,
     "referenced_type" : "_ZTI2tm"
    }
   ],
   "linker_set_key" : "_ZTIZN3fmt2v79localtimeElE10dispatcher",
   "name" : "dispatcher",
   "referenced_type" : "_ZTIZN3fmt2v79localtimeElE10dispatcher",
   "self_type" : "_ZTIZN3fmt2v79localtimeElE10dispatcher",
   "size" : 64,
   "source_file" : "external/fmtlib/include/fmt/chrono.h"
  }
 ],
 "rvalue_reference_types" :
 [
  {
   "alignment" : 8,
   "linker_set_key" : "_ZTION3fmt2v712format_errorE",
   "name" : "fmt::format_error &&",
   "referenced_type" : "_ZTIN3fmt2v712format_errorE",
   "self_type" : "_ZTION3fmt2v712format_errorE",
   "size" : 8,
   "source_file" : "external/fmtlib/include/fmt/format.h"
  },
  {
   "alignment" : 8,
   "linker_set_key" : "_ZTION3fmt2v712system_errorE",
   "name" : "fmt::system_error &&",
   "referenced_type" : "_ZTIN3fmt2v712system_errorE",
   "self_type" : "_ZTION3fmt2v712system_errorE",
   "size" : 8,
   "source_file" : "external/fmtlib/include/fmt/format.h"
  },
  {
   "alignment" : 8,
   "linker_set_key" : "_ZTION7android4base10unexpectedINS0_11ResultErrorEEE",
   "name" : "android::base::unexpected<android::base::ResultError> &&",
   "referenced_type" : "_ZTIN7android4base10unexpectedINS0_11ResultErrorEEE",
   "self_type" : "_ZTION7android4base10unexpectedINS0_11ResultErrorEEE",
   "size" : 8,
   "source_file" : "system/libbase/include/android-base/expected.h"
  },
  {
   "alignment" : 8,
   "linker_set_key" : "_ZTION7android4base11ResultErrorE",
   "name" : "android::base::ResultError &&",
   "referenced_type" : "_ZTIN7android4base11ResultErrorE",
   "self_type" : "_ZTION7android4base11ResultErrorE",
   "size" : 8,
   "source_file" : "system/libbase/include/android-base/expected.h"
  },
  {
   "alignment" : 8,
   "linker_set_key" : "_ZTION7android4base8expectedIvNS0_11ResultErrorEEE",
   "name" : "android::base::expected<void, android::base::ResultError> &&",
   "referenced_type" : "_ZTIN7android4base8expectedIvNS0_11ResultErrorEEE",
   "self_type" : "_ZTION7android4base8expectedIvNS0_11ResultErrorEEE",
   "size" : 8,
   "source_file" : "system/libbase/include/android-base/expected.h"
  }
 ]
}
