{
 "array_types" :
 [
  {
   "alignment" : 2,
   "linker_set_key" : "_ZTIA16_Ds",
   "name" : "char16_t [16]",
   "referenced_type" : "_ZTIDs",
   "self_type" : "_ZTIA16_Ds",
   "size" : 32,
   "source_file" : "external/icu/icu4c/source/common/unicode/parseerr.h"
  },
  {
   "alignment" : 1,
   "linker_set_key" : "_ZTIA4_h",
   "name" : "unsigned char [4]",
   "referenced_type" : "_ZTIh",
   "self_type" : "_ZTIA4_h",
   "size" : 4,
   "source_file" : "external/icu/icu4c/source/common/unicode/udata.h"
  },
  {
   "alignment" : 2,
   "linker_set_key" : "_ZTIA8_t",
   "name" : "unsigned short [8]",
   "referenced_type" : "_ZTIt",
   "self_type" : "_ZTIA8_t",
   "size" : 16,
   "source_file" : "external/icu/icu4c/source/common/unicode/uset.h"
  },
  {
   "linker_set_key" : "_ZTIA_h",
   "name" : "unsigned char []",
   "referenced_type" : "_ZTIh",
   "self_type" : "_ZTIA_h",
   "source_file" : "external/icu/icu4c/source/common/unicode/utf_old.h"
  }
 ],
 "builtin_types" :
 [
  {
   "alignment" : 2,
   "is_integral" : true,
   "is_unsigned" : true,
   "linker_set_key" : "_ZTIDs",
   "name" : "char16_t",
   "referenced_type" : "_ZTIDs",
   "self_type" : "_ZTIDs",
   "size" : 2
  },
  {
   "alignment" : 1,
   "is_integral" : true,
   "linker_set_key" : "_ZTIa",
   "name" : "signed char",
   "referenced_type" : "_ZTIa",
   "self_type" : "_ZTIa",
   "size" : 1
  },
  {
   "alignment" : 1,
   "is_integral" : true,
   "is_unsigned" : true,
   "linker_set_key" : "_ZTIc",
   "name" : "char",
   "referenced_type" : "_ZTIc",
   "self_type" : "_ZTIc",
   "size" : 1
  },
  {
   "alignment" : 8,
   "linker_set_key" : "_ZTId",
   "name" : "double",
   "referenced_type" : "_ZTId",
   "self_type" : "_ZTId",
   "size" : 8
  },
  {
   "alignment" : 16,
   "linker_set_key" : "_ZTIe",
   "name" : "long double",
   "referenced_type" : "_ZTIe",
   "self_type" : "_ZTIe",
   "size" : 16
  },
  {
   "alignment" : 1,
   "is_integral" : true,
   "is_unsigned" : true,
   "linker_set_key" : "_ZTIh",
   "name" : "unsigned char",
   "referenced_type" : "_ZTIh",
   "self_type" : "_ZTIh",
   "size" : 1
  },
  {
   "alignment" : 4,
   "is_integral" : true,
   "linker_set_key" : "_ZTIi",
   "name" : "int",
   "referenced_type" : "_ZTIi",
   "self_type" : "_ZTIi",
   "size" : 4
  },
  {
   "alignment" : 4,
   "is_integral" : true,
   "is_unsigned" : true,
   "linker_set_key" : "_ZTIj",
   "name" : "unsigned int",
   "referenced_type" : "_ZTIj",
   "self_type" : "_ZTIj",
   "size" : 4
  },
  {
   "alignment" : 8,
   "is_integral" : true,
   "linker_set_key" : "_ZTIl",
   "name" : "long",
   "referenced_type" : "_ZTIl",
   "self_type" : "_ZTIl",
   "size" : 8
  },
  {
   "alignment" : 2,
   "is_integral" : true,
   "linker_set_key" : "_ZTIs",
   "name" : "short",
   "referenced_type" : "_ZTIs",
   "self_type" : "_ZTIs",
   "size" : 2
  },
  {
   "alignment" : 2,
   "is_integral" : true,
   "is_unsigned" : true,
   "linker_set_key" : "_ZTIt",
   "name" : "unsigned short",
   "referenced_type" : "_ZTIt",
   "self_type" : "_ZTIt",
   "size" : 2
  },
  {
   "linker_set_key" : "_ZTIv",
   "name" : "void",
   "referenced_type" : "_ZTIv",
   "self_type" : "_ZTIv"
  },
  {
   "alignment" : 8,
   "is_integral" : true,
   "linker_set_key" : "_ZTIx",
   "name" : "long long",
   "referenced_type" : "_ZTIx",
   "self_type" : "_ZTIx",
   "size" : 8
  }
 ],
 "elf_functions" : [],
 "elf_objects" : [],
 "enum_types" :
 [
  {
   "alignment" : 4,
   "enum_fields" :
   [
    {
     "enum_field_value" : 0,
     "name" : "UBIDI_LOGICAL"
    },
    {
     "enum_field_value" : 1,
     "name" : "UBIDI_VISUAL"
    }
   ],
   "linker_set_key" : "_ZTI10UBiDiOrder",
   "name" : "UBiDiOrder",
   "referenced_type" : "_ZTI10UBiDiOrder",
   "self_type" : "_ZTI10UBiDiOrder",
   "size" : 4,
   "source_file" : "external/icu/icu4c/source/common/unicode/ubiditransform.h",
   "underlying_type" : "_ZTIj"
  },
  {
   "alignment" : 4,
   "enum_fields" :
   [
    {
     "enum_field_value" : 0,
     "name" : "UBLOCK_NO_BLOCK"
    },
    {
     "enum_field_value" : 1,
     "name" : "UBLOCK_BASIC_LATIN"
    },
    {
     "enum_field_value" : 2,
     "name" : "UBLOCK_LATIN_1_SUPPLEMENT"
    },
    {
     "enum_field_value" : 3,
     "name" : "UBLOCK_LATIN_EXTENDED_A"
    },
    {
     "enum_field_value" : 4,
     "name" : "UBLOCK_LATIN_EXTENDED_B"
    },
    {
     "enum_field_value" : 5,
     "name" : "UBLOCK_IPA_EXTENSIONS"
    },
    {
     "enum_field_value" : 6,
     "name" : "UBLOCK_SPACING_MODIFIER_LETTERS"
    },
    {
     "enum_field_value" : 7,
     "name" : "UBLOCK_COMBINING_DIACRITICAL_MARKS"
    },
    {
     "enum_field_value" : 8,
     "name" : "UBLOCK_GREEK"
    },
    {
     "enum_field_value" : 9,
     "name" : "UBLOCK_CYRILLIC"
    },
    {
     "enum_field_value" : 10,
     "name" : "UBLOCK_ARMENIAN"
    },
    {
     "enum_field_value" : 11,
     "name" : "UBLOCK_HEBREW"
    },
    {
     "enum_field_value" : 12,
     "name" : "UBLOCK_ARABIC"
    },
    {
     "enum_field_value" : 13,
     "name" : "UBLOCK_SYRIAC"
    },
    {
     "enum_field_value" : 14,
     "name" : "UBLOCK_THAANA"
    },
    {
     "enum_field_value" : 15,
     "name" : "UBLOCK_DEVANAGARI"
    },
    {
     "enum_field_value" : 16,
     "name" : "UBLOCK_BENGALI"
    },
    {
     "enum_field_value" : 17,
     "name" : "UBLOCK_GURMUKHI"
    },
    {
     "enum_field_value" : 18,
     "name" : "UBLOCK_GUJARATI"
    },
    {
     "enum_field_value" : 19,
     "name" : "UBLOCK_ORIYA"
    },
    {
     "enum_field_value" : 20,
     "name" : "UBLOCK_TAMIL"
    },
    {
     "enum_field_value" : 21,
     "name" : "UBLOCK_TELUGU"
    },
    {
     "enum_field_value" : 22,
     "name" : "UBLOCK_KANNADA"
    },
    {
     "enum_field_value" : 23,
     "name" : "UBLOCK_MALAYALAM"
    },
    {
     "enum_field_value" : 24,
     "name" : "UBLOCK_SINHALA"
    },
    {
     "enum_field_value" : 25,
     "name" : "UBLOCK_THAI"
    },
    {
     "enum_field_value" : 26,
     "name" : "UBLOCK_LAO"
    },
    {
     "enum_field_value" : 27,
     "name" : "UBLOCK_TIBETAN"
    },
    {
     "enum_field_value" : 28,
     "name" : "UBLOCK_MYANMAR"
    },
    {
     "enum_field_value" : 29,
     "name" : "UBLOCK_GEORGIAN"
    },
    {
     "enum_field_value" : 30,
     "name" : "UBLOCK_HANGUL_JAMO"
    },
    {
     "enum_field_value" : 31,
     "name" : "UBLOCK_ETHIOPIC"
    },
    {
     "enum_field_value" : 32,
     "name" : "UBLOCK_CHEROKEE"
    },
    {
     "enum_field_value" : 33,
     "name" : "UBLOCK_UNIFIED_CANADIAN_ABORIGINAL_SYLLABICS"
    },
    {
     "enum_field_value" : 34,
     "name" : "UBLOCK_OGHAM"
    },
    {
     "enum_field_value" : 35,
     "name" : "UBLOCK_RUNIC"
    },
    {
     "enum_field_value" : 36,
     "name" : "UBLOCK_KHMER"
    },
    {
     "enum_field_value" : 37,
     "name" : "UBLOCK_MONGOLIAN"
    },
    {
     "enum_field_value" : 38,
     "name" : "UBLOCK_LATIN_EXTENDED_ADDITIONAL"
    },
    {
     "enum_field_value" : 39,
     "name" : "UBLOCK_GREEK_EXTENDED"
    },
    {
     "enum_field_value" : 40,
     "name" : "UBLOCK_GENERAL_PUNCTUATION"
    },
    {
     "enum_field_value" : 41,
     "name" : "UBLOCK_SUPERSCRIPTS_AND_SUBSCRIPTS"
    },
    {
     "enum_field_value" : 42,
     "name" : "UBLOCK_CURRENCY_SYMBOLS"
    },
    {
     "enum_field_value" : 43,
     "name" : "UBLOCK_COMBINING_MARKS_FOR_SYMBOLS"
    },
    {
     "enum_field_value" : 44,
     "name" : "UBLOCK_LETTERLIKE_SYMBOLS"
    },
    {
     "enum_field_value" : 45,
     "name" : "UBLOCK_NUMBER_FORMS"
    },
    {
     "enum_field_value" : 46,
     "name" : "UBLOCK_ARROWS"
    },
    {
     "enum_field_value" : 47,
     "name" : "UBLOCK_MATHEMATICAL_OPERATORS"
    },
    {
     "enum_field_value" : 48,
     "name" : "UBLOCK_MISCELLANEOUS_TECHNICAL"
    },
    {
     "enum_field_value" : 49,
     "name" : "UBLOCK_CONTROL_PICTURES"
    },
    {
     "enum_field_value" : 50,
     "name" : "UBLOCK_OPTICAL_CHARACTER_RECOGNITION"
    },
    {
     "enum_field_value" : 51,
     "name" : "UBLOCK_ENCLOSED_ALPHANUMERICS"
    },
    {
     "enum_field_value" : 52,
     "name" : "UBLOCK_BOX_DRAWING"
    },
    {
     "enum_field_value" : 53,
     "name" : "UBLOCK_BLOCK_ELEMENTS"
    },
    {
     "enum_field_value" : 54,
     "name" : "UBLOCK_GEOMETRIC_SHAPES"
    },
    {
     "enum_field_value" : 55,
     "name" : "UBLOCK_MISCELLANEOUS_SYMBOLS"
    },
    {
     "enum_field_value" : 56,
     "name" : "UBLOCK_DINGBATS"
    },
    {
     "enum_field_value" : 57,
     "name" : "UBLOCK_BRAILLE_PATTERNS"
    },
    {
     "enum_field_value" : 58,
     "name" : "UBLOCK_CJK_RADICALS_SUPPLEMENT"
    },
    {
     "enum_field_value" : 59,
     "name" : "UBLOCK_KANGXI_RADICALS"
    },
    {
     "enum_field_value" : 60,
     "name" : "UBLOCK_IDEOGRAPHIC_DESCRIPTION_CHARACTERS"
    },
    {
     "enum_field_value" : 61,
     "name" : "UBLOCK_CJK_SYMBOLS_AND_PUNCTUATION"
    },
    {
     "enum_field_value" : 62,
     "name" : "UBLOCK_HIRAGANA"
    },
    {
     "enum_field_value" : 63,
     "name" : "UBLOCK_KATAKANA"
    },
    {
     "enum_field_value" : 64,
     "name" : "UBLOCK_BOPOMOFO"
    },
    {
     "enum_field_value" : 65,
     "name" : "UBLOCK_HANGUL_COMPATIBILITY_JAMO"
    },
    {
     "enum_field_value" : 66,
     "name" : "UBLOCK_KANBUN"
    },
    {
     "enum_field_value" : 67,
     "name" : "UBLOCK_BOPOMOFO_EXTENDED"
    },
    {
     "enum_field_value" : 68,
     "name" : "UBLOCK_ENCLOSED_CJK_LETTERS_AND_MONTHS"
    },
    {
     "enum_field_value" : 69,
     "name" : "UBLOCK_CJK_COMPATIBILITY"
    },
    {
     "enum_field_value" : 70,
     "name" : "UBLOCK_CJK_UNIFIED_IDEOGRAPHS_EXTENSION_A"
    },
    {
     "enum_field_value" : 71,
     "name" : "UBLOCK_CJK_UNIFIED_IDEOGRAPHS"
    },
    {
     "enum_field_value" : 72,
     "name" : "UBLOCK_YI_SYLLABLES"
    },
    {
     "enum_field_value" : 73,
     "name" : "UBLOCK_YI_RADICALS"
    },
    {
     "enum_field_value" : 74,
     "name" : "UBLOCK_HANGUL_SYLLABLES"
    },
    {
     "enum_field_value" : 75,
     "name" : "UBLOCK_HIGH_SURROGATES"
    },
    {
     "enum_field_value" : 76,
     "name" : "UBLOCK_HIGH_PRIVATE_USE_SURROGATES"
    },
    {
     "enum_field_value" : 77,
     "name" : "UBLOCK_LOW_SURROGATES"
    },
    {
     "enum_field_value" : 78,
     "name" : "UBLOCK_PRIVATE_USE_AREA"
    },
    {
     "enum_field_value" : 78,
     "name" : "UBLOCK_PRIVATE_USE"
    },
    {
     "enum_field_value" : 79,
     "name" : "UBLOCK_CJK_COMPATIBILITY_IDEOGRAPHS"
    },
    {
     "enum_field_value" : 80,
     "name" : "UBLOCK_ALPHABETIC_PRESENTATION_FORMS"
    },
    {
     "enum_field_value" : 81,
     "name" : "UBLOCK_ARABIC_PRESENTATION_FORMS_A"
    },
    {
     "enum_field_value" : 82,
     "name" : "UBLOCK_COMBINING_HALF_MARKS"
    },
    {
     "enum_field_value" : 83,
     "name" : "UBLOCK_CJK_COMPATIBILITY_FORMS"
    },
    {
     "enum_field_value" : 84,
     "name" : "UBLOCK_SMALL_FORM_VARIANTS"
    },
    {
     "enum_field_value" : 85,
     "name" : "UBLOCK_ARABIC_PRESENTATION_FORMS_B"
    },
    {
     "enum_field_value" : 86,
     "name" : "UBLOCK_SPECIALS"
    },
    {
     "enum_field_value" : 87,
     "name" : "UBLOCK_HALFWIDTH_AND_FULLWIDTH_FORMS"
    },
    {
     "enum_field_value" : 88,
     "name" : "UBLOCK_OLD_ITALIC"
    },
    {
     "enum_field_value" : 89,
     "name" : "UBLOCK_GOTHIC"
    },
    {
     "enum_field_value" : 90,
     "name" : "UBLOCK_DESERET"
    },
    {
     "enum_field_value" : 91,
     "name" : "UBLOCK_BYZANTINE_MUSICAL_SYMBOLS"
    },
    {
     "enum_field_value" : 92,
     "name" : "UBLOCK_MUSICAL_SYMBOLS"
    },
    {
     "enum_field_value" : 93,
     "name" : "UBLOCK_MATHEMATICAL_ALPHANUMERIC_SYMBOLS"
    },
    {
     "enum_field_value" : 94,
     "name" : "UBLOCK_CJK_UNIFIED_IDEOGRAPHS_EXTENSION_B"
    },
    {
     "enum_field_value" : 95,
     "name" : "UBLOCK_CJK_COMPATIBILITY_IDEOGRAPHS_SUPPLEMENT"
    },
    {
     "enum_field_value" : 96,
     "name" : "UBLOCK_TAGS"
    },
    {
     "enum_field_value" : 97,
     "name" : "UBLOCK_CYRILLIC_SUPPLEMENT"
    },
    {
     "enum_field_value" : 97,
     "name" : "UBLOCK_CYRILLIC_SUPPLEMENTARY"
    },
    {
     "enum_field_value" : 98,
     "name" : "UBLOCK_TAGALOG"
    },
    {
     "enum_field_value" : 99,
     "name" : "UBLOCK_HANUNOO"
    },
    {
     "enum_field_value" : 100,
     "name" : "UBLOCK_BUHID"
    },
    {
     "enum_field_value" : 101,
     "name" : "UBLOCK_TAGBANWA"
    },
    {
     "enum_field_value" : 102,
     "name" : "UBLOCK_MISCELLANEOUS_MATHEMATICAL_SYMBOLS_A"
    },
    {
     "enum_field_value" : 103,
     "name" : "UBLOCK_SUPPLEMENTAL_ARROWS_A"
    },
    {
     "enum_field_value" : 104,
     "name" : "UBLOCK_SUPPLEMENTAL_ARROWS_B"
    },
    {
     "enum_field_value" : 105,
     "name" : "UBLOCK_MISCELLANEOUS_MATHEMATICAL_SYMBOLS_B"
    },
    {
     "enum_field_value" : 106,
     "name" : "UBLOCK_SUPPLEMENTAL_MATHEMATICAL_OPERATORS"
    },
    {
     "enum_field_value" : 107,
     "name" : "UBLOCK_KATAKANA_PHONETIC_EXTENSIONS"
    },
    {
     "enum_field_value" : 108,
     "name" : "UBLOCK_VARIATION_SELECTORS"
    },
    {
     "enum_field_value" : 109,
     "name" : "UBLOCK_SUPPLEMENTARY_PRIVATE_USE_AREA_A"
    },
    {
     "enum_field_value" : 110,
     "name" : "UBLOCK_SUPPLEMENTARY_PRIVATE_USE_AREA_B"
    },
    {
     "enum_field_value" : 111,
     "name" : "UBLOCK_LIMBU"
    },
    {
     "enum_field_value" : 112,
     "name" : "UBLOCK_TAI_LE"
    },
    {
     "enum_field_value" : 113,
     "name" : "UBLOCK_KHMER_SYMBOLS"
    },
    {
     "enum_field_value" : 114,
     "name" : "UBLOCK_PHONETIC_EXTENSIONS"
    },
    {
     "enum_field_value" : 115,
     "name" : "UBLOCK_MISCELLANEOUS_SYMBOLS_AND_ARROWS"
    },
    {
     "enum_field_value" : 116,
     "name" : "UBLOCK_YIJING_HEXAGRAM_SYMBOLS"
    },
    {
     "enum_field_value" : 117,
     "name" : "UBLOCK_LINEAR_B_SYLLABARY"
    },
    {
     "enum_field_value" : 118,
     "name" : "UBLOCK_LINEAR_B_IDEOGRAMS"
    },
    {
     "enum_field_value" : 119,
     "name" : "UBLOCK_AEGEAN_NUMBERS"
    },
    {
     "enum_field_value" : 120,
     "name" : "UBLOCK_UGARITIC"
    },
    {
     "enum_field_value" : 121,
     "name" : "UBLOCK_SHAVIAN"
    },
    {
     "enum_field_value" : 122,
     "name" : "UBLOCK_OSMANYA"
    },
    {
     "enum_field_value" : 123,
     "name" : "UBLOCK_CYPRIOT_SYLLABARY"
    },
    {
     "enum_field_value" : 124,
     "name" : "UBLOCK_TAI_XUAN_JING_SYMBOLS"
    },
    {
     "enum_field_value" : 125,
     "name" : "UBLOCK_VARIATION_SELECTORS_SUPPLEMENT"
    },
    {
     "enum_field_value" : 126,
     "name" : "UBLOCK_ANCIENT_GREEK_MUSICAL_NOTATION"
    },
    {
     "enum_field_value" : 127,
     "name" : "UBLOCK_ANCIENT_GREEK_NUMBERS"
    },
    {
     "enum_field_value" : 128,
     "name" : "UBLOCK_ARABIC_SUPPLEMENT"
    },
    {
     "enum_field_value" : 129,
     "name" : "UBLOCK_BUGINESE"
    },
    {
     "enum_field_value" : 130,
     "name" : "UBLOCK_CJK_STROKES"
    },
    {
     "enum_field_value" : 131,
     "name" : "UBLOCK_COMBINING_DIACRITICAL_MARKS_SUPPLEMENT"
    },
    {
     "enum_field_value" : 132,
     "name" : "UBLOCK_COPTIC"
    },
    {
     "enum_field_value" : 133,
     "name" : "UBLOCK_ETHIOPIC_EXTENDED"
    },
    {
     "enum_field_value" : 134,
     "name" : "UBLOCK_ETHIOPIC_SUPPLEMENT"
    },
    {
     "enum_field_value" : 135,
     "name" : "UBLOCK_GEORGIAN_SUPPLEMENT"
    },
    {
     "enum_field_value" : 136,
     "name" : "UBLOCK_GLAGOLITIC"
    },
    {
     "enum_field_value" : 137,
     "name" : "UBLOCK_KHAROSHTHI"
    },
    {
     "enum_field_value" : 138,
     "name" : "UBLOCK_MODIFIER_TONE_LETTERS"
    },
    {
     "enum_field_value" : 139,
     "name" : "UBLOCK_NEW_TAI_LUE"
    },
    {
     "enum_field_value" : 140,
     "name" : "UBLOCK_OLD_PERSIAN"
    },
    {
     "enum_field_value" : 141,
     "name" : "UBLOCK_PHONETIC_EXTENSIONS_SUPPLEMENT"
    },
    {
     "enum_field_value" : 142,
     "name" : "UBLOCK_SUPPLEMENTAL_PUNCTUATION"
    },
    {
     "enum_field_value" : 143,
     "name" : "UBLOCK_SYLOTI_NAGRI"
    },
    {
     "enum_field_value" : 144,
     "name" : "UBLOCK_TIFINAGH"
    },
    {
     "enum_field_value" : 145,
     "name" : "UBLOCK_VERTICAL_FORMS"
    },
    {
     "enum_field_value" : 146,
     "name" : "UBLOCK_NKO"
    },
    {
     "enum_field_value" : 147,
     "name" : "UBLOCK_BALINESE"
    },
    {
     "enum_field_value" : 148,
     "name" : "UBLOCK_LATIN_EXTENDED_C"
    },
    {
     "enum_field_value" : 149,
     "name" : "UBLOCK_LATIN_EXTENDED_D"
    },
    {
     "enum_field_value" : 150,
     "name" : "UBLOCK_PHAGS_PA"
    },
    {
     "enum_field_value" : 151,
     "name" : "UBLOCK_PHOENICIAN"
    },
    {
     "enum_field_value" : 152,
     "name" : "UBLOCK_CUNEIFORM"
    },
    {
     "enum_field_value" : 153,
     "name" : "UBLOCK_CUNEIFORM_NUMBERS_AND_PUNCTUATION"
    },
    {
     "enum_field_value" : 154,
     "name" : "UBLOCK_COUNTING_ROD_NUMERALS"
    },
    {
     "enum_field_value" : 155,
     "name" : "UBLOCK_SUNDANESE"
    },
    {
     "enum_field_value" : 156,
     "name" : "UBLOCK_LEPCHA"
    },
    {
     "enum_field_value" : 157,
     "name" : "UBLOCK_OL_CHIKI"
    },
    {
     "enum_field_value" : 158,
     "name" : "UBLOCK_CYRILLIC_EXTENDED_A"
    },
    {
     "enum_field_value" : 159,
     "name" : "UBLOCK_VAI"
    },
    {
     "enum_field_value" : 160,
     "name" : "UBLOCK_CYRILLIC_EXTENDED_B"
    },
    {
     "enum_field_value" : 161,
     "name" : "UBLOCK_SAURASHTRA"
    },
    {
     "enum_field_value" : 162,
     "name" : "UBLOCK_KAYAH_LI"
    },
    {
     "enum_field_value" : 163,
     "name" : "UBLOCK_REJANG"
    },
    {
     "enum_field_value" : 164,
     "name" : "UBLOCK_CHAM"
    },
    {
     "enum_field_value" : 165,
     "name" : "UBLOCK_ANCIENT_SYMBOLS"
    },
    {
     "enum_field_value" : 166,
     "name" : "UBLOCK_PHAISTOS_DISC"
    },
    {
     "enum_field_value" : 167,
     "name" : "UBLOCK_LYCIAN"
    },
    {
     "enum_field_value" : 168,
     "name" : "UBLOCK_CARIAN"
    },
    {
     "enum_field_value" : 169,
     "name" : "UBLOCK_LYDIAN"
    },
    {
     "enum_field_value" : 170,
     "name" : "UBLOCK_MAHJONG_TILES"
    },
    {
     "enum_field_value" : 171,
     "name" : "UBLOCK_DOMINO_TILES"
    },
    {
     "enum_field_value" : 172,
     "name" : "UBLOCK_SAMARITAN"
    },
    {
     "enum_field_value" : 173,
     "name" : "UBLOCK_UNIFIED_CANADIAN_ABORIGINAL_SYLLABICS_EXTENDED"
    },
    {
     "enum_field_value" : 174,
     "name" : "UBLOCK_TAI_THAM"
    },
    {
     "enum_field_value" : 175,
     "name" : "UBLOCK_VEDIC_EXTENSIONS"
    },
    {
     "enum_field_value" : 176,
     "name" : "UBLOCK_LISU"
    },
    {
     "enum_field_value" : 177,
     "name" : "UBLOCK_BAMUM"
    },
    {
     "enum_field_value" : 178,
     "name" : "UBLOCK_COMMON_INDIC_NUMBER_FORMS"
    },
    {
     "enum_field_value" : 179,
     "name" : "UBLOCK_DEVANAGARI_EXTENDED"
    },
    {
     "enum_field_value" : 180,
     "name" : "UBLOCK_HANGUL_JAMO_EXTENDED_A"
    },
    {
     "enum_field_value" : 181,
     "name" : "UBLOCK_JAVANESE"
    },
    {
     "enum_field_value" : 182,
     "name" : "UBLOCK_MYANMAR_EXTENDED_A"
    },
    {
     "enum_field_value" : 183,
     "name" : "UBLOCK_TAI_VIET"
    },
    {
     "enum_field_value" : 184,
     "name" : "UBLOCK_MEETEI_MAYEK"
    },
    {
     "enum_field_value" : 185,
     "name" : "UBLOCK_HANGUL_JAMO_EXTENDED_B"
    },
    {
     "enum_field_value" : 186,
     "name" : "UBLOCK_IMPERIAL_ARAMAIC"
    },
    {
     "enum_field_value" : 187,
     "name" : "UBLOCK_OLD_SOUTH_ARABIAN"
    },
    {
     "enum_field_value" : 188,
     "name" : "UBLOCK_AVESTAN"
    },
    {
     "enum_field_value" : 189,
     "name" : "UBLOCK_INSCRIPTIONAL_PARTHIAN"
    },
    {
     "enum_field_value" : 190,
     "name" : "UBLOCK_INSCRIPTIONAL_PAHLAVI"
    },
    {
     "enum_field_value" : 191,
     "name" : "UBLOCK_OLD_TURKIC"
    },
    {
     "enum_field_value" : 192,
     "name" : "UBLOCK_RUMI_NUMERAL_SYMBOLS"
    },
    {
     "enum_field_value" : 193,
     "name" : "UBLOCK_KAITHI"
    },
    {
     "enum_field_value" : 194,
     "name" : "UBLOCK_EGYPTIAN_HIEROGLYPHS"
    },
    {
     "enum_field_value" : 195,
     "name" : "UBLOCK_ENCLOSED_ALPHANUMERIC_SUPPLEMENT"
    },
    {
     "enum_field_value" : 196,
     "name" : "UBLOCK_ENCLOSED_IDEOGRAPHIC_SUPPLEMENT"
    },
    {
     "enum_field_value" : 197,
     "name" : "UBLOCK_CJK_UNIFIED_IDEOGRAPHS_EXTENSION_C"
    },
    {
     "enum_field_value" : 198,
     "name" : "UBLOCK_MANDAIC"
    },
    {
     "enum_field_value" : 199,
     "name" : "UBLOCK_BATAK"
    },
    {
     "enum_field_value" : 200,
     "name" : "UBLOCK_ETHIOPIC_EXTENDED_A"
    },
    {
     "enum_field_value" : 201,
     "name" : "UBLOCK_BRAHMI"
    },
    {
     "enum_field_value" : 202,
     "name" : "UBLOCK_BAMUM_SUPPLEMENT"
    },
    {
     "enum_field_value" : 203,
     "name" : "UBLOCK_KANA_SUPPLEMENT"
    },
    {
     "enum_field_value" : 204,
     "name" : "UBLOCK_PLAYING_CARDS"
    },
    {
     "enum_field_value" : 205,
     "name" : "UBLOCK_MISCELLANEOUS_SYMBOLS_AND_PICTOGRAPHS"
    },
    {
     "enum_field_value" : 206,
     "name" : "UBLOCK_EMOTICONS"
    },
    {
     "enum_field_value" : 207,
     "name" : "UBLOCK_TRANSPORT_AND_MAP_SYMBOLS"
    },
    {
     "enum_field_value" : 208,
     "name" : "UBLOCK_ALCHEMICAL_SYMBOLS"
    },
    {
     "enum_field_value" : 209,
     "name" : "UBLOCK_CJK_UNIFIED_IDEOGRAPHS_EXTENSION_D"
    },
    {
     "enum_field_value" : 210,
     "name" : "UBLOCK_ARABIC_EXTENDED_A"
    },
    {
     "enum_field_value" : 211,
     "name" : "UBLOCK_ARABIC_MATHEMATICAL_ALPHABETIC_SYMBOLS"
    },
    {
     "enum_field_value" : 212,
     "name" : "UBLOCK_CHAKMA"
    },
    {
     "enum_field_value" : 213,
     "name" : "UBLOCK_MEETEI_MAYEK_EXTENSIONS"
    },
    {
     "enum_field_value" : 214,
     "name" : "UBLOCK_MEROITIC_CURSIVE"
    },
    {
     "enum_field_value" : 215,
     "name" : "UBLOCK_MEROITIC_HIEROGLYPHS"
    },
    {
     "enum_field_value" : 216,
     "name" : "UBLOCK_MIAO"
    },
    {
     "enum_field_value" : 217,
     "name" : "UBLOCK_SHARADA"
    },
    {
     "enum_field_value" : 218,
     "name" : "UBLOCK_SORA_SOMPENG"
    },
    {
     "enum_field_value" : 219,
     "name" : "UBLOCK_SUNDANESE_SUPPLEMENT"
    },
    {
     "enum_field_value" : 220,
     "name" : "UBLOCK_TAKRI"
    },
    {
     "enum_field_value" : 221,
     "name" : "UBLOCK_BASSA_VAH"
    },
    {
     "enum_field_value" : 222,
     "name" : "UBLOCK_CAUCASIAN_ALBANIAN"
    },
    {
     "enum_field_value" : 223,
     "name" : "UBLOCK_COPTIC_EPACT_NUMBERS"
    },
    {
     "enum_field_value" : 224,
     "name" : "UBLOCK_COMBINING_DIACRITICAL_MARKS_EXTENDED"
    },
    {
     "enum_field_value" : 225,
     "name" : "UBLOCK_DUPLOYAN"
    },
    {
     "enum_field_value" : 226,
     "name" : "UBLOCK_ELBASAN"
    },
    {
     "enum_field_value" : 227,
     "name" : "UBLOCK_GEOMETRIC_SHAPES_EXTENDED"
    },
    {
     "enum_field_value" : 228,
     "name" : "UBLOCK_GRANTHA"
    },
    {
     "enum_field_value" : 229,
     "name" : "UBLOCK_KHOJKI"
    },
    {
     "enum_field_value" : 230,
     "name" : "UBLOCK_KHUDAWADI"
    },
    {
     "enum_field_value" : 231,
     "name" : "UBLOCK_LATIN_EXTENDED_E"
    },
    {
     "enum_field_value" : 232,
     "name" : "UBLOCK_LINEAR_A"
    },
    {
     "enum_field_value" : 233,
     "name" : "UBLOCK_MAHAJANI"
    },
    {
     "enum_field_value" : 234,
     "name" : "UBLOCK_MANICHAEAN"
    },
    {
     "enum_field_value" : 235,
     "name" : "UBLOCK_MENDE_KIKAKUI"
    },
    {
     "enum_field_value" : 236,
     "name" : "UBLOCK_MODI"
    },
    {
     "enum_field_value" : 237,
     "name" : "UBLOCK_MRO"
    },
    {
     "enum_field_value" : 238,
     "name" : "UBLOCK_MYANMAR_EXTENDED_B"
    },
    {
     "enum_field_value" : 239,
     "name" : "UBLOCK_NABATAEAN"
    },
    {
     "enum_field_value" : 240,
     "name" : "UBLOCK_OLD_NORTH_ARABIAN"
    },
    {
     "enum_field_value" : 241,
     "name" : "UBLOCK_OLD_PERMIC"
    },
    {
     "enum_field_value" : 242,
     "name" : "UBLOCK_ORNAMENTAL_DINGBATS"
    },
    {
     "enum_field_value" : 243,
     "name" : "UBLOCK_PAHAWH_HMONG"
    },
    {
     "enum_field_value" : 244,
     "name" : "UBLOCK_PALMYRENE"
    },
    {
     "enum_field_value" : 245,
     "name" : "UBLOCK_PAU_CIN_HAU"
    },
    {
     "enum_field_value" : 246,
     "name" : "UBLOCK_PSALTER_PAHLAVI"
    },
    {
     "enum_field_value" : 247,
     "name" : "UBLOCK_SHORTHAND_FORMAT_CONTROLS"
    },
    {
     "enum_field_value" : 248,
     "name" : "UBLOCK_SIDDHAM"
    },
    {
     "enum_field_value" : 249,
     "name" : "UBLOCK_SINHALA_ARCHAIC_NUMBERS"
    },
    {
     "enum_field_value" : 250,
     "name" : "UBLOCK_SUPPLEMENTAL_ARROWS_C"
    },
    {
     "enum_field_value" : 251,
     "name" : "UBLOCK_TIRHUTA"
    },
    {
     "enum_field_value" : 252,
     "name" : "UBLOCK_WARANG_CITI"
    },
    {
     "enum_field_value" : 253,
     "name" : "UBLOCK_AHOM"
    },
    {
     "enum_field_value" : 254,
     "name" : "UBLOCK_ANATOLIAN_HIEROGLYPHS"
    },
    {
     "enum_field_value" : 255,
     "name" : "UBLOCK_CHEROKEE_SUPPLEMENT"
    },
    {
     "enum_field_value" : 256,
     "name" : "UBLOCK_CJK_UNIFIED_IDEOGRAPHS_EXTENSION_E"
    },
    {
     "enum_field_value" : 257,
     "name" : "UBLOCK_EARLY_DYNASTIC_CUNEIFORM"
    },
    {
     "enum_field_value" : 258,
     "name" : "UBLOCK_HATRAN"
    },
    {
     "enum_field_value" : 259,
     "name" : "UBLOCK_MULTANI"
    },
    {
     "enum_field_value" : 260,
     "name" : "UBLOCK_OLD_HUNGARIAN"
    },
    {
     "enum_field_value" : 261,
     "name" : "UBLOCK_SUPPLEMENTAL_SYMBOLS_AND_PICTOGRAPHS"
    },
    {
     "enum_field_value" : 262,
     "name" : "UBLOCK_SUTTON_SIGNWRITING"
    },
    {
     "enum_field_value" : 263,
     "name" : "UBLOCK_ADLAM"
    },
    {
     "enum_field_value" : 264,
     "name" : "UBLOCK_BHAIKSUKI"
    },
    {
     "enum_field_value" : 265,
     "name" : "UBLOCK_CYRILLIC_EXTENDED_C"
    },
    {
     "enum_field_value" : 266,
     "name" : "UBLOCK_GLAGOLITIC_SUPPLEMENT"
    },
    {
     "enum_field_value" : 267,
     "name" : "UBLOCK_IDEOGRAPHIC_SYMBOLS_AND_PUNCTUATION"
    },
    {
     "enum_field_value" : 268,
     "name" : "UBLOCK_MARCHEN"
    },
    {
     "enum_field_value" : 269,
     "name" : "UBLOCK_MONGOLIAN_SUPPLEMENT"
    },
    {
     "enum_field_value" : 270,
     "name" : "UBLOCK_NEWA"
    },
    {
     "enum_field_value" : 271,
     "name" : "UBLOCK_OSAGE"
    },
    {
     "enum_field_value" : 272,
     "name" : "UBLOCK_TANGUT"
    },
    {
     "enum_field_value" : 273,
     "name" : "UBLOCK_TANGUT_COMPONENTS"
    },
    {
     "enum_field_value" : 274,
     "name" : "UBLOCK_CJK_UNIFIED_IDEOGRAPHS_EXTENSION_F"
    },
    {
     "enum_field_value" : 275,
     "name" : "UBLOCK_KANA_EXTENDED_A"
    },
    {
     "enum_field_value" : 276,
     "name" : "UBLOCK_MASARAM_GONDI"
    },
    {
     "enum_field_value" : 277,
     "name" : "UBLOCK_NUSHU"
    },
    {
     "enum_field_value" : 278,
     "name" : "UBLOCK_SOYOMBO"
    },
    {
     "enum_field_value" : 279,
     "name" : "UBLOCK_SYRIAC_SUPPLEMENT"
    },
    {
     "enum_field_value" : 280,
     "name" : "UBLOCK_ZANABAZAR_SQUARE"
    },
    {
     "enum_field_value" : 281,
     "name" : "UBLOCK_CHESS_SYMBOLS"
    },
    {
     "enum_field_value" : 282,
     "name" : "UBLOCK_DOGRA"
    },
    {
     "enum_field_value" : 283,
     "name" : "UBLOCK_GEORGIAN_EXTENDED"
    },
    {
     "enum_field_value" : 284,
     "name" : "UBLOCK_GUNJALA_GONDI"
    },
    {
     "enum_field_value" : 285,
     "name" : "UBLOCK_HANIFI_ROHINGYA"
    },
    {
     "enum_field_value" : 286,
     "name" : "UBLOCK_INDIC_SIYAQ_NUMBERS"
    },
    {
     "enum_field_value" : 287,
     "name" : "UBLOCK_MAKASAR"
    },
    {
     "enum_field_value" : 288,
     "name" : "UBLOCK_MAYAN_NUMERALS"
    },
    {
     "enum_field_value" : 289,
     "name" : "UBLOCK_MEDEFAIDRIN"
    },
    {
     "enum_field_value" : 290,
     "name" : "UBLOCK_OLD_SOGDIAN"
    },
    {
     "enum_field_value" : 291,
     "name" : "UBLOCK_SOGDIAN"
    },
    {
     "enum_field_value" : 292,
     "name" : "UBLOCK_EGYPTIAN_HIEROGLYPH_FORMAT_CONTROLS"
    },
    {
     "enum_field_value" : 293,
     "name" : "UBLOCK_ELYMAIC"
    },
    {
     "enum_field_value" : 294,
     "name" : "UBLOCK_NANDINAGARI"
    },
    {
     "enum_field_value" : 295,
     "name" : "UBLOCK_NYIAKENG_PUACHUE_HMONG"
    },
    {
     "enum_field_value" : 296,
     "name" : "UBLOCK_OTTOMAN_SIYAQ_NUMBERS"
    },
    {
     "enum_field_value" : 297,
     "name" : "UBLOCK_SMALL_KANA_EXTENSION"
    },
    {
     "enum_field_value" : 298,
     "name" : "UBLOCK_SYMBOLS_AND_PICTOGRAPHS_EXTENDED_A"
    },
    {
     "enum_field_value" : 299,
     "name" : "UBLOCK_TAMIL_SUPPLEMENT"
    },
    {
     "enum_field_value" : 300,
     "name" : "UBLOCK_WANCHO"
    },
    {
     "enum_field_value" : 301,
     "name" : "UBLOCK_CHORASMIAN"
    },
    {
     "enum_field_value" : 302,
     "name" : "UBLOCK_CJK_UNIFIED_IDEOGRAPHS_EXTENSION_G"
    },
    {
     "enum_field_value" : 303,
     "name" : "UBLOCK_DIVES_AKURU"
    },
    {
     "enum_field_value" : 304,
     "name" : "UBLOCK_KHITAN_SMALL_SCRIPT"
    },
    {
     "enum_field_value" : 305,
     "name" : "UBLOCK_LISU_SUPPLEMENT"
    },
    {
     "enum_field_value" : 306,
     "name" : "UBLOCK_SYMBOLS_FOR_LEGACY_COMPUTING"
    },
    {
     "enum_field_value" : 307,
     "name" : "UBLOCK_TANGUT_SUPPLEMENT"
    },
    {
     "enum_field_value" : 308,
     "name" : "UBLOCK_YEZIDI"
    },
    {
     "enum_field_value" : 309,
     "name" : "UBLOCK_COUNT"
    },
    {
     "enum_field_value" : -1,
     "name" : "UBLOCK_INVALID_CODE"
    }
   ],
   "linker_set_key" : "_ZTI10UBlockCode",
   "name" : "UBlockCode",
   "referenced_type" : "_ZTI10UBlockCode",
   "self_type" : "_ZTI10UBlockCode",
   "size" : 4,
   "source_file" : "external/icu/icu4c/source/common/unicode/uchar.h",
   "underlying_type" : "_ZTIi"
  },
  {
   "alignment" : 4,
   "enum_fields" :
   [
    {
     "enum_field_value" : -128,
     "name" : "U_USING_FALLBACK_WARNING"
    },
    {
     "enum_field_value" : -128,
     "name" : "U_ERROR_WARNING_START"
    },
    {
     "enum_field_value" : -127,
     "name" : "U_USING_DEFAULT_WARNING"
    },
    {
     "enum_field_value" : -126,
     "name" : "U_SAFECLONE_ALLOCATED_WARNING"
    },
    {
     "enum_field_value" : -125,
     "name" : "U_STATE_OLD_WARNING"
    },
    {
     "enum_field_value" : -124,
     "name" : "U_STRING_NOT_TERMINATED_WARNING"
    },
    {
     "enum_field_value" : -123,
     "name" : "U_SORT_KEY_TOO_SHORT_WARNING"
    },
    {
     "enum_field_value" : -122,
     "name" : "U_AMBIGUOUS_ALIAS_WARNING"
    },
    {
     "enum_field_value" : -121,
     "name" : "U_DIFFERENT_UCA_VERSION"
    },
    {
     "enum_field_value" : -120,
     "name" : "U_PLUGIN_CHANGED_LEVEL_WARNING"
    },
    {
     "enum_field_value" : -119,
     "name" : "U_ERROR_WARNING_LIMIT"
    },
    {
     "enum_field_value" : 0,
     "name" : "U_ZERO_ERROR"
    },
    {
     "enum_field_value" : 1,
     "name" : "U_ILLEGAL_ARGUMENT_ERROR"
    },
    {
     "enum_field_value" : 2,
     "name" : "U_MISSING_RESOURCE_ERROR"
    },
    {
     "enum_field_value" : 3,
     "name" : "U_INVALID_FORMAT_ERROR"
    },
    {
     "enum_field_value" : 4,
     "name" : "U_FILE_ACCESS_ERROR"
    },
    {
     "enum_field_value" : 5,
     "name" : "U_INTERNAL_PROGRAM_ERROR"
    },
    {
     "enum_field_value" : 6,
     "name" : "U_MESSAGE_PARSE_ERROR"
    },
    {
     "enum_field_value" : 7,
     "name" : "U_MEMORY_ALLOCATION_ERROR"
    },
    {
     "enum_field_value" : 8,
     "name" : "U_INDEX_OUTOFBOUNDS_ERROR"
    },
    {
     "enum_field_value" : 9,
     "name" : "U_PARSE_ERROR"
    },
    {
     "enum_field_value" : 10,
     "name" : "U_INVALID_CHAR_FOUND"
    },
    {
     "enum_field_value" : 11,
     "name" : "U_TRUNCATED_CHAR_FOUND"
    },
    {
     "enum_field_value" : 12,
     "name" : "U_ILLEGAL_CHAR_FOUND"
    },
    {
     "enum_field_value" : 13,
     "name" : "U_INVALID_TABLE_FORMAT"
    },
    {
     "enum_field_value" : 14,
     "name" : "U_INVALID_TABLE_FILE"
    },
    {
     "enum_field_value" : 15,
     "name" : "U_BUFFER_OVERFLOW_ERROR"
    },
    {
     "enum_field_value" : 16,
     "name" : "U_UNSUPPORTED_ERROR"
    },
    {
     "enum_field_value" : 17,
     "name" : "U_RESOURCE_TYPE_MISMATCH"
    },
    {
     "enum_field_value" : 18,
     "name" : "U_ILLEGAL_ESCAPE_SEQUENCE"
    },
    {
     "enum_field_value" : 19,
     "name" : "U_UNSUPPORTED_ESCAPE_SEQUENCE"
    },
    {
     "enum_field_value" : 20,
     "name" : "U_NO_SPACE_AVAILABLE"
    },
    {
     "enum_field_value" : 21,
     "name" : "U_CE_NOT_FOUND_ERROR"
    },
    {
     "enum_field_value" : 22,
     "name" : "U_PRIMARY_TOO_LONG_ERROR"
    },
    {
     "enum_field_value" : 23,
     "name" : "U_STATE_TOO_OLD_ERROR"
    },
    {
     "enum_field_value" : 24,
     "name" : "U_TOO_MANY_ALIASES_ERROR"
    },
    {
     "enum_field_value" : 25,
     "name" : "U_ENUM_OUT_OF_SYNC_ERROR"
    },
    {
     "enum_field_value" : 26,
     "name" : "U_INVARIANT_CONVERSION_ERROR"
    },
    {
     "enum_field_value" : 27,
     "name" : "U_INVALID_STATE_ERROR"
    },
    {
     "enum_field_value" : 28,
     "name" : "U_COLLATOR_VERSION_MISMATCH"
    },
    {
     "enum_field_value" : 29,
     "name" : "U_USELESS_COLLATOR_ERROR"
    },
    {
     "enum_field_value" : 30,
     "name" : "U_NO_WRITE_PERMISSION"
    },
    {
     "enum_field_value" : 31,
     "name" : "U_INPUT_TOO_LONG_ERROR"
    },
    {
     "enum_field_value" : 32,
     "name" : "U_STANDARD_ERROR_LIMIT"
    },
    {
     "enum_field_value" : 65536,
     "name" : "U_BAD_VARIABLE_DEFINITION"
    },
    {
     "enum_field_value" : 65536,
     "name" : "U_PARSE_ERROR_START"
    },
    {
     "enum_field_value" : 65537,
     "name" : "U_MALFORMED_RULE"
    },
    {
     "enum_field_value" : 65538,
     "name" : "U_MALFORMED_SET"
    },
    {
     "enum_field_value" : 65539,
     "name" : "U_MALFORMED_SYMBOL_REFERENCE"
    },
    {
     "enum_field_value" : 65540,
     "name" : "U_MALFORMED_UNICODE_ESCAPE"
    },
    {
     "enum_field_value" : 65541,
     "name" : "U_MALFORMED_VARIABLE_DEFINITION"
    },
    {
     "enum_field_value" : 65542,
     "name" : "U_MALFORMED_VARIABLE_REFERENCE"
    },
    {
     "enum_field_value" : 65543,
     "name" : "U_MISMATCHED_SEGMENT_DELIMITERS"
    },
    {
     "enum_field_value" : 65544,
     "name" : "U_MISPLACED_ANCHOR_START"
    },
    {
     "enum_field_value" : 65545,
     "name" : "U_MISPLACED_CURSOR_OFFSET"
    },
    {
     "enum_field_value" : 65546,
     "name" : "U_MISPLACED_QUANTIFIER"
    },
    {
     "enum_field_value" : 65547,
     "name" : "U_MISSING_OPERATOR"
    },
    {
     "enum_field_value" : 65548,
     "name" : "U_MISSING_SEGMENT_CLOSE"
    },
    {
     "enum_field_value" : 65549,
     "name" : "U_MULTIPLE_ANTE_CONTEXTS"
    },
    {
     "enum_field_value" : 65550,
     "name" : "U_MULTIPLE_CURSORS"
    },
    {
     "enum_field_value" : 65551,
     "name" : "U_MULTIPLE_POST_CONTEXTS"
    },
    {
     "enum_field_value" : 65552,
     "name" : "U_TRAILING_BACKSLASH"
    },
    {
     "enum_field_value" : 65553,
     "name" : "U_UNDEFINED_SEGMENT_REFERENCE"
    },
    {
     "enum_field_value" : 65554,
     "name" : "U_UNDEFINED_VARIABLE"
    },
    {
     "enum_field_value" : 65555,
     "name" : "U_UNQUOTED_SPECIAL"
    },
    {
     "enum_field_value" : 65556,
     "name" : "U_UNTERMINATED_QUOTE"
    },
    {
     "enum_field_value" : 65557,
     "name" : "U_RULE_MASK_ERROR"
    },
    {
     "enum_field_value" : 65558,
     "name" : "U_MISPLACED_COMPOUND_FILTER"
    },
    {
     "enum_field_value" : 65559,
     "name" : "U_MULTIPLE_COMPOUND_FILTERS"
    },
    {
     "enum_field_value" : 65560,
     "name" : "U_INVALID_RBT_SYNTAX"
    },
    {
     "enum_field_value" : 65561,
     "name" : "U_INVALID_PROPERTY_PATTERN"
    },
    {
     "enum_field_value" : 65562,
     "name" : "U_MALFORMED_PRAGMA"
    },
    {
     "enum_field_value" : 65563,
     "name" : "U_UNCLOSED_SEGMENT"
    },
    {
     "enum_field_value" : 65564,
     "name" : "U_ILLEGAL_CHAR_IN_SEGMENT"
    },
    {
     "enum_field_value" : 65565,
     "name" : "U_VARIABLE_RANGE_EXHAUSTED"
    },
    {
     "enum_field_value" : 65566,
     "name" : "U_VARIABLE_RANGE_OVERLAP"
    },
    {
     "enum_field_value" : 65567,
     "name" : "U_ILLEGAL_CHARACTER"
    },
    {
     "enum_field_value" : 65568,
     "name" : "U_INTERNAL_TRANSLITERATOR_ERROR"
    },
    {
     "enum_field_value" : 65569,
     "name" : "U_INVALID_ID"
    },
    {
     "enum_field_value" : 65570,
     "name" : "U_INVALID_FUNCTION"
    },
    {
     "enum_field_value" : 65571,
     "name" : "U_PARSE_ERROR_LIMIT"
    },
    {
     "enum_field_value" : 65792,
     "name" : "U_UNEXPECTED_TOKEN"
    },
    {
     "enum_field_value" : 65792,
     "name" : "U_FMT_PARSE_ERROR_START"
    },
    {
     "enum_field_value" : 65793,
     "name" : "U_MULTIPLE_DECIMAL_SEPARATORS"
    },
    {
     "enum_field_value" : 65793,
     "name" : "U_MULTIPLE_DECIMAL_SEPERATORS"
    },
    {
     "enum_field_value" : 65794,
     "name" : "U_MULTIPLE_EXPONENTIAL_SYMBOLS"
    },
    {
     "enum_field_value" : 65795,
     "name" : "U_MALFORMED_EXPONENTIAL_PATTERN"
    },
    {
     "enum_field_value" : 65796,
     "name" : "U_MULTIPLE_PERCENT_SYMBOLS"
    },
    {
     "enum_field_value" : 65797,
     "name" : "U_MULTIPLE_PERMILL_SYMBOLS"
    },
    {
     "enum_field_value" : 65798,
     "name" : "U_MULTIPLE_PAD_SPECIFIERS"
    },
    {
     "enum_field_value" : 65799,
     "name" : "U_PATTERN_SYNTAX_ERROR"
    },
    {
     "enum_field_value" : 65800,
     "name" : "U_ILLEGAL_PAD_POSITION"
    },
    {
     "enum_field_value" : 65801,
     "name" : "U_UNMATCHED_BRACES"
    },
    {
     "enum_field_value" : 65802,
     "name" : "U_UNSUPPORTED_PROPERTY"
    },
    {
     "enum_field_value" : 65803,
     "name" : "U_UNSUPPORTED_ATTRIBUTE"
    },
    {
     "enum_field_value" : 65804,
     "name" : "U_ARGUMENT_TYPE_MISMATCH"
    },
    {
     "enum_field_value" : 65805,
     "name" : "U_DUPLICATE_KEYWORD"
    },
    {
     "enum_field_value" : 65806,
     "name" : "U_UNDEFINED_KEYWORD"
    },
    {
     "enum_field_value" : 65807,
     "name" : "U_DEFAULT_KEYWORD_MISSING"
    },
    {
     "enum_field_value" : 65808,
     "name" : "U_DECIMAL_NUMBER_SYNTAX_ERROR"
    },
    {
     "enum_field_value" : 65809,
     "name" : "U_FORMAT_INEXACT_ERROR"
    },
    {
     "enum_field_value" : 65810,
     "name" : "U_NUMBER_ARG_OUTOFBOUNDS_ERROR"
    },
    {
     "enum_field_value" : 65811,
     "name" : "U_NUMBER_SKELETON_SYNTAX_ERROR"
    },
    {
     "enum_field_value" : 65812,
     "name" : "U_FMT_PARSE_ERROR_LIMIT"
    },
    {
     "enum_field_value" : 66048,
     "name" : "U_BRK_INTERNAL_ERROR"
    },
    {
     "enum_field_value" : 66048,
     "name" : "U_BRK_ERROR_START"
    },
    {
     "enum_field_value" : 66049,
     "name" : "U_BRK_HEX_DIGITS_EXPECTED"
    },
    {
     "enum_field_value" : 66050,
     "name" : "U_BRK_SEMICOLON_EXPECTED"
    },
    {
     "enum_field_value" : 66051,
     "name" : "U_BRK_RULE_SYNTAX"
    },
    {
     "enum_field_value" : 66052,
     "name" : "U_BRK_UNCLOSED_SET"
    },
    {
     "enum_field_value" : 66053,
     "name" : "U_BRK_ASSIGN_ERROR"
    },
    {
     "enum_field_value" : 66054,
     "name" : "U_BRK_VARIABLE_REDFINITION"
    },
    {
     "enum_field_value" : 66055,
     "name" : "U_BRK_MISMATCHED_PAREN"
    },
    {
     "enum_field_value" : 66056,
     "name" : "U_BRK_NEW_LINE_IN_QUOTED_STRING"
    },
    {
     "enum_field_value" : 66057,
     "name" : "U_BRK_UNDEFINED_VARIABLE"
    },
    {
     "enum_field_value" : 66058,
     "name" : "U_BRK_INIT_ERROR"
    },
    {
     "enum_field_value" : 66059,
     "name" : "U_BRK_RULE_EMPTY_SET"
    },
    {
     "enum_field_value" : 66060,
     "name" : "U_BRK_UNRECOGNIZED_OPTION"
    },
    {
     "enum_field_value" : 66061,
     "name" : "U_BRK_MALFORMED_RULE_TAG"
    },
    {
     "enum_field_value" : 66062,
     "name" : "U_BRK_ERROR_LIMIT"
    },
    {
     "enum_field_value" : 66304,
     "name" : "U_REGEX_INTERNAL_ERROR"
    },
    {
     "enum_field_value" : 66304,
     "name" : "U_REGEX_ERROR_START"
    },
    {
     "enum_field_value" : 66305,
     "name" : "U_REGEX_RULE_SYNTAX"
    },
    {
     "enum_field_value" : 66306,
     "name" : "U_REGEX_INVALID_STATE"
    },
    {
     "enum_field_value" : 66307,
     "name" : "U_REGEX_BAD_ESCAPE_SEQUENCE"
    },
    {
     "enum_field_value" : 66308,
     "name" : "U_REGEX_PROPERTY_SYNTAX"
    },
    {
     "enum_field_value" : 66309,
     "name" : "U_REGEX_UNIMPLEMENTED"
    },
    {
     "enum_field_value" : 66310,
     "name" : "U_REGEX_MISMATCHED_PAREN"
    },
    {
     "enum_field_value" : 66311,
     "name" : "U_REGEX_NUMBER_TOO_BIG"
    },
    {
     "enum_field_value" : 66312,
     "name" : "U_REGEX_BAD_INTERVAL"
    },
    {
     "enum_field_value" : 66313,
     "name" : "U_REGEX_MAX_LT_MIN"
    },
    {
     "enum_field_value" : 66314,
     "name" : "U_REGEX_INVALID_BACK_REF"
    },
    {
     "enum_field_value" : 66315,
     "name" : "U_REGEX_INVALID_FLAG"
    },
    {
     "enum_field_value" : 66316,
     "name" : "U_REGEX_LOOK_BEHIND_LIMIT"
    },
    {
     "enum_field_value" : 66317,
     "name" : "U_REGEX_SET_CONTAINS_STRING"
    },
    {
     "enum_field_value" : 66318,
     "name" : "U_REGEX_OCTAL_TOO_BIG"
    },
    {
     "enum_field_value" : 66319,
     "name" : "U_REGEX_MISSING_CLOSE_BRACKET"
    },
    {
     "enum_field_value" : 66320,
     "name" : "U_REGEX_INVALID_RANGE"
    },
    {
     "enum_field_value" : 66321,
     "name" : "U_REGEX_STACK_OVERFLOW"
    },
    {
     "enum_field_value" : 66322,
     "name" : "U_REGEX_TIME_OUT"
    },
    {
     "enum_field_value" : 66323,
     "name" : "U_REGEX_STOPPED_BY_CALLER"
    },
    {
     "enum_field_value" : 66324,
     "name" : "U_REGEX_PATTERN_TOO_BIG"
    },
    {
     "enum_field_value" : 66325,
     "name" : "U_REGEX_INVALID_CAPTURE_GROUP_NAME"
    },
    {
     "enum_field_value" : 66326,
     "name" : "U_REGEX_ERROR_LIMIT"
    },
    {
     "enum_field_value" : 66560,
     "name" : "U_IDNA_PROHIBITED_ERROR"
    },
    {
     "enum_field_value" : 66560,
     "name" : "U_IDNA_ERROR_START"
    },
    {
     "enum_field_value" : 66561,
     "name" : "U_IDNA_UNASSIGNED_ERROR"
    },
    {
     "enum_field_value" : 66562,
     "name" : "U_IDNA_CHECK_BIDI_ERROR"
    },
    {
     "enum_field_value" : 66563,
     "name" : "U_IDNA_STD3_ASCII_RULES_ERROR"
    },
    {
     "enum_field_value" : 66564,
     "name" : "U_IDNA_ACE_PREFIX_ERROR"
    },
    {
     "enum_field_value" : 66565,
     "name" : "U_IDNA_VERIFICATION_ERROR"
    },
    {
     "enum_field_value" : 66566,
     "name" : "U_IDNA_LABEL_TOO_LONG_ERROR"
    },
    {
     "enum_field_value" : 66567,
     "name" : "U_IDNA_ZERO_LENGTH_LABEL_ERROR"
    },
    {
     "enum_field_value" : 66568,
     "name" : "U_IDNA_DOMAIN_NAME_TOO_LONG_ERROR"
    },
    {
     "enum_field_value" : 66569,
     "name" : "U_IDNA_ERROR_LIMIT"
    },
    {
     "enum_field_value" : 66560,
     "name" : "U_STRINGPREP_PROHIBITED_ERROR"
    },
    {
     "enum_field_value" : 66561,
     "name" : "U_STRINGPREP_UNASSIGNED_ERROR"
    },
    {
     "enum_field_value" : 66562,
     "name" : "U_STRINGPREP_CHECK_BIDI_ERROR"
    },
    {
     "enum_field_value" : 66816,
     "name" : "U_PLUGIN_ERROR_START"
    },
    {
     "enum_field_value" : 66816,
     "name" : "U_PLUGIN_TOO_HIGH"
    },
    {
     "enum_field_value" : 66817,
     "name" : "U_PLUGIN_DIDNT_SET_LEVEL"
    },
    {
     "enum_field_value" : 66818,
     "name" : "U_PLUGIN_ERROR_LIMIT"
    },
    {
     "enum_field_value" : 66818,
     "name" : "U_ERROR_LIMIT"
    }
   ],
   "linker_set_key" : "_ZTI10UErrorCode",
   "name" : "UErrorCode",
   "referenced_type" : "_ZTI10UErrorCode",
   "self_type" : "_ZTI10UErrorCode",
   "size" : 4,
   "source_file" : "external/icu/icu4c/source/common/unicode/utypes.h",
   "underlying_type" : "_ZTIi"
  },
  {
   "alignment" : 4,
   "enum_fields" :
   [
    {
     "enum_field_value" : 0,
     "name" : "U_LB_UNKNOWN"
    },
    {
     "enum_field_value" : 1,
     "name" : "U_LB_AMBIGUOUS"
    },
    {
     "enum_field_value" : 2,
     "name" : "U_LB_ALPHABETIC"
    },
    {
     "enum_field_value" : 3,
     "name" : "U_LB_BREAK_BOTH"
    },
    {
     "enum_field_value" : 4,
     "name" : "U_LB_BREAK_AFTER"
    },
    {
     "enum_field_value" : 5,
     "name" : "U_LB_BREAK_BEFORE"
    },
    {
     "enum_field_value" : 6,
     "name" : "U_LB_MANDATORY_BREAK"
    },
    {
     "enum_field_value" : 7,
     "name" : "U_LB_CONTINGENT_BREAK"
    },
    {
     "enum_field_value" : 8,
     "name" : "U_LB_CLOSE_PUNCTUATION"
    },
    {
     "enum_field_value" : 9,
     "name" : "U_LB_COMBINING_MARK"
    },
    {
     "enum_field_value" : 10,
     "name" : "U_LB_CARRIAGE_RETURN"
    },
    {
     "enum_field_value" : 11,
     "name" : "U_LB_EXCLAMATION"
    },
    {
     "enum_field_value" : 12,
     "name" : "U_LB_GLUE"
    },
    {
     "enum_field_value" : 13,
     "name" : "U_LB_HYPHEN"
    },
    {
     "enum_field_value" : 14,
     "name" : "U_LB_IDEOGRAPHIC"
    },
    {
     "enum_field_value" : 15,
     "name" : "U_LB_INSEPARABLE"
    },
    {
     "enum_field_value" : 15,
     "name" : "U_LB_INSEPERABLE"
    },
    {
     "enum_field_value" : 16,
     "name" : "U_LB_INFIX_NUMERIC"
    },
    {
     "enum_field_value" : 17,
     "name" : "U_LB_LINE_FEED"
    },
    {
     "enum_field_value" : 18,
     "name" : "U_LB_NONSTARTER"
    },
    {
     "enum_field_value" : 19,
     "name" : "U_LB_NUMERIC"
    },
    {
     "enum_field_value" : 20,
     "name" : "U_LB_OPEN_PUNCTUATION"
    },
    {
     "enum_field_value" : 21,
     "name" : "U_LB_POSTFIX_NUMERIC"
    },
    {
     "enum_field_value" : 22,
     "name" : "U_LB_PREFIX_NUMERIC"
    },
    {
     "enum_field_value" : 23,
     "name" : "U_LB_QUOTATION"
    },
    {
     "enum_field_value" : 24,
     "name" : "U_LB_COMPLEX_CONTEXT"
    },
    {
     "enum_field_value" : 25,
     "name" : "U_LB_SURROGATE"
    },
    {
     "enum_field_value" : 26,
     "name" : "U_LB_SPACE"
    },
    {
     "enum_field_value" : 27,
     "name" : "U_LB_BREAK_SYMBOLS"
    },
    {
     "enum_field_value" : 28,
     "name" : "U_LB_ZWSPACE"
    },
    {
     "enum_field_value" : 29,
     "name" : "U_LB_NEXT_LINE"
    },
    {
     "enum_field_value" : 30,
     "name" : "U_LB_WORD_JOINER"
    },
    {
     "enum_field_value" : 31,
     "name" : "U_LB_H2"
    },
    {
     "enum_field_value" : 32,
     "name" : "U_LB_H3"
    },
    {
     "enum_field_value" : 33,
     "name" : "U_LB_JL"
    },
    {
     "enum_field_value" : 34,
     "name" : "U_LB_JT"
    },
    {
     "enum_field_value" : 35,
     "name" : "U_LB_JV"
    },
    {
     "enum_field_value" : 36,
     "name" : "U_LB_CLOSE_PARENTHESIS"
    },
    {
     "enum_field_value" : 37,
     "name" : "U_LB_CONDITIONAL_JAPANESE_STARTER"
    },
    {
     "enum_field_value" : 38,
     "name" : "U_LB_HEBREW_LETTER"
    },
    {
     "enum_field_value" : 39,
     "name" : "U_LB_REGIONAL_INDICATOR"
    },
    {
     "enum_field_value" : 40,
     "name" : "U_LB_E_BASE"
    },
    {
     "enum_field_value" : 41,
     "name" : "U_LB_E_MODIFIER"
    },
    {
     "enum_field_value" : 42,
     "name" : "U_LB_ZWJ"
    },
    {
     "enum_field_value" : 43,
     "name" : "U_LB_COUNT"
    }
   ],
   "linker_set_key" : "_ZTI10ULineBreak",
   "name" : "ULineBreak",
   "referenced_type" : "_ZTI10ULineBreak",
   "self_type" : "_ZTI10ULineBreak",
   "size" : 4,
   "source_file" : "external/icu/icu4c/source/common/unicode/uchar.h",
   "underlying_type" : "_ZTIj"
  },
  {
   "alignment" : 4,
   "enum_fields" :
   [
    {
     "enum_field_value" : 0,
     "name" : "UBRK_WORD_NONE"
    },
    {
     "enum_field_value" : 100,
     "name" : "UBRK_WORD_NONE_LIMIT"
    },
    {
     "enum_field_value" : 100,
     "name" : "UBRK_WORD_NUMBER"
    },
    {
     "enum_field_value" : 200,
     "name" : "UBRK_WORD_NUMBER_LIMIT"
    },
    {
     "enum_field_value" : 200,
     "name" : "UBRK_WORD_LETTER"
    },
    {
     "enum_field_value" : 300,
     "name" : "UBRK_WORD_LETTER_LIMIT"
    },
    {
     "enum_field_value" : 300,
     "name" : "UBRK_WORD_KANA"
    },
    {
     "enum_field_value" : 400,
     "name" : "UBRK_WORD_KANA_LIMIT"
    },
    {
     "enum_field_value" : 400,
     "name" : "UBRK_WORD_IDEO"
    },
    {
     "enum_field_value" : 500,
     "name" : "UBRK_WORD_IDEO_LIMIT"
    }
   ],
   "linker_set_key" : "_ZTI10UWordBreak",
   "name" : "UWordBreak",
   "referenced_type" : "_ZTI10UWordBreak",
   "self_type" : "_ZTI10UWordBreak",
   "size" : 4,
   "source_file" : "external/icu/icu4c/source/common/unicode/ubrk.h",
   "underlying_type" : "_ZTIj"
  },
  {
   "alignment" : 4,
   "enum_fields" :
   [
    {
     "enum_field_value" : -1,
     "name" : "UCPTRIE_TYPE_ANY"
    },
    {
     "enum_field_value" : 0,
     "name" : "UCPTRIE_TYPE_FAST"
    },
    {
     "enum_field_value" : 1,
     "name" : "UCPTRIE_TYPE_SMALL"
    }
   ],
   "linker_set_key" : "_ZTI11UCPTrieType",
   "name" : "UCPTrieType",
   "referenced_type" : "_ZTI11UCPTrieType",
   "self_type" : "_ZTI11UCPTrieType",
   "size" : 4,
   "source_file" : "external/icu/icu4c/source/common/unicode/ucptrie.h",
   "underlying_type" : "_ZTIi"
  },
  {
   "alignment" : 4,
   "enum_fields" :
   [
    {
     "enum_field_value" : 0,
     "name" : "ULOC_LAYOUT_LTR"
    },
    {
     "enum_field_value" : 1,
     "name" : "ULOC_LAYOUT_RTL"
    },
    {
     "enum_field_value" : 2,
     "name" : "ULOC_LAYOUT_TTB"
    },
    {
     "enum_field_value" : 3,
     "name" : "ULOC_LAYOUT_BTT"
    },
    {
     "enum_field_value" : 4,
     "name" : "ULOC_LAYOUT_UNKNOWN"
    }
   ],
   "linker_set_key" : "_ZTI11ULayoutType",
   "name" : "ULayoutType",
   "referenced_type" : "_ZTI11ULayoutType",
   "self_type" : "_ZTI11ULayoutType",
   "size" : 4,
   "source_file" : "external/icu/icu4c/source/common/unicode/uloc.h",
   "underlying_type" : "_ZTIj"
  },
  {
   "alignment" : 4,
   "enum_fields" :
   [
    {
     "enum_field_value" : 0,
     "name" : "UPLURAL_TYPE_CARDINAL"
    },
    {
     "enum_field_value" : 1,
     "name" : "UPLURAL_TYPE_ORDINAL"
    },
    {
     "enum_field_value" : 2,
     "name" : "UPLURAL_TYPE_COUNT"
    }
   ],
   "linker_set_key" : "_ZTI11UPluralType",
   "name" : "UPluralType",
   "referenced_type" : "_ZTI11UPluralType",
   "self_type" : "_ZTI11UPluralType",
   "size" : 4,
   "source_file" : "external/icu/icu4c/source/i18n/unicode/upluralrules.h",
   "underlying_type" : "_ZTIj"
  },
  {
   "alignment" : 4,
   "enum_fields" :
   [
    {
     "enum_field_value" : 128,
     "name" : "UREGEX_CANON_EQ"
    },
    {
     "enum_field_value" : 2,
     "name" : "UREGEX_CASE_INSENSITIVE"
    },
    {
     "enum_field_value" : 4,
     "name" : "UREGEX_COMMENTS"
    },
    {
     "enum_field_value" : 32,
     "name" : "UREGEX_DOTALL"
    },
    {
     "enum_field_value" : 16,
     "name" : "UREGEX_LITERAL"
    },
    {
     "enum_field_value" : 8,
     "name" : "UREGEX_MULTILINE"
    },
    {
     "enum_field_value" : 1,
     "name" : "UREGEX_UNIX_LINES"
    },
    {
     "enum_field_value" : 256,
     "name" : "UREGEX_UWORD"
    },
    {
     "enum_field_value" : 512,
     "name" : "UREGEX_ERROR_ON_UNKNOWN_ESCAPES"
    }
   ],
   "linker_set_key" : "_ZTI11URegexpFlag",
   "name" : "URegexpFlag",
   "referenced_type" : "_ZTI11URegexpFlag",
   "self_type" : "_ZTI11URegexpFlag",
   "size" : 4,
   "source_file" : "external/icu/icu4c/source/i18n/unicode/uregex.h",
   "underlying_type" : "_ZTIj"
  },
  {
   "alignment" : 4,
   "enum_fields" :
   [
    {
     "enum_field_value" : 0,
     "name" : "URGN_UNKNOWN"
    },
    {
     "enum_field_value" : 1,
     "name" : "URGN_TERRITORY"
    },
    {
     "enum_field_value" : 2,
     "name" : "URGN_WORLD"
    },
    {
     "enum_field_value" : 3,
     "name" : "URGN_CONTINENT"
    },
    {
     "enum_field_value" : 4,
     "name" : "URGN_SUBCONTINENT"
    },
    {
     "enum_field_value" : 5,
     "name" : "URGN_GROUPING"
    },
    {
     "enum_field_value" : 6,
     "name" : "URGN_DEPRECATED"
    },
    {
     "enum_field_value" : 7,
     "name" : "URGN_LIMIT"
    }
   ],
   "linker_set_key" : "_ZTI11URegionType",
   "name" : "URegionType",
   "referenced_type" : "_ZTI11URegionType",
   "self_type" : "_ZTI11URegionType",
   "size" : 4,
   "source_file" : "external/icu/icu4c/source/i18n/unicode/uregion.h",
   "underlying_type" : "_ZTIj"
  },
  {
   "alignment" : 4,
   "enum_fields" :
   [
    {
     "enum_field_value" : -1,
     "name" : "USCRIPT_INVALID_CODE"
    },
    {
     "enum_field_value" : 0,
     "name" : "USCRIPT_COMMON"
    },
    {
     "enum_field_value" : 1,
     "name" : "USCRIPT_INHERITED"
    },
    {
     "enum_field_value" : 2,
     "name" : "USCRIPT_ARABIC"
    },
    {
     "enum_field_value" : 3,
     "name" : "USCRIPT_ARMENIAN"
    },
    {
     "enum_field_value" : 4,
     "name" : "USCRIPT_BENGALI"
    },
    {
     "enum_field_value" : 5,
     "name" : "USCRIPT_BOPOMOFO"
    },
    {
     "enum_field_value" : 6,
     "name" : "USCRIPT_CHEROKEE"
    },
    {
     "enum_field_value" : 7,
     "name" : "USCRIPT_COPTIC"
    },
    {
     "enum_field_value" : 8,
     "name" : "USCRIPT_CYRILLIC"
    },
    {
     "enum_field_value" : 9,
     "name" : "USCRIPT_DESERET"
    },
    {
     "enum_field_value" : 10,
     "name" : "USCRIPT_DEVANAGARI"
    },
    {
     "enum_field_value" : 11,
     "name" : "USCRIPT_ETHIOPIC"
    },
    {
     "enum_field_value" : 12,
     "name" : "USCRIPT_GEORGIAN"
    },
    {
     "enum_field_value" : 13,
     "name" : "USCRIPT_GOTHIC"
    },
    {
     "enum_field_value" : 14,
     "name" : "USCRIPT_GREEK"
    },
    {
     "enum_field_value" : 15,
     "name" : "USCRIPT_GUJARATI"
    },
    {
     "enum_field_value" : 16,
     "name" : "USCRIPT_GURMUKHI"
    },
    {
     "enum_field_value" : 17,
     "name" : "USCRIPT_HAN"
    },
    {
     "enum_field_value" : 18,
     "name" : "USCRIPT_HANGUL"
    },
    {
     "enum_field_value" : 19,
     "name" : "USCRIPT_HEBREW"
    },
    {
     "enum_field_value" : 20,
     "name" : "USCRIPT_HIRAGANA"
    },
    {
     "enum_field_value" : 21,
     "name" : "USCRIPT_KANNADA"
    },
    {
     "enum_field_value" : 22,
     "name" : "USCRIPT_KATAKANA"
    },
    {
     "enum_field_value" : 23,
     "name" : "USCRIPT_KHMER"
    },
    {
     "enum_field_value" : 24,
     "name" : "USCRIPT_LAO"
    },
    {
     "enum_field_value" : 25,
     "name" : "USCRIPT_LATIN"
    },
    {
     "enum_field_value" : 26,
     "name" : "USCRIPT_MALAYALAM"
    },
    {
     "enum_field_value" : 27,
     "name" : "USCRIPT_MONGOLIAN"
    },
    {
     "enum_field_value" : 28,
     "name" : "USCRIPT_MYANMAR"
    },
    {
     "enum_field_value" : 29,
     "name" : "USCRIPT_OGHAM"
    },
    {
     "enum_field_value" : 30,
     "name" : "USCRIPT_OLD_ITALIC"
    },
    {
     "enum_field_value" : 31,
     "name" : "USCRIPT_ORIYA"
    },
    {
     "enum_field_value" : 32,
     "name" : "USCRIPT_RUNIC"
    },
    {
     "enum_field_value" : 33,
     "name" : "USCRIPT_SINHALA"
    },
    {
     "enum_field_value" : 34,
     "name" : "USCRIPT_SYRIAC"
    },
    {
     "enum_field_value" : 35,
     "name" : "USCRIPT_TAMIL"
    },
    {
     "enum_field_value" : 36,
     "name" : "USCRIPT_TELUGU"
    },
    {
     "enum_field_value" : 37,
     "name" : "USCRIPT_THAANA"
    },
    {
     "enum_field_value" : 38,
     "name" : "USCRIPT_THAI"
    },
    {
     "enum_field_value" : 39,
     "name" : "USCRIPT_TIBETAN"
    },
    {
     "enum_field_value" : 40,
     "name" : "USCRIPT_CANADIAN_ABORIGINAL"
    },
    {
     "enum_field_value" : 40,
     "name" : "USCRIPT_UCAS"
    },
    {
     "enum_field_value" : 41,
     "name" : "USCRIPT_YI"
    },
    {
     "enum_field_value" : 42,
     "name" : "USCRIPT_TAGALOG"
    },
    {
     "enum_field_value" : 43,
     "name" : "USCRIPT_HANUNOO"
    },
    {
     "enum_field_value" : 44,
     "name" : "USCRIPT_BUHID"
    },
    {
     "enum_field_value" : 45,
     "name" : "USCRIPT_TAGBANWA"
    },
    {
     "enum_field_value" : 46,
     "name" : "USCRIPT_BRAILLE"
    },
    {
     "enum_field_value" : 47,
     "name" : "USCRIPT_CYPRIOT"
    },
    {
     "enum_field_value" : 48,
     "name" : "USCRIPT_LIMBU"
    },
    {
     "enum_field_value" : 49,
     "name" : "USCRIPT_LINEAR_B"
    },
    {
     "enum_field_value" : 50,
     "name" : "USCRIPT_OSMANYA"
    },
    {
     "enum_field_value" : 51,
     "name" : "USCRIPT_SHAVIAN"
    },
    {
     "enum_field_value" : 52,
     "name" : "USCRIPT_TAI_LE"
    },
    {
     "enum_field_value" : 53,
     "name" : "USCRIPT_UGARITIC"
    },
    {
     "enum_field_value" : 54,
     "name" : "USCRIPT_KATAKANA_OR_HIRAGANA"
    },
    {
     "enum_field_value" : 55,
     "name" : "USCRIPT_BUGINESE"
    },
    {
     "enum_field_value" : 56,
     "name" : "USCRIPT_GLAGOLITIC"
    },
    {
     "enum_field_value" : 57,
     "name" : "USCRIPT_KHAROSHTHI"
    },
    {
     "enum_field_value" : 58,
     "name" : "USCRIPT_SYLOTI_NAGRI"
    },
    {
     "enum_field_value" : 59,
     "name" : "USCRIPT_NEW_TAI_LUE"
    },
    {
     "enum_field_value" : 60,
     "name" : "USCRIPT_TIFINAGH"
    },
    {
     "enum_field_value" : 61,
     "name" : "USCRIPT_OLD_PERSIAN"
    },
    {
     "enum_field_value" : 62,
     "name" : "USCRIPT_BALINESE"
    },
    {
     "enum_field_value" : 63,
     "name" : "USCRIPT_BATAK"
    },
    {
     "enum_field_value" : 64,
     "name" : "USCRIPT_BLISSYMBOLS"
    },
    {
     "enum_field_value" : 65,
     "name" : "USCRIPT_BRAHMI"
    },
    {
     "enum_field_value" : 66,
     "name" : "USCRIPT_CHAM"
    },
    {
     "enum_field_value" : 67,
     "name" : "USCRIPT_CIRTH"
    },
    {
     "enum_field_value" : 68,
     "name" : "USCRIPT_OLD_CHURCH_SLAVONIC_CYRILLIC"
    },
    {
     "enum_field_value" : 69,
     "name" : "USCRIPT_DEMOTIC_EGYPTIAN"
    },
    {
     "enum_field_value" : 70,
     "name" : "USCRIPT_HIERATIC_EGYPTIAN"
    },
    {
     "enum_field_value" : 71,
     "name" : "USCRIPT_EGYPTIAN_HIEROGLYPHS"
    },
    {
     "enum_field_value" : 72,
     "name" : "USCRIPT_KHUTSURI"
    },
    {
     "enum_field_value" : 73,
     "name" : "USCRIPT_SIMPLIFIED_HAN"
    },
    {
     "enum_field_value" : 74,
     "name" : "USCRIPT_TRADITIONAL_HAN"
    },
    {
     "enum_field_value" : 75,
     "name" : "USCRIPT_PAHAWH_HMONG"
    },
    {
     "enum_field_value" : 76,
     "name" : "USCRIPT_OLD_HUNGARIAN"
    },
    {
     "enum_field_value" : 77,
     "name" : "USCRIPT_HARAPPAN_INDUS"
    },
    {
     "enum_field_value" : 78,
     "name" : "USCRIPT_JAVANESE"
    },
    {
     "enum_field_value" : 79,
     "name" : "USCRIPT_KAYAH_LI"
    },
    {
     "enum_field_value" : 80,
     "name" : "USCRIPT_LATIN_FRAKTUR"
    },
    {
     "enum_field_value" : 81,
     "name" : "USCRIPT_LATIN_GAELIC"
    },
    {
     "enum_field_value" : 82,
     "name" : "USCRIPT_LEPCHA"
    },
    {
     "enum_field_value" : 83,
     "name" : "USCRIPT_LINEAR_A"
    },
    {
     "enum_field_value" : 84,
     "name" : "USCRIPT_MANDAIC"
    },
    {
     "enum_field_value" : 84,
     "name" : "USCRIPT_MANDAEAN"
    },
    {
     "enum_field_value" : 85,
     "name" : "USCRIPT_MAYAN_HIEROGLYPHS"
    },
    {
     "enum_field_value" : 86,
     "name" : "USCRIPT_MEROITIC_HIEROGLYPHS"
    },
    {
     "enum_field_value" : 86,
     "name" : "USCRIPT_MEROITIC"
    },
    {
     "enum_field_value" : 87,
     "name" : "USCRIPT_NKO"
    },
    {
     "enum_field_value" : 88,
     "name" : "USCRIPT_ORKHON"
    },
    {
     "enum_field_value" : 89,
     "name" : "USCRIPT_OLD_PERMIC"
    },
    {
     "enum_field_value" : 90,
     "name" : "USCRIPT_PHAGS_PA"
    },
    {
     "enum_field_value" : 91,
     "name" : "USCRIPT_PHOENICIAN"
    },
    {
     "enum_field_value" : 92,
     "name" : "USCRIPT_MIAO"
    },
    {
     "enum_field_value" : 92,
     "name" : "USCRIPT_PHONETIC_POLLARD"
    },
    {
     "enum_field_value" : 93,
     "name" : "USCRIPT_RONGORONGO"
    },
    {
     "enum_field_value" : 94,
     "name" : "USCRIPT_SARATI"
    },
    {
     "enum_field_value" : 95,
     "name" : "USCRIPT_ESTRANGELO_SYRIAC"
    },
    {
     "enum_field_value" : 96,
     "name" : "USCRIPT_WESTERN_SYRIAC"
    },
    {
     "enum_field_value" : 97,
     "name" : "USCRIPT_EASTERN_SYRIAC"
    },
    {
     "enum_field_value" : 98,
     "name" : "USCRIPT_TENGWAR"
    },
    {
     "enum_field_value" : 99,
     "name" : "USCRIPT_VAI"
    },
    {
     "enum_field_value" : 100,
     "name" : "USCRIPT_VISIBLE_SPEECH"
    },
    {
     "enum_field_value" : 101,
     "name" : "USCRIPT_CUNEIFORM"
    },
    {
     "enum_field_value" : 102,
     "name" : "USCRIPT_UNWRITTEN_LANGUAGES"
    },
    {
     "enum_field_value" : 103,
     "name" : "USCRIPT_UNKNOWN"
    },
    {
     "enum_field_value" : 104,
     "name" : "USCRIPT_CARIAN"
    },
    {
     "enum_field_value" : 105,
     "name" : "USCRIPT_JAPANESE"
    },
    {
     "enum_field_value" : 106,
     "name" : "USCRIPT_LANNA"
    },
    {
     "enum_field_value" : 107,
     "name" : "USCRIPT_LYCIAN"
    },
    {
     "enum_field_value" : 108,
     "name" : "USCRIPT_LYDIAN"
    },
    {
     "enum_field_value" : 109,
     "name" : "USCRIPT_OL_CHIKI"
    },
    {
     "enum_field_value" : 110,
     "name" : "USCRIPT_REJANG"
    },
    {
     "enum_field_value" : 111,
     "name" : "USCRIPT_SAURASHTRA"
    },
    {
     "enum_field_value" : 112,
     "name" : "USCRIPT_SIGN_WRITING"
    },
    {
     "enum_field_value" : 113,
     "name" : "USCRIPT_SUNDANESE"
    },
    {
     "enum_field_value" : 114,
     "name" : "USCRIPT_MOON"
    },
    {
     "enum_field_value" : 115,
     "name" : "USCRIPT_MEITEI_MAYEK"
    },
    {
     "enum_field_value" : 116,
     "name" : "USCRIPT_IMPERIAL_ARAMAIC"
    },
    {
     "enum_field_value" : 117,
     "name" : "USCRIPT_AVESTAN"
    },
    {
     "enum_field_value" : 118,
     "name" : "USCRIPT_CHAKMA"
    },
    {
     "enum_field_value" : 119,
     "name" : "USCRIPT_KOREAN"
    },
    {
     "enum_field_value" : 120,
     "name" : "USCRIPT_KAITHI"
    },
    {
     "enum_field_value" : 121,
     "name" : "USCRIPT_MANICHAEAN"
    },
    {
     "enum_field_value" : 122,
     "name" : "USCRIPT_INSCRIPTIONAL_PAHLAVI"
    },
    {
     "enum_field_value" : 123,
     "name" : "USCRIPT_PSALTER_PAHLAVI"
    },
    {
     "enum_field_value" : 124,
     "name" : "USCRIPT_BOOK_PAHLAVI"
    },
    {
     "enum_field_value" : 125,
     "name" : "USCRIPT_INSCRIPTIONAL_PARTHIAN"
    },
    {
     "enum_field_value" : 126,
     "name" : "USCRIPT_SAMARITAN"
    },
    {
     "enum_field_value" : 127,
     "name" : "USCRIPT_TAI_VIET"
    },
    {
     "enum_field_value" : 128,
     "name" : "USCRIPT_MATHEMATICAL_NOTATION"
    },
    {
     "enum_field_value" : 129,
     "name" : "USCRIPT_SYMBOLS"
    },
    {
     "enum_field_value" : 130,
     "name" : "USCRIPT_BAMUM"
    },
    {
     "enum_field_value" : 131,
     "name" : "USCRIPT_LISU"
    },
    {
     "enum_field_value" : 132,
     "name" : "USCRIPT_NAKHI_GEBA"
    },
    {
     "enum_field_value" : 133,
     "name" : "USCRIPT_OLD_SOUTH_ARABIAN"
    },
    {
     "enum_field_value" : 134,
     "name" : "USCRIPT_BASSA_VAH"
    },
    {
     "enum_field_value" : 135,
     "name" : "USCRIPT_DUPLOYAN"
    },
    {
     "enum_field_value" : 135,
     "name" : "USCRIPT_DUPLOYAN_SHORTAND"
    },
    {
     "enum_field_value" : 136,
     "name" : "USCRIPT_ELBASAN"
    },
    {
     "enum_field_value" : 137,
     "name" : "USCRIPT_GRANTHA"
    },
    {
     "enum_field_value" : 138,
     "name" : "USCRIPT_KPELLE"
    },
    {
     "enum_field_value" : 139,
     "name" : "USCRIPT_LOMA"
    },
    {
     "enum_field_value" : 140,
     "name" : "USCRIPT_MENDE"
    },
    {
     "enum_field_value" : 141,
     "name" : "USCRIPT_MEROITIC_CURSIVE"
    },
    {
     "enum_field_value" : 142,
     "name" : "USCRIPT_OLD_NORTH_ARABIAN"
    },
    {
     "enum_field_value" : 143,
     "name" : "USCRIPT_NABATAEAN"
    },
    {
     "enum_field_value" : 144,
     "name" : "USCRIPT_PALMYRENE"
    },
    {
     "enum_field_value" : 145,
     "name" : "USCRIPT_KHUDAWADI"
    },
    {
     "enum_field_value" : 145,
     "name" : "USCRIPT_SINDHI"
    },
    {
     "enum_field_value" : 146,
     "name" : "USCRIPT_WARANG_CITI"
    },
    {
     "enum_field_value" : 147,
     "name" : "USCRIPT_AFAKA"
    },
    {
     "enum_field_value" : 148,
     "name" : "USCRIPT_JURCHEN"
    },
    {
     "enum_field_value" : 149,
     "name" : "USCRIPT_MRO"
    },
    {
     "enum_field_value" : 150,
     "name" : "USCRIPT_NUSHU"
    },
    {
     "enum_field_value" : 151,
     "name" : "USCRIPT_SHARADA"
    },
    {
     "enum_field_value" : 152,
     "name" : "USCRIPT_SORA_SOMPENG"
    },
    {
     "enum_field_value" : 153,
     "name" : "USCRIPT_TAKRI"
    },
    {
     "enum_field_value" : 154,
     "name" : "USCRIPT_TANGUT"
    },
    {
     "enum_field_value" : 155,
     "name" : "USCRIPT_WOLEAI"
    },
    {
     "enum_field_value" : 156,
     "name" : "USCRIPT_ANATOLIAN_HIEROGLYPHS"
    },
    {
     "enum_field_value" : 157,
     "name" : "USCRIPT_KHOJKI"
    },
    {
     "enum_field_value" : 158,
     "name" : "USCRIPT_TIRHUTA"
    },
    {
     "enum_field_value" : 159,
     "name" : "USCRIPT_CAUCASIAN_ALBANIAN"
    },
    {
     "enum_field_value" : 160,
     "name" : "USCRIPT_MAHAJANI"
    },
    {
     "enum_field_value" : 161,
     "name" : "USCRIPT_AHOM"
    },
    {
     "enum_field_value" : 162,
     "name" : "USCRIPT_HATRAN"
    },
    {
     "enum_field_value" : 163,
     "name" : "USCRIPT_MODI"
    },
    {
     "enum_field_value" : 164,
     "name" : "USCRIPT_MULTANI"
    },
    {
     "enum_field_value" : 165,
     "name" : "USCRIPT_PAU_CIN_HAU"
    },
    {
     "enum_field_value" : 166,
     "name" : "USCRIPT_SIDDHAM"
    },
    {
     "enum_field_value" : 167,
     "name" : "USCRIPT_ADLAM"
    },
    {
     "enum_field_value" : 168,
     "name" : "USCRIPT_BHAIKSUKI"
    },
    {
     "enum_field_value" : 169,
     "name" : "USCRIPT_MARCHEN"
    },
    {
     "enum_field_value" : 170,
     "name" : "USCRIPT_NEWA"
    },
    {
     "enum_field_value" : 171,
     "name" : "USCRIPT_OSAGE"
    },
    {
     "enum_field_value" : 172,
     "name" : "USCRIPT_HAN_WITH_BOPOMOFO"
    },
    {
     "enum_field_value" : 173,
     "name" : "USCRIPT_JAMO"
    },
    {
     "enum_field_value" : 174,
     "name" : "USCRIPT_SYMBOLS_EMOJI"
    },
    {
     "enum_field_value" : 175,
     "name" : "USCRIPT_MASARAM_GONDI"
    },
    {
     "enum_field_value" : 176,
     "name" : "USCRIPT_SOYOMBO"
    },
    {
     "enum_field_value" : 177,
     "name" : "USCRIPT_ZANABAZAR_SQUARE"
    },
    {
     "enum_field_value" : 178,
     "name" : "USCRIPT_DOGRA"
    },
    {
     "enum_field_value" : 179,
     "name" : "USCRIPT_GUNJALA_GONDI"
    },
    {
     "enum_field_value" : 180,
     "name" : "USCRIPT_MAKASAR"
    },
    {
     "enum_field_value" : 181,
     "name" : "USCRIPT_MEDEFAIDRIN"
    },
    {
     "enum_field_value" : 182,
     "name" : "USCRIPT_HANIFI_ROHINGYA"
    },
    {
     "enum_field_value" : 183,
     "name" : "USCRIPT_SOGDIAN"
    },
    {
     "enum_field_value" : 184,
     "name" : "USCRIPT_OLD_SOGDIAN"
    },
    {
     "enum_field_value" : 185,
     "name" : "USCRIPT_ELYMAIC"
    },
    {
     "enum_field_value" : 186,
     "name" : "USCRIPT_NYIAKENG_PUACHUE_HMONG"
    },
    {
     "enum_field_value" : 187,
     "name" : "USCRIPT_NANDINAGARI"
    },
    {
     "enum_field_value" : 188,
     "name" : "USCRIPT_WANCHO"
    },
    {
     "enum_field_value" : 189,
     "name" : "USCRIPT_CHORASMIAN"
    },
    {
     "enum_field_value" : 190,
     "name" : "USCRIPT_DIVES_AKURU"
    },
    {
     "enum_field_value" : 191,
     "name" : "USCRIPT_KHITAN_SMALL_SCRIPT"
    },
    {
     "enum_field_value" : 192,
     "name" : "USCRIPT_YEZIDI"
    },
    {
     "enum_field_value" : 193,
     "name" : "USCRIPT_CODE_LIMIT"
    }
   ],
   "linker_set_key" : "_ZTI11UScriptCode",
   "name" : "UScriptCode",
   "referenced_type" : "_ZTI11UScriptCode",
   "self_type" : "_ZTI11UScriptCode",
   "size" : 4,
   "source_file" : "external/icu/icu4c/source/common/unicode/uscript.h",
   "underlying_type" : "_ZTIi"
  },
  {
   "alignment" : 4,
   "enum_fields" :
   [
    {
     "enum_field_value" : -1,
     "name" : "UTRACE_OFF"
    },
    {
     "enum_field_value" : 0,
     "name" : "UTRACE_ERROR"
    },
    {
     "enum_field_value" : 3,
     "name" : "UTRACE_WARNING"
    },
    {
     "enum_field_value" : 5,
     "name" : "UTRACE_OPEN_CLOSE"
    },
    {
     "enum_field_value" : 7,
     "name" : "UTRACE_INFO"
    },
    {
     "enum_field_value" : 9,
     "name" : "UTRACE_VERBOSE"
    }
   ],
   "linker_set_key" : "_ZTI11UTraceLevel",
   "name" : "UTraceLevel",
   "referenced_type" : "_ZTI11UTraceLevel",
   "self_type" : "_ZTI11UTraceLevel",
   "size" : 4,
   "source_file" : "external/icu/icu4c/source/common/unicode/utrace.h",
   "underlying_type" : "_ZTIi"
  },
  {
   "alignment" : 4,
   "enum_fields" :
   [
    {
     "enum_field_value" : 878368812,
     "name" : "UTEXT_MAGIC"
    }
   ],
   "linker_set_key" : "_ZTI12$UTEXT_MAGIC",
   "name" : "(anonymous enum at external/icu/icu4c/source/common/unicode/utext.h:1547:1)",
   "referenced_type" : "_ZTI12$UTEXT_MAGIC",
   "self_type" : "_ZTI12$UTEXT_MAGIC",
   "size" : 4,
   "source_file" : "external/icu/icu4c/source/common/unicode/utext.h",
   "underlying_type" : "_ZTIj"
  },
  {
   "alignment" : 4,
   "enum_fields" :
   [
    {
     "enum_field_value" : 0,
     "name" : "U_JT_NON_JOINING"
    },
    {
     "enum_field_value" : 1,
     "name" : "U_JT_JOIN_CAUSING"
    },
    {
     "enum_field_value" : 2,
     "name" : "U_JT_DUAL_JOINING"
    },
    {
     "enum_field_value" : 3,
     "name" : "U_JT_LEFT_JOINING"
    },
    {
     "enum_field_value" : 4,
     "name" : "U_JT_RIGHT_JOINING"
    },
    {
     "enum_field_value" : 5,
     "name" : "U_JT_TRANSPARENT"
    },
    {
     "enum_field_value" : 6,
     "name" : "U_JT_COUNT"
    }
   ],
   "linker_set_key" : "_ZTI12UJoiningType",
   "name" : "UJoiningType",
   "referenced_type" : "_ZTI12UJoiningType",
   "self_type" : "_ZTI12UJoiningType",
   "size" : 4,
   "source_file" : "external/icu/icu4c/source/common/unicode/uchar.h",
   "underlying_type" : "_ZTIj"
  },
  {
   "alignment" : 4,
   "enum_fields" :
   [
    {
     "enum_field_value" : 0,
     "name" : "U_NT_NONE"
    },
    {
     "enum_field_value" : 1,
     "name" : "U_NT_DECIMAL"
    },
    {
     "enum_field_value" : 2,
     "name" : "U_NT_DIGIT"
    },
    {
     "enum_field_value" : 3,
     "name" : "U_NT_NUMERIC"
    },
    {
     "enum_field_value" : 4,
     "name" : "U_NT_COUNT"
    }
   ],
   "linker_set_key" : "_ZTI12UNumericType",
   "name" : "UNumericType",
   "referenced_type" : "_ZTI12UNumericType",
   "self_type" : "_ZTI12UNumericType",
   "size" : 4,
   "source_file" : "external/icu/icu4c/source/common/unicode/uchar.h",
   "underlying_type" : "_ZTIj"
  },
  {
   "alignment" : 4,
   "enum_fields" :
   [
    {
     "enum_field_value" : 0,
     "name" : "USCRIPT_USAGE_NOT_ENCODED"
    },
    {
     "enum_field_value" : 1,
     "name" : "USCRIPT_USAGE_UNKNOWN"
    },
    {
     "enum_field_value" : 2,
     "name" : "USCRIPT_USAGE_EXCLUDED"
    },
    {
     "enum_field_value" : 3,
     "name" : "USCRIPT_USAGE_LIMITED_USE"
    },
    {
     "enum_field_value" : 4,
     "name" : "USCRIPT_USAGE_ASPIRATIONAL"
    },
    {
     "enum_field_value" : 5,
     "name" : "USCRIPT_USAGE_RECOMMENDED"
    }
   ],
   "linker_set_key" : "_ZTI12UScriptUsage",
   "name" : "UScriptUsage",
   "referenced_type" : "_ZTI12UScriptUsage",
   "self_type" : "_ZTI12UScriptUsage",
   "size" : 4,
   "source_file" : "external/icu/icu4c/source/common/unicode/uscript.h",
   "underlying_type" : "_ZTIj"
  },
  {
   "alignment" : 4,
   "enum_fields" :
   [
    {
     "enum_field_value" : 1,
     "name" : "USPOOF_SINGLE_SCRIPT_CONFUSABLE"
    },
    {
     "enum_field_value" : 2,
     "name" : "USPOOF_MIXED_SCRIPT_CONFUSABLE"
    },
    {
     "enum_field_value" : 4,
     "name" : "USPOOF_WHOLE_SCRIPT_CONFUSABLE"
    },
    {
     "enum_field_value" : 7,
     "name" : "USPOOF_CONFUSABLE"
    },
    {
     "enum_field_value" : 8,
     "name" : "USPOOF_ANY_CASE"
    },
    {
     "enum_field_value" : 16,
     "name" : "USPOOF_RESTRICTION_LEVEL"
    },
    {
     "enum_field_value" : 16,
     "name" : "USPOOF_SINGLE_SCRIPT"
    },
    {
     "enum_field_value" : 32,
     "name" : "USPOOF_INVISIBLE"
    },
    {
     "enum_field_value" : 64,
     "name" : "USPOOF_CHAR_LIMIT"
    },
    {
     "enum_field_value" : 128,
     "name" : "USPOOF_MIXED_NUMBERS"
    },
    {
     "enum_field_value" : 256,
     "name" : "USPOOF_HIDDEN_OVERLAY"
    },
    {
     "enum_field_value" : 65535,
     "name" : "USPOOF_ALL_CHECKS"
    },
    {
     "enum_field_value" : 1073741824,
     "name" : "USPOOF_AUX_INFO"
    }
   ],
   "linker_set_key" : "_ZTI12USpoofChecks",
   "name" : "USpoofChecks",
   "referenced_type" : "_ZTI12USpoofChecks",
   "self_type" : "_ZTI12USpoofChecks",
   "size" : 4,
   "source_file" : "external/icu/icu4c/source/i18n/unicode/uspoof.h",
   "underlying_type" : "_ZTIj"
  },
  {
   "alignment" : 4,
   "enum_fields" :
   [
    {
     "enum_field_value" : 0,
     "name" : "ULOC_ACCEPT_FAILED"
    },
    {
     "enum_field_value" : 1,
     "name" : "ULOC_ACCEPT_VALID"
    },
    {
     "enum_field_value" : 2,
     "name" : "ULOC_ACCEPT_FALLBACK"
    }
   ],
   "linker_set_key" : "_ZTI13UAcceptResult",
   "name" : "UAcceptResult",
   "referenced_type" : "_ZTI13UAcceptResult",
   "self_type" : "_ZTI13UAcceptResult",
   "size" : 4,
   "source_file" : "external/icu/icu4c/source/common/unicode/uloc.h",
   "underlying_type" : "_ZTIj"
  },
  {
   "alignment" : 4,
   "enum_fields" :
   [
    {
     "enum_field_value" : 0,
     "name" : "UCAL_TRADITIONAL"
    },
    {
     "enum_field_value" : 0,
     "name" : "UCAL_DEFAULT"
    },
    {
     "enum_field_value" : 1,
     "name" : "UCAL_GREGORIAN"
    }
   ],
   "linker_set_key" : "_ZTI13UCalendarType",
   "name" : "UCalendarType",
   "referenced_type" : "_ZTI13UCalendarType",
   "self_type" : "_ZTI13UCalendarType",
   "size" : 4,
   "source_file" : "external/icu/icu4c/source/i18n/unicode/ucal.h",
   "underlying_type" : "_ZTIj"
  },
  {
   "alignment" : 4,
   "enum_fields" :
   [
    {
     "enum_field_value" : 0,
     "name" : "U_UNASSIGNED"
    },
    {
     "enum_field_value" : 0,
     "name" : "U_GENERAL_OTHER_TYPES"
    },
    {
     "enum_field_value" : 1,
     "name" : "U_UPPERCASE_LETTER"
    },
    {
     "enum_field_value" : 2,
     "name" : "U_LOWERCASE_LETTER"
    },
    {
     "enum_field_value" : 3,
     "name" : "U_TITLECASE_LETTER"
    },
    {
     "enum_field_value" : 4,
     "name" : "U_MODIFIER_LETTER"
    },
    {
     "enum_field_value" : 5,
     "name" : "U_OTHER_LETTER"
    },
    {
     "enum_field_value" : 6,
     "name" : "U_NON_SPACING_MARK"
    },
    {
     "enum_field_value" : 7,
     "name" : "U_ENCLOSING_MARK"
    },
    {
     "enum_field_value" : 8,
     "name" : "U_COMBINING_SPACING_MARK"
    },
    {
     "enum_field_value" : 9,
     "name" : "U_DECIMAL_DIGIT_NUMBER"
    },
    {
     "enum_field_value" : 10,
     "name" : "U_LETTER_NUMBER"
    },
    {
     "enum_field_value" : 11,
     "name" : "U_OTHER_NUMBER"
    },
    {
     "enum_field_value" : 12,
     "name" : "U_SPACE_SEPARATOR"
    },
    {
     "enum_field_value" : 13,
     "name" : "U_LINE_SEPARATOR"
    },
    {
     "enum_field_value" : 14,
     "name" : "U_PARAGRAPH_SEPARATOR"
    },
    {
     "enum_field_value" : 15,
     "name" : "U_CONTROL_CHAR"
    },
    {
     "enum_field_value" : 16,
     "name" : "U_FORMAT_CHAR"
    },
    {
     "enum_field_value" : 17,
     "name" : "U_PRIVATE_USE_CHAR"
    },
    {
     "enum_field_value" : 18,
     "name" : "U_SURROGATE"
    },
    {
     "enum_field_value" : 19,
     "name" : "U_DASH_PUNCTUATION"
    },
    {
     "enum_field_value" : 20,
     "name" : "U_START_PUNCTUATION"
    },
    {
     "enum_field_value" : 21,
     "name" : "U_END_PUNCTUATION"
    },
    {
     "enum_field_value" : 22,
     "name" : "U_CONNECTOR_PUNCTUATION"
    },
    {
     "enum_field_value" : 23,
     "name" : "U_OTHER_PUNCTUATION"
    },
    {
     "enum_field_value" : 24,
     "name" : "U_MATH_SYMBOL"
    },
    {
     "enum_field_value" : 25,
     "name" : "U_CURRENCY_SYMBOL"
    },
    {
     "enum_field_value" : 26,
     "name" : "U_MODIFIER_SYMBOL"
    },
    {
     "enum_field_value" : 27,
     "name" : "U_OTHER_SYMBOL"
    },
    {
     "enum_field_value" : 28,
     "name" : "U_INITIAL_PUNCTUATION"
    },
    {
     "enum_field_value" : 29,
     "name" : "U_FINAL_PUNCTUATION"
    },
    {
     "enum_field_value" : 30,
     "name" : "U_CHAR_CATEGORY_COUNT"
    }
   ],
   "linker_set_key" : "_ZTI13UCharCategory",
   "name" : "UCharCategory",
   "referenced_type" : "_ZTI13UCharCategory",
   "self_type" : "_ZTI13UCharCategory",
   "size" : 4,
   "source_file" : "external/icu/icu4c/source/common/unicode/uchar.h",
   "underlying_type" : "_ZTIj"
  },
  {
   "alignment" : 4,
   "enum_fields" :
   [
    {
     "enum_field_value" : 0,
     "name" : "UCOL_FRENCH_COLLATION"
    },
    {
     "enum_field_value" : 1,
     "name" : "UCOL_ALTERNATE_HANDLING"
    },
    {
     "enum_field_value" : 2,
     "name" : "UCOL_CASE_FIRST"
    },
    {
     "enum_field_value" : 3,
     "name" : "UCOL_CASE_LEVEL"
    },
    {
     "enum_field_value" : 4,
     "name" : "UCOL_NORMALIZATION_MODE"
    },
    {
     "enum_field_value" : 4,
     "name" : "UCOL_DECOMPOSITION_MODE"
    },
    {
     "enum_field_value" : 5,
     "name" : "UCOL_STRENGTH"
    },
    {
     "enum_field_value" : 6,
     "name" : "UCOL_HIRAGANA_QUATERNARY_MODE"
    },
    {
     "enum_field_value" : 7,
     "name" : "UCOL_NUMERIC_COLLATION"
    },
    {
     "enum_field_value" : 8,
     "name" : "UCOL_ATTRIBUTE_COUNT"
    }
   ],
   "linker_set_key" : "_ZTI13UColAttribute",
   "name" : "UColAttribute",
   "referenced_type" : "_ZTI13UColAttribute",
   "self_type" : "_ZTI13UColAttribute",
   "size" : 4,
   "source_file" : "external/icu/icu4c/source/i18n/unicode/ucol.h",
   "underlying_type" : "_ZTIj"
  },
  {
   "alignment" : 4,
   "enum_fields" :
   [
    {
     "enum_field_value" : 0,
     "name" : "UCOL_BOUND_LOWER"
    },
    {
     "enum_field_value" : 1,
     "name" : "UCOL_BOUND_UPPER"
    },
    {
     "enum_field_value" : 2,
     "name" : "UCOL_BOUND_UPPER_LONG"
    },
    {
     "enum_field_value" : 3,
     "name" : "UCOL_BOUND_VALUE_COUNT"
    }
   ],
   "linker_set_key" : "_ZTI13UColBoundMode",
   "name" : "UColBoundMode",
   "referenced_type" : "_ZTI13UColBoundMode",
   "self_type" : "_ZTI13UColBoundMode",
   "size" : 4,
   "source_file" : "external/icu/icu4c/source/i18n/unicode/ucol.h",
   "underlying_type" : "_ZTIj"
  },
  {
   "alignment" : 4,
   "enum_fields" :
   [
    {
     "enum_field_value" : 0,
     "name" : "U_JG_NO_JOINING_GROUP"
    },
    {
     "enum_field_value" : 1,
     "name" : "U_JG_AIN"
    },
    {
     "enum_field_value" : 2,
     "name" : "U_JG_ALAPH"
    },
    {
     "enum_field_value" : 3,
     "name" : "U_JG_ALEF"
    },
    {
     "enum_field_value" : 4,
     "name" : "U_JG_BEH"
    },
    {
     "enum_field_value" : 5,
     "name" : "U_JG_BETH"
    },
    {
     "enum_field_value" : 6,
     "name" : "U_JG_DAL"
    },
    {
     "enum_field_value" : 7,
     "name" : "U_JG_DALATH_RISH"
    },
    {
     "enum_field_value" : 8,
     "name" : "U_JG_E"
    },
    {
     "enum_field_value" : 9,
     "name" : "U_JG_FEH"
    },
    {
     "enum_field_value" : 10,
     "name" : "U_JG_FINAL_SEMKATH"
    },
    {
     "enum_field_value" : 11,
     "name" : "U_JG_GAF"
    },
    {
     "enum_field_value" : 12,
     "name" : "U_JG_GAMAL"
    },
    {
     "enum_field_value" : 13,
     "name" : "U_JG_HAH"
    },
    {
     "enum_field_value" : 14,
     "name" : "U_JG_TEH_MARBUTA_GOAL"
    },
    {
     "enum_field_value" : 14,
     "name" : "U_JG_HAMZA_ON_HEH_GOAL"
    },
    {
     "enum_field_value" : 15,
     "name" : "U_JG_HE"
    },
    {
     "enum_field_value" : 16,
     "name" : "U_JG_HEH"
    },
    {
     "enum_field_value" : 17,
     "name" : "U_JG_HEH_GOAL"
    },
    {
     "enum_field_value" : 18,
     "name" : "U_JG_HETH"
    },
    {
     "enum_field_value" : 19,
     "name" : "U_JG_KAF"
    },
    {
     "enum_field_value" : 20,
     "name" : "U_JG_KAPH"
    },
    {
     "enum_field_value" : 21,
     "name" : "U_JG_KNOTTED_HEH"
    },
    {
     "enum_field_value" : 22,
     "name" : "U_JG_LAM"
    },
    {
     "enum_field_value" : 23,
     "name" : "U_JG_LAMADH"
    },
    {
     "enum_field_value" : 24,
     "name" : "U_JG_MEEM"
    },
    {
     "enum_field_value" : 25,
     "name" : "U_JG_MIM"
    },
    {
     "enum_field_value" : 26,
     "name" : "U_JG_NOON"
    },
    {
     "enum_field_value" : 27,
     "name" : "U_JG_NUN"
    },
    {
     "enum_field_value" : 28,
     "name" : "U_JG_PE"
    },
    {
     "enum_field_value" : 29,
     "name" : "U_JG_QAF"
    },
    {
     "enum_field_value" : 30,
     "name" : "U_JG_QAPH"
    },
    {
     "enum_field_value" : 31,
     "name" : "U_JG_REH"
    },
    {
     "enum_field_value" : 32,
     "name" : "U_JG_REVERSED_PE"
    },
    {
     "enum_field_value" : 33,
     "name" : "U_JG_SAD"
    },
    {
     "enum_field_value" : 34,
     "name" : "U_JG_SADHE"
    },
    {
     "enum_field_value" : 35,
     "name" : "U_JG_SEEN"
    },
    {
     "enum_field_value" : 36,
     "name" : "U_JG_SEMKATH"
    },
    {
     "enum_field_value" : 37,
     "name" : "U_JG_SHIN"
    },
    {
     "enum_field_value" : 38,
     "name" : "U_JG_SWASH_KAF"
    },
    {
     "enum_field_value" : 39,
     "name" : "U_JG_SYRIAC_WAW"
    },
    {
     "enum_field_value" : 40,
     "name" : "U_JG_TAH"
    },
    {
     "enum_field_value" : 41,
     "name" : "U_JG_TAW"
    },
    {
     "enum_field_value" : 42,
     "name" : "U_JG_TEH_MARBUTA"
    },
    {
     "enum_field_value" : 43,
     "name" : "U_JG_TETH"
    },
    {
     "enum_field_value" : 44,
     "name" : "U_JG_WAW"
    },
    {
     "enum_field_value" : 45,
     "name" : "U_JG_YEH"
    },
    {
     "enum_field_value" : 46,
     "name" : "U_JG_YEH_BARREE"
    },
    {
     "enum_field_value" : 47,
     "name" : "U_JG_YEH_WITH_TAIL"
    },
    {
     "enum_field_value" : 48,
     "name" : "U_JG_YUDH"
    },
    {
     "enum_field_value" : 49,
     "name" : "U_JG_YUDH_HE"
    },
    {
     "enum_field_value" : 50,
     "name" : "U_JG_ZAIN"
    },
    {
     "enum_field_value" : 51,
     "name" : "U_JG_FE"
    },
    {
     "enum_field_value" : 52,
     "name" : "U_JG_KHAPH"
    },
    {
     "enum_field_value" : 53,
     "name" : "U_JG_ZHAIN"
    },
    {
     "enum_field_value" : 54,
     "name" : "U_JG_BURUSHASKI_YEH_BARREE"
    },
    {
     "enum_field_value" : 55,
     "name" : "U_JG_FARSI_YEH"
    },
    {
     "enum_field_value" : 56,
     "name" : "U_JG_NYA"
    },
    {
     "enum_field_value" : 57,
     "name" : "U_JG_ROHINGYA_YEH"
    },
    {
     "enum_field_value" : 58,
     "name" : "U_JG_MANICHAEAN_ALEPH"
    },
    {
     "enum_field_value" : 59,
     "name" : "U_JG_MANICHAEAN_AYIN"
    },
    {
     "enum_field_value" : 60,
     "name" : "U_JG_MANICHAEAN_BETH"
    },
    {
     "enum_field_value" : 61,
     "name" : "U_JG_MANICHAEAN_DALETH"
    },
    {
     "enum_field_value" : 62,
     "name" : "U_JG_MANICHAEAN_DHAMEDH"
    },
    {
     "enum_field_value" : 63,
     "name" : "U_JG_MANICHAEAN_FIVE"
    },
    {
     "enum_field_value" : 64,
     "name" : "U_JG_MANICHAEAN_GIMEL"
    },
    {
     "enum_field_value" : 65,
     "name" : "U_JG_MANICHAEAN_HETH"
    },
    {
     "enum_field_value" : 66,
     "name" : "U_JG_MANICHAEAN_HUNDRED"
    },
    {
     "enum_field_value" : 67,
     "name" : "U_JG_MANICHAEAN_KAPH"
    },
    {
     "enum_field_value" : 68,
     "name" : "U_JG_MANICHAEAN_LAMEDH"
    },
    {
     "enum_field_value" : 69,
     "name" : "U_JG_MANICHAEAN_MEM"
    },
    {
     "enum_field_value" : 70,
     "name" : "U_JG_MANICHAEAN_NUN"
    },
    {
     "enum_field_value" : 71,
     "name" : "U_JG_MANICHAEAN_ONE"
    },
    {
     "enum_field_value" : 72,
     "name" : "U_JG_MANICHAEAN_PE"
    },
    {
     "enum_field_value" : 73,
     "name" : "U_JG_MANICHAEAN_QOPH"
    },
    {
     "enum_field_value" : 74,
     "name" : "U_JG_MANICHAEAN_RESH"
    },
    {
     "enum_field_value" : 75,
     "name" : "U_JG_MANICHAEAN_SADHE"
    },
    {
     "enum_field_value" : 76,
     "name" : "U_JG_MANICHAEAN_SAMEKH"
    },
    {
     "enum_field_value" : 77,
     "name" : "U_JG_MANICHAEAN_TAW"
    },
    {
     "enum_field_value" : 78,
     "name" : "U_JG_MANICHAEAN_TEN"
    },
    {
     "enum_field_value" : 79,
     "name" : "U_JG_MANICHAEAN_TETH"
    },
    {
     "enum_field_value" : 80,
     "name" : "U_JG_MANICHAEAN_THAMEDH"
    },
    {
     "enum_field_value" : 81,
     "name" : "U_JG_MANICHAEAN_TWENTY"
    },
    {
     "enum_field_value" : 82,
     "name" : "U_JG_MANICHAEAN_WAW"
    },
    {
     "enum_field_value" : 83,
     "name" : "U_JG_MANICHAEAN_YODH"
    },
    {
     "enum_field_value" : 84,
     "name" : "U_JG_MANICHAEAN_ZAYIN"
    },
    {
     "enum_field_value" : 85,
     "name" : "U_JG_STRAIGHT_WAW"
    },
    {
     "enum_field_value" : 86,
     "name" : "U_JG_AFRICAN_FEH"
    },
    {
     "enum_field_value" : 87,
     "name" : "U_JG_AFRICAN_NOON"
    },
    {
     "enum_field_value" : 88,
     "name" : "U_JG_AFRICAN_QAF"
    },
    {
     "enum_field_value" : 89,
     "name" : "U_JG_MALAYALAM_BHA"
    },
    {
     "enum_field_value" : 90,
     "name" : "U_JG_MALAYALAM_JA"
    },
    {
     "enum_field_value" : 91,
     "name" : "U_JG_MALAYALAM_LLA"
    },
    {
     "enum_field_value" : 92,
     "name" : "U_JG_MALAYALAM_LLLA"
    },
    {
     "enum_field_value" : 93,
     "name" : "U_JG_MALAYALAM_NGA"
    },
    {
     "enum_field_value" : 94,
     "name" : "U_JG_MALAYALAM_NNA"
    },
    {
     "enum_field_value" : 95,
     "name" : "U_JG_MALAYALAM_NNNA"
    },
    {
     "enum_field_value" : 96,
     "name" : "U_JG_MALAYALAM_NYA"
    },
    {
     "enum_field_value" : 97,
     "name" : "U_JG_MALAYALAM_RA"
    },
    {
     "enum_field_value" : 98,
     "name" : "U_JG_MALAYALAM_SSA"
    },
    {
     "enum_field_value" : 99,
     "name" : "U_JG_MALAYALAM_TTA"
    },
    {
     "enum_field_value" : 100,
     "name" : "U_JG_HANIFI_ROHINGYA_KINNA_YA"
    },
    {
     "enum_field_value" : 101,
     "name" : "U_JG_HANIFI_ROHINGYA_PA"
    },
    {
     "enum_field_value" : 102,
     "name" : "U_JG_COUNT"
    }
   ],
   "linker_set_key" : "_ZTI13UJoiningGroup",
   "name" : "UJoiningGroup",
   "referenced_type" : "_ZTI13UJoiningGroup",
   "self_type" : "_ZTI13UJoiningGroup",
   "size" : 4,
   "source_file" : "external/icu/icu4c/source/common/unicode/uchar.h",
   "underlying_type" : "_ZTIj"
  },
  {
   "alignment" : 4,
   "enum_fields" :
   [
    {
     "enum_field_value" : 0,
     "name" : "UBRK_LINE_SOFT"
    },
    {
     "enum_field_value" : 100,
     "name" : "UBRK_LINE_SOFT_LIMIT"
    },
    {
     "enum_field_value" : 100,
     "name" : "UBRK_LINE_HARD"
    },
    {
     "enum_field_value" : 200,
     "name" : "UBRK_LINE_HARD_LIMIT"
    }
   ],
   "linker_set_key" : "_ZTI13ULineBreakTag",
   "name" : "ULineBreakTag",
   "referenced_type" : "_ZTI13ULineBreakTag",
   "self_type" : "_ZTI13ULineBreakTag",
   "size" : 4,
   "source_file" : "external/icu/icu4c/source/common/unicode/ubrk.h",
   "underlying_type" : "_ZTIj"
  },
  {
   "alignment" : 4,
   "enum_fields" :
   [
    {
     "enum_field_value" : 0,
     "name" : "UBIDI_LTR"
    },
    {
     "enum_field_value" : 1,
     "name" : "UBIDI_RTL"
    },
    {
     "enum_field_value" : 2,
     "name" : "UBIDI_MIXED"
    },
    {
     "enum_field_value" : 3,
     "name" : "UBIDI_NEUTRAL"
    }
   ],
   "linker_set_key" : "_ZTI14UBiDiDirection",
   "name" : "UBiDiDirection",
   "referenced_type" : "_ZTI14UBiDiDirection",
   "self_type" : "_ZTI14UBiDiDirection",
   "size" : 4,
   "source_file" : "external/icu/icu4c/source/common/unicode/ubidi.h",
   "underlying_type" : "_ZTIj"
  },
  {
   "alignment" : 4,
   "enum_fields" :
   [
    {
     "enum_field_value" : 0,
     "name" : "UBIDI_MIRRORING_OFF"
    },
    {
     "enum_field_value" : 1,
     "name" : "UBIDI_MIRRORING_ON"
    }
   ],
   "linker_set_key" : "_ZTI14UBiDiMirroring",
   "name" : "UBiDiMirroring",
   "referenced_type" : "_ZTI14UBiDiMirroring",
   "self_type" : "_ZTI14UBiDiMirroring",
   "size" : 4,
   "source_file" : "external/icu/icu4c/source/common/unicode/ubiditransform.h",
   "underlying_type" : "_ZTIj"
  },
  {
   "alignment" : 4,
   "enum_fields" :
   [
    {
     "enum_field_value" : 0,
     "name" : "UCAL_AM"
    },
    {
     "enum_field_value" : 1,
     "name" : "UCAL_PM"
    }
   ],
   "linker_set_key" : "_ZTI14UCalendarAMPMs",
   "name" : "UCalendarAMPMs",
   "referenced_type" : "_ZTI14UCalendarAMPMs",
   "self_type" : "_ZTI14UCalendarAMPMs",
   "size" : 4,
   "source_file" : "external/icu/icu4c/source/i18n/unicode/ucal.h",
   "underlying_type" : "_ZTIj"
  },
  {
   "alignment" : 4,
   "enum_fields" :
   [
    {
     "enum_field_value" : 0,
     "name" : "U_LEFT_TO_RIGHT"
    },
    {
     "enum_field_value" : 1,
     "name" : "U_RIGHT_TO_LEFT"
    },
    {
     "enum_field_value" : 2,
     "name" : "U_EUROPEAN_NUMBER"
    },
    {
     "enum_field_value" : 3,
     "name" : "U_EUROPEAN_NUMBER_SEPARATOR"
    },
    {
     "enum_field_value" : 4,
     "name" : "U_EUROPEAN_NUMBER_TERMINATOR"
    },
    {
     "enum_field_value" : 5,
     "name" : "U_ARABIC_NUMBER"
    },
    {
     "enum_field_value" : 6,
     "name" : "U_COMMON_NUMBER_SEPARATOR"
    },
    {
     "enum_field_value" : 7,
     "name" : "U_BLOCK_SEPARATOR"
    },
    {
     "enum_field_value" : 8,
     "name" : "U_SEGMENT_SEPARATOR"
    },
    {
     "enum_field_value" : 9,
     "name" : "U_WHITE_SPACE_NEUTRAL"
    },
    {
     "enum_field_value" : 10,
     "name" : "U_OTHER_NEUTRAL"
    },
    {
     "enum_field_value" : 11,
     "name" : "U_LEFT_TO_RIGHT_EMBEDDING"
    },
    {
     "enum_field_value" : 12,
     "name" : "U_LEFT_TO_RIGHT_OVERRIDE"
    },
    {
     "enum_field_value" : 13,
     "name" : "U_RIGHT_TO_LEFT_ARABIC"
    },
    {
     "enum_field_value" : 14,
     "name" : "U_RIGHT_TO_LEFT_EMBEDDING"
    },
    {
     "enum_field_value" : 15,
     "name" : "U_RIGHT_TO_LEFT_OVERRIDE"
    },
    {
     "enum_field_value" : 16,
     "name" : "U_POP_DIRECTIONAL_FORMAT"
    },
    {
     "enum_field_value" : 17,
     "name" : "U_DIR_NON_SPACING_MARK"
    },
    {
     "enum_field_value" : 18,
     "name" : "U_BOUNDARY_NEUTRAL"
    },
    {
     "enum_field_value" : 19,
     "name" : "U_FIRST_STRONG_ISOLATE"
    },
    {
     "enum_field_value" : 20,
     "name" : "U_LEFT_TO_RIGHT_ISOLATE"
    },
    {
     "enum_field_value" : 21,
     "name" : "U_RIGHT_TO_LEFT_ISOLATE"
    },
    {
     "enum_field_value" : 22,
     "name" : "U_POP_DIRECTIONAL_ISOLATE"
    },
    {
     "enum_field_value" : 23,
     "name" : "U_CHAR_DIRECTION_COUNT"
    }
   ],
   "linker_set_key" : "_ZTI14UCharDirection",
   "name" : "UCharDirection",
   "referenced_type" : "_ZTI14UCharDirection",
   "self_type" : "_ZTI14UCharDirection",
   "size" : 4,
   "source_file" : "external/icu/icu4c/source/common/unicode/uchar.h",
   "underlying_type" : "_ZTIj"
  },
  {
   "alignment" : 4,
   "enum_fields" :
   [
    {
     "enum_field_value" : 0,
     "name" : "UCOL_TAILORING_ONLY"
    },
    {
     "enum_field_value" : 1,
     "name" : "UCOL_FULL_RULES"
    }
   ],
   "linker_set_key" : "_ZTI14UColRuleOption",
   "name" : "UColRuleOption",
   "referenced_type" : "_ZTI14UColRuleOption",
   "self_type" : "_ZTI14UColRuleOption",
   "size" : 4,
   "source_file" : "external/icu/icu4c/source/i18n/unicode/ucol.h",
   "underlying_type" : "_ZTIj"
  },
  {
   "alignment" : 4,
   "enum_fields" :
   [
    {
     "enum_field_value" : -1,
     "name" : "UCNV_UNSUPPORTED_CONVERTER"
    },
    {
     "enum_field_value" : 0,
     "name" : "UCNV_SBCS"
    },
    {
     "enum_field_value" : 1,
     "name" : "UCNV_DBCS"
    },
    {
     "enum_field_value" : 2,
     "name" : "UCNV_MBCS"
    },
    {
     "enum_field_value" : 3,
     "name" : "UCNV_LATIN_1"
    },
    {
     "enum_field_value" : 4,
     "name" : "UCNV_UTF8"
    },
    {
     "enum_field_value" : 5,
     "name" : "UCNV_UTF16_BigEndian"
    },
    {
     "enum_field_value" : 6,
     "name" : "UCNV_UTF16_LittleEndian"
    },
    {
     "enum_field_value" : 7,
     "name" : "UCNV_UTF32_BigEndian"
    },
    {
     "enum_field_value" : 8,
     "name" : "UCNV_UTF32_LittleEndian"
    },
    {
     "enum_field_value" : 9,
     "name" : "UCNV_EBCDIC_STATEFUL"
    },
    {
     "enum_field_value" : 10,
     "name" : "UCNV_ISO_2022"
    },
    {
     "enum_field_value" : 11,
     "name" : "UCNV_LMBCS_1"
    },
    {
     "enum_field_value" : 12,
     "name" : "UCNV_LMBCS_2"
    },
    {
     "enum_field_value" : 13,
     "name" : "UCNV_LMBCS_3"
    },
    {
     "enum_field_value" : 14,
     "name" : "UCNV_LMBCS_4"
    },
    {
     "enum_field_value" : 15,
     "name" : "UCNV_LMBCS_5"
    },
    {
     "enum_field_value" : 16,
     "name" : "UCNV_LMBCS_6"
    },
    {
     "enum_field_value" : 17,
     "name" : "UCNV_LMBCS_8"
    },
    {
     "enum_field_value" : 18,
     "name" : "UCNV_LMBCS_11"
    },
    {
     "enum_field_value" : 19,
     "name" : "UCNV_LMBCS_16"
    },
    {
     "enum_field_value" : 20,
     "name" : "UCNV_LMBCS_17"
    },
    {
     "enum_field_value" : 21,
     "name" : "UCNV_LMBCS_18"
    },
    {
     "enum_field_value" : 22,
     "name" : "UCNV_LMBCS_19"
    },
    {
     "enum_field_value" : 22,
     "name" : "UCNV_LMBCS_LAST"
    },
    {
     "enum_field_value" : 23,
     "name" : "UCNV_HZ"
    },
    {
     "enum_field_value" : 24,
     "name" : "UCNV_SCSU"
    },
    {
     "enum_field_value" : 25,
     "name" : "UCNV_ISCII"
    },
    {
     "enum_field_value" : 26,
     "name" : "UCNV_US_ASCII"
    },
    {
     "enum_field_value" : 27,
     "name" : "UCNV_UTF7"
    },
    {
     "enum_field_value" : 28,
     "name" : "UCNV_BOCU1"
    },
    {
     "enum_field_value" : 29,
     "name" : "UCNV_UTF16"
    },
    {
     "enum_field_value" : 30,
     "name" : "UCNV_UTF32"
    },
    {
     "enum_field_value" : 31,
     "name" : "UCNV_CESU8"
    },
    {
     "enum_field_value" : 32,
     "name" : "UCNV_IMAP_MAILBOX"
    },
    {
     "enum_field_value" : 33,
     "name" : "UCNV_COMPOUND_TEXT"
    },
    {
     "enum_field_value" : 34,
     "name" : "UCNV_NUMBER_OF_SUPPORTED_CONVERTER_TYPES"
    }
   ],
   "linker_set_key" : "_ZTI14UConverterType",
   "name" : "UConverterType",
   "referenced_type" : "_ZTI14UConverterType",
   "self_type" : "_ZTI14UConverterType",
   "size" : 4,
   "source_file" : "external/icu/icu4c/source/common/unicode/ucnv.h",
   "underlying_type" : "_ZTIi"
  },
  {
   "alignment" : 4,
   "enum_fields" :
   [
    {
     "enum_field_value" : 0,
     "name" : "UCURR_SYMBOL_NAME"
    },
    {
     "enum_field_value" : 1,
     "name" : "UCURR_LONG_NAME"
    },
    {
     "enum_field_value" : 2,
     "name" : "UCURR_NARROW_SYMBOL_NAME"
    },
    {
     "enum_field_value" : 3,
     "name" : "UCURR_FORMAL_SYMBOL_NAME"
    },
    {
     "enum_field_value" : 4,
     "name" : "UCURR_VARIANT_SYMBOL_NAME"
    }
   ],
   "linker_set_key" : "_ZTI14UCurrNameStyle",
   "name" : "UCurrNameStyle",
   "referenced_type" : "_ZTI14UCurrNameStyle",
   "self_type" : "_ZTI14UCurrNameStyle",
   "size" : 4,
   "source_file" : "external/icu/icu4c/source/common/unicode/ucurr.h",
   "underlying_type" : "_ZTIj"
  },
  {
   "alignment" : 4,
   "enum_fields" :
   [
    {
     "enum_field_value" : 0,
     "name" : "UCURR_USAGE_STANDARD"
    },
    {
     "enum_field_value" : 1,
     "name" : "UCURR_USAGE_CASH"
    },
    {
     "enum_field_value" : 2,
     "name" : "UCURR_USAGE_COUNT"
    }
   ],
   "linker_set_key" : "_ZTI14UCurrencyUsage",
   "name" : "UCurrencyUsage",
   "referenced_type" : "_ZTI14UCurrencyUsage",
   "self_type" : "_ZTI14UCurrencyUsage",
   "size" : 4,
   "source_file" : "external/icu/icu4c/source/common/unicode/ucurr.h",
   "underlying_type" : "_ZTIj"
  },
  {
   "alignment" : 4,
   "enum_fields" :
   [
    {
     "enum_field_value" : 0,
     "name" : "UDTS_JAVA_TIME"
    },
    {
     "enum_field_value" : 1,
     "name" : "UDTS_UNIX_TIME"
    },
    {
     "enum_field_value" : 2,
     "name" : "UDTS_ICU4C_TIME"
    },
    {
     "enum_field_value" : 3,
     "name" : "UDTS_WINDOWS_FILE_TIME"
    },
    {
     "enum_field_value" : 4,
     "name" : "UDTS_DOTNET_DATE_TIME"
    },
    {
     "enum_field_value" : 5,
     "name" : "UDTS_MAC_OLD_TIME"
    },
    {
     "enum_field_value" : 6,
     "name" : "UDTS_MAC_TIME"
    },
    {
     "enum_field_value" : 7,
     "name" : "UDTS_EXCEL_TIME"
    },
    {
     "enum_field_value" : 8,
     "name" : "UDTS_DB2_TIME"
    },
    {
     "enum_field_value" : 9,
     "name" : "UDTS_UNIX_MICROSECONDS_TIME"
    },
    {
     "enum_field_value" : 10,
     "name" : "UDTS_MAX_SCALE"
    }
   ],
   "linker_set_key" : "_ZTI14UDateTimeScale",
   "name" : "UDateTimeScale",
   "referenced_type" : "_ZTI14UDateTimeScale",
   "self_type" : "_ZTI14UDateTimeScale",
   "size" : 4,
   "source_file" : "external/icu/icu4c/source/i18n/unicode/utmscale.h",
   "underlying_type" : "_ZTIj"
  },
  {
   "alignment" : 4,
   "enum_fields" :
   [
    {
     "enum_field_value" : 0,
     "name" : "UFIELD_CATEGORY_UNDEFINED"
    },
    {
     "enum_field_value" : 1,
     "name" : "UFIELD_CATEGORY_DATE"
    },
    {
     "enum_field_value" : 2,
     "name" : "UFIELD_CATEGORY_NUMBER"
    },
    {
     "enum_field_value" : 3,
     "name" : "UFIELD_CATEGORY_LIST"
    },
    {
     "enum_field_value" : 4,
     "name" : "UFIELD_CATEGORY_RELATIVE_DATETIME"
    },
    {
     "enum_field_value" : 5,
     "name" : "UFIELD_CATEGORY_DATE_INTERVAL"
    },
    {
     "enum_field_value" : 6,
     "name" : "UFIELD_CATEGORY_COUNT"
    },
    {
     "enum_field_value" : 4099,
     "name" : "UFIELD_CATEGORY_LIST_SPAN"
    },
    {
     "enum_field_value" : 4101,
     "name" : "UFIELD_CATEGORY_DATE_INTERVAL_SPAN"
    }
   ],
   "linker_set_key" : "_ZTI14UFieldCategory",
   "name" : "UFieldCategory",
   "referenced_type" : "_ZTI14UFieldCategory",
   "self_type" : "_ZTI14UFieldCategory",
   "size" : 4,
   "source_file" : "external/icu/icu4c/source/i18n/unicode/uformattedvalue.h",
   "underlying_type" : "_ZTIj"
  },
  {
   "alignment" : 4,
   "enum_fields" :
   [
    {
     "enum_field_value" : 0,
     "name" : "U_SB_OTHER"
    },
    {
     "enum_field_value" : 1,
     "name" : "U_SB_ATERM"
    },
    {
     "enum_field_value" : 2,
     "name" : "U_SB_CLOSE"
    },
    {
     "enum_field_value" : 3,
     "name" : "U_SB_FORMAT"
    },
    {
     "enum_field_value" : 4,
     "name" : "U_SB_LOWER"
    },
    {
     "enum_field_value" : 5,
     "name" : "U_SB_NUMERIC"
    },
    {
     "enum_field_value" : 6,
     "name" : "U_SB_OLETTER"
    },
    {
     "enum_field_value" : 7,
     "name" : "U_SB_SEP"
    },
    {
     "enum_field_value" : 8,
     "name" : "U_SB_SP"
    },
    {
     "enum_field_value" : 9,
     "name" : "U_SB_STERM"
    },
    {
     "enum_field_value" : 10,
     "name" : "U_SB_UPPER"
    },
    {
     "enum_field_value" : 11,
     "name" : "U_SB_CR"
    },
    {
     "enum_field_value" : 12,
     "name" : "U_SB_EXTEND"
    },
    {
     "enum_field_value" : 13,
     "name" : "U_SB_LF"
    },
    {
     "enum_field_value" : 14,
     "name" : "U_SB_SCONTINUE"
    },
    {
     "enum_field_value" : 15,
     "name" : "U_SB_COUNT"
    }
   ],
   "linker_set_key" : "_ZTI14USentenceBreak",
   "name" : "USentenceBreak",
   "referenced_type" : "_ZTI14USentenceBreak",
   "self_type" : "_ZTI14USentenceBreak",
   "size" : 4,
   "source_file" : "external/icu/icu4c/source/common/unicode/uchar.h",
   "underlying_type" : "_ZTIj"
  },
  {
   "alignment" : 4,
   "enum_fields" :
   [
    {
     "enum_field_value" : 0,
     "name" : "UCAL_JANUARY"
    },
    {
     "enum_field_value" : 1,
     "name" : "UCAL_FEBRUARY"
    },
    {
     "enum_field_value" : 2,
     "name" : "UCAL_MARCH"
    },
    {
     "enum_field_value" : 3,
     "name" : "UCAL_APRIL"
    },
    {
     "enum_field_value" : 4,
     "name" : "UCAL_MAY"
    },
    {
     "enum_field_value" : 5,
     "name" : "UCAL_JUNE"
    },
    {
     "enum_field_value" : 6,
     "name" : "UCAL_JULY"
    },
    {
     "enum_field_value" : 7,
     "name" : "UCAL_AUGUST"
    },
    {
     "enum_field_value" : 8,
     "name" : "UCAL_SEPTEMBER"
    },
    {
     "enum_field_value" : 9,
     "name" : "UCAL_OCTOBER"
    },
    {
     "enum_field_value" : 10,
     "name" : "UCAL_NOVEMBER"
    },
    {
     "enum_field_value" : 11,
     "name" : "UCAL_DECEMBER"
    },
    {
     "enum_field_value" : 12,
     "name" : "UCAL_UNDECIMBER"
    }
   ],
   "linker_set_key" : "_ZTI15UCalendarMonths",
   "name" : "UCalendarMonths",
   "referenced_type" : "_ZTI15UCalendarMonths",
   "self_type" : "_ZTI15UCalendarMonths",
   "size" : 4,
   "source_file" : "external/icu/icu4c/source/i18n/unicode/ucal.h",
   "underlying_type" : "_ZTIj"
  },
  {
   "alignment" : 4,
   "enum_fields" :
   [
    {
     "enum_field_value" : 0,
     "name" : "U_UNICODE_CHAR_NAME"
    },
    {
     "enum_field_value" : 1,
     "name" : "U_UNICODE_10_CHAR_NAME"
    },
    {
     "enum_field_value" : 2,
     "name" : "U_EXTENDED_CHAR_NAME"
    },
    {
     "enum_field_value" : 3,
     "name" : "U_CHAR_NAME_ALIAS"
    },
    {
     "enum_field_value" : 4,
     "name" : "U_CHAR_NAME_CHOICE_COUNT"
    }
   ],
   "linker_set_key" : "_ZTI15UCharNameChoice",
   "name" : "UCharNameChoice",
   "referenced_type" : "_ZTI15UCharNameChoice",
   "self_type" : "_ZTI15UCharNameChoice",
   "size" : 4,
   "source_file" : "external/icu/icu4c/source/common/unicode/uchar.h",
   "underlying_type" : "_ZTIj"
  },
  {
   "alignment" : 4,
   "enum_fields" :
   [
    {
     "enum_field_value" : -1,
     "name" : "UCOL_REORDER_CODE_DEFAULT"
    },
    {
     "enum_field_value" : 103,
     "name" : "UCOL_REORDER_CODE_NONE"
    },
    {
     "enum_field_value" : 103,
     "name" : "UCOL_REORDER_CODE_OTHERS"
    },
    {
     "enum_field_value" : 4096,
     "name" : "UCOL_REORDER_CODE_SPACE"
    },
    {
     "enum_field_value" : 4096,
     "name" : "UCOL_REORDER_CODE_FIRST"
    },
    {
     "enum_field_value" : 4097,
     "name" : "UCOL_REORDER_CODE_PUNCTUATION"
    },
    {
     "enum_field_value" : 4098,
     "name" : "UCOL_REORDER_CODE_SYMBOL"
    },
    {
     "enum_field_value" : 4099,
     "name" : "UCOL_REORDER_CODE_CURRENCY"
    },
    {
     "enum_field_value" : 4100,
     "name" : "UCOL_REORDER_CODE_DIGIT"
    },
    {
     "enum_field_value" : 4101,
     "name" : "UCOL_REORDER_CODE_LIMIT"
    }
   ],
   "linker_set_key" : "_ZTI15UColReorderCode",
   "name" : "UColReorderCode",
   "referenced_type" : "_ZTI15UColReorderCode",
   "self_type" : "_ZTI15UColReorderCode",
   "size" : 4,
   "source_file" : "external/icu/icu4c/source/i18n/unicode/ucol.h",
   "underlying_type" : "_ZTIi"
  },
  {
   "alignment" : 4,
   "enum_fields" :
   [
    {
     "enum_field_value" : 0,
     "name" : "UDATA_FILES_FIRST"
    },
    {
     "enum_field_value" : 0,
     "name" : "UDATA_DEFAULT_ACCESS"
    },
    {
     "enum_field_value" : 1,
     "name" : "UDATA_ONLY_PACKAGES"
    },
    {
     "enum_field_value" : 2,
     "name" : "UDATA_PACKAGES_FIRST"
    },
    {
     "enum_field_value" : 3,
     "name" : "UDATA_NO_FILES"
    },
    {
     "enum_field_value" : 4,
     "name" : "UDATA_FILE_ACCESS_COUNT"
    }
   ],
   "linker_set_key" : "_ZTI15UDataFileAccess",
   "name" : "UDataFileAccess",
   "referenced_type" : "_ZTI15UDataFileAccess",
   "self_type" : "_ZTI15UDataFileAccess",
   "size" : 4,
   "source_file" : "external/icu/icu4c/source/common/unicode/udata.h",
   "underlying_type" : "_ZTIj"
  },
  {
   "alignment" : 4,
   "enum_fields" :
   [
    {
     "enum_field_value" : 0,
     "name" : "UDISPCTX_STANDARD_NAMES"
    },
    {
     "enum_field_value" : 1,
     "name" : "UDISPCTX_DIALECT_NAMES"
    },
    {
     "enum_field_value" : 256,
     "name" : "UDISPCTX_CAPITALIZATION_NONE"
    },
    {
     "enum_field_value" : 257,
     "name" : "UDISPCTX_CAPITALIZATION_FOR_MIDDLE_OF_SENTENCE"
    },
    {
     "enum_field_value" : 258,
     "name" : "UDISPCTX_CAPITALIZATION_FOR_BEGINNING_OF_SENTENCE"
    },
    {
     "enum_field_value" : 259,
     "name" : "UDISPCTX_CAPITALIZATION_FOR_UI_LIST_OR_MENU"
    },
    {
     "enum_field_value" : 260,
     "name" : "UDISPCTX_CAPITALIZATION_FOR_STANDALONE"
    },
    {
     "enum_field_value" : 512,
     "name" : "UDISPCTX_LENGTH_FULL"
    },
    {
     "enum_field_value" : 513,
     "name" : "UDISPCTX_LENGTH_SHORT"
    },
    {
     "enum_field_value" : 768,
     "name" : "UDISPCTX_SUBSTITUTE"
    },
    {
     "enum_field_value" : 769,
     "name" : "UDISPCTX_NO_SUBSTITUTE"
    }
   ],
   "linker_set_key" : "_ZTI15UDisplayContext",
   "name" : "UDisplayContext",
   "referenced_type" : "_ZTI15UDisplayContext",
   "self_type" : "_ZTI15UDisplayContext",
   "size" : 4,
   "source_file" : "external/icu/icu4c/source/common/unicode/udisplaycontext.h",
   "underlying_type" : "_ZTIj"
  },
  {
   "alignment" : 4,
   "enum_fields" :
   [
    {
     "enum_field_value" : 0,
     "name" : "U_EA_NEUTRAL"
    },
    {
     "enum_field_value" : 1,
     "name" : "U_EA_AMBIGUOUS"
    },
    {
     "enum_field_value" : 2,
     "name" : "U_EA_HALFWIDTH"
    },
    {
     "enum_field_value" : 3,
     "name" : "U_EA_FULLWIDTH"
    },
    {
     "enum_field_value" : 4,
     "name" : "U_EA_NARROW"
    },
    {
     "enum_field_value" : 5,
     "name" : "U_EA_WIDE"
    },
    {
     "enum_field_value" : 6,
     "name" : "U_EA_COUNT"
    }
   ],
   "linker_set_key" : "_ZTI15UEastAsianWidth",
   "name" : "UEastAsianWidth",
   "referenced_type" : "_ZTI15UEastAsianWidth",
   "self_type" : "_ZTI15UEastAsianWidth",
   "size" : 4,
   "source_file" : "external/icu/icu4c/source/common/unicode/uchar.h",
   "underlying_type" : "_ZTIj"
  },
  {
   "alignment" : 4,
   "enum_fields" :
   [
    {
     "enum_field_value" : 0,
     "name" : "UTSV_UNITS_VALUE"
    },
    {
     "enum_field_value" : 1,
     "name" : "UTSV_EPOCH_OFFSET_VALUE"
    },
    {
     "enum_field_value" : 2,
     "name" : "UTSV_FROM_MIN_VALUE"
    },
    {
     "enum_field_value" : 3,
     "name" : "UTSV_FROM_MAX_VALUE"
    },
    {
     "enum_field_value" : 4,
     "name" : "UTSV_TO_MIN_VALUE"
    },
    {
     "enum_field_value" : 5,
     "name" : "UTSV_TO_MAX_VALUE"
    },
    {
     "enum_field_value" : 6,
     "name" : "UTSV_EPOCH_OFFSET_PLUS_1_VALUE"
    },
    {
     "enum_field_value" : 7,
     "name" : "UTSV_EPOCH_OFFSET_MINUS_1_VALUE"
    },
    {
     "enum_field_value" : 8,
     "name" : "UTSV_UNITS_ROUND_VALUE"
    },
    {
     "enum_field_value" : 9,
     "name" : "UTSV_MIN_ROUND_VALUE"
    },
    {
     "enum_field_value" : 10,
     "name" : "UTSV_MAX_ROUND_VALUE"
    },
    {
     "enum_field_value" : 11,
     "name" : "UTSV_MAX_SCALE_VALUE"
    }
   ],
   "linker_set_key" : "_ZTI15UTimeScaleValue",
   "name" : "UTimeScaleValue",
   "referenced_type" : "_ZTI15UTimeScaleValue",
   "self_type" : "_ZTI15UTimeScaleValue",
   "size" : 4,
   "source_file" : "external/icu/icu4c/source/i18n/unicode/utmscale.h",
   "underlying_type" : "_ZTIj"
  },
  {
   "alignment" : 4,
   "enum_fields" :
   [
    {
     "enum_field_value" : 0,
     "name" : "UTRANS_FORWARD"
    },
    {
     "enum_field_value" : 1,
     "name" : "UTRANS_REVERSE"
    }
   ],
   "linker_set_key" : "_ZTI15UTransDirection",
   "name" : "UTransDirection",
   "referenced_type" : "_ZTI15UTransDirection",
   "self_type" : "_ZTI15UTransDirection",
   "size" : 4,
   "source_file" : "external/icu/icu4c/source/i18n/unicode/utrans.h",
   "underlying_type" : "_ZTIj"
  },
  {
   "alignment" : 4,
   "enum_fields" :
   [
    {
     "enum_field_value" : 0,
     "name" : "UCOL_EQUAL"
    },
    {
     "enum_field_value" : 1,
     "name" : "UCOL_GREATER"
    },
    {
     "enum_field_value" : -1,
     "name" : "UCOL_LESS"
    }
   ],
   "linker_set_key" : "_ZTI16UCollationResult",
   "name" : "UCollationResult",
   "referenced_type" : "_ZTI16UCollationResult",
   "self_type" : "_ZTI16UCollationResult",
   "size" : 4,
   "source_file" : "external/icu/icu4c/source/i18n/unicode/ucol.h",
   "underlying_type" : "_ZTIi"
  },
  {
   "alignment" : 4,
   "enum_fields" :
   [
    {
     "enum_field_value" : 0,
     "name" : "UNUM_CURRENCY_MATCH"
    },
    {
     "enum_field_value" : 1,
     "name" : "UNUM_CURRENCY_SURROUNDING_MATCH"
    },
    {
     "enum_field_value" : 2,
     "name" : "UNUM_CURRENCY_INSERT"
    },
    {
     "enum_field_value" : 3,
     "name" : "UNUM_CURRENCY_SPACING_COUNT"
    }
   ],
   "linker_set_key" : "_ZTI16UCurrencySpacing",
   "name" : "UCurrencySpacing",
   "referenced_type" : "_ZTI16UCurrencySpacing",
   "self_type" : "_ZTI16UCurrencySpacing",
   "size" : 4,
   "source_file" : "external/icu/icu4c/source/i18n/unicode/unum.h",
   "underlying_type" : "_ZTIj"
  },
  {
   "alignment" : 4,
   "enum_fields" :
   [
    {
     "enum_field_value" : 0,
     "name" : "UDAT_ERA_FIELD"
    },
    {
     "enum_field_value" : 1,
     "name" : "UDAT_YEAR_FIELD"
    },
    {
     "enum_field_value" : 2,
     "name" : "UDAT_MONTH_FIELD"
    },
    {
     "enum_field_value" : 3,
     "name" : "UDAT_DATE_FIELD"
    },
    {
     "enum_field_value" : 4,
     "name" : "UDAT_HOUR_OF_DAY1_FIELD"
    },
    {
     "enum_field_value" : 5,
     "name" : "UDAT_HOUR_OF_DAY0_FIELD"
    },
    {
     "enum_field_value" : 6,
     "name" : "UDAT_MINUTE_FIELD"
    },
    {
     "enum_field_value" : 7,
     "name" : "UDAT_SECOND_FIELD"
    },
    {
     "enum_field_value" : 8,
     "name" : "UDAT_FRACTIONAL_SECOND_FIELD"
    },
    {
     "enum_field_value" : 9,
     "name" : "UDAT_DAY_OF_WEEK_FIELD"
    },
    {
     "enum_field_value" : 10,
     "name" : "UDAT_DAY_OF_YEAR_FIELD"
    },
    {
     "enum_field_value" : 11,
     "name" : "UDAT_DAY_OF_WEEK_IN_MONTH_FIELD"
    },
    {
     "enum_field_value" : 12,
     "name" : "UDAT_WEEK_OF_YEAR_FIELD"
    },
    {
     "enum_field_value" : 13,
     "name" : "UDAT_WEEK_OF_MONTH_FIELD"
    },
    {
     "enum_field_value" : 14,
     "name" : "UDAT_AM_PM_FIELD"
    },
    {
     "enum_field_value" : 15,
     "name" : "UDAT_HOUR1_FIELD"
    },
    {
     "enum_field_value" : 16,
     "name" : "UDAT_HOUR0_FIELD"
    },
    {
     "enum_field_value" : 17,
     "name" : "UDAT_TIMEZONE_FIELD"
    },
    {
     "enum_field_value" : 18,
     "name" : "UDAT_YEAR_WOY_FIELD"
    },
    {
     "enum_field_value" : 19,
     "name" : "UDAT_DOW_LOCAL_FIELD"
    },
    {
     "enum_field_value" : 20,
     "name" : "UDAT_EXTENDED_YEAR_FIELD"
    },
    {
     "enum_field_value" : 21,
     "name" : "UDAT_JULIAN_DAY_FIELD"
    },
    {
     "enum_field_value" : 22,
     "name" : "UDAT_MILLISECONDS_IN_DAY_FIELD"
    },
    {
     "enum_field_value" : 23,
     "name" : "UDAT_TIMEZONE_RFC_FIELD"
    },
    {
     "enum_field_value" : 24,
     "name" : "UDAT_TIMEZONE_GENERIC_FIELD"
    },
    {
     "enum_field_value" : 25,
     "name" : "UDAT_STANDALONE_DAY_FIELD"
    },
    {
     "enum_field_value" : 26,
     "name" : "UDAT_STANDALONE_MONTH_FIELD"
    },
    {
     "enum_field_value" : 27,
     "name" : "UDAT_QUARTER_FIELD"
    },
    {
     "enum_field_value" : 28,
     "name" : "UDAT_STANDALONE_QUARTER_FIELD"
    },
    {
     "enum_field_value" : 29,
     "name" : "UDAT_TIMEZONE_SPECIAL_FIELD"
    },
    {
     "enum_field_value" : 30,
     "name" : "UDAT_YEAR_NAME_FIELD"
    },
    {
     "enum_field_value" : 31,
     "name" : "UDAT_TIMEZONE_LOCALIZED_GMT_OFFSET_FIELD"
    },
    {
     "enum_field_value" : 32,
     "name" : "UDAT_TIMEZONE_ISO_FIELD"
    },
    {
     "enum_field_value" : 33,
     "name" : "UDAT_TIMEZONE_ISO_LOCAL_FIELD"
    },
    {
     "enum_field_value" : 34,
     "name" : "UDAT_RELATED_YEAR_FIELD"
    },
    {
     "enum_field_value" : 35,
     "name" : "UDAT_AM_PM_MIDNIGHT_NOON_FIELD"
    },
    {
     "enum_field_value" : 36,
     "name" : "UDAT_FLEXIBLE_DAY_PERIOD_FIELD"
    },
    {
     "enum_field_value" : 37,
     "name" : "UDAT_TIME_SEPARATOR_FIELD"
    },
    {
     "enum_field_value" : 38,
     "name" : "UDAT_FIELD_COUNT"
    }
   ],
   "linker_set_key" : "_ZTI16UDateFormatField",
   "name" : "UDateFormatField",
   "referenced_type" : "_ZTI16UDateFormatField",
   "self_type" : "_ZTI16UDateFormatField",
   "size" : 4,
   "source_file" : "external/icu/icu4c/source/i18n/unicode/udat.h",
   "underlying_type" : "_ZTIj"
  },
  {
   "alignment" : 4,
   "enum_fields" :
   [
    {
     "enum_field_value" : 0,
     "name" : "UDAT_FULL"
    },
    {
     "enum_field_value" : 1,
     "name" : "UDAT_LONG"
    },
    {
     "enum_field_value" : 2,
     "name" : "UDAT_MEDIUM"
    },
    {
     "enum_field_value" : 3,
     "name" : "UDAT_SHORT"
    },
    {
     "enum_field_value" : 2,
     "name" : "UDAT_DEFAULT"
    },
    {
     "enum_field_value" : 128,
     "name" : "UDAT_RELATIVE"
    },
    {
     "enum_field_value" : 128,
     "name" : "UDAT_FULL_RELATIVE"
    },
    {
     "enum_field_value" : 129,
     "name" : "UDAT_LONG_RELATIVE"
    },
    {
     "enum_field_value" : 130,
     "name" : "UDAT_MEDIUM_RELATIVE"
    },
    {
     "enum_field_value" : 131,
     "name" : "UDAT_SHORT_RELATIVE"
    },
    {
     "enum_field_value" : -1,
     "name" : "UDAT_NONE"
    },
    {
     "enum_field_value" : -2,
     "name" : "UDAT_PATTERN"
    },
    {
     "enum_field_value" : -2,
     "name" : "UDAT_IGNORE"
    }
   ],
   "linker_set_key" : "_ZTI16UDateFormatStyle",
   "name" : "UDateFormatStyle",
   "referenced_type" : "_ZTI16UDateFormatStyle",
   "self_type" : "_ZTI16UDateFormatStyle",
   "size" : 4,
   "source_file" : "external/icu/icu4c/source/i18n/unicode/udat.h",
   "underlying_type" : "_ZTIi"
  },
  {
   "alignment" : 4,
   "enum_fields" :
   [
    {
     "enum_field_value" : 0,
     "name" : "ULDN_STANDARD_NAMES"
    },
    {
     "enum_field_value" : 1,
     "name" : "ULDN_DIALECT_NAMES"
    }
   ],
   "linker_set_key" : "_ZTI16UDialectHandling",
   "name" : "UDialectHandling",
   "referenced_type" : "_ZTI16UDialectHandling",
   "self_type" : "_ZTI16UDialectHandling",
   "size" : 4,
   "source_file" : "external/icu/icu4c/source/common/unicode/uldnames.h",
   "underlying_type" : "_ZTIj"
  },
  {
   "alignment" : 4,
   "enum_fields" :
   [
    {
     "enum_field_value" : 0,
     "name" : "UFMT_DATE"
    },
    {
     "enum_field_value" : 1,
     "name" : "UFMT_DOUBLE"
    },
    {
     "enum_field_value" : 2,
     "name" : "UFMT_LONG"
    },
    {
     "enum_field_value" : 3,
     "name" : "UFMT_STRING"
    },
    {
     "enum_field_value" : 4,
     "name" : "UFMT_ARRAY"
    },
    {
     "enum_field_value" : 5,
     "name" : "UFMT_INT64"
    },
    {
     "enum_field_value" : 6,
     "name" : "UFMT_OBJECT"
    },
    {
     "enum_field_value" : 7,
     "name" : "UFMT_COUNT"
    }
   ],
   "linker_set_key" : "_ZTI16UFormattableType",
   "name" : "UFormattableType",
   "referenced_type" : "_ZTI16UFormattableType",
   "self_type" : "_ZTI16UFormattableType",
   "size" : 4,
   "source_file" : "external/icu/icu4c/source/i18n/unicode/uformattable.h",
   "underlying_type" : "_ZTIj"
  },
  {
   "alignment" : 4,
   "enum_fields" :
   [
    {
     "enum_field_value" : 0,
     "name" : "UNUM_UNIT_WIDTH_NARROW"
    },
    {
     "enum_field_value" : 1,
     "name" : "UNUM_UNIT_WIDTH_SHORT"
    },
    {
     "enum_field_value" : 2,
     "name" : "UNUM_UNIT_WIDTH_FULL_NAME"
    },
    {
     "enum_field_value" : 3,
     "name" : "UNUM_UNIT_WIDTH_ISO_CODE"
    },
    {
     "enum_field_value" : 4,
     "name" : "UNUM_UNIT_WIDTH_FORMAL"
    },
    {
     "enum_field_value" : 5,
     "name" : "UNUM_UNIT_WIDTH_VARIANT"
    },
    {
     "enum_field_value" : 6,
     "name" : "UNUM_UNIT_WIDTH_HIDDEN"
    },
    {
     "enum_field_value" : 7,
     "name" : "UNUM_UNIT_WIDTH_COUNT"
    }
   ],
   "linker_set_key" : "_ZTI16UNumberUnitWidth",
   "name" : "UNumberUnitWidth",
   "referenced_type" : "_ZTI16UNumberUnitWidth",
   "self_type" : "_ZTI16UNumberUnitWidth",
   "size" : 4,
   "source_file" : "external/icu/icu4c/source/i18n/unicode/unumberformatter.h",
   "underlying_type" : "_ZTIj"
  },
  {
   "alignment" : 4,
   "enum_fields" :
   [
    {
     "enum_field_value" : 0,
     "name" : "USEARCH_OVERLAP"
    },
    {
     "enum_field_value" : 1,
     "name" : "USEARCH_CANONICAL_MATCH"
    },
    {
     "enum_field_value" : 2,
     "name" : "USEARCH_ELEMENT_COMPARISON"
    },
    {
     "enum_field_value" : 3,
     "name" : "USEARCH_ATTRIBUTE_COUNT"
    }
   ],
   "linker_set_key" : "_ZTI16USearchAttribute",
   "name" : "USearchAttribute",
   "referenced_type" : "_ZTI16USearchAttribute",
   "self_type" : "_ZTI16USearchAttribute",
   "size" : 4,
   "source_file" : "external/icu/icu4c/source/i18n/unicode/usearch.h",
   "underlying_type" : "_ZTIj"
  },
  {
   "alignment" : 4,
   "enum_fields" :
   [
    {
     "enum_field_value" : 0,
     "name" : "U_WB_OTHER"
    },
    {
     "enum_field_value" : 1,
     "name" : "U_WB_ALETTER"
    },
    {
     "enum_field_value" : 2,
     "name" : "U_WB_FORMAT"
    },
    {
     "enum_field_value" : 3,
     "name" : "U_WB_KATAKANA"
    },
    {
     "enum_field_value" : 4,
     "name" : "U_WB_MIDLETTER"
    },
    {
     "enum_field_value" : 5,
     "name" : "U_WB_MIDNUM"
    },
    {
     "enum_field_value" : 6,
     "name" : "U_WB_NUMERIC"
    },
    {
     "enum_field_value" : 7,
     "name" : "U_WB_EXTENDNUMLET"
    },
    {
     "enum_field_value" : 8,
     "name" : "U_WB_CR"
    },
    {
     "enum_field_value" : 9,
     "name" : "U_WB_EXTEND"
    },
    {
     "enum_field_value" : 10,
     "name" : "U_WB_LF"
    },
    {
     "enum_field_value" : 11,
     "name" : "U_WB_MIDNUMLET"
    },
    {
     "enum_field_value" : 12,
     "name" : "U_WB_NEWLINE"
    },
    {
     "enum_field_value" : 13,
     "name" : "U_WB_REGIONAL_INDICATOR"
    },
    {
     "enum_field_value" : 14,
     "name" : "U_WB_HEBREW_LETTER"
    },
    {
     "enum_field_value" : 15,
     "name" : "U_WB_SINGLE_QUOTE"
    },
    {
     "enum_field_value" : 16,
     "name" : "U_WB_DOUBLE_QUOTE"
    },
    {
     "enum_field_value" : 17,
     "name" : "U_WB_E_BASE"
    },
    {
     "enum_field_value" : 18,
     "name" : "U_WB_E_BASE_GAZ"
    },
    {
     "enum_field_value" : 19,
     "name" : "U_WB_E_MODIFIER"
    },
    {
     "enum_field_value" : 20,
     "name" : "U_WB_GLUE_AFTER_ZWJ"
    },
    {
     "enum_field_value" : 21,
     "name" : "U_WB_ZWJ"
    },
    {
     "enum_field_value" : 22,
     "name" : "U_WB_WSEGSPACE"
    },
    {
     "enum_field_value" : 23,
     "name" : "U_WB_COUNT"
    }
   ],
   "linker_set_key" : "_ZTI16UWordBreakValues",
   "name" : "UWordBreakValues",
   "referenced_type" : "_ZTI16UWordBreakValues",
   "self_type" : "_ZTI16UWordBreakValues",
   "size" : 4,
   "source_file" : "external/icu/icu4c/source/common/unicode/uchar.h",
   "underlying_type" : "_ZTIj"
  },
  {
   "alignment" : 4,
   "enum_fields" :
   [
    {
     "enum_field_value" : 1,
     "name" : "UIDNA_ERROR_EMPTY_LABEL"
    },
    {
     "enum_field_value" : 2,
     "name" : "UIDNA_ERROR_LABEL_TOO_LONG"
    },
    {
     "enum_field_value" : 4,
     "name" : "UIDNA_ERROR_DOMAIN_NAME_TOO_LONG"
    },
    {
     "enum_field_value" : 8,
     "name" : "UIDNA_ERROR_LEADING_HYPHEN"
    },
    {
     "enum_field_value" : 16,
     "name" : "UIDNA_ERROR_TRAILING_HYPHEN"
    },
    {
     "enum_field_value" : 32,
     "name" : "UIDNA_ERROR_HYPHEN_3_4"
    },
    {
     "enum_field_value" : 64,
     "name" : "UIDNA_ERROR_LEADING_COMBINING_MARK"
    },
    {
     "enum_field_value" : 128,
     "name" : "UIDNA_ERROR_DISALLOWED"
    },
    {
     "enum_field_value" : 256,
     "name" : "UIDNA_ERROR_PUNYCODE"
    },
    {
     "enum_field_value" : 512,
     "name" : "UIDNA_ERROR_LABEL_HAS_DOT"
    },
    {
     "enum_field_value" : 1024,
     "name" : "UIDNA_ERROR_INVALID_ACE_LABEL"
    },
    {
     "enum_field_value" : 2048,
     "name" : "UIDNA_ERROR_BIDI"
    },
    {
     "enum_field_value" : 4096,
     "name" : "UIDNA_ERROR_CONTEXTJ"
    },
    {
     "enum_field_value" : 8192,
     "name" : "UIDNA_ERROR_CONTEXTO_PUNCTUATION"
    },
    {
     "enum_field_value" : 16384,
     "name" : "UIDNA_ERROR_CONTEXTO_DIGITS"
    }
   ],
   "linker_set_key" : "_ZTI17$UIDNA_ERROR_BIDI",
   "name" : "(anonymous enum at external/icu/icu4c/source/common/unicode/uidna.h:425:1)",
   "referenced_type" : "_ZTI17$UIDNA_ERROR_BIDI",
   "self_type" : "_ZTI17$UIDNA_ERROR_BIDI",
   "size" : 4,
   "source_file" : "external/icu/icu4c/source/common/unicode/uidna.h",
   "underlying_type" : "_ZTIj"
  },
  {
   "alignment" : 4,
   "enum_fields" :
   [
    {
     "enum_field_value" : 0,
     "name" : "UCPMAP_RANGE_NORMAL"
    },
    {
     "enum_field_value" : 1,
     "name" : "UCPMAP_RANGE_FIXED_LEAD_SURROGATES"
    },
    {
     "enum_field_value" : 2,
     "name" : "UCPMAP_RANGE_FIXED_ALL_SURROGATES"
    }
   ],
   "linker_set_key" : "_ZTI17UCPMapRangeOption",
   "name" : "UCPMapRangeOption",
   "referenced_type" : "_ZTI17UCPMapRangeOption",
   "self_type" : "_ZTI17UCPMapRangeOption",
   "size" : 4,
   "source_file" : "external/icu/icu4c/source/common/unicode/ucpmap.h",
   "underlying_type" : "_ZTIj"
  },
  {
   "alignment" : 4,
   "enum_fields" :
   [
    {
     "enum_field_value" : -1,
     "name" : "UCPTRIE_VALUE_BITS_ANY"
    },
    {
     "enum_field_value" : 0,
     "name" : "UCPTRIE_VALUE_BITS_16"
    },
    {
     "enum_field_value" : 1,
     "name" : "UCPTRIE_VALUE_BITS_32"
    },
    {
     "enum_field_value" : 2,
     "name" : "UCPTRIE_VALUE_BITS_8"
    }
   ],
   "linker_set_key" : "_ZTI17UCPTrieValueWidth",
   "name" : "UCPTrieValueWidth",
   "referenced_type" : "_ZTI17UCPTrieValueWidth",
   "self_type" : "_ZTI17UCPTrieValueWidth",
   "size" : 4,
   "source_file" : "external/icu/icu4c/source/common/unicode/ucptrie.h",
   "underlying_type" : "_ZTIi"
  },
  {
   "alignment" : 4,
   "enum_fields" :
   [
    {
     "enum_field_value" : 2147483647,
     "name" : "UCURR_ALL"
    },
    {
     "enum_field_value" : 1,
     "name" : "UCURR_COMMON"
    },
    {
     "enum_field_value" : 2,
     "name" : "UCURR_UNCOMMON"
    },
    {
     "enum_field_value" : 4,
     "name" : "UCURR_DEPRECATED"
    },
    {
     "enum_field_value" : 8,
     "name" : "UCURR_NON_DEPRECATED"
    }
   ],
   "linker_set_key" : "_ZTI17UCurrCurrencyType",
   "name" : "UCurrCurrencyType",
   "referenced_type" : "_ZTI17UCurrCurrencyType",
   "self_type" : "_ZTI17UCurrCurrencyType",
   "size" : 4,
   "source_file" : "external/icu/icu4c/source/common/unicode/ucurr.h",
   "underlying_type" : "_ZTIj"
  },
  {
   "alignment" : 4,
   "enum_fields" :
   [
    {
     "enum_field_value" : 0,
     "name" : "ULOC_AVAILABLE_DEFAULT"
    },
    {
     "enum_field_value" : 1,
     "name" : "ULOC_AVAILABLE_ONLY_LEGACY_ALIASES"
    },
    {
     "enum_field_value" : 2,
     "name" : "ULOC_AVAILABLE_WITH_LEGACY_ALIASES"
    },
    {
     "enum_field_value" : 3,
     "name" : "ULOC_AVAILABLE_COUNT"
    }
   ],
   "linker_set_key" : "_ZTI17ULocAvailableType",
   "name" : "ULocAvailableType",
   "referenced_type" : "_ZTI17ULocAvailableType",
   "self_type" : "_ZTI17ULocAvailableType",
   "size" : 4,
   "source_file" : "external/icu/icu4c/source/common/unicode/uloc.h",
   "underlying_type" : "_ZTIj"
  },
  {
   "alignment" : 4,
   "enum_fields" :
   [
    {
     "enum_field_value" : 268435456,
     "name" : "USPOOF_ASCII"
    },
    {
     "enum_field_value" : 536870912,
     "name" : "USPOOF_SINGLE_SCRIPT_RESTRICTIVE"
    },
    {
     "enum_field_value" : 805306368,
     "name" : "USPOOF_HIGHLY_RESTRICTIVE"
    },
    {
     "enum_field_value" : 1073741824,
     "name" : "USPOOF_MODERATELY_RESTRICTIVE"
    },
    {
     "enum_field_value" : 1342177280,
     "name" : "USPOOF_MINIMALLY_RESTRICTIVE"
    },
    {
     "enum_field_value" : 1610612736,
     "name" : "USPOOF_UNRESTRICTIVE"
    },
    {
     "enum_field_value" : 2130706432,
     "name" : "USPOOF_RESTRICTION_LEVEL_MASK"
    },
    {
     "enum_field_value" : -1,
     "name" : "USPOOF_UNDEFINED_RESTRICTIVE"
    }
   ],
   "linker_set_key" : "_ZTI17URestrictionLevel",
   "name" : "URestrictionLevel",
   "referenced_type" : "_ZTI17URestrictionLevel",
   "self_type" : "_ZTI17URestrictionLevel",
   "size" : 4,
   "source_file" : "external/icu/icu4c/source/i18n/unicode/uspoof.h",
   "underlying_type" : "_ZTIi"
  },
  {
   "alignment" : 4,
   "enum_fields" :
   [
    {
     "enum_field_value" : 0,
     "name" : "UBRK_SENTENCE_TERM"
    },
    {
     "enum_field_value" : 100,
     "name" : "UBRK_SENTENCE_TERM_LIMIT"
    },
    {
     "enum_field_value" : 100,
     "name" : "UBRK_SENTENCE_SEP"
    },
    {
     "enum_field_value" : 200,
     "name" : "UBRK_SENTENCE_SEP_LIMIT"
    }
   ],
   "linker_set_key" : "_ZTI17USentenceBreakTag",
   "name" : "USentenceBreakTag",
   "referenced_type" : "_ZTI17USentenceBreakTag",
   "self_type" : "_ZTI17USentenceBreakTag",
   "size" : 4,
   "source_file" : "external/icu/icu4c/source/common/unicode/ubrk.h",
   "underlying_type" : "_ZTIj"
  },
  {
   "alignment" : 4,
   "enum_fields" :
   [
    {
     "enum_field_value" : 0,
     "name" : "USET_SPAN_NOT_CONTAINED"
    },
    {
     "enum_field_value" : 1,
     "name" : "USET_SPAN_CONTAINED"
    },
    {
     "enum_field_value" : 2,
     "name" : "USET_SPAN_SIMPLE"
    },
    {
     "enum_field_value" : 3,
     "name" : "USET_SPAN_CONDITION_COUNT"
    }
   ],
   "linker_set_key" : "_ZTI17USetSpanCondition",
   "name" : "USetSpanCondition",
   "referenced_type" : "_ZTI17USetSpanCondition",
   "self_type" : "_ZTI17USetSpanCondition",
   "size" : 4,
   "source_file" : "external/icu/icu4c/source/common/unicode/uset.h",
   "underlying_type" : "_ZTIj"
  },
  {
   "alignment" : 4,
   "enum_fields" :
   [
    {
     "enum_field_value" : 32,
     "name" : "UNORM_UNICODE_3_2"
    }
   ],
   "linker_set_key" : "_ZTI18$UNORM_UNICODE_3_2",
   "name" : "(anonymous enum at external/icu/icu4c/source/common/unicode/unorm.h:171:1)",
   "referenced_type" : "_ZTI18$UNORM_UNICODE_3_2",
   "self_type" : "_ZTI18$UNORM_UNICODE_3_2",
   "size" : 4,
   "source_file" : "external/icu/icu4c/source/common/unicode/unorm.h",
   "underlying_type" : "_ZTIj"
  },
  {
   "alignment" : 4,
   "enum_fields" :
   [
    {
     "enum_field_value" : 0,
     "name" : "UBRK_CHARACTER"
    },
    {
     "enum_field_value" : 1,
     "name" : "UBRK_WORD"
    },
    {
     "enum_field_value" : 2,
     "name" : "UBRK_LINE"
    },
    {
     "enum_field_value" : 3,
     "name" : "UBRK_SENTENCE"
    },
    {
     "enum_field_value" : 4,
     "name" : "UBRK_TITLE"
    },
    {
     "enum_field_value" : 5,
     "name" : "UBRK_COUNT"
    }
   ],
   "linker_set_key" : "_ZTI18UBreakIteratorType",
   "name" : "UBreakIteratorType",
   "referenced_type" : "_ZTI18UBreakIteratorType",
   "self_type" : "_ZTI18UBreakIteratorType",
   "size" : 4,
   "source_file" : "external/icu/icu4c/source/common/unicode/ubrk.h",
   "underlying_type" : "_ZTIj"
  },
  {
   "alignment" : 4,
   "enum_fields" :
   [
    {
     "enum_field_value" : 0,
     "name" : "UCAL_LENIENT"
    },
    {
     "enum_field_value" : 1,
     "name" : "UCAL_FIRST_DAY_OF_WEEK"
    },
    {
     "enum_field_value" : 2,
     "name" : "UCAL_MINIMAL_DAYS_IN_FIRST_WEEK"
    },
    {
     "enum_field_value" : 3,
     "name" : "UCAL_REPEATED_WALL_TIME"
    },
    {
     "enum_field_value" : 4,
     "name" : "UCAL_SKIPPED_WALL_TIME"
    }
   ],
   "linker_set_key" : "_ZTI18UCalendarAttribute",
   "name" : "UCalendarAttribute",
   "referenced_type" : "_ZTI18UCalendarAttribute",
   "self_type" : "_ZTI18UCalendarAttribute",
   "size" : 4,
   "source_file" : "external/icu/icu4c/source/i18n/unicode/ucal.h",
   "underlying_type" : "_ZTIj"
  },
  {
   "alignment" : 4,
   "enum_fields" :
   [
    {
     "enum_field_value" : 0,
     "name" : "UCAL_MINIMUM"
    },
    {
     "enum_field_value" : 1,
     "name" : "UCAL_MAXIMUM"
    },
    {
     "enum_field_value" : 2,
     "name" : "UCAL_GREATEST_MINIMUM"
    },
    {
     "enum_field_value" : 3,
     "name" : "UCAL_LEAST_MAXIMUM"
    },
    {
     "enum_field_value" : 4,
     "name" : "UCAL_ACTUAL_MINIMUM"
    },
    {
     "enum_field_value" : 5,
     "name" : "UCAL_ACTUAL_MAXIMUM"
    }
   ],
   "linker_set_key" : "_ZTI18UCalendarLimitType",
   "name" : "UCalendarLimitType",
   "referenced_type" : "_ZTI18UCalendarLimitType",
   "self_type" : "_ZTI18UCalendarLimitType",
   "size" : 4,
   "source_file" : "external/icu/icu4c/source/i18n/unicode/ucal.h",
   "underlying_type" : "_ZTIj"
  },
  {
   "alignment" : 4,
   "enum_fields" :
   [
    {
     "enum_field_value" : -1,
     "name" : "UCOL_DEFAULT"
    },
    {
     "enum_field_value" : 0,
     "name" : "UCOL_PRIMARY"
    },
    {
     "enum_field_value" : 1,
     "name" : "UCOL_SECONDARY"
    },
    {
     "enum_field_value" : 2,
     "name" : "UCOL_TERTIARY"
    },
    {
     "enum_field_value" : 2,
     "name" : "UCOL_DEFAULT_STRENGTH"
    },
    {
     "enum_field_value" : 3,
     "name" : "UCOL_CE_STRENGTH_LIMIT"
    },
    {
     "enum_field_value" : 3,
     "name" : "UCOL_QUATERNARY"
    },
    {
     "enum_field_value" : 15,
     "name" : "UCOL_IDENTICAL"
    },
    {
     "enum_field_value" : 16,
     "name" : "UCOL_STRENGTH_LIMIT"
    },
    {
     "enum_field_value" : 16,
     "name" : "UCOL_OFF"
    },
    {
     "enum_field_value" : 17,
     "name" : "UCOL_ON"
    },
    {
     "enum_field_value" : 20,
     "name" : "UCOL_SHIFTED"
    },
    {
     "enum_field_value" : 21,
     "name" : "UCOL_NON_IGNORABLE"
    },
    {
     "enum_field_value" : 24,
     "name" : "UCOL_LOWER_FIRST"
    },
    {
     "enum_field_value" : 25,
     "name" : "UCOL_UPPER_FIRST"
    },
    {
     "enum_field_value" : 26,
     "name" : "UCOL_ATTRIBUTE_VALUE_COUNT"
    }
   ],
   "linker_set_key" : "_ZTI18UColAttributeValue",
   "name" : "UColAttributeValue",
   "referenced_type" : "_ZTI18UColAttributeValue",
   "self_type" : "_ZTI18UColAttributeValue",
   "size" : 4,
   "source_file" : "external/icu/icu4c/source/i18n/unicode/ucol.h",
   "underlying_type" : "_ZTIi"
  },
  {
   "alignment" : 4,
   "enum_fields" :
   [
    {
     "enum_field_value" : -1,
     "name" : "UCNV_UNKNOWN"
    },
    {
     "enum_field_value" : 0,
     "name" : "UCNV_IBM"
    }
   ],
   "linker_set_key" : "_ZTI18UConverterPlatform",
   "name" : "UConverterPlatform",
   "referenced_type" : "_ZTI18UConverterPlatform",
   "self_type" : "_ZTI18UConverterPlatform",
   "size" : 4,
   "source_file" : "external/icu/icu4c/source/common/unicode/ucnv.h",
   "underlying_type" : "_ZTIi"
  },
  {
   "alignment" : 4,
   "enum_fields" :
   [
    {
     "enum_field_value" : 0,
     "name" : "U_DT_NONE"
    },
    {
     "enum_field_value" : 1,
     "name" : "U_DT_CANONICAL"
    },
    {
     "enum_field_value" : 2,
     "name" : "U_DT_COMPAT"
    },
    {
     "enum_field_value" : 3,
     "name" : "U_DT_CIRCLE"
    },
    {
     "enum_field_value" : 4,
     "name" : "U_DT_FINAL"
    },
    {
     "enum_field_value" : 5,
     "name" : "U_DT_FONT"
    },
    {
     "enum_field_value" : 6,
     "name" : "U_DT_FRACTION"
    },
    {
     "enum_field_value" : 7,
     "name" : "U_DT_INITIAL"
    },
    {
     "enum_field_value" : 8,
     "name" : "U_DT_ISOLATED"
    },
    {
     "enum_field_value" : 9,
     "name" : "U_DT_MEDIAL"
    },
    {
     "enum_field_value" : 10,
     "name" : "U_DT_NARROW"
    },
    {
     "enum_field_value" : 11,
     "name" : "U_DT_NOBREAK"
    },
    {
     "enum_field_value" : 12,
     "name" : "U_DT_SMALL"
    },
    {
     "enum_field_value" : 13,
     "name" : "U_DT_SQUARE"
    },
    {
     "enum_field_value" : 14,
     "name" : "U_DT_SUB"
    },
    {
     "enum_field_value" : 15,
     "name" : "U_DT_SUPER"
    },
    {
     "enum_field_value" : 16,
     "name" : "U_DT_VERTICAL"
    },
    {
     "enum_field_value" : 17,
     "name" : "U_DT_WIDE"
    },
    {
     "enum_field_value" : 18,
     "name" : "U_DT_COUNT"
    }
   ],
   "linker_set_key" : "_ZTI18UDecompositionType",
   "name" : "UDecompositionType",
   "referenced_type" : "_ZTI18UDecompositionType",
   "self_type" : "_ZTI18UDecompositionType",
   "size" : 4,
   "source_file" : "external/icu/icu4c/source/common/unicode/uchar.h",
   "underlying_type" : "_ZTIj"
  },
  {
   "alignment" : 4,
   "enum_fields" :
   [
    {
     "enum_field_value" : 0,
     "name" : "ULISTFMT_TYPE_AND"
    },
    {
     "enum_field_value" : 1,
     "name" : "ULISTFMT_TYPE_OR"
    },
    {
     "enum_field_value" : 2,
     "name" : "ULISTFMT_TYPE_UNITS"
    }
   ],
   "linker_set_key" : "_ZTI18UListFormatterType",
   "name" : "UListFormatterType",
   "referenced_type" : "_ZTI18UListFormatterType",
   "self_type" : "_ZTI18UListFormatterType",
   "size" : 4,
   "source_file" : "external/icu/icu4c/source/i18n/unicode/ulistformatter.h",
   "underlying_type" : "_ZTIj"
  },
  {
   "alignment" : 4,
   "enum_fields" :
   [
    {
     "enum_field_value" : 0,
     "name" : "ULOC_ACTUAL_LOCALE"
    },
    {
     "enum_field_value" : 1,
     "name" : "ULOC_VALID_LOCALE"
    },
    {
     "enum_field_value" : 2,
     "name" : "ULOC_REQUESTED_LOCALE"
    },
    {
     "enum_field_value" : 3,
     "name" : "ULOC_DATA_LOCALE_TYPE_LIMIT"
    }
   ],
   "linker_set_key" : "_ZTI18ULocDataLocaleType",
   "name" : "ULocDataLocaleType",
   "referenced_type" : "_ZTI18ULocDataLocaleType",
   "self_type" : "_ZTI18ULocDataLocaleType",
   "size" : 4,
   "source_file" : "external/icu/icu4c/source/common/unicode/uloc.h",
   "underlying_type" : "_ZTIj"
  },
  {
   "alignment" : 4,
   "enum_fields" :
   [
    {
     "enum_field_value" : 0,
     "name" : "UMS_SI"
    },
    {
     "enum_field_value" : 1,
     "name" : "UMS_US"
    },
    {
     "enum_field_value" : 2,
     "name" : "UMS_UK"
    },
    {
     "enum_field_value" : 3,
     "name" : "UMS_LIMIT"
    }
   ],
   "linker_set_key" : "_ZTI18UMeasurementSystem",
   "name" : "UMeasurementSystem",
   "referenced_type" : "_ZTI18UMeasurementSystem",
   "self_type" : "_ZTI18UMeasurementSystem",
   "size" : 4,
   "source_file" : "external/icu/icu4c/source/i18n/unicode/ulocdata.h",
   "underlying_type" : "_ZTIj"
  },
  {
   "alignment" : 4,
   "enum_fields" :
   [
    {
     "enum_field_value" : 1,
     "name" : "UNORM_NONE"
    },
    {
     "enum_field_value" : 2,
     "name" : "UNORM_NFD"
    },
    {
     "enum_field_value" : 3,
     "name" : "UNORM_NFKD"
    },
    {
     "enum_field_value" : 4,
     "name" : "UNORM_NFC"
    },
    {
     "enum_field_value" : 4,
     "name" : "UNORM_DEFAULT"
    },
    {
     "enum_field_value" : 5,
     "name" : "UNORM_NFKC"
    },
    {
     "enum_field_value" : 6,
     "name" : "UNORM_FCD"
    },
    {
     "enum_field_value" : 7,
     "name" : "UNORM_MODE_COUNT"
    }
   ],
   "linker_set_key" : "_ZTI18UNormalizationMode",
   "name" : "UNormalizationMode",
   "referenced_type" : "_ZTI18UNormalizationMode",
   "self_type" : "_ZTI18UNormalizationMode",
   "size" : 4,
   "source_file" : "external/icu/icu4c/source/common/unicode/unorm.h",
   "underlying_type" : "_ZTIj"
  },
  {
   "alignment" : 4,
   "enum_fields" :
   [
    {
     "enum_field_value" : 0,
     "name" : "UNUM_PATTERN_DECIMAL"
    },
    {
     "enum_field_value" : 1,
     "name" : "UNUM_DECIMAL"
    },
    {
     "enum_field_value" : 2,
     "name" : "UNUM_CURRENCY"
    },
    {
     "enum_field_value" : 3,
     "name" : "UNUM_PERCENT"
    },
    {
     "enum_field_value" : 4,
     "name" : "UNUM_SCIENTIFIC"
    },
    {
     "enum_field_value" : 5,
     "name" : "UNUM_SPELLOUT"
    },
    {
     "enum_field_value" : 6,
     "name" : "UNUM_ORDINAL"
    },
    {
     "enum_field_value" : 7,
     "name" : "UNUM_DURATION"
    },
    {
     "enum_field_value" : 8,
     "name" : "UNUM_NUMBERING_SYSTEM"
    },
    {
     "enum_field_value" : 9,
     "name" : "UNUM_PATTERN_RULEBASED"
    },
    {
     "enum_field_value" : 10,
     "name" : "UNUM_CURRENCY_ISO"
    },
    {
     "enum_field_value" : 11,
     "name" : "UNUM_CURRENCY_PLURAL"
    },
    {
     "enum_field_value" : 12,
     "name" : "UNUM_CURRENCY_ACCOUNTING"
    },
    {
     "enum_field_value" : 13,
     "name" : "UNUM_CASH_CURRENCY"
    },
    {
     "enum_field_value" : 14,
     "name" : "UNUM_DECIMAL_COMPACT_SHORT"
    },
    {
     "enum_field_value" : 15,
     "name" : "UNUM_DECIMAL_COMPACT_LONG"
    },
    {
     "enum_field_value" : 16,
     "name" : "UNUM_CURRENCY_STANDARD"
    },
    {
     "enum_field_value" : 17,
     "name" : "UNUM_FORMAT_STYLE_COUNT"
    },
    {
     "enum_field_value" : 1,
     "name" : "UNUM_DEFAULT"
    },
    {
     "enum_field_value" : 0,
     "name" : "UNUM_IGNORE"
    }
   ],
   "linker_set_key" : "_ZTI18UNumberFormatStyle",
   "name" : "UNumberFormatStyle",
   "referenced_type" : "_ZTI18UNumberFormatStyle",
   "self_type" : "_ZTI18UNumberFormatStyle",
   "size" : 4,
   "source_file" : "external/icu/icu4c/source/i18n/unicode/unum.h",
   "underlying_type" : "_ZTIj"
  },
  {
   "alignment" : 4,
   "enum_fields" :
   [
    {
     "enum_field_value" : 0,
     "name" : "UNUM_SIGN_AUTO"
    },
    {
     "enum_field_value" : 1,
     "name" : "UNUM_SIGN_ALWAYS"
    },
    {
     "enum_field_value" : 2,
     "name" : "UNUM_SIGN_NEVER"
    },
    {
     "enum_field_value" : 3,
     "name" : "UNUM_SIGN_ACCOUNTING"
    },
    {
     "enum_field_value" : 4,
     "name" : "UNUM_SIGN_ACCOUNTING_ALWAYS"
    },
    {
     "enum_field_value" : 5,
     "name" : "UNUM_SIGN_EXCEPT_ZERO"
    },
    {
     "enum_field_value" : 6,
     "name" : "UNUM_SIGN_ACCOUNTING_EXCEPT_ZERO"
    },
    {
     "enum_field_value" : 7,
     "name" : "UNUM_SIGN_COUNT"
    }
   ],
   "linker_set_key" : "_ZTI18UNumberSignDisplay",
   "name" : "UNumberSignDisplay",
   "referenced_type" : "_ZTI18UNumberSignDisplay",
   "self_type" : "_ZTI18UNumberSignDisplay",
   "size" : 4,
   "source_file" : "external/icu/icu4c/source/i18n/unicode/unumberformatter.h",
   "underlying_type" : "_ZTIj"
  },
  {
   "alignment" : 4,
   "enum_fields" :
   [
    {
     "enum_field_value" : 0,
     "name" : "UBIDI_REORDER_DEFAULT"
    },
    {
     "enum_field_value" : 1,
     "name" : "UBIDI_REORDER_NUMBERS_SPECIAL"
    },
    {
     "enum_field_value" : 2,
     "name" : "UBIDI_REORDER_GROUP_NUMBERS_WITH_R"
    },
    {
     "enum_field_value" : 3,
     "name" : "UBIDI_REORDER_RUNS_ONLY"
    },
    {
     "enum_field_value" : 4,
     "name" : "UBIDI_REORDER_INVERSE_NUMBERS_AS_L"
    },
    {
     "enum_field_value" : 5,
     "name" : "UBIDI_REORDER_INVERSE_LIKE_DIRECT"
    },
    {
     "enum_field_value" : 6,
     "name" : "UBIDI_REORDER_INVERSE_FOR_NUMBERS_SPECIAL"
    },
    {
     "enum_field_value" : 7,
     "name" : "UBIDI_REORDER_COUNT"
    }
   ],
   "linker_set_key" : "_ZTI19UBiDiReorderingMode",
   "name" : "UBiDiReorderingMode",
   "referenced_type" : "_ZTI19UBiDiReorderingMode",
   "self_type" : "_ZTI19UBiDiReorderingMode",
   "size" : 4,
   "source_file" : "external/icu/icu4c/source/common/unicode/ubidi.h",
   "underlying_type" : "_ZTIj"
  },
  {
   "alignment" : 4,
   "enum_fields" :
   [
    {
     "enum_field_value" : 0,
     "name" : "UCAL_ERA"
    },
    {
     "enum_field_value" : 1,
     "name" : "UCAL_YEAR"
    },
    {
     "enum_field_value" : 2,
     "name" : "UCAL_MONTH"
    },
    {
     "enum_field_value" : 3,
     "name" : "UCAL_WEEK_OF_YEAR"
    },
    {
     "enum_field_value" : 4,
     "name" : "UCAL_WEEK_OF_MONTH"
    },
    {
     "enum_field_value" : 5,
     "name" : "UCAL_DATE"
    },
    {
     "enum_field_value" : 6,
     "name" : "UCAL_DAY_OF_YEAR"
    },
    {
     "enum_field_value" : 7,
     "name" : "UCAL_DAY_OF_WEEK"
    },
    {
     "enum_field_value" : 8,
     "name" : "UCAL_DAY_OF_WEEK_IN_MONTH"
    },
    {
     "enum_field_value" : 9,
     "name" : "UCAL_AM_PM"
    },
    {
     "enum_field_value" : 10,
     "name" : "UCAL_HOUR"
    },
    {
     "enum_field_value" : 11,
     "name" : "UCAL_HOUR_OF_DAY"
    },
    {
     "enum_field_value" : 12,
     "name" : "UCAL_MINUTE"
    },
    {
     "enum_field_value" : 13,
     "name" : "UCAL_SECOND"
    },
    {
     "enum_field_value" : 14,
     "name" : "UCAL_MILLISECOND"
    },
    {
     "enum_field_value" : 15,
     "name" : "UCAL_ZONE_OFFSET"
    },
    {
     "enum_field_value" : 16,
     "name" : "UCAL_DST_OFFSET"
    },
    {
     "enum_field_value" : 17,
     "name" : "UCAL_YEAR_WOY"
    },
    {
     "enum_field_value" : 18,
     "name" : "UCAL_DOW_LOCAL"
    },
    {
     "enum_field_value" : 19,
     "name" : "UCAL_EXTENDED_YEAR"
    },
    {
     "enum_field_value" : 20,
     "name" : "UCAL_JULIAN_DAY"
    },
    {
     "enum_field_value" : 21,
     "name" : "UCAL_MILLISECONDS_IN_DAY"
    },
    {
     "enum_field_value" : 22,
     "name" : "UCAL_IS_LEAP_MONTH"
    },
    {
     "enum_field_value" : 23,
     "name" : "UCAL_FIELD_COUNT"
    },
    {
     "enum_field_value" : 5,
     "name" : "UCAL_DAY_OF_MONTH"
    }
   ],
   "linker_set_key" : "_ZTI19UCalendarDateFields",
   "name" : "UCalendarDateFields",
   "referenced_type" : "_ZTI19UCalendarDateFields",
   "self_type" : "_ZTI19UCalendarDateFields",
   "size" : 4,
   "source_file" : "external/icu/icu4c/source/i18n/unicode/ucal.h",
   "underlying_type" : "_ZTIj"
  },
  {
   "alignment" : 4,
   "enum_fields" :
   [
    {
     "enum_field_value" : 1,
     "name" : "UCAL_SUNDAY"
    },
    {
     "enum_field_value" : 2,
     "name" : "UCAL_MONDAY"
    },
    {
     "enum_field_value" : 3,
     "name" : "UCAL_TUESDAY"
    },
    {
     "enum_field_value" : 4,
     "name" : "UCAL_WEDNESDAY"
    },
    {
     "enum_field_value" : 5,
     "name" : "UCAL_THURSDAY"
    },
    {
     "enum_field_value" : 6,
     "name" : "UCAL_FRIDAY"
    },
    {
     "enum_field_value" : 7,
     "name" : "UCAL_SATURDAY"
    }
   ],
   "linker_set_key" : "_ZTI19UCalendarDaysOfWeek",
   "name" : "UCalendarDaysOfWeek",
   "referenced_type" : "_ZTI19UCalendarDaysOfWeek",
   "self_type" : "_ZTI19UCalendarDaysOfWeek",
   "size" : 4,
   "source_file" : "external/icu/icu4c/source/i18n/unicode/ucal.h",
   "underlying_type" : "_ZTIj"
  },
  {
   "alignment" : 4,
   "enum_fields" :
   [
    {
     "enum_field_value" : 0,
     "name" : "UITER_START"
    },
    {
     "enum_field_value" : 1,
     "name" : "UITER_CURRENT"
    },
    {
     "enum_field_value" : 2,
     "name" : "UITER_LIMIT"
    },
    {
     "enum_field_value" : 3,
     "name" : "UITER_ZERO"
    },
    {
     "enum_field_value" : 4,
     "name" : "UITER_LENGTH"
    }
   ],
   "linker_set_key" : "_ZTI19UCharIteratorOrigin",
   "name" : "UCharIteratorOrigin",
   "referenced_type" : "_ZTI19UCharIteratorOrigin",
   "self_type" : "_ZTI19UCharIteratorOrigin",
   "size" : 4,
   "source_file" : "external/icu/icu4c/source/common/unicode/uiter.h",
   "underlying_type" : "_ZTIj"
  },
  {
   "alignment" : 4,
   "enum_fields" :
   [
    {
     "enum_field_value" : 0,
     "name" : "UDISPCTX_TYPE_DIALECT_HANDLING"
    },
    {
     "enum_field_value" : 1,
     "name" : "UDISPCTX_TYPE_CAPITALIZATION"
    },
    {
     "enum_field_value" : 2,
     "name" : "UDISPCTX_TYPE_DISPLAY_LENGTH"
    },
    {
     "enum_field_value" : 3,
     "name" : "UDISPCTX_TYPE_SUBSTITUTE_HANDLING"
    }
   ],
   "linker_set_key" : "_ZTI19UDisplayContextType",
   "name" : "UDisplayContextType",
   "referenced_type" : "_ZTI19UDisplayContextType",
   "self_type" : "_ZTI19UDisplayContextType",
   "size" : 4,
   "source_file" : "external/icu/icu4c/source/common/unicode/udisplaycontext.h",
   "underlying_type" : "_ZTIj"
  },
  {
   "alignment" : 4,
   "enum_fields" :
   [
    {
     "enum_field_value" : 0,
     "name" : "U_HST_NOT_APPLICABLE"
    },
    {
     "enum_field_value" : 1,
     "name" : "U_HST_LEADING_JAMO"
    },
    {
     "enum_field_value" : 2,
     "name" : "U_HST_VOWEL_JAMO"
    },
    {
     "enum_field_value" : 3,
     "name" : "U_HST_TRAILING_JAMO"
    },
    {
     "enum_field_value" : 4,
     "name" : "U_HST_LV_SYLLABLE"
    },
    {
     "enum_field_value" : 5,
     "name" : "U_HST_LVT_SYLLABLE"
    },
    {
     "enum_field_value" : 6,
     "name" : "U_HST_COUNT"
    }
   ],
   "linker_set_key" : "_ZTI19UHangulSyllableType",
   "name" : "UHangulSyllableType",
   "referenced_type" : "_ZTI19UHangulSyllableType",
   "self_type" : "_ZTI19UHangulSyllableType",
   "size" : 4,
   "source_file" : "external/icu/icu4c/source/common/unicode/uchar.h",
   "underlying_type" : "_ZTIj"
  },
  {
   "alignment" : 4,
   "enum_fields" :
   [
    {
     "enum_field_value" : 0,
     "name" : "ULISTFMT_LITERAL_FIELD"
    },
    {
     "enum_field_value" : 1,
     "name" : "ULISTFMT_ELEMENT_FIELD"
    }
   ],
   "linker_set_key" : "_ZTI19UListFormatterField",
   "name" : "UListFormatterField",
   "referenced_type" : "_ZTI19UListFormatterField",
   "self_type" : "_ZTI19UListFormatterField",
   "size" : 4,
   "source_file" : "external/icu/icu4c/source/i18n/unicode/ulistformatter.h",
   "underlying_type" : "_ZTIj"
  },
  {
   "alignment" : 4,
   "enum_fields" :
   [
    {
     "enum_field_value" : 0,
     "name" : "ULISTFMT_WIDTH_WIDE"
    },
    {
     "enum_field_value" : 1,
     "name" : "ULISTFMT_WIDTH_SHORT"
    },
    {
     "enum_field_value" : 2,
     "name" : "ULISTFMT_WIDTH_NARROW"
    }
   ],
   "linker_set_key" : "_ZTI19UListFormatterWidth",
   "name" : "UListFormatterWidth",
   "referenced_type" : "_ZTI19UListFormatterWidth",
   "self_type" : "_ZTI19UListFormatterWidth",
   "size" : 4,
   "source_file" : "external/icu/icu4c/source/i18n/unicode/ulistformatter.h",
   "underlying_type" : "_ZTIj"
  },
  {
   "alignment" : 4,
   "enum_fields" :
   [
    {
     "enum_field_value" : 0,
     "name" : "UNORM2_COMPOSE"
    },
    {
     "enum_field_value" : 1,
     "name" : "UNORM2_DECOMPOSE"
    },
    {
     "enum_field_value" : 2,
     "name" : "UNORM2_FCD"
    },
    {
     "enum_field_value" : 3,
     "name" : "UNORM2_COMPOSE_CONTIGUOUS"
    }
   ],
   "linker_set_key" : "_ZTI19UNormalization2Mode",
   "name" : "UNormalization2Mode",
   "referenced_type" : "_ZTI19UNormalization2Mode",
   "self_type" : "_ZTI19UNormalization2Mode",
   "size" : 4,
   "source_file" : "external/icu/icu4c/source/common/unicode/unorm2.h",
   "underlying_type" : "_ZTIj"
  },
  {
   "alignment" : 4,
   "enum_fields" :
   [
    {
     "enum_field_value" : 0,
     "name" : "UNUM_SHORT"
    },
    {
     "enum_field_value" : 1,
     "name" : "UNUM_LONG"
    }
   ],
   "linker_set_key" : "_ZTI19UNumberCompactStyle",
   "name" : "UNumberCompactStyle",
   "referenced_type" : "_ZTI19UNumberCompactStyle",
   "self_type" : "_ZTI19UNumberCompactStyle",
   "size" : 4,
   "source_file" : "external/icu/icu4c/source/i18n/unicode/unum.h",
   "underlying_type" : "_ZTIj"
  },
  {
   "alignment" : 4,
   "enum_fields" :
   [
    {
     "enum_field_value" : 0,
     "name" : "UNUM_INTEGER_FIELD"
    },
    {
     "enum_field_value" : 1,
     "name" : "UNUM_FRACTION_FIELD"
    },
    {
     "enum_field_value" : 2,
     "name" : "UNUM_DECIMAL_SEPARATOR_FIELD"
    },
    {
     "enum_field_value" : 3,
     "name" : "UNUM_EXPONENT_SYMBOL_FIELD"
    },
    {
     "enum_field_value" : 4,
     "name" : "UNUM_EXPONENT_SIGN_FIELD"
    },
    {
     "enum_field_value" : 5,
     "name" : "UNUM_EXPONENT_FIELD"
    },
    {
     "enum_field_value" : 6,
     "name" : "UNUM_GROUPING_SEPARATOR_FIELD"
    },
    {
     "enum_field_value" : 7,
     "name" : "UNUM_CURRENCY_FIELD"
    },
    {
     "enum_field_value" : 8,
     "name" : "UNUM_PERCENT_FIELD"
    },
    {
     "enum_field_value" : 9,
     "name" : "UNUM_PERMILL_FIELD"
    },
    {
     "enum_field_value" : 10,
     "name" : "UNUM_SIGN_FIELD"
    },
    {
     "enum_field_value" : 11,
     "name" : "UNUM_MEASURE_UNIT_FIELD"
    },
    {
     "enum_field_value" : 12,
     "name" : "UNUM_COMPACT_FIELD"
    },
    {
     "enum_field_value" : 13,
     "name" : "UNUM_FIELD_COUNT"
    }
   ],
   "linker_set_key" : "_ZTI19UNumberFormatFields",
   "name" : "UNumberFormatFields",
   "referenced_type" : "_ZTI19UNumberFormatFields",
   "self_type" : "_ZTI19UNumberFormatFields",
   "size" : 4,
   "source_file" : "external/icu/icu4c/source/i18n/unicode/unum.h",
   "underlying_type" : "_ZTIj"
  },
  {
   "alignment" : 4,
   "enum_fields" :
   [
    {
     "enum_field_value" : 0,
     "name" : "UNUM_DECIMAL_SEPARATOR_SYMBOL"
    },
    {
     "enum_field_value" : 1,
     "name" : "UNUM_GROUPING_SEPARATOR_SYMBOL"
    },
    {
     "enum_field_value" : 2,
     "name" : "UNUM_PATTERN_SEPARATOR_SYMBOL"
    },
    {
     "enum_field_value" : 3,
     "name" : "UNUM_PERCENT_SYMBOL"
    },
    {
     "enum_field_value" : 4,
     "name" : "UNUM_ZERO_DIGIT_SYMBOL"
    },
    {
     "enum_field_value" : 5,
     "name" : "UNUM_DIGIT_SYMBOL"
    },
    {
     "enum_field_value" : 6,
     "name" : "UNUM_MINUS_SIGN_SYMBOL"
    },
    {
     "enum_field_value" : 7,
     "name" : "UNUM_PLUS_SIGN_SYMBOL"
    },
    {
     "enum_field_value" : 8,
     "name" : "UNUM_CURRENCY_SYMBOL"
    },
    {
     "enum_field_value" : 9,
     "name" : "UNUM_INTL_CURRENCY_SYMBOL"
    },
    {
     "enum_field_value" : 10,
     "name" : "UNUM_MONETARY_SEPARATOR_SYMBOL"
    },
    {
     "enum_field_value" : 11,
     "name" : "UNUM_EXPONENTIAL_SYMBOL"
    },
    {
     "enum_field_value" : 12,
     "name" : "UNUM_PERMILL_SYMBOL"
    },
    {
     "enum_field_value" : 13,
     "name" : "UNUM_PAD_ESCAPE_SYMBOL"
    },
    {
     "enum_field_value" : 14,
     "name" : "UNUM_INFINITY_SYMBOL"
    },
    {
     "enum_field_value" : 15,
     "name" : "UNUM_NAN_SYMBOL"
    },
    {
     "enum_field_value" : 16,
     "name" : "UNUM_SIGNIFICANT_DIGIT_SYMBOL"
    },
    {
     "enum_field_value" : 17,
     "name" : "UNUM_MONETARY_GROUPING_SEPARATOR_SYMBOL"
    },
    {
     "enum_field_value" : 18,
     "name" : "UNUM_ONE_DIGIT_SYMBOL"
    },
    {
     "enum_field_value" : 19,
     "name" : "UNUM_TWO_DIGIT_SYMBOL"
    },
    {
     "enum_field_value" : 20,
     "name" : "UNUM_THREE_DIGIT_SYMBOL"
    },
    {
     "enum_field_value" : 21,
     "name" : "UNUM_FOUR_DIGIT_SYMBOL"
    },
    {
     "enum_field_value" : 22,
     "name" : "UNUM_FIVE_DIGIT_SYMBOL"
    },
    {
     "enum_field_value" : 23,
     "name" : "UNUM_SIX_DIGIT_SYMBOL"
    },
    {
     "enum_field_value" : 24,
     "name" : "UNUM_SEVEN_DIGIT_SYMBOL"
    },
    {
     "enum_field_value" : 25,
     "name" : "UNUM_EIGHT_DIGIT_SYMBOL"
    },
    {
     "enum_field_value" : 26,
     "name" : "UNUM_NINE_DIGIT_SYMBOL"
    },
    {
     "enum_field_value" : 27,
     "name" : "UNUM_EXPONENT_MULTIPLICATION_SYMBOL"
    },
    {
     "enum_field_value" : 28,
     "name" : "UNUM_FORMAT_SYMBOL_COUNT"
    }
   ],
   "linker_set_key" : "_ZTI19UNumberFormatSymbol",
   "name" : "UNumberFormatSymbol",
   "referenced_type" : "_ZTI19UNumberFormatSymbol",
   "self_type" : "_ZTI19UNumberFormatSymbol",
   "size" : 4,
   "source_file" : "external/icu/icu4c/source/i18n/unicode/unum.h",
   "underlying_type" : "_ZTIj"
  },
  {
   "alignment" : 4,
   "enum_fields" :
   [
    {
     "enum_field_value" : 0,
     "name" : "U_SHORT_PROPERTY_NAME"
    },
    {
     "enum_field_value" : 1,
     "name" : "U_LONG_PROPERTY_NAME"
    },
    {
     "enum_field_value" : 2,
     "name" : "U_PROPERTY_NAME_CHOICE_COUNT"
    }
   ],
   "linker_set_key" : "_ZTI19UPropertyNameChoice",
   "name" : "UPropertyNameChoice",
   "referenced_type" : "_ZTI19UPropertyNameChoice",
   "self_type" : "_ZTI19UPropertyNameChoice",
   "size" : 4,
   "source_file" : "external/icu/icu4c/source/common/unicode/uchar.h",
   "underlying_type" : "_ZTIj"
  },
  {
   "alignment" : 4,
   "enum_fields" :
   [
    {
     "enum_field_value" : 0,
     "name" : "UCAL_ZONE_TYPE_ANY"
    },
    {
     "enum_field_value" : 1,
     "name" : "UCAL_ZONE_TYPE_CANONICAL"
    },
    {
     "enum_field_value" : 2,
     "name" : "UCAL_ZONE_TYPE_CANONICAL_LOCATION"
    }
   ],
   "linker_set_key" : "_ZTI19USystemTimeZoneType",
   "name" : "USystemTimeZoneType",
   "referenced_type" : "_ZTI19USystemTimeZoneType",
   "self_type" : "_ZTI19USystemTimeZoneType",
   "size" : 4,
   "source_file" : "external/icu/icu4c/source/i18n/unicode/ucal.h",
   "underlying_type" : "_ZTIj"
  },
  {
   "alignment" : 4,
   "enum_fields" :
   [
    {
     "enum_field_value" : -2,
     "name" : "UITER_UNKNOWN_INDEX"
    }
   ],
   "linker_set_key" : "_ZTI20$UITER_UNKNOWN_INDEX",
   "name" : "(anonymous enum at external/icu/icu4c/source/common/unicode/uiter.h:56:1)",
   "referenced_type" : "_ZTI20$UITER_UNKNOWN_INDEX",
   "self_type" : "_ZTI20$UITER_UNKNOWN_INDEX",
   "size" : 4,
   "source_file" : "external/icu/icu4c/source/common/unicode/uiter.h",
   "underlying_type" : "_ZTIi"
  },
  {
   "alignment" : 4,
   "enum_fields" :
   [
    {
     "enum_field_value" : 16,
     "name" : "U_PARSE_CONTEXT_LEN"
    }
   ],
   "linker_set_key" : "_ZTI20$U_PARSE_CONTEXT_LEN",
   "name" : "(anonymous enum at external/icu/icu4c/source/common/unicode/parseerr.h:27:1)",
   "referenced_type" : "_ZTI20$U_PARSE_CONTEXT_LEN",
   "self_type" : "_ZTI20$U_PARSE_CONTEXT_LEN",
   "size" : 4,
   "source_file" : "external/icu/icu4c/source/common/unicode/parseerr.h",
   "underlying_type" : "_ZTIj"
  },
  {
   "alignment" : 4,
   "enum_fields" :
   [
    {
     "enum_field_value" : 0,
     "name" : "UCAL_WEEKDAY"
    },
    {
     "enum_field_value" : 1,
     "name" : "UCAL_WEEKEND"
    },
    {
     "enum_field_value" : 2,
     "name" : "UCAL_WEEKEND_ONSET"
    },
    {
     "enum_field_value" : 3,
     "name" : "UCAL_WEEKEND_CEASE"
    }
   ],
   "linker_set_key" : "_ZTI20UCalendarWeekdayType",
   "name" : "UCalendarWeekdayType",
   "referenced_type" : "_ZTI20UCalendarWeekdayType",
   "self_type" : "_ZTI20UCalendarWeekdayType",
   "size" : 4,
   "source_file" : "external/icu/icu4c/source/i18n/unicode/ucal.h",
   "underlying_type" : "_ZTIj"
  },
  {
   "alignment" : 4,
   "enum_fields" :
   [
    {
     "enum_field_value" : 0,
     "name" : "UCNV_ROUNDTRIP_SET"
    },
    {
     "enum_field_value" : 1,
     "name" : "UCNV_ROUNDTRIP_AND_FALLBACK_SET"
    },
    {
     "enum_field_value" : 2,
     "name" : "UCNV_SET_COUNT"
    }
   ],
   "linker_set_key" : "_ZTI20UConverterUnicodeSet",
   "name" : "UConverterUnicodeSet",
   "referenced_type" : "_ZTI20UConverterUnicodeSet",
   "self_type" : "_ZTI20UConverterUnicodeSet",
   "size" : 4,
   "source_file" : "external/icu/icu4c/source/common/unicode/ucnv.h",
   "underlying_type" : "_ZTIj"
  },
  {
   "alignment" : 4,
   "enum_fields" :
   [
    {
     "enum_field_value" : 0,
     "name" : "UDAT_HOUR_CYCLE_11"
    },
    {
     "enum_field_value" : 1,
     "name" : "UDAT_HOUR_CYCLE_12"
    },
    {
     "enum_field_value" : 2,
     "name" : "UDAT_HOUR_CYCLE_23"
    },
    {
     "enum_field_value" : 3,
     "name" : "UDAT_HOUR_CYCLE_24"
    }
   ],
   "linker_set_key" : "_ZTI20UDateFormatHourCycle",
   "name" : "UDateFormatHourCycle",
   "referenced_type" : "_ZTI20UDateFormatHourCycle",
   "self_type" : "_ZTI20UDateFormatHourCycle",
   "size" : 4,
   "source_file" : "external/icu/icu4c/source/i18n/unicode/udat.h",
   "underlying_type" : "_ZTIj"
  },
  {
   "alignment" : 4,
   "enum_fields" :
   [
    {
     "enum_field_value" : 0,
     "name" : "UTRACE_FUNCTION_START"
    },
    {
     "enum_field_value" : 0,
     "name" : "UTRACE_U_INIT"
    },
    {
     "enum_field_value" : 1,
     "name" : "UTRACE_U_CLEANUP"
    },
    {
     "enum_field_value" : 2,
     "name" : "UTRACE_FUNCTION_LIMIT"
    },
    {
     "enum_field_value" : 4096,
     "name" : "UTRACE_CONVERSION_START"
    },
    {
     "enum_field_value" : 4096,
     "name" : "UTRACE_UCNV_OPEN"
    },
    {
     "enum_field_value" : 4097,
     "name" : "UTRACE_UCNV_OPEN_PACKAGE"
    },
    {
     "enum_field_value" : 4098,
     "name" : "UTRACE_UCNV_OPEN_ALGORITHMIC"
    },
    {
     "enum_field_value" : 4099,
     "name" : "UTRACE_UCNV_CLONE"
    },
    {
     "enum_field_value" : 4100,
     "name" : "UTRACE_UCNV_CLOSE"
    },
    {
     "enum_field_value" : 4101,
     "name" : "UTRACE_UCNV_FLUSH_CACHE"
    },
    {
     "enum_field_value" : 4102,
     "name" : "UTRACE_UCNV_LOAD"
    },
    {
     "enum_field_value" : 4103,
     "name" : "UTRACE_UCNV_UNLOAD"
    },
    {
     "enum_field_value" : 4104,
     "name" : "UTRACE_CONVERSION_LIMIT"
    },
    {
     "enum_field_value" : 8192,
     "name" : "UTRACE_COLLATION_START"
    },
    {
     "enum_field_value" : 8192,
     "name" : "UTRACE_UCOL_OPEN"
    },
    {
     "enum_field_value" : 8193,
     "name" : "UTRACE_UCOL_CLOSE"
    },
    {
     "enum_field_value" : 8194,
     "name" : "UTRACE_UCOL_STRCOLL"
    },
    {
     "enum_field_value" : 8195,
     "name" : "UTRACE_UCOL_GET_SORTKEY"
    },
    {
     "enum_field_value" : 8196,
     "name" : "UTRACE_UCOL_GETLOCALE"
    },
    {
     "enum_field_value" : 8197,
     "name" : "UTRACE_UCOL_NEXTSORTKEYPART"
    },
    {
     "enum_field_value" : 8198,
     "name" : "UTRACE_UCOL_STRCOLLITER"
    },
    {
     "enum_field_value" : 8199,
     "name" : "UTRACE_UCOL_OPEN_FROM_SHORT_STRING"
    },
    {
     "enum_field_value" : 8200,
     "name" : "UTRACE_UCOL_STRCOLLUTF8"
    },
    {
     "enum_field_value" : 8201,
     "name" : "UTRACE_COLLATION_LIMIT"
    },
    {
     "enum_field_value" : 12288,
     "name" : "UTRACE_UDATA_START"
    },
    {
     "enum_field_value" : 12288,
     "name" : "UTRACE_UDATA_RESOURCE"
    },
    {
     "enum_field_value" : 12289,
     "name" : "UTRACE_UDATA_BUNDLE"
    },
    {
     "enum_field_value" : 12290,
     "name" : "UTRACE_UDATA_DATA_FILE"
    },
    {
     "enum_field_value" : 12291,
     "name" : "UTRACE_UDATA_RES_FILE"
    },
    {
     "enum_field_value" : 12292,
     "name" : "UTRACE_RES_DATA_LIMIT"
    },
    {
     "enum_field_value" : 16384,
     "name" : "UTRACE_UBRK_START"
    },
    {
     "enum_field_value" : 16384,
     "name" : "UTRACE_UBRK_CREATE_CHARACTER"
    },
    {
     "enum_field_value" : 16385,
     "name" : "UTRACE_UBRK_CREATE_WORD"
    },
    {
     "enum_field_value" : 16386,
     "name" : "UTRACE_UBRK_CREATE_LINE"
    },
    {
     "enum_field_value" : 16387,
     "name" : "UTRACE_UBRK_CREATE_SENTENCE"
    },
    {
     "enum_field_value" : 16388,
     "name" : "UTRACE_UBRK_CREATE_TITLE"
    },
    {
     "enum_field_value" : 16389,
     "name" : "UTRACE_UBRK_CREATE_BREAK_ENGINE"
    },
    {
     "enum_field_value" : 16390,
     "name" : "UTRACE_UBRK_LIMIT"
    }
   ],
   "linker_set_key" : "_ZTI20UTraceFunctionNumber",
   "name" : "UTraceFunctionNumber",
   "referenced_type" : "_ZTI20UTraceFunctionNumber",
   "self_type" : "_ZTI20UTraceFunctionNumber",
   "size" : 4,
   "source_file" : "external/icu/icu4c/source/common/unicode/utrace.h",
   "underlying_type" : "_ZTIj"
  },
  {
   "alignment" : 4,
   "enum_fields" :
   [
    {
     "enum_field_value" : 0,
     "name" : "U_VO_ROTATED"
    },
    {
     "enum_field_value" : 1,
     "name" : "U_VO_TRANSFORMED_ROTATED"
    },
    {
     "enum_field_value" : 2,
     "name" : "U_VO_TRANSFORMED_UPRIGHT"
    },
    {
     "enum_field_value" : 3,
     "name" : "U_VO_UPRIGHT"
    }
   ],
   "linker_set_key" : "_ZTI20UVerticalOrientation",
   "name" : "UVerticalOrientation",
   "referenced_type" : "_ZTI20UVerticalOrientation",
   "self_type" : "_ZTI20UVerticalOrientation",
   "size" : 4,
   "source_file" : "external/icu/icu4c/source/common/unicode/uchar.h",
   "underlying_type" : "_ZTIj"
  },
  {
   "alignment" : 4,
   "enum_fields" :
   [
    {
     "enum_field_value" : 0,
     "name" : "UBIDI_OPTION_DEFAULT"
    },
    {
     "enum_field_value" : 1,
     "name" : "UBIDI_OPTION_INSERT_MARKS"
    },
    {
     "enum_field_value" : 2,
     "name" : "UBIDI_OPTION_REMOVE_CONTROLS"
    },
    {
     "enum_field_value" : 4,
     "name" : "UBIDI_OPTION_STREAMING"
    }
   ],
   "linker_set_key" : "_ZTI21UBiDiReorderingOption",
   "name" : "UBiDiReorderingOption",
   "referenced_type" : "_ZTI21UBiDiReorderingOption",
   "self_type" : "_ZTI21UBiDiReorderingOption",
   "size" : 4,
   "source_file" : "external/icu/icu4c/source/common/unicode/ubidi.h",
   "underlying_type" : "_ZTIj"
  },
  {
   "alignment" : 4,
   "enum_fields" :
   [
    {
     "enum_field_value" : 0,
     "name" : "UDAT_ERAS"
    },
    {
     "enum_field_value" : 1,
     "name" : "UDAT_MONTHS"
    },
    {
     "enum_field_value" : 2,
     "name" : "UDAT_SHORT_MONTHS"
    },
    {
     "enum_field_value" : 3,
     "name" : "UDAT_WEEKDAYS"
    },
    {
     "enum_field_value" : 4,
     "name" : "UDAT_SHORT_WEEKDAYS"
    },
    {
     "enum_field_value" : 5,
     "name" : "UDAT_AM_PMS"
    },
    {
     "enum_field_value" : 6,
     "name" : "UDAT_LOCALIZED_CHARS"
    },
    {
     "enum_field_value" : 7,
     "name" : "UDAT_ERA_NAMES"
    },
    {
     "enum_field_value" : 8,
     "name" : "UDAT_NARROW_MONTHS"
    },
    {
     "enum_field_value" : 9,
     "name" : "UDAT_NARROW_WEEKDAYS"
    },
    {
     "enum_field_value" : 10,
     "name" : "UDAT_STANDALONE_MONTHS"
    },
    {
     "enum_field_value" : 11,
     "name" : "UDAT_STANDALONE_SHORT_MONTHS"
    },
    {
     "enum_field_value" : 12,
     "name" : "UDAT_STANDALONE_NARROW_MONTHS"
    },
    {
     "enum_field_value" : 13,
     "name" : "UDAT_STANDALONE_WEEKDAYS"
    },
    {
     "enum_field_value" : 14,
     "name" : "UDAT_STANDALONE_SHORT_WEEKDAYS"
    },
    {
     "enum_field_value" : 15,
     "name" : "UDAT_STANDALONE_NARROW_WEEKDAYS"
    },
    {
     "enum_field_value" : 16,
     "name" : "UDAT_QUARTERS"
    },
    {
     "enum_field_value" : 17,
     "name" : "UDAT_SHORT_QUARTERS"
    },
    {
     "enum_field_value" : 18,
     "name" : "UDAT_STANDALONE_QUARTERS"
    },
    {
     "enum_field_value" : 19,
     "name" : "UDAT_STANDALONE_SHORT_QUARTERS"
    },
    {
     "enum_field_value" : 20,
     "name" : "UDAT_SHORTER_WEEKDAYS"
    },
    {
     "enum_field_value" : 21,
     "name" : "UDAT_STANDALONE_SHORTER_WEEKDAYS"
    },
    {
     "enum_field_value" : 22,
     "name" : "UDAT_CYCLIC_YEARS_WIDE"
    },
    {
     "enum_field_value" : 23,
     "name" : "UDAT_CYCLIC_YEARS_ABBREVIATED"
    },
    {
     "enum_field_value" : 24,
     "name" : "UDAT_CYCLIC_YEARS_NARROW"
    },
    {
     "enum_field_value" : 25,
     "name" : "UDAT_ZODIAC_NAMES_WIDE"
    },
    {
     "enum_field_value" : 26,
     "name" : "UDAT_ZODIAC_NAMES_ABBREVIATED"
    },
    {
     "enum_field_value" : 27,
     "name" : "UDAT_ZODIAC_NAMES_NARROW"
    }
   ],
   "linker_set_key" : "_ZTI21UDateFormatSymbolType",
   "name" : "UDateFormatSymbolType",
   "referenced_type" : "_ZTI21UDateFormatSymbolType",
   "self_type" : "_ZTI21UDateFormatSymbolType",
   "size" : 4,
   "source_file" : "external/icu/icu4c/source/i18n/unicode/udat.h",
   "underlying_type" : "_ZTIj"
  },
  {
   "alignment" : 4,
   "enum_fields" :
   [
    {
     "enum_field_value" : 0,
     "name" : "UDATPG_ERA_FIELD"
    },
    {
     "enum_field_value" : 1,
     "name" : "UDATPG_YEAR_FIELD"
    },
    {
     "enum_field_value" : 2,
     "name" : "UDATPG_QUARTER_FIELD"
    },
    {
     "enum_field_value" : 3,
     "name" : "UDATPG_MONTH_FIELD"
    },
    {
     "enum_field_value" : 4,
     "name" : "UDATPG_WEEK_OF_YEAR_FIELD"
    },
    {
     "enum_field_value" : 5,
     "name" : "UDATPG_WEEK_OF_MONTH_FIELD"
    },
    {
     "enum_field_value" : 6,
     "name" : "UDATPG_WEEKDAY_FIELD"
    },
    {
     "enum_field_value" : 7,
     "name" : "UDATPG_DAY_OF_YEAR_FIELD"
    },
    {
     "enum_field_value" : 8,
     "name" : "UDATPG_DAY_OF_WEEK_IN_MONTH_FIELD"
    },
    {
     "enum_field_value" : 9,
     "name" : "UDATPG_DAY_FIELD"
    },
    {
     "enum_field_value" : 10,
     "name" : "UDATPG_DAYPERIOD_FIELD"
    },
    {
     "enum_field_value" : 11,
     "name" : "UDATPG_HOUR_FIELD"
    },
    {
     "enum_field_value" : 12,
     "name" : "UDATPG_MINUTE_FIELD"
    },
    {
     "enum_field_value" : 13,
     "name" : "UDATPG_SECOND_FIELD"
    },
    {
     "enum_field_value" : 14,
     "name" : "UDATPG_FRACTIONAL_SECOND_FIELD"
    },
    {
     "enum_field_value" : 15,
     "name" : "UDATPG_ZONE_FIELD"
    },
    {
     "enum_field_value" : 16,
     "name" : "UDATPG_FIELD_COUNT"
    }
   ],
   "linker_set_key" : "_ZTI21UDateTimePatternField",
   "name" : "UDateTimePatternField",
   "referenced_type" : "_ZTI21UDateTimePatternField",
   "self_type" : "_ZTI21UDateTimePatternField",
   "size" : 4,
   "source_file" : "external/icu/icu4c/source/i18n/unicode/udatpg.h",
   "underlying_type" : "_ZTIj"
  },
  {
   "alignment" : 4,
   "enum_fields" :
   [
    {
     "enum_field_value" : 0,
     "name" : "U_GCB_OTHER"
    },
    {
     "enum_field_value" : 1,
     "name" : "U_GCB_CONTROL"
    },
    {
     "enum_field_value" : 2,
     "name" : "U_GCB_CR"
    },
    {
     "enum_field_value" : 3,
     "name" : "U_GCB_EXTEND"
    },
    {
     "enum_field_value" : 4,
     "name" : "U_GCB_L"
    },
    {
     "enum_field_value" : 5,
     "name" : "U_GCB_LF"
    },
    {
     "enum_field_value" : 6,
     "name" : "U_GCB_LV"
    },
    {
     "enum_field_value" : 7,
     "name" : "U_GCB_LVT"
    },
    {
     "enum_field_value" : 8,
     "name" : "U_GCB_T"
    },
    {
     "enum_field_value" : 9,
     "name" : "U_GCB_V"
    },
    {
     "enum_field_value" : 10,
     "name" : "U_GCB_SPACING_MARK"
    },
    {
     "enum_field_value" : 11,
     "name" : "U_GCB_PREPEND"
    },
    {
     "enum_field_value" : 12,
     "name" : "U_GCB_REGIONAL_INDICATOR"
    },
    {
     "enum_field_value" : 13,
     "name" : "U_GCB_E_BASE"
    },
    {
     "enum_field_value" : 14,
     "name" : "U_GCB_E_BASE_GAZ"
    },
    {
     "enum_field_value" : 15,
     "name" : "U_GCB_E_MODIFIER"
    },
    {
     "enum_field_value" : 16,
     "name" : "U_GCB_GLUE_AFTER_ZWJ"
    },
    {
     "enum_field_value" : 17,
     "name" : "U_GCB_ZWJ"
    },
    {
     "enum_field_value" : 18,
     "name" : "U_GCB_COUNT"
    }
   ],
   "linker_set_key" : "_ZTI21UGraphemeClusterBreak",
   "name" : "UGraphemeClusterBreak",
   "referenced_type" : "_ZTI21UGraphemeClusterBreak",
   "self_type" : "_ZTI21UGraphemeClusterBreak",
   "size" : 4,
   "source_file" : "external/icu/icu4c/source/common/unicode/uchar.h",
   "underlying_type" : "_ZTIj"
  },
  {
   "alignment" : 4,
   "enum_fields" :
   [
    {
     "enum_field_value" : 0,
     "name" : "UDAT_REL_UNIT_YEAR"
    },
    {
     "enum_field_value" : 1,
     "name" : "UDAT_REL_UNIT_QUARTER"
    },
    {
     "enum_field_value" : 2,
     "name" : "UDAT_REL_UNIT_MONTH"
    },
    {
     "enum_field_value" : 3,
     "name" : "UDAT_REL_UNIT_WEEK"
    },
    {
     "enum_field_value" : 4,
     "name" : "UDAT_REL_UNIT_DAY"
    },
    {
     "enum_field_value" : 5,
     "name" : "UDAT_REL_UNIT_HOUR"
    },
    {
     "enum_field_value" : 6,
     "name" : "UDAT_REL_UNIT_MINUTE"
    },
    {
     "enum_field_value" : 7,
     "name" : "UDAT_REL_UNIT_SECOND"
    },
    {
     "enum_field_value" : 8,
     "name" : "UDAT_REL_UNIT_SUNDAY"
    },
    {
     "enum_field_value" : 9,
     "name" : "UDAT_REL_UNIT_MONDAY"
    },
    {
     "enum_field_value" : 10,
     "name" : "UDAT_REL_UNIT_TUESDAY"
    },
    {
     "enum_field_value" : 11,
     "name" : "UDAT_REL_UNIT_WEDNESDAY"
    },
    {
     "enum_field_value" : 12,
     "name" : "UDAT_REL_UNIT_THURSDAY"
    },
    {
     "enum_field_value" : 13,
     "name" : "UDAT_REL_UNIT_FRIDAY"
    },
    {
     "enum_field_value" : 14,
     "name" : "UDAT_REL_UNIT_SATURDAY"
    },
    {
     "enum_field_value" : 15,
     "name" : "UDAT_REL_UNIT_COUNT"
    }
   ],
   "linker_set_key" : "_ZTI21URelativeDateTimeUnit",
   "name" : "URelativeDateTimeUnit",
   "referenced_type" : "_ZTI21URelativeDateTimeUnit",
   "self_type" : "_ZTI21URelativeDateTimeUnit",
   "size" : 4,
   "source_file" : "external/icu/icu4c/source/i18n/unicode/ureldatefmt.h",
   "underlying_type" : "_ZTIj"
  },
  {
   "alignment" : 4,
   "enum_fields" :
   [
    {
     "enum_field_value" : -1,
     "name" : "USEARCH_DEFAULT"
    },
    {
     "enum_field_value" : 0,
     "name" : "USEARCH_OFF"
    },
    {
     "enum_field_value" : 1,
     "name" : "USEARCH_ON"
    },
    {
     "enum_field_value" : 2,
     "name" : "USEARCH_STANDARD_ELEMENT_COMPARISON"
    },
    {
     "enum_field_value" : 3,
     "name" : "USEARCH_PATTERN_BASE_WEIGHT_IS_WILDCARD"
    },
    {
     "enum_field_value" : 4,
     "name" : "USEARCH_ANY_BASE_WEIGHT_IS_WILDCARD"
    },
    {
     "enum_field_value" : 5,
     "name" : "USEARCH_ATTRIBUTE_VALUE_COUNT"
    }
   ],
   "linker_set_key" : "_ZTI21USearchAttributeValue",
   "name" : "USearchAttributeValue",
   "referenced_type" : "_ZTI21USearchAttributeValue",
   "self_type" : "_ZTI21USearchAttributeValue",
   "size" : 4,
   "source_file" : "external/icu/icu4c/source/i18n/unicode/usearch.h",
   "underlying_type" : "_ZTIi"
  },
  {
   "alignment" : 4,
   "enum_fields" :
   [
    {
     "enum_field_value" : 0,
     "name" : "U_BPT_NONE"
    },
    {
     "enum_field_value" : 1,
     "name" : "U_BPT_OPEN"
    },
    {
     "enum_field_value" : 2,
     "name" : "U_BPT_CLOSE"
    },
    {
     "enum_field_value" : 3,
     "name" : "U_BPT_COUNT"
    }
   ],
   "linker_set_key" : "_ZTI22UBidiPairedBracketType",
   "name" : "UBidiPairedBracketType",
   "referenced_type" : "_ZTI22UBidiPairedBracketType",
   "self_type" : "_ZTI22UBidiPairedBracketType",
   "size" : 4,
   "source_file" : "external/icu/icu4c/source/common/unicode/uchar.h",
   "underlying_type" : "_ZTIj"
  },
  {
   "alignment" : 4,
   "enum_fields" :
   [
    {
     "enum_field_value" : 0,
     "name" : "U_INSC_OTHER"
    },
    {
     "enum_field_value" : 1,
     "name" : "U_INSC_AVAGRAHA"
    },
    {
     "enum_field_value" : 2,
     "name" : "U_INSC_BINDU"
    },
    {
     "enum_field_value" : 3,
     "name" : "U_INSC_BRAHMI_JOINING_NUMBER"
    },
    {
     "enum_field_value" : 4,
     "name" : "U_INSC_CANTILLATION_MARK"
    },
    {
     "enum_field_value" : 5,
     "name" : "U_INSC_CONSONANT"
    },
    {
     "enum_field_value" : 6,
     "name" : "U_INSC_CONSONANT_DEAD"
    },
    {
     "enum_field_value" : 7,
     "name" : "U_INSC_CONSONANT_FINAL"
    },
    {
     "enum_field_value" : 8,
     "name" : "U_INSC_CONSONANT_HEAD_LETTER"
    },
    {
     "enum_field_value" : 9,
     "name" : "U_INSC_CONSONANT_INITIAL_POSTFIXED"
    },
    {
     "enum_field_value" : 10,
     "name" : "U_INSC_CONSONANT_KILLER"
    },
    {
     "enum_field_value" : 11,
     "name" : "U_INSC_CONSONANT_MEDIAL"
    },
    {
     "enum_field_value" : 12,
     "name" : "U_INSC_CONSONANT_PLACEHOLDER"
    },
    {
     "enum_field_value" : 13,
     "name" : "U_INSC_CONSONANT_PRECEDING_REPHA"
    },
    {
     "enum_field_value" : 14,
     "name" : "U_INSC_CONSONANT_PREFIXED"
    },
    {
     "enum_field_value" : 15,
     "name" : "U_INSC_CONSONANT_SUBJOINED"
    },
    {
     "enum_field_value" : 16,
     "name" : "U_INSC_CONSONANT_SUCCEEDING_REPHA"
    },
    {
     "enum_field_value" : 17,
     "name" : "U_INSC_CONSONANT_WITH_STACKER"
    },
    {
     "enum_field_value" : 18,
     "name" : "U_INSC_GEMINATION_MARK"
    },
    {
     "enum_field_value" : 19,
     "name" : "U_INSC_INVISIBLE_STACKER"
    },
    {
     "enum_field_value" : 20,
     "name" : "U_INSC_JOINER"
    },
    {
     "enum_field_value" : 21,
     "name" : "U_INSC_MODIFYING_LETTER"
    },
    {
     "enum_field_value" : 22,
     "name" : "U_INSC_NON_JOINER"
    },
    {
     "enum_field_value" : 23,
     "name" : "U_INSC_NUKTA"
    },
    {
     "enum_field_value" : 24,
     "name" : "U_INSC_NUMBER"
    },
    {
     "enum_field_value" : 25,
     "name" : "U_INSC_NUMBER_JOINER"
    },
    {
     "enum_field_value" : 26,
     "name" : "U_INSC_PURE_KILLER"
    },
    {
     "enum_field_value" : 27,
     "name" : "U_INSC_REGISTER_SHIFTER"
    },
    {
     "enum_field_value" : 28,
     "name" : "U_INSC_SYLLABLE_MODIFIER"
    },
    {
     "enum_field_value" : 29,
     "name" : "U_INSC_TONE_LETTER"
    },
    {
     "enum_field_value" : 30,
     "name" : "U_INSC_TONE_MARK"
    },
    {
     "enum_field_value" : 31,
     "name" : "U_INSC_VIRAMA"
    },
    {
     "enum_field_value" : 32,
     "name" : "U_INSC_VISARGA"
    },
    {
     "enum_field_value" : 33,
     "name" : "U_INSC_VOWEL"
    },
    {
     "enum_field_value" : 34,
     "name" : "U_INSC_VOWEL_DEPENDENT"
    },
    {
     "enum_field_value" : 35,
     "name" : "U_INSC_VOWEL_INDEPENDENT"
    }
   ],
   "linker_set_key" : "_ZTI22UIndicSyllabicCategory",
   "name" : "UIndicSyllabicCategory",
   "referenced_type" : "_ZTI22UIndicSyllabicCategory",
   "self_type" : "_ZTI22UIndicSyllabicCategory",
   "size" : 4,
   "source_file" : "external/icu/icu4c/source/common/unicode/uchar.h",
   "underlying_type" : "_ZTIj"
  },
  {
   "alignment" : 4,
   "enum_fields" :
   [
    {
     "enum_field_value" : 0,
     "name" : "UNUM_PARSE_INT_ONLY"
    },
    {
     "enum_field_value" : 1,
     "name" : "UNUM_GROUPING_USED"
    },
    {
     "enum_field_value" : 2,
     "name" : "UNUM_DECIMAL_ALWAYS_SHOWN"
    },
    {
     "enum_field_value" : 3,
     "name" : "UNUM_MAX_INTEGER_DIGITS"
    },
    {
     "enum_field_value" : 4,
     "name" : "UNUM_MIN_INTEGER_DIGITS"
    },
    {
     "enum_field_value" : 5,
     "name" : "UNUM_INTEGER_DIGITS"
    },
    {
     "enum_field_value" : 6,
     "name" : "UNUM_MAX_FRACTION_DIGITS"
    },
    {
     "enum_field_value" : 7,
     "name" : "UNUM_MIN_FRACTION_DIGITS"
    },
    {
     "enum_field_value" : 8,
     "name" : "UNUM_FRACTION_DIGITS"
    },
    {
     "enum_field_value" : 9,
     "name" : "UNUM_MULTIPLIER"
    },
    {
     "enum_field_value" : 10,
     "name" : "UNUM_GROUPING_SIZE"
    },
    {
     "enum_field_value" : 11,
     "name" : "UNUM_ROUNDING_MODE"
    },
    {
     "enum_field_value" : 12,
     "name" : "UNUM_ROUNDING_INCREMENT"
    },
    {
     "enum_field_value" : 13,
     "name" : "UNUM_FORMAT_WIDTH"
    },
    {
     "enum_field_value" : 14,
     "name" : "UNUM_PADDING_POSITION"
    },
    {
     "enum_field_value" : 15,
     "name" : "UNUM_SECONDARY_GROUPING_SIZE"
    },
    {
     "enum_field_value" : 16,
     "name" : "UNUM_SIGNIFICANT_DIGITS_USED"
    },
    {
     "enum_field_value" : 17,
     "name" : "UNUM_MIN_SIGNIFICANT_DIGITS"
    },
    {
     "enum_field_value" : 18,
     "name" : "UNUM_MAX_SIGNIFICANT_DIGITS"
    },
    {
     "enum_field_value" : 19,
     "name" : "UNUM_LENIENT_PARSE"
    },
    {
     "enum_field_value" : 20,
     "name" : "UNUM_PARSE_ALL_INPUT"
    },
    {
     "enum_field_value" : 21,
     "name" : "UNUM_SCALE"
    },
    {
     "enum_field_value" : 22,
     "name" : "UNUM_MINIMUM_GROUPING_DIGITS"
    },
    {
     "enum_field_value" : 23,
     "name" : "UNUM_CURRENCY_USAGE"
    },
    {
     "enum_field_value" : 4095,
     "name" : "UNUM_MAX_NONBOOLEAN_ATTRIBUTE"
    },
    {
     "enum_field_value" : 4096,
     "name" : "UNUM_FORMAT_FAIL_IF_MORE_THAN_MAX_DIGITS"
    },
    {
     "enum_field_value" : 4097,
     "name" : "UNUM_PARSE_NO_EXPONENT"
    },
    {
     "enum_field_value" : 4098,
     "name" : "UNUM_PARSE_DECIMAL_MARK_REQUIRED"
    },
    {
     "enum_field_value" : 4099,
     "name" : "UNUM_PARSE_CASE_SENSITIVE"
    },
    {
     "enum_field_value" : 4100,
     "name" : "UNUM_SIGN_ALWAYS_SHOWN"
    },
    {
     "enum_field_value" : 4101,
     "name" : "UNUM_LIMIT_BOOLEAN_ATTRIBUTE"
    }
   ],
   "linker_set_key" : "_ZTI22UNumberFormatAttribute",
   "name" : "UNumberFormatAttribute",
   "referenced_type" : "_ZTI22UNumberFormatAttribute",
   "self_type" : "_ZTI22UNumberFormatAttribute",
   "size" : 4,
   "source_file" : "external/icu/icu4c/source/i18n/unicode/unum.h",
   "underlying_type" : "_ZTIj"
  },
  {
   "alignment" : 4,
   "enum_fields" :
   [
    {
     "enum_field_value" : 0,
     "name" : "USPREP_RFC3491_NAMEPREP"
    },
    {
     "enum_field_value" : 1,
     "name" : "USPREP_RFC3530_NFS4_CS_PREP"
    },
    {
     "enum_field_value" : 2,
     "name" : "USPREP_RFC3530_NFS4_CS_PREP_CI"
    },
    {
     "enum_field_value" : 3,
     "name" : "USPREP_RFC3530_NFS4_CIS_PREP"
    },
    {
     "enum_field_value" : 4,
     "name" : "USPREP_RFC3530_NFS4_MIXED_PREP_PREFIX"
    },
    {
     "enum_field_value" : 5,
     "name" : "USPREP_RFC3530_NFS4_MIXED_PREP_SUFFIX"
    },
    {
     "enum_field_value" : 6,
     "name" : "USPREP_RFC3722_ISCSI"
    },
    {
     "enum_field_value" : 7,
     "name" : "USPREP_RFC3920_NODEPREP"
    },
    {
     "enum_field_value" : 8,
     "name" : "USPREP_RFC3920_RESOURCEPREP"
    },
    {
     "enum_field_value" : 9,
     "name" : "USPREP_RFC4011_MIB"
    },
    {
     "enum_field_value" : 10,
     "name" : "USPREP_RFC4013_SASLPREP"
    },
    {
     "enum_field_value" : 11,
     "name" : "USPREP_RFC4505_TRACE"
    },
    {
     "enum_field_value" : 12,
     "name" : "USPREP_RFC4518_LDAP"
    },
    {
     "enum_field_value" : 13,
     "name" : "USPREP_RFC4518_LDAP_CI"
    }
   ],
   "linker_set_key" : "_ZTI22UStringPrepProfileType",
   "name" : "UStringPrepProfileType",
   "referenced_type" : "_ZTI22UStringPrepProfileType",
   "self_type" : "_ZTI22UStringPrepProfileType",
   "size" : 4,
   "source_file" : "external/icu/icu4c/source/common/unicode/usprep.h",
   "underlying_type" : "_ZTIj"
  },
  {
   "alignment" : 4,
   "enum_fields" :
   [
    {
     "enum_field_value" : 0,
     "name" : "UIDNA_DEFAULT"
    },
    {
     "enum_field_value" : 1,
     "name" : "UIDNA_ALLOW_UNASSIGNED"
    },
    {
     "enum_field_value" : 2,
     "name" : "UIDNA_USE_STD3_RULES"
    },
    {
     "enum_field_value" : 4,
     "name" : "UIDNA_CHECK_BIDI"
    },
    {
     "enum_field_value" : 8,
     "name" : "UIDNA_CHECK_CONTEXTJ"
    },
    {
     "enum_field_value" : 16,
     "name" : "UIDNA_NONTRANSITIONAL_TO_ASCII"
    },
    {
     "enum_field_value" : 32,
     "name" : "UIDNA_NONTRANSITIONAL_TO_UNICODE"
    },
    {
     "enum_field_value" : 64,
     "name" : "UIDNA_CHECK_CONTEXTO"
    }
   ],
   "linker_set_key" : "_ZTI23$UIDNA_ALLOW_UNASSIGNED",
   "name" : "(anonymous enum at external/icu/icu4c/source/common/unicode/uidna.h:50:1)",
   "referenced_type" : "_ZTI23$UIDNA_ALLOW_UNASSIGNED",
   "self_type" : "_ZTI23$UIDNA_ALLOW_UNASSIGNED",
   "size" : 4,
   "source_file" : "external/icu/icu4c/source/common/unicode/uidna.h",
   "underlying_type" : "_ZTIj"
  },
  {
   "alignment" : 4,
   "enum_fields" :
   [
    {
     "enum_field_value" : 1,
     "name" : "USET_IGNORE_SPACE"
    },
    {
     "enum_field_value" : 2,
     "name" : "USET_CASE_INSENSITIVE"
    },
    {
     "enum_field_value" : 4,
     "name" : "USET_ADD_CASE_MAPPINGS"
    }
   ],
   "linker_set_key" : "_ZTI23$USET_ADD_CASE_MAPPINGS",
   "name" : "(anonymous enum at external/icu/icu4c/source/common/unicode/uset.h:58:1)",
   "referenced_type" : "_ZTI23$USET_ADD_CASE_MAPPINGS",
   "self_type" : "_ZTI23$USET_ADD_CASE_MAPPINGS",
   "size" : 4,
   "source_file" : "external/icu/icu4c/source/common/unicode/uset.h",
   "underlying_type" : "_ZTIj"
  },
  {
   "alignment" : 4,
   "enum_fields" :
   [
    {
     "enum_field_value" : 0,
     "name" : "UCAL_WALLTIME_LAST"
    },
    {
     "enum_field_value" : 1,
     "name" : "UCAL_WALLTIME_FIRST"
    },
    {
     "enum_field_value" : 2,
     "name" : "UCAL_WALLTIME_NEXT_VALID"
    }
   ],
   "linker_set_key" : "_ZTI23UCalendarWallTimeOption",
   "name" : "UCalendarWallTimeOption",
   "referenced_type" : "_ZTI23UCalendarWallTimeOption",
   "self_type" : "_ZTI23UCalendarWallTimeOption",
   "size" : 4,
   "source_file" : "external/icu/icu4c/source/i18n/unicode/ucal.h",
   "underlying_type" : "_ZTIj"
  },
  {
   "alignment" : 4,
   "enum_fields" :
   [
    {
     "enum_field_value" : 0,
     "name" : "UDATPG_WIDE"
    },
    {
     "enum_field_value" : 1,
     "name" : "UDATPG_ABBREVIATED"
    },
    {
     "enum_field_value" : 2,
     "name" : "UDATPG_NARROW"
    }
   ],
   "linker_set_key" : "_ZTI23UDateTimePGDisplayWidth",
   "name" : "UDateTimePGDisplayWidth",
   "referenced_type" : "_ZTI23UDateTimePGDisplayWidth",
   "self_type" : "_ZTI23UDateTimePGDisplayWidth",
   "size" : 4,
   "source_file" : "external/icu/icu4c/source/i18n/unicode/udatpg.h",
   "underlying_type" : "_ZTIj"
  },
  {
   "alignment" : 4,
   "enum_fields" :
   [
    {
     "enum_field_value" : 0,
     "name" : "UNUM_GROUPING_OFF"
    },
    {
     "enum_field_value" : 1,
     "name" : "UNUM_GROUPING_MIN2"
    },
    {
     "enum_field_value" : 2,
     "name" : "UNUM_GROUPING_AUTO"
    },
    {
     "enum_field_value" : 3,
     "name" : "UNUM_GROUPING_ON_ALIGNED"
    },
    {
     "enum_field_value" : 4,
     "name" : "UNUM_GROUPING_THOUSANDS"
    },
    {
     "enum_field_value" : 5,
     "name" : "UNUM_GROUPING_COUNT"
    }
   ],
   "linker_set_key" : "_ZTI23UNumberGroupingStrategy",
   "name" : "UNumberGroupingStrategy",
   "referenced_type" : "_ZTI23UNumberGroupingStrategy",
   "self_type" : "_ZTI23UNumberGroupingStrategy",
   "size" : 4,
   "source_file" : "external/icu/icu4c/source/i18n/unicode/unumberformatter.h",
   "underlying_type" : "_ZTIj"
  },
  {
   "alignment" : 4,
   "enum_fields" :
   [
    {
     "enum_field_value" : 0,
     "name" : "UCAL_TZ_TRANSITION_NEXT"
    },
    {
     "enum_field_value" : 1,
     "name" : "UCAL_TZ_TRANSITION_NEXT_INCLUSIVE"
    },
    {
     "enum_field_value" : 2,
     "name" : "UCAL_TZ_TRANSITION_PREVIOUS"
    },
    {
     "enum_field_value" : 3,
     "name" : "UCAL_TZ_TRANSITION_PREVIOUS_INCLUSIVE"
    }
   ],
   "linker_set_key" : "_ZTI23UTimeZoneTransitionType",
   "name" : "UTimeZoneTransitionType",
   "referenced_type" : "_ZTI23UTimeZoneTransitionType",
   "self_type" : "_ZTI23UTimeZoneTransitionType",
   "size" : 4,
   "source_file" : "external/icu/icu4c/source/i18n/unicode/ucal.h",
   "underlying_type" : "_ZTIj"
  },
  {
   "alignment" : 4,
   "enum_fields" :
   [
    {
     "enum_field_value" : 0,
     "name" : "UCAL_STANDARD"
    },
    {
     "enum_field_value" : 1,
     "name" : "UCAL_SHORT_STANDARD"
    },
    {
     "enum_field_value" : 2,
     "name" : "UCAL_DST"
    },
    {
     "enum_field_value" : 3,
     "name" : "UCAL_SHORT_DST"
    }
   ],
   "linker_set_key" : "_ZTI24UCalendarDisplayNameType",
   "name" : "UCalendarDisplayNameType",
   "referenced_type" : "_ZTI24UCalendarDisplayNameType",
   "self_type" : "_ZTI24UCalendarDisplayNameType",
   "size" : 4,
   "source_file" : "external/icu/icu4c/source/i18n/unicode/ucal.h",
   "underlying_type" : "_ZTIj"
  },
  {
   "alignment" : 4,
   "enum_fields" :
   [
    {
     "enum_field_value" : 0,
     "name" : "UCNV_UNASSIGNED"
    },
    {
     "enum_field_value" : 1,
     "name" : "UCNV_ILLEGAL"
    },
    {
     "enum_field_value" : 2,
     "name" : "UCNV_IRREGULAR"
    },
    {
     "enum_field_value" : 3,
     "name" : "UCNV_RESET"
    },
    {
     "enum_field_value" : 4,
     "name" : "UCNV_CLOSE"
    },
    {
     "enum_field_value" : 5,
     "name" : "UCNV_CLONE"
    }
   ],
   "linker_set_key" : "_ZTI24UConverterCallbackReason",
   "name" : "UConverterCallbackReason",
   "referenced_type" : "_ZTI24UConverterCallbackReason",
   "self_type" : "_ZTI24UConverterCallbackReason",
   "size" : 4,
   "source_file" : "external/icu/icu4c/source/common/unicode/ucnv_err.h",
   "underlying_type" : "_ZTIj"
  },
  {
   "alignment" : 4,
   "enum_fields" :
   [
    {
     "enum_field_value" : 0,
     "name" : "UDATPG_NO_CONFLICT"
    },
    {
     "enum_field_value" : 1,
     "name" : "UDATPG_BASE_CONFLICT"
    },
    {
     "enum_field_value" : 2,
     "name" : "UDATPG_CONFLICT"
    },
    {
     "enum_field_value" : 3,
     "name" : "UDATPG_CONFLICT_COUNT"
    }
   ],
   "linker_set_key" : "_ZTI24UDateTimePatternConflict",
   "name" : "UDateTimePatternConflict",
   "referenced_type" : "_ZTI24UDateTimePatternConflict",
   "self_type" : "_ZTI24UDateTimePatternConflict",
   "size" : 4,
   "source_file" : "external/icu/icu4c/source/i18n/unicode/udatpg.h",
   "underlying_type" : "_ZTIj"
  },
  {
   "alignment" : 4,
   "enum_fields" :
   [
    {
     "enum_field_value" : 0,
     "name" : "U_INPC_NA"
    },
    {
     "enum_field_value" : 1,
     "name" : "U_INPC_BOTTOM"
    },
    {
     "enum_field_value" : 2,
     "name" : "U_INPC_BOTTOM_AND_LEFT"
    },
    {
     "enum_field_value" : 3,
     "name" : "U_INPC_BOTTOM_AND_RIGHT"
    },
    {
     "enum_field_value" : 4,
     "name" : "U_INPC_LEFT"
    },
    {
     "enum_field_value" : 5,
     "name" : "U_INPC_LEFT_AND_RIGHT"
    },
    {
     "enum_field_value" : 6,
     "name" : "U_INPC_OVERSTRUCK"
    },
    {
     "enum_field_value" : 7,
     "name" : "U_INPC_RIGHT"
    },
    {
     "enum_field_value" : 8,
     "name" : "U_INPC_TOP"
    },
    {
     "enum_field_value" : 9,
     "name" : "U_INPC_TOP_AND_BOTTOM"
    },
    {
     "enum_field_value" : 10,
     "name" : "U_INPC_TOP_AND_BOTTOM_AND_RIGHT"
    },
    {
     "enum_field_value" : 11,
     "name" : "U_INPC_TOP_AND_LEFT"
    },
    {
     "enum_field_value" : 12,
     "name" : "U_INPC_TOP_AND_LEFT_AND_RIGHT"
    },
    {
     "enum_field_value" : 13,
     "name" : "U_INPC_TOP_AND_RIGHT"
    },
    {
     "enum_field_value" : 14,
     "name" : "U_INPC_VISUAL_ORDER_LEFT"
    },
    {
     "enum_field_value" : 15,
     "name" : "U_INPC_TOP_AND_BOTTOM_AND_LEFT"
    }
   ],
   "linker_set_key" : "_ZTI24UIndicPositionalCategory",
   "name" : "UIndicPositionalCategory",
   "referenced_type" : "_ZTI24UIndicPositionalCategory",
   "self_type" : "_ZTI24UIndicPositionalCategory",
   "size" : 4,
   "source_file" : "external/icu/icu4c/source/common/unicode/uchar.h",
   "underlying_type" : "_ZTIj"
  },
  {
   "alignment" : 4,
   "enum_fields" :
   [
    {
     "enum_field_value" : 0,
     "name" : "ULOCDATA_QUOTATION_START"
    },
    {
     "enum_field_value" : 1,
     "name" : "ULOCDATA_QUOTATION_END"
    },
    {
     "enum_field_value" : 2,
     "name" : "ULOCDATA_ALT_QUOTATION_START"
    },
    {
     "enum_field_value" : 3,
     "name" : "ULOCDATA_ALT_QUOTATION_END"
    },
    {
     "enum_field_value" : 4,
     "name" : "ULOCDATA_DELIMITER_COUNT"
    }
   ],
   "linker_set_key" : "_ZTI24ULocaleDataDelimiterType",
   "name" : "ULocaleDataDelimiterType",
   "referenced_type" : "_ZTI24ULocaleDataDelimiterType",
   "self_type" : "_ZTI24ULocaleDataDelimiterType",
   "size" : 4,
   "source_file" : "external/icu/icu4c/source/i18n/unicode/ulocdata.h",
   "underlying_type" : "_ZTIj"
  },
  {
   "alignment" : 4,
   "enum_fields" :
   [
    {
     "enum_field_value" : 0,
     "name" : "UNUM_PAD_BEFORE_PREFIX"
    },
    {
     "enum_field_value" : 1,
     "name" : "UNUM_PAD_AFTER_PREFIX"
    },
    {
     "enum_field_value" : 2,
     "name" : "UNUM_PAD_BEFORE_SUFFIX"
    },
    {
     "enum_field_value" : 3,
     "name" : "UNUM_PAD_AFTER_SUFFIX"
    }
   ],
   "linker_set_key" : "_ZTI24UNumberFormatPadPosition",
   "name" : "UNumberFormatPadPosition",
   "referenced_type" : "_ZTI24UNumberFormatPadPosition",
   "self_type" : "_ZTI24UNumberFormatPadPosition",
   "size" : 4,
   "source_file" : "external/icu/icu4c/source/i18n/unicode/unum.h",
   "underlying_type" : "_ZTIj"
  },
  {
   "alignment" : 4,
   "enum_fields" :
   [
    {
     "enum_field_value" : 0,
     "name" : "UNORM_NO"
    },
    {
     "enum_field_value" : 1,
     "name" : "UNORM_YES"
    },
    {
     "enum_field_value" : 2,
     "name" : "UNORM_MAYBE"
    }
   ],
   "linker_set_key" : "_ZTI25UNormalizationCheckResult",
   "name" : "UNormalizationCheckResult",
   "referenced_type" : "_ZTI25UNormalizationCheckResult",
   "self_type" : "_ZTI25UNormalizationCheckResult",
   "size" : 4,
   "source_file" : "external/icu/icu4c/source/common/unicode/unorm2.h",
   "underlying_type" : "_ZTIj"
  },
  {
   "alignment" : 4,
   "enum_fields" :
   [
    {
     "enum_field_value" : 0,
     "name" : "UNUM_ROUND_CEILING"
    },
    {
     "enum_field_value" : 1,
     "name" : "UNUM_ROUND_FLOOR"
    },
    {
     "enum_field_value" : 2,
     "name" : "UNUM_ROUND_DOWN"
    },
    {
     "enum_field_value" : 3,
     "name" : "UNUM_ROUND_UP"
    },
    {
     "enum_field_value" : 4,
     "name" : "UNUM_ROUND_HALFEVEN"
    },
    {
     "enum_field_value" : 4,
     "name" : "UNUM_FOUND_HALFEVEN"
    },
    {
     "enum_field_value" : 5,
     "name" : "UNUM_ROUND_HALFDOWN"
    },
    {
     "enum_field_value" : 6,
     "name" : "UNUM_ROUND_HALFUP"
    },
    {
     "enum_field_value" : 7,
     "name" : "UNUM_ROUND_UNNECESSARY"
    }
   ],
   "linker_set_key" : "_ZTI25UNumberFormatRoundingMode",
   "name" : "UNumberFormatRoundingMode",
   "referenced_type" : "_ZTI25UNumberFormatRoundingMode",
   "self_type" : "_ZTI25UNumberFormatRoundingMode",
   "size" : 4,
   "source_file" : "external/icu/icu4c/source/i18n/unicode/unum.h",
   "underlying_type" : "_ZTIj"
  },
  {
   "alignment" : 4,
   "enum_fields" :
   [
    {
     "enum_field_value" : 0,
     "name" : "ULOCDATA_ES_STANDARD"
    },
    {
     "enum_field_value" : 1,
     "name" : "ULOCDATA_ES_AUXILIARY"
    },
    {
     "enum_field_value" : 2,
     "name" : "ULOCDATA_ES_INDEX"
    },
    {
     "enum_field_value" : 3,
     "name" : "ULOCDATA_ES_PUNCTUATION"
    },
    {
     "enum_field_value" : 4,
     "name" : "ULOCDATA_ES_COUNT"
    }
   ],
   "linker_set_key" : "_ZTI26ULocaleDataExemplarSetType",
   "name" : "ULocaleDataExemplarSetType",
   "referenced_type" : "_ZTI26ULocaleDataExemplarSetType",
   "self_type" : "_ZTI26ULocaleDataExemplarSetType",
   "size" : 4,
   "source_file" : "external/icu/icu4c/source/i18n/unicode/ulocdata.h",
   "underlying_type" : "_ZTIj"
  },
  {
   "alignment" : 4,
   "enum_fields" :
   [
    {
     "enum_field_value" : 0,
     "name" : "UNUM_POSITIVE_PREFIX"
    },
    {
     "enum_field_value" : 1,
     "name" : "UNUM_POSITIVE_SUFFIX"
    },
    {
     "enum_field_value" : 2,
     "name" : "UNUM_NEGATIVE_PREFIX"
    },
    {
     "enum_field_value" : 3,
     "name" : "UNUM_NEGATIVE_SUFFIX"
    },
    {
     "enum_field_value" : 4,
     "name" : "UNUM_PADDING_CHARACTER"
    },
    {
     "enum_field_value" : 5,
     "name" : "UNUM_CURRENCY_CODE"
    },
    {
     "enum_field_value" : 6,
     "name" : "UNUM_DEFAULT_RULESET"
    },
    {
     "enum_field_value" : 7,
     "name" : "UNUM_PUBLIC_RULESETS"
    }
   ],
   "linker_set_key" : "_ZTI26UNumberFormatTextAttribute",
   "name" : "UNumberFormatTextAttribute",
   "referenced_type" : "_ZTI26UNumberFormatTextAttribute",
   "self_type" : "_ZTI26UNumberFormatTextAttribute",
   "size" : 4,
   "source_file" : "external/icu/icu4c/source/i18n/unicode/unum.h",
   "underlying_type" : "_ZTIj"
  },
  {
   "alignment" : 4,
   "enum_fields" :
   [
    {
     "enum_field_value" : 0,
     "name" : "UDAT_PARSE_ALLOW_WHITESPACE"
    },
    {
     "enum_field_value" : 1,
     "name" : "UDAT_PARSE_ALLOW_NUMERIC"
    },
    {
     "enum_field_value" : 2,
     "name" : "UDAT_PARSE_PARTIAL_LITERAL_MATCH"
    },
    {
     "enum_field_value" : 3,
     "name" : "UDAT_PARSE_MULTIPLE_PATTERNS_FOR_MATCH"
    },
    {
     "enum_field_value" : 4,
     "name" : "UDAT_BOOLEAN_ATTRIBUTE_COUNT"
    }
   ],
   "linker_set_key" : "_ZTI27UDateFormatBooleanAttribute",
   "name" : "UDateFormatBooleanAttribute",
   "referenced_type" : "_ZTI27UDateFormatBooleanAttribute",
   "self_type" : "_ZTI27UDateFormatBooleanAttribute",
   "size" : 4,
   "source_file" : "external/icu/icu4c/source/i18n/unicode/udat.h",
   "underlying_type" : "_ZTIj"
  },
  {
   "alignment" : 4,
   "enum_fields" :
   [
    {
     "enum_field_value" : 0,
     "name" : "UNUM_NO"
    },
    {
     "enum_field_value" : 1,
     "name" : "UNUM_YES"
    },
    {
     "enum_field_value" : 2,
     "name" : "UNUM_MAYBE"
    }
   ],
   "linker_set_key" : "_ZTI27UNumberFormatAttributeValue",
   "name" : "UNumberFormatAttributeValue",
   "referenced_type" : "_ZTI27UNumberFormatAttributeValue",
   "self_type" : "_ZTI27UNumberFormatAttributeValue",
   "size" : 4,
   "source_file" : "external/icu/icu4c/source/i18n/unicode/unum.h",
   "underlying_type" : "_ZTIj"
  },
  {
   "alignment" : 4,
   "enum_fields" :
   [
    {
     "enum_field_value" : 0,
     "name" : "UDATPG_MATCH_NO_OPTIONS"
    },
    {
     "enum_field_value" : 2048,
     "name" : "UDATPG_MATCH_HOUR_FIELD_LENGTH"
    },
    {
     "enum_field_value" : 4096,
     "name" : "UDATPG_MATCH_MINUTE_FIELD_LENGTH"
    },
    {
     "enum_field_value" : 8192,
     "name" : "UDATPG_MATCH_SECOND_FIELD_LENGTH"
    },
    {
     "enum_field_value" : 65535,
     "name" : "UDATPG_MATCH_ALL_FIELDS_LENGTH"
    }
   ],
   "linker_set_key" : "_ZTI28UDateTimePatternMatchOptions",
   "name" : "UDateTimePatternMatchOptions",
   "referenced_type" : "_ZTI28UDateTimePatternMatchOptions",
   "self_type" : "_ZTI28UDateTimePatternMatchOptions",
   "size" : 4,
   "source_file" : "external/icu/icu4c/source/i18n/unicode/udatpg.h",
   "underlying_type" : "_ZTIj"
  },
  {
   "alignment" : 4,
   "enum_fields" :
   [
    {
     "enum_field_value" : 1,
     "name" : "UTEXT_PROVIDER_LENGTH_IS_EXPENSIVE"
    },
    {
     "enum_field_value" : 2,
     "name" : "UTEXT_PROVIDER_STABLE_CHUNKS"
    },
    {
     "enum_field_value" : 3,
     "name" : "UTEXT_PROVIDER_WRITABLE"
    },
    {
     "enum_field_value" : 4,
     "name" : "UTEXT_PROVIDER_HAS_META_DATA"
    },
    {
     "enum_field_value" : 5,
     "name" : "UTEXT_PROVIDER_OWNS_TEXT"
    }
   ],
   "linker_set_key" : "_ZTI29$UTEXT_PROVIDER_HAS_META_DATA",
   "name" : "(anonymous enum at external/icu/icu4c/source/common/unicode/utext.h:910:1)",
   "referenced_type" : "_ZTI29$UTEXT_PROVIDER_HAS_META_DATA",
   "self_type" : "_ZTI29$UTEXT_PROVIDER_HAS_META_DATA",
   "size" : 4,
   "source_file" : "external/icu/icu4c/source/common/unicode/utext.h",
   "underlying_type" : "_ZTIj"
  },
  {
   "alignment" : 4,
   "enum_fields" :
   [
    {
     "enum_field_value" : 0,
     "name" : "UNUM_DECIMAL_SEPARATOR_AUTO"
    },
    {
     "enum_field_value" : 1,
     "name" : "UNUM_DECIMAL_SEPARATOR_ALWAYS"
    },
    {
     "enum_field_value" : 2,
     "name" : "UNUM_DECIMAL_SEPARATOR_COUNT"
    }
   ],
   "linker_set_key" : "_ZTI30UNumberDecimalSeparatorDisplay",
   "name" : "UNumberDecimalSeparatorDisplay",
   "referenced_type" : "_ZTI30UNumberDecimalSeparatorDisplay",
   "self_type" : "_ZTI30UNumberDecimalSeparatorDisplay",
   "size" : 4,
   "source_file" : "external/icu/icu4c/source/i18n/unicode/unumberformatter.h",
   "underlying_type" : "_ZTIj"
  },
  {
   "alignment" : 4,
   "enum_fields" :
   [
    {
     "enum_field_value" : 0,
     "name" : "UDAT_REL_LITERAL_FIELD"
    },
    {
     "enum_field_value" : 1,
     "name" : "UDAT_REL_NUMERIC_FIELD"
    }
   ],
   "linker_set_key" : "_ZTI31URelativeDateTimeFormatterField",
   "name" : "URelativeDateTimeFormatterField",
   "referenced_type" : "_ZTI31URelativeDateTimeFormatterField",
   "self_type" : "_ZTI31URelativeDateTimeFormatterField",
   "size" : 4,
   "source_file" : "external/icu/icu4c/source/i18n/unicode/ureldatefmt.h",
   "underlying_type" : "_ZTIj"
  },
  {
   "alignment" : 4,
   "enum_fields" :
   [
    {
     "enum_field_value" : -2,
     "name" : "UNUM_MINIMUM_GROUPING_DIGITS_AUTO"
    },
    {
     "enum_field_value" : -3,
     "name" : "UNUM_MINIMUM_GROUPING_DIGITS_MIN2"
    }
   ],
   "linker_set_key" : "_ZTI34UNumberFormatMinimumGroupingDigits",
   "name" : "UNumberFormatMinimumGroupingDigits",
   "referenced_type" : "_ZTI34UNumberFormatMinimumGroupingDigits",
   "self_type" : "_ZTI34UNumberFormatMinimumGroupingDigits",
   "size" : 4,
   "source_file" : "external/icu/icu4c/source/i18n/unicode/unum.h",
   "underlying_type" : "_ZTIi"
  },
  {
   "alignment" : 4,
   "enum_fields" :
   [
    {
     "enum_field_value" : 0,
     "name" : "UDAT_STYLE_LONG"
    },
    {
     "enum_field_value" : 1,
     "name" : "UDAT_STYLE_SHORT"
    },
    {
     "enum_field_value" : 2,
     "name" : "UDAT_STYLE_NARROW"
    },
    {
     "enum_field_value" : 3,
     "name" : "UDAT_STYLE_COUNT"
    }
   ],
   "linker_set_key" : "_ZTI35UDateRelativeDateTimeFormatterStyle",
   "name" : "UDateRelativeDateTimeFormatterStyle",
   "referenced_type" : "_ZTI35UDateRelativeDateTimeFormatterStyle",
   "self_type" : "_ZTI35UDateRelativeDateTimeFormatterStyle",
   "size" : 4,
   "source_file" : "external/icu/icu4c/source/i18n/unicode/ureldatefmt.h",
   "underlying_type" : "_ZTIj"
  },
  {
   "alignment" : 4,
   "enum_fields" :
   [
    {
     "enum_field_value" : 6,
     "name" : "UCPTRIE_FAST_SHIFT"
    },
    {
     "enum_field_value" : 64,
     "name" : "UCPTRIE_FAST_DATA_BLOCK_LENGTH"
    },
    {
     "enum_field_value" : 63,
     "name" : "UCPTRIE_FAST_DATA_MASK"
    },
    {
     "enum_field_value" : 4095,
     "name" : "UCPTRIE_SMALL_MAX"
    },
    {
     "enum_field_value" : 1,
     "name" : "UCPTRIE_ERROR_VALUE_NEG_DATA_OFFSET"
    },
    {
     "enum_field_value" : 2,
     "name" : "UCPTRIE_HIGH_VALUE_NEG_DATA_OFFSET"
    }
   ],
   "linker_set_key" : "_ZTI36$UCPTRIE_ERROR_VALUE_NEG_DATA_OFFSET",
   "name" : "(anonymous enum at external/icu/icu4c/source/common/unicode/ucptrie.h:554:1)",
   "referenced_type" : "_ZTI36$UCPTRIE_ERROR_VALUE_NEG_DATA_OFFSET",
   "self_type" : "_ZTI36$UCPTRIE_ERROR_VALUE_NEG_DATA_OFFSET",
   "size" : 4,
   "source_file" : "external/icu/icu4c/source/common/unicode/ucptrie.h",
   "underlying_type" : "_ZTIj"
  },
  {
   "alignment" : 4,
   "enum_fields" :
   [
    {
     "enum_field_value" : 8,
     "name" : "USET_SERIALIZED_STATIC_ARRAY_CAPACITY"
    }
   ],
   "linker_set_key" : "_ZTI38$USET_SERIALIZED_STATIC_ARRAY_CAPACITY",
   "name" : "(anonymous enum at external/icu/icu4c/source/common/unicode/uset.h:217:1)",
   "referenced_type" : "_ZTI38$USET_SERIALIZED_STATIC_ARRAY_CAPACITY",
   "self_type" : "_ZTI38$USET_SERIALIZED_STATIC_ARRAY_CAPACITY",
   "size" : 4,
   "source_file" : "external/icu/icu4c/source/common/unicode/uset.h",
   "underlying_type" : "_ZTIj"
  },
  {
   "alignment" : 4,
   "enum_fields" :
   [
    {
     "enum_field_value" : 0,
     "name" : "UGENDER_MALE"
    },
    {
     "enum_field_value" : 1,
     "name" : "UGENDER_FEMALE"
    },
    {
     "enum_field_value" : 2,
     "name" : "UGENDER_OTHER"
    }
   ],
   "linker_set_key" : "_ZTI7UGender",
   "name" : "UGender",
   "referenced_type" : "_ZTI7UGender",
   "self_type" : "_ZTI7UGender",
   "size" : 4,
   "source_file" : "external/icu/icu4c/source/i18n/unicode/ugender.h",
   "underlying_type" : "_ZTIj"
  },
  {
   "alignment" : 4,
   "enum_fields" :
   [
    {
     "enum_field_value" : -1,
     "name" : "URES_NONE"
    },
    {
     "enum_field_value" : 0,
     "name" : "URES_STRING"
    },
    {
     "enum_field_value" : 1,
     "name" : "URES_BINARY"
    },
    {
     "enum_field_value" : 2,
     "name" : "URES_TABLE"
    },
    {
     "enum_field_value" : 3,
     "name" : "URES_ALIAS"
    },
    {
     "enum_field_value" : 7,
     "name" : "URES_INT"
    },
    {
     "enum_field_value" : 8,
     "name" : "URES_ARRAY"
    },
    {
     "enum_field_value" : 14,
     "name" : "URES_INT_VECTOR"
    },
    {
     "enum_field_value" : -1,
     "name" : "RES_NONE"
    },
    {
     "enum_field_value" : 0,
     "name" : "RES_STRING"
    },
    {
     "enum_field_value" : 1,
     "name" : "RES_BINARY"
    },
    {
     "enum_field_value" : 2,
     "name" : "RES_TABLE"
    },
    {
     "enum_field_value" : 3,
     "name" : "RES_ALIAS"
    },
    {
     "enum_field_value" : 7,
     "name" : "RES_INT"
    },
    {
     "enum_field_value" : 8,
     "name" : "RES_ARRAY"
    },
    {
     "enum_field_value" : 14,
     "name" : "RES_INT_VECTOR"
    },
    {
     "enum_field_value" : 15,
     "name" : "RES_RESERVED"
    },
    {
     "enum_field_value" : 16,
     "name" : "URES_LIMIT"
    }
   ],
   "linker_set_key" : "_ZTI8UResType",
   "name" : "UResType",
   "referenced_type" : "_ZTI8UResType",
   "self_type" : "_ZTI8UResType",
   "size" : 4,
   "source_file" : "external/icu/icu4c/source/common/unicode/ures.h",
   "underlying_type" : "_ZTIi"
  },
  {
   "alignment" : 4,
   "enum_fields" :
   [
    {
     "enum_field_value" : 0,
     "name" : "UCHAR_ALPHABETIC"
    },
    {
     "enum_field_value" : 0,
     "name" : "UCHAR_BINARY_START"
    },
    {
     "enum_field_value" : 1,
     "name" : "UCHAR_ASCII_HEX_DIGIT"
    },
    {
     "enum_field_value" : 2,
     "name" : "UCHAR_BIDI_CONTROL"
    },
    {
     "enum_field_value" : 3,
     "name" : "UCHAR_BIDI_MIRRORED"
    },
    {
     "enum_field_value" : 4,
     "name" : "UCHAR_DASH"
    },
    {
     "enum_field_value" : 5,
     "name" : "UCHAR_DEFAULT_IGNORABLE_CODE_POINT"
    },
    {
     "enum_field_value" : 6,
     "name" : "UCHAR_DEPRECATED"
    },
    {
     "enum_field_value" : 7,
     "name" : "UCHAR_DIACRITIC"
    },
    {
     "enum_field_value" : 8,
     "name" : "UCHAR_EXTENDER"
    },
    {
     "enum_field_value" : 9,
     "name" : "UCHAR_FULL_COMPOSITION_EXCLUSION"
    },
    {
     "enum_field_value" : 10,
     "name" : "UCHAR_GRAPHEME_BASE"
    },
    {
     "enum_field_value" : 11,
     "name" : "UCHAR_GRAPHEME_EXTEND"
    },
    {
     "enum_field_value" : 12,
     "name" : "UCHAR_GRAPHEME_LINK"
    },
    {
     "enum_field_value" : 13,
     "name" : "UCHAR_HEX_DIGIT"
    },
    {
     "enum_field_value" : 14,
     "name" : "UCHAR_HYPHEN"
    },
    {
     "enum_field_value" : 15,
     "name" : "UCHAR_ID_CONTINUE"
    },
    {
     "enum_field_value" : 16,
     "name" : "UCHAR_ID_START"
    },
    {
     "enum_field_value" : 17,
     "name" : "UCHAR_IDEOGRAPHIC"
    },
    {
     "enum_field_value" : 18,
     "name" : "UCHAR_IDS_BINARY_OPERATOR"
    },
    {
     "enum_field_value" : 19,
     "name" : "UCHAR_IDS_TRINARY_OPERATOR"
    },
    {
     "enum_field_value" : 20,
     "name" : "UCHAR_JOIN_CONTROL"
    },
    {
     "enum_field_value" : 21,
     "name" : "UCHAR_LOGICAL_ORDER_EXCEPTION"
    },
    {
     "enum_field_value" : 22,
     "name" : "UCHAR_LOWERCASE"
    },
    {
     "enum_field_value" : 23,
     "name" : "UCHAR_MATH"
    },
    {
     "enum_field_value" : 24,
     "name" : "UCHAR_NONCHARACTER_CODE_POINT"
    },
    {
     "enum_field_value" : 25,
     "name" : "UCHAR_QUOTATION_MARK"
    },
    {
     "enum_field_value" : 26,
     "name" : "UCHAR_RADICAL"
    },
    {
     "enum_field_value" : 27,
     "name" : "UCHAR_SOFT_DOTTED"
    },
    {
     "enum_field_value" : 28,
     "name" : "UCHAR_TERMINAL_PUNCTUATION"
    },
    {
     "enum_field_value" : 29,
     "name" : "UCHAR_UNIFIED_IDEOGRAPH"
    },
    {
     "enum_field_value" : 30,
     "name" : "UCHAR_UPPERCASE"
    },
    {
     "enum_field_value" : 31,
     "name" : "UCHAR_WHITE_SPACE"
    },
    {
     "enum_field_value" : 32,
     "name" : "UCHAR_XID_CONTINUE"
    },
    {
     "enum_field_value" : 33,
     "name" : "UCHAR_XID_START"
    },
    {
     "enum_field_value" : 34,
     "name" : "UCHAR_CASE_SENSITIVE"
    },
    {
     "enum_field_value" : 35,
     "name" : "UCHAR_S_TERM"
    },
    {
     "enum_field_value" : 36,
     "name" : "UCHAR_VARIATION_SELECTOR"
    },
    {
     "enum_field_value" : 37,
     "name" : "UCHAR_NFD_INERT"
    },
    {
     "enum_field_value" : 38,
     "name" : "UCHAR_NFKD_INERT"
    },
    {
     "enum_field_value" : 39,
     "name" : "UCHAR_NFC_INERT"
    },
    {
     "enum_field_value" : 40,
     "name" : "UCHAR_NFKC_INERT"
    },
    {
     "enum_field_value" : 41,
     "name" : "UCHAR_SEGMENT_STARTER"
    },
    {
     "enum_field_value" : 42,
     "name" : "UCHAR_PATTERN_SYNTAX"
    },
    {
     "enum_field_value" : 43,
     "name" : "UCHAR_PATTERN_WHITE_SPACE"
    },
    {
     "enum_field_value" : 44,
     "name" : "UCHAR_POSIX_ALNUM"
    },
    {
     "enum_field_value" : 45,
     "name" : "UCHAR_POSIX_BLANK"
    },
    {
     "enum_field_value" : 46,
     "name" : "UCHAR_POSIX_GRAPH"
    },
    {
     "enum_field_value" : 47,
     "name" : "UCHAR_POSIX_PRINT"
    },
    {
     "enum_field_value" : 48,
     "name" : "UCHAR_POSIX_XDIGIT"
    },
    {
     "enum_field_value" : 49,
     "name" : "UCHAR_CASED"
    },
    {
     "enum_field_value" : 50,
     "name" : "UCHAR_CASE_IGNORABLE"
    },
    {
     "enum_field_value" : 51,
     "name" : "UCHAR_CHANGES_WHEN_LOWERCASED"
    },
    {
     "enum_field_value" : 52,
     "name" : "UCHAR_CHANGES_WHEN_UPPERCASED"
    },
    {
     "enum_field_value" : 53,
     "name" : "UCHAR_CHANGES_WHEN_TITLECASED"
    },
    {
     "enum_field_value" : 54,
     "name" : "UCHAR_CHANGES_WHEN_CASEFOLDED"
    },
    {
     "enum_field_value" : 55,
     "name" : "UCHAR_CHANGES_WHEN_CASEMAPPED"
    },
    {
     "enum_field_value" : 56,
     "name" : "UCHAR_CHANGES_WHEN_NFKC_CASEFOLDED"
    },
    {
     "enum_field_value" : 57,
     "name" : "UCHAR_EMOJI"
    },
    {
     "enum_field_value" : 58,
     "name" : "UCHAR_EMOJI_PRESENTATION"
    },
    {
     "enum_field_value" : 59,
     "name" : "UCHAR_EMOJI_MODIFIER"
    },
    {
     "enum_field_value" : 60,
     "name" : "UCHAR_EMOJI_MODIFIER_BASE"
    },
    {
     "enum_field_value" : 61,
     "name" : "UCHAR_EMOJI_COMPONENT"
    },
    {
     "enum_field_value" : 62,
     "name" : "UCHAR_REGIONAL_INDICATOR"
    },
    {
     "enum_field_value" : 63,
     "name" : "UCHAR_PREPENDED_CONCATENATION_MARK"
    },
    {
     "enum_field_value" : 64,
     "name" : "UCHAR_EXTENDED_PICTOGRAPHIC"
    },
    {
     "enum_field_value" : 65,
     "name" : "UCHAR_BINARY_LIMIT"
    },
    {
     "enum_field_value" : 4096,
     "name" : "UCHAR_BIDI_CLASS"
    },
    {
     "enum_field_value" : 4096,
     "name" : "UCHAR_INT_START"
    },
    {
     "enum_field_value" : 4097,
     "name" : "UCHAR_BLOCK"
    },
    {
     "enum_field_value" : 4098,
     "name" : "UCHAR_CANONICAL_COMBINING_CLASS"
    },
    {
     "enum_field_value" : 4099,
     "name" : "UCHAR_DECOMPOSITION_TYPE"
    },
    {
     "enum_field_value" : 4100,
     "name" : "UCHAR_EAST_ASIAN_WIDTH"
    },
    {
     "enum_field_value" : 4101,
     "name" : "UCHAR_GENERAL_CATEGORY"
    },
    {
     "enum_field_value" : 4102,
     "name" : "UCHAR_JOINING_GROUP"
    },
    {
     "enum_field_value" : 4103,
     "name" : "UCHAR_JOINING_TYPE"
    },
    {
     "enum_field_value" : 4104,
     "name" : "UCHAR_LINE_BREAK"
    },
    {
     "enum_field_value" : 4105,
     "name" : "UCHAR_NUMERIC_TYPE"
    },
    {
     "enum_field_value" : 4106,
     "name" : "UCHAR_SCRIPT"
    },
    {
     "enum_field_value" : 4107,
     "name" : "UCHAR_HANGUL_SYLLABLE_TYPE"
    },
    {
     "enum_field_value" : 4108,
     "name" : "UCHAR_NFD_QUICK_CHECK"
    },
    {
     "enum_field_value" : 4109,
     "name" : "UCHAR_NFKD_QUICK_CHECK"
    },
    {
     "enum_field_value" : 4110,
     "name" : "UCHAR_NFC_QUICK_CHECK"
    },
    {
     "enum_field_value" : 4111,
     "name" : "UCHAR_NFKC_QUICK_CHECK"
    },
    {
     "enum_field_value" : 4112,
     "name" : "UCHAR_LEAD_CANONICAL_COMBINING_CLASS"
    },
    {
     "enum_field_value" : 4113,
     "name" : "UCHAR_TRAIL_CANONICAL_COMBINING_CLASS"
    },
    {
     "enum_field_value" : 4114,
     "name" : "UCHAR_GRAPHEME_CLUSTER_BREAK"
    },
    {
     "enum_field_value" : 4115,
     "name" : "UCHAR_SENTENCE_BREAK"
    },
    {
     "enum_field_value" : 4116,
     "name" : "UCHAR_WORD_BREAK"
    },
    {
     "enum_field_value" : 4117,
     "name" : "UCHAR_BIDI_PAIRED_BRACKET_TYPE"
    },
    {
     "enum_field_value" : 4118,
     "name" : "UCHAR_INDIC_POSITIONAL_CATEGORY"
    },
    {
     "enum_field_value" : 4119,
     "name" : "UCHAR_INDIC_SYLLABIC_CATEGORY"
    },
    {
     "enum_field_value" : 4120,
     "name" : "UCHAR_VERTICAL_ORIENTATION"
    },
    {
     "enum_field_value" : 4121,
     "name" : "UCHAR_INT_LIMIT"
    },
    {
     "enum_field_value" : 8192,
     "name" : "UCHAR_GENERAL_CATEGORY_MASK"
    },
    {
     "enum_field_value" : 8192,
     "name" : "UCHAR_MASK_START"
    },
    {
     "enum_field_value" : 8193,
     "name" : "UCHAR_MASK_LIMIT"
    },
    {
     "enum_field_value" : 12288,
     "name" : "UCHAR_NUMERIC_VALUE"
    },
    {
     "enum_field_value" : 12288,
     "name" : "UCHAR_DOUBLE_START"
    },
    {
     "enum_field_value" : 12289,
     "name" : "UCHAR_DOUBLE_LIMIT"
    },
    {
     "enum_field_value" : 16384,
     "name" : "UCHAR_AGE"
    },
    {
     "enum_field_value" : 16384,
     "name" : "UCHAR_STRING_START"
    },
    {
     "enum_field_value" : 16385,
     "name" : "UCHAR_BIDI_MIRRORING_GLYPH"
    },
    {
     "enum_field_value" : 16386,
     "name" : "UCHAR_CASE_FOLDING"
    },
    {
     "enum_field_value" : 16387,
     "name" : "UCHAR_ISO_COMMENT"
    },
    {
     "enum_field_value" : 16388,
     "name" : "UCHAR_LOWERCASE_MAPPING"
    },
    {
     "enum_field_value" : 16389,
     "name" : "UCHAR_NAME"
    },
    {
     "enum_field_value" : 16390,
     "name" : "UCHAR_SIMPLE_CASE_FOLDING"
    },
    {
     "enum_field_value" : 16391,
     "name" : "UCHAR_SIMPLE_LOWERCASE_MAPPING"
    },
    {
     "enum_field_value" : 16392,
     "name" : "UCHAR_SIMPLE_TITLECASE_MAPPING"
    },
    {
     "enum_field_value" : 16393,
     "name" : "UCHAR_SIMPLE_UPPERCASE_MAPPING"
    },
    {
     "enum_field_value" : 16394,
     "name" : "UCHAR_TITLECASE_MAPPING"
    },
    {
     "enum_field_value" : 16395,
     "name" : "UCHAR_UNICODE_1_NAME"
    },
    {
     "enum_field_value" : 16396,
     "name" : "UCHAR_UPPERCASE_MAPPING"
    },
    {
     "enum_field_value" : 16397,
     "name" : "UCHAR_BIDI_PAIRED_BRACKET"
    },
    {
     "enum_field_value" : 16398,
     "name" : "UCHAR_STRING_LIMIT"
    },
    {
     "enum_field_value" : 28672,
     "name" : "UCHAR_SCRIPT_EXTENSIONS"
    },
    {
     "enum_field_value" : 28672,
     "name" : "UCHAR_OTHER_PROPERTY_START"
    },
    {
     "enum_field_value" : 28673,
     "name" : "UCHAR_OTHER_PROPERTY_LIMIT"
    },
    {
     "enum_field_value" : -1,
     "name" : "UCHAR_INVALID_CODE"
    }
   ],
   "linker_set_key" : "_ZTI9UProperty",
   "name" : "UProperty",
   "referenced_type" : "_ZTI9UProperty",
   "self_type" : "_ZTI9UProperty",
   "size" : 4,
   "source_file" : "external/icu/icu4c/source/common/unicode/uchar.h",
   "underlying_type" : "_ZTIi"
  }
 ],
 "function_types" :
 [
  {
   "alignment" : 4,
   "linker_set_key" : "_ZTIF14UCharDirectionPKviE",
   "name" : "UCharDirection (const void *, int)",
   "parameters" :
   [
    {
     "referenced_type" : "_ZTIPKv"
    },
    {
     "referenced_type" : "_ZTIi"
    }
   ],
   "referenced_type" : "_ZTIF14UCharDirectionPKviE",
   "return_type" : "_ZTI14UCharDirection",
   "self_type" : "_ZTIF14UCharDirectionPKviE",
   "source_file" : "external/icu/libandroidicu/static_shim/shim.cpp"
  },
  {
   "alignment" : 4,
   "linker_set_key" : "_ZTIFDsPKPviE",
   "name" : "char16_t (void *const *, int)",
   "parameters" :
   [
    {
     "referenced_type" : "_ZTIPKPv"
    },
    {
     "referenced_type" : "_ZTIi"
    }
   ],
   "referenced_type" : "_ZTIFDsPKPviE",
   "return_type" : "_ZTIDs",
   "self_type" : "_ZTIFDsPKPviE",
   "source_file" : "external/icu/icu4c/source/common/unicode/urep.h"
  },
  {
   "alignment" : 4,
   "linker_set_key" : "_ZTIFP5UTextS0_PKS_aP10UErrorCodeE",
   "name" : "UText *(UText *, const UText *, signed char, UErrorCode *)",
   "parameters" :
   [
    {
     "referenced_type" : "_ZTIP5UText"
    },
    {
     "referenced_type" : "_ZTIPK5UText"
    },
    {
     "referenced_type" : "_ZTIa"
    },
    {
     "referenced_type" : "_ZTIP10UErrorCode"
    }
   ],
   "referenced_type" : "_ZTIFP5UTextS0_PKS_aP10UErrorCodeE",
   "return_type" : "_ZTIP5UText",
   "self_type" : "_ZTIFP5UTextS0_PKS_aP10UErrorCodeE",
   "source_file" : "external/icu/icu4c/source/common/unicode/utext.h"
  },
  {
   "alignment" : 4,
   "linker_set_key" : "_ZTIFaP13UCharIteratorE",
   "name" : "signed char (UCharIterator *)",
   "parameters" :
   [
    {
     "referenced_type" : "_ZTIP13UCharIterator"
    }
   ],
   "referenced_type" : "_ZTIFaP13UCharIteratorE",
   "return_type" : "_ZTIa",
   "self_type" : "_ZTIFaP13UCharIteratorE",
   "source_file" : "external/icu/icu4c/source/common/unicode/uiter.h"
  },
  {
   "alignment" : 4,
   "linker_set_key" : "_ZTIFaP5UTextlaE",
   "name" : "signed char (UText *, long, signed char)",
   "parameters" :
   [
    {
     "referenced_type" : "_ZTIP5UText"
    },
    {
     "referenced_type" : "_ZTIl"
    },
    {
     "referenced_type" : "_ZTIa"
    }
   ],
   "referenced_type" : "_ZTIFaP5UTextlaE",
   "return_type" : "_ZTIa",
   "self_type" : "_ZTIFaP5UTextlaE",
   "source_file" : "external/icu/icu4c/source/common/unicode/utext.h"
  },
  {
   "alignment" : 4,
   "linker_set_key" : "_ZTIFiP13UCharIterator19UCharIteratorOriginE",
   "name" : "int (UCharIterator *, UCharIteratorOrigin)",
   "parameters" :
   [
    {
     "referenced_type" : "_ZTIP13UCharIterator"
    },
    {
     "referenced_type" : "_ZTI19UCharIteratorOrigin"
    }
   ],
   "referenced_type" : "_ZTIFiP13UCharIterator19UCharIteratorOriginE",
   "return_type" : "_ZTIi",
   "self_type" : "_ZTIFiP13UCharIterator19UCharIteratorOriginE",
   "source_file" : "external/icu/icu4c/source/common/unicode/uiter.h"
  },
  {
   "alignment" : 4,
   "linker_set_key" : "_ZTIFiP13UCharIteratorE",
   "name" : "int (UCharIterator *)",
   "parameters" :
   [
    {
     "referenced_type" : "_ZTIP13UCharIterator"
    }
   ],
   "referenced_type" : "_ZTIFiP13UCharIteratorE",
   "return_type" : "_ZTIi",
   "self_type" : "_ZTIFiP13UCharIteratorE",
   "source_file" : "external/icu/icu4c/source/common/unicode/uiter.h"
  },
  {
   "alignment" : 4,
   "linker_set_key" : "_ZTIFiP13UCharIteratori19UCharIteratorOriginE",
   "name" : "int (UCharIterator *, int, UCharIteratorOrigin)",
   "parameters" :
   [
    {
     "referenced_type" : "_ZTIP13UCharIterator"
    },
    {
     "referenced_type" : "_ZTIi"
    },
    {
     "referenced_type" : "_ZTI19UCharIteratorOrigin"
    }
   ],
   "referenced_type" : "_ZTIFiP13UCharIteratori19UCharIteratorOriginE",
   "return_type" : "_ZTIi",
   "self_type" : "_ZTIFiP13UCharIteratori19UCharIteratorOriginE",
   "source_file" : "external/icu/icu4c/source/common/unicode/uiter.h"
  },
  {
   "alignment" : 4,
   "linker_set_key" : "_ZTIFiP13UCharIteratoriE",
   "name" : "int (UCharIterator *, int)",
   "parameters" :
   [
    {
     "referenced_type" : "_ZTIP13UCharIterator"
    },
    {
     "referenced_type" : "_ZTIi"
    }
   ],
   "referenced_type" : "_ZTIFiP13UCharIteratoriE",
   "return_type" : "_ZTIi",
   "self_type" : "_ZTIFiP13UCharIteratoriE",
   "source_file" : "external/icu/icu4c/source/common/unicode/uiter.h"
  },
  {
   "alignment" : 4,
   "linker_set_key" : "_ZTIFiP5UTextllPDsiP10UErrorCodeE",
   "name" : "int (UText *, long, long, char16_t *, int, UErrorCode *)",
   "parameters" :
   [
    {
     "referenced_type" : "_ZTIP5UText"
    },
    {
     "referenced_type" : "_ZTIl"
    },
    {
     "referenced_type" : "_ZTIl"
    },
    {
     "referenced_type" : "_ZTIPDs"
    },
    {
     "referenced_type" : "_ZTIi"
    },
    {
     "referenced_type" : "_ZTIP10UErrorCode"
    }
   ],
   "referenced_type" : "_ZTIFiP5UTextllPDsiP10UErrorCodeE",
   "return_type" : "_ZTIi",
   "self_type" : "_ZTIFiP5UTextllPDsiP10UErrorCodeE",
   "source_file" : "external/icu/icu4c/source/common/unicode/utext.h"
  },
  {
   "alignment" : 4,
   "linker_set_key" : "_ZTIFiP5UTextllPKDsiP10UErrorCodeE",
   "name" : "int (UText *, long, long, const char16_t *, int, UErrorCode *)",
   "parameters" :
   [
    {
     "referenced_type" : "_ZTIP5UText"
    },
    {
     "referenced_type" : "_ZTIl"
    },
    {
     "referenced_type" : "_ZTIl"
    },
    {
     "referenced_type" : "_ZTIPKDs"
    },
    {
     "referenced_type" : "_ZTIi"
    },
    {
     "referenced_type" : "_ZTIP10UErrorCode"
    }
   ],
   "referenced_type" : "_ZTIFiP5UTextllPKDsiP10UErrorCodeE",
   "return_type" : "_ZTIi",
   "self_type" : "_ZTIFiP5UTextllPKDsiP10UErrorCodeE",
   "source_file" : "external/icu/icu4c/source/common/unicode/utext.h"
  },
  {
   "alignment" : 4,
   "linker_set_key" : "_ZTIFiPK5UTextlE",
   "name" : "int (const UText *, long)",
   "parameters" :
   [
    {
     "referenced_type" : "_ZTIPK5UText"
    },
    {
     "referenced_type" : "_ZTIl"
    }
   ],
   "referenced_type" : "_ZTIFiPK5UTextlE",
   "return_type" : "_ZTIi",
   "self_type" : "_ZTIFiPK5UTextlE",
   "source_file" : "external/icu/icu4c/source/common/unicode/utext.h"
  },
  {
   "alignment" : 4,
   "linker_set_key" : "_ZTIFiPKPvE",
   "name" : "int (void *const *)",
   "parameters" :
   [
    {
     "referenced_type" : "_ZTIPKPv"
    }
   ],
   "referenced_type" : "_ZTIFiPKPvE",
   "return_type" : "_ZTIi",
   "self_type" : "_ZTIFiPKPvE",
   "source_file" : "external/icu/icu4c/source/common/unicode/urep.h"
  },
  {
   "alignment" : 4,
   "linker_set_key" : "_ZTIFiPKPviE",
   "name" : "int (void *const *, int)",
   "parameters" :
   [
    {
     "referenced_type" : "_ZTIPKPv"
    },
    {
     "referenced_type" : "_ZTIi"
    }
   ],
   "referenced_type" : "_ZTIFiPKPviE",
   "return_type" : "_ZTIi",
   "self_type" : "_ZTIFiPKPviE",
   "source_file" : "external/icu/icu4c/source/common/unicode/urep.h"
  },
  {
   "alignment" : 4,
   "linker_set_key" : "_ZTIFjPK13UCharIteratorE",
   "name" : "unsigned int (const UCharIterator *)",
   "parameters" :
   [
    {
     "referenced_type" : "_ZTIPK13UCharIterator"
    }
   ],
   "referenced_type" : "_ZTIFjPK13UCharIteratorE",
   "return_type" : "_ZTIj",
   "self_type" : "_ZTIFjPK13UCharIteratorE",
   "source_file" : "external/icu/icu4c/source/common/unicode/uiter.h"
  },
  {
   "alignment" : 4,
   "linker_set_key" : "_ZTIFlP5UTextE",
   "name" : "long (UText *)",
   "parameters" :
   [
    {
     "referenced_type" : "_ZTIP5UText"
    }
   ],
   "referenced_type" : "_ZTIFlP5UTextE",
   "return_type" : "_ZTIl",
   "self_type" : "_ZTIFlP5UTextE",
   "source_file" : "external/icu/icu4c/source/common/unicode/utext.h"
  },
  {
   "alignment" : 4,
   "linker_set_key" : "_ZTIFlPK5UTextE",
   "name" : "long (const UText *)",
   "parameters" :
   [
    {
     "referenced_type" : "_ZTIPK5UText"
    }
   ],
   "referenced_type" : "_ZTIFlPK5UTextE",
   "return_type" : "_ZTIl",
   "self_type" : "_ZTIFlPK5UTextE",
   "source_file" : "external/icu/icu4c/source/common/unicode/utext.h"
  },
  {
   "alignment" : 4,
   "linker_set_key" : "_ZTIFvP13UCharIteratorjP10UErrorCodeE",
   "name" : "void (UCharIterator *, unsigned int, UErrorCode *)",
   "parameters" :
   [
    {
     "referenced_type" : "_ZTIP13UCharIterator"
    },
    {
     "referenced_type" : "_ZTIj"
    },
    {
     "referenced_type" : "_ZTIP10UErrorCode"
    }
   ],
   "referenced_type" : "_ZTIFvP13UCharIteratorjP10UErrorCodeE",
   "return_type" : "_ZTIv",
   "self_type" : "_ZTIFvP13UCharIteratorjP10UErrorCodeE",
   "source_file" : "external/icu/icu4c/source/common/unicode/uiter.h"
  },
  {
   "alignment" : 4,
   "linker_set_key" : "_ZTIFvP5UTextE",
   "name" : "void (UText *)",
   "parameters" :
   [
    {
     "referenced_type" : "_ZTIP5UText"
    }
   ],
   "referenced_type" : "_ZTIFvP5UTextE",
   "return_type" : "_ZTIv",
   "self_type" : "_ZTIFvP5UTextE",
   "source_file" : "external/icu/icu4c/source/common/unicode/utext.h"
  },
  {
   "alignment" : 4,
   "linker_set_key" : "_ZTIFvP5UTextlllaP10UErrorCodeE",
   "name" : "void (UText *, long, long, long, signed char, UErrorCode *)",
   "parameters" :
   [
    {
     "referenced_type" : "_ZTIP5UText"
    },
    {
     "referenced_type" : "_ZTIl"
    },
    {
     "referenced_type" : "_ZTIl"
    },
    {
     "referenced_type" : "_ZTIl"
    },
    {
     "referenced_type" : "_ZTIa"
    },
    {
     "referenced_type" : "_ZTIP10UErrorCode"
    }
   ],
   "referenced_type" : "_ZTIFvP5UTextlllaP10UErrorCodeE",
   "return_type" : "_ZTIv",
   "self_type" : "_ZTIFvP5UTextlllaP10UErrorCodeE",
   "source_file" : "external/icu/icu4c/source/common/unicode/utext.h"
  },
  {
   "alignment" : 4,
   "linker_set_key" : "_ZTIFvPKvP23UConverterToUnicodeArgsPKci24UConverterCallbackReasonP10UErrorCodeE",
   "name" : "void (const void *, UConverterToUnicodeArgs *, const char *, int, UConverterCallbackReason, UErrorCode *)",
   "parameters" :
   [
    {
     "referenced_type" : "_ZTIPKv"
    },
    {
     "referenced_type" : "_ZTIP23UConverterToUnicodeArgs"
    },
    {
     "referenced_type" : "_ZTIPKc"
    },
    {
     "referenced_type" : "_ZTIi"
    },
    {
     "referenced_type" : "_ZTI24UConverterCallbackReason"
    },
    {
     "referenced_type" : "_ZTIP10UErrorCode"
    }
   ],
   "referenced_type" : "_ZTIFvPKvP23UConverterToUnicodeArgsPKci24UConverterCallbackReasonP10UErrorCodeE",
   "return_type" : "_ZTIv",
   "self_type" : "_ZTIFvPKvP23UConverterToUnicodeArgsPKci24UConverterCallbackReasonP10UErrorCodeE",
   "source_file" : "external/icu/libandroidicu/static_shim/shim.cpp"
  },
  {
   "alignment" : 4,
   "linker_set_key" : "_ZTIFvPKvP25UConverterFromUnicodeArgsPKDsii24UConverterCallbackReasonP10UErrorCodeE",
   "name" : "void (const void *, UConverterFromUnicodeArgs *, const char16_t *, int, int, UConverterCallbackReason, UErrorCode *)",
   "parameters" :
   [
    {
     "referenced_type" : "_ZTIPKv"
    },
    {
     "referenced_type" : "_ZTIP25UConverterFromUnicodeArgs"
    },
    {
     "referenced_type" : "_ZTIPKDs"
    },
    {
     "referenced_type" : "_ZTIi"
    },
    {
     "referenced_type" : "_ZTIi"
    },
    {
     "referenced_type" : "_ZTI24UConverterCallbackReason"
    },
    {
     "referenced_type" : "_ZTIP10UErrorCode"
    }
   ],
   "referenced_type" : "_ZTIFvPKvP25UConverterFromUnicodeArgsPKDsii24UConverterCallbackReasonP10UErrorCodeE",
   "return_type" : "_ZTIv",
   "self_type" : "_ZTIFvPKvP25UConverterFromUnicodeArgsPKDsii24UConverterCallbackReasonP10UErrorCodeE",
   "source_file" : "external/icu/libandroidicu/static_shim/shim.cpp"
  },
  {
   "alignment" : 4,
   "linker_set_key" : "_ZTIFvPPviiPDsE",
   "name" : "void (void **, int, int, char16_t *)",
   "parameters" :
   [
    {
     "referenced_type" : "_ZTIPPv"
    },
    {
     "referenced_type" : "_ZTIi"
    },
    {
     "referenced_type" : "_ZTIi"
    },
    {
     "referenced_type" : "_ZTIPDs"
    }
   ],
   "referenced_type" : "_ZTIFvPPviiPDsE",
   "return_type" : "_ZTIv",
   "self_type" : "_ZTIFvPPviiPDsE",
   "source_file" : "external/icu/icu4c/source/common/unicode/urep.h"
  },
  {
   "alignment" : 4,
   "linker_set_key" : "_ZTIFvPPviiPKDsiE",
   "name" : "void (void **, int, int, const char16_t *, int)",
   "parameters" :
   [
    {
     "referenced_type" : "_ZTIPPv"
    },
    {
     "referenced_type" : "_ZTIi"
    },
    {
     "referenced_type" : "_ZTIi"
    },
    {
     "referenced_type" : "_ZTIPKDs"
    },
    {
     "referenced_type" : "_ZTIi"
    }
   ],
   "referenced_type" : "_ZTIFvPPviiPKDsiE",
   "return_type" : "_ZTIv",
   "self_type" : "_ZTIFvPPviiPKDsiE",
   "source_file" : "external/icu/icu4c/source/common/unicode/urep.h"
  },
  {
   "alignment" : 4,
   "linker_set_key" : "_ZTIFvPPviiiE",
   "name" : "void (void **, int, int, int)",
   "parameters" :
   [
    {
     "referenced_type" : "_ZTIPPv"
    },
    {
     "referenced_type" : "_ZTIi"
    },
    {
     "referenced_type" : "_ZTIi"
    },
    {
     "referenced_type" : "_ZTIi"
    }
   ],
   "referenced_type" : "_ZTIFvPPviiiE",
   "return_type" : "_ZTIv",
   "self_type" : "_ZTIFvPPviiiE",
   "source_file" : "external/icu/icu4c/source/common/unicode/urep.h"
  }
 ],
 "functions" :
 [
  {
   "function_name" : "UCNV_FROM_U_CALLBACK_STOP_android",
   "linker_set_key" : "UCNV_FROM_U_CALLBACK_STOP_android",
   "parameters" :
   [
    {
     "referenced_type" : "_ZTIPKv"
    },
    {
     "referenced_type" : "_ZTIP25UConverterFromUnicodeArgs"
    },
    {
     "referenced_type" : "_ZTIPKDs"
    },
    {
     "referenced_type" : "_ZTIi"
    },
    {
     "referenced_type" : "_ZTIi"
    },
    {
     "referenced_type" : "_ZTI24UConverterCallbackReason"
    },
    {
     "referenced_type" : "_ZTIP10UErrorCode"
    }
   ],
   "return_type" : "_ZTIv",
   "source_file" : "external/icu/libandroidicu/static_shim/shim.cpp"
  },
  {
   "function_name" : "UCNV_TO_U_CALLBACK_STOP_android",
   "linker_set_key" : "UCNV_TO_U_CALLBACK_STOP_android",
   "parameters" :
   [
    {
     "referenced_type" : "_ZTIPKv"
    },
    {
     "referenced_type" : "_ZTIP23UConverterToUnicodeArgs"
    },
    {
     "referenced_type" : "_ZTIPKc"
    },
    {
     "referenced_type" : "_ZTIi"
    },
    {
     "referenced_type" : "_ZTI24UConverterCallbackReason"
    },
    {
     "referenced_type" : "_ZTIP10UErrorCode"
    }
   ],
   "return_type" : "_ZTIv",
   "source_file" : "external/icu/libandroidicu/static_shim/shim.cpp"
  },
  {
   "function_name" : "u_charDirection_android",
   "linker_set_key" : "u_charDirection_android",
   "parameters" :
   [
    {
     "referenced_type" : "_ZTIi"
    }
   ],
   "return_type" : "_ZTI14UCharDirection",
   "source_file" : "external/icu/libandroidicu/static_shim/shim.cpp"
  },
  {
   "function_name" : "u_charMirror_android",
   "linker_set_key" : "u_charMirror_android",
   "parameters" :
   [
    {
     "referenced_type" : "_ZTIi"
    }
   ],
   "return_type" : "_ZTIi",
   "source_file" : "external/icu/libandroidicu/static_shim/shim.cpp"
  },
  {
   "function_name" : "u_charName_android",
   "linker_set_key" : "u_charName_android",
   "parameters" :
   [
    {
     "referenced_type" : "_ZTIi"
    },
    {
     "referenced_type" : "_ZTI15UCharNameChoice"
    },
    {
     "referenced_type" : "_ZTIPc"
    },
    {
     "referenced_type" : "_ZTIi"
    },
    {
     "referenced_type" : "_ZTIP10UErrorCode"
    }
   ],
   "return_type" : "_ZTIi",
   "source_file" : "external/icu/libandroidicu/static_shim/shim.cpp"
  },
  {
   "function_name" : "u_charType_android",
   "linker_set_key" : "u_charType_android",
   "parameters" :
   [
    {
     "referenced_type" : "_ZTIi"
    }
   ],
   "return_type" : "_ZTIa",
   "source_file" : "external/icu/libandroidicu/static_shim/shim.cpp"
  },
  {
   "function_name" : "u_countChar32_android",
   "linker_set_key" : "u_countChar32_android",
   "parameters" :
   [
    {
     "referenced_type" : "_ZTIPKDs"
    },
    {
     "referenced_type" : "_ZTIi"
    }
   ],
   "return_type" : "_ZTIi",
   "source_file" : "external/icu/libandroidicu/static_shim/shim.cpp"
  },
  {
   "function_name" : "u_digit_android",
   "linker_set_key" : "u_digit_android",
   "parameters" :
   [
    {
     "referenced_type" : "_ZTIi"
    },
    {
     "referenced_type" : "_ZTIa"
    }
   ],
   "return_type" : "_ZTIi",
   "source_file" : "external/icu/libandroidicu/static_shim/shim.cpp"
  },
  {
   "function_name" : "u_errorName_android",
   "linker_set_key" : "u_errorName_android",
   "parameters" :
   [
    {
     "referenced_type" : "_ZTI10UErrorCode"
    }
   ],
   "return_type" : "_ZTIPKc",
   "source_file" : "external/icu/libandroidicu/static_shim/shim.cpp"
  },
  {
   "function_name" : "u_foldCase_android",
   "linker_set_key" : "u_foldCase_android",
   "parameters" :
   [
    {
     "referenced_type" : "_ZTIi"
    },
    {
     "referenced_type" : "_ZTIj"
    }
   ],
   "return_type" : "_ZTIi",
   "source_file" : "external/icu/libandroidicu/static_shim/shim.cpp"
  },
  {
   "function_name" : "u_getCombiningClass_android",
   "linker_set_key" : "u_getCombiningClass_android",
   "parameters" :
   [
    {
     "referenced_type" : "_ZTIi"
    }
   ],
   "return_type" : "_ZTIh",
   "source_file" : "external/icu/libandroidicu/static_shim/shim.cpp"
  },
  {
   "function_name" : "u_getIntPropertyMaxValue_android",
   "linker_set_key" : "u_getIntPropertyMaxValue_android",
   "parameters" :
   [
    {
     "referenced_type" : "_ZTI9UProperty"
    }
   ],
   "return_type" : "_ZTIi",
   "source_file" : "external/icu/libandroidicu/static_shim/shim.cpp"
  },
  {
   "function_name" : "u_getIntPropertyValue_android",
   "linker_set_key" : "u_getIntPropertyValue_android",
   "parameters" :
   [
    {
     "referenced_type" : "_ZTIi"
    },
    {
     "referenced_type" : "_ZTI9UProperty"
    }
   ],
   "return_type" : "_ZTIi",
   "source_file" : "external/icu/libandroidicu/static_shim/shim.cpp"
  },
  {
   "function_name" : "u_getNumericValue_android",
   "linker_set_key" : "u_getNumericValue_android",
   "parameters" :
   [
    {
     "referenced_type" : "_ZTIi"
    }
   ],
   "return_type" : "_ZTId",
   "source_file" : "external/icu/libandroidicu/static_shim/shim.cpp"
  },
  {
   "function_name" : "u_hasBinaryProperty_android",
   "linker_set_key" : "u_hasBinaryProperty_android",
   "parameters" :
   [
    {
     "referenced_type" : "_ZTIi"
    },
    {
     "referenced_type" : "_ZTI9UProperty"
    }
   ],
   "return_type" : "_ZTIa",
   "source_file" : "external/icu/libandroidicu/static_shim/shim.cpp"
  },
  {
   "function_name" : "u_isIDIgnorable_android",
   "linker_set_key" : "u_isIDIgnorable_android",
   "parameters" :
   [
    {
     "referenced_type" : "_ZTIi"
    }
   ],
   "return_type" : "_ZTIa",
   "source_file" : "external/icu/libandroidicu/static_shim/shim.cpp"
  },
  {
   "function_name" : "u_isIDPart_android",
   "linker_set_key" : "u_isIDPart_android",
   "parameters" :
   [
    {
     "referenced_type" : "_ZTIi"
    }
   ],
   "return_type" : "_ZTIa",
   "source_file" : "external/icu/libandroidicu/static_shim/shim.cpp"
  },
  {
   "function_name" : "u_isIDStart_android",
   "linker_set_key" : "u_isIDStart_android",
   "parameters" :
   [
    {
     "referenced_type" : "_ZTIi"
    }
   ],
   "return_type" : "_ZTIa",
   "source_file" : "external/icu/libandroidicu/static_shim/shim.cpp"
  },
  {
   "function_name" : "u_isJavaSpaceChar_android",
   "linker_set_key" : "u_isJavaSpaceChar_android",
   "parameters" :
   [
    {
     "referenced_type" : "_ZTIi"
    }
   ],
   "return_type" : "_ZTIa",
   "source_file" : "external/icu/libandroidicu/static_shim/shim.cpp"
  },
  {
   "function_name" : "u_isMirrored_android",
   "linker_set_key" : "u_isMirrored_android",
   "parameters" :
   [
    {
     "referenced_type" : "_ZTIi"
    }
   ],
   "return_type" : "_ZTIa",
   "source_file" : "external/icu/libandroidicu/static_shim/shim.cpp"
  },
  {
   "function_name" : "u_isUAlphabetic_android",
   "linker_set_key" : "u_isUAlphabetic_android",
   "parameters" :
   [
    {
     "referenced_type" : "_ZTIi"
    }
   ],
   "return_type" : "_ZTIa",
   "source_file" : "external/icu/libandroidicu/static_shim/shim.cpp"
  },
  {
   "function_name" : "u_isUWhiteSpace_android",
   "linker_set_key" : "u_isUWhiteSpace_android",
   "parameters" :
   [
    {
     "referenced_type" : "_ZTIi"
    }
   ],
   "return_type" : "_ZTIa",
   "source_file" : "external/icu/libandroidicu/static_shim/shim.cpp"
  },
  {
   "function_name" : "u_isWhitespace_android",
   "linker_set_key" : "u_isWhitespace_android",
   "parameters" :
   [
    {
     "referenced_type" : "_ZTIi"
    }
   ],
   "return_type" : "_ZTIa",
   "source_file" : "external/icu/libandroidicu/static_shim/shim.cpp"
  },
  {
   "function_name" : "u_isalnum_android",
   "linker_set_key" : "u_isalnum_android",
   "parameters" :
   [
    {
     "referenced_type" : "_ZTIi"
    }
   ],
   "return_type" : "_ZTIa",
   "source_file" : "external/icu/libandroidicu/static_shim/shim.cpp"
  },
  {
   "function_name" : "u_isalpha_android",
   "linker_set_key" : "u_isalpha_android",
   "parameters" :
   [
    {
     "referenced_type" : "_ZTIi"
    }
   ],
   "return_type" : "_ZTIa",
   "source_file" : "external/icu/libandroidicu/static_shim/shim.cpp"
  },
  {
   "function_name" : "u_iscntrl_android",
   "linker_set_key" : "u_iscntrl_android",
   "parameters" :
   [
    {
     "referenced_type" : "_ZTIi"
    }
   ],
   "return_type" : "_ZTIa",
   "source_file" : "external/icu/libandroidicu/static_shim/shim.cpp"
  },
  {
   "function_name" : "u_isdefined_android",
   "linker_set_key" : "u_isdefined_android",
   "parameters" :
   [
    {
     "referenced_type" : "_ZTIi"
    }
   ],
   "return_type" : "_ZTIa",
   "source_file" : "external/icu/libandroidicu/static_shim/shim.cpp"
  },
  {
   "function_name" : "u_isdigit_android",
   "linker_set_key" : "u_isdigit_android",
   "parameters" :
   [
    {
     "referenced_type" : "_ZTIi"
    }
   ],
   "return_type" : "_ZTIa",
   "source_file" : "external/icu/libandroidicu/static_shim/shim.cpp"
  },
  {
   "function_name" : "u_islower_android",
   "linker_set_key" : "u_islower_android",
   "parameters" :
   [
    {
     "referenced_type" : "_ZTIi"
    }
   ],
   "return_type" : "_ZTIa",
   "source_file" : "external/icu/libandroidicu/static_shim/shim.cpp"
  },
  {
   "function_name" : "u_ispunct_android",
   "linker_set_key" : "u_ispunct_android",
   "parameters" :
   [
    {
     "referenced_type" : "_ZTIi"
    }
   ],
   "return_type" : "_ZTIa",
   "source_file" : "external/icu/libandroidicu/static_shim/shim.cpp"
  },
  {
   "function_name" : "u_isspace_android",
   "linker_set_key" : "u_isspace_android",
   "parameters" :
   [
    {
     "referenced_type" : "_ZTIi"
    }
   ],
   "return_type" : "_ZTIa",
   "source_file" : "external/icu/libandroidicu/static_shim/shim.cpp"
  },
  {
   "function_name" : "u_istitle_android",
   "linker_set_key" : "u_istitle_android",
   "parameters" :
   [
    {
     "referenced_type" : "_ZTIi"
    }
   ],
   "return_type" : "_ZTIa",
   "source_file" : "external/icu/libandroidicu/static_shim/shim.cpp"
  },
  {
   "function_name" : "u_isupper_android",
   "linker_set_key" : "u_isupper_android",
   "parameters" :
   [
    {
     "referenced_type" : "_ZTIi"
    }
   ],
   "return_type" : "_ZTIa",
   "source_file" : "external/icu/libandroidicu/static_shim/shim.cpp"
  },
  {
   "function_name" : "u_strFromUTF8WithSub_android",
   "linker_set_key" : "u_strFromUTF8WithSub_android",
   "parameters" :
   [
    {
     "referenced_type" : "_ZTIPDs"
    },
    {
     "referenced_type" : "_ZTIi"
    },
    {
     "referenced_type" : "_ZTIPi"
    },
    {
     "referenced_type" : "_ZTIPKc"
    },
    {
     "referenced_type" : "_ZTIi"
    },
    {
     "referenced_type" : "_ZTIi"
    },
    {
     "referenced_type" : "_ZTIPi"
    },
    {
     "referenced_type" : "_ZTIP10UErrorCode"
    }
   ],
   "return_type" : "_ZTIPDs",
   "source_file" : "external/icu/libandroidicu/static_shim/shim.cpp"
  },
  {
   "function_name" : "u_strFromUTF8_android",
   "linker_set_key" : "u_strFromUTF8_android",
   "parameters" :
   [
    {
     "referenced_type" : "_ZTIPDs"
    },
    {
     "referenced_type" : "_ZTIi"
    },
    {
     "referenced_type" : "_ZTIPi"
    },
    {
     "referenced_type" : "_ZTIPKc"
    },
    {
     "referenced_type" : "_ZTIi"
    },
    {
     "referenced_type" : "_ZTIP10UErrorCode"
    }
   ],
   "return_type" : "_ZTIPDs",
   "source_file" : "external/icu/libandroidicu/static_shim/shim.cpp"
  },
  {
   "function_name" : "u_strToLower_android",
   "linker_set_key" : "u_strToLower_android",
   "parameters" :
   [
    {
     "referenced_type" : "_ZTIPDs"
    },
    {
     "referenced_type" : "_ZTIi"
    },
    {
     "referenced_type" : "_ZTIPKDs"
    },
    {
     "referenced_type" : "_ZTIi"
    },
    {
     "referenced_type" : "_ZTIPKc"
    },
    {
     "referenced_type" : "_ZTIP10UErrorCode"
    }
   ],
   "return_type" : "_ZTIi",
   "source_file" : "external/icu/libandroidicu/static_shim/shim.cpp"
  },
  {
   "function_name" : "u_strToUTF8_android",
   "linker_set_key" : "u_strToUTF8_android",
   "parameters" :
   [
    {
     "referenced_type" : "_ZTIPc"
    },
    {
     "referenced_type" : "_ZTIi"
    },
    {
     "referenced_type" : "_ZTIPi"
    },
    {
     "referenced_type" : "_ZTIPKDs"
    },
    {
     "referenced_type" : "_ZTIi"
    },
    {
     "referenced_type" : "_ZTIP10UErrorCode"
    }
   ],
   "return_type" : "_ZTIPc",
   "source_file" : "external/icu/libandroidicu/static_shim/shim.cpp"
  },
  {
   "function_name" : "u_strToUpper_android",
   "linker_set_key" : "u_strToUpper_android",
   "parameters" :
   [
    {
     "referenced_type" : "_ZTIPDs"
    },
    {
     "referenced_type" : "_ZTIi"
    },
    {
     "referenced_type" : "_ZTIPKDs"
    },
    {
     "referenced_type" : "_ZTIi"
    },
    {
     "referenced_type" : "_ZTIPKc"
    },
    {
     "referenced_type" : "_ZTIP10UErrorCode"
    }
   ],
   "return_type" : "_ZTIi",
   "source_file" : "external/icu/libandroidicu/static_shim/shim.cpp"
  },
  {
   "function_name" : "u_tolower_android",
   "linker_set_key" : "u_tolower_android",
   "parameters" :
   [
    {
     "referenced_type" : "_ZTIi"
    }
   ],
   "return_type" : "_ZTIi",
   "source_file" : "external/icu/libandroidicu/static_shim/shim.cpp"
  },
  {
   "function_name" : "u_totitle_android",
   "linker_set_key" : "u_totitle_android",
   "parameters" :
   [
    {
     "referenced_type" : "_ZTIi"
    }
   ],
   "return_type" : "_ZTIi",
   "source_file" : "external/icu/libandroidicu/static_shim/shim.cpp"
  },
  {
   "function_name" : "u_toupper_android",
   "linker_set_key" : "u_toupper_android",
   "parameters" :
   [
    {
     "referenced_type" : "_ZTIi"
    }
   ],
   "return_type" : "_ZTIi",
   "source_file" : "external/icu/libandroidicu/static_shim/shim.cpp"
  },
  {
   "function_name" : "ubidi_close_android",
   "linker_set_key" : "ubidi_close_android",
   "parameters" :
   [
    {
     "referenced_type" : "_ZTIP5UBiDi"
    }
   ],
   "return_type" : "_ZTIv",
   "source_file" : "external/icu/libandroidicu/static_shim/shim.cpp"
  },
  {
   "function_name" : "ubidi_countRuns_android",
   "linker_set_key" : "ubidi_countRuns_android",
   "parameters" :
   [
    {
     "referenced_type" : "_ZTIP5UBiDi"
    },
    {
     "referenced_type" : "_ZTIP10UErrorCode"
    }
   ],
   "return_type" : "_ZTIi",
   "source_file" : "external/icu/libandroidicu/static_shim/shim.cpp"
  },
  {
   "function_name" : "ubidi_getLength_android",
   "linker_set_key" : "ubidi_getLength_android",
   "parameters" :
   [
    {
     "referenced_type" : "_ZTIPK5UBiDi"
    }
   ],
   "return_type" : "_ZTIi",
   "source_file" : "external/icu/libandroidicu/static_shim/shim.cpp"
  },
  {
   "function_name" : "ubidi_getLevelAt_android",
   "linker_set_key" : "ubidi_getLevelAt_android",
   "parameters" :
   [
    {
     "referenced_type" : "_ZTIPK5UBiDi"
    },
    {
     "referenced_type" : "_ZTIi"
    }
   ],
   "return_type" : "_ZTIh",
   "source_file" : "external/icu/libandroidicu/static_shim/shim.cpp"
  },
  {
   "function_name" : "ubidi_getParaLevel_android",
   "linker_set_key" : "ubidi_getParaLevel_android",
   "parameters" :
   [
    {
     "referenced_type" : "_ZTIPK5UBiDi"
    }
   ],
   "return_type" : "_ZTIh",
   "source_file" : "external/icu/libandroidicu/static_shim/shim.cpp"
  },
  {
   "function_name" : "ubidi_getVisualRun_android",
   "linker_set_key" : "ubidi_getVisualRun_android",
   "parameters" :
   [
    {
     "referenced_type" : "_ZTIP5UBiDi"
    },
    {
     "referenced_type" : "_ZTIi"
    },
    {
     "referenced_type" : "_ZTIPi"
    },
    {
     "referenced_type" : "_ZTIPi"
    }
   ],
   "return_type" : "_ZTI14UBiDiDirection",
   "source_file" : "external/icu/libandroidicu/static_shim/shim.cpp"
  },
  {
   "function_name" : "ubidi_openSized_android",
   "linker_set_key" : "ubidi_openSized_android",
   "parameters" :
   [
    {
     "referenced_type" : "_ZTIi"
    },
    {
     "referenced_type" : "_ZTIi"
    },
    {
     "referenced_type" : "_ZTIP10UErrorCode"
    }
   ],
   "return_type" : "_ZTIP5UBiDi",
   "source_file" : "external/icu/libandroidicu/static_shim/shim.cpp"
  },
  {
   "function_name" : "ubidi_open_android",
   "linker_set_key" : "ubidi_open_android",
   "return_type" : "_ZTIP5UBiDi",
   "source_file" : "external/icu/libandroidicu/static_shim/shim.cpp"
  },
  {
   "function_name" : "ubidi_reorderVisual_android",
   "linker_set_key" : "ubidi_reorderVisual_android",
   "parameters" :
   [
    {
     "referenced_type" : "_ZTIPKh"
    },
    {
     "referenced_type" : "_ZTIi"
    },
    {
     "referenced_type" : "_ZTIPi"
    }
   ],
   "return_type" : "_ZTIv",
   "source_file" : "external/icu/libandroidicu/static_shim/shim.cpp"
  },
  {
   "function_name" : "ubidi_setClassCallback_android",
   "linker_set_key" : "ubidi_setClassCallback_android",
   "parameters" :
   [
    {
     "referenced_type" : "_ZTIP5UBiDi"
    },
    {
     "referenced_type" : "_ZTIPF14UCharDirectionPKviE"
    },
    {
     "referenced_type" : "_ZTIPKv"
    },
    {
     "referenced_type" : "_ZTIPPF14UCharDirectionPKviE"
    },
    {
     "referenced_type" : "_ZTIPPKv"
    },
    {
     "referenced_type" : "_ZTIP10UErrorCode"
    }
   ],
   "return_type" : "_ZTIv",
   "source_file" : "external/icu/libandroidicu/static_shim/shim.cpp"
  },
  {
   "function_name" : "ubidi_setPara_android",
   "linker_set_key" : "ubidi_setPara_android",
   "parameters" :
   [
    {
     "referenced_type" : "_ZTIP5UBiDi"
    },
    {
     "referenced_type" : "_ZTIPKDs"
    },
    {
     "referenced_type" : "_ZTIi"
    },
    {
     "referenced_type" : "_ZTIh"
    },
    {
     "referenced_type" : "_ZTIPh"
    },
    {
     "referenced_type" : "_ZTIP10UErrorCode"
    }
   ],
   "return_type" : "_ZTIv",
   "source_file" : "external/icu/libandroidicu/static_shim/shim.cpp"
  },
  {
   "function_name" : "ubrk_close_android",
   "linker_set_key" : "ubrk_close_android",
   "parameters" :
   [
    {
     "referenced_type" : "_ZTIP14UBreakIterator"
    }
   ],
   "return_type" : "_ZTIv",
   "source_file" : "external/icu/libandroidicu/static_shim/shim.cpp"
  },
  {
   "function_name" : "ubrk_current_android",
   "linker_set_key" : "ubrk_current_android",
   "parameters" :
   [
    {
     "referenced_type" : "_ZTIPK14UBreakIterator"
    }
   ],
   "return_type" : "_ZTIi",
   "source_file" : "external/icu/libandroidicu/static_shim/shim.cpp"
  },
  {
   "function_name" : "ubrk_first_android",
   "linker_set_key" : "ubrk_first_android",
   "parameters" :
   [
    {
     "referenced_type" : "_ZTIP14UBreakIterator"
    }
   ],
   "return_type" : "_ZTIi",
   "source_file" : "external/icu/libandroidicu/static_shim/shim.cpp"
  },
  {
   "function_name" : "ubrk_following_android",
   "linker_set_key" : "ubrk_following_android",
   "parameters" :
   [
    {
     "referenced_type" : "_ZTIP14UBreakIterator"
    },
    {
     "referenced_type" : "_ZTIi"
    }
   ],
   "return_type" : "_ZTIi",
   "source_file" : "external/icu/libandroidicu/static_shim/shim.cpp"
  },
  {
   "function_name" : "ubrk_getRuleStatus_android",
   "linker_set_key" : "ubrk_getRuleStatus_android",
   "parameters" :
   [
    {
     "referenced_type" : "_ZTIP14UBreakIterator"
    }
   ],
   "return_type" : "_ZTIi",
   "source_file" : "external/icu/libandroidicu/static_shim/shim.cpp"
  },
  {
   "function_name" : "ubrk_isBoundary_android",
   "linker_set_key" : "ubrk_isBoundary_android",
   "parameters" :
   [
    {
     "referenced_type" : "_ZTIP14UBreakIterator"
    },
    {
     "referenced_type" : "_ZTIi"
    }
   ],
   "return_type" : "_ZTIa",
   "source_file" : "external/icu/libandroidicu/static_shim/shim.cpp"
  },
  {
   "function_name" : "ubrk_next_android",
   "linker_set_key" : "ubrk_next_android",
   "parameters" :
   [
    {
     "referenced_type" : "_ZTIP14UBreakIterator"
    }
   ],
   "return_type" : "_ZTIi",
   "source_file" : "external/icu/libandroidicu/static_shim/shim.cpp"
  },
  {
   "function_name" : "ubrk_open_android",
   "linker_set_key" : "ubrk_open_android",
   "parameters" :
   [
    {
     "referenced_type" : "_ZTI18UBreakIteratorType"
    },
    {
     "referenced_type" : "_ZTIPKc"
    },
    {
     "referenced_type" : "_ZTIPKDs"
    },
    {
     "referenced_type" : "_ZTIi"
    },
    {
     "referenced_type" : "_ZTIP10UErrorCode"
    }
   ],
   "return_type" : "_ZTIP14UBreakIterator",
   "source_file" : "external/icu/libandroidicu/static_shim/shim.cpp"
  },
  {
   "function_name" : "ubrk_preceding_android",
   "linker_set_key" : "ubrk_preceding_android",
   "parameters" :
   [
    {
     "referenced_type" : "_ZTIP14UBreakIterator"
    },
    {
     "referenced_type" : "_ZTIi"
    }
   ],
   "return_type" : "_ZTIi",
   "source_file" : "external/icu/libandroidicu/static_shim/shim.cpp"
  },
  {
   "function_name" : "ubrk_setUText_android",
   "linker_set_key" : "ubrk_setUText_android",
   "parameters" :
   [
    {
     "referenced_type" : "_ZTIP14UBreakIterator"
    },
    {
     "referenced_type" : "_ZTIP5UText"
    },
    {
     "referenced_type" : "_ZTIP10UErrorCode"
    }
   ],
   "return_type" : "_ZTIv",
   "source_file" : "external/icu/libandroidicu/static_shim/shim.cpp"
  },
  {
   "function_name" : "ucnv_close_android",
   "linker_set_key" : "ucnv_close_android",
   "parameters" :
   [
    {
     "referenced_type" : "_ZTIP10UConverter"
    }
   ],
   "return_type" : "_ZTIv",
   "source_file" : "external/icu/libandroidicu/static_shim/shim.cpp"
  },
  {
   "function_name" : "ucnv_convertEx_android",
   "linker_set_key" : "ucnv_convertEx_android",
   "parameters" :
   [
    {
     "referenced_type" : "_ZTIP10UConverter"
    },
    {
     "referenced_type" : "_ZTIP10UConverter"
    },
    {
     "referenced_type" : "_ZTIPPc"
    },
    {
     "referenced_type" : "_ZTIPKc"
    },
    {
     "referenced_type" : "_ZTIPPKc"
    },
    {
     "referenced_type" : "_ZTIPKc"
    },
    {
     "referenced_type" : "_ZTIPDs"
    },
    {
     "referenced_type" : "_ZTIPPDs"
    },
    {
     "referenced_type" : "_ZTIPPDs"
    },
    {
     "referenced_type" : "_ZTIPKDs"
    },
    {
     "referenced_type" : "_ZTIa"
    },
    {
     "referenced_type" : "_ZTIa"
    },
    {
     "referenced_type" : "_ZTIP10UErrorCode"
    }
   ],
   "return_type" : "_ZTIv",
   "source_file" : "external/icu/libandroidicu/static_shim/shim.cpp"
  },
  {
   "function_name" : "ucnv_convert_android",
   "linker_set_key" : "ucnv_convert_android",
   "parameters" :
   [
    {
     "referenced_type" : "_ZTIPKc"
    },
    {
     "referenced_type" : "_ZTIPKc"
    },
    {
     "referenced_type" : "_ZTIPc"
    },
    {
     "referenced_type" : "_ZTIi"
    },
    {
     "referenced_type" : "_ZTIPKc"
    },
    {
     "referenced_type" : "_ZTIi"
    },
    {
     "referenced_type" : "_ZTIP10UErrorCode"
    }
   ],
   "return_type" : "_ZTIi",
   "source_file" : "external/icu/libandroidicu/static_shim/shim.cpp"
  },
  {
   "function_name" : "ucnv_getNextUChar_android",
   "linker_set_key" : "ucnv_getNextUChar_android",
   "parameters" :
   [
    {
     "referenced_type" : "_ZTIP10UConverter"
    },
    {
     "referenced_type" : "_ZTIPPKc"
    },
    {
     "referenced_type" : "_ZTIPKc"
    },
    {
     "referenced_type" : "_ZTIP10UErrorCode"
    }
   ],
   "return_type" : "_ZTIi",
   "source_file" : "external/icu/libandroidicu/static_shim/shim.cpp"
  },
  {
   "function_name" : "ucnv_open_android",
   "linker_set_key" : "ucnv_open_android",
   "parameters" :
   [
    {
     "referenced_type" : "_ZTIPKc"
    },
    {
     "referenced_type" : "_ZTIP10UErrorCode"
    }
   ],
   "return_type" : "_ZTIP10UConverter",
   "source_file" : "external/icu/libandroidicu/static_shim/shim.cpp"
  },
  {
   "function_name" : "ucnv_setFromUCallBack_android",
   "linker_set_key" : "ucnv_setFromUCallBack_android",
   "parameters" :
   [
    {
     "referenced_type" : "_ZTIP10UConverter"
    },
    {
     "referenced_type" : "_ZTIPFvPKvP25UConverterFromUnicodeArgsPKDsii24UConverterCallbackReasonP10UErrorCodeE"
    },
    {
     "referenced_type" : "_ZTIPKv"
    },
    {
     "referenced_type" : "_ZTIPPFvPKvP25UConverterFromUnicodeArgsPKDsii24UConverterCallbackReasonP10UErrorCodeE"
    },
    {
     "referenced_type" : "_ZTIPPKv"
    },
    {
     "referenced_type" : "_ZTIP10UErrorCode"
    }
   ],
   "return_type" : "_ZTIv",
   "source_file" : "external/icu/libandroidicu/static_shim/shim.cpp"
  },
  {
   "function_name" : "ucnv_setToUCallBack_android",
   "linker_set_key" : "ucnv_setToUCallBack_android",
   "parameters" :
   [
    {
     "referenced_type" : "_ZTIP10UConverter"
    },
    {
     "referenced_type" : "_ZTIPFvPKvP23UConverterToUnicodeArgsPKci24UConverterCallbackReasonP10UErrorCodeE"
    },
    {
     "referenced_type" : "_ZTIPKv"
    },
    {
     "referenced_type" : "_ZTIPPFvPKvP23UConverterToUnicodeArgsPKci24UConverterCallbackReasonP10UErrorCodeE"
    },
    {
     "referenced_type" : "_ZTIPPKv"
    },
    {
     "referenced_type" : "_ZTIP10UErrorCode"
    }
   ],
   "return_type" : "_ZTIv",
   "source_file" : "external/icu/libandroidicu/static_shim/shim.cpp"
  },
  {
   "function_name" : "ucol_close_android",
   "linker_set_key" : "ucol_close_android",
   "parameters" :
   [
    {
     "referenced_type" : "_ZTIP9UCollator"
    }
   ],
   "return_type" : "_ZTIv",
   "source_file" : "external/icu/libandroidicu/static_shim/shim.cpp"
  },
  {
   "function_name" : "ucol_open_android",
   "linker_set_key" : "ucol_open_android",
   "parameters" :
   [
    {
     "referenced_type" : "_ZTIPKc"
    },
    {
     "referenced_type" : "_ZTIP10UErrorCode"
    }
   ],
   "return_type" : "_ZTIP9UCollator",
   "source_file" : "external/icu/libandroidicu/static_shim/shim.cpp"
  },
  {
   "function_name" : "ucol_setAttribute_android",
   "linker_set_key" : "ucol_setAttribute_android",
   "parameters" :
   [
    {
     "referenced_type" : "_ZTIP9UCollator"
    },
    {
     "referenced_type" : "_ZTI13UColAttribute"
    },
    {
     "referenced_type" : "_ZTI18UColAttributeValue"
    },
    {
     "referenced_type" : "_ZTIP10UErrorCode"
    }
   ],
   "return_type" : "_ZTIv",
   "source_file" : "external/icu/libandroidicu/static_shim/shim.cpp"
  },
  {
   "function_name" : "ucol_strcollIter_android",
   "linker_set_key" : "ucol_strcollIter_android",
   "parameters" :
   [
    {
     "referenced_type" : "_ZTIPK9UCollator"
    },
    {
     "referenced_type" : "_ZTIP13UCharIterator"
    },
    {
     "referenced_type" : "_ZTIP13UCharIterator"
    },
    {
     "referenced_type" : "_ZTIP10UErrorCode"
    }
   ],
   "return_type" : "_ZTI16UCollationResult",
   "source_file" : "external/icu/libandroidicu/static_shim/shim.cpp"
  },
  {
   "function_name" : "ucol_strcoll_android",
   "linker_set_key" : "ucol_strcoll_android",
   "parameters" :
   [
    {
     "referenced_type" : "_ZTIPK9UCollator"
    },
    {
     "referenced_type" : "_ZTIPKDs"
    },
    {
     "referenced_type" : "_ZTIi"
    },
    {
     "referenced_type" : "_ZTIPKDs"
    },
    {
     "referenced_type" : "_ZTIi"
    }
   ],
   "return_type" : "_ZTI16UCollationResult",
   "source_file" : "external/icu/libandroidicu/static_shim/shim.cpp"
  },
  {
   "function_name" : "ucsdet_close_android",
   "linker_set_key" : "ucsdet_close_android",
   "parameters" :
   [
    {
     "referenced_type" : "_ZTIP16UCharsetDetector"
    }
   ],
   "return_type" : "_ZTIv",
   "source_file" : "external/icu/libandroidicu/static_shim/shim.cpp"
  },
  {
   "function_name" : "ucsdet_detectAll_android",
   "linker_set_key" : "ucsdet_detectAll_android",
   "parameters" :
   [
    {
     "referenced_type" : "_ZTIP16UCharsetDetector"
    },
    {
     "referenced_type" : "_ZTIPi"
    },
    {
     "referenced_type" : "_ZTIP10UErrorCode"
    }
   ],
   "return_type" : "_ZTIPPK13UCharsetMatch",
   "source_file" : "external/icu/libandroidicu/static_shim/shim.cpp"
  },
  {
   "function_name" : "ucsdet_detect_android",
   "linker_set_key" : "ucsdet_detect_android",
   "parameters" :
   [
    {
     "referenced_type" : "_ZTIP16UCharsetDetector"
    },
    {
     "referenced_type" : "_ZTIP10UErrorCode"
    }
   ],
   "return_type" : "_ZTIPK13UCharsetMatch",
   "source_file" : "external/icu/libandroidicu/static_shim/shim.cpp"
  },
  {
   "function_name" : "ucsdet_getConfidence_android",
   "linker_set_key" : "ucsdet_getConfidence_android",
   "parameters" :
   [
    {
     "referenced_type" : "_ZTIPK13UCharsetMatch"
    },
    {
     "referenced_type" : "_ZTIP10UErrorCode"
    }
   ],
   "return_type" : "_ZTIi",
   "source_file" : "external/icu/libandroidicu/static_shim/shim.cpp"
  },
  {
   "function_name" : "ucsdet_getName_android",
   "linker_set_key" : "ucsdet_getName_android",
   "parameters" :
   [
    {
     "referenced_type" : "_ZTIPK13UCharsetMatch"
    },
    {
     "referenced_type" : "_ZTIP10UErrorCode"
    }
   ],
   "return_type" : "_ZTIPKc",
   "source_file" : "external/icu/libandroidicu/static_shim/shim.cpp"
  },
  {
   "function_name" : "ucsdet_open_android",
   "linker_set_key" : "ucsdet_open_android",
   "parameters" :
   [
    {
     "referenced_type" : "_ZTIP10UErrorCode"
    }
   ],
   "return_type" : "_ZTIP16UCharsetDetector",
   "source_file" : "external/icu/libandroidicu/static_shim/shim.cpp"
  },
  {
   "function_name" : "ucsdet_setText_android",
   "linker_set_key" : "ucsdet_setText_android",
   "parameters" :
   [
    {
     "referenced_type" : "_ZTIP16UCharsetDetector"
    },
    {
     "referenced_type" : "_ZTIPKc"
    },
    {
     "referenced_type" : "_ZTIi"
    },
    {
     "referenced_type" : "_ZTIP10UErrorCode"
    }
   ],
   "return_type" : "_ZTIv",
   "source_file" : "external/icu/libandroidicu/static_shim/shim.cpp"
  },
  {
   "function_name" : "udatpg_close_android",
   "linker_set_key" : "udatpg_close_android",
   "parameters" :
   [
    {
     "referenced_type" : "_ZTIPPv"
    }
   ],
   "return_type" : "_ZTIv",
   "source_file" : "external/icu/libandroidicu/static_shim/shim.cpp"
  },
  {
   "function_name" : "udatpg_getBestPattern_android",
   "linker_set_key" : "udatpg_getBestPattern_android",
   "parameters" :
   [
    {
     "referenced_type" : "_ZTIPPv"
    },
    {
     "referenced_type" : "_ZTIPKDs"
    },
    {
     "referenced_type" : "_ZTIi"
    },
    {
     "referenced_type" : "_ZTIPDs"
    },
    {
     "referenced_type" : "_ZTIi"
    },
    {
     "referenced_type" : "_ZTIP10UErrorCode"
    }
   ],
   "return_type" : "_ZTIi",
   "source_file" : "external/icu/libandroidicu/static_shim/shim.cpp"
  },
  {
   "function_name" : "udatpg_open_android",
   "linker_set_key" : "udatpg_open_android",
   "parameters" :
   [
    {
     "referenced_type" : "_ZTIPKc"
    },
    {
     "referenced_type" : "_ZTIP10UErrorCode"
    }
   ],
   "return_type" : "_ZTIPPv",
   "source_file" : "external/icu/libandroidicu/static_shim/shim.cpp"
  },
  {
   "function_name" : "uiter_setUTF8_android",
   "linker_set_key" : "uiter_setUTF8_android",
   "parameters" :
   [
    {
     "referenced_type" : "_ZTIP13UCharIterator"
    },
    {
     "referenced_type" : "_ZTIPKc"
    },
    {
     "referenced_type" : "_ZTIi"
    }
   ],
   "return_type" : "_ZTIv",
   "source_file" : "external/icu/libandroidicu/static_shim/shim.cpp"
  },
  {
   "function_name" : "uloc_addLikelySubtags_android",
   "linker_set_key" : "uloc_addLikelySubtags_android",
   "parameters" :
   [
    {
     "referenced_type" : "_ZTIPKc"
    },
    {
     "referenced_type" : "_ZTIPc"
    },
    {
     "referenced_type" : "_ZTIi"
    },
    {
     "referenced_type" : "_ZTIP10UErrorCode"
    }
   ],
   "return_type" : "_ZTIi",
   "source_file" : "external/icu/libandroidicu/static_shim/shim.cpp"
  },
  {
   "function_name" : "uloc_canonicalize_android",
   "linker_set_key" : "uloc_canonicalize_android",
   "parameters" :
   [
    {
     "referenced_type" : "_ZTIPKc"
    },
    {
     "referenced_type" : "_ZTIPc"
    },
    {
     "referenced_type" : "_ZTIi"
    },
    {
     "referenced_type" : "_ZTIP10UErrorCode"
    }
   ],
   "return_type" : "_ZTIi",
   "source_file" : "external/icu/libandroidicu/static_shim/shim.cpp"
  },
  {
   "function_name" : "uloc_countAvailable_android",
   "linker_set_key" : "uloc_countAvailable_android",
   "return_type" : "_ZTIi",
   "source_file" : "external/icu/libandroidicu/static_shim/shim.cpp"
  },
  {
   "function_name" : "uloc_forLanguageTag_android",
   "linker_set_key" : "uloc_forLanguageTag_android",
   "parameters" :
   [
    {
     "referenced_type" : "_ZTIPKc"
    },
    {
     "referenced_type" : "_ZTIPc"
    },
    {
     "referenced_type" : "_ZTIi"
    },
    {
     "referenced_type" : "_ZTIPi"
    },
    {
     "referenced_type" : "_ZTIP10UErrorCode"
    }
   ],
   "return_type" : "_ZTIi",
   "source_file" : "external/icu/libandroidicu/static_shim/shim.cpp"
  },
  {
   "function_name" : "uloc_getAvailable_android",
   "linker_set_key" : "uloc_getAvailable_android",
   "parameters" :
   [
    {
     "referenced_type" : "_ZTIi"
    }
   ],
   "return_type" : "_ZTIPKc",
   "source_file" : "external/icu/libandroidicu/static_shim/shim.cpp"
  },
  {
   "function_name" : "uloc_getDefault_android",
   "linker_set_key" : "uloc_getDefault_android",
   "return_type" : "_ZTIPKc",
   "source_file" : "external/icu/libandroidicu/static_shim/shim.cpp"
  },
  {
   "function_name" : "uloc_getISO3Country_android",
   "linker_set_key" : "uloc_getISO3Country_android",
   "parameters" :
   [
    {
     "referenced_type" : "_ZTIPKc"
    }
   ],
   "return_type" : "_ZTIPKc",
   "source_file" : "external/icu/libandroidicu/static_shim/shim.cpp"
  },
  {
   "function_name" : "uloc_getISO3Language_android",
   "linker_set_key" : "uloc_getISO3Language_android",
   "parameters" :
   [
    {
     "referenced_type" : "_ZTIPKc"
    }
   ],
   "return_type" : "_ZTIPKc",
   "source_file" : "external/icu/libandroidicu/static_shim/shim.cpp"
  },
  {
   "function_name" : "uloc_getISOCountries_android",
   "linker_set_key" : "uloc_getISOCountries_android",
   "return_type" : "_ZTIPKPKc",
   "source_file" : "external/icu/libandroidicu/static_shim/shim.cpp"
  },
  {
   "function_name" : "uloc_getISOLanguages_android",
   "linker_set_key" : "uloc_getISOLanguages_android",
   "return_type" : "_ZTIPKPKc",
   "source_file" : "external/icu/libandroidicu/static_shim/shim.cpp"
  },
  {
   "function_name" : "uloc_getName_android",
   "linker_set_key" : "uloc_getName_android",
   "parameters" :
   [
    {
     "referenced_type" : "_ZTIPKc"
    },
    {
     "referenced_type" : "_ZTIPc"
    },
    {
     "referenced_type" : "_ZTIi"
    },
    {
     "referenced_type" : "_ZTIP10UErrorCode"
    }
   ],
   "return_type" : "_ZTIi",
   "source_file" : "external/icu/libandroidicu/static_shim/shim.cpp"
  },
  {
   "function_name" : "uloc_getScript_android",
   "linker_set_key" : "uloc_getScript_android",
   "parameters" :
   [
    {
     "referenced_type" : "_ZTIPKc"
    },
    {
     "referenced_type" : "_ZTIPc"
    },
    {
     "referenced_type" : "_ZTIi"
    },
    {
     "referenced_type" : "_ZTIP10UErrorCode"
    }
   ],
   "return_type" : "_ZTIi",
   "source_file" : "external/icu/libandroidicu/static_shim/shim.cpp"
  },
  {
   "function_name" : "uloc_setDefault_android",
   "linker_set_key" : "uloc_setDefault_android",
   "parameters" :
   [
    {
     "referenced_type" : "_ZTIPKc"
    },
    {
     "referenced_type" : "_ZTIP10UErrorCode"
    }
   ],
   "return_type" : "_ZTIv",
   "source_file" : "external/icu/libandroidicu/static_shim/shim.cpp"
  },
  {
   "function_name" : "uloc_toLanguageTag_android",
   "linker_set_key" : "uloc_toLanguageTag_android",
   "parameters" :
   [
    {
     "referenced_type" : "_ZTIPKc"
    },
    {
     "referenced_type" : "_ZTIPc"
    },
    {
     "referenced_type" : "_ZTIi"
    },
    {
     "referenced_type" : "_ZTIa"
    },
    {
     "referenced_type" : "_ZTIP10UErrorCode"
    }
   ],
   "return_type" : "_ZTIi",
   "source_file" : "external/icu/libandroidicu/static_shim/shim.cpp"
  },
  {
   "function_name" : "unorm2_composePair_android",
   "linker_set_key" : "unorm2_composePair_android",
   "parameters" :
   [
    {
     "referenced_type" : "_ZTIPK12UNormalizer2"
    },
    {
     "referenced_type" : "_ZTIi"
    },
    {
     "referenced_type" : "_ZTIi"
    }
   ],
   "return_type" : "_ZTIi",
   "source_file" : "external/icu/libandroidicu/static_shim/shim.cpp"
  },
  {
   "function_name" : "unorm2_getDecomposition_android",
   "linker_set_key" : "unorm2_getDecomposition_android",
   "parameters" :
   [
    {
     "referenced_type" : "_ZTIPK12UNormalizer2"
    },
    {
     "referenced_type" : "_ZTIi"
    },
    {
     "referenced_type" : "_ZTIPDs"
    },
    {
     "referenced_type" : "_ZTIi"
    },
    {
     "referenced_type" : "_ZTIP10UErrorCode"
    }
   ],
   "return_type" : "_ZTIi",
   "source_file" : "external/icu/libandroidicu/static_shim/shim.cpp"
  },
  {
   "function_name" : "unorm2_getNFCInstance_android",
   "linker_set_key" : "unorm2_getNFCInstance_android",
   "parameters" :
   [
    {
     "referenced_type" : "_ZTIP10UErrorCode"
    }
   ],
   "return_type" : "_ZTIPK12UNormalizer2",
   "source_file" : "external/icu/libandroidicu/static_shim/shim.cpp"
  },
  {
   "function_name" : "unorm2_getNFDInstance_android",
   "linker_set_key" : "unorm2_getNFDInstance_android",
   "parameters" :
   [
    {
     "referenced_type" : "_ZTIP10UErrorCode"
    }
   ],
   "return_type" : "_ZTIPK12UNormalizer2",
   "source_file" : "external/icu/libandroidicu/static_shim/shim.cpp"
  },
  {
   "function_name" : "unorm2_getRawDecomposition_android",
   "linker_set_key" : "unorm2_getRawDecomposition_android",
   "parameters" :
   [
    {
     "referenced_type" : "_ZTIPK12UNormalizer2"
    },
    {
     "referenced_type" : "_ZTIi"
    },
    {
     "referenced_type" : "_ZTIPDs"
    },
    {
     "referenced_type" : "_ZTIi"
    },
    {
     "referenced_type" : "_ZTIP10UErrorCode"
    }
   ],
   "return_type" : "_ZTIi",
   "source_file" : "external/icu/libandroidicu/static_shim/shim.cpp"
  },
  {
   "function_name" : "uregex_close_android",
   "linker_set_key" : "uregex_close_android",
   "parameters" :
   [
    {
     "referenced_type" : "_ZTIP18URegularExpression"
    }
   ],
   "return_type" : "_ZTIv",
   "source_file" : "external/icu/libandroidicu/static_shim/shim.cpp"
  },
  {
   "function_name" : "uregex_matches_android",
   "linker_set_key" : "uregex_matches_android",
   "parameters" :
   [
    {
     "referenced_type" : "_ZTIP18URegularExpression"
    },
    {
     "referenced_type" : "_ZTIi"
    },
    {
     "referenced_type" : "_ZTIP10UErrorCode"
    }
   ],
   "return_type" : "_ZTIa",
   "source_file" : "external/icu/libandroidicu/static_shim/shim.cpp"
  },
  {
   "function_name" : "uregex_open_android",
   "linker_set_key" : "uregex_open_android",
   "parameters" :
   [
    {
     "referenced_type" : "_ZTIPKDs"
    },
    {
     "referenced_type" : "_ZTIi"
    },
    {
     "referenced_type" : "_ZTIj"
    },
    {
     "referenced_type" : "_ZTIP11UParseError"
    },
    {
     "referenced_type" : "_ZTIP10UErrorCode"
    }
   ],
   "return_type" : "_ZTIP18URegularExpression",
   "source_file" : "external/icu/libandroidicu/static_shim/shim.cpp"
  },
  {
   "function_name" : "uregex_setText_android",
   "linker_set_key" : "uregex_setText_android",
   "parameters" :
   [
    {
     "referenced_type" : "_ZTIP18URegularExpression"
    },
    {
     "referenced_type" : "_ZTIPKDs"
    },
    {
     "referenced_type" : "_ZTIi"
    },
    {
     "referenced_type" : "_ZTIP10UErrorCode"
    }
   ],
   "return_type" : "_ZTIv",
   "source_file" : "external/icu/libandroidicu/static_shim/shim.cpp"
  },
  {
   "function_name" : "ures_close_android",
   "linker_set_key" : "ures_close_android",
   "parameters" :
   [
    {
     "referenced_type" : "_ZTIP15UResourceBundle"
    }
   ],
   "return_type" : "_ZTIv",
   "source_file" : "external/icu/libandroidicu/static_shim/shim.cpp"
  },
  {
   "function_name" : "ures_getByIndex_android",
   "linker_set_key" : "ures_getByIndex_android",
   "parameters" :
   [
    {
     "referenced_type" : "_ZTIPK15UResourceBundle"
    },
    {
     "referenced_type" : "_ZTIi"
    },
    {
     "referenced_type" : "_ZTIP15UResourceBundle"
    },
    {
     "referenced_type" : "_ZTIP10UErrorCode"
    }
   ],
   "return_type" : "_ZTIP15UResourceBundle",
   "source_file" : "external/icu/libandroidicu/static_shim/shim.cpp"
  },
  {
   "function_name" : "ures_getByKey_android",
   "linker_set_key" : "ures_getByKey_android",
   "parameters" :
   [
    {
     "referenced_type" : "_ZTIPK15UResourceBundle"
    },
    {
     "referenced_type" : "_ZTIPKc"
    },
    {
     "referenced_type" : "_ZTIP15UResourceBundle"
    },
    {
     "referenced_type" : "_ZTIP10UErrorCode"
    }
   ],
   "return_type" : "_ZTIP15UResourceBundle",
   "source_file" : "external/icu/libandroidicu/static_shim/shim.cpp"
  },
  {
   "function_name" : "ures_getString_android",
   "linker_set_key" : "ures_getString_android",
   "parameters" :
   [
    {
     "referenced_type" : "_ZTIPK15UResourceBundle"
    },
    {
     "referenced_type" : "_ZTIPi"
    },
    {
     "referenced_type" : "_ZTIP10UErrorCode"
    }
   ],
   "return_type" : "_ZTIPKDs",
   "source_file" : "external/icu/libandroidicu/static_shim/shim.cpp"
  },
  {
   "function_name" : "ures_openDirect_android",
   "linker_set_key" : "ures_openDirect_android",
   "parameters" :
   [
    {
     "referenced_type" : "_ZTIPKc"
    },
    {
     "referenced_type" : "_ZTIPKc"
    },
    {
     "referenced_type" : "_ZTIP10UErrorCode"
    }
   ],
   "return_type" : "_ZTIP15UResourceBundle",
   "source_file" : "external/icu/libandroidicu/static_shim/shim.cpp"
  },
  {
   "function_name" : "uscript_getScript_android",
   "linker_set_key" : "uscript_getScript_android",
   "parameters" :
   [
    {
     "referenced_type" : "_ZTIi"
    },
    {
     "referenced_type" : "_ZTIP10UErrorCode"
    }
   ],
   "return_type" : "_ZTI11UScriptCode",
   "source_file" : "external/icu/libandroidicu/static_shim/shim.cpp"
  },
  {
   "function_name" : "uscript_getShortName_android",
   "linker_set_key" : "uscript_getShortName_android",
   "parameters" :
   [
    {
     "referenced_type" : "_ZTI11UScriptCode"
    }
   ],
   "return_type" : "_ZTIPKc",
   "source_file" : "external/icu/libandroidicu/static_shim/shim.cpp"
  },
  {
   "function_name" : "utext_close_android",
   "linker_set_key" : "utext_close_android",
   "parameters" :
   [
    {
     "referenced_type" : "_ZTIP5UText"
    }
   ],
   "return_type" : "_ZTIP5UText",
   "source_file" : "external/icu/libandroidicu/static_shim/shim.cpp"
  },
  {
   "function_name" : "utext_openUChars_android",
   "linker_set_key" : "utext_openUChars_android",
   "parameters" :
   [
    {
     "referenced_type" : "_ZTIP5UText"
    },
    {
     "referenced_type" : "_ZTIPKDs"
    },
    {
     "referenced_type" : "_ZTIl"
    },
    {
     "referenced_type" : "_ZTIP10UErrorCode"
    }
   ],
   "return_type" : "_ZTIP5UText",
   "source_file" : "external/icu/libandroidicu/static_shim/shim.cpp"
  },
  {
   "function_name" : "utext_openUTF8_android",
   "linker_set_key" : "utext_openUTF8_android",
   "parameters" :
   [
    {
     "referenced_type" : "_ZTIP5UText"
    },
    {
     "referenced_type" : "_ZTIPKc"
    },
    {
     "referenced_type" : "_ZTIl"
    },
    {
     "referenced_type" : "_ZTIP10UErrorCode"
    }
   ],
   "return_type" : "_ZTIP5UText",
   "source_file" : "external/icu/libandroidicu/static_shim/shim.cpp"
  },
  {
   "function_name" : "utrans_close_android",
   "linker_set_key" : "utrans_close_android",
   "parameters" :
   [
    {
     "referenced_type" : "_ZTIPPv"
    }
   ],
   "return_type" : "_ZTIv",
   "source_file" : "external/icu/libandroidicu/static_shim/shim.cpp"
  },
  {
   "function_name" : "utrans_openU_android",
   "linker_set_key" : "utrans_openU_android",
   "parameters" :
   [
    {
     "referenced_type" : "_ZTIPKDs"
    },
    {
     "referenced_type" : "_ZTIi"
    },
    {
     "referenced_type" : "_ZTI15UTransDirection"
    },
    {
     "referenced_type" : "_ZTIPKDs"
    },
    {
     "referenced_type" : "_ZTIi"
    },
    {
     "referenced_type" : "_ZTIP11UParseError"
    },
    {
     "referenced_type" : "_ZTIP10UErrorCode"
    }
   ],
   "return_type" : "_ZTIPPv",
   "source_file" : "external/icu/libandroidicu/static_shim/shim.cpp"
  },
  {
   "function_name" : "utrans_transUChars_android",
   "linker_set_key" : "utrans_transUChars_android",
   "parameters" :
   [
    {
     "referenced_type" : "_ZTIPKPv"
    },
    {
     "referenced_type" : "_ZTIPDs"
    },
    {
     "referenced_type" : "_ZTIPi"
    },
    {
     "referenced_type" : "_ZTIi"
    },
    {
     "referenced_type" : "_ZTIi"
    },
    {
     "referenced_type" : "_ZTIPi"
    },
    {
     "referenced_type" : "_ZTIP10UErrorCode"
    }
   ],
   "return_type" : "_ZTIv",
   "source_file" : "external/icu/libandroidicu/static_shim/shim.cpp"
  }
 ],
 "global_vars" :
 [
  {
   "linker_set_key" : "utf8_countTrailBytes_68",
   "name" : "utf8_countTrailBytes_68",
   "referenced_type" : "_ZTIA_Kh",
   "source_file" : "external/icu/icu4c/source/common/unicode/utf_old.h"
  }
 ],
 "lvalue_reference_types" : [],
 "pointer_types" :
 [
  {
   "alignment" : 8,
   "linker_set_key" : "_ZTIP10UConverter",
   "name" : "UConverter *",
   "referenced_type" : "_ZTI10UConverter",
   "self_type" : "_ZTIP10UConverter",
   "size" : 8,
   "source_file" : "external/icu/icu4c/source/common/unicode/ucnv_err.h"
  },
  {
   "alignment" : 8,
   "linker_set_key" : "_ZTIP10UErrorCode",
   "name" : "UErrorCode *",
   "referenced_type" : "_ZTI10UErrorCode",
   "self_type" : "_ZTIP10UErrorCode",
   "size" : 8,
   "source_file" : "external/icu/icu4c/source/common/unicode/utext.h"
  },
  {
   "alignment" : 8,
   "linker_set_key" : "_ZTIP11UParseError",
   "name" : "UParseError *",
   "referenced_type" : "_ZTI11UParseError",
   "self_type" : "_ZTIP11UParseError",
   "size" : 8,
   "source_file" : "external/icu/libandroidicu/static_shim/shim.cpp"
  },
  {
   "alignment" : 8,
   "linker_set_key" : "_ZTIP13UCharIterator",
   "name" : "UCharIterator *",
   "referenced_type" : "_ZTI13UCharIterator",
   "self_type" : "_ZTIP13UCharIterator",
   "size" : 8,
   "source_file" : "external/icu/icu4c/source/common/unicode/uiter.h"
  },
  {
   "alignment" : 8,
   "linker_set_key" : "_ZTIP14UBreakIterator",
   "name" : "UBreakIterator *",
   "referenced_type" : "_ZTI14UBreakIterator",
   "self_type" : "_ZTIP14UBreakIterator",
   "size" : 8,
   "source_file" : "external/icu/libandroidicu/static_shim/shim.cpp"
  },
  {
   "alignment" : 8,
   "linker_set_key" : "_ZTIP15UResourceBundle",
   "name" : "UResourceBundle *",
   "referenced_type" : "_ZTI15UResourceBundle",
   "self_type" : "_ZTIP15UResourceBundle",
   "size" : 8,
   "source_file" : "external/icu/libandroidicu/static_shim/shim.cpp"
  },
  {
   "alignment" : 8,
   "linker_set_key" : "_ZTIP16UCharsetDetector",
   "name" : "UCharsetDetector *",
   "referenced_type" : "_ZTI16UCharsetDetector",
   "self_type" : "_ZTIP16UCharsetDetector",
   "size" : 8,
   "source_file" : "external/icu/libandroidicu/static_shim/shim.cpp"
  },
  {
   "alignment" : 8,
   "linker_set_key" : "_ZTIP18URegularExpression",
   "name" : "URegularExpression *",
   "referenced_type" : "_ZTI18URegularExpression",
   "self_type" : "_ZTIP18URegularExpression",
   "size" : 8,
   "source_file" : "external/icu/libandroidicu/static_shim/shim.cpp"
  },
  {
   "alignment" : 8,
   "linker_set_key" : "_ZTIP23UConverterToUnicodeArgs",
   "name" : "UConverterToUnicodeArgs *",
   "referenced_type" : "_ZTI23UConverterToUnicodeArgs",
   "self_type" : "_ZTIP23UConverterToUnicodeArgs",
   "size" : 8,
   "source_file" : "external/icu/libandroidicu/static_shim/shim.cpp"
  },
  {
   "alignment" : 8,
   "linker_set_key" : "_ZTIP25UConverterFromUnicodeArgs",
   "name" : "UConverterFromUnicodeArgs *",
   "referenced_type" : "_ZTI25UConverterFromUnicodeArgs",
   "self_type" : "_ZTIP25UConverterFromUnicodeArgs",
   "size" : 8,
   "source_file" : "external/icu/libandroidicu/static_shim/shim.cpp"
  },
  {
   "alignment" : 8,
   "linker_set_key" : "_ZTIP5UBiDi",
   "name" : "UBiDi *",
   "referenced_type" : "_ZTI5UBiDi",
   "self_type" : "_ZTIP5UBiDi",
   "size" : 8,
   "source_file" : "external/icu/libandroidicu/static_shim/shim.cpp"
  },
  {
   "alignment" : 8,
   "linker_set_key" : "_ZTIP5UText",
   "name" : "UText *",
   "referenced_type" : "_ZTI5UText",
   "self_type" : "_ZTIP5UText",
   "size" : 8,
   "source_file" : "external/icu/icu4c/source/common/unicode/utext.h"
  },
  {
   "alignment" : 8,
   "linker_set_key" : "_ZTIP9UCollator",
   "name" : "UCollator *",
   "referenced_type" : "_ZTI9UCollator",
   "self_type" : "_ZTIP9UCollator",
   "size" : 8,
   "source_file" : "external/icu/libandroidicu/static_shim/shim.cpp"
  },
  {
   "alignment" : 8,
   "linker_set_key" : "_ZTIPDs",
   "name" : "char16_t *",
   "referenced_type" : "_ZTIDs",
   "self_type" : "_ZTIPDs",
   "size" : 8,
   "source_file" : "external/icu/icu4c/source/common/unicode/utext.h"
  },
  {
   "alignment" : 8,
   "linker_set_key" : "_ZTIPF14UCharDirectionPKviE",
   "name" : "UCharDirection (*)(const void *, int)",
   "referenced_type" : "_ZTIF14UCharDirectionPKviE",
   "self_type" : "_ZTIPF14UCharDirectionPKviE",
   "size" : 8,
   "source_file" : "external/icu/libandroidicu/static_shim/shim.cpp"
  },
  {
   "alignment" : 8,
   "linker_set_key" : "_ZTIPFDsPKPviE",
   "name" : "char16_t (*)(void *const *, int)",
   "referenced_type" : "_ZTIFDsPKPviE",
   "self_type" : "_ZTIPFDsPKPviE",
   "size" : 8,
   "source_file" : "external/icu/icu4c/source/common/unicode/urep.h"
  },
  {
   "alignment" : 8,
   "linker_set_key" : "_ZTIPFP5UTextS0_PKS_aP10UErrorCodeE",
   "name" : "UText *(*)(UText *, const UText *, signed char, UErrorCode *)",
   "referenced_type" : "_ZTIFP5UTextS0_PKS_aP10UErrorCodeE",
   "self_type" : "_ZTIPFP5UTextS0_PKS_aP10UErrorCodeE",
   "size" : 8,
   "source_file" : "external/icu/icu4c/source/common/unicode/utext.h"
  },
  {
   "alignment" : 8,
   "linker_set_key" : "_ZTIPFaP13UCharIteratorE",
   "name" : "signed char (*)(UCharIterator *)",
   "referenced_type" : "_ZTIFaP13UCharIteratorE",
   "self_type" : "_ZTIPFaP13UCharIteratorE",
   "size" : 8,
   "source_file" : "external/icu/icu4c/source/common/unicode/uiter.h"
  },
  {
   "alignment" : 8,
   "linker_set_key" : "_ZTIPFaP5UTextlaE",
   "name" : "signed char (*)(UText *, long, signed char)",
   "referenced_type" : "_ZTIFaP5UTextlaE",
   "self_type" : "_ZTIPFaP5UTextlaE",
   "size" : 8,
   "source_file" : "external/icu/icu4c/source/common/unicode/utext.h"
  },
  {
   "alignment" : 8,
   "linker_set_key" : "_ZTIPFiP13UCharIterator19UCharIteratorOriginE",
   "name" : "int (*)(UCharIterator *, UCharIteratorOrigin)",
   "referenced_type" : "_ZTIFiP13UCharIterator19UCharIteratorOriginE",
   "self_type" : "_ZTIPFiP13UCharIterator19UCharIteratorOriginE",
   "size" : 8,
   "source_file" : "external/icu/icu4c/source/common/unicode/uiter.h"
  },
  {
   "alignment" : 8,
   "linker_set_key" : "_ZTIPFiP13UCharIteratorE",
   "name" : "int (*)(UCharIterator *)",
   "referenced_type" : "_ZTIFiP13UCharIteratorE",
   "self_type" : "_ZTIPFiP13UCharIteratorE",
   "size" : 8,
   "source_file" : "external/icu/icu4c/source/common/unicode/uiter.h"
  },
  {
   "alignment" : 8,
   "linker_set_key" : "_ZTIPFiP13UCharIteratori19UCharIteratorOriginE",
   "name" : "int (*)(UCharIterator *, int, UCharIteratorOrigin)",
   "referenced_type" : "_ZTIFiP13UCharIteratori19UCharIteratorOriginE",
   "self_type" : "_ZTIPFiP13UCharIteratori19UCharIteratorOriginE",
   "size" : 8,
   "source_file" : "external/icu/icu4c/source/common/unicode/uiter.h"
  },
  {
   "alignment" : 8,
   "linker_set_key" : "_ZTIPFiP13UCharIteratoriE",
   "name" : "int (*)(UCharIterator *, int)",
   "referenced_type" : "_ZTIFiP13UCharIteratoriE",
   "self_type" : "_ZTIPFiP13UCharIteratoriE",
   "size" : 8,
   "source_file" : "external/icu/icu4c/source/common/unicode/uiter.h"
  },
  {
   "alignment" : 8,
   "linker_set_key" : "_ZTIPFiP5UTextllPDsiP10UErrorCodeE",
   "name" : "int (*)(UText *, long, long, char16_t *, int, UErrorCode *)",
   "referenced_type" : "_ZTIFiP5UTextllPDsiP10UErrorCodeE",
   "self_type" : "_ZTIPFiP5UTextllPDsiP10UErrorCodeE",
   "size" : 8,
   "source_file" : "external/icu/icu4c/source/common/unicode/utext.h"
  },
  {
   "alignment" : 8,
   "linker_set_key" : "_ZTIPFiP5UTextllPKDsiP10UErrorCodeE",
   "name" : "int (*)(UText *, long, long, const char16_t *, int, UErrorCode *)",
   "referenced_type" : "_ZTIFiP5UTextllPKDsiP10UErrorCodeE",
   "self_type" : "_ZTIPFiP5UTextllPKDsiP10UErrorCodeE",
   "size" : 8,
   "source_file" : "external/icu/icu4c/source/common/unicode/utext.h"
  },
  {
   "alignment" : 8,
   "linker_set_key" : "_ZTIPFiPK5UTextlE",
   "name" : "int (*)(const UText *, long)",
   "referenced_type" : "_ZTIFiPK5UTextlE",
   "self_type" : "_ZTIPFiPK5UTextlE",
   "size" : 8,
   "source_file" : "external/icu/icu4c/source/common/unicode/utext.h"
  },
  {
   "alignment" : 8,
   "linker_set_key" : "_ZTIPFiPKPvE",
   "name" : "int (*)(void *const *)",
   "referenced_type" : "_ZTIFiPKPvE",
   "self_type" : "_ZTIPFiPKPvE",
   "size" : 8,
   "source_file" : "external/icu/icu4c/source/common/unicode/urep.h"
  },
  {
   "alignment" : 8,
   "linker_set_key" : "_ZTIPFiPKPviE",
   "name" : "int (*)(void *const *, int)",
   "referenced_type" : "_ZTIFiPKPviE",
   "self_type" : "_ZTIPFiPKPviE",
   "size" : 8,
   "source_file" : "external/icu/icu4c/source/common/unicode/urep.h"
  },
  {
   "alignment" : 8,
   "linker_set_key" : "_ZTIPFjPK13UCharIteratorE",
   "name" : "unsigned int (*)(const UCharIterator *)",
   "referenced_type" : "_ZTIFjPK13UCharIteratorE",
   "self_type" : "_ZTIPFjPK13UCharIteratorE",
   "size" : 8,
   "source_file" : "external/icu/icu4c/source/common/unicode/uiter.h"
  },
  {
   "alignment" : 8,
   "linker_set_key" : "_ZTIPFlP5UTextE",
   "name" : "long (*)(UText *)",
   "referenced_type" : "_ZTIFlP5UTextE",
   "self_type" : "_ZTIPFlP5UTextE",
   "size" : 8,
   "source_file" : "external/icu/icu4c/source/common/unicode/utext.h"
  },
  {
   "alignment" : 8,
   "linker_set_key" : "_ZTIPFlPK5UTextE",
   "name" : "long (*)(const UText *)",
   "referenced_type" : "_ZTIFlPK5UTextE",
   "self_type" : "_ZTIPFlPK5UTextE",
   "size" : 8,
   "source_file" : "external/icu/icu4c/source/common/unicode/utext.h"
  },
  {
   "alignment" : 8,
   "linker_set_key" : "_ZTIPFvP13UCharIteratorjP10UErrorCodeE",
   "name" : "void (*)(UCharIterator *, unsigned int, UErrorCode *)",
   "referenced_type" : "_ZTIFvP13UCharIteratorjP10UErrorCodeE",
   "self_type" : "_ZTIPFvP13UCharIteratorjP10UErrorCodeE",
   "size" : 8,
   "source_file" : "external/icu/icu4c/source/common/unicode/uiter.h"
  },
  {
   "alignment" : 8,
   "linker_set_key" : "_ZTIPFvP5UTextE",
   "name" : "void (*)(UText *)",
   "referenced_type" : "_ZTIFvP5UTextE",
   "self_type" : "_ZTIPFvP5UTextE",
   "size" : 8,
   "source_file" : "external/icu/icu4c/source/common/unicode/utext.h"
  },
  {
   "alignment" : 8,
   "linker_set_key" : "_ZTIPFvP5UTextlllaP10UErrorCodeE",
   "name" : "void (*)(UText *, long, long, long, signed char, UErrorCode *)",
   "referenced_type" : "_ZTIFvP5UTextlllaP10UErrorCodeE",
   "self_type" : "_ZTIPFvP5UTextlllaP10UErrorCodeE",
   "size" : 8,
   "source_file" : "external/icu/icu4c/source/common/unicode/utext.h"
  },
  {
   "alignment" : 8,
   "linker_set_key" : "_ZTIPFvPKvP23UConverterToUnicodeArgsPKci24UConverterCallbackReasonP10UErrorCodeE",
   "name" : "void (*)(const void *, UConverterToUnicodeArgs *, const char *, int, UConverterCallbackReason, UErrorCode *)",
   "referenced_type" : "_ZTIFvPKvP23UConverterToUnicodeArgsPKci24UConverterCallbackReasonP10UErrorCodeE",
   "self_type" : "_ZTIPFvPKvP23UConverterToUnicodeArgsPKci24UConverterCallbackReasonP10UErrorCodeE",
   "size" : 8,
   "source_file" : "external/icu/libandroidicu/static_shim/shim.cpp"
  },
  {
   "alignment" : 8,
   "linker_set_key" : "_ZTIPFvPKvP25UConverterFromUnicodeArgsPKDsii24UConverterCallbackReasonP10UErrorCodeE",
   "name" : "void (*)(const void *, UConverterFromUnicodeArgs *, const char16_t *, int, int, UConverterCallbackReason, UErrorCode *)",
   "referenced_type" : "_ZTIFvPKvP25UConverterFromUnicodeArgsPKDsii24UConverterCallbackReasonP10UErrorCodeE",
   "self_type" : "_ZTIPFvPKvP25UConverterFromUnicodeArgsPKDsii24UConverterCallbackReasonP10UErrorCodeE",
   "size" : 8,
   "source_file" : "external/icu/libandroidicu/static_shim/shim.cpp"
  },
  {
   "alignment" : 8,
   "linker_set_key" : "_ZTIPFvPPviiPDsE",
   "name" : "void (*)(void **, int, int, char16_t *)",
   "referenced_type" : "_ZTIFvPPviiPDsE",
   "self_type" : "_ZTIPFvPPviiPDsE",
   "size" : 8,
   "source_file" : "external/icu/icu4c/source/common/unicode/urep.h"
  },
  {
   "alignment" : 8,
   "linker_set_key" : "_ZTIPFvPPviiPKDsiE",
   "name" : "void (*)(void **, int, int, const char16_t *, int)",
   "referenced_type" : "_ZTIFvPPviiPKDsiE",
   "self_type" : "_ZTIPFvPPviiPKDsiE",
   "size" : 8,
   "source_file" : "external/icu/icu4c/source/common/unicode/urep.h"
  },
  {
   "alignment" : 8,
   "linker_set_key" : "_ZTIPFvPPviiiE",
   "name" : "void (*)(void **, int, int, int)",
   "referenced_type" : "_ZTIFvPPviiiE",
   "self_type" : "_ZTIPFvPPviiiE",
   "size" : 8,
   "source_file" : "external/icu/icu4c/source/common/unicode/urep.h"
  },
  {
   "alignment" : 8,
   "linker_set_key" : "_ZTIPK10UTextFuncs",
   "name" : "const UTextFuncs *",
   "referenced_type" : "_ZTIK10UTextFuncs",
   "self_type" : "_ZTIPK10UTextFuncs",
   "size" : 8,
   "source_file" : "external/icu/icu4c/source/common/unicode/utext.h"
  },
  {
   "alignment" : 8,
   "linker_set_key" : "_ZTIPK12UNormalizer2",
   "name" : "const UNormalizer2 *",
   "referenced_type" : "_ZTIK12UNormalizer2",
   "self_type" : "_ZTIPK12UNormalizer2",
   "size" : 8,
   "source_file" : "external/icu/libandroidicu/static_shim/shim.cpp"
  },
  {
   "alignment" : 8,
   "linker_set_key" : "_ZTIPK13UCharIterator",
   "name" : "const UCharIterator *",
   "referenced_type" : "_ZTIK13UCharIterator",
   "self_type" : "_ZTIPK13UCharIterator",
   "size" : 8,
   "source_file" : "external/icu/icu4c/source/common/unicode/uiter.h"
  },
  {
   "alignment" : 8,
   "linker_set_key" : "_ZTIPK13UCharsetMatch",
   "name" : "const UCharsetMatch *",
   "referenced_type" : "_ZTIK13UCharsetMatch",
   "self_type" : "_ZTIPK13UCharsetMatch",
   "size" : 8,
   "source_file" : "external/icu/libandroidicu/static_shim/shim.cpp"
  },
  {
   "alignment" : 8,
   "linker_set_key" : "_ZTIPK14UBreakIterator",
   "name" : "const UBreakIterator *",
   "referenced_type" : "_ZTIK14UBreakIterator",
   "self_type" : "_ZTIPK14UBreakIterator",
   "size" : 8,
   "source_file" : "external/icu/libandroidicu/static_shim/shim.cpp"
  },
  {
   "alignment" : 8,
   "linker_set_key" : "_ZTIPK15UResourceBundle",
   "name" : "const UResourceBundle *",
   "referenced_type" : "_ZTIK15UResourceBundle",
   "self_type" : "_ZTIPK15UResourceBundle",
   "size" : 8,
   "source_file" : "external/icu/libandroidicu/static_shim/shim.cpp"
  },
  {
   "alignment" : 8,
   "linker_set_key" : "_ZTIPK5UBiDi",
   "name" : "const UBiDi *",
   "referenced_type" : "_ZTIK5UBiDi",
   "self_type" : "_ZTIPK5UBiDi",
   "size" : 8,
   "source_file" : "external/icu/libandroidicu/static_shim/shim.cpp"
  },
  {
   "alignment" : 8,
   "linker_set_key" : "_ZTIPK5UText",
   "name" : "const UText *",
   "referenced_type" : "_ZTIK5UText",
   "self_type" : "_ZTIPK5UText",
   "size" : 8,
   "source_file" : "external/icu/icu4c/source/common/unicode/utext.h"
  },
  {
   "alignment" : 8,
   "linker_set_key" : "_ZTIPK9UCollator",
   "name" : "const UCollator *",
   "referenced_type" : "_ZTIK9UCollator",
   "self_type" : "_ZTIPK9UCollator",
   "size" : 8,
   "source_file" : "external/icu/libandroidicu/static_shim/shim.cpp"
  },
  {
   "alignment" : 8,
   "linker_set_key" : "_ZTIPKDs",
   "name" : "const char16_t *",
   "referenced_type" : "_ZTIKDs",
   "self_type" : "_ZTIPKDs",
   "size" : 8,
   "source_file" : "external/icu/icu4c/source/common/unicode/utext.h"
  },
  {
   "alignment" : 8,
   "linker_set_key" : "_ZTIPKPKc",
   "name" : "const char *const *",
   "referenced_type" : "_ZTIKPKc",
   "self_type" : "_ZTIPKPKc",
   "size" : 8,
   "source_file" : "external/icu/libandroidicu/static_shim/shim.cpp"
  },
  {
   "alignment" : 8,
   "linker_set_key" : "_ZTIPKPv",
   "name" : "void *const *",
   "referenced_type" : "_ZTIKPv",
   "self_type" : "_ZTIPKPv",
   "size" : 8,
   "source_file" : "external/icu/icu4c/source/common/unicode/urep.h"
  },
  {
   "alignment" : 8,
   "linker_set_key" : "_ZTIPKc",
   "name" : "const char *",
   "referenced_type" : "_ZTIKc",
   "self_type" : "_ZTIPKc",
   "size" : 8,
   "source_file" : "external/icu/icu4c/source/common/unicode/ucnv_err.h"
  },
  {
   "alignment" : 8,
   "linker_set_key" : "_ZTIPKh",
   "name" : "const unsigned char *",
   "referenced_type" : "_ZTIKh",
   "self_type" : "_ZTIPKh",
   "size" : 8,
   "source_file" : "external/icu/icu4c/source/common/unicode/ucptrie.h"
  },
  {
   "alignment" : 8,
   "linker_set_key" : "_ZTIPKj",
   "name" : "const unsigned int *",
   "referenced_type" : "_ZTIKj",
   "self_type" : "_ZTIPKj",
   "size" : 8,
   "source_file" : "external/icu/icu4c/source/common/unicode/ucptrie.h"
  },
  {
   "alignment" : 8,
   "linker_set_key" : "_ZTIPKt",
   "name" : "const unsigned short *",
   "referenced_type" : "_ZTIKt",
   "self_type" : "_ZTIPKt",
   "size" : 8,
   "source_file" : "external/icu/icu4c/source/common/unicode/uset.h"
  },
  {
   "alignment" : 8,
   "linker_set_key" : "_ZTIPKv",
   "name" : "const void *",
   "referenced_type" : "_ZTIKv",
   "self_type" : "_ZTIPKv",
   "size" : 8,
   "source_file" : "external/icu/icu4c/source/common/unicode/utext.h"
  },
  {
   "alignment" : 8,
   "linker_set_key" : "_ZTIPPDs",
   "name" : "char16_t **",
   "referenced_type" : "_ZTIPDs",
   "self_type" : "_ZTIPPDs",
   "size" : 8,
   "source_file" : "external/icu/libandroidicu/static_shim/shim.cpp"
  },
  {
   "alignment" : 8,
   "linker_set_key" : "_ZTIPPF14UCharDirectionPKviE",
   "name" : "UCharDirection (**)(const void *, int)",
   "referenced_type" : "_ZTIPF14UCharDirectionPKviE",
   "self_type" : "_ZTIPPF14UCharDirectionPKviE",
   "size" : 8,
   "source_file" : "external/icu/libandroidicu/static_shim/shim.cpp"
  },
  {
   "alignment" : 8,
   "linker_set_key" : "_ZTIPPFvPKvP23UConverterToUnicodeArgsPKci24UConverterCallbackReasonP10UErrorCodeE",
   "name" : "void (**)(const void *, UConverterToUnicodeArgs *, const char *, int, UConverterCallbackReason, UErrorCode *)",
   "referenced_type" : "_ZTIPFvPKvP23UConverterToUnicodeArgsPKci24UConverterCallbackReasonP10UErrorCodeE",
   "self_type" : "_ZTIPPFvPKvP23UConverterToUnicodeArgsPKci24UConverterCallbackReasonP10UErrorCodeE",
   "size" : 8,
   "source_file" : "external/icu/libandroidicu/static_shim/shim.cpp"
  },
  {
   "alignment" : 8,
   "linker_set_key" : "_ZTIPPFvPKvP25UConverterFromUnicodeArgsPKDsii24UConverterCallbackReasonP10UErrorCodeE",
   "name" : "void (**)(const void *, UConverterFromUnicodeArgs *, const char16_t *, int, int, UConverterCallbackReason, UErrorCode *)",
   "referenced_type" : "_ZTIPFvPKvP25UConverterFromUnicodeArgsPKDsii24UConverterCallbackReasonP10UErrorCodeE",
   "self_type" : "_ZTIPPFvPKvP25UConverterFromUnicodeArgsPKDsii24UConverterCallbackReasonP10UErrorCodeE",
   "size" : 8,
   "source_file" : "external/icu/libandroidicu/static_shim/shim.cpp"
  },
  {
   "alignment" : 8,
   "linker_set_key" : "_ZTIPPK13UCharsetMatch",
   "name" : "const UCharsetMatch **",
   "referenced_type" : "_ZTIPK13UCharsetMatch",
   "self_type" : "_ZTIPPK13UCharsetMatch",
   "size" : 8,
   "source_file" : "external/icu/libandroidicu/static_shim/shim.cpp"
  },
  {
   "alignment" : 8,
   "linker_set_key" : "_ZTIPPKc",
   "name" : "const char **",
   "referenced_type" : "_ZTIPKc",
   "self_type" : "_ZTIPPKc",
   "size" : 8,
   "source_file" : "external/icu/libandroidicu/static_shim/shim.cpp"
  },
  {
   "alignment" : 8,
   "linker_set_key" : "_ZTIPPKv",
   "name" : "const void **",
   "referenced_type" : "_ZTIPKv",
   "self_type" : "_ZTIPPKv",
   "size" : 8,
   "source_file" : "external/icu/libandroidicu/static_shim/shim.cpp"
  },
  {
   "alignment" : 8,
   "linker_set_key" : "_ZTIPPc",
   "name" : "char **",
   "referenced_type" : "_ZTIPc",
   "self_type" : "_ZTIPPc",
   "size" : 8,
   "source_file" : "external/icu/libandroidicu/static_shim/shim.cpp"
  },
  {
   "alignment" : 8,
   "linker_set_key" : "_ZTIPPv",
   "name" : "void **",
   "referenced_type" : "_ZTIPv",
   "self_type" : "_ZTIPPv",
   "size" : 8,
   "source_file" : "external/icu/icu4c/source/common/unicode/urep.h"
  },
  {
   "alignment" : 8,
   "linker_set_key" : "_ZTIPc",
   "name" : "char *",
   "referenced_type" : "_ZTIc",
   "self_type" : "_ZTIPc",
   "size" : 8,
   "source_file" : "external/icu/icu4c/source/common/unicode/ucnv_err.h"
  },
  {
   "alignment" : 8,
   "linker_set_key" : "_ZTIPh",
   "name" : "unsigned char *",
   "referenced_type" : "_ZTIh",
   "self_type" : "_ZTIPh",
   "size" : 8,
   "source_file" : "external/icu/libandroidicu/static_shim/shim.cpp"
  },
  {
   "alignment" : 8,
   "linker_set_key" : "_ZTIPi",
   "name" : "int *",
   "referenced_type" : "_ZTIi",
   "self_type" : "_ZTIPi",
   "size" : 8,
   "source_file" : "external/icu/icu4c/source/common/unicode/ucnv_err.h"
  },
  {
   "alignment" : 8,
   "linker_set_key" : "_ZTIPv",
   "name" : "void *",
   "referenced_type" : "_ZTIv",
   "self_type" : "_ZTIPv",
   "size" : 8,
   "source_file" : "external/icu/icu4c/source/common/unicode/utext.h"
  }
 ],
 "qualified_types" :
 [
  {
   "is_const" : true,
   "linker_set_key" : "_ZTIA_Kh",
   "name" : "unsigned char const[]",
   "referenced_type" : "_ZTIA_h",
   "self_type" : "_ZTIA_Kh",
   "source_file" : "external/icu/icu4c/source/common/unicode/utf_old.h"
  },
  {
   "alignment" : 8,
   "is_const" : true,
   "linker_set_key" : "_ZTIK10UTextFuncs",
   "name" : "const UTextFuncs",
   "referenced_type" : "_ZTI10UTextFuncs",
   "self_type" : "_ZTIK10UTextFuncs",
   "size" : 112,
   "source_file" : "external/icu/icu4c/source/common/unicode/utext.h"
  },
  {
   "is_const" : true,
   "linker_set_key" : "_ZTIK12UNormalizer2",
   "name" : "const UNormalizer2",
   "referenced_type" : "_ZTI12UNormalizer2",
   "self_type" : "_ZTIK12UNormalizer2",
   "source_file" : "external/icu/libandroidicu/static_shim/shim.cpp"
  },
  {
   "alignment" : 8,
   "is_const" : true,
   "linker_set_key" : "_ZTIK13UCharIterator",
   "name" : "const UCharIterator",
   "referenced_type" : "_ZTI13UCharIterator",
   "self_type" : "_ZTIK13UCharIterator",
   "size" : 112,
   "source_file" : "external/icu/icu4c/source/common/unicode/uiter.h"
  },
  {
   "is_const" : true,
   "linker_set_key" : "_ZTIK13UCharsetMatch",
   "name" : "const UCharsetMatch",
   "referenced_type" : "_ZTI13UCharsetMatch",
   "self_type" : "_ZTIK13UCharsetMatch",
   "source_file" : "external/icu/libandroidicu/static_shim/shim.cpp"
  },
  {
   "is_const" : true,
   "linker_set_key" : "_ZTIK14UBreakIterator",
   "name" : "const UBreakIterator",
   "referenced_type" : "_ZTI14UBreakIterator",
   "self_type" : "_ZTIK14UBreakIterator",
   "source_file" : "external/icu/libandroidicu/static_shim/shim.cpp"
  },
  {
   "is_const" : true,
   "linker_set_key" : "_ZTIK15UResourceBundle",
   "name" : "const UResourceBundle",
   "referenced_type" : "_ZTI15UResourceBundle",
   "self_type" : "_ZTIK15UResourceBundle",
   "source_file" : "external/icu/libandroidicu/static_shim/shim.cpp"
  },
  {
   "is_const" : true,
   "linker_set_key" : "_ZTIK5UBiDi",
   "name" : "const UBiDi",
   "referenced_type" : "_ZTI5UBiDi",
   "self_type" : "_ZTIK5UBiDi",
   "source_file" : "external/icu/libandroidicu/static_shim/shim.cpp"
  },
  {
   "alignment" : 8,
   "is_const" : true,
   "linker_set_key" : "_ZTIK5UText",
   "name" : "const UText",
   "referenced_type" : "_ZTI5UText",
   "self_type" : "_ZTIK5UText",
   "size" : 144,
   "source_file" : "external/icu/icu4c/source/common/unicode/utext.h"
  },
  {
   "is_const" : true,
   "linker_set_key" : "_ZTIK9UCollator",
   "name" : "const UCollator",
   "referenced_type" : "_ZTI9UCollator",
   "self_type" : "_ZTIK9UCollator",
   "source_file" : "external/icu/libandroidicu/static_shim/shim.cpp"
  },
  {
   "alignment" : 2,
   "is_const" : true,
   "linker_set_key" : "_ZTIKDs",
   "name" : "const char16_t",
   "referenced_type" : "_ZTIDs",
   "self_type" : "_ZTIKDs",
   "size" : 2,
   "source_file" : "external/icu/icu4c/source/common/unicode/utext.h"
  },
  {
   "alignment" : 8,
   "is_const" : true,
   "linker_set_key" : "_ZTIKPKc",
   "name" : "const char *const",
   "referenced_type" : "_ZTIPKc",
   "self_type" : "_ZTIKPKc",
   "size" : 8,
   "source_file" : "external/icu/libandroidicu/static_shim/shim.cpp"
  },
  {
   "alignment" : 8,
   "is_const" : true,
   "linker_set_key" : "_ZTIKPv",
   "name" : "void *const",
   "referenced_type" : "_ZTIPv",
   "self_type" : "_ZTIKPv",
   "size" : 8,
   "source_file" : "external/icu/icu4c/source/common/unicode/urep.h"
  },
  {
   "alignment" : 1,
   "is_const" : true,
   "linker_set_key" : "_ZTIKc",
   "name" : "const char",
   "referenced_type" : "_ZTIc",
   "self_type" : "_ZTIKc",
   "size" : 1,
   "source_file" : "external/icu/icu4c/source/common/unicode/ucnv_err.h"
  },
  {
   "alignment" : 1,
   "is_const" : true,
   "linker_set_key" : "_ZTIKh",
   "name" : "const unsigned char",
   "referenced_type" : "_ZTIh",
   "self_type" : "_ZTIKh",
   "size" : 1,
   "source_file" : "external/icu/icu4c/source/common/unicode/ucptrie.h"
  },
  {
   "alignment" : 4,
   "is_const" : true,
   "linker_set_key" : "_ZTIKj",
   "name" : "const unsigned int",
   "referenced_type" : "_ZTIj",
   "self_type" : "_ZTIKj",
   "size" : 4,
   "source_file" : "external/icu/icu4c/source/common/unicode/ucptrie.h"
  },
  {
   "alignment" : 2,
   "is_const" : true,
   "linker_set_key" : "_ZTIKt",
   "name" : "const unsigned short",
   "referenced_type" : "_ZTIt",
   "self_type" : "_ZTIKt",
   "size" : 2,
   "source_file" : "external/icu/icu4c/source/common/unicode/uset.h"
  },
  {
   "is_const" : true,
   "linker_set_key" : "_ZTIKv",
   "name" : "const void",
   "referenced_type" : "_ZTIv",
   "self_type" : "_ZTIKv",
   "source_file" : "external/icu/icu4c/source/common/unicode/utext.h"
  }
 ],
 "record_types" :
 [
  {
   "alignment" : 8,
   "fields" :
   [
    {
     "field_name" : "tableSize",
     "referenced_type" : "_ZTIi"
    },
    {
     "field_name" : "reserved1",
     "field_offset" : 32,
     "referenced_type" : "_ZTIi"
    },
    {
     "field_name" : "reserved2",
     "field_offset" : 64,
     "referenced_type" : "_ZTIi"
    },
    {
     "field_name" : "reserved3",
     "field_offset" : 96,
     "referenced_type" : "_ZTIi"
    },
    {
     "field_name" : "clone",
     "field_offset" : 128,
     "referenced_type" : "_ZTIPFP5UTextS0_PKS_aP10UErrorCodeE"
    },
    {
     "field_name" : "nativeLength",
     "field_offset" : 192,
     "referenced_type" : "_ZTIPFlP5UTextE"
    },
    {
     "field_name" : "access",
     "field_offset" : 256,
     "referenced_type" : "_ZTIPFaP5UTextlaE"
    },
    {
     "field_name" : "extract",
     "field_offset" : 320,
     "referenced_type" : "_ZTIPFiP5UTextllPDsiP10UErrorCodeE"
    },
    {
     "field_name" : "replace",
     "field_offset" : 384,
     "referenced_type" : "_ZTIPFiP5UTextllPKDsiP10UErrorCodeE"
    },
    {
     "field_name" : "copy",
     "field_offset" : 448,
     "referenced_type" : "_ZTIPFvP5UTextlllaP10UErrorCodeE"
    },
    {
     "field_name" : "mapOffsetToNative",
     "field_offset" : 512,
     "referenced_type" : "_ZTIPFlPK5UTextE"
    },
    {
     "field_name" : "mapNativeIndexToUTF16",
     "field_offset" : 576,
     "referenced_type" : "_ZTIPFiPK5UTextlE"
    },
    {
     "field_name" : "close",
     "field_offset" : 640,
     "referenced_type" : "_ZTIPFvP5UTextE"
    },
    {
     "field_name" : "spare1",
     "field_offset" : 704,
     "referenced_type" : "_ZTIPFvP5UTextE"
    },
    {
     "field_name" : "spare2",
     "field_offset" : 768,
     "referenced_type" : "_ZTIPFvP5UTextE"
    },
    {
     "field_name" : "spare3",
     "field_offset" : 832,
     "referenced_type" : "_ZTIPFvP5UTextE"
    }
   ],
   "linker_set_key" : "_ZTI10UTextFuncs",
   "name" : "UTextFuncs",
   "referenced_type" : "_ZTI10UTextFuncs",
   "self_type" : "_ZTI10UTextFuncs",
   "size" : 112,
   "source_file" : "external/icu/icu4c/source/common/unicode/utext.h"
  },
  {
   "alignment" : 8,
   "fields" :
   [
    {
     "field_name" : "ptr0",
     "referenced_type" : "_ZTIPKv"
    },
    {
     "field_name" : "ptr16",
     "referenced_type" : "_ZTIPKt"
    },
    {
     "field_name" : "ptr32",
     "referenced_type" : "_ZTIPKj"
    },
    {
     "field_name" : "ptr8",
     "referenced_type" : "_ZTIPKh"
    }
   ],
   "linker_set_key" : "_ZTI11UCPTrieData",
   "name" : "UCPTrieData",
   "record_kind" : "union",
   "referenced_type" : "_ZTI11UCPTrieData",
   "self_type" : "_ZTI11UCPTrieData",
   "size" : 8,
   "source_file" : "external/icu/icu4c/source/common/unicode/ucptrie.h"
  },
  {
   "alignment" : 4,
   "fields" :
   [
    {
     "field_name" : "line",
     "referenced_type" : "_ZTIi"
    },
    {
     "field_name" : "offset",
     "field_offset" : 32,
     "referenced_type" : "_ZTIi"
    },
    {
     "field_name" : "preContext",
     "field_offset" : 64,
     "referenced_type" : "_ZTIA16_Ds"
    },
    {
     "field_name" : "postContext",
     "field_offset" : 320,
     "referenced_type" : "_ZTIA16_Ds"
    }
   ],
   "linker_set_key" : "_ZTI11UParseError",
   "name" : "UParseError",
   "referenced_type" : "_ZTI11UParseError",
   "self_type" : "_ZTI11UParseError",
   "size" : 72,
   "source_file" : "external/icu/icu4c/source/common/unicode/parseerr.h"
  },
  {
   "alignment" : 16,
   "fields" :
   [
    {
     "field_name" : "__clang_max_align_nonce1",
     "referenced_type" : "_ZTIx"
    },
    {
     "field_name" : "__clang_max_align_nonce2",
     "field_offset" : 128,
     "referenced_type" : "_ZTIe"
    }
   ],
   "linker_set_key" : "_ZTI11max_align_t",
   "name" : "max_align_t",
   "referenced_type" : "_ZTI11max_align_t",
   "self_type" : "_ZTI11max_align_t",
   "size" : 32,
   "source_file" : "prebuilts/clang-tools/linux-x86/clang-headers/__stddef_max_align_t.h"
  },
  {
   "alignment" : 8,
   "fields" :
   [
    {
     "field_name" : "context",
     "referenced_type" : "_ZTIPKv"
    },
    {
     "field_name" : "length",
     "field_offset" : 64,
     "referenced_type" : "_ZTIi"
    },
    {
     "field_name" : "start",
     "field_offset" : 96,
     "referenced_type" : "_ZTIi"
    },
    {
     "field_name" : "index",
     "field_offset" : 128,
     "referenced_type" : "_ZTIi"
    },
    {
     "field_name" : "limit",
     "field_offset" : 160,
     "referenced_type" : "_ZTIi"
    },
    {
     "field_name" : "reservedField",
     "field_offset" : 192,
     "referenced_type" : "_ZTIi"
    },
    {
     "field_name" : "getIndex",
     "field_offset" : 256,
     "referenced_type" : "_ZTIPFiP13UCharIterator19UCharIteratorOriginE"
    },
    {
     "field_name" : "move",
     "field_offset" : 320,
     "referenced_type" : "_ZTIPFiP13UCharIteratori19UCharIteratorOriginE"
    },
    {
     "field_name" : "hasNext",
     "field_offset" : 384,
     "referenced_type" : "_ZTIPFaP13UCharIteratorE"
    },
    {
     "field_name" : "hasPrevious",
     "field_offset" : 448,
     "referenced_type" : "_ZTIPFaP13UCharIteratorE"
    },
    {
     "field_name" : "current",
     "field_offset" : 512,
     "referenced_type" : "_ZTIPFiP13UCharIteratorE"
    },
    {
     "field_name" : "next",
     "field_offset" : 576,
     "referenced_type" : "_ZTIPFiP13UCharIteratorE"
    },
    {
     "field_name" : "previous",
     "field_offset" : 640,
     "referenced_type" : "_ZTIPFiP13UCharIteratorE"
    },
    {
     "field_name" : "reservedFn",
     "field_offset" : 704,
     "referenced_type" : "_ZTIPFiP13UCharIteratoriE"
    },
    {
     "field_name" : "getState",
     "field_offset" : 768,
     "referenced_type" : "_ZTIPFjPK13UCharIteratorE"
    },
    {
     "field_name" : "setState",
     "field_offset" : 832,
     "referenced_type" : "_ZTIPFvP13UCharIteratorjP10UErrorCodeE"
    }
   ],
   "linker_set_key" : "_ZTI13UCharIterator",
   "name" : "UCharIterator",
   "referenced_type" : "_ZTI13UCharIterator",
   "self_type" : "_ZTI13UCharIterator",
   "size" : 112,
   "source_file" : "external/icu/icu4c/source/common/unicode/uiter.h"
  },
  {
   "alignment" : 4,
   "fields" :
   [
    {
     "field_name" : "field",
     "referenced_type" : "_ZTIi"
    },
    {
     "field_name" : "beginIndex",
     "field_offset" : 32,
     "referenced_type" : "_ZTIi"
    },
    {
     "field_name" : "endIndex",
     "field_offset" : 64,
     "referenced_type" : "_ZTIi"
    }
   ],
   "linker_set_key" : "_ZTI14UFieldPosition",
   "name" : "UFieldPosition",
   "referenced_type" : "_ZTI14UFieldPosition",
   "self_type" : "_ZTI14UFieldPosition",
   "size" : 12,
   "source_file" : "external/icu/icu4c/source/common/unicode/umisc.h"
  },
  {
   "alignment" : 8,
   "fields" :
   [
    {
     "field_name" : "array",
     "referenced_type" : "_ZTIPKt"
    },
    {
     "field_name" : "bmpLength",
     "field_offset" : 64,
     "referenced_type" : "_ZTIi"
    },
    {
     "field_name" : "length",
     "field_offset" : 96,
     "referenced_type" : "_ZTIi"
    },
    {
     "field_name" : "staticArray",
     "field_offset" : 128,
     "referenced_type" : "_ZTIA8_t"
    }
   ],
   "linker_set_key" : "_ZTI14USerializedSet",
   "name" : "USerializedSet",
   "referenced_type" : "_ZTI14USerializedSet",
   "self_type" : "_ZTI14USerializedSet",
   "size" : 32,
   "source_file" : "external/icu/icu4c/source/common/unicode/uset.h"
  },
  {
   "alignment" : 4,
   "fields" :
   [
    {
     "field_name" : "contextStart",
     "referenced_type" : "_ZTIi"
    },
    {
     "field_name" : "contextLimit",
     "field_offset" : 32,
     "referenced_type" : "_ZTIi"
    },
    {
     "field_name" : "start",
     "field_offset" : 64,
     "referenced_type" : "_ZTIi"
    },
    {
     "field_name" : "limit",
     "field_offset" : 96,
     "referenced_type" : "_ZTIi"
    }
   ],
   "linker_set_key" : "_ZTI14UTransPosition",
   "name" : "UTransPosition",
   "referenced_type" : "_ZTI14UTransPosition",
   "self_type" : "_ZTI14UTransPosition",
   "size" : 16,
   "source_file" : "external/icu/icu4c/source/i18n/unicode/utrans.h"
  },
  {
   "alignment" : 8,
   "fields" :
   [
    {
     "field_name" : "length",
     "referenced_type" : "_ZTIPFiPKPvE"
    },
    {
     "field_name" : "charAt",
     "field_offset" : 64,
     "referenced_type" : "_ZTIPFDsPKPviE"
    },
    {
     "field_name" : "char32At",
     "field_offset" : 128,
     "referenced_type" : "_ZTIPFiPKPviE"
    },
    {
     "field_name" : "replace",
     "field_offset" : 192,
     "referenced_type" : "_ZTIPFvPPviiPKDsiE"
    },
    {
     "field_name" : "extract",
     "field_offset" : 256,
     "referenced_type" : "_ZTIPFvPPviiPDsE"
    },
    {
     "field_name" : "copy",
     "field_offset" : 320,
     "referenced_type" : "_ZTIPFvPPviiiE"
    }
   ],
   "linker_set_key" : "_ZTI21UReplaceableCallbacks",
   "name" : "UReplaceableCallbacks",
   "referenced_type" : "_ZTI21UReplaceableCallbacks",
   "self_type" : "_ZTI21UReplaceableCallbacks",
   "size" : 48,
   "source_file" : "external/icu/icu4c/source/common/unicode/urep.h"
  },
  {
   "alignment" : 8,
   "fields" :
   [
    {
     "field_name" : "size",
     "referenced_type" : "_ZTIt"
    },
    {
     "field_name" : "flush",
     "field_offset" : 16,
     "referenced_type" : "_ZTIa"
    },
    {
     "field_name" : "converter",
     "field_offset" : 64,
     "referenced_type" : "_ZTIP10UConverter"
    },
    {
     "field_name" : "source",
     "field_offset" : 128,
     "referenced_type" : "_ZTIPKc"
    },
    {
     "field_name" : "sourceLimit",
     "field_offset" : 192,
     "referenced_type" : "_ZTIPKc"
    },
    {
     "field_name" : "target",
     "field_offset" : 256,
     "referenced_type" : "_ZTIPDs"
    },
    {
     "field_name" : "targetLimit",
     "field_offset" : 320,
     "referenced_type" : "_ZTIPKDs"
    },
    {
     "field_name" : "offsets",
     "field_offset" : 384,
     "referenced_type" : "_ZTIPi"
    }
   ],
   "linker_set_key" : "_ZTI23UConverterToUnicodeArgs",
   "name" : "UConverterToUnicodeArgs",
   "referenced_type" : "_ZTI23UConverterToUnicodeArgs",
   "self_type" : "_ZTI23UConverterToUnicodeArgs",
   "size" : 56,
   "source_file" : "external/icu/icu4c/source/common/unicode/ucnv_err.h"
  },
  {
   "alignment" : 8,
   "fields" :
   [
    {
     "field_name" : "size",
     "referenced_type" : "_ZTIt"
    },
    {
     "field_name" : "flush",
     "field_offset" : 16,
     "referenced_type" : "_ZTIa"
    },
    {
     "field_name" : "converter",
     "field_offset" : 64,
     "referenced_type" : "_ZTIP10UConverter"
    },
    {
     "field_name" : "source",
     "field_offset" : 128,
     "referenced_type" : "_ZTIPKDs"
    },
    {
     "field_name" : "sourceLimit",
     "field_offset" : 192,
     "referenced_type" : "_ZTIPKDs"
    },
    {
     "field_name" : "target",
     "field_offset" : 256,
     "referenced_type" : "_ZTIPc"
    },
    {
     "field_name" : "targetLimit",
     "field_offset" : 320,
     "referenced_type" : "_ZTIPKc"
    },
    {
     "field_name" : "offsets",
     "field_offset" : 384,
     "referenced_type" : "_ZTIPi"
    }
   ],
   "linker_set_key" : "_ZTI25UConverterFromUnicodeArgs",
   "name" : "UConverterFromUnicodeArgs",
   "referenced_type" : "_ZTI25UConverterFromUnicodeArgs",
   "self_type" : "_ZTI25UConverterFromUnicodeArgs",
   "size" : 56,
   "source_file" : "external/icu/icu4c/source/common/unicode/ucnv_err.h"
  },
  {
   "alignment" : 8,
   "fields" :
   [
    {
     "field_name" : "magic",
     "referenced_type" : "_ZTIj"
    },
    {
     "field_name" : "flags",
     "field_offset" : 32,
     "referenced_type" : "_ZTIi"
    },
    {
     "field_name" : "providerProperties",
     "field_offset" : 64,
     "referenced_type" : "_ZTIi"
    },
    {
     "field_name" : "sizeOfStruct",
     "field_offset" : 96,
     "referenced_type" : "_ZTIi"
    },
    {
     "field_name" : "chunkNativeLimit",
     "field_offset" : 128,
     "referenced_type" : "_ZTIl"
    },
    {
     "field_name" : "extraSize",
     "field_offset" : 192,
     "referenced_type" : "_ZTIi"
    },
    {
     "field_name" : "nativeIndexingLimit",
     "field_offset" : 224,
     "referenced_type" : "_ZTIi"
    },
    {
     "field_name" : "chunkNativeStart",
     "field_offset" : 256,
     "referenced_type" : "_ZTIl"
    },
    {
     "field_name" : "chunkOffset",
     "field_offset" : 320,
     "referenced_type" : "_ZTIi"
    },
    {
     "field_name" : "chunkLength",
     "field_offset" : 352,
     "referenced_type" : "_ZTIi"
    },
    {
     "field_name" : "chunkContents",
     "field_offset" : 384,
     "referenced_type" : "_ZTIPKDs"
    },
    {
     "field_name" : "pFuncs",
     "field_offset" : 448,
     "referenced_type" : "_ZTIPK10UTextFuncs"
    },
    {
     "field_name" : "pExtra",
     "field_offset" : 512,
     "referenced_type" : "_ZTIPv"
    },
    {
     "field_name" : "context",
     "field_offset" : 576,
     "referenced_type" : "_ZTIPKv"
    },
    {
     "field_name" : "p",
     "field_offset" : 640,
     "referenced_type" : "_ZTIPKv"
    },
    {
     "field_name" : "q",
     "field_offset" : 704,
     "referenced_type" : "_ZTIPKv"
    },
    {
     "field_name" : "r",
     "field_offset" : 768,
     "referenced_type" : "_ZTIPKv"
    },
    {
     "field_name" : "privP",
     "field_offset" : 832,
     "referenced_type" : "_ZTIPv"
    },
    {
     "field_name" : "a",
     "field_offset" : 896,
     "referenced_type" : "_ZTIl"
    },
    {
     "field_name" : "b",
     "field_offset" : 960,
     "referenced_type" : "_ZTIi"
    },
    {
     "field_name" : "c",
     "field_offset" : 992,
     "referenced_type" : "_ZTIi"
    },
    {
     "field_name" : "privA",
     "field_offset" : 1024,
     "referenced_type" : "_ZTIl"
    },
    {
     "field_name" : "privB",
     "field_offset" : 1088,
     "referenced_type" : "_ZTIi"
    },
    {
     "field_name" : "privC",
     "field_offset" : 1120,
     "referenced_type" : "_ZTIi"
    }
   ],
   "linker_set_key" : "_ZTI5UText",
   "name" : "UText",
   "referenced_type" : "_ZTI5UText",
   "self_type" : "_ZTI5UText",
   "size" : 144,
   "source_file" : "external/icu/icu4c/source/common/unicode/utext.h"
  },
  {
   "alignment" : 8,
   "fields" :
   [
    {
     "field_name" : "index",
     "referenced_type" : "_ZTIPKt"
    },
    {
     "field_name" : "data",
     "field_offset" : 64,
     "referenced_type" : "_ZTI11UCPTrieData"
    },
    {
     "field_name" : "indexLength",
     "field_offset" : 128,
     "referenced_type" : "_ZTIi"
    },
    {
     "field_name" : "dataLength",
     "field_offset" : 160,
     "referenced_type" : "_ZTIi"
    },
    {
     "field_name" : "highStart",
     "field_offset" : 192,
     "referenced_type" : "_ZTIi"
    },
    {
     "field_name" : "shifted12HighStart",
     "field_offset" : 224,
     "referenced_type" : "_ZTIt"
    },
    {
     "field_name" : "type",
     "field_offset" : 240,
     "referenced_type" : "_ZTIa"
    },
    {
     "field_name" : "valueWidth",
     "field_offset" : 248,
     "referenced_type" : "_ZTIa"
    },
    {
     "field_name" : "reserved32",
     "field_offset" : 256,
     "referenced_type" : "_ZTIj"
    },
    {
     "field_name" : "reserved16",
     "field_offset" : 288,
     "referenced_type" : "_ZTIt"
    },
    {
     "field_name" : "index3NullOffset",
     "field_offset" : 304,
     "referenced_type" : "_ZTIt"
    },
    {
     "field_name" : "dataNullOffset",
     "field_offset" : 320,
     "referenced_type" : "_ZTIi"
    },
    {
     "field_name" : "nullValue",
     "field_offset" : 352,
     "referenced_type" : "_ZTIj"
    }
   ],
   "linker_set_key" : "_ZTI7UCPTrie",
   "name" : "UCPTrie",
   "referenced_type" : "_ZTI7UCPTrie",
   "self_type" : "_ZTI7UCPTrie",
   "size" : 48,
   "source_file" : "external/icu/icu4c/source/common/unicode/ucptrie.h"
  },
  {
   "alignment" : 2,
   "fields" :
   [
    {
     "field_name" : "size",
     "referenced_type" : "_ZTIt"
    },
    {
     "field_name" : "reservedWord",
     "field_offset" : 16,
     "referenced_type" : "_ZTIt"
    },
    {
     "field_name" : "isBigEndian",
     "field_offset" : 32,
     "referenced_type" : "_ZTIh"
    },
    {
     "field_name" : "charsetFamily",
     "field_offset" : 40,
     "referenced_type" : "_ZTIh"
    },
    {
     "field_name" : "sizeofUChar",
     "field_offset" : 48,
     "referenced_type" : "_ZTIh"
    },
    {
     "field_name" : "reservedByte",
     "field_offset" : 56,
     "referenced_type" : "_ZTIh"
    },
    {
     "field_name" : "dataFormat",
     "field_offset" : 64,
     "referenced_type" : "_ZTIA4_h"
    },
    {
     "field_name" : "formatVersion",
     "field_offset" : 96,
     "referenced_type" : "_ZTIA4_h"
    },
    {
     "field_name" : "dataVersion",
     "field_offset" : 128,
     "referenced_type" : "_ZTIA4_h"
    }
   ],
   "linker_set_key" : "_ZTI9UDataInfo",
   "name" : "UDataInfo",
   "referenced_type" : "_ZTI9UDataInfo",
   "self_type" : "_ZTI9UDataInfo",
   "size" : 20,
   "source_file" : "external/icu/icu4c/source/common/unicode/udata.h"
  },
  {
   "alignment" : 4,
   "fields" :
   [
    {
     "field_name" : "size",
     "referenced_type" : "_ZTIs"
    },
    {
     "field_name" : "isTransitionalDifferent",
     "field_offset" : 16,
     "referenced_type" : "_ZTIa"
    },
    {
     "field_name" : "reservedB3",
     "field_offset" : 24,
     "referenced_type" : "_ZTIa"
    },
    {
     "field_name" : "errors",
     "field_offset" : 32,
     "referenced_type" : "_ZTIj"
    },
    {
     "field_name" : "reservedI2",
     "field_offset" : 64,
     "referenced_type" : "_ZTIi"
    },
    {
     "field_name" : "reservedI3",
     "field_offset" : 96,
     "referenced_type" : "_ZTIi"
    }
   ],
   "linker_set_key" : "_ZTI9UIDNAInfo",
   "name" : "UIDNAInfo",
   "referenced_type" : "_ZTI9UIDNAInfo",
   "self_type" : "_ZTI9UIDNAInfo",
   "size" : 16,
   "source_file" : "external/icu/icu4c/source/common/unicode/uidna.h"
  }
 ],
 "rvalue_reference_types" : []
}
