{
 "array_types" :
 [
  {
   "alignment" : 4,
   "linker_set_key" : "_ZTIA10_i",
   "name" : "int [10]",
   "referenced_type" : "_ZTIi",
   "self_type" : "_ZTIA10_i",
   "size" : 40,
   "source_file" : "bionic/libc/include/bits/pthread_types.h"
  },
  {
   "alignment" : 4,
   "linker_set_key" : "_ZTIA12_i",
   "name" : "int [12]",
   "referenced_type" : "_ZTIi",
   "self_type" : "_ZTIA12_i",
   "size" : 48,
   "source_file" : "bionic/libc/include/bits/pthread_types.h"
  },
  {
   "alignment" : 4,
   "linker_set_key" : "_ZTIA14_i",
   "name" : "int [14]",
   "referenced_type" : "_ZTIi",
   "self_type" : "_ZTIA14_i",
   "size" : 56,
   "source_file" : "bionic/libc/include/bits/pthread_types.h"
  },
  {
   "alignment" : 8,
   "linker_set_key" : "_ZTIA16_PKc",
   "name" : "const char *[16]",
   "referenced_type" : "_ZTIPKc",
   "self_type" : "_ZTIA16_PKc",
   "size" : 128,
   "source_file" : "external/scudo/standalone/flags_parser.cpp"
  },
  {
   "alignment" : 1,
   "linker_set_key" : "_ZTIA16_c",
   "name" : "char [16]",
   "referenced_type" : "_ZTIc",
   "self_type" : "_ZTIA16_c",
   "size" : 16,
   "source_file" : "bionic/libc/include/bits/pthread_types.h"
  },
  {
   "alignment" : 8,
   "linker_set_key" : "_ZTIA16_m",
   "name" : "unsigned long [16]",
   "referenced_type" : "_ZTIm",
   "self_type" : "_ZTIA16_m",
   "size" : 128,
   "source_file" : "bionic/libc/kernel/uapi/linux/posix_types.h"
  },
  {
   "alignment" : 8,
   "linker_set_key" : "_ZTIA20_N5scudo10FlagParser4FlagE",
   "name" : "scudo::FlagParser::Flag [20]",
   "referenced_type" : "_ZTIN5scudo10FlagParser4FlagE",
   "self_type" : "_ZTIA20_N5scudo10FlagParser4FlagE",
   "size" : 640,
   "source_file" : "external/scudo/standalone/flags_parser.h"
  },
  {
   "alignment" : 4,
   "linker_set_key" : "_ZTIA2_i",
   "name" : "int [2]",
   "referenced_type" : "_ZTIi",
   "self_type" : "_ZTIA2_i",
   "size" : 8,
   "source_file" : "bionic/libc/kernel/uapi/asm-generic/posix_types.h"
  },
  {
   "alignment" : 8,
   "linker_set_key" : "_ZTIA4_l",
   "name" : "long [4]",
   "referenced_type" : "_ZTIl",
   "self_type" : "_ZTIA4_l",
   "size" : 32,
   "source_file" : "bionic/libc/include/bits/pthread_types.h"
  }
 ],
 "builtin_types" :
 [
  {
   "alignment" : 1,
   "is_integral" : true,
   "is_unsigned" : true,
   "linker_set_key" : "_ZTIb",
   "name" : "bool",
   "referenced_type" : "_ZTIb",
   "self_type" : "_ZTIb",
   "size" : 1
  },
  {
   "alignment" : 1,
   "is_integral" : true,
   "is_unsigned" : true,
   "linker_set_key" : "_ZTIc",
   "name" : "char",
   "referenced_type" : "_ZTIc",
   "self_type" : "_ZTIc",
   "size" : 1
  },
  {
   "alignment" : 16,
   "linker_set_key" : "_ZTIe",
   "name" : "long double",
   "referenced_type" : "_ZTIe",
   "self_type" : "_ZTIe",
   "size" : 16
  },
  {
   "alignment" : 1,
   "is_integral" : true,
   "is_unsigned" : true,
   "linker_set_key" : "_ZTIh",
   "name" : "unsigned char",
   "referenced_type" : "_ZTIh",
   "self_type" : "_ZTIh",
   "size" : 1
  },
  {
   "alignment" : 4,
   "is_integral" : true,
   "linker_set_key" : "_ZTIi",
   "name" : "int",
   "referenced_type" : "_ZTIi",
   "self_type" : "_ZTIi",
   "size" : 4
  },
  {
   "alignment" : 4,
   "is_integral" : true,
   "is_unsigned" : true,
   "linker_set_key" : "_ZTIj",
   "name" : "unsigned int",
   "referenced_type" : "_ZTIj",
   "self_type" : "_ZTIj",
   "size" : 4
  },
  {
   "alignment" : 8,
   "is_integral" : true,
   "linker_set_key" : "_ZTIl",
   "name" : "long",
   "referenced_type" : "_ZTIl",
   "self_type" : "_ZTIl",
   "size" : 8
  },
  {
   "alignment" : 8,
   "is_integral" : true,
   "is_unsigned" : true,
   "linker_set_key" : "_ZTIm",
   "name" : "unsigned long",
   "referenced_type" : "_ZTIm",
   "self_type" : "_ZTIm",
   "size" : 8
  },
  {
   "linker_set_key" : "_ZTIv",
   "name" : "void",
   "referenced_type" : "_ZTIv",
   "self_type" : "_ZTIv"
  },
  {
   "alignment" : 8,
   "is_integral" : true,
   "linker_set_key" : "_ZTIx",
   "name" : "long long",
   "referenced_type" : "_ZTIx",
   "self_type" : "_ZTIx",
   "size" : 8
  }
 ],
 "elf_functions" : [],
 "elf_objects" : [],
 "enum_types" :
 [
  {
   "alignment" : 4,
   "enum_fields" :
   [
    {
     "enum_field_value" : 0,
     "name" : "M_HEAP_TAGGING_LEVEL_NONE"
    },
    {
     "enum_field_value" : 1,
     "name" : "M_HEAP_TAGGING_LEVEL_TBI"
    },
    {
     "enum_field_value" : 2,
     "name" : "M_HEAP_TAGGING_LEVEL_ASYNC"
    },
    {
     "enum_field_value" : 3,
     "name" : "M_HEAP_TAGGING_LEVEL_SYNC"
    }
   ],
   "linker_set_key" : "_ZTI16HeapTaggingLevel",
   "name" : "HeapTaggingLevel",
   "referenced_type" : "_ZTI16HeapTaggingLevel",
   "self_type" : "_ZTI16HeapTaggingLevel",
   "size" : 4,
   "source_file" : "bionic/libc/include/malloc.h",
   "underlying_type" : "_ZTIj"
  },
  {
   "alignment" : 1,
   "enum_fields" :
   [
    {
     "enum_field_value" : 0,
     "name" : "scudo::AllocatorAction::Recycling"
    },
    {
     "enum_field_value" : 1,
     "name" : "scudo::AllocatorAction::Deallocating"
    },
    {
     "enum_field_value" : 2,
     "name" : "scudo::AllocatorAction::Reallocating"
    },
    {
     "enum_field_value" : 3,
     "name" : "scudo::AllocatorAction::Sizing"
    }
   ],
   "linker_set_key" : "_ZTIN5scudo15AllocatorActionE",
   "name" : "scudo::AllocatorAction",
   "referenced_type" : "_ZTIN5scudo15AllocatorActionE",
   "self_type" : "_ZTIN5scudo15AllocatorActionE",
   "size" : 1,
   "source_file" : "external/scudo/standalone/report.h",
   "underlying_type" : "_ZTIh"
  },
  {
   "alignment" : 4,
   "enum_fields" :
   [
    {
     "enum_field_value" : 0,
     "name" : "scudo::NoFill"
    },
    {
     "enum_field_value" : 1,
     "name" : "scudo::ZeroFill"
    },
    {
     "enum_field_value" : 2,
     "name" : "scudo::PatternOrZeroFill"
    }
   ],
   "linker_set_key" : "_ZTIN5scudo16FillContentsModeE",
   "name" : "scudo::FillContentsMode",
   "referenced_type" : "_ZTIN5scudo16FillContentsModeE",
   "self_type" : "_ZTIN5scudo16FillContentsModeE",
   "size" : 4,
   "source_file" : "external/scudo/standalone/common.h",
   "underlying_type" : "_ZTIj"
  },
  {
   "alignment" : 1,
   "enum_fields" :
   [
    {
     "enum_field_value" : 0,
     "name" : "scudo::Option::ReleaseInterval"
    },
    {
     "enum_field_value" : 1,
     "name" : "scudo::Option::MemtagTuning"
    },
    {
     "enum_field_value" : 2,
     "name" : "scudo::Option::ThreadDisableMemInit"
    },
    {
     "enum_field_value" : 3,
     "name" : "scudo::Option::MaxCacheEntriesCount"
    },
    {
     "enum_field_value" : 4,
     "name" : "scudo::Option::MaxCacheEntrySize"
    },
    {
     "enum_field_value" : 5,
     "name" : "scudo::Option::MaxTSDsCount"
    }
   ],
   "linker_set_key" : "_ZTIN5scudo6OptionE",
   "name" : "scudo::Option",
   "referenced_type" : "_ZTIN5scudo6OptionE",
   "self_type" : "_ZTIN5scudo6OptionE",
   "size" : 1,
   "source_file" : "external/scudo/standalone/common.h",
   "underlying_type" : "_ZTIh"
  },
  {
   "alignment" : 1,
   "enum_fields" :
   [
    {
     "enum_field_value" : 0,
     "name" : "scudo::FlagType::FT_bool"
    },
    {
     "enum_field_value" : 1,
     "name" : "scudo::FlagType::FT_int"
    }
   ],
   "linker_set_key" : "_ZTIN5scudo8FlagTypeE",
   "name" : "scudo::FlagType",
   "referenced_type" : "_ZTIN5scudo8FlagTypeE",
   "self_type" : "_ZTIN5scudo8FlagTypeE",
   "size" : 1,
   "source_file" : "external/scudo/standalone/flags_parser.h",
   "underlying_type" : "_ZTIh"
  }
 ],
 "function_types" :
 [
  {
   "alignment" : 4,
   "linker_set_key" : "_ZTIFPvS_mPKvE",
   "name" : "void *(void *, unsigned long, const void *)",
   "parameters" :
   [
    {
     "referenced_type" : "_ZTIPv"
    },
    {
     "referenced_type" : "_ZTIm"
    },
    {
     "referenced_type" : "_ZTIPKv"
    }
   ],
   "referenced_type" : "_ZTIFPvS_mPKvE",
   "return_type" : "_ZTIPv",
   "self_type" : "_ZTIFPvS_mPKvE",
   "source_file" : "bionic/libc/include/malloc.h"
  },
  {
   "alignment" : 4,
   "linker_set_key" : "_ZTIFPvmPKvE",
   "name" : "void *(unsigned long, const void *)",
   "parameters" :
   [
    {
     "referenced_type" : "_ZTIm"
    },
    {
     "referenced_type" : "_ZTIPKv"
    }
   ],
   "referenced_type" : "_ZTIFPvmPKvE",
   "return_type" : "_ZTIPv",
   "self_type" : "_ZTIFPvmPKvE",
   "source_file" : "bionic/libc/include/malloc.h"
  },
  {
   "alignment" : 4,
   "linker_set_key" : "_ZTIFPvmmPKvE",
   "name" : "void *(unsigned long, unsigned long, const void *)",
   "parameters" :
   [
    {
     "referenced_type" : "_ZTIm"
    },
    {
     "referenced_type" : "_ZTIm"
    },
    {
     "referenced_type" : "_ZTIPKv"
    }
   ],
   "referenced_type" : "_ZTIFPvmmPKvE",
   "return_type" : "_ZTIPv",
   "self_type" : "_ZTIFPvmmPKvE",
   "source_file" : "bionic/libc/include/malloc.h"
  },
  {
   "alignment" : 4,
   "linker_set_key" : "_ZTIFvPvPKvE",
   "name" : "void (void *, const void *)",
   "parameters" :
   [
    {
     "referenced_type" : "_ZTIPv"
    },
    {
     "referenced_type" : "_ZTIPKv"
    }
   ],
   "referenced_type" : "_ZTIFvPvPKvE",
   "return_type" : "_ZTIv",
   "self_type" : "_ZTIFvPvPKvE",
   "source_file" : "bionic/libc/include/malloc.h"
  }
 ],
 "functions" :
 [
  {
   "function_name" : "__bionic_memchr",
   "linker_set_key" : "_Z15__bionic_memchrPKvU17pass_object_size1im",
   "parameters" :
   [
    {
     "referenced_type" : "_ZTIKPKv"
    },
    {
     "referenced_type" : "_ZTIi"
    },
    {
     "referenced_type" : "_ZTIm"
    }
   ],
   "return_type" : "_ZTIPv",
   "source_file" : "bionic/libc/include/string.h"
  },
  {
   "function_name" : "__bionic_strchr",
   "linker_set_key" : "_Z15__bionic_strchrPKcU17pass_object_size1i",
   "parameters" :
   [
    {
     "referenced_type" : "_ZTIKPKc"
    },
    {
     "referenced_type" : "_ZTIi"
    }
   ],
   "return_type" : "_ZTIPc",
   "source_file" : "bionic/libc/include/string.h"
  },
  {
   "function_name" : "__bionic_strstr",
   "linker_set_key" : "_Z15__bionic_strstrPKcS0_",
   "parameters" :
   [
    {
     "referenced_type" : "_ZTIPKc"
    },
    {
     "referenced_type" : "_ZTIPKc"
    }
   ],
   "return_type" : "_ZTIPc",
   "source_file" : "bionic/libc/include/string.h"
  },
  {
   "function_name" : "__bionic_strpbrk",
   "linker_set_key" : "_Z16__bionic_strpbrkPKcS0_",
   "parameters" :
   [
    {
     "referenced_type" : "_ZTIPKc"
    },
    {
     "referenced_type" : "_ZTIPKc"
    }
   ],
   "return_type" : "_ZTIPc",
   "source_file" : "bionic/libc/include/string.h"
  },
  {
   "function_name" : "__bionic_strrchr",
   "linker_set_key" : "_Z16__bionic_strrchrPKcU17pass_object_size1i",
   "parameters" :
   [
    {
     "referenced_type" : "_ZTIKPKc"
    },
    {
     "referenced_type" : "_ZTIi"
    }
   ],
   "return_type" : "_ZTIPc",
   "source_file" : "bionic/libc/include/string.h"
  },
  {
   "function_name" : "memchr",
   "linker_set_key" : "_Z6memchrUa9enable_ifIXLb1EEXLb1EEEPKvU17pass_object_size1im",
   "parameters" :
   [
    {
     "referenced_type" : "_ZTIKPKv"
    },
    {
     "referenced_type" : "_ZTIi"
    },
    {
     "referenced_type" : "_ZTIm"
    }
   ],
   "return_type" : "_ZTIPKv",
   "source_file" : "bionic/libc/include/string.h"
  },
  {
   "function_name" : "memchr",
   "linker_set_key" : "_Z6memchrUa9enable_ifIXLb1EEXLb1EEEPvU17pass_object_size1im",
   "parameters" :
   [
    {
     "referenced_type" : "_ZTIKPv"
    },
    {
     "referenced_type" : "_ZTIi"
    },
    {
     "referenced_type" : "_ZTIm"
    }
   ],
   "return_type" : "_ZTIPv",
   "source_file" : "bionic/libc/include/string.h"
  },
  {
   "function_name" : "strchr",
   "linker_set_key" : "_Z6strchrUa9enable_ifIXLb1EEXLb1EEEPKcU17pass_object_size1i",
   "parameters" :
   [
    {
     "referenced_type" : "_ZTIKPKc"
    },
    {
     "referenced_type" : "_ZTIi"
    }
   ],
   "return_type" : "_ZTIPKc",
   "source_file" : "bionic/libc/include/string.h"
  },
  {
   "function_name" : "strchr",
   "linker_set_key" : "_Z6strchrUa9enable_ifIXLb1EEXLb1EEEPcU17pass_object_size1i",
   "parameters" :
   [
    {
     "referenced_type" : "_ZTIKPc"
    },
    {
     "referenced_type" : "_ZTIi"
    }
   ],
   "return_type" : "_ZTIPc",
   "source_file" : "bionic/libc/include/string.h"
  },
  {
   "function_name" : "strstr",
   "linker_set_key" : "_Z6strstrUa9enable_ifIXLb1EEXLb1EEEPKcS0_",
   "parameters" :
   [
    {
     "referenced_type" : "_ZTIPKc"
    },
    {
     "referenced_type" : "_ZTIPKc"
    }
   ],
   "return_type" : "_ZTIPKc",
   "source_file" : "bionic/libc/include/string.h"
  },
  {
   "function_name" : "strstr",
   "linker_set_key" : "_Z6strstrUa9enable_ifIXLb1EEXLb1EEEPcPKc",
   "parameters" :
   [
    {
     "referenced_type" : "_ZTIPc"
    },
    {
     "referenced_type" : "_ZTIPKc"
    }
   ],
   "return_type" : "_ZTIPc",
   "source_file" : "bionic/libc/include/string.h"
  },
  {
   "function_name" : "strpbrk",
   "linker_set_key" : "_Z7strpbrkUa9enable_ifIXLb1EEXLb1EEEPKcS0_",
   "parameters" :
   [
    {
     "referenced_type" : "_ZTIPKc"
    },
    {
     "referenced_type" : "_ZTIPKc"
    }
   ],
   "return_type" : "_ZTIPKc",
   "source_file" : "bionic/libc/include/string.h"
  },
  {
   "function_name" : "strpbrk",
   "linker_set_key" : "_Z7strpbrkUa9enable_ifIXLb1EEXLb1EEEPcPKc",
   "parameters" :
   [
    {
     "referenced_type" : "_ZTIPc"
    },
    {
     "referenced_type" : "_ZTIPKc"
    }
   ],
   "return_type" : "_ZTIPc",
   "source_file" : "bionic/libc/include/string.h"
  },
  {
   "function_name" : "strrchr",
   "linker_set_key" : "_Z7strrchrUa9enable_ifIXLb1EEXLb1EEEPKcU17pass_object_size1i",
   "parameters" :
   [
    {
     "referenced_type" : "_ZTIKPKc"
    },
    {
     "referenced_type" : "_ZTIi"
    }
   ],
   "return_type" : "_ZTIPKc",
   "source_file" : "bionic/libc/include/string.h"
  },
  {
   "function_name" : "strrchr",
   "linker_set_key" : "_Z7strrchrUa9enable_ifIXLb1EEXLb1EEEPcU17pass_object_size1i",
   "parameters" :
   [
    {
     "referenced_type" : "_ZTIKPc"
    },
    {
     "referenced_type" : "_ZTIi"
    }
   ],
   "return_type" : "_ZTIPc",
   "source_file" : "bionic/libc/include/string.h"
  },
  {
   "access" : "private",
   "function_name" : "scudo::FlagParser::parseFlags",
   "linker_set_key" : "_ZN5scudo10FlagParser10parseFlagsEv",
   "parameters" :
   [
    {
     "is_this_ptr" : true,
     "referenced_type" : "_ZTIPN5scudo10FlagParserE"
    }
   ],
   "return_type" : "_ZTIv",
   "source_file" : "external/scudo/standalone/flags_parser.h"
  },
  {
   "access" : "private",
   "function_name" : "scudo::FlagParser::runHandler",
   "linker_set_key" : "_ZN5scudo10FlagParser10runHandlerEPKcS2_",
   "parameters" :
   [
    {
     "is_this_ptr" : true,
     "referenced_type" : "_ZTIPN5scudo10FlagParserE"
    },
    {
     "referenced_type" : "_ZTIPKc"
    },
    {
     "referenced_type" : "_ZTIPKc"
    }
   ],
   "return_type" : "_ZTIb",
   "source_file" : "external/scudo/standalone/flags_parser.h"
  },
  {
   "function_name" : "scudo::FlagParser::parseString",
   "linker_set_key" : "_ZN5scudo10FlagParser11parseStringEPKc",
   "parameters" :
   [
    {
     "is_this_ptr" : true,
     "referenced_type" : "_ZTIPN5scudo10FlagParserE"
    },
    {
     "referenced_type" : "_ZTIPKc"
    }
   ],
   "return_type" : "_ZTIv",
   "source_file" : "external/scudo/standalone/flags_parser.h"
  },
  {
   "function_name" : "scudo::FlagParser::registerFlag",
   "linker_set_key" : "_ZN5scudo10FlagParser12registerFlagEPKcS2_NS_8FlagTypeEPv",
   "parameters" :
   [
    {
     "is_this_ptr" : true,
     "referenced_type" : "_ZTIPN5scudo10FlagParserE"
    },
    {
     "referenced_type" : "_ZTIPKc"
    },
    {
     "referenced_type" : "_ZTIPKc"
    },
    {
     "referenced_type" : "_ZTIN5scudo8FlagTypeE"
    },
    {
     "referenced_type" : "_ZTIPv"
    }
   ],
   "return_type" : "_ZTIv",
   "source_file" : "external/scudo/standalone/flags_parser.h"
  },
  {
   "access" : "private",
   "function_name" : "scudo::FlagParser::skipWhitespace",
   "linker_set_key" : "_ZN5scudo10FlagParser14skipWhitespaceEv",
   "parameters" :
   [
    {
     "is_this_ptr" : true,
     "referenced_type" : "_ZTIPN5scudo10FlagParserE"
    }
   ],
   "return_type" : "_ZTIv",
   "source_file" : "external/scudo/standalone/flags_parser.h"
  },
  {
   "function_name" : "scudo::FlagParser::printFlagDescriptions",
   "linker_set_key" : "_ZN5scudo10FlagParser21printFlagDescriptionsEv",
   "parameters" :
   [
    {
     "is_this_ptr" : true,
     "referenced_type" : "_ZTIPN5scudo10FlagParserE"
    }
   ],
   "return_type" : "_ZTIv",
   "source_file" : "external/scudo/standalone/flags_parser.h"
  },
  {
   "access" : "private",
   "function_name" : "scudo::FlagParser::parseFlag",
   "linker_set_key" : "_ZN5scudo10FlagParser9parseFlagEv",
   "parameters" :
   [
    {
     "is_this_ptr" : true,
     "referenced_type" : "_ZTIPN5scudo10FlagParserE"
    }
   ],
   "return_type" : "_ZTIv",
   "source_file" : "external/scudo/standalone/flags_parser.h"
  },
  {
   "function_name" : "scudo::roundDownTo",
   "linker_set_key" : "_ZN5scudo11roundDownToEmm",
   "parameters" :
   [
    {
     "referenced_type" : "_ZTIm"
    },
    {
     "referenced_type" : "_ZTIm"
    }
   ],
   "return_type" : "_ZTIm",
   "source_file" : "external/scudo/standalone/common.h"
  },
  {
   "function_name" : "scudo::ScopedString::data",
   "linker_set_key" : "_ZN5scudo12ScopedString4dataEv",
   "parameters" :
   [
    {
     "is_this_ptr" : true,
     "referenced_type" : "_ZTIPN5scudo12ScopedStringE"
    }
   ],
   "return_type" : "_ZTIPKc",
   "source_file" : "external/scudo/standalone/string_utils.h"
  },
  {
   "function_name" : "scudo::ScopedString::clear",
   "linker_set_key" : "_ZN5scudo12ScopedString5clearEv",
   "parameters" :
   [
    {
     "is_this_ptr" : true,
     "referenced_type" : "_ZTIPN5scudo12ScopedStringE"
    }
   ],
   "return_type" : "_ZTIv",
   "source_file" : "external/scudo/standalone/string_utils.h"
  },
  {
   "function_name" : "scudo::ScopedString::length",
   "linker_set_key" : "_ZN5scudo12ScopedString6lengthEv",
   "parameters" :
   [
    {
     "is_this_ptr" : true,
     "referenced_type" : "_ZTIPN5scudo12ScopedStringE"
    }
   ],
   "return_type" : "_ZTIm",
   "source_file" : "external/scudo/standalone/string_utils.h"
  },
  {
   "function_name" : "scudo::ScopedString::ScopedString",
   "linker_set_key" : "_ZN5scudo12ScopedStringC1Em",
   "parameters" :
   [
    {
     "is_this_ptr" : true,
     "referenced_type" : "_ZTIPN5scudo12ScopedStringE"
    },
    {
     "referenced_type" : "_ZTIm"
    }
   ],
   "return_type" : "_ZTIv",
   "source_file" : "external/scudo/standalone/string_utils.h"
  },
  {
   "function_name" : "scudo::ScopedString::ScopedString",
   "linker_set_key" : "_ZN5scudo12ScopedStringC2Em",
   "parameters" :
   [
    {
     "is_this_ptr" : true,
     "referenced_type" : "_ZTIPN5scudo12ScopedStringE"
    },
    {
     "referenced_type" : "_ZTIm"
    }
   ],
   "return_type" : "_ZTIv",
   "source_file" : "external/scudo/standalone/string_utils.h"
  },
  {
   "access" : "private",
   "function_name" : "scudo::VectorNoCtor<char>::reallocate",
   "linker_set_key" : "_ZN5scudo12VectorNoCtorIcE10reallocateEm",
   "parameters" :
   [
    {
     "is_this_ptr" : true,
     "referenced_type" : "_ZTIPN5scudo12VectorNoCtorIcEE"
    },
    {
     "referenced_type" : "_ZTIm"
    }
   ],
   "return_type" : "_ZTIv",
   "source_file" : "external/scudo/standalone/vector.h"
  },
  {
   "function_name" : "scudo::VectorNoCtor<char>::data",
   "linker_set_key" : "_ZN5scudo12VectorNoCtorIcE4dataEv",
   "parameters" :
   [
    {
     "is_this_ptr" : true,
     "referenced_type" : "_ZTIPN5scudo12VectorNoCtorIcEE"
    }
   ],
   "return_type" : "_ZTIPc",
   "source_file" : "external/scudo/standalone/vector.h"
  },
  {
   "function_name" : "scudo::VectorNoCtor<char>::init",
   "linker_set_key" : "_ZN5scudo12VectorNoCtorIcE4initEm",
   "parameters" :
   [
    {
     "is_this_ptr" : true,
     "referenced_type" : "_ZTIPN5scudo12VectorNoCtorIcEE"
    },
    {
     "referenced_type" : "_ZTIm"
    }
   ],
   "return_type" : "_ZTIv",
   "source_file" : "external/scudo/standalone/vector.h"
  },
  {
   "function_name" : "scudo::VectorNoCtor<char>::resize",
   "linker_set_key" : "_ZN5scudo12VectorNoCtorIcE6resizeEm",
   "parameters" :
   [
    {
     "is_this_ptr" : true,
     "referenced_type" : "_ZTIPN5scudo12VectorNoCtorIcEE"
    },
    {
     "referenced_type" : "_ZTIm"
    }
   ],
   "return_type" : "_ZTIv",
   "source_file" : "external/scudo/standalone/vector.h"
  },
  {
   "function_name" : "scudo::VectorNoCtor<char>::destroy",
   "linker_set_key" : "_ZN5scudo12VectorNoCtorIcE7destroyEv",
   "parameters" :
   [
    {
     "is_this_ptr" : true,
     "referenced_type" : "_ZTIPN5scudo12VectorNoCtorIcEE"
    }
   ],
   "return_type" : "_ZTIv",
   "source_file" : "external/scudo/standalone/vector.h"
  },
  {
   "function_name" : "scudo::VectorNoCtor<char>::reserve",
   "linker_set_key" : "_ZN5scudo12VectorNoCtorIcE7reserveEm",
   "parameters" :
   [
    {
     "is_this_ptr" : true,
     "referenced_type" : "_ZTIPN5scudo12VectorNoCtorIcEE"
    },
    {
     "referenced_type" : "_ZTIm"
    }
   ],
   "return_type" : "_ZTIv",
   "source_file" : "external/scudo/standalone/vector.h"
  },
  {
   "function_name" : "scudo::VectorNoCtor<char>::operator[]",
   "linker_set_key" : "_ZN5scudo12VectorNoCtorIcEixEm",
   "parameters" :
   [
    {
     "is_this_ptr" : true,
     "referenced_type" : "_ZTIPN5scudo12VectorNoCtorIcEE"
    },
    {
     "referenced_type" : "_ZTIm"
    }
   ],
   "return_type" : "_ZTIRc",
   "source_file" : "external/scudo/standalone/vector.h"
  },
  {
   "function_name" : "scudo::getRandomU32",
   "linker_set_key" : "_ZN5scudo12getRandomU32EPj",
   "parameters" :
   [
    {
     "referenced_type" : "_ZTIPj"
    }
   ],
   "return_type" : "_ZTIj",
   "source_file" : "external/scudo/standalone/common.h"
  },
  {
   "function_name" : "scudo::isPowerOfTwo",
   "linker_set_key" : "_ZN5scudo12isPowerOfTwoEm",
   "parameters" :
   [
    {
     "referenced_type" : "_ZTIm"
    }
   ],
   "return_type" : "_ZTIb",
   "source_file" : "external/scudo/standalone/common.h"
  },
  {
   "function_name" : "scudo::getRandomModN",
   "linker_set_key" : "_ZN5scudo13getRandomModNEPjj",
   "parameters" :
   [
    {
     "referenced_type" : "_ZTIPj"
    },
    {
     "referenced_type" : "_ZTIj"
    }
   ],
   "return_type" : "_ZTIj",
   "source_file" : "external/scudo/standalone/common.h"
  },
  {
   "function_name" : "scudo::yieldProcessor",
   "linker_set_key" : "_ZN5scudo14yieldProcessorEh",
   "parameters" :
   [
    {
     "referenced_type" : "_ZTIh"
    }
   ],
   "return_type" : "_ZTIv",
   "source_file" : "external/scudo/standalone/common.h"
  },
  {
   "function_name" : "scudo::getPageSizeCached",
   "linker_set_key" : "_ZN5scudo17getPageSizeCachedEv",
   "return_type" : "_ZTIm",
   "source_file" : "external/scudo/standalone/common.h"
  },
  {
   "function_name" : "scudo::roundUpToPowerOfTwo",
   "linker_set_key" : "_ZN5scudo19roundUpToPowerOfTwoEm",
   "parameters" :
   [
    {
     "referenced_type" : "_ZTIm"
    }
   ],
   "return_type" : "_ZTIm",
   "source_file" : "external/scudo/standalone/common.h"
  },
  {
   "function_name" : "scudo::UnknownFlagsRegistry::add",
   "linker_set_key" : "_ZN5scudo20UnknownFlagsRegistry3addEPKc",
   "parameters" :
   [
    {
     "is_this_ptr" : true,
     "referenced_type" : "_ZTIPN5scudo20UnknownFlagsRegistryE"
    },
    {
     "referenced_type" : "_ZTIPKc"
    }
   ],
   "return_type" : "_ZTIv",
   "source_file" : "external/scudo/standalone/flags_parser.cpp"
  },
  {
   "function_name" : "scudo::UnknownFlagsRegistry::report",
   "linker_set_key" : "_ZN5scudo20UnknownFlagsRegistry6reportEv",
   "parameters" :
   [
    {
     "is_this_ptr" : true,
     "referenced_type" : "_ZTIPN5scudo20UnknownFlagsRegistryE"
    }
   ],
   "return_type" : "_ZTIv",
   "source_file" : "external/scudo/standalone/flags_parser.cpp"
  },
  {
   "function_name" : "scudo::reportUnrecognizedFlags",
   "linker_set_key" : "_ZN5scudo23reportUnrecognizedFlagsEv",
   "return_type" : "_ZTIv",
   "source_file" : "external/scudo/standalone/flags_parser.h"
  },
  {
   "function_name" : "scudo::getMostSignificantSetBitIndex",
   "linker_set_key" : "_ZN5scudo29getMostSignificantSetBitIndexEm",
   "parameters" :
   [
    {
     "referenced_type" : "_ZTIm"
    }
   ],
   "return_type" : "_ZTIm",
   "source_file" : "external/scudo/standalone/common.h"
  },
  {
   "function_name" : "scudo::getLeastSignificantSetBitIndex",
   "linker_set_key" : "_ZN5scudo30getLeastSignificantSetBitIndexEm",
   "parameters" :
   [
    {
     "referenced_type" : "_ZTIm"
    }
   ],
   "return_type" : "_ZTIm",
   "source_file" : "external/scudo/standalone/common.h"
  },
  {
   "function_name" : "scudo::Vector<char>::Vector",
   "linker_set_key" : "_ZN5scudo6VectorIcEC1Em",
   "parameters" :
   [
    {
     "is_this_ptr" : true,
     "referenced_type" : "_ZTIPN5scudo6VectorIcEE"
    },
    {
     "referenced_type" : "_ZTIm"
    }
   ],
   "return_type" : "_ZTIv",
   "source_file" : "external/scudo/standalone/vector.h"
  },
  {
   "function_name" : "scudo::Vector<char>::Vector",
   "linker_set_key" : "_ZN5scudo6VectorIcEC2Em",
   "parameters" :
   [
    {
     "is_this_ptr" : true,
     "referenced_type" : "_ZTIPN5scudo6VectorIcEE"
    },
    {
     "referenced_type" : "_ZTIm"
    }
   ],
   "return_type" : "_ZTIv",
   "source_file" : "external/scudo/standalone/vector.h"
  },
  {
   "function_name" : "scudo::Vector<char>::~Vector",
   "linker_set_key" : "_ZN5scudo6VectorIcED1Ev",
   "parameters" :
   [
    {
     "is_this_ptr" : true,
     "referenced_type" : "_ZTIPN5scudo6VectorIcEE"
    }
   ],
   "return_type" : "_ZTIv",
   "source_file" : "external/scudo/standalone/vector.h"
  },
  {
   "function_name" : "scudo::Vector<char>::~Vector",
   "linker_set_key" : "_ZN5scudo6VectorIcED2Ev",
   "parameters" :
   [
    {
     "is_this_ptr" : true,
     "referenced_type" : "_ZTIPN5scudo6VectorIcEE"
    }
   ],
   "return_type" : "_ZTIv",
   "source_file" : "external/scudo/standalone/vector.h"
  },
  {
   "function_name" : "scudo::getLog2",
   "linker_set_key" : "_ZN5scudo7getLog2Em",
   "parameters" :
   [
    {
     "referenced_type" : "_ZTIm"
    }
   ],
   "return_type" : "_ZTIm",
   "source_file" : "external/scudo/standalone/common.h"
  },
  {
   "function_name" : "scudo::isAligned",
   "linker_set_key" : "_ZN5scudo9isAlignedEmm",
   "parameters" :
   [
    {
     "referenced_type" : "_ZTIm"
    },
    {
     "referenced_type" : "_ZTIm"
    }
   ],
   "return_type" : "_ZTIb",
   "source_file" : "external/scudo/standalone/common.h"
  },
  {
   "function_name" : "scudo::parseBool",
   "linker_set_key" : "_ZN5scudo9parseBoolEPKcPb",
   "parameters" :
   [
    {
     "referenced_type" : "_ZTIPKc"
    },
    {
     "referenced_type" : "_ZTIPb"
    }
   ],
   "return_type" : "_ZTIb",
   "source_file" : "external/scudo/standalone/flags_parser.cpp"
  },
  {
   "function_name" : "scudo::roundUpTo",
   "linker_set_key" : "_ZN5scudo9roundUpToEmm",
   "parameters" :
   [
    {
     "referenced_type" : "_ZTIm"
    },
    {
     "referenced_type" : "_ZTIm"
    }
   ],
   "return_type" : "_ZTIm",
   "source_file" : "external/scudo/standalone/common.h"
  },
  {
   "function_name" : "scudo::ScopedString::output",
   "linker_set_key" : "_ZNK5scudo12ScopedString6outputEv",
   "parameters" :
   [
    {
     "is_this_ptr" : true,
     "referenced_type" : "_ZTIPKN5scudo12ScopedStringE"
    }
   ],
   "return_type" : "_ZTIv",
   "source_file" : "external/scudo/standalone/string_utils.h"
  },
  {
   "function_name" : "scudo::VectorNoCtor<char>::data",
   "linker_set_key" : "_ZNK5scudo12VectorNoCtorIcE4dataEv",
   "parameters" :
   [
    {
     "is_this_ptr" : true,
     "referenced_type" : "_ZTIPKN5scudo12VectorNoCtorIcEE"
    }
   ],
   "return_type" : "_ZTIPKc",
   "source_file" : "external/scudo/standalone/vector.h"
  },
  {
   "function_name" : "scudo::VectorNoCtor<char>::capacity",
   "linker_set_key" : "_ZNK5scudo12VectorNoCtorIcE8capacityEv",
   "parameters" :
   [
    {
     "is_this_ptr" : true,
     "referenced_type" : "_ZTIPKN5scudo12VectorNoCtorIcEE"
    }
   ],
   "return_type" : "_ZTIm",
   "source_file" : "external/scudo/standalone/vector.h"
  }
 ],
 "global_vars" :
 [
  {
   "access" : "private",
   "linker_set_key" : "_ZN5scudo10FlagParser8MaxFlagsE",
   "name" : "scudo::FlagParser::MaxFlags",
   "referenced_type" : "_ZTIKj",
   "source_file" : "external/scudo/standalone/flags_parser.h"
  },
  {
   "linker_set_key" : "_ZN5scudo14PageSizeCachedE",
   "name" : "scudo::PageSizeCached",
   "referenced_type" : "_ZTIm",
   "source_file" : "external/scudo/standalone/common.h"
  },
  {
   "access" : "private",
   "linker_set_key" : "_ZN5scudo20UnknownFlagsRegistry15MaxUnknownFlagsE",
   "name" : "scudo::UnknownFlagsRegistry::MaxUnknownFlags",
   "referenced_type" : "_ZTIKj",
   "source_file" : "external/scudo/standalone/flags_parser.cpp"
  },
  {
   "linker_set_key" : "_ZN5scudoL12UnknownFlagsE",
   "name" : "scudo::UnknownFlags",
   "referenced_type" : "_ZTIN5scudo20UnknownFlagsRegistryE",
   "source_file" : "external/scudo/standalone/flags_parser.cpp"
  },
  {
   "linker_set_key" : "_ZN5scudoL15MaxRandomLengthE",
   "name" : "scudo::MaxRandomLength",
   "referenced_type" : "_ZTIKm",
   "source_file" : "external/scudo/standalone/common.h"
  },
  {
   "linker_set_key" : "_ZN5scudoL15PatternFillByteE",
   "name" : "scudo::PatternFillByte",
   "referenced_type" : "_ZTIKh",
   "source_file" : "external/scudo/standalone/common.h"
  },
  {
   "linker_set_key" : "__free_hook",
   "name" : "__free_hook",
   "referenced_type" : "_ZTIVPFvPvPKvE",
   "source_file" : "bionic/libc/include/malloc.h"
  },
  {
   "linker_set_key" : "__malloc_hook",
   "name" : "__malloc_hook",
   "referenced_type" : "_ZTIVPFPvmPKvE",
   "source_file" : "bionic/libc/include/malloc.h"
  },
  {
   "linker_set_key" : "__memalign_hook",
   "name" : "__memalign_hook",
   "referenced_type" : "_ZTIVPFPvmmPKvE",
   "source_file" : "bionic/libc/include/malloc.h"
  },
  {
   "linker_set_key" : "__realloc_hook",
   "name" : "__realloc_hook",
   "referenced_type" : "_ZTIVPFPvS_mPKvE",
   "source_file" : "bionic/libc/include/malloc.h"
  },
  {
   "linker_set_key" : "stderr",
   "name" : "stderr",
   "referenced_type" : "_ZTIP7__sFILE",
   "source_file" : "bionic/libc/include/stdio.h"
  },
  {
   "linker_set_key" : "stdin",
   "name" : "stdin",
   "referenced_type" : "_ZTIP7__sFILE",
   "source_file" : "bionic/libc/include/stdio.h"
  },
  {
   "linker_set_key" : "stdout",
   "name" : "stdout",
   "referenced_type" : "_ZTIP7__sFILE",
   "source_file" : "bionic/libc/include/stdio.h"
  }
 ],
 "lvalue_reference_types" :
 [
  {
   "alignment" : 8,
   "linker_set_key" : "_ZTIRc",
   "name" : "char &",
   "referenced_type" : "_ZTIc",
   "self_type" : "_ZTIRc",
   "size" : 8,
   "source_file" : "external/scudo/standalone/vector.h"
  }
 ],
 "pointer_types" :
 [
  {
   "alignment" : 8,
   "linker_set_key" : "_ZTIP7__sFILE",
   "name" : "__sFILE *",
   "referenced_type" : "_ZTI7__sFILE",
   "self_type" : "_ZTIP7__sFILE",
   "size" : 8,
   "source_file" : "bionic/libc/include/stdio.h"
  },
  {
   "alignment" : 8,
   "linker_set_key" : "_ZTIPFPvS_mPKvE",
   "name" : "void *(*)(void *, unsigned long, const void *)",
   "referenced_type" : "_ZTIFPvS_mPKvE",
   "self_type" : "_ZTIPFPvS_mPKvE",
   "size" : 8,
   "source_file" : "bionic/libc/include/malloc.h"
  },
  {
   "alignment" : 8,
   "linker_set_key" : "_ZTIPFPvmPKvE",
   "name" : "void *(*)(unsigned long, const void *)",
   "referenced_type" : "_ZTIFPvmPKvE",
   "self_type" : "_ZTIPFPvmPKvE",
   "size" : 8,
   "source_file" : "bionic/libc/include/malloc.h"
  },
  {
   "alignment" : 8,
   "linker_set_key" : "_ZTIPFPvmmPKvE",
   "name" : "void *(*)(unsigned long, unsigned long, const void *)",
   "referenced_type" : "_ZTIFPvmmPKvE",
   "self_type" : "_ZTIPFPvmmPKvE",
   "size" : 8,
   "source_file" : "bionic/libc/include/malloc.h"
  },
  {
   "alignment" : 8,
   "linker_set_key" : "_ZTIPFvPvPKvE",
   "name" : "void (*)(void *, const void *)",
   "referenced_type" : "_ZTIFvPvPKvE",
   "self_type" : "_ZTIPFvPvPKvE",
   "size" : 8,
   "source_file" : "bionic/libc/include/malloc.h"
  },
  {
   "alignment" : 8,
   "linker_set_key" : "_ZTIPKN5scudo12ScopedStringE",
   "name" : "const scudo::ScopedString *",
   "referenced_type" : "_ZTIKN5scudo12ScopedStringE",
   "self_type" : "_ZTIPKN5scudo12ScopedStringE",
   "size" : 8,
   "source_file" : "external/scudo/standalone/string_utils.h"
  },
  {
   "alignment" : 8,
   "linker_set_key" : "_ZTIPKN5scudo12VectorNoCtorIcEE",
   "name" : "const scudo::VectorNoCtor<char> *",
   "referenced_type" : "_ZTIKN5scudo12VectorNoCtorIcEE",
   "self_type" : "_ZTIPKN5scudo12VectorNoCtorIcEE",
   "size" : 8,
   "source_file" : "external/scudo/standalone/vector.h"
  },
  {
   "alignment" : 8,
   "linker_set_key" : "_ZTIPKc",
   "name" : "const char *",
   "referenced_type" : "_ZTIKc",
   "self_type" : "_ZTIPKc",
   "size" : 8,
   "source_file" : "bionic/libc/include/string.h"
  },
  {
   "alignment" : 8,
   "linker_set_key" : "_ZTIPKv",
   "name" : "const void *",
   "referenced_type" : "_ZTIKv",
   "self_type" : "_ZTIPKv",
   "size" : 8,
   "source_file" : "bionic/libc/include/string.h"
  },
  {
   "alignment" : 8,
   "linker_set_key" : "_ZTIPN5scudo10FlagParserE",
   "name" : "scudo::FlagParser *",
   "referenced_type" : "_ZTIN5scudo10FlagParserE",
   "self_type" : "_ZTIPN5scudo10FlagParserE",
   "size" : 8,
   "source_file" : "external/scudo/standalone/flags_parser.h"
  },
  {
   "alignment" : 8,
   "linker_set_key" : "_ZTIPN5scudo12ScopedStringE",
   "name" : "scudo::ScopedString *",
   "referenced_type" : "_ZTIN5scudo12ScopedStringE",
   "self_type" : "_ZTIPN5scudo12ScopedStringE",
   "size" : 8,
   "source_file" : "external/scudo/standalone/string_utils.h"
  },
  {
   "alignment" : 8,
   "linker_set_key" : "_ZTIPN5scudo12VectorNoCtorIcEE",
   "name" : "scudo::VectorNoCtor<char> *",
   "referenced_type" : "_ZTIN5scudo12VectorNoCtorIcEE",
   "self_type" : "_ZTIPN5scudo12VectorNoCtorIcEE",
   "size" : 8,
   "source_file" : "external/scudo/standalone/vector.h"
  },
  {
   "alignment" : 8,
   "linker_set_key" : "_ZTIPN5scudo20UnknownFlagsRegistryE",
   "name" : "scudo::UnknownFlagsRegistry *",
   "referenced_type" : "_ZTIN5scudo20UnknownFlagsRegistryE",
   "self_type" : "_ZTIPN5scudo20UnknownFlagsRegistryE",
   "size" : 8,
   "source_file" : "external/scudo/standalone/flags_parser.cpp"
  },
  {
   "alignment" : 8,
   "linker_set_key" : "_ZTIPN5scudo6VectorIcEE",
   "name" : "scudo::Vector<char> *",
   "referenced_type" : "_ZTIN5scudo6VectorIcEE",
   "self_type" : "_ZTIPN5scudo6VectorIcEE",
   "size" : 8,
   "source_file" : "external/scudo/standalone/vector.h"
  },
  {
   "alignment" : 8,
   "linker_set_key" : "_ZTIPb",
   "name" : "bool *",
   "referenced_type" : "_ZTIb",
   "self_type" : "_ZTIPb",
   "size" : 8,
   "source_file" : "external/scudo/standalone/flags_parser.cpp"
  },
  {
   "alignment" : 8,
   "linker_set_key" : "_ZTIPc",
   "name" : "char *",
   "referenced_type" : "_ZTIc",
   "self_type" : "_ZTIPc",
   "size" : 8,
   "source_file" : "bionic/libc/include/string.h"
  },
  {
   "alignment" : 8,
   "linker_set_key" : "_ZTIPj",
   "name" : "unsigned int *",
   "referenced_type" : "_ZTIj",
   "self_type" : "_ZTIPj",
   "size" : 8,
   "source_file" : "external/scudo/standalone/common.h"
  },
  {
   "alignment" : 8,
   "linker_set_key" : "_ZTIPv",
   "name" : "void *",
   "referenced_type" : "_ZTIv",
   "self_type" : "_ZTIPv",
   "size" : 8,
   "source_file" : "bionic/libc/include/bits/pthread_types.h"
  }
 ],
 "qualified_types" :
 [
  {
   "alignment" : 8,
   "is_const" : true,
   "linker_set_key" : "_ZTIKN5scudo12ScopedStringE",
   "name" : "const scudo::ScopedString",
   "referenced_type" : "_ZTIN5scudo12ScopedStringE",
   "self_type" : "_ZTIKN5scudo12ScopedStringE",
   "size" : 32,
   "source_file" : "external/scudo/standalone/string_utils.h"
  },
  {
   "alignment" : 8,
   "is_const" : true,
   "linker_set_key" : "_ZTIKN5scudo12VectorNoCtorIcEE",
   "name" : "const scudo::VectorNoCtor<char>",
   "referenced_type" : "_ZTIN5scudo12VectorNoCtorIcEE",
   "self_type" : "_ZTIKN5scudo12VectorNoCtorIcEE",
   "size" : 24,
   "source_file" : "external/scudo/standalone/vector.h"
  },
  {
   "alignment" : 8,
   "is_const" : true,
   "linker_set_key" : "_ZTIKPKc",
   "name" : "const char *const",
   "referenced_type" : "_ZTIPKc",
   "self_type" : "_ZTIKPKc",
   "size" : 8,
   "source_file" : "bionic/libc/include/string.h"
  },
  {
   "alignment" : 8,
   "is_const" : true,
   "linker_set_key" : "_ZTIKPKv",
   "name" : "const void *const",
   "referenced_type" : "_ZTIPKv",
   "self_type" : "_ZTIKPKv",
   "size" : 8,
   "source_file" : "bionic/libc/include/string.h"
  },
  {
   "alignment" : 8,
   "is_const" : true,
   "linker_set_key" : "_ZTIKPc",
   "name" : "char *const",
   "referenced_type" : "_ZTIPc",
   "self_type" : "_ZTIKPc",
   "size" : 8,
   "source_file" : "bionic/libc/include/string.h"
  },
  {
   "alignment" : 8,
   "is_const" : true,
   "linker_set_key" : "_ZTIKPv",
   "name" : "void *const",
   "referenced_type" : "_ZTIPv",
   "self_type" : "_ZTIKPv",
   "size" : 8,
   "source_file" : "bionic/libc/include/string.h"
  },
  {
   "alignment" : 1,
   "is_const" : true,
   "linker_set_key" : "_ZTIKc",
   "name" : "const char",
   "referenced_type" : "_ZTIc",
   "self_type" : "_ZTIKc",
   "size" : 1,
   "source_file" : "bionic/libc/include/string.h"
  },
  {
   "alignment" : 1,
   "is_const" : true,
   "linker_set_key" : "_ZTIKh",
   "name" : "const unsigned char",
   "referenced_type" : "_ZTIh",
   "self_type" : "_ZTIKh",
   "size" : 1,
   "source_file" : "external/scudo/standalone/common.h"
  },
  {
   "alignment" : 4,
   "is_const" : true,
   "linker_set_key" : "_ZTIKj",
   "name" : "const unsigned int",
   "referenced_type" : "_ZTIj",
   "self_type" : "_ZTIKj",
   "size" : 4,
   "source_file" : "external/scudo/standalone/flags_parser.h"
  },
  {
   "alignment" : 8,
   "is_const" : true,
   "linker_set_key" : "_ZTIKm",
   "name" : "const unsigned long",
   "referenced_type" : "_ZTIm",
   "self_type" : "_ZTIKm",
   "size" : 8,
   "source_file" : "external/scudo/standalone/common.h"
  },
  {
   "is_const" : true,
   "linker_set_key" : "_ZTIKv",
   "name" : "const void",
   "referenced_type" : "_ZTIv",
   "self_type" : "_ZTIKv",
   "source_file" : "bionic/libc/include/string.h"
  },
  {
   "alignment" : 8,
   "is_volatile" : true,
   "linker_set_key" : "_ZTIVPFPvS_mPKvE",
   "name" : "void *(*volatile)(void *, unsigned long, const void *)",
   "referenced_type" : "_ZTIPFPvS_mPKvE",
   "self_type" : "_ZTIVPFPvS_mPKvE",
   "size" : 8,
   "source_file" : "bionic/libc/include/malloc.h"
  },
  {
   "alignment" : 8,
   "is_volatile" : true,
   "linker_set_key" : "_ZTIVPFPvmPKvE",
   "name" : "void *(*volatile)(unsigned long, const void *)",
   "referenced_type" : "_ZTIPFPvmPKvE",
   "self_type" : "_ZTIVPFPvmPKvE",
   "size" : 8,
   "source_file" : "bionic/libc/include/malloc.h"
  },
  {
   "alignment" : 8,
   "is_volatile" : true,
   "linker_set_key" : "_ZTIVPFPvmmPKvE",
   "name" : "void *(*volatile)(unsigned long, unsigned long, const void *)",
   "referenced_type" : "_ZTIPFPvmmPKvE",
   "self_type" : "_ZTIVPFPvmmPKvE",
   "size" : 8,
   "source_file" : "bionic/libc/include/malloc.h"
  },
  {
   "alignment" : 8,
   "is_volatile" : true,
   "linker_set_key" : "_ZTIVPFvPvPKvE",
   "name" : "void (*volatile)(void *, const void *)",
   "referenced_type" : "_ZTIPFvPvPKvE",
   "self_type" : "_ZTIVPFvPvPKvE",
   "size" : 8,
   "source_file" : "bionic/libc/include/malloc.h"
  }
 ],
 "record_types" :
 [
  {
   "alignment" : 16,
   "fields" :
   [
    {
     "field_name" : "__clang_max_align_nonce1",
     "referenced_type" : "_ZTIx"
    },
    {
     "field_name" : "__clang_max_align_nonce2",
     "field_offset" : 128,
     "referenced_type" : "_ZTIe"
    }
   ],
   "linker_set_key" : "_ZTI11max_align_t",
   "name" : "max_align_t",
   "referenced_type" : "_ZTI11max_align_t",
   "self_type" : "_ZTI11max_align_t",
   "size" : 32,
   "source_file" : "prebuilts/clang-tools/linux-x86/clang-headers/__stddef_max_align_t.h"
  },
  {
   "alignment" : 8,
   "fields" :
   [
    {
     "field_name" : "flags",
     "referenced_type" : "_ZTIj"
    },
    {
     "field_name" : "stack_base",
     "field_offset" : 64,
     "referenced_type" : "_ZTIPv"
    },
    {
     "field_name" : "stack_size",
     "field_offset" : 128,
     "referenced_type" : "_ZTIm"
    },
    {
     "field_name" : "guard_size",
     "field_offset" : 192,
     "referenced_type" : "_ZTIm"
    },
    {
     "field_name" : "sched_policy",
     "field_offset" : 256,
     "referenced_type" : "_ZTIi"
    },
    {
     "field_name" : "sched_priority",
     "field_offset" : 288,
     "referenced_type" : "_ZTIi"
    },
    {
     "field_name" : "__reserved",
     "field_offset" : 320,
     "referenced_type" : "_ZTIA16_c"
    }
   ],
   "linker_set_key" : "_ZTI14pthread_attr_t",
   "name" : "pthread_attr_t",
   "referenced_type" : "_ZTI14pthread_attr_t",
   "self_type" : "_ZTI14pthread_attr_t",
   "size" : 56,
   "source_file" : "bionic/libc/include/bits/pthread_types.h"
  },
  {
   "alignment" : 4,
   "fields" :
   [
    {
     "field_name" : "__private",
     "referenced_type" : "_ZTIA12_i"
    }
   ],
   "linker_set_key" : "_ZTI14pthread_cond_t",
   "name" : "pthread_cond_t",
   "referenced_type" : "_ZTI14pthread_cond_t",
   "self_type" : "_ZTI14pthread_cond_t",
   "size" : 48,
   "source_file" : "bionic/libc/include/bits/pthread_types.h"
  },
  {
   "alignment" : 8,
   "fields" :
   [
    {
     "field_name" : "fds_bits",
     "referenced_type" : "_ZTIA16_m"
    }
   ],
   "linker_set_key" : "_ZTI15__kernel_fd_set",
   "name" : "__kernel_fd_set",
   "referenced_type" : "_ZTI15__kernel_fd_set",
   "self_type" : "_ZTI15__kernel_fd_set",
   "size" : 128,
   "source_file" : "bionic/libc/kernel/uapi/linux/posix_types.h"
  },
  {
   "alignment" : 4,
   "fields" :
   [
    {
     "field_name" : "val",
     "referenced_type" : "_ZTIA2_i"
    }
   ],
   "linker_set_key" : "_ZTI15__kernel_fsid_t",
   "name" : "__kernel_fsid_t",
   "referenced_type" : "_ZTI15__kernel_fsid_t",
   "self_type" : "_ZTI15__kernel_fsid_t",
   "size" : 8,
   "source_file" : "bionic/libc/kernel/uapi/asm-generic/posix_types.h"
  },
  {
   "alignment" : 4,
   "fields" :
   [
    {
     "field_name" : "__private",
     "referenced_type" : "_ZTIA10_i"
    }
   ],
   "linker_set_key" : "_ZTI15pthread_mutex_t",
   "name" : "pthread_mutex_t",
   "referenced_type" : "_ZTI15pthread_mutex_t",
   "self_type" : "_ZTI15pthread_mutex_t",
   "size" : 40,
   "source_file" : "bionic/libc/include/bits/pthread_types.h"
  },
  {
   "alignment" : 4,
   "fields" :
   [
    {
     "field_name" : "__private",
     "referenced_type" : "_ZTIA14_i"
    }
   ],
   "linker_set_key" : "_ZTI16pthread_rwlock_t",
   "name" : "pthread_rwlock_t",
   "referenced_type" : "_ZTI16pthread_rwlock_t",
   "self_type" : "_ZTI16pthread_rwlock_t",
   "size" : 56,
   "source_file" : "bionic/libc/include/bits/pthread_types.h"
  },
  {
   "alignment" : 8,
   "fields" :
   [
    {
     "field_name" : "__private",
     "referenced_type" : "_ZTIA4_l"
    }
   ],
   "linker_set_key" : "_ZTI17pthread_barrier_t",
   "name" : "pthread_barrier_t",
   "referenced_type" : "_ZTI17pthread_barrier_t",
   "self_type" : "_ZTI17pthread_barrier_t",
   "size" : 32,
   "source_file" : "bionic/libc/include/bits/pthread_types.h"
  },
  {
   "alignment" : 8,
   "fields" :
   [
    {
     "field_name" : "__private",
     "referenced_type" : "_ZTIl"
    }
   ],
   "linker_set_key" : "_ZTI18pthread_spinlock_t",
   "name" : "pthread_spinlock_t",
   "referenced_type" : "_ZTI18pthread_spinlock_t",
   "self_type" : "_ZTI18pthread_spinlock_t",
   "size" : 8,
   "source_file" : "bionic/libc/include/bits/pthread_types.h"
  },
  {
   "alignment" : 4,
   "fields" :
   [
    {
     "field_name" : "quot",
     "referenced_type" : "_ZTIi"
    },
    {
     "field_name" : "rem",
     "field_offset" : 32,
     "referenced_type" : "_ZTIi"
    }
   ],
   "linker_set_key" : "_ZTI5div_t",
   "name" : "div_t",
   "referenced_type" : "_ZTI5div_t",
   "self_type" : "_ZTI5div_t",
   "size" : 8,
   "source_file" : "bionic/libc/include/stdlib.h"
  },
  {
   "alignment" : 8,
   "fields" :
   [
    {
     "field_name" : "quot",
     "referenced_type" : "_ZTIl"
    },
    {
     "field_name" : "rem",
     "field_offset" : 64,
     "referenced_type" : "_ZTIl"
    }
   ],
   "linker_set_key" : "_ZTI6ldiv_t",
   "name" : "ldiv_t",
   "referenced_type" : "_ZTI6ldiv_t",
   "self_type" : "_ZTI6ldiv_t",
   "size" : 16,
   "source_file" : "bionic/libc/include/stdlib.h"
  },
  {
   "alignment" : 8,
   "fields" :
   [
    {
     "field_name" : "quot",
     "referenced_type" : "_ZTIx"
    },
    {
     "field_name" : "rem",
     "field_offset" : 64,
     "referenced_type" : "_ZTIx"
    }
   ],
   "linker_set_key" : "_ZTI7lldiv_t",
   "name" : "lldiv_t",
   "referenced_type" : "_ZTI7lldiv_t",
   "self_type" : "_ZTI7lldiv_t",
   "size" : 16,
   "source_file" : "bionic/libc/include/stdlib.h"
  },
  {
   "alignment" : 8,
   "fields" :
   [
    {
     "field_name" : "arena",
     "referenced_type" : "_ZTIm"
    },
    {
     "field_name" : "ordblks",
     "field_offset" : 64,
     "referenced_type" : "_ZTIm"
    },
    {
     "field_name" : "smblks",
     "field_offset" : 128,
     "referenced_type" : "_ZTIm"
    },
    {
     "field_name" : "hblks",
     "field_offset" : 192,
     "referenced_type" : "_ZTIm"
    },
    {
     "field_name" : "hblkhd",
     "field_offset" : 256,
     "referenced_type" : "_ZTIm"
    },
    {
     "field_name" : "usmblks",
     "field_offset" : 320,
     "referenced_type" : "_ZTIm"
    },
    {
     "field_name" : "fsmblks",
     "field_offset" : 384,
     "referenced_type" : "_ZTIm"
    },
    {
     "field_name" : "uordblks",
     "field_offset" : 448,
     "referenced_type" : "_ZTIm"
    },
    {
     "field_name" : "fordblks",
     "field_offset" : 512,
     "referenced_type" : "_ZTIm"
    },
    {
     "field_name" : "keepcost",
     "field_offset" : 576,
     "referenced_type" : "_ZTIm"
    }
   ],
   "linker_set_key" : "_ZTI8mallinfo",
   "name" : "mallinfo",
   "referenced_type" : "_ZTI8mallinfo",
   "self_type" : "_ZTI8mallinfo",
   "size" : 80,
   "source_file" : "bionic/libc/include/malloc.h"
  },
  {
   "access" : "private",
   "alignment" : 8,
   "fields" :
   [
    {
     "field_name" : "Name",
     "referenced_type" : "_ZTIPKc"
    },
    {
     "field_name" : "Desc",
     "field_offset" : 64,
     "referenced_type" : "_ZTIPKc"
    },
    {
     "field_name" : "Type",
     "field_offset" : 128,
     "referenced_type" : "_ZTIN5scudo8FlagTypeE"
    },
    {
     "field_name" : "Var",
     "field_offset" : 192,
     "referenced_type" : "_ZTIPv"
    }
   ],
   "linker_set_key" : "_ZTIN5scudo10FlagParser4FlagE",
   "name" : "scudo::FlagParser::Flag",
   "referenced_type" : "_ZTIN5scudo10FlagParser4FlagE",
   "self_type" : "_ZTIN5scudo10FlagParser4FlagE",
   "size" : 32,
   "source_file" : "external/scudo/standalone/flags_parser.h"
  },
  {
   "alignment" : 8,
   "fields" :
   [
    {
     "access" : "private",
     "field_name" : "Flags",
     "referenced_type" : "_ZTIA20_N5scudo10FlagParser4FlagE"
    },
    {
     "access" : "private",
     "field_name" : "NumberOfFlags",
     "field_offset" : 5120,
     "referenced_type" : "_ZTIj"
    },
    {
     "access" : "private",
     "field_name" : "Buffer",
     "field_offset" : 5184,
     "referenced_type" : "_ZTIPKc"
    },
    {
     "access" : "private",
     "field_name" : "Pos",
     "field_offset" : 5248,
     "referenced_type" : "_ZTIm"
    }
   ],
   "linker_set_key" : "_ZTIN5scudo10FlagParserE",
   "name" : "scudo::FlagParser",
   "record_kind" : "class",
   "referenced_type" : "_ZTIN5scudo10FlagParserE",
   "self_type" : "_ZTIN5scudo10FlagParserE",
   "size" : 664,
   "source_file" : "external/scudo/standalone/flags_parser.h"
  },
  {
   "alignment" : 8,
   "fields" :
   [
    {
     "access" : "private",
     "field_name" : "String",
     "referenced_type" : "_ZTIN5scudo6VectorIcEE"
    },
    {
     "access" : "private",
     "field_name" : "Length",
     "field_offset" : 192,
     "referenced_type" : "_ZTIm"
    }
   ],
   "linker_set_key" : "_ZTIN5scudo12ScopedStringE",
   "name" : "scudo::ScopedString",
   "record_kind" : "class",
   "referenced_type" : "_ZTIN5scudo12ScopedStringE",
   "self_type" : "_ZTIN5scudo12ScopedStringE",
   "size" : 32,
   "source_file" : "external/scudo/standalone/string_utils.h"
  },
  {
   "alignment" : 8,
   "fields" :
   [
    {
     "access" : "private",
     "field_name" : "Data",
     "referenced_type" : "_ZTIPc"
    },
    {
     "access" : "private",
     "field_name" : "CapacityBytes",
     "field_offset" : 64,
     "referenced_type" : "_ZTIm"
    },
    {
     "access" : "private",
     "field_name" : "Size",
     "field_offset" : 128,
     "referenced_type" : "_ZTIm"
    }
   ],
   "linker_set_key" : "_ZTIN5scudo12VectorNoCtorIcEE",
   "name" : "scudo::VectorNoCtor<char>",
   "record_kind" : "class",
   "referenced_type" : "_ZTIN5scudo12VectorNoCtorIcEE",
   "self_type" : "_ZTIN5scudo12VectorNoCtorIcEE",
   "size" : 24,
   "source_file" : "external/scudo/standalone/vector.h",
   "template_args" : [ "_ZTIc" ]
  },
  {
   "alignment" : 1,
   "linker_set_key" : "_ZTIN5scudo15MapPlatformDataE",
   "name" : "scudo::MapPlatformData",
   "referenced_type" : "_ZTIN5scudo15MapPlatformDataE",
   "self_type" : "_ZTIN5scudo15MapPlatformDataE",
   "size" : 1,
   "source_file" : "external/scudo/standalone/linux.h"
  },
  {
   "alignment" : 8,
   "fields" :
   [
    {
     "access" : "private",
     "field_name" : "UnknownFlagsNames",
     "referenced_type" : "_ZTIA16_PKc"
    },
    {
     "access" : "private",
     "field_name" : "NumberOfUnknownFlags",
     "field_offset" : 1024,
     "referenced_type" : "_ZTIj"
    }
   ],
   "linker_set_key" : "_ZTIN5scudo20UnknownFlagsRegistryE",
   "name" : "scudo::UnknownFlagsRegistry",
   "record_kind" : "class",
   "referenced_type" : "_ZTIN5scudo20UnknownFlagsRegistryE",
   "self_type" : "_ZTIN5scudo20UnknownFlagsRegistryE",
   "size" : 136,
   "source_file" : "external/scudo/standalone/flags_parser.cpp"
  },
  {
   "alignment" : 8,
   "base_specifiers" :
   [
    {
     "referenced_type" : "_ZTIN5scudo12VectorNoCtorIcEE"
    }
   ],
   "linker_set_key" : "_ZTIN5scudo6VectorIcEE",
   "name" : "scudo::Vector<char>",
   "record_kind" : "class",
   "referenced_type" : "_ZTIN5scudo6VectorIcEE",
   "self_type" : "_ZTIN5scudo6VectorIcEE",
   "size" : 24,
   "source_file" : "external/scudo/standalone/vector.h",
   "template_args" : [ "_ZTIc" ]
  },
  {
   "alignment" : 8,
   "fields" :
   [
    {
     "field_name" : "BlockBegin",
     "referenced_type" : "_ZTIm"
    },
    {
     "field_name" : "BlockSize",
     "field_offset" : 64,
     "referenced_type" : "_ZTIm"
    },
    {
     "field_name" : "RegionBegin",
     "field_offset" : 128,
     "referenced_type" : "_ZTIm"
    },
    {
     "field_name" : "RegionEnd",
     "field_offset" : 192,
     "referenced_type" : "_ZTIm"
    }
   ],
   "linker_set_key" : "_ZTIN5scudo9BlockInfoE",
   "name" : "scudo::BlockInfo",
   "referenced_type" : "_ZTIN5scudo9BlockInfoE",
   "self_type" : "_ZTIN5scudo9BlockInfoE",
   "size" : 32,
   "source_file" : "external/scudo/standalone/common.h"
  }
 ],
 "rvalue_reference_types" : []
}
