{
 "array_types" :
 [
  {
   "alignment" : 4,
   "linker_set_key" : "_ZTIA0_i",
   "name" : "int [0]",
   "referenced_type" : "_ZTIi",
   "self_type" : "_ZTIA0_i",
   "source_file" : "system/core/libcutils/include_outside_system/cutils/native_handle.h"
  },
  {
   "alignment" : 4,
   "linker_set_key" : "_ZTIA10_i",
   "name" : "int [10]",
   "referenced_type" : "_ZTIi",
   "self_type" : "_ZTIA10_i",
   "size" : 40,
   "source_file" : "out/soong/.intermediates/bionic/libc/libc/android_vendor.32_arm64_armv8-a_shared/gen/include/bits/pthread_types.h"
  },
  {
   "alignment" : 2,
   "linker_set_key" : "_ZTIA11_Ds",
   "name" : "char16_t [11]",
   "referenced_type" : "_ZTIDs",
   "self_type" : "_ZTIA11_Ds",
   "size" : 22,
   "source_file" : "external/libcxx/include/string"
  },
  {
   "alignment" : 1,
   "linker_set_key" : "_ZTIA120_c",
   "name" : "char [120]",
   "referenced_type" : "_ZTIc",
   "self_type" : "_ZTIA120_c",
   "size" : 120,
   "source_file" : "out/soong/.intermediates/bionic/libc/libc/android_vendor.32_arm64_armv8-a_shared/gen/include/sys/ucontext.h"
  },
  {
   "alignment" : 4,
   "linker_set_key" : "_ZTIA12_i",
   "name" : "int [12]",
   "referenced_type" : "_ZTIi",
   "self_type" : "_ZTIA12_i",
   "size" : 48,
   "source_file" : "out/soong/.intermediates/bionic/libc/libc/android_vendor.32_arm64_armv8-a_shared/gen/include/bits/pthread_types.h"
  },
  {
   "alignment" : 8,
   "linker_set_key" : "_ZTIA12_y",
   "name" : "unsigned long long [12]",
   "referenced_type" : "_ZTIy",
   "self_type" : "_ZTIA12_y",
   "size" : 96,
   "source_file" : "bionic/libc/kernel/uapi/linux/stat.h"
  },
  {
   "alignment" : 4,
   "linker_set_key" : "_ZTIA14_i",
   "name" : "int [14]",
   "referenced_type" : "_ZTIi",
   "self_type" : "_ZTIA14_i",
   "size" : 56,
   "source_file" : "out/soong/.intermediates/bionic/libc/libc/android_vendor.32_arm64_armv8-a_shared/gen/include/bits/pthread_types.h"
  },
  {
   "alignment" : 8,
   "linker_set_key" : "_ZTIA16_N7android12renderscript10Allocation3Hal8DrvState8LodStateE",
   "name" : "android::renderscript::Allocation::Hal::DrvState::LodState [16]",
   "referenced_type" : "_ZTIN7android12renderscript10Allocation3Hal8DrvState8LodStateE",
   "self_type" : "_ZTIA16_N7android12renderscript10Allocation3Hal8DrvState8LodStateE",
   "size" : 512,
   "source_file" : "frameworks/rs/rsAllocation.h"
  },
  {
   "alignment" : 8,
   "linker_set_key" : "_ZTIA16_N7android12renderscript13ObjectBaseRefINS0_7SamplerEEE",
   "name" : "android::renderscript::ObjectBaseRef<android::renderscript::Sampler> [16]",
   "referenced_type" : "_ZTIN7android12renderscript13ObjectBaseRefINS0_7SamplerEEE",
   "self_type" : "_ZTIA16_N7android12renderscript13ObjectBaseRefINS0_7SamplerEEE",
   "size" : 128,
   "source_file" : "frameworks/rs/rsSampler.h"
  },
  {
   "alignment" : 1,
   "linker_set_key" : "_ZTIA16_c",
   "name" : "char [16]",
   "referenced_type" : "_ZTIc",
   "self_type" : "_ZTIA16_c",
   "size" : 16,
   "source_file" : "out/soong/.intermediates/bionic/libc/libc/android_vendor.32_arm64_armv8-a_shared/gen/include/bits/pthread_types.h"
  },
  {
   "alignment" : 4,
   "linker_set_key" : "_ZTIA16_f",
   "name" : "float [16]",
   "referenced_type" : "_ZTIf",
   "self_type" : "_ZTIA16_f",
   "size" : 64,
   "source_file" : "frameworks/rs/rsDefines.h"
  },
  {
   "alignment" : 8,
   "linker_set_key" : "_ZTIA16_m",
   "name" : "unsigned long [16]",
   "referenced_type" : "_ZTIm",
   "self_type" : "_ZTIA16_m",
   "size" : 128,
   "source_file" : "bionic/libc/kernel/uapi/linux/posix_types.h"
  },
  {
   "alignment" : 1,
   "linker_set_key" : "_ZTIA17_c",
   "name" : "char [17]",
   "referenced_type" : "_ZTIc",
   "self_type" : "_ZTIA17_c",
   "size" : 17,
   "source_file" : "frameworks/rs/rsDefines.h"
  },
  {
   "alignment" : 1,
   "linker_set_key" : "_ZTIA19_c",
   "name" : "char [19]",
   "referenced_type" : "_ZTIc",
   "self_type" : "_ZTIA19_c",
   "size" : 19,
   "source_file" : "frameworks/rs/rsDefines.h"
  },
  {
   "alignment" : 8,
   "linker_set_key" : "_ZTIA1_m",
   "name" : "unsigned long [1]",
   "referenced_type" : "_ZTIm",
   "self_type" : "_ZTIA1_m",
   "size" : 8,
   "source_file" : "bionic/libc/kernel/uapi/asm-generic/signal.h"
  },
  {
   "alignment" : 2,
   "linker_set_key" : "_ZTIA1_t",
   "name" : "unsigned short [1]",
   "referenced_type" : "_ZTIt",
   "self_type" : "_ZTIA1_t",
   "size" : 2,
   "source_file" : "bionic/libc/kernel/uapi/linux/stat.h"
  },
  {
   "alignment" : 1,
   "linker_set_key" : "_ZTIA2048_h",
   "name" : "unsigned char [2048]",
   "referenced_type" : "_ZTIh",
   "self_type" : "_ZTIA2048_h",
   "size" : 2048,
   "source_file" : "frameworks/rs/rsThreadIO.h"
  },
  {
   "alignment" : 1,
   "linker_set_key" : "_ZTIA21_c",
   "name" : "char [21]",
   "referenced_type" : "_ZTIc",
   "self_type" : "_ZTIA21_c",
   "size" : 21,
   "source_file" : "frameworks/rs/rsDefines.h"
  },
  {
   "alignment" : 1,
   "linker_set_key" : "_ZTIA22_c",
   "name" : "char [22]",
   "referenced_type" : "_ZTIc",
   "self_type" : "_ZTIA22_c",
   "size" : 22,
   "source_file" : "frameworks/rs/rsDefines.h"
  },
  {
   "alignment" : 1,
   "linker_set_key" : "_ZTIA23_c",
   "name" : "char [23]",
   "referenced_type" : "_ZTIc",
   "self_type" : "_ZTIA23_c",
   "size" : 23,
   "source_file" : "external/libcxx/include/string"
  },
  {
   "alignment" : 1,
   "linker_set_key" : "_ZTIA2_c",
   "name" : "char [2]",
   "referenced_type" : "_ZTIc",
   "self_type" : "_ZTIA2_c",
   "size" : 2,
   "source_file" : "external/libcxx/include/type_traits"
  },
  {
   "alignment" : 4,
   "linker_set_key" : "_ZTIA2_i",
   "name" : "int [2]",
   "referenced_type" : "_ZTIi",
   "self_type" : "_ZTIA2_i",
   "size" : 8,
   "source_file" : "bionic/libc/kernel/uapi/asm-generic/posix_types.h"
  },
  {
   "alignment" : 8,
   "linker_set_key" : "_ZTIA31_m",
   "name" : "unsigned long [31]",
   "referenced_type" : "_ZTIm",
   "self_type" : "_ZTIA31_m",
   "size" : 248,
   "source_file" : "out/soong/.intermediates/bionic/libc/libc/android_vendor.32_arm64_armv8-a_shared/gen/include/sys/user.h"
  },
  {
   "alignment" : 8,
   "linker_set_key" : "_ZTIA31_y",
   "name" : "unsigned long long [31]",
   "referenced_type" : "_ZTIy",
   "self_type" : "_ZTIA31_y",
   "size" : 248,
   "source_file" : "bionic/libc/kernel/uapi/asm-arm64/asm/sigcontext.h"
  },
  {
   "alignment" : 1,
   "linker_set_key" : "_ZTIA32_h",
   "name" : "unsigned char [32]",
   "referenced_type" : "_ZTIh",
   "self_type" : "_ZTIA32_h",
   "size" : 32,
   "source_file" : "external/libcxx/include/type_traits"
  },
  {
   "alignment" : 4,
   "linker_set_key" : "_ZTIA32_i",
   "name" : "int [32]",
   "referenced_type" : "_ZTIi",
   "self_type" : "_ZTIA32_i",
   "size" : 128,
   "source_file" : "bionic/libc/kernel/uapi/asm-generic/siginfo.h"
  },
  {
   "alignment" : 16,
   "linker_set_key" : "_ZTIA32_o",
   "name" : "unsigned __int128 [32]",
   "referenced_type" : "_ZTIo",
   "self_type" : "_ZTIA32_o",
   "size" : 512,
   "source_file" : "bionic/libc/kernel/uapi/asm-arm64/asm/sigcontext.h"
  },
  {
   "alignment" : 4,
   "linker_set_key" : "_ZTIA3_j",
   "name" : "unsigned int [3]",
   "referenced_type" : "_ZTIj",
   "self_type" : "_ZTIA3_j",
   "size" : 12,
   "source_file" : "bionic/libc/kernel/uapi/asm-arm64/asm/sigcontext.h"
  },
  {
   "alignment" : 8,
   "linker_set_key" : "_ZTIA3_m",
   "name" : "unsigned long [3]",
   "referenced_type" : "_ZTIm",
   "self_type" : "_ZTIA3_m",
   "size" : 24,
   "source_file" : "external/libcxx/include/string"
  },
  {
   "alignment" : 2,
   "linker_set_key" : "_ZTIA3_t",
   "name" : "unsigned short [3]",
   "referenced_type" : "_ZTIt",
   "self_type" : "_ZTIA3_t",
   "size" : 6,
   "source_file" : "bionic/libc/kernel/uapi/asm-arm64/asm/sigcontext.h"
  },
  {
   "alignment" : 1,
   "linker_set_key" : "_ZTIA4096_h",
   "name" : "unsigned char [4096]",
   "referenced_type" : "_ZTIh",
   "self_type" : "_ZTIA4096_h",
   "size" : 4096,
   "source_file" : "bionic/libc/kernel/uapi/asm-arm64/asm/sigcontext.h"
  },
  {
   "alignment" : 1,
   "linker_set_key" : "_ZTIA4097_c",
   "name" : "char [4097]",
   "referenced_type" : "_ZTIc",
   "self_type" : "_ZTIA4097_c",
   "size" : 4097,
   "source_file" : "frameworks/rs/rsContext.h"
  },
  {
   "alignment" : 8,
   "linker_set_key" : "_ZTIA4_21AHardwareBuffer_Plane",
   "name" : "AHardwareBuffer_Plane [4]",
   "referenced_type" : "_ZTI21AHardwareBuffer_Plane",
   "self_type" : "_ZTIA4_21AHardwareBuffer_Plane",
   "size" : 64,
   "source_file" : "frameworks/native/libs/nativewindow/include/android/hardware_buffer.h"
  },
  {
   "alignment" : 8,
   "linker_set_key" : "_ZTIA4_d",
   "name" : "double [4]",
   "referenced_type" : "_ZTId",
   "self_type" : "_ZTIA4_d",
   "size" : 32,
   "source_file" : "external/libcxx/include/type_traits"
  },
  {
   "alignment" : 4,
   "linker_set_key" : "_ZTIA4_f",
   "name" : "float [4]",
   "referenced_type" : "_ZTIf",
   "self_type" : "_ZTIA4_f",
   "size" : 16,
   "source_file" : "frameworks/rs/rsDefines.h"
  },
  {
   "alignment" : 1,
   "linker_set_key" : "_ZTIA4_h",
   "name" : "unsigned char [4]",
   "referenced_type" : "_ZTIh",
   "self_type" : "_ZTIA4_h",
   "size" : 4,
   "source_file" : "out/soong/.intermediates/bionic/libc/libc/android_vendor.32_arm64_armv8-a_shared/gen/include/bits/mbstate_t.h"
  },
  {
   "alignment" : 4,
   "linker_set_key" : "_ZTIA4_i",
   "name" : "int [4]",
   "referenced_type" : "_ZTIi",
   "self_type" : "_ZTIA4_i",
   "size" : 16,
   "source_file" : "frameworks/rs/rsCppUtils.h"
  },
  {
   "alignment" : 4,
   "linker_set_key" : "_ZTIA4_j",
   "name" : "unsigned int [4]",
   "referenced_type" : "_ZTIj",
   "self_type" : "_ZTIA4_j",
   "size" : 16,
   "source_file" : "frameworks/rs/rsAllocation.h"
  },
  {
   "alignment" : 8,
   "linker_set_key" : "_ZTIA4_l",
   "name" : "long [4]",
   "referenced_type" : "_ZTIl",
   "self_type" : "_ZTIA4_l",
   "size" : 32,
   "source_file" : "out/soong/.intermediates/bionic/libc/libc/android_vendor.32_arm64_armv8-a_shared/gen/include/bits/pthread_types.h"
  },
  {
   "alignment" : 8,
   "linker_set_key" : "_ZTIA4_m",
   "name" : "unsigned long [4]",
   "referenced_type" : "_ZTIm",
   "self_type" : "_ZTIA4_m",
   "size" : 32,
   "source_file" : "frameworks/rs/rsContext.h"
  },
  {
   "alignment" : 1,
   "linker_set_key" : "_ZTIA5121_h",
   "name" : "unsigned char [5121]",
   "referenced_type" : "_ZTIh",
   "self_type" : "_ZTIA5121_h",
   "size" : 5121,
   "source_file" : "system/logging/liblog/include_vndk/log/log_read.h"
  },
  {
   "alignment" : 4,
   "linker_set_key" : "_ZTIA5_Di",
   "name" : "char32_t [5]",
   "referenced_type" : "_ZTIDi",
   "self_type" : "_ZTIA5_Di",
   "size" : 20,
   "source_file" : "external/libcxx/include/string"
  },
  {
   "alignment" : 1,
   "linker_set_key" : "_ZTIA5_c",
   "name" : "char [5]",
   "referenced_type" : "_ZTIc",
   "self_type" : "_ZTIA5_c",
   "size" : 5,
   "source_file" : "frameworks/rs/rsDefines.h"
  },
  {
   "alignment" : 4,
   "linker_set_key" : "_ZTIA5_w",
   "name" : "wchar_t [5]",
   "referenced_type" : "_ZTIw",
   "self_type" : "_ZTIA5_w",
   "size" : 20,
   "source_file" : "external/libcxx/include/string"
  },
  {
   "alignment" : 8,
   "linker_set_key" : "_ZTIA65_PKc",
   "name" : "const char *[65]",
   "referenced_type" : "_ZTIPKc",
   "self_type" : "_ZTIA65_PKc",
   "size" : 520,
   "source_file" : "out/soong/.intermediates/bionic/libc/libc/android_vendor.32_arm64_armv8-a_shared/gen/include/signal.h"
  },
  {
   "alignment" : 4,
   "linker_set_key" : "_ZTIA6_j",
   "name" : "unsigned int [6]",
   "referenced_type" : "_ZTIj",
   "self_type" : "_ZTIA6_j",
   "size" : 24,
   "source_file" : "frameworks/native/libs/nativewindow/include/android/native_window.h"
  },
  {
   "alignment" : 1,
   "linker_set_key" : "_ZTIA8_c",
   "name" : "char [8]",
   "referenced_type" : "_ZTIc",
   "self_type" : "_ZTIA8_c",
   "size" : 8,
   "source_file" : "bionic/libc/kernel/uapi/asm-generic/siginfo.h"
  },
  {
   "alignment" : 1,
   "linker_set_key" : "_ZTIA9_c",
   "name" : "char [9]",
   "referenced_type" : "_ZTIc",
   "self_type" : "_ZTIA9_c",
   "size" : 9,
   "source_file" : "frameworks/rs/rsDefines.h"
  },
  {
   "alignment" : 4,
   "linker_set_key" : "_ZTIA9_f",
   "name" : "float [9]",
   "referenced_type" : "_ZTIf",
   "self_type" : "_ZTIA9_f",
   "size" : 36,
   "source_file" : "frameworks/rs/rsDefines.h"
  },
  {
   "linker_set_key" : "_ZTIA_Pc",
   "name" : "char *[]",
   "referenced_type" : "_ZTIPc",
   "self_type" : "_ZTIA_Pc",
   "source_file" : "out/soong/.intermediates/bionic/libc/libc/android_vendor.32_arm64_armv8-a_shared/gen/include/time.h"
  }
 ],
 "builtin_types" :
 [
  {
   "alignment" : 4,
   "is_integral" : true,
   "is_unsigned" : true,
   "linker_set_key" : "_ZTIDi",
   "name" : "char32_t",
   "referenced_type" : "_ZTIDi",
   "self_type" : "_ZTIDi",
   "size" : 4
  },
  {
   "alignment" : 8,
   "linker_set_key" : "_ZTIDn",
   "name" : "nullptr_t",
   "referenced_type" : "_ZTIDn",
   "self_type" : "_ZTIDn",
   "size" : 8
  },
  {
   "alignment" : 2,
   "is_integral" : true,
   "is_unsigned" : true,
   "linker_set_key" : "_ZTIDs",
   "name" : "char16_t",
   "referenced_type" : "_ZTIDs",
   "self_type" : "_ZTIDs",
   "size" : 2
  },
  {
   "alignment" : 1,
   "is_integral" : true,
   "linker_set_key" : "_ZTIa",
   "name" : "signed char",
   "referenced_type" : "_ZTIa",
   "self_type" : "_ZTIa",
   "size" : 1
  },
  {
   "alignment" : 1,
   "is_integral" : true,
   "is_unsigned" : true,
   "linker_set_key" : "_ZTIb",
   "name" : "bool",
   "referenced_type" : "_ZTIb",
   "self_type" : "_ZTIb",
   "size" : 1
  },
  {
   "alignment" : 1,
   "is_integral" : true,
   "is_unsigned" : true,
   "linker_set_key" : "_ZTIc",
   "name" : "char",
   "referenced_type" : "_ZTIc",
   "self_type" : "_ZTIc",
   "size" : 1
  },
  {
   "alignment" : 8,
   "linker_set_key" : "_ZTId",
   "name" : "double",
   "referenced_type" : "_ZTId",
   "self_type" : "_ZTId",
   "size" : 8
  },
  {
   "alignment" : 16,
   "linker_set_key" : "_ZTIe",
   "name" : "long double",
   "referenced_type" : "_ZTIe",
   "self_type" : "_ZTIe",
   "size" : 16
  },
  {
   "alignment" : 4,
   "linker_set_key" : "_ZTIf",
   "name" : "float",
   "referenced_type" : "_ZTIf",
   "self_type" : "_ZTIf",
   "size" : 4
  },
  {
   "alignment" : 1,
   "is_integral" : true,
   "is_unsigned" : true,
   "linker_set_key" : "_ZTIh",
   "name" : "unsigned char",
   "referenced_type" : "_ZTIh",
   "self_type" : "_ZTIh",
   "size" : 1
  },
  {
   "alignment" : 4,
   "is_integral" : true,
   "linker_set_key" : "_ZTIi",
   "name" : "int",
   "referenced_type" : "_ZTIi",
   "self_type" : "_ZTIi",
   "size" : 4
  },
  {
   "alignment" : 4,
   "is_integral" : true,
   "is_unsigned" : true,
   "linker_set_key" : "_ZTIj",
   "name" : "unsigned int",
   "referenced_type" : "_ZTIj",
   "self_type" : "_ZTIj",
   "size" : 4
  },
  {
   "alignment" : 8,
   "is_integral" : true,
   "linker_set_key" : "_ZTIl",
   "name" : "long",
   "referenced_type" : "_ZTIl",
   "self_type" : "_ZTIl",
   "size" : 8
  },
  {
   "alignment" : 8,
   "is_integral" : true,
   "is_unsigned" : true,
   "linker_set_key" : "_ZTIm",
   "name" : "unsigned long",
   "referenced_type" : "_ZTIm",
   "self_type" : "_ZTIm",
   "size" : 8
  },
  {
   "alignment" : 16,
   "is_integral" : true,
   "linker_set_key" : "_ZTIn",
   "name" : "__int128",
   "referenced_type" : "_ZTIn",
   "self_type" : "_ZTIn",
   "size" : 16
  },
  {
   "alignment" : 16,
   "is_integral" : true,
   "is_unsigned" : true,
   "linker_set_key" : "_ZTIo",
   "name" : "unsigned __int128",
   "referenced_type" : "_ZTIo",
   "self_type" : "_ZTIo",
   "size" : 16
  },
  {
   "alignment" : 2,
   "is_integral" : true,
   "linker_set_key" : "_ZTIs",
   "name" : "short",
   "referenced_type" : "_ZTIs",
   "self_type" : "_ZTIs",
   "size" : 2
  },
  {
   "alignment" : 2,
   "is_integral" : true,
   "is_unsigned" : true,
   "linker_set_key" : "_ZTIt",
   "name" : "unsigned short",
   "referenced_type" : "_ZTIt",
   "self_type" : "_ZTIt",
   "size" : 2
  },
  {
   "linker_set_key" : "_ZTIv",
   "name" : "void",
   "referenced_type" : "_ZTIv",
   "self_type" : "_ZTIv"
  },
  {
   "alignment" : 4,
   "is_integral" : true,
   "is_unsigned" : true,
   "linker_set_key" : "_ZTIw",
   "name" : "wchar_t",
   "referenced_type" : "_ZTIw",
   "self_type" : "_ZTIw",
   "size" : 4
  },
  {
   "alignment" : 8,
   "is_integral" : true,
   "linker_set_key" : "_ZTIx",
   "name" : "long long",
   "referenced_type" : "_ZTIx",
   "self_type" : "_ZTIx",
   "size" : 8
  },
  {
   "alignment" : 8,
   "is_integral" : true,
   "is_unsigned" : true,
   "linker_set_key" : "_ZTIy",
   "name" : "unsigned long long",
   "referenced_type" : "_ZTIy",
   "self_type" : "_ZTIy",
   "size" : 8
  }
 ],
 "elf_functions" : [],
 "elf_objects" : [],
 "enum_types" :
 [
  {
   "alignment" : 4,
   "enum_fields" :
   [
    {
     "enum_field_value" : 0,
     "name" : "ADATASPACE_UNKNOWN"
    },
    {
     "enum_field_value" : 406913024,
     "name" : "ADATASPACE_SCRGB_LINEAR"
    },
    {
     "enum_field_value" : 142671872,
     "name" : "ADATASPACE_SRGB"
    },
    {
     "enum_field_value" : 411107328,
     "name" : "ADATASPACE_SCRGB"
    },
    {
     "enum_field_value" : 143261696,
     "name" : "ADATASPACE_DISPLAY_P3"
    },
    {
     "enum_field_value" : 163971072,
     "name" : "ADATASPACE_BT2020_PQ"
    },
    {
     "enum_field_value" : 151715840,
     "name" : "ADATASPACE_ADOBE_RGB"
    },
    {
     "enum_field_value" : 147193856,
     "name" : "ADATASPACE_BT2020"
    },
    {
     "enum_field_value" : 281083904,
     "name" : "ADATASPACE_BT709"
    },
    {
     "enum_field_value" : 155844608,
     "name" : "ADATASPACE_DCI_P3"
    },
    {
     "enum_field_value" : 138477568,
     "name" : "ADATASPACE_SRGB_LINEAR"
    }
   ],
   "linker_set_key" : "_ZTI10ADataSpace",
   "name" : "ADataSpace",
   "referenced_type" : "_ZTI10ADataSpace",
   "self_type" : "_ZTI10ADataSpace",
   "size" : 4,
   "source_file" : "frameworks/native/libs/nativewindow/include/android/data_space.h",
   "underlying_type" : "_ZTIj"
  },
  {
   "alignment" : 4,
   "enum_fields" :
   [
    {
     "enum_field_value" : 131,
     "name" : "RsBlasNonUnit"
    },
    {
     "enum_field_value" : 132,
     "name" : "RsBlasUnit"
    }
   ],
   "linker_set_key" : "_ZTI10RsBlasDiag",
   "name" : "RsBlasDiag",
   "referenced_type" : "_ZTI10RsBlasDiag",
   "self_type" : "_ZTI10RsBlasDiag",
   "size" : 4,
   "source_file" : "frameworks/rs/rsDefines.h",
   "underlying_type" : "_ZTIj"
  },
  {
   "alignment" : 4,
   "enum_fields" :
   [
    {
     "enum_field_value" : 141,
     "name" : "RsBlasLeft"
    },
    {
     "enum_field_value" : 142,
     "name" : "RsBlasRight"
    }
   ],
   "linker_set_key" : "_ZTI10RsBlasSide",
   "name" : "RsBlasSide",
   "referenced_type" : "_ZTI10RsBlasSide",
   "self_type" : "_ZTI10RsBlasSide",
   "size" : 4,
   "source_file" : "frameworks/rs/rsDefines.h",
   "underlying_type" : "_ZTIj"
  },
  {
   "alignment" : 4,
   "enum_fields" :
   [
    {
     "enum_field_value" : 121,
     "name" : "RsBlasUpper"
    },
    {
     "enum_field_value" : 122,
     "name" : "RsBlasLower"
    }
   ],
   "linker_set_key" : "_ZTI10RsBlasUplo",
   "name" : "RsBlasUplo",
   "referenced_type" : "_ZTI10RsBlasUplo",
   "self_type" : "_ZTI10RsBlasUplo",
   "size" : 4,
   "source_file" : "frameworks/rs/rsDefines.h",
   "underlying_type" : "_ZTIj"
  },
  {
   "alignment" : 4,
   "enum_fields" :
   [
    {
     "enum_field_value" : 0,
     "name" : "RS_CULL_BACK"
    },
    {
     "enum_field_value" : 1,
     "name" : "RS_CULL_FRONT"
    },
    {
     "enum_field_value" : 2,
     "name" : "RS_CULL_NONE"
    },
    {
     "enum_field_value" : 100,
     "name" : "RS_CULL_INVALID"
    }
   ],
   "linker_set_key" : "_ZTI10RsCullMode",
   "name" : "RsCullMode",
   "referenced_type" : "_ZTI10RsCullMode",
   "self_type" : "_ZTI10RsCullMode",
   "size" : 4,
   "source_file" : "frameworks/rs/rsInternalDefines.h",
   "underlying_type" : "_ZTIj"
  },
  {
   "alignment" : 4,
   "enum_fields" :
   [
    {
     "enum_field_value" : 0,
     "name" : "RS_KIND_USER"
    },
    {
     "enum_field_value" : 7,
     "name" : "RS_KIND_PIXEL_L"
    },
    {
     "enum_field_value" : 8,
     "name" : "RS_KIND_PIXEL_A"
    },
    {
     "enum_field_value" : 9,
     "name" : "RS_KIND_PIXEL_LA"
    },
    {
     "enum_field_value" : 10,
     "name" : "RS_KIND_PIXEL_RGB"
    },
    {
     "enum_field_value" : 11,
     "name" : "RS_KIND_PIXEL_RGBA"
    },
    {
     "enum_field_value" : 12,
     "name" : "RS_KIND_PIXEL_DEPTH"
    },
    {
     "enum_field_value" : 13,
     "name" : "RS_KIND_PIXEL_YUV"
    },
    {
     "enum_field_value" : 100,
     "name" : "RS_KIND_INVALID"
    }
   ],
   "linker_set_key" : "_ZTI10RsDataKind",
   "name" : "RsDataKind",
   "referenced_type" : "_ZTI10RsDataKind",
   "self_type" : "_ZTI10RsDataKind",
   "size" : 4,
   "source_file" : "frameworks/rs/rsDefines.h",
   "underlying_type" : "_ZTIj"
  },
  {
   "alignment" : 4,
   "enum_fields" :
   [
    {
     "enum_field_value" : 0,
     "name" : "RS_TYPE_NONE"
    },
    {
     "enum_field_value" : 1,
     "name" : "RS_TYPE_FLOAT_16"
    },
    {
     "enum_field_value" : 2,
     "name" : "RS_TYPE_FLOAT_32"
    },
    {
     "enum_field_value" : 3,
     "name" : "RS_TYPE_FLOAT_64"
    },
    {
     "enum_field_value" : 4,
     "name" : "RS_TYPE_SIGNED_8"
    },
    {
     "enum_field_value" : 5,
     "name" : "RS_TYPE_SIGNED_16"
    },
    {
     "enum_field_value" : 6,
     "name" : "RS_TYPE_SIGNED_32"
    },
    {
     "enum_field_value" : 7,
     "name" : "RS_TYPE_SIGNED_64"
    },
    {
     "enum_field_value" : 8,
     "name" : "RS_TYPE_UNSIGNED_8"
    },
    {
     "enum_field_value" : 9,
     "name" : "RS_TYPE_UNSIGNED_16"
    },
    {
     "enum_field_value" : 10,
     "name" : "RS_TYPE_UNSIGNED_32"
    },
    {
     "enum_field_value" : 11,
     "name" : "RS_TYPE_UNSIGNED_64"
    },
    {
     "enum_field_value" : 12,
     "name" : "RS_TYPE_BOOLEAN"
    },
    {
     "enum_field_value" : 13,
     "name" : "RS_TYPE_UNSIGNED_5_6_5"
    },
    {
     "enum_field_value" : 14,
     "name" : "RS_TYPE_UNSIGNED_5_5_5_1"
    },
    {
     "enum_field_value" : 15,
     "name" : "RS_TYPE_UNSIGNED_4_4_4_4"
    },
    {
     "enum_field_value" : 16,
     "name" : "RS_TYPE_MATRIX_4X4"
    },
    {
     "enum_field_value" : 17,
     "name" : "RS_TYPE_MATRIX_3X3"
    },
    {
     "enum_field_value" : 18,
     "name" : "RS_TYPE_MATRIX_2X2"
    },
    {
     "enum_field_value" : 1000,
     "name" : "RS_TYPE_ELEMENT"
    },
    {
     "enum_field_value" : 1001,
     "name" : "RS_TYPE_TYPE"
    },
    {
     "enum_field_value" : 1002,
     "name" : "RS_TYPE_ALLOCATION"
    },
    {
     "enum_field_value" : 1003,
     "name" : "RS_TYPE_SAMPLER"
    },
    {
     "enum_field_value" : 1004,
     "name" : "RS_TYPE_SCRIPT"
    },
    {
     "enum_field_value" : 1005,
     "name" : "RS_TYPE_MESH"
    },
    {
     "enum_field_value" : 1006,
     "name" : "RS_TYPE_PROGRAM_FRAGMENT"
    },
    {
     "enum_field_value" : 1007,
     "name" : "RS_TYPE_PROGRAM_VERTEX"
    },
    {
     "enum_field_value" : 1008,
     "name" : "RS_TYPE_PROGRAM_RASTER"
    },
    {
     "enum_field_value" : 1009,
     "name" : "RS_TYPE_PROGRAM_STORE"
    },
    {
     "enum_field_value" : 1010,
     "name" : "RS_TYPE_FONT"
    },
    {
     "enum_field_value" : 10000,
     "name" : "RS_TYPE_INVALID"
    }
   ],
   "linker_set_key" : "_ZTI10RsDataType",
   "name" : "RsDataType",
   "referenced_type" : "_ZTI10RsDataType",
   "self_type" : "_ZTI10RsDataType",
   "size" : 4,
   "source_file" : "frameworks/rs/rsDefines.h",
   "underlying_type" : "_ZTIj"
  },
  {
   "alignment" : 4,
   "enum_fields" :
   [
    {
     "enum_field_value" : 0,
     "name" : "RS_DEPTH_FUNC_ALWAYS"
    },
    {
     "enum_field_value" : 1,
     "name" : "RS_DEPTH_FUNC_LESS"
    },
    {
     "enum_field_value" : 2,
     "name" : "RS_DEPTH_FUNC_LEQUAL"
    },
    {
     "enum_field_value" : 3,
     "name" : "RS_DEPTH_FUNC_GREATER"
    },
    {
     "enum_field_value" : 4,
     "name" : "RS_DEPTH_FUNC_GEQUAL"
    },
    {
     "enum_field_value" : 5,
     "name" : "RS_DEPTH_FUNC_EQUAL"
    },
    {
     "enum_field_value" : 6,
     "name" : "RS_DEPTH_FUNC_NOTEQUAL"
    }
   ],
   "linker_set_key" : "_ZTI11RsDepthFunc",
   "name" : "RsDepthFunc",
   "referenced_type" : "_ZTI11RsDepthFunc",
   "self_type" : "_ZTI11RsDepthFunc",
   "size" : 4,
   "source_file" : "frameworks/rs/rsInternalDefines.h",
   "underlying_type" : "_ZTIj"
  },
  {
   "alignment" : 4,
   "enum_fields" :
   [
    {
     "enum_field_value" : 0,
     "name" : "RS_DIMENSION_X"
    },
    {
     "enum_field_value" : 1,
     "name" : "RS_DIMENSION_Y"
    },
    {
     "enum_field_value" : 2,
     "name" : "RS_DIMENSION_Z"
    },
    {
     "enum_field_value" : 3,
     "name" : "RS_DIMENSION_LOD"
    },
    {
     "enum_field_value" : 4,
     "name" : "RS_DIMENSION_FACE"
    },
    {
     "enum_field_value" : 100,
     "name" : "RS_DIMENSION_ARRAY_0"
    },
    {
     "enum_field_value" : 101,
     "name" : "RS_DIMENSION_ARRAY_1"
    },
    {
     "enum_field_value" : 102,
     "name" : "RS_DIMENSION_ARRAY_2"
    },
    {
     "enum_field_value" : 103,
     "name" : "RS_DIMENSION_ARRAY_3"
    },
    {
     "enum_field_value" : 103,
     "name" : "RS_DIMENSION_MAX"
    }
   ],
   "linker_set_key" : "_ZTI11RsDimension",
   "name" : "RsDimension",
   "referenced_type" : "_ZTI11RsDimension",
   "self_type" : "_ZTI11RsDimension",
   "size" : 4,
   "source_file" : "frameworks/rs/rsDefines.h",
   "underlying_type" : "_ZTIj"
  },
  {
   "alignment" : 4,
   "enum_fields" :
   [
    {
     "enum_field_value" : 0,
     "name" : "RS_PRIMITIVE_POINT"
    },
    {
     "enum_field_value" : 1,
     "name" : "RS_PRIMITIVE_LINE"
    },
    {
     "enum_field_value" : 2,
     "name" : "RS_PRIMITIVE_LINE_STRIP"
    },
    {
     "enum_field_value" : 3,
     "name" : "RS_PRIMITIVE_TRIANGLE"
    },
    {
     "enum_field_value" : 4,
     "name" : "RS_PRIMITIVE_TRIANGLE_STRIP"
    },
    {
     "enum_field_value" : 5,
     "name" : "RS_PRIMITIVE_TRIANGLE_FAN"
    },
    {
     "enum_field_value" : 100,
     "name" : "RS_PRIMITIVE_INVALID"
    }
   ],
   "linker_set_key" : "_ZTI11RsPrimitive",
   "name" : "RsPrimitive",
   "referenced_type" : "_ZTI11RsPrimitive",
   "self_type" : "_ZTI11RsPrimitive",
   "size" : 4,
   "source_file" : "frameworks/rs/rsInternalDefines.h",
   "underlying_type" : "_ZTIj"
  },
  {
   "alignment" : 4,
   "enum_fields" :
   [
    {
     "enum_field_value" : 0,
     "name" : "RS_YUV_NONE"
    },
    {
     "enum_field_value" : 842094169,
     "name" : "RS_YUV_YV12"
    },
    {
     "enum_field_value" : 17,
     "name" : "RS_YUV_NV21"
    },
    {
     "enum_field_value" : 35,
     "name" : "RS_YUV_420_888"
    }
   ],
   "linker_set_key" : "_ZTI11RsYuvFormat",
   "name" : "RsYuvFormat",
   "referenced_type" : "_ZTI11RsYuvFormat",
   "self_type" : "_ZTI11RsYuvFormat",
   "size" : 4,
   "source_file" : "frameworks/rs/rsDefines.h",
   "underlying_type" : "_ZTIj"
  },
  {
   "alignment" : 4,
   "enum_fields" :
   [
    {
     "enum_field_value" : 0,
     "name" : "RS_A3D_CLASS_ID_UNKNOWN"
    },
    {
     "enum_field_value" : 1,
     "name" : "RS_A3D_CLASS_ID_MESH"
    },
    {
     "enum_field_value" : 2,
     "name" : "RS_A3D_CLASS_ID_TYPE"
    },
    {
     "enum_field_value" : 3,
     "name" : "RS_A3D_CLASS_ID_ELEMENT"
    },
    {
     "enum_field_value" : 4,
     "name" : "RS_A3D_CLASS_ID_ALLOCATION"
    },
    {
     "enum_field_value" : 5,
     "name" : "RS_A3D_CLASS_ID_PROGRAM_VERTEX"
    },
    {
     "enum_field_value" : 6,
     "name" : "RS_A3D_CLASS_ID_PROGRAM_RASTER"
    },
    {
     "enum_field_value" : 7,
     "name" : "RS_A3D_CLASS_ID_PROGRAM_FRAGMENT"
    },
    {
     "enum_field_value" : 8,
     "name" : "RS_A3D_CLASS_ID_PROGRAM_STORE"
    },
    {
     "enum_field_value" : 9,
     "name" : "RS_A3D_CLASS_ID_SAMPLER"
    },
    {
     "enum_field_value" : 10,
     "name" : "RS_A3D_CLASS_ID_ANIMATION"
    },
    {
     "enum_field_value" : 11,
     "name" : "RS_A3D_CLASS_ID_ADAPTER_1D"
    },
    {
     "enum_field_value" : 12,
     "name" : "RS_A3D_CLASS_ID_ADAPTER_2D"
    },
    {
     "enum_field_value" : 13,
     "name" : "RS_A3D_CLASS_ID_SCRIPT_C"
    },
    {
     "enum_field_value" : 14,
     "name" : "RS_A3D_CLASS_ID_SCRIPT_KERNEL_ID"
    },
    {
     "enum_field_value" : 15,
     "name" : "RS_A3D_CLASS_ID_SCRIPT_FIELD_ID"
    },
    {
     "enum_field_value" : 16,
     "name" : "RS_A3D_CLASS_ID_SCRIPT_METHOD_ID"
    },
    {
     "enum_field_value" : 17,
     "name" : "RS_A3D_CLASS_ID_SCRIPT_GROUP"
    },
    {
     "enum_field_value" : 18,
     "name" : "RS_A3D_CLASS_ID_CLOSURE"
    },
    {
     "enum_field_value" : 19,
     "name" : "RS_A3D_CLASS_ID_SCRIPT_GROUP2"
    },
    {
     "enum_field_value" : 20,
     "name" : "RS_A3D_CLASS_ID_SCRIPT_INVOKE_ID"
    }
   ],
   "linker_set_key" : "_ZTI12RsA3DClassID",
   "name" : "RsA3DClassID",
   "referenced_type" : "_ZTI12RsA3DClassID",
   "self_type" : "_ZTI12RsA3DClassID",
   "size" : 4,
   "source_file" : "frameworks/rs/rsInternalDefines.h",
   "underlying_type" : "_ZTIj"
  },
  {
   "alignment" : 4,
   "enum_fields" :
   [
    {
     "enum_field_value" : 0,
     "name" : "RS_TEX_ENV_MODE_NONE"
    },
    {
     "enum_field_value" : 1,
     "name" : "RS_TEX_ENV_MODE_REPLACE"
    },
    {
     "enum_field_value" : 2,
     "name" : "RS_TEX_ENV_MODE_MODULATE"
    },
    {
     "enum_field_value" : 3,
     "name" : "RS_TEX_ENV_MODE_DECAL"
    }
   ],
   "linker_set_key" : "_ZTI12RsTexEnvMode",
   "name" : "RsTexEnvMode",
   "referenced_type" : "_ZTI12RsTexEnvMode",
   "self_type" : "_ZTI12RsTexEnvMode",
   "size" : 4,
   "source_file" : "frameworks/rs/rsInternalDefines.h",
   "underlying_type" : "_ZTIj"
  },
  {
   "alignment" : 4,
   "enum_fields" :
   [
    {
     "enum_field_value" : 0,
     "name" : "RS_CONTEXT_TYPE_NORMAL"
    },
    {
     "enum_field_value" : 1,
     "name" : "RS_CONTEXT_TYPE_DEBUG"
    },
    {
     "enum_field_value" : 2,
     "name" : "RS_CONTEXT_TYPE_PROFILE"
    }
   ],
   "linker_set_key" : "_ZTI13RsContextType",
   "name" : "RsContextType",
   "referenced_type" : "_ZTI13RsContextType",
   "self_type" : "_ZTI13RsContextType",
   "size" : 4,
   "source_file" : "frameworks/rs/rsDefines.h",
   "underlying_type" : "_ZTIj"
  },
  {
   "alignment" : 4,
   "enum_fields" :
   [
    {
     "enum_field_value" : 0,
     "name" : "RS_DEVICE_PARAM_FORCE_SOFTWARE_GL"
    },
    {
     "enum_field_value" : 1,
     "name" : "RS_DEVICE_PARAM_COUNT"
    }
   ],
   "linker_set_key" : "_ZTI13RsDeviceParam",
   "name" : "RsDeviceParam",
   "referenced_type" : "_ZTI13RsDeviceParam",
   "self_type" : "_ZTI13RsDeviceParam",
   "size" : 4,
   "source_file" : "frameworks/rs/rsDefines.h",
   "underlying_type" : "_ZTIj"
  },
  {
   "alignment" : 4,
   "enum_fields" :
   [
    {
     "enum_field_value" : 1,
     "name" : "AIMAGE_FORMAT_RGBA_8888"
    },
    {
     "enum_field_value" : 2,
     "name" : "AIMAGE_FORMAT_RGBX_8888"
    },
    {
     "enum_field_value" : 3,
     "name" : "AIMAGE_FORMAT_RGB_888"
    },
    {
     "enum_field_value" : 4,
     "name" : "AIMAGE_FORMAT_RGB_565"
    },
    {
     "enum_field_value" : 22,
     "name" : "AIMAGE_FORMAT_RGBA_FP16"
    },
    {
     "enum_field_value" : 35,
     "name" : "AIMAGE_FORMAT_YUV_420_888"
    },
    {
     "enum_field_value" : 256,
     "name" : "AIMAGE_FORMAT_JPEG"
    },
    {
     "enum_field_value" : 32,
     "name" : "AIMAGE_FORMAT_RAW16"
    },
    {
     "enum_field_value" : 36,
     "name" : "AIMAGE_FORMAT_RAW_PRIVATE"
    },
    {
     "enum_field_value" : 37,
     "name" : "AIMAGE_FORMAT_RAW10"
    },
    {
     "enum_field_value" : 38,
     "name" : "AIMAGE_FORMAT_RAW12"
    },
    {
     "enum_field_value" : 1144402265,
     "name" : "AIMAGE_FORMAT_DEPTH16"
    },
    {
     "enum_field_value" : 257,
     "name" : "AIMAGE_FORMAT_DEPTH_POINT_CLOUD"
    },
    {
     "enum_field_value" : 34,
     "name" : "AIMAGE_FORMAT_PRIVATE"
    },
    {
     "enum_field_value" : 538982489,
     "name" : "AIMAGE_FORMAT_Y8"
    },
    {
     "enum_field_value" : 1212500294,
     "name" : "AIMAGE_FORMAT_HEIC"
    },
    {
     "enum_field_value" : 1768253795,
     "name" : "AIMAGE_FORMAT_DEPTH_JPEG"
    }
   ],
   "linker_set_key" : "_ZTI14AIMAGE_FORMATS",
   "name" : "AIMAGE_FORMATS",
   "referenced_type" : "_ZTI14AIMAGE_FORMATS",
   "self_type" : "_ZTI14AIMAGE_FORMATS",
   "size" : 4,
   "source_file" : "frameworks/av/media/ndk/include/media/NdkImage.h",
   "underlying_type" : "_ZTIj"
  },
  {
   "alignment" : 4,
   "enum_fields" :
   [
    {
     "enum_field_value" : 0,
     "name" : "RsBlas_nop"
    },
    {
     "enum_field_value" : 1,
     "name" : "RsBlas_sdsdot"
    },
    {
     "enum_field_value" : 2,
     "name" : "RsBlas_dsdot"
    },
    {
     "enum_field_value" : 3,
     "name" : "RsBlas_sdot"
    },
    {
     "enum_field_value" : 4,
     "name" : "RsBlas_ddot"
    },
    {
     "enum_field_value" : 5,
     "name" : "RsBlas_cdotu_sub"
    },
    {
     "enum_field_value" : 6,
     "name" : "RsBlas_cdotc_sub"
    },
    {
     "enum_field_value" : 7,
     "name" : "RsBlas_zdotu_sub"
    },
    {
     "enum_field_value" : 8,
     "name" : "RsBlas_zdotc_sub"
    },
    {
     "enum_field_value" : 9,
     "name" : "RsBlas_snrm2"
    },
    {
     "enum_field_value" : 10,
     "name" : "RsBlas_sasum"
    },
    {
     "enum_field_value" : 11,
     "name" : "RsBlas_dnrm2"
    },
    {
     "enum_field_value" : 12,
     "name" : "RsBlas_dasum"
    },
    {
     "enum_field_value" : 13,
     "name" : "RsBlas_scnrm2"
    },
    {
     "enum_field_value" : 14,
     "name" : "RsBlas_scasum"
    },
    {
     "enum_field_value" : 15,
     "name" : "RsBlas_dznrm2"
    },
    {
     "enum_field_value" : 16,
     "name" : "RsBlas_dzasum"
    },
    {
     "enum_field_value" : 17,
     "name" : "RsBlas_isamax"
    },
    {
     "enum_field_value" : 18,
     "name" : "RsBlas_idamax"
    },
    {
     "enum_field_value" : 19,
     "name" : "RsBlas_icamax"
    },
    {
     "enum_field_value" : 20,
     "name" : "RsBlas_izamax"
    },
    {
     "enum_field_value" : 21,
     "name" : "RsBlas_sswap"
    },
    {
     "enum_field_value" : 22,
     "name" : "RsBlas_scopy"
    },
    {
     "enum_field_value" : 23,
     "name" : "RsBlas_saxpy"
    },
    {
     "enum_field_value" : 24,
     "name" : "RsBlas_dswap"
    },
    {
     "enum_field_value" : 25,
     "name" : "RsBlas_dcopy"
    },
    {
     "enum_field_value" : 26,
     "name" : "RsBlas_daxpy"
    },
    {
     "enum_field_value" : 27,
     "name" : "RsBlas_cswap"
    },
    {
     "enum_field_value" : 28,
     "name" : "RsBlas_ccopy"
    },
    {
     "enum_field_value" : 29,
     "name" : "RsBlas_caxpy"
    },
    {
     "enum_field_value" : 30,
     "name" : "RsBlas_zswap"
    },
    {
     "enum_field_value" : 31,
     "name" : "RsBlas_zcopy"
    },
    {
     "enum_field_value" : 32,
     "name" : "RsBlas_zaxpy"
    },
    {
     "enum_field_value" : 33,
     "name" : "RsBlas_srotg"
    },
    {
     "enum_field_value" : 34,
     "name" : "RsBlas_srotmg"
    },
    {
     "enum_field_value" : 35,
     "name" : "RsBlas_srot"
    },
    {
     "enum_field_value" : 36,
     "name" : "RsBlas_srotm"
    },
    {
     "enum_field_value" : 37,
     "name" : "RsBlas_drotg"
    },
    {
     "enum_field_value" : 38,
     "name" : "RsBlas_drotmg"
    },
    {
     "enum_field_value" : 39,
     "name" : "RsBlas_drot"
    },
    {
     "enum_field_value" : 40,
     "name" : "RsBlas_drotm"
    },
    {
     "enum_field_value" : 41,
     "name" : "RsBlas_sscal"
    },
    {
     "enum_field_value" : 42,
     "name" : "RsBlas_dscal"
    },
    {
     "enum_field_value" : 43,
     "name" : "RsBlas_cscal"
    },
    {
     "enum_field_value" : 44,
     "name" : "RsBlas_zscal"
    },
    {
     "enum_field_value" : 45,
     "name" : "RsBlas_csscal"
    },
    {
     "enum_field_value" : 46,
     "name" : "RsBlas_zdscal"
    },
    {
     "enum_field_value" : 47,
     "name" : "RsBlas_sgemv"
    },
    {
     "enum_field_value" : 48,
     "name" : "RsBlas_sgbmv"
    },
    {
     "enum_field_value" : 49,
     "name" : "RsBlas_strmv"
    },
    {
     "enum_field_value" : 50,
     "name" : "RsBlas_stbmv"
    },
    {
     "enum_field_value" : 51,
     "name" : "RsBlas_stpmv"
    },
    {
     "enum_field_value" : 52,
     "name" : "RsBlas_strsv"
    },
    {
     "enum_field_value" : 53,
     "name" : "RsBlas_stbsv"
    },
    {
     "enum_field_value" : 54,
     "name" : "RsBlas_stpsv"
    },
    {
     "enum_field_value" : 55,
     "name" : "RsBlas_dgemv"
    },
    {
     "enum_field_value" : 56,
     "name" : "RsBlas_dgbmv"
    },
    {
     "enum_field_value" : 57,
     "name" : "RsBlas_dtrmv"
    },
    {
     "enum_field_value" : 58,
     "name" : "RsBlas_dtbmv"
    },
    {
     "enum_field_value" : 59,
     "name" : "RsBlas_dtpmv"
    },
    {
     "enum_field_value" : 60,
     "name" : "RsBlas_dtrsv"
    },
    {
     "enum_field_value" : 61,
     "name" : "RsBlas_dtbsv"
    },
    {
     "enum_field_value" : 62,
     "name" : "RsBlas_dtpsv"
    },
    {
     "enum_field_value" : 63,
     "name" : "RsBlas_cgemv"
    },
    {
     "enum_field_value" : 64,
     "name" : "RsBlas_cgbmv"
    },
    {
     "enum_field_value" : 65,
     "name" : "RsBlas_ctrmv"
    },
    {
     "enum_field_value" : 66,
     "name" : "RsBlas_ctbmv"
    },
    {
     "enum_field_value" : 67,
     "name" : "RsBlas_ctpmv"
    },
    {
     "enum_field_value" : 68,
     "name" : "RsBlas_ctrsv"
    },
    {
     "enum_field_value" : 69,
     "name" : "RsBlas_ctbsv"
    },
    {
     "enum_field_value" : 70,
     "name" : "RsBlas_ctpsv"
    },
    {
     "enum_field_value" : 71,
     "name" : "RsBlas_zgemv"
    },
    {
     "enum_field_value" : 72,
     "name" : "RsBlas_zgbmv"
    },
    {
     "enum_field_value" : 73,
     "name" : "RsBlas_ztrmv"
    },
    {
     "enum_field_value" : 74,
     "name" : "RsBlas_ztbmv"
    },
    {
     "enum_field_value" : 75,
     "name" : "RsBlas_ztpmv"
    },
    {
     "enum_field_value" : 76,
     "name" : "RsBlas_ztrsv"
    },
    {
     "enum_field_value" : 77,
     "name" : "RsBlas_ztbsv"
    },
    {
     "enum_field_value" : 78,
     "name" : "RsBlas_ztpsv"
    },
    {
     "enum_field_value" : 79,
     "name" : "RsBlas_ssymv"
    },
    {
     "enum_field_value" : 80,
     "name" : "RsBlas_ssbmv"
    },
    {
     "enum_field_value" : 81,
     "name" : "RsBlas_sspmv"
    },
    {
     "enum_field_value" : 82,
     "name" : "RsBlas_sger"
    },
    {
     "enum_field_value" : 83,
     "name" : "RsBlas_ssyr"
    },
    {
     "enum_field_value" : 84,
     "name" : "RsBlas_sspr"
    },
    {
     "enum_field_value" : 85,
     "name" : "RsBlas_ssyr2"
    },
    {
     "enum_field_value" : 86,
     "name" : "RsBlas_sspr2"
    },
    {
     "enum_field_value" : 87,
     "name" : "RsBlas_dsymv"
    },
    {
     "enum_field_value" : 88,
     "name" : "RsBlas_dsbmv"
    },
    {
     "enum_field_value" : 89,
     "name" : "RsBlas_dspmv"
    },
    {
     "enum_field_value" : 90,
     "name" : "RsBlas_dger"
    },
    {
     "enum_field_value" : 91,
     "name" : "RsBlas_dsyr"
    },
    {
     "enum_field_value" : 92,
     "name" : "RsBlas_dspr"
    },
    {
     "enum_field_value" : 93,
     "name" : "RsBlas_dsyr2"
    },
    {
     "enum_field_value" : 94,
     "name" : "RsBlas_dspr2"
    },
    {
     "enum_field_value" : 95,
     "name" : "RsBlas_chemv"
    },
    {
     "enum_field_value" : 96,
     "name" : "RsBlas_chbmv"
    },
    {
     "enum_field_value" : 97,
     "name" : "RsBlas_chpmv"
    },
    {
     "enum_field_value" : 98,
     "name" : "RsBlas_cgeru"
    },
    {
     "enum_field_value" : 99,
     "name" : "RsBlas_cgerc"
    },
    {
     "enum_field_value" : 100,
     "name" : "RsBlas_cher"
    },
    {
     "enum_field_value" : 101,
     "name" : "RsBlas_chpr"
    },
    {
     "enum_field_value" : 102,
     "name" : "RsBlas_cher2"
    },
    {
     "enum_field_value" : 103,
     "name" : "RsBlas_chpr2"
    },
    {
     "enum_field_value" : 104,
     "name" : "RsBlas_zhemv"
    },
    {
     "enum_field_value" : 105,
     "name" : "RsBlas_zhbmv"
    },
    {
     "enum_field_value" : 106,
     "name" : "RsBlas_zhpmv"
    },
    {
     "enum_field_value" : 107,
     "name" : "RsBlas_zgeru"
    },
    {
     "enum_field_value" : 108,
     "name" : "RsBlas_zgerc"
    },
    {
     "enum_field_value" : 109,
     "name" : "RsBlas_zher"
    },
    {
     "enum_field_value" : 110,
     "name" : "RsBlas_zhpr"
    },
    {
     "enum_field_value" : 111,
     "name" : "RsBlas_zher2"
    },
    {
     "enum_field_value" : 112,
     "name" : "RsBlas_zhpr2"
    },
    {
     "enum_field_value" : 113,
     "name" : "RsBlas_sgemm"
    },
    {
     "enum_field_value" : 114,
     "name" : "RsBlas_ssymm"
    },
    {
     "enum_field_value" : 115,
     "name" : "RsBlas_ssyrk"
    },
    {
     "enum_field_value" : 116,
     "name" : "RsBlas_ssyr2k"
    },
    {
     "enum_field_value" : 117,
     "name" : "RsBlas_strmm"
    },
    {
     "enum_field_value" : 118,
     "name" : "RsBlas_strsm"
    },
    {
     "enum_field_value" : 119,
     "name" : "RsBlas_dgemm"
    },
    {
     "enum_field_value" : 120,
     "name" : "RsBlas_dsymm"
    },
    {
     "enum_field_value" : 121,
     "name" : "RsBlas_dsyrk"
    },
    {
     "enum_field_value" : 122,
     "name" : "RsBlas_dsyr2k"
    },
    {
     "enum_field_value" : 123,
     "name" : "RsBlas_dtrmm"
    },
    {
     "enum_field_value" : 124,
     "name" : "RsBlas_dtrsm"
    },
    {
     "enum_field_value" : 125,
     "name" : "RsBlas_cgemm"
    },
    {
     "enum_field_value" : 126,
     "name" : "RsBlas_csymm"
    },
    {
     "enum_field_value" : 127,
     "name" : "RsBlas_csyrk"
    },
    {
     "enum_field_value" : 128,
     "name" : "RsBlas_csyr2k"
    },
    {
     "enum_field_value" : 129,
     "name" : "RsBlas_ctrmm"
    },
    {
     "enum_field_value" : 130,
     "name" : "RsBlas_ctrsm"
    },
    {
     "enum_field_value" : 131,
     "name" : "RsBlas_zgemm"
    },
    {
     "enum_field_value" : 132,
     "name" : "RsBlas_zsymm"
    },
    {
     "enum_field_value" : 133,
     "name" : "RsBlas_zsyrk"
    },
    {
     "enum_field_value" : 134,
     "name" : "RsBlas_zsyr2k"
    },
    {
     "enum_field_value" : 135,
     "name" : "RsBlas_ztrmm"
    },
    {
     "enum_field_value" : 136,
     "name" : "RsBlas_ztrsm"
    },
    {
     "enum_field_value" : 137,
     "name" : "RsBlas_chemm"
    },
    {
     "enum_field_value" : 138,
     "name" : "RsBlas_cherk"
    },
    {
     "enum_field_value" : 139,
     "name" : "RsBlas_cher2k"
    },
    {
     "enum_field_value" : 140,
     "name" : "RsBlas_zhemm"
    },
    {
     "enum_field_value" : 141,
     "name" : "RsBlas_zherk"
    },
    {
     "enum_field_value" : 142,
     "name" : "RsBlas_zher2k"
    },
    {
     "enum_field_value" : 1000,
     "name" : "RsBlas_bnnm"
    }
   ],
   "linker_set_key" : "_ZTI14RsBlasFunction",
   "name" : "RsBlasFunction",
   "referenced_type" : "_ZTI14RsBlasFunction",
   "self_type" : "_ZTI14RsBlasFunction",
   "size" : 4,
   "source_file" : "frameworks/rs/rsDefines.h",
   "underlying_type" : "_ZTIj"
  },
  {
   "alignment" : 4,
   "enum_fields" :
   [
    {
     "enum_field_value" : 0,
     "name" : "RS_BLEND_DST_ZERO"
    },
    {
     "enum_field_value" : 1,
     "name" : "RS_BLEND_DST_ONE"
    },
    {
     "enum_field_value" : 2,
     "name" : "RS_BLEND_DST_SRC_COLOR"
    },
    {
     "enum_field_value" : 3,
     "name" : "RS_BLEND_DST_ONE_MINUS_SRC_COLOR"
    },
    {
     "enum_field_value" : 4,
     "name" : "RS_BLEND_DST_SRC_ALPHA"
    },
    {
     "enum_field_value" : 5,
     "name" : "RS_BLEND_DST_ONE_MINUS_SRC_ALPHA"
    },
    {
     "enum_field_value" : 6,
     "name" : "RS_BLEND_DST_DST_ALPHA"
    },
    {
     "enum_field_value" : 7,
     "name" : "RS_BLEND_DST_ONE_MINUS_DST_ALPHA"
    },
    {
     "enum_field_value" : 100,
     "name" : "RS_BLEND_DST_INVALID"
    }
   ],
   "linker_set_key" : "_ZTI14RsBlendDstFunc",
   "name" : "RsBlendDstFunc",
   "referenced_type" : "_ZTI14RsBlendDstFunc",
   "self_type" : "_ZTI14RsBlendDstFunc",
   "size" : 4,
   "source_file" : "frameworks/rs/rsInternalDefines.h",
   "underlying_type" : "_ZTIj"
  },
  {
   "alignment" : 4,
   "enum_fields" :
   [
    {
     "enum_field_value" : 0,
     "name" : "RS_BLEND_SRC_ZERO"
    },
    {
     "enum_field_value" : 1,
     "name" : "RS_BLEND_SRC_ONE"
    },
    {
     "enum_field_value" : 2,
     "name" : "RS_BLEND_SRC_DST_COLOR"
    },
    {
     "enum_field_value" : 3,
     "name" : "RS_BLEND_SRC_ONE_MINUS_DST_COLOR"
    },
    {
     "enum_field_value" : 4,
     "name" : "RS_BLEND_SRC_SRC_ALPHA"
    },
    {
     "enum_field_value" : 5,
     "name" : "RS_BLEND_SRC_ONE_MINUS_SRC_ALPHA"
    },
    {
     "enum_field_value" : 6,
     "name" : "RS_BLEND_SRC_DST_ALPHA"
    },
    {
     "enum_field_value" : 7,
     "name" : "RS_BLEND_SRC_ONE_MINUS_DST_ALPHA"
    },
    {
     "enum_field_value" : 8,
     "name" : "RS_BLEND_SRC_SRC_ALPHA_SATURATE"
    },
    {
     "enum_field_value" : 100,
     "name" : "RS_BLEND_SRC_INVALID"
    }
   ],
   "linker_set_key" : "_ZTI14RsBlendSrcFunc",
   "name" : "RsBlendSrcFunc",
   "referenced_type" : "_ZTI14RsBlendSrcFunc",
   "self_type" : "_ZTI14RsBlendSrcFunc",
   "size" : 4,
   "source_file" : "frameworks/rs/rsInternalDefines.h",
   "underlying_type" : "_ZTIj"
  },
  {
   "alignment" : 4,
   "enum_fields" :
   [
    {
     "enum_field_value" : 1,
     "name" : "RS_CONTEXT_SYNCHRONOUS"
    },
    {
     "enum_field_value" : 2,
     "name" : "RS_CONTEXT_LOW_LATENCY"
    },
    {
     "enum_field_value" : 4,
     "name" : "RS_CONTEXT_LOW_POWER"
    },
    {
     "enum_field_value" : 8,
     "name" : "RS_CONTEXT_WAIT_FOR_ATTACH"
    }
   ],
   "linker_set_key" : "_ZTI14RsContextFlags",
   "name" : "RsContextFlags",
   "referenced_type" : "_ZTI14RsContextFlags",
   "self_type" : "_ZTI14RsContextFlags",
   "size" : 4,
   "source_file" : "frameworks/rs/rsDefines.h",
   "underlying_type" : "_ZTIj"
  },
  {
   "alignment" : 4,
   "enum_fields" :
   [
    {
     "enum_field_value" : 0,
     "name" : "RS_PROGRAM_PARAM_INPUT"
    },
    {
     "enum_field_value" : 1,
     "name" : "RS_PROGRAM_PARAM_OUTPUT"
    },
    {
     "enum_field_value" : 2,
     "name" : "RS_PROGRAM_PARAM_CONSTANT"
    },
    {
     "enum_field_value" : 3,
     "name" : "RS_PROGRAM_PARAM_TEXTURE_TYPE"
    }
   ],
   "linker_set_key" : "_ZTI14RsProgramParam",
   "name" : "RsProgramParam",
   "referenced_type" : "_ZTI14RsProgramParam",
   "self_type" : "_ZTI14RsProgramParam",
   "size" : 4,
   "source_file" : "frameworks/rs/rsInternalDefines.h",
   "underlying_type" : "_ZTIj"
  },
  {
   "alignment" : 4,
   "enum_fields" :
   [
    {
     "enum_field_value" : 0,
     "name" : "RS_SAMPLER_MIN_FILTER"
    },
    {
     "enum_field_value" : 1,
     "name" : "RS_SAMPLER_MAG_FILTER"
    },
    {
     "enum_field_value" : 2,
     "name" : "RS_SAMPLER_WRAP_S"
    },
    {
     "enum_field_value" : 3,
     "name" : "RS_SAMPLER_WRAP_T"
    },
    {
     "enum_field_value" : 4,
     "name" : "RS_SAMPLER_WRAP_R"
    },
    {
     "enum_field_value" : 5,
     "name" : "RS_SAMPLER_ANISO"
    }
   ],
   "linker_set_key" : "_ZTI14RsSamplerParam",
   "name" : "RsSamplerParam",
   "referenced_type" : "_ZTI14RsSamplerParam",
   "self_type" : "_ZTI14RsSamplerParam",
   "size" : 4,
   "source_file" : "frameworks/rs/rsDefines.h",
   "underlying_type" : "_ZTIj"
  },
  {
   "alignment" : 4,
   "enum_fields" :
   [
    {
     "enum_field_value" : 0,
     "name" : "RS_SAMPLER_NEAREST"
    },
    {
     "enum_field_value" : 1,
     "name" : "RS_SAMPLER_LINEAR"
    },
    {
     "enum_field_value" : 2,
     "name" : "RS_SAMPLER_LINEAR_MIP_LINEAR"
    },
    {
     "enum_field_value" : 3,
     "name" : "RS_SAMPLER_WRAP"
    },
    {
     "enum_field_value" : 4,
     "name" : "RS_SAMPLER_CLAMP"
    },
    {
     "enum_field_value" : 5,
     "name" : "RS_SAMPLER_LINEAR_MIP_NEAREST"
    },
    {
     "enum_field_value" : 6,
     "name" : "RS_SAMPLER_MIRRORED_REPEAT"
    },
    {
     "enum_field_value" : 100,
     "name" : "RS_SAMPLER_INVALID"
    }
   ],
   "linker_set_key" : "_ZTI14RsSamplerValue",
   "name" : "RsSamplerValue",
   "referenced_type" : "_ZTI14RsSamplerValue",
   "self_type" : "_ZTI14RsSamplerValue",
   "size" : 4,
   "source_file" : "frameworks/rs/rsDefines.h",
   "underlying_type" : "_ZTIj"
  },
  {
   "alignment" : 4,
   "enum_fields" :
   [
    {
     "enum_field_value" : 0,
     "name" : "AMEDIA_OK"
    },
    {
     "enum_field_value" : 1100,
     "name" : "AMEDIACODEC_ERROR_INSUFFICIENT_RESOURCE"
    },
    {
     "enum_field_value" : 1101,
     "name" : "AMEDIACODEC_ERROR_RECLAIMED"
    },
    {
     "enum_field_value" : -10000,
     "name" : "AMEDIA_ERROR_BASE"
    },
    {
     "enum_field_value" : -10000,
     "name" : "AMEDIA_ERROR_UNKNOWN"
    },
    {
     "enum_field_value" : -10001,
     "name" : "AMEDIA_ERROR_MALFORMED"
    },
    {
     "enum_field_value" : -10002,
     "name" : "AMEDIA_ERROR_UNSUPPORTED"
    },
    {
     "enum_field_value" : -10003,
     "name" : "AMEDIA_ERROR_INVALID_OBJECT"
    },
    {
     "enum_field_value" : -10004,
     "name" : "AMEDIA_ERROR_INVALID_PARAMETER"
    },
    {
     "enum_field_value" : -10005,
     "name" : "AMEDIA_ERROR_INVALID_OPERATION"
    },
    {
     "enum_field_value" : -10006,
     "name" : "AMEDIA_ERROR_END_OF_STREAM"
    },
    {
     "enum_field_value" : -10007,
     "name" : "AMEDIA_ERROR_IO"
    },
    {
     "enum_field_value" : -10008,
     "name" : "AMEDIA_ERROR_WOULD_BLOCK"
    },
    {
     "enum_field_value" : -20000,
     "name" : "AMEDIA_DRM_ERROR_BASE"
    },
    {
     "enum_field_value" : -20001,
     "name" : "AMEDIA_DRM_NOT_PROVISIONED"
    },
    {
     "enum_field_value" : -20002,
     "name" : "AMEDIA_DRM_RESOURCE_BUSY"
    },
    {
     "enum_field_value" : -20003,
     "name" : "AMEDIA_DRM_DEVICE_REVOKED"
    },
    {
     "enum_field_value" : -20004,
     "name" : "AMEDIA_DRM_SHORT_BUFFER"
    },
    {
     "enum_field_value" : -20005,
     "name" : "AMEDIA_DRM_SESSION_NOT_OPENED"
    },
    {
     "enum_field_value" : -20006,
     "name" : "AMEDIA_DRM_TAMPER_DETECTED"
    },
    {
     "enum_field_value" : -20007,
     "name" : "AMEDIA_DRM_VERIFY_FAILED"
    },
    {
     "enum_field_value" : -20008,
     "name" : "AMEDIA_DRM_NEED_KEY"
    },
    {
     "enum_field_value" : -20009,
     "name" : "AMEDIA_DRM_LICENSE_EXPIRED"
    },
    {
     "enum_field_value" : -30000,
     "name" : "AMEDIA_IMGREADER_ERROR_BASE"
    },
    {
     "enum_field_value" : -30001,
     "name" : "AMEDIA_IMGREADER_NO_BUFFER_AVAILABLE"
    },
    {
     "enum_field_value" : -30002,
     "name" : "AMEDIA_IMGREADER_MAX_IMAGES_ACQUIRED"
    },
    {
     "enum_field_value" : -30003,
     "name" : "AMEDIA_IMGREADER_CANNOT_LOCK_IMAGE"
    },
    {
     "enum_field_value" : -30004,
     "name" : "AMEDIA_IMGREADER_CANNOT_UNLOCK_IMAGE"
    },
    {
     "enum_field_value" : -30005,
     "name" : "AMEDIA_IMGREADER_IMAGE_NOT_LOCKED"
    }
   ],
   "linker_set_key" : "_ZTI14media_status_t",
   "name" : "media_status_t",
   "referenced_type" : "_ZTI14media_status_t",
   "self_type" : "_ZTI14media_status_t",
   "size" : 4,
   "source_file" : "frameworks/av/media/ndk/include/media/NdkMediaError.h",
   "underlying_type" : "_ZTIi"
  },
  {
   "alignment" : 4,
   "enum_fields" :
   [
    {
     "enum_field_value" : 0,
     "name" : "RS_ANIMATION_EDGE_UNDEFINED"
    },
    {
     "enum_field_value" : 1,
     "name" : "RS_ANIMATION_EDGE_CONSTANT"
    },
    {
     "enum_field_value" : 2,
     "name" : "RS_ANIMATION_EDGE_GRADIENT"
    },
    {
     "enum_field_value" : 3,
     "name" : "RS_ANIMATION_EDGE_CYCLE"
    },
    {
     "enum_field_value" : 4,
     "name" : "RS_ANIMATION_EDGE_OSCILLATE"
    },
    {
     "enum_field_value" : 5,
     "name" : "RS_ANIMATION_EDGE_CYLE_RELATIVE"
    }
   ],
   "linker_set_key" : "_ZTI15RsAnimationEdge",
   "name" : "RsAnimationEdge",
   "referenced_type" : "_ZTI15RsAnimationEdge",
   "self_type" : "_ZTI15RsAnimationEdge",
   "size" : 4,
   "source_file" : "frameworks/rs/rsInternalDefines.h",
   "underlying_type" : "_ZTIj"
  },
  {
   "alignment" : 4,
   "enum_fields" :
   [
    {
     "enum_field_value" : 111,
     "name" : "RsBlasNoTrans"
    },
    {
     "enum_field_value" : 112,
     "name" : "RsBlasTrans"
    },
    {
     "enum_field_value" : 113,
     "name" : "RsBlasConjTrans"
    }
   ],
   "linker_set_key" : "_ZTI15RsBlasTranspose",
   "name" : "RsBlasTranspose",
   "referenced_type" : "_ZTI15RsBlasTranspose",
   "self_type" : "_ZTI15RsBlasTranspose",
   "size" : 4,
   "source_file" : "frameworks/rs/rsDefines.h",
   "underlying_type" : "_ZTIj"
  },
  {
   "alignment" : 4,
   "enum_fields" :
   [
    {
     "enum_field_value" : 0,
     "name" : "RS_PATH_PRIMITIVE_QUADRATIC_BEZIER"
    },
    {
     "enum_field_value" : 1,
     "name" : "RS_PATH_PRIMITIVE_CUBIC_BEZIER"
    }
   ],
   "linker_set_key" : "_ZTI15RsPathPrimitive",
   "name" : "RsPathPrimitive",
   "referenced_type" : "_ZTI15RsPathPrimitive",
   "self_type" : "_ZTI15RsPathPrimitive",
   "size" : 4,
   "source_file" : "frameworks/rs/rsInternalDefines.h",
   "underlying_type" : "_ZTIj"
  },
  {
   "alignment" : 4,
   "enum_fields" :
   [
    {
     "enum_field_value" : 0,
     "name" : "RS_TEXTURE_2D"
    },
    {
     "enum_field_value" : 1,
     "name" : "RS_TEXTURE_CUBE"
    }
   ],
   "linker_set_key" : "_ZTI15RsTextureTarget",
   "name" : "RsTextureTarget",
   "referenced_type" : "_ZTI15RsTextureTarget",
   "self_type" : "_ZTI15RsTextureTarget",
   "size" : 4,
   "source_file" : "frameworks/rs/rsInternalDefines.h",
   "underlying_type" : "_ZTIj"
  },
  {
   "alignment" : 4,
   "enum_fields" :
   [
    {
     "enum_field_value" : 0,
     "name" : "M_HEAP_TAGGING_LEVEL_NONE"
    },
    {
     "enum_field_value" : 1,
     "name" : "M_HEAP_TAGGING_LEVEL_TBI"
    },
    {
     "enum_field_value" : 2,
     "name" : "M_HEAP_TAGGING_LEVEL_ASYNC"
    },
    {
     "enum_field_value" : 3,
     "name" : "M_HEAP_TAGGING_LEVEL_SYNC"
    }
   ],
   "linker_set_key" : "_ZTI16HeapTaggingLevel",
   "name" : "HeapTaggingLevel",
   "referenced_type" : "_ZTI16HeapTaggingLevel",
   "self_type" : "_ZTI16HeapTaggingLevel",
   "size" : 4,
   "source_file" : "out/soong/.intermediates/bionic/libc/libc/android_vendor.32_arm64_armv8-a_shared/gen/include/malloc.h",
   "underlying_type" : "_ZTIj"
  },
  {
   "alignment" : 4,
   "enum_fields" :
   [
    {
     "enum_field_value" : 65535,
     "name" : "RS_GLOBAL_TYPE"
    },
    {
     "enum_field_value" : 65536,
     "name" : "RS_GLOBAL_CONSTANT"
    },
    {
     "enum_field_value" : 131072,
     "name" : "RS_GLOBAL_STATIC"
    },
    {
     "enum_field_value" : 262144,
     "name" : "RS_GLOBAL_POINTER"
    }
   ],
   "linker_set_key" : "_ZTI16RsGlobalProperty",
   "name" : "RsGlobalProperty",
   "referenced_type" : "_ZTI16RsGlobalProperty",
   "self_type" : "_ZTI16RsGlobalProperty",
   "size" : 4,
   "source_file" : "frameworks/rs/rsDefines.h",
   "underlying_type" : "_ZTIj"
  },
  {
   "alignment" : 4,
   "enum_fields" :
   [
    {
     "enum_field_value" : 0,
     "name" : "RS_FOR_EACH_STRATEGY_SERIAL"
    },
    {
     "enum_field_value" : 1,
     "name" : "RS_FOR_EACH_STRATEGY_DONT_CARE"
    },
    {
     "enum_field_value" : 2,
     "name" : "RS_FOR_EACH_STRATEGY_DST_LINEAR"
    },
    {
     "enum_field_value" : 3,
     "name" : "RS_FOR_EACH_STRATEGY_TILE_SMALL"
    },
    {
     "enum_field_value" : 4,
     "name" : "RS_FOR_EACH_STRATEGY_TILE_MEDIUM"
    },
    {
     "enum_field_value" : 5,
     "name" : "RS_FOR_EACH_STRATEGY_TILE_LARGE"
    }
   ],
   "linker_set_key" : "_ZTI17RsForEachStrategy",
   "name" : "RsForEachStrategy",
   "referenced_type" : "_ZTI17RsForEachStrategy",
   "self_type" : "_ZTI17RsForEachStrategy",
   "size" : 4,
   "source_file" : "frameworks/rs/rsDefines.h",
   "underlying_type" : "_ZTIj"
  },
  {
   "alignment" : 4,
   "enum_fields" :
   [
    {
     "enum_field_value" : 15,
     "name" : "RS_THREAD_PRIORITY_LOW"
    },
    {
     "enum_field_value" : -8,
     "name" : "RS_THREAD_PRIORITY_NORMAL_GRAPHICS"
    },
    {
     "enum_field_value" : -1,
     "name" : "RS_THREAD_PRIORITY_NORMAL"
    },
    {
     "enum_field_value" : -4,
     "name" : "RS_THREAD_PRIORITY_LOW_LATENCY"
    }
   ],
   "linker_set_key" : "_ZTI18RsThreadPriorities",
   "name" : "RsThreadPriorities",
   "referenced_type" : "_ZTI18RsThreadPriorities",
   "self_type" : "_ZTI18RsThreadPriorities",
   "size" : 4,
   "source_file" : "frameworks/rs/rsInternalDefines.h",
   "underlying_type" : "_ZTIi"
  },
  {
   "alignment" : 4,
   "enum_fields" :
   [
    {
     "enum_field_value" : 0,
     "name" : "RS_SCRIPT_INTRINSIC_ID_UNDEFINED"
    },
    {
     "enum_field_value" : 1,
     "name" : "RS_SCRIPT_INTRINSIC_ID_CONVOLVE_3x3"
    },
    {
     "enum_field_value" : 2,
     "name" : "RS_SCRIPT_INTRINSIC_ID_COLOR_MATRIX"
    },
    {
     "enum_field_value" : 3,
     "name" : "RS_SCRIPT_INTRINSIC_ID_LUT"
    },
    {
     "enum_field_value" : 4,
     "name" : "RS_SCRIPT_INTRINSIC_ID_CONVOLVE_5x5"
    },
    {
     "enum_field_value" : 5,
     "name" : "RS_SCRIPT_INTRINSIC_ID_BLUR"
    },
    {
     "enum_field_value" : 6,
     "name" : "RS_SCRIPT_INTRINSIC_ID_YUV_TO_RGB"
    },
    {
     "enum_field_value" : 7,
     "name" : "RS_SCRIPT_INTRINSIC_ID_BLEND"
    },
    {
     "enum_field_value" : 8,
     "name" : "RS_SCRIPT_INTRINSIC_ID_3DLUT"
    },
    {
     "enum_field_value" : 9,
     "name" : "RS_SCRIPT_INTRINSIC_ID_HISTOGRAM"
    },
    {
     "enum_field_value" : 12,
     "name" : "RS_SCRIPT_INTRINSIC_ID_RESIZE"
    },
    {
     "enum_field_value" : 13,
     "name" : "RS_SCRIPT_INTRINSIC_ID_BLAS"
    },
    {
     "enum_field_value" : 14,
     "name" : "RS_SCRIPT_INTRINSIC_ID_EXTBLAS"
    },
    {
     "enum_field_value" : 268435456,
     "name" : "RS_SCRIPT_INTRINSIC_ID_OEM_START"
    }
   ],
   "linker_set_key" : "_ZTI19RsScriptIntrinsicID",
   "name" : "RsScriptIntrinsicID",
   "referenced_type" : "_ZTI19RsScriptIntrinsicID",
   "self_type" : "_ZTI19RsScriptIntrinsicID",
   "size" : 4,
   "source_file" : "frameworks/rs/rsInternalDefines.h",
   "underlying_type" : "_ZTIj"
  },
  {
   "alignment" : 4,
   "enum_fields" :
   [
    {
     "enum_field_value" : 0,
     "name" : "ANDROID_LOG_UNKNOWN"
    },
    {
     "enum_field_value" : 1,
     "name" : "ANDROID_LOG_DEFAULT"
    },
    {
     "enum_field_value" : 2,
     "name" : "ANDROID_LOG_VERBOSE"
    },
    {
     "enum_field_value" : 3,
     "name" : "ANDROID_LOG_DEBUG"
    },
    {
     "enum_field_value" : 4,
     "name" : "ANDROID_LOG_INFO"
    },
    {
     "enum_field_value" : 5,
     "name" : "ANDROID_LOG_WARN"
    },
    {
     "enum_field_value" : 6,
     "name" : "ANDROID_LOG_ERROR"
    },
    {
     "enum_field_value" : 7,
     "name" : "ANDROID_LOG_FATAL"
    },
    {
     "enum_field_value" : 8,
     "name" : "ANDROID_LOG_SILENT"
    }
   ],
   "linker_set_key" : "_ZTI19android_LogPriority",
   "name" : "android_LogPriority",
   "referenced_type" : "_ZTI19android_LogPriority",
   "self_type" : "_ZTI19android_LogPriority",
   "size" : 4,
   "source_file" : "system/logging/liblog/include_vndk/android/log.h",
   "underlying_type" : "_ZTIj"
  },
  {
   "alignment" : 4,
   "enum_fields" :
   [
    {
     "enum_field_value" : 1,
     "name" : "RS_ALLOCATION_USAGE_SCRIPT"
    },
    {
     "enum_field_value" : 2,
     "name" : "RS_ALLOCATION_USAGE_GRAPHICS_TEXTURE"
    },
    {
     "enum_field_value" : 4,
     "name" : "RS_ALLOCATION_USAGE_GRAPHICS_VERTEX"
    },
    {
     "enum_field_value" : 8,
     "name" : "RS_ALLOCATION_USAGE_GRAPHICS_CONSTANTS"
    },
    {
     "enum_field_value" : 16,
     "name" : "RS_ALLOCATION_USAGE_GRAPHICS_RENDER_TARGET"
    },
    {
     "enum_field_value" : 32,
     "name" : "RS_ALLOCATION_USAGE_IO_INPUT"
    },
    {
     "enum_field_value" : 64,
     "name" : "RS_ALLOCATION_USAGE_IO_OUTPUT"
    },
    {
     "enum_field_value" : 128,
     "name" : "RS_ALLOCATION_USAGE_SHARED"
    },
    {
     "enum_field_value" : 4096,
     "name" : "RS_ALLOCATION_USAGE_INCREMENTAL_SUPPORT"
    },
    {
     "enum_field_value" : 32768,
     "name" : "RS_ALLOCATION_USAGE_OEM"
    },
    {
     "enum_field_value" : 33023,
     "name" : "RS_ALLOCATION_USAGE_ALL"
    }
   ],
   "linker_set_key" : "_ZTI21RsAllocationUsageType",
   "name" : "RsAllocationUsageType",
   "referenced_type" : "_ZTI21RsAllocationUsageType",
   "self_type" : "_ZTI21RsAllocationUsageType",
   "size" : 4,
   "source_file" : "frameworks/rs/rsDefines.h",
   "underlying_type" : "_ZTIj"
  },
  {
   "alignment" : 4,
   "enum_fields" :
   [
    {
     "enum_field_value" : 0,
     "name" : "RS_MESSAGE_TO_CLIENT_NONE"
    },
    {
     "enum_field_value" : 1,
     "name" : "RS_MESSAGE_TO_CLIENT_EXCEPTION"
    },
    {
     "enum_field_value" : 2,
     "name" : "RS_MESSAGE_TO_CLIENT_RESIZE"
    },
    {
     "enum_field_value" : 3,
     "name" : "RS_MESSAGE_TO_CLIENT_ERROR"
    },
    {
     "enum_field_value" : 4,
     "name" : "RS_MESSAGE_TO_CLIENT_USER"
    },
    {
     "enum_field_value" : 5,
     "name" : "RS_MESSAGE_TO_CLIENT_NEW_BUFFER"
    }
   ],
   "linker_set_key" : "_ZTI21RsMessageToClientType",
   "name" : "RsMessageToClientType",
   "referenced_type" : "_ZTI21RsMessageToClientType",
   "self_type" : "_ZTI21RsMessageToClientType",
   "size" : 4,
   "source_file" : "frameworks/rs/rsInternalDefines.h",
   "underlying_type" : "_ZTIj"
  },
  {
   "alignment" : 4,
   "enum_fields" :
   [
    {
     "enum_field_value" : 0,
     "name" : "PTHREAD_MUTEX_NORMAL"
    },
    {
     "enum_field_value" : 1,
     "name" : "PTHREAD_MUTEX_RECURSIVE"
    },
    {
     "enum_field_value" : 2,
     "name" : "PTHREAD_MUTEX_ERRORCHECK"
    },
    {
     "enum_field_value" : 2,
     "name" : "PTHREAD_MUTEX_ERRORCHECK_NP"
    },
    {
     "enum_field_value" : 1,
     "name" : "PTHREAD_MUTEX_RECURSIVE_NP"
    },
    {
     "enum_field_value" : 0,
     "name" : "PTHREAD_MUTEX_DEFAULT"
    }
   ],
   "linker_set_key" : "_ZTI22$PTHREAD_MUTEX_DEFAULT",
   "name" : "(anonymous enum at out/soong/.intermediates/bionic/libc/libc/android_vendor.32_arm64_armv8-a_shared/gen/include/pthread.h:41:1)",
   "referenced_type" : "_ZTI22$PTHREAD_MUTEX_DEFAULT",
   "self_type" : "_ZTI22$PTHREAD_MUTEX_DEFAULT",
   "size" : 4,
   "source_file" : "out/soong/.intermediates/bionic/libc/libc/android_vendor.32_arm64_armv8-a_shared/gen/include/pthread.h",
   "underlying_type" : "_ZTIj"
  },
  {
   "alignment" : 4,
   "enum_fields" :
   [
    {
     "enum_field_value" : 1,
     "name" : "AHARDWAREBUFFER_FORMAT_R8G8B8A8_UNORM"
    },
    {
     "enum_field_value" : 2,
     "name" : "AHARDWAREBUFFER_FORMAT_R8G8B8X8_UNORM"
    },
    {
     "enum_field_value" : 3,
     "name" : "AHARDWAREBUFFER_FORMAT_R8G8B8_UNORM"
    },
    {
     "enum_field_value" : 4,
     "name" : "AHARDWAREBUFFER_FORMAT_R5G6B5_UNORM"
    },
    {
     "enum_field_value" : 22,
     "name" : "AHARDWAREBUFFER_FORMAT_R16G16B16A16_FLOAT"
    },
    {
     "enum_field_value" : 43,
     "name" : "AHARDWAREBUFFER_FORMAT_R10G10B10A2_UNORM"
    },
    {
     "enum_field_value" : 33,
     "name" : "AHARDWAREBUFFER_FORMAT_BLOB"
    },
    {
     "enum_field_value" : 48,
     "name" : "AHARDWAREBUFFER_FORMAT_D16_UNORM"
    },
    {
     "enum_field_value" : 49,
     "name" : "AHARDWAREBUFFER_FORMAT_D24_UNORM"
    },
    {
     "enum_field_value" : 50,
     "name" : "AHARDWAREBUFFER_FORMAT_D24_UNORM_S8_UINT"
    },
    {
     "enum_field_value" : 51,
     "name" : "AHARDWAREBUFFER_FORMAT_D32_FLOAT"
    },
    {
     "enum_field_value" : 52,
     "name" : "AHARDWAREBUFFER_FORMAT_D32_FLOAT_S8_UINT"
    },
    {
     "enum_field_value" : 53,
     "name" : "AHARDWAREBUFFER_FORMAT_S8_UINT"
    },
    {
     "enum_field_value" : 35,
     "name" : "AHARDWAREBUFFER_FORMAT_Y8Cb8Cr8_420"
    }
   ],
   "linker_set_key" : "_ZTI22AHardwareBuffer_Format",
   "name" : "AHardwareBuffer_Format",
   "referenced_type" : "_ZTI22AHardwareBuffer_Format",
   "self_type" : "_ZTI22AHardwareBuffer_Format",
   "size" : 4,
   "source_file" : "frameworks/native/libs/nativewindow/include/android/hardware_buffer.h",
   "underlying_type" : "_ZTIj"
  },
  {
   "alignment" : 4,
   "enum_fields" :
   [
    {
     "enum_field_value" : 0,
     "name" : "ANATIVEWINDOW_TRANSFORM_IDENTITY"
    },
    {
     "enum_field_value" : 1,
     "name" : "ANATIVEWINDOW_TRANSFORM_MIRROR_HORIZONTAL"
    },
    {
     "enum_field_value" : 2,
     "name" : "ANATIVEWINDOW_TRANSFORM_MIRROR_VERTICAL"
    },
    {
     "enum_field_value" : 4,
     "name" : "ANATIVEWINDOW_TRANSFORM_ROTATE_90"
    },
    {
     "enum_field_value" : 3,
     "name" : "ANATIVEWINDOW_TRANSFORM_ROTATE_180"
    },
    {
     "enum_field_value" : 7,
     "name" : "ANATIVEWINDOW_TRANSFORM_ROTATE_270"
    }
   ],
   "linker_set_key" : "_ZTI22ANativeWindowTransform",
   "name" : "ANativeWindowTransform",
   "referenced_type" : "_ZTI22ANativeWindowTransform",
   "self_type" : "_ZTI22ANativeWindowTransform",
   "size" : 4,
   "source_file" : "frameworks/native/libs/nativewindow/include/android/native_window.h",
   "underlying_type" : "_ZTIj"
  },
  {
   "alignment" : 4,
   "enum_fields" :
   [
    {
     "enum_field_value" : 0,
     "name" : "RS_ALLOCATION_CUBEMAP_FACE_POSITIVE_X"
    },
    {
     "enum_field_value" : 1,
     "name" : "RS_ALLOCATION_CUBEMAP_FACE_NEGATIVE_X"
    },
    {
     "enum_field_value" : 2,
     "name" : "RS_ALLOCATION_CUBEMAP_FACE_POSITIVE_Y"
    },
    {
     "enum_field_value" : 3,
     "name" : "RS_ALLOCATION_CUBEMAP_FACE_NEGATIVE_Y"
    },
    {
     "enum_field_value" : 4,
     "name" : "RS_ALLOCATION_CUBEMAP_FACE_POSITIVE_Z"
    },
    {
     "enum_field_value" : 5,
     "name" : "RS_ALLOCATION_CUBEMAP_FACE_NEGATIVE_Z"
    }
   ],
   "linker_set_key" : "_ZTI23RsAllocationCubemapFace",
   "name" : "RsAllocationCubemapFace",
   "referenced_type" : "_ZTI23RsAllocationCubemapFace",
   "self_type" : "_ZTI23RsAllocationCubemapFace",
   "size" : 4,
   "source_file" : "frameworks/rs/rsDefines.h",
   "underlying_type" : "_ZTIj"
  },
  {
   "alignment" : 4,
   "enum_fields" :
   [
    {
     "enum_field_value" : 0,
     "name" : "RS_ANIMATION_INTERPOLATION_STEP"
    },
    {
     "enum_field_value" : 1,
     "name" : "RS_ANIMATION_INTERPOLATION_LINEAR"
    },
    {
     "enum_field_value" : 2,
     "name" : "RS_ANIMATION_INTERPOLATION_BEZIER"
    },
    {
     "enum_field_value" : 3,
     "name" : "RS_ANIMATION_INTERPOLATION_CARDINAL"
    },
    {
     "enum_field_value" : 4,
     "name" : "RS_ANIMATION_INTERPOLATION_HERMITE"
    },
    {
     "enum_field_value" : 5,
     "name" : "RS_ANIMATION_INTERPOLATION_BSPLINE"
    }
   ],
   "linker_set_key" : "_ZTI24RsAnimationInterpolation",
   "name" : "RsAnimationInterpolation",
   "referenced_type" : "_ZTI24RsAnimationInterpolation",
   "self_type" : "_ZTI24RsAnimationInterpolation",
   "size" : 4,
   "source_file" : "frameworks/rs/rsInternalDefines.h",
   "underlying_type" : "_ZTIj"
  },
  {
   "alignment" : 4,
   "enum_fields" :
   [
    {
     "enum_field_value" : 0,
     "name" : "RS_ALLOCATION_MIPMAP_NONE"
    },
    {
     "enum_field_value" : 1,
     "name" : "RS_ALLOCATION_MIPMAP_FULL"
    },
    {
     "enum_field_value" : 2,
     "name" : "RS_ALLOCATION_MIPMAP_ON_SYNC_TO_TEXTURE"
    }
   ],
   "linker_set_key" : "_ZTI25RsAllocationMipmapControl",
   "name" : "RsAllocationMipmapControl",
   "referenced_type" : "_ZTI25RsAllocationMipmapControl",
   "self_type" : "_ZTI25RsAllocationMipmapControl",
   "size" : 4,
   "source_file" : "frameworks/rs/rsDefines.h",
   "underlying_type" : "_ZTIj"
  },
  {
   "alignment" : 8,
   "enum_fields" :
   [
    {
     "enum_field_value" : 0,
     "name" : "AHARDWAREBUFFER_USAGE_CPU_READ_NEVER"
    },
    {
     "enum_field_value" : 2,
     "name" : "AHARDWAREBUFFER_USAGE_CPU_READ_RARELY"
    },
    {
     "enum_field_value" : 3,
     "name" : "AHARDWAREBUFFER_USAGE_CPU_READ_OFTEN"
    },
    {
     "enum_field_value" : 15,
     "name" : "AHARDWAREBUFFER_USAGE_CPU_READ_MASK"
    },
    {
     "enum_field_value" : 0,
     "name" : "AHARDWAREBUFFER_USAGE_CPU_WRITE_NEVER"
    },
    {
     "enum_field_value" : 32,
     "name" : "AHARDWAREBUFFER_USAGE_CPU_WRITE_RARELY"
    },
    {
     "enum_field_value" : 48,
     "name" : "AHARDWAREBUFFER_USAGE_CPU_WRITE_OFTEN"
    },
    {
     "enum_field_value" : 240,
     "name" : "AHARDWAREBUFFER_USAGE_CPU_WRITE_MASK"
    },
    {
     "enum_field_value" : 256,
     "name" : "AHARDWAREBUFFER_USAGE_GPU_SAMPLED_IMAGE"
    },
    {
     "enum_field_value" : 512,
     "name" : "AHARDWAREBUFFER_USAGE_GPU_FRAMEBUFFER"
    },
    {
     "enum_field_value" : 512,
     "name" : "AHARDWAREBUFFER_USAGE_GPU_COLOR_OUTPUT"
    },
    {
     "enum_field_value" : 2048,
     "name" : "AHARDWAREBUFFER_USAGE_COMPOSER_OVERLAY"
    },
    {
     "enum_field_value" : 16384,
     "name" : "AHARDWAREBUFFER_USAGE_PROTECTED_CONTENT"
    },
    {
     "enum_field_value" : 65536,
     "name" : "AHARDWAREBUFFER_USAGE_VIDEO_ENCODE"
    },
    {
     "enum_field_value" : 8388608,
     "name" : "AHARDWAREBUFFER_USAGE_SENSOR_DIRECT_DATA"
    },
    {
     "enum_field_value" : 16777216,
     "name" : "AHARDWAREBUFFER_USAGE_GPU_DATA_BUFFER"
    },
    {
     "enum_field_value" : 33554432,
     "name" : "AHARDWAREBUFFER_USAGE_GPU_CUBE_MAP"
    },
    {
     "enum_field_value" : 67108864,
     "name" : "AHARDWAREBUFFER_USAGE_GPU_MIPMAP_COMPLETE"
    },
    {
     "enum_field_value" : 268435456,
     "name" : "AHARDWAREBUFFER_USAGE_VENDOR_0"
    },
    {
     "enum_field_value" : 536870912,
     "name" : "AHARDWAREBUFFER_USAGE_VENDOR_1"
    },
    {
     "enum_field_value" : 1073741824,
     "name" : "AHARDWAREBUFFER_USAGE_VENDOR_2"
    },
    {
     "enum_field_value" : -2147483648,
     "name" : "AHARDWAREBUFFER_USAGE_VENDOR_3"
    },
    {
     "enum_field_value" : 0,
     "name" : "AHARDWAREBUFFER_USAGE_VENDOR_4"
    },
    {
     "enum_field_value" : 0,
     "name" : "AHARDWAREBUFFER_USAGE_VENDOR_5"
    },
    {
     "enum_field_value" : 0,
     "name" : "AHARDWAREBUFFER_USAGE_VENDOR_6"
    },
    {
     "enum_field_value" : 0,
     "name" : "AHARDWAREBUFFER_USAGE_VENDOR_7"
    },
    {
     "enum_field_value" : 0,
     "name" : "AHARDWAREBUFFER_USAGE_VENDOR_8"
    },
    {
     "enum_field_value" : 0,
     "name" : "AHARDWAREBUFFER_USAGE_VENDOR_9"
    },
    {
     "enum_field_value" : 0,
     "name" : "AHARDWAREBUFFER_USAGE_VENDOR_10"
    },
    {
     "enum_field_value" : 0,
     "name" : "AHARDWAREBUFFER_USAGE_VENDOR_11"
    },
    {
     "enum_field_value" : 0,
     "name" : "AHARDWAREBUFFER_USAGE_VENDOR_12"
    },
    {
     "enum_field_value" : 0,
     "name" : "AHARDWAREBUFFER_USAGE_VENDOR_13"
    },
    {
     "enum_field_value" : 0,
     "name" : "AHARDWAREBUFFER_USAGE_VENDOR_14"
    },
    {
     "enum_field_value" : 0,
     "name" : "AHARDWAREBUFFER_USAGE_VENDOR_15"
    },
    {
     "enum_field_value" : 0,
     "name" : "AHARDWAREBUFFER_USAGE_VENDOR_16"
    },
    {
     "enum_field_value" : 0,
     "name" : "AHARDWAREBUFFER_USAGE_VENDOR_17"
    },
    {
     "enum_field_value" : 0,
     "name" : "AHARDWAREBUFFER_USAGE_VENDOR_18"
    },
    {
     "enum_field_value" : 0,
     "name" : "AHARDWAREBUFFER_USAGE_VENDOR_19"
    }
   ],
   "linker_set_key" : "_ZTI26AHardwareBuffer_UsageFlags",
   "name" : "AHardwareBuffer_UsageFlags",
   "referenced_type" : "_ZTI26AHardwareBuffer_UsageFlags",
   "self_type" : "_ZTI26AHardwareBuffer_UsageFlags",
   "size" : 8,
   "source_file" : "frameworks/native/libs/nativewindow/include/android/hardware_buffer.h",
   "underlying_type" : "_ZTIm"
  },
  {
   "alignment" : 4,
   "enum_fields" :
   [
    {
     "enum_field_value" : 1,
     "name" : "WINDOW_FORMAT_RGBA_8888"
    },
    {
     "enum_field_value" : 2,
     "name" : "WINDOW_FORMAT_RGBX_8888"
    },
    {
     "enum_field_value" : 4,
     "name" : "WINDOW_FORMAT_RGB_565"
    }
   ],
   "linker_set_key" : "_ZTI26ANativeWindow_LegacyFormat",
   "name" : "ANativeWindow_LegacyFormat",
   "referenced_type" : "_ZTI26ANativeWindow_LegacyFormat",
   "self_type" : "_ZTI26ANativeWindow_LegacyFormat",
   "size" : 4,
   "source_file" : "frameworks/native/libs/nativewindow/include/android/native_window.h",
   "underlying_type" : "_ZTIj"
  },
  {
   "alignment" : 4,
   "enum_fields" :
   [
    {
     "enum_field_value" : 0,
     "name" : "PTHREAD_RWLOCK_PREFER_READER_NP"
    },
    {
     "enum_field_value" : 1,
     "name" : "PTHREAD_RWLOCK_PREFER_WRITER_NONRECURSIVE_NP"
    }
   ],
   "linker_set_key" : "_ZTI32$PTHREAD_RWLOCK_PREFER_READER_NP",
   "name" : "(anonymous enum at out/soong/.intermediates/bionic/libc/libc/android_vendor.32_arm64_armv8-a_shared/gen/include/pthread.h:63:1)",
   "referenced_type" : "_ZTI32$PTHREAD_RWLOCK_PREFER_READER_NP",
   "self_type" : "_ZTI32$PTHREAD_RWLOCK_PREFER_READER_NP",
   "size" : 4,
   "source_file" : "out/soong/.intermediates/bionic/libc/libc/android_vendor.32_arm64_armv8-a_shared/gen/include/pthread.h",
   "underlying_type" : "_ZTIj"
  },
  {
   "alignment" : 4,
   "enum_fields" :
   [
    {
     "enum_field_value" : 0,
     "name" : "ANATIVEWINDOW_FRAME_RATE_COMPATIBILITY_DEFAULT"
    },
    {
     "enum_field_value" : 1,
     "name" : "ANATIVEWINDOW_FRAME_RATE_COMPATIBILITY_FIXED_SOURCE"
    }
   ],
   "linker_set_key" : "_ZTI36ANativeWindow_FrameRateCompatibility",
   "name" : "ANativeWindow_FrameRateCompatibility",
   "referenced_type" : "_ZTI36ANativeWindow_FrameRateCompatibility",
   "self_type" : "_ZTI36ANativeWindow_FrameRateCompatibility",
   "size" : 4,
   "source_file" : "frameworks/native/libs/nativewindow/include/android/native_window.h",
   "underlying_type" : "_ZTIj"
  },
  {
   "alignment" : 4,
   "enum_fields" :
   [
    {
     "enum_field_value" : 0,
     "name" : "ANATIVEWINDOW_CHANGE_FRAME_RATE_ONLY_IF_SEAMLESS"
    },
    {
     "enum_field_value" : 1,
     "name" : "ANATIVEWINDOW_CHANGE_FRAME_RATE_ALWAYS"
    }
   ],
   "linker_set_key" : "_ZTI37ANativeWindow_ChangeFrameRateStrategy",
   "name" : "ANativeWindow_ChangeFrameRateStrategy",
   "referenced_type" : "_ZTI37ANativeWindow_ChangeFrameRateStrategy",
   "self_type" : "_ZTI37ANativeWindow_ChangeFrameRateStrategy",
   "size" : 4,
   "source_file" : "frameworks/native/libs/nativewindow/include/android/native_window.h",
   "underlying_type" : "_ZTIj"
  },
  {
   "alignment" : 4,
   "enum_fields" :
   [
    {
     "enum_field_value" : 0,
     "name" : "LOG_ID_MIN"
    },
    {
     "enum_field_value" : 0,
     "name" : "LOG_ID_MAIN"
    },
    {
     "enum_field_value" : 1,
     "name" : "LOG_ID_RADIO"
    },
    {
     "enum_field_value" : 2,
     "name" : "LOG_ID_EVENTS"
    },
    {
     "enum_field_value" : 3,
     "name" : "LOG_ID_SYSTEM"
    },
    {
     "enum_field_value" : 4,
     "name" : "LOG_ID_CRASH"
    },
    {
     "enum_field_value" : 5,
     "name" : "LOG_ID_STATS"
    },
    {
     "enum_field_value" : 6,
     "name" : "LOG_ID_SECURITY"
    },
    {
     "enum_field_value" : 7,
     "name" : "LOG_ID_KERNEL"
    },
    {
     "enum_field_value" : 8,
     "name" : "LOG_ID_MAX"
    },
    {
     "enum_field_value" : 2147483647,
     "name" : "LOG_ID_DEFAULT"
    }
   ],
   "linker_set_key" : "_ZTI6log_id",
   "name" : "log_id",
   "referenced_type" : "_ZTI6log_id",
   "self_type" : "_ZTI6log_id",
   "size" : 4,
   "source_file" : "system/logging/liblog/include_vndk/android/log.h",
   "underlying_type" : "_ZTIj"
  },
  {
   "alignment" : 4,
   "enum_fields" :
   [
    {
     "enum_field_value" : 0,
     "name" : "RS_ERROR_NONE"
    },
    {
     "enum_field_value" : 1,
     "name" : "RS_ERROR_BAD_SHADER"
    },
    {
     "enum_field_value" : 2,
     "name" : "RS_ERROR_BAD_SCRIPT"
    },
    {
     "enum_field_value" : 3,
     "name" : "RS_ERROR_BAD_VALUE"
    },
    {
     "enum_field_value" : 4,
     "name" : "RS_ERROR_OUT_OF_MEMORY"
    },
    {
     "enum_field_value" : 5,
     "name" : "RS_ERROR_DRIVER"
    },
    {
     "enum_field_value" : 2048,
     "name" : "RS_ERROR_FATAL_DEBUG"
    },
    {
     "enum_field_value" : 4096,
     "name" : "RS_ERROR_FATAL_UNKNOWN"
    },
    {
     "enum_field_value" : 4097,
     "name" : "RS_ERROR_FATAL_DRIVER"
    },
    {
     "enum_field_value" : 4098,
     "name" : "RS_ERROR_FATAL_PROGRAM_LINK"
    }
   ],
   "linker_set_key" : "_ZTI7RsError",
   "name" : "RsError",
   "referenced_type" : "_ZTI7RsError",
   "self_type" : "_ZTI7RsError",
   "size" : 4,
   "source_file" : "frameworks/rs/rsDefines.h",
   "underlying_type" : "_ZTIj"
  },
  {
   "alignment" : 4,
   "enum_fields" :
   [
    {
     "enum_field_value" : 1,
     "name" : "android::VectorImpl::HAS_TRIVIAL_CTOR"
    },
    {
     "enum_field_value" : 2,
     "name" : "android::VectorImpl::HAS_TRIVIAL_DTOR"
    },
    {
     "enum_field_value" : 4,
     "name" : "android::VectorImpl::HAS_TRIVIAL_COPY"
    }
   ],
   "linker_set_key" : "_ZTIN7android10VectorImpl17$HAS_TRIVIAL_COPYE",
   "name" : "android::VectorImpl::(anonymous enum at system/core/libutils/include/utils/VectorImpl.h:43:5)",
   "referenced_type" : "_ZTIN7android10VectorImpl17$HAS_TRIVIAL_COPYE",
   "self_type" : "_ZTIN7android10VectorImpl17$HAS_TRIVIAL_COPYE",
   "size" : 4,
   "source_file" : "system/core/libutils/include/utils/VectorImpl.h",
   "underlying_type" : "_ZTIj"
  },
  {
   "alignment" : 4,
   "enum_fields" :
   [
    {
     "enum_field_value" : 1,
     "name" : "android::renderscript::RS_HAL_CORE_SHUTDOWN"
    },
    {
     "enum_field_value" : 2,
     "name" : "android::renderscript::RS_HAL_CORE_SET_PRIORITY"
    },
    {
     "enum_field_value" : 3,
     "name" : "android::renderscript::RS_HAL_CORE_ALLOC_RUNTIME_MEM"
    },
    {
     "enum_field_value" : 4,
     "name" : "android::renderscript::RS_HAL_CORE_FREE_RUNTIME_MEM"
    },
    {
     "enum_field_value" : 5,
     "name" : "android::renderscript::RS_HAL_CORE_FINISH"
    },
    {
     "enum_field_value" : 1000,
     "name" : "android::renderscript::RS_HAL_SCRIPT_INIT"
    },
    {
     "enum_field_value" : 1001,
     "name" : "android::renderscript::RS_HAL_SCRIPT_INIT_INTRINSIC"
    },
    {
     "enum_field_value" : 1002,
     "name" : "android::renderscript::RS_HAL_SCRIPT_INVOKE_FUNCTION"
    },
    {
     "enum_field_value" : 1003,
     "name" : "android::renderscript::RS_HAL_SCRIPT_INVOKE_ROOT"
    },
    {
     "enum_field_value" : 1004,
     "name" : "android::renderscript::RS_HAL_SCRIPT_INVOKE_FOR_EACH"
    },
    {
     "enum_field_value" : 1005,
     "name" : "android::renderscript::RS_HAL_SCRIPT_INVOKE_INIT"
    },
    {
     "enum_field_value" : 1006,
     "name" : "android::renderscript::RS_HAL_SCRIPT_INVOKE_FREE_CHILDREN"
    },
    {
     "enum_field_value" : 1007,
     "name" : "android::renderscript::RS_HAL_SCRIPT_SET_GLOBAL_VAR"
    },
    {
     "enum_field_value" : 1008,
     "name" : "android::renderscript::RS_HAL_SCRIPT_GET_GLOBAL_VAR"
    },
    {
     "enum_field_value" : 1009,
     "name" : "android::renderscript::RS_HAL_SCRIPT_SET_GLOBAL_VAR_WITH_ELEMENT_DIM"
    },
    {
     "enum_field_value" : 1010,
     "name" : "android::renderscript::RS_HAL_SCRIPT_SET_GLOBAL_BIND"
    },
    {
     "enum_field_value" : 1011,
     "name" : "android::renderscript::RS_HAL_SCRIPT_SET_GLOBAL_OBJECT"
    },
    {
     "enum_field_value" : 1012,
     "name" : "android::renderscript::RS_HAL_SCRIPT_DESTROY"
    },
    {
     "enum_field_value" : 1013,
     "name" : "android::renderscript::RS_HAL_SCRIPT_INVOKE_FOR_EACH_MULTI"
    },
    {
     "enum_field_value" : 1014,
     "name" : "android::renderscript::RS_HAL_SCRIPT_UPDATE_CACHED_OBJECT"
    },
    {
     "enum_field_value" : 1015,
     "name" : "android::renderscript::RS_HAL_SCRIPT_INVOKE_REDUCE"
    },
    {
     "enum_field_value" : 2000,
     "name" : "android::renderscript::RS_HAL_ALLOCATION_INIT"
    },
    {
     "enum_field_value" : 2001,
     "name" : "android::renderscript::RS_HAL_ALLOCATION_INIT_ADAPTER"
    },
    {
     "enum_field_value" : 2002,
     "name" : "android::renderscript::RS_HAL_ALLOCATION_DESTROY"
    },
    {
     "enum_field_value" : 2003,
     "name" : "android::renderscript::RS_HAL_ALLOCATION_GET_GRALLOC_BITS"
    },
    {
     "enum_field_value" : 2004,
     "name" : "android::renderscript::RS_HAL_ALLOCATION_RESIZE"
    },
    {
     "enum_field_value" : 2005,
     "name" : "android::renderscript::RS_HAL_ALLOCATION_SYNC_ALL"
    },
    {
     "enum_field_value" : 2006,
     "name" : "android::renderscript::RS_HAL_ALLOCATION_MARK_DIRTY"
    },
    {
     "enum_field_value" : 2007,
     "name" : "android::renderscript::RS_HAL_ALLOCATION_SET_SURFACE"
    },
    {
     "enum_field_value" : 2008,
     "name" : "android::renderscript::RS_HAL_ALLOCATION_IO_SEND"
    },
    {
     "enum_field_value" : 2009,
     "name" : "android::renderscript::RS_HAL_ALLOCATION_IO_RECEIVE"
    },
    {
     "enum_field_value" : 2010,
     "name" : "android::renderscript::RS_HAL_ALLOCATION_DATA_1D"
    },
    {
     "enum_field_value" : 2011,
     "name" : "android::renderscript::RS_HAL_ALLOCATION_DATA_2D"
    },
    {
     "enum_field_value" : 2012,
     "name" : "android::renderscript::RS_HAL_ALLOCATION_DATA_3D"
    },
    {
     "enum_field_value" : 2013,
     "name" : "android::renderscript::RS_HAL_ALLOCATION_READ_1D"
    },
    {
     "enum_field_value" : 2014,
     "name" : "android::renderscript::RS_HAL_ALLOCATION_READ_2D"
    },
    {
     "enum_field_value" : 2015,
     "name" : "android::renderscript::RS_HAL_ALLOCATION_READ_3D"
    },
    {
     "enum_field_value" : 2016,
     "name" : "android::renderscript::RS_HAL_ALLOCATION_LOCK_1D"
    },
    {
     "enum_field_value" : 2017,
     "name" : "android::renderscript::RS_HAL_ALLOCATION_UNLOCK_1D"
    },
    {
     "enum_field_value" : 2018,
     "name" : "android::renderscript::RS_HAL_ALLOCATION_COPY_1D"
    },
    {
     "enum_field_value" : 2019,
     "name" : "android::renderscript::RS_HAL_ALLOCATION_COPY_2D"
    },
    {
     "enum_field_value" : 2020,
     "name" : "android::renderscript::RS_HAL_ALLOCATION_COPY_3D"
    },
    {
     "enum_field_value" : 2021,
     "name" : "android::renderscript::RS_HAL_ALLOCATION_ELEMENT_DATA"
    },
    {
     "enum_field_value" : 2022,
     "name" : "android::renderscript::RS_HAL_ALLOCATION_ELEMENT_READ"
    },
    {
     "enum_field_value" : 2023,
     "name" : "android::renderscript::RS_HAL_ALLOCATION_GENERATE_MIPMAPS"
    },
    {
     "enum_field_value" : 2024,
     "name" : "android::renderscript::RS_HAL_ALLOCATION_UPDATE_CACHED_OBJECT"
    },
    {
     "enum_field_value" : 2025,
     "name" : "android::renderscript::RS_HAL_ALLOCATION_ADAPTER_OFFSET"
    },
    {
     "enum_field_value" : 2026,
     "name" : "android::renderscript::RS_HAL_ALLOCATION_INIT_OEM"
    },
    {
     "enum_field_value" : 2027,
     "name" : "android::renderscript::RS_HAL_ALLOCATION_GET_POINTER"
    },
    {
     "enum_field_value" : 3000,
     "name" : "android::renderscript::RS_HAL_SAMPLER_INIT"
    },
    {
     "enum_field_value" : 3001,
     "name" : "android::renderscript::RS_HAL_SAMPLER_DESTROY"
    },
    {
     "enum_field_value" : 3002,
     "name" : "android::renderscript::RS_HAL_SAMPLER_UPDATE_CACHED_OBJECT"
    },
    {
     "enum_field_value" : 4000,
     "name" : "android::renderscript::RS_HAL_TYPE_INIT"
    },
    {
     "enum_field_value" : 4001,
     "name" : "android::renderscript::RS_HAL_TYPE_DESTROY"
    },
    {
     "enum_field_value" : 4002,
     "name" : "android::renderscript::RS_HAL_TYPE_UPDATE_CACHED_OBJECT"
    },
    {
     "enum_field_value" : 5000,
     "name" : "android::renderscript::RS_HAL_ELEMENT_INIT"
    },
    {
     "enum_field_value" : 5001,
     "name" : "android::renderscript::RS_HAL_ELEMENT_DESTROY"
    },
    {
     "enum_field_value" : 5002,
     "name" : "android::renderscript::RS_HAL_ELEMENT_UPDATE_CACHED_OBJECT"
    },
    {
     "enum_field_value" : 6000,
     "name" : "android::renderscript::RS_HAL_SCRIPT_GROUP_INIT"
    },
    {
     "enum_field_value" : 6001,
     "name" : "android::renderscript::RS_HAL_SCRIPT_GROUP_DESTROY"
    },
    {
     "enum_field_value" : 6002,
     "name" : "android::renderscript::RS_HAL_SCRIPT_GROUP_UPDATE_CACHED_OBJECT"
    },
    {
     "enum_field_value" : 6003,
     "name" : "android::renderscript::RS_HAL_SCRIPT_GROUP_SET_INPUT"
    },
    {
     "enum_field_value" : 6004,
     "name" : "android::renderscript::RS_HAL_SCRIPT_GROUP_SET_OUTPUT"
    },
    {
     "enum_field_value" : 6005,
     "name" : "android::renderscript::RS_HAL_SCRIPT_GROUP_EXECUTE"
    },
    {
     "enum_field_value" : 100001,
     "name" : "android::renderscript::RS_HAL_GRAPHICS_INIT"
    },
    {
     "enum_field_value" : 100002,
     "name" : "android::renderscript::RS_HAL_GRAPHICS_SHUTDOWN"
    },
    {
     "enum_field_value" : 100003,
     "name" : "android::renderscript::RS_HAL_GRAPHICS_SWAP"
    },
    {
     "enum_field_value" : 100004,
     "name" : "android::renderscript::RS_HAL_GRAPHICS_SET_SURFACE"
    },
    {
     "enum_field_value" : 101000,
     "name" : "android::renderscript::RS_HAL_GRAPHICS_RASTER_INIT"
    },
    {
     "enum_field_value" : 101001,
     "name" : "android::renderscript::RS_HAL_GRAPHICS_RASTER_SET_ACTIVE"
    },
    {
     "enum_field_value" : 101002,
     "name" : "android::renderscript::RS_HAL_GRAPHICS_RASTER_DESTROY"
    },
    {
     "enum_field_value" : 102000,
     "name" : "android::renderscript::RS_HAL_GRAPHICS_VERTEX_INIT"
    },
    {
     "enum_field_value" : 102001,
     "name" : "android::renderscript::RS_HAL_GRAPHICS_VERTEX_SET_ACTIVE"
    },
    {
     "enum_field_value" : 102002,
     "name" : "android::renderscript::RS_HAL_GRAPHICS_VERTEX_DESTROY"
    },
    {
     "enum_field_value" : 103000,
     "name" : "android::renderscript::RS_HAL_GRAPHICS_FRAGMENT_INIT"
    },
    {
     "enum_field_value" : 103001,
     "name" : "android::renderscript::RS_HAL_GRAPHICS_FRAGMENT_SET_ACTIVE"
    },
    {
     "enum_field_value" : 103002,
     "name" : "android::renderscript::RS_HAL_GRAPHICS_FRAGMENT_DESTROY"
    },
    {
     "enum_field_value" : 104000,
     "name" : "android::renderscript::RS_HAL_GRAPHICS_MESH_INIT"
    },
    {
     "enum_field_value" : 104001,
     "name" : "android::renderscript::RS_HAL_GRAPHICS_MESH_DRAW"
    },
    {
     "enum_field_value" : 104002,
     "name" : "android::renderscript::RS_HAL_GRAPHICS_MESH_DESTROY"
    },
    {
     "enum_field_value" : 105000,
     "name" : "android::renderscript::RS_HAL_GRAPHICS_FB_INIT"
    },
    {
     "enum_field_value" : 105001,
     "name" : "android::renderscript::RS_HAL_GRAPHICS_FB_SET_ACTIVE"
    },
    {
     "enum_field_value" : 105002,
     "name" : "android::renderscript::RS_HAL_GRAPHICS_FB_DESTROY"
    },
    {
     "enum_field_value" : 106000,
     "name" : "android::renderscript::RS_HAL_GRAPHICS_STORE_INIT"
    },
    {
     "enum_field_value" : 106001,
     "name" : "android::renderscript::RS_HAL_GRAPHICS_STORE_SET_ACTIVE"
    },
    {
     "enum_field_value" : 106002,
     "name" : "android::renderscript::RS_HAL_GRAPHICS_STORE_DESTROY"
    }
   ],
   "linker_set_key" : "_ZTIN7android12renderscript14RsHalInitEnumsE",
   "name" : "android::renderscript::RsHalInitEnums",
   "referenced_type" : "_ZTIN7android12renderscript14RsHalInitEnumsE",
   "self_type" : "_ZTIN7android12renderscript14RsHalInitEnumsE",
   "size" : 4,
   "source_file" : "frameworks/rs/rs_hal.h",
   "underlying_type" : "_ZTIj"
  },
  {
   "alignment" : 4,
   "enum_fields" :
   [
    {
     "enum_field_value" : 10,
     "name" : "android::renderscript::ScriptGroupBase::SG_V1"
    },
    {
     "enum_field_value" : 20,
     "name" : "android::renderscript::ScriptGroupBase::SG_V2"
    }
   ],
   "linker_set_key" : "_ZTIN7android12renderscript15ScriptGroupBase14SG_API_VersionE",
   "name" : "android::renderscript::ScriptGroupBase::SG_API_Version",
   "referenced_type" : "_ZTIN7android12renderscript15ScriptGroupBase14SG_API_VersionE",
   "self_type" : "_ZTIN7android12renderscript15ScriptGroupBase14SG_API_VersionE",
   "size" : 4,
   "source_file" : "frameworks/rs/rsScriptGroupBase.h",
   "underlying_type" : "_ZTIj"
  },
  {
   "alignment" : 4,
   "enum_fields" :
   [
    {
     "enum_field_value" : 0,
     "name" : "android::renderscript::SYSTEM_TIME_REALTIME"
    },
    {
     "enum_field_value" : 1,
     "name" : "android::renderscript::SYSTEM_TIME_MONOTONIC"
    },
    {
     "enum_field_value" : 2,
     "name" : "android::renderscript::SYSTEM_TIME_PROCESS"
    },
    {
     "enum_field_value" : 3,
     "name" : "android::renderscript::SYSTEM_TIME_THREAD"
    }
   ],
   "linker_set_key" : "_ZTIN7android12renderscript22$SYSTEM_TIME_MONOTONICE",
   "name" : "android::renderscript::(anonymous enum at frameworks/rs/rsCppUtils.h:62:1)",
   "referenced_type" : "_ZTIN7android12renderscript22$SYSTEM_TIME_MONOTONICE",
   "self_type" : "_ZTIN7android12renderscript22$SYSTEM_TIME_MONOTONICE",
   "size" : 4,
   "source_file" : "frameworks/rs/rsCppUtils.h",
   "underlying_type" : "_ZTIj"
  },
  {
   "alignment" : 4,
   "enum_fields" :
   [
    {
     "enum_field_value" : 0,
     "name" : "android::renderscript::Font::FRAMEBUFFER"
    },
    {
     "enum_field_value" : 1,
     "name" : "android::renderscript::Font::BITMAP"
    },
    {
     "enum_field_value" : 2,
     "name" : "android::renderscript::Font::MEASURE"
    }
   ],
   "linker_set_key" : "_ZTIN7android12renderscript4Font10RenderModeE",
   "name" : "android::renderscript::Font::RenderMode",
   "referenced_type" : "_ZTIN7android12renderscript4Font10RenderModeE",
   "self_type" : "_ZTIN7android12renderscript4Font10RenderModeE",
   "size" : 4,
   "source_file" : "frameworks/rs/rsFont.h",
   "underlying_type" : "_ZTIj"
  },
  {
   "alignment" : 4,
   "enum_fields" :
   [
    {
     "enum_field_value" : 0,
     "name" : "android::renderscript::Context::RS_TIMER_IDLE"
    },
    {
     "enum_field_value" : 1,
     "name" : "android::renderscript::Context::RS_TIMER_INTERNAL"
    },
    {
     "enum_field_value" : 2,
     "name" : "android::renderscript::Context::RS_TIMER_SCRIPT"
    },
    {
     "enum_field_value" : 3,
     "name" : "android::renderscript::Context::RS_TIMER_CLEAR_SWAP"
    },
    {
     "enum_field_value" : 4,
     "name" : "android::renderscript::Context::_RS_TIMER_TOTAL"
    }
   ],
   "linker_set_key" : "_ZTIN7android12renderscript7Context6TimersE",
   "name" : "android::renderscript::Context::Timers",
   "referenced_type" : "_ZTIN7android12renderscript7Context6TimersE",
   "self_type" : "_ZTIN7android12renderscript7Context6TimersE",
   "size" : 4,
   "source_file" : "frameworks/rs/rsContext.h",
   "underlying_type" : "_ZTIj"
  },
  {
   "alignment" : 4,
   "enum_fields" :
   [
    {
     "enum_field_value" : 0,
     "name" : "android::OK"
    },
    {
     "enum_field_value" : 0,
     "name" : "android::NO_ERROR"
    },
    {
     "enum_field_value" : -2147483648,
     "name" : "android::UNKNOWN_ERROR"
    },
    {
     "enum_field_value" : -12,
     "name" : "android::NO_MEMORY"
    },
    {
     "enum_field_value" : -38,
     "name" : "android::INVALID_OPERATION"
    },
    {
     "enum_field_value" : -22,
     "name" : "android::BAD_VALUE"
    },
    {
     "enum_field_value" : -2147483647,
     "name" : "android::BAD_TYPE"
    },
    {
     "enum_field_value" : -2,
     "name" : "android::NAME_NOT_FOUND"
    },
    {
     "enum_field_value" : -1,
     "name" : "android::PERMISSION_DENIED"
    },
    {
     "enum_field_value" : -19,
     "name" : "android::NO_INIT"
    },
    {
     "enum_field_value" : -17,
     "name" : "android::ALREADY_EXISTS"
    },
    {
     "enum_field_value" : -32,
     "name" : "android::DEAD_OBJECT"
    },
    {
     "enum_field_value" : -2147483646,
     "name" : "android::FAILED_TRANSACTION"
    },
    {
     "enum_field_value" : -75,
     "name" : "android::BAD_INDEX"
    },
    {
     "enum_field_value" : -61,
     "name" : "android::NOT_ENOUGH_DATA"
    },
    {
     "enum_field_value" : -11,
     "name" : "android::WOULD_BLOCK"
    },
    {
     "enum_field_value" : -110,
     "name" : "android::TIMED_OUT"
    },
    {
     "enum_field_value" : -74,
     "name" : "android::UNKNOWN_TRANSACTION"
    },
    {
     "enum_field_value" : -2147483641,
     "name" : "android::FDS_NOT_ALLOWED"
    },
    {
     "enum_field_value" : -2147483640,
     "name" : "android::UNEXPECTED_NULL"
    }
   ],
   "linker_set_key" : "_ZTIN7android15$ALREADY_EXISTSE",
   "name" : "android::(anonymous enum at system/core/libutils/include/utils/Errors.h:43:1)",
   "referenced_type" : "_ZTIN7android15$ALREADY_EXISTSE",
   "self_type" : "_ZTIN7android15$ALREADY_EXISTSE",
   "size" : 4,
   "source_file" : "system/core/libutils/include/utils/Errors.h",
   "underlying_type" : "_ZTIi"
  },
  {
   "alignment" : 4,
   "enum_fields" :
   [
    {
     "enum_field_value" : 1,
     "name" : "android::trait_trivial_copy<bool>::value"
    }
   ],
   "linker_set_key" : "_ZTIN7android18trait_trivial_copyIbE6$valueE",
   "name" : "android::trait_trivial_copy<bool>::(anonymous enum at system/core/libutils/include/utils/TypeHelpers.h:98:1)",
   "referenced_type" : "_ZTIN7android18trait_trivial_copyIbE6$valueE",
   "self_type" : "_ZTIN7android18trait_trivial_copyIbE6$valueE",
   "size" : 4,
   "source_file" : "system/core/libutils/include/utils/TypeHelpers.h",
   "underlying_type" : "_ZTIj"
  },
  {
   "alignment" : 4,
   "enum_fields" :
   [
    {
     "enum_field_value" : 1,
     "name" : "android::trait_trivial_copy<char>::value"
    }
   ],
   "linker_set_key" : "_ZTIN7android18trait_trivial_copyIcE6$valueE",
   "name" : "android::trait_trivial_copy<char>::(anonymous enum at system/core/libutils/include/utils/TypeHelpers.h:99:1)",
   "referenced_type" : "_ZTIN7android18trait_trivial_copyIcE6$valueE",
   "self_type" : "_ZTIN7android18trait_trivial_copyIcE6$valueE",
   "size" : 4,
   "source_file" : "system/core/libutils/include/utils/TypeHelpers.h",
   "underlying_type" : "_ZTIj"
  },
  {
   "alignment" : 4,
   "enum_fields" :
   [
    {
     "enum_field_value" : 1,
     "name" : "android::trait_trivial_copy<double>::value"
    }
   ],
   "linker_set_key" : "_ZTIN7android18trait_trivial_copyIdE6$valueE",
   "name" : "android::trait_trivial_copy<double>::(anonymous enum at system/core/libutils/include/utils/TypeHelpers.h:110:1)",
   "referenced_type" : "_ZTIN7android18trait_trivial_copyIdE6$valueE",
   "self_type" : "_ZTIN7android18trait_trivial_copyIdE6$valueE",
   "size" : 4,
   "source_file" : "system/core/libutils/include/utils/TypeHelpers.h",
   "underlying_type" : "_ZTIj"
  },
  {
   "alignment" : 4,
   "enum_fields" :
   [
    {
     "enum_field_value" : 1,
     "name" : "android::trait_trivial_copy<float>::value"
    }
   ],
   "linker_set_key" : "_ZTIN7android18trait_trivial_copyIfE6$valueE",
   "name" : "android::trait_trivial_copy<float>::(anonymous enum at system/core/libutils/include/utils/TypeHelpers.h:109:1)",
   "referenced_type" : "_ZTIN7android18trait_trivial_copyIfE6$valueE",
   "self_type" : "_ZTIN7android18trait_trivial_copyIfE6$valueE",
   "size" : 4,
   "source_file" : "system/core/libutils/include/utils/TypeHelpers.h",
   "underlying_type" : "_ZTIj"
  },
  {
   "alignment" : 4,
   "enum_fields" :
   [
    {
     "enum_field_value" : 1,
     "name" : "android::trait_trivial_copy<unsigned char>::value"
    }
   ],
   "linker_set_key" : "_ZTIN7android18trait_trivial_copyIhE6$valueE",
   "name" : "android::trait_trivial_copy<unsigned char>::(anonymous enum at system/core/libutils/include/utils/TypeHelpers.h:100:1)",
   "referenced_type" : "_ZTIN7android18trait_trivial_copyIhE6$valueE",
   "self_type" : "_ZTIN7android18trait_trivial_copyIhE6$valueE",
   "size" : 4,
   "source_file" : "system/core/libutils/include/utils/TypeHelpers.h",
   "underlying_type" : "_ZTIj"
  },
  {
   "alignment" : 4,
   "enum_fields" :
   [
    {
     "enum_field_value" : 1,
     "name" : "android::trait_trivial_copy<int>::value"
    }
   ],
   "linker_set_key" : "_ZTIN7android18trait_trivial_copyIiE6$valueE",
   "name" : "android::trait_trivial_copy<int>::(anonymous enum at system/core/libutils/include/utils/TypeHelpers.h:103:1)",
   "referenced_type" : "_ZTIN7android18trait_trivial_copyIiE6$valueE",
   "self_type" : "_ZTIN7android18trait_trivial_copyIiE6$valueE",
   "size" : 4,
   "source_file" : "system/core/libutils/include/utils/TypeHelpers.h",
   "underlying_type" : "_ZTIj"
  },
  {
   "alignment" : 4,
   "enum_fields" :
   [
    {
     "enum_field_value" : 1,
     "name" : "android::trait_trivial_copy<unsigned int>::value"
    }
   ],
   "linker_set_key" : "_ZTIN7android18trait_trivial_copyIjE6$valueE",
   "name" : "android::trait_trivial_copy<unsigned int>::(anonymous enum at system/core/libutils/include/utils/TypeHelpers.h:104:1)",
   "referenced_type" : "_ZTIN7android18trait_trivial_copyIjE6$valueE",
   "self_type" : "_ZTIN7android18trait_trivial_copyIjE6$valueE",
   "size" : 4,
   "source_file" : "system/core/libutils/include/utils/TypeHelpers.h",
   "underlying_type" : "_ZTIj"
  },
  {
   "alignment" : 4,
   "enum_fields" :
   [
    {
     "enum_field_value" : 1,
     "name" : "android::trait_trivial_copy<long>::value"
    }
   ],
   "linker_set_key" : "_ZTIN7android18trait_trivial_copyIlE6$valueE",
   "name" : "android::trait_trivial_copy<long>::(anonymous enum at system/core/libutils/include/utils/TypeHelpers.h:105:1)",
   "referenced_type" : "_ZTIN7android18trait_trivial_copyIlE6$valueE",
   "self_type" : "_ZTIN7android18trait_trivial_copyIlE6$valueE",
   "size" : 4,
   "source_file" : "system/core/libutils/include/utils/TypeHelpers.h",
   "underlying_type" : "_ZTIj"
  },
  {
   "alignment" : 4,
   "enum_fields" :
   [
    {
     "enum_field_value" : 1,
     "name" : "android::trait_trivial_copy<unsigned long>::value"
    }
   ],
   "linker_set_key" : "_ZTIN7android18trait_trivial_copyImE6$valueE",
   "name" : "android::trait_trivial_copy<unsigned long>::(anonymous enum at system/core/libutils/include/utils/TypeHelpers.h:106:1)",
   "referenced_type" : "_ZTIN7android18trait_trivial_copyImE6$valueE",
   "self_type" : "_ZTIN7android18trait_trivial_copyImE6$valueE",
   "size" : 4,
   "source_file" : "system/core/libutils/include/utils/TypeHelpers.h",
   "underlying_type" : "_ZTIj"
  },
  {
   "alignment" : 4,
   "enum_fields" :
   [
    {
     "enum_field_value" : 1,
     "name" : "android::trait_trivial_copy<short>::value"
    }
   ],
   "linker_set_key" : "_ZTIN7android18trait_trivial_copyIsE6$valueE",
   "name" : "android::trait_trivial_copy<short>::(anonymous enum at system/core/libutils/include/utils/TypeHelpers.h:101:1)",
   "referenced_type" : "_ZTIN7android18trait_trivial_copyIsE6$valueE",
   "self_type" : "_ZTIN7android18trait_trivial_copyIsE6$valueE",
   "size" : 4,
   "source_file" : "system/core/libutils/include/utils/TypeHelpers.h",
   "underlying_type" : "_ZTIj"
  },
  {
   "alignment" : 4,
   "enum_fields" :
   [
    {
     "enum_field_value" : 1,
     "name" : "android::trait_trivial_copy<unsigned short>::value"
    }
   ],
   "linker_set_key" : "_ZTIN7android18trait_trivial_copyItE6$valueE",
   "name" : "android::trait_trivial_copy<unsigned short>::(anonymous enum at system/core/libutils/include/utils/TypeHelpers.h:102:1)",
   "referenced_type" : "_ZTIN7android18trait_trivial_copyItE6$valueE",
   "self_type" : "_ZTIN7android18trait_trivial_copyItE6$valueE",
   "size" : 4,
   "source_file" : "system/core/libutils/include/utils/TypeHelpers.h",
   "underlying_type" : "_ZTIj"
  },
  {
   "alignment" : 4,
   "enum_fields" :
   [
    {
     "enum_field_value" : 1,
     "name" : "android::trait_trivial_copy<void>::value"
    }
   ],
   "linker_set_key" : "_ZTIN7android18trait_trivial_copyIvE6$valueE",
   "name" : "android::trait_trivial_copy<void>::(anonymous enum at system/core/libutils/include/utils/TypeHelpers.h:97:1)",
   "referenced_type" : "_ZTIN7android18trait_trivial_copyIvE6$valueE",
   "self_type" : "_ZTIN7android18trait_trivial_copyIvE6$valueE",
   "size" : 4,
   "source_file" : "system/core/libutils/include/utils/TypeHelpers.h",
   "underlying_type" : "_ZTIj"
  },
  {
   "alignment" : 4,
   "enum_fields" :
   [
    {
     "enum_field_value" : 1,
     "name" : "android::trait_trivial_copy<long long>::value"
    }
   ],
   "linker_set_key" : "_ZTIN7android18trait_trivial_copyIxE6$valueE",
   "name" : "android::trait_trivial_copy<long long>::(anonymous enum at system/core/libutils/include/utils/TypeHelpers.h:107:1)",
   "referenced_type" : "_ZTIN7android18trait_trivial_copyIxE6$valueE",
   "self_type" : "_ZTIN7android18trait_trivial_copyIxE6$valueE",
   "size" : 4,
   "source_file" : "system/core/libutils/include/utils/TypeHelpers.h",
   "underlying_type" : "_ZTIj"
  },
  {
   "alignment" : 4,
   "enum_fields" :
   [
    {
     "enum_field_value" : 1,
     "name" : "android::trait_trivial_copy<unsigned long long>::value"
    }
   ],
   "linker_set_key" : "_ZTIN7android18trait_trivial_copyIyE6$valueE",
   "name" : "android::trait_trivial_copy<unsigned long long>::(anonymous enum at system/core/libutils/include/utils/TypeHelpers.h:108:1)",
   "referenced_type" : "_ZTIN7android18trait_trivial_copyIyE6$valueE",
   "self_type" : "_ZTIN7android18trait_trivial_copyIyE6$valueE",
   "size" : 4,
   "source_file" : "system/core/libutils/include/utils/TypeHelpers.h",
   "underlying_type" : "_ZTIj"
  },
  {
   "alignment" : 4,
   "enum_fields" :
   [
    {
     "enum_field_value" : 1,
     "name" : "android::trait_trivial_ctor<bool>::value"
    }
   ],
   "linker_set_key" : "_ZTIN7android18trait_trivial_ctorIbE6$valueE",
   "name" : "android::trait_trivial_ctor<bool>::(anonymous enum at system/core/libutils/include/utils/TypeHelpers.h:98:1)",
   "referenced_type" : "_ZTIN7android18trait_trivial_ctorIbE6$valueE",
   "self_type" : "_ZTIN7android18trait_trivial_ctorIbE6$valueE",
   "size" : 4,
   "source_file" : "system/core/libutils/include/utils/TypeHelpers.h",
   "underlying_type" : "_ZTIj"
  },
  {
   "alignment" : 4,
   "enum_fields" :
   [
    {
     "enum_field_value" : 1,
     "name" : "android::trait_trivial_ctor<char>::value"
    }
   ],
   "linker_set_key" : "_ZTIN7android18trait_trivial_ctorIcE6$valueE",
   "name" : "android::trait_trivial_ctor<char>::(anonymous enum at system/core/libutils/include/utils/TypeHelpers.h:99:1)",
   "referenced_type" : "_ZTIN7android18trait_trivial_ctorIcE6$valueE",
   "self_type" : "_ZTIN7android18trait_trivial_ctorIcE6$valueE",
   "size" : 4,
   "source_file" : "system/core/libutils/include/utils/TypeHelpers.h",
   "underlying_type" : "_ZTIj"
  },
  {
   "alignment" : 4,
   "enum_fields" :
   [
    {
     "enum_field_value" : 1,
     "name" : "android::trait_trivial_ctor<double>::value"
    }
   ],
   "linker_set_key" : "_ZTIN7android18trait_trivial_ctorIdE6$valueE",
   "name" : "android::trait_trivial_ctor<double>::(anonymous enum at system/core/libutils/include/utils/TypeHelpers.h:110:1)",
   "referenced_type" : "_ZTIN7android18trait_trivial_ctorIdE6$valueE",
   "self_type" : "_ZTIN7android18trait_trivial_ctorIdE6$valueE",
   "size" : 4,
   "source_file" : "system/core/libutils/include/utils/TypeHelpers.h",
   "underlying_type" : "_ZTIj"
  },
  {
   "alignment" : 4,
   "enum_fields" :
   [
    {
     "enum_field_value" : 1,
     "name" : "android::trait_trivial_ctor<float>::value"
    }
   ],
   "linker_set_key" : "_ZTIN7android18trait_trivial_ctorIfE6$valueE",
   "name" : "android::trait_trivial_ctor<float>::(anonymous enum at system/core/libutils/include/utils/TypeHelpers.h:109:1)",
   "referenced_type" : "_ZTIN7android18trait_trivial_ctorIfE6$valueE",
   "self_type" : "_ZTIN7android18trait_trivial_ctorIfE6$valueE",
   "size" : 4,
   "source_file" : "system/core/libutils/include/utils/TypeHelpers.h",
   "underlying_type" : "_ZTIj"
  },
  {
   "alignment" : 4,
   "enum_fields" :
   [
    {
     "enum_field_value" : 1,
     "name" : "android::trait_trivial_ctor<unsigned char>::value"
    }
   ],
   "linker_set_key" : "_ZTIN7android18trait_trivial_ctorIhE6$valueE",
   "name" : "android::trait_trivial_ctor<unsigned char>::(anonymous enum at system/core/libutils/include/utils/TypeHelpers.h:100:1)",
   "referenced_type" : "_ZTIN7android18trait_trivial_ctorIhE6$valueE",
   "self_type" : "_ZTIN7android18trait_trivial_ctorIhE6$valueE",
   "size" : 4,
   "source_file" : "system/core/libutils/include/utils/TypeHelpers.h",
   "underlying_type" : "_ZTIj"
  },
  {
   "alignment" : 4,
   "enum_fields" :
   [
    {
     "enum_field_value" : 1,
     "name" : "android::trait_trivial_ctor<int>::value"
    }
   ],
   "linker_set_key" : "_ZTIN7android18trait_trivial_ctorIiE6$valueE",
   "name" : "android::trait_trivial_ctor<int>::(anonymous enum at system/core/libutils/include/utils/TypeHelpers.h:103:1)",
   "referenced_type" : "_ZTIN7android18trait_trivial_ctorIiE6$valueE",
   "self_type" : "_ZTIN7android18trait_trivial_ctorIiE6$valueE",
   "size" : 4,
   "source_file" : "system/core/libutils/include/utils/TypeHelpers.h",
   "underlying_type" : "_ZTIj"
  },
  {
   "alignment" : 4,
   "enum_fields" :
   [
    {
     "enum_field_value" : 1,
     "name" : "android::trait_trivial_ctor<unsigned int>::value"
    }
   ],
   "linker_set_key" : "_ZTIN7android18trait_trivial_ctorIjE6$valueE",
   "name" : "android::trait_trivial_ctor<unsigned int>::(anonymous enum at system/core/libutils/include/utils/TypeHelpers.h:104:1)",
   "referenced_type" : "_ZTIN7android18trait_trivial_ctorIjE6$valueE",
   "self_type" : "_ZTIN7android18trait_trivial_ctorIjE6$valueE",
   "size" : 4,
   "source_file" : "system/core/libutils/include/utils/TypeHelpers.h",
   "underlying_type" : "_ZTIj"
  },
  {
   "alignment" : 4,
   "enum_fields" :
   [
    {
     "enum_field_value" : 1,
     "name" : "android::trait_trivial_ctor<long>::value"
    }
   ],
   "linker_set_key" : "_ZTIN7android18trait_trivial_ctorIlE6$valueE",
   "name" : "android::trait_trivial_ctor<long>::(anonymous enum at system/core/libutils/include/utils/TypeHelpers.h:105:1)",
   "referenced_type" : "_ZTIN7android18trait_trivial_ctorIlE6$valueE",
   "self_type" : "_ZTIN7android18trait_trivial_ctorIlE6$valueE",
   "size" : 4,
   "source_file" : "system/core/libutils/include/utils/TypeHelpers.h",
   "underlying_type" : "_ZTIj"
  },
  {
   "alignment" : 4,
   "enum_fields" :
   [
    {
     "enum_field_value" : 1,
     "name" : "android::trait_trivial_ctor<unsigned long>::value"
    }
   ],
   "linker_set_key" : "_ZTIN7android18trait_trivial_ctorImE6$valueE",
   "name" : "android::trait_trivial_ctor<unsigned long>::(anonymous enum at system/core/libutils/include/utils/TypeHelpers.h:106:1)",
   "referenced_type" : "_ZTIN7android18trait_trivial_ctorImE6$valueE",
   "self_type" : "_ZTIN7android18trait_trivial_ctorImE6$valueE",
   "size" : 4,
   "source_file" : "system/core/libutils/include/utils/TypeHelpers.h",
   "underlying_type" : "_ZTIj"
  },
  {
   "alignment" : 4,
   "enum_fields" :
   [
    {
     "enum_field_value" : 1,
     "name" : "android::trait_trivial_ctor<short>::value"
    }
   ],
   "linker_set_key" : "_ZTIN7android18trait_trivial_ctorIsE6$valueE",
   "name" : "android::trait_trivial_ctor<short>::(anonymous enum at system/core/libutils/include/utils/TypeHelpers.h:101:1)",
   "referenced_type" : "_ZTIN7android18trait_trivial_ctorIsE6$valueE",
   "self_type" : "_ZTIN7android18trait_trivial_ctorIsE6$valueE",
   "size" : 4,
   "source_file" : "system/core/libutils/include/utils/TypeHelpers.h",
   "underlying_type" : "_ZTIj"
  },
  {
   "alignment" : 4,
   "enum_fields" :
   [
    {
     "enum_field_value" : 1,
     "name" : "android::trait_trivial_ctor<unsigned short>::value"
    }
   ],
   "linker_set_key" : "_ZTIN7android18trait_trivial_ctorItE6$valueE",
   "name" : "android::trait_trivial_ctor<unsigned short>::(anonymous enum at system/core/libutils/include/utils/TypeHelpers.h:102:1)",
   "referenced_type" : "_ZTIN7android18trait_trivial_ctorItE6$valueE",
   "self_type" : "_ZTIN7android18trait_trivial_ctorItE6$valueE",
   "size" : 4,
   "source_file" : "system/core/libutils/include/utils/TypeHelpers.h",
   "underlying_type" : "_ZTIj"
  },
  {
   "alignment" : 4,
   "enum_fields" :
   [
    {
     "enum_field_value" : 1,
     "name" : "android::trait_trivial_ctor<void>::value"
    }
   ],
   "linker_set_key" : "_ZTIN7android18trait_trivial_ctorIvE6$valueE",
   "name" : "android::trait_trivial_ctor<void>::(anonymous enum at system/core/libutils/include/utils/TypeHelpers.h:97:1)",
   "referenced_type" : "_ZTIN7android18trait_trivial_ctorIvE6$valueE",
   "self_type" : "_ZTIN7android18trait_trivial_ctorIvE6$valueE",
   "size" : 4,
   "source_file" : "system/core/libutils/include/utils/TypeHelpers.h",
   "underlying_type" : "_ZTIj"
  },
  {
   "alignment" : 4,
   "enum_fields" :
   [
    {
     "enum_field_value" : 1,
     "name" : "android::trait_trivial_ctor<long long>::value"
    }
   ],
   "linker_set_key" : "_ZTIN7android18trait_trivial_ctorIxE6$valueE",
   "name" : "android::trait_trivial_ctor<long long>::(anonymous enum at system/core/libutils/include/utils/TypeHelpers.h:107:1)",
   "referenced_type" : "_ZTIN7android18trait_trivial_ctorIxE6$valueE",
   "self_type" : "_ZTIN7android18trait_trivial_ctorIxE6$valueE",
   "size" : 4,
   "source_file" : "system/core/libutils/include/utils/TypeHelpers.h",
   "underlying_type" : "_ZTIj"
  },
  {
   "alignment" : 4,
   "enum_fields" :
   [
    {
     "enum_field_value" : 1,
     "name" : "android::trait_trivial_ctor<unsigned long long>::value"
    }
   ],
   "linker_set_key" : "_ZTIN7android18trait_trivial_ctorIyE6$valueE",
   "name" : "android::trait_trivial_ctor<unsigned long long>::(anonymous enum at system/core/libutils/include/utils/TypeHelpers.h:108:1)",
   "referenced_type" : "_ZTIN7android18trait_trivial_ctorIyE6$valueE",
   "self_type" : "_ZTIN7android18trait_trivial_ctorIyE6$valueE",
   "size" : 4,
   "source_file" : "system/core/libutils/include/utils/TypeHelpers.h",
   "underlying_type" : "_ZTIj"
  },
  {
   "alignment" : 4,
   "enum_fields" :
   [
    {
     "enum_field_value" : 1,
     "name" : "android::trait_trivial_dtor<bool>::value"
    }
   ],
   "linker_set_key" : "_ZTIN7android18trait_trivial_dtorIbE6$valueE",
   "name" : "android::trait_trivial_dtor<bool>::(anonymous enum at system/core/libutils/include/utils/TypeHelpers.h:98:1)",
   "referenced_type" : "_ZTIN7android18trait_trivial_dtorIbE6$valueE",
   "self_type" : "_ZTIN7android18trait_trivial_dtorIbE6$valueE",
   "size" : 4,
   "source_file" : "system/core/libutils/include/utils/TypeHelpers.h",
   "underlying_type" : "_ZTIj"
  },
  {
   "alignment" : 4,
   "enum_fields" :
   [
    {
     "enum_field_value" : 1,
     "name" : "android::trait_trivial_dtor<char>::value"
    }
   ],
   "linker_set_key" : "_ZTIN7android18trait_trivial_dtorIcE6$valueE",
   "name" : "android::trait_trivial_dtor<char>::(anonymous enum at system/core/libutils/include/utils/TypeHelpers.h:99:1)",
   "referenced_type" : "_ZTIN7android18trait_trivial_dtorIcE6$valueE",
   "self_type" : "_ZTIN7android18trait_trivial_dtorIcE6$valueE",
   "size" : 4,
   "source_file" : "system/core/libutils/include/utils/TypeHelpers.h",
   "underlying_type" : "_ZTIj"
  },
  {
   "alignment" : 4,
   "enum_fields" :
   [
    {
     "enum_field_value" : 1,
     "name" : "android::trait_trivial_dtor<double>::value"
    }
   ],
   "linker_set_key" : "_ZTIN7android18trait_trivial_dtorIdE6$valueE",
   "name" : "android::trait_trivial_dtor<double>::(anonymous enum at system/core/libutils/include/utils/TypeHelpers.h:110:1)",
   "referenced_type" : "_ZTIN7android18trait_trivial_dtorIdE6$valueE",
   "self_type" : "_ZTIN7android18trait_trivial_dtorIdE6$valueE",
   "size" : 4,
   "source_file" : "system/core/libutils/include/utils/TypeHelpers.h",
   "underlying_type" : "_ZTIj"
  },
  {
   "alignment" : 4,
   "enum_fields" :
   [
    {
     "enum_field_value" : 1,
     "name" : "android::trait_trivial_dtor<float>::value"
    }
   ],
   "linker_set_key" : "_ZTIN7android18trait_trivial_dtorIfE6$valueE",
   "name" : "android::trait_trivial_dtor<float>::(anonymous enum at system/core/libutils/include/utils/TypeHelpers.h:109:1)",
   "referenced_type" : "_ZTIN7android18trait_trivial_dtorIfE6$valueE",
   "self_type" : "_ZTIN7android18trait_trivial_dtorIfE6$valueE",
   "size" : 4,
   "source_file" : "system/core/libutils/include/utils/TypeHelpers.h",
   "underlying_type" : "_ZTIj"
  },
  {
   "alignment" : 4,
   "enum_fields" :
   [
    {
     "enum_field_value" : 1,
     "name" : "android::trait_trivial_dtor<unsigned char>::value"
    }
   ],
   "linker_set_key" : "_ZTIN7android18trait_trivial_dtorIhE6$valueE",
   "name" : "android::trait_trivial_dtor<unsigned char>::(anonymous enum at system/core/libutils/include/utils/TypeHelpers.h:100:1)",
   "referenced_type" : "_ZTIN7android18trait_trivial_dtorIhE6$valueE",
   "self_type" : "_ZTIN7android18trait_trivial_dtorIhE6$valueE",
   "size" : 4,
   "source_file" : "system/core/libutils/include/utils/TypeHelpers.h",
   "underlying_type" : "_ZTIj"
  },
  {
   "alignment" : 4,
   "enum_fields" :
   [
    {
     "enum_field_value" : 1,
     "name" : "android::trait_trivial_dtor<int>::value"
    }
   ],
   "linker_set_key" : "_ZTIN7android18trait_trivial_dtorIiE6$valueE",
   "name" : "android::trait_trivial_dtor<int>::(anonymous enum at system/core/libutils/include/utils/TypeHelpers.h:103:1)",
   "referenced_type" : "_ZTIN7android18trait_trivial_dtorIiE6$valueE",
   "self_type" : "_ZTIN7android18trait_trivial_dtorIiE6$valueE",
   "size" : 4,
   "source_file" : "system/core/libutils/include/utils/TypeHelpers.h",
   "underlying_type" : "_ZTIj"
  },
  {
   "alignment" : 4,
   "enum_fields" :
   [
    {
     "enum_field_value" : 1,
     "name" : "android::trait_trivial_dtor<unsigned int>::value"
    }
   ],
   "linker_set_key" : "_ZTIN7android18trait_trivial_dtorIjE6$valueE",
   "name" : "android::trait_trivial_dtor<unsigned int>::(anonymous enum at system/core/libutils/include/utils/TypeHelpers.h:104:1)",
   "referenced_type" : "_ZTIN7android18trait_trivial_dtorIjE6$valueE",
   "self_type" : "_ZTIN7android18trait_trivial_dtorIjE6$valueE",
   "size" : 4,
   "source_file" : "system/core/libutils/include/utils/TypeHelpers.h",
   "underlying_type" : "_ZTIj"
  },
  {
   "alignment" : 4,
   "enum_fields" :
   [
    {
     "enum_field_value" : 1,
     "name" : "android::trait_trivial_dtor<long>::value"
    }
   ],
   "linker_set_key" : "_ZTIN7android18trait_trivial_dtorIlE6$valueE",
   "name" : "android::trait_trivial_dtor<long>::(anonymous enum at system/core/libutils/include/utils/TypeHelpers.h:105:1)",
   "referenced_type" : "_ZTIN7android18trait_trivial_dtorIlE6$valueE",
   "self_type" : "_ZTIN7android18trait_trivial_dtorIlE6$valueE",
   "size" : 4,
   "source_file" : "system/core/libutils/include/utils/TypeHelpers.h",
   "underlying_type" : "_ZTIj"
  },
  {
   "alignment" : 4,
   "enum_fields" :
   [
    {
     "enum_field_value" : 1,
     "name" : "android::trait_trivial_dtor<unsigned long>::value"
    }
   ],
   "linker_set_key" : "_ZTIN7android18trait_trivial_dtorImE6$valueE",
   "name" : "android::trait_trivial_dtor<unsigned long>::(anonymous enum at system/core/libutils/include/utils/TypeHelpers.h:106:1)",
   "referenced_type" : "_ZTIN7android18trait_trivial_dtorImE6$valueE",
   "self_type" : "_ZTIN7android18trait_trivial_dtorImE6$valueE",
   "size" : 4,
   "source_file" : "system/core/libutils/include/utils/TypeHelpers.h",
   "underlying_type" : "_ZTIj"
  },
  {
   "alignment" : 4,
   "enum_fields" :
   [
    {
     "enum_field_value" : 1,
     "name" : "android::trait_trivial_dtor<short>::value"
    }
   ],
   "linker_set_key" : "_ZTIN7android18trait_trivial_dtorIsE6$valueE",
   "name" : "android::trait_trivial_dtor<short>::(anonymous enum at system/core/libutils/include/utils/TypeHelpers.h:101:1)",
   "referenced_type" : "_ZTIN7android18trait_trivial_dtorIsE6$valueE",
   "self_type" : "_ZTIN7android18trait_trivial_dtorIsE6$valueE",
   "size" : 4,
   "source_file" : "system/core/libutils/include/utils/TypeHelpers.h",
   "underlying_type" : "_ZTIj"
  },
  {
   "alignment" : 4,
   "enum_fields" :
   [
    {
     "enum_field_value" : 1,
     "name" : "android::trait_trivial_dtor<unsigned short>::value"
    }
   ],
   "linker_set_key" : "_ZTIN7android18trait_trivial_dtorItE6$valueE",
   "name" : "android::trait_trivial_dtor<unsigned short>::(anonymous enum at system/core/libutils/include/utils/TypeHelpers.h:102:1)",
   "referenced_type" : "_ZTIN7android18trait_trivial_dtorItE6$valueE",
   "self_type" : "_ZTIN7android18trait_trivial_dtorItE6$valueE",
   "size" : 4,
   "source_file" : "system/core/libutils/include/utils/TypeHelpers.h",
   "underlying_type" : "_ZTIj"
  },
  {
   "alignment" : 4,
   "enum_fields" :
   [
    {
     "enum_field_value" : 1,
     "name" : "android::trait_trivial_dtor<void>::value"
    }
   ],
   "linker_set_key" : "_ZTIN7android18trait_trivial_dtorIvE6$valueE",
   "name" : "android::trait_trivial_dtor<void>::(anonymous enum at system/core/libutils/include/utils/TypeHelpers.h:97:1)",
   "referenced_type" : "_ZTIN7android18trait_trivial_dtorIvE6$valueE",
   "self_type" : "_ZTIN7android18trait_trivial_dtorIvE6$valueE",
   "size" : 4,
   "source_file" : "system/core/libutils/include/utils/TypeHelpers.h",
   "underlying_type" : "_ZTIj"
  },
  {
   "alignment" : 4,
   "enum_fields" :
   [
    {
     "enum_field_value" : 1,
     "name" : "android::trait_trivial_dtor<long long>::value"
    }
   ],
   "linker_set_key" : "_ZTIN7android18trait_trivial_dtorIxE6$valueE",
   "name" : "android::trait_trivial_dtor<long long>::(anonymous enum at system/core/libutils/include/utils/TypeHelpers.h:107:1)",
   "referenced_type" : "_ZTIN7android18trait_trivial_dtorIxE6$valueE",
   "self_type" : "_ZTIN7android18trait_trivial_dtorIxE6$valueE",
   "size" : 4,
   "source_file" : "system/core/libutils/include/utils/TypeHelpers.h",
   "underlying_type" : "_ZTIj"
  },
  {
   "alignment" : 4,
   "enum_fields" :
   [
    {
     "enum_field_value" : 1,
     "name" : "android::trait_trivial_dtor<unsigned long long>::value"
    }
   ],
   "linker_set_key" : "_ZTIN7android18trait_trivial_dtorIyE6$valueE",
   "name" : "android::trait_trivial_dtor<unsigned long long>::(anonymous enum at system/core/libutils/include/utils/TypeHelpers.h:108:1)",
   "referenced_type" : "_ZTIN7android18trait_trivial_dtorIyE6$valueE",
   "self_type" : "_ZTIN7android18trait_trivial_dtorIyE6$valueE",
   "size" : 4,
   "source_file" : "system/core/libutils/include/utils/TypeHelpers.h",
   "underlying_type" : "_ZTIj"
  },
  {
   "alignment" : 4,
   "enum_fields" :
   [
    {
     "enum_field_value" : 1,
     "name" : "android::trait_trivial_move<bool>::value"
    }
   ],
   "linker_set_key" : "_ZTIN7android18trait_trivial_moveIbE6$valueE",
   "name" : "android::trait_trivial_move<bool>::(anonymous enum at system/core/libutils/include/utils/TypeHelpers.h:98:1)",
   "referenced_type" : "_ZTIN7android18trait_trivial_moveIbE6$valueE",
   "self_type" : "_ZTIN7android18trait_trivial_moveIbE6$valueE",
   "size" : 4,
   "source_file" : "system/core/libutils/include/utils/TypeHelpers.h",
   "underlying_type" : "_ZTIj"
  },
  {
   "alignment" : 4,
   "enum_fields" :
   [
    {
     "enum_field_value" : 1,
     "name" : "android::trait_trivial_move<char>::value"
    }
   ],
   "linker_set_key" : "_ZTIN7android18trait_trivial_moveIcE6$valueE",
   "name" : "android::trait_trivial_move<char>::(anonymous enum at system/core/libutils/include/utils/TypeHelpers.h:99:1)",
   "referenced_type" : "_ZTIN7android18trait_trivial_moveIcE6$valueE",
   "self_type" : "_ZTIN7android18trait_trivial_moveIcE6$valueE",
   "size" : 4,
   "source_file" : "system/core/libutils/include/utils/TypeHelpers.h",
   "underlying_type" : "_ZTIj"
  },
  {
   "alignment" : 4,
   "enum_fields" :
   [
    {
     "enum_field_value" : 1,
     "name" : "android::trait_trivial_move<double>::value"
    }
   ],
   "linker_set_key" : "_ZTIN7android18trait_trivial_moveIdE6$valueE",
   "name" : "android::trait_trivial_move<double>::(anonymous enum at system/core/libutils/include/utils/TypeHelpers.h:110:1)",
   "referenced_type" : "_ZTIN7android18trait_trivial_moveIdE6$valueE",
   "self_type" : "_ZTIN7android18trait_trivial_moveIdE6$valueE",
   "size" : 4,
   "source_file" : "system/core/libutils/include/utils/TypeHelpers.h",
   "underlying_type" : "_ZTIj"
  },
  {
   "alignment" : 4,
   "enum_fields" :
   [
    {
     "enum_field_value" : 1,
     "name" : "android::trait_trivial_move<float>::value"
    }
   ],
   "linker_set_key" : "_ZTIN7android18trait_trivial_moveIfE6$valueE",
   "name" : "android::trait_trivial_move<float>::(anonymous enum at system/core/libutils/include/utils/TypeHelpers.h:109:1)",
   "referenced_type" : "_ZTIN7android18trait_trivial_moveIfE6$valueE",
   "self_type" : "_ZTIN7android18trait_trivial_moveIfE6$valueE",
   "size" : 4,
   "source_file" : "system/core/libutils/include/utils/TypeHelpers.h",
   "underlying_type" : "_ZTIj"
  },
  {
   "alignment" : 4,
   "enum_fields" :
   [
    {
     "enum_field_value" : 1,
     "name" : "android::trait_trivial_move<unsigned char>::value"
    }
   ],
   "linker_set_key" : "_ZTIN7android18trait_trivial_moveIhE6$valueE",
   "name" : "android::trait_trivial_move<unsigned char>::(anonymous enum at system/core/libutils/include/utils/TypeHelpers.h:100:1)",
   "referenced_type" : "_ZTIN7android18trait_trivial_moveIhE6$valueE",
   "self_type" : "_ZTIN7android18trait_trivial_moveIhE6$valueE",
   "size" : 4,
   "source_file" : "system/core/libutils/include/utils/TypeHelpers.h",
   "underlying_type" : "_ZTIj"
  },
  {
   "alignment" : 4,
   "enum_fields" :
   [
    {
     "enum_field_value" : 1,
     "name" : "android::trait_trivial_move<int>::value"
    }
   ],
   "linker_set_key" : "_ZTIN7android18trait_trivial_moveIiE6$valueE",
   "name" : "android::trait_trivial_move<int>::(anonymous enum at system/core/libutils/include/utils/TypeHelpers.h:103:1)",
   "referenced_type" : "_ZTIN7android18trait_trivial_moveIiE6$valueE",
   "self_type" : "_ZTIN7android18trait_trivial_moveIiE6$valueE",
   "size" : 4,
   "source_file" : "system/core/libutils/include/utils/TypeHelpers.h",
   "underlying_type" : "_ZTIj"
  },
  {
   "alignment" : 4,
   "enum_fields" :
   [
    {
     "enum_field_value" : 1,
     "name" : "android::trait_trivial_move<unsigned int>::value"
    }
   ],
   "linker_set_key" : "_ZTIN7android18trait_trivial_moveIjE6$valueE",
   "name" : "android::trait_trivial_move<unsigned int>::(anonymous enum at system/core/libutils/include/utils/TypeHelpers.h:104:1)",
   "referenced_type" : "_ZTIN7android18trait_trivial_moveIjE6$valueE",
   "self_type" : "_ZTIN7android18trait_trivial_moveIjE6$valueE",
   "size" : 4,
   "source_file" : "system/core/libutils/include/utils/TypeHelpers.h",
   "underlying_type" : "_ZTIj"
  },
  {
   "alignment" : 4,
   "enum_fields" :
   [
    {
     "enum_field_value" : 1,
     "name" : "android::trait_trivial_move<long>::value"
    }
   ],
   "linker_set_key" : "_ZTIN7android18trait_trivial_moveIlE6$valueE",
   "name" : "android::trait_trivial_move<long>::(anonymous enum at system/core/libutils/include/utils/TypeHelpers.h:105:1)",
   "referenced_type" : "_ZTIN7android18trait_trivial_moveIlE6$valueE",
   "self_type" : "_ZTIN7android18trait_trivial_moveIlE6$valueE",
   "size" : 4,
   "source_file" : "system/core/libutils/include/utils/TypeHelpers.h",
   "underlying_type" : "_ZTIj"
  },
  {
   "alignment" : 4,
   "enum_fields" :
   [
    {
     "enum_field_value" : 1,
     "name" : "android::trait_trivial_move<unsigned long>::value"
    }
   ],
   "linker_set_key" : "_ZTIN7android18trait_trivial_moveImE6$valueE",
   "name" : "android::trait_trivial_move<unsigned long>::(anonymous enum at system/core/libutils/include/utils/TypeHelpers.h:106:1)",
   "referenced_type" : "_ZTIN7android18trait_trivial_moveImE6$valueE",
   "self_type" : "_ZTIN7android18trait_trivial_moveImE6$valueE",
   "size" : 4,
   "source_file" : "system/core/libutils/include/utils/TypeHelpers.h",
   "underlying_type" : "_ZTIj"
  },
  {
   "alignment" : 4,
   "enum_fields" :
   [
    {
     "enum_field_value" : 1,
     "name" : "android::trait_trivial_move<short>::value"
    }
   ],
   "linker_set_key" : "_ZTIN7android18trait_trivial_moveIsE6$valueE",
   "name" : "android::trait_trivial_move<short>::(anonymous enum at system/core/libutils/include/utils/TypeHelpers.h:101:1)",
   "referenced_type" : "_ZTIN7android18trait_trivial_moveIsE6$valueE",
   "self_type" : "_ZTIN7android18trait_trivial_moveIsE6$valueE",
   "size" : 4,
   "source_file" : "system/core/libutils/include/utils/TypeHelpers.h",
   "underlying_type" : "_ZTIj"
  },
  {
   "alignment" : 4,
   "enum_fields" :
   [
    {
     "enum_field_value" : 1,
     "name" : "android::trait_trivial_move<unsigned short>::value"
    }
   ],
   "linker_set_key" : "_ZTIN7android18trait_trivial_moveItE6$valueE",
   "name" : "android::trait_trivial_move<unsigned short>::(anonymous enum at system/core/libutils/include/utils/TypeHelpers.h:102:1)",
   "referenced_type" : "_ZTIN7android18trait_trivial_moveItE6$valueE",
   "self_type" : "_ZTIN7android18trait_trivial_moveItE6$valueE",
   "size" : 4,
   "source_file" : "system/core/libutils/include/utils/TypeHelpers.h",
   "underlying_type" : "_ZTIj"
  },
  {
   "alignment" : 4,
   "enum_fields" :
   [
    {
     "enum_field_value" : 1,
     "name" : "android::trait_trivial_move<void>::value"
    }
   ],
   "linker_set_key" : "_ZTIN7android18trait_trivial_moveIvE6$valueE",
   "name" : "android::trait_trivial_move<void>::(anonymous enum at system/core/libutils/include/utils/TypeHelpers.h:97:1)",
   "referenced_type" : "_ZTIN7android18trait_trivial_moveIvE6$valueE",
   "self_type" : "_ZTIN7android18trait_trivial_moveIvE6$valueE",
   "size" : 4,
   "source_file" : "system/core/libutils/include/utils/TypeHelpers.h",
   "underlying_type" : "_ZTIj"
  },
  {
   "alignment" : 4,
   "enum_fields" :
   [
    {
     "enum_field_value" : 1,
     "name" : "android::trait_trivial_move<long long>::value"
    }
   ],
   "linker_set_key" : "_ZTIN7android18trait_trivial_moveIxE6$valueE",
   "name" : "android::trait_trivial_move<long long>::(anonymous enum at system/core/libutils/include/utils/TypeHelpers.h:107:1)",
   "referenced_type" : "_ZTIN7android18trait_trivial_moveIxE6$valueE",
   "self_type" : "_ZTIN7android18trait_trivial_moveIxE6$valueE",
   "size" : 4,
   "source_file" : "system/core/libutils/include/utils/TypeHelpers.h",
   "underlying_type" : "_ZTIj"
  },
  {
   "alignment" : 4,
   "enum_fields" :
   [
    {
     "enum_field_value" : 1,
     "name" : "android::trait_trivial_move<unsigned long long>::value"
    }
   ],
   "linker_set_key" : "_ZTIN7android18trait_trivial_moveIyE6$valueE",
   "name" : "android::trait_trivial_move<unsigned long long>::(anonymous enum at system/core/libutils/include/utils/TypeHelpers.h:108:1)",
   "referenced_type" : "_ZTIN7android18trait_trivial_moveIyE6$valueE",
   "self_type" : "_ZTIN7android18trait_trivial_moveIyE6$valueE",
   "size" : 4,
   "source_file" : "system/core/libutils/include/utils/TypeHelpers.h",
   "underlying_type" : "_ZTIj"
  },
  {
   "access" : "private",
   "alignment" : 4,
   "enum_fields" :
   [
    {
     "enum_field_value" : 5,
     "name" : "std::__1::basic_string<char32_t, std::__1::char_traits<char32_t>, std::__1::allocator<char32_t>>::__min_cap"
    }
   ],
   "linker_set_key" : "_ZTINSt3__112basic_stringIDiNS_11char_traitsIDiEENS_9allocatorIDiEEE10$__min_capE",
   "name" : "std::basic_string<char32_t, char_traits<char32_t>, allocator<char32_t>>::(anonymous enum at external/libcxx/include/string:751:5)",
   "referenced_type" : "_ZTINSt3__112basic_stringIDiNS_11char_traitsIDiEENS_9allocatorIDiEEE10$__min_capE",
   "self_type" : "_ZTINSt3__112basic_stringIDiNS_11char_traitsIDiEENS_9allocatorIDiEEE10$__min_capE",
   "size" : 4,
   "source_file" : "external/libcxx/include/string",
   "underlying_type" : "_ZTIj"
  },
  {
   "access" : "private",
   "alignment" : 4,
   "enum_fields" :
   [
    {
     "enum_field_value" : 3,
     "name" : "std::__1::basic_string<char32_t, std::__1::char_traits<char32_t>, std::__1::allocator<char32_t>>::__n_words"
    }
   ],
   "linker_set_key" : "_ZTINSt3__112basic_stringIDiNS_11char_traitsIDiEENS_9allocatorIDiEEE10$__n_wordsE",
   "name" : "std::basic_string<char32_t, char_traits<char32_t>, allocator<char32_t>>::(anonymous enum at external/libcxx/include/string:768:5)",
   "referenced_type" : "_ZTINSt3__112basic_stringIDiNS_11char_traitsIDiEENS_9allocatorIDiEEE10$__n_wordsE",
   "self_type" : "_ZTINSt3__112basic_stringIDiNS_11char_traitsIDiEENS_9allocatorIDiEEE10$__n_wordsE",
   "size" : 4,
   "source_file" : "external/libcxx/include/string",
   "underlying_type" : "_ZTIj"
  },
  {
   "access" : "private",
   "alignment" : 4,
   "enum_fields" :
   [
    {
     "enum_field_value" : 16,
     "name" : "std::__1::basic_string<char32_t, std::__1::char_traits<char32_t>, std::__1::allocator<char32_t>>::__alignment"
    }
   ],
   "linker_set_key" : "_ZTINSt3__112basic_stringIDiNS_11char_traitsIDiEENS_9allocatorIDiEEE12$__alignmentE",
   "name" : "std::basic_string<char32_t, char_traits<char32_t>, allocator<char32_t>>::(anonymous enum at external/libcxx/include/string:1535:5)",
   "referenced_type" : "_ZTINSt3__112basic_stringIDiNS_11char_traitsIDiEENS_9allocatorIDiEEE12$__alignmentE",
   "self_type" : "_ZTINSt3__112basic_stringIDiNS_11char_traitsIDiEENS_9allocatorIDiEEE12$__alignmentE",
   "size" : 4,
   "source_file" : "external/libcxx/include/string",
   "underlying_type" : "_ZTIj"
  },
  {
   "access" : "private",
   "alignment" : 4,
   "enum_fields" :
   [
    {
     "enum_field_value" : 11,
     "name" : "std::__1::basic_string<char16_t, std::__1::char_traits<char16_t>, std::__1::allocator<char16_t>>::__min_cap"
    }
   ],
   "linker_set_key" : "_ZTINSt3__112basic_stringIDsNS_11char_traitsIDsEENS_9allocatorIDsEEE10$__min_capE",
   "name" : "std::basic_string<char16_t, char_traits<char16_t>, allocator<char16_t>>::(anonymous enum at external/libcxx/include/string:751:5)",
   "referenced_type" : "_ZTINSt3__112basic_stringIDsNS_11char_traitsIDsEENS_9allocatorIDsEEE10$__min_capE",
   "self_type" : "_ZTINSt3__112basic_stringIDsNS_11char_traitsIDsEENS_9allocatorIDsEEE10$__min_capE",
   "size" : 4,
   "source_file" : "external/libcxx/include/string",
   "underlying_type" : "_ZTIj"
  },
  {
   "access" : "private",
   "alignment" : 4,
   "enum_fields" :
   [
    {
     "enum_field_value" : 3,
     "name" : "std::__1::basic_string<char16_t, std::__1::char_traits<char16_t>, std::__1::allocator<char16_t>>::__n_words"
    }
   ],
   "linker_set_key" : "_ZTINSt3__112basic_stringIDsNS_11char_traitsIDsEENS_9allocatorIDsEEE10$__n_wordsE",
   "name" : "std::basic_string<char16_t, char_traits<char16_t>, allocator<char16_t>>::(anonymous enum at external/libcxx/include/string:768:5)",
   "referenced_type" : "_ZTINSt3__112basic_stringIDsNS_11char_traitsIDsEENS_9allocatorIDsEEE10$__n_wordsE",
   "self_type" : "_ZTINSt3__112basic_stringIDsNS_11char_traitsIDsEENS_9allocatorIDsEEE10$__n_wordsE",
   "size" : 4,
   "source_file" : "external/libcxx/include/string",
   "underlying_type" : "_ZTIj"
  },
  {
   "access" : "private",
   "alignment" : 4,
   "enum_fields" :
   [
    {
     "enum_field_value" : 16,
     "name" : "std::__1::basic_string<char16_t, std::__1::char_traits<char16_t>, std::__1::allocator<char16_t>>::__alignment"
    }
   ],
   "linker_set_key" : "_ZTINSt3__112basic_stringIDsNS_11char_traitsIDsEENS_9allocatorIDsEEE12$__alignmentE",
   "name" : "std::basic_string<char16_t, char_traits<char16_t>, allocator<char16_t>>::(anonymous enum at external/libcxx/include/string:1535:5)",
   "referenced_type" : "_ZTINSt3__112basic_stringIDsNS_11char_traitsIDsEENS_9allocatorIDsEEE12$__alignmentE",
   "self_type" : "_ZTINSt3__112basic_stringIDsNS_11char_traitsIDsEENS_9allocatorIDsEEE12$__alignmentE",
   "size" : 4,
   "source_file" : "external/libcxx/include/string",
   "underlying_type" : "_ZTIj"
  },
  {
   "access" : "private",
   "alignment" : 4,
   "enum_fields" :
   [
    {
     "enum_field_value" : 23,
     "name" : "std::__1::basic_string<char, std::__1::char_traits<char>, std::__1::allocator<char>>::__min_cap"
    }
   ],
   "linker_set_key" : "_ZTINSt3__112basic_stringIcNS_11char_traitsIcEENS_9allocatorIcEEE10$__min_capE",
   "name" : "std::basic_string<char>::(anonymous enum at external/libcxx/include/string:751:5)",
   "referenced_type" : "_ZTINSt3__112basic_stringIcNS_11char_traitsIcEENS_9allocatorIcEEE10$__min_capE",
   "self_type" : "_ZTINSt3__112basic_stringIcNS_11char_traitsIcEENS_9allocatorIcEEE10$__min_capE",
   "size" : 4,
   "source_file" : "external/libcxx/include/string",
   "underlying_type" : "_ZTIj"
  },
  {
   "access" : "private",
   "alignment" : 4,
   "enum_fields" :
   [
    {
     "enum_field_value" : 3,
     "name" : "std::__1::basic_string<char, std::__1::char_traits<char>, std::__1::allocator<char>>::__n_words"
    }
   ],
   "linker_set_key" : "_ZTINSt3__112basic_stringIcNS_11char_traitsIcEENS_9allocatorIcEEE10$__n_wordsE",
   "name" : "std::basic_string<char>::(anonymous enum at external/libcxx/include/string:768:5)",
   "referenced_type" : "_ZTINSt3__112basic_stringIcNS_11char_traitsIcEENS_9allocatorIcEEE10$__n_wordsE",
   "self_type" : "_ZTINSt3__112basic_stringIcNS_11char_traitsIcEENS_9allocatorIcEEE10$__n_wordsE",
   "size" : 4,
   "source_file" : "external/libcxx/include/string",
   "underlying_type" : "_ZTIj"
  },
  {
   "access" : "private",
   "alignment" : 4,
   "enum_fields" :
   [
    {
     "enum_field_value" : 16,
     "name" : "std::__1::basic_string<char, std::__1::char_traits<char>, std::__1::allocator<char>>::__alignment"
    }
   ],
   "linker_set_key" : "_ZTINSt3__112basic_stringIcNS_11char_traitsIcEENS_9allocatorIcEEE12$__alignmentE",
   "name" : "std::basic_string<char>::(anonymous enum at external/libcxx/include/string:1535:5)",
   "referenced_type" : "_ZTINSt3__112basic_stringIcNS_11char_traitsIcEENS_9allocatorIcEEE12$__alignmentE",
   "self_type" : "_ZTINSt3__112basic_stringIcNS_11char_traitsIcEENS_9allocatorIcEEE12$__alignmentE",
   "size" : 4,
   "source_file" : "external/libcxx/include/string",
   "underlying_type" : "_ZTIj"
  },
  {
   "access" : "private",
   "alignment" : 4,
   "enum_fields" :
   [
    {
     "enum_field_value" : 5,
     "name" : "std::__1::basic_string<wchar_t, std::__1::char_traits<wchar_t>, std::__1::allocator<wchar_t>>::__min_cap"
    }
   ],
   "linker_set_key" : "_ZTINSt3__112basic_stringIwNS_11char_traitsIwEENS_9allocatorIwEEE10$__min_capE",
   "name" : "std::basic_string<wchar_t>::(anonymous enum at external/libcxx/include/string:751:5)",
   "referenced_type" : "_ZTINSt3__112basic_stringIwNS_11char_traitsIwEENS_9allocatorIwEEE10$__min_capE",
   "self_type" : "_ZTINSt3__112basic_stringIwNS_11char_traitsIwEENS_9allocatorIwEEE10$__min_capE",
   "size" : 4,
   "source_file" : "external/libcxx/include/string",
   "underlying_type" : "_ZTIj"
  },
  {
   "access" : "private",
   "alignment" : 4,
   "enum_fields" :
   [
    {
     "enum_field_value" : 3,
     "name" : "std::__1::basic_string<wchar_t, std::__1::char_traits<wchar_t>, std::__1::allocator<wchar_t>>::__n_words"
    }
   ],
   "linker_set_key" : "_ZTINSt3__112basic_stringIwNS_11char_traitsIwEENS_9allocatorIwEEE10$__n_wordsE",
   "name" : "std::basic_string<wchar_t>::(anonymous enum at external/libcxx/include/string:768:5)",
   "referenced_type" : "_ZTINSt3__112basic_stringIwNS_11char_traitsIwEENS_9allocatorIwEEE10$__n_wordsE",
   "self_type" : "_ZTINSt3__112basic_stringIwNS_11char_traitsIwEENS_9allocatorIwEEE10$__n_wordsE",
   "size" : 4,
   "source_file" : "external/libcxx/include/string",
   "underlying_type" : "_ZTIj"
  },
  {
   "access" : "private",
   "alignment" : 4,
   "enum_fields" :
   [
    {
     "enum_field_value" : 16,
     "name" : "std::__1::basic_string<wchar_t, std::__1::char_traits<wchar_t>, std::__1::allocator<wchar_t>>::__alignment"
    }
   ],
   "linker_set_key" : "_ZTINSt3__112basic_stringIwNS_11char_traitsIwEENS_9allocatorIwEEE12$__alignmentE",
   "name" : "std::basic_string<wchar_t>::(anonymous enum at external/libcxx/include/string:1535:5)",
   "referenced_type" : "_ZTINSt3__112basic_stringIwNS_11char_traitsIwEENS_9allocatorIwEEE12$__alignmentE",
   "self_type" : "_ZTINSt3__112basic_stringIwNS_11char_traitsIwEENS_9allocatorIwEEE12$__alignmentE",
   "size" : 4,
   "source_file" : "external/libcxx/include/string",
   "underlying_type" : "_ZTIj"
  },
  {
   "alignment" : 4,
   "enum_fields" :
   [
    {
     "enum_field_value" : 0,
     "name" : "std::__1::memory_order_relaxed"
    },
    {
     "enum_field_value" : 1,
     "name" : "std::__1::memory_order_consume"
    },
    {
     "enum_field_value" : 2,
     "name" : "std::__1::memory_order_acquire"
    },
    {
     "enum_field_value" : 3,
     "name" : "std::__1::memory_order_release"
    },
    {
     "enum_field_value" : 4,
     "name" : "std::__1::memory_order_acq_rel"
    },
    {
     "enum_field_value" : 5,
     "name" : "std::__1::memory_order_seq_cst"
    }
   ],
   "linker_set_key" : "_ZTINSt3__112memory_orderE",
   "name" : "std::memory_order",
   "referenced_type" : "_ZTINSt3__112memory_orderE",
   "self_type" : "_ZTINSt3__112memory_orderE",
   "size" : 4,
   "source_file" : "external/libcxx/include/atomic",
   "underlying_type" : "_ZTIj"
  },
  {
   "alignment" : 4,
   "enum_fields" :
   [
    {
     "enum_field_value" : 0,
     "name" : "std::__1::pointer_safety::relaxed"
    },
    {
     "enum_field_value" : 1,
     "name" : "std::__1::pointer_safety::preferred"
    },
    {
     "enum_field_value" : 2,
     "name" : "std::__1::pointer_safety::strict"
    }
   ],
   "linker_set_key" : "_ZTINSt3__114pointer_safety4__lxE",
   "name" : "std::pointer_safety::__lx",
   "referenced_type" : "_ZTINSt3__114pointer_safety4__lxE",
   "self_type" : "_ZTINSt3__114pointer_safety4__lxE",
   "size" : 4,
   "source_file" : "external/libcxx/include/memory",
   "underlying_type" : "_ZTIj"
  },
  {
   "alignment" : 4,
   "enum_fields" :
   [
    {
     "enum_field_value" : -1,
     "name" : "std::__1::round_indeterminate"
    },
    {
     "enum_field_value" : 0,
     "name" : "std::__1::round_toward_zero"
    },
    {
     "enum_field_value" : 1,
     "name" : "std::__1::round_to_nearest"
    },
    {
     "enum_field_value" : 2,
     "name" : "std::__1::round_toward_infinity"
    },
    {
     "enum_field_value" : 3,
     "name" : "std::__1::round_toward_neg_infinity"
    }
   ],
   "linker_set_key" : "_ZTINSt3__117float_round_styleE",
   "name" : "std::float_round_style",
   "referenced_type" : "_ZTINSt3__117float_round_styleE",
   "self_type" : "_ZTINSt3__117float_round_styleE",
   "size" : 4,
   "source_file" : "external/libcxx/include/limits",
   "underlying_type" : "_ZTIi"
  },
  {
   "alignment" : 4,
   "enum_fields" :
   [
    {
     "enum_field_value" : -1,
     "name" : "std::__1::denorm_indeterminate"
    },
    {
     "enum_field_value" : 0,
     "name" : "std::__1::denorm_absent"
    },
    {
     "enum_field_value" : 1,
     "name" : "std::__1::denorm_present"
    }
   ],
   "linker_set_key" : "_ZTINSt3__118float_denorm_styleE",
   "name" : "std::float_denorm_style",
   "referenced_type" : "_ZTINSt3__118float_denorm_styleE",
   "self_type" : "_ZTINSt3__118float_denorm_styleE",
   "size" : 4,
   "source_file" : "external/libcxx/include/limits",
   "underlying_type" : "_ZTIi"
  },
  {
   "alignment" : 8,
   "linker_set_key" : "_ZTISt11align_val_t",
   "name" : "std::align_val_t",
   "referenced_type" : "_ZTISt11align_val_t",
   "self_type" : "_ZTISt11align_val_t",
   "size" : 8,
   "source_file" : "external/libcxx/include/new",
   "underlying_type" : "_ZTIm"
  },
  {
   "alignment" : 1,
   "linker_set_key" : "_ZTISt4byte",
   "name" : "std::byte",
   "referenced_type" : "_ZTISt4byte",
   "self_type" : "_ZTISt4byte",
   "size" : 1,
   "source_file" : "external/libcxx/include/cstddef",
   "underlying_type" : "_ZTIh"
  }
 ],
 "function_types" :
 [
  {
   "alignment" : 4,
   "linker_set_key" : "_ZTIFPvPKN7android12renderscript7ContextEPKNS1_10AllocationEE",
   "name" : "void *(const android::renderscript::Context *, const android::renderscript::Allocation *)",
   "parameters" :
   [
    {
     "referenced_type" : "_ZTIPKN7android12renderscript7ContextE"
    },
    {
     "referenced_type" : "_ZTIPKN7android12renderscript10AllocationE"
    }
   ],
   "referenced_type" : "_ZTIFPvPKN7android12renderscript7ContextEPKNS1_10AllocationEE",
   "return_type" : "_ZTIPv",
   "self_type" : "_ZTIFPvPKN7android12renderscript7ContextEPKNS1_10AllocationEE",
   "source_file" : "frameworks/rs/rs_hal.h"
  },
  {
   "alignment" : 4,
   "linker_set_key" : "_ZTIFPvPKvE",
   "name" : "void *(const void *)",
   "parameters" :
   [
    {
     "referenced_type" : "_ZTIPKv"
    }
   ],
   "referenced_type" : "_ZTIFPvPKvE",
   "return_type" : "_ZTIPv",
   "self_type" : "_ZTIFPvPKvE",
   "source_file" : "external/libcxx/include/functional"
  },
  {
   "alignment" : 4,
   "linker_set_key" : "_ZTIFPvS_mPKvE",
   "name" : "void *(void *, unsigned long, const void *)",
   "parameters" :
   [
    {
     "referenced_type" : "_ZTIPv"
    },
    {
     "referenced_type" : "_ZTIm"
    },
    {
     "referenced_type" : "_ZTIPKv"
    }
   ],
   "referenced_type" : "_ZTIFPvS_mPKvE",
   "return_type" : "_ZTIPv",
   "self_type" : "_ZTIFPvS_mPKvE",
   "source_file" : "out/soong/.intermediates/bionic/libc/libc/android_vendor.32_arm64_armv8-a_shared/gen/include/malloc.h"
  },
  {
   "alignment" : 4,
   "linker_set_key" : "_ZTIFPvmPKvE",
   "name" : "void *(unsigned long, const void *)",
   "parameters" :
   [
    {
     "referenced_type" : "_ZTIm"
    },
    {
     "referenced_type" : "_ZTIPKv"
    }
   ],
   "referenced_type" : "_ZTIFPvmPKvE",
   "return_type" : "_ZTIPv",
   "self_type" : "_ZTIFPvmPKvE",
   "source_file" : "out/soong/.intermediates/bionic/libc/libc/android_vendor.32_arm64_armv8-a_shared/gen/include/malloc.h"
  },
  {
   "alignment" : 4,
   "linker_set_key" : "_ZTIFPvmjE",
   "name" : "void *(unsigned long, unsigned int)",
   "parameters" :
   [
    {
     "referenced_type" : "_ZTIm"
    },
    {
     "referenced_type" : "_ZTIj"
    }
   ],
   "referenced_type" : "_ZTIFPvmjE",
   "return_type" : "_ZTIPv",
   "self_type" : "_ZTIFPvmjE",
   "source_file" : "frameworks/rs/rs_hal.h"
  },
  {
   "alignment" : 4,
   "linker_set_key" : "_ZTIFPvmmPKvE",
   "name" : "void *(unsigned long, unsigned long, const void *)",
   "parameters" :
   [
    {
     "referenced_type" : "_ZTIm"
    },
    {
     "referenced_type" : "_ZTIm"
    },
    {
     "referenced_type" : "_ZTIPKv"
    }
   ],
   "referenced_type" : "_ZTIFPvmmPKvE",
   "return_type" : "_ZTIPv",
   "self_type" : "_ZTIFPvmmPKvE",
   "source_file" : "out/soong/.intermediates/bionic/libc/libc/android_vendor.32_arm64_armv8-a_shared/gen/include/malloc.h"
  },
  {
   "alignment" : 4,
   "linker_set_key" : "_ZTIFbPKN7android12renderscript7ContextEPKNS0_12ProgramStoreEE",
   "name" : "bool (const android::renderscript::Context *, const android::renderscript::ProgramStore *)",
   "parameters" :
   [
    {
     "referenced_type" : "_ZTIPKN7android12renderscript7ContextE"
    },
    {
     "referenced_type" : "_ZTIPKN7android12renderscript12ProgramStoreE"
    }
   ],
   "referenced_type" : "_ZTIFbPKN7android12renderscript7ContextEPKNS0_12ProgramStoreEE",
   "return_type" : "_ZTIb",
   "self_type" : "_ZTIFbPKN7android12renderscript7ContextEPKNS0_12ProgramStoreEE",
   "source_file" : "frameworks/rs/rs_hal.h"
  },
  {
   "alignment" : 4,
   "linker_set_key" : "_ZTIFbPKN7android12renderscript7ContextEPKNS0_13ProgramRasterEE",
   "name" : "bool (const android::renderscript::Context *, const android::renderscript::ProgramRaster *)",
   "parameters" :
   [
    {
     "referenced_type" : "_ZTIPKN7android12renderscript7ContextE"
    },
    {
     "referenced_type" : "_ZTIPKN7android12renderscript13ProgramRasterE"
    }
   ],
   "referenced_type" : "_ZTIFbPKN7android12renderscript7ContextEPKNS0_13ProgramRasterEE",
   "return_type" : "_ZTIb",
   "self_type" : "_ZTIFbPKN7android12renderscript7ContextEPKNS0_13ProgramRasterEE",
   "source_file" : "frameworks/rs/rs_hal.h"
  },
  {
   "alignment" : 4,
   "linker_set_key" : "_ZTIFbPKN7android12renderscript7ContextEPKNS0_13ProgramVertexEPKcmPS8_mPKmE",
   "name" : "bool (const android::renderscript::Context *, const android::renderscript::ProgramVertex *, const char *, unsigned long, const char **, unsigned long, const unsigned long *)",
   "parameters" :
   [
    {
     "referenced_type" : "_ZTIPKN7android12renderscript7ContextE"
    },
    {
     "referenced_type" : "_ZTIPKN7android12renderscript13ProgramVertexE"
    },
    {
     "referenced_type" : "_ZTIPKc"
    },
    {
     "referenced_type" : "_ZTIm"
    },
    {
     "referenced_type" : "_ZTIPPKc"
    },
    {
     "referenced_type" : "_ZTIm"
    },
    {
     "referenced_type" : "_ZTIPKm"
    }
   ],
   "referenced_type" : "_ZTIFbPKN7android12renderscript7ContextEPKNS0_13ProgramVertexEPKcmPS8_mPKmE",
   "return_type" : "_ZTIb",
   "self_type" : "_ZTIFbPKN7android12renderscript7ContextEPKNS0_13ProgramVertexEPKcmPS8_mPKmE",
   "source_file" : "frameworks/rs/rs_hal.h"
  },
  {
   "alignment" : 4,
   "linker_set_key" : "_ZTIFbPKN7android12renderscript7ContextEPKNS0_15ProgramFragmentEPKcmPS8_mPKmE",
   "name" : "bool (const android::renderscript::Context *, const android::renderscript::ProgramFragment *, const char *, unsigned long, const char **, unsigned long, const unsigned long *)",
   "parameters" :
   [
    {
     "referenced_type" : "_ZTIPKN7android12renderscript7ContextE"
    },
    {
     "referenced_type" : "_ZTIPKN7android12renderscript15ProgramFragmentE"
    },
    {
     "referenced_type" : "_ZTIPKc"
    },
    {
     "referenced_type" : "_ZTIm"
    },
    {
     "referenced_type" : "_ZTIPPKc"
    },
    {
     "referenced_type" : "_ZTIm"
    },
    {
     "referenced_type" : "_ZTIPKm"
    }
   ],
   "referenced_type" : "_ZTIFbPKN7android12renderscript7ContextEPKNS0_15ProgramFragmentEPKcmPS8_mPKmE",
   "return_type" : "_ZTIb",
   "self_type" : "_ZTIFbPKN7android12renderscript7ContextEPKNS0_15ProgramFragmentEPKcmPS8_mPKmE",
   "source_file" : "frameworks/rs/rs_hal.h"
  },
  {
   "alignment" : 4,
   "linker_set_key" : "_ZTIFbPKN7android12renderscript7ContextEPKNS0_4MeshEE",
   "name" : "bool (const android::renderscript::Context *, const android::renderscript::Mesh *)",
   "parameters" :
   [
    {
     "referenced_type" : "_ZTIPKN7android12renderscript7ContextE"
    },
    {
     "referenced_type" : "_ZTIPKN7android12renderscript4MeshE"
    }
   ],
   "referenced_type" : "_ZTIFbPKN7android12renderscript7ContextEPKNS0_4MeshEE",
   "return_type" : "_ZTIb",
   "self_type" : "_ZTIFbPKN7android12renderscript7ContextEPKNS0_4MeshEE",
   "source_file" : "frameworks/rs/rs_hal.h"
  },
  {
   "alignment" : 4,
   "linker_set_key" : "_ZTIFbPKN7android12renderscript7ContextEPKNS0_4TypeEE",
   "name" : "bool (const android::renderscript::Context *, const android::renderscript::Type *)",
   "parameters" :
   [
    {
     "referenced_type" : "_ZTIPKN7android12renderscript7ContextE"
    },
    {
     "referenced_type" : "_ZTIPKN7android12renderscript4TypeE"
    }
   ],
   "referenced_type" : "_ZTIFbPKN7android12renderscript7ContextEPKNS0_4TypeEE",
   "return_type" : "_ZTIb",
   "self_type" : "_ZTIFbPKN7android12renderscript7ContextEPKNS0_4TypeEE",
   "source_file" : "frameworks/rs/rs_hal.h"
  },
  {
   "alignment" : 4,
   "linker_set_key" : "_ZTIFbPKN7android12renderscript7ContextEPKNS0_7ElementEE",
   "name" : "bool (const android::renderscript::Context *, const android::renderscript::Element *)",
   "parameters" :
   [
    {
     "referenced_type" : "_ZTIPKN7android12renderscript7ContextE"
    },
    {
     "referenced_type" : "_ZTIPKN7android12renderscript7ElementE"
    }
   ],
   "referenced_type" : "_ZTIFbPKN7android12renderscript7ContextEPKNS0_7ElementEE",
   "return_type" : "_ZTIb",
   "self_type" : "_ZTIFbPKN7android12renderscript7ContextEPKNS0_7ElementEE",
   "source_file" : "frameworks/rs/rs_hal.h"
  },
  {
   "alignment" : 4,
   "linker_set_key" : "_ZTIFbPKN7android12renderscript7ContextEPKNS0_7SamplerEE",
   "name" : "bool (const android::renderscript::Context *, const android::renderscript::Sampler *)",
   "parameters" :
   [
    {
     "referenced_type" : "_ZTIPKN7android12renderscript7ContextE"
    },
    {
     "referenced_type" : "_ZTIPKN7android12renderscript7SamplerE"
    }
   ],
   "referenced_type" : "_ZTIFbPKN7android12renderscript7ContextEPKNS0_7SamplerEE",
   "return_type" : "_ZTIb",
   "self_type" : "_ZTIFbPKN7android12renderscript7ContextEPKNS0_7SamplerEE",
   "source_file" : "frameworks/rs/rs_hal.h"
  },
  {
   "alignment" : 4,
   "linker_set_key" : "_ZTIFbPKN7android12renderscript7ContextEPKNS0_8FBOCacheEE",
   "name" : "bool (const android::renderscript::Context *, const android::renderscript::FBOCache *)",
   "parameters" :
   [
    {
     "referenced_type" : "_ZTIPKN7android12renderscript7ContextE"
    },
    {
     "referenced_type" : "_ZTIPKN7android12renderscript8FBOCacheE"
    }
   ],
   "referenced_type" : "_ZTIFbPKN7android12renderscript7ContextEPKNS0_8FBOCacheEE",
   "return_type" : "_ZTIb",
   "self_type" : "_ZTIFbPKN7android12renderscript7ContextEPKNS0_8FBOCacheEE",
   "source_file" : "frameworks/rs/rs_hal.h"
  },
  {
   "alignment" : 4,
   "linker_set_key" : "_ZTIFbPKN7android12renderscript7ContextEPNS0_10AllocationEE",
   "name" : "bool (const android::renderscript::Context *, android::renderscript::Allocation *)",
   "parameters" :
   [
    {
     "referenced_type" : "_ZTIPKN7android12renderscript7ContextE"
    },
    {
     "referenced_type" : "_ZTIPN7android12renderscript10AllocationE"
    }
   ],
   "referenced_type" : "_ZTIFbPKN7android12renderscript7ContextEPNS0_10AllocationEE",
   "return_type" : "_ZTIb",
   "self_type" : "_ZTIFbPKN7android12renderscript7ContextEPNS0_10AllocationEE",
   "source_file" : "frameworks/rs/rs_hal.h"
  },
  {
   "alignment" : 4,
   "linker_set_key" : "_ZTIFbPKN7android12renderscript7ContextEPNS0_10AllocationEbE",
   "name" : "bool (const android::renderscript::Context *, android::renderscript::Allocation *, bool)",
   "parameters" :
   [
    {
     "referenced_type" : "_ZTIPKN7android12renderscript7ContextE"
    },
    {
     "referenced_type" : "_ZTIPN7android12renderscript10AllocationE"
    },
    {
     "referenced_type" : "_ZTIb"
    }
   ],
   "referenced_type" : "_ZTIFbPKN7android12renderscript7ContextEPNS0_10AllocationEbE",
   "return_type" : "_ZTIb",
   "self_type" : "_ZTIFbPKN7android12renderscript7ContextEPNS0_10AllocationEbE",
   "source_file" : "frameworks/rs/rs_hal.h"
  },
  {
   "alignment" : 4,
   "linker_set_key" : "_ZTIFbPKN7android12renderscript7ContextEPNS0_10AllocationEbPvE",
   "name" : "bool (const android::renderscript::Context *, android::renderscript::Allocation *, bool, void *)",
   "parameters" :
   [
    {
     "referenced_type" : "_ZTIPKN7android12renderscript7ContextE"
    },
    {
     "referenced_type" : "_ZTIPN7android12renderscript10AllocationE"
    },
    {
     "referenced_type" : "_ZTIb"
    },
    {
     "referenced_type" : "_ZTIPv"
    }
   ],
   "referenced_type" : "_ZTIFbPKN7android12renderscript7ContextEPNS0_10AllocationEbPvE",
   "return_type" : "_ZTIb",
   "self_type" : "_ZTIFbPKN7android12renderscript7ContextEPNS0_10AllocationEbPvE",
   "source_file" : "frameworks/rs/rs_hal.h"
  },
  {
   "alignment" : 4,
   "linker_set_key" : "_ZTIFbPKN7android12renderscript7ContextEPNS0_15ScriptGroupBaseEE",
   "name" : "bool (const android::renderscript::Context *, android::renderscript::ScriptGroupBase *)",
   "parameters" :
   [
    {
     "referenced_type" : "_ZTIPKN7android12renderscript7ContextE"
    },
    {
     "referenced_type" : "_ZTIPN7android12renderscript15ScriptGroupBaseE"
    }
   ],
   "referenced_type" : "_ZTIFbPKN7android12renderscript7ContextEPNS0_15ScriptGroupBaseEE",
   "return_type" : "_ZTIb",
   "self_type" : "_ZTIFbPKN7android12renderscript7ContextEPNS0_15ScriptGroupBaseEE",
   "source_file" : "frameworks/rs/rs_hal.h"
  },
  {
   "alignment" : 4,
   "linker_set_key" : "_ZTIFbPKN7android12renderscript7ContextEPNS0_6ScriptE19RsScriptIntrinsicIDPNS0_7ElementEE",
   "name" : "bool (const android::renderscript::Context *, android::renderscript::Script *, RsScriptIntrinsicID, android::renderscript::Element *)",
   "parameters" :
   [
    {
     "referenced_type" : "_ZTIPKN7android12renderscript7ContextE"
    },
    {
     "referenced_type" : "_ZTIPN7android12renderscript6ScriptE"
    },
    {
     "referenced_type" : "_ZTI19RsScriptIntrinsicID"
    },
    {
     "referenced_type" : "_ZTIPN7android12renderscript7ElementE"
    }
   ],
   "referenced_type" : "_ZTIFbPKN7android12renderscript7ContextEPNS0_6ScriptE19RsScriptIntrinsicIDPNS0_7ElementEE",
   "return_type" : "_ZTIb",
   "self_type" : "_ZTIFbPKN7android12renderscript7ContextEPNS0_6ScriptE19RsScriptIntrinsicIDPNS0_7ElementEE",
   "source_file" : "frameworks/rs/rs_hal.h"
  },
  {
   "alignment" : 4,
   "linker_set_key" : "_ZTIFbPKN7android12renderscript7ContextEPNS0_7ScriptCEPKcS7_PKhmjE",
   "name" : "bool (const android::renderscript::Context *, android::renderscript::ScriptC *, const char *, const char *, const unsigned char *, unsigned long, unsigned int)",
   "parameters" :
   [
    {
     "referenced_type" : "_ZTIPKN7android12renderscript7ContextE"
    },
    {
     "referenced_type" : "_ZTIPN7android12renderscript7ScriptCE"
    },
    {
     "referenced_type" : "_ZTIPKc"
    },
    {
     "referenced_type" : "_ZTIPKc"
    },
    {
     "referenced_type" : "_ZTIPKh"
    },
    {
     "referenced_type" : "_ZTIm"
    },
    {
     "referenced_type" : "_ZTIj"
    }
   ],
   "referenced_type" : "_ZTIFbPKN7android12renderscript7ContextEPNS0_7ScriptCEPKcS7_PKhmjE",
   "return_type" : "_ZTIb",
   "self_type" : "_ZTIFbPKN7android12renderscript7ContextEPNS0_7ScriptCEPKcS7_PKhmjE",
   "source_file" : "frameworks/rs/rs_hal.h"
  },
  {
   "alignment" : 4,
   "linker_set_key" : "_ZTIFbPKN7android12renderscript7ContextEjjPvE",
   "name" : "bool (const android::renderscript::Context *, unsigned int, unsigned int, void *)",
   "parameters" :
   [
    {
     "referenced_type" : "_ZTIPKN7android12renderscript7ContextE"
    },
    {
     "referenced_type" : "_ZTIj"
    },
    {
     "referenced_type" : "_ZTIj"
    },
    {
     "referenced_type" : "_ZTIPv"
    }
   ],
   "referenced_type" : "_ZTIFbPKN7android12renderscript7ContextEjjPvE",
   "return_type" : "_ZTIb",
   "self_type" : "_ZTIFbPKN7android12renderscript7ContextEjjPvE",
   "source_file" : "frameworks/rs/rs_hal.h"
  },
  {
   "alignment" : 4,
   "linker_set_key" : "_ZTIFiPKN7android12renderscript7ContextEE",
   "name" : "int (const android::renderscript::Context *)",
   "parameters" :
   [
    {
     "referenced_type" : "_ZTIPKN7android12renderscript7ContextE"
    }
   ],
   "referenced_type" : "_ZTIFiPKN7android12renderscript7ContextEE",
   "return_type" : "_ZTIi",
   "self_type" : "_ZTIFiPKN7android12renderscript7ContextEE",
   "source_file" : "frameworks/rs/rs_hal.h"
  },
  {
   "alignment" : 4,
   "linker_set_key" : "_ZTIFiPKN7android12renderscript7ContextEPNS0_6ScriptEE",
   "name" : "int (const android::renderscript::Context *, android::renderscript::Script *)",
   "parameters" :
   [
    {
     "referenced_type" : "_ZTIPKN7android12renderscript7ContextE"
    },
    {
     "referenced_type" : "_ZTIPN7android12renderscript6ScriptE"
    }
   ],
   "referenced_type" : "_ZTIFiPKN7android12renderscript7ContextEPNS0_6ScriptEE",
   "return_type" : "_ZTIi",
   "self_type" : "_ZTIFiPKN7android12renderscript7ContextEPNS0_6ScriptEE",
   "source_file" : "frameworks/rs/rs_hal.h"
  },
  {
   "alignment" : 4,
   "linker_set_key" : "_ZTIFivE",
   "name" : "int ()",
   "referenced_type" : "_ZTIFivE",
   "return_type" : "_ZTIi",
   "self_type" : "_ZTIFivE",
   "source_file" : "frameworks/rs/rsScript.h"
  },
  {
   "alignment" : 4,
   "linker_set_key" : "_ZTIFjPKN7android12renderscript7ContextEPNS0_10AllocationEE",
   "name" : "unsigned int (const android::renderscript::Context *, android::renderscript::Allocation *)",
   "parameters" :
   [
    {
     "referenced_type" : "_ZTIPKN7android12renderscript7ContextE"
    },
    {
     "referenced_type" : "_ZTIPN7android12renderscript10AllocationE"
    }
   ],
   "referenced_type" : "_ZTIFjPKN7android12renderscript7ContextEPNS0_10AllocationEE",
   "return_type" : "_ZTIj",
   "self_type" : "_ZTIFjPKN7android12renderscript7ContextEPNS0_10AllocationEE",
   "source_file" : "frameworks/rs/rs_hal.h"
  },
  {
   "alignment" : 4,
   "linker_set_key" : "_ZTIFv6sigvalE",
   "name" : "void (sigval)",
   "parameters" :
   [
    {
     "referenced_type" : "_ZTI6sigval"
    }
   ],
   "referenced_type" : "_ZTIFv6sigvalE",
   "return_type" : "_ZTIv",
   "self_type" : "_ZTIFv6sigvalE",
   "source_file" : "bionic/libc/kernel/uapi/asm-generic/siginfo.h"
  },
  {
   "alignment" : 4,
   "linker_set_key" : "_ZTIFvPKN7android12renderscript7ContextEE",
   "name" : "void (const android::renderscript::Context *)",
   "parameters" :
   [
    {
     "referenced_type" : "_ZTIPKN7android12renderscript7ContextE"
    }
   ],
   "referenced_type" : "_ZTIFvPKN7android12renderscript7ContextEE",
   "return_type" : "_ZTIv",
   "self_type" : "_ZTIFvPKN7android12renderscript7ContextEE",
   "source_file" : "frameworks/rs/rs_hal.h"
  },
  {
   "alignment" : 4,
   "linker_set_key" : "_ZTIFvPKN7android12renderscript7ContextEPKNS0_10AllocationE21RsAllocationUsageTypeE",
   "name" : "void (const android::renderscript::Context *, const android::renderscript::Allocation *, RsAllocationUsageType)",
   "parameters" :
   [
    {
     "referenced_type" : "_ZTIPKN7android12renderscript7ContextE"
    },
    {
     "referenced_type" : "_ZTIPKN7android12renderscript10AllocationE"
    },
    {
     "referenced_type" : "_ZTI21RsAllocationUsageType"
    }
   ],
   "referenced_type" : "_ZTIFvPKN7android12renderscript7ContextEPKNS0_10AllocationE21RsAllocationUsageTypeE",
   "return_type" : "_ZTIv",
   "self_type" : "_ZTIFvPKN7android12renderscript7ContextEPKNS0_10AllocationE21RsAllocationUsageTypeE",
   "source_file" : "frameworks/rs/rs_hal.h"
  },
  {
   "alignment" : 4,
   "linker_set_key" : "_ZTIFvPKN7android12renderscript7ContextEPKNS0_10AllocationEE",
   "name" : "void (const android::renderscript::Context *, const android::renderscript::Allocation *)",
   "parameters" :
   [
    {
     "referenced_type" : "_ZTIPKN7android12renderscript7ContextE"
    },
    {
     "referenced_type" : "_ZTIPKN7android12renderscript10AllocationE"
    }
   ],
   "referenced_type" : "_ZTIFvPKN7android12renderscript7ContextEPKNS0_10AllocationEE",
   "return_type" : "_ZTIv",
   "self_type" : "_ZTIFvPKN7android12renderscript7ContextEPKNS0_10AllocationEE",
   "source_file" : "frameworks/rs/rs_hal.h"
  },
  {
   "alignment" : 4,
   "linker_set_key" : "_ZTIFvPKN7android12renderscript7ContextEPKNS0_10AllocationEPKNS0_4TypeEbE",
   "name" : "void (const android::renderscript::Context *, const android::renderscript::Allocation *, const android::renderscript::Type *, bool)",
   "parameters" :
   [
    {
     "referenced_type" : "_ZTIPKN7android12renderscript7ContextE"
    },
    {
     "referenced_type" : "_ZTIPKN7android12renderscript10AllocationE"
    },
    {
     "referenced_type" : "_ZTIPKN7android12renderscript4TypeE"
    },
    {
     "referenced_type" : "_ZTIb"
    }
   ],
   "referenced_type" : "_ZTIFvPKN7android12renderscript7ContextEPKNS0_10AllocationEPKNS0_4TypeEbE",
   "return_type" : "_ZTIv",
   "self_type" : "_ZTIFvPKN7android12renderscript7ContextEPKNS0_10AllocationEPKNS0_4TypeEbE",
   "source_file" : "frameworks/rs/rs_hal.h"
  },
  {
   "alignment" : 4,
   "linker_set_key" : "_ZTIFvPKN7android12renderscript7ContextEPKNS0_10AllocationEPNS0_13rs_allocationEE",
   "name" : "void (const android::renderscript::Context *, const android::renderscript::Allocation *, android::renderscript::rs_allocation *)",
   "parameters" :
   [
    {
     "referenced_type" : "_ZTIPKN7android12renderscript7ContextE"
    },
    {
     "referenced_type" : "_ZTIPKN7android12renderscript10AllocationE"
    },
    {
     "referenced_type" : "_ZTIPN7android12renderscript13rs_allocationE"
    }
   ],
   "referenced_type" : "_ZTIFvPKN7android12renderscript7ContextEPKNS0_10AllocationEPNS0_13rs_allocationEE",
   "return_type" : "_ZTIv",
   "self_type" : "_ZTIFvPKN7android12renderscript7ContextEPKNS0_10AllocationEPNS0_13rs_allocationEE",
   "source_file" : "frameworks/rs/rs_hal.h"
  },
  {
   "alignment" : 4,
   "linker_set_key" : "_ZTIFvPKN7android12renderscript7ContextEPKNS0_10AllocationEj23RsAllocationCubemapFacejjE",
   "name" : "void (const android::renderscript::Context *, const android::renderscript::Allocation *, unsigned int, RsAllocationCubemapFace, unsigned int, unsigned int)",
   "parameters" :
   [
    {
     "referenced_type" : "_ZTIPKN7android12renderscript7ContextE"
    },
    {
     "referenced_type" : "_ZTIPKN7android12renderscript10AllocationE"
    },
    {
     "referenced_type" : "_ZTIj"
    },
    {
     "referenced_type" : "_ZTI23RsAllocationCubemapFace"
    },
    {
     "referenced_type" : "_ZTIj"
    },
    {
     "referenced_type" : "_ZTIj"
    }
   ],
   "referenced_type" : "_ZTIFvPKN7android12renderscript7ContextEPKNS0_10AllocationEj23RsAllocationCubemapFacejjE",
   "return_type" : "_ZTIv",
   "self_type" : "_ZTIFvPKN7android12renderscript7ContextEPKNS0_10AllocationEj23RsAllocationCubemapFacejjE",
   "source_file" : "frameworks/rs/rs_hal.h"
  },
  {
   "alignment" : 4,
   "linker_set_key" : "_ZTIFvPKN7android12renderscript7ContextEPKNS0_10AllocationEjjj23RsAllocationCubemapFacejjPKvmmE",
   "name" : "void (const android::renderscript::Context *, const android::renderscript::Allocation *, unsigned int, unsigned int, unsigned int, RsAllocationCubemapFace, unsigned int, unsigned int, const void *, unsigned long, unsigned long)",
   "parameters" :
   [
    {
     "referenced_type" : "_ZTIPKN7android12renderscript7ContextE"
    },
    {
     "referenced_type" : "_ZTIPKN7android12renderscript10AllocationE"
    },
    {
     "referenced_type" : "_ZTIj"
    },
    {
     "referenced_type" : "_ZTIj"
    },
    {
     "referenced_type" : "_ZTIj"
    },
    {
     "referenced_type" : "_ZTI23RsAllocationCubemapFace"
    },
    {
     "referenced_type" : "_ZTIj"
    },
    {
     "referenced_type" : "_ZTIj"
    },
    {
     "referenced_type" : "_ZTIPKv"
    },
    {
     "referenced_type" : "_ZTIm"
    },
    {
     "referenced_type" : "_ZTIm"
    }
   ],
   "referenced_type" : "_ZTIFvPKN7android12renderscript7ContextEPKNS0_10AllocationEjjj23RsAllocationCubemapFacejjPKvmmE",
   "return_type" : "_ZTIv",
   "self_type" : "_ZTIFvPKN7android12renderscript7ContextEPKNS0_10AllocationEjjj23RsAllocationCubemapFacejjPKvmmE",
   "source_file" : "frameworks/rs/rs_hal.h"
  },
  {
   "alignment" : 4,
   "linker_set_key" : "_ZTIFvPKN7android12renderscript7ContextEPKNS0_10AllocationEjjj23RsAllocationCubemapFacejjPvmmE",
   "name" : "void (const android::renderscript::Context *, const android::renderscript::Allocation *, unsigned int, unsigned int, unsigned int, RsAllocationCubemapFace, unsigned int, unsigned int, void *, unsigned long, unsigned long)",
   "parameters" :
   [
    {
     "referenced_type" : "_ZTIPKN7android12renderscript7ContextE"
    },
    {
     "referenced_type" : "_ZTIPKN7android12renderscript10AllocationE"
    },
    {
     "referenced_type" : "_ZTIj"
    },
    {
     "referenced_type" : "_ZTIj"
    },
    {
     "referenced_type" : "_ZTIj"
    },
    {
     "referenced_type" : "_ZTI23RsAllocationCubemapFace"
    },
    {
     "referenced_type" : "_ZTIj"
    },
    {
     "referenced_type" : "_ZTIj"
    },
    {
     "referenced_type" : "_ZTIPv"
    },
    {
     "referenced_type" : "_ZTIm"
    },
    {
     "referenced_type" : "_ZTIm"
    }
   ],
   "referenced_type" : "_ZTIFvPKN7android12renderscript7ContextEPKNS0_10AllocationEjjj23RsAllocationCubemapFacejjPvmmE",
   "return_type" : "_ZTIv",
   "self_type" : "_ZTIFvPKN7android12renderscript7ContextEPKNS0_10AllocationEjjj23RsAllocationCubemapFacejjPvmmE",
   "source_file" : "frameworks/rs/rs_hal.h"
  },
  {
   "alignment" : 4,
   "linker_set_key" : "_ZTIFvPKN7android12renderscript7ContextEPKNS0_10AllocationEjjj23RsAllocationCubemapFacejjS6_jjjS7_E",
   "name" : "void (const android::renderscript::Context *, const android::renderscript::Allocation *, unsigned int, unsigned int, unsigned int, RsAllocationCubemapFace, unsigned int, unsigned int, const android::renderscript::Allocation *, unsigned int, unsigned int, unsigned int, RsAllocationCubemapFace)",
   "parameters" :
   [
    {
     "referenced_type" : "_ZTIPKN7android12renderscript7ContextE"
    },
    {
     "referenced_type" : "_ZTIPKN7android12renderscript10AllocationE"
    },
    {
     "referenced_type" : "_ZTIj"
    },
    {
     "referenced_type" : "_ZTIj"
    },
    {
     "referenced_type" : "_ZTIj"
    },
    {
     "referenced_type" : "_ZTI23RsAllocationCubemapFace"
    },
    {
     "referenced_type" : "_ZTIj"
    },
    {
     "referenced_type" : "_ZTIj"
    },
    {
     "referenced_type" : "_ZTIPKN7android12renderscript10AllocationE"
    },
    {
     "referenced_type" : "_ZTIj"
    },
    {
     "referenced_type" : "_ZTIj"
    },
    {
     "referenced_type" : "_ZTIj"
    },
    {
     "referenced_type" : "_ZTI23RsAllocationCubemapFace"
    }
   ],
   "referenced_type" : "_ZTIFvPKN7android12renderscript7ContextEPKNS0_10AllocationEjjj23RsAllocationCubemapFacejjS6_jjjS7_E",
   "return_type" : "_ZTIv",
   "self_type" : "_ZTIFvPKN7android12renderscript7ContextEPKNS0_10AllocationEjjj23RsAllocationCubemapFacejjS6_jjjS7_E",
   "source_file" : "frameworks/rs/rs_hal.h"
  },
  {
   "alignment" : 4,
   "linker_set_key" : "_ZTIFvPKN7android12renderscript7ContextEPKNS0_10AllocationEjjjPKvjmE",
   "name" : "void (const android::renderscript::Context *, const android::renderscript::Allocation *, unsigned int, unsigned int, unsigned int, const void *, unsigned int, unsigned long)",
   "parameters" :
   [
    {
     "referenced_type" : "_ZTIPKN7android12renderscript7ContextE"
    },
    {
     "referenced_type" : "_ZTIPKN7android12renderscript10AllocationE"
    },
    {
     "referenced_type" : "_ZTIj"
    },
    {
     "referenced_type" : "_ZTIj"
    },
    {
     "referenced_type" : "_ZTIj"
    },
    {
     "referenced_type" : "_ZTIPKv"
    },
    {
     "referenced_type" : "_ZTIj"
    },
    {
     "referenced_type" : "_ZTIm"
    }
   ],
   "referenced_type" : "_ZTIFvPKN7android12renderscript7ContextEPKNS0_10AllocationEjjjPKvjmE",
   "return_type" : "_ZTIv",
   "self_type" : "_ZTIFvPKN7android12renderscript7ContextEPKNS0_10AllocationEjjjPKvjmE",
   "source_file" : "frameworks/rs/rs_hal.h"
  },
  {
   "alignment" : 4,
   "linker_set_key" : "_ZTIFvPKN7android12renderscript7ContextEPKNS0_10AllocationEjjjPvjmE",
   "name" : "void (const android::renderscript::Context *, const android::renderscript::Allocation *, unsigned int, unsigned int, unsigned int, void *, unsigned int, unsigned long)",
   "parameters" :
   [
    {
     "referenced_type" : "_ZTIPKN7android12renderscript7ContextE"
    },
    {
     "referenced_type" : "_ZTIPKN7android12renderscript10AllocationE"
    },
    {
     "referenced_type" : "_ZTIj"
    },
    {
     "referenced_type" : "_ZTIj"
    },
    {
     "referenced_type" : "_ZTIj"
    },
    {
     "referenced_type" : "_ZTIPv"
    },
    {
     "referenced_type" : "_ZTIj"
    },
    {
     "referenced_type" : "_ZTIm"
    }
   ],
   "referenced_type" : "_ZTIFvPKN7android12renderscript7ContextEPKNS0_10AllocationEjjjPvjmE",
   "return_type" : "_ZTIv",
   "self_type" : "_ZTIFvPKN7android12renderscript7ContextEPKNS0_10AllocationEjjjPvjmE",
   "source_file" : "frameworks/rs/rs_hal.h"
  },
  {
   "alignment" : 4,
   "linker_set_key" : "_ZTIFvPKN7android12renderscript7ContextEPKNS0_10AllocationEjjjjjjjPKvmmE",
   "name" : "void (const android::renderscript::Context *, const android::renderscript::Allocation *, unsigned int, unsigned int, unsigned int, unsigned int, unsigned int, unsigned int, unsigned int, const void *, unsigned long, unsigned long)",
   "parameters" :
   [
    {
     "referenced_type" : "_ZTIPKN7android12renderscript7ContextE"
    },
    {
     "referenced_type" : "_ZTIPKN7android12renderscript10AllocationE"
    },
    {
     "referenced_type" : "_ZTIj"
    },
    {
     "referenced_type" : "_ZTIj"
    },
    {
     "referenced_type" : "_ZTIj"
    },
    {
     "referenced_type" : "_ZTIj"
    },
    {
     "referenced_type" : "_ZTIj"
    },
    {
     "referenced_type" : "_ZTIj"
    },
    {
     "referenced_type" : "_ZTIj"
    },
    {
     "referenced_type" : "_ZTIPKv"
    },
    {
     "referenced_type" : "_ZTIm"
    },
    {
     "referenced_type" : "_ZTIm"
    }
   ],
   "referenced_type" : "_ZTIFvPKN7android12renderscript7ContextEPKNS0_10AllocationEjjjjjjjPKvmmE",
   "return_type" : "_ZTIv",
   "self_type" : "_ZTIFvPKN7android12renderscript7ContextEPKNS0_10AllocationEjjjjjjjPKvmmE",
   "source_file" : "frameworks/rs/rs_hal.h"
  },
  {
   "alignment" : 4,
   "linker_set_key" : "_ZTIFvPKN7android12renderscript7ContextEPKNS0_10AllocationEjjjjjjjPvmmE",
   "name" : "void (const android::renderscript::Context *, const android::renderscript::Allocation *, unsigned int, unsigned int, unsigned int, unsigned int, unsigned int, unsigned int, unsigned int, void *, unsigned long, unsigned long)",
   "parameters" :
   [
    {
     "referenced_type" : "_ZTIPKN7android12renderscript7ContextE"
    },
    {
     "referenced_type" : "_ZTIPKN7android12renderscript10AllocationE"
    },
    {
     "referenced_type" : "_ZTIj"
    },
    {
     "referenced_type" : "_ZTIj"
    },
    {
     "referenced_type" : "_ZTIj"
    },
    {
     "referenced_type" : "_ZTIj"
    },
    {
     "referenced_type" : "_ZTIj"
    },
    {
     "referenced_type" : "_ZTIj"
    },
    {
     "referenced_type" : "_ZTIj"
    },
    {
     "referenced_type" : "_ZTIPv"
    },
    {
     "referenced_type" : "_ZTIm"
    },
    {
     "referenced_type" : "_ZTIm"
    }
   ],
   "referenced_type" : "_ZTIFvPKN7android12renderscript7ContextEPKNS0_10AllocationEjjjjjjjPvmmE",
   "return_type" : "_ZTIv",
   "self_type" : "_ZTIFvPKN7android12renderscript7ContextEPKNS0_10AllocationEjjjjjjjPvmmE",
   "source_file" : "frameworks/rs/rs_hal.h"
  },
  {
   "alignment" : 4,
   "linker_set_key" : "_ZTIFvPKN7android12renderscript7ContextEPKNS0_10AllocationEjjjjjjjS6_jjjjE",
   "name" : "void (const android::renderscript::Context *, const android::renderscript::Allocation *, unsigned int, unsigned int, unsigned int, unsigned int, unsigned int, unsigned int, unsigned int, const android::renderscript::Allocation *, unsigned int, unsigned int, unsigned int, unsigned int)",
   "parameters" :
   [
    {
     "referenced_type" : "_ZTIPKN7android12renderscript7ContextE"
    },
    {
     "referenced_type" : "_ZTIPKN7android12renderscript10AllocationE"
    },
    {
     "referenced_type" : "_ZTIj"
    },
    {
     "referenced_type" : "_ZTIj"
    },
    {
     "referenced_type" : "_ZTIj"
    },
    {
     "referenced_type" : "_ZTIj"
    },
    {
     "referenced_type" : "_ZTIj"
    },
    {
     "referenced_type" : "_ZTIj"
    },
    {
     "referenced_type" : "_ZTIj"
    },
    {
     "referenced_type" : "_ZTIPKN7android12renderscript10AllocationE"
    },
    {
     "referenced_type" : "_ZTIj"
    },
    {
     "referenced_type" : "_ZTIj"
    },
    {
     "referenced_type" : "_ZTIj"
    },
    {
     "referenced_type" : "_ZTIj"
    }
   ],
   "referenced_type" : "_ZTIFvPKN7android12renderscript7ContextEPKNS0_10AllocationEjjjjjjjS6_jjjjE",
   "return_type" : "_ZTIv",
   "self_type" : "_ZTIFvPKN7android12renderscript7ContextEPKNS0_10AllocationEjjjjjjjS6_jjjjE",
   "source_file" : "frameworks/rs/rs_hal.h"
  },
  {
   "alignment" : 4,
   "linker_set_key" : "_ZTIFvPKN7android12renderscript7ContextEPKNS0_10AllocationEjjmPKvmE",
   "name" : "void (const android::renderscript::Context *, const android::renderscript::Allocation *, unsigned int, unsigned int, unsigned long, const void *, unsigned long)",
   "parameters" :
   [
    {
     "referenced_type" : "_ZTIPKN7android12renderscript7ContextE"
    },
    {
     "referenced_type" : "_ZTIPKN7android12renderscript10AllocationE"
    },
    {
     "referenced_type" : "_ZTIj"
    },
    {
     "referenced_type" : "_ZTIj"
    },
    {
     "referenced_type" : "_ZTIm"
    },
    {
     "referenced_type" : "_ZTIPKv"
    },
    {
     "referenced_type" : "_ZTIm"
    }
   ],
   "referenced_type" : "_ZTIFvPKN7android12renderscript7ContextEPKNS0_10AllocationEjjmPKvmE",
   "return_type" : "_ZTIv",
   "self_type" : "_ZTIFvPKN7android12renderscript7ContextEPKNS0_10AllocationEjjmPKvmE",
   "source_file" : "frameworks/rs/rs_hal.h"
  },
  {
   "alignment" : 4,
   "linker_set_key" : "_ZTIFvPKN7android12renderscript7ContextEPKNS0_10AllocationEjjmPvmE",
   "name" : "void (const android::renderscript::Context *, const android::renderscript::Allocation *, unsigned int, unsigned int, unsigned long, void *, unsigned long)",
   "parameters" :
   [
    {
     "referenced_type" : "_ZTIPKN7android12renderscript7ContextE"
    },
    {
     "referenced_type" : "_ZTIPKN7android12renderscript10AllocationE"
    },
    {
     "referenced_type" : "_ZTIj"
    },
    {
     "referenced_type" : "_ZTIj"
    },
    {
     "referenced_type" : "_ZTIm"
    },
    {
     "referenced_type" : "_ZTIPv"
    },
    {
     "referenced_type" : "_ZTIm"
    }
   ],
   "referenced_type" : "_ZTIFvPKN7android12renderscript7ContextEPKNS0_10AllocationEjjmPvmE",
   "return_type" : "_ZTIv",
   "self_type" : "_ZTIFvPKN7android12renderscript7ContextEPKNS0_10AllocationEjjmPvmE",
   "source_file" : "frameworks/rs/rs_hal.h"
  },
  {
   "alignment" : 4,
   "linker_set_key" : "_ZTIFvPKN7android12renderscript7ContextEPKNS0_10AllocationEjjmS6_jjE",
   "name" : "void (const android::renderscript::Context *, const android::renderscript::Allocation *, unsigned int, unsigned int, unsigned long, const android::renderscript::Allocation *, unsigned int, unsigned int)",
   "parameters" :
   [
    {
     "referenced_type" : "_ZTIPKN7android12renderscript7ContextE"
    },
    {
     "referenced_type" : "_ZTIPKN7android12renderscript10AllocationE"
    },
    {
     "referenced_type" : "_ZTIj"
    },
    {
     "referenced_type" : "_ZTIj"
    },
    {
     "referenced_type" : "_ZTIm"
    },
    {
     "referenced_type" : "_ZTIPKN7android12renderscript10AllocationE"
    },
    {
     "referenced_type" : "_ZTIj"
    },
    {
     "referenced_type" : "_ZTIj"
    }
   ],
   "referenced_type" : "_ZTIFvPKN7android12renderscript7ContextEPKNS0_10AllocationEjjmS6_jjE",
   "return_type" : "_ZTIv",
   "self_type" : "_ZTIFvPKN7android12renderscript7ContextEPKNS0_10AllocationEjjmS6_jjE",
   "source_file" : "frameworks/rs/rs_hal.h"
  },
  {
   "alignment" : 4,
   "linker_set_key" : "_ZTIFvPKN7android12renderscript7ContextEPKNS0_11ScriptGroupEPKNS0_14ScriptKernelIDEPNS0_10AllocationEE",
   "name" : "void (const android::renderscript::Context *, const android::renderscript::ScriptGroup *, const android::renderscript::ScriptKernelID *, android::renderscript::Allocation *)",
   "parameters" :
   [
    {
     "referenced_type" : "_ZTIPKN7android12renderscript7ContextE"
    },
    {
     "referenced_type" : "_ZTIPKN7android12renderscript11ScriptGroupE"
    },
    {
     "referenced_type" : "_ZTIPKN7android12renderscript14ScriptKernelIDE"
    },
    {
     "referenced_type" : "_ZTIPN7android12renderscript10AllocationE"
    }
   ],
   "referenced_type" : "_ZTIFvPKN7android12renderscript7ContextEPKNS0_11ScriptGroupEPKNS0_14ScriptKernelIDEPNS0_10AllocationEE",
   "return_type" : "_ZTIv",
   "self_type" : "_ZTIFvPKN7android12renderscript7ContextEPKNS0_11ScriptGroupEPKNS0_14ScriptKernelIDEPNS0_10AllocationEE",
   "source_file" : "frameworks/rs/rs_hal.h"
  },
  {
   "alignment" : 4,
   "linker_set_key" : "_ZTIFvPKN7android12renderscript7ContextEPKNS0_11ScriptGroupEPNS0_15rs_script_groupEE",
   "name" : "void (const android::renderscript::Context *, const android::renderscript::ScriptGroup *, android::renderscript::rs_script_group *)",
   "parameters" :
   [
    {
     "referenced_type" : "_ZTIPKN7android12renderscript7ContextE"
    },
    {
     "referenced_type" : "_ZTIPKN7android12renderscript11ScriptGroupE"
    },
    {
     "referenced_type" : "_ZTIPN7android12renderscript15rs_script_groupE"
    }
   ],
   "referenced_type" : "_ZTIFvPKN7android12renderscript7ContextEPKNS0_11ScriptGroupEPNS0_15rs_script_groupEE",
   "return_type" : "_ZTIv",
   "self_type" : "_ZTIFvPKN7android12renderscript7ContextEPKNS0_11ScriptGroupEPNS0_15rs_script_groupEE",
   "source_file" : "frameworks/rs/rs_hal.h"
  },
  {
   "alignment" : 4,
   "linker_set_key" : "_ZTIFvPKN7android12renderscript7ContextEPKNS0_12ProgramStoreEE",
   "name" : "void (const android::renderscript::Context *, const android::renderscript::ProgramStore *)",
   "parameters" :
   [
    {
     "referenced_type" : "_ZTIPKN7android12renderscript7ContextE"
    },
    {
     "referenced_type" : "_ZTIPKN7android12renderscript12ProgramStoreE"
    }
   ],
   "referenced_type" : "_ZTIFvPKN7android12renderscript7ContextEPKNS0_12ProgramStoreEE",
   "return_type" : "_ZTIv",
   "self_type" : "_ZTIFvPKN7android12renderscript7ContextEPKNS0_12ProgramStoreEE",
   "source_file" : "frameworks/rs/rs_hal.h"
  },
  {
   "alignment" : 4,
   "linker_set_key" : "_ZTIFvPKN7android12renderscript7ContextEPKNS0_13ProgramRasterEE",
   "name" : "void (const android::renderscript::Context *, const android::renderscript::ProgramRaster *)",
   "parameters" :
   [
    {
     "referenced_type" : "_ZTIPKN7android12renderscript7ContextE"
    },
    {
     "referenced_type" : "_ZTIPKN7android12renderscript13ProgramRasterE"
    }
   ],
   "referenced_type" : "_ZTIFvPKN7android12renderscript7ContextEPKNS0_13ProgramRasterEE",
   "return_type" : "_ZTIv",
   "self_type" : "_ZTIFvPKN7android12renderscript7ContextEPKNS0_13ProgramRasterEE",
   "source_file" : "frameworks/rs/rs_hal.h"
  },
  {
   "alignment" : 4,
   "linker_set_key" : "_ZTIFvPKN7android12renderscript7ContextEPKNS0_13ProgramVertexEE",
   "name" : "void (const android::renderscript::Context *, const android::renderscript::ProgramVertex *)",
   "parameters" :
   [
    {
     "referenced_type" : "_ZTIPKN7android12renderscript7ContextE"
    },
    {
     "referenced_type" : "_ZTIPKN7android12renderscript13ProgramVertexE"
    }
   ],
   "referenced_type" : "_ZTIFvPKN7android12renderscript7ContextEPKNS0_13ProgramVertexEE",
   "return_type" : "_ZTIv",
   "self_type" : "_ZTIFvPKN7android12renderscript7ContextEPKNS0_13ProgramVertexEE",
   "source_file" : "frameworks/rs/rs_hal.h"
  },
  {
   "alignment" : 4,
   "linker_set_key" : "_ZTIFvPKN7android12renderscript7ContextEPKNS0_15ProgramFragmentEE",
   "name" : "void (const android::renderscript::Context *, const android::renderscript::ProgramFragment *)",
   "parameters" :
   [
    {
     "referenced_type" : "_ZTIPKN7android12renderscript7ContextE"
    },
    {
     "referenced_type" : "_ZTIPKN7android12renderscript15ProgramFragmentE"
    }
   ],
   "referenced_type" : "_ZTIFvPKN7android12renderscript7ContextEPKNS0_15ProgramFragmentEE",
   "return_type" : "_ZTIv",
   "self_type" : "_ZTIFvPKN7android12renderscript7ContextEPKNS0_15ProgramFragmentEE",
   "source_file" : "frameworks/rs/rs_hal.h"
  },
  {
   "alignment" : 4,
   "linker_set_key" : "_ZTIFvPKN7android12renderscript7ContextEPKNS0_15ScriptGroupBaseEE",
   "name" : "void (const android::renderscript::Context *, const android::renderscript::ScriptGroupBase *)",
   "parameters" :
   [
    {
     "referenced_type" : "_ZTIPKN7android12renderscript7ContextE"
    },
    {
     "referenced_type" : "_ZTIPKN7android12renderscript15ScriptGroupBaseE"
    }
   ],
   "referenced_type" : "_ZTIFvPKN7android12renderscript7ContextEPKNS0_15ScriptGroupBaseEE",
   "return_type" : "_ZTIv",
   "self_type" : "_ZTIFvPKN7android12renderscript7ContextEPKNS0_15ScriptGroupBaseEE",
   "source_file" : "frameworks/rs/rs_hal.h"
  },
  {
   "alignment" : 4,
   "linker_set_key" : "_ZTIFvPKN7android12renderscript7ContextEPKNS0_4MeshEE",
   "name" : "void (const android::renderscript::Context *, const android::renderscript::Mesh *)",
   "parameters" :
   [
    {
     "referenced_type" : "_ZTIPKN7android12renderscript7ContextE"
    },
    {
     "referenced_type" : "_ZTIPKN7android12renderscript4MeshE"
    }
   ],
   "referenced_type" : "_ZTIFvPKN7android12renderscript7ContextEPKNS0_4MeshEE",
   "return_type" : "_ZTIv",
   "self_type" : "_ZTIFvPKN7android12renderscript7ContextEPKNS0_4MeshEE",
   "source_file" : "frameworks/rs/rs_hal.h"
  },
  {
   "alignment" : 4,
   "linker_set_key" : "_ZTIFvPKN7android12renderscript7ContextEPKNS0_4MeshEjjjE",
   "name" : "void (const android::renderscript::Context *, const android::renderscript::Mesh *, unsigned int, unsigned int, unsigned int)",
   "parameters" :
   [
    {
     "referenced_type" : "_ZTIPKN7android12renderscript7ContextE"
    },
    {
     "referenced_type" : "_ZTIPKN7android12renderscript4MeshE"
    },
    {
     "referenced_type" : "_ZTIj"
    },
    {
     "referenced_type" : "_ZTIj"
    },
    {
     "referenced_type" : "_ZTIj"
    }
   ],
   "referenced_type" : "_ZTIFvPKN7android12renderscript7ContextEPKNS0_4MeshEjjjE",
   "return_type" : "_ZTIv",
   "self_type" : "_ZTIFvPKN7android12renderscript7ContextEPKNS0_4MeshEjjjE",
   "source_file" : "frameworks/rs/rs_hal.h"
  },
  {
   "alignment" : 4,
   "linker_set_key" : "_ZTIFvPKN7android12renderscript7ContextEPKNS0_4TypeEE",
   "name" : "void (const android::renderscript::Context *, const android::renderscript::Type *)",
   "parameters" :
   [
    {
     "referenced_type" : "_ZTIPKN7android12renderscript7ContextE"
    },
    {
     "referenced_type" : "_ZTIPKN7android12renderscript4TypeE"
    }
   ],
   "referenced_type" : "_ZTIFvPKN7android12renderscript7ContextEPKNS0_4TypeEE",
   "return_type" : "_ZTIv",
   "self_type" : "_ZTIFvPKN7android12renderscript7ContextEPKNS0_4TypeEE",
   "source_file" : "frameworks/rs/rs_hal.h"
  },
  {
   "alignment" : 4,
   "linker_set_key" : "_ZTIFvPKN7android12renderscript7ContextEPKNS0_4TypeEPNS0_7rs_typeEE",
   "name" : "void (const android::renderscript::Context *, const android::renderscript::Type *, android::renderscript::rs_type *)",
   "parameters" :
   [
    {
     "referenced_type" : "_ZTIPKN7android12renderscript7ContextE"
    },
    {
     "referenced_type" : "_ZTIPKN7android12renderscript4TypeE"
    },
    {
     "referenced_type" : "_ZTIPN7android12renderscript7rs_typeE"
    }
   ],
   "referenced_type" : "_ZTIFvPKN7android12renderscript7ContextEPKNS0_4TypeEPNS0_7rs_typeEE",
   "return_type" : "_ZTIv",
   "self_type" : "_ZTIFvPKN7android12renderscript7ContextEPKNS0_4TypeEPNS0_7rs_typeEE",
   "source_file" : "frameworks/rs/rs_hal.h"
  },
  {
   "alignment" : 4,
   "linker_set_key" : "_ZTIFvPKN7android12renderscript7ContextEPKNS0_6ScriptEPNS0_9rs_scriptEE",
   "name" : "void (const android::renderscript::Context *, const android::renderscript::Script *, android::renderscript::rs_script *)",
   "parameters" :
   [
    {
     "referenced_type" : "_ZTIPKN7android12renderscript7ContextE"
    },
    {
     "referenced_type" : "_ZTIPKN7android12renderscript6ScriptE"
    },
    {
     "referenced_type" : "_ZTIPN7android12renderscript9rs_scriptE"
    }
   ],
   "referenced_type" : "_ZTIFvPKN7android12renderscript7ContextEPKNS0_6ScriptEPNS0_9rs_scriptEE",
   "return_type" : "_ZTIv",
   "self_type" : "_ZTIFvPKN7android12renderscript7ContextEPKNS0_6ScriptEPNS0_9rs_scriptEE",
   "source_file" : "frameworks/rs/rs_hal.h"
  },
  {
   "alignment" : 4,
   "linker_set_key" : "_ZTIFvPKN7android12renderscript7ContextEPKNS0_6ScriptEjPNS0_10AllocationEE",
   "name" : "void (const android::renderscript::Context *, const android::renderscript::Script *, unsigned int, android::renderscript::Allocation *)",
   "parameters" :
   [
    {
     "referenced_type" : "_ZTIPKN7android12renderscript7ContextE"
    },
    {
     "referenced_type" : "_ZTIPKN7android12renderscript6ScriptE"
    },
    {
     "referenced_type" : "_ZTIj"
    },
    {
     "referenced_type" : "_ZTIPN7android12renderscript10AllocationE"
    }
   ],
   "referenced_type" : "_ZTIFvPKN7android12renderscript7ContextEPKNS0_6ScriptEjPNS0_10AllocationEE",
   "return_type" : "_ZTIv",
   "self_type" : "_ZTIFvPKN7android12renderscript7ContextEPKNS0_6ScriptEjPNS0_10AllocationEE",
   "source_file" : "frameworks/rs/rs_hal.h"
  },
  {
   "alignment" : 4,
   "linker_set_key" : "_ZTIFvPKN7android12renderscript7ContextEPKNS0_6ScriptEjPNS0_10ObjectBaseEE",
   "name" : "void (const android::renderscript::Context *, const android::renderscript::Script *, unsigned int, android::renderscript::ObjectBase *)",
   "parameters" :
   [
    {
     "referenced_type" : "_ZTIPKN7android12renderscript7ContextE"
    },
    {
     "referenced_type" : "_ZTIPKN7android12renderscript6ScriptE"
    },
    {
     "referenced_type" : "_ZTIj"
    },
    {
     "referenced_type" : "_ZTIPN7android12renderscript10ObjectBaseE"
    }
   ],
   "referenced_type" : "_ZTIFvPKN7android12renderscript7ContextEPKNS0_6ScriptEjPNS0_10ObjectBaseEE",
   "return_type" : "_ZTIv",
   "self_type" : "_ZTIFvPKN7android12renderscript7ContextEPKNS0_6ScriptEjPNS0_10ObjectBaseEE",
   "source_file" : "frameworks/rs/rs_hal.h"
  },
  {
   "alignment" : 4,
   "linker_set_key" : "_ZTIFvPKN7android12renderscript7ContextEPKNS0_6ScriptEjPvmE",
   "name" : "void (const android::renderscript::Context *, const android::renderscript::Script *, unsigned int, void *, unsigned long)",
   "parameters" :
   [
    {
     "referenced_type" : "_ZTIPKN7android12renderscript7ContextE"
    },
    {
     "referenced_type" : "_ZTIPKN7android12renderscript6ScriptE"
    },
    {
     "referenced_type" : "_ZTIj"
    },
    {
     "referenced_type" : "_ZTIPv"
    },
    {
     "referenced_type" : "_ZTIm"
    }
   ],
   "referenced_type" : "_ZTIFvPKN7android12renderscript7ContextEPKNS0_6ScriptEjPvmE",
   "return_type" : "_ZTIv",
   "self_type" : "_ZTIFvPKN7android12renderscript7ContextEPKNS0_6ScriptEjPvmE",
   "source_file" : "frameworks/rs/rs_hal.h"
  },
  {
   "alignment" : 4,
   "linker_set_key" : "_ZTIFvPKN7android12renderscript7ContextEPKNS0_6ScriptEjPvmPKNS0_7ElementEPKjmE",
   "name" : "void (const android::renderscript::Context *, const android::renderscript::Script *, unsigned int, void *, unsigned long, const android::renderscript::Element *, const unsigned int *, unsigned long)",
   "parameters" :
   [
    {
     "referenced_type" : "_ZTIPKN7android12renderscript7ContextE"
    },
    {
     "referenced_type" : "_ZTIPKN7android12renderscript6ScriptE"
    },
    {
     "referenced_type" : "_ZTIj"
    },
    {
     "referenced_type" : "_ZTIPv"
    },
    {
     "referenced_type" : "_ZTIm"
    },
    {
     "referenced_type" : "_ZTIPKN7android12renderscript7ElementE"
    },
    {
     "referenced_type" : "_ZTIPKj"
    },
    {
     "referenced_type" : "_ZTIm"
    }
   ],
   "referenced_type" : "_ZTIFvPKN7android12renderscript7ContextEPKNS0_6ScriptEjPvmPKNS0_7ElementEPKjmE",
   "return_type" : "_ZTIv",
   "self_type" : "_ZTIFvPKN7android12renderscript7ContextEPKNS0_6ScriptEjPvmPKNS0_7ElementEPKjmE",
   "source_file" : "frameworks/rs/rs_hal.h"
  },
  {
   "alignment" : 4,
   "linker_set_key" : "_ZTIFvPKN7android12renderscript7ContextEPKNS0_7ElementEE",
   "name" : "void (const android::renderscript::Context *, const android::renderscript::Element *)",
   "parameters" :
   [
    {
     "referenced_type" : "_ZTIPKN7android12renderscript7ContextE"
    },
    {
     "referenced_type" : "_ZTIPKN7android12renderscript7ElementE"
    }
   ],
   "referenced_type" : "_ZTIFvPKN7android12renderscript7ContextEPKNS0_7ElementEE",
   "return_type" : "_ZTIv",
   "self_type" : "_ZTIFvPKN7android12renderscript7ContextEPKNS0_7ElementEE",
   "source_file" : "frameworks/rs/rs_hal.h"
  },
  {
   "alignment" : 4,
   "linker_set_key" : "_ZTIFvPKN7android12renderscript7ContextEPKNS0_7ElementEPNS0_10rs_elementEE",
   "name" : "void (const android::renderscript::Context *, const android::renderscript::Element *, android::renderscript::rs_element *)",
   "parameters" :
   [
    {
     "referenced_type" : "_ZTIPKN7android12renderscript7ContextE"
    },
    {
     "referenced_type" : "_ZTIPKN7android12renderscript7ElementE"
    },
    {
     "referenced_type" : "_ZTIPN7android12renderscript10rs_elementE"
    }
   ],
   "referenced_type" : "_ZTIFvPKN7android12renderscript7ContextEPKNS0_7ElementEPNS0_10rs_elementEE",
   "return_type" : "_ZTIv",
   "self_type" : "_ZTIFvPKN7android12renderscript7ContextEPKNS0_7ElementEPNS0_10rs_elementEE",
   "source_file" : "frameworks/rs/rs_hal.h"
  },
  {
   "alignment" : 4,
   "linker_set_key" : "_ZTIFvPKN7android12renderscript7ContextEPKNS0_7SamplerEE",
   "name" : "void (const android::renderscript::Context *, const android::renderscript::Sampler *)",
   "parameters" :
   [
    {
     "referenced_type" : "_ZTIPKN7android12renderscript7ContextE"
    },
    {
     "referenced_type" : "_ZTIPKN7android12renderscript7SamplerE"
    }
   ],
   "referenced_type" : "_ZTIFvPKN7android12renderscript7ContextEPKNS0_7SamplerEE",
   "return_type" : "_ZTIv",
   "self_type" : "_ZTIFvPKN7android12renderscript7ContextEPKNS0_7SamplerEE",
   "source_file" : "frameworks/rs/rs_hal.h"
  },
  {
   "alignment" : 4,
   "linker_set_key" : "_ZTIFvPKN7android12renderscript7ContextEPKNS0_7SamplerEPNS0_10rs_samplerEE",
   "name" : "void (const android::renderscript::Context *, const android::renderscript::Sampler *, android::renderscript::rs_sampler *)",
   "parameters" :
   [
    {
     "referenced_type" : "_ZTIPKN7android12renderscript7ContextE"
    },
    {
     "referenced_type" : "_ZTIPKN7android12renderscript7SamplerE"
    },
    {
     "referenced_type" : "_ZTIPN7android12renderscript10rs_samplerE"
    }
   ],
   "referenced_type" : "_ZTIFvPKN7android12renderscript7ContextEPKNS0_7SamplerEPNS0_10rs_samplerEE",
   "return_type" : "_ZTIv",
   "self_type" : "_ZTIFvPKN7android12renderscript7ContextEPKNS0_7SamplerEPNS0_10rs_samplerEE",
   "source_file" : "frameworks/rs/rs_hal.h"
  },
  {
   "alignment" : 4,
   "linker_set_key" : "_ZTIFvPKN7android12renderscript7ContextEPKNS0_8FBOCacheEE",
   "name" : "void (const android::renderscript::Context *, const android::renderscript::FBOCache *)",
   "parameters" :
   [
    {
     "referenced_type" : "_ZTIPKN7android12renderscript7ContextE"
    },
    {
     "referenced_type" : "_ZTIPKN7android12renderscript8FBOCacheE"
    }
   ],
   "referenced_type" : "_ZTIFvPKN7android12renderscript7ContextEPKNS0_8FBOCacheEE",
   "return_type" : "_ZTIv",
   "self_type" : "_ZTIFvPKN7android12renderscript7ContextEPKNS0_8FBOCacheEE",
   "source_file" : "frameworks/rs/rs_hal.h"
  },
  {
   "alignment" : 4,
   "linker_set_key" : "_ZTIFvPKN7android12renderscript7ContextEPNS0_10AllocationEE",
   "name" : "void (const android::renderscript::Context *, android::renderscript::Allocation *)",
   "parameters" :
   [
    {
     "referenced_type" : "_ZTIPKN7android12renderscript7ContextE"
    },
    {
     "referenced_type" : "_ZTIPN7android12renderscript10AllocationE"
    }
   ],
   "referenced_type" : "_ZTIFvPKN7android12renderscript7ContextEPNS0_10AllocationEE",
   "return_type" : "_ZTIv",
   "self_type" : "_ZTIFvPKN7android12renderscript7ContextEPNS0_10AllocationEE",
   "source_file" : "frameworks/rs/rs_hal.h"
  },
  {
   "alignment" : 4,
   "linker_set_key" : "_ZTIFvPKN7android12renderscript7ContextEPNS0_10AllocationEP13ANativeWindowE",
   "name" : "void (const android::renderscript::Context *, android::renderscript::Allocation *, ANativeWindow *)",
   "parameters" :
   [
    {
     "referenced_type" : "_ZTIPKN7android12renderscript7ContextE"
    },
    {
     "referenced_type" : "_ZTIPN7android12renderscript10AllocationE"
    },
    {
     "referenced_type" : "_ZTIP13ANativeWindow"
    }
   ],
   "referenced_type" : "_ZTIFvPKN7android12renderscript7ContextEPNS0_10AllocationEP13ANativeWindowE",
   "return_type" : "_ZTIv",
   "self_type" : "_ZTIFvPKN7android12renderscript7ContextEPNS0_10AllocationEP13ANativeWindowE",
   "source_file" : "frameworks/rs/rs_hal.h"
  },
  {
   "alignment" : 4,
   "linker_set_key" : "_ZTIFvPKN7android12renderscript7ContextEPNS0_6ScriptEE",
   "name" : "void (const android::renderscript::Context *, android::renderscript::Script *)",
   "parameters" :
   [
    {
     "referenced_type" : "_ZTIPKN7android12renderscript7ContextE"
    },
    {
     "referenced_type" : "_ZTIPN7android12renderscript6ScriptE"
    }
   ],
   "referenced_type" : "_ZTIFvPKN7android12renderscript7ContextEPNS0_6ScriptEE",
   "return_type" : "_ZTIv",
   "self_type" : "_ZTIFvPKN7android12renderscript7ContextEPNS0_6ScriptEE",
   "source_file" : "frameworks/rs/rs_hal.h"
  },
  {
   "alignment" : 4,
   "linker_set_key" : "_ZTIFvPKN7android12renderscript7ContextEPNS0_6ScriptEjPKNS0_10AllocationEPS6_PKvmPK12RsScriptCallE",
   "name" : "void (const android::renderscript::Context *, android::renderscript::Script *, unsigned int, const android::renderscript::Allocation *, android::renderscript::Allocation *, const void *, unsigned long, const RsScriptCall *)",
   "parameters" :
   [
    {
     "referenced_type" : "_ZTIPKN7android12renderscript7ContextE"
    },
    {
     "referenced_type" : "_ZTIPN7android12renderscript6ScriptE"
    },
    {
     "referenced_type" : "_ZTIj"
    },
    {
     "referenced_type" : "_ZTIPKN7android12renderscript10AllocationE"
    },
    {
     "referenced_type" : "_ZTIPN7android12renderscript10AllocationE"
    },
    {
     "referenced_type" : "_ZTIPKv"
    },
    {
     "referenced_type" : "_ZTIm"
    },
    {
     "referenced_type" : "_ZTIPK12RsScriptCall"
    }
   ],
   "referenced_type" : "_ZTIFvPKN7android12renderscript7ContextEPNS0_6ScriptEjPKNS0_10AllocationEPS6_PKvmPK12RsScriptCallE",
   "return_type" : "_ZTIv",
   "self_type" : "_ZTIFvPKN7android12renderscript7ContextEPNS0_6ScriptEjPKNS0_10AllocationEPS6_PKvmPK12RsScriptCallE",
   "source_file" : "frameworks/rs/rs_hal.h"
  },
  {
   "alignment" : 4,
   "linker_set_key" : "_ZTIFvPKN7android12renderscript7ContextEPNS0_6ScriptEjPKvmE",
   "name" : "void (const android::renderscript::Context *, android::renderscript::Script *, unsigned int, const void *, unsigned long)",
   "parameters" :
   [
    {
     "referenced_type" : "_ZTIPKN7android12renderscript7ContextE"
    },
    {
     "referenced_type" : "_ZTIPN7android12renderscript6ScriptE"
    },
    {
     "referenced_type" : "_ZTIj"
    },
    {
     "referenced_type" : "_ZTIPKv"
    },
    {
     "referenced_type" : "_ZTIm"
    }
   ],
   "referenced_type" : "_ZTIFvPKN7android12renderscript7ContextEPNS0_6ScriptEjPKvmE",
   "return_type" : "_ZTIv",
   "self_type" : "_ZTIFvPKN7android12renderscript7ContextEPNS0_6ScriptEjPKvmE",
   "source_file" : "frameworks/rs/rs_hal.h"
  },
  {
   "alignment" : 4,
   "linker_set_key" : "_ZTIFvPKN7android12renderscript7ContextEPNS0_6ScriptEjPPKNS0_10AllocationEmPS6_PK12RsScriptCallE",
   "name" : "void (const android::renderscript::Context *, android::renderscript::Script *, unsigned int, const android::renderscript::Allocation **, unsigned long, android::renderscript::Allocation *, const RsScriptCall *)",
   "parameters" :
   [
    {
     "referenced_type" : "_ZTIPKN7android12renderscript7ContextE"
    },
    {
     "referenced_type" : "_ZTIPN7android12renderscript6ScriptE"
    },
    {
     "referenced_type" : "_ZTIj"
    },
    {
     "referenced_type" : "_ZTIPPKN7android12renderscript10AllocationE"
    },
    {
     "referenced_type" : "_ZTIm"
    },
    {
     "referenced_type" : "_ZTIPN7android12renderscript10AllocationE"
    },
    {
     "referenced_type" : "_ZTIPK12RsScriptCall"
    }
   ],
   "referenced_type" : "_ZTIFvPKN7android12renderscript7ContextEPNS0_6ScriptEjPPKNS0_10AllocationEmPS6_PK12RsScriptCallE",
   "return_type" : "_ZTIv",
   "self_type" : "_ZTIFvPKN7android12renderscript7ContextEPNS0_6ScriptEjPPKNS0_10AllocationEmPS6_PK12RsScriptCallE",
   "source_file" : "frameworks/rs/rs_hal.h"
  },
  {
   "alignment" : 4,
   "linker_set_key" : "_ZTIFvPKN7android12renderscript7ContextEPNS0_6ScriptEjPPKNS0_10AllocationEmPS6_PKvmPK12RsScriptCallE",
   "name" : "void (const android::renderscript::Context *, android::renderscript::Script *, unsigned int, const android::renderscript::Allocation **, unsigned long, android::renderscript::Allocation *, const void *, unsigned long, const RsScriptCall *)",
   "parameters" :
   [
    {
     "referenced_type" : "_ZTIPKN7android12renderscript7ContextE"
    },
    {
     "referenced_type" : "_ZTIPN7android12renderscript6ScriptE"
    },
    {
     "referenced_type" : "_ZTIj"
    },
    {
     "referenced_type" : "_ZTIPPKN7android12renderscript10AllocationE"
    },
    {
     "referenced_type" : "_ZTIm"
    },
    {
     "referenced_type" : "_ZTIPN7android12renderscript10AllocationE"
    },
    {
     "referenced_type" : "_ZTIPKv"
    },
    {
     "referenced_type" : "_ZTIm"
    },
    {
     "referenced_type" : "_ZTIPK12RsScriptCall"
    }
   ],
   "referenced_type" : "_ZTIFvPKN7android12renderscript7ContextEPNS0_6ScriptEjPPKNS0_10AllocationEmPS6_PKvmPK12RsScriptCallE",
   "return_type" : "_ZTIv",
   "self_type" : "_ZTIFvPKN7android12renderscript7ContextEPNS0_6ScriptEjPPKNS0_10AllocationEmPS6_PKvmPK12RsScriptCallE",
   "source_file" : "frameworks/rs/rs_hal.h"
  },
  {
   "alignment" : 4,
   "linker_set_key" : "_ZTIFvPKN7android12renderscript7ContextEiE",
   "name" : "void (const android::renderscript::Context *, int)",
   "parameters" :
   [
    {
     "referenced_type" : "_ZTIPKN7android12renderscript7ContextE"
    },
    {
     "referenced_type" : "_ZTIi"
    }
   ],
   "referenced_type" : "_ZTIFvPKN7android12renderscript7ContextEiE",
   "return_type" : "_ZTIv",
   "self_type" : "_ZTIFvPKN7android12renderscript7ContextEiE",
   "source_file" : "frameworks/rs/rs_hal.h"
  },
  {
   "alignment" : 4,
   "linker_set_key" : "_ZTIFvPN7android12renderscript7ContextEE",
   "name" : "void (android::renderscript::Context *)",
   "parameters" :
   [
    {
     "referenced_type" : "_ZTIPN7android12renderscript7ContextE"
    }
   ],
   "referenced_type" : "_ZTIFvPN7android12renderscript7ContextEE",
   "return_type" : "_ZTIv",
   "self_type" : "_ZTIFvPN7android12renderscript7ContextEE",
   "source_file" : "frameworks/rs/rs_hal.h"
  },
  {
   "alignment" : 4,
   "linker_set_key" : "_ZTIFvPvE",
   "name" : "void (void *)",
   "parameters" :
   [
    {
     "referenced_type" : "_ZTIPv"
    }
   ],
   "referenced_type" : "_ZTIFvPvE",
   "return_type" : "_ZTIv",
   "self_type" : "_ZTIFvPvE",
   "source_file" : "out/soong/.intermediates/bionic/libc/libc/android_vendor.32_arm64_armv8-a_shared/gen/include/pthread.h"
  },
  {
   "alignment" : 4,
   "linker_set_key" : "_ZTIFvPvP12AImageReaderE",
   "name" : "void (void *, AImageReader *)",
   "parameters" :
   [
    {
     "referenced_type" : "_ZTIPv"
    },
    {
     "referenced_type" : "_ZTIP12AImageReader"
    }
   ],
   "referenced_type" : "_ZTIFvPvP12AImageReaderE",
   "return_type" : "_ZTIv",
   "self_type" : "_ZTIFvPvP12AImageReaderE",
   "source_file" : "frameworks/av/media/ndk/include/media/NdkImageReader.h"
  },
  {
   "alignment" : 4,
   "linker_set_key" : "_ZTIFvPvP12AImageReaderP15AHardwareBufferE",
   "name" : "void (void *, AImageReader *, AHardwareBuffer *)",
   "parameters" :
   [
    {
     "referenced_type" : "_ZTIPv"
    },
    {
     "referenced_type" : "_ZTIP12AImageReader"
    },
    {
     "referenced_type" : "_ZTIP15AHardwareBuffer"
    }
   ],
   "referenced_type" : "_ZTIFvPvP12AImageReaderP15AHardwareBufferE",
   "return_type" : "_ZTIv",
   "self_type" : "_ZTIFvPvP12AImageReaderP15AHardwareBufferE",
   "source_file" : "frameworks/av/media/ndk/include/media/NdkImageReader.h"
  },
  {
   "alignment" : 4,
   "linker_set_key" : "_ZTIFvPvPKvE",
   "name" : "void (void *, const void *)",
   "parameters" :
   [
    {
     "referenced_type" : "_ZTIPv"
    },
    {
     "referenced_type" : "_ZTIPKv"
    }
   ],
   "referenced_type" : "_ZTIFvPvPKvE",
   "return_type" : "_ZTIv",
   "self_type" : "_ZTIFvPvPKvE",
   "source_file" : "out/soong/.intermediates/bionic/libc/libc/android_vendor.32_arm64_armv8-a_shared/gen/include/malloc.h"
  },
  {
   "alignment" : 4,
   "linker_set_key" : "_ZTIFvRKNSt3__119__libcpp_debug_infoEE",
   "name" : "void (const std::__1::__libcpp_debug_info &)",
   "parameters" :
   [
    {
     "referenced_type" : "_ZTIRKNSt3__119__libcpp_debug_infoE"
    }
   ],
   "referenced_type" : "_ZTIFvRKNSt3__119__libcpp_debug_infoEE",
   "return_type" : "_ZTIv",
   "self_type" : "_ZTIFvRKNSt3__119__libcpp_debug_infoEE",
   "source_file" : "external/libcxx/include/__debug"
  },
  {
   "alignment" : 4,
   "linker_set_key" : "_ZTIFviE",
   "name" : "void (int)",
   "parameters" :
   [
    {
     "referenced_type" : "_ZTIi"
    }
   ],
   "referenced_type" : "_ZTIFviE",
   "return_type" : "_ZTIv",
   "self_type" : "_ZTIFviE",
   "source_file" : "bionic/libc/kernel/uapi/asm-generic/signal.h"
  },
  {
   "alignment" : 4,
   "linker_set_key" : "_ZTIFviP7siginfoPvE",
   "name" : "void (int, siginfo *, void *)",
   "parameters" :
   [
    {
     "referenced_type" : "_ZTIi"
    },
    {
     "referenced_type" : "_ZTIP7siginfo"
    },
    {
     "referenced_type" : "_ZTIPv"
    }
   ],
   "referenced_type" : "_ZTIFviP7siginfoPvE",
   "return_type" : "_ZTIv",
   "self_type" : "_ZTIFviP7siginfoPvE",
   "source_file" : "out/soong/.intermediates/bionic/libc/libc/android_vendor.32_arm64_armv8-a_shared/gen/include/bits/signal_types.h"
  },
  {
   "alignment" : 4,
   "linker_set_key" : "_ZTIFvvE",
   "name" : "void ()",
   "referenced_type" : "_ZTIFvvE",
   "return_type" : "_ZTIv",
   "self_type" : "_ZTIFvvE",
   "source_file" : "bionic/libc/kernel/uapi/asm-generic/signal.h"
  }
 ],
 "functions" :
 [
  {
   "function_name" : "nexttoward",
   "linker_set_key" : "_Z10nexttowardee",
   "parameters" :
   [
    {
     "referenced_type" : "_ZTIe"
    },
    {
     "referenced_type" : "_ZTIe"
    }
   ],
   "return_type" : "_ZTIe",
   "source_file" : "external/libcxx/include/math.h"
  },
  {
   "function_name" : "nexttoward",
   "linker_set_key" : "_Z10nexttowardfe",
   "parameters" :
   [
    {
     "referenced_type" : "_ZTIf"
    },
    {
     "referenced_type" : "_ZTIe"
    }
   ],
   "return_type" : "_ZTIf",
   "source_file" : "external/libcxx/include/math.h"
  },
  {
   "function_name" : "__libcpp_isinf",
   "linker_set_key" : "_Z14__libcpp_isinfIdEbT_",
   "parameters" :
   [
    {
     "referenced_type" : "_ZTId"
    }
   ],
   "return_type" : "_ZTIb",
   "source_file" : "external/libcxx/include/math.h",
   "template_args" : [ "_ZTId" ]
  },
  {
   "function_name" : "__libcpp_isinf",
   "linker_set_key" : "_Z14__libcpp_isinfIeEbT_",
   "parameters" :
   [
    {
     "referenced_type" : "_ZTIe"
    }
   ],
   "return_type" : "_ZTIb",
   "source_file" : "external/libcxx/include/math.h",
   "template_args" : [ "_ZTIe" ]
  },
  {
   "function_name" : "__libcpp_isinf",
   "linker_set_key" : "_Z14__libcpp_isinfIfEbT_",
   "parameters" :
   [
    {
     "referenced_type" : "_ZTIf"
    }
   ],
   "return_type" : "_ZTIb",
   "source_file" : "external/libcxx/include/math.h",
   "template_args" : [ "_ZTIf" ]
  },
  {
   "function_name" : "__libcpp_isnan",
   "linker_set_key" : "_Z14__libcpp_isnanIdEbT_",
   "parameters" :
   [
    {
     "referenced_type" : "_ZTId"
    }
   ],
   "return_type" : "_ZTIb",
   "source_file" : "external/libcxx/include/math.h",
   "template_args" : [ "_ZTId" ]
  },
  {
   "function_name" : "__libcpp_isnan",
   "linker_set_key" : "_Z14__libcpp_isnanIeEbT_",
   "parameters" :
   [
    {
     "referenced_type" : "_ZTIe"
    }
   ],
   "return_type" : "_ZTIb",
   "source_file" : "external/libcxx/include/math.h",
   "template_args" : [ "_ZTIe" ]
  },
  {
   "function_name" : "__libcpp_isnan",
   "linker_set_key" : "_Z14__libcpp_isnanIfEbT_",
   "parameters" :
   [
    {
     "referenced_type" : "_ZTIf"
    }
   ],
   "return_type" : "_ZTIb",
   "source_file" : "external/libcxx/include/math.h",
   "template_args" : [ "_ZTIf" ]
  },
  {
   "function_name" : "__bionic_memchr",
   "linker_set_key" : "_Z15__bionic_memchrPKvU17pass_object_size1im",
   "parameters" :
   [
    {
     "referenced_type" : "_ZTIKPKv"
    },
    {
     "referenced_type" : "_ZTIi"
    },
    {
     "referenced_type" : "_ZTIm"
    }
   ],
   "return_type" : "_ZTIPv",
   "source_file" : "out/soong/.intermediates/bionic/libc/libc/android_vendor.32_arm64_armv8-a_shared/gen/include/string.h"
  },
  {
   "function_name" : "__bionic_strchr",
   "linker_set_key" : "_Z15__bionic_strchrPKcU17pass_object_size1i",
   "parameters" :
   [
    {
     "referenced_type" : "_ZTIKPKc"
    },
    {
     "referenced_type" : "_ZTIi"
    }
   ],
   "return_type" : "_ZTIPc",
   "source_file" : "out/soong/.intermediates/bionic/libc/libc/android_vendor.32_arm64_armv8-a_shared/gen/include/string.h"
  },
  {
   "function_name" : "__bionic_strstr",
   "linker_set_key" : "_Z15__bionic_strstrPKcS0_",
   "parameters" :
   [
    {
     "referenced_type" : "_ZTIPKc"
    },
    {
     "referenced_type" : "_ZTIPKc"
    }
   ],
   "return_type" : "_ZTIPc",
   "source_file" : "out/soong/.intermediates/bionic/libc/libc/android_vendor.32_arm64_armv8-a_shared/gen/include/string.h"
  },
  {
   "function_name" : "__libcpp_memchr",
   "linker_set_key" : "_Z15__libcpp_memchrPKvim",
   "parameters" :
   [
    {
     "referenced_type" : "_ZTIPKv"
    },
    {
     "referenced_type" : "_ZTIi"
    },
    {
     "referenced_type" : "_ZTIm"
    }
   ],
   "return_type" : "_ZTIPv",
   "source_file" : "external/libcxx/include/string.h"
  },
  {
   "function_name" : "__libcpp_strchr",
   "linker_set_key" : "_Z15__libcpp_strchrPKci",
   "parameters" :
   [
    {
     "referenced_type" : "_ZTIPKc"
    },
    {
     "referenced_type" : "_ZTIi"
    }
   ],
   "return_type" : "_ZTIPc",
   "source_file" : "external/libcxx/include/string.h"
  },
  {
   "function_name" : "__libcpp_strstr",
   "linker_set_key" : "_Z15__libcpp_strstrPKcS0_",
   "parameters" :
   [
    {
     "referenced_type" : "_ZTIPKc"
    },
    {
     "referenced_type" : "_ZTIPKc"
    }
   ],
   "return_type" : "_ZTIPc",
   "source_file" : "external/libcxx/include/string.h"
  },
  {
   "function_name" : "__libcpp_wcschr",
   "linker_set_key" : "_Z15__libcpp_wcschrPKww",
   "parameters" :
   [
    {
     "referenced_type" : "_ZTIPKw"
    },
    {
     "referenced_type" : "_ZTIw"
    }
   ],
   "return_type" : "_ZTIPw",
   "source_file" : "external/libcxx/include/wchar.h"
  },
  {
   "function_name" : "__libcpp_wcsstr",
   "linker_set_key" : "_Z15__libcpp_wcsstrPKwS0_",
   "parameters" :
   [
    {
     "referenced_type" : "_ZTIPKw"
    },
    {
     "referenced_type" : "_ZTIPKw"
    }
   ],
   "return_type" : "_ZTIPw",
   "source_file" : "external/libcxx/include/wchar.h"
  },
  {
   "function_name" : "__bionic_strpbrk",
   "linker_set_key" : "_Z16__bionic_strpbrkPKcS0_",
   "parameters" :
   [
    {
     "referenced_type" : "_ZTIPKc"
    },
    {
     "referenced_type" : "_ZTIPKc"
    }
   ],
   "return_type" : "_ZTIPc",
   "source_file" : "out/soong/.intermediates/bionic/libc/libc/android_vendor.32_arm64_armv8-a_shared/gen/include/string.h"
  },
  {
   "function_name" : "__bionic_strrchr",
   "linker_set_key" : "_Z16__bionic_strrchrPKcU17pass_object_size1i",
   "parameters" :
   [
    {
     "referenced_type" : "_ZTIKPKc"
    },
    {
     "referenced_type" : "_ZTIi"
    }
   ],
   "return_type" : "_ZTIPc",
   "source_file" : "out/soong/.intermediates/bionic/libc/libc/android_vendor.32_arm64_armv8-a_shared/gen/include/string.h"
  },
  {
   "function_name" : "__libcpp_strpbrk",
   "linker_set_key" : "_Z16__libcpp_strpbrkPKcS0_",
   "parameters" :
   [
    {
     "referenced_type" : "_ZTIPKc"
    },
    {
     "referenced_type" : "_ZTIPKc"
    }
   ],
   "return_type" : "_ZTIPc",
   "source_file" : "external/libcxx/include/string.h"
  },
  {
   "function_name" : "__libcpp_strrchr",
   "linker_set_key" : "_Z16__libcpp_strrchrPKci",
   "parameters" :
   [
    {
     "referenced_type" : "_ZTIPKc"
    },
    {
     "referenced_type" : "_ZTIi"
    }
   ],
   "return_type" : "_ZTIPc",
   "source_file" : "external/libcxx/include/string.h"
  },
  {
   "function_name" : "__libcpp_wcspbrk",
   "linker_set_key" : "_Z16__libcpp_wcspbrkPKwS0_",
   "parameters" :
   [
    {
     "referenced_type" : "_ZTIPKw"
    },
    {
     "referenced_type" : "_ZTIPKw"
    }
   ],
   "return_type" : "_ZTIPw",
   "source_file" : "external/libcxx/include/wchar.h"
  },
  {
   "function_name" : "__libcpp_wcsrchr",
   "linker_set_key" : "_Z16__libcpp_wcsrchrPKww",
   "parameters" :
   [
    {
     "referenced_type" : "_ZTIPKw"
    },
    {
     "referenced_type" : "_ZTIw"
    }
   ],
   "return_type" : "_ZTIPw",
   "source_file" : "external/libcxx/include/wchar.h"
  },
  {
   "function_name" : "__libcpp_wmemchr",
   "linker_set_key" : "_Z16__libcpp_wmemchrPKwwm",
   "parameters" :
   [
    {
     "referenced_type" : "_ZTIPKw"
    },
    {
     "referenced_type" : "_ZTIw"
    },
    {
     "referenced_type" : "_ZTIm"
    }
   ],
   "return_type" : "_ZTIPw",
   "source_file" : "external/libcxx/include/wchar.h"
  },
  {
   "function_name" : "abs",
   "linker_set_key" : "_Z3absd",
   "parameters" :
   [
    {
     "referenced_type" : "_ZTId"
    }
   ],
   "return_type" : "_ZTId",
   "source_file" : "external/libcxx/include/math.h"
  },
  {
   "function_name" : "abs",
   "linker_set_key" : "_Z3abse",
   "parameters" :
   [
    {
     "referenced_type" : "_ZTIe"
    }
   ],
   "return_type" : "_ZTIe",
   "source_file" : "external/libcxx/include/math.h"
  },
  {
   "function_name" : "abs",
   "linker_set_key" : "_Z3absf",
   "parameters" :
   [
    {
     "referenced_type" : "_ZTIf"
    }
   ],
   "return_type" : "_ZTIf",
   "source_file" : "external/libcxx/include/math.h"
  },
  {
   "function_name" : "abs",
   "linker_set_key" : "_Z3absl",
   "parameters" :
   [
    {
     "referenced_type" : "_ZTIl"
    }
   ],
   "return_type" : "_ZTIl",
   "source_file" : "external/libcxx/include/stdlib.h"
  },
  {
   "function_name" : "abs",
   "linker_set_key" : "_Z3absx",
   "parameters" :
   [
    {
     "referenced_type" : "_ZTIx"
    }
   ],
   "return_type" : "_ZTIx",
   "source_file" : "external/libcxx/include/stdlib.h"
  },
  {
   "function_name" : "cos",
   "linker_set_key" : "_Z3cose",
   "parameters" :
   [
    {
     "referenced_type" : "_ZTIe"
    }
   ],
   "return_type" : "_ZTIe",
   "source_file" : "external/libcxx/include/math.h"
  },
  {
   "function_name" : "cos",
   "linker_set_key" : "_Z3cosf",
   "parameters" :
   [
    {
     "referenced_type" : "_ZTIf"
    }
   ],
   "return_type" : "_ZTIf",
   "source_file" : "external/libcxx/include/math.h"
  },
  {
   "function_name" : "div",
   "linker_set_key" : "_Z3divll",
   "parameters" :
   [
    {
     "referenced_type" : "_ZTIl"
    },
    {
     "referenced_type" : "_ZTIl"
    }
   ],
   "return_type" : "_ZTI6ldiv_t",
   "source_file" : "external/libcxx/include/stdlib.h"
  },
  {
   "function_name" : "div",
   "linker_set_key" : "_Z3divxx",
   "parameters" :
   [
    {
     "referenced_type" : "_ZTIx"
    },
    {
     "referenced_type" : "_ZTIx"
    }
   ],
   "return_type" : "_ZTI7lldiv_t",
   "source_file" : "external/libcxx/include/stdlib.h"
  },
  {
   "function_name" : "erf",
   "linker_set_key" : "_Z3erfe",
   "parameters" :
   [
    {
     "referenced_type" : "_ZTIe"
    }
   ],
   "return_type" : "_ZTIe",
   "source_file" : "external/libcxx/include/math.h"
  },
  {
   "function_name" : "erf",
   "linker_set_key" : "_Z3erff",
   "parameters" :
   [
    {
     "referenced_type" : "_ZTIf"
    }
   ],
   "return_type" : "_ZTIf",
   "source_file" : "external/libcxx/include/math.h"
  },
  {
   "function_name" : "exp",
   "linker_set_key" : "_Z3expe",
   "parameters" :
   [
    {
     "referenced_type" : "_ZTIe"
    }
   ],
   "return_type" : "_ZTIe",
   "source_file" : "external/libcxx/include/math.h"
  },
  {
   "function_name" : "exp",
   "linker_set_key" : "_Z3expf",
   "parameters" :
   [
    {
     "referenced_type" : "_ZTIf"
    }
   ],
   "return_type" : "_ZTIf",
   "source_file" : "external/libcxx/include/math.h"
  },
  {
   "function_name" : "fma",
   "linker_set_key" : "_Z3fmaeee",
   "parameters" :
   [
    {
     "referenced_type" : "_ZTIe"
    },
    {
     "referenced_type" : "_ZTIe"
    },
    {
     "referenced_type" : "_ZTIe"
    }
   ],
   "return_type" : "_ZTIe",
   "source_file" : "external/libcxx/include/math.h"
  },
  {
   "function_name" : "fma",
   "linker_set_key" : "_Z3fmafff",
   "parameters" :
   [
    {
     "referenced_type" : "_ZTIf"
    },
    {
     "referenced_type" : "_ZTIf"
    },
    {
     "referenced_type" : "_ZTIf"
    }
   ],
   "return_type" : "_ZTIf",
   "source_file" : "external/libcxx/include/math.h"
  },
  {
   "function_name" : "log",
   "linker_set_key" : "_Z3loge",
   "parameters" :
   [
    {
     "referenced_type" : "_ZTIe"
    }
   ],
   "return_type" : "_ZTIe",
   "source_file" : "external/libcxx/include/math.h"
  },
  {
   "function_name" : "log",
   "linker_set_key" : "_Z3logf",
   "parameters" :
   [
    {
     "referenced_type" : "_ZTIf"
    }
   ],
   "return_type" : "_ZTIf",
   "source_file" : "external/libcxx/include/math.h"
  },
  {
   "function_name" : "pow",
   "linker_set_key" : "_Z3powee",
   "parameters" :
   [
    {
     "referenced_type" : "_ZTIe"
    },
    {
     "referenced_type" : "_ZTIe"
    }
   ],
   "return_type" : "_ZTIe",
   "source_file" : "external/libcxx/include/math.h"
  },
  {
   "function_name" : "pow",
   "linker_set_key" : "_Z3powff",
   "parameters" :
   [
    {
     "referenced_type" : "_ZTIf"
    },
    {
     "referenced_type" : "_ZTIf"
    }
   ],
   "return_type" : "_ZTIf",
   "source_file" : "external/libcxx/include/math.h"
  },
  {
   "function_name" : "sin",
   "linker_set_key" : "_Z3sine",
   "parameters" :
   [
    {
     "referenced_type" : "_ZTIe"
    }
   ],
   "return_type" : "_ZTIe",
   "source_file" : "external/libcxx/include/math.h"
  },
  {
   "function_name" : "sin",
   "linker_set_key" : "_Z3sinf",
   "parameters" :
   [
    {
     "referenced_type" : "_ZTIf"
    }
   ],
   "return_type" : "_ZTIf",
   "source_file" : "external/libcxx/include/math.h"
  },
  {
   "function_name" : "tan",
   "linker_set_key" : "_Z3tane",
   "parameters" :
   [
    {
     "referenced_type" : "_ZTIe"
    }
   ],
   "return_type" : "_ZTIe",
   "source_file" : "external/libcxx/include/math.h"
  },
  {
   "function_name" : "tan",
   "linker_set_key" : "_Z3tanf",
   "parameters" :
   [
    {
     "referenced_type" : "_ZTIf"
    }
   ],
   "return_type" : "_ZTIf",
   "source_file" : "external/libcxx/include/math.h"
  },
  {
   "function_name" : "acos",
   "linker_set_key" : "_Z4acose",
   "parameters" :
   [
    {
     "referenced_type" : "_ZTIe"
    }
   ],
   "return_type" : "_ZTIe",
   "source_file" : "external/libcxx/include/math.h"
  },
  {
   "function_name" : "acos",
   "linker_set_key" : "_Z4acosf",
   "parameters" :
   [
    {
     "referenced_type" : "_ZTIf"
    }
   ],
   "return_type" : "_ZTIf",
   "source_file" : "external/libcxx/include/math.h"
  },
  {
   "function_name" : "asin",
   "linker_set_key" : "_Z4asine",
   "parameters" :
   [
    {
     "referenced_type" : "_ZTIe"
    }
   ],
   "return_type" : "_ZTIe",
   "source_file" : "external/libcxx/include/math.h"
  },
  {
   "function_name" : "asin",
   "linker_set_key" : "_Z4asinf",
   "parameters" :
   [
    {
     "referenced_type" : "_ZTIf"
    }
   ],
   "return_type" : "_ZTIf",
   "source_file" : "external/libcxx/include/math.h"
  },
  {
   "function_name" : "atan",
   "linker_set_key" : "_Z4atane",
   "parameters" :
   [
    {
     "referenced_type" : "_ZTIe"
    }
   ],
   "return_type" : "_ZTIe",
   "source_file" : "external/libcxx/include/math.h"
  },
  {
   "function_name" : "atan",
   "linker_set_key" : "_Z4atanf",
   "parameters" :
   [
    {
     "referenced_type" : "_ZTIf"
    }
   ],
   "return_type" : "_ZTIf",
   "source_file" : "external/libcxx/include/math.h"
  },
  {
   "function_name" : "cbrt",
   "linker_set_key" : "_Z4cbrte",
   "parameters" :
   [
    {
     "referenced_type" : "_ZTIe"
    }
   ],
   "return_type" : "_ZTIe",
   "source_file" : "external/libcxx/include/math.h"
  },
  {
   "function_name" : "cbrt",
   "linker_set_key" : "_Z4cbrtf",
   "parameters" :
   [
    {
     "referenced_type" : "_ZTIf"
    }
   ],
   "return_type" : "_ZTIf",
   "source_file" : "external/libcxx/include/math.h"
  },
  {
   "function_name" : "ceil",
   "linker_set_key" : "_Z4ceile",
   "parameters" :
   [
    {
     "referenced_type" : "_ZTIe"
    }
   ],
   "return_type" : "_ZTIe",
   "source_file" : "external/libcxx/include/math.h"
  },
  {
   "function_name" : "ceil",
   "linker_set_key" : "_Z4ceilf",
   "parameters" :
   [
    {
     "referenced_type" : "_ZTIf"
    }
   ],
   "return_type" : "_ZTIf",
   "source_file" : "external/libcxx/include/math.h"
  },
  {
   "function_name" : "cosh",
   "linker_set_key" : "_Z4coshe",
   "parameters" :
   [
    {
     "referenced_type" : "_ZTIe"
    }
   ],
   "return_type" : "_ZTIe",
   "source_file" : "external/libcxx/include/math.h"
  },
  {
   "function_name" : "cosh",
   "linker_set_key" : "_Z4coshf",
   "parameters" :
   [
    {
     "referenced_type" : "_ZTIf"
    }
   ],
   "return_type" : "_ZTIf",
   "source_file" : "external/libcxx/include/math.h"
  },
  {
   "function_name" : "erfc",
   "linker_set_key" : "_Z4erfce",
   "parameters" :
   [
    {
     "referenced_type" : "_ZTIe"
    }
   ],
   "return_type" : "_ZTIe",
   "source_file" : "external/libcxx/include/math.h"
  },
  {
   "function_name" : "erfc",
   "linker_set_key" : "_Z4erfcf",
   "parameters" :
   [
    {
     "referenced_type" : "_ZTIf"
    }
   ],
   "return_type" : "_ZTIf",
   "source_file" : "external/libcxx/include/math.h"
  },
  {
   "function_name" : "exp2",
   "linker_set_key" : "_Z4exp2e",
   "parameters" :
   [
    {
     "referenced_type" : "_ZTIe"
    }
   ],
   "return_type" : "_ZTIe",
   "source_file" : "external/libcxx/include/math.h"
  },
  {
   "function_name" : "exp2",
   "linker_set_key" : "_Z4exp2f",
   "parameters" :
   [
    {
     "referenced_type" : "_ZTIf"
    }
   ],
   "return_type" : "_ZTIf",
   "source_file" : "external/libcxx/include/math.h"
  },
  {
   "function_name" : "fabs",
   "linker_set_key" : "_Z4fabse",
   "parameters" :
   [
    {
     "referenced_type" : "_ZTIe"
    }
   ],
   "return_type" : "_ZTIe",
   "source_file" : "external/libcxx/include/math.h"
  },
  {
   "function_name" : "fabs",
   "linker_set_key" : "_Z4fabsf",
   "parameters" :
   [
    {
     "referenced_type" : "_ZTIf"
    }
   ],
   "return_type" : "_ZTIf",
   "source_file" : "external/libcxx/include/math.h"
  },
  {
   "function_name" : "fdim",
   "linker_set_key" : "_Z4fdimee",
   "parameters" :
   [
    {
     "referenced_type" : "_ZTIe"
    },
    {
     "referenced_type" : "_ZTIe"
    }
   ],
   "return_type" : "_ZTIe",
   "source_file" : "external/libcxx/include/math.h"
  },
  {
   "function_name" : "fdim",
   "linker_set_key" : "_Z4fdimff",
   "parameters" :
   [
    {
     "referenced_type" : "_ZTIf"
    },
    {
     "referenced_type" : "_ZTIf"
    }
   ],
   "return_type" : "_ZTIf",
   "source_file" : "external/libcxx/include/math.h"
  },
  {
   "function_name" : "fmax",
   "linker_set_key" : "_Z4fmaxee",
   "parameters" :
   [
    {
     "referenced_type" : "_ZTIe"
    },
    {
     "referenced_type" : "_ZTIe"
    }
   ],
   "return_type" : "_ZTIe",
   "source_file" : "external/libcxx/include/math.h"
  },
  {
   "function_name" : "fmax",
   "linker_set_key" : "_Z4fmaxff",
   "parameters" :
   [
    {
     "referenced_type" : "_ZTIf"
    },
    {
     "referenced_type" : "_ZTIf"
    }
   ],
   "return_type" : "_ZTIf",
   "source_file" : "external/libcxx/include/math.h"
  },
  {
   "function_name" : "fmin",
   "linker_set_key" : "_Z4fminee",
   "parameters" :
   [
    {
     "referenced_type" : "_ZTIe"
    },
    {
     "referenced_type" : "_ZTIe"
    }
   ],
   "return_type" : "_ZTIe",
   "source_file" : "external/libcxx/include/math.h"
  },
  {
   "function_name" : "fmin",
   "linker_set_key" : "_Z4fminff",
   "parameters" :
   [
    {
     "referenced_type" : "_ZTIf"
    },
    {
     "referenced_type" : "_ZTIf"
    }
   ],
   "return_type" : "_ZTIf",
   "source_file" : "external/libcxx/include/math.h"
  },
  {
   "function_name" : "fmod",
   "linker_set_key" : "_Z4fmodee",
   "parameters" :
   [
    {
     "referenced_type" : "_ZTIe"
    },
    {
     "referenced_type" : "_ZTIe"
    }
   ],
   "return_type" : "_ZTIe",
   "source_file" : "external/libcxx/include/math.h"
  },
  {
   "function_name" : "fmod",
   "linker_set_key" : "_Z4fmodff",
   "parameters" :
   [
    {
     "referenced_type" : "_ZTIf"
    },
    {
     "referenced_type" : "_ZTIf"
    }
   ],
   "return_type" : "_ZTIf",
   "source_file" : "external/libcxx/include/math.h"
  },
  {
   "function_name" : "log2",
   "linker_set_key" : "_Z4log2e",
   "parameters" :
   [
    {
     "referenced_type" : "_ZTIe"
    }
   ],
   "return_type" : "_ZTIe",
   "source_file" : "external/libcxx/include/math.h"
  },
  {
   "function_name" : "log2",
   "linker_set_key" : "_Z4log2f",
   "parameters" :
   [
    {
     "referenced_type" : "_ZTIf"
    }
   ],
   "return_type" : "_ZTIf",
   "source_file" : "external/libcxx/include/math.h"
  },
  {
   "function_name" : "logb",
   "linker_set_key" : "_Z4logbe",
   "parameters" :
   [
    {
     "referenced_type" : "_ZTIe"
    }
   ],
   "return_type" : "_ZTIe",
   "source_file" : "external/libcxx/include/math.h"
  },
  {
   "function_name" : "logb",
   "linker_set_key" : "_Z4logbf",
   "parameters" :
   [
    {
     "referenced_type" : "_ZTIf"
    }
   ],
   "return_type" : "_ZTIf",
   "source_file" : "external/libcxx/include/math.h"
  },
  {
   "function_name" : "modf",
   "linker_set_key" : "_Z4modfePe",
   "parameters" :
   [
    {
     "referenced_type" : "_ZTIe"
    },
    {
     "referenced_type" : "_ZTIPe"
    }
   ],
   "return_type" : "_ZTIe",
   "source_file" : "external/libcxx/include/math.h"
  },
  {
   "function_name" : "modf",
   "linker_set_key" : "_Z4modffPf",
   "parameters" :
   [
    {
     "referenced_type" : "_ZTIf"
    },
    {
     "referenced_type" : "_ZTIPf"
    }
   ],
   "return_type" : "_ZTIf",
   "source_file" : "external/libcxx/include/math.h"
  },
  {
   "function_name" : "rint",
   "linker_set_key" : "_Z4rinte",
   "parameters" :
   [
    {
     "referenced_type" : "_ZTIe"
    }
   ],
   "return_type" : "_ZTIe",
   "source_file" : "external/libcxx/include/math.h"
  },
  {
   "function_name" : "rint",
   "linker_set_key" : "_Z4rintf",
   "parameters" :
   [
    {
     "referenced_type" : "_ZTIf"
    }
   ],
   "return_type" : "_ZTIf",
   "source_file" : "external/libcxx/include/math.h"
  },
  {
   "function_name" : "sinh",
   "linker_set_key" : "_Z4sinhe",
   "parameters" :
   [
    {
     "referenced_type" : "_ZTIe"
    }
   ],
   "return_type" : "_ZTIe",
   "source_file" : "external/libcxx/include/math.h"
  },
  {
   "function_name" : "sinh",
   "linker_set_key" : "_Z4sinhf",
   "parameters" :
   [
    {
     "referenced_type" : "_ZTIf"
    }
   ],
   "return_type" : "_ZTIf",
   "source_file" : "external/libcxx/include/math.h"
  },
  {
   "function_name" : "sqrt",
   "linker_set_key" : "_Z4sqrte",
   "parameters" :
   [
    {
     "referenced_type" : "_ZTIe"
    }
   ],
   "return_type" : "_ZTIe",
   "source_file" : "external/libcxx/include/math.h"
  },
  {
   "function_name" : "sqrt",
   "linker_set_key" : "_Z4sqrtf",
   "parameters" :
   [
    {
     "referenced_type" : "_ZTIf"
    }
   ],
   "return_type" : "_ZTIf",
   "source_file" : "external/libcxx/include/math.h"
  },
  {
   "function_name" : "tanh",
   "linker_set_key" : "_Z4tanhe",
   "parameters" :
   [
    {
     "referenced_type" : "_ZTIe"
    }
   ],
   "return_type" : "_ZTIe",
   "source_file" : "external/libcxx/include/math.h"
  },
  {
   "function_name" : "tanh",
   "linker_set_key" : "_Z4tanhf",
   "parameters" :
   [
    {
     "referenced_type" : "_ZTIf"
    }
   ],
   "return_type" : "_ZTIf",
   "source_file" : "external/libcxx/include/math.h"
  },
  {
   "function_name" : "acosh",
   "linker_set_key" : "_Z5acoshe",
   "parameters" :
   [
    {
     "referenced_type" : "_ZTIe"
    }
   ],
   "return_type" : "_ZTIe",
   "source_file" : "external/libcxx/include/math.h"
  },
  {
   "function_name" : "acosh",
   "linker_set_key" : "_Z5acoshf",
   "parameters" :
   [
    {
     "referenced_type" : "_ZTIf"
    }
   ],
   "return_type" : "_ZTIf",
   "source_file" : "external/libcxx/include/math.h"
  },
  {
   "function_name" : "asinh",
   "linker_set_key" : "_Z5asinhe",
   "parameters" :
   [
    {
     "referenced_type" : "_ZTIe"
    }
   ],
   "return_type" : "_ZTIe",
   "source_file" : "external/libcxx/include/math.h"
  },
  {
   "function_name" : "asinh",
   "linker_set_key" : "_Z5asinhf",
   "parameters" :
   [
    {
     "referenced_type" : "_ZTIf"
    }
   ],
   "return_type" : "_ZTIf",
   "source_file" : "external/libcxx/include/math.h"
  },
  {
   "function_name" : "atan2",
   "linker_set_key" : "_Z5atan2ee",
   "parameters" :
   [
    {
     "referenced_type" : "_ZTIe"
    },
    {
     "referenced_type" : "_ZTIe"
    }
   ],
   "return_type" : "_ZTIe",
   "source_file" : "external/libcxx/include/math.h"
  },
  {
   "function_name" : "atan2",
   "linker_set_key" : "_Z5atan2ff",
   "parameters" :
   [
    {
     "referenced_type" : "_ZTIf"
    },
    {
     "referenced_type" : "_ZTIf"
    }
   ],
   "return_type" : "_ZTIf",
   "source_file" : "external/libcxx/include/math.h"
  },
  {
   "function_name" : "atanh",
   "linker_set_key" : "_Z5atanhe",
   "parameters" :
   [
    {
     "referenced_type" : "_ZTIe"
    }
   ],
   "return_type" : "_ZTIe",
   "source_file" : "external/libcxx/include/math.h"
  },
  {
   "function_name" : "atanh",
   "linker_set_key" : "_Z5atanhf",
   "parameters" :
   [
    {
     "referenced_type" : "_ZTIf"
    }
   ],
   "return_type" : "_ZTIf",
   "source_file" : "external/libcxx/include/math.h"
  },
  {
   "function_name" : "expm1",
   "linker_set_key" : "_Z5expm1e",
   "parameters" :
   [
    {
     "referenced_type" : "_ZTIe"
    }
   ],
   "return_type" : "_ZTIe",
   "source_file" : "external/libcxx/include/math.h"
  },
  {
   "function_name" : "expm1",
   "linker_set_key" : "_Z5expm1f",
   "parameters" :
   [
    {
     "referenced_type" : "_ZTIf"
    }
   ],
   "return_type" : "_ZTIf",
   "source_file" : "external/libcxx/include/math.h"
  },
  {
   "function_name" : "floor",
   "linker_set_key" : "_Z5floore",
   "parameters" :
   [
    {
     "referenced_type" : "_ZTIe"
    }
   ],
   "return_type" : "_ZTIe",
   "source_file" : "external/libcxx/include/math.h"
  },
  {
   "function_name" : "floor",
   "linker_set_key" : "_Z5floorf",
   "parameters" :
   [
    {
     "referenced_type" : "_ZTIf"
    }
   ],
   "return_type" : "_ZTIf",
   "source_file" : "external/libcxx/include/math.h"
  },
  {
   "function_name" : "frexp",
   "linker_set_key" : "_Z5frexpePi",
   "parameters" :
   [
    {
     "referenced_type" : "_ZTIe"
    },
    {
     "referenced_type" : "_ZTIPi"
    }
   ],
   "return_type" : "_ZTIe",
   "source_file" : "external/libcxx/include/math.h"
  },
  {
   "function_name" : "frexp",
   "linker_set_key" : "_Z5frexpfPi",
   "parameters" :
   [
    {
     "referenced_type" : "_ZTIf"
    },
    {
     "referenced_type" : "_ZTIPi"
    }
   ],
   "return_type" : "_ZTIf",
   "source_file" : "external/libcxx/include/math.h"
  },
  {
   "function_name" : "hypot",
   "linker_set_key" : "_Z5hypotee",
   "parameters" :
   [
    {
     "referenced_type" : "_ZTIe"
    },
    {
     "referenced_type" : "_ZTIe"
    }
   ],
   "return_type" : "_ZTIe",
   "source_file" : "external/libcxx/include/math.h"
  },
  {
   "function_name" : "hypot",
   "linker_set_key" : "_Z5hypotff",
   "parameters" :
   [
    {
     "referenced_type" : "_ZTIf"
    },
    {
     "referenced_type" : "_ZTIf"
    }
   ],
   "return_type" : "_ZTIf",
   "source_file" : "external/libcxx/include/math.h"
  },
  {
   "function_name" : "ilogb",
   "linker_set_key" : "_Z5ilogbe",
   "parameters" :
   [
    {
     "referenced_type" : "_ZTIe"
    }
   ],
   "return_type" : "_ZTIi",
   "source_file" : "external/libcxx/include/math.h"
  },
  {
   "function_name" : "ilogb",
   "linker_set_key" : "_Z5ilogbf",
   "parameters" :
   [
    {
     "referenced_type" : "_ZTIf"
    }
   ],
   "return_type" : "_ZTIi",
   "source_file" : "external/libcxx/include/math.h"
  },
  {
   "function_name" : "isinf",
   "linker_set_key" : "_Z5isinfUa9enable_ifIXLb1EEEd",
   "parameters" :
   [
    {
     "referenced_type" : "_ZTId"
    }
   ],
   "return_type" : "_ZTIb",
   "source_file" : "external/libcxx/include/math.h"
  },
  {
   "function_name" : "isinf",
   "linker_set_key" : "_Z5isinfe",
   "parameters" :
   [
    {
     "referenced_type" : "_ZTIe"
    }
   ],
   "return_type" : "_ZTIb",
   "source_file" : "external/libcxx/include/math.h"
  },
  {
   "function_name" : "isinf",
   "linker_set_key" : "_Z5isinff",
   "parameters" :
   [
    {
     "referenced_type" : "_ZTIf"
    }
   ],
   "return_type" : "_ZTIb",
   "source_file" : "external/libcxx/include/math.h"
  },
  {
   "function_name" : "isnan",
   "linker_set_key" : "_Z5isnanUa9enable_ifIXLb1EEEd",
   "parameters" :
   [
    {
     "referenced_type" : "_ZTId"
    }
   ],
   "return_type" : "_ZTIb",
   "source_file" : "external/libcxx/include/math.h"
  },
  {
   "function_name" : "isnan",
   "linker_set_key" : "_Z5isnane",
   "parameters" :
   [
    {
     "referenced_type" : "_ZTIe"
    }
   ],
   "return_type" : "_ZTIb",
   "source_file" : "external/libcxx/include/math.h"
  },
  {
   "function_name" : "isnan",
   "linker_set_key" : "_Z5isnanf",
   "parameters" :
   [
    {
     "referenced_type" : "_ZTIf"
    }
   ],
   "return_type" : "_ZTIb",
   "source_file" : "external/libcxx/include/math.h"
  },
  {
   "function_name" : "ldexp",
   "linker_set_key" : "_Z5ldexpei",
   "parameters" :
   [
    {
     "referenced_type" : "_ZTIe"
    },
    {
     "referenced_type" : "_ZTIi"
    }
   ],
   "return_type" : "_ZTIe",
   "source_file" : "external/libcxx/include/math.h"
  },
  {
   "function_name" : "ldexp",
   "linker_set_key" : "_Z5ldexpfi",
   "parameters" :
   [
    {
     "referenced_type" : "_ZTIf"
    },
    {
     "referenced_type" : "_ZTIi"
    }
   ],
   "return_type" : "_ZTIf",
   "source_file" : "external/libcxx/include/math.h"
  },
  {
   "function_name" : "log10",
   "linker_set_key" : "_Z5log10e",
   "parameters" :
   [
    {
     "referenced_type" : "_ZTIe"
    }
   ],
   "return_type" : "_ZTIe",
   "source_file" : "external/libcxx/include/math.h"
  },
  {
   "function_name" : "log10",
   "linker_set_key" : "_Z5log10f",
   "parameters" :
   [
    {
     "referenced_type" : "_ZTIf"
    }
   ],
   "return_type" : "_ZTIf",
   "source_file" : "external/libcxx/include/math.h"
  },
  {
   "function_name" : "log1p",
   "linker_set_key" : "_Z5log1pe",
   "parameters" :
   [
    {
     "referenced_type" : "_ZTIe"
    }
   ],
   "return_type" : "_ZTIe",
   "source_file" : "external/libcxx/include/math.h"
  },
  {
   "function_name" : "log1p",
   "linker_set_key" : "_Z5log1pf",
   "parameters" :
   [
    {
     "referenced_type" : "_ZTIf"
    }
   ],
   "return_type" : "_ZTIf",
   "source_file" : "external/libcxx/include/math.h"
  },
  {
   "function_name" : "lrint",
   "linker_set_key" : "_Z5lrinte",
   "parameters" :
   [
    {
     "referenced_type" : "_ZTIe"
    }
   ],
   "return_type" : "_ZTIl",
   "source_file" : "external/libcxx/include/math.h"
  },
  {
   "function_name" : "lrint",
   "linker_set_key" : "_Z5lrintf",
   "parameters" :
   [
    {
     "referenced_type" : "_ZTIf"
    }
   ],
   "return_type" : "_ZTIl",
   "source_file" : "external/libcxx/include/math.h"
  },
  {
   "function_name" : "round",
   "linker_set_key" : "_Z5rounde",
   "parameters" :
   [
    {
     "referenced_type" : "_ZTIe"
    }
   ],
   "return_type" : "_ZTIe",
   "source_file" : "external/libcxx/include/math.h"
  },
  {
   "function_name" : "round",
   "linker_set_key" : "_Z5roundf",
   "parameters" :
   [
    {
     "referenced_type" : "_ZTIf"
    }
   ],
   "return_type" : "_ZTIf",
   "source_file" : "external/libcxx/include/math.h"
  },
  {
   "function_name" : "trunc",
   "linker_set_key" : "_Z5trunce",
   "parameters" :
   [
    {
     "referenced_type" : "_ZTIe"
    }
   ],
   "return_type" : "_ZTIe",
   "source_file" : "external/libcxx/include/math.h"
  },
  {
   "function_name" : "trunc",
   "linker_set_key" : "_Z5truncf",
   "parameters" :
   [
    {
     "referenced_type" : "_ZTIf"
    }
   ],
   "return_type" : "_ZTIf",
   "source_file" : "external/libcxx/include/math.h"
  },
  {
   "function_name" : "lgamma",
   "linker_set_key" : "_Z6lgammae",
   "parameters" :
   [
    {
     "referenced_type" : "_ZTIe"
    }
   ],
   "return_type" : "_ZTIe",
   "source_file" : "external/libcxx/include/math.h"
  },
  {
   "function_name" : "lgamma",
   "linker_set_key" : "_Z6lgammaf",
   "parameters" :
   [
    {
     "referenced_type" : "_ZTIf"
    }
   ],
   "return_type" : "_ZTIf",
   "source_file" : "external/libcxx/include/math.h"
  },
  {
   "function_name" : "llrint",
   "linker_set_key" : "_Z6llrinte",
   "parameters" :
   [
    {
     "referenced_type" : "_ZTIe"
    }
   ],
   "return_type" : "_ZTIx",
   "source_file" : "external/libcxx/include/math.h"
  },
  {
   "function_name" : "llrint",
   "linker_set_key" : "_Z6llrintf",
   "parameters" :
   [
    {
     "referenced_type" : "_ZTIf"
    }
   ],
   "return_type" : "_ZTIx",
   "source_file" : "external/libcxx/include/math.h"
  },
  {
   "function_name" : "lround",
   "linker_set_key" : "_Z6lrounde",
   "parameters" :
   [
    {
     "referenced_type" : "_ZTIe"
    }
   ],
   "return_type" : "_ZTIl",
   "source_file" : "external/libcxx/include/math.h"
  },
  {
   "function_name" : "lround",
   "linker_set_key" : "_Z6lroundf",
   "parameters" :
   [
    {
     "referenced_type" : "_ZTIf"
    }
   ],
   "return_type" : "_ZTIl",
   "source_file" : "external/libcxx/include/math.h"
  },
  {
   "function_name" : "memchr",
   "linker_set_key" : "_Z6memchrUa9enable_ifIXLb1EEEPKvim",
   "parameters" :
   [
    {
     "referenced_type" : "_ZTIPKv"
    },
    {
     "referenced_type" : "_ZTIi"
    },
    {
     "referenced_type" : "_ZTIm"
    }
   ],
   "return_type" : "_ZTIPKv",
   "source_file" : "external/libcxx/include/string.h"
  },
  {
   "function_name" : "memchr",
   "linker_set_key" : "_Z6memchrUa9enable_ifIXLb1EEEPvim",
   "parameters" :
   [
    {
     "referenced_type" : "_ZTIPv"
    },
    {
     "referenced_type" : "_ZTIi"
    },
    {
     "referenced_type" : "_ZTIm"
    }
   ],
   "return_type" : "_ZTIPv",
   "source_file" : "external/libcxx/include/string.h"
  },
  {
   "function_name" : "memchr",
   "linker_set_key" : "_Z6memchrUa9enable_ifIXLb1EEXLb1EEEPKvU17pass_object_size1im",
   "parameters" :
   [
    {
     "referenced_type" : "_ZTIKPKv"
    },
    {
     "referenced_type" : "_ZTIi"
    },
    {
     "referenced_type" : "_ZTIm"
    }
   ],
   "return_type" : "_ZTIPKv",
   "source_file" : "out/soong/.intermediates/bionic/libc/libc/android_vendor.32_arm64_armv8-a_shared/gen/include/string.h"
  },
  {
   "function_name" : "memchr",
   "linker_set_key" : "_Z6memchrUa9enable_ifIXLb1EEXLb1EEEPvU17pass_object_size1im",
   "parameters" :
   [
    {
     "referenced_type" : "_ZTIKPv"
    },
    {
     "referenced_type" : "_ZTIi"
    },
    {
     "referenced_type" : "_ZTIm"
    }
   ],
   "return_type" : "_ZTIPv",
   "source_file" : "out/soong/.intermediates/bionic/libc/libc/android_vendor.32_arm64_armv8-a_shared/gen/include/string.h"
  },
  {
   "function_name" : "remquo",
   "linker_set_key" : "_Z6remquoeePi",
   "parameters" :
   [
    {
     "referenced_type" : "_ZTIe"
    },
    {
     "referenced_type" : "_ZTIe"
    },
    {
     "referenced_type" : "_ZTIPi"
    }
   ],
   "return_type" : "_ZTIe",
   "source_file" : "external/libcxx/include/math.h"
  },
  {
   "function_name" : "remquo",
   "linker_set_key" : "_Z6remquoffPi",
   "parameters" :
   [
    {
     "referenced_type" : "_ZTIf"
    },
    {
     "referenced_type" : "_ZTIf"
    },
    {
     "referenced_type" : "_ZTIPi"
    }
   ],
   "return_type" : "_ZTIf",
   "source_file" : "external/libcxx/include/math.h"
  },
  {
   "function_name" : "scalbn",
   "linker_set_key" : "_Z6scalbnei",
   "parameters" :
   [
    {
     "referenced_type" : "_ZTIe"
    },
    {
     "referenced_type" : "_ZTIi"
    }
   ],
   "return_type" : "_ZTIe",
   "source_file" : "external/libcxx/include/math.h"
  },
  {
   "function_name" : "scalbn",
   "linker_set_key" : "_Z6scalbnfi",
   "parameters" :
   [
    {
     "referenced_type" : "_ZTIf"
    },
    {
     "referenced_type" : "_ZTIi"
    }
   ],
   "return_type" : "_ZTIf",
   "source_file" : "external/libcxx/include/math.h"
  },
  {
   "function_name" : "strchr",
   "linker_set_key" : "_Z6strchrUa9enable_ifIXLb1EEEPKci",
   "parameters" :
   [
    {
     "referenced_type" : "_ZTIPKc"
    },
    {
     "referenced_type" : "_ZTIi"
    }
   ],
   "return_type" : "_ZTIPKc",
   "source_file" : "external/libcxx/include/string.h"
  },
  {
   "function_name" : "strchr",
   "linker_set_key" : "_Z6strchrUa9enable_ifIXLb1EEEPci",
   "parameters" :
   [
    {
     "referenced_type" : "_ZTIPc"
    },
    {
     "referenced_type" : "_ZTIi"
    }
   ],
   "return_type" : "_ZTIPc",
   "source_file" : "external/libcxx/include/string.h"
  },
  {
   "function_name" : "strchr",
   "linker_set_key" : "_Z6strchrUa9enable_ifIXLb1EEXLb1EEEPKcU17pass_object_size1i",
   "parameters" :
   [
    {
     "referenced_type" : "_ZTIKPKc"
    },
    {
     "referenced_type" : "_ZTIi"
    }
   ],
   "return_type" : "_ZTIPKc",
   "source_file" : "out/soong/.intermediates/bionic/libc/libc/android_vendor.32_arm64_armv8-a_shared/gen/include/string.h"
  },
  {
   "function_name" : "strchr",
   "linker_set_key" : "_Z6strchrUa9enable_ifIXLb1EEXLb1EEEPcU17pass_object_size1i",
   "parameters" :
   [
    {
     "referenced_type" : "_ZTIKPc"
    },
    {
     "referenced_type" : "_ZTIi"
    }
   ],
   "return_type" : "_ZTIPc",
   "source_file" : "out/soong/.intermediates/bionic/libc/libc/android_vendor.32_arm64_armv8-a_shared/gen/include/string.h"
  },
  {
   "function_name" : "strstr",
   "linker_set_key" : "_Z6strstrUa9enable_ifIXLb1EEEPKcS0_",
   "parameters" :
   [
    {
     "referenced_type" : "_ZTIPKc"
    },
    {
     "referenced_type" : "_ZTIPKc"
    }
   ],
   "return_type" : "_ZTIPKc",
   "source_file" : "external/libcxx/include/string.h"
  },
  {
   "function_name" : "strstr",
   "linker_set_key" : "_Z6strstrUa9enable_ifIXLb1EEEPcPKc",
   "parameters" :
   [
    {
     "referenced_type" : "_ZTIPc"
    },
    {
     "referenced_type" : "_ZTIPKc"
    }
   ],
   "return_type" : "_ZTIPc",
   "source_file" : "external/libcxx/include/string.h"
  },
  {
   "function_name" : "strstr",
   "linker_set_key" : "_Z6strstrUa9enable_ifIXLb1EEXLb1EEEPKcS0_",
   "parameters" :
   [
    {
     "referenced_type" : "_ZTIPKc"
    },
    {
     "referenced_type" : "_ZTIPKc"
    }
   ],
   "return_type" : "_ZTIPKc",
   "source_file" : "out/soong/.intermediates/bionic/libc/libc/android_vendor.32_arm64_armv8-a_shared/gen/include/string.h"
  },
  {
   "function_name" : "strstr",
   "linker_set_key" : "_Z6strstrUa9enable_ifIXLb1EEXLb1EEEPcPKc",
   "parameters" :
   [
    {
     "referenced_type" : "_ZTIPc"
    },
    {
     "referenced_type" : "_ZTIPKc"
    }
   ],
   "return_type" : "_ZTIPc",
   "source_file" : "out/soong/.intermediates/bionic/libc/libc/android_vendor.32_arm64_armv8-a_shared/gen/include/string.h"
  },
  {
   "function_name" : "tgamma",
   "linker_set_key" : "_Z6tgammae",
   "parameters" :
   [
    {
     "referenced_type" : "_ZTIe"
    }
   ],
   "return_type" : "_ZTIe",
   "source_file" : "external/libcxx/include/math.h"
  },
  {
   "function_name" : "tgamma",
   "linker_set_key" : "_Z6tgammaf",
   "parameters" :
   [
    {
     "referenced_type" : "_ZTIf"
    }
   ],
   "return_type" : "_ZTIf",
   "source_file" : "external/libcxx/include/math.h"
  },
  {
   "function_name" : "wcschr",
   "linker_set_key" : "_Z6wcschrUa9enable_ifIXLb1EEEPKww",
   "parameters" :
   [
    {
     "referenced_type" : "_ZTIPKw"
    },
    {
     "referenced_type" : "_ZTIw"
    }
   ],
   "return_type" : "_ZTIPKw",
   "source_file" : "external/libcxx/include/wchar.h"
  },
  {
   "function_name" : "wcschr",
   "linker_set_key" : "_Z6wcschrUa9enable_ifIXLb1EEEPww",
   "parameters" :
   [
    {
     "referenced_type" : "_ZTIPw"
    },
    {
     "referenced_type" : "_ZTIw"
    }
   ],
   "return_type" : "_ZTIPw",
   "source_file" : "external/libcxx/include/wchar.h"
  },
  {
   "function_name" : "wcsstr",
   "linker_set_key" : "_Z6wcsstrUa9enable_ifIXLb1EEEPKwS0_",
   "parameters" :
   [
    {
     "referenced_type" : "_ZTIPKw"
    },
    {
     "referenced_type" : "_ZTIPKw"
    }
   ],
   "return_type" : "_ZTIPKw",
   "source_file" : "external/libcxx/include/wchar.h"
  },
  {
   "function_name" : "wcsstr",
   "linker_set_key" : "_Z6wcsstrUa9enable_ifIXLb1EEEPwPKw",
   "parameters" :
   [
    {
     "referenced_type" : "_ZTIPw"
    },
    {
     "referenced_type" : "_ZTIPKw"
    }
   ],
   "return_type" : "_ZTIPw",
   "source_file" : "external/libcxx/include/wchar.h"
  },
  {
   "function_name" : "llround",
   "linker_set_key" : "_Z7llrounde",
   "parameters" :
   [
    {
     "referenced_type" : "_ZTIe"
    }
   ],
   "return_type" : "_ZTIx",
   "source_file" : "external/libcxx/include/math.h"
  },
  {
   "function_name" : "llround",
   "linker_set_key" : "_Z7llroundf",
   "parameters" :
   [
    {
     "referenced_type" : "_ZTIf"
    }
   ],
   "return_type" : "_ZTIx",
   "source_file" : "external/libcxx/include/math.h"
  },
  {
   "function_name" : "scalbln",
   "linker_set_key" : "_Z7scalblnel",
   "parameters" :
   [
    {
     "referenced_type" : "_ZTIe"
    },
    {
     "referenced_type" : "_ZTIl"
    }
   ],
   "return_type" : "_ZTIe",
   "source_file" : "external/libcxx/include/math.h"
  },
  {
   "function_name" : "scalbln",
   "linker_set_key" : "_Z7scalblnfl",
   "parameters" :
   [
    {
     "referenced_type" : "_ZTIf"
    },
    {
     "referenced_type" : "_ZTIl"
    }
   ],
   "return_type" : "_ZTIf",
   "source_file" : "external/libcxx/include/math.h"
  },
  {
   "function_name" : "strpbrk",
   "linker_set_key" : "_Z7strpbrkUa9enable_ifIXLb1EEEPKcS0_",
   "parameters" :
   [
    {
     "referenced_type" : "_ZTIPKc"
    },
    {
     "referenced_type" : "_ZTIPKc"
    }
   ],
   "return_type" : "_ZTIPKc",
   "source_file" : "external/libcxx/include/string.h"
  },
  {
   "function_name" : "strpbrk",
   "linker_set_key" : "_Z7strpbrkUa9enable_ifIXLb1EEEPcPKc",
   "parameters" :
   [
    {
     "referenced_type" : "_ZTIPc"
    },
    {
     "referenced_type" : "_ZTIPKc"
    }
   ],
   "return_type" : "_ZTIPc",
   "source_file" : "external/libcxx/include/string.h"
  },
  {
   "function_name" : "strpbrk",
   "linker_set_key" : "_Z7strpbrkUa9enable_ifIXLb1EEXLb1EEEPKcS0_",
   "parameters" :
   [
    {
     "referenced_type" : "_ZTIPKc"
    },
    {
     "referenced_type" : "_ZTIPKc"
    }
   ],
   "return_type" : "_ZTIPKc",
   "source_file" : "out/soong/.intermediates/bionic/libc/libc/android_vendor.32_arm64_armv8-a_shared/gen/include/string.h"
  },
  {
   "function_name" : "strpbrk",
   "linker_set_key" : "_Z7strpbrkUa9enable_ifIXLb1EEXLb1EEEPcPKc",
   "parameters" :
   [
    {
     "referenced_type" : "_ZTIPc"
    },
    {
     "referenced_type" : "_ZTIPKc"
    }
   ],
   "return_type" : "_ZTIPc",
   "source_file" : "out/soong/.intermediates/bionic/libc/libc/android_vendor.32_arm64_armv8-a_shared/gen/include/string.h"
  },
  {
   "function_name" : "strrchr",
   "linker_set_key" : "_Z7strrchrUa9enable_ifIXLb1EEEPKci",
   "parameters" :
   [
    {
     "referenced_type" : "_ZTIPKc"
    },
    {
     "referenced_type" : "_ZTIi"
    }
   ],
   "return_type" : "_ZTIPKc",
   "source_file" : "external/libcxx/include/string.h"
  },
  {
   "function_name" : "strrchr",
   "linker_set_key" : "_Z7strrchrUa9enable_ifIXLb1EEEPci",
   "parameters" :
   [
    {
     "referenced_type" : "_ZTIPc"
    },
    {
     "referenced_type" : "_ZTIi"
    }
   ],
   "return_type" : "_ZTIPc",
   "source_file" : "external/libcxx/include/string.h"
  },
  {
   "function_name" : "strrchr",
   "linker_set_key" : "_Z7strrchrUa9enable_ifIXLb1EEXLb1EEEPKcU17pass_object_size1i",
   "parameters" :
   [
    {
     "referenced_type" : "_ZTIKPKc"
    },
    {
     "referenced_type" : "_ZTIi"
    }
   ],
   "return_type" : "_ZTIPKc",
   "source_file" : "out/soong/.intermediates/bionic/libc/libc/android_vendor.32_arm64_armv8-a_shared/gen/include/string.h"
  },
  {
   "function_name" : "strrchr",
   "linker_set_key" : "_Z7strrchrUa9enable_ifIXLb1EEXLb1EEEPcU17pass_object_size1i",
   "parameters" :
   [
    {
     "referenced_type" : "_ZTIKPc"
    },
    {
     "referenced_type" : "_ZTIi"
    }
   ],
   "return_type" : "_ZTIPc",
   "source_file" : "out/soong/.intermediates/bionic/libc/libc/android_vendor.32_arm64_armv8-a_shared/gen/include/string.h"
  },
  {
   "function_name" : "wcspbrk",
   "linker_set_key" : "_Z7wcspbrkUa9enable_ifIXLb1EEEPKwS0_",
   "parameters" :
   [
    {
     "referenced_type" : "_ZTIPKw"
    },
    {
     "referenced_type" : "_ZTIPKw"
    }
   ],
   "return_type" : "_ZTIPKw",
   "source_file" : "external/libcxx/include/wchar.h"
  },
  {
   "function_name" : "wcspbrk",
   "linker_set_key" : "_Z7wcspbrkUa9enable_ifIXLb1EEEPwPKw",
   "parameters" :
   [
    {
     "referenced_type" : "_ZTIPw"
    },
    {
     "referenced_type" : "_ZTIPKw"
    }
   ],
   "return_type" : "_ZTIPw",
   "source_file" : "external/libcxx/include/wchar.h"
  },
  {
   "function_name" : "wcsrchr",
   "linker_set_key" : "_Z7wcsrchrUa9enable_ifIXLb1EEEPKww",
   "parameters" :
   [
    {
     "referenced_type" : "_ZTIPKw"
    },
    {
     "referenced_type" : "_ZTIw"
    }
   ],
   "return_type" : "_ZTIPKw",
   "source_file" : "external/libcxx/include/wchar.h"
  },
  {
   "function_name" : "wcsrchr",
   "linker_set_key" : "_Z7wcsrchrUa9enable_ifIXLb1EEEPww",
   "parameters" :
   [
    {
     "referenced_type" : "_ZTIPw"
    },
    {
     "referenced_type" : "_ZTIw"
    }
   ],
   "return_type" : "_ZTIPw",
   "source_file" : "external/libcxx/include/wchar.h"
  },
  {
   "function_name" : "wmemchr",
   "linker_set_key" : "_Z7wmemchrUa9enable_ifIXLb1EEEPKwwm",
   "parameters" :
   [
    {
     "referenced_type" : "_ZTIPKw"
    },
    {
     "referenced_type" : "_ZTIw"
    },
    {
     "referenced_type" : "_ZTIm"
    }
   ],
   "return_type" : "_ZTIPKw",
   "source_file" : "external/libcxx/include/wchar.h"
  },
  {
   "function_name" : "wmemchr",
   "linker_set_key" : "_Z7wmemchrUa9enable_ifIXLb1EEEPwwm",
   "parameters" :
   [
    {
     "referenced_type" : "_ZTIPw"
    },
    {
     "referenced_type" : "_ZTIw"
    },
    {
     "referenced_type" : "_ZTIm"
    }
   ],
   "return_type" : "_ZTIPw",
   "source_file" : "external/libcxx/include/wchar.h"
  },
  {
   "function_name" : "copysign",
   "linker_set_key" : "_Z8copysignee",
   "parameters" :
   [
    {
     "referenced_type" : "_ZTIe"
    },
    {
     "referenced_type" : "_ZTIe"
    }
   ],
   "return_type" : "_ZTIe",
   "source_file" : "external/libcxx/include/math.h"
  },
  {
   "function_name" : "copysign",
   "linker_set_key" : "_Z8copysignff",
   "parameters" :
   [
    {
     "referenced_type" : "_ZTIf"
    },
    {
     "referenced_type" : "_ZTIf"
    }
   ],
   "return_type" : "_ZTIf",
   "source_file" : "external/libcxx/include/math.h"
  },
  {
   "function_name" : "nearbyint",
   "linker_set_key" : "_Z9nearbyinte",
   "parameters" :
   [
    {
     "referenced_type" : "_ZTIe"
    }
   ],
   "return_type" : "_ZTIe",
   "source_file" : "external/libcxx/include/math.h"
  },
  {
   "function_name" : "nearbyint",
   "linker_set_key" : "_Z9nearbyintf",
   "parameters" :
   [
    {
     "referenced_type" : "_ZTIf"
    }
   ],
   "return_type" : "_ZTIf",
   "source_file" : "external/libcxx/include/math.h"
  },
  {
   "function_name" : "nextafter",
   "linker_set_key" : "_Z9nextafteree",
   "parameters" :
   [
    {
     "referenced_type" : "_ZTIe"
    },
    {
     "referenced_type" : "_ZTIe"
    }
   ],
   "return_type" : "_ZTIe",
   "source_file" : "external/libcxx/include/math.h"
  },
  {
   "function_name" : "nextafter",
   "linker_set_key" : "_Z9nextafterff",
   "parameters" :
   [
    {
     "referenced_type" : "_ZTIf"
    },
    {
     "referenced_type" : "_ZTIf"
    }
   ],
   "return_type" : "_ZTIf",
   "source_file" : "external/libcxx/include/math.h"
  },
  {
   "function_name" : "remainder",
   "linker_set_key" : "_Z9remainderee",
   "parameters" :
   [
    {
     "referenced_type" : "_ZTIe"
    },
    {
     "referenced_type" : "_ZTIe"
    }
   ],
   "return_type" : "_ZTIe",
   "source_file" : "external/libcxx/include/math.h"
  },
  {
   "function_name" : "remainder",
   "linker_set_key" : "_Z9remainderff",
   "parameters" :
   [
    {
     "referenced_type" : "_ZTIf"
    },
    {
     "referenced_type" : "_ZTIf"
    }
   ],
   "return_type" : "_ZTIf",
   "source_file" : "external/libcxx/include/math.h"
  },
  {
   "function_name" : "android::renderscript::Allocation::getTimeStamp",
   "linker_set_key" : "_ZN7android12renderscript10Allocation12getTimeStampEv",
   "parameters" :
   [
    {
     "is_this_ptr" : true,
     "referenced_type" : "_ZTIPN7android12renderscript10AllocationE"
    }
   ],
   "return_type" : "_ZTIl",
   "source_file" : "frameworks/rs/rsAllocation.h"
  },
  {
   "access" : "protected",
   "function_name" : "android::renderscript::Allocation::setType",
   "linker_set_key" : "_ZN7android12renderscript10Allocation7setTypeEPKNS0_4TypeE",
   "parameters" :
   [
    {
     "is_this_ptr" : true,
     "referenced_type" : "_ZTIPN7android12renderscript10AllocationE"
    },
    {
     "referenced_type" : "_ZTIPKN7android12renderscript4TypeE"
    }
   ],
   "return_type" : "_ZTIv",
   "source_file" : "frameworks/rs/rsAllocation.h"
  },
  {
   "function_name" : "android::renderscript::FifoSocket::getWriteFd",
   "linker_set_key" : "_ZN7android12renderscript10FifoSocket10getWriteFdEv",
   "parameters" :
   [
    {
     "is_this_ptr" : true,
     "referenced_type" : "_ZTIPN7android12renderscript10FifoSocketE"
    }
   ],
   "return_type" : "_ZTIi",
   "source_file" : "frameworks/rs/rsFifoSocket.h"
  },
  {
   "function_name" : "android::renderscript::FifoSocket::getReadFd",
   "linker_set_key" : "_ZN7android12renderscript10FifoSocket9getReadFdEv",
   "parameters" :
   [
    {
     "is_this_ptr" : true,
     "referenced_type" : "_ZTIPN7android12renderscript10FifoSocketE"
    }
   ],
   "return_type" : "_ZTIi",
   "source_file" : "frameworks/rs/rsFifoSocket.h"
  },
  {
   "function_name" : "android::renderscript::ObjectBase::assignName",
   "linker_set_key" : "_ZN7android12renderscript10ObjectBase10assignNameEPKc",
   "parameters" :
   [
    {
     "is_this_ptr" : true,
     "referenced_type" : "_ZTIPN7android12renderscript10ObjectBaseE"
    },
    {
     "referenced_type" : "_ZTIPKc"
    }
   ],
   "return_type" : "_ZTIv",
   "source_file" : "frameworks/rs/rsObjectBase.h"
  },
  {
   "function_name" : "android::renderscript::ProgramBase::ProgramBase",
   "linker_set_key" : "_ZN7android12renderscript11ProgramBaseC2EPNS0_7ContextE",
   "parameters" :
   [
    {
     "is_this_ptr" : true,
     "referenced_type" : "_ZTIPN7android12renderscript11ProgramBaseE"
    },
    {
     "referenced_type" : "_ZTIPN7android12renderscript7ContextE"
    }
   ],
   "return_type" : "_ZTIv",
   "source_file" : "frameworks/rs/rsProgramBase.h"
  },
  {
   "function_name" : "android::renderscript::SamplerState::init",
   "linker_set_key" : "_ZN7android12renderscript12SamplerState4initEPNS0_7ContextE",
   "parameters" :
   [
    {
     "is_this_ptr" : true,
     "referenced_type" : "_ZTIPN7android12renderscript12SamplerStateE"
    },
    {
     "referenced_type" : "_ZTIPN7android12renderscript7ContextE"
    }
   ],
   "return_type" : "_ZTIv",
   "source_file" : "frameworks/rs/rsSampler.h"
  },
  {
   "function_name" : "android::renderscript::SamplerState::deinit",
   "linker_set_key" : "_ZN7android12renderscript12SamplerState6deinitEPNS0_7ContextE",
   "parameters" :
   [
    {
     "is_this_ptr" : true,
     "referenced_type" : "_ZTIPN7android12renderscript12SamplerStateE"
    },
    {
     "referenced_type" : "_ZTIPN7android12renderscript7ContextE"
    }
   ],
   "return_type" : "_ZTIv",
   "source_file" : "frameworks/rs/rsSampler.h"
  },
  {
   "function_name" : "android::renderscript::ObjectBaseRef<const android::renderscript::Type>::set",
   "linker_set_key" : "_ZN7android12renderscript13ObjectBaseRefIKNS0_4TypeEE3setEPS3_",
   "parameters" :
   [
    {
     "is_this_ptr" : true,
     "referenced_type" : "_ZTIPN7android12renderscript13ObjectBaseRefIKNS0_4TypeEEE"
    },
    {
     "referenced_type" : "_ZTIPKN7android12renderscript4TypeE"
    }
   ],
   "return_type" : "_ZTIv",
   "source_file" : "frameworks/rs/rsObjectBase.h"
  },
  {
   "function_name" : "android::renderscript::ObjectBaseRef<const android::renderscript::Type>::clear",
   "linker_set_key" : "_ZN7android12renderscript13ObjectBaseRefIKNS0_4TypeEE5clearEv",
   "parameters" :
   [
    {
     "is_this_ptr" : true,
     "referenced_type" : "_ZTIPN7android12renderscript13ObjectBaseRefIKNS0_4TypeEEE"
    }
   ],
   "return_type" : "_ZTIv",
   "source_file" : "frameworks/rs/rsObjectBase.h"
  },
  {
   "function_name" : "android::renderscript::ObjectBaseRef<const android::renderscript::Element>::clear",
   "linker_set_key" : "_ZN7android12renderscript13ObjectBaseRefIKNS0_7ElementEE5clearEv",
   "parameters" :
   [
    {
     "is_this_ptr" : true,
     "referenced_type" : "_ZTIPN7android12renderscript13ObjectBaseRefIKNS0_7ElementEEE"
    }
   ],
   "return_type" : "_ZTIv",
   "source_file" : "frameworks/rs/rsObjectBase.h"
  },
  {
   "function_name" : "android::renderscript::ObjectBaseRef<const android::renderscript::Element>::~ObjectBaseRef",
   "linker_set_key" : "_ZN7android12renderscript13ObjectBaseRefIKNS0_7ElementEED1Ev",
   "parameters" :
   [
    {
     "is_this_ptr" : true,
     "referenced_type" : "_ZTIPN7android12renderscript13ObjectBaseRefIKNS0_7ElementEEE"
    }
   ],
   "return_type" : "_ZTIv",
   "source_file" : "frameworks/rs/rsObjectBase.h"
  },
  {
   "function_name" : "android::renderscript::ObjectBaseRef<const android::renderscript::Element>::~ObjectBaseRef",
   "linker_set_key" : "_ZN7android12renderscript13ObjectBaseRefIKNS0_7ElementEED2Ev",
   "parameters" :
   [
    {
     "is_this_ptr" : true,
     "referenced_type" : "_ZTIPN7android12renderscript13ObjectBaseRefIKNS0_7ElementEEE"
    }
   ],
   "return_type" : "_ZTIv",
   "source_file" : "frameworks/rs/rsObjectBase.h"
  },
  {
   "function_name" : "android::renderscript::ObjectBaseRef<android::renderscript::Type>::clear",
   "linker_set_key" : "_ZN7android12renderscript13ObjectBaseRefINS0_4TypeEE5clearEv",
   "parameters" :
   [
    {
     "is_this_ptr" : true,
     "referenced_type" : "_ZTIPN7android12renderscript13ObjectBaseRefINS0_4TypeEEE"
    }
   ],
   "return_type" : "_ZTIv",
   "source_file" : "frameworks/rs/rsObjectBase.h"
  },
  {
   "function_name" : "android::renderscript::ObjectBaseRef<android::renderscript::Type>::~ObjectBaseRef",
   "linker_set_key" : "_ZN7android12renderscript13ObjectBaseRefINS0_4TypeEED1Ev",
   "parameters" :
   [
    {
     "is_this_ptr" : true,
     "referenced_type" : "_ZTIPN7android12renderscript13ObjectBaseRefINS0_4TypeEEE"
    }
   ],
   "return_type" : "_ZTIv",
   "source_file" : "frameworks/rs/rsObjectBase.h"
  },
  {
   "function_name" : "android::renderscript::ObjectBaseRef<android::renderscript::Type>::~ObjectBaseRef",
   "linker_set_key" : "_ZN7android12renderscript13ObjectBaseRefINS0_4TypeEED2Ev",
   "parameters" :
   [
    {
     "is_this_ptr" : true,
     "referenced_type" : "_ZTIPN7android12renderscript13ObjectBaseRefINS0_4TypeEEE"
    }
   ],
   "return_type" : "_ZTIv",
   "source_file" : "frameworks/rs/rsObjectBase.h"
  },
  {
   "function_name" : "android::renderscript::ObjectBaseRef<android::renderscript::Sampler>::clear",
   "linker_set_key" : "_ZN7android12renderscript13ObjectBaseRefINS0_7SamplerEE5clearEv",
   "parameters" :
   [
    {
     "is_this_ptr" : true,
     "referenced_type" : "_ZTIPN7android12renderscript13ObjectBaseRefINS0_7SamplerEEE"
    }
   ],
   "return_type" : "_ZTIv",
   "source_file" : "frameworks/rs/rsObjectBase.h"
  },
  {
   "function_name" : "android::renderscript::ScriptFieldID::~ScriptFieldID",
   "linker_set_key" : "_ZN7android12renderscript13ScriptFieldIDD0Ev",
   "parameters" :
   [
    {
     "is_this_ptr" : true,
     "referenced_type" : "_ZTIPN7android12renderscript13ScriptFieldIDE"
    }
   ],
   "return_type" : "_ZTIv",
   "source_file" : "frameworks/rs/rsScript.h"
  },
  {
   "function_name" : "android::renderscript::ScriptFieldID::~ScriptFieldID",
   "linker_set_key" : "_ZN7android12renderscript13ScriptFieldIDD1Ev",
   "parameters" :
   [
    {
     "is_this_ptr" : true,
     "referenced_type" : "_ZTIPN7android12renderscript13ScriptFieldIDE"
    }
   ],
   "return_type" : "_ZTIv",
   "source_file" : "frameworks/rs/rsScript.h"
  },
  {
   "function_name" : "android::renderscript::ScriptFieldID::~ScriptFieldID",
   "linker_set_key" : "_ZN7android12renderscript13ScriptFieldIDD2Ev",
   "parameters" :
   [
    {
     "is_this_ptr" : true,
     "referenced_type" : "_ZTIPN7android12renderscript13ScriptFieldIDE"
    }
   ],
   "return_type" : "_ZTIv",
   "source_file" : "frameworks/rs/rsScript.h"
  },
  {
   "function_name" : "android::renderscript::ScriptInvokeID::~ScriptInvokeID",
   "linker_set_key" : "_ZN7android12renderscript14ScriptInvokeIDD0Ev",
   "parameters" :
   [
    {
     "is_this_ptr" : true,
     "referenced_type" : "_ZTIPN7android12renderscript14ScriptInvokeIDE"
    }
   ],
   "return_type" : "_ZTIv",
   "source_file" : "frameworks/rs/rsScript.h"
  },
  {
   "function_name" : "android::renderscript::ScriptInvokeID::~ScriptInvokeID",
   "linker_set_key" : "_ZN7android12renderscript14ScriptInvokeIDD1Ev",
   "parameters" :
   [
    {
     "is_this_ptr" : true,
     "referenced_type" : "_ZTIPN7android12renderscript14ScriptInvokeIDE"
    }
   ],
   "return_type" : "_ZTIv",
   "source_file" : "frameworks/rs/rsScript.h"
  },
  {
   "function_name" : "android::renderscript::ScriptInvokeID::~ScriptInvokeID",
   "linker_set_key" : "_ZN7android12renderscript14ScriptInvokeIDD2Ev",
   "parameters" :
   [
    {
     "is_this_ptr" : true,
     "referenced_type" : "_ZTIPN7android12renderscript14ScriptInvokeIDE"
    }
   ],
   "return_type" : "_ZTIv",
   "source_file" : "frameworks/rs/rsScript.h"
  },
  {
   "function_name" : "android::renderscript::ScriptKernelID::~ScriptKernelID",
   "linker_set_key" : "_ZN7android12renderscript14ScriptKernelIDD0Ev",
   "parameters" :
   [
    {
     "is_this_ptr" : true,
     "referenced_type" : "_ZTIPN7android12renderscript14ScriptKernelIDE"
    }
   ],
   "return_type" : "_ZTIv",
   "source_file" : "frameworks/rs/rsScript.h"
  },
  {
   "function_name" : "android::renderscript::ScriptKernelID::~ScriptKernelID",
   "linker_set_key" : "_ZN7android12renderscript14ScriptKernelIDD1Ev",
   "parameters" :
   [
    {
     "is_this_ptr" : true,
     "referenced_type" : "_ZTIPN7android12renderscript14ScriptKernelIDE"
    }
   ],
   "return_type" : "_ZTIv",
   "source_file" : "frameworks/rs/rsScript.h"
  },
  {
   "function_name" : "android::renderscript::ScriptKernelID::~ScriptKernelID",
   "linker_set_key" : "_ZN7android12renderscript14ScriptKernelIDD2Ev",
   "parameters" :
   [
    {
     "is_this_ptr" : true,
     "referenced_type" : "_ZTIPN7android12renderscript14ScriptKernelIDE"
    }
   ],
   "return_type" : "_ZTIv",
   "source_file" : "frameworks/rs/rsScript.h"
  },
  {
   "function_name" : "android::renderscript::GrallocConsumer::releaseIdx",
   "linker_set_key" : "_ZN7android12renderscript15GrallocConsumer10releaseIdxEj",
   "parameters" :
   [
    {
     "is_this_ptr" : true,
     "referenced_type" : "_ZTIPN7android12renderscript15GrallocConsumerE"
    },
    {
     "referenced_type" : "_ZTIj"
    }
   ],
   "return_type" : "_ZTIb",
   "source_file" : "frameworks/rs/rsGrallocConsumer.h"
  },
  {
   "function_name" : "android::renderscript::GrallocConsumer::unlockBuffer",
   "linker_set_key" : "_ZN7android12renderscript15GrallocConsumer12unlockBufferEj",
   "parameters" :
   [
    {
     "is_this_ptr" : true,
     "referenced_type" : "_ZTIPN7android12renderscript15GrallocConsumerE"
    },
    {
     "default_arg" : true,
     "referenced_type" : "_ZTIj"
    }
   ],
   "return_type" : "_ZTI14media_status_t",
   "source_file" : "frameworks/rs/rsGrallocConsumer.h"
  },
  {
   "function_name" : "android::renderscript::GrallocConsumer::AcquiredBuffer::AcquiredBuffer",
   "linker_set_key" : "_ZN7android12renderscript15GrallocConsumer14AcquiredBufferC1Ev",
   "parameters" :
   [
    {
     "is_this_ptr" : true,
     "referenced_type" : "_ZTIPN7android12renderscript15GrallocConsumer14AcquiredBufferE"
    }
   ],
   "return_type" : "_ZTIv",
   "source_file" : "frameworks/rs/rsGrallocConsumer.h"
  },
  {
   "function_name" : "android::renderscript::GrallocConsumer::AcquiredBuffer::AcquiredBuffer",
   "linker_set_key" : "_ZN7android12renderscript15GrallocConsumer14AcquiredBufferC2Ev",
   "parameters" :
   [
    {
     "is_this_ptr" : true,
     "referenced_type" : "_ZTIPN7android12renderscript15GrallocConsumer14AcquiredBufferE"
    }
   ],
   "return_type" : "_ZTIv",
   "source_file" : "frameworks/rs/rsGrallocConsumer.h"
  },
  {
   "function_name" : "android::renderscript::GrallocConsumer::lockNextBuffer",
   "linker_set_key" : "_ZN7android12renderscript15GrallocConsumer14lockNextBufferEj",
   "parameters" :
   [
    {
     "is_this_ptr" : true,
     "referenced_type" : "_ZTIPN7android12renderscript15GrallocConsumerE"
    },
    {
     "default_arg" : true,
     "referenced_type" : "_ZTIj"
    }
   ],
   "return_type" : "_ZTI14media_status_t",
   "source_file" : "frameworks/rs/rsGrallocConsumer.h"
  },
  {
   "function_name" : "android::renderscript::GrallocConsumer::getNativeWindow",
   "linker_set_key" : "_ZN7android12renderscript15GrallocConsumer15getNativeWindowEv",
   "parameters" :
   [
    {
     "is_this_ptr" : true,
     "referenced_type" : "_ZTIPN7android12renderscript15GrallocConsumerE"
    }
   ],
   "return_type" : "_ZTIP13ANativeWindow",
   "source_file" : "frameworks/rs/rsGrallocConsumer.h"
  },
  {
   "function_name" : "android::renderscript::GrallocConsumer::onFrameAvailable",
   "linker_set_key" : "_ZN7android12renderscript15GrallocConsumer16onFrameAvailableEPvP12AImageReader",
   "parameters" :
   [
    {
     "referenced_type" : "_ZTIPv"
    },
    {
     "referenced_type" : "_ZTIP12AImageReader"
    }
   ],
   "return_type" : "_ZTIv",
   "source_file" : "frameworks/rs/rsGrallocConsumer.h"
  },
  {
   "function_name" : "android::renderscript::GrallocConsumer::getNextAvailableIdx",
   "linker_set_key" : "_ZN7android12renderscript15GrallocConsumer19getNextAvailableIdxEPNS0_10AllocationE",
   "parameters" :
   [
    {
     "is_this_ptr" : true,
     "referenced_type" : "_ZTIPN7android12renderscript15GrallocConsumerE"
    },
    {
     "referenced_type" : "_ZTIPN7android12renderscript10AllocationE"
    }
   ],
   "return_type" : "_ZTIj",
   "source_file" : "frameworks/rs/rsGrallocConsumer.h"
  },
  {
   "function_name" : "android::renderscript::GrallocConsumer::isActive",
   "linker_set_key" : "_ZN7android12renderscript15GrallocConsumer8isActiveEv",
   "parameters" :
   [
    {
     "is_this_ptr" : true,
     "referenced_type" : "_ZTIPN7android12renderscript15GrallocConsumerE"
    }
   ],
   "return_type" : "_ZTIb",
   "source_file" : "frameworks/rs/rsGrallocConsumer.h"
  },
  {
   "function_name" : "android::renderscript::GrallocConsumer::GrallocConsumer",
   "linker_set_key" : "_ZN7android12renderscript15GrallocConsumerC1EPKNS0_7ContextEPNS0_10AllocationEj",
   "parameters" :
   [
    {
     "is_this_ptr" : true,
     "referenced_type" : "_ZTIPN7android12renderscript15GrallocConsumerE"
    },
    {
     "referenced_type" : "_ZTIPKN7android12renderscript7ContextE"
    },
    {
     "referenced_type" : "_ZTIPN7android12renderscript10AllocationE"
    },
    {
     "referenced_type" : "_ZTIj"
    }
   ],
   "return_type" : "_ZTIv",
   "source_file" : "frameworks/rs/rsGrallocConsumer.h"
  },
  {
   "function_name" : "android::renderscript::GrallocConsumer::GrallocConsumer",
   "linker_set_key" : "_ZN7android12renderscript15GrallocConsumerC2EPKNS0_7ContextEPNS0_10AllocationEj",
   "parameters" :
   [
    {
     "is_this_ptr" : true,
     "referenced_type" : "_ZTIPN7android12renderscript15GrallocConsumerE"
    },
    {
     "referenced_type" : "_ZTIPKN7android12renderscript7ContextE"
    },
    {
     "referenced_type" : "_ZTIPN7android12renderscript10AllocationE"
    },
    {
     "referenced_type" : "_ZTIj"
    }
   ],
   "return_type" : "_ZTIv",
   "source_file" : "frameworks/rs/rsGrallocConsumer.h"
  },
  {
   "function_name" : "android::renderscript::GrallocConsumer::~GrallocConsumer",
   "linker_set_key" : "_ZN7android12renderscript15GrallocConsumerD0Ev",
   "parameters" :
   [
    {
     "is_this_ptr" : true,
     "referenced_type" : "_ZTIPN7android12renderscript15GrallocConsumerE"
    }
   ],
   "return_type" : "_ZTIv",
   "source_file" : "frameworks/rs/rsGrallocConsumer.h"
  },
  {
   "function_name" : "android::renderscript::GrallocConsumer::~GrallocConsumer",
   "linker_set_key" : "_ZN7android12renderscript15GrallocConsumerD1Ev",
   "parameters" :
   [
    {
     "is_this_ptr" : true,
     "referenced_type" : "_ZTIPN7android12renderscript15GrallocConsumerE"
    }
   ],
   "return_type" : "_ZTIv",
   "source_file" : "frameworks/rs/rsGrallocConsumer.h"
  },
  {
   "function_name" : "android::renderscript::GrallocConsumer::~GrallocConsumer",
   "linker_set_key" : "_ZN7android12renderscript15GrallocConsumerD2Ev",
   "parameters" :
   [
    {
     "is_this_ptr" : true,
     "referenced_type" : "_ZTIPN7android12renderscript15GrallocConsumerE"
    }
   ],
   "return_type" : "_ZTIv",
   "source_file" : "frameworks/rs/rsGrallocConsumer.h"
  },
  {
   "function_name" : "android::renderscript::ScriptGroupBase::ScriptGroupBase",
   "linker_set_key" : "_ZN7android12renderscript15ScriptGroupBaseC2EPNS0_7ContextE",
   "parameters" :
   [
    {
     "is_this_ptr" : true,
     "referenced_type" : "_ZTIPN7android12renderscript15ScriptGroupBaseE"
    },
    {
     "referenced_type" : "_ZTIPN7android12renderscript7ContextE"
    }
   ],
   "return_type" : "_ZTIv",
   "source_file" : "frameworks/rs/rsScriptGroupBase.h"
  },
  {
   "function_name" : "android::renderscript::ScriptGroupBase::~ScriptGroupBase",
   "linker_set_key" : "_ZN7android12renderscript15ScriptGroupBaseD0Ev",
   "parameters" :
   [
    {
     "is_this_ptr" : true,
     "referenced_type" : "_ZTIPN7android12renderscript15ScriptGroupBaseE"
    }
   ],
   "return_type" : "_ZTIv",
   "source_file" : "frameworks/rs/rsScriptGroupBase.h"
  },
  {
   "function_name" : "android::renderscript::ScriptGroupBase::~ScriptGroupBase",
   "linker_set_key" : "_ZN7android12renderscript15ScriptGroupBaseD1Ev",
   "parameters" :
   [
    {
     "is_this_ptr" : true,
     "referenced_type" : "_ZTIPN7android12renderscript15ScriptGroupBaseE"
    }
   ],
   "return_type" : "_ZTIv",
   "source_file" : "frameworks/rs/rsScriptGroupBase.h"
  },
  {
   "function_name" : "android::renderscript::ScriptGroupBase::~ScriptGroupBase",
   "linker_set_key" : "_ZN7android12renderscript15ScriptGroupBaseD2Ev",
   "parameters" :
   [
    {
     "is_this_ptr" : true,
     "referenced_type" : "_ZTIPN7android12renderscript15ScriptGroupBaseE"
    }
   ],
   "return_type" : "_ZTIv",
   "source_file" : "frameworks/rs/rsScriptGroupBase.h"
  },
  {
   "function_name" : "android::renderscript::Font::Rect::set",
   "linker_set_key" : "_ZN7android12renderscript4Font4Rect3setEiiii",
   "parameters" :
   [
    {
     "is_this_ptr" : true,
     "referenced_type" : "_ZTIPN7android12renderscript4Font4RectE"
    },
    {
     "referenced_type" : "_ZTIi"
    },
    {
     "referenced_type" : "_ZTIi"
    },
    {
     "referenced_type" : "_ZTIi"
    },
    {
     "referenced_type" : "_ZTIi"
    }
   ],
   "return_type" : "_ZTIv",
   "source_file" : "frameworks/rs/rsFont.h"
  },
  {
   "function_name" : "android::renderscript::Type::getTypeRef",
   "linker_set_key" : "_ZN7android12renderscript4Type10getTypeRefEPNS0_7ContextEPKNS0_7ElementEjj",
   "parameters" :
   [
    {
     "referenced_type" : "_ZTIPN7android12renderscript7ContextE"
    },
    {
     "referenced_type" : "_ZTIPKN7android12renderscript7ElementE"
    },
    {
     "referenced_type" : "_ZTIj"
    },
    {
     "default_arg" : true,
     "referenced_type" : "_ZTIj"
    }
   ],
   "return_type" : "_ZTIN7android12renderscript13ObjectBaseRefINS0_4TypeEEE",
   "source_file" : "frameworks/rs/rsType.h"
  },
  {
   "function_name" : "android::renderscript::Type::getType",
   "linker_set_key" : "_ZN7android12renderscript4Type7getTypeEPNS0_7ContextEPKNS0_7ElementEPK18RsTypeCreateParamsm",
   "parameters" :
   [
    {
     "referenced_type" : "_ZTIPN7android12renderscript7ContextE"
    },
    {
     "referenced_type" : "_ZTIPKN7android12renderscript7ElementE"
    },
    {
     "referenced_type" : "_ZTIPK18RsTypeCreateParams"
    },
    {
     "referenced_type" : "_ZTIm"
    }
   ],
   "return_type" : "_ZTIPN7android12renderscript4TypeE",
   "source_file" : "frameworks/rs/rsType.h"
  },
  {
   "function_name" : "android::renderscript::IDBase::IDBase",
   "linker_set_key" : "_ZN7android12renderscript6IDBaseC2EPNS0_7ContextEPNS0_6ScriptEi",
   "parameters" :
   [
    {
     "is_this_ptr" : true,
     "referenced_type" : "_ZTIPN7android12renderscript6IDBaseE"
    },
    {
     "referenced_type" : "_ZTIPN7android12renderscript7ContextE"
    },
    {
     "referenced_type" : "_ZTIPN7android12renderscript6ScriptE"
    },
    {
     "referenced_type" : "_ZTIi"
    }
   ],
   "return_type" : "_ZTIv",
   "source_file" : "frameworks/rs/rsScript.h"
  },
  {
   "function_name" : "android::renderscript::IDBase::~IDBase",
   "linker_set_key" : "_ZN7android12renderscript6IDBaseD0Ev",
   "parameters" :
   [
    {
     "is_this_ptr" : true,
     "referenced_type" : "_ZTIPN7android12renderscript6IDBaseE"
    }
   ],
   "return_type" : "_ZTIv",
   "source_file" : "frameworks/rs/rsScript.h"
  },
  {
   "function_name" : "android::renderscript::IDBase::~IDBase",
   "linker_set_key" : "_ZN7android12renderscript6IDBaseD1Ev",
   "parameters" :
   [
    {
     "is_this_ptr" : true,
     "referenced_type" : "_ZTIPN7android12renderscript6IDBaseE"
    }
   ],
   "return_type" : "_ZTIv",
   "source_file" : "frameworks/rs/rsScript.h"
  },
  {
   "function_name" : "android::renderscript::IDBase::~IDBase",
   "linker_set_key" : "_ZN7android12renderscript6IDBaseD2Ev",
   "parameters" :
   [
    {
     "is_this_ptr" : true,
     "referenced_type" : "_ZTIPN7android12renderscript6IDBaseE"
    }
   ],
   "return_type" : "_ZTIv",
   "source_file" : "frameworks/rs/rsScript.h"
  },
  {
   "function_name" : "android::renderscript::Context::getCacheDir",
   "linker_set_key" : "_ZN7android12renderscript7Context11getCacheDirEv",
   "parameters" :
   [
    {
     "is_this_ptr" : true,
     "referenced_type" : "_ZTIPN7android12renderscript7ContextE"
    }
   ],
   "return_type" : "_ZTIPKc",
   "source_file" : "frameworks/rs/rsContext.h"
  },
  {
   "function_name" : "android::renderscript::Context::setOptLevel",
   "linker_set_key" : "_ZN7android12renderscript7Context11setOptLevelEj",
   "parameters" :
   [
    {
     "is_this_ptr" : true,
     "referenced_type" : "_ZTIPN7android12renderscript7ContextE"
    },
    {
     "referenced_type" : "_ZTIj"
    }
   ],
   "return_type" : "_ZTIv",
   "source_file" : "frameworks/rs/rsContext.h"
  },
  {
   "function_name" : "android::renderscript::Context::getDriverName",
   "linker_set_key" : "_ZN7android12renderscript7Context13getDriverNameEv",
   "parameters" :
   [
    {
     "is_this_ptr" : true,
     "referenced_type" : "_ZTIPN7android12renderscript7ContextE"
    }
   ],
   "return_type" : "_ZTIPKc",
   "source_file" : "frameworks/rs/rsContext.h"
  },
  {
   "function_name" : "android::renderscript::Context::hadFatalError",
   "linker_set_key" : "_ZN7android12renderscript7Context13hadFatalErrorEv",
   "parameters" :
   [
    {
     "is_this_ptr" : true,
     "referenced_type" : "_ZTIPN7android12renderscript7ContextE"
    }
   ],
   "return_type" : "_ZTIb",
   "source_file" : "frameworks/rs/rsContext.h"
  },
  {
   "function_name" : "android::renderscript::Context::isSynchronous",
   "linker_set_key" : "_ZN7android12renderscript7Context13isSynchronousEv",
   "parameters" :
   [
    {
     "is_this_ptr" : true,
     "referenced_type" : "_ZTIPN7android12renderscript7ContextE"
    }
   ],
   "return_type" : "_ZTIb",
   "source_file" : "frameworks/rs/rsContext.h"
  },
  {
   "function_name" : "android::renderscript::Context::setDriverName",
   "linker_set_key" : "_ZN7android12renderscript7Context13setDriverNameEPKc",
   "parameters" :
   [
    {
     "is_this_ptr" : true,
     "referenced_type" : "_ZTIPN7android12renderscript7ContextE"
    },
    {
     "referenced_type" : "_ZTIPKc"
    }
   ],
   "return_type" : "_ZTIv",
   "source_file" : "frameworks/rs/rsContext.h"
  },
  {
   "function_name" : "android::renderscript::Context::setContextType",
   "linker_set_key" : "_ZN7android12renderscript7Context14setContextTypeE13RsContextType",
   "parameters" :
   [
    {
     "is_this_ptr" : true,
     "referenced_type" : "_ZTIPN7android12renderscript7ContextE"
    },
    {
     "referenced_type" : "_ZTI13RsContextType"
    }
   ],
   "return_type" : "_ZTIv",
   "source_file" : "frameworks/rs/rsContext.h"
  },
  {
   "function_name" : "android::renderscript::Context::getProgramStore",
   "linker_set_key" : "_ZN7android12renderscript7Context15getProgramStoreEv",
   "parameters" :
   [
    {
     "is_this_ptr" : true,
     "referenced_type" : "_ZTIPN7android12renderscript7ContextE"
    }
   ],
   "return_type" : "_ZTIPN7android12renderscript12ProgramStoreE",
   "source_file" : "frameworks/rs/rsContext.h"
  },
  {
   "function_name" : "android::renderscript::Context::getProgramRaster",
   "linker_set_key" : "_ZN7android12renderscript7Context16getProgramRasterEv",
   "parameters" :
   [
    {
     "is_this_ptr" : true,
     "referenced_type" : "_ZTIPN7android12renderscript7ContextE"
    }
   ],
   "return_type" : "_ZTIPN7android12renderscript13ProgramRasterE",
   "source_file" : "frameworks/rs/rsContext.h"
  },
  {
   "function_name" : "android::renderscript::Context::getProgramVertex",
   "linker_set_key" : "_ZN7android12renderscript7Context16getProgramVertexEv",
   "parameters" :
   [
    {
     "is_this_ptr" : true,
     "referenced_type" : "_ZTIPN7android12renderscript7ContextE"
    }
   ],
   "return_type" : "_ZTIPN7android12renderscript13ProgramVertexE",
   "source_file" : "frameworks/rs/rsContext.h"
  },
  {
   "function_name" : "android::renderscript::Context::getProgramFragment",
   "linker_set_key" : "_ZN7android12renderscript7Context18getProgramFragmentEv",
   "parameters" :
   [
    {
     "is_this_ptr" : true,
     "referenced_type" : "_ZTIPN7android12renderscript7ContextE"
    }
   ],
   "return_type" : "_ZTIPN7android12renderscript15ProgramFragmentE",
   "source_file" : "frameworks/rs/rsContext.h"
  },
  {
   "function_name" : "android::renderscript::Context::setTargetSdkVersion",
   "linker_set_key" : "_ZN7android12renderscript7Context19setTargetSdkVersionEj",
   "parameters" :
   [
    {
     "is_this_ptr" : true,
     "referenced_type" : "_ZTIPN7android12renderscript7ContextE"
    },
    {
     "referenced_type" : "_ZTIj"
    }
   ],
   "return_type" : "_ZTIv",
   "source_file" : "frameworks/rs/rsContext.h"
  },
  {
   "function_name" : "android::renderscript::Context::setDPI",
   "linker_set_key" : "_ZN7android12renderscript7Context6setDPIEj",
   "parameters" :
   [
    {
     "is_this_ptr" : true,
     "referenced_type" : "_ZTIPN7android12renderscript7ContextE"
    },
    {
     "referenced_type" : "_ZTIj"
    }
   ],
   "return_type" : "_ZTIv",
   "source_file" : "frameworks/rs/rsContext.h"
  },
  {
   "function_name" : "android::renderscript::Context::getFont",
   "linker_set_key" : "_ZN7android12renderscript7Context7getFontEv",
   "parameters" :
   [
    {
     "is_this_ptr" : true,
     "referenced_type" : "_ZTIPN7android12renderscript7ContextE"
    }
   ],
   "return_type" : "_ZTIPN7android12renderscript4FontE",
   "source_file" : "frameworks/rs/rsContext.h"
  },
  {
   "function_name" : "android::renderscript::Element::create",
   "linker_set_key" : "_ZN7android12renderscript7Element6createEPNS0_7ContextE10RsDataType10RsDataKindbj",
   "parameters" :
   [
    {
     "referenced_type" : "_ZTIPN7android12renderscript7ContextE"
    },
    {
     "referenced_type" : "_ZTI10RsDataType"
    },
    {
     "referenced_type" : "_ZTI10RsDataKind"
    },
    {
     "referenced_type" : "_ZTIb"
    },
    {
     "referenced_type" : "_ZTIj"
    }
   ],
   "return_type" : "_ZTIPKN7android12renderscript7ElementE",
   "source_file" : "frameworks/rs/rsElement.h"
  },
  {
   "function_name" : "android::renderscript::Element::create",
   "linker_set_key" : "_ZN7android12renderscript7Element6createEPNS0_7ContextEmPPKS1_PPKcPKmPKj",
   "parameters" :
   [
    {
     "referenced_type" : "_ZTIPN7android12renderscript7ContextE"
    },
    {
     "referenced_type" : "_ZTIm"
    },
    {
     "referenced_type" : "_ZTIPPKN7android12renderscript7ElementE"
    },
    {
     "referenced_type" : "_ZTIPPKc"
    },
    {
     "default_arg" : true,
     "referenced_type" : "_ZTIPKm"
    },
    {
     "default_arg" : true,
     "referenced_type" : "_ZTIPKj"
    }
   ],
   "return_type" : "_ZTIPKN7android12renderscript7ElementE",
   "source_file" : "frameworks/rs/rsElement.h"
  },
  {
   "function_name" : "android::renderscript::IStream::loadF",
   "linker_set_key" : "_ZN7android12renderscript7IStream5loadFEv",
   "parameters" :
   [
    {
     "is_this_ptr" : true,
     "referenced_type" : "_ZTIPN7android12renderscript7IStreamE"
    }
   ],
   "return_type" : "_ZTIf",
   "source_file" : "frameworks/rs/rsStream.h"
  },
  {
   "function_name" : "android::renderscript::IStream::reset",
   "linker_set_key" : "_ZN7android12renderscript7IStream5resetEm",
   "parameters" :
   [
    {
     "is_this_ptr" : true,
     "referenced_type" : "_ZTIPN7android12renderscript7IStreamE"
    },
    {
     "referenced_type" : "_ZTIm"
    }
   ],
   "return_type" : "_ZTIv",
   "source_file" : "frameworks/rs/rsStream.h"
  },
  {
   "function_name" : "android::renderscript::IStream::reset",
   "linker_set_key" : "_ZN7android12renderscript7IStream5resetEv",
   "parameters" :
   [
    {
     "is_this_ptr" : true,
     "referenced_type" : "_ZTIPN7android12renderscript7IStreamE"
    }
   ],
   "return_type" : "_ZTIv",
   "source_file" : "frameworks/rs/rsStream.h"
  },
  {
   "function_name" : "android::renderscript::IStream::loadU8",
   "linker_set_key" : "_ZN7android12renderscript7IStream6loadU8Ev",
   "parameters" :
   [
    {
     "is_this_ptr" : true,
     "referenced_type" : "_ZTIPN7android12renderscript7IStreamE"
    }
   ],
   "return_type" : "_ZTIh",
   "source_file" : "frameworks/rs/rsStream.h"
  },
  {
   "function_name" : "android::renderscript::IStream::loadI32",
   "linker_set_key" : "_ZN7android12renderscript7IStream7loadI32Ev",
   "parameters" :
   [
    {
     "is_this_ptr" : true,
     "referenced_type" : "_ZTIPN7android12renderscript7IStreamE"
    }
   ],
   "return_type" : "_ZTIi",
   "source_file" : "frameworks/rs/rsStream.h"
  },
  {
   "function_name" : "android::renderscript::IStream::loadU16",
   "linker_set_key" : "_ZN7android12renderscript7IStream7loadU16Ev",
   "parameters" :
   [
    {
     "is_this_ptr" : true,
     "referenced_type" : "_ZTIPN7android12renderscript7IStreamE"
    }
   ],
   "return_type" : "_ZTIt",
   "source_file" : "frameworks/rs/rsStream.h"
  },
  {
   "function_name" : "android::renderscript::IStream::loadU32",
   "linker_set_key" : "_ZN7android12renderscript7IStream7loadU32Ev",
   "parameters" :
   [
    {
     "is_this_ptr" : true,
     "referenced_type" : "_ZTIPN7android12renderscript7IStreamE"
    }
   ],
   "return_type" : "_ZTIj",
   "source_file" : "frameworks/rs/rsStream.h"
  },
  {
   "function_name" : "android::renderscript::OStream::addF",
   "linker_set_key" : "_ZN7android12renderscript7OStream4addFEf",
   "parameters" :
   [
    {
     "is_this_ptr" : true,
     "referenced_type" : "_ZTIPN7android12renderscript7OStreamE"
    },
    {
     "referenced_type" : "_ZTIf"
    }
   ],
   "return_type" : "_ZTIv",
   "source_file" : "frameworks/rs/rsStream.h"
  },
  {
   "function_name" : "android::renderscript::OStream::addU8",
   "linker_set_key" : "_ZN7android12renderscript7OStream5addU8Eh",
   "parameters" :
   [
    {
     "is_this_ptr" : true,
     "referenced_type" : "_ZTIPN7android12renderscript7OStreamE"
    },
    {
     "referenced_type" : "_ZTIh"
    }
   ],
   "return_type" : "_ZTIv",
   "source_file" : "frameworks/rs/rsStream.h"
  },
  {
   "function_name" : "android::renderscript::OStream::align",
   "linker_set_key" : "_ZN7android12renderscript7OStream5alignEj",
   "parameters" :
   [
    {
     "is_this_ptr" : true,
     "referenced_type" : "_ZTIPN7android12renderscript7OStreamE"
    },
    {
     "referenced_type" : "_ZTIj"
    }
   ],
   "return_type" : "_ZTIv",
   "source_file" : "frameworks/rs/rsStream.h"
  },
  {
   "function_name" : "android::renderscript::OStream::reset",
   "linker_set_key" : "_ZN7android12renderscript7OStream5resetEm",
   "parameters" :
   [
    {
     "is_this_ptr" : true,
     "referenced_type" : "_ZTIPN7android12renderscript7OStreamE"
    },
    {
     "referenced_type" : "_ZTIm"
    }
   ],
   "return_type" : "_ZTIv",
   "source_file" : "frameworks/rs/rsStream.h"
  },
  {
   "function_name" : "android::renderscript::OStream::reset",
   "linker_set_key" : "_ZN7android12renderscript7OStream5resetEv",
   "parameters" :
   [
    {
     "is_this_ptr" : true,
     "referenced_type" : "_ZTIPN7android12renderscript7OStreamE"
    }
   ],
   "return_type" : "_ZTIv",
   "source_file" : "frameworks/rs/rsStream.h"
  },
  {
   "function_name" : "android::renderscript::OStream::addI32",
   "linker_set_key" : "_ZN7android12renderscript7OStream6addI32Ei",
   "parameters" :
   [
    {
     "is_this_ptr" : true,
     "referenced_type" : "_ZTIPN7android12renderscript7OStreamE"
    },
    {
     "referenced_type" : "_ZTIi"
    }
   ],
   "return_type" : "_ZTIv",
   "source_file" : "frameworks/rs/rsStream.h"
  },
  {
   "function_name" : "android::renderscript::OStream::addU16",
   "linker_set_key" : "_ZN7android12renderscript7OStream6addU16Et",
   "parameters" :
   [
    {
     "is_this_ptr" : true,
     "referenced_type" : "_ZTIPN7android12renderscript7OStreamE"
    },
    {
     "referenced_type" : "_ZTIt"
    }
   ],
   "return_type" : "_ZTIv",
   "source_file" : "frameworks/rs/rsStream.h"
  },
  {
   "function_name" : "android::renderscript::OStream::addU32",
   "linker_set_key" : "_ZN7android12renderscript7OStream6addU32Ej",
   "parameters" :
   [
    {
     "is_this_ptr" : true,
     "referenced_type" : "_ZTIPN7android12renderscript7OStreamE"
    },
    {
     "referenced_type" : "_ZTIj"
    }
   ],
   "return_type" : "_ZTIv",
   "source_file" : "frameworks/rs/rsStream.h"
  },
  {
   "function_name" : "android::renderscript::ScriptC::createFromStream",
   "linker_set_key" : "_ZN7android12renderscript7ScriptC16createFromStreamEPNS0_7ContextEPNS0_7IStreamE",
   "parameters" :
   [
    {
     "referenced_type" : "_ZTIPN7android12renderscript7ContextE"
    },
    {
     "referenced_type" : "_ZTIPN7android12renderscript7IStreamE"
    }
   ],
   "return_type" : "_ZTIPN7android12renderscript4TypeE",
   "source_file" : "frameworks/rs/rsScriptC.h"
  },
  {
   "function_name" : "android::renderscript::FBOCache::updateSize",
   "linker_set_key" : "_ZN7android12renderscript8FBOCache10updateSizeEv",
   "parameters" :
   [
    {
     "is_this_ptr" : true,
     "referenced_type" : "_ZTIPN7android12renderscript8FBOCacheE"
    }
   ],
   "return_type" : "_ZTIv",
   "source_file" : "frameworks/rs/rsFBOCache.h"
  },
  {
   "function_name" : "android::renderscript::ThreadIO::getMaxInlineSize",
   "linker_set_key" : "_ZN7android12renderscript8ThreadIO16getMaxInlineSizeEv",
   "parameters" :
   [
    {
     "is_this_ptr" : true,
     "referenced_type" : "_ZTIPN7android12renderscript8ThreadIOE"
    }
   ],
   "return_type" : "_ZTIm",
   "source_file" : "frameworks/rs/rsThreadIO.h"
  },
  {
   "function_name" : "android::renderscript::FontState::CacheTextureLine::CacheTextureLine",
   "linker_set_key" : "_ZN7android12renderscript9FontState16CacheTextureLineC1Ejjjj",
   "parameters" :
   [
    {
     "is_this_ptr" : true,
     "referenced_type" : "_ZTIPN7android12renderscript9FontState16CacheTextureLineE"
    },
    {
     "referenced_type" : "_ZTIj"
    },
    {
     "referenced_type" : "_ZTIj"
    },
    {
     "referenced_type" : "_ZTIj"
    },
    {
     "referenced_type" : "_ZTIj"
    }
   ],
   "return_type" : "_ZTIv",
   "source_file" : "frameworks/rs/rsFont.h"
  },
  {
   "function_name" : "android::renderscript::FontState::CacheTextureLine::CacheTextureLine",
   "linker_set_key" : "_ZN7android12renderscript9FontState16CacheTextureLineC2Ejjjj",
   "parameters" :
   [
    {
     "is_this_ptr" : true,
     "referenced_type" : "_ZTIPN7android12renderscript9FontState16CacheTextureLineE"
    },
    {
     "referenced_type" : "_ZTIj"
    },
    {
     "referenced_type" : "_ZTIj"
    },
    {
     "referenced_type" : "_ZTIj"
    },
    {
     "referenced_type" : "_ZTIj"
    }
   ],
   "return_type" : "_ZTIv",
   "source_file" : "frameworks/rs/rsFont.h"
  },
  {
   "access" : "protected",
   "function_name" : "android::renderscript::FontState::getCacheTextureType",
   "linker_set_key" : "_ZN7android12renderscript9FontState19getCacheTextureTypeEv",
   "parameters" :
   [
    {
     "is_this_ptr" : true,
     "referenced_type" : "_ZTIPN7android12renderscript9FontStateE"
    }
   ],
   "return_type" : "_ZTIPKN7android12renderscript4TypeE",
   "source_file" : "frameworks/rs/rsFont.h"
  },
  {
   "function_name" : "android::hash_type",
   "linker_set_key" : "_ZN7android9hash_typeIaEEjRKT_",
   "parameters" :
   [
    {
     "referenced_type" : "_ZTIRKa"
    }
   ],
   "return_type" : "_ZTIj",
   "source_file" : "system/core/libutils/include/utils/TypeHelpers.h",
   "template_args" : [ "_ZTIa" ]
  },
  {
   "function_name" : "android::hash_type",
   "linker_set_key" : "_ZN7android9hash_typeIbEEjRKT_",
   "parameters" :
   [
    {
     "referenced_type" : "_ZTIRKb"
    }
   ],
   "return_type" : "_ZTIj",
   "source_file" : "system/core/libutils/include/utils/TypeHelpers.h",
   "template_args" : [ "_ZTIb" ]
  },
  {
   "function_name" : "android::hash_type",
   "linker_set_key" : "_ZN7android9hash_typeIdEEjRKT_",
   "parameters" :
   [
    {
     "referenced_type" : "_ZTIRKd"
    }
   ],
   "return_type" : "_ZTIj",
   "source_file" : "system/core/libutils/include/utils/TypeHelpers.h",
   "template_args" : [ "_ZTId" ]
  },
  {
   "function_name" : "android::hash_type",
   "linker_set_key" : "_ZN7android9hash_typeIfEEjRKT_",
   "parameters" :
   [
    {
     "referenced_type" : "_ZTIRKf"
    }
   ],
   "return_type" : "_ZTIj",
   "source_file" : "system/core/libutils/include/utils/TypeHelpers.h",
   "template_args" : [ "_ZTIf" ]
  },
  {
   "function_name" : "android::hash_type",
   "linker_set_key" : "_ZN7android9hash_typeIhEEjRKT_",
   "parameters" :
   [
    {
     "referenced_type" : "_ZTIRKh"
    }
   ],
   "return_type" : "_ZTIj",
   "source_file" : "system/core/libutils/include/utils/TypeHelpers.h",
   "template_args" : [ "_ZTIh" ]
  },
  {
   "function_name" : "android::hash_type",
   "linker_set_key" : "_ZN7android9hash_typeIiEEjRKT_",
   "parameters" :
   [
    {
     "referenced_type" : "_ZTIRKi"
    }
   ],
   "return_type" : "_ZTIj",
   "source_file" : "system/core/libutils/include/utils/TypeHelpers.h",
   "template_args" : [ "_ZTIi" ]
  },
  {
   "function_name" : "android::hash_type",
   "linker_set_key" : "_ZN7android9hash_typeIjEEjRKT_",
   "parameters" :
   [
    {
     "referenced_type" : "_ZTIRKj"
    }
   ],
   "return_type" : "_ZTIj",
   "source_file" : "system/core/libutils/include/utils/TypeHelpers.h",
   "template_args" : [ "_ZTIj" ]
  },
  {
   "function_name" : "android::hash_type",
   "linker_set_key" : "_ZN7android9hash_typeIlEEjRKT_",
   "parameters" :
   [
    {
     "referenced_type" : "_ZTIRKl"
    }
   ],
   "return_type" : "_ZTIj",
   "source_file" : "system/core/libutils/include/utils/TypeHelpers.h",
   "template_args" : [ "_ZTIl" ]
  },
  {
   "function_name" : "android::hash_type",
   "linker_set_key" : "_ZN7android9hash_typeImEEjRKT_",
   "parameters" :
   [
    {
     "referenced_type" : "_ZTIRKm"
    }
   ],
   "return_type" : "_ZTIj",
   "source_file" : "system/core/libutils/include/utils/TypeHelpers.h",
   "template_args" : [ "_ZTIm" ]
  },
  {
   "function_name" : "android::hash_type",
   "linker_set_key" : "_ZN7android9hash_typeIsEEjRKT_",
   "parameters" :
   [
    {
     "referenced_type" : "_ZTIRKs"
    }
   ],
   "return_type" : "_ZTIj",
   "source_file" : "system/core/libutils/include/utils/TypeHelpers.h",
   "template_args" : [ "_ZTIs" ]
  },
  {
   "function_name" : "android::hash_type",
   "linker_set_key" : "_ZN7android9hash_typeItEEjRKT_",
   "parameters" :
   [
    {
     "referenced_type" : "_ZTIRKt"
    }
   ],
   "return_type" : "_ZTIj",
   "source_file" : "system/core/libutils/include/utils/TypeHelpers.h",
   "template_args" : [ "_ZTIt" ]
  },
  {
   "function_name" : "log_msg::id",
   "linker_set_key" : "_ZN7log_msg2idEv",
   "parameters" :
   [
    {
     "is_this_ptr" : true,
     "referenced_type" : "_ZTIP7log_msg"
    }
   ],
   "return_type" : "_ZTI6log_id",
   "source_file" : "system/logging/liblog/include_vndk/log/log_read.h"
  },
  {
   "function_name" : "log_msg::len",
   "linker_set_key" : "_ZN7log_msg3lenEv",
   "parameters" :
   [
    {
     "is_this_ptr" : true,
     "referenced_type" : "_ZTIP7log_msg"
    }
   ],
   "return_type" : "_ZTIj",
   "source_file" : "system/logging/liblog/include_vndk/log/log_read.h"
  },
  {
   "function_name" : "log_msg::msg",
   "linker_set_key" : "_ZN7log_msg3msgEv",
   "parameters" :
   [
    {
     "is_this_ptr" : true,
     "referenced_type" : "_ZTIP7log_msg"
    }
   ],
   "return_type" : "_ZTIPc",
   "source_file" : "system/logging/liblog/include_vndk/log/log_read.h"
  },
  {
   "function_name" : "android::VectorImpl::size",
   "linker_set_key" : "_ZNK7android10VectorImpl4sizeEv",
   "parameters" :
   [
    {
     "is_this_ptr" : true,
     "referenced_type" : "_ZTIPKN7android10VectorImplE"
    }
   ],
   "return_type" : "_ZTIm",
   "source_file" : "system/core/libutils/include/utils/VectorImpl.h"
  },
  {
   "function_name" : "android::VectorImpl::isEmpty",
   "linker_set_key" : "_ZNK7android10VectorImpl7isEmptyEv",
   "parameters" :
   [
    {
     "is_this_ptr" : true,
     "referenced_type" : "_ZTIPKN7android10VectorImplE"
    }
   ],
   "return_type" : "_ZTIb",
   "source_file" : "system/core/libutils/include/utils/VectorImpl.h"
  },
  {
   "function_name" : "android::VectorImpl::arrayImpl",
   "linker_set_key" : "_ZNK7android10VectorImpl9arrayImplEv",
   "parameters" :
   [
    {
     "is_this_ptr" : true,
     "referenced_type" : "_ZTIPKN7android10VectorImplE"
    }
   ],
   "return_type" : "_ZTIPKv",
   "source_file" : "system/core/libutils/include/utils/VectorImpl.h"
  },
  {
   "function_name" : "android::renderscript::Allocation::getClassId",
   "linker_set_key" : "_ZNK7android12renderscript10Allocation10getClassIdEv",
   "parameters" :
   [
    {
     "is_this_ptr" : true,
     "referenced_type" : "_ZTIPKN7android12renderscript10AllocationE"
    }
   ],
   "return_type" : "_ZTI12RsA3DClassID",
   "source_file" : "frameworks/rs/rsAllocation.h"
  },
  {
   "function_name" : "android::renderscript::Allocation::getIsScript",
   "linker_set_key" : "_ZNK7android12renderscript10Allocation11getIsScriptEv",
   "parameters" :
   [
    {
     "is_this_ptr" : true,
     "referenced_type" : "_ZTIPKN7android12renderscript10AllocationE"
    }
   ],
   "return_type" : "_ZTIb",
   "source_file" : "frameworks/rs/rsAllocation.h"
  },
  {
   "function_name" : "android::renderscript::Allocation::getIsTexture",
   "linker_set_key" : "_ZNK7android12renderscript10Allocation12getIsTextureEv",
   "parameters" :
   [
    {
     "is_this_ptr" : true,
     "referenced_type" : "_ZTIPKN7android12renderscript10AllocationE"
    }
   ],
   "return_type" : "_ZTIb",
   "source_file" : "frameworks/rs/rsAllocation.h"
  },
  {
   "function_name" : "android::renderscript::Allocation::getIsBufferObject",
   "linker_set_key" : "_ZNK7android12renderscript10Allocation17getIsBufferObjectEv",
   "parameters" :
   [
    {
     "is_this_ptr" : true,
     "referenced_type" : "_ZTIPKN7android12renderscript10AllocationE"
    }
   ],
   "return_type" : "_ZTIb",
   "source_file" : "frameworks/rs/rsAllocation.h"
  },
  {
   "function_name" : "android::renderscript::Allocation::getIsRenderTarget",
   "linker_set_key" : "_ZNK7android12renderscript10Allocation17getIsRenderTargetEv",
   "parameters" :
   [
    {
     "is_this_ptr" : true,
     "referenced_type" : "_ZTIPKN7android12renderscript10AllocationE"
    }
   ],
   "return_type" : "_ZTIb",
   "source_file" : "frameworks/rs/rsAllocation.h"
  },
  {
   "function_name" : "android::renderscript::Allocation::getPointerUnchecked",
   "linker_set_key" : "_ZNK7android12renderscript10Allocation19getPointerUncheckedEjjjj23RsAllocationCubemapFacejjjj",
   "parameters" :
   [
    {
     "is_this_ptr" : true,
     "referenced_type" : "_ZTIPKN7android12renderscript10AllocationE"
    },
    {
     "referenced_type" : "_ZTIj"
    },
    {
     "referenced_type" : "_ZTIj"
    },
    {
     "default_arg" : true,
     "referenced_type" : "_ZTIj"
    },
    {
     "default_arg" : true,
     "referenced_type" : "_ZTIj"
    },
    {
     "default_arg" : true,
     "referenced_type" : "_ZTI23RsAllocationCubemapFace"
    },
    {
     "default_arg" : true,
     "referenced_type" : "_ZTIj"
    },
    {
     "default_arg" : true,
     "referenced_type" : "_ZTIj"
    },
    {
     "default_arg" : true,
     "referenced_type" : "_ZTIj"
    },
    {
     "default_arg" : true,
     "referenced_type" : "_ZTIj"
    }
   ],
   "return_type" : "_ZTIPv",
   "source_file" : "frameworks/rs/rsAllocation.h"
  },
  {
   "function_name" : "android::renderscript::Allocation::getHasGraphicsMipmaps",
   "linker_set_key" : "_ZNK7android12renderscript10Allocation21getHasGraphicsMipmapsEv",
   "parameters" :
   [
    {
     "is_this_ptr" : true,
     "referenced_type" : "_ZTIPKN7android12renderscript10AllocationE"
    }
   ],
   "return_type" : "_ZTIb",
   "source_file" : "frameworks/rs/rsAllocation.h"
  },
  {
   "function_name" : "android::renderscript::Allocation::getType",
   "linker_set_key" : "_ZNK7android12renderscript10Allocation7getTypeEv",
   "parameters" :
   [
    {
     "is_this_ptr" : true,
     "referenced_type" : "_ZTIPKN7android12renderscript10AllocationE"
    }
   ],
   "return_type" : "_ZTIPKN7android12renderscript4TypeE",
   "source_file" : "frameworks/rs/rsAllocation.h"
  },
  {
   "function_name" : "android::renderscript::ObjectBase::getContext",
   "linker_set_key" : "_ZNK7android12renderscript10ObjectBase10getContextEv",
   "parameters" :
   [
    {
     "is_this_ptr" : true,
     "referenced_type" : "_ZTIPKN7android12renderscript10ObjectBaseE"
    }
   ],
   "return_type" : "_ZTIPN7android12renderscript7ContextE",
   "source_file" : "frameworks/rs/rsObjectBase.h"
  },
  {
   "function_name" : "android::renderscript::ObjectBase::getName",
   "linker_set_key" : "_ZNK7android12renderscript10ObjectBase7getNameEv",
   "parameters" :
   [
    {
     "is_this_ptr" : true,
     "referenced_type" : "_ZTIPKN7android12renderscript10ObjectBaseE"
    }
   ],
   "return_type" : "_ZTIPKc",
   "source_file" : "frameworks/rs/rsObjectBase.h"
  },
  {
   "function_name" : "android::renderscript::ProgramBase::forceDirty",
   "linker_set_key" : "_ZNK7android12renderscript11ProgramBase10forceDirtyEv",
   "parameters" :
   [
    {
     "is_this_ptr" : true,
     "referenced_type" : "_ZTIPKN7android12renderscript11ProgramBaseE"
    }
   ],
   "return_type" : "_ZTIv",
   "source_file" : "frameworks/rs/rsProgramBase.h"
  },
  {
   "function_name" : "android::renderscript::ScriptGroup::getApiVersion",
   "linker_set_key" : "_ZNK7android12renderscript11ScriptGroup13getApiVersionEv",
   "parameters" :
   [
    {
     "is_this_ptr" : true,
     "referenced_type" : "_ZTIPKN7android12renderscript11ScriptGroupE"
    }
   ],
   "return_type" : "_ZTIN7android12renderscript15ScriptGroupBase14SG_API_VersionE",
   "source_file" : "frameworks/rs/rsScriptGroup.h"
  },
  {
   "function_name" : "android::renderscript::ProgramStore::getClassId",
   "linker_set_key" : "_ZNK7android12renderscript12ProgramStore10getClassIdEv",
   "parameters" :
   [
    {
     "is_this_ptr" : true,
     "referenced_type" : "_ZTIPKN7android12renderscript12ProgramStoreE"
    }
   ],
   "return_type" : "_ZTI12RsA3DClassID",
   "source_file" : "frameworks/rs/rsProgramStore.h"
  },
  {
   "function_name" : "android::renderscript::ObjectBaseRef<const android::renderscript::Element>::get",
   "linker_set_key" : "_ZNK7android12renderscript13ObjectBaseRefIKNS0_7ElementEE3getEv",
   "parameters" :
   [
    {
     "is_this_ptr" : true,
     "referenced_type" : "_ZTIPKN7android12renderscript13ObjectBaseRefIKNS0_7ElementEEE"
    }
   ],
   "return_type" : "_ZTIPKN7android12renderscript7ElementE",
   "source_file" : "frameworks/rs/rsObjectBase.h"
  },
  {
   "function_name" : "android::renderscript::ObjectBaseRef<const android::renderscript::Element>::operator->",
   "linker_set_key" : "_ZNK7android12renderscript13ObjectBaseRefIKNS0_7ElementEEptEv",
   "parameters" :
   [
    {
     "is_this_ptr" : true,
     "referenced_type" : "_ZTIPKN7android12renderscript13ObjectBaseRefIKNS0_7ElementEEE"
    }
   ],
   "return_type" : "_ZTIPKN7android12renderscript7ElementE",
   "source_file" : "frameworks/rs/rsObjectBase.h"
  },
  {
   "function_name" : "android::renderscript::ObjectBaseRef<android::renderscript::Allocation>::operator->",
   "linker_set_key" : "_ZNK7android12renderscript13ObjectBaseRefINS0_10AllocationEEptEv",
   "parameters" :
   [
    {
     "is_this_ptr" : true,
     "referenced_type" : "_ZTIPKN7android12renderscript13ObjectBaseRefINS0_10AllocationEEE"
    }
   ],
   "return_type" : "_ZTIPN7android12renderscript10AllocationE",
   "source_file" : "frameworks/rs/rsObjectBase.h"
  },
  {
   "function_name" : "android::renderscript::ObjectBaseRef<android::renderscript::ProgramStore>::get",
   "linker_set_key" : "_ZNK7android12renderscript13ObjectBaseRefINS0_12ProgramStoreEE3getEv",
   "parameters" :
   [
    {
     "is_this_ptr" : true,
     "referenced_type" : "_ZTIPKN7android12renderscript13ObjectBaseRefINS0_12ProgramStoreEEE"
    }
   ],
   "return_type" : "_ZTIPN7android12renderscript12ProgramStoreE",
   "source_file" : "frameworks/rs/rsObjectBase.h"
  },
  {
   "function_name" : "android::renderscript::ObjectBaseRef<android::renderscript::ProgramRaster>::get",
   "linker_set_key" : "_ZNK7android12renderscript13ObjectBaseRefINS0_13ProgramRasterEE3getEv",
   "parameters" :
   [
    {
     "is_this_ptr" : true,
     "referenced_type" : "_ZTIPKN7android12renderscript13ObjectBaseRefINS0_13ProgramRasterEEE"
    }
   ],
   "return_type" : "_ZTIPN7android12renderscript13ProgramRasterE",
   "source_file" : "frameworks/rs/rsObjectBase.h"
  },
  {
   "function_name" : "android::renderscript::ObjectBaseRef<android::renderscript::ProgramVertex>::get",
   "linker_set_key" : "_ZNK7android12renderscript13ObjectBaseRefINS0_13ProgramVertexEE3getEv",
   "parameters" :
   [
    {
     "is_this_ptr" : true,
     "referenced_type" : "_ZTIPKN7android12renderscript13ObjectBaseRefINS0_13ProgramVertexEEE"
    }
   ],
   "return_type" : "_ZTIPN7android12renderscript13ProgramVertexE",
   "source_file" : "frameworks/rs/rsObjectBase.h"
  },
  {
   "function_name" : "android::renderscript::ObjectBaseRef<android::renderscript::ProgramFragment>::get",
   "linker_set_key" : "_ZNK7android12renderscript13ObjectBaseRefINS0_15ProgramFragmentEE3getEv",
   "parameters" :
   [
    {
     "is_this_ptr" : true,
     "referenced_type" : "_ZTIPKN7android12renderscript13ObjectBaseRefINS0_15ProgramFragmentEEE"
    }
   ],
   "return_type" : "_ZTIPN7android12renderscript15ProgramFragmentE",
   "source_file" : "frameworks/rs/rsObjectBase.h"
  },
  {
   "function_name" : "android::renderscript::ObjectBaseRef<android::renderscript::Font>::get",
   "linker_set_key" : "_ZNK7android12renderscript13ObjectBaseRefINS0_4FontEE3getEv",
   "parameters" :
   [
    {
     "is_this_ptr" : true,
     "referenced_type" : "_ZTIPKN7android12renderscript13ObjectBaseRefINS0_4FontEEE"
    }
   ],
   "return_type" : "_ZTIPN7android12renderscript4FontE",
   "source_file" : "frameworks/rs/rsObjectBase.h"
  },
  {
   "function_name" : "android::renderscript::ObjectBaseRef<android::renderscript::Type>::get",
   "linker_set_key" : "_ZNK7android12renderscript13ObjectBaseRefINS0_4TypeEE3getEv",
   "parameters" :
   [
    {
     "is_this_ptr" : true,
     "referenced_type" : "_ZTIPKN7android12renderscript13ObjectBaseRefINS0_4TypeEEE"
    }
   ],
   "return_type" : "_ZTIPN7android12renderscript4TypeE",
   "source_file" : "frameworks/rs/rsObjectBase.h"
  },
  {
   "function_name" : "android::renderscript::ObjectBaseRef<android::renderscript::Type>::operator->",
   "linker_set_key" : "_ZNK7android12renderscript13ObjectBaseRefINS0_4TypeEEptEv",
   "parameters" :
   [
    {
     "is_this_ptr" : true,
     "referenced_type" : "_ZTIPKN7android12renderscript13ObjectBaseRefINS0_4TypeEEE"
    }
   ],
   "return_type" : "_ZTIPN7android12renderscript4TypeE",
   "source_file" : "frameworks/rs/rsObjectBase.h"
  },
  {
   "function_name" : "android::renderscript::ProgramRaster::getClassId",
   "linker_set_key" : "_ZNK7android12renderscript13ProgramRaster10getClassIdEv",
   "parameters" :
   [
    {
     "is_this_ptr" : true,
     "referenced_type" : "_ZTIPKN7android12renderscript13ProgramRasterE"
    }
   ],
   "return_type" : "_ZTI12RsA3DClassID",
   "source_file" : "frameworks/rs/rsProgramRaster.h"
  },
  {
   "function_name" : "android::renderscript::ProgramVertex::getClassId",
   "linker_set_key" : "_ZNK7android12renderscript13ProgramVertex10getClassIdEv",
   "parameters" :
   [
    {
     "is_this_ptr" : true,
     "referenced_type" : "_ZTIPKN7android12renderscript13ProgramVertexE"
    }
   ],
   "return_type" : "_ZTI12RsA3DClassID",
   "source_file" : "frameworks/rs/rsProgramVertex.h"
  },
  {
   "function_name" : "android::renderscript::ProgramFragment::getClassId",
   "linker_set_key" : "_ZNK7android12renderscript15ProgramFragment10getClassIdEv",
   "parameters" :
   [
    {
     "is_this_ptr" : true,
     "referenced_type" : "_ZTIPKN7android12renderscript15ProgramFragmentE"
    }
   ],
   "return_type" : "_ZTI12RsA3DClassID",
   "source_file" : "frameworks/rs/rsProgramFragment.h"
  },
  {
   "function_name" : "android::renderscript::ScriptGroupBase::getClassId",
   "linker_set_key" : "_ZNK7android12renderscript15ScriptGroupBase10getClassIdEv",
   "parameters" :
   [
    {
     "is_this_ptr" : true,
     "referenced_type" : "_ZTIPKN7android12renderscript15ScriptGroupBaseE"
    }
   ],
   "return_type" : "_ZTI12RsA3DClassID",
   "source_file" : "frameworks/rs/rsScriptGroupBase.h"
  },
  {
   "function_name" : "android::renderscript::ScriptGroupBase::serialize",
   "linker_set_key" : "_ZNK7android12renderscript15ScriptGroupBase9serializeEPNS0_7ContextEPNS0_7OStreamE",
   "parameters" :
   [
    {
     "is_this_ptr" : true,
     "referenced_type" : "_ZTIPKN7android12renderscript15ScriptGroupBaseE"
    },
    {
     "referenced_type" : "_ZTIPN7android12renderscript7ContextE"
    },
    {
     "referenced_type" : "_ZTIPN7android12renderscript7OStreamE"
    }
   ],
   "return_type" : "_ZTIv",
   "source_file" : "frameworks/rs/rsScriptGroupBase.h"
  },
  {
   "function_name" : "android::renderscript::Font::getClassId",
   "linker_set_key" : "_ZNK7android12renderscript4Font10getClassIdEv",
   "parameters" :
   [
    {
     "is_this_ptr" : true,
     "referenced_type" : "_ZTIPKN7android12renderscript4FontE"
    }
   ],
   "return_type" : "_ZTI12RsA3DClassID",
   "source_file" : "frameworks/rs/rsFont.h"
  },
  {
   "function_name" : "android::renderscript::Font::serialize",
   "linker_set_key" : "_ZNK7android12renderscript4Font9serializeEPNS0_7ContextEPNS0_7OStreamE",
   "parameters" :
   [
    {
     "is_this_ptr" : true,
     "referenced_type" : "_ZTIPKN7android12renderscript4FontE"
    },
    {
     "referenced_type" : "_ZTIPN7android12renderscript7ContextE"
    },
    {
     "referenced_type" : "_ZTIPN7android12renderscript7OStreamE"
    }
   ],
   "return_type" : "_ZTIv",
   "source_file" : "frameworks/rs/rsFont.h"
  },
  {
   "function_name" : "android::renderscript::Type::getClassId",
   "linker_set_key" : "_ZNK7android12renderscript4Type10getClassIdEv",
   "parameters" :
   [
    {
     "is_this_ptr" : true,
     "referenced_type" : "_ZTIPKN7android12renderscript4TypeE"
    }
   ],
   "return_type" : "_ZTI12RsA3DClassID",
   "source_file" : "frameworks/rs/rsType.h"
  },
  {
   "function_name" : "android::renderscript::Type::getElement",
   "linker_set_key" : "_ZNK7android12renderscript4Type10getElementEv",
   "parameters" :
   [
    {
     "is_this_ptr" : true,
     "referenced_type" : "_ZTIPKN7android12renderscript4TypeE"
    }
   ],
   "return_type" : "_ZTIPKN7android12renderscript7ElementE",
   "source_file" : "frameworks/rs/rsType.h"
  },
  {
   "function_name" : "android::renderscript::Type::getLODDimX",
   "linker_set_key" : "_ZNK7android12renderscript4Type10getLODDimXEj",
   "parameters" :
   [
    {
     "is_this_ptr" : true,
     "referenced_type" : "_ZTIPKN7android12renderscript4TypeE"
    },
    {
     "referenced_type" : "_ZTIj"
    }
   ],
   "return_type" : "_ZTIj",
   "source_file" : "frameworks/rs/rsType.h"
  },
  {
   "function_name" : "android::renderscript::Type::getLODDimY",
   "linker_set_key" : "_ZNK7android12renderscript4Type10getLODDimYEj",
   "parameters" :
   [
    {
     "is_this_ptr" : true,
     "referenced_type" : "_ZTIPKN7android12renderscript4TypeE"
    },
    {
     "referenced_type" : "_ZTIj"
    }
   ],
   "return_type" : "_ZTIj",
   "source_file" : "frameworks/rs/rsType.h"
  },
  {
   "function_name" : "android::renderscript::Type::getLODDimZ",
   "linker_set_key" : "_ZNK7android12renderscript4Type10getLODDimZEj",
   "parameters" :
   [
    {
     "is_this_ptr" : true,
     "referenced_type" : "_ZTIPKN7android12renderscript4TypeE"
    },
    {
     "referenced_type" : "_ZTIj"
    }
   ],
   "return_type" : "_ZTIj",
   "source_file" : "frameworks/rs/rsType.h"
  },
  {
   "function_name" : "android::renderscript::Type::getDimFaces",
   "linker_set_key" : "_ZNK7android12renderscript4Type11getDimFacesEv",
   "parameters" :
   [
    {
     "is_this_ptr" : true,
     "referenced_type" : "_ZTIPKN7android12renderscript4TypeE"
    }
   ],
   "return_type" : "_ZTIb",
   "source_file" : "frameworks/rs/rsType.h"
  },
  {
   "function_name" : "android::renderscript::Type::getLODCount",
   "linker_set_key" : "_ZNK7android12renderscript4Type11getLODCountEv",
   "parameters" :
   [
    {
     "is_this_ptr" : true,
     "referenced_type" : "_ZTIPKN7android12renderscript4TypeE"
    }
   ],
   "return_type" : "_ZTIj",
   "source_file" : "frameworks/rs/rsType.h"
  },
  {
   "function_name" : "android::renderscript::Type::getCellCount",
   "linker_set_key" : "_ZNK7android12renderscript4Type12getCellCountEv",
   "parameters" :
   [
    {
     "is_this_ptr" : true,
     "referenced_type" : "_ZTIPKN7android12renderscript4TypeE"
    }
   ],
   "return_type" : "_ZTIm",
   "source_file" : "frameworks/rs/rsType.h"
  },
  {
   "function_name" : "android::renderscript::Type::getPackedSizeBytes",
   "linker_set_key" : "_ZNK7android12renderscript4Type18getPackedSizeBytesEv",
   "parameters" :
   [
    {
     "is_this_ptr" : true,
     "referenced_type" : "_ZTIPKN7android12renderscript4TypeE"
    }
   ],
   "return_type" : "_ZTIm",
   "source_file" : "frameworks/rs/rsType.h"
  },
  {
   "function_name" : "android::renderscript::Type::getElementSizeBytes",
   "linker_set_key" : "_ZNK7android12renderscript4Type19getElementSizeBytesEv",
   "parameters" :
   [
    {
     "is_this_ptr" : true,
     "referenced_type" : "_ZTIPKN7android12renderscript4TypeE"
    }
   ],
   "return_type" : "_ZTIm",
   "source_file" : "frameworks/rs/rsType.h"
  },
  {
   "function_name" : "android::renderscript::Type::getDimX",
   "linker_set_key" : "_ZNK7android12renderscript4Type7getDimXEv",
   "parameters" :
   [
    {
     "is_this_ptr" : true,
     "referenced_type" : "_ZTIPKN7android12renderscript4TypeE"
    }
   ],
   "return_type" : "_ZTIj",
   "source_file" : "frameworks/rs/rsType.h"
  },
  {
   "function_name" : "android::renderscript::Type::getDimY",
   "linker_set_key" : "_ZNK7android12renderscript4Type7getDimYEv",
   "parameters" :
   [
    {
     "is_this_ptr" : true,
     "referenced_type" : "_ZTIPKN7android12renderscript4TypeE"
    }
   ],
   "return_type" : "_ZTIj",
   "source_file" : "frameworks/rs/rsType.h"
  },
  {
   "function_name" : "android::renderscript::Type::getDimZ",
   "linker_set_key" : "_ZNK7android12renderscript4Type7getDimZEv",
   "parameters" :
   [
    {
     "is_this_ptr" : true,
     "referenced_type" : "_ZTIPKN7android12renderscript4TypeE"
    }
   ],
   "return_type" : "_ZTIj",
   "source_file" : "frameworks/rs/rsType.h"
  },
  {
   "function_name" : "android::renderscript::Type::getArray",
   "linker_set_key" : "_ZNK7android12renderscript4Type8getArrayEj",
   "parameters" :
   [
    {
     "is_this_ptr" : true,
     "referenced_type" : "_ZTIPKN7android12renderscript4TypeE"
    },
    {
     "referenced_type" : "_ZTIj"
    }
   ],
   "return_type" : "_ZTIj",
   "source_file" : "frameworks/rs/rsType.h"
  },
  {
   "function_name" : "android::renderscript::Type::getDimLOD",
   "linker_set_key" : "_ZNK7android12renderscript4Type9getDimLODEv",
   "parameters" :
   [
    {
     "is_this_ptr" : true,
     "referenced_type" : "_ZTIPKN7android12renderscript4TypeE"
    }
   ],
   "return_type" : "_ZTIb",
   "source_file" : "frameworks/rs/rsType.h"
  },
  {
   "function_name" : "android::renderscript::Type::getDimYuv",
   "linker_set_key" : "_ZNK7android12renderscript4Type9getDimYuvEv",
   "parameters" :
   [
    {
     "is_this_ptr" : true,
     "referenced_type" : "_ZTIPKN7android12renderscript4TypeE"
    }
   ],
   "return_type" : "_ZTIj",
   "source_file" : "frameworks/rs/rsType.h"
  },
  {
   "function_name" : "android::renderscript::IDBase::serialize",
   "linker_set_key" : "_ZNK7android12renderscript6IDBase9serializeEPNS0_7ContextEPNS0_7OStreamE",
   "parameters" :
   [
    {
     "is_this_ptr" : true,
     "referenced_type" : "_ZTIPKN7android12renderscript6IDBaseE"
    },
    {
     "referenced_type" : "_ZTIPN7android12renderscript7ContextE"
    },
    {
     "referenced_type" : "_ZTIPN7android12renderscript7OStreamE"
    }
   ],
   "return_type" : "_ZTIv",
   "source_file" : "frameworks/rs/rsScript.h"
  },
  {
   "function_name" : "android::renderscript::Script::getApiLevel",
   "linker_set_key" : "_ZNK7android12renderscript6Script11getApiLevelEv",
   "parameters" :
   [
    {
     "is_this_ptr" : true,
     "referenced_type" : "_ZTIPKN7android12renderscript6ScriptE"
    }
   ],
   "return_type" : "_ZTIj",
   "source_file" : "frameworks/rs/rsScript.h"
  },
  {
   "function_name" : "android::renderscript::Script::isIntrinsic",
   "linker_set_key" : "_ZNK7android12renderscript6Script11isIntrinsicEv",
   "parameters" :
   [
    {
     "is_this_ptr" : true,
     "referenced_type" : "_ZTIPKN7android12renderscript6ScriptE"
    }
   ],
   "return_type" : "_ZTIb",
   "source_file" : "frameworks/rs/rsScript.h"
  },
  {
   "function_name" : "android::renderscript::Script::hasObjectSlots",
   "linker_set_key" : "_ZNK7android12renderscript6Script14hasObjectSlotsEv",
   "parameters" :
   [
    {
     "is_this_ptr" : true,
     "referenced_type" : "_ZTIPKN7android12renderscript6ScriptE"
    }
   ],
   "return_type" : "_ZTIb",
   "source_file" : "frameworks/rs/rsScript.h"
  },
  {
   "function_name" : "android::renderscript::Context::getOptLevel",
   "linker_set_key" : "_ZNK7android12renderscript7Context11getOptLevelEv",
   "parameters" :
   [
    {
     "is_this_ptr" : true,
     "referenced_type" : "_ZTIPKN7android12renderscript7ContextE"
    }
   ],
   "return_type" : "_ZTIj",
   "source_file" : "frameworks/rs/rsContext.h"
  },
  {
   "function_name" : "android::renderscript::Context::setWatchdogGL",
   "linker_set_key" : "_ZNK7android12renderscript7Context13setWatchdogGLEPKcjS3_",
   "parameters" :
   [
    {
     "is_this_ptr" : true,
     "referenced_type" : "_ZTIPKN7android12renderscript7ContextE"
    },
    {
     "referenced_type" : "_ZTIPKc"
    },
    {
     "referenced_type" : "_ZTIj"
    },
    {
     "referenced_type" : "_ZTIPKc"
    }
   ],
   "return_type" : "_ZTIv",
   "source_file" : "frameworks/rs/rsContext.h"
  },
  {
   "function_name" : "android::renderscript::Context::getContextType",
   "linker_set_key" : "_ZNK7android12renderscript7Context14getContextTypeEv",
   "parameters" :
   [
    {
     "is_this_ptr" : true,
     "referenced_type" : "_ZTIPKN7android12renderscript7ContextE"
    }
   ],
   "return_type" : "_ZTI13RsContextType",
   "source_file" : "frameworks/rs/rsContext.h"
  },
  {
   "function_name" : "android::renderscript::Context::getDefaultFont",
   "linker_set_key" : "_ZNK7android12renderscript7Context14getDefaultFontEv",
   "parameters" :
   [
    {
     "is_this_ptr" : true,
     "referenced_type" : "_ZTIPKN7android12renderscript7ContextE"
    }
   ],
   "return_type" : "_ZTIPN7android12renderscript4FontE",
   "source_file" : "frameworks/rs/rsContext.h"
  },
  {
   "function_name" : "android::renderscript::Context::getTargetSdkVersion",
   "linker_set_key" : "_ZNK7android12renderscript7Context19getTargetSdkVersionEv",
   "parameters" :
   [
    {
     "is_this_ptr" : true,
     "referenced_type" : "_ZTIPKN7android12renderscript7ContextE"
    }
   ],
   "return_type" : "_ZTIj",
   "source_file" : "frameworks/rs/rsContext.h"
  },
  {
   "function_name" : "android::renderscript::Context::getDefaultProgramStore",
   "linker_set_key" : "_ZNK7android12renderscript7Context22getDefaultProgramStoreEv",
   "parameters" :
   [
    {
     "is_this_ptr" : true,
     "referenced_type" : "_ZTIPKN7android12renderscript7ContextE"
    }
   ],
   "return_type" : "_ZTIPN7android12renderscript12ProgramStoreE",
   "source_file" : "frameworks/rs/rsContext.h"
  },
  {
   "function_name" : "android::renderscript::Context::getDefaultProgramRaster",
   "linker_set_key" : "_ZNK7android12renderscript7Context23getDefaultProgramRasterEv",
   "parameters" :
   [
    {
     "is_this_ptr" : true,
     "referenced_type" : "_ZTIPKN7android12renderscript7ContextE"
    }
   ],
   "return_type" : "_ZTIPN7android12renderscript13ProgramRasterE",
   "source_file" : "frameworks/rs/rsContext.h"
  },
  {
   "function_name" : "android::renderscript::Context::getDefaultProgramVertex",
   "linker_set_key" : "_ZNK7android12renderscript7Context23getDefaultProgramVertexEv",
   "parameters" :
   [
    {
     "is_this_ptr" : true,
     "referenced_type" : "_ZTIPKN7android12renderscript7ContextE"
    }
   ],
   "return_type" : "_ZTIPN7android12renderscript13ProgramVertexE",
   "source_file" : "frameworks/rs/rsContext.h"
  },
  {
   "function_name" : "android::renderscript::Context::getDefaultProgramFragment",
   "linker_set_key" : "_ZNK7android12renderscript7Context25getDefaultProgramFragmentEv",
   "parameters" :
   [
    {
     "is_this_ptr" : true,
     "referenced_type" : "_ZTIPKN7android12renderscript7ContextE"
    }
   ],
   "return_type" : "_ZTIPN7android12renderscript15ProgramFragmentE",
   "source_file" : "frameworks/rs/rsContext.h"
  },
  {
   "function_name" : "android::renderscript::Context::getDPI",
   "linker_set_key" : "_ZNK7android12renderscript7Context6getDPIEv",
   "parameters" :
   [
    {
     "is_this_ptr" : true,
     "referenced_type" : "_ZTIPKN7android12renderscript7ContextE"
    }
   ],
   "return_type" : "_ZTIj",
   "source_file" : "frameworks/rs/rsContext.h"
  },
  {
   "function_name" : "android::renderscript::Context::getWidth",
   "linker_set_key" : "_ZNK7android12renderscript7Context8getWidthEv",
   "parameters" :
   [
    {
     "is_this_ptr" : true,
     "referenced_type" : "_ZTIPKN7android12renderscript7ContextE"
    }
   ],
   "return_type" : "_ZTIj",
   "source_file" : "frameworks/rs/rsContext.h"
  },
  {
   "function_name" : "android::renderscript::Context::getHeight",
   "linker_set_key" : "_ZNK7android12renderscript7Context9getHeightEv",
   "parameters" :
   [
    {
     "is_this_ptr" : true,
     "referenced_type" : "_ZTIPKN7android12renderscript7ContextE"
    }
   ],
   "return_type" : "_ZTIj",
   "source_file" : "frameworks/rs/rsContext.h"
  },
  {
   "function_name" : "android::renderscript::Element::getClassId",
   "linker_set_key" : "_ZNK7android12renderscript7Element10getClassIdEv",
   "parameters" :
   [
    {
     "is_this_ptr" : true,
     "referenced_type" : "_ZTIPKN7android12renderscript7ElementE"
    }
   ],
   "return_type" : "_ZTI12RsA3DClassID",
   "source_file" : "frameworks/rs/rsElement.h"
  },
  {
   "function_name" : "android::renderscript::Element::getComponent",
   "linker_set_key" : "_ZNK7android12renderscript7Element12getComponentEv",
   "parameters" :
   [
    {
     "is_this_ptr" : true,
     "referenced_type" : "_ZTIPKN7android12renderscript7ElementE"
    }
   ],
   "return_type" : "_ZTIRKN7android12renderscript9ComponentE",
   "source_file" : "frameworks/rs/rsElement.h"
  },
  {
   "function_name" : "android::renderscript::Element::getFieldName",
   "linker_set_key" : "_ZNK7android12renderscript7Element12getFieldNameEj",
   "parameters" :
   [
    {
     "is_this_ptr" : true,
     "referenced_type" : "_ZTIPKN7android12renderscript7ElementE"
    },
    {
     "referenced_type" : "_ZTIj"
    }
   ],
   "return_type" : "_ZTIPKc",
   "source_file" : "frameworks/rs/rsElement.h"
  },
  {
   "function_name" : "android::renderscript::Element::getSizeBytes",
   "linker_set_key" : "_ZNK7android12renderscript7Element12getSizeBytesEv",
   "parameters" :
   [
    {
     "is_this_ptr" : true,
     "referenced_type" : "_ZTIPKN7android12renderscript7ElementE"
    }
   ],
   "return_type" : "_ZTIm",
   "source_file" : "frameworks/rs/rsElement.h"
  },
  {
   "function_name" : "android::renderscript::Element::getFieldCount",
   "linker_set_key" : "_ZNK7android12renderscript7Element13getFieldCountEv",
   "parameters" :
   [
    {
     "is_this_ptr" : true,
     "referenced_type" : "_ZTIPKN7android12renderscript7ElementE"
    }
   ],
   "return_type" : "_ZTIj",
   "source_file" : "frameworks/rs/rsElement.h"
  },
  {
   "function_name" : "android::renderscript::Element::getVectorSize",
   "linker_set_key" : "_ZNK7android12renderscript7Element13getVectorSizeEv",
   "parameters" :
   [
    {
     "is_this_ptr" : true,
     "referenced_type" : "_ZTIPKN7android12renderscript7ElementE"
    }
   ],
   "return_type" : "_ZTIj",
   "source_file" : "frameworks/rs/rsElement.h"
  },
  {
   "function_name" : "android::renderscript::Element::getBitsUnpadded",
   "linker_set_key" : "_ZNK7android12renderscript7Element15getBitsUnpaddedEv",
   "parameters" :
   [
    {
     "is_this_ptr" : true,
     "referenced_type" : "_ZTIPKN7android12renderscript7ElementE"
    }
   ],
   "return_type" : "_ZTIj",
   "source_file" : "frameworks/rs/rsElement.h"
  },
  {
   "function_name" : "android::renderscript::Element::getHasReferences",
   "linker_set_key" : "_ZNK7android12renderscript7Element16getHasReferencesEv",
   "parameters" :
   [
    {
     "is_this_ptr" : true,
     "referenced_type" : "_ZTIPKN7android12renderscript7ElementE"
    }
   ],
   "return_type" : "_ZTIb",
   "source_file" : "frameworks/rs/rsElement.h"
  },
  {
   "function_name" : "android::renderscript::Element::getFieldArraySize",
   "linker_set_key" : "_ZNK7android12renderscript7Element17getFieldArraySizeEj",
   "parameters" :
   [
    {
     "is_this_ptr" : true,
     "referenced_type" : "_ZTIPKN7android12renderscript7ElementE"
    },
    {
     "referenced_type" : "_ZTIj"
    }
   ],
   "return_type" : "_ZTIj",
   "source_file" : "frameworks/rs/rsElement.h"
  },
  {
   "function_name" : "android::renderscript::Element::getFieldOffsetBits",
   "linker_set_key" : "_ZNK7android12renderscript7Element18getFieldOffsetBitsEj",
   "parameters" :
   [
    {
     "is_this_ptr" : true,
     "referenced_type" : "_ZTIPKN7android12renderscript7ElementE"
    },
    {
     "referenced_type" : "_ZTIj"
    }
   ],
   "return_type" : "_ZTIm",
   "source_file" : "frameworks/rs/rsElement.h"
  },
  {
   "function_name" : "android::renderscript::Element::getFieldOffsetBytes",
   "linker_set_key" : "_ZNK7android12renderscript7Element19getFieldOffsetBytesEj",
   "parameters" :
   [
    {
     "is_this_ptr" : true,
     "referenced_type" : "_ZTIPKN7android12renderscript7ElementE"
    },
    {
     "referenced_type" : "_ZTIj"
    }
   ],
   "return_type" : "_ZTIm",
   "source_file" : "frameworks/rs/rsElement.h"
  },
  {
   "function_name" : "android::renderscript::Element::getSizeBytesUnpadded",
   "linker_set_key" : "_ZNK7android12renderscript7Element20getSizeBytesUnpaddedEv",
   "parameters" :
   [
    {
     "is_this_ptr" : true,
     "referenced_type" : "_ZTIPKN7android12renderscript7ElementE"
    }
   ],
   "return_type" : "_ZTIm",
   "source_file" : "frameworks/rs/rsElement.h"
  },
  {
   "function_name" : "android::renderscript::Element::getFieldOffsetBytesUnpadded",
   "linker_set_key" : "_ZNK7android12renderscript7Element27getFieldOffsetBytesUnpaddedEj",
   "parameters" :
   [
    {
     "is_this_ptr" : true,
     "referenced_type" : "_ZTIPKN7android12renderscript7ElementE"
    },
    {
     "referenced_type" : "_ZTIj"
    }
   ],
   "return_type" : "_ZTIm",
   "source_file" : "frameworks/rs/rsElement.h"
  },
  {
   "function_name" : "android::renderscript::Element::getBits",
   "linker_set_key" : "_ZNK7android12renderscript7Element7getBitsEv",
   "parameters" :
   [
    {
     "is_this_ptr" : true,
     "referenced_type" : "_ZTIPKN7android12renderscript7ElementE"
    }
   ],
   "return_type" : "_ZTIj",
   "source_file" : "frameworks/rs/rsElement.h"
  },
  {
   "function_name" : "android::renderscript::Element::getKind",
   "linker_set_key" : "_ZNK7android12renderscript7Element7getKindEv",
   "parameters" :
   [
    {
     "is_this_ptr" : true,
     "referenced_type" : "_ZTIPKN7android12renderscript7ElementE"
    }
   ],
   "return_type" : "_ZTI10RsDataKind",
   "source_file" : "frameworks/rs/rsElement.h"
  },
  {
   "function_name" : "android::renderscript::Element::getType",
   "linker_set_key" : "_ZNK7android12renderscript7Element7getTypeEv",
   "parameters" :
   [
    {
     "is_this_ptr" : true,
     "referenced_type" : "_ZTIPKN7android12renderscript7ElementE"
    }
   ],
   "return_type" : "_ZTI10RsDataType",
   "source_file" : "frameworks/rs/rsElement.h"
  },
  {
   "function_name" : "android::renderscript::Element::getField",
   "linker_set_key" : "_ZNK7android12renderscript7Element8getFieldEj",
   "parameters" :
   [
    {
     "is_this_ptr" : true,
     "referenced_type" : "_ZTIPKN7android12renderscript7ElementE"
    },
    {
     "referenced_type" : "_ZTIj"
    }
   ],
   "return_type" : "_ZTIPKN7android12renderscript7ElementE",
   "source_file" : "frameworks/rs/rsElement.h"
  },
  {
   "function_name" : "android::renderscript::IStream::getPos",
   "linker_set_key" : "_ZNK7android12renderscript7IStream6getPosEv",
   "parameters" :
   [
    {
     "is_this_ptr" : true,
     "referenced_type" : "_ZTIPKN7android12renderscript7IStreamE"
    }
   ],
   "return_type" : "_ZTIm",
   "source_file" : "frameworks/rs/rsStream.h"
  },
  {
   "function_name" : "android::renderscript::IStream::getPtr",
   "linker_set_key" : "_ZNK7android12renderscript7IStream6getPtrEv",
   "parameters" :
   [
    {
     "is_this_ptr" : true,
     "referenced_type" : "_ZTIPKN7android12renderscript7IStreamE"
    }
   ],
   "return_type" : "_ZTIPKh",
   "source_file" : "frameworks/rs/rsStream.h"
  },
  {
   "function_name" : "android::renderscript::OStream::getPos",
   "linker_set_key" : "_ZNK7android12renderscript7OStream6getPosEv",
   "parameters" :
   [
    {
     "is_this_ptr" : true,
     "referenced_type" : "_ZTIPKN7android12renderscript7OStreamE"
    }
   ],
   "return_type" : "_ZTIm",
   "source_file" : "frameworks/rs/rsStream.h"
  },
  {
   "function_name" : "android::renderscript::OStream::getPtr",
   "linker_set_key" : "_ZNK7android12renderscript7OStream6getPtrEv",
   "parameters" :
   [
    {
     "is_this_ptr" : true,
     "referenced_type" : "_ZTIPKN7android12renderscript7OStreamE"
    }
   ],
   "return_type" : "_ZTIPKh",
   "source_file" : "frameworks/rs/rsStream.h"
  },
  {
   "function_name" : "android::renderscript::Program::isUserProgram",
   "linker_set_key" : "_ZNK7android12renderscript7Program13isUserProgramEv",
   "parameters" :
   [
    {
     "is_this_ptr" : true,
     "referenced_type" : "_ZTIPKN7android12renderscript7ProgramE"
    }
   ],
   "return_type" : "_ZTIb",
   "source_file" : "frameworks/rs/rsProgram.h"
  },
  {
   "function_name" : "android::renderscript::Sampler::getClassId",
   "linker_set_key" : "_ZNK7android12renderscript7Sampler10getClassIdEv",
   "parameters" :
   [
    {
     "is_this_ptr" : true,
     "referenced_type" : "_ZTIPKN7android12renderscript7SamplerE"
    }
   ],
   "return_type" : "_ZTI12RsA3DClassID",
   "source_file" : "frameworks/rs/rsSampler.h"
  },
  {
   "function_name" : "android::renderscript::ScriptC::getClassId",
   "linker_set_key" : "_ZNK7android12renderscript7ScriptC10getClassIdEv",
   "parameters" :
   [
    {
     "is_this_ptr" : true,
     "referenced_type" : "_ZTIPKN7android12renderscript7ScriptCE"
    }
   ],
   "return_type" : "_ZTI12RsA3DClassID",
   "source_file" : "frameworks/rs/rsScriptC.h"
  },
  {
   "function_name" : "android::renderscript::ScriptC::serialize",
   "linker_set_key" : "_ZNK7android12renderscript7ScriptC9serializeEPNS0_7ContextEPNS0_7OStreamE",
   "parameters" :
   [
    {
     "is_this_ptr" : true,
     "referenced_type" : "_ZTIPKN7android12renderscript7ScriptCE"
    },
    {
     "referenced_type" : "_ZTIPN7android12renderscript7ContextE"
    },
    {
     "referenced_type" : "_ZTIPN7android12renderscript7OStreamE"
    }
   ],
   "return_type" : "_ZTIv",
   "source_file" : "frameworks/rs/rsScriptC.h"
  },
  {
   "function_name" : "android::renderscript::Component::getIsFloat",
   "linker_set_key" : "_ZNK7android12renderscript9Component10getIsFloatEv",
   "parameters" :
   [
    {
     "is_this_ptr" : true,
     "referenced_type" : "_ZTIPKN7android12renderscript9ComponentE"
    }
   ],
   "return_type" : "_ZTIb",
   "source_file" : "frameworks/rs/rsComponent.h"
  },
  {
   "function_name" : "android::renderscript::Component::getIsSigned",
   "linker_set_key" : "_ZNK7android12renderscript9Component11getIsSignedEv",
   "parameters" :
   [
    {
     "is_this_ptr" : true,
     "referenced_type" : "_ZTIPKN7android12renderscript9ComponentE"
    }
   ],
   "return_type" : "_ZTIb",
   "source_file" : "frameworks/rs/rsComponent.h"
  },
  {
   "function_name" : "android::renderscript::Component::getVectorSize",
   "linker_set_key" : "_ZNK7android12renderscript9Component13getVectorSizeEv",
   "parameters" :
   [
    {
     "is_this_ptr" : true,
     "referenced_type" : "_ZTIPKN7android12renderscript9ComponentE"
    }
   ],
   "return_type" : "_ZTIj",
   "source_file" : "frameworks/rs/rsComponent.h"
  },
  {
   "function_name" : "android::renderscript::Component::getBitsUnpadded",
   "linker_set_key" : "_ZNK7android12renderscript9Component15getBitsUnpaddedEv",
   "parameters" :
   [
    {
     "is_this_ptr" : true,
     "referenced_type" : "_ZTIPKN7android12renderscript9ComponentE"
    }
   ],
   "return_type" : "_ZTIj",
   "source_file" : "frameworks/rs/rsComponent.h"
  },
  {
   "function_name" : "android::renderscript::Component::getIsNormalized",
   "linker_set_key" : "_ZNK7android12renderscript9Component15getIsNormalizedEv",
   "parameters" :
   [
    {
     "is_this_ptr" : true,
     "referenced_type" : "_ZTIPKN7android12renderscript9ComponentE"
    }
   ],
   "return_type" : "_ZTIb",
   "source_file" : "frameworks/rs/rsComponent.h"
  },
  {
   "function_name" : "android::renderscript::Component::getBits",
   "linker_set_key" : "_ZNK7android12renderscript9Component7getBitsEv",
   "parameters" :
   [
    {
     "is_this_ptr" : true,
     "referenced_type" : "_ZTIPKN7android12renderscript9ComponentE"
    }
   ],
   "return_type" : "_ZTIj",
   "source_file" : "frameworks/rs/rsComponent.h"
  },
  {
   "function_name" : "android::renderscript::Component::getKind",
   "linker_set_key" : "_ZNK7android12renderscript9Component7getKindEv",
   "parameters" :
   [
    {
     "is_this_ptr" : true,
     "referenced_type" : "_ZTIPKN7android12renderscript9ComponentE"
    }
   ],
   "return_type" : "_ZTI10RsDataKind",
   "source_file" : "frameworks/rs/rsComponent.h"
  },
  {
   "function_name" : "android::renderscript::Component::getType",
   "linker_set_key" : "_ZNK7android12renderscript9Component7getTypeEv",
   "parameters" :
   [
    {
     "is_this_ptr" : true,
     "referenced_type" : "_ZTIPKN7android12renderscript9ComponentE"
    }
   ],
   "return_type" : "_ZTI10RsDataType",
   "source_file" : "frameworks/rs/rsComponent.h"
  },
  {
   "function_name" : "log_msg::nsec",
   "linker_set_key" : "_ZNK7log_msg4nsecEv",
   "parameters" :
   [
    {
     "is_this_ptr" : true,
     "referenced_type" : "_ZTIPK7log_msg"
    }
   ],
   "return_type" : "_ZTIm",
   "source_file" : "system/logging/liblog/include_vndk/log/log_read.h"
  },
  {
   "function_name" : "std::exception_ptr::operator bool",
   "linker_set_key" : "_ZNKSt13exception_ptrcvbEv",
   "parameters" :
   [
    {
     "is_this_ptr" : true,
     "referenced_type" : "_ZTIPKSt13exception_ptr"
    }
   ],
   "return_type" : "_ZTIb",
   "source_file" : "external/libcxx/include/exception"
  },
  {
   "function_name" : "std::initializer_list<bool>::end",
   "linker_set_key" : "_ZNKSt16initializer_listIbE3endEv",
   "parameters" :
   [
    {
     "is_this_ptr" : true,
     "referenced_type" : "_ZTIPKSt16initializer_listIbE"
    }
   ],
   "return_type" : "_ZTIPKb",
   "source_file" : "external/libcxx/include/initializer_list"
  },
  {
   "function_name" : "std::initializer_list<bool>::size",
   "linker_set_key" : "_ZNKSt16initializer_listIbE4sizeEv",
   "parameters" :
   [
    {
     "is_this_ptr" : true,
     "referenced_type" : "_ZTIPKSt16initializer_listIbE"
    }
   ],
   "return_type" : "_ZTIm",
   "source_file" : "external/libcxx/include/initializer_list"
  },
  {
   "function_name" : "std::initializer_list<bool>::begin",
   "linker_set_key" : "_ZNKSt16initializer_listIbE5beginEv",
   "parameters" :
   [
    {
     "is_this_ptr" : true,
     "referenced_type" : "_ZTIPKSt16initializer_listIbE"
    }
   ],
   "return_type" : "_ZTIPKb",
   "source_file" : "external/libcxx/include/initializer_list"
  },
  {
   "function_name" : "std::nested_exception::nested_ptr",
   "linker_set_key" : "_ZNKSt16nested_exception10nested_ptrEv",
   "parameters" :
   [
    {
     "is_this_ptr" : true,
     "referenced_type" : "_ZTIPKSt16nested_exception"
    }
   ],
   "return_type" : "_ZTISt13exception_ptr",
   "source_file" : "external/libcxx/include/exception"
  },
  {
   "access" : "private",
   "function_name" : "std::__1::basic_string<char32_t, std::__1::char_traits<char32_t>, std::__1::allocator<char32_t>>::__get_long_cap",
   "linker_set_key" : "_ZNKSt3__112basic_stringIDiNS_11char_traitsIDiEENS_9allocatorIDiEEE14__get_long_capEv",
   "parameters" :
   [
    {
     "is_this_ptr" : true,
     "referenced_type" : "_ZTIPKNSt3__112basic_stringIDiNS_11char_traitsIDiEENS_9allocatorIDiEEEE"
    }
   ],
   "return_type" : "_ZTIm",
   "source_file" : "external/libcxx/include/string"
  },
  {
   "access" : "private",
   "function_name" : "std::__1::basic_string<char32_t, std::__1::char_traits<char32_t>, std::__1::allocator<char32_t>>::__alloc",
   "linker_set_key" : "_ZNKSt3__112basic_stringIDiNS_11char_traitsIDiEENS_9allocatorIDiEEE7__allocEv",
   "parameters" :
   [
    {
     "is_this_ptr" : true,
     "referenced_type" : "_ZTIPKNSt3__112basic_stringIDiNS_11char_traitsIDiEENS_9allocatorIDiEEEE"
    }
   ],
   "return_type" : "_ZTIRKNSt3__19allocatorIDiEE",
   "source_file" : "external/libcxx/include/string"
  },
  {
   "function_name" : "std::__1::basic_string<char32_t, std::__1::char_traits<char32_t>, std::__1::allocator<char32_t>>::max_size",
   "linker_set_key" : "_ZNKSt3__112basic_stringIDiNS_11char_traitsIDiEENS_9allocatorIDiEEE8max_sizeEv",
   "parameters" :
   [
    {
     "is_this_ptr" : true,
     "referenced_type" : "_ZTIPKNSt3__112basic_stringIDiNS_11char_traitsIDiEENS_9allocatorIDiEEEE"
    }
   ],
   "return_type" : "_ZTIm",
   "source_file" : "external/libcxx/include/string"
  },
  {
   "function_name" : "std::__1::basic_string<char32_t, std::__1::char_traits<char32_t>, std::__1::allocator<char32_t>>::__is_long",
   "linker_set_key" : "_ZNKSt3__112basic_stringIDiNS_11char_traitsIDiEENS_9allocatorIDiEEE9__is_longEv",
   "parameters" :
   [
    {
     "is_this_ptr" : true,
     "referenced_type" : "_ZTIPKNSt3__112basic_stringIDiNS_11char_traitsIDiEENS_9allocatorIDiEEEE"
    }
   ],
   "return_type" : "_ZTIb",
   "source_file" : "external/libcxx/include/string"
  },
  {
   "access" : "private",
   "function_name" : "std::__1::basic_string<char16_t, std::__1::char_traits<char16_t>, std::__1::allocator<char16_t>>::__get_long_cap",
   "linker_set_key" : "_ZNKSt3__112basic_stringIDsNS_11char_traitsIDsEENS_9allocatorIDsEEE14__get_long_capEv",
   "parameters" :
   [
    {
     "is_this_ptr" : true,
     "referenced_type" : "_ZTIPKNSt3__112basic_stringIDsNS_11char_traitsIDsEENS_9allocatorIDsEEEE"
    }
   ],
   "return_type" : "_ZTIm",
   "source_file" : "external/libcxx/include/string"
  },
  {
   "access" : "private",
   "function_name" : "std::__1::basic_string<char16_t, std::__1::char_traits<char16_t>, std::__1::allocator<char16_t>>::__alloc",
   "linker_set_key" : "_ZNKSt3__112basic_stringIDsNS_11char_traitsIDsEENS_9allocatorIDsEEE7__allocEv",
   "parameters" :
   [
    {
     "is_this_ptr" : true,
     "referenced_type" : "_ZTIPKNSt3__112basic_stringIDsNS_11char_traitsIDsEENS_9allocatorIDsEEEE"
    }
   ],
   "return_type" : "_ZTIRKNSt3__19allocatorIDsEE",
   "source_file" : "external/libcxx/include/string"
  },
  {
   "function_name" : "std::__1::basic_string<char16_t, std::__1::char_traits<char16_t>, std::__1::allocator<char16_t>>::max_size",
   "linker_set_key" : "_ZNKSt3__112basic_stringIDsNS_11char_traitsIDsEENS_9allocatorIDsEEE8max_sizeEv",
   "parameters" :
   [
    {
     "is_this_ptr" : true,
     "referenced_type" : "_ZTIPKNSt3__112basic_stringIDsNS_11char_traitsIDsEENS_9allocatorIDsEEEE"
    }
   ],
   "return_type" : "_ZTIm",
   "source_file" : "external/libcxx/include/string"
  },
  {
   "function_name" : "std::__1::basic_string<char16_t, std::__1::char_traits<char16_t>, std::__1::allocator<char16_t>>::__is_long",
   "linker_set_key" : "_ZNKSt3__112basic_stringIDsNS_11char_traitsIDsEENS_9allocatorIDsEEE9__is_longEv",
   "parameters" :
   [
    {
     "is_this_ptr" : true,
     "referenced_type" : "_ZTIPKNSt3__112basic_stringIDsNS_11char_traitsIDsEENS_9allocatorIDsEEEE"
    }
   ],
   "return_type" : "_ZTIb",
   "source_file" : "external/libcxx/include/string"
  },
  {
   "access" : "private",
   "function_name" : "std::__1::basic_string<char, std::__1::char_traits<char>, std::__1::allocator<char>>::__get_long_cap",
   "linker_set_key" : "_ZNKSt3__112basic_stringIcNS_11char_traitsIcEENS_9allocatorIcEEE14__get_long_capEv",
   "parameters" :
   [
    {
     "is_this_ptr" : true,
     "referenced_type" : "_ZTIPKNSt3__112basic_stringIcNS_11char_traitsIcEENS_9allocatorIcEEEE"
    }
   ],
   "return_type" : "_ZTIm",
   "source_file" : "external/libcxx/include/string"
  },
  {
   "access" : "private",
   "function_name" : "std::__1::basic_string<char, std::__1::char_traits<char>, std::__1::allocator<char>>::__alloc",
   "linker_set_key" : "_ZNKSt3__112basic_stringIcNS_11char_traitsIcEENS_9allocatorIcEEE7__allocEv",
   "parameters" :
   [
    {
     "is_this_ptr" : true,
     "referenced_type" : "_ZTIPKNSt3__112basic_stringIcNS_11char_traitsIcEENS_9allocatorIcEEEE"
    }
   ],
   "return_type" : "_ZTIRKNSt3__19allocatorIcEE",
   "source_file" : "external/libcxx/include/string"
  },
  {
   "function_name" : "std::__1::basic_string<char, std::__1::char_traits<char>, std::__1::allocator<char>>::max_size",
   "linker_set_key" : "_ZNKSt3__112basic_stringIcNS_11char_traitsIcEENS_9allocatorIcEEE8max_sizeEv",
   "parameters" :
   [
    {
     "is_this_ptr" : true,
     "referenced_type" : "_ZTIPKNSt3__112basic_stringIcNS_11char_traitsIcEENS_9allocatorIcEEEE"
    }
   ],
   "return_type" : "_ZTIm",
   "source_file" : "external/libcxx/include/string"
  },
  {
   "function_name" : "std::__1::basic_string<char, std::__1::char_traits<char>, std::__1::allocator<char>>::__is_long",
   "linker_set_key" : "_ZNKSt3__112basic_stringIcNS_11char_traitsIcEENS_9allocatorIcEEE9__is_longEv",
   "parameters" :
   [
    {
     "is_this_ptr" : true,
     "referenced_type" : "_ZTIPKNSt3__112basic_stringIcNS_11char_traitsIcEENS_9allocatorIcEEEE"
    }
   ],
   "return_type" : "_ZTIb",
   "source_file" : "external/libcxx/include/string"
  },
  {
   "access" : "private",
   "function_name" : "std::__1::basic_string<wchar_t, std::__1::char_traits<wchar_t>, std::__1::allocator<wchar_t>>::__get_long_cap",
   "linker_set_key" : "_ZNKSt3__112basic_stringIwNS_11char_traitsIwEENS_9allocatorIwEEE14__get_long_capEv",
   "parameters" :
   [
    {
     "is_this_ptr" : true,
     "referenced_type" : "_ZTIPKNSt3__112basic_stringIwNS_11char_traitsIwEENS_9allocatorIwEEEE"
    }
   ],
   "return_type" : "_ZTIm",
   "source_file" : "external/libcxx/include/string"
  },
  {
   "access" : "private",
   "function_name" : "std::__1::basic_string<wchar_t, std::__1::char_traits<wchar_t>, std::__1::allocator<wchar_t>>::__alloc",
   "linker_set_key" : "_ZNKSt3__112basic_stringIwNS_11char_traitsIwEENS_9allocatorIwEEE7__allocEv",
   "parameters" :
   [
    {
     "is_this_ptr" : true,
     "referenced_type" : "_ZTIPKNSt3__112basic_stringIwNS_11char_traitsIwEENS_9allocatorIwEEEE"
    }
   ],
   "return_type" : "_ZTIRKNSt3__19allocatorIwEE",
   "source_file" : "external/libcxx/include/string"
  },
  {
   "function_name" : "std::__1::basic_string<wchar_t, std::__1::char_traits<wchar_t>, std::__1::allocator<wchar_t>>::max_size",
   "linker_set_key" : "_ZNKSt3__112basic_stringIwNS_11char_traitsIwEENS_9allocatorIwEEE8max_sizeEv",
   "parameters" :
   [
    {
     "is_this_ptr" : true,
     "referenced_type" : "_ZTIPKNSt3__112basic_stringIwNS_11char_traitsIwEENS_9allocatorIwEEEE"
    }
   ],
   "return_type" : "_ZTIm",
   "source_file" : "external/libcxx/include/string"
  },
  {
   "function_name" : "std::__1::basic_string<wchar_t, std::__1::char_traits<wchar_t>, std::__1::allocator<wchar_t>>::__is_long",
   "linker_set_key" : "_ZNKSt3__112basic_stringIwNS_11char_traitsIwEENS_9allocatorIwEEE9__is_longEv",
   "parameters" :
   [
    {
     "is_this_ptr" : true,
     "referenced_type" : "_ZTIPKNSt3__112basic_stringIwNS_11char_traitsIwEENS_9allocatorIwEEEE"
    }
   ],
   "return_type" : "_ZTIb",
   "source_file" : "external/libcxx/include/string"
  },
  {
   "function_name" : "std::__1::__scalar_hash<std::__1::_PairT, 2>::operator()",
   "linker_set_key" : "_ZNKSt3__113__scalar_hashINS_6_PairTELm2EEclES1_",
   "parameters" :
   [
    {
     "is_this_ptr" : true,
     "referenced_type" : "_ZTIPKNSt3__113__scalar_hashINS_6_PairTELm2EEE"
    },
    {
     "referenced_type" : "_ZTINSt3__16_PairTE"
    }
   ],
   "return_type" : "_ZTIm",
   "source_file" : "external/libcxx/include/utility"
  },
  {
   "function_name" : "std::__1::__scalar_hash<double, 1>::operator()",
   "linker_set_key" : "_ZNKSt3__113__scalar_hashIdLm1EEclEd",
   "parameters" :
   [
    {
     "is_this_ptr" : true,
     "referenced_type" : "_ZTIPKNSt3__113__scalar_hashIdLm1EEE"
    },
    {
     "referenced_type" : "_ZTId"
    }
   ],
   "return_type" : "_ZTIm",
   "source_file" : "external/libcxx/include/utility"
  },
  {
   "function_name" : "std::__1::__scalar_hash<long double, 2>::operator()",
   "linker_set_key" : "_ZNKSt3__113__scalar_hashIeLm2EEclEe",
   "parameters" :
   [
    {
     "is_this_ptr" : true,
     "referenced_type" : "_ZTIPKNSt3__113__scalar_hashIeLm2EEE"
    },
    {
     "referenced_type" : "_ZTIe"
    }
   ],
   "return_type" : "_ZTIm",
   "source_file" : "external/libcxx/include/utility"
  },
  {
   "function_name" : "std::__1::__scalar_hash<float, 0>::operator()",
   "linker_set_key" : "_ZNKSt3__113__scalar_hashIfLm0EEclEf",
   "parameters" :
   [
    {
     "is_this_ptr" : true,
     "referenced_type" : "_ZTIPKNSt3__113__scalar_hashIfLm0EEE"
    },
    {
     "referenced_type" : "_ZTIf"
    }
   ],
   "return_type" : "_ZTIm",
   "source_file" : "external/libcxx/include/utility"
  },
  {
   "function_name" : "std::__1::__shared_count::use_count",
   "linker_set_key" : "_ZNKSt3__114__shared_count9use_countEv",
   "parameters" :
   [
    {
     "is_this_ptr" : true,
     "referenced_type" : "_ZTIPKNSt3__114__shared_countE"
    }
   ],
   "return_type" : "_ZTIl",
   "source_file" : "external/libcxx/include/memory"
  },
  {
   "function_name" : "std::__1::pointer_safety::operator int",
   "linker_set_key" : "_ZNKSt3__114pointer_safetycviEv",
   "parameters" :
   [
    {
     "is_this_ptr" : true,
     "referenced_type" : "_ZTIPKNSt3__114pointer_safetyE"
    }
   ],
   "return_type" : "_ZTIi",
   "source_file" : "external/libcxx/include/memory"
  },
  {
   "function_name" : "std::__1::__compressed_pair<std::__1::basic_string<char32_t, std::__1::char_traits<char32_t>, std::__1::allocator<char32_t>>::__rep, std::__1::allocator<char32_t>>::first",
   "linker_set_key" : "_ZNKSt3__117__compressed_pairINS_12basic_stringIDiNS_11char_traitsIDiEENS_9allocatorIDiEEE5__repES5_E5firstEv",
   "parameters" :
   [
    {
     "is_this_ptr" : true,
     "referenced_type" : "_ZTIPKNSt3__117__compressed_pairINS_12basic_stringIDiNS_11char_traitsIDiEENS_9allocatorIDiEEE5__repES5_EE"
    }
   ],
   "return_type" : "_ZTIRKNSt3__112basic_stringIDiNS_11char_traitsIDiEENS_9allocatorIDiEEE5__repE",
   "source_file" : "external/libcxx/include/memory"
  },
  {
   "function_name" : "std::__1::__compressed_pair<std::__1::basic_string<char32_t, std::__1::char_traits<char32_t>, std::__1::allocator<char32_t>>::__rep, std::__1::allocator<char32_t>>::second",
   "linker_set_key" : "_ZNKSt3__117__compressed_pairINS_12basic_stringIDiNS_11char_traitsIDiEENS_9allocatorIDiEEE5__repES5_E6secondEv",
   "parameters" :
   [
    {
     "is_this_ptr" : true,
     "referenced_type" : "_ZTIPKNSt3__117__compressed_pairINS_12basic_stringIDiNS_11char_traitsIDiEENS_9allocatorIDiEEE5__repES5_EE"
    }
   ],
   "return_type" : "_ZTIRKNSt3__19allocatorIDiEE",
   "source_file" : "external/libcxx/include/memory"
  },
  {
   "function_name" : "std::__1::__compressed_pair<std::__1::basic_string<char16_t, std::__1::char_traits<char16_t>, std::__1::allocator<char16_t>>::__rep, std::__1::allocator<char16_t>>::first",
   "linker_set_key" : "_ZNKSt3__117__compressed_pairINS_12basic_stringIDsNS_11char_traitsIDsEENS_9allocatorIDsEEE5__repES5_E5firstEv",
   "parameters" :
   [
    {
     "is_this_ptr" : true,
     "referenced_type" : "_ZTIPKNSt3__117__compressed_pairINS_12basic_stringIDsNS_11char_traitsIDsEENS_9allocatorIDsEEE5__repES5_EE"
    }
   ],
   "return_type" : "_ZTIRKNSt3__112basic_stringIDsNS_11char_traitsIDsEENS_9allocatorIDsEEE5__repE",
   "source_file" : "external/libcxx/include/memory"
  },
  {
   "function_name" : "std::__1::__compressed_pair<std::__1::basic_string<char16_t, std::__1::char_traits<char16_t>, std::__1::allocator<char16_t>>::__rep, std::__1::allocator<char16_t>>::second",
   "linker_set_key" : "_ZNKSt3__117__compressed_pairINS_12basic_stringIDsNS_11char_traitsIDsEENS_9allocatorIDsEEE5__repES5_E6secondEv",
   "parameters" :
   [
    {
     "is_this_ptr" : true,
     "referenced_type" : "_ZTIPKNSt3__117__compressed_pairINS_12basic_stringIDsNS_11char_traitsIDsEENS_9allocatorIDsEEE5__repES5_EE"
    }
   ],
   "return_type" : "_ZTIRKNSt3__19allocatorIDsEE",
   "source_file" : "external/libcxx/include/memory"
  },
  {
   "function_name" : "std::__1::__compressed_pair<std::__1::basic_string<char, std::__1::char_traits<char>, std::__1::allocator<char>>::__rep, std::__1::allocator<char>>::first",
   "linker_set_key" : "_ZNKSt3__117__compressed_pairINS_12basic_stringIcNS_11char_traitsIcEENS_9allocatorIcEEE5__repES5_E5firstEv",
   "parameters" :
   [
    {
     "is_this_ptr" : true,
     "referenced_type" : "_ZTIPKNSt3__117__compressed_pairINS_12basic_stringIcNS_11char_traitsIcEENS_9allocatorIcEEE5__repES5_EE"
    }
   ],
   "return_type" : "_ZTIRKNSt3__112basic_stringIcNS_11char_traitsIcEENS_9allocatorIcEEE5__repE",
   "source_file" : "external/libcxx/include/memory"
  },
  {
   "function_name" : "std::__1::__compressed_pair<std::__1::basic_string<char, std::__1::char_traits<char>, std::__1::allocator<char>>::__rep, std::__1::allocator<char>>::second",
   "linker_set_key" : "_ZNKSt3__117__compressed_pairINS_12basic_stringIcNS_11char_traitsIcEENS_9allocatorIcEEE5__repES5_E6secondEv",
   "parameters" :
   [
    {
     "is_this_ptr" : true,
     "referenced_type" : "_ZTIPKNSt3__117__compressed_pairINS_12basic_stringIcNS_11char_traitsIcEENS_9allocatorIcEEE5__repES5_EE"
    }
   ],
   "return_type" : "_ZTIRKNSt3__19allocatorIcEE",
   "source_file" : "external/libcxx/include/memory"
  },
  {
   "function_name" : "std::__1::__compressed_pair<std::__1::basic_string<wchar_t, std::__1::char_traits<wchar_t>, std::__1::allocator<wchar_t>>::__rep, std::__1::allocator<wchar_t>>::first",
   "linker_set_key" : "_ZNKSt3__117__compressed_pairINS_12basic_stringIwNS_11char_traitsIwEENS_9allocatorIwEEE5__repES5_E5firstEv",
   "parameters" :
   [
    {
     "is_this_ptr" : true,
     "referenced_type" : "_ZTIPKNSt3__117__compressed_pairINS_12basic_stringIwNS_11char_traitsIwEENS_9allocatorIwEEE5__repES5_EE"
    }
   ],
   "return_type" : "_ZTIRKNSt3__112basic_stringIwNS_11char_traitsIwEENS_9allocatorIwEEE5__repE",
   "source_file" : "external/libcxx/include/memory"
  },
  {
   "function_name" : "std::__1::__compressed_pair<std::__1::basic_string<wchar_t, std::__1::char_traits<wchar_t>, std::__1::allocator<wchar_t>>::__rep, std::__1::allocator<wchar_t>>::second",
   "linker_set_key" : "_ZNKSt3__117__compressed_pairINS_12basic_stringIwNS_11char_traitsIwEENS_9allocatorIwEEE5__repES5_E6secondEv",
   "parameters" :
   [
    {
     "is_this_ptr" : true,
     "referenced_type" : "_ZTIPKNSt3__117__compressed_pairINS_12basic_stringIwNS_11char_traitsIwEENS_9allocatorIwEEE5__repES5_EE"
    }
   ],
   "return_type" : "_ZTIRKNSt3__19allocatorIwEE",
   "source_file" : "external/libcxx/include/memory"
  },
  {
   "function_name" : "std::__1::__libcpp_refstring::c_str",
   "linker_set_key" : "_ZNKSt3__118__libcpp_refstring5c_strEv",
   "parameters" :
   [
    {
     "is_this_ptr" : true,
     "referenced_type" : "_ZTIPKNSt3__118__libcpp_refstringE"
    }
   ],
   "return_type" : "_ZTIPKc",
   "source_file" : "external/libcxx/include/stdexcept"
  },
  {
   "function_name" : "std::__1::__shared_weak_count::use_count",
   "linker_set_key" : "_ZNKSt3__119__shared_weak_count9use_countEv",
   "parameters" :
   [
    {
     "is_this_ptr" : true,
     "referenced_type" : "_ZTIPKNSt3__119__shared_weak_countE"
    }
   ],
   "return_type" : "_ZTIl",
   "source_file" : "external/libcxx/include/memory"
  },
  {
   "function_name" : "std::__1::__compressed_pair_elem<std::__1::basic_string<char32_t, std::__1::char_traits<char32_t>, std::__1::allocator<char32_t>>::__rep, 0, false>::__get",
   "linker_set_key" : "_ZNKSt3__122__compressed_pair_elemINS_12basic_stringIDiNS_11char_traitsIDiEENS_9allocatorIDiEEE5__repELi0ELb0EE5__getEv",
   "parameters" :
   [
    {
     "is_this_ptr" : true,
     "referenced_type" : "_ZTIPKNSt3__122__compressed_pair_elemINS_12basic_stringIDiNS_11char_traitsIDiEENS_9allocatorIDiEEE5__repELi0ELb0EEE"
    }
   ],
   "return_type" : "_ZTIRKNSt3__112basic_stringIDiNS_11char_traitsIDiEENS_9allocatorIDiEEE5__repE",
   "source_file" : "external/libcxx/include/memory"
  },
  {
   "function_name" : "std::__1::__compressed_pair_elem<std::__1::basic_string<char16_t, std::__1::char_traits<char16_t>, std::__1::allocator<char16_t>>::__rep, 0, false>::__get",
   "linker_set_key" : "_ZNKSt3__122__compressed_pair_elemINS_12basic_stringIDsNS_11char_traitsIDsEENS_9allocatorIDsEEE5__repELi0ELb0EE5__getEv",
   "parameters" :
   [
    {
     "is_this_ptr" : true,
     "referenced_type" : "_ZTIPKNSt3__122__compressed_pair_elemINS_12basic_stringIDsNS_11char_traitsIDsEENS_9allocatorIDsEEE5__repELi0ELb0EEE"
    }
   ],
   "return_type" : "_ZTIRKNSt3__112basic_stringIDsNS_11char_traitsIDsEENS_9allocatorIDsEEE5__repE",
   "source_file" : "external/libcxx/include/memory"
  },
  {
   "function_name" : "std::__1::__compressed_pair_elem<std::__1::basic_string<char, std::__1::char_traits<char>, std::__1::allocator<char>>::__rep, 0, false>::__get",
   "linker_set_key" : "_ZNKSt3__122__compressed_pair_elemINS_12basic_stringIcNS_11char_traitsIcEENS_9allocatorIcEEE5__repELi0ELb0EE5__getEv",
   "parameters" :
   [
    {
     "is_this_ptr" : true,
     "referenced_type" : "_ZTIPKNSt3__122__compressed_pair_elemINS_12basic_stringIcNS_11char_traitsIcEENS_9allocatorIcEEE5__repELi0ELb0EEE"
    }
   ],
   "return_type" : "_ZTIRKNSt3__112basic_stringIcNS_11char_traitsIcEENS_9allocatorIcEEE5__repE",
   "source_file" : "external/libcxx/include/memory"
  },
  {
   "function_name" : "std::__1::__compressed_pair_elem<std::__1::basic_string<wchar_t, std::__1::char_traits<wchar_t>, std::__1::allocator<wchar_t>>::__rep, 0, false>::__get",
   "linker_set_key" : "_ZNKSt3__122__compressed_pair_elemINS_12basic_stringIwNS_11char_traitsIwEENS_9allocatorIwEEE5__repELi0ELb0EE5__getEv",
   "parameters" :
   [
    {
     "is_this_ptr" : true,
     "referenced_type" : "_ZTIPKNSt3__122__compressed_pair_elemINS_12basic_stringIwNS_11char_traitsIwEENS_9allocatorIwEEE5__repELi0ELb0EEE"
    }
   ],
   "return_type" : "_ZTIRKNSt3__112basic_stringIwNS_11char_traitsIwEENS_9allocatorIwEEE5__repE",
   "source_file" : "external/libcxx/include/memory"
  },
  {
   "function_name" : "std::__1::__compressed_pair_elem<std::__1::allocator<char32_t>, 1, true>::__get",
   "linker_set_key" : "_ZNKSt3__122__compressed_pair_elemINS_9allocatorIDiEELi1ELb1EE5__getEv",
   "parameters" :
   [
    {
     "is_this_ptr" : true,
     "referenced_type" : "_ZTIPKNSt3__122__compressed_pair_elemINS_9allocatorIDiEELi1ELb1EEE"
    }
   ],
   "return_type" : "_ZTIRKNSt3__19allocatorIDiEE",
   "source_file" : "external/libcxx/include/memory"
  },
  {
   "function_name" : "std::__1::__compressed_pair_elem<std::__1::allocator<char16_t>, 1, true>::__get",
   "linker_set_key" : "_ZNKSt3__122__compressed_pair_elemINS_9allocatorIDsEELi1ELb1EE5__getEv",
   "parameters" :
   [
    {
     "is_this_ptr" : true,
     "referenced_type" : "_ZTIPKNSt3__122__compressed_pair_elemINS_9allocatorIDsEELi1ELb1EEE"
    }
   ],
   "return_type" : "_ZTIRKNSt3__19allocatorIDsEE",
   "source_file" : "external/libcxx/include/memory"
  },
  {
   "function_name" : "std::__1::__compressed_pair_elem<std::__1::allocator<char>, 1, true>::__get",
   "linker_set_key" : "_ZNKSt3__122__compressed_pair_elemINS_9allocatorIcEELi1ELb1EE5__getEv",
   "parameters" :
   [
    {
     "is_this_ptr" : true,
     "referenced_type" : "_ZTIPKNSt3__122__compressed_pair_elemINS_9allocatorIcEELi1ELb1EEE"
    }
   ],
   "return_type" : "_ZTIRKNSt3__19allocatorIcEE",
   "source_file" : "external/libcxx/include/memory"
  },
  {
   "function_name" : "std::__1::__compressed_pair_elem<std::__1::allocator<wchar_t>, 1, true>::__get",
   "linker_set_key" : "_ZNKSt3__122__compressed_pair_elemINS_9allocatorIwEELi1ELb1EE5__getEv",
   "parameters" :
   [
    {
     "is_this_ptr" : true,
     "referenced_type" : "_ZTIPKNSt3__122__compressed_pair_elemINS_9allocatorIwEELi1ELb1EEE"
    }
   ],
   "return_type" : "_ZTIRKNSt3__19allocatorIwEE",
   "source_file" : "external/libcxx/include/memory"
  },
  {
   "function_name" : "std::__1::hash<char32_t>::operator()",
   "linker_set_key" : "_ZNKSt3__14hashIDiEclEDi",
   "parameters" :
   [
    {
     "is_this_ptr" : true,
     "referenced_type" : "_ZTIPKNSt3__14hashIDiEE"
    },
    {
     "referenced_type" : "_ZTIDi"
    }
   ],
   "return_type" : "_ZTIm",
   "source_file" : "external/libcxx/include/utility"
  },
  {
   "function_name" : "std::__1::hash<nullptr_t>::operator()",
   "linker_set_key" : "_ZNKSt3__14hashIDnEclEDn",
   "parameters" :
   [
    {
     "is_this_ptr" : true,
     "referenced_type" : "_ZTIPKNSt3__14hashIDnEE"
    },
    {
     "referenced_type" : "_ZTIDn"
    }
   ],
   "return_type" : "_ZTIm",
   "source_file" : "external/libcxx/include/utility"
  },
  {
   "function_name" : "std::__1::hash<char16_t>::operator()",
   "linker_set_key" : "_ZNKSt3__14hashIDsEclEDs",
   "parameters" :
   [
    {
     "is_this_ptr" : true,
     "referenced_type" : "_ZTIPKNSt3__14hashIDsEE"
    },
    {
     "referenced_type" : "_ZTIDs"
    }
   ],
   "return_type" : "_ZTIm",
   "source_file" : "external/libcxx/include/utility"
  },
  {
   "function_name" : "std::__1::hash<signed char>::operator()",
   "linker_set_key" : "_ZNKSt3__14hashIaEclEa",
   "parameters" :
   [
    {
     "is_this_ptr" : true,
     "referenced_type" : "_ZTIPKNSt3__14hashIaEE"
    },
    {
     "referenced_type" : "_ZTIa"
    }
   ],
   "return_type" : "_ZTIm",
   "source_file" : "external/libcxx/include/utility"
  },
  {
   "function_name" : "std::__1::hash<bool>::operator()",
   "linker_set_key" : "_ZNKSt3__14hashIbEclEb",
   "parameters" :
   [
    {
     "is_this_ptr" : true,
     "referenced_type" : "_ZTIPKNSt3__14hashIbEE"
    },
    {
     "referenced_type" : "_ZTIb"
    }
   ],
   "return_type" : "_ZTIm",
   "source_file" : "external/libcxx/include/utility"
  },
  {
   "function_name" : "std::__1::hash<char>::operator()",
   "linker_set_key" : "_ZNKSt3__14hashIcEclEc",
   "parameters" :
   [
    {
     "is_this_ptr" : true,
     "referenced_type" : "_ZTIPKNSt3__14hashIcEE"
    },
    {
     "referenced_type" : "_ZTIc"
    }
   ],
   "return_type" : "_ZTIm",
   "source_file" : "external/libcxx/include/utility"
  },
  {
   "function_name" : "std::__1::hash<double>::operator()",
   "linker_set_key" : "_ZNKSt3__14hashIdEclEd",
   "parameters" :
   [
    {
     "is_this_ptr" : true,
     "referenced_type" : "_ZTIPKNSt3__14hashIdEE"
    },
    {
     "referenced_type" : "_ZTId"
    }
   ],
   "return_type" : "_ZTIm",
   "source_file" : "external/libcxx/include/utility"
  },
  {
   "function_name" : "std::__1::hash<long double>::operator()",
   "linker_set_key" : "_ZNKSt3__14hashIeEclEe",
   "parameters" :
   [
    {
     "is_this_ptr" : true,
     "referenced_type" : "_ZTIPKNSt3__14hashIeEE"
    },
    {
     "referenced_type" : "_ZTIe"
    }
   ],
   "return_type" : "_ZTIm",
   "source_file" : "external/libcxx/include/utility"
  },
  {
   "function_name" : "std::__1::hash<float>::operator()",
   "linker_set_key" : "_ZNKSt3__14hashIfEclEf",
   "parameters" :
   [
    {
     "is_this_ptr" : true,
     "referenced_type" : "_ZTIPKNSt3__14hashIfEE"
    },
    {
     "referenced_type" : "_ZTIf"
    }
   ],
   "return_type" : "_ZTIm",
   "source_file" : "external/libcxx/include/utility"
  },
  {
   "function_name" : "std::__1::hash<unsigned char>::operator()",
   "linker_set_key" : "_ZNKSt3__14hashIhEclEh",
   "parameters" :
   [
    {
     "is_this_ptr" : true,
     "referenced_type" : "_ZTIPKNSt3__14hashIhEE"
    },
    {
     "referenced_type" : "_ZTIh"
    }
   ],
   "return_type" : "_ZTIm",
   "source_file" : "external/libcxx/include/utility"
  },
  {
   "function_name" : "std::__1::hash<int>::operator()",
   "linker_set_key" : "_ZNKSt3__14hashIiEclEi",
   "parameters" :
   [
    {
     "is_this_ptr" : true,
     "referenced_type" : "_ZTIPKNSt3__14hashIiEE"
    },
    {
     "referenced_type" : "_ZTIi"
    }
   ],
   "return_type" : "_ZTIm",
   "source_file" : "external/libcxx/include/utility"
  },
  {
   "function_name" : "std::__1::hash<unsigned int>::operator()",
   "linker_set_key" : "_ZNKSt3__14hashIjEclEj",
   "parameters" :
   [
    {
     "is_this_ptr" : true,
     "referenced_type" : "_ZTIPKNSt3__14hashIjEE"
    },
    {
     "referenced_type" : "_ZTIj"
    }
   ],
   "return_type" : "_ZTIm",
   "source_file" : "external/libcxx/include/utility"
  },
  {
   "function_name" : "std::__1::hash<long>::operator()",
   "linker_set_key" : "_ZNKSt3__14hashIlEclEl",
   "parameters" :
   [
    {
     "is_this_ptr" : true,
     "referenced_type" : "_ZTIPKNSt3__14hashIlEE"
    },
    {
     "referenced_type" : "_ZTIl"
    }
   ],
   "return_type" : "_ZTIm",
   "source_file" : "external/libcxx/include/utility"
  },
  {
   "function_name" : "std::__1::hash<unsigned long>::operator()",
   "linker_set_key" : "_ZNKSt3__14hashImEclEm",
   "parameters" :
   [
    {
     "is_this_ptr" : true,
     "referenced_type" : "_ZTIPKNSt3__14hashImEE"
    },
    {
     "referenced_type" : "_ZTIm"
    }
   ],
   "return_type" : "_ZTIm",
   "source_file" : "external/libcxx/include/utility"
  },
  {
   "function_name" : "std::__1::hash<short>::operator()",
   "linker_set_key" : "_ZNKSt3__14hashIsEclEs",
   "parameters" :
   [
    {
     "is_this_ptr" : true,
     "referenced_type" : "_ZTIPKNSt3__14hashIsEE"
    },
    {
     "referenced_type" : "_ZTIs"
    }
   ],
   "return_type" : "_ZTIm",
   "source_file" : "external/libcxx/include/utility"
  },
  {
   "function_name" : "std::__1::hash<unsigned short>::operator()",
   "linker_set_key" : "_ZNKSt3__14hashItEclEt",
   "parameters" :
   [
    {
     "is_this_ptr" : true,
     "referenced_type" : "_ZTIPKNSt3__14hashItEE"
    },
    {
     "referenced_type" : "_ZTIt"
    }
   ],
   "return_type" : "_ZTIm",
   "source_file" : "external/libcxx/include/utility"
  },
  {
   "function_name" : "std::__1::hash<wchar_t>::operator()",
   "linker_set_key" : "_ZNKSt3__14hashIwEclEw",
   "parameters" :
   [
    {
     "is_this_ptr" : true,
     "referenced_type" : "_ZTIPKNSt3__14hashIwEE"
    },
    {
     "referenced_type" : "_ZTIw"
    }
   ],
   "return_type" : "_ZTIm",
   "source_file" : "external/libcxx/include/utility"
  },
  {
   "function_name" : "std::__1::__less<unsigned long, unsigned long>::operator()",
   "linker_set_key" : "_ZNKSt3__16__lessImmEclERKmS3_",
   "parameters" :
   [
    {
     "is_this_ptr" : true,
     "referenced_type" : "_ZTIPKNSt3__16__lessImmEE"
    },
    {
     "referenced_type" : "_ZTIRKm"
    },
    {
     "referenced_type" : "_ZTIRKm"
    }
   ],
   "return_type" : "_ZTIb",
   "source_file" : "external/libcxx/include/algorithm"
  },
  {
   "function_name" : "std::__1::allocator<char32_t>::max_size",
   "linker_set_key" : "_ZNKSt3__19allocatorIDiE8max_sizeEv",
   "parameters" :
   [
    {
     "is_this_ptr" : true,
     "referenced_type" : "_ZTIPKNSt3__19allocatorIDiEE"
    }
   ],
   "return_type" : "_ZTIm",
   "source_file" : "external/libcxx/include/memory"
  },
  {
   "function_name" : "std::__1::allocator<char16_t>::max_size",
   "linker_set_key" : "_ZNKSt3__19allocatorIDsE8max_sizeEv",
   "parameters" :
   [
    {
     "is_this_ptr" : true,
     "referenced_type" : "_ZTIPKNSt3__19allocatorIDsEE"
    }
   ],
   "return_type" : "_ZTIm",
   "source_file" : "external/libcxx/include/memory"
  },
  {
   "function_name" : "std::__1::allocator<char>::max_size",
   "linker_set_key" : "_ZNKSt3__19allocatorIcE8max_sizeEv",
   "parameters" :
   [
    {
     "is_this_ptr" : true,
     "referenced_type" : "_ZTIPKNSt3__19allocatorIcEE"
    }
   ],
   "return_type" : "_ZTIm",
   "source_file" : "external/libcxx/include/memory"
  },
  {
   "function_name" : "std::__1::allocator<wchar_t>::max_size",
   "linker_set_key" : "_ZNKSt3__19allocatorIwE8max_sizeEv",
   "parameters" :
   [
    {
     "is_this_ptr" : true,
     "referenced_type" : "_ZTIPKNSt3__19allocatorIwEE"
    }
   ],
   "return_type" : "_ZTIm",
   "source_file" : "external/libcxx/include/memory"
  },
  {
   "function_name" : "std::type_info::name",
   "linker_set_key" : "_ZNKSt9type_info4nameEv",
   "parameters" :
   [
    {
     "is_this_ptr" : true,
     "referenced_type" : "_ZTIPKSt9type_info"
    }
   ],
   "return_type" : "_ZTIPKc",
   "source_file" : "external/libcxx/include/typeinfo"
  },
  {
   "function_name" : "std::type_info::before",
   "linker_set_key" : "_ZNKSt9type_info6beforeERKS_",
   "parameters" :
   [
    {
     "is_this_ptr" : true,
     "referenced_type" : "_ZTIPKSt9type_info"
    },
    {
     "referenced_type" : "_ZTIRKSt9type_info"
    }
   ],
   "return_type" : "_ZTIb",
   "source_file" : "external/libcxx/include/typeinfo"
  },
  {
   "function_name" : "std::type_info::hash_code",
   "linker_set_key" : "_ZNKSt9type_info9hash_codeEv",
   "parameters" :
   [
    {
     "is_this_ptr" : true,
     "referenced_type" : "_ZTIPKSt9type_info"
    }
   ],
   "return_type" : "_ZTIm",
   "source_file" : "external/libcxx/include/typeinfo"
  },
  {
   "function_name" : "std::type_info::operator==",
   "linker_set_key" : "_ZNKSt9type_infoeqERKS_",
   "parameters" :
   [
    {
     "is_this_ptr" : true,
     "referenced_type" : "_ZTIPKSt9type_info"
    },
    {
     "referenced_type" : "_ZTIRKSt9type_info"
    }
   ],
   "return_type" : "_ZTIb",
   "source_file" : "external/libcxx/include/typeinfo"
  },
  {
   "function_name" : "std::type_info::operator!=",
   "linker_set_key" : "_ZNKSt9type_infoneERKS_",
   "parameters" :
   [
    {
     "is_this_ptr" : true,
     "referenced_type" : "_ZTIPKSt9type_info"
    },
    {
     "referenced_type" : "_ZTIRKSt9type_info"
    }
   ],
   "return_type" : "_ZTIb",
   "source_file" : "external/libcxx/include/typeinfo"
  },
  {
   "function_name" : "std::range_error::range_error",
   "linker_set_key" : "_ZNSt11range_errorC1EPKc",
   "parameters" :
   [
    {
     "is_this_ptr" : true,
     "referenced_type" : "_ZTIPSt11range_error"
    },
    {
     "referenced_type" : "_ZTIPKc"
    }
   ],
   "return_type" : "_ZTIv",
   "source_file" : "external/libcxx/include/stdexcept"
  },
  {
   "function_name" : "std::range_error::range_error",
   "linker_set_key" : "_ZNSt11range_errorC1ERKNSt3__112basic_stringIcNS0_11char_traitsIcEENS0_9allocatorIcEEEE",
   "parameters" :
   [
    {
     "is_this_ptr" : true,
     "referenced_type" : "_ZTIPSt11range_error"
    },
    {
     "referenced_type" : "_ZTIRKNSt3__112basic_stringIcNS_11char_traitsIcEENS_9allocatorIcEEEE"
    }
   ],
   "return_type" : "_ZTIv",
   "source_file" : "external/libcxx/include/stdexcept"
  },
  {
   "function_name" : "std::range_error::range_error",
   "linker_set_key" : "_ZNSt11range_errorC2EPKc",
   "parameters" :
   [
    {
     "is_this_ptr" : true,
     "referenced_type" : "_ZTIPSt11range_error"
    },
    {
     "referenced_type" : "_ZTIPKc"
    }
   ],
   "return_type" : "_ZTIv",
   "source_file" : "external/libcxx/include/stdexcept"
  },
  {
   "function_name" : "std::range_error::range_error",
   "linker_set_key" : "_ZNSt11range_errorC2ERKNSt3__112basic_stringIcNS0_11char_traitsIcEENS0_9allocatorIcEEEE",
   "parameters" :
   [
    {
     "is_this_ptr" : true,
     "referenced_type" : "_ZTIPSt11range_error"
    },
    {
     "referenced_type" : "_ZTIRKNSt3__112basic_stringIcNS_11char_traitsIcEENS_9allocatorIcEEEE"
    }
   ],
   "return_type" : "_ZTIv",
   "source_file" : "external/libcxx/include/stdexcept"
  },
  {
   "function_name" : "std::domain_error::domain_error",
   "linker_set_key" : "_ZNSt12domain_errorC1EPKc",
   "parameters" :
   [
    {
     "is_this_ptr" : true,
     "referenced_type" : "_ZTIPSt12domain_error"
    },
    {
     "referenced_type" : "_ZTIPKc"
    }
   ],
   "return_type" : "_ZTIv",
   "source_file" : "external/libcxx/include/stdexcept"
  },
  {
   "function_name" : "std::domain_error::domain_error",
   "linker_set_key" : "_ZNSt12domain_errorC1ERKNSt3__112basic_stringIcNS0_11char_traitsIcEENS0_9allocatorIcEEEE",
   "parameters" :
   [
    {
     "is_this_ptr" : true,
     "referenced_type" : "_ZTIPSt12domain_error"
    },
    {
     "referenced_type" : "_ZTIRKNSt3__112basic_stringIcNS_11char_traitsIcEENS_9allocatorIcEEEE"
    }
   ],
   "return_type" : "_ZTIv",
   "source_file" : "external/libcxx/include/stdexcept"
  },
  {
   "function_name" : "std::domain_error::domain_error",
   "linker_set_key" : "_ZNSt12domain_errorC2EPKc",
   "parameters" :
   [
    {
     "is_this_ptr" : true,
     "referenced_type" : "_ZTIPSt12domain_error"
    },
    {
     "referenced_type" : "_ZTIPKc"
    }
   ],
   "return_type" : "_ZTIv",
   "source_file" : "external/libcxx/include/stdexcept"
  },
  {
   "function_name" : "std::domain_error::domain_error",
   "linker_set_key" : "_ZNSt12domain_errorC2ERKNSt3__112basic_stringIcNS0_11char_traitsIcEENS0_9allocatorIcEEEE",
   "parameters" :
   [
    {
     "is_this_ptr" : true,
     "referenced_type" : "_ZTIPSt12domain_error"
    },
    {
     "referenced_type" : "_ZTIRKNSt3__112basic_stringIcNS_11char_traitsIcEENS_9allocatorIcEEEE"
    }
   ],
   "return_type" : "_ZTIv",
   "source_file" : "external/libcxx/include/stdexcept"
  },
  {
   "function_name" : "std::length_error::length_error",
   "linker_set_key" : "_ZNSt12length_errorC1EPKc",
   "parameters" :
   [
    {
     "is_this_ptr" : true,
     "referenced_type" : "_ZTIPSt12length_error"
    },
    {
     "referenced_type" : "_ZTIPKc"
    }
   ],
   "return_type" : "_ZTIv",
   "source_file" : "external/libcxx/include/stdexcept"
  },
  {
   "function_name" : "std::length_error::length_error",
   "linker_set_key" : "_ZNSt12length_errorC1ERKNSt3__112basic_stringIcNS0_11char_traitsIcEENS0_9allocatorIcEEEE",
   "parameters" :
   [
    {
     "is_this_ptr" : true,
     "referenced_type" : "_ZTIPSt12length_error"
    },
    {
     "referenced_type" : "_ZTIRKNSt3__112basic_stringIcNS_11char_traitsIcEENS_9allocatorIcEEEE"
    }
   ],
   "return_type" : "_ZTIv",
   "source_file" : "external/libcxx/include/stdexcept"
  },
  {
   "function_name" : "std::length_error::length_error",
   "linker_set_key" : "_ZNSt12length_errorC2EPKc",
   "parameters" :
   [
    {
     "is_this_ptr" : true,
     "referenced_type" : "_ZTIPSt12length_error"
    },
    {
     "referenced_type" : "_ZTIPKc"
    }
   ],
   "return_type" : "_ZTIv",
   "source_file" : "external/libcxx/include/stdexcept"
  },
  {
   "function_name" : "std::length_error::length_error",
   "linker_set_key" : "_ZNSt12length_errorC2ERKNSt3__112basic_stringIcNS0_11char_traitsIcEENS0_9allocatorIcEEEE",
   "parameters" :
   [
    {
     "is_this_ptr" : true,
     "referenced_type" : "_ZTIPSt12length_error"
    },
    {
     "referenced_type" : "_ZTIRKNSt3__112basic_stringIcNS_11char_traitsIcEENS_9allocatorIcEEEE"
    }
   ],
   "return_type" : "_ZTIv",
   "source_file" : "external/libcxx/include/stdexcept"
  },
  {
   "function_name" : "std::out_of_range::out_of_range",
   "linker_set_key" : "_ZNSt12out_of_rangeC1EPKc",
   "parameters" :
   [
    {
     "is_this_ptr" : true,
     "referenced_type" : "_ZTIPSt12out_of_range"
    },
    {
     "referenced_type" : "_ZTIPKc"
    }
   ],
   "return_type" : "_ZTIv",
   "source_file" : "external/libcxx/include/stdexcept"
  },
  {
   "function_name" : "std::out_of_range::out_of_range",
   "linker_set_key" : "_ZNSt12out_of_rangeC1ERKNSt3__112basic_stringIcNS0_11char_traitsIcEENS0_9allocatorIcEEEE",
   "parameters" :
   [
    {
     "is_this_ptr" : true,
     "referenced_type" : "_ZTIPSt12out_of_range"
    },
    {
     "referenced_type" : "_ZTIRKNSt3__112basic_stringIcNS_11char_traitsIcEENS_9allocatorIcEEEE"
    }
   ],
   "return_type" : "_ZTIv",
   "source_file" : "external/libcxx/include/stdexcept"
  },
  {
   "function_name" : "std::out_of_range::out_of_range",
   "linker_set_key" : "_ZNSt12out_of_rangeC2EPKc",
   "parameters" :
   [
    {
     "is_this_ptr" : true,
     "referenced_type" : "_ZTIPSt12out_of_range"
    },
    {
     "referenced_type" : "_ZTIPKc"
    }
   ],
   "return_type" : "_ZTIv",
   "source_file" : "external/libcxx/include/stdexcept"
  },
  {
   "function_name" : "std::out_of_range::out_of_range",
   "linker_set_key" : "_ZNSt12out_of_rangeC2ERKNSt3__112basic_stringIcNS0_11char_traitsIcEENS0_9allocatorIcEEEE",
   "parameters" :
   [
    {
     "is_this_ptr" : true,
     "referenced_type" : "_ZTIPSt12out_of_range"
    },
    {
     "referenced_type" : "_ZTIRKNSt3__112basic_stringIcNS_11char_traitsIcEENS_9allocatorIcEEEE"
    }
   ],
   "return_type" : "_ZTIv",
   "source_file" : "external/libcxx/include/stdexcept"
  },
  {
   "function_name" : "std::bad_exception::bad_exception",
   "linker_set_key" : "_ZNSt13bad_exceptionC1Ev",
   "parameters" :
   [
    {
     "is_this_ptr" : true,
     "referenced_type" : "_ZTIPSt13bad_exception"
    }
   ],
   "return_type" : "_ZTIv",
   "source_file" : "external/libcxx/include/exception"
  },
  {
   "function_name" : "std::bad_exception::bad_exception",
   "linker_set_key" : "_ZNSt13bad_exceptionC2Ev",
   "parameters" :
   [
    {
     "is_this_ptr" : true,
     "referenced_type" : "_ZTIPSt13bad_exception"
    }
   ],
   "return_type" : "_ZTIv",
   "source_file" : "external/libcxx/include/exception"
  },
  {
   "function_name" : "std::exception_ptr::exception_ptr",
   "linker_set_key" : "_ZNSt13exception_ptrC1EDn",
   "parameters" :
   [
    {
     "is_this_ptr" : true,
     "referenced_type" : "_ZTIPSt13exception_ptr"
    },
    {
     "referenced_type" : "_ZTIDn"
    }
   ],
   "return_type" : "_ZTIv",
   "source_file" : "external/libcxx/include/exception"
  },
  {
   "function_name" : "std::exception_ptr::exception_ptr",
   "linker_set_key" : "_ZNSt13exception_ptrC1Ev",
   "parameters" :
   [
    {
     "is_this_ptr" : true,
     "referenced_type" : "_ZTIPSt13exception_ptr"
    }
   ],
   "return_type" : "_ZTIv",
   "source_file" : "external/libcxx/include/exception"
  },
  {
   "function_name" : "std::exception_ptr::exception_ptr",
   "linker_set_key" : "_ZNSt13exception_ptrC2EDn",
   "parameters" :
   [
    {
     "is_this_ptr" : true,
     "referenced_type" : "_ZTIPSt13exception_ptr"
    },
    {
     "referenced_type" : "_ZTIDn"
    }
   ],
   "return_type" : "_ZTIv",
   "source_file" : "external/libcxx/include/exception"
  },
  {
   "function_name" : "std::exception_ptr::exception_ptr",
   "linker_set_key" : "_ZNSt13exception_ptrC2Ev",
   "parameters" :
   [
    {
     "is_this_ptr" : true,
     "referenced_type" : "_ZTIPSt13exception_ptr"
    }
   ],
   "return_type" : "_ZTIv",
   "source_file" : "external/libcxx/include/exception"
  },
  {
   "function_name" : "std::overflow_error::overflow_error",
   "linker_set_key" : "_ZNSt14overflow_errorC1EPKc",
   "parameters" :
   [
    {
     "is_this_ptr" : true,
     "referenced_type" : "_ZTIPSt14overflow_error"
    },
    {
     "referenced_type" : "_ZTIPKc"
    }
   ],
   "return_type" : "_ZTIv",
   "source_file" : "external/libcxx/include/stdexcept"
  },
  {
   "function_name" : "std::overflow_error::overflow_error",
   "linker_set_key" : "_ZNSt14overflow_errorC1ERKNSt3__112basic_stringIcNS0_11char_traitsIcEENS0_9allocatorIcEEEE",
   "parameters" :
   [
    {
     "is_this_ptr" : true,
     "referenced_type" : "_ZTIPSt14overflow_error"
    },
    {
     "referenced_type" : "_ZTIRKNSt3__112basic_stringIcNS_11char_traitsIcEENS_9allocatorIcEEEE"
    }
   ],
   "return_type" : "_ZTIv",
   "source_file" : "external/libcxx/include/stdexcept"
  },
  {
   "function_name" : "std::overflow_error::overflow_error",
   "linker_set_key" : "_ZNSt14overflow_errorC2EPKc",
   "parameters" :
   [
    {
     "is_this_ptr" : true,
     "referenced_type" : "_ZTIPSt14overflow_error"
    },
    {
     "referenced_type" : "_ZTIPKc"
    }
   ],
   "return_type" : "_ZTIv",
   "source_file" : "external/libcxx/include/stdexcept"
  },
  {
   "function_name" : "std::overflow_error::overflow_error",
   "linker_set_key" : "_ZNSt14overflow_errorC2ERKNSt3__112basic_stringIcNS0_11char_traitsIcEENS0_9allocatorIcEEEE",
   "parameters" :
   [
    {
     "is_this_ptr" : true,
     "referenced_type" : "_ZTIPSt14overflow_error"
    },
    {
     "referenced_type" : "_ZTIRKNSt3__112basic_stringIcNS_11char_traitsIcEENS_9allocatorIcEEEE"
    }
   ],
   "return_type" : "_ZTIv",
   "source_file" : "external/libcxx/include/stdexcept"
  },
  {
   "function_name" : "std::underflow_error::underflow_error",
   "linker_set_key" : "_ZNSt15underflow_errorC1EPKc",
   "parameters" :
   [
    {
     "is_this_ptr" : true,
     "referenced_type" : "_ZTIPSt15underflow_error"
    },
    {
     "referenced_type" : "_ZTIPKc"
    }
   ],
   "return_type" : "_ZTIv",
   "source_file" : "external/libcxx/include/stdexcept"
  },
  {
   "function_name" : "std::underflow_error::underflow_error",
   "linker_set_key" : "_ZNSt15underflow_errorC1ERKNSt3__112basic_stringIcNS0_11char_traitsIcEENS0_9allocatorIcEEEE",
   "parameters" :
   [
    {
     "is_this_ptr" : true,
     "referenced_type" : "_ZTIPSt15underflow_error"
    },
    {
     "referenced_type" : "_ZTIRKNSt3__112basic_stringIcNS_11char_traitsIcEENS_9allocatorIcEEEE"
    }
   ],
   "return_type" : "_ZTIv",
   "source_file" : "external/libcxx/include/stdexcept"
  },
  {
   "function_name" : "std::underflow_error::underflow_error",
   "linker_set_key" : "_ZNSt15underflow_errorC2EPKc",
   "parameters" :
   [
    {
     "is_this_ptr" : true,
     "referenced_type" : "_ZTIPSt15underflow_error"
    },
    {
     "referenced_type" : "_ZTIPKc"
    }
   ],
   "return_type" : "_ZTIv",
   "source_file" : "external/libcxx/include/stdexcept"
  },
  {
   "function_name" : "std::underflow_error::underflow_error",
   "linker_set_key" : "_ZNSt15underflow_errorC2ERKNSt3__112basic_stringIcNS0_11char_traitsIcEENS0_9allocatorIcEEEE",
   "parameters" :
   [
    {
     "is_this_ptr" : true,
     "referenced_type" : "_ZTIPSt15underflow_error"
    },
    {
     "referenced_type" : "_ZTIRKNSt3__112basic_stringIcNS_11char_traitsIcEENS_9allocatorIcEEEE"
    }
   ],
   "return_type" : "_ZTIv",
   "source_file" : "external/libcxx/include/stdexcept"
  },
  {
   "function_name" : "std::invalid_argument::invalid_argument",
   "linker_set_key" : "_ZNSt16invalid_argumentC1EPKc",
   "parameters" :
   [
    {
     "is_this_ptr" : true,
     "referenced_type" : "_ZTIPSt16invalid_argument"
    },
    {
     "referenced_type" : "_ZTIPKc"
    }
   ],
   "return_type" : "_ZTIv",
   "source_file" : "external/libcxx/include/stdexcept"
  },
  {
   "function_name" : "std::invalid_argument::invalid_argument",
   "linker_set_key" : "_ZNSt16invalid_argumentC1ERKNSt3__112basic_stringIcNS0_11char_traitsIcEENS0_9allocatorIcEEEE",
   "parameters" :
   [
    {
     "is_this_ptr" : true,
     "referenced_type" : "_ZTIPSt16invalid_argument"
    },
    {
     "referenced_type" : "_ZTIRKNSt3__112basic_stringIcNS_11char_traitsIcEENS_9allocatorIcEEEE"
    }
   ],
   "return_type" : "_ZTIv",
   "source_file" : "external/libcxx/include/stdexcept"
  },
  {
   "function_name" : "std::invalid_argument::invalid_argument",
   "linker_set_key" : "_ZNSt16invalid_argumentC2EPKc",
   "parameters" :
   [
    {
     "is_this_ptr" : true,
     "referenced_type" : "_ZTIPSt16invalid_argument"
    },
    {
     "referenced_type" : "_ZTIPKc"
    }
   ],
   "return_type" : "_ZTIv",
   "source_file" : "external/libcxx/include/stdexcept"
  },
  {
   "function_name" : "std::invalid_argument::invalid_argument",
   "linker_set_key" : "_ZNSt16invalid_argumentC2ERKNSt3__112basic_stringIcNS0_11char_traitsIcEENS0_9allocatorIcEEEE",
   "parameters" :
   [
    {
     "is_this_ptr" : true,
     "referenced_type" : "_ZTIPSt16invalid_argument"
    },
    {
     "referenced_type" : "_ZTIRKNSt3__112basic_stringIcNS_11char_traitsIcEENS_9allocatorIcEEEE"
    }
   ],
   "return_type" : "_ZTIv",
   "source_file" : "external/libcxx/include/stdexcept"
  },
  {
   "function_name" : "std::__1::__function::__policy::__create_empty",
   "linker_set_key" : "_ZNSt3__110__function8__policy14__create_emptyEv",
   "return_type" : "_ZTIPKNSt3__110__function8__policyE",
   "source_file" : "external/libcxx/include/functional"
  },
  {
   "function_name" : "std::__1::__loadword",
   "linker_set_key" : "_ZNSt3__110__loadwordIjEET_PKv",
   "parameters" :
   [
    {
     "referenced_type" : "_ZTIPKv"
    }
   ],
   "return_type" : "_ZTIj",
   "source_file" : "external/libcxx/include/utility",
   "template_args" : [ "_ZTIj" ]
  },
  {
   "function_name" : "std::__1::__loadword",
   "linker_set_key" : "_ZNSt3__110__loadwordImEET_PKv",
   "parameters" :
   [
    {
     "referenced_type" : "_ZTIPKv"
    }
   ],
   "return_type" : "_ZTIm",
   "source_file" : "external/libcxx/include/utility",
   "template_args" : [ "_ZTIm" ]
  },
  {
   "function_name" : "std::__1::__popcount",
   "linker_set_key" : "_ZNSt3__110__popcountEj",
   "parameters" :
   [
    {
     "referenced_type" : "_ZTIj"
    }
   ],
   "return_type" : "_ZTIi",
   "source_file" : "external/libcxx/include/bit"
  },
  {
   "function_name" : "std::__1::__popcount",
   "linker_set_key" : "_ZNSt3__110__popcountEm",
   "parameters" :
   [
    {
     "referenced_type" : "_ZTIm"
    }
   ],
   "return_type" : "_ZTIi",
   "source_file" : "external/libcxx/include/bit"
  },
  {
   "function_name" : "std::__1::__popcount",
   "linker_set_key" : "_ZNSt3__110__popcountEy",
   "parameters" :
   [
    {
     "referenced_type" : "_ZTIy"
    }
   ],
   "return_type" : "_ZTIi",
   "source_file" : "external/libcxx/include/bit"
  },
  {
   "function_name" : "std::__1::in_place_t::in_place_t",
   "linker_set_key" : "_ZNSt3__110in_place_tC1Ev",
   "parameters" :
   [
    {
     "is_this_ptr" : true,
     "referenced_type" : "_ZTIPNSt3__110in_place_tE"
    }
   ],
   "return_type" : "_ZTIv",
   "source_file" : "external/libcxx/include/utility"
  },
  {
   "function_name" : "std::__1::in_place_t::in_place_t",
   "linker_set_key" : "_ZNSt3__110in_place_tC2Ev",
   "parameters" :
   [
    {
     "is_this_ptr" : true,
     "referenced_type" : "_ZTIPNSt3__110in_place_tE"
    }
   ],
   "return_type" : "_ZTIv",
   "source_file" : "external/libcxx/include/utility"
  },
  {
   "function_name" : "std::__1::atomic_flag::test_and_set",
   "linker_set_key" : "_ZNSt3__111atomic_flag12test_and_setENS_12memory_orderE",
   "parameters" :
   [
    {
     "is_this_ptr" : true,
     "referenced_type" : "_ZTIPNSt3__111atomic_flagE"
    },
    {
     "default_arg" : true,
     "referenced_type" : "_ZTINSt3__112memory_orderE"
    }
   ],
   "return_type" : "_ZTIb",
   "source_file" : "external/libcxx/include/atomic"
  },
  {
   "function_name" : "std::__1::atomic_flag::clear",
   "linker_set_key" : "_ZNSt3__111atomic_flag5clearENS_12memory_orderE",
   "parameters" :
   [
    {
     "is_this_ptr" : true,
     "referenced_type" : "_ZTIPNSt3__111atomic_flagE"
    },
    {
     "default_arg" : true,
     "referenced_type" : "_ZTINSt3__112memory_orderE"
    }
   ],
   "return_type" : "_ZTIv",
   "source_file" : "external/libcxx/include/atomic"
  },
  {
   "function_name" : "std::__1::atomic_flag::atomic_flag",
   "linker_set_key" : "_ZNSt3__111atomic_flagC1Eb",
   "parameters" :
   [
    {
     "is_this_ptr" : true,
     "referenced_type" : "_ZTIPNSt3__111atomic_flagE"
    },
    {
     "referenced_type" : "_ZTIb"
    }
   ],
   "return_type" : "_ZTIv",
   "source_file" : "external/libcxx/include/atomic"
  },
  {
   "function_name" : "std::__1::atomic_flag::atomic_flag",
   "linker_set_key" : "_ZNSt3__111atomic_flagC1Ev",
   "parameters" :
   [
    {
     "is_this_ptr" : true,
     "referenced_type" : "_ZTIPNSt3__111atomic_flagE"
    }
   ],
   "return_type" : "_ZTIv",
   "source_file" : "external/libcxx/include/atomic"
  },
  {
   "function_name" : "std::__1::atomic_flag::atomic_flag",
   "linker_set_key" : "_ZNSt3__111atomic_flagC2Eb",
   "parameters" :
   [
    {
     "is_this_ptr" : true,
     "referenced_type" : "_ZTIPNSt3__111atomic_flagE"
    },
    {
     "referenced_type" : "_ZTIb"
    }
   ],
   "return_type" : "_ZTIv",
   "source_file" : "external/libcxx/include/atomic"
  },
  {
   "function_name" : "std::__1::atomic_flag::atomic_flag",
   "linker_set_key" : "_ZNSt3__111atomic_flagC2Ev",
   "parameters" :
   [
    {
     "is_this_ptr" : true,
     "referenced_type" : "_ZTIPNSt3__111atomic_flagE"
    }
   ],
   "return_type" : "_ZTIv",
   "source_file" : "external/libcxx/include/atomic"
  },
  {
   "function_name" : "std::__1::char_traits<char32_t>::eq_int_type",
   "linker_set_key" : "_ZNSt3__111char_traitsIDiE11eq_int_typeEjj",
   "parameters" :
   [
    {
     "referenced_type" : "_ZTIj"
    },
    {
     "referenced_type" : "_ZTIj"
    }
   ],
   "return_type" : "_ZTIb",
   "source_file" : "external/libcxx/include/__string"
  },
  {
   "function_name" : "std::__1::char_traits<char32_t>::to_int_type",
   "linker_set_key" : "_ZNSt3__111char_traitsIDiE11to_int_typeEDi",
   "parameters" :
   [
    {
     "referenced_type" : "_ZTIDi"
    }
   ],
   "return_type" : "_ZTIj",
   "source_file" : "external/libcxx/include/__string"
  },
  {
   "function_name" : "std::__1::char_traits<char32_t>::to_char_type",
   "linker_set_key" : "_ZNSt3__111char_traitsIDiE12to_char_typeEj",
   "parameters" :
   [
    {
     "referenced_type" : "_ZTIj"
    }
   ],
   "return_type" : "_ZTIDi",
   "source_file" : "external/libcxx/include/__string"
  },
  {
   "function_name" : "std::__1::char_traits<char32_t>::eq",
   "linker_set_key" : "_ZNSt3__111char_traitsIDiE2eqEDiDi",
   "parameters" :
   [
    {
     "referenced_type" : "_ZTIDi"
    },
    {
     "referenced_type" : "_ZTIDi"
    }
   ],
   "return_type" : "_ZTIb",
   "source_file" : "external/libcxx/include/__string"
  },
  {
   "function_name" : "std::__1::char_traits<char32_t>::lt",
   "linker_set_key" : "_ZNSt3__111char_traitsIDiE2ltEDiDi",
   "parameters" :
   [
    {
     "referenced_type" : "_ZTIDi"
    },
    {
     "referenced_type" : "_ZTIDi"
    }
   ],
   "return_type" : "_ZTIb",
   "source_file" : "external/libcxx/include/__string"
  },
  {
   "function_name" : "std::__1::char_traits<char32_t>::eof",
   "linker_set_key" : "_ZNSt3__111char_traitsIDiE3eofEv",
   "return_type" : "_ZTIj",
   "source_file" : "external/libcxx/include/__string"
  },
  {
   "function_name" : "std::__1::char_traits<char32_t>::copy",
   "linker_set_key" : "_ZNSt3__111char_traitsIDiE4copyEPDiPKDim",
   "parameters" :
   [
    {
     "referenced_type" : "_ZTIPDi"
    },
    {
     "referenced_type" : "_ZTIPKDi"
    },
    {
     "referenced_type" : "_ZTIm"
    }
   ],
   "return_type" : "_ZTIPDi",
   "source_file" : "external/libcxx/include/__string"
  },
  {
   "function_name" : "std::__1::char_traits<char32_t>::find",
   "linker_set_key" : "_ZNSt3__111char_traitsIDiE4findEPKDimRS2_",
   "parameters" :
   [
    {
     "referenced_type" : "_ZTIPKDi"
    },
    {
     "referenced_type" : "_ZTIm"
    },
    {
     "referenced_type" : "_ZTIRKDi"
    }
   ],
   "return_type" : "_ZTIPKDi",
   "source_file" : "external/libcxx/include/__string"
  },
  {
   "function_name" : "std::__1::char_traits<char32_t>::move",
   "linker_set_key" : "_ZNSt3__111char_traitsIDiE4moveEPDiPKDim",
   "parameters" :
   [
    {
     "referenced_type" : "_ZTIPDi"
    },
    {
     "referenced_type" : "_ZTIPKDi"
    },
    {
     "referenced_type" : "_ZTIm"
    }
   ],
   "return_type" : "_ZTIPDi",
   "source_file" : "external/libcxx/include/__string"
  },
  {
   "function_name" : "std::__1::char_traits<char32_t>::assign",
   "linker_set_key" : "_ZNSt3__111char_traitsIDiE6assignEPDimDi",
   "parameters" :
   [
    {
     "referenced_type" : "_ZTIPDi"
    },
    {
     "referenced_type" : "_ZTIm"
    },
    {
     "referenced_type" : "_ZTIDi"
    }
   ],
   "return_type" : "_ZTIPDi",
   "source_file" : "external/libcxx/include/__string"
  },
  {
   "function_name" : "std::__1::char_traits<char32_t>::assign",
   "linker_set_key" : "_ZNSt3__111char_traitsIDiE6assignERDiRKDi",
   "parameters" :
   [
    {
     "referenced_type" : "_ZTIRDi"
    },
    {
     "referenced_type" : "_ZTIRKDi"
    }
   ],
   "return_type" : "_ZTIv",
   "source_file" : "external/libcxx/include/__string"
  },
  {
   "function_name" : "std::__1::char_traits<char32_t>::length",
   "linker_set_key" : "_ZNSt3__111char_traitsIDiE6lengthEPKDi",
   "parameters" :
   [
    {
     "referenced_type" : "_ZTIPKDi"
    }
   ],
   "return_type" : "_ZTIm",
   "source_file" : "external/libcxx/include/__string"
  },
  {
   "function_name" : "std::__1::char_traits<char32_t>::compare",
   "linker_set_key" : "_ZNSt3__111char_traitsIDiE7compareEPKDiS3_m",
   "parameters" :
   [
    {
     "referenced_type" : "_ZTIPKDi"
    },
    {
     "referenced_type" : "_ZTIPKDi"
    },
    {
     "referenced_type" : "_ZTIm"
    }
   ],
   "return_type" : "_ZTIi",
   "source_file" : "external/libcxx/include/__string"
  },
  {
   "function_name" : "std::__1::char_traits<char32_t>::not_eof",
   "linker_set_key" : "_ZNSt3__111char_traitsIDiE7not_eofEj",
   "parameters" :
   [
    {
     "referenced_type" : "_ZTIj"
    }
   ],
   "return_type" : "_ZTIj",
   "source_file" : "external/libcxx/include/__string"
  },
  {
   "function_name" : "std::__1::char_traits<char16_t>::eq_int_type",
   "linker_set_key" : "_ZNSt3__111char_traitsIDsE11eq_int_typeEtt",
   "parameters" :
   [
    {
     "referenced_type" : "_ZTIt"
    },
    {
     "referenced_type" : "_ZTIt"
    }
   ],
   "return_type" : "_ZTIb",
   "source_file" : "external/libcxx/include/__string"
  },
  {
   "function_name" : "std::__1::char_traits<char16_t>::to_int_type",
   "linker_set_key" : "_ZNSt3__111char_traitsIDsE11to_int_typeEDs",
   "parameters" :
   [
    {
     "referenced_type" : "_ZTIDs"
    }
   ],
   "return_type" : "_ZTIt",
   "source_file" : "external/libcxx/include/__string"
  },
  {
   "function_name" : "std::__1::char_traits<char16_t>::to_char_type",
   "linker_set_key" : "_ZNSt3__111char_traitsIDsE12to_char_typeEt",
   "parameters" :
   [
    {
     "referenced_type" : "_ZTIt"
    }
   ],
   "return_type" : "_ZTIDs",
   "source_file" : "external/libcxx/include/__string"
  },
  {
   "function_name" : "std::__1::char_traits<char16_t>::eq",
   "linker_set_key" : "_ZNSt3__111char_traitsIDsE2eqEDsDs",
   "parameters" :
   [
    {
     "referenced_type" : "_ZTIDs"
    },
    {
     "referenced_type" : "_ZTIDs"
    }
   ],
   "return_type" : "_ZTIb",
   "source_file" : "external/libcxx/include/__string"
  },
  {
   "function_name" : "std::__1::char_traits<char16_t>::lt",
   "linker_set_key" : "_ZNSt3__111char_traitsIDsE2ltEDsDs",
   "parameters" :
   [
    {
     "referenced_type" : "_ZTIDs"
    },
    {
     "referenced_type" : "_ZTIDs"
    }
   ],
   "return_type" : "_ZTIb",
   "source_file" : "external/libcxx/include/__string"
  },
  {
   "function_name" : "std::__1::char_traits<char16_t>::eof",
   "linker_set_key" : "_ZNSt3__111char_traitsIDsE3eofEv",
   "return_type" : "_ZTIt",
   "source_file" : "external/libcxx/include/__string"
  },
  {
   "function_name" : "std::__1::char_traits<char16_t>::copy",
   "linker_set_key" : "_ZNSt3__111char_traitsIDsE4copyEPDsPKDsm",
   "parameters" :
   [
    {
     "referenced_type" : "_ZTIPDs"
    },
    {
     "referenced_type" : "_ZTIPKDs"
    },
    {
     "referenced_type" : "_ZTIm"
    }
   ],
   "return_type" : "_ZTIPDs",
   "source_file" : "external/libcxx/include/__string"
  },
  {
   "function_name" : "std::__1::char_traits<char16_t>::find",
   "linker_set_key" : "_ZNSt3__111char_traitsIDsE4findEPKDsmRS2_",
   "parameters" :
   [
    {
     "referenced_type" : "_ZTIPKDs"
    },
    {
     "referenced_type" : "_ZTIm"
    },
    {
     "referenced_type" : "_ZTIRKDs"
    }
   ],
   "return_type" : "_ZTIPKDs",
   "source_file" : "external/libcxx/include/__string"
  },
  {
   "function_name" : "std::__1::char_traits<char16_t>::move",
   "linker_set_key" : "_ZNSt3__111char_traitsIDsE4moveEPDsPKDsm",
   "parameters" :
   [
    {
     "referenced_type" : "_ZTIPDs"
    },
    {
     "referenced_type" : "_ZTIPKDs"
    },
    {
     "referenced_type" : "_ZTIm"
    }
   ],
   "return_type" : "_ZTIPDs",
   "source_file" : "external/libcxx/include/__string"
  },
  {
   "function_name" : "std::__1::char_traits<char16_t>::assign",
   "linker_set_key" : "_ZNSt3__111char_traitsIDsE6assignEPDsmDs",
   "parameters" :
   [
    {
     "referenced_type" : "_ZTIPDs"
    },
    {
     "referenced_type" : "_ZTIm"
    },
    {
     "referenced_type" : "_ZTIDs"
    }
   ],
   "return_type" : "_ZTIPDs",
   "source_file" : "external/libcxx/include/__string"
  },
  {
   "function_name" : "std::__1::char_traits<char16_t>::assign",
   "linker_set_key" : "_ZNSt3__111char_traitsIDsE6assignERDsRKDs",
   "parameters" :
   [
    {
     "referenced_type" : "_ZTIRDs"
    },
    {
     "referenced_type" : "_ZTIRKDs"
    }
   ],
   "return_type" : "_ZTIv",
   "source_file" : "external/libcxx/include/__string"
  },
  {
   "function_name" : "std::__1::char_traits<char16_t>::length",
   "linker_set_key" : "_ZNSt3__111char_traitsIDsE6lengthEPKDs",
   "parameters" :
   [
    {
     "referenced_type" : "_ZTIPKDs"
    }
   ],
   "return_type" : "_ZTIm",
   "source_file" : "external/libcxx/include/__string"
  },
  {
   "function_name" : "std::__1::char_traits<char16_t>::compare",
   "linker_set_key" : "_ZNSt3__111char_traitsIDsE7compareEPKDsS3_m",
   "parameters" :
   [
    {
     "referenced_type" : "_ZTIPKDs"
    },
    {
     "referenced_type" : "_ZTIPKDs"
    },
    {
     "referenced_type" : "_ZTIm"
    }
   ],
   "return_type" : "_ZTIi",
   "source_file" : "external/libcxx/include/__string"
  },
  {
   "function_name" : "std::__1::char_traits<char16_t>::not_eof",
   "linker_set_key" : "_ZNSt3__111char_traitsIDsE7not_eofEt",
   "parameters" :
   [
    {
     "referenced_type" : "_ZTIt"
    }
   ],
   "return_type" : "_ZTIt",
   "source_file" : "external/libcxx/include/__string"
  },
  {
   "function_name" : "std::__1::char_traits<char>::eq_int_type",
   "linker_set_key" : "_ZNSt3__111char_traitsIcE11eq_int_typeEii",
   "parameters" :
   [
    {
     "referenced_type" : "_ZTIi"
    },
    {
     "referenced_type" : "_ZTIi"
    }
   ],
   "return_type" : "_ZTIb",
   "source_file" : "external/libcxx/include/__string"
  },
  {
   "function_name" : "std::__1::char_traits<char>::to_int_type",
   "linker_set_key" : "_ZNSt3__111char_traitsIcE11to_int_typeEc",
   "parameters" :
   [
    {
     "referenced_type" : "_ZTIc"
    }
   ],
   "return_type" : "_ZTIi",
   "source_file" : "external/libcxx/include/__string"
  },
  {
   "function_name" : "std::__1::char_traits<char>::to_char_type",
   "linker_set_key" : "_ZNSt3__111char_traitsIcE12to_char_typeEi",
   "parameters" :
   [
    {
     "referenced_type" : "_ZTIi"
    }
   ],
   "return_type" : "_ZTIc",
   "source_file" : "external/libcxx/include/__string"
  },
  {
   "function_name" : "std::__1::char_traits<char>::eq",
   "linker_set_key" : "_ZNSt3__111char_traitsIcE2eqEcc",
   "parameters" :
   [
    {
     "referenced_type" : "_ZTIc"
    },
    {
     "referenced_type" : "_ZTIc"
    }
   ],
   "return_type" : "_ZTIb",
   "source_file" : "external/libcxx/include/__string"
  },
  {
   "function_name" : "std::__1::char_traits<char>::lt",
   "linker_set_key" : "_ZNSt3__111char_traitsIcE2ltEcc",
   "parameters" :
   [
    {
     "referenced_type" : "_ZTIc"
    },
    {
     "referenced_type" : "_ZTIc"
    }
   ],
   "return_type" : "_ZTIb",
   "source_file" : "external/libcxx/include/__string"
  },
  {
   "function_name" : "std::__1::char_traits<char>::eof",
   "linker_set_key" : "_ZNSt3__111char_traitsIcE3eofEv",
   "return_type" : "_ZTIi",
   "source_file" : "external/libcxx/include/__string"
  },
  {
   "function_name" : "std::__1::char_traits<char>::copy",
   "linker_set_key" : "_ZNSt3__111char_traitsIcE4copyEPcPKcm",
   "parameters" :
   [
    {
     "referenced_type" : "_ZTIPc"
    },
    {
     "referenced_type" : "_ZTIPKc"
    },
    {
     "referenced_type" : "_ZTIm"
    }
   ],
   "return_type" : "_ZTIPc",
   "source_file" : "external/libcxx/include/__string"
  },
  {
   "function_name" : "std::__1::char_traits<char>::find",
   "linker_set_key" : "_ZNSt3__111char_traitsIcE4findEPKcmRS2_",
   "parameters" :
   [
    {
     "referenced_type" : "_ZTIPKc"
    },
    {
     "referenced_type" : "_ZTIm"
    },
    {
     "referenced_type" : "_ZTIRKc"
    }
   ],
   "return_type" : "_ZTIPKc",
   "source_file" : "external/libcxx/include/__string"
  },
  {
   "function_name" : "std::__1::char_traits<char>::move",
   "linker_set_key" : "_ZNSt3__111char_traitsIcE4moveEPcPKcm",
   "parameters" :
   [
    {
     "referenced_type" : "_ZTIPc"
    },
    {
     "referenced_type" : "_ZTIPKc"
    },
    {
     "referenced_type" : "_ZTIm"
    }
   ],
   "return_type" : "_ZTIPc",
   "source_file" : "external/libcxx/include/__string"
  },
  {
   "function_name" : "std::__1::char_traits<char>::assign",
   "linker_set_key" : "_ZNSt3__111char_traitsIcE6assignEPcmc",
   "parameters" :
   [
    {
     "referenced_type" : "_ZTIPc"
    },
    {
     "referenced_type" : "_ZTIm"
    },
    {
     "referenced_type" : "_ZTIc"
    }
   ],
   "return_type" : "_ZTIPc",
   "source_file" : "external/libcxx/include/__string"
  },
  {
   "function_name" : "std::__1::char_traits<char>::assign",
   "linker_set_key" : "_ZNSt3__111char_traitsIcE6assignERcRKc",
   "parameters" :
   [
    {
     "referenced_type" : "_ZTIRc"
    },
    {
     "referenced_type" : "_ZTIRKc"
    }
   ],
   "return_type" : "_ZTIv",
   "source_file" : "external/libcxx/include/__string"
  },
  {
   "function_name" : "std::__1::char_traits<char>::length",
   "linker_set_key" : "_ZNSt3__111char_traitsIcE6lengthEPKc",
   "parameters" :
   [
    {
     "referenced_type" : "_ZTIPKc"
    }
   ],
   "return_type" : "_ZTIm",
   "source_file" : "external/libcxx/include/__string"
  },
  {
   "function_name" : "std::__1::char_traits<char>::compare",
   "linker_set_key" : "_ZNSt3__111char_traitsIcE7compareEPKcS3_m",
   "parameters" :
   [
    {
     "referenced_type" : "_ZTIPKc"
    },
    {
     "referenced_type" : "_ZTIPKc"
    },
    {
     "referenced_type" : "_ZTIm"
    }
   ],
   "return_type" : "_ZTIi",
   "source_file" : "external/libcxx/include/__string"
  },
  {
   "function_name" : "std::__1::char_traits<char>::not_eof",
   "linker_set_key" : "_ZNSt3__111char_traitsIcE7not_eofEi",
   "parameters" :
   [
    {
     "referenced_type" : "_ZTIi"
    }
   ],
   "return_type" : "_ZTIi",
   "source_file" : "external/libcxx/include/__string"
  },
  {
   "function_name" : "std::__1::char_traits<wchar_t>::eq_int_type",
   "linker_set_key" : "_ZNSt3__111char_traitsIwE11eq_int_typeEjj",
   "parameters" :
   [
    {
     "referenced_type" : "_ZTIj"
    },
    {
     "referenced_type" : "_ZTIj"
    }
   ],
   "return_type" : "_ZTIb",
   "source_file" : "external/libcxx/include/__string"
  },
  {
   "function_name" : "std::__1::char_traits<wchar_t>::to_int_type",
   "linker_set_key" : "_ZNSt3__111char_traitsIwE11to_int_typeEw",
   "parameters" :
   [
    {
     "referenced_type" : "_ZTIw"
    }
   ],
   "return_type" : "_ZTIj",
   "source_file" : "external/libcxx/include/__string"
  },
  {
   "function_name" : "std::__1::char_traits<wchar_t>::to_char_type",
   "linker_set_key" : "_ZNSt3__111char_traitsIwE12to_char_typeEj",
   "parameters" :
   [
    {
     "referenced_type" : "_ZTIj"
    }
   ],
   "return_type" : "_ZTIw",
   "source_file" : "external/libcxx/include/__string"
  },
  {
   "function_name" : "std::__1::char_traits<wchar_t>::eq",
   "linker_set_key" : "_ZNSt3__111char_traitsIwE2eqEww",
   "parameters" :
   [
    {
     "referenced_type" : "_ZTIw"
    },
    {
     "referenced_type" : "_ZTIw"
    }
   ],
   "return_type" : "_ZTIb",
   "source_file" : "external/libcxx/include/__string"
  },
  {
   "function_name" : "std::__1::char_traits<wchar_t>::lt",
   "linker_set_key" : "_ZNSt3__111char_traitsIwE2ltEww",
   "parameters" :
   [
    {
     "referenced_type" : "_ZTIw"
    },
    {
     "referenced_type" : "_ZTIw"
    }
   ],
   "return_type" : "_ZTIb",
   "source_file" : "external/libcxx/include/__string"
  },
  {
   "function_name" : "std::__1::char_traits<wchar_t>::eof",
   "linker_set_key" : "_ZNSt3__111char_traitsIwE3eofEv",
   "return_type" : "_ZTIj",
   "source_file" : "external/libcxx/include/__string"
  },
  {
   "function_name" : "std::__1::char_traits<wchar_t>::copy",
   "linker_set_key" : "_ZNSt3__111char_traitsIwE4copyEPwPKwm",
   "parameters" :
   [
    {
     "referenced_type" : "_ZTIPw"
    },
    {
     "referenced_type" : "_ZTIPKw"
    },
    {
     "referenced_type" : "_ZTIm"
    }
   ],
   "return_type" : "_ZTIPw",
   "source_file" : "external/libcxx/include/__string"
  },
  {
   "function_name" : "std::__1::char_traits<wchar_t>::find",
   "linker_set_key" : "_ZNSt3__111char_traitsIwE4findEPKwmRS2_",
   "parameters" :
   [
    {
     "referenced_type" : "_ZTIPKw"
    },
    {
     "referenced_type" : "_ZTIm"
    },
    {
     "referenced_type" : "_ZTIRKw"
    }
   ],
   "return_type" : "_ZTIPKw",
   "source_file" : "external/libcxx/include/__string"
  },
  {
   "function_name" : "std::__1::char_traits<wchar_t>::move",
   "linker_set_key" : "_ZNSt3__111char_traitsIwE4moveEPwPKwm",
   "parameters" :
   [
    {
     "referenced_type" : "_ZTIPw"
    },
    {
     "referenced_type" : "_ZTIPKw"
    },
    {
     "referenced_type" : "_ZTIm"
    }
   ],
   "return_type" : "_ZTIPw",
   "source_file" : "external/libcxx/include/__string"
  },
  {
   "function_name" : "std::__1::char_traits<wchar_t>::assign",
   "linker_set_key" : "_ZNSt3__111char_traitsIwE6assignEPwmw",
   "parameters" :
   [
    {
     "referenced_type" : "_ZTIPw"
    },
    {
     "referenced_type" : "_ZTIm"
    },
    {
     "referenced_type" : "_ZTIw"
    }
   ],
   "return_type" : "_ZTIPw",
   "source_file" : "external/libcxx/include/__string"
  },
  {
   "function_name" : "std::__1::char_traits<wchar_t>::assign",
   "linker_set_key" : "_ZNSt3__111char_traitsIwE6assignERwRKw",
   "parameters" :
   [
    {
     "referenced_type" : "_ZTIRw"
    },
    {
     "referenced_type" : "_ZTIRKw"
    }
   ],
   "return_type" : "_ZTIv",
   "source_file" : "external/libcxx/include/__string"
  },
  {
   "function_name" : "std::__1::char_traits<wchar_t>::length",
   "linker_set_key" : "_ZNSt3__111char_traitsIwE6lengthEPKw",
   "parameters" :
   [
    {
     "referenced_type" : "_ZTIPKw"
    }
   ],
   "return_type" : "_ZTIm",
   "source_file" : "external/libcxx/include/__string"
  },
  {
   "function_name" : "std::__1::char_traits<wchar_t>::compare",
   "linker_set_key" : "_ZNSt3__111char_traitsIwE7compareEPKwS3_m",
   "parameters" :
   [
    {
     "referenced_type" : "_ZTIPKw"
    },
    {
     "referenced_type" : "_ZTIPKw"
    },
    {
     "referenced_type" : "_ZTIm"
    }
   ],
   "return_type" : "_ZTIi",
   "source_file" : "external/libcxx/include/__string"
  },
  {
   "function_name" : "std::__1::char_traits<wchar_t>::not_eof",
   "linker_set_key" : "_ZNSt3__111char_traitsIwE7not_eofEj",
   "parameters" :
   [
    {
     "referenced_type" : "_ZTIj"
    }
   ],
   "return_type" : "_ZTIj",
   "source_file" : "external/libcxx/include/__string"
  },
  {
   "access" : "private",
   "function_name" : "std::__1::__destruct_n::__set",
   "linker_set_key" : "_ZNSt3__112__destruct_n5__setEmNS_17integral_constantIbLb0EEE",
   "parameters" :
   [
    {
     "is_this_ptr" : true,
     "referenced_type" : "_ZTIPNSt3__112__destruct_nE"
    },
    {
     "referenced_type" : "_ZTIm"
    },
    {
     "referenced_type" : "_ZTINSt3__117integral_constantIbLb0EEE"
    }
   ],
   "return_type" : "_ZTIv",
   "source_file" : "external/libcxx/include/memory"
  },
  {
   "access" : "private",
   "function_name" : "std::__1::__destruct_n::__set",
   "linker_set_key" : "_ZNSt3__112__destruct_n5__setEmNS_17integral_constantIbLb1EEE",
   "parameters" :
   [
    {
     "is_this_ptr" : true,
     "referenced_type" : "_ZTIPNSt3__112__destruct_nE"
    },
    {
     "referenced_type" : "_ZTIm"
    },
    {
     "referenced_type" : "_ZTINSt3__117integral_constantIbLb1EEE"
    }
   ],
   "return_type" : "_ZTIv",
   "source_file" : "external/libcxx/include/memory"
  },
  {
   "access" : "private",
   "function_name" : "std::__1::__destruct_n::__incr",
   "linker_set_key" : "_ZNSt3__112__destruct_n6__incrENS_17integral_constantIbLb0EEE",
   "parameters" :
   [
    {
     "is_this_ptr" : true,
     "referenced_type" : "_ZTIPNSt3__112__destruct_nE"
    },
    {
     "referenced_type" : "_ZTINSt3__117integral_constantIbLb0EEE"
    }
   ],
   "return_type" : "_ZTIv",
   "source_file" : "external/libcxx/include/memory"
  },
  {
   "access" : "private",
   "function_name" : "std::__1::__destruct_n::__incr",
   "linker_set_key" : "_ZNSt3__112__destruct_n6__incrENS_17integral_constantIbLb1EEE",
   "parameters" :
   [
    {
     "is_this_ptr" : true,
     "referenced_type" : "_ZTIPNSt3__112__destruct_nE"
    },
    {
     "referenced_type" : "_ZTINSt3__117integral_constantIbLb1EEE"
    }
   ],
   "return_type" : "_ZTIv",
   "source_file" : "external/libcxx/include/memory"
  },
  {
   "function_name" : "std::__1::__destruct_n::__destruct_n",
   "linker_set_key" : "_ZNSt3__112__destruct_nC1Em",
   "parameters" :
   [
    {
     "is_this_ptr" : true,
     "referenced_type" : "_ZTIPNSt3__112__destruct_nE"
    },
    {
     "referenced_type" : "_ZTIm"
    }
   ],
   "return_type" : "_ZTIv",
   "source_file" : "external/libcxx/include/memory"
  },
  {
   "function_name" : "std::__1::__destruct_n::__destruct_n",
   "linker_set_key" : "_ZNSt3__112__destruct_nC2Em",
   "parameters" :
   [
    {
     "is_this_ptr" : true,
     "referenced_type" : "_ZTIPNSt3__112__destruct_nE"
    },
    {
     "referenced_type" : "_ZTIm"
    }
   ],
   "return_type" : "_ZTIv",
   "source_file" : "external/libcxx/include/memory"
  },
  {
   "access" : "private",
   "function_name" : "std::__1::basic_string<char32_t, std::__1::char_traits<char32_t>, std::__1::allocator<char32_t>>::__align_it",
   "linker_set_key" : "_ZNSt3__112basic_stringIDiNS_11char_traitsIDiEENS_9allocatorIDiEEE10__align_itILm4EEEmm",
   "parameters" :
   [
    {
     "referenced_type" : "_ZTIm"
    }
   ],
   "return_type" : "_ZTIm",
   "source_file" : "external/libcxx/include/string"
  },
  {
   "access" : "private",
   "function_name" : "std::__1::basic_string<char32_t, std::__1::char_traits<char32_t>, std::__1::allocator<char32_t>>::__recommend",
   "linker_set_key" : "_ZNSt3__112basic_stringIDiNS_11char_traitsIDiEENS_9allocatorIDiEEE11__recommendEm",
   "parameters" :
   [
    {
     "referenced_type" : "_ZTIm"
    }
   ],
   "return_type" : "_ZTIm",
   "source_file" : "external/libcxx/include/string"
  },
  {
   "access" : "private",
   "function_name" : "std::__1::basic_string<char32_t, std::__1::char_traits<char32_t>, std::__1::allocator<char32_t>>::__set_long_cap",
   "linker_set_key" : "_ZNSt3__112basic_stringIDiNS_11char_traitsIDiEENS_9allocatorIDiEEE14__set_long_capEm",
   "parameters" :
   [
    {
     "is_this_ptr" : true,
     "referenced_type" : "_ZTIPNSt3__112basic_stringIDiNS_11char_traitsIDiEENS_9allocatorIDiEEEE"
    },
    {
     "referenced_type" : "_ZTIm"
    }
   ],
   "return_type" : "_ZTIv",
   "source_file" : "external/libcxx/include/string"
  },
  {
   "access" : "private",
   "function_name" : "std::__1::basic_string<char32_t, std::__1::char_traits<char32_t>, std::__1::allocator<char32_t>>::__set_long_size",
   "linker_set_key" : "_ZNSt3__112basic_stringIDiNS_11char_traitsIDiEENS_9allocatorIDiEEE15__set_long_sizeEm",
   "parameters" :
   [
    {
     "is_this_ptr" : true,
     "referenced_type" : "_ZTIPNSt3__112basic_stringIDiNS_11char_traitsIDiEENS_9allocatorIDiEEEE"
    },
    {
     "referenced_type" : "_ZTIm"
    }
   ],
   "return_type" : "_ZTIv",
   "source_file" : "external/libcxx/include/string"
  },
  {
   "access" : "private",
   "function_name" : "std::__1::basic_string<char32_t, std::__1::char_traits<char32_t>, std::__1::allocator<char32_t>>::__set_short_size",
   "linker_set_key" : "_ZNSt3__112basic_stringIDiNS_11char_traitsIDiEENS_9allocatorIDiEEE16__set_short_sizeEm",
   "parameters" :
   [
    {
     "is_this_ptr" : true,
     "referenced_type" : "_ZTIPNSt3__112basic_stringIDiNS_11char_traitsIDiEENS_9allocatorIDiEEEE"
    },
    {
     "referenced_type" : "_ZTIm"
    }
   ],
   "return_type" : "_ZTIv",
   "source_file" : "external/libcxx/include/string"
  },
  {
   "access" : "private",
   "function_name" : "std::__1::basic_string<char32_t, std::__1::char_traits<char32_t>, std::__1::allocator<char32_t>>::__get_long_pointer",
   "linker_set_key" : "_ZNSt3__112basic_stringIDiNS_11char_traitsIDiEENS_9allocatorIDiEEE18__get_long_pointerEv",
   "parameters" :
   [
    {
     "is_this_ptr" : true,
     "referenced_type" : "_ZTIPNSt3__112basic_stringIDiNS_11char_traitsIDiEENS_9allocatorIDiEEEE"
    }
   ],
   "return_type" : "_ZTIPDi",
   "source_file" : "external/libcxx/include/string"
  },
  {
   "access" : "private",
   "function_name" : "std::__1::basic_string<char32_t, std::__1::char_traits<char32_t>, std::__1::allocator<char32_t>>::__set_long_pointer",
   "linker_set_key" : "_ZNSt3__112basic_stringIDiNS_11char_traitsIDiEENS_9allocatorIDiEEE18__set_long_pointerEPDi",
   "parameters" :
   [
    {
     "is_this_ptr" : true,
     "referenced_type" : "_ZTIPNSt3__112basic_stringIDiNS_11char_traitsIDiEENS_9allocatorIDiEEEE"
    },
    {
     "referenced_type" : "_ZTIPDi"
    }
   ],
   "return_type" : "_ZTIv",
   "source_file" : "external/libcxx/include/string"
  },
  {
   "access" : "private",
   "function_name" : "std::__1::basic_string<char32_t, std::__1::char_traits<char32_t>, std::__1::allocator<char32_t>>::__get_short_pointer",
   "linker_set_key" : "_ZNSt3__112basic_stringIDiNS_11char_traitsIDiEENS_9allocatorIDiEEE19__get_short_pointerEv",
   "parameters" :
   [
    {
     "is_this_ptr" : true,
     "referenced_type" : "_ZTIPNSt3__112basic_stringIDiNS_11char_traitsIDiEENS_9allocatorIDiEEEE"
    }
   ],
   "return_type" : "_ZTIPDi",
   "source_file" : "external/libcxx/include/string"
  },
  {
   "access" : "private",
   "function_name" : "std::__1::basic_string<char32_t, std::__1::char_traits<char32_t>, std::__1::allocator<char32_t>>::__init",
   "linker_set_key" : "_ZNSt3__112basic_stringIDiNS_11char_traitsIDiEENS_9allocatorIDiEEE6__initEPKDim",
   "parameters" :
   [
    {
     "is_this_ptr" : true,
     "referenced_type" : "_ZTIPNSt3__112basic_stringIDiNS_11char_traitsIDiEENS_9allocatorIDiEEEE"
    },
    {
     "referenced_type" : "_ZTIPKDi"
    },
    {
     "referenced_type" : "_ZTIm"
    }
   ],
   "return_type" : "_ZTIv",
   "source_file" : "external/libcxx/include/string"
  },
  {
   "access" : "private",
   "function_name" : "std::__1::basic_string<char32_t, std::__1::char_traits<char32_t>, std::__1::allocator<char32_t>>::__alloc",
   "linker_set_key" : "_ZNSt3__112basic_stringIDiNS_11char_traitsIDiEENS_9allocatorIDiEEE7__allocEv",
   "parameters" :
   [
    {
     "is_this_ptr" : true,
     "referenced_type" : "_ZTIPNSt3__112basic_stringIDiNS_11char_traitsIDiEENS_9allocatorIDiEEEE"
    }
   ],
   "return_type" : "_ZTIRNSt3__19allocatorIDiEE",
   "source_file" : "external/libcxx/include/string"
  },
  {
   "function_name" : "std::__1::basic_string<char32_t, std::__1::char_traits<char32_t>, std::__1::allocator<char32_t>>::basic_string",
   "linker_set_key" : "_ZNSt3__112basic_stringIDiNS_11char_traitsIDiEENS_9allocatorIDiEEEC1EPKDim",
   "parameters" :
   [
    {
     "is_this_ptr" : true,
     "referenced_type" : "_ZTIPNSt3__112basic_stringIDiNS_11char_traitsIDiEENS_9allocatorIDiEEEE"
    },
    {
     "referenced_type" : "_ZTIPKDi"
    },
    {
     "referenced_type" : "_ZTIm"
    }
   ],
   "return_type" : "_ZTIv",
   "source_file" : "external/libcxx/include/string"
  },
  {
   "function_name" : "std::__1::basic_string<char32_t, std::__1::char_traits<char32_t>, std::__1::allocator<char32_t>>::basic_string",
   "linker_set_key" : "_ZNSt3__112basic_stringIDiNS_11char_traitsIDiEENS_9allocatorIDiEEEC2EPKDim",
   "parameters" :
   [
    {
     "is_this_ptr" : true,
     "referenced_type" : "_ZTIPNSt3__112basic_stringIDiNS_11char_traitsIDiEENS_9allocatorIDiEEEE"
    },
    {
     "referenced_type" : "_ZTIPKDi"
    },
    {
     "referenced_type" : "_ZTIm"
    }
   ],
   "return_type" : "_ZTIv",
   "source_file" : "external/libcxx/include/string"
  },
  {
   "function_name" : "std::__1::basic_string<char32_t, std::__1::char_traits<char32_t>, std::__1::allocator<char32_t>>::~basic_string",
   "linker_set_key" : "_ZNSt3__112basic_stringIDiNS_11char_traitsIDiEENS_9allocatorIDiEEED1Ev",
   "parameters" :
   [
    {
     "is_this_ptr" : true,
     "referenced_type" : "_ZTIPNSt3__112basic_stringIDiNS_11char_traitsIDiEENS_9allocatorIDiEEEE"
    }
   ],
   "return_type" : "_ZTIv",
   "source_file" : "external/libcxx/include/string"
  },
  {
   "function_name" : "std::__1::basic_string<char32_t, std::__1::char_traits<char32_t>, std::__1::allocator<char32_t>>::~basic_string",
   "linker_set_key" : "_ZNSt3__112basic_stringIDiNS_11char_traitsIDiEENS_9allocatorIDiEEED2Ev",
   "parameters" :
   [
    {
     "is_this_ptr" : true,
     "referenced_type" : "_ZTIPNSt3__112basic_stringIDiNS_11char_traitsIDiEENS_9allocatorIDiEEEE"
    }
   ],
   "return_type" : "_ZTIv",
   "source_file" : "external/libcxx/include/string"
  },
  {
   "access" : "private",
   "function_name" : "std::__1::basic_string<char16_t, std::__1::char_traits<char16_t>, std::__1::allocator<char16_t>>::__align_it",
   "linker_set_key" : "_ZNSt3__112basic_stringIDsNS_11char_traitsIDsEENS_9allocatorIDsEEE10__align_itILm8EEEmm",
   "parameters" :
   [
    {
     "referenced_type" : "_ZTIm"
    }
   ],
   "return_type" : "_ZTIm",
   "source_file" : "external/libcxx/include/string"
  },
  {
   "access" : "private",
   "function_name" : "std::__1::basic_string<char16_t, std::__1::char_traits<char16_t>, std::__1::allocator<char16_t>>::__recommend",
   "linker_set_key" : "_ZNSt3__112basic_stringIDsNS_11char_traitsIDsEENS_9allocatorIDsEEE11__recommendEm",
   "parameters" :
   [
    {
     "referenced_type" : "_ZTIm"
    }
   ],
   "return_type" : "_ZTIm",
   "source_file" : "external/libcxx/include/string"
  },
  {
   "access" : "private",
   "function_name" : "std::__1::basic_string<char16_t, std::__1::char_traits<char16_t>, std::__1::allocator<char16_t>>::__set_long_cap",
   "linker_set_key" : "_ZNSt3__112basic_stringIDsNS_11char_traitsIDsEENS_9allocatorIDsEEE14__set_long_capEm",
   "parameters" :
   [
    {
     "is_this_ptr" : true,
     "referenced_type" : "_ZTIPNSt3__112basic_stringIDsNS_11char_traitsIDsEENS_9allocatorIDsEEEE"
    },
    {
     "referenced_type" : "_ZTIm"
    }
   ],
   "return_type" : "_ZTIv",
   "source_file" : "external/libcxx/include/string"
  },
  {
   "access" : "private",
   "function_name" : "std::__1::basic_string<char16_t, std::__1::char_traits<char16_t>, std::__1::allocator<char16_t>>::__set_long_size",
   "linker_set_key" : "_ZNSt3__112basic_stringIDsNS_11char_traitsIDsEENS_9allocatorIDsEEE15__set_long_sizeEm",
   "parameters" :
   [
    {
     "is_this_ptr" : true,
     "referenced_type" : "_ZTIPNSt3__112basic_stringIDsNS_11char_traitsIDsEENS_9allocatorIDsEEEE"
    },
    {
     "referenced_type" : "_ZTIm"
    }
   ],
   "return_type" : "_ZTIv",
   "source_file" : "external/libcxx/include/string"
  },
  {
   "access" : "private",
   "function_name" : "std::__1::basic_string<char16_t, std::__1::char_traits<char16_t>, std::__1::allocator<char16_t>>::__set_short_size",
   "linker_set_key" : "_ZNSt3__112basic_stringIDsNS_11char_traitsIDsEENS_9allocatorIDsEEE16__set_short_sizeEm",
   "parameters" :
   [
    {
     "is_this_ptr" : true,
     "referenced_type" : "_ZTIPNSt3__112basic_stringIDsNS_11char_traitsIDsEENS_9allocatorIDsEEEE"
    },
    {
     "referenced_type" : "_ZTIm"
    }
   ],
   "return_type" : "_ZTIv",
   "source_file" : "external/libcxx/include/string"
  },
  {
   "access" : "private",
   "function_name" : "std::__1::basic_string<char16_t, std::__1::char_traits<char16_t>, std::__1::allocator<char16_t>>::__get_long_pointer",
   "linker_set_key" : "_ZNSt3__112basic_stringIDsNS_11char_traitsIDsEENS_9allocatorIDsEEE18__get_long_pointerEv",
   "parameters" :
   [
    {
     "is_this_ptr" : true,
     "referenced_type" : "_ZTIPNSt3__112basic_stringIDsNS_11char_traitsIDsEENS_9allocatorIDsEEEE"
    }
   ],
   "return_type" : "_ZTIPDs",
   "source_file" : "external/libcxx/include/string"
  },
  {
   "access" : "private",
   "function_name" : "std::__1::basic_string<char16_t, std::__1::char_traits<char16_t>, std::__1::allocator<char16_t>>::__set_long_pointer",
   "linker_set_key" : "_ZNSt3__112basic_stringIDsNS_11char_traitsIDsEENS_9allocatorIDsEEE18__set_long_pointerEPDs",
   "parameters" :
   [
    {
     "is_this_ptr" : true,
     "referenced_type" : "_ZTIPNSt3__112basic_stringIDsNS_11char_traitsIDsEENS_9allocatorIDsEEEE"
    },
    {
     "referenced_type" : "_ZTIPDs"
    }
   ],
   "return_type" : "_ZTIv",
   "source_file" : "external/libcxx/include/string"
  },
  {
   "access" : "private",
   "function_name" : "std::__1::basic_string<char16_t, std::__1::char_traits<char16_t>, std::__1::allocator<char16_t>>::__get_short_pointer",
   "linker_set_key" : "_ZNSt3__112basic_stringIDsNS_11char_traitsIDsEENS_9allocatorIDsEEE19__get_short_pointerEv",
   "parameters" :
   [
    {
     "is_this_ptr" : true,
     "referenced_type" : "_ZTIPNSt3__112basic_stringIDsNS_11char_traitsIDsEENS_9allocatorIDsEEEE"
    }
   ],
   "return_type" : "_ZTIPDs",
   "source_file" : "external/libcxx/include/string"
  },
  {
   "access" : "private",
   "function_name" : "std::__1::basic_string<char16_t, std::__1::char_traits<char16_t>, std::__1::allocator<char16_t>>::__init",
   "linker_set_key" : "_ZNSt3__112basic_stringIDsNS_11char_traitsIDsEENS_9allocatorIDsEEE6__initEPKDsm",
   "parameters" :
   [
    {
     "is_this_ptr" : true,
     "referenced_type" : "_ZTIPNSt3__112basic_stringIDsNS_11char_traitsIDsEENS_9allocatorIDsEEEE"
    },
    {
     "referenced_type" : "_ZTIPKDs"
    },
    {
     "referenced_type" : "_ZTIm"
    }
   ],
   "return_type" : "_ZTIv",
   "source_file" : "external/libcxx/include/string"
  },
  {
   "access" : "private",
   "function_name" : "std::__1::basic_string<char16_t, std::__1::char_traits<char16_t>, std::__1::allocator<char16_t>>::__alloc",
   "linker_set_key" : "_ZNSt3__112basic_stringIDsNS_11char_traitsIDsEENS_9allocatorIDsEEE7__allocEv",
   "parameters" :
   [
    {
     "is_this_ptr" : true,
     "referenced_type" : "_ZTIPNSt3__112basic_stringIDsNS_11char_traitsIDsEENS_9allocatorIDsEEEE"
    }
   ],
   "return_type" : "_ZTIRNSt3__19allocatorIDsEE",
   "source_file" : "external/libcxx/include/string"
  },
  {
   "function_name" : "std::__1::basic_string<char16_t, std::__1::char_traits<char16_t>, std::__1::allocator<char16_t>>::basic_string",
   "linker_set_key" : "_ZNSt3__112basic_stringIDsNS_11char_traitsIDsEENS_9allocatorIDsEEEC1EPKDsm",
   "parameters" :
   [
    {
     "is_this_ptr" : true,
     "referenced_type" : "_ZTIPNSt3__112basic_stringIDsNS_11char_traitsIDsEENS_9allocatorIDsEEEE"
    },
    {
     "referenced_type" : "_ZTIPKDs"
    },
    {
     "referenced_type" : "_ZTIm"
    }
   ],
   "return_type" : "_ZTIv",
   "source_file" : "external/libcxx/include/string"
  },
  {
   "function_name" : "std::__1::basic_string<char16_t, std::__1::char_traits<char16_t>, std::__1::allocator<char16_t>>::basic_string",
   "linker_set_key" : "_ZNSt3__112basic_stringIDsNS_11char_traitsIDsEENS_9allocatorIDsEEEC2EPKDsm",
   "parameters" :
   [
    {
     "is_this_ptr" : true,
     "referenced_type" : "_ZTIPNSt3__112basic_stringIDsNS_11char_traitsIDsEENS_9allocatorIDsEEEE"
    },
    {
     "referenced_type" : "_ZTIPKDs"
    },
    {
     "referenced_type" : "_ZTIm"
    }
   ],
   "return_type" : "_ZTIv",
   "source_file" : "external/libcxx/include/string"
  },
  {
   "function_name" : "std::__1::basic_string<char16_t, std::__1::char_traits<char16_t>, std::__1::allocator<char16_t>>::~basic_string",
   "linker_set_key" : "_ZNSt3__112basic_stringIDsNS_11char_traitsIDsEENS_9allocatorIDsEEED1Ev",
   "parameters" :
   [
    {
     "is_this_ptr" : true,
     "referenced_type" : "_ZTIPNSt3__112basic_stringIDsNS_11char_traitsIDsEENS_9allocatorIDsEEEE"
    }
   ],
   "return_type" : "_ZTIv",
   "source_file" : "external/libcxx/include/string"
  },
  {
   "function_name" : "std::__1::basic_string<char16_t, std::__1::char_traits<char16_t>, std::__1::allocator<char16_t>>::~basic_string",
   "linker_set_key" : "_ZNSt3__112basic_stringIDsNS_11char_traitsIDsEENS_9allocatorIDsEEED2Ev",
   "parameters" :
   [
    {
     "is_this_ptr" : true,
     "referenced_type" : "_ZTIPNSt3__112basic_stringIDsNS_11char_traitsIDsEENS_9allocatorIDsEEEE"
    }
   ],
   "return_type" : "_ZTIv",
   "source_file" : "external/libcxx/include/string"
  },
  {
   "access" : "private",
   "function_name" : "std::__1::basic_string<char, std::__1::char_traits<char>, std::__1::allocator<char>>::__align_it",
   "linker_set_key" : "_ZNSt3__112basic_stringIcNS_11char_traitsIcEENS_9allocatorIcEEE10__align_itILm16EEEmm",
   "parameters" :
   [
    {
     "referenced_type" : "_ZTIm"
    }
   ],
   "return_type" : "_ZTIm",
   "source_file" : "external/libcxx/include/string"
  },
  {
   "access" : "private",
   "function_name" : "std::__1::basic_string<char, std::__1::char_traits<char>, std::__1::allocator<char>>::__recommend",
   "linker_set_key" : "_ZNSt3__112basic_stringIcNS_11char_traitsIcEENS_9allocatorIcEEE11__recommendEm",
   "parameters" :
   [
    {
     "referenced_type" : "_ZTIm"
    }
   ],
   "return_type" : "_ZTIm",
   "source_file" : "external/libcxx/include/string"
  },
  {
   "access" : "private",
   "function_name" : "std::__1::basic_string<char, std::__1::char_traits<char>, std::__1::allocator<char>>::__set_long_cap",
   "linker_set_key" : "_ZNSt3__112basic_stringIcNS_11char_traitsIcEENS_9allocatorIcEEE14__set_long_capEm",
   "parameters" :
   [
    {
     "is_this_ptr" : true,
     "referenced_type" : "_ZTIPNSt3__112basic_stringIcNS_11char_traitsIcEENS_9allocatorIcEEEE"
    },
    {
     "referenced_type" : "_ZTIm"
    }
   ],
   "return_type" : "_ZTIv",
   "source_file" : "external/libcxx/include/string"
  },
  {
   "access" : "private",
   "function_name" : "std::__1::basic_string<char, std::__1::char_traits<char>, std::__1::allocator<char>>::__set_long_size",
   "linker_set_key" : "_ZNSt3__112basic_stringIcNS_11char_traitsIcEENS_9allocatorIcEEE15__set_long_sizeEm",
   "parameters" :
   [
    {
     "is_this_ptr" : true,
     "referenced_type" : "_ZTIPNSt3__112basic_stringIcNS_11char_traitsIcEENS_9allocatorIcEEEE"
    },
    {
     "referenced_type" : "_ZTIm"
    }
   ],
   "return_type" : "_ZTIv",
   "source_file" : "external/libcxx/include/string"
  },
  {
   "access" : "private",
   "function_name" : "std::__1::basic_string<char, std::__1::char_traits<char>, std::__1::allocator<char>>::__set_short_size",
   "linker_set_key" : "_ZNSt3__112basic_stringIcNS_11char_traitsIcEENS_9allocatorIcEEE16__set_short_sizeEm",
   "parameters" :
   [
    {
     "is_this_ptr" : true,
     "referenced_type" : "_ZTIPNSt3__112basic_stringIcNS_11char_traitsIcEENS_9allocatorIcEEEE"
    },
    {
     "referenced_type" : "_ZTIm"
    }
   ],
   "return_type" : "_ZTIv",
   "source_file" : "external/libcxx/include/string"
  },
  {
   "access" : "private",
   "function_name" : "std::__1::basic_string<char, std::__1::char_traits<char>, std::__1::allocator<char>>::__get_long_pointer",
   "linker_set_key" : "_ZNSt3__112basic_stringIcNS_11char_traitsIcEENS_9allocatorIcEEE18__get_long_pointerEv",
   "parameters" :
   [
    {
     "is_this_ptr" : true,
     "referenced_type" : "_ZTIPNSt3__112basic_stringIcNS_11char_traitsIcEENS_9allocatorIcEEEE"
    }
   ],
   "return_type" : "_ZTIPc",
   "source_file" : "external/libcxx/include/string"
  },
  {
   "access" : "private",
   "function_name" : "std::__1::basic_string<char, std::__1::char_traits<char>, std::__1::allocator<char>>::__set_long_pointer",
   "linker_set_key" : "_ZNSt3__112basic_stringIcNS_11char_traitsIcEENS_9allocatorIcEEE18__set_long_pointerEPc",
   "parameters" :
   [
    {
     "is_this_ptr" : true,
     "referenced_type" : "_ZTIPNSt3__112basic_stringIcNS_11char_traitsIcEENS_9allocatorIcEEEE"
    },
    {
     "referenced_type" : "_ZTIPc"
    }
   ],
   "return_type" : "_ZTIv",
   "source_file" : "external/libcxx/include/string"
  },
  {
   "access" : "private",
   "function_name" : "std::__1::basic_string<char, std::__1::char_traits<char>, std::__1::allocator<char>>::__get_short_pointer",
   "linker_set_key" : "_ZNSt3__112basic_stringIcNS_11char_traitsIcEENS_9allocatorIcEEE19__get_short_pointerEv",
   "parameters" :
   [
    {
     "is_this_ptr" : true,
     "referenced_type" : "_ZTIPNSt3__112basic_stringIcNS_11char_traitsIcEENS_9allocatorIcEEEE"
    }
   ],
   "return_type" : "_ZTIPc",
   "source_file" : "external/libcxx/include/string"
  },
  {
   "access" : "private",
   "function_name" : "std::__1::basic_string<char, std::__1::char_traits<char>, std::__1::allocator<char>>::__init",
   "linker_set_key" : "_ZNSt3__112basic_stringIcNS_11char_traitsIcEENS_9allocatorIcEEE6__initEPKcm",
   "parameters" :
   [
    {
     "is_this_ptr" : true,
     "referenced_type" : "_ZTIPNSt3__112basic_stringIcNS_11char_traitsIcEENS_9allocatorIcEEEE"
    },
    {
     "referenced_type" : "_ZTIPKc"
    },
    {
     "referenced_type" : "_ZTIm"
    }
   ],
   "return_type" : "_ZTIv",
   "source_file" : "external/libcxx/include/string"
  },
  {
   "access" : "private",
   "function_name" : "std::__1::basic_string<char, std::__1::char_traits<char>, std::__1::allocator<char>>::__alloc",
   "linker_set_key" : "_ZNSt3__112basic_stringIcNS_11char_traitsIcEENS_9allocatorIcEEE7__allocEv",
   "parameters" :
   [
    {
     "is_this_ptr" : true,
     "referenced_type" : "_ZTIPNSt3__112basic_stringIcNS_11char_traitsIcEENS_9allocatorIcEEEE"
    }
   ],
   "return_type" : "_ZTIRNSt3__19allocatorIcEE",
   "source_file" : "external/libcxx/include/string"
  },
  {
   "function_name" : "std::__1::basic_string<char, std::__1::char_traits<char>, std::__1::allocator<char>>::basic_string",
   "linker_set_key" : "_ZNSt3__112basic_stringIcNS_11char_traitsIcEENS_9allocatorIcEEEC1EPKcm",
   "parameters" :
   [
    {
     "is_this_ptr" : true,
     "referenced_type" : "_ZTIPNSt3__112basic_stringIcNS_11char_traitsIcEENS_9allocatorIcEEEE"
    },
    {
     "referenced_type" : "_ZTIPKc"
    },
    {
     "referenced_type" : "_ZTIm"
    }
   ],
   "return_type" : "_ZTIv",
   "source_file" : "external/libcxx/include/string"
  },
  {
   "function_name" : "std::__1::basic_string<char, std::__1::char_traits<char>, std::__1::allocator<char>>::basic_string",
   "linker_set_key" : "_ZNSt3__112basic_stringIcNS_11char_traitsIcEENS_9allocatorIcEEEC2EPKcm",
   "parameters" :
   [
    {
     "is_this_ptr" : true,
     "referenced_type" : "_ZTIPNSt3__112basic_stringIcNS_11char_traitsIcEENS_9allocatorIcEEEE"
    },
    {
     "referenced_type" : "_ZTIPKc"
    },
    {
     "referenced_type" : "_ZTIm"
    }
   ],
   "return_type" : "_ZTIv",
   "source_file" : "external/libcxx/include/string"
  },
  {
   "function_name" : "std::__1::basic_string<char, std::__1::char_traits<char>, std::__1::allocator<char>>::~basic_string",
   "linker_set_key" : "_ZNSt3__112basic_stringIcNS_11char_traitsIcEENS_9allocatorIcEEED1Ev",
   "parameters" :
   [
    {
     "is_this_ptr" : true,
     "referenced_type" : "_ZTIPNSt3__112basic_stringIcNS_11char_traitsIcEENS_9allocatorIcEEEE"
    }
   ],
   "return_type" : "_ZTIv",
   "source_file" : "external/libcxx/include/string"
  },
  {
   "function_name" : "std::__1::basic_string<char, std::__1::char_traits<char>, std::__1::allocator<char>>::~basic_string",
   "linker_set_key" : "_ZNSt3__112basic_stringIcNS_11char_traitsIcEENS_9allocatorIcEEED2Ev",
   "parameters" :
   [
    {
     "is_this_ptr" : true,
     "referenced_type" : "_ZTIPNSt3__112basic_stringIcNS_11char_traitsIcEENS_9allocatorIcEEEE"
    }
   ],
   "return_type" : "_ZTIv",
   "source_file" : "external/libcxx/include/string"
  },
  {
   "access" : "private",
   "function_name" : "std::__1::basic_string<wchar_t, std::__1::char_traits<wchar_t>, std::__1::allocator<wchar_t>>::__align_it",
   "linker_set_key" : "_ZNSt3__112basic_stringIwNS_11char_traitsIwEENS_9allocatorIwEEE10__align_itILm4EEEmm",
   "parameters" :
   [
    {
     "referenced_type" : "_ZTIm"
    }
   ],
   "return_type" : "_ZTIm",
   "source_file" : "external/libcxx/include/string"
  },
  {
   "access" : "private",
   "function_name" : "std::__1::basic_string<wchar_t, std::__1::char_traits<wchar_t>, std::__1::allocator<wchar_t>>::__recommend",
   "linker_set_key" : "_ZNSt3__112basic_stringIwNS_11char_traitsIwEENS_9allocatorIwEEE11__recommendEm",
   "parameters" :
   [
    {
     "referenced_type" : "_ZTIm"
    }
   ],
   "return_type" : "_ZTIm",
   "source_file" : "external/libcxx/include/string"
  },
  {
   "access" : "private",
   "function_name" : "std::__1::basic_string<wchar_t, std::__1::char_traits<wchar_t>, std::__1::allocator<wchar_t>>::__set_long_cap",
   "linker_set_key" : "_ZNSt3__112basic_stringIwNS_11char_traitsIwEENS_9allocatorIwEEE14__set_long_capEm",
   "parameters" :
   [
    {
     "is_this_ptr" : true,
     "referenced_type" : "_ZTIPNSt3__112basic_stringIwNS_11char_traitsIwEENS_9allocatorIwEEEE"
    },
    {
     "referenced_type" : "_ZTIm"
    }
   ],
   "return_type" : "_ZTIv",
   "source_file" : "external/libcxx/include/string"
  },
  {
   "access" : "private",
   "function_name" : "std::__1::basic_string<wchar_t, std::__1::char_traits<wchar_t>, std::__1::allocator<wchar_t>>::__set_long_size",
   "linker_set_key" : "_ZNSt3__112basic_stringIwNS_11char_traitsIwEENS_9allocatorIwEEE15__set_long_sizeEm",
   "parameters" :
   [
    {
     "is_this_ptr" : true,
     "referenced_type" : "_ZTIPNSt3__112basic_stringIwNS_11char_traitsIwEENS_9allocatorIwEEEE"
    },
    {
     "referenced_type" : "_ZTIm"
    }
   ],
   "return_type" : "_ZTIv",
   "source_file" : "external/libcxx/include/string"
  },
  {
   "access" : "private",
   "function_name" : "std::__1::basic_string<wchar_t, std::__1::char_traits<wchar_t>, std::__1::allocator<wchar_t>>::__set_short_size",
   "linker_set_key" : "_ZNSt3__112basic_stringIwNS_11char_traitsIwEENS_9allocatorIwEEE16__set_short_sizeEm",
   "parameters" :
   [
    {
     "is_this_ptr" : true,
     "referenced_type" : "_ZTIPNSt3__112basic_stringIwNS_11char_traitsIwEENS_9allocatorIwEEEE"
    },
    {
     "referenced_type" : "_ZTIm"
    }
   ],
   "return_type" : "_ZTIv",
   "source_file" : "external/libcxx/include/string"
  },
  {
   "access" : "private",
   "function_name" : "std::__1::basic_string<wchar_t, std::__1::char_traits<wchar_t>, std::__1::allocator<wchar_t>>::__get_long_pointer",
   "linker_set_key" : "_ZNSt3__112basic_stringIwNS_11char_traitsIwEENS_9allocatorIwEEE18__get_long_pointerEv",
   "parameters" :
   [
    {
     "is_this_ptr" : true,
     "referenced_type" : "_ZTIPNSt3__112basic_stringIwNS_11char_traitsIwEENS_9allocatorIwEEEE"
    }
   ],
   "return_type" : "_ZTIPw",
   "source_file" : "external/libcxx/include/string"
  },
  {
   "access" : "private",
   "function_name" : "std::__1::basic_string<wchar_t, std::__1::char_traits<wchar_t>, std::__1::allocator<wchar_t>>::__set_long_pointer",
   "linker_set_key" : "_ZNSt3__112basic_stringIwNS_11char_traitsIwEENS_9allocatorIwEEE18__set_long_pointerEPw",
   "parameters" :
   [
    {
     "is_this_ptr" : true,
     "referenced_type" : "_ZTIPNSt3__112basic_stringIwNS_11char_traitsIwEENS_9allocatorIwEEEE"
    },
    {
     "referenced_type" : "_ZTIPw"
    }
   ],
   "return_type" : "_ZTIv",
   "source_file" : "external/libcxx/include/string"
  },
  {
   "access" : "private",
   "function_name" : "std::__1::basic_string<wchar_t, std::__1::char_traits<wchar_t>, std::__1::allocator<wchar_t>>::__get_short_pointer",
   "linker_set_key" : "_ZNSt3__112basic_stringIwNS_11char_traitsIwEENS_9allocatorIwEEE19__get_short_pointerEv",
   "parameters" :
   [
    {
     "is_this_ptr" : true,
     "referenced_type" : "_ZTIPNSt3__112basic_stringIwNS_11char_traitsIwEENS_9allocatorIwEEEE"
    }
   ],
   "return_type" : "_ZTIPw",
   "source_file" : "external/libcxx/include/string"
  },
  {
   "access" : "private",
   "function_name" : "std::__1::basic_string<wchar_t, std::__1::char_traits<wchar_t>, std::__1::allocator<wchar_t>>::__init",
   "linker_set_key" : "_ZNSt3__112basic_stringIwNS_11char_traitsIwEENS_9allocatorIwEEE6__initEPKwm",
   "parameters" :
   [
    {
     "is_this_ptr" : true,
     "referenced_type" : "_ZTIPNSt3__112basic_stringIwNS_11char_traitsIwEENS_9allocatorIwEEEE"
    },
    {
     "referenced_type" : "_ZTIPKw"
    },
    {
     "referenced_type" : "_ZTIm"
    }
   ],
   "return_type" : "_ZTIv",
   "source_file" : "external/libcxx/include/string"
  },
  {
   "access" : "private",
   "function_name" : "std::__1::basic_string<wchar_t, std::__1::char_traits<wchar_t>, std::__1::allocator<wchar_t>>::__alloc",
   "linker_set_key" : "_ZNSt3__112basic_stringIwNS_11char_traitsIwEENS_9allocatorIwEEE7__allocEv",
   "parameters" :
   [
    {
     "is_this_ptr" : true,
     "referenced_type" : "_ZTIPNSt3__112basic_stringIwNS_11char_traitsIwEENS_9allocatorIwEEEE"
    }
   ],
   "return_type" : "_ZTIRNSt3__19allocatorIwEE",
   "source_file" : "external/libcxx/include/string"
  },
  {
   "function_name" : "std::__1::basic_string<wchar_t, std::__1::char_traits<wchar_t>, std::__1::allocator<wchar_t>>::basic_string",
   "linker_set_key" : "_ZNSt3__112basic_stringIwNS_11char_traitsIwEENS_9allocatorIwEEEC1EPKwm",
   "parameters" :
   [
    {
     "is_this_ptr" : true,
     "referenced_type" : "_ZTIPNSt3__112basic_stringIwNS_11char_traitsIwEENS_9allocatorIwEEEE"
    },
    {
     "referenced_type" : "_ZTIPKw"
    },
    {
     "referenced_type" : "_ZTIm"
    }
   ],
   "return_type" : "_ZTIv",
   "source_file" : "external/libcxx/include/string"
  },
  {
   "function_name" : "std::__1::basic_string<wchar_t, std::__1::char_traits<wchar_t>, std::__1::allocator<wchar_t>>::basic_string",
   "linker_set_key" : "_ZNSt3__112basic_stringIwNS_11char_traitsIwEENS_9allocatorIwEEEC2EPKwm",
   "parameters" :
   [
    {
     "is_this_ptr" : true,
     "referenced_type" : "_ZTIPNSt3__112basic_stringIwNS_11char_traitsIwEENS_9allocatorIwEEEE"
    },
    {
     "referenced_type" : "_ZTIPKw"
    },
    {
     "referenced_type" : "_ZTIm"
    }
   ],
   "return_type" : "_ZTIv",
   "source_file" : "external/libcxx/include/string"
  },
  {
   "function_name" : "std::__1::basic_string<wchar_t, std::__1::char_traits<wchar_t>, std::__1::allocator<wchar_t>>::~basic_string",
   "linker_set_key" : "_ZNSt3__112basic_stringIwNS_11char_traitsIwEENS_9allocatorIwEEED1Ev",
   "parameters" :
   [
    {
     "is_this_ptr" : true,
     "referenced_type" : "_ZTIPNSt3__112basic_stringIwNS_11char_traitsIwEENS_9allocatorIwEEEE"
    }
   ],
   "return_type" : "_ZTIv",
   "source_file" : "external/libcxx/include/string"
  },
  {
   "function_name" : "std::__1::basic_string<wchar_t, std::__1::char_traits<wchar_t>, std::__1::allocator<wchar_t>>::~basic_string",
   "linker_set_key" : "_ZNSt3__112basic_stringIwNS_11char_traitsIwEENS_9allocatorIwEEED2Ev",
   "parameters" :
   [
    {
     "is_this_ptr" : true,
     "referenced_type" : "_ZTIPNSt3__112basic_stringIwNS_11char_traitsIwEENS_9allocatorIwEEEE"
    }
   ],
   "return_type" : "_ZTIv",
   "source_file" : "external/libcxx/include/string"
  },
  {
   "function_name" : "std::__1::__find_detail::__find_idx_return",
   "linker_set_key" : "_ZNSt3__113__find_detail17__find_idx_returnEmmb",
   "parameters" :
   [
    {
     "referenced_type" : "_ZTIm"
    },
    {
     "referenced_type" : "_ZTIm"
    },
    {
     "referenced_type" : "_ZTIb"
    }
   ],
   "return_type" : "_ZTIm",
   "source_file" : "external/libcxx/include/tuple"
  },
  {
   "function_name" : "std::__1::__hash_combine",
   "linker_set_key" : "_ZNSt3__114__hash_combineEmm",
   "parameters" :
   [
    {
     "referenced_type" : "_ZTIm"
    },
    {
     "referenced_type" : "_ZTIm"
    }
   ],
   "return_type" : "_ZTIm",
   "source_file" : "external/libcxx/include/utility"
  },
  {
   "function_name" : "std::__1::__shared_count::__add_shared",
   "linker_set_key" : "_ZNSt3__114__shared_count12__add_sharedEv",
   "parameters" :
   [
    {
     "is_this_ptr" : true,
     "referenced_type" : "_ZTIPNSt3__114__shared_countE"
    }
   ],
   "return_type" : "_ZTIv",
   "source_file" : "external/libcxx/include/memory"
  },
  {
   "function_name" : "std::__1::__shared_count::__release_shared",
   "linker_set_key" : "_ZNSt3__114__shared_count16__release_sharedEv",
   "parameters" :
   [
    {
     "is_this_ptr" : true,
     "referenced_type" : "_ZTIPNSt3__114__shared_countE"
    }
   ],
   "return_type" : "_ZTIb",
   "source_file" : "external/libcxx/include/memory"
  },
  {
   "function_name" : "std::__1::__shared_count::__shared_count",
   "linker_set_key" : "_ZNSt3__114__shared_countC2El",
   "parameters" :
   [
    {
     "is_this_ptr" : true,
     "referenced_type" : "_ZTIPNSt3__114__shared_countE"
    },
    {
     "default_arg" : true,
     "referenced_type" : "_ZTIl"
    }
   ],
   "return_type" : "_ZTIv",
   "source_file" : "external/libcxx/include/memory"
  },
  {
   "function_name" : "std::__1::numeric_limits<long>::max",
   "linker_set_key" : "_ZNSt3__114numeric_limitsIlE3maxEv",
   "return_type" : "_ZTIl",
   "source_file" : "external/libcxx/include/limits"
  },
  {
   "function_name" : "std::__1::numeric_limits<unsigned long>::max",
   "linker_set_key" : "_ZNSt3__114numeric_limitsImE3maxEv",
   "return_type" : "_ZTIm",
   "source_file" : "external/libcxx/include/limits"
  },
  {
   "function_name" : "std::__1::pointer_safety::pointer_safety",
   "linker_set_key" : "_ZNSt3__114pointer_safetyC1ENS0_4__lxE",
   "parameters" :
   [
    {
     "is_this_ptr" : true,
     "referenced_type" : "_ZTIPNSt3__114pointer_safetyE"
    },
    {
     "referenced_type" : "_ZTINSt3__114pointer_safety4__lxE"
    }
   ],
   "return_type" : "_ZTIv",
   "source_file" : "external/libcxx/include/memory"
  },
  {
   "function_name" : "std::__1::pointer_safety::pointer_safety",
   "linker_set_key" : "_ZNSt3__114pointer_safetyC1Ev",
   "parameters" :
   [
    {
     "is_this_ptr" : true,
     "referenced_type" : "_ZTIPNSt3__114pointer_safetyE"
    }
   ],
   "return_type" : "_ZTIv",
   "source_file" : "external/libcxx/include/memory"
  },
  {
   "function_name" : "std::__1::pointer_safety::pointer_safety",
   "linker_set_key" : "_ZNSt3__114pointer_safetyC2ENS0_4__lxE",
   "parameters" :
   [
    {
     "is_this_ptr" : true,
     "referenced_type" : "_ZTIPNSt3__114pointer_safetyE"
    },
    {
     "referenced_type" : "_ZTINSt3__114pointer_safety4__lxE"
    }
   ],
   "return_type" : "_ZTIv",
   "source_file" : "external/libcxx/include/memory"
  },
  {
   "function_name" : "std::__1::pointer_safety::pointer_safety",
   "linker_set_key" : "_ZNSt3__114pointer_safetyC2Ev",
   "parameters" :
   [
    {
     "is_this_ptr" : true,
     "referenced_type" : "_ZTIPNSt3__114pointer_safetyE"
    }
   ],
   "return_type" : "_ZTIv",
   "source_file" : "external/libcxx/include/memory"
  },
  {
   "function_name" : "std::__1::pointer_traits<char32_t *>::pointer_to",
   "linker_set_key" : "_ZNSt3__114pointer_traitsIPDiE10pointer_toERDi",
   "parameters" :
   [
    {
     "referenced_type" : "_ZTIRDi"
    }
   ],
   "return_type" : "_ZTIPDi",
   "source_file" : "external/libcxx/include/memory"
  },
  {
   "function_name" : "std::__1::pointer_traits<char16_t *>::pointer_to",
   "linker_set_key" : "_ZNSt3__114pointer_traitsIPDsE10pointer_toERDs",
   "parameters" :
   [
    {
     "referenced_type" : "_ZTIRDs"
    }
   ],
   "return_type" : "_ZTIPDs",
   "source_file" : "external/libcxx/include/memory"
  },
  {
   "function_name" : "std::__1::pointer_traits<char *>::pointer_to",
   "linker_set_key" : "_ZNSt3__114pointer_traitsIPcE10pointer_toERc",
   "parameters" :
   [
    {
     "referenced_type" : "_ZTIRc"
    }
   ],
   "return_type" : "_ZTIPc",
   "source_file" : "external/libcxx/include/memory"
  },
  {
   "function_name" : "std::__1::pointer_traits<wchar_t *>::pointer_to",
   "linker_set_key" : "_ZNSt3__114pointer_traitsIPwE10pointer_toERw",
   "parameters" :
   [
    {
     "referenced_type" : "_ZTIRw"
    }
   ],
   "return_type" : "_ZTIPw",
   "source_file" : "external/libcxx/include/memory"
  },
  {
   "function_name" : "std::__1::__throw_bad_cast",
   "linker_set_key" : "_ZNSt3__116__throw_bad_castEv",
   "return_type" : "_ZTIv",
   "source_file" : "external/libcxx/include/typeinfo"
  },
  {
   "function_name" : "std::__1::__to_raw_pointer",
   "linker_set_key" : "_ZNSt3__116__to_raw_pointerIDiEEPT_S2_",
   "parameters" :
   [
    {
     "referenced_type" : "_ZTIPDi"
    }
   ],
   "return_type" : "_ZTIPDi",
   "source_file" : "external/libcxx/include/memory",
   "template_args" : [ "_ZTIDi" ]
  },
  {
   "function_name" : "std::__1::__to_raw_pointer",
   "linker_set_key" : "_ZNSt3__116__to_raw_pointerIDsEEPT_S2_",
   "parameters" :
   [
    {
     "referenced_type" : "_ZTIPDs"
    }
   ],
   "return_type" : "_ZTIPDs",
   "source_file" : "external/libcxx/include/memory",
   "template_args" : [ "_ZTIDs" ]
  },
  {
   "function_name" : "std::__1::__to_raw_pointer",
   "linker_set_key" : "_ZNSt3__116__to_raw_pointerIcEEPT_S2_",
   "parameters" :
   [
    {
     "referenced_type" : "_ZTIPc"
    }
   ],
   "return_type" : "_ZTIPc",
   "source_file" : "external/libcxx/include/memory",
   "template_args" : [ "_ZTIc" ]
  },
  {
   "function_name" : "std::__1::__to_raw_pointer",
   "linker_set_key" : "_ZNSt3__116__to_raw_pointerIwEEPT_S2_",
   "parameters" :
   [
    {
     "referenced_type" : "_ZTIPw"
    }
   ],
   "return_type" : "_ZTIPw",
   "source_file" : "external/libcxx/include/memory",
   "template_args" : [ "_ZTIw" ]
  },
  {
   "access" : "private",
   "function_name" : "std::__1::allocator_traits<std::__1::allocator<char32_t>>::__max_size",
   "linker_set_key" : "_ZNSt3__116allocator_traitsINS_9allocatorIDiEEE10__max_sizeENS_17integral_constantIbLb1EEERKS2_",
   "parameters" :
   [
    {
     "referenced_type" : "_ZTINSt3__117integral_constantIbLb1EEE"
    },
    {
     "referenced_type" : "_ZTIRKNSt3__19allocatorIDiEE"
    }
   ],
   "return_type" : "_ZTIm",
   "source_file" : "external/libcxx/include/memory"
  },
  {
   "function_name" : "std::__1::allocator_traits<std::__1::allocator<char32_t>>::deallocate",
   "linker_set_key" : "_ZNSt3__116allocator_traitsINS_9allocatorIDiEEE10deallocateERS2_PDim",
   "parameters" :
   [
    {
     "referenced_type" : "_ZTIRNSt3__19allocatorIDiEE"
    },
    {
     "referenced_type" : "_ZTIPDi"
    },
    {
     "referenced_type" : "_ZTIm"
    }
   ],
   "return_type" : "_ZTIv",
   "source_file" : "external/libcxx/include/memory"
  },
  {
   "function_name" : "std::__1::allocator_traits<std::__1::allocator<char32_t>>::allocate",
   "linker_set_key" : "_ZNSt3__116allocator_traitsINS_9allocatorIDiEEE8allocateERS2_m",
   "parameters" :
   [
    {
     "referenced_type" : "_ZTIRNSt3__19allocatorIDiEE"
    },
    {
     "referenced_type" : "_ZTIm"
    }
   ],
   "return_type" : "_ZTIPDi",
   "source_file" : "external/libcxx/include/memory"
  },
  {
   "function_name" : "std::__1::allocator_traits<std::__1::allocator<char32_t>>::max_size",
   "linker_set_key" : "_ZNSt3__116allocator_traitsINS_9allocatorIDiEEE8max_sizeERKS2_",
   "parameters" :
   [
    {
     "referenced_type" : "_ZTIRKNSt3__19allocatorIDiEE"
    }
   ],
   "return_type" : "_ZTIm",
   "source_file" : "external/libcxx/include/memory"
  },
  {
   "access" : "private",
   "function_name" : "std::__1::allocator_traits<std::__1::allocator<char16_t>>::__max_size",
   "linker_set_key" : "_ZNSt3__116allocator_traitsINS_9allocatorIDsEEE10__max_sizeENS_17integral_constantIbLb1EEERKS2_",
   "parameters" :
   [
    {
     "referenced_type" : "_ZTINSt3__117integral_constantIbLb1EEE"
    },
    {
     "referenced_type" : "_ZTIRKNSt3__19allocatorIDsEE"
    }
   ],
   "return_type" : "_ZTIm",
   "source_file" : "external/libcxx/include/memory"
  },
  {
   "function_name" : "std::__1::allocator_traits<std::__1::allocator<char16_t>>::deallocate",
   "linker_set_key" : "_ZNSt3__116allocator_traitsINS_9allocatorIDsEEE10deallocateERS2_PDsm",
   "parameters" :
   [
    {
     "referenced_type" : "_ZTIRNSt3__19allocatorIDsEE"
    },
    {
     "referenced_type" : "_ZTIPDs"
    },
    {
     "referenced_type" : "_ZTIm"
    }
   ],
   "return_type" : "_ZTIv",
   "source_file" : "external/libcxx/include/memory"
  },
  {
   "function_name" : "std::__1::allocator_traits<std::__1::allocator<char16_t>>::allocate",
   "linker_set_key" : "_ZNSt3__116allocator_traitsINS_9allocatorIDsEEE8allocateERS2_m",
   "parameters" :
   [
    {
     "referenced_type" : "_ZTIRNSt3__19allocatorIDsEE"
    },
    {
     "referenced_type" : "_ZTIm"
    }
   ],
   "return_type" : "_ZTIPDs",
   "source_file" : "external/libcxx/include/memory"
  },
  {
   "function_name" : "std::__1::allocator_traits<std::__1::allocator<char16_t>>::max_size",
   "linker_set_key" : "_ZNSt3__116allocator_traitsINS_9allocatorIDsEEE8max_sizeERKS2_",
   "parameters" :
   [
    {
     "referenced_type" : "_ZTIRKNSt3__19allocatorIDsEE"
    }
   ],
   "return_type" : "_ZTIm",
   "source_file" : "external/libcxx/include/memory"
  },
  {
   "access" : "private",
   "function_name" : "std::__1::allocator_traits<std::__1::allocator<char>>::__max_size",
   "linker_set_key" : "_ZNSt3__116allocator_traitsINS_9allocatorIcEEE10__max_sizeENS_17integral_constantIbLb1EEERKS2_",
   "parameters" :
   [
    {
     "referenced_type" : "_ZTINSt3__117integral_constantIbLb1EEE"
    },
    {
     "referenced_type" : "_ZTIRKNSt3__19allocatorIcEE"
    }
   ],
   "return_type" : "_ZTIm",
   "source_file" : "external/libcxx/include/memory"
  },
  {
   "function_name" : "std::__1::allocator_traits<std::__1::allocator<char>>::deallocate",
   "linker_set_key" : "_ZNSt3__116allocator_traitsINS_9allocatorIcEEE10deallocateERS2_Pcm",
   "parameters" :
   [
    {
     "referenced_type" : "_ZTIRNSt3__19allocatorIcEE"
    },
    {
     "referenced_type" : "_ZTIPc"
    },
    {
     "referenced_type" : "_ZTIm"
    }
   ],
   "return_type" : "_ZTIv",
   "source_file" : "external/libcxx/include/memory"
  },
  {
   "function_name" : "std::__1::allocator_traits<std::__1::allocator<char>>::allocate",
   "linker_set_key" : "_ZNSt3__116allocator_traitsINS_9allocatorIcEEE8allocateERS2_m",
   "parameters" :
   [
    {
     "referenced_type" : "_ZTIRNSt3__19allocatorIcEE"
    },
    {
     "referenced_type" : "_ZTIm"
    }
   ],
   "return_type" : "_ZTIPc",
   "source_file" : "external/libcxx/include/memory"
  },
  {
   "function_name" : "std::__1::allocator_traits<std::__1::allocator<char>>::max_size",
   "linker_set_key" : "_ZNSt3__116allocator_traitsINS_9allocatorIcEEE8max_sizeERKS2_",
   "parameters" :
   [
    {
     "referenced_type" : "_ZTIRKNSt3__19allocatorIcEE"
    }
   ],
   "return_type" : "_ZTIm",
   "source_file" : "external/libcxx/include/memory"
  },
  {
   "access" : "private",
   "function_name" : "std::__1::allocator_traits<std::__1::allocator<wchar_t>>::__max_size",
   "linker_set_key" : "_ZNSt3__116allocator_traitsINS_9allocatorIwEEE10__max_sizeENS_17integral_constantIbLb1EEERKS2_",
   "parameters" :
   [
    {
     "referenced_type" : "_ZTINSt3__117integral_constantIbLb1EEE"
    },
    {
     "referenced_type" : "_ZTIRKNSt3__19allocatorIwEE"
    }
   ],
   "return_type" : "_ZTIm",
   "source_file" : "external/libcxx/include/memory"
  },
  {
   "function_name" : "std::__1::allocator_traits<std::__1::allocator<wchar_t>>::deallocate",
   "linker_set_key" : "_ZNSt3__116allocator_traitsINS_9allocatorIwEEE10deallocateERS2_Pwm",
   "parameters" :
   [
    {
     "referenced_type" : "_ZTIRNSt3__19allocatorIwEE"
    },
    {
     "referenced_type" : "_ZTIPw"
    },
    {
     "referenced_type" : "_ZTIm"
    }
   ],
   "return_type" : "_ZTIv",
   "source_file" : "external/libcxx/include/memory"
  },
  {
   "function_name" : "std::__1::allocator_traits<std::__1::allocator<wchar_t>>::allocate",
   "linker_set_key" : "_ZNSt3__116allocator_traitsINS_9allocatorIwEEE8allocateERS2_m",
   "parameters" :
   [
    {
     "referenced_type" : "_ZTIRNSt3__19allocatorIwEE"
    },
    {
     "referenced_type" : "_ZTIm"
    }
   ],
   "return_type" : "_ZTIPw",
   "source_file" : "external/libcxx/include/memory"
  },
  {
   "function_name" : "std::__1::allocator_traits<std::__1::allocator<wchar_t>>::max_size",
   "linker_set_key" : "_ZNSt3__116allocator_traitsINS_9allocatorIwEEE8max_sizeERKS2_",
   "parameters" :
   [
    {
     "referenced_type" : "_ZTIRKNSt3__19allocatorIwEE"
    }
   ],
   "return_type" : "_ZTIm",
   "source_file" : "external/libcxx/include/memory"
  },
  {
   "function_name" : "std::__1::forward_as_tuple",
   "linker_set_key" : "_ZNSt3__116forward_as_tupleIJEEENS_5tupleIJDpOT_EEES4_",
   "return_type" : "_ZTINSt3__15tupleIJEEE",
   "source_file" : "external/libcxx/include/tuple"
  },
  {
   "access" : "private",
   "function_name" : "std::__1::_DeallocateCaller::__do_deallocate_handle_size",
   "linker_set_key" : "_ZNSt3__117_DeallocateCaller27__do_deallocate_handle_sizeEPvm",
   "parameters" :
   [
    {
     "referenced_type" : "_ZTIPv"
    },
    {
     "referenced_type" : "_ZTIm"
    }
   ],
   "return_type" : "_ZTIv",
   "source_file" : "external/libcxx/include/new"
  },
  {
   "access" : "private",
   "function_name" : "std::__1::_DeallocateCaller::__do_deallocate_handle_size",
   "linker_set_key" : "_ZNSt3__117_DeallocateCaller27__do_deallocate_handle_sizeEPvmSt11align_val_t",
   "parameters" :
   [
    {
     "referenced_type" : "_ZTIPv"
    },
    {
     "referenced_type" : "_ZTIm"
    },
    {
     "referenced_type" : "_ZTISt11align_val_t"
    }
   ],
   "return_type" : "_ZTIv",
   "source_file" : "external/libcxx/include/new"
  },
  {
   "function_name" : "std::__1::_DeallocateCaller::__do_deallocate_handle_align",
   "linker_set_key" : "_ZNSt3__117_DeallocateCaller28__do_deallocate_handle_alignEPvm",
   "parameters" :
   [
    {
     "referenced_type" : "_ZTIPv"
    },
    {
     "referenced_type" : "_ZTIm"
    }
   ],
   "return_type" : "_ZTIv",
   "source_file" : "external/libcxx/include/new"
  },
  {
   "function_name" : "std::__1::_DeallocateCaller::__do_deallocate_handle_size_align",
   "linker_set_key" : "_ZNSt3__117_DeallocateCaller33__do_deallocate_handle_size_alignEPvmm",
   "parameters" :
   [
    {
     "referenced_type" : "_ZTIPv"
    },
    {
     "referenced_type" : "_ZTIm"
    },
    {
     "referenced_type" : "_ZTIm"
    }
   ],
   "return_type" : "_ZTIv",
   "source_file" : "external/libcxx/include/new"
  },
  {
   "access" : "private",
   "function_name" : "std::__1::_DeallocateCaller::__do_call",
   "linker_set_key" : "_ZNSt3__117_DeallocateCaller9__do_callEPv",
   "parameters" :
   [
    {
     "referenced_type" : "_ZTIPv"
    }
   ],
   "return_type" : "_ZTIv",
   "source_file" : "external/libcxx/include/new"
  },
  {
   "access" : "private",
   "function_name" : "std::__1::_DeallocateCaller::__do_call",
   "linker_set_key" : "_ZNSt3__117_DeallocateCaller9__do_callISt11align_val_tEEvPvT_",
   "parameters" :
   [
    {
     "referenced_type" : "_ZTIPv"
    },
    {
     "referenced_type" : "_ZTISt11align_val_t"
    }
   ],
   "return_type" : "_ZTIv",
   "source_file" : "external/libcxx/include/new",
   "template_args" : [ "_ZTISt11align_val_t" ]
  },
  {
   "function_name" : "std::__1::__compressed_pair<std::__1::basic_string<char32_t, std::__1::char_traits<char32_t>, std::__1::allocator<char32_t>>::__rep, std::__1::allocator<char32_t>>::first",
   "linker_set_key" : "_ZNSt3__117__compressed_pairINS_12basic_stringIDiNS_11char_traitsIDiEENS_9allocatorIDiEEE5__repES5_E5firstEv",
   "parameters" :
   [
    {
     "is_this_ptr" : true,
     "referenced_type" : "_ZTIPNSt3__117__compressed_pairINS_12basic_stringIDiNS_11char_traitsIDiEENS_9allocatorIDiEEE5__repES5_EE"
    }
   ],
   "return_type" : "_ZTIRNSt3__112basic_stringIDiNS_11char_traitsIDiEENS_9allocatorIDiEEE5__repE",
   "source_file" : "external/libcxx/include/memory"
  },
  {
   "function_name" : "std::__1::__compressed_pair<std::__1::basic_string<char32_t, std::__1::char_traits<char32_t>, std::__1::allocator<char32_t>>::__rep, std::__1::allocator<char32_t>>::second",
   "linker_set_key" : "_ZNSt3__117__compressed_pairINS_12basic_stringIDiNS_11char_traitsIDiEENS_9allocatorIDiEEE5__repES5_E6secondEv",
   "parameters" :
   [
    {
     "is_this_ptr" : true,
     "referenced_type" : "_ZTIPNSt3__117__compressed_pairINS_12basic_stringIDiNS_11char_traitsIDiEENS_9allocatorIDiEEE5__repES5_EE"
    }
   ],
   "return_type" : "_ZTIRNSt3__19allocatorIDiEE",
   "source_file" : "external/libcxx/include/memory"
  },
  {
   "function_name" : "std::__1::__compressed_pair<std::__1::basic_string<char32_t, std::__1::char_traits<char32_t>, std::__1::allocator<char32_t>>::__rep, std::__1::allocator<char32_t>>::__compressed_pair",
   "linker_set_key" : "_ZNSt3__117__compressed_pairINS_12basic_stringIDiNS_11char_traitsIDiEENS_9allocatorIDiEEE5__repES5_EC1ILb1EvEEv",
   "parameters" :
   [
    {
     "is_this_ptr" : true,
     "referenced_type" : "_ZTIPNSt3__117__compressed_pairINS_12basic_stringIDiNS_11char_traitsIDiEENS_9allocatorIDiEEE5__repES5_EE"
    }
   ],
   "return_type" : "_ZTIv",
   "source_file" : "external/libcxx/include/memory",
   "template_args" : [ "_ZTIv" ]
  },
  {
   "function_name" : "std::__1::__compressed_pair<std::__1::basic_string<char32_t, std::__1::char_traits<char32_t>, std::__1::allocator<char32_t>>::__rep, std::__1::allocator<char32_t>>::__compressed_pair",
   "linker_set_key" : "_ZNSt3__117__compressed_pairINS_12basic_stringIDiNS_11char_traitsIDiEENS_9allocatorIDiEEE5__repES5_EC2ILb1EvEEv",
   "parameters" :
   [
    {
     "is_this_ptr" : true,
     "referenced_type" : "_ZTIPNSt3__117__compressed_pairINS_12basic_stringIDiNS_11char_traitsIDiEENS_9allocatorIDiEEE5__repES5_EE"
    }
   ],
   "return_type" : "_ZTIv",
   "source_file" : "external/libcxx/include/memory",
   "template_args" : [ "_ZTIv" ]
  },
  {
   "function_name" : "std::__1::__compressed_pair<std::__1::basic_string<char16_t, std::__1::char_traits<char16_t>, std::__1::allocator<char16_t>>::__rep, std::__1::allocator<char16_t>>::first",
   "linker_set_key" : "_ZNSt3__117__compressed_pairINS_12basic_stringIDsNS_11char_traitsIDsEENS_9allocatorIDsEEE5__repES5_E5firstEv",
   "parameters" :
   [
    {
     "is_this_ptr" : true,
     "referenced_type" : "_ZTIPNSt3__117__compressed_pairINS_12basic_stringIDsNS_11char_traitsIDsEENS_9allocatorIDsEEE5__repES5_EE"
    }
   ],
   "return_type" : "_ZTIRNSt3__112basic_stringIDsNS_11char_traitsIDsEENS_9allocatorIDsEEE5__repE",
   "source_file" : "external/libcxx/include/memory"
  },
  {
   "function_name" : "std::__1::__compressed_pair<std::__1::basic_string<char16_t, std::__1::char_traits<char16_t>, std::__1::allocator<char16_t>>::__rep, std::__1::allocator<char16_t>>::second",
   "linker_set_key" : "_ZNSt3__117__compressed_pairINS_12basic_stringIDsNS_11char_traitsIDsEENS_9allocatorIDsEEE5__repES5_E6secondEv",
   "parameters" :
   [
    {
     "is_this_ptr" : true,
     "referenced_type" : "_ZTIPNSt3__117__compressed_pairINS_12basic_stringIDsNS_11char_traitsIDsEENS_9allocatorIDsEEE5__repES5_EE"
    }
   ],
   "return_type" : "_ZTIRNSt3__19allocatorIDsEE",
   "source_file" : "external/libcxx/include/memory"
  },
  {
   "function_name" : "std::__1::__compressed_pair<std::__1::basic_string<char16_t, std::__1::char_traits<char16_t>, std::__1::allocator<char16_t>>::__rep, std::__1::allocator<char16_t>>::__compressed_pair",
   "linker_set_key" : "_ZNSt3__117__compressed_pairINS_12basic_stringIDsNS_11char_traitsIDsEENS_9allocatorIDsEEE5__repES5_EC1ILb1EvEEv",
   "parameters" :
   [
    {
     "is_this_ptr" : true,
     "referenced_type" : "_ZTIPNSt3__117__compressed_pairINS_12basic_stringIDsNS_11char_traitsIDsEENS_9allocatorIDsEEE5__repES5_EE"
    }
   ],
   "return_type" : "_ZTIv",
   "source_file" : "external/libcxx/include/memory",
   "template_args" : [ "_ZTIv" ]
  },
  {
   "function_name" : "std::__1::__compressed_pair<std::__1::basic_string<char16_t, std::__1::char_traits<char16_t>, std::__1::allocator<char16_t>>::__rep, std::__1::allocator<char16_t>>::__compressed_pair",
   "linker_set_key" : "_ZNSt3__117__compressed_pairINS_12basic_stringIDsNS_11char_traitsIDsEENS_9allocatorIDsEEE5__repES5_EC2ILb1EvEEv",
   "parameters" :
   [
    {
     "is_this_ptr" : true,
     "referenced_type" : "_ZTIPNSt3__117__compressed_pairINS_12basic_stringIDsNS_11char_traitsIDsEENS_9allocatorIDsEEE5__repES5_EE"
    }
   ],
   "return_type" : "_ZTIv",
   "source_file" : "external/libcxx/include/memory",
   "template_args" : [ "_ZTIv" ]
  },
  {
   "function_name" : "std::__1::__compressed_pair<std::__1::basic_string<char, std::__1::char_traits<char>, std::__1::allocator<char>>::__rep, std::__1::allocator<char>>::first",
   "linker_set_key" : "_ZNSt3__117__compressed_pairINS_12basic_stringIcNS_11char_traitsIcEENS_9allocatorIcEEE5__repES5_E5firstEv",
   "parameters" :
   [
    {
     "is_this_ptr" : true,
     "referenced_type" : "_ZTIPNSt3__117__compressed_pairINS_12basic_stringIcNS_11char_traitsIcEENS_9allocatorIcEEE5__repES5_EE"
    }
   ],
   "return_type" : "_ZTIRNSt3__112basic_stringIcNS_11char_traitsIcEENS_9allocatorIcEEE5__repE",
   "source_file" : "external/libcxx/include/memory"
  },
  {
   "function_name" : "std::__1::__compressed_pair<std::__1::basic_string<char, std::__1::char_traits<char>, std::__1::allocator<char>>::__rep, std::__1::allocator<char>>::second",
   "linker_set_key" : "_ZNSt3__117__compressed_pairINS_12basic_stringIcNS_11char_traitsIcEENS_9allocatorIcEEE5__repES5_E6secondEv",
   "parameters" :
   [
    {
     "is_this_ptr" : true,
     "referenced_type" : "_ZTIPNSt3__117__compressed_pairINS_12basic_stringIcNS_11char_traitsIcEENS_9allocatorIcEEE5__repES5_EE"
    }
   ],
   "return_type" : "_ZTIRNSt3__19allocatorIcEE",
   "source_file" : "external/libcxx/include/memory"
  },
  {
   "function_name" : "std::__1::__compressed_pair<std::__1::basic_string<char, std::__1::char_traits<char>, std::__1::allocator<char>>::__rep, std::__1::allocator<char>>::__compressed_pair",
   "linker_set_key" : "_ZNSt3__117__compressed_pairINS_12basic_stringIcNS_11char_traitsIcEENS_9allocatorIcEEE5__repES5_EC1ILb1EvEEv",
   "parameters" :
   [
    {
     "is_this_ptr" : true,
     "referenced_type" : "_ZTIPNSt3__117__compressed_pairINS_12basic_stringIcNS_11char_traitsIcEENS_9allocatorIcEEE5__repES5_EE"
    }
   ],
   "return_type" : "_ZTIv",
   "source_file" : "external/libcxx/include/memory",
   "template_args" : [ "_ZTIv" ]
  },
  {
   "function_name" : "std::__1::__compressed_pair<std::__1::basic_string<char, std::__1::char_traits<char>, std::__1::allocator<char>>::__rep, std::__1::allocator<char>>::__compressed_pair",
   "linker_set_key" : "_ZNSt3__117__compressed_pairINS_12basic_stringIcNS_11char_traitsIcEENS_9allocatorIcEEE5__repES5_EC2ILb1EvEEv",
   "parameters" :
   [
    {
     "is_this_ptr" : true,
     "referenced_type" : "_ZTIPNSt3__117__compressed_pairINS_12basic_stringIcNS_11char_traitsIcEENS_9allocatorIcEEE5__repES5_EE"
    }
   ],
   "return_type" : "_ZTIv",
   "source_file" : "external/libcxx/include/memory",
   "template_args" : [ "_ZTIv" ]
  },
  {
   "function_name" : "std::__1::__compressed_pair<std::__1::basic_string<wchar_t, std::__1::char_traits<wchar_t>, std::__1::allocator<wchar_t>>::__rep, std::__1::allocator<wchar_t>>::first",
   "linker_set_key" : "_ZNSt3__117__compressed_pairINS_12basic_stringIwNS_11char_traitsIwEENS_9allocatorIwEEE5__repES5_E5firstEv",
   "parameters" :
   [
    {
     "is_this_ptr" : true,
     "referenced_type" : "_ZTIPNSt3__117__compressed_pairINS_12basic_stringIwNS_11char_traitsIwEENS_9allocatorIwEEE5__repES5_EE"
    }
   ],
   "return_type" : "_ZTIRNSt3__112basic_stringIwNS_11char_traitsIwEENS_9allocatorIwEEE5__repE",
   "source_file" : "external/libcxx/include/memory"
  },
  {
   "function_name" : "std::__1::__compressed_pair<std::__1::basic_string<wchar_t, std::__1::char_traits<wchar_t>, std::__1::allocator<wchar_t>>::__rep, std::__1::allocator<wchar_t>>::second",
   "linker_set_key" : "_ZNSt3__117__compressed_pairINS_12basic_stringIwNS_11char_traitsIwEENS_9allocatorIwEEE5__repES5_E6secondEv",
   "parameters" :
   [
    {
     "is_this_ptr" : true,
     "referenced_type" : "_ZTIPNSt3__117__compressed_pairINS_12basic_stringIwNS_11char_traitsIwEENS_9allocatorIwEEE5__repES5_EE"
    }
   ],
   "return_type" : "_ZTIRNSt3__19allocatorIwEE",
   "source_file" : "external/libcxx/include/memory"
  },
  {
   "function_name" : "std::__1::__compressed_pair<std::__1::basic_string<wchar_t, std::__1::char_traits<wchar_t>, std::__1::allocator<wchar_t>>::__rep, std::__1::allocator<wchar_t>>::__compressed_pair",
   "linker_set_key" : "_ZNSt3__117__compressed_pairINS_12basic_stringIwNS_11char_traitsIwEENS_9allocatorIwEEE5__repES5_EC1ILb1EvEEv",
   "parameters" :
   [
    {
     "is_this_ptr" : true,
     "referenced_type" : "_ZTIPNSt3__117__compressed_pairINS_12basic_stringIwNS_11char_traitsIwEENS_9allocatorIwEEE5__repES5_EE"
    }
   ],
   "return_type" : "_ZTIv",
   "source_file" : "external/libcxx/include/memory",
   "template_args" : [ "_ZTIv" ]
  },
  {
   "function_name" : "std::__1::__compressed_pair<std::__1::basic_string<wchar_t, std::__1::char_traits<wchar_t>, std::__1::allocator<wchar_t>>::__rep, std::__1::allocator<wchar_t>>::__compressed_pair",
   "linker_set_key" : "_ZNSt3__117__compressed_pairINS_12basic_stringIwNS_11char_traitsIwEENS_9allocatorIwEEE5__repES5_EC2ILb1EvEEv",
   "parameters" :
   [
    {
     "is_this_ptr" : true,
     "referenced_type" : "_ZTIPNSt3__117__compressed_pairINS_12basic_stringIwNS_11char_traitsIwEENS_9allocatorIwEEE5__repES5_EE"
    }
   ],
   "return_type" : "_ZTIv",
   "source_file" : "external/libcxx/include/memory",
   "template_args" : [ "_ZTIv" ]
  },
  {
   "function_name" : "std::__1::__libcpp_allocate",
   "linker_set_key" : "_ZNSt3__117__libcpp_allocateEmm",
   "parameters" :
   [
    {
     "referenced_type" : "_ZTIm"
    },
    {
     "referenced_type" : "_ZTIm"
    }
   ],
   "return_type" : "_ZTIPv",
   "source_file" : "external/libcxx/include/new"
  },
  {
   "function_name" : "std::__1::atomic_flag_clear",
   "linker_set_key" : "_ZNSt3__117atomic_flag_clearEPNS_11atomic_flagE",
   "parameters" :
   [
    {
     "referenced_type" : "_ZTIPNSt3__111atomic_flagE"
    }
   ],
   "return_type" : "_ZTIv",
   "source_file" : "external/libcxx/include/atomic"
  },
  {
   "function_name" : "std::__1::atomic_flag_clear",
   "linker_set_key" : "_ZNSt3__117atomic_flag_clearEPVNS_11atomic_flagE",
   "parameters" :
   [
    {
     "referenced_type" : "_ZTIPVNSt3__111atomic_flagE"
    }
   ],
   "return_type" : "_ZTIv",
   "source_file" : "external/libcxx/include/atomic"
  },
  {
   "function_name" : "std::__1::basic_string_view<char32_t, std::__1::char_traits<char32_t>>::basic_string_view",
   "linker_set_key" : "_ZNSt3__117basic_string_viewIDiNS_11char_traitsIDiEEEC1EPKDim",
   "parameters" :
   [
    {
     "is_this_ptr" : true,
     "referenced_type" : "_ZTIPNSt3__117basic_string_viewIDiNS_11char_traitsIDiEEEE"
    },
    {
     "referenced_type" : "_ZTIPKDi"
    },
    {
     "referenced_type" : "_ZTIm"
    }
   ],
   "return_type" : "_ZTIv",
   "source_file" : "external/libcxx/include/string_view"
  },
  {
   "function_name" : "std::__1::basic_string_view<char32_t, std::__1::char_traits<char32_t>>::basic_string_view",
   "linker_set_key" : "_ZNSt3__117basic_string_viewIDiNS_11char_traitsIDiEEEC1ERKS3_",
   "parameters" :
   [
    {
     "is_this_ptr" : true,
     "referenced_type" : "_ZTIPNSt3__117basic_string_viewIDiNS_11char_traitsIDiEEEE"
    },
    {
     "referenced_type" : "_ZTIRKNSt3__117basic_string_viewIDiNS_11char_traitsIDiEEEE"
    }
   ],
   "return_type" : "_ZTIv",
   "source_file" : "external/libcxx/include/string_view"
  },
  {
   "function_name" : "std::__1::basic_string_view<char32_t, std::__1::char_traits<char32_t>>::basic_string_view",
   "linker_set_key" : "_ZNSt3__117basic_string_viewIDiNS_11char_traitsIDiEEEC2EPKDim",
   "parameters" :
   [
    {
     "is_this_ptr" : true,
     "referenced_type" : "_ZTIPNSt3__117basic_string_viewIDiNS_11char_traitsIDiEEEE"
    },
    {
     "referenced_type" : "_ZTIPKDi"
    },
    {
     "referenced_type" : "_ZTIm"
    }
   ],
   "return_type" : "_ZTIv",
   "source_file" : "external/libcxx/include/string_view"
  },
  {
   "function_name" : "std::__1::basic_string_view<char32_t, std::__1::char_traits<char32_t>>::basic_string_view",
   "linker_set_key" : "_ZNSt3__117basic_string_viewIDiNS_11char_traitsIDiEEEC2ERKS3_",
   "parameters" :
   [
    {
     "is_this_ptr" : true,
     "referenced_type" : "_ZTIPNSt3__117basic_string_viewIDiNS_11char_traitsIDiEEEE"
    },
    {
     "referenced_type" : "_ZTIRKNSt3__117basic_string_viewIDiNS_11char_traitsIDiEEEE"
    }
   ],
   "return_type" : "_ZTIv",
   "source_file" : "external/libcxx/include/string_view"
  },
  {
   "function_name" : "std::__1::basic_string_view<char32_t, std::__1::char_traits<char32_t>>::operator=",
   "linker_set_key" : "_ZNSt3__117basic_string_viewIDiNS_11char_traitsIDiEEEaSERKS3_",
   "parameters" :
   [
    {
     "is_this_ptr" : true,
     "referenced_type" : "_ZTIPNSt3__117basic_string_viewIDiNS_11char_traitsIDiEEEE"
    },
    {
     "referenced_type" : "_ZTIRKNSt3__117basic_string_viewIDiNS_11char_traitsIDiEEEE"
    }
   ],
   "return_type" : "_ZTIRNSt3__117basic_string_viewIDiNS_11char_traitsIDiEEEE",
   "source_file" : "external/libcxx/include/string_view"
  },
  {
   "function_name" : "std::__1::basic_string_view<char16_t, std::__1::char_traits<char16_t>>::basic_string_view",
   "linker_set_key" : "_ZNSt3__117basic_string_viewIDsNS_11char_traitsIDsEEEC1EPKDsm",
   "parameters" :
   [
    {
     "is_this_ptr" : true,
     "referenced_type" : "_ZTIPNSt3__117basic_string_viewIDsNS_11char_traitsIDsEEEE"
    },
    {
     "referenced_type" : "_ZTIPKDs"
    },
    {
     "referenced_type" : "_ZTIm"
    }
   ],
   "return_type" : "_ZTIv",
   "source_file" : "external/libcxx/include/string_view"
  },
  {
   "function_name" : "std::__1::basic_string_view<char16_t, std::__1::char_traits<char16_t>>::basic_string_view",
   "linker_set_key" : "_ZNSt3__117basic_string_viewIDsNS_11char_traitsIDsEEEC1ERKS3_",
   "parameters" :
   [
    {
     "is_this_ptr" : true,
     "referenced_type" : "_ZTIPNSt3__117basic_string_viewIDsNS_11char_traitsIDsEEEE"
    },
    {
     "referenced_type" : "_ZTIRKNSt3__117basic_string_viewIDsNS_11char_traitsIDsEEEE"
    }
   ],
   "return_type" : "_ZTIv",
   "source_file" : "external/libcxx/include/string_view"
  },
  {
   "function_name" : "std::__1::basic_string_view<char16_t, std::__1::char_traits<char16_t>>::basic_string_view",
   "linker_set_key" : "_ZNSt3__117basic_string_viewIDsNS_11char_traitsIDsEEEC2EPKDsm",
   "parameters" :
   [
    {
     "is_this_ptr" : true,
     "referenced_type" : "_ZTIPNSt3__117basic_string_viewIDsNS_11char_traitsIDsEEEE"
    },
    {
     "referenced_type" : "_ZTIPKDs"
    },
    {
     "referenced_type" : "_ZTIm"
    }
   ],
   "return_type" : "_ZTIv",
   "source_file" : "external/libcxx/include/string_view"
  },
  {
   "function_name" : "std::__1::basic_string_view<char16_t, std::__1::char_traits<char16_t>>::basic_string_view",
   "linker_set_key" : "_ZNSt3__117basic_string_viewIDsNS_11char_traitsIDsEEEC2ERKS3_",
   "parameters" :
   [
    {
     "is_this_ptr" : true,
     "referenced_type" : "_ZTIPNSt3__117basic_string_viewIDsNS_11char_traitsIDsEEEE"
    },
    {
     "referenced_type" : "_ZTIRKNSt3__117basic_string_viewIDsNS_11char_traitsIDsEEEE"
    }
   ],
   "return_type" : "_ZTIv",
   "source_file" : "external/libcxx/include/string_view"
  },
  {
   "function_name" : "std::__1::basic_string_view<char16_t, std::__1::char_traits<char16_t>>::operator=",
   "linker_set_key" : "_ZNSt3__117basic_string_viewIDsNS_11char_traitsIDsEEEaSERKS3_",
   "parameters" :
   [
    {
     "is_this_ptr" : true,
     "referenced_type" : "_ZTIPNSt3__117basic_string_viewIDsNS_11char_traitsIDsEEEE"
    },
    {
     "referenced_type" : "_ZTIRKNSt3__117basic_string_viewIDsNS_11char_traitsIDsEEEE"
    }
   ],
   "return_type" : "_ZTIRNSt3__117basic_string_viewIDsNS_11char_traitsIDsEEEE",
   "source_file" : "external/libcxx/include/string_view"
  },
  {
   "function_name" : "std::__1::basic_string_view<char, std::__1::char_traits<char>>::basic_string_view",
   "linker_set_key" : "_ZNSt3__117basic_string_viewIcNS_11char_traitsIcEEEC1EPKcm",
   "parameters" :
   [
    {
     "is_this_ptr" : true,
     "referenced_type" : "_ZTIPNSt3__117basic_string_viewIcNS_11char_traitsIcEEEE"
    },
    {
     "referenced_type" : "_ZTIPKc"
    },
    {
     "referenced_type" : "_ZTIm"
    }
   ],
   "return_type" : "_ZTIv",
   "source_file" : "external/libcxx/include/string_view"
  },
  {
   "function_name" : "std::__1::basic_string_view<char, std::__1::char_traits<char>>::basic_string_view",
   "linker_set_key" : "_ZNSt3__117basic_string_viewIcNS_11char_traitsIcEEEC1ERKS3_",
   "parameters" :
   [
    {
     "is_this_ptr" : true,
     "referenced_type" : "_ZTIPNSt3__117basic_string_viewIcNS_11char_traitsIcEEEE"
    },
    {
     "referenced_type" : "_ZTIRKNSt3__117basic_string_viewIcNS_11char_traitsIcEEEE"
    }
   ],
   "return_type" : "_ZTIv",
   "source_file" : "external/libcxx/include/string_view"
  },
  {
   "function_name" : "std::__1::basic_string_view<char, std::__1::char_traits<char>>::basic_string_view",
   "linker_set_key" : "_ZNSt3__117basic_string_viewIcNS_11char_traitsIcEEEC2EPKcm",
   "parameters" :
   [
    {
     "is_this_ptr" : true,
     "referenced_type" : "_ZTIPNSt3__117basic_string_viewIcNS_11char_traitsIcEEEE"
    },
    {
     "referenced_type" : "_ZTIPKc"
    },
    {
     "referenced_type" : "_ZTIm"
    }
   ],
   "return_type" : "_ZTIv",
   "source_file" : "external/libcxx/include/string_view"
  },
  {
   "function_name" : "std::__1::basic_string_view<char, std::__1::char_traits<char>>::basic_string_view",
   "linker_set_key" : "_ZNSt3__117basic_string_viewIcNS_11char_traitsIcEEEC2ERKS3_",
   "parameters" :
   [
    {
     "is_this_ptr" : true,
     "referenced_type" : "_ZTIPNSt3__117basic_string_viewIcNS_11char_traitsIcEEEE"
    },
    {
     "referenced_type" : "_ZTIRKNSt3__117basic_string_viewIcNS_11char_traitsIcEEEE"
    }
   ],
   "return_type" : "_ZTIv",
   "source_file" : "external/libcxx/include/string_view"
  },
  {
   "function_name" : "std::__1::basic_string_view<char, std::__1::char_traits<char>>::operator=",
   "linker_set_key" : "_ZNSt3__117basic_string_viewIcNS_11char_traitsIcEEEaSERKS3_",
   "parameters" :
   [
    {
     "is_this_ptr" : true,
     "referenced_type" : "_ZTIPNSt3__117basic_string_viewIcNS_11char_traitsIcEEEE"
    },
    {
     "referenced_type" : "_ZTIRKNSt3__117basic_string_viewIcNS_11char_traitsIcEEEE"
    }
   ],
   "return_type" : "_ZTIRNSt3__117basic_string_viewIcNS_11char_traitsIcEEEE",
   "source_file" : "external/libcxx/include/string_view"
  },
  {
   "function_name" : "std::__1::basic_string_view<wchar_t, std::__1::char_traits<wchar_t>>::basic_string_view",
   "linker_set_key" : "_ZNSt3__117basic_string_viewIwNS_11char_traitsIwEEEC1EPKwm",
   "parameters" :
   [
    {
     "is_this_ptr" : true,
     "referenced_type" : "_ZTIPNSt3__117basic_string_viewIwNS_11char_traitsIwEEEE"
    },
    {
     "referenced_type" : "_ZTIPKw"
    },
    {
     "referenced_type" : "_ZTIm"
    }
   ],
   "return_type" : "_ZTIv",
   "source_file" : "external/libcxx/include/string_view"
  },
  {
   "function_name" : "std::__1::basic_string_view<wchar_t, std::__1::char_traits<wchar_t>>::basic_string_view",
   "linker_set_key" : "_ZNSt3__117basic_string_viewIwNS_11char_traitsIwEEEC1ERKS3_",
   "parameters" :
   [
    {
     "is_this_ptr" : true,
     "referenced_type" : "_ZTIPNSt3__117basic_string_viewIwNS_11char_traitsIwEEEE"
    },
    {
     "referenced_type" : "_ZTIRKNSt3__117basic_string_viewIwNS_11char_traitsIwEEEE"
    }
   ],
   "return_type" : "_ZTIv",
   "source_file" : "external/libcxx/include/string_view"
  },
  {
   "function_name" : "std::__1::basic_string_view<wchar_t, std::__1::char_traits<wchar_t>>::basic_string_view",
   "linker_set_key" : "_ZNSt3__117basic_string_viewIwNS_11char_traitsIwEEEC2EPKwm",
   "parameters" :
   [
    {
     "is_this_ptr" : true,
     "referenced_type" : "_ZTIPNSt3__117basic_string_viewIwNS_11char_traitsIwEEEE"
    },
    {
     "referenced_type" : "_ZTIPKw"
    },
    {
     "referenced_type" : "_ZTIm"
    }
   ],
   "return_type" : "_ZTIv",
   "source_file" : "external/libcxx/include/string_view"
  },
  {
   "function_name" : "std::__1::basic_string_view<wchar_t, std::__1::char_traits<wchar_t>>::basic_string_view",
   "linker_set_key" : "_ZNSt3__117basic_string_viewIwNS_11char_traitsIwEEEC2ERKS3_",
   "parameters" :
   [
    {
     "is_this_ptr" : true,
     "referenced_type" : "_ZTIPNSt3__117basic_string_viewIwNS_11char_traitsIwEEEE"
    },
    {
     "referenced_type" : "_ZTIRKNSt3__117basic_string_viewIwNS_11char_traitsIwEEEE"
    }
   ],
   "return_type" : "_ZTIv",
   "source_file" : "external/libcxx/include/string_view"
  },
  {
   "function_name" : "std::__1::basic_string_view<wchar_t, std::__1::char_traits<wchar_t>>::operator=",
   "linker_set_key" : "_ZNSt3__117basic_string_viewIwNS_11char_traitsIwEEEaSERKS3_",
   "parameters" :
   [
    {
     "is_this_ptr" : true,
     "referenced_type" : "_ZTIPNSt3__117basic_string_viewIwNS_11char_traitsIwEEEE"
    },
    {
     "referenced_type" : "_ZTIRKNSt3__117basic_string_viewIwNS_11char_traitsIwEEEE"
    }
   ],
   "return_type" : "_ZTIRNSt3__117basic_string_viewIwNS_11char_traitsIwEEEE",
   "source_file" : "external/libcxx/include/string_view"
  },
  {
   "function_name" : "std::__1::__sfinae_ctor_base<false, false>::__sfinae_ctor_base",
   "linker_set_key" : "_ZNSt3__118__sfinae_ctor_baseILb0ELb0EEC1Ev",
   "parameters" :
   [
    {
     "is_this_ptr" : true,
     "referenced_type" : "_ZTIPNSt3__118__sfinae_ctor_baseILb0ELb0EEE"
    }
   ],
   "return_type" : "_ZTIv",
   "source_file" : "external/libcxx/include/__tuple"
  },
  {
   "function_name" : "std::__1::__sfinae_ctor_base<false, false>::__sfinae_ctor_base",
   "linker_set_key" : "_ZNSt3__118__sfinae_ctor_baseILb0ELb0EEC2Ev",
   "parameters" :
   [
    {
     "is_this_ptr" : true,
     "referenced_type" : "_ZTIPNSt3__118__sfinae_ctor_baseILb0ELb0EEE"
    }
   ],
   "return_type" : "_ZTIv",
   "source_file" : "external/libcxx/include/__tuple"
  },
  {
   "function_name" : "std::__1::__sfinae_ctor_base<false, false>::operator=",
   "linker_set_key" : "_ZNSt3__118__sfinae_ctor_baseILb0ELb0EEaSEOS1_",
   "parameters" :
   [
    {
     "is_this_ptr" : true,
     "referenced_type" : "_ZTIPNSt3__118__sfinae_ctor_baseILb0ELb0EEE"
    },
    {
     "referenced_type" : "_ZTIONSt3__118__sfinae_ctor_baseILb0ELb0EEE"
    }
   ],
   "return_type" : "_ZTIRNSt3__118__sfinae_ctor_baseILb0ELb0EEE",
   "source_file" : "external/libcxx/include/__tuple"
  },
  {
   "function_name" : "std::__1::__sfinae_ctor_base<false, false>::operator=",
   "linker_set_key" : "_ZNSt3__118__sfinae_ctor_baseILb0ELb0EEaSERKS1_",
   "parameters" :
   [
    {
     "is_this_ptr" : true,
     "referenced_type" : "_ZTIPNSt3__118__sfinae_ctor_baseILb0ELb0EEE"
    },
    {
     "referenced_type" : "_ZTIRKNSt3__118__sfinae_ctor_baseILb0ELb0EEE"
    }
   ],
   "return_type" : "_ZTIRNSt3__118__sfinae_ctor_baseILb0ELb0EEE",
   "source_file" : "external/libcxx/include/__tuple"
  },
  {
   "function_name" : "std::__1::__sfinae_ctor_base<false, true>::__sfinae_ctor_base",
   "linker_set_key" : "_ZNSt3__118__sfinae_ctor_baseILb0ELb1EEC1EOS1_",
   "parameters" :
   [
    {
     "is_this_ptr" : true,
     "referenced_type" : "_ZTIPNSt3__118__sfinae_ctor_baseILb0ELb1EEE"
    },
    {
     "referenced_type" : "_ZTIONSt3__118__sfinae_ctor_baseILb0ELb1EEE"
    }
   ],
   "return_type" : "_ZTIv",
   "source_file" : "external/libcxx/include/__tuple"
  },
  {
   "function_name" : "std::__1::__sfinae_ctor_base<false, true>::__sfinae_ctor_base",
   "linker_set_key" : "_ZNSt3__118__sfinae_ctor_baseILb0ELb1EEC1Ev",
   "parameters" :
   [
    {
     "is_this_ptr" : true,
     "referenced_type" : "_ZTIPNSt3__118__sfinae_ctor_baseILb0ELb1EEE"
    }
   ],
   "return_type" : "_ZTIv",
   "source_file" : "external/libcxx/include/__tuple"
  },
  {
   "function_name" : "std::__1::__sfinae_ctor_base<false, true>::__sfinae_ctor_base",
   "linker_set_key" : "_ZNSt3__118__sfinae_ctor_baseILb0ELb1EEC2EOS1_",
   "parameters" :
   [
    {
     "is_this_ptr" : true,
     "referenced_type" : "_ZTIPNSt3__118__sfinae_ctor_baseILb0ELb1EEE"
    },
    {
     "referenced_type" : "_ZTIONSt3__118__sfinae_ctor_baseILb0ELb1EEE"
    }
   ],
   "return_type" : "_ZTIv",
   "source_file" : "external/libcxx/include/__tuple"
  },
  {
   "function_name" : "std::__1::__sfinae_ctor_base<false, true>::__sfinae_ctor_base",
   "linker_set_key" : "_ZNSt3__118__sfinae_ctor_baseILb0ELb1EEC2Ev",
   "parameters" :
   [
    {
     "is_this_ptr" : true,
     "referenced_type" : "_ZTIPNSt3__118__sfinae_ctor_baseILb0ELb1EEE"
    }
   ],
   "return_type" : "_ZTIv",
   "source_file" : "external/libcxx/include/__tuple"
  },
  {
   "function_name" : "std::__1::__sfinae_ctor_base<false, true>::operator=",
   "linker_set_key" : "_ZNSt3__118__sfinae_ctor_baseILb0ELb1EEaSEOS1_",
   "parameters" :
   [
    {
     "is_this_ptr" : true,
     "referenced_type" : "_ZTIPNSt3__118__sfinae_ctor_baseILb0ELb1EEE"
    },
    {
     "referenced_type" : "_ZTIONSt3__118__sfinae_ctor_baseILb0ELb1EEE"
    }
   ],
   "return_type" : "_ZTIRNSt3__118__sfinae_ctor_baseILb0ELb1EEE",
   "source_file" : "external/libcxx/include/__tuple"
  },
  {
   "function_name" : "std::__1::__sfinae_ctor_base<false, true>::operator=",
   "linker_set_key" : "_ZNSt3__118__sfinae_ctor_baseILb0ELb1EEaSERKS1_",
   "parameters" :
   [
    {
     "is_this_ptr" : true,
     "referenced_type" : "_ZTIPNSt3__118__sfinae_ctor_baseILb0ELb1EEE"
    },
    {
     "referenced_type" : "_ZTIRKNSt3__118__sfinae_ctor_baseILb0ELb1EEE"
    }
   ],
   "return_type" : "_ZTIRNSt3__118__sfinae_ctor_baseILb0ELb1EEE",
   "source_file" : "external/libcxx/include/__tuple"
  },
  {
   "function_name" : "std::__1::__sfinae_ctor_base<true, false>::__sfinae_ctor_base",
   "linker_set_key" : "_ZNSt3__118__sfinae_ctor_baseILb1ELb0EEC1ERKS1_",
   "parameters" :
   [
    {
     "is_this_ptr" : true,
     "referenced_type" : "_ZTIPNSt3__118__sfinae_ctor_baseILb1ELb0EEE"
    },
    {
     "referenced_type" : "_ZTIRKNSt3__118__sfinae_ctor_baseILb1ELb0EEE"
    }
   ],
   "return_type" : "_ZTIv",
   "source_file" : "external/libcxx/include/__tuple"
  },
  {
   "function_name" : "std::__1::__sfinae_ctor_base<true, false>::__sfinae_ctor_base",
   "linker_set_key" : "_ZNSt3__118__sfinae_ctor_baseILb1ELb0EEC1Ev",
   "parameters" :
   [
    {
     "is_this_ptr" : true,
     "referenced_type" : "_ZTIPNSt3__118__sfinae_ctor_baseILb1ELb0EEE"
    }
   ],
   "return_type" : "_ZTIv",
   "source_file" : "external/libcxx/include/__tuple"
  },
  {
   "function_name" : "std::__1::__sfinae_ctor_base<true, false>::__sfinae_ctor_base",
   "linker_set_key" : "_ZNSt3__118__sfinae_ctor_baseILb1ELb0EEC2ERKS1_",
   "parameters" :
   [
    {
     "is_this_ptr" : true,
     "referenced_type" : "_ZTIPNSt3__118__sfinae_ctor_baseILb1ELb0EEE"
    },
    {
     "referenced_type" : "_ZTIRKNSt3__118__sfinae_ctor_baseILb1ELb0EEE"
    }
   ],
   "return_type" : "_ZTIv",
   "source_file" : "external/libcxx/include/__tuple"
  },
  {
   "function_name" : "std::__1::__sfinae_ctor_base<true, false>::__sfinae_ctor_base",
   "linker_set_key" : "_ZNSt3__118__sfinae_ctor_baseILb1ELb0EEC2Ev",
   "parameters" :
   [
    {
     "is_this_ptr" : true,
     "referenced_type" : "_ZTIPNSt3__118__sfinae_ctor_baseILb1ELb0EEE"
    }
   ],
   "return_type" : "_ZTIv",
   "source_file" : "external/libcxx/include/__tuple"
  },
  {
   "function_name" : "std::__1::__sfinae_ctor_base<true, false>::operator=",
   "linker_set_key" : "_ZNSt3__118__sfinae_ctor_baseILb1ELb0EEaSEOS1_",
   "parameters" :
   [
    {
     "is_this_ptr" : true,
     "referenced_type" : "_ZTIPNSt3__118__sfinae_ctor_baseILb1ELb0EEE"
    },
    {
     "referenced_type" : "_ZTIONSt3__118__sfinae_ctor_baseILb1ELb0EEE"
    }
   ],
   "return_type" : "_ZTIRNSt3__118__sfinae_ctor_baseILb1ELb0EEE",
   "source_file" : "external/libcxx/include/__tuple"
  },
  {
   "function_name" : "std::__1::__sfinae_ctor_base<true, false>::operator=",
   "linker_set_key" : "_ZNSt3__118__sfinae_ctor_baseILb1ELb0EEaSERKS1_",
   "parameters" :
   [
    {
     "is_this_ptr" : true,
     "referenced_type" : "_ZTIPNSt3__118__sfinae_ctor_baseILb1ELb0EEE"
    },
    {
     "referenced_type" : "_ZTIRKNSt3__118__sfinae_ctor_baseILb1ELb0EEE"
    }
   ],
   "return_type" : "_ZTIRNSt3__118__sfinae_ctor_baseILb1ELb0EEE",
   "source_file" : "external/libcxx/include/__tuple"
  },
  {
   "function_name" : "std::__1::get_pointer_safety",
   "linker_set_key" : "_ZNSt3__118get_pointer_safetyEv",
   "return_type" : "_ZTINSt3__114pointer_safetyE",
   "source_file" : "external/libcxx/include/memory"
  },
  {
   "function_name" : "std::__1::__libcpp_deallocate",
   "linker_set_key" : "_ZNSt3__119__libcpp_deallocateEPvmm",
   "parameters" :
   [
    {
     "referenced_type" : "_ZTIPv"
    },
    {
     "referenced_type" : "_ZTIm"
    },
    {
     "referenced_type" : "_ZTIm"
    }
   ],
   "return_type" : "_ZTIv",
   "source_file" : "external/libcxx/include/new"
  },
  {
   "function_name" : "std::__1::__libcpp_debug_info::__libcpp_debug_info",
   "linker_set_key" : "_ZNSt3__119__libcpp_debug_infoC1EPKciS2_S2_",
   "parameters" :
   [
    {
     "is_this_ptr" : true,
     "referenced_type" : "_ZTIPNSt3__119__libcpp_debug_infoE"
    },
    {
     "referenced_type" : "_ZTIPKc"
    },
    {
     "referenced_type" : "_ZTIi"
    },
    {
     "referenced_type" : "_ZTIPKc"
    },
    {
     "referenced_type" : "_ZTIPKc"
    }
   ],
   "return_type" : "_ZTIv",
   "source_file" : "external/libcxx/include/__debug"
  },
  {
   "function_name" : "std::__1::__libcpp_debug_info::__libcpp_debug_info",
   "linker_set_key" : "_ZNSt3__119__libcpp_debug_infoC1Ev",
   "parameters" :
   [
    {
     "is_this_ptr" : true,
     "referenced_type" : "_ZTIPNSt3__119__libcpp_debug_infoE"
    }
   ],
   "return_type" : "_ZTIv",
   "source_file" : "external/libcxx/include/__debug"
  },
  {
   "function_name" : "std::__1::__libcpp_debug_info::__libcpp_debug_info",
   "linker_set_key" : "_ZNSt3__119__libcpp_debug_infoC2EPKciS2_S2_",
   "parameters" :
   [
    {
     "is_this_ptr" : true,
     "referenced_type" : "_ZTIPNSt3__119__libcpp_debug_infoE"
    },
    {
     "referenced_type" : "_ZTIPKc"
    },
    {
     "referenced_type" : "_ZTIi"
    },
    {
     "referenced_type" : "_ZTIPKc"
    },
    {
     "referenced_type" : "_ZTIPKc"
    }
   ],
   "return_type" : "_ZTIv",
   "source_file" : "external/libcxx/include/__debug"
  },
  {
   "function_name" : "std::__1::__libcpp_debug_info::__libcpp_debug_info",
   "linker_set_key" : "_ZNSt3__119__libcpp_debug_infoC2Ev",
   "parameters" :
   [
    {
     "is_this_ptr" : true,
     "referenced_type" : "_ZTIPNSt3__119__libcpp_debug_infoE"
    }
   ],
   "return_type" : "_ZTIv",
   "source_file" : "external/libcxx/include/__debug"
  },
  {
   "function_name" : "std::__1::__shared_weak_count::__add_weak",
   "linker_set_key" : "_ZNSt3__119__shared_weak_count10__add_weakEv",
   "parameters" :
   [
    {
     "is_this_ptr" : true,
     "referenced_type" : "_ZTIPNSt3__119__shared_weak_countE"
    }
   ],
   "return_type" : "_ZTIv",
   "source_file" : "external/libcxx/include/memory"
  },
  {
   "function_name" : "std::__1::__shared_weak_count::__add_shared",
   "linker_set_key" : "_ZNSt3__119__shared_weak_count12__add_sharedEv",
   "parameters" :
   [
    {
     "is_this_ptr" : true,
     "referenced_type" : "_ZTIPNSt3__119__shared_weak_countE"
    }
   ],
   "return_type" : "_ZTIv",
   "source_file" : "external/libcxx/include/memory"
  },
  {
   "function_name" : "std::__1::__shared_weak_count::__release_shared",
   "linker_set_key" : "_ZNSt3__119__shared_weak_count16__release_sharedEv",
   "parameters" :
   [
    {
     "is_this_ptr" : true,
     "referenced_type" : "_ZTIPNSt3__119__shared_weak_countE"
    }
   ],
   "return_type" : "_ZTIv",
   "source_file" : "external/libcxx/include/memory"
  },
  {
   "function_name" : "std::__1::__shared_weak_count::__shared_weak_count",
   "linker_set_key" : "_ZNSt3__119__shared_weak_countC2El",
   "parameters" :
   [
    {
     "is_this_ptr" : true,
     "referenced_type" : "_ZTIPNSt3__119__shared_weak_countE"
    },
    {
     "default_arg" : true,
     "referenced_type" : "_ZTIl"
    }
   ],
   "return_type" : "_ZTIv",
   "source_file" : "external/libcxx/include/memory"
  },
  {
   "function_name" : "std::__1::__throw_logic_error",
   "linker_set_key" : "_ZNSt3__119__throw_logic_errorEPKc",
   "parameters" :
   [
    {
     "referenced_type" : "_ZTIPKc"
    }
   ],
   "return_type" : "_ZTIv",
   "source_file" : "external/libcxx/include/stdexcept"
  },
  {
   "function_name" : "std::__1::__throw_range_error",
   "linker_set_key" : "_ZNSt3__119__throw_range_errorEPKc",
   "parameters" :
   [
    {
     "referenced_type" : "_ZTIPKc"
    }
   ],
   "return_type" : "_ZTIv",
   "source_file" : "external/libcxx/include/stdexcept"
  },
  {
   "function_name" : "std::__1::atomic_signal_fence",
   "linker_set_key" : "_ZNSt3__119atomic_signal_fenceENS_12memory_orderE",
   "parameters" :
   [
    {
     "referenced_type" : "_ZTINSt3__112memory_orderE"
    }
   ],
   "return_type" : "_ZTIv",
   "source_file" : "external/libcxx/include/atomic"
  },
  {
   "function_name" : "std::__1::atomic_thread_fence",
   "linker_set_key" : "_ZNSt3__119atomic_thread_fenceENS_12memory_orderE",
   "parameters" :
   [
    {
     "referenced_type" : "_ZTINSt3__112memory_orderE"
    }
   ],
   "return_type" : "_ZTIv",
   "source_file" : "external/libcxx/include/atomic"
  },
  {
   "function_name" : "std::__1::__sfinae_assign_base<false, false>::__sfinae_assign_base",
   "linker_set_key" : "_ZNSt3__120__sfinae_assign_baseILb0ELb0EEC1EOS1_",
   "parameters" :
   [
    {
     "is_this_ptr" : true,
     "referenced_type" : "_ZTIPNSt3__120__sfinae_assign_baseILb0ELb0EEE"
    },
    {
     "referenced_type" : "_ZTIONSt3__120__sfinae_assign_baseILb0ELb0EEE"
    }
   ],
   "return_type" : "_ZTIv",
   "source_file" : "external/libcxx/include/__tuple"
  },
  {
   "function_name" : "std::__1::__sfinae_assign_base<false, false>::__sfinae_assign_base",
   "linker_set_key" : "_ZNSt3__120__sfinae_assign_baseILb0ELb0EEC1ERKS1_",
   "parameters" :
   [
    {
     "is_this_ptr" : true,
     "referenced_type" : "_ZTIPNSt3__120__sfinae_assign_baseILb0ELb0EEE"
    },
    {
     "referenced_type" : "_ZTIRKNSt3__120__sfinae_assign_baseILb0ELb0EEE"
    }
   ],
   "return_type" : "_ZTIv",
   "source_file" : "external/libcxx/include/__tuple"
  },
  {
   "function_name" : "std::__1::__sfinae_assign_base<false, false>::__sfinae_assign_base",
   "linker_set_key" : "_ZNSt3__120__sfinae_assign_baseILb0ELb0EEC1Ev",
   "parameters" :
   [
    {
     "is_this_ptr" : true,
     "referenced_type" : "_ZTIPNSt3__120__sfinae_assign_baseILb0ELb0EEE"
    }
   ],
   "return_type" : "_ZTIv",
   "source_file" : "external/libcxx/include/__tuple"
  },
  {
   "function_name" : "std::__1::__sfinae_assign_base<false, false>::__sfinae_assign_base",
   "linker_set_key" : "_ZNSt3__120__sfinae_assign_baseILb0ELb0EEC2EOS1_",
   "parameters" :
   [
    {
     "is_this_ptr" : true,
     "referenced_type" : "_ZTIPNSt3__120__sfinae_assign_baseILb0ELb0EEE"
    },
    {
     "referenced_type" : "_ZTIONSt3__120__sfinae_assign_baseILb0ELb0EEE"
    }
   ],
   "return_type" : "_ZTIv",
   "source_file" : "external/libcxx/include/__tuple"
  },
  {
   "function_name" : "std::__1::__sfinae_assign_base<false, false>::__sfinae_assign_base",
   "linker_set_key" : "_ZNSt3__120__sfinae_assign_baseILb0ELb0EEC2ERKS1_",
   "parameters" :
   [
    {
     "is_this_ptr" : true,
     "referenced_type" : "_ZTIPNSt3__120__sfinae_assign_baseILb0ELb0EEE"
    },
    {
     "referenced_type" : "_ZTIRKNSt3__120__sfinae_assign_baseILb0ELb0EEE"
    }
   ],
   "return_type" : "_ZTIv",
   "source_file" : "external/libcxx/include/__tuple"
  },
  {
   "function_name" : "std::__1::__sfinae_assign_base<false, false>::__sfinae_assign_base",
   "linker_set_key" : "_ZNSt3__120__sfinae_assign_baseILb0ELb0EEC2Ev",
   "parameters" :
   [
    {
     "is_this_ptr" : true,
     "referenced_type" : "_ZTIPNSt3__120__sfinae_assign_baseILb0ELb0EEE"
    }
   ],
   "return_type" : "_ZTIv",
   "source_file" : "external/libcxx/include/__tuple"
  },
  {
   "function_name" : "std::__1::__sfinae_assign_base<false, true>::__sfinae_assign_base",
   "linker_set_key" : "_ZNSt3__120__sfinae_assign_baseILb0ELb1EEC1EOS1_",
   "parameters" :
   [
    {
     "is_this_ptr" : true,
     "referenced_type" : "_ZTIPNSt3__120__sfinae_assign_baseILb0ELb1EEE"
    },
    {
     "referenced_type" : "_ZTIONSt3__120__sfinae_assign_baseILb0ELb1EEE"
    }
   ],
   "return_type" : "_ZTIv",
   "source_file" : "external/libcxx/include/__tuple"
  },
  {
   "function_name" : "std::__1::__sfinae_assign_base<false, true>::__sfinae_assign_base",
   "linker_set_key" : "_ZNSt3__120__sfinae_assign_baseILb0ELb1EEC1ERKS1_",
   "parameters" :
   [
    {
     "is_this_ptr" : true,
     "referenced_type" : "_ZTIPNSt3__120__sfinae_assign_baseILb0ELb1EEE"
    },
    {
     "referenced_type" : "_ZTIRKNSt3__120__sfinae_assign_baseILb0ELb1EEE"
    }
   ],
   "return_type" : "_ZTIv",
   "source_file" : "external/libcxx/include/__tuple"
  },
  {
   "function_name" : "std::__1::__sfinae_assign_base<false, true>::__sfinae_assign_base",
   "linker_set_key" : "_ZNSt3__120__sfinae_assign_baseILb0ELb1EEC1Ev",
   "parameters" :
   [
    {
     "is_this_ptr" : true,
     "referenced_type" : "_ZTIPNSt3__120__sfinae_assign_baseILb0ELb1EEE"
    }
   ],
   "return_type" : "_ZTIv",
   "source_file" : "external/libcxx/include/__tuple"
  },
  {
   "function_name" : "std::__1::__sfinae_assign_base<false, true>::__sfinae_assign_base",
   "linker_set_key" : "_ZNSt3__120__sfinae_assign_baseILb0ELb1EEC2EOS1_",
   "parameters" :
   [
    {
     "is_this_ptr" : true,
     "referenced_type" : "_ZTIPNSt3__120__sfinae_assign_baseILb0ELb1EEE"
    },
    {
     "referenced_type" : "_ZTIONSt3__120__sfinae_assign_baseILb0ELb1EEE"
    }
   ],
   "return_type" : "_ZTIv",
   "source_file" : "external/libcxx/include/__tuple"
  },
  {
   "function_name" : "std::__1::__sfinae_assign_base<false, true>::__sfinae_assign_base",
   "linker_set_key" : "_ZNSt3__120__sfinae_assign_baseILb0ELb1EEC2ERKS1_",
   "parameters" :
   [
    {
     "is_this_ptr" : true,
     "referenced_type" : "_ZTIPNSt3__120__sfinae_assign_baseILb0ELb1EEE"
    },
    {
     "referenced_type" : "_ZTIRKNSt3__120__sfinae_assign_baseILb0ELb1EEE"
    }
   ],
   "return_type" : "_ZTIv",
   "source_file" : "external/libcxx/include/__tuple"
  },
  {
   "function_name" : "std::__1::__sfinae_assign_base<false, true>::__sfinae_assign_base",
   "linker_set_key" : "_ZNSt3__120__sfinae_assign_baseILb0ELb1EEC2Ev",
   "parameters" :
   [
    {
     "is_this_ptr" : true,
     "referenced_type" : "_ZTIPNSt3__120__sfinae_assign_baseILb0ELb1EEE"
    }
   ],
   "return_type" : "_ZTIv",
   "source_file" : "external/libcxx/include/__tuple"
  },
  {
   "function_name" : "std::__1::__sfinae_assign_base<false, true>::operator=",
   "linker_set_key" : "_ZNSt3__120__sfinae_assign_baseILb0ELb1EEaSEOS1_",
   "parameters" :
   [
    {
     "is_this_ptr" : true,
     "referenced_type" : "_ZTIPNSt3__120__sfinae_assign_baseILb0ELb1EEE"
    },
    {
     "referenced_type" : "_ZTIONSt3__120__sfinae_assign_baseILb0ELb1EEE"
    }
   ],
   "return_type" : "_ZTIRNSt3__120__sfinae_assign_baseILb0ELb1EEE",
   "source_file" : "external/libcxx/include/__tuple"
  },
  {
   "function_name" : "std::__1::__sfinae_assign_base<true, false>::__sfinae_assign_base",
   "linker_set_key" : "_ZNSt3__120__sfinae_assign_baseILb1ELb0EEC1EOS1_",
   "parameters" :
   [
    {
     "is_this_ptr" : true,
     "referenced_type" : "_ZTIPNSt3__120__sfinae_assign_baseILb1ELb0EEE"
    },
    {
     "referenced_type" : "_ZTIONSt3__120__sfinae_assign_baseILb1ELb0EEE"
    }
   ],
   "return_type" : "_ZTIv",
   "source_file" : "external/libcxx/include/__tuple"
  },
  {
   "function_name" : "std::__1::__sfinae_assign_base<true, false>::__sfinae_assign_base",
   "linker_set_key" : "_ZNSt3__120__sfinae_assign_baseILb1ELb0EEC1ERKS1_",
   "parameters" :
   [
    {
     "is_this_ptr" : true,
     "referenced_type" : "_ZTIPNSt3__120__sfinae_assign_baseILb1ELb0EEE"
    },
    {
     "referenced_type" : "_ZTIRKNSt3__120__sfinae_assign_baseILb1ELb0EEE"
    }
   ],
   "return_type" : "_ZTIv",
   "source_file" : "external/libcxx/include/__tuple"
  },
  {
   "function_name" : "std::__1::__sfinae_assign_base<true, false>::__sfinae_assign_base",
   "linker_set_key" : "_ZNSt3__120__sfinae_assign_baseILb1ELb0EEC1Ev",
   "parameters" :
   [
    {
     "is_this_ptr" : true,
     "referenced_type" : "_ZTIPNSt3__120__sfinae_assign_baseILb1ELb0EEE"
    }
   ],
   "return_type" : "_ZTIv",
   "source_file" : "external/libcxx/include/__tuple"
  },
  {
   "function_name" : "std::__1::__sfinae_assign_base<true, false>::__sfinae_assign_base",
   "linker_set_key" : "_ZNSt3__120__sfinae_assign_baseILb1ELb0EEC2EOS1_",
   "parameters" :
   [
    {
     "is_this_ptr" : true,
     "referenced_type" : "_ZTIPNSt3__120__sfinae_assign_baseILb1ELb0EEE"
    },
    {
     "referenced_type" : "_ZTIONSt3__120__sfinae_assign_baseILb1ELb0EEE"
    }
   ],
   "return_type" : "_ZTIv",
   "source_file" : "external/libcxx/include/__tuple"
  },
  {
   "function_name" : "std::__1::__sfinae_assign_base<true, false>::__sfinae_assign_base",
   "linker_set_key" : "_ZNSt3__120__sfinae_assign_baseILb1ELb0EEC2ERKS1_",
   "parameters" :
   [
    {
     "is_this_ptr" : true,
     "referenced_type" : "_ZTIPNSt3__120__sfinae_assign_baseILb1ELb0EEE"
    },
    {
     "referenced_type" : "_ZTIRKNSt3__120__sfinae_assign_baseILb1ELb0EEE"
    }
   ],
   "return_type" : "_ZTIv",
   "source_file" : "external/libcxx/include/__tuple"
  },
  {
   "function_name" : "std::__1::__sfinae_assign_base<true, false>::__sfinae_assign_base",
   "linker_set_key" : "_ZNSt3__120__sfinae_assign_baseILb1ELb0EEC2Ev",
   "parameters" :
   [
    {
     "is_this_ptr" : true,
     "referenced_type" : "_ZTIPNSt3__120__sfinae_assign_baseILb1ELb0EEE"
    }
   ],
   "return_type" : "_ZTIv",
   "source_file" : "external/libcxx/include/__tuple"
  },
  {
   "function_name" : "std::__1::__sfinae_assign_base<true, false>::operator=",
   "linker_set_key" : "_ZNSt3__120__sfinae_assign_baseILb1ELb0EEaSERKS1_",
   "parameters" :
   [
    {
     "is_this_ptr" : true,
     "referenced_type" : "_ZTIPNSt3__120__sfinae_assign_baseILb1ELb0EEE"
    },
    {
     "referenced_type" : "_ZTIRKNSt3__120__sfinae_assign_baseILb1ELb0EEE"
    }
   ],
   "return_type" : "_ZTIRNSt3__120__sfinae_assign_baseILb1ELb0EEE",
   "source_file" : "external/libcxx/include/__tuple"
  },
  {
   "function_name" : "std::__1::__throw_bad_weak_ptr",
   "linker_set_key" : "_ZNSt3__120__throw_bad_weak_ptrEv",
   "return_type" : "_ZTIv",
   "source_file" : "external/libcxx/include/memory"
  },
  {
   "function_name" : "std::__1::__throw_domain_error",
   "linker_set_key" : "_ZNSt3__120__throw_domain_errorEPKc",
   "parameters" :
   [
    {
     "referenced_type" : "_ZTIPKc"
    }
   ],
   "return_type" : "_ZTIv",
   "source_file" : "external/libcxx/include/stdexcept"
  },
  {
   "function_name" : "std::__1::__throw_length_error",
   "linker_set_key" : "_ZNSt3__120__throw_length_errorEPKc",
   "parameters" :
   [
    {
     "referenced_type" : "_ZTIPKc"
    }
   ],
   "return_type" : "_ZTIv",
   "source_file" : "external/libcxx/include/stdexcept"
  },
  {
   "function_name" : "std::__1::__throw_out_of_range",
   "linker_set_key" : "_ZNSt3__120__throw_out_of_rangeEPKc",
   "parameters" :
   [
    {
     "referenced_type" : "_ZTIPKc"
    }
   ],
   "return_type" : "_ZTIv",
   "source_file" : "external/libcxx/include/stdexcept"
  },
  {
   "function_name" : "std::__1::__convert_to_integral",
   "linker_set_key" : "_ZNSt3__121__convert_to_integralEi",
   "parameters" :
   [
    {
     "referenced_type" : "_ZTIi"
    }
   ],
   "return_type" : "_ZTIi",
   "source_file" : "external/libcxx/include/type_traits"
  },
  {
   "function_name" : "std::__1::__convert_to_integral",
   "linker_set_key" : "_ZNSt3__121__convert_to_integralEj",
   "parameters" :
   [
    {
     "referenced_type" : "_ZTIj"
    }
   ],
   "return_type" : "_ZTIj",
   "source_file" : "external/libcxx/include/type_traits"
  },
  {
   "function_name" : "std::__1::__convert_to_integral",
   "linker_set_key" : "_ZNSt3__121__convert_to_integralEl",
   "parameters" :
   [
    {
     "referenced_type" : "_ZTIl"
    }
   ],
   "return_type" : "_ZTIl",
   "source_file" : "external/libcxx/include/type_traits"
  },
  {
   "function_name" : "std::__1::__convert_to_integral",
   "linker_set_key" : "_ZNSt3__121__convert_to_integralEm",
   "parameters" :
   [
    {
     "referenced_type" : "_ZTIm"
    }
   ],
   "return_type" : "_ZTIm",
   "source_file" : "external/libcxx/include/type_traits"
  },
  {
   "function_name" : "std::__1::__convert_to_integral",
   "linker_set_key" : "_ZNSt3__121__convert_to_integralEn",
   "parameters" :
   [
    {
     "referenced_type" : "_ZTIn"
    }
   ],
   "return_type" : "_ZTIn",
   "source_file" : "external/libcxx/include/type_traits"
  },
  {
   "function_name" : "std::__1::__convert_to_integral",
   "linker_set_key" : "_ZNSt3__121__convert_to_integralEo",
   "parameters" :
   [
    {
     "referenced_type" : "_ZTIo"
    }
   ],
   "return_type" : "_ZTIo",
   "source_file" : "external/libcxx/include/type_traits"
  },
  {
   "function_name" : "std::__1::__convert_to_integral",
   "linker_set_key" : "_ZNSt3__121__convert_to_integralEx",
   "parameters" :
   [
    {
     "referenced_type" : "_ZTIx"
    }
   ],
   "return_type" : "_ZTIx",
   "source_file" : "external/libcxx/include/type_traits"
  },
  {
   "function_name" : "std::__1::__convert_to_integral",
   "linker_set_key" : "_ZNSt3__121__convert_to_integralEy",
   "parameters" :
   [
    {
     "referenced_type" : "_ZTIy"
    }
   ],
   "return_type" : "_ZTIy",
   "source_file" : "external/libcxx/include/type_traits"
  },
  {
   "function_name" : "std::__1::__libcpp_relaxed_load",
   "linker_set_key" : "_ZNSt3__121__libcpp_relaxed_loadIlEET_PKS1_",
   "parameters" :
   [
    {
     "referenced_type" : "_ZTIPKl"
    }
   ],
   "return_type" : "_ZTIl",
   "source_file" : "external/libcxx/include/memory",
   "template_args" : [ "_ZTIl" ]
  },
  {
   "access" : "private",
   "function_name" : "std::__1::__murmur2_or_cityhash<unsigned long, 64>::__shift_mix",
   "linker_set_key" : "_ZNSt3__121__murmur2_or_cityhashImLm64EE11__shift_mixEm",
   "parameters" :
   [
    {
     "referenced_type" : "_ZTIm"
    }
   ],
   "return_type" : "_ZTIm",
   "source_file" : "external/libcxx/include/utility"
  },
  {
   "access" : "private",
   "function_name" : "std::__1::__murmur2_or_cityhash<unsigned long, 64>::__hash_len_16",
   "linker_set_key" : "_ZNSt3__121__murmur2_or_cityhashImLm64EE13__hash_len_16Emm",
   "parameters" :
   [
    {
     "referenced_type" : "_ZTIm"
    },
    {
     "referenced_type" : "_ZTIm"
    }
   ],
   "return_type" : "_ZTIm",
   "source_file" : "external/libcxx/include/utility"
  },
  {
   "access" : "private",
   "function_name" : "std::__1::__murmur2_or_cityhash<unsigned long, 64>::__hash_len_0_to_16",
   "linker_set_key" : "_ZNSt3__121__murmur2_or_cityhashImLm64EE18__hash_len_0_to_16EPKcm",
   "parameters" :
   [
    {
     "referenced_type" : "_ZTIPKc"
    },
    {
     "referenced_type" : "_ZTIm"
    }
   ],
   "return_type" : "_ZTIm",
   "source_file" : "external/libcxx/include/utility"
  },
  {
   "access" : "private",
   "function_name" : "std::__1::__murmur2_or_cityhash<unsigned long, 64>::__hash_len_17_to_32",
   "linker_set_key" : "_ZNSt3__121__murmur2_or_cityhashImLm64EE19__hash_len_17_to_32EPKcm",
   "parameters" :
   [
    {
     "referenced_type" : "_ZTIPKc"
    },
    {
     "referenced_type" : "_ZTIm"
    }
   ],
   "return_type" : "_ZTIm",
   "source_file" : "external/libcxx/include/utility"
  },
  {
   "access" : "private",
   "function_name" : "std::__1::__murmur2_or_cityhash<unsigned long, 64>::__hash_len_33_to_64",
   "linker_set_key" : "_ZNSt3__121__murmur2_or_cityhashImLm64EE19__hash_len_33_to_64EPKcm",
   "parameters" :
   [
    {
     "referenced_type" : "_ZTIPKc"
    },
    {
     "referenced_type" : "_ZTIm"
    }
   ],
   "return_type" : "_ZTIm",
   "source_file" : "external/libcxx/include/utility"
  },
  {
   "access" : "private",
   "function_name" : "std::__1::__murmur2_or_cityhash<unsigned long, 64>::__rotate_by_at_least_1",
   "linker_set_key" : "_ZNSt3__121__murmur2_or_cityhashImLm64EE22__rotate_by_at_least_1Emi",
   "parameters" :
   [
    {
     "referenced_type" : "_ZTIm"
    },
    {
     "referenced_type" : "_ZTIi"
    }
   ],
   "return_type" : "_ZTIm",
   "source_file" : "external/libcxx/include/utility"
  },
  {
   "access" : "private",
   "function_name" : "std::__1::__murmur2_or_cityhash<unsigned long, 64>::__weak_hash_len_32_with_seeds",
   "linker_set_key" : "_ZNSt3__121__murmur2_or_cityhashImLm64EE29__weak_hash_len_32_with_seedsEPKcmm",
   "parameters" :
   [
    {
