{
 "array_types" :
 [
  {
   "alignment" : 1,
   "linker_set_key" : "_ZTIA0_c",
   "name" : "char [0]",
   "referenced_type" : "_ZTIc",
   "self_type" : "_ZTIA0_c",
   "source_file" : "system/core/property_service/libpropertyinfoparser/include/property_info_parser/property_info_parser.h"
  }
 ],
 "builtin_types" :
 [
  {
   "alignment" : 1,
   "is_integral" : true,
   "is_unsigned" : true,
   "linker_set_key" : "_ZTIb",
   "name" : "bool",
   "referenced_type" : "_ZTIb",
   "self_type" : "_ZTIb",
   "size" : 1
  },
  {
   "alignment" : 1,
   "is_integral" : true,
   "is_unsigned" : true,
   "linker_set_key" : "_ZTIc",
   "name" : "char",
   "referenced_type" : "_ZTIc",
   "self_type" : "_ZTIc",
   "size" : 1
  },
  {
   "alignment" : 4,
   "is_integral" : true,
   "linker_set_key" : "_ZTIi",
   "name" : "int",
   "referenced_type" : "_ZTIi",
   "self_type" : "_ZTIi",
   "size" : 4
  },
  {
   "alignment" : 4,
   "is_integral" : true,
   "is_unsigned" : true,
   "linker_set_key" : "_ZTIj",
   "name" : "unsigned int",
   "referenced_type" : "_ZTIj",
   "self_type" : "_ZTIj",
   "size" : 4
  },
  {
   "alignment" : 8,
   "is_integral" : true,
   "is_unsigned" : true,
   "linker_set_key" : "_ZTIm",
   "name" : "unsigned long",
   "referenced_type" : "_ZTIm",
   "self_type" : "_ZTIm",
   "size" : 8
  },
  {
   "linker_set_key" : "_ZTIv",
   "name" : "void",
   "referenced_type" : "_ZTIv",
   "self_type" : "_ZTIv"
  }
 ],
 "elf_functions" : [],
 "elf_objects" : [],
 "enum_types" : [],
 "function_types" : [],
 "functions" :
 [
  {
   "function_name" : "android::properties::PropertyInfoAreaFile::LoadDefaultPath",
   "linker_set_key" : "_ZN7android10properties20PropertyInfoAreaFile15LoadDefaultPathEv",
   "parameters" :
   [
    {
     "is_this_ptr" : true,
     "referenced_type" : "_ZTIPN7android10properties20PropertyInfoAreaFileE"
    }
   ],
   "return_type" : "_ZTIb",
   "source_file" : "system/core/property_service/libpropertyinfoparser/include/property_info_parser/property_info_parser.h"
  },
  {
   "function_name" : "android::properties::PropertyInfoAreaFile::Reset",
   "linker_set_key" : "_ZN7android10properties20PropertyInfoAreaFile5ResetEv",
   "parameters" :
   [
    {
     "is_this_ptr" : true,
     "referenced_type" : "_ZTIPN7android10properties20PropertyInfoAreaFileE"
    }
   ],
   "return_type" : "_ZTIv",
   "source_file" : "system/core/property_service/libpropertyinfoparser/include/property_info_parser/property_info_parser.h"
  },
  {
   "function_name" : "android::properties::PropertyInfoAreaFile::LoadPath",
   "linker_set_key" : "_ZN7android10properties20PropertyInfoAreaFile8LoadPathEPKc",
   "parameters" :
   [
    {
     "is_this_ptr" : true,
     "referenced_type" : "_ZTIPN7android10properties20PropertyInfoAreaFileE"
    },
    {
     "referenced_type" : "_ZTIPKc"
    }
   ],
   "return_type" : "_ZTIb",
   "source_file" : "system/core/property_service/libpropertyinfoparser/include/property_info_parser/property_info_parser.h"
  },
  {
   "function_name" : "android::properties::PropertyInfoAreaFile::PropertyInfoAreaFile",
   "linker_set_key" : "_ZN7android10properties20PropertyInfoAreaFileC1EOS1_",
   "parameters" :
   [
    {
     "is_this_ptr" : true,
     "referenced_type" : "_ZTIPN7android10properties20PropertyInfoAreaFileE"
    },
    {
     "referenced_type" : "_ZTION7android10properties20PropertyInfoAreaFileE"
    }
   ],
   "return_type" : "_ZTIv",
   "source_file" : "system/core/property_service/libpropertyinfoparser/include/property_info_parser/property_info_parser.h"
  },
  {
   "function_name" : "android::properties::PropertyInfoAreaFile::PropertyInfoAreaFile",
   "linker_set_key" : "_ZN7android10properties20PropertyInfoAreaFileC1Ev",
   "parameters" :
   [
    {
     "is_this_ptr" : true,
     "referenced_type" : "_ZTIPN7android10properties20PropertyInfoAreaFileE"
    }
   ],
   "return_type" : "_ZTIv",
   "source_file" : "system/core/property_service/libpropertyinfoparser/include/property_info_parser/property_info_parser.h"
  },
  {
   "function_name" : "android::properties::PropertyInfoAreaFile::PropertyInfoAreaFile",
   "linker_set_key" : "_ZN7android10properties20PropertyInfoAreaFileC2EOS1_",
   "parameters" :
   [
    {
     "is_this_ptr" : true,
     "referenced_type" : "_ZTIPN7android10properties20PropertyInfoAreaFileE"
    },
    {
     "referenced_type" : "_ZTION7android10properties20PropertyInfoAreaFileE"
    }
   ],
   "return_type" : "_ZTIv",
   "source_file" : "system/core/property_service/libpropertyinfoparser/include/property_info_parser/property_info_parser.h"
  },
  {
   "function_name" : "android::properties::PropertyInfoAreaFile::PropertyInfoAreaFile",
   "linker_set_key" : "_ZN7android10properties20PropertyInfoAreaFileC2Ev",
   "parameters" :
   [
    {
     "is_this_ptr" : true,
     "referenced_type" : "_ZTIPN7android10properties20PropertyInfoAreaFileE"
    }
   ],
   "return_type" : "_ZTIv",
   "source_file" : "system/core/property_service/libpropertyinfoparser/include/property_info_parser/property_info_parser.h"
  },
  {
   "function_name" : "android::properties::PropertyInfoAreaFile::~PropertyInfoAreaFile",
   "linker_set_key" : "_ZN7android10properties20PropertyInfoAreaFileD1Ev",
   "parameters" :
   [
    {
     "is_this_ptr" : true,
     "referenced_type" : "_ZTIPN7android10properties20PropertyInfoAreaFileE"
    }
   ],
   "return_type" : "_ZTIv",
   "source_file" : "system/core/property_service/libpropertyinfoparser/include/property_info_parser/property_info_parser.h"
  },
  {
   "function_name" : "android::properties::PropertyInfoAreaFile::~PropertyInfoAreaFile",
   "linker_set_key" : "_ZN7android10properties20PropertyInfoAreaFileD2Ev",
   "parameters" :
   [
    {
     "is_this_ptr" : true,
     "referenced_type" : "_ZTIPN7android10properties20PropertyInfoAreaFileE"
    }
   ],
   "return_type" : "_ZTIv",
   "source_file" : "system/core/property_service/libpropertyinfoparser/include/property_info_parser/property_info_parser.h"
  },
  {
   "function_name" : "android::properties::PropertyInfoAreaFile::operator=",
   "linker_set_key" : "_ZN7android10properties20PropertyInfoAreaFileaSEOS1_",
   "parameters" :
   [
    {
     "is_this_ptr" : true,
     "referenced_type" : "_ZTIPN7android10properties20PropertyInfoAreaFileE"
    },
    {
     "referenced_type" : "_ZTION7android10properties20PropertyInfoAreaFileE"
    }
   ],
   "return_type" : "_ZTIRN7android10properties20PropertyInfoAreaFileE",
   "source_file" : "system/core/property_service/libpropertyinfoparser/include/property_info_parser/property_info_parser.h"
  },
  {
   "function_name" : "android::properties::TrieNode::TrieNode",
   "linker_set_key" : "_ZN7android10properties8TrieNodeC1EPKNS0_14SerializedDataEPKNS0_16TrieNodeInternalE",
   "parameters" :
   [
    {
     "is_this_ptr" : true,
     "referenced_type" : "_ZTIPN7android10properties8TrieNodeE"
    },
    {
     "referenced_type" : "_ZTIPKN7android10properties14SerializedDataE"
    },
    {
     "referenced_type" : "_ZTIPKN7android10properties16TrieNodeInternalE"
    }
   ],
   "return_type" : "_ZTIv",
   "source_file" : "system/core/property_service/libpropertyinfoparser/include/property_info_parser/property_info_parser.h"
  },
  {
   "function_name" : "android::properties::TrieNode::TrieNode",
   "linker_set_key" : "_ZN7android10properties8TrieNodeC1Ev",
   "parameters" :
   [
    {
     "is_this_ptr" : true,
     "referenced_type" : "_ZTIPN7android10properties8TrieNodeE"
    }
   ],
   "return_type" : "_ZTIv",
   "source_file" : "system/core/property_service/libpropertyinfoparser/include/property_info_parser/property_info_parser.h"
  },
  {
   "function_name" : "android::properties::TrieNode::TrieNode",
   "linker_set_key" : "_ZN7android10properties8TrieNodeC2EPKNS0_14SerializedDataEPKNS0_16TrieNodeInternalE",
   "parameters" :
   [
    {
     "is_this_ptr" : true,
     "referenced_type" : "_ZTIPN7android10properties8TrieNodeE"
    },
    {
     "referenced_type" : "_ZTIPKN7android10properties14SerializedDataE"
    },
    {
     "referenced_type" : "_ZTIPKN7android10properties16TrieNodeInternalE"
    }
   ],
   "return_type" : "_ZTIv",
   "source_file" : "system/core/property_service/libpropertyinfoparser/include/property_info_parser/property_info_parser.h"
  },
  {
   "function_name" : "android::properties::TrieNode::TrieNode",
   "linker_set_key" : "_ZN7android10properties8TrieNodeC2Ev",
   "parameters" :
   [
    {
     "is_this_ptr" : true,
     "referenced_type" : "_ZTIPN7android10properties8TrieNodeE"
    }
   ],
   "return_type" : "_ZTIv",
   "source_file" : "system/core/property_service/libpropertyinfoparser/include/property_info_parser/property_info_parser.h"
  },
  {
   "function_name" : "android::properties::SerializedData::uint32_array",
   "linker_set_key" : "_ZNK7android10properties14SerializedData12uint32_arrayEj",
   "parameters" :
   [
    {
     "is_this_ptr" : true,
     "referenced_type" : "_ZTIPKN7android10properties14SerializedDataE"
    },
    {
     "referenced_type" : "_ZTIj"
    }
   ],
   "return_type" : "_ZTIPKj",
   "source_file" : "system/core/property_service/libpropertyinfoparser/include/property_info_parser/property_info_parser.h"
  },
  {
   "function_name" : "android::properties::SerializedData::size",
   "linker_set_key" : "_ZNK7android10properties14SerializedData4sizeEv",
   "parameters" :
   [
    {
     "is_this_ptr" : true,
     "referenced_type" : "_ZTIPKN7android10properties14SerializedDataE"
    }
   ],
   "return_type" : "_ZTIj",
   "source_file" : "system/core/property_service/libpropertyinfoparser/include/property_info_parser/property_info_parser.h"
  },
  {
   "function_name" : "android::properties::SerializedData::uint32",
   "linker_set_key" : "_ZNK7android10properties14SerializedData6uint32Ej",
   "parameters" :
   [
    {
     "is_this_ptr" : true,
     "referenced_type" : "_ZTIPKN7android10properties14SerializedDataE"
    },
    {
     "referenced_type" : "_ZTIj"
    }
   ],
   "return_type" : "_ZTIj",
   "source_file" : "system/core/property_service/libpropertyinfoparser/include/property_info_parser/property_info_parser.h"
  },
  {
   "function_name" : "android::properties::SerializedData::c_string",
   "linker_set_key" : "_ZNK7android10properties14SerializedData8c_stringEj",
   "parameters" :
   [
    {
     "is_this_ptr" : true,
     "referenced_type" : "_ZTIPKN7android10properties14SerializedDataE"
    },
    {
     "referenced_type" : "_ZTIj"
    }
   ],
   "return_type" : "_ZTIPKc",
   "source_file" : "system/core/property_service/libpropertyinfoparser/include/property_info_parser/property_info_parser.h"
  },
  {
   "function_name" : "android::properties::SerializedData::data_base",
   "linker_set_key" : "_ZNK7android10properties14SerializedData9data_baseEv",
   "parameters" :
   [
    {
     "is_this_ptr" : true,
     "referenced_type" : "_ZTIPKN7android10properties14SerializedDataE"
    }
   ],
   "return_type" : "_ZTIPKc",
   "source_file" : "system/core/property_service/libpropertyinfoparser/include/property_info_parser/property_info_parser.h"
  },
  {
   "function_name" : "android::properties::PropertyInfoArea::num_contexts",
   "linker_set_key" : "_ZNK7android10properties16PropertyInfoArea12num_contextsEv",
   "parameters" :
   [
    {
     "is_this_ptr" : true,
     "referenced_type" : "_ZTIPKN7android10properties16PropertyInfoAreaE"
    }
   ],
   "return_type" : "_ZTIj",
   "source_file" : "system/core/property_service/libpropertyinfoparser/include/property_info_parser/property_info_parser.h"
  },
  {
   "access" : "private",
   "function_name" : "android::properties::PropertyInfoArea::types_offset",
   "linker_set_key" : "_ZNK7android10properties16PropertyInfoArea12types_offsetEv",
   "parameters" :
   [
    {
     "is_this_ptr" : true,
     "referenced_type" : "_ZTIPKN7android10properties16PropertyInfoAreaE"
    }
   ],
   "return_type" : "_ZTIj",
   "source_file" : "system/core/property_service/libpropertyinfoparser/include/property_info_parser/property_info_parser.h"
  },
  {
   "function_name" : "android::properties::PropertyInfoArea::FindTypeIndex",
   "linker_set_key" : "_ZNK7android10properties16PropertyInfoArea13FindTypeIndexEPKc",
   "parameters" :
   [
    {
     "is_this_ptr" : true,
     "referenced_type" : "_ZTIPKN7android10properties16PropertyInfoAreaE"
    },
    {
     "referenced_type" : "_ZTIPKc"
    }
   ],
   "return_type" : "_ZTIi",
   "source_file" : "system/core/property_service/libpropertyinfoparser/include/property_info_parser/property_info_parser.h"
  },
  {
   "function_name" : "android::properties::PropertyInfoArea::GetPropertyInfo",
   "linker_set_key" : "_ZNK7android10properties16PropertyInfoArea15GetPropertyInfoEPKcPS3_S4_",
   "parameters" :
   [
    {
     "is_this_ptr" : true,
     "referenced_type" : "_ZTIPKN7android10properties16PropertyInfoAreaE"
    },
    {
     "referenced_type" : "_ZTIPKc"
    },
    {
     "referenced_type" : "_ZTIPPKc"
    },
    {
     "referenced_type" : "_ZTIPPKc"
    }
   ],
   "return_type" : "_ZTIv",
   "source_file" : "system/core/property_service/libpropertyinfoparser/include/property_info_parser/property_info_parser.h"
  },
  {
   "access" : "private",
   "function_name" : "android::properties::PropertyInfoArea::contexts_offset",
   "linker_set_key" : "_ZNK7android10properties16PropertyInfoArea15contexts_offsetEv",
   "parameters" :
   [
    {
     "is_this_ptr" : true,
     "referenced_type" : "_ZTIPKN7android10properties16PropertyInfoAreaE"
    }
   ],
   "return_type" : "_ZTIj",
   "source_file" : "system/core/property_service/libpropertyinfoparser/include/property_info_parser/property_info_parser.h"
  },
  {
   "function_name" : "android::properties::PropertyInfoArea::current_version",
   "linker_set_key" : "_ZNK7android10properties16PropertyInfoArea15current_versionEv",
   "parameters" :
   [
    {
     "is_this_ptr" : true,
     "referenced_type" : "_ZTIPKN7android10properties16PropertyInfoAreaE"
    }
   ],
   "return_type" : "_ZTIj",
   "source_file" : "system/core/property_service/libpropertyinfoparser/include/property_info_parser/property_info_parser.h"
  },
  {
   "access" : "private",
   "function_name" : "android::properties::PropertyInfoArea::CheckPrefixMatch",
   "linker_set_key" : "_ZNK7android10properties16PropertyInfoArea16CheckPrefixMatchEPKcRKNS0_8TrieNodeEPjS7_",
   "parameters" :
   [
    {
     "is_this_ptr" : true,
     "referenced_type" : "_ZTIPKN7android10properties16PropertyInfoAreaE"
    },
    {
     "referenced_type" : "_ZTIPKc"
    },
    {
     "referenced_type" : "_ZTIRKN7android10properties8TrieNodeE"
    },
    {
     "referenced_type" : "_ZTIPj"
    },
    {
     "referenced_type" : "_ZTIPj"
    }
   ],
   "return_type" : "_ZTIv",
   "source_file" : "system/core/property_service/libpropertyinfoparser/include/property_info_parser/property_info_parser.h"
  },
  {
   "function_name" : "android::properties::PropertyInfoArea::FindContextIndex",
   "linker_set_key" : "_ZNK7android10properties16PropertyInfoArea16FindContextIndexEPKc",
   "parameters" :
   [
    {
     "is_this_ptr" : true,
     "referenced_type" : "_ZTIPKN7android10properties16PropertyInfoAreaE"
    },
    {
     "referenced_type" : "_ZTIPKc"
    }
   ],
   "return_type" : "_ZTIi",
   "source_file" : "system/core/property_service/libpropertyinfoparser/include/property_info_parser/property_info_parser.h"
  },
  {
   "access" : "private",
   "function_name" : "android::properties::PropertyInfoArea::types_array_offset",
   "linker_set_key" : "_ZNK7android10properties16PropertyInfoArea18types_array_offsetEv",
   "parameters" :
   [
    {
     "is_this_ptr" : true,
     "referenced_type" : "_ZTIPKN7android10properties16PropertyInfoAreaE"
    }
   ],
   "return_type" : "_ZTIj",
   "source_file" : "system/core/property_service/libpropertyinfoparser/include/property_info_parser/property_info_parser.h"
  },
  {
   "access" : "private",
   "function_name" : "android::properties::PropertyInfoArea::contexts_array_offset",
   "linker_set_key" : "_ZNK7android10properties16PropertyInfoArea21contexts_array_offsetEv",
   "parameters" :
   [
    {
     "is_this_ptr" : true,
     "referenced_type" : "_ZTIPKN7android10properties16PropertyInfoAreaE"
    }
   ],
   "return_type" : "_ZTIj",
   "source_file" : "system/core/property_service/libpropertyinfoparser/include/property_info_parser/property_info_parser.h"
  },
  {
   "function_name" : "android::properties::PropertyInfoArea::GetPropertyInfoIndexes",
   "linker_set_key" : "_ZNK7android10properties16PropertyInfoArea22GetPropertyInfoIndexesEPKcPjS4_",
   "parameters" :
   [
    {
     "is_this_ptr" : true,
     "referenced_type" : "_ZTIPKN7android10properties16PropertyInfoAreaE"
    },
    {
     "referenced_type" : "_ZTIPKc"
    },
    {
     "referenced_type" : "_ZTIPj"
    },
    {
     "referenced_type" : "_ZTIPj"
    }
   ],
   "return_type" : "_ZTIv",
   "source_file" : "system/core/property_service/libpropertyinfoparser/include/property_info_parser/property_info_parser.h"
  },
  {
   "function_name" : "android::properties::PropertyInfoArea::minimum_supported_version",
   "linker_set_key" : "_ZNK7android10properties16PropertyInfoArea25minimum_supported_versionEv",
   "parameters" :
   [
    {
     "is_this_ptr" : true,
     "referenced_type" : "_ZTIPKN7android10properties16PropertyInfoAreaE"
    }
   ],
   "return_type" : "_ZTIj",
   "source_file" : "system/core/property_service/libpropertyinfoparser/include/property_info_parser/property_info_parser.h"
  },
  {
   "function_name" : "android::properties::PropertyInfoArea::size",
   "linker_set_key" : "_ZNK7android10properties16PropertyInfoArea4sizeEv",
   "parameters" :
   [
    {
     "is_this_ptr" : true,
     "referenced_type" : "_ZTIPKN7android10properties16PropertyInfoAreaE"
    }
   ],
   "return_type" : "_ZTIj",
   "source_file" : "system/core/property_service/libpropertyinfoparser/include/property_info_parser/property_info_parser.h"
  },
  {
   "access" : "private",
   "function_name" : "android::properties::PropertyInfoArea::trie",
   "linker_set_key" : "_ZNK7android10properties16PropertyInfoArea4trieEj",
   "parameters" :
   [
    {
     "is_this_ptr" : true,
     "referenced_type" : "_ZTIPKN7android10properties16PropertyInfoAreaE"
    },
    {
     "referenced_type" : "_ZTIj"
    }
   ],
   "return_type" : "_ZTIN7android10properties8TrieNodeE",
   "source_file" : "system/core/property_service/libpropertyinfoparser/include/property_info_parser/property_info_parser.h"
  },
  {
   "function_name" : "android::properties::PropertyInfoArea::type",
   "linker_set_key" : "_ZNK7android10properties16PropertyInfoArea4typeEj",
   "parameters" :
   [
    {
     "is_this_ptr" : true,
     "referenced_type" : "_ZTIPKN7android10properties16PropertyInfoAreaE"
    },
    {
     "referenced_type" : "_ZTIj"
    }
   ],
   "return_type" : "_ZTIPKc",
   "source_file" : "system/core/property_service/libpropertyinfoparser/include/property_info_parser/property_info_parser.h"
  },
  {
   "access" : "private",
   "function_name" : "android::properties::PropertyInfoArea::header",
   "linker_set_key" : "_ZNK7android10properties16PropertyInfoArea6headerEv",
   "parameters" :
   [
    {
     "is_this_ptr" : true,
     "referenced_type" : "_ZTIPKN7android10properties16PropertyInfoAreaE"
    }
   ],
   "return_type" : "_ZTIPKN7android10properties22PropertyInfoAreaHeaderE",
   "source_file" : "system/core/property_service/libpropertyinfoparser/include/property_info_parser/property_info_parser.h"
  },
  {
   "function_name" : "android::properties::PropertyInfoArea::context",
   "linker_set_key" : "_ZNK7android10properties16PropertyInfoArea7contextEj",
   "parameters" :
   [
    {
     "is_this_ptr" : true,
     "referenced_type" : "_ZTIPKN7android10properties16PropertyInfoAreaE"
    },
    {
     "referenced_type" : "_ZTIj"
    }
   ],
   "return_type" : "_ZTIPKc",
   "source_file" : "system/core/property_service/libpropertyinfoparser/include/property_info_parser/property_info_parser.h"
  },
  {
   "function_name" : "android::properties::PropertyInfoArea::num_types",
   "linker_set_key" : "_ZNK7android10properties16PropertyInfoArea9num_typesEv",
   "parameters" :
   [
    {
     "is_this_ptr" : true,
     "referenced_type" : "_ZTIPKN7android10properties16PropertyInfoAreaE"
    }
   ],
   "return_type" : "_ZTIj",
   "source_file" : "system/core/property_service/libpropertyinfoparser/include/property_info_parser/property_info_parser.h"
  },
  {
   "function_name" : "android::properties::PropertyInfoArea::root_node",
   "linker_set_key" : "_ZNK7android10properties16PropertyInfoArea9root_nodeEv",
   "parameters" :
   [
    {
     "is_this_ptr" : true,
     "referenced_type" : "_ZTIPKN7android10properties16PropertyInfoAreaE"
    }
   ],
   "return_type" : "_ZTIN7android10properties8TrieNodeE",
   "source_file" : "system/core/property_service/libpropertyinfoparser/include/property_info_parser/property_info_parser.h"
  },
  {
   "function_name" : "android::properties::PropertyInfoAreaFile::operator bool",
   "linker_set_key" : "_ZNK7android10properties20PropertyInfoAreaFilecvbEv",
   "parameters" :
   [
    {
     "is_this_ptr" : true,
     "referenced_type" : "_ZTIPKN7android10properties20PropertyInfoAreaFileE"
    }
   ],
   "return_type" : "_ZTIb",
   "source_file" : "system/core/property_service/libpropertyinfoparser/include/property_info_parser/property_info_parser.h"
  },
  {
   "function_name" : "android::properties::PropertyInfoAreaFile::operator->",
   "linker_set_key" : "_ZNK7android10properties20PropertyInfoAreaFileptEv",
   "parameters" :
   [
    {
     "is_this_ptr" : true,
     "referenced_type" : "_ZTIPKN7android10properties20PropertyInfoAreaFileE"
    }
   ],
   "return_type" : "_ZTIPKN7android10properties16PropertyInfoAreaE",
   "source_file" : "system/core/property_service/libpropertyinfoparser/include/property_info_parser/property_info_parser.h"
  },
  {
   "function_name" : "android::properties::TrieNode::child_node",
   "linker_set_key" : "_ZNK7android10properties8TrieNode10child_nodeEi",
   "parameters" :
   [
    {
     "is_this_ptr" : true,
     "referenced_type" : "_ZTIPKN7android10properties8TrieNodeE"
    },
    {
     "referenced_type" : "_ZTIi"
    }
   ],
   "return_type" : "_ZTIN7android10properties8TrieNodeE",
   "source_file" : "system/core/property_service/libpropertyinfoparser/include/property_info_parser/property_info_parser.h"
  },
  {
   "function_name" : "android::properties::TrieNode::type_index",
   "linker_set_key" : "_ZNK7android10properties8TrieNode10type_indexEv",
   "parameters" :
   [
    {
     "is_this_ptr" : true,
     "referenced_type" : "_ZTIPKN7android10properties8TrieNodeE"
    }
   ],
   "return_type" : "_ZTIj",
   "source_file" : "system/core/property_service/libpropertyinfoparser/include/property_info_parser/property_info_parser.h"
  },
  {
   "function_name" : "android::properties::TrieNode::exact_match",
   "linker_set_key" : "_ZNK7android10properties8TrieNode11exact_matchEi",
   "parameters" :
   [
    {
     "is_this_ptr" : true,
     "referenced_type" : "_ZTIPKN7android10properties8TrieNodeE"
    },
    {
     "referenced_type" : "_ZTIi"
    }
   ],
   "return_type" : "_ZTIPKN7android10properties13PropertyEntryE",
   "source_file" : "system/core/property_service/libpropertyinfoparser/include/property_info_parser/property_info_parser.h"
  },
  {
   "function_name" : "android::properties::TrieNode::num_prefixes",
   "linker_set_key" : "_ZNK7android10properties8TrieNode12num_prefixesEv",
   "parameters" :
   [
    {
     "is_this_ptr" : true,
     "referenced_type" : "_ZTIPKN7android10properties8TrieNodeE"
    }
   ],
   "return_type" : "_ZTIj",
   "source_file" : "system/core/property_service/libpropertyinfoparser/include/property_info_parser/property_info_parser.h"
  },
  {
   "function_name" : "android::properties::TrieNode::context_index",
   "linker_set_key" : "_ZNK7android10properties8TrieNode13context_indexEv",
   "parameters" :
   [
    {
     "is_this_ptr" : true,
     "referenced_type" : "_ZTIPKN7android10properties8TrieNodeE"
    }
   ],
   "return_type" : "_ZTIj",
   "source_file" : "system/core/property_service/libpropertyinfoparser/include/property_info_parser/property_info_parser.h"
  },
  {
   "function_name" : "android::properties::TrieNode::num_child_nodes",
   "linker_set_key" : "_ZNK7android10properties8TrieNode15num_child_nodesEv",
   "parameters" :
   [
    {
     "is_this_ptr" : true,
     "referenced_type" : "_ZTIPKN7android10properties8TrieNodeE"
    }
   ],
   "return_type" : "_ZTIj",
   "source_file" : "system/core/property_service/libpropertyinfoparser/include/property_info_parser/property_info_parser.h"
  },
  {
   "function_name" : "android::properties::TrieNode::num_exact_matches",
   "linker_set_key" : "_ZNK7android10properties8TrieNode17num_exact_matchesEv",
   "parameters" :
   [
    {
     "is_this_ptr" : true,
     "referenced_type" : "_ZTIPKN7android10properties8TrieNodeE"
    }
   ],
   "return_type" : "_ZTIj",
   "source_file" : "system/core/property_service/libpropertyinfoparser/include/property_info_parser/property_info_parser.h"
  },
  {
   "function_name" : "android::properties::TrieNode::FindChildForString",
   "linker_set_key" : "_ZNK7android10properties8TrieNode18FindChildForStringEPKcjPS1_",
   "parameters" :
   [
    {
     "is_this_ptr" : true,
     "referenced_type" : "_ZTIPKN7android10properties8TrieNodeE"
    },
    {
     "referenced_type" : "_ZTIPKc"
    },
    {
     "referenced_type" : "_ZTIj"
    },
    {
     "referenced_type" : "_ZTIPN7android10properties8TrieNodeE"
    }
   ],
   "return_type" : "_ZTIb",
   "source_file" : "system/core/property_service/libpropertyinfoparser/include/property_info_parser/property_info_parser.h"
  },
  {
   "access" : "private",
   "function_name" : "android::properties::TrieNode::node_property_entry",
   "linker_set_key" : "_ZNK7android10properties8TrieNode19node_property_entryEv",
   "parameters" :
   [
    {
     "is_this_ptr" : true,
     "referenced_type" : "_ZTIPKN7android10properties8TrieNodeE"
    }
   ],
   "return_type" : "_ZTIPKN7android10properties13PropertyEntryE",
   "source_file" : "system/core/property_service/libpropertyinfoparser/include/property_info_parser/property_info_parser.h"
  },
  {
   "function_name" : "android::properties::TrieNode::name",
   "linker_set_key" : "_ZNK7android10properties8TrieNode4nameEv",
   "parameters" :
   [
    {
     "is_this_ptr" : true,
     "referenced_type" : "_ZTIPKN7android10properties8TrieNodeE"
    }
   ],
   "return_type" : "_ZTIPKc",
   "source_file" : "system/core/property_service/libpropertyinfoparser/include/property_info_parser/property_info_parser.h"
  },
  {
   "function_name" : "android::properties::TrieNode::prefix",
   "linker_set_key" : "_ZNK7android10properties8TrieNode6prefixEi",
   "parameters" :
   [
    {
     "is_this_ptr" : true,
     "referenced_type" : "_ZTIPKN7android10properties8TrieNodeE"
    },
    {
     "referenced_type" : "_ZTIi"
    }
   ],
   "return_type" : "_ZTIPKN7android10properties13PropertyEntryE",
   "source_file" : "system/core/property_service/libpropertyinfoparser/include/property_info_parser/property_info_parser.h"
  }
 ],
 "global_vars" : [],
 "lvalue_reference_types" :
 [
  {
   "alignment" : 8,
   "linker_set_key" : "_ZTIRKN7android10properties8TrieNodeE",
   "name" : "const android::properties::TrieNode &",
   "referenced_type" : "_ZTIKN7android10properties8TrieNodeE",
   "self_type" : "_ZTIRKN7android10properties8TrieNodeE",
   "size" : 8,
   "source_file" : "system/core/property_service/libpropertyinfoparser/include/property_info_parser/property_info_parser.h"
  },
  {
   "alignment" : 8,
   "linker_set_key" : "_ZTIRN7android10properties20PropertyInfoAreaFileE",
   "name" : "android::properties::PropertyInfoAreaFile &",
   "referenced_type" : "_ZTIN7android10properties20PropertyInfoAreaFileE",
   "self_type" : "_ZTIRN7android10properties20PropertyInfoAreaFileE",
   "size" : 8,
   "source_file" : "system/core/property_service/libpropertyinfoparser/include/property_info_parser/property_info_parser.h"
  }
 ],
 "pointer_types" :
 [
  {
   "alignment" : 8,
   "linker_set_key" : "_ZTIPKN7android10properties13PropertyEntryE",
   "name" : "const android::properties::PropertyEntry *",
   "referenced_type" : "_ZTIKN7android10properties13PropertyEntryE",
   "self_type" : "_ZTIPKN7android10properties13PropertyEntryE",
   "size" : 8,
   "source_file" : "system/core/property_service/libpropertyinfoparser/include/property_info_parser/property_info_parser.h"
  },
  {
   "alignment" : 8,
   "linker_set_key" : "_ZTIPKN7android10properties14SerializedDataE",
   "name" : "const android::properties::SerializedData *",
   "referenced_type" : "_ZTIKN7android10properties14SerializedDataE",
   "self_type" : "_ZTIPKN7android10properties14SerializedDataE",
   "size" : 8,
   "source_file" : "system/core/property_service/libpropertyinfoparser/include/property_info_parser/property_info_parser.h"
  },
  {
   "alignment" : 8,
   "linker_set_key" : "_ZTIPKN7android10properties16PropertyInfoAreaE",
   "name" : "const android::properties::PropertyInfoArea *",
   "referenced_type" : "_ZTIKN7android10properties16PropertyInfoAreaE",
   "self_type" : "_ZTIPKN7android10properties16PropertyInfoAreaE",
   "size" : 8,
   "source_file" : "system/core/property_service/libpropertyinfoparser/include/property_info_parser/property_info_parser.h"
  },
  {
   "alignment" : 8,
   "linker_set_key" : "_ZTIPKN7android10properties16TrieNodeInternalE",
   "name" : "const android::properties::TrieNodeInternal *",
   "referenced_type" : "_ZTIKN7android10properties16TrieNodeInternalE",
   "self_type" : "_ZTIPKN7android10properties16TrieNodeInternalE",
   "size" : 8,
   "source_file" : "system/core/property_service/libpropertyinfoparser/include/property_info_parser/property_info_parser.h"
  },
  {
   "alignment" : 8,
   "linker_set_key" : "_ZTIPKN7android10properties20PropertyInfoAreaFileE",
   "name" : "const android::properties::PropertyInfoAreaFile *",
   "referenced_type" : "_ZTIKN7android10properties20PropertyInfoAreaFileE",
   "self_type" : "_ZTIPKN7android10properties20PropertyInfoAreaFileE",
   "size" : 8,
   "source_file" : "system/core/property_service/libpropertyinfoparser/include/property_info_parser/property_info_parser.h"
  },
  {
   "alignment" : 8,
   "linker_set_key" : "_ZTIPKN7android10properties22PropertyInfoAreaHeaderE",
   "name" : "const android::properties::PropertyInfoAreaHeader *",
   "referenced_type" : "_ZTIKN7android10properties22PropertyInfoAreaHeaderE",
   "self_type" : "_ZTIPKN7android10properties22PropertyInfoAreaHeaderE",
   "size" : 8,
   "source_file" : "system/core/property_service/libpropertyinfoparser/include/property_info_parser/property_info_parser.h"
  },
  {
   "alignment" : 8,
   "linker_set_key" : "_ZTIPKN7android10properties8TrieNodeE",
   "name" : "const android::properties::TrieNode *",
   "referenced_type" : "_ZTIKN7android10properties8TrieNodeE",
   "self_type" : "_ZTIPKN7android10properties8TrieNodeE",
   "size" : 8,
   "source_file" : "system/core/property_service/libpropertyinfoparser/include/property_info_parser/property_info_parser.h"
  },
  {
   "alignment" : 8,
   "linker_set_key" : "_ZTIPKc",
   "name" : "const char *",
   "referenced_type" : "_ZTIKc",
   "self_type" : "_ZTIPKc",
   "size" : 8,
   "source_file" : "system/core/property_service/libpropertyinfoparser/include/property_info_parser/property_info_parser.h"
  },
  {
   "alignment" : 8,
   "linker_set_key" : "_ZTIPKj",
   "name" : "const unsigned int *",
   "referenced_type" : "_ZTIKj",
   "self_type" : "_ZTIPKj",
   "size" : 8,
   "source_file" : "system/core/property_service/libpropertyinfoparser/include/property_info_parser/property_info_parser.h"
  },
  {
   "alignment" : 8,
   "linker_set_key" : "_ZTIPN7android10properties20PropertyInfoAreaFileE",
   "name" : "android::properties::PropertyInfoAreaFile *",
   "referenced_type" : "_ZTIN7android10properties20PropertyInfoAreaFileE",
   "self_type" : "_ZTIPN7android10properties20PropertyInfoAreaFileE",
   "size" : 8,
   "source_file" : "system/core/property_service/libpropertyinfoparser/include/property_info_parser/property_info_parser.h"
  },
  {
   "alignment" : 8,
   "linker_set_key" : "_ZTIPN7android10properties8TrieNodeE",
   "name" : "android::properties::TrieNode *",
   "referenced_type" : "_ZTIN7android10properties8TrieNodeE",
   "self_type" : "_ZTIPN7android10properties8TrieNodeE",
   "size" : 8,
   "source_file" : "system/core/property_service/libpropertyinfoparser/include/property_info_parser/property_info_parser.h"
  },
  {
   "alignment" : 8,
   "linker_set_key" : "_ZTIPPKc",
   "name" : "const char **",
   "referenced_type" : "_ZTIPKc",
   "self_type" : "_ZTIPPKc",
   "size" : 8,
   "source_file" : "system/core/property_service/libpropertyinfoparser/include/property_info_parser/property_info_parser.h"
  },
  {
   "alignment" : 8,
   "linker_set_key" : "_ZTIPj",
   "name" : "unsigned int *",
   "referenced_type" : "_ZTIj",
   "self_type" : "_ZTIPj",
   "size" : 8,
   "source_file" : "system/core/property_service/libpropertyinfoparser/include/property_info_parser/property_info_parser.h"
  },
  {
   "alignment" : 8,
   "linker_set_key" : "_ZTIPv",
   "name" : "void *",
   "referenced_type" : "_ZTIv",
   "self_type" : "_ZTIPv",
   "size" : 8,
   "source_file" : "system/core/property_service/libpropertyinfoparser/include/property_info_parser/property_info_parser.h"
  }
 ],
 "qualified_types" :
 [
  {
   "alignment" : 1,
   "is_const" : true,
   "linker_set_key" : "_ZTIA0_Kc",
   "name" : "char const[0]",
   "referenced_type" : "_ZTIA0_c",
   "self_type" : "_ZTIA0_Kc",
   "source_file" : "system/core/property_service/libpropertyinfoparser/include/property_info_parser/property_info_parser.h"
  },
  {
   "alignment" : 4,
   "is_const" : true,
   "linker_set_key" : "_ZTIKN7android10properties13PropertyEntryE",
   "name" : "const android::properties::PropertyEntry",
   "referenced_type" : "_ZTIN7android10properties13PropertyEntryE",
   "self_type" : "_ZTIKN7android10properties13PropertyEntryE",
   "size" : 16,
   "source_file" : "system/core/property_service/libpropertyinfoparser/include/property_info_parser/property_info_parser.h"
  },
  {
   "alignment" : 1,
   "is_const" : true,
   "linker_set_key" : "_ZTIKN7android10properties14SerializedDataE",
   "name" : "const android::properties::SerializedData",
   "referenced_type" : "_ZTIN7android10properties14SerializedDataE",
   "self_type" : "_ZTIKN7android10properties14SerializedDataE",
   "source_file" : "system/core/property_service/libpropertyinfoparser/include/property_info_parser/property_info_parser.h"
  },
  {
   "alignment" : 1,
   "is_const" : true,
   "linker_set_key" : "_ZTIKN7android10properties16PropertyInfoAreaE",
   "name" : "const android::properties::PropertyInfoArea",
   "referenced_type" : "_ZTIN7android10properties16PropertyInfoAreaE",
   "self_type" : "_ZTIKN7android10properties16PropertyInfoAreaE",
   "source_file" : "system/core/property_service/libpropertyinfoparser/include/property_info_parser/property_info_parser.h"
  },
  {
   "alignment" : 4,
   "is_const" : true,
   "linker_set_key" : "_ZTIKN7android10properties16TrieNodeInternalE",
   "name" : "const android::properties::TrieNodeInternal",
   "referenced_type" : "_ZTIN7android10properties16TrieNodeInternalE",
   "self_type" : "_ZTIKN7android10properties16TrieNodeInternalE",
   "size" : 28,
   "source_file" : "system/core/property_service/libpropertyinfoparser/include/property_info_parser/property_info_parser.h"
  },
  {
   "alignment" : 8,
   "is_const" : true,
   "linker_set_key" : "_ZTIKN7android10properties20PropertyInfoAreaFileE",
   "name" : "const android::properties::PropertyInfoAreaFile",
   "referenced_type" : "_ZTIN7android10properties20PropertyInfoAreaFileE",
   "self_type" : "_ZTIKN7android10properties20PropertyInfoAreaFileE",
   "size" : 16,
   "source_file" : "system/core/property_service/libpropertyinfoparser/include/property_info_parser/property_info_parser.h"
  },
  {
   "alignment" : 4,
   "is_const" : true,
   "linker_set_key" : "_ZTIKN7android10properties22PropertyInfoAreaHeaderE",
   "name" : "const android::properties::PropertyInfoAreaHeader",
   "referenced_type" : "_ZTIN7android10properties22PropertyInfoAreaHeaderE",
   "self_type" : "_ZTIKN7android10properties22PropertyInfoAreaHeaderE",
   "size" : 24,
   "source_file" : "system/core/property_service/libpropertyinfoparser/include/property_info_parser/property_info_parser.h"
  },
  {
   "alignment" : 8,
   "is_const" : true,
   "linker_set_key" : "_ZTIKN7android10properties8TrieNodeE",
   "name" : "const android::properties::TrieNode",
   "referenced_type" : "_ZTIN7android10properties8TrieNodeE",
   "self_type" : "_ZTIKN7android10properties8TrieNodeE",
   "size" : 16,
   "source_file" : "system/core/property_service/libpropertyinfoparser/include/property_info_parser/property_info_parser.h"
  },
  {
   "alignment" : 1,
   "is_const" : true,
   "linker_set_key" : "_ZTIKc",
   "name" : "const char",
   "referenced_type" : "_ZTIc",
   "self_type" : "_ZTIKc",
   "size" : 1,
   "source_file" : "system/core/property_service/libpropertyinfoparser/include/property_info_parser/property_info_parser.h"
  },
  {
   "alignment" : 4,
   "is_const" : true,
   "linker_set_key" : "_ZTIKj",
   "name" : "const unsigned int",
   "referenced_type" : "_ZTIj",
   "self_type" : "_ZTIKj",
   "size" : 4,
   "source_file" : "system/core/property_service/libpropertyinfoparser/include/property_info_parser/property_info_parser.h"
  }
 ],
 "record_types" :
 [
  {
   "alignment" : 4,
   "fields" :
   [
    {
     "field_name" : "name_offset",
     "referenced_type" : "_ZTIj"
    },
    {
     "field_name" : "namelen",
     "field_offset" : 32,
     "referenced_type" : "_ZTIj"
    },
    {
     "field_name" : "context_index",
     "field_offset" : 64,
     "referenced_type" : "_ZTIj"
    },
    {
     "field_name" : "type_index",
     "field_offset" : 96,
     "referenced_type" : "_ZTIj"
    }
   ],
   "linker_set_key" : "_ZTIN7android10properties13PropertyEntryE",
   "name" : "android::properties::PropertyEntry",
   "referenced_type" : "_ZTIN7android10properties13PropertyEntryE",
   "self_type" : "_ZTIN7android10properties13PropertyEntryE",
   "size" : 16,
   "source_file" : "system/core/property_service/libpropertyinfoparser/include/property_info_parser/property_info_parser.h"
  },
  {
   "alignment" : 1,
   "fields" :
   [
    {
     "access" : "private",
     "field_name" : "data_base_",
     "referenced_type" : "_ZTIA0_Kc"
    }
   ],
   "linker_set_key" : "_ZTIN7android10properties14SerializedDataE",
   "name" : "android::properties::SerializedData",
   "record_kind" : "class",
   "referenced_type" : "_ZTIN7android10properties14SerializedDataE",
   "self_type" : "_ZTIN7android10properties14SerializedDataE",
   "source_file" : "system/core/property_service/libpropertyinfoparser/include/property_info_parser/property_info_parser.h"
  },
  {
   "alignment" : 1,
   "base_specifiers" :
   [
    {
     "access" : "private",
     "referenced_type" : "_ZTIN7android10properties14SerializedDataE"
    }
   ],
   "linker_set_key" : "_ZTIN7android10properties16PropertyInfoAreaE",
   "name" : "android::properties::PropertyInfoArea",
   "record_kind" : "class",
   "referenced_type" : "_ZTIN7android10properties16PropertyInfoAreaE",
   "self_type" : "_ZTIN7android10properties16PropertyInfoAreaE",
   "source_file" : "system/core/property_service/libpropertyinfoparser/include/property_info_parser/property_info_parser.h"
  },
  {
   "alignment" : 4,
   "fields" :
   [
    {
     "field_name" : "property_entry",
     "referenced_type" : "_ZTIj"
    },
    {
     "field_name" : "num_child_nodes",
     "field_offset" : 32,
     "referenced_type" : "_ZTIj"
    },
    {
     "field_name" : "child_nodes",
     "field_offset" : 64,
     "referenced_type" : "_ZTIj"
    },
    {
     "field_name" : "num_prefixes",
     "field_offset" : 96,
     "referenced_type" : "_ZTIj"
    },
    {
     "field_name" : "prefix_entries",
     "field_offset" : 128,
     "referenced_type" : "_ZTIj"
    },
    {
     "field_name" : "num_exact_matches",
     "field_offset" : 160,
     "referenced_type" : "_ZTIj"
    },
    {
     "field_name" : "exact_match_entries",
     "field_offset" : 192,
     "referenced_type" : "_ZTIj"
    }
   ],
   "linker_set_key" : "_ZTIN7android10properties16TrieNodeInternalE",
   "name" : "android::properties::TrieNodeInternal",
   "referenced_type" : "_ZTIN7android10properties16TrieNodeInternalE",
   "self_type" : "_ZTIN7android10properties16TrieNodeInternalE",
   "size" : 28,
   "source_file" : "system/core/property_service/libpropertyinfoparser/include/property_info_parser/property_info_parser.h"
  },
  {
   "alignment" : 8,
   "fields" :
   [
    {
     "access" : "private",
     "field_name" : "mmap_base_",
     "referenced_type" : "_ZTIPv"
    },
    {
     "access" : "private",
     "field_name" : "mmap_size_",
     "field_offset" : 64,
     "referenced_type" : "_ZTIm"
    }
   ],
   "linker_set_key" : "_ZTIN7android10properties20PropertyInfoAreaFileE",
   "name" : "android::properties::PropertyInfoAreaFile",
   "record_kind" : "class",
   "referenced_type" : "_ZTIN7android10properties20PropertyInfoAreaFileE",
   "self_type" : "_ZTIN7android10properties20PropertyInfoAreaFileE",
   "size" : 16,
   "source_file" : "system/core/property_service/libpropertyinfoparser/include/property_info_parser/property_info_parser.h"
  },
  {
   "alignment" : 4,
   "fields" :
   [
    {
     "field_name" : "current_version",
     "referenced_type" : "_ZTIj"
    },
    {
     "field_name" : "minimum_supported_version",
     "field_offset" : 32,
     "referenced_type" : "_ZTIj"
    },
    {
     "field_name" : "size",
     "field_offset" : 64,
     "referenced_type" : "_ZTIj"
    },
    {
     "field_name" : "contexts_offset",
     "field_offset" : 96,
     "referenced_type" : "_ZTIj"
    },
    {
     "field_name" : "types_offset",
     "field_offset" : 128,
     "referenced_type" : "_ZTIj"
    },
    {
     "field_name" : "root_offset",
     "field_offset" : 160,
     "referenced_type" : "_ZTIj"
    }
   ],
   "linker_set_key" : "_ZTIN7android10properties22PropertyInfoAreaHeaderE",
   "name" : "android::properties::PropertyInfoAreaHeader",
   "referenced_type" : "_ZTIN7android10properties22PropertyInfoAreaHeaderE",
   "self_type" : "_ZTIN7android10properties22PropertyInfoAreaHeaderE",
   "size" : 24,
   "source_file" : "system/core/property_service/libpropertyinfoparser/include/property_info_parser/property_info_parser.h"
  },
  {
   "alignment" : 8,
   "fields" :
   [
    {
     "access" : "private",
     "field_name" : "serialized_data_",
     "referenced_type" : "_ZTIPKN7android10properties14SerializedDataE"
    },
    {
     "access" : "private",
     "field_name" : "trie_node_base_",
     "field_offset" : 64,
     "referenced_type" : "_ZTIPKN7android10properties16TrieNodeInternalE"
    }
   ],
   "linker_set_key" : "_ZTIN7android10properties8TrieNodeE",
   "name" : "android::properties::TrieNode",
   "record_kind" : "class",
   "referenced_type" : "_ZTIN7android10properties8TrieNodeE",
   "self_type" : "_ZTIN7android10properties8TrieNodeE",
   "size" : 16,
   "source_file" : "system/core/property_service/libpropertyinfoparser/include/property_info_parser/property_info_parser.h"
  }
 ],
 "rvalue_reference_types" :
 [
  {
   "alignment" : 8,
   "linker_set_key" : "_ZTION7android10properties20PropertyInfoAreaFileE",
   "name" : "android::properties::PropertyInfoAreaFile &&",
   "referenced_type" : "_ZTIN7android10properties20PropertyInfoAreaFileE",
   "self_type" : "_ZTION7android10properties20PropertyInfoAreaFileE",
   "size" : 8,
   "source_file" : "system/core/property_service/libpropertyinfoparser/include/property_info_parser/property_info_parser.h"
  }
 ]
}
