{
 "array_types" :
 [
  {
   "alignment" : 4,
   "linker_set_key" : "_ZTIA10_i",
   "name" : "int [10]",
   "referenced_type" : "_ZTIi",
   "self_type" : "_ZTIA10_i",
   "size" : 40,
   "source_file" : "bionic/libc/include/bits/pthread_types.h"
  },
  {
   "alignment" : 1,
   "linker_set_key" : "_ZTIA120_c",
   "name" : "char [120]",
   "referenced_type" : "_ZTIc",
   "self_type" : "_ZTIA120_c",
   "size" : 120,
   "source_file" : "bionic/libc/include/sys/ucontext.h"
  },
  {
   "alignment" : 4,
   "linker_set_key" : "_ZTIA128_m",
   "name" : "unsigned long [128]",
   "referenced_type" : "_ZTIm",
   "self_type" : "_ZTIA128_m",
   "size" : 512,
   "source_file" : "bionic/libc/include/sys/ucontext.h"
  },
  {
   "alignment" : 4,
   "linker_set_key" : "_ZTIA13_i",
   "name" : "int [13]",
   "referenced_type" : "_ZTIi",
   "self_type" : "_ZTIA13_i",
   "size" : 52,
   "source_file" : "bionic/libc/kernel/uapi/asm-generic/siginfo.h"
  },
  {
   "alignment" : 4,
   "linker_set_key" : "_ZTIA18_m",
   "name" : "unsigned long [18]",
   "referenced_type" : "_ZTIm",
   "self_type" : "_ZTIA18_m",
   "size" : 72,
   "source_file" : "bionic/libc/include/sys/user.h"
  },
  {
   "alignment" : 4,
   "linker_set_key" : "_ZTIA1_i",
   "name" : "int [1]",
   "referenced_type" : "_ZTIi",
   "self_type" : "_ZTIA1_i",
   "size" : 4,
   "source_file" : "bionic/libc/include/bits/pthread_types.h"
  },
  {
   "alignment" : 4,
   "linker_set_key" : "_ZTIA1_m",
   "name" : "unsigned long [1]",
   "referenced_type" : "_ZTIm",
   "self_type" : "_ZTIA1_m",
   "size" : 4,
   "source_file" : "bionic/libc/include/sched.h"
  },
  {
   "alignment" : 1,
   "linker_set_key" : "_ZTIA2_c",
   "name" : "char [2]",
   "referenced_type" : "_ZTIc",
   "self_type" : "_ZTIA2_c",
   "size" : 2,
   "source_file" : "external/libcxx/include/type_traits"
  },
  {
   "alignment" : 4,
   "linker_set_key" : "_ZTIA2_i",
   "name" : "int [2]",
   "referenced_type" : "_ZTIi",
   "self_type" : "_ZTIA2_i",
   "size" : 8,
   "source_file" : "bionic/libc/kernel/uapi/asm-generic/posix_types.h"
  },
  {
   "alignment" : 4,
   "linker_set_key" : "_ZTIA2_m",
   "name" : "unsigned long [2]",
   "referenced_type" : "_ZTIm",
   "self_type" : "_ZTIA2_m",
   "size" : 8,
   "source_file" : "bionic/libc/include/bits/signal_types.h"
  },
  {
   "alignment" : 1,
   "linker_set_key" : "_ZTIA32_c",
   "name" : "char [32]",
   "referenced_type" : "_ZTIc",
   "self_type" : "_ZTIA32_c",
   "size" : 32,
   "source_file" : "bionic/libc/include/sys/user.h"
  },
  {
   "alignment" : 4,
   "linker_set_key" : "_ZTIA32_i",
   "name" : "int [32]",
   "referenced_type" : "_ZTIi",
   "self_type" : "_ZTIA32_i",
   "size" : 128,
   "source_file" : "bionic/libc/kernel/uapi/asm-generic/siginfo.h"
  },
  {
   "alignment" : 4,
   "linker_set_key" : "_ZTIA32_m",
   "name" : "unsigned long [32]",
   "referenced_type" : "_ZTIm",
   "self_type" : "_ZTIA32_m",
   "size" : 128,
   "source_file" : "bionic/libc/kernel/uapi/linux/posix_types.h"
  },
  {
   "alignment" : 8,
   "linker_set_key" : "_ZTIA32_y",
   "name" : "unsigned long long [32]",
   "referenced_type" : "_ZTIy",
   "self_type" : "_ZTIA32_y",
   "size" : 256,
   "source_file" : "bionic/libc/include/sys/user.h"
  },
  {
   "alignment" : 1,
   "linker_set_key" : "_ZTIA4_c",
   "name" : "char [4]",
   "referenced_type" : "_ZTIc",
   "self_type" : "_ZTIA4_c",
   "size" : 4,
   "source_file" : "bionic/libc/kernel/uapi/asm-generic/siginfo.h"
  },
  {
   "alignment" : 8,
   "linker_set_key" : "_ZTIA4_d",
   "name" : "double [4]",
   "referenced_type" : "_ZTId",
   "self_type" : "_ZTIA4_d",
   "size" : 32,
   "source_file" : "external/libcxx/include/type_traits"
  },
  {
   "alignment" : 1,
   "linker_set_key" : "_ZTIA4_h",
   "name" : "unsigned char [4]",
   "referenced_type" : "_ZTIh",
   "self_type" : "_ZTIA4_h",
   "size" : 4,
   "source_file" : "bionic/libc/include/bits/mbstate_t.h"
  },
  {
   "alignment" : 4,
   "linker_set_key" : "_ZTIA65_PKc",
   "name" : "const char *[65]",
   "referenced_type" : "_ZTIPKc",
   "self_type" : "_ZTIA65_PKc",
   "size" : 260,
   "source_file" : "bionic/libc/include/signal.h"
  },
  {
   "alignment" : 4,
   "linker_set_key" : "_ZTIA8_N11user_fpregs6fp_regE",
   "name" : "user_fpregs::fp_reg [8]",
   "referenced_type" : "_ZTIN11user_fpregs6fp_regE",
   "self_type" : "_ZTIA8_N11user_fpregs6fp_regE",
   "size" : 96,
   "source_file" : "bionic/libc/include/sys/user.h"
  },
  {
   "alignment" : 1,
   "linker_set_key" : "_ZTIA8_h",
   "name" : "unsigned char [8]",
   "referenced_type" : "_ZTIh",
   "self_type" : "_ZTIA8_h",
   "size" : 8,
   "source_file" : "bionic/libc/include/sys/user.h"
  },
  {
   "alignment" : 4,
   "linker_set_key" : "_ZTIA8_i",
   "name" : "int [8]",
   "referenced_type" : "_ZTIi",
   "self_type" : "_ZTIA8_i",
   "size" : 32,
   "source_file" : "bionic/libc/include/bits/pthread_types.h"
  },
  {
   "linker_set_key" : "_ZTIA_Pc",
   "name" : "char *[]",
   "referenced_type" : "_ZTIPc",
   "self_type" : "_ZTIA_Pc",
   "source_file" : "bionic/libc/include/time.h"
  }
 ],
 "builtin_types" :
 [
  {
   "alignment" : 4,
   "is_integral" : true,
   "is_unsigned" : true,
   "linker_set_key" : "_ZTIDi",
   "name" : "char32_t",
   "referenced_type" : "_ZTIDi",
   "self_type" : "_ZTIDi",
   "size" : 4
  },
  {
   "alignment" : 4,
   "linker_set_key" : "_ZTIDn",
   "name" : "nullptr_t",
   "referenced_type" : "_ZTIDn",
   "self_type" : "_ZTIDn",
   "size" : 4
  },
  {
   "alignment" : 2,
   "is_integral" : true,
   "is_unsigned" : true,
   "linker_set_key" : "_ZTIDs",
   "name" : "char16_t",
   "referenced_type" : "_ZTIDs",
   "self_type" : "_ZTIDs",
   "size" : 2
  },
  {
   "alignment" : 1,
   "is_integral" : true,
   "linker_set_key" : "_ZTIa",
   "name" : "signed char",
   "referenced_type" : "_ZTIa",
   "self_type" : "_ZTIa",
   "size" : 1
  },
  {
   "alignment" : 1,
   "is_integral" : true,
   "is_unsigned" : true,
   "linker_set_key" : "_ZTIb",
   "name" : "bool",
   "referenced_type" : "_ZTIb",
   "self_type" : "_ZTIb",
   "size" : 1
  },
  {
   "alignment" : 1,
   "is_integral" : true,
   "is_unsigned" : true,
   "linker_set_key" : "_ZTIc",
   "name" : "char",
   "referenced_type" : "_ZTIc",
   "self_type" : "_ZTIc",
   "size" : 1
  },
  {
   "alignment" : 8,
   "linker_set_key" : "_ZTId",
   "name" : "double",
   "referenced_type" : "_ZTId",
   "self_type" : "_ZTId",
   "size" : 8
  },
  {
   "alignment" : 8,
   "linker_set_key" : "_ZTIe",
   "name" : "long double",
   "referenced_type" : "_ZTIe",
   "self_type" : "_ZTIe",
   "size" : 8
  },
  {
   "alignment" : 4,
   "linker_set_key" : "_ZTIf",
   "name" : "float",
   "referenced_type" : "_ZTIf",
   "self_type" : "_ZTIf",
   "size" : 4
  },
  {
   "alignment" : 1,
   "is_integral" : true,
   "is_unsigned" : true,
   "linker_set_key" : "_ZTIh",
   "name" : "unsigned char",
   "referenced_type" : "_ZTIh",
   "self_type" : "_ZTIh",
   "size" : 1
  },
  {
   "alignment" : 4,
   "is_integral" : true,
   "linker_set_key" : "_ZTIi",
   "name" : "int",
   "referenced_type" : "_ZTIi",
   "self_type" : "_ZTIi",
   "size" : 4
  },
  {
   "alignment" : 4,
   "is_integral" : true,
   "is_unsigned" : true,
   "linker_set_key" : "_ZTIj",
   "name" : "unsigned int",
   "referenced_type" : "_ZTIj",
   "self_type" : "_ZTIj",
   "size" : 4
  },
  {
   "alignment" : 4,
   "is_integral" : true,
   "linker_set_key" : "_ZTIl",
   "name" : "long",
   "referenced_type" : "_ZTIl",
   "self_type" : "_ZTIl",
   "size" : 4
  },
  {
   "alignment" : 4,
   "is_integral" : true,
   "is_unsigned" : true,
   "linker_set_key" : "_ZTIm",
   "name" : "unsigned long",
   "referenced_type" : "_ZTIm",
   "self_type" : "_ZTIm",
   "size" : 4
  },
  {
   "alignment" : 2,
   "is_integral" : true,
   "linker_set_key" : "_ZTIs",
   "name" : "short",
   "referenced_type" : "_ZTIs",
   "self_type" : "_ZTIs",
   "size" : 2
  },
  {
   "alignment" : 2,
   "is_integral" : true,
   "is_unsigned" : true,
   "linker_set_key" : "_ZTIt",
   "name" : "unsigned short",
   "referenced_type" : "_ZTIt",
   "self_type" : "_ZTIt",
   "size" : 2
  },
  {
   "linker_set_key" : "_ZTIv",
   "name" : "void",
   "referenced_type" : "_ZTIv",
   "self_type" : "_ZTIv"
  },
  {
   "alignment" : 4,
   "is_integral" : true,
   "is_unsigned" : true,
   "linker_set_key" : "_ZTIw",
   "name" : "wchar_t",
   "referenced_type" : "_ZTIw",
   "self_type" : "_ZTIw",
   "size" : 4
  },
  {
   "alignment" : 8,
   "is_integral" : true,
   "linker_set_key" : "_ZTIx",
   "name" : "long long",
   "referenced_type" : "_ZTIx",
   "self_type" : "_ZTIx",
   "size" : 8
  },
  {
   "alignment" : 8,
   "is_integral" : true,
   "is_unsigned" : true,
   "linker_set_key" : "_ZTIy",
   "name" : "unsigned long long",
   "referenced_type" : "_ZTIy",
   "self_type" : "_ZTIy",
   "size" : 8
  }
 ],
 "elf_functions" : [],
 "elf_objects" : [],
 "enum_types" :
 [
  {
   "alignment" : 1,
   "enum_fields" :
   [
    {
     "enum_field_value" : 0,
     "name" : "SkBudgeted::kNo"
    },
    {
     "enum_field_value" : 1,
     "name" : "SkBudgeted::kYes"
    }
   ],
   "linker_set_key" : "_ZTI10SkBudgeted",
   "name" : "SkBudgeted",
   "referenced_type" : "_ZTI10SkBudgeted",
   "self_type" : "_ZTI10SkBudgeted",
   "size" : 1,
   "source_file" : "external/skia/include/core/SkTypes.h",
   "underlying_type" : "_ZTIb"
  },
  {
   "alignment" : 4,
   "enum_fields" :
   [
    {
     "enum_field_value" : 0,
     "name" : "SkBackingFit::kApprox"
    },
    {
     "enum_field_value" : 1,
     "name" : "SkBackingFit::kExact"
    }
   ],
   "linker_set_key" : "_ZTI12SkBackingFit",
   "name" : "SkBackingFit",
   "referenced_type" : "_ZTI12SkBackingFit",
   "self_type" : "_ZTI12SkBackingFit",
   "size" : 4,
   "source_file" : "external/skia/include/core/SkTypes.h",
   "underlying_type" : "_ZTIi"
  },
  {
   "alignment" : 4,
   "enum_fields" :
   [
    {
     "enum_field_value" : 0,
     "name" : "M_HEAP_TAGGING_LEVEL_NONE"
    },
    {
     "enum_field_value" : 1,
     "name" : "M_HEAP_TAGGING_LEVEL_TBI"
    },
    {
     "enum_field_value" : 2,
     "name" : "M_HEAP_TAGGING_LEVEL_ASYNC"
    },
    {
     "enum_field_value" : 3,
     "name" : "M_HEAP_TAGGING_LEVEL_SYNC"
    }
   ],
   "linker_set_key" : "_ZTI16HeapTaggingLevel",
   "name" : "HeapTaggingLevel",
   "referenced_type" : "_ZTI16HeapTaggingLevel",
   "self_type" : "_ZTI16HeapTaggingLevel",
   "size" : 4,
   "source_file" : "bionic/libc/include/malloc.h",
   "underlying_type" : "_ZTIj"
  },
  {
   "alignment" : 4,
   "enum_fields" :
   [
    {
     "enum_field_value" : 0,
     "name" : "AASSET_MODE_UNKNOWN"
    },
    {
     "enum_field_value" : 1,
     "name" : "AASSET_MODE_RANDOM"
    },
    {
     "enum_field_value" : 2,
     "name" : "AASSET_MODE_STREAMING"
    },
    {
     "enum_field_value" : 3,
     "name" : "AASSET_MODE_BUFFER"
    }
   ],
   "linker_set_key" : "_ZTI19$AASSET_MODE_BUFFER",
   "name" : "(anonymous enum at frameworks/native/include/android/asset_manager.h:76:1)",
   "referenced_type" : "_ZTI19$AASSET_MODE_BUFFER",
   "self_type" : "_ZTI19$AASSET_MODE_BUFFER",
   "size" : 4,
   "source_file" : "frameworks/native/include/android/asset_manager.h",
   "underlying_type" : "_ZTIj"
  },
  {
   "alignment" : 4,
   "enum_fields" :
   [
    {
     "enum_field_value" : 10,
     "name" : "EVENT_TYPE_LIST_STOP"
    },
    {
     "enum_field_value" : 63,
     "name" : "EVENT_TYPE_UNKNOWN"
    },
    {
     "enum_field_value" : 0,
     "name" : "EVENT_TYPE_INT"
    },
    {
     "enum_field_value" : 1,
     "name" : "EVENT_TYPE_LONG"
    },
    {
     "enum_field_value" : 2,
     "name" : "EVENT_TYPE_STRING"
    },
    {
     "enum_field_value" : 3,
     "name" : "EVENT_TYPE_LIST"
    },
    {
     "enum_field_value" : 4,
     "name" : "EVENT_TYPE_FLOAT"
    }
   ],
   "linker_set_key" : "_ZTI19AndroidEventLogType",
   "name" : "AndroidEventLogType",
   "referenced_type" : "_ZTI19AndroidEventLogType",
   "self_type" : "_ZTI19AndroidEventLogType",
   "size" : 4,
   "source_file" : "system/logging/liblog/include/log/log.h",
   "underlying_type" : "_ZTIj"
  },
  {
   "alignment" : 4,
   "enum_fields" :
   [
    {
     "enum_field_value" : 0,
     "name" : "ANDROID_LOG_UNKNOWN"
    },
    {
     "enum_field_value" : 1,
     "name" : "ANDROID_LOG_DEFAULT"
    },
    {
     "enum_field_value" : 2,
     "name" : "ANDROID_LOG_VERBOSE"
    },
    {
     "enum_field_value" : 3,
     "name" : "ANDROID_LOG_DEBUG"
    },
    {
     "enum_field_value" : 4,
     "name" : "ANDROID_LOG_INFO"
    },
    {
     "enum_field_value" : 5,
     "name" : "ANDROID_LOG_WARN"
    },
    {
     "enum_field_value" : 6,
     "name" : "ANDROID_LOG_ERROR"
    },
    {
     "enum_field_value" : 7,
     "name" : "ANDROID_LOG_FATAL"
    },
    {
     "enum_field_value" : 8,
     "name" : "ANDROID_LOG_SILENT"
    }
   ],
   "linker_set_key" : "_ZTI19android_LogPriority",
   "name" : "android_LogPriority",
   "referenced_type" : "_ZTI19android_LogPriority",
   "self_type" : "_ZTI19android_LogPriority",
   "size" : 4,
   "source_file" : "system/logging/liblog/include/android/log.h",
   "underlying_type" : "_ZTIj"
  },
  {
   "alignment" : 4,
   "enum_fields" :
   [
    {
     "enum_field_value" : 0,
     "name" : "PTHREAD_MUTEX_NORMAL"
    },
    {
     "enum_field_value" : 1,
     "name" : "PTHREAD_MUTEX_RECURSIVE"
    },
    {
     "enum_field_value" : 2,
     "name" : "PTHREAD_MUTEX_ERRORCHECK"
    },
    {
     "enum_field_value" : 2,
     "name" : "PTHREAD_MUTEX_ERRORCHECK_NP"
    },
    {
     "enum_field_value" : 1,
     "name" : "PTHREAD_MUTEX_RECURSIVE_NP"
    },
    {
     "enum_field_value" : 0,
     "name" : "PTHREAD_MUTEX_DEFAULT"
    }
   ],
   "linker_set_key" : "_ZTI22$PTHREAD_MUTEX_DEFAULT",
   "name" : "(anonymous enum at bionic/libc/include/pthread.h:41:1)",
   "referenced_type" : "_ZTI22$PTHREAD_MUTEX_DEFAULT",
   "self_type" : "_ZTI22$PTHREAD_MUTEX_DEFAULT",
   "size" : 4,
   "source_file" : "bionic/libc/include/pthread.h",
   "underlying_type" : "_ZTIj"
  },
  {
   "alignment" : 4,
   "enum_fields" :
   [
    {
     "enum_field_value" : 0,
     "name" : "PTHREAD_RWLOCK_PREFER_READER_NP"
    },
    {
     "enum_field_value" : 1,
     "name" : "PTHREAD_RWLOCK_PREFER_WRITER_NONRECURSIVE_NP"
    }
   ],
   "linker_set_key" : "_ZTI32$PTHREAD_RWLOCK_PREFER_READER_NP",
   "name" : "(anonymous enum at bionic/libc/include/pthread.h:63:1)",
   "referenced_type" : "_ZTI32$PTHREAD_RWLOCK_PREFER_READER_NP",
   "self_type" : "_ZTI32$PTHREAD_RWLOCK_PREFER_READER_NP",
   "size" : 4,
   "source_file" : "bionic/libc/include/pthread.h",
   "underlying_type" : "_ZTIj"
  },
  {
   "alignment" : 4,
   "enum_fields" :
   [
    {
     "enum_field_value" : 0,
     "name" : "LOG_ID_MIN"
    },
    {
     "enum_field_value" : 0,
     "name" : "LOG_ID_MAIN"
    },
    {
     "enum_field_value" : 1,
     "name" : "LOG_ID_RADIO"
    },
    {
     "enum_field_value" : 2,
     "name" : "LOG_ID_EVENTS"
    },
    {
     "enum_field_value" : 3,
     "name" : "LOG_ID_SYSTEM"
    },
    {
     "enum_field_value" : 4,
     "name" : "LOG_ID_CRASH"
    },
    {
     "enum_field_value" : 5,
     "name" : "LOG_ID_STATS"
    },
    {
     "enum_field_value" : 6,
     "name" : "LOG_ID_SECURITY"
    },
    {
     "enum_field_value" : 7,
     "name" : "LOG_ID_KERNEL"
    },
    {
     "enum_field_value" : 8,
     "name" : "LOG_ID_MAX"
    },
    {
     "enum_field_value" : 2147483647,
     "name" : "LOG_ID_DEFAULT"
    }
   ],
   "linker_set_key" : "_ZTI6log_id",
   "name" : "log_id",
   "referenced_type" : "_ZTI6log_id",
   "self_type" : "_ZTI6log_id",
   "size" : 4,
   "source_file" : "system/logging/liblog/include/android/log.h",
   "underlying_type" : "_ZTIj"
  },
  {
   "alignment" : 4,
   "enum_fields" :
   [
    {
     "enum_field_value" : 0,
     "name" : "REG_R0"
    },
    {
     "enum_field_value" : 1,
     "name" : "REG_R1"
    },
    {
     "enum_field_value" : 2,
     "name" : "REG_R2"
    },
    {
     "enum_field_value" : 3,
     "name" : "REG_R3"
    },
    {
     "enum_field_value" : 4,
     "name" : "REG_R4"
    },
    {
     "enum_field_value" : 5,
     "name" : "REG_R5"
    },
    {
     "enum_field_value" : 6,
     "name" : "REG_R6"
    },
    {
     "enum_field_value" : 7,
     "name" : "REG_R7"
    },
    {
     "enum_field_value" : 8,
     "name" : "REG_R8"
    },
    {
     "enum_field_value" : 9,
     "name" : "REG_R9"
    },
    {
     "enum_field_value" : 10,
     "name" : "REG_R10"
    },
    {
     "enum_field_value" : 11,
     "name" : "REG_R11"
    },
    {
     "enum_field_value" : 12,
     "name" : "REG_R12"
    },
    {
     "enum_field_value" : 13,
     "name" : "REG_R13"
    },
    {
     "enum_field_value" : 14,
     "name" : "REG_R14"
    },
    {
     "enum_field_value" : 15,
     "name" : "REG_R15"
    }
   ],
   "linker_set_key" : "_ZTI7$REG_R0",
   "name" : "(anonymous enum at bionic/libc/include/sys/ucontext.h:41:1)",
   "referenced_type" : "_ZTI7$REG_R0",
   "self_type" : "_ZTI7$REG_R0",
   "size" : 4,
   "source_file" : "bionic/libc/include/sys/ucontext.h",
   "underlying_type" : "_ZTIj"
  },
  {
   "alignment" : 4,
   "enum_fields" :
   [
    {
     "enum_field_value" : 0,
     "name" : "std::__1::memory_order_relaxed"
    },
    {
     "enum_field_value" : 1,
     "name" : "std::__1::memory_order_consume"
    },
    {
     "enum_field_value" : 2,
     "name" : "std::__1::memory_order_acquire"
    },
    {
     "enum_field_value" : 3,
     "name" : "std::__1::memory_order_release"
    },
    {
     "enum_field_value" : 4,
     "name" : "std::__1::memory_order_acq_rel"
    },
    {
     "enum_field_value" : 5,
     "name" : "std::__1::memory_order_seq_cst"
    }
   ],
   "linker_set_key" : "_ZTINSt3__112memory_orderE",
   "name" : "std::memory_order",
   "referenced_type" : "_ZTINSt3__112memory_orderE",
   "self_type" : "_ZTINSt3__112memory_orderE",
   "size" : 4,
   "source_file" : "external/libcxx/include/atomic",
   "underlying_type" : "_ZTIj"
  },
  {
   "alignment" : 4,
   "enum_fields" :
   [
    {
     "enum_field_value" : 0,
     "name" : "std::__1::pointer_safety::relaxed"
    },
    {
     "enum_field_value" : 1,
     "name" : "std::__1::pointer_safety::preferred"
    },
    {
     "enum_field_value" : 2,
     "name" : "std::__1::pointer_safety::strict"
    }
   ],
   "linker_set_key" : "_ZTINSt3__114pointer_safety4__lxE",
   "name" : "std::pointer_safety::__lx",
   "referenced_type" : "_ZTINSt3__114pointer_safety4__lxE",
   "self_type" : "_ZTINSt3__114pointer_safety4__lxE",
   "size" : 4,
   "source_file" : "external/libcxx/include/memory",
   "underlying_type" : "_ZTIj"
  },
  {
   "alignment" : 4,
   "enum_fields" :
   [
    {
     "enum_field_value" : -1,
     "name" : "std::__1::round_indeterminate"
    },
    {
     "enum_field_value" : 0,
     "name" : "std::__1::round_toward_zero"
    },
    {
     "enum_field_value" : 1,
     "name" : "std::__1::round_to_nearest"
    },
    {
     "enum_field_value" : 2,
     "name" : "std::__1::round_toward_infinity"
    },
    {
     "enum_field_value" : 3,
     "name" : "std::__1::round_toward_neg_infinity"
    }
   ],
   "linker_set_key" : "_ZTINSt3__117float_round_styleE",
   "name" : "std::float_round_style",
   "referenced_type" : "_ZTINSt3__117float_round_styleE",
   "self_type" : "_ZTINSt3__117float_round_styleE",
   "size" : 4,
   "source_file" : "external/libcxx/include/limits",
   "underlying_type" : "_ZTIi"
  },
  {
   "alignment" : 4,
   "enum_fields" :
   [
    {
     "enum_field_value" : -1,
     "name" : "std::__1::denorm_indeterminate"
    },
    {
     "enum_field_value" : 0,
     "name" : "std::__1::denorm_absent"
    },
    {
     "enum_field_value" : 1,
     "name" : "std::__1::denorm_present"
    }
   ],
   "linker_set_key" : "_ZTINSt3__118float_denorm_styleE",
   "name" : "std::float_denorm_style",
   "referenced_type" : "_ZTINSt3__118float_denorm_styleE",
   "self_type" : "_ZTINSt3__118float_denorm_styleE",
   "size" : 4,
   "source_file" : "external/libcxx/include/limits",
   "underlying_type" : "_ZTIi"
  },
  {
   "alignment" : 4,
   "linker_set_key" : "_ZTISt11align_val_t",
   "name" : "std::align_val_t",
   "referenced_type" : "_ZTISt11align_val_t",
   "self_type" : "_ZTISt11align_val_t",
   "size" : 4,
   "source_file" : "external/libcxx/include/new",
   "underlying_type" : "_ZTIj"
  },
  {
   "alignment" : 1,
   "linker_set_key" : "_ZTISt4byte",
   "name" : "std::byte",
   "referenced_type" : "_ZTISt4byte",
   "self_type" : "_ZTISt4byte",
   "size" : 1,
   "source_file" : "external/libcxx/include/cstddef",
   "underlying_type" : "_ZTIh"
  }
 ],
 "function_types" :
 [
  {
   "alignment" : 4,
   "linker_set_key" : "_ZTIFPvS_jPKvE",
   "name" : "void *(void *, unsigned int, const void *)",
   "parameters" :
   [
    {
     "referenced_type" : "_ZTIPv"
    },
    {
     "referenced_type" : "_ZTIj"
    },
    {
     "referenced_type" : "_ZTIPKv"
    }
   ],
   "referenced_type" : "_ZTIFPvS_jPKvE",
   "return_type" : "_ZTIPv",
   "self_type" : "_ZTIFPvS_jPKvE",
   "source_file" : "bionic/libc/include/malloc.h"
  },
  {
   "alignment" : 4,
   "linker_set_key" : "_ZTIFPvjPKvE",
   "name" : "void *(unsigned int, const void *)",
   "parameters" :
   [
    {
     "referenced_type" : "_ZTIj"
    },
    {
     "referenced_type" : "_ZTIPKv"
    }
   ],
   "referenced_type" : "_ZTIFPvjPKvE",
   "return_type" : "_ZTIPv",
   "self_type" : "_ZTIFPvjPKvE",
   "source_file" : "bionic/libc/include/malloc.h"
  },
  {
   "alignment" : 4,
   "linker_set_key" : "_ZTIFPvjjPKvE",
   "name" : "void *(unsigned int, unsigned int, const void *)",
   "parameters" :
   [
    {
     "referenced_type" : "_ZTIj"
    },
    {
     "referenced_type" : "_ZTIj"
    },
    {
     "referenced_type" : "_ZTIPKv"
    }
   ],
   "referenced_type" : "_ZTIFPvjjPKvE",
   "return_type" : "_ZTIPv",
   "self_type" : "_ZTIFPvjjPKvE",
   "source_file" : "bionic/libc/include/malloc.h"
  },
  {
   "alignment" : 4,
   "linker_set_key" : "_ZTIFv6sigvalE",
   "name" : "void (sigval)",
   "parameters" :
   [
    {
     "referenced_type" : "_ZTI6sigval"
    }
   ],
   "referenced_type" : "_ZTIFv6sigvalE",
   "return_type" : "_ZTIv",
   "self_type" : "_ZTIFv6sigvalE",
   "source_file" : "bionic/libc/kernel/uapi/asm-generic/siginfo.h"
  },
  {
   "alignment" : 4,
   "linker_set_key" : "_ZTIFvPKvPvE",
   "name" : "void (const void *, void *)",
   "parameters" :
   [
    {
     "referenced_type" : "_ZTIPKv"
    },
    {
     "referenced_type" : "_ZTIPv"
    }
   ],
   "referenced_type" : "_ZTIFvPKvPvE",
   "return_type" : "_ZTIv",
   "self_type" : "_ZTIFvPKvPvE",
   "source_file" : "external/skia/include/core/SkData.h"
  },
  {
   "alignment" : 4,
   "linker_set_key" : "_ZTIFvPvE",
   "name" : "void (void *)",
   "parameters" :
   [
    {
     "referenced_type" : "_ZTIPv"
    }
   ],
   "referenced_type" : "_ZTIFvPvE",
   "return_type" : "_ZTIv",
   "self_type" : "_ZTIFvPvE",
   "source_file" : "bionic/libc/include/pthread.h"
  },
  {
   "alignment" : 4,
   "linker_set_key" : "_ZTIFvPvPKvE",
   "name" : "void (void *, const void *)",
   "parameters" :
   [
    {
     "referenced_type" : "_ZTIPv"
    },
    {
     "referenced_type" : "_ZTIPKv"
    }
   ],
   "referenced_type" : "_ZTIFvPvPKvE",
   "return_type" : "_ZTIv",
   "self_type" : "_ZTIFvPvPKvE",
   "source_file" : "bionic/libc/include/malloc.h"
  },
  {
   "alignment" : 4,
   "linker_set_key" : "_ZTIFvRKNSt3__119__libcpp_debug_infoEE",
   "name" : "void (const std::__1::__libcpp_debug_info &)",
   "parameters" :
   [
    {
     "referenced_type" : "_ZTIRKNSt3__119__libcpp_debug_infoE"
    }
   ],
   "referenced_type" : "_ZTIFvRKNSt3__119__libcpp_debug_infoEE",
   "return_type" : "_ZTIv",
   "self_type" : "_ZTIFvRKNSt3__119__libcpp_debug_infoEE",
   "source_file" : "external/libcxx/include/__debug"
  },
  {
   "alignment" : 4,
   "linker_set_key" : "_ZTIFviE",
   "name" : "void (int)",
   "parameters" :
   [
    {
     "referenced_type" : "_ZTIi"
    }
   ],
   "referenced_type" : "_ZTIFviE",
   "return_type" : "_ZTIv",
   "self_type" : "_ZTIFviE",
   "source_file" : "bionic/libc/kernel/uapi/asm-arm/asm/signal.h"
  },
  {
   "alignment" : 4,
   "linker_set_key" : "_ZTIFviP7siginfoPvE",
   "name" : "void (int, siginfo *, void *)",
   "parameters" :
   [
    {
     "referenced_type" : "_ZTIi"
    },
    {
     "referenced_type" : "_ZTIP7siginfo"
    },
    {
     "referenced_type" : "_ZTIPv"
    }
   ],
   "referenced_type" : "_ZTIFviP7siginfoPvE",
   "return_type" : "_ZTIv",
   "self_type" : "_ZTIFviP7siginfoPvE",
   "source_file" : "bionic/libc/kernel/uapi/asm-arm/asm/signal.h"
  },
  {
   "alignment" : 4,
   "linker_set_key" : "_ZTIFvvE",
   "name" : "void ()",
   "referenced_type" : "_ZTIFvvE",
   "return_type" : "_ZTIv",
   "self_type" : "_ZTIFvvE",
   "source_file" : "bionic/libc/kernel/uapi/asm-arm/asm/signal.h"
  }
 ],
 "functions" :
 [
  {
   "function_name" : "nexttoward",
   "linker_set_key" : "_Z10nexttowardee",
   "parameters" :
   [
    {
     "referenced_type" : "_ZTIe"
    },
    {
     "referenced_type" : "_ZTIe"
    }
   ],
   "return_type" : "_ZTIe",
   "source_file" : "external/libcxx/include/math.h"
  },
  {
   "function_name" : "nexttoward",
   "linker_set_key" : "_Z10nexttowardfe",
   "parameters" :
   [
    {
     "referenced_type" : "_ZTIf"
    },
    {
     "referenced_type" : "_ZTIe"
    }
   ],
   "return_type" : "_ZTIf",
   "source_file" : "external/libcxx/include/math.h"
  },
  {
   "function_name" : "__libcpp_isinf",
   "linker_set_key" : "_Z14__libcpp_isinfIdEbT_",
   "parameters" :
   [
    {
     "referenced_type" : "_ZTId"
    }
   ],
   "return_type" : "_ZTIb",
   "source_file" : "external/libcxx/include/math.h",
   "template_args" : [ "_ZTId" ]
  },
  {
   "function_name" : "__libcpp_isinf",
   "linker_set_key" : "_Z14__libcpp_isinfIeEbT_",
   "parameters" :
   [
    {
     "referenced_type" : "_ZTIe"
    }
   ],
   "return_type" : "_ZTIb",
   "source_file" : "external/libcxx/include/math.h",
   "template_args" : [ "_ZTIe" ]
  },
  {
   "function_name" : "__libcpp_isinf",
   "linker_set_key" : "_Z14__libcpp_isinfIfEbT_",
   "parameters" :
   [
    {
     "referenced_type" : "_ZTIf"
    }
   ],
   "return_type" : "_ZTIb",
   "source_file" : "external/libcxx/include/math.h",
   "template_args" : [ "_ZTIf" ]
  },
  {
   "function_name" : "__libcpp_isnan",
   "linker_set_key" : "_Z14__libcpp_isnanIdEbT_",
   "parameters" :
   [
    {
     "referenced_type" : "_ZTId"
    }
   ],
   "return_type" : "_ZTIb",
   "source_file" : "external/libcxx/include/math.h",
   "template_args" : [ "_ZTId" ]
  },
  {
   "function_name" : "__libcpp_isnan",
   "linker_set_key" : "_Z14__libcpp_isnanIeEbT_",
   "parameters" :
   [
    {
     "referenced_type" : "_ZTIe"
    }
   ],
   "return_type" : "_ZTIb",
   "source_file" : "external/libcxx/include/math.h",
   "template_args" : [ "_ZTIe" ]
  },
  {
   "function_name" : "__libcpp_isnan",
   "linker_set_key" : "_Z14__libcpp_isnanIfEbT_",
   "parameters" :
   [
    {
     "referenced_type" : "_ZTIf"
    }
   ],
   "return_type" : "_ZTIb",
   "source_file" : "external/libcxx/include/math.h",
   "template_args" : [ "_ZTIf" ]
  },
  {
   "function_name" : "__bionic_memchr",
   "linker_set_key" : "_Z15__bionic_memchrPKvU17pass_object_size1ij",
   "parameters" :
   [
    {
     "referenced_type" : "_ZTIKPKv"
    },
    {
     "referenced_type" : "_ZTIi"
    },
    {
     "referenced_type" : "_ZTIj"
    }
   ],
   "return_type" : "_ZTIPv",
   "source_file" : "bionic/libc/include/string.h"
  },
  {
   "function_name" : "__bionic_strchr",
   "linker_set_key" : "_Z15__bionic_strchrPKcU17pass_object_size1i",
   "parameters" :
   [
    {
     "referenced_type" : "_ZTIKPKc"
    },
    {
     "referenced_type" : "_ZTIi"
    }
   ],
   "return_type" : "_ZTIPc",
   "source_file" : "bionic/libc/include/string.h"
  },
  {
   "function_name" : "__bionic_strstr",
   "linker_set_key" : "_Z15__bionic_strstrPKcS0_",
   "parameters" :
   [
    {
     "referenced_type" : "_ZTIPKc"
    },
    {
     "referenced_type" : "_ZTIPKc"
    }
   ],
   "return_type" : "_ZTIPc",
   "source_file" : "bionic/libc/include/string.h"
  },
  {
   "function_name" : "__libcpp_memchr",
   "linker_set_key" : "_Z15__libcpp_memchrPKvij",
   "parameters" :
   [
    {
     "referenced_type" : "_ZTIPKv"
    },
    {
     "referenced_type" : "_ZTIi"
    },
    {
     "referenced_type" : "_ZTIj"
    }
   ],
   "return_type" : "_ZTIPv",
   "source_file" : "external/libcxx/include/string.h"
  },
  {
   "function_name" : "__libcpp_strchr",
   "linker_set_key" : "_Z15__libcpp_strchrPKci",
   "parameters" :
   [
    {
     "referenced_type" : "_ZTIPKc"
    },
    {
     "referenced_type" : "_ZTIi"
    }
   ],
   "return_type" : "_ZTIPc",
   "source_file" : "external/libcxx/include/string.h"
  },
  {
   "function_name" : "__libcpp_strstr",
   "linker_set_key" : "_Z15__libcpp_strstrPKcS0_",
   "parameters" :
   [
    {
     "referenced_type" : "_ZTIPKc"
    },
    {
     "referenced_type" : "_ZTIPKc"
    }
   ],
   "return_type" : "_ZTIPc",
   "source_file" : "external/libcxx/include/string.h"
  },
  {
   "function_name" : "__libcpp_wcschr",
   "linker_set_key" : "_Z15__libcpp_wcschrPKww",
   "parameters" :
   [
    {
     "referenced_type" : "_ZTIPKw"
    },
    {
     "referenced_type" : "_ZTIw"
    }
   ],
   "return_type" : "_ZTIPw",
   "source_file" : "external/libcxx/include/wchar.h"
  },
  {
   "function_name" : "__libcpp_wcsstr",
   "linker_set_key" : "_Z15__libcpp_wcsstrPKwS0_",
   "parameters" :
   [
    {
     "referenced_type" : "_ZTIPKw"
    },
    {
     "referenced_type" : "_ZTIPKw"
    }
   ],
   "return_type" : "_ZTIPw",
   "source_file" : "external/libcxx/include/wchar.h"
  },
  {
   "function_name" : "__bionic_strpbrk",
   "linker_set_key" : "_Z16__bionic_strpbrkPKcS0_",
   "parameters" :
   [
    {
     "referenced_type" : "_ZTIPKc"
    },
    {
     "referenced_type" : "_ZTIPKc"
    }
   ],
   "return_type" : "_ZTIPc",
   "source_file" : "bionic/libc/include/string.h"
  },
  {
   "function_name" : "__bionic_strrchr",
   "linker_set_key" : "_Z16__bionic_strrchrPKcU17pass_object_size1i",
   "parameters" :
   [
    {
     "referenced_type" : "_ZTIKPKc"
    },
    {
     "referenced_type" : "_ZTIi"
    }
   ],
   "return_type" : "_ZTIPc",
   "source_file" : "bionic/libc/include/string.h"
  },
  {
   "function_name" : "__libcpp_strpbrk",
   "linker_set_key" : "_Z16__libcpp_strpbrkPKcS0_",
   "parameters" :
   [
    {
     "referenced_type" : "_ZTIPKc"
    },
    {
     "referenced_type" : "_ZTIPKc"
    }
   ],
   "return_type" : "_ZTIPc",
   "source_file" : "external/libcxx/include/string.h"
  },
  {
   "function_name" : "__libcpp_strrchr",
   "linker_set_key" : "_Z16__libcpp_strrchrPKci",
   "parameters" :
   [
    {
     "referenced_type" : "_ZTIPKc"
    },
    {
     "referenced_type" : "_ZTIi"
    }
   ],
   "return_type" : "_ZTIPc",
   "source_file" : "external/libcxx/include/string.h"
  },
  {
   "function_name" : "__libcpp_wcspbrk",
   "linker_set_key" : "_Z16__libcpp_wcspbrkPKwS0_",
   "parameters" :
   [
    {
     "referenced_type" : "_ZTIPKw"
    },
    {
     "referenced_type" : "_ZTIPKw"
    }
   ],
   "return_type" : "_ZTIPw",
   "source_file" : "external/libcxx/include/wchar.h"
  },
  {
   "function_name" : "__libcpp_wcsrchr",
   "linker_set_key" : "_Z16__libcpp_wcsrchrPKww",
   "parameters" :
   [
    {
     "referenced_type" : "_ZTIPKw"
    },
    {
     "referenced_type" : "_ZTIw"
    }
   ],
   "return_type" : "_ZTIPw",
   "source_file" : "external/libcxx/include/wchar.h"
  },
  {
   "function_name" : "__libcpp_wmemchr",
   "linker_set_key" : "_Z16__libcpp_wmemchrPKwwj",
   "parameters" :
   [
    {
     "referenced_type" : "_ZTIPKw"
    },
    {
     "referenced_type" : "_ZTIw"
    },
    {
     "referenced_type" : "_ZTIj"
    }
   ],
   "return_type" : "_ZTIPw",
   "source_file" : "external/libcxx/include/wchar.h"
  },
  {
   "function_name" : "sk_float_degrees_to_radians",
   "linker_set_key" : "_Z27sk_float_degrees_to_radiansf",
   "parameters" :
   [
    {
     "referenced_type" : "_ZTIf"
    }
   ],
   "return_type" : "_ZTIf",
   "source_file" : "external/skia/include/private/SkFloatingPoint.h"
  },
  {
   "function_name" : "sk_float_radians_to_degrees",
   "linker_set_key" : "_Z27sk_float_radians_to_degreesf",
   "parameters" :
   [
    {
     "referenced_type" : "_ZTIf"
    }
   ],
   "return_type" : "_ZTIf",
   "source_file" : "external/skia/include/private/SkFloatingPoint.h"
  },
  {
   "function_name" : "abs",
   "linker_set_key" : "_Z3absd",
   "parameters" :
   [
    {
     "referenced_type" : "_ZTId"
    }
   ],
   "return_type" : "_ZTId",
   "source_file" : "external/libcxx/include/math.h"
  },
  {
   "function_name" : "abs",
   "linker_set_key" : "_Z3abse",
   "parameters" :
   [
    {
     "referenced_type" : "_ZTIe"
    }
   ],
   "return_type" : "_ZTIe",
   "source_file" : "external/libcxx/include/math.h"
  },
  {
   "function_name" : "abs",
   "linker_set_key" : "_Z3absf",
   "parameters" :
   [
    {
     "referenced_type" : "_ZTIf"
    }
   ],
   "return_type" : "_ZTIf",
   "source_file" : "external/libcxx/include/math.h"
  },
  {
   "function_name" : "abs",
   "linker_set_key" : "_Z3absl",
   "parameters" :
   [
    {
     "referenced_type" : "_ZTIl"
    }
   ],
   "return_type" : "_ZTIl",
   "source_file" : "external/libcxx/include/stdlib.h"
  },
  {
   "function_name" : "abs",
   "linker_set_key" : "_Z3absx",
   "parameters" :
   [
    {
     "referenced_type" : "_ZTIx"
    }
   ],
   "return_type" : "_ZTIx",
   "source_file" : "external/libcxx/include/stdlib.h"
  },
  {
   "function_name" : "cos",
   "linker_set_key" : "_Z3cose",
   "parameters" :
   [
    {
     "referenced_type" : "_ZTIe"
    }
   ],
   "return_type" : "_ZTIe",
   "source_file" : "external/libcxx/include/math.h"
  },
  {
   "function_name" : "cos",
   "linker_set_key" : "_Z3cosf",
   "parameters" :
   [
    {
     "referenced_type" : "_ZTIf"
    }
   ],
   "return_type" : "_ZTIf",
   "source_file" : "external/libcxx/include/math.h"
  },
  {
   "function_name" : "div",
   "linker_set_key" : "_Z3divll",
   "parameters" :
   [
    {
     "referenced_type" : "_ZTIl"
    },
    {
     "referenced_type" : "_ZTIl"
    }
   ],
   "return_type" : "_ZTI6ldiv_t",
   "source_file" : "external/libcxx/include/stdlib.h"
  },
  {
   "function_name" : "div",
   "linker_set_key" : "_Z3divxx",
   "parameters" :
   [
    {
     "referenced_type" : "_ZTIx"
    },
    {
     "referenced_type" : "_ZTIx"
    }
   ],
   "return_type" : "_ZTI7lldiv_t",
   "source_file" : "external/libcxx/include/stdlib.h"
  },
  {
   "function_name" : "erf",
   "linker_set_key" : "_Z3erfe",
   "parameters" :
   [
    {
     "referenced_type" : "_ZTIe"
    }
   ],
   "return_type" : "_ZTIe",
   "source_file" : "external/libcxx/include/math.h"
  },
  {
   "function_name" : "erf",
   "linker_set_key" : "_Z3erff",
   "parameters" :
   [
    {
     "referenced_type" : "_ZTIf"
    }
   ],
   "return_type" : "_ZTIf",
   "source_file" : "external/libcxx/include/math.h"
  },
  {
   "function_name" : "exp",
   "linker_set_key" : "_Z3expe",
   "parameters" :
   [
    {
     "referenced_type" : "_ZTIe"
    }
   ],
   "return_type" : "_ZTIe",
   "source_file" : "external/libcxx/include/math.h"
  },
  {
   "function_name" : "exp",
   "linker_set_key" : "_Z3expf",
   "parameters" :
   [
    {
     "referenced_type" : "_ZTIf"
    }
   ],
   "return_type" : "_ZTIf",
   "source_file" : "external/libcxx/include/math.h"
  },
  {
   "function_name" : "fma",
   "linker_set_key" : "_Z3fmaeee",
   "parameters" :
   [
    {
     "referenced_type" : "_ZTIe"
    },
    {
     "referenced_type" : "_ZTIe"
    },
    {
     "referenced_type" : "_ZTIe"
    }
   ],
   "return_type" : "_ZTIe",
   "source_file" : "external/libcxx/include/math.h"
  },
  {
   "function_name" : "fma",
   "linker_set_key" : "_Z3fmafff",
   "parameters" :
   [
    {
     "referenced_type" : "_ZTIf"
    },
    {
     "referenced_type" : "_ZTIf"
    },
    {
     "referenced_type" : "_ZTIf"
    }
   ],
   "return_type" : "_ZTIf",
   "source_file" : "external/libcxx/include/math.h"
  },
  {
   "function_name" : "log",
   "linker_set_key" : "_Z3loge",
   "parameters" :
   [
    {
     "referenced_type" : "_ZTIe"
    }
   ],
   "return_type" : "_ZTIe",
   "source_file" : "external/libcxx/include/math.h"
  },
  {
   "function_name" : "log",
   "linker_set_key" : "_Z3logf",
   "parameters" :
   [
    {
     "referenced_type" : "_ZTIf"
    }
   ],
   "return_type" : "_ZTIf",
   "source_file" : "external/libcxx/include/math.h"
  },
  {
   "function_name" : "pow",
   "linker_set_key" : "_Z3powee",
   "parameters" :
   [
    {
     "referenced_type" : "_ZTIe"
    },
    {
     "referenced_type" : "_ZTIe"
    }
   ],
   "return_type" : "_ZTIe",
   "source_file" : "external/libcxx/include/math.h"
  },
  {
   "function_name" : "pow",
   "linker_set_key" : "_Z3powff",
   "parameters" :
   [
    {
     "referenced_type" : "_ZTIf"
    },
    {
     "referenced_type" : "_ZTIf"
    }
   ],
   "return_type" : "_ZTIf",
   "source_file" : "external/libcxx/include/math.h"
  },
  {
   "function_name" : "sin",
   "linker_set_key" : "_Z3sine",
   "parameters" :
   [
    {
     "referenced_type" : "_ZTIe"
    }
   ],
   "return_type" : "_ZTIe",
   "source_file" : "external/libcxx/include/math.h"
  },
  {
   "function_name" : "sin",
   "linker_set_key" : "_Z3sinf",
   "parameters" :
   [
    {
     "referenced_type" : "_ZTIf"
    }
   ],
   "return_type" : "_ZTIf",
   "source_file" : "external/libcxx/include/math.h"
  },
  {
   "function_name" : "tan",
   "linker_set_key" : "_Z3tane",
   "parameters" :
   [
    {
     "referenced_type" : "_ZTIe"
    }
   ],
   "return_type" : "_ZTIe",
   "source_file" : "external/libcxx/include/math.h"
  },
  {
   "function_name" : "tan",
   "linker_set_key" : "_Z3tanf",
   "parameters" :
   [
    {
     "referenced_type" : "_ZTIf"
    }
   ],
   "return_type" : "_ZTIf",
   "source_file" : "external/libcxx/include/math.h"
  },
  {
   "function_name" : "SkTo",
   "linker_set_key" : "_Z4SkToIhjET_T0_",
   "parameters" :
   [
    {
     "referenced_type" : "_ZTIj"
    }
   ],
   "return_type" : "_ZTIh",
   "source_file" : "external/skia/include/private/SkTo.h",
   "template_args" : [ "_ZTIh", "_ZTIj" ]
  },
  {
   "function_name" : "SkTo",
   "linker_set_key" : "_Z4SkToItjET_T0_",
   "parameters" :
   [
    {
     "referenced_type" : "_ZTIj"
    }
   ],
   "return_type" : "_ZTIt",
   "source_file" : "external/skia/include/private/SkTo.h",
   "template_args" : [ "_ZTIt", "_ZTIj" ]
  },
  {
   "function_name" : "acos",
   "linker_set_key" : "_Z4acose",
   "parameters" :
   [
    {
     "referenced_type" : "_ZTIe"
    }
   ],
   "return_type" : "_ZTIe",
   "source_file" : "external/libcxx/include/math.h"
  },
  {
   "function_name" : "acos",
   "linker_set_key" : "_Z4acosf",
   "parameters" :
   [
    {
     "referenced_type" : "_ZTIf"
    }
   ],
   "return_type" : "_ZTIf",
   "source_file" : "external/libcxx/include/math.h"
  },
  {
   "function_name" : "asin",
   "linker_set_key" : "_Z4asine",
   "parameters" :
   [
    {
     "referenced_type" : "_ZTIe"
    }
   ],
   "return_type" : "_ZTIe",
   "source_file" : "external/libcxx/include/math.h"
  },
  {
   "function_name" : "asin",
   "linker_set_key" : "_Z4asinf",
   "parameters" :
   [
    {
     "referenced_type" : "_ZTIf"
    }
   ],
   "return_type" : "_ZTIf",
   "source_file" : "external/libcxx/include/math.h"
  },
  {
   "function_name" : "atan",
   "linker_set_key" : "_Z4atane",
   "parameters" :
   [
    {
     "referenced_type" : "_ZTIe"
    }
   ],
   "return_type" : "_ZTIe",
   "source_file" : "external/libcxx/include/math.h"
  },
  {
   "function_name" : "atan",
   "linker_set_key" : "_Z4atanf",
   "parameters" :
   [
    {
     "referenced_type" : "_ZTIf"
    }
   ],
   "return_type" : "_ZTIf",
   "source_file" : "external/libcxx/include/math.h"
  },
  {
   "function_name" : "cbrt",
   "linker_set_key" : "_Z4cbrte",
   "parameters" :
   [
    {
     "referenced_type" : "_ZTIe"
    }
   ],
   "return_type" : "_ZTIe",
   "source_file" : "external/libcxx/include/math.h"
  },
  {
   "function_name" : "cbrt",
   "linker_set_key" : "_Z4cbrtf",
   "parameters" :
   [
    {
     "referenced_type" : "_ZTIf"
    }
   ],
   "return_type" : "_ZTIf",
   "source_file" : "external/libcxx/include/math.h"
  },
  {
   "function_name" : "ceil",
   "linker_set_key" : "_Z4ceile",
   "parameters" :
   [
    {
     "referenced_type" : "_ZTIe"
    }
   ],
   "return_type" : "_ZTIe",
   "source_file" : "external/libcxx/include/math.h"
  },
  {
   "function_name" : "ceil",
   "linker_set_key" : "_Z4ceilf",
   "parameters" :
   [
    {
     "referenced_type" : "_ZTIf"
    }
   ],
   "return_type" : "_ZTIf",
   "source_file" : "external/libcxx/include/math.h"
  },
  {
   "function_name" : "cosh",
   "linker_set_key" : "_Z4coshe",
   "parameters" :
   [
    {
     "referenced_type" : "_ZTIe"
    }
   ],
   "return_type" : "_ZTIe",
   "source_file" : "external/libcxx/include/math.h"
  },
  {
   "function_name" : "cosh",
   "linker_set_key" : "_Z4coshf",
   "parameters" :
   [
    {
     "referenced_type" : "_ZTIf"
    }
   ],
   "return_type" : "_ZTIf",
   "source_file" : "external/libcxx/include/math.h"
  },
  {
   "function_name" : "erfc",
   "linker_set_key" : "_Z4erfce",
   "parameters" :
   [
    {
     "referenced_type" : "_ZTIe"
    }
   ],
   "return_type" : "_ZTIe",
   "source_file" : "external/libcxx/include/math.h"
  },
  {
   "function_name" : "erfc",
   "linker_set_key" : "_Z4erfcf",
   "parameters" :
   [
    {
     "referenced_type" : "_ZTIf"
    }
   ],
   "return_type" : "_ZTIf",
   "source_file" : "external/libcxx/include/math.h"
  },
  {
   "function_name" : "exp2",
   "linker_set_key" : "_Z4exp2e",
   "parameters" :
   [
    {
     "referenced_type" : "_ZTIe"
    }
   ],
   "return_type" : "_ZTIe",
   "source_file" : "external/libcxx/include/math.h"
  },
  {
   "function_name" : "exp2",
   "linker_set_key" : "_Z4exp2f",
   "parameters" :
   [
    {
     "referenced_type" : "_ZTIf"
    }
   ],
   "return_type" : "_ZTIf",
   "source_file" : "external/libcxx/include/math.h"
  },
  {
   "function_name" : "fabs",
   "linker_set_key" : "_Z4fabse",
   "parameters" :
   [
    {
     "referenced_type" : "_ZTIe"
    }
   ],
   "return_type" : "_ZTIe",
   "source_file" : "external/libcxx/include/math.h"
  },
  {
   "function_name" : "fabs",
   "linker_set_key" : "_Z4fabsf",
   "parameters" :
   [
    {
     "referenced_type" : "_ZTIf"
    }
   ],
   "return_type" : "_ZTIf",
   "source_file" : "external/libcxx/include/math.h"
  },
  {
   "function_name" : "fdim",
   "linker_set_key" : "_Z4fdimee",
   "parameters" :
   [
    {
     "referenced_type" : "_ZTIe"
    },
    {
     "referenced_type" : "_ZTIe"
    }
   ],
   "return_type" : "_ZTIe",
   "source_file" : "external/libcxx/include/math.h"
  },
  {
   "function_name" : "fdim",
   "linker_set_key" : "_Z4fdimff",
   "parameters" :
   [
    {
     "referenced_type" : "_ZTIf"
    },
    {
     "referenced_type" : "_ZTIf"
    }
   ],
   "return_type" : "_ZTIf",
   "source_file" : "external/libcxx/include/math.h"
  },
  {
   "function_name" : "fmax",
   "linker_set_key" : "_Z4fmaxee",
   "parameters" :
   [
    {
     "referenced_type" : "_ZTIe"
    },
    {
     "referenced_type" : "_ZTIe"
    }
   ],
   "return_type" : "_ZTIe",
   "source_file" : "external/libcxx/include/math.h"
  },
  {
   "function_name" : "fmax",
   "linker_set_key" : "_Z4fmaxff",
   "parameters" :
   [
    {
     "referenced_type" : "_ZTIf"
    },
    {
     "referenced_type" : "_ZTIf"
    }
   ],
   "return_type" : "_ZTIf",
   "source_file" : "external/libcxx/include/math.h"
  },
  {
   "function_name" : "fmin",
   "linker_set_key" : "_Z4fminee",
   "parameters" :
   [
    {
     "referenced_type" : "_ZTIe"
    },
    {
     "referenced_type" : "_ZTIe"
    }
   ],
   "return_type" : "_ZTIe",
   "source_file" : "external/libcxx/include/math.h"
  },
  {
   "function_name" : "fmin",
   "linker_set_key" : "_Z4fminff",
   "parameters" :
   [
    {
     "referenced_type" : "_ZTIf"
    },
    {
     "referenced_type" : "_ZTIf"
    }
   ],
   "return_type" : "_ZTIf",
   "source_file" : "external/libcxx/include/math.h"
  },
  {
   "function_name" : "fmod",
   "linker_set_key" : "_Z4fmodee",
   "parameters" :
   [
    {
     "referenced_type" : "_ZTIe"
    },
    {
     "referenced_type" : "_ZTIe"
    }
   ],
   "return_type" : "_ZTIe",
   "source_file" : "external/libcxx/include/math.h"
  },
  {
   "function_name" : "fmod",
   "linker_set_key" : "_Z4fmodff",
   "parameters" :
   [
    {
     "referenced_type" : "_ZTIf"
    },
    {
     "referenced_type" : "_ZTIf"
    }
   ],
   "return_type" : "_ZTIf",
   "source_file" : "external/libcxx/include/math.h"
  },
  {
   "function_name" : "log2",
   "linker_set_key" : "_Z4log2e",
   "parameters" :
   [
    {
     "referenced_type" : "_ZTIe"
    }
   ],
   "return_type" : "_ZTIe",
   "source_file" : "external/libcxx/include/math.h"
  },
  {
   "function_name" : "log2",
   "linker_set_key" : "_Z4log2f",
   "parameters" :
   [
    {
     "referenced_type" : "_ZTIf"
    }
   ],
   "return_type" : "_ZTIf",
   "source_file" : "external/libcxx/include/math.h"
  },
  {
   "function_name" : "logb",
   "linker_set_key" : "_Z4logbe",
   "parameters" :
   [
    {
     "referenced_type" : "_ZTIe"
    }
   ],
   "return_type" : "_ZTIe",
   "source_file" : "external/libcxx/include/math.h"
  },
  {
   "function_name" : "logb",
   "linker_set_key" : "_Z4logbf",
   "parameters" :
   [
    {
     "referenced_type" : "_ZTIf"
    }
   ],
   "return_type" : "_ZTIf",
   "source_file" : "external/libcxx/include/math.h"
  },
  {
   "function_name" : "modf",
   "linker_set_key" : "_Z4modfePe",
   "parameters" :
   [
    {
     "referenced_type" : "_ZTIe"
    },
    {
     "referenced_type" : "_ZTIPe"
    }
   ],
   "return_type" : "_ZTIe",
   "source_file" : "external/libcxx/include/math.h"
  },
  {
   "function_name" : "modf",
   "linker_set_key" : "_Z4modffPf",
   "parameters" :
   [
    {
     "referenced_type" : "_ZTIf"
    },
    {
     "referenced_type" : "_ZTIPf"
    }
   ],
   "return_type" : "_ZTIf",
   "source_file" : "external/libcxx/include/math.h"
  },
  {
   "function_name" : "rint",
   "linker_set_key" : "_Z4rinte",
   "parameters" :
   [
    {
     "referenced_type" : "_ZTIe"
    }
   ],
   "return_type" : "_ZTIe",
   "source_file" : "external/libcxx/include/math.h"
  },
  {
   "function_name" : "rint",
   "linker_set_key" : "_Z4rintf",
   "parameters" :
   [
    {
     "referenced_type" : "_ZTIf"
    }
   ],
   "return_type" : "_ZTIf",
   "source_file" : "external/libcxx/include/math.h"
  },
  {
   "function_name" : "sinh",
   "linker_set_key" : "_Z4sinhe",
   "parameters" :
   [
    {
     "referenced_type" : "_ZTIe"
    }
   ],
   "return_type" : "_ZTIe",
   "source_file" : "external/libcxx/include/math.h"
  },
  {
   "function_name" : "sinh",
   "linker_set_key" : "_Z4sinhf",
   "parameters" :
   [
    {
     "referenced_type" : "_ZTIf"
    }
   ],
   "return_type" : "_ZTIf",
   "source_file" : "external/libcxx/include/math.h"
  },
  {
   "function_name" : "sqrt",
   "linker_set_key" : "_Z4sqrte",
   "parameters" :
   [
    {
     "referenced_type" : "_ZTIe"
    }
   ],
   "return_type" : "_ZTIe",
   "source_file" : "external/libcxx/include/math.h"
  },
  {
   "function_name" : "sqrt",
   "linker_set_key" : "_Z4sqrtf",
   "parameters" :
   [
    {
     "referenced_type" : "_ZTIf"
    }
   ],
   "return_type" : "_ZTIf",
   "source_file" : "external/libcxx/include/math.h"
  },
  {
   "function_name" : "tanh",
   "linker_set_key" : "_Z4tanhe",
   "parameters" :
   [
    {
     "referenced_type" : "_ZTIe"
    }
   ],
   "return_type" : "_ZTIe",
   "source_file" : "external/libcxx/include/math.h"
  },
  {
   "function_name" : "tanh",
   "linker_set_key" : "_Z4tanhf",
   "parameters" :
   [
    {
     "referenced_type" : "_ZTIf"
    }
   ],
   "return_type" : "_ZTIf",
   "source_file" : "external/libcxx/include/math.h"
  },
  {
   "function_name" : "acosh",
   "linker_set_key" : "_Z5acoshe",
   "parameters" :
   [
    {
     "referenced_type" : "_ZTIe"
    }
   ],
   "return_type" : "_ZTIe",
   "source_file" : "external/libcxx/include/math.h"
  },
  {
   "function_name" : "acosh",
   "linker_set_key" : "_Z5acoshf",
   "parameters" :
   [
    {
     "referenced_type" : "_ZTIf"
    }
   ],
   "return_type" : "_ZTIf",
   "source_file" : "external/libcxx/include/math.h"
  },
  {
   "function_name" : "asinh",
   "linker_set_key" : "_Z5asinhe",
   "parameters" :
   [
    {
     "referenced_type" : "_ZTIe"
    }
   ],
   "return_type" : "_ZTIe",
   "source_file" : "external/libcxx/include/math.h"
  },
  {
   "function_name" : "asinh",
   "linker_set_key" : "_Z5asinhf",
   "parameters" :
   [
    {
     "referenced_type" : "_ZTIf"
    }
   ],
   "return_type" : "_ZTIf",
   "source_file" : "external/libcxx/include/math.h"
  },
  {
   "function_name" : "atan2",
   "linker_set_key" : "_Z5atan2ee",
   "parameters" :
   [
    {
     "referenced_type" : "_ZTIe"
    },
    {
     "referenced_type" : "_ZTIe"
    }
   ],
   "return_type" : "_ZTIe",
   "source_file" : "external/libcxx/include/math.h"
  },
  {
   "function_name" : "atan2",
   "linker_set_key" : "_Z5atan2ff",
   "parameters" :
   [
    {
     "referenced_type" : "_ZTIf"
    },
    {
     "referenced_type" : "_ZTIf"
    }
   ],
   "return_type" : "_ZTIf",
   "source_file" : "external/libcxx/include/math.h"
  },
  {
   "function_name" : "atanh",
   "linker_set_key" : "_Z5atanhe",
   "parameters" :
   [
    {
     "referenced_type" : "_ZTIe"
    }
   ],
   "return_type" : "_ZTIe",
   "source_file" : "external/libcxx/include/math.h"
  },
  {
   "function_name" : "atanh",
   "linker_set_key" : "_Z5atanhf",
   "parameters" :
   [
    {
     "referenced_type" : "_ZTIf"
    }
   ],
   "return_type" : "_ZTIf",
   "source_file" : "external/libcxx/include/math.h"
  },
  {
   "function_name" : "expm1",
   "linker_set_key" : "_Z5expm1e",
   "parameters" :
   [
    {
     "referenced_type" : "_ZTIe"
    }
   ],
   "return_type" : "_ZTIe",
   "source_file" : "external/libcxx/include/math.h"
  },
  {
   "function_name" : "expm1",
   "linker_set_key" : "_Z5expm1f",
   "parameters" :
   [
    {
     "referenced_type" : "_ZTIf"
    }
   ],
   "return_type" : "_ZTIf",
   "source_file" : "external/libcxx/include/math.h"
  },
  {
   "function_name" : "floor",
   "linker_set_key" : "_Z5floore",
   "parameters" :
   [
    {
     "referenced_type" : "_ZTIe"
    }
   ],
   "return_type" : "_ZTIe",
   "source_file" : "external/libcxx/include/math.h"
  },
  {
   "function_name" : "floor",
   "linker_set_key" : "_Z5floorf",
   "parameters" :
   [
    {
     "referenced_type" : "_ZTIf"
    }
   ],
   "return_type" : "_ZTIf",
   "source_file" : "external/libcxx/include/math.h"
  },
  {
   "function_name" : "frexp",
   "linker_set_key" : "_Z5frexpePi",
   "parameters" :
   [
    {
     "referenced_type" : "_ZTIe"
    },
    {
     "referenced_type" : "_ZTIPi"
    }
   ],
   "return_type" : "_ZTIe",
   "source_file" : "external/libcxx/include/math.h"
  },
  {
   "function_name" : "frexp",
   "linker_set_key" : "_Z5frexpfPi",
   "parameters" :
   [
    {
     "referenced_type" : "_ZTIf"
    },
    {
     "referenced_type" : "_ZTIPi"
    }
   ],
   "return_type" : "_ZTIf",
   "source_file" : "external/libcxx/include/math.h"
  },
  {
   "function_name" : "hypot",
   "linker_set_key" : "_Z5hypotee",
   "parameters" :
   [
    {
     "referenced_type" : "_ZTIe"
    },
    {
     "referenced_type" : "_ZTIe"
    }
   ],
   "return_type" : "_ZTIe",
   "source_file" : "external/libcxx/include/math.h"
  },
  {
   "function_name" : "hypot",
   "linker_set_key" : "_Z5hypotff",
   "parameters" :
   [
    {
     "referenced_type" : "_ZTIf"
    },
    {
     "referenced_type" : "_ZTIf"
    }
   ],
   "return_type" : "_ZTIf",
   "source_file" : "external/libcxx/include/math.h"
  },
  {
   "function_name" : "ilogb",
   "linker_set_key" : "_Z5ilogbe",
   "parameters" :
   [
    {
     "referenced_type" : "_ZTIe"
    }
   ],
   "return_type" : "_ZTIi",
   "source_file" : "external/libcxx/include/math.h"
  },
  {
   "function_name" : "ilogb",
   "linker_set_key" : "_Z5ilogbf",
   "parameters" :
   [
    {
     "referenced_type" : "_ZTIf"
    }
   ],
   "return_type" : "_ZTIi",
   "source_file" : "external/libcxx/include/math.h"
  },
  {
   "function_name" : "isinf",
   "linker_set_key" : "_Z5isinfUa9enable_ifIXLb1EEEd",
   "parameters" :
   [
    {
     "referenced_type" : "_ZTId"
    }
   ],
   "return_type" : "_ZTIb",
   "source_file" : "external/libcxx/include/math.h"
  },
  {
   "function_name" : "isinf",
   "linker_set_key" : "_Z5isinfe",
   "parameters" :
   [
    {
     "referenced_type" : "_ZTIe"
    }
   ],
   "return_type" : "_ZTIb",
   "source_file" : "external/libcxx/include/math.h"
  },
  {
   "function_name" : "isinf",
   "linker_set_key" : "_Z5isinff",
   "parameters" :
   [
    {
     "referenced_type" : "_ZTIf"
    }
   ],
   "return_type" : "_ZTIb",
   "source_file" : "external/libcxx/include/math.h"
  },
  {
   "function_name" : "isnan",
   "linker_set_key" : "_Z5isnanUa9enable_ifIXLb1EEEd",
   "parameters" :
   [
    {
     "referenced_type" : "_ZTId"
    }
   ],
   "return_type" : "_ZTIb",
   "source_file" : "external/libcxx/include/math.h"
  },
  {
   "function_name" : "isnan",
   "linker_set_key" : "_Z5isnane",
   "parameters" :
   [
    {
     "referenced_type" : "_ZTIe"
    }
   ],
   "return_type" : "_ZTIb",
   "source_file" : "external/libcxx/include/math.h"
  },
  {
   "function_name" : "isnan",
   "linker_set_key" : "_Z5isnanf",
   "parameters" :
   [
    {
     "referenced_type" : "_ZTIf"
    }
   ],
   "return_type" : "_ZTIb",
   "source_file" : "external/libcxx/include/math.h"
  },
  {
   "function_name" : "ldexp",
   "linker_set_key" : "_Z5ldexpei",
   "parameters" :
   [
    {
     "referenced_type" : "_ZTIe"
    },
    {
     "referenced_type" : "_ZTIi"
    }
   ],
   "return_type" : "_ZTIe",
   "source_file" : "external/libcxx/include/math.h"
  },
  {
   "function_name" : "ldexp",
   "linker_set_key" : "_Z5ldexpfi",
   "parameters" :
   [
    {
     "referenced_type" : "_ZTIf"
    },
    {
     "referenced_type" : "_ZTIi"
    }
   ],
   "return_type" : "_ZTIf",
   "source_file" : "external/libcxx/include/math.h"
  },
  {
   "function_name" : "log10",
   "linker_set_key" : "_Z5log10e",
   "parameters" :
   [
    {
     "referenced_type" : "_ZTIe"
    }
   ],
   "return_type" : "_ZTIe",
   "source_file" : "external/libcxx/include/math.h"
  },
  {
   "function_name" : "log10",
   "linker_set_key" : "_Z5log10f",
   "parameters" :
   [
    {
     "referenced_type" : "_ZTIf"
    }
   ],
   "return_type" : "_ZTIf",
   "source_file" : "external/libcxx/include/math.h"
  },
  {
   "function_name" : "log1p",
   "linker_set_key" : "_Z5log1pe",
   "parameters" :
   [
    {
     "referenced_type" : "_ZTIe"
    }
   ],
   "return_type" : "_ZTIe",
   "source_file" : "external/libcxx/include/math.h"
  },
  {
   "function_name" : "log1p",
   "linker_set_key" : "_Z5log1pf",
   "parameters" :
   [
    {
     "referenced_type" : "_ZTIf"
    }
   ],
   "return_type" : "_ZTIf",
   "source_file" : "external/libcxx/include/math.h"
  },
  {
   "function_name" : "lrint",
   "linker_set_key" : "_Z5lrinte",
   "parameters" :
   [
    {
     "referenced_type" : "_ZTIe"
    }
   ],
   "return_type" : "_ZTIl",
   "source_file" : "external/libcxx/include/math.h"
  },
  {
   "function_name" : "lrint",
   "linker_set_key" : "_Z5lrintf",
   "parameters" :
   [
    {
     "referenced_type" : "_ZTIf"
    }
   ],
   "return_type" : "_ZTIl",
   "source_file" : "external/libcxx/include/math.h"
  },
  {
   "function_name" : "round",
   "linker_set_key" : "_Z5rounde",
   "parameters" :
   [
    {
     "referenced_type" : "_ZTIe"
    }
   ],
   "return_type" : "_ZTIe",
   "source_file" : "external/libcxx/include/math.h"
  },
  {
   "function_name" : "round",
   "linker_set_key" : "_Z5roundf",
   "parameters" :
   [
    {
     "referenced_type" : "_ZTIf"
    }
   ],
   "return_type" : "_ZTIf",
   "source_file" : "external/libcxx/include/math.h"
  },
  {
   "function_name" : "trunc",
   "linker_set_key" : "_Z5trunce",
   "parameters" :
   [
    {
     "referenced_type" : "_ZTIe"
    }
   ],
   "return_type" : "_ZTIe",
   "source_file" : "external/libcxx/include/math.h"
  },
  {
   "function_name" : "trunc",
   "linker_set_key" : "_Z5truncf",
   "parameters" :
   [
    {
     "referenced_type" : "_ZTIf"
    }
   ],
   "return_type" : "_ZTIf",
   "source_file" : "external/libcxx/include/math.h"
  },
  {
   "function_name" : "SkToU8",
   "linker_set_key" : "_Z6SkToU8IjEhT_",
   "parameters" :
   [
    {
     "referenced_type" : "_ZTIj"
    }
   ],
   "return_type" : "_ZTIh",
   "source_file" : "external/skia/include/private/SkTo.h",
   "template_args" : [ "_ZTIj" ]
  },
  {
   "function_name" : "lgamma",
   "linker_set_key" : "_Z6lgammae",
   "parameters" :
   [
    {
     "referenced_type" : "_ZTIe"
    }
   ],
   "return_type" : "_ZTIe",
   "source_file" : "external/libcxx/include/math.h"
  },
  {
   "function_name" : "lgamma",
   "linker_set_key" : "_Z6lgammaf",
   "parameters" :
   [
    {
     "referenced_type" : "_ZTIf"
    }
   ],
   "return_type" : "_ZTIf",
   "source_file" : "external/libcxx/include/math.h"
  },
  {
   "function_name" : "llrint",
   "linker_set_key" : "_Z6llrinte",
   "parameters" :
   [
    {
     "referenced_type" : "_ZTIe"
    }
   ],
   "return_type" : "_ZTIx",
   "source_file" : "external/libcxx/include/math.h"
  },
  {
   "function_name" : "llrint",
   "linker_set_key" : "_Z6llrintf",
   "parameters" :
   [
    {
     "referenced_type" : "_ZTIf"
    }
   ],
   "return_type" : "_ZTIx",
   "source_file" : "external/libcxx/include/math.h"
  },
  {
   "function_name" : "lround",
   "linker_set_key" : "_Z6lrounde",
   "parameters" :
   [
    {
     "referenced_type" : "_ZTIe"
    }
   ],
   "return_type" : "_ZTIl",
   "source_file" : "external/libcxx/include/math.h"
  },
  {
   "function_name" : "lround",
   "linker_set_key" : "_Z6lroundf",
   "parameters" :
   [
    {
     "referenced_type" : "_ZTIf"
    }
   ],
   "return_type" : "_ZTIl",
   "source_file" : "external/libcxx/include/math.h"
  },
  {
   "function_name" : "memchr",
   "linker_set_key" : "_Z6memchrUa9enable_ifIXLb1EEEPKvij",
   "parameters" :
   [
    {
     "referenced_type" : "_ZTIPKv"
    },
    {
     "referenced_type" : "_ZTIi"
    },
    {
     "referenced_type" : "_ZTIj"
    }
   ],
   "return_type" : "_ZTIPKv",
   "source_file" : "external/libcxx/include/string.h"
  },
  {
   "function_name" : "memchr",
   "linker_set_key" : "_Z6memchrUa9enable_ifIXLb1EEEPvij",
   "parameters" :
   [
    {
     "referenced_type" : "_ZTIPv"
    },
    {
     "referenced_type" : "_ZTIi"
    },
    {
     "referenced_type" : "_ZTIj"
    }
   ],
   "return_type" : "_ZTIPv",
   "source_file" : "external/libcxx/include/string.h"
  },
  {
   "function_name" : "memchr",
   "linker_set_key" : "_Z6memchrUa9enable_ifIXLb1EEXLb1EEEPKvU17pass_object_size1ij",
   "parameters" :
   [
    {
     "referenced_type" : "_ZTIKPKv"
    },
    {
     "referenced_type" : "_ZTIi"
    },
    {
     "referenced_type" : "_ZTIj"
    }
   ],
   "return_type" : "_ZTIPKv",
   "source_file" : "bionic/libc/include/string.h"
  },
  {
   "function_name" : "memchr",
   "linker_set_key" : "_Z6memchrUa9enable_ifIXLb1EEXLb1EEEPvU17pass_object_size1ij",
   "parameters" :
   [
    {
     "referenced_type" : "_ZTIKPv"
    },
    {
     "referenced_type" : "_ZTIi"
    },
    {
     "referenced_type" : "_ZTIj"
    }
   ],
   "return_type" : "_ZTIPv",
   "source_file" : "bionic/libc/include/string.h"
  },
  {
   "function_name" : "remquo",
   "linker_set_key" : "_Z6remquoeePi",
   "parameters" :
   [
    {
     "referenced_type" : "_ZTIe"
    },
    {
     "referenced_type" : "_ZTIe"
    },
    {
     "referenced_type" : "_ZTIPi"
    }
   ],
   "return_type" : "_ZTIe",
   "source_file" : "external/libcxx/include/math.h"
  },
  {
   "function_name" : "remquo",
   "linker_set_key" : "_Z6remquoffPi",
   "parameters" :
   [
    {
     "referenced_type" : "_ZTIf"
    },
    {
     "referenced_type" : "_ZTIf"
    },
    {
     "referenced_type" : "_ZTIPi"
    }
   ],
   "return_type" : "_ZTIf",
   "source_file" : "external/libcxx/include/math.h"
  },
  {
   "function_name" : "scalbn",
   "linker_set_key" : "_Z6scalbnei",
   "parameters" :
   [
    {
     "referenced_type" : "_ZTIe"
    },
    {
     "referenced_type" : "_ZTIi"
    }
   ],
   "return_type" : "_ZTIe",
   "source_file" : "external/libcxx/include/math.h"
  },
  {
   "function_name" : "scalbn",
   "linker_set_key" : "_Z6scalbnfi",
   "parameters" :
   [
    {
     "referenced_type" : "_ZTIf"
    },
    {
     "referenced_type" : "_ZTIi"
    }
   ],
   "return_type" : "_ZTIf",
   "source_file" : "external/libcxx/include/math.h"
  },
  {
   "function_name" : "strchr",
   "linker_set_key" : "_Z6strchrUa9enable_ifIXLb1EEEPKci",
   "parameters" :
   [
    {
     "referenced_type" : "_ZTIPKc"
    },
    {
     "referenced_type" : "_ZTIi"
    }
   ],
   "return_type" : "_ZTIPKc",
   "source_file" : "external/libcxx/include/string.h"
  },
  {
   "function_name" : "strchr",
   "linker_set_key" : "_Z6strchrUa9enable_ifIXLb1EEEPci",
   "parameters" :
   [
    {
     "referenced_type" : "_ZTIPc"
    },
    {
     "referenced_type" : "_ZTIi"
    }
   ],
   "return_type" : "_ZTIPc",
   "source_file" : "external/libcxx/include/string.h"
  },
  {
   "function_name" : "strchr",
   "linker_set_key" : "_Z6strchrUa9enable_ifIXLb1EEXLb1EEEPKcU17pass_object_size1i",
   "parameters" :
   [
    {
     "referenced_type" : "_ZTIKPKc"
    },
    {
     "referenced_type" : "_ZTIi"
    }
   ],
   "return_type" : "_ZTIPKc",
   "source_file" : "bionic/libc/include/string.h"
  },
  {
   "function_name" : "strchr",
   "linker_set_key" : "_Z6strchrUa9enable_ifIXLb1EEXLb1EEEPcU17pass_object_size1i",
   "parameters" :
   [
    {
     "referenced_type" : "_ZTIKPc"
    },
    {
     "referenced_type" : "_ZTIi"
    }
   ],
   "return_type" : "_ZTIPc",
   "source_file" : "bionic/libc/include/string.h"
  },
  {
   "function_name" : "strstr",
   "linker_set_key" : "_Z6strstrUa9enable_ifIXLb1EEEPKcS0_",
   "parameters" :
   [
    {
     "referenced_type" : "_ZTIPKc"
    },
    {
     "referenced_type" : "_ZTIPKc"
    }
   ],
   "return_type" : "_ZTIPKc",
   "source_file" : "external/libcxx/include/string.h"
  },
  {
   "function_name" : "strstr",
   "linker_set_key" : "_Z6strstrUa9enable_ifIXLb1EEEPcPKc",
   "parameters" :
   [
    {
     "referenced_type" : "_ZTIPc"
    },
    {
     "referenced_type" : "_ZTIPKc"
    }
   ],
   "return_type" : "_ZTIPc",
   "source_file" : "external/libcxx/include/string.h"
  },
  {
   "function_name" : "strstr",
   "linker_set_key" : "_Z6strstrUa9enable_ifIXLb1EEXLb1EEEPKcS0_",
   "parameters" :
   [
    {
     "referenced_type" : "_ZTIPKc"
    },
    {
     "referenced_type" : "_ZTIPKc"
    }
   ],
   "return_type" : "_ZTIPKc",
   "source_file" : "bionic/libc/include/string.h"
  },
  {
   "function_name" : "strstr",
   "linker_set_key" : "_Z6strstrUa9enable_ifIXLb1EEXLb1EEEPcPKc",
   "parameters" :
   [
    {
     "referenced_type" : "_ZTIPc"
    },
    {
     "referenced_type" : "_ZTIPKc"
    }
   ],
   "return_type" : "_ZTIPc",
   "source_file" : "bionic/libc/include/string.h"
  },
  {
   "function_name" : "tgamma",
   "linker_set_key" : "_Z6tgammae",
   "parameters" :
   [
    {
     "referenced_type" : "_ZTIe"
    }
   ],
   "return_type" : "_ZTIe",
   "source_file" : "external/libcxx/include/math.h"
  },
  {
   "function_name" : "tgamma",
   "linker_set_key" : "_Z6tgammaf",
   "parameters" :
   [
    {
     "referenced_type" : "_ZTIf"
    }
   ],
   "return_type" : "_ZTIf",
   "source_file" : "external/libcxx/include/math.h"
  },
  {
   "function_name" : "wcschr",
   "linker_set_key" : "_Z6wcschrUa9enable_ifIXLb1EEEPKww",
   "parameters" :
   [
    {
     "referenced_type" : "_ZTIPKw"
    },
    {
     "referenced_type" : "_ZTIw"
    }
   ],
   "return_type" : "_ZTIPKw",
   "source_file" : "external/libcxx/include/wchar.h"
  },
  {
   "function_name" : "wcschr",
   "linker_set_key" : "_Z6wcschrUa9enable_ifIXLb1EEEPww",
   "parameters" :
   [
    {
     "referenced_type" : "_ZTIPw"
    },
    {
     "referenced_type" : "_ZTIw"
    }
   ],
   "return_type" : "_ZTIPw",
   "source_file" : "external/libcxx/include/wchar.h"
  },
  {
   "function_name" : "wcsstr",
   "linker_set_key" : "_Z6wcsstrUa9enable_ifIXLb1EEEPKwS0_",
   "parameters" :
   [
    {
     "referenced_type" : "_ZTIPKw"
    },
    {
     "referenced_type" : "_ZTIPKw"
    }
   ],
   "return_type" : "_ZTIPKw",
   "source_file" : "external/libcxx/include/wchar.h"
  },
  {
   "function_name" : "wcsstr",
   "linker_set_key" : "_Z6wcsstrUa9enable_ifIXLb1EEEPwPKw",
   "parameters" :
   [
    {
     "referenced_type" : "_ZTIPw"
    },
    {
     "referenced_type" : "_ZTIPKw"
    }
   ],
   "return_type" : "_ZTIPw",
   "source_file" : "external/libcxx/include/wchar.h"
  },
  {
   "function_name" : "SkToU16",
   "linker_set_key" : "_Z7SkToU16IjEtT_",
   "parameters" :
   [
    {
     "referenced_type" : "_ZTIj"
    }
   ],
   "return_type" : "_ZTIt",
   "source_file" : "external/skia/include/private/SkTo.h",
   "template_args" : [ "_ZTIj" ]
  },
  {
   "function_name" : "llround",
   "linker_set_key" : "_Z7llrounde",
   "parameters" :
   [
    {
     "referenced_type" : "_ZTIe"
    }
   ],
   "return_type" : "_ZTIx",
   "source_file" : "external/libcxx/include/math.h"
  },
  {
   "function_name" : "llround",
   "linker_set_key" : "_Z7llroundf",
   "parameters" :
   [
    {
     "referenced_type" : "_ZTIf"
    }
   ],
   "return_type" : "_ZTIx",
   "source_file" : "external/libcxx/include/math.h"
  },
  {
   "function_name" : "scalbln",
   "linker_set_key" : "_Z7scalblnel",
   "parameters" :
   [
    {
     "referenced_type" : "_ZTIe"
    },
    {
     "referenced_type" : "_ZTIl"
    }
   ],
   "return_type" : "_ZTIe",
   "source_file" : "external/libcxx/include/math.h"
  },
  {
   "function_name" : "scalbln",
   "linker_set_key" : "_Z7scalblnfl",
   "parameters" :
   [
    {
     "referenced_type" : "_ZTIf"
    },
    {
     "referenced_type" : "_ZTIl"
    }
   ],
   "return_type" : "_ZTIf",
   "source_file" : "external/libcxx/include/math.h"
  },
  {
   "function_name" : "strpbrk",
   "linker_set_key" : "_Z7strpbrkUa9enable_ifIXLb1EEEPKcS0_",
   "parameters" :
   [
    {
     "referenced_type" : "_ZTIPKc"
    },
    {
     "referenced_type" : "_ZTIPKc"
    }
   ],
   "return_type" : "_ZTIPKc",
   "source_file" : "external/libcxx/include/string.h"
  },
  {
   "function_name" : "strpbrk",
   "linker_set_key" : "_Z7strpbrkUa9enable_ifIXLb1EEEPcPKc",
   "parameters" :
   [
    {
     "referenced_type" : "_ZTIPc"
    },
    {
     "referenced_type" : "_ZTIPKc"
    }
   ],
   "return_type" : "_ZTIPc",
   "source_file" : "external/libcxx/include/string.h"
  },
  {
   "function_name" : "strpbrk",
   "linker_set_key" : "_Z7strpbrkUa9enable_ifIXLb1EEXLb1EEEPKcS0_",
   "parameters" :
   [
    {
     "referenced_type" : "_ZTIPKc"
    },
    {
     "referenced_type" : "_ZTIPKc"
    }
   ],
   "return_type" : "_ZTIPKc",
   "source_file" : "bionic/libc/include/string.h"
  },
  {
   "function_name" : "strpbrk",
   "linker_set_key" : "_Z7strpbrkUa9enable_ifIXLb1EEXLb1EEEPcPKc",
   "parameters" :
   [
    {
     "referenced_type" : "_ZTIPc"
    },
    {
     "referenced_type" : "_ZTIPKc"
    }
   ],
   "return_type" : "_ZTIPc",
   "source_file" : "bionic/libc/include/string.h"
  },
  {
   "function_name" : "strrchr",
   "linker_set_key" : "_Z7strrchrUa9enable_ifIXLb1EEEPKci",
   "parameters" :
   [
    {
     "referenced_type" : "_ZTIPKc"
    },
    {
     "referenced_type" : "_ZTIi"
    }
   ],
   "return_type" : "_ZTIPKc",
   "source_file" : "external/libcxx/include/string.h"
  },
  {
   "function_name" : "strrchr",
   "linker_set_key" : "_Z7strrchrUa9enable_ifIXLb1EEEPci",
   "parameters" :
   [
    {
     "referenced_type" : "_ZTIPc"
    },
    {
     "referenced_type" : "_ZTIi"
    }
   ],
   "return_type" : "_ZTIPc",
   "source_file" : "external/libcxx/include/string.h"
  },
  {
   "function_name" : "strrchr",
   "linker_set_key" : "_Z7strrchrUa9enable_ifIXLb1EEXLb1EEEPKcU17pass_object_size1i",
   "parameters" :
   [
    {
     "referenced_type" : "_ZTIKPKc"
    },
    {
     "referenced_type" : "_ZTIi"
    }
   ],
   "return_type" : "_ZTIPKc",
   "source_file" : "bionic/libc/include/string.h"
  },
  {
   "function_name" : "strrchr",
   "linker_set_key" : "_Z7strrchrUa9enable_ifIXLb1EEXLb1EEEPcU17pass_object_size1i",
   "parameters" :
   [
    {
     "referenced_type" : "_ZTIKPc"
    },
    {
     "referenced_type" : "_ZTIi"
    }
   ],
   "return_type" : "_ZTIPc",
   "source_file" : "bionic/libc/include/string.h"
  },
  {
   "function_name" : "wcspbrk",
   "linker_set_key" : "_Z7wcspbrkUa9enable_ifIXLb1EEEPKwS0_",
   "parameters" :
   [
    {
     "referenced_type" : "_ZTIPKw"
    },
    {
     "referenced_type" : "_ZTIPKw"
    }
   ],
   "return_type" : "_ZTIPKw",
   "source_file" : "external/libcxx/include/wchar.h"
  },
  {
   "function_name" : "wcspbrk",
   "linker_set_key" : "_Z7wcspbrkUa9enable_ifIXLb1EEEPwPKw",
   "parameters" :
   [
    {
     "referenced_type" : "_ZTIPw"
    },
    {
     "referenced_type" : "_ZTIPKw"
    }
   ],
   "return_type" : "_ZTIPw",
   "source_file" : "external/libcxx/include/wchar.h"
  },
  {
   "function_name" : "wcsrchr",
   "linker_set_key" : "_Z7wcsrchrUa9enable_ifIXLb1EEEPKww",
   "parameters" :
   [
    {
     "referenced_type" : "_ZTIPKw"
    },
    {
     "referenced_type" : "_ZTIw"
    }
   ],
   "return_type" : "_ZTIPKw",
   "source_file" : "external/libcxx/include/wchar.h"
  },
  {
   "function_name" : "wcsrchr",
   "linker_set_key" : "_Z7wcsrchrUa9enable_ifIXLb1EEEPww",
   "parameters" :
   [
    {
     "referenced_type" : "_ZTIPw"
    },
    {
     "referenced_type" : "_ZTIw"
    }
   ],
   "return_type" : "_ZTIPw",
   "source_file" : "external/libcxx/include/wchar.h"
  },
  {
   "function_name" : "wmemchr",
   "linker_set_key" : "_Z7wmemchrUa9enable_ifIXLb1EEEPKwwj",
   "parameters" :
   [
    {
     "referenced_type" : "_ZTIPKw"
    },
    {
     "referenced_type" : "_ZTIw"
    },
    {
     "referenced_type" : "_ZTIj"
    }
   ],
   "return_type" : "_ZTIPKw",
   "source_file" : "external/libcxx/include/wchar.h"
  },
  {
   "function_name" : "wmemchr",
   "linker_set_key" : "_Z7wmemchrUa9enable_ifIXLb1EEEPwwj",
   "parameters" :
   [
    {
     "referenced_type" : "_ZTIPw"
    },
    {
     "referenced_type" : "_ZTIw"
    },
    {
     "referenced_type" : "_ZTIj"
    }
   ],
   "return_type" : "_ZTIPw",
   "source_file" : "external/libcxx/include/wchar.h"
  },
  {
   "function_name" : "copysign",
   "linker_set_key" : "_Z8copysignee",
   "parameters" :
   [
    {
     "referenced_type" : "_ZTIe"
    },
    {
     "referenced_type" : "_ZTIe"
    }
   ],
   "return_type" : "_ZTIe",
   "source_file" : "external/libcxx/include/math.h"
  },
  {
   "function_name" : "copysign",
   "linker_set_key" : "_Z8copysignff",
   "parameters" :
   [
    {
     "referenced_type" : "_ZTIf"
    },
    {
     "referenced_type" : "_ZTIf"
    }
   ],
   "return_type" : "_ZTIf",
   "source_file" : "external/libcxx/include/math.h"
  },
  {
   "function_name" : "nearbyint",
   "linker_set_key" : "_Z9nearbyinte",
   "parameters" :
   [
    {
     "referenced_type" : "_ZTIe"
    }
   ],
   "return_type" : "_ZTIe",
   "source_file" : "external/libcxx/include/math.h"
  },
  {
   "function_name" : "nearbyint",
   "linker_set_key" : "_Z9nearbyintf",
   "parameters" :
   [
    {
     "referenced_type" : "_ZTIf"
    }
   ],
   "return_type" : "_ZTIf",
   "source_file" : "external/libcxx/include/math.h"
  },
  {
   "function_name" : "nextafter",
   "linker_set_key" : "_Z9nextafteree",
   "parameters" :
   [
    {
     "referenced_type" : "_ZTIe"
    },
    {
     "referenced_type" : "_ZTIe"
    }
   ],
   "return_type" : "_ZTIe",
   "source_file" : "external/libcxx/include/math.h"
  },
  {
   "function_name" : "nextafter",
   "linker_set_key" : "_Z9nextafterff",
   "parameters" :
   [
    {
     "referenced_type" : "_ZTIf"
    },
    {
     "referenced_type" : "_ZTIf"
    }
   ],
   "return_type" : "_ZTIf",
   "source_file" : "external/libcxx/include/math.h"
  },
  {
   "function_name" : "remainder",
   "linker_set_key" : "_Z9remainderee",
   "parameters" :
   [
    {
     "referenced_type" : "_ZTIe"
    },
    {
     "referenced_type" : "_ZTIe"
    }
   ],
   "return_type" : "_ZTIe",
   "source_file" : "external/libcxx/include/math.h"
  },
  {
   "function_name" : "remainder",
   "linker_set_key" : "_Z9remainderff",
   "parameters" :
   [
    {
     "referenced_type" : "_ZTIf"
    },
    {
     "referenced_type" : "_ZTIf"
    }
   ],
   "return_type" : "_ZTIf",
   "source_file" : "external/libcxx/include/math.h"
  },
  {
   "function_name" : "SkFILEStream::Make",
   "linker_set_key" : "_ZN12SkFILEStream4MakeEPKc",
   "parameters" :
   [
    {
     "referenced_type" : "_ZTIPKc"
    }
   ],
   "return_type" : "_ZTINSt3__110unique_ptrI12SkFILEStreamNS_14default_deleteIS1_EEEE",
   "source_file" : "external/skia/include/core/SkStream.h"
  },
  {
   "function_name" : "SkRefCntBase::SkRefCntBase",
   "linker_set_key" : "_ZN12SkRefCntBaseC1Ev",
   "parameters" :
   [
    {
     "is_this_ptr" : true,
     "referenced_type" : "_ZTIP12SkRefCntBase"
    }
   ],
   "return_type" : "_ZTIv",
   "source_file" : "external/skia/include/core/SkRefCnt.h"
  },
  {
   "function_name" : "SkRefCntBase::SkRefCntBase",
   "linker_set_key" : "_ZN12SkRefCntBaseC2Ev",
   "parameters" :
   [
    {
     "is_this_ptr" : true,
     "referenced_type" : "_ZTIP12SkRefCntBase"
    }
   ],
   "return_type" : "_ZTIv",
   "source_file" : "external/skia/include/core/SkRefCnt.h"
  },
  {
   "function_name" : "SkRefCntBase::~SkRefCntBase",
   "linker_set_key" : "_ZN12SkRefCntBaseD0Ev",
   "parameters" :
   [
    {
     "is_this_ptr" : true,
     "referenced_type" : "_ZTIP12SkRefCntBase"
    }
   ],
   "return_type" : "_ZTIv",
   "source_file" : "external/skia/include/core/SkRefCnt.h"
  },
  {
   "function_name" : "SkRefCntBase::~SkRefCntBase",
   "linker_set_key" : "_ZN12SkRefCntBaseD1Ev",
   "parameters" :
   [
    {
     "is_this_ptr" : true,
     "referenced_type" : "_ZTIP12SkRefCntBase"
    }
   ],
   "return_type" : "_ZTIv",
   "source_file" : "external/skia/include/core/SkRefCnt.h"
  },
  {
   "function_name" : "SkRefCntBase::~SkRefCntBase",
   "linker_set_key" : "_ZN12SkRefCntBaseD2Ev",
   "parameters" :
   [
    {
     "is_this_ptr" : true,
     "referenced_type" : "_ZTIP12SkRefCntBase"
    }
   ],
   "return_type" : "_ZTIv",
   "source_file" : "external/skia/include/core/SkRefCnt.h"
  },
  {
   "function_name" : "SkNullWStream::flush",
   "linker_set_key" : "_ZN13SkNullWStream5flushEv",
   "parameters" :
   [
    {
     "is_this_ptr" : true,
     "referenced_type" : "_ZTIP13SkNullWStream"
    }
   ],
   "return_type" : "_ZTIv",
   "source_file" : "external/skia/include/core/SkStream.h"
  },
  {
   "function_name" : "SkNullWStream::write",
   "linker_set_key" : "_ZN13SkNullWStream5writeEPKvj",
   "parameters" :
   [
    {
     "is_this_ptr" : true,
     "referenced_type" : "_ZTIP13SkNullWStream"
    },
    {
     "referenced_type" : "_ZTIPKv"
    },
    {
     "referenced_type" : "_ZTIj"
    }
   ],
   "return_type" : "_ZTIb",
   "source_file" : "external/skia/include/core/SkStream.h"
  },
  {
   "function_name" : "SkNullWStream::SkNullWStream",
   "linker_set_key" : "_ZN13SkNullWStreamC1Ev",
   "parameters" :
   [
    {
     "is_this_ptr" : true,
     "referenced_type" : "_ZTIP13SkNullWStream"
    }
   ],
   "return_type" : "_ZTIv",
   "source_file" : "external/skia/include/core/SkStream.h"
  },
  {
   "function_name" : "SkNullWStream::SkNullWStream",
   "linker_set_key" : "_ZN13SkNullWStreamC2Ev",
   "parameters" :
   [
    {
     "is_this_ptr" : true,
     "referenced_type" : "_ZTIP13SkNullWStream"
    }
   ],
   "return_type" : "_ZTIv",
   "source_file" : "external/skia/include/core/SkStream.h"
  },
  {
   "function_name" : "AAssetStreamAdaptor::getMemoryBase",
   "linker_set_key" : "_ZN19AAssetStreamAdaptor13getMemoryBaseEv",
   "parameters" :
   [
    {
     "is_this_ptr" : true,
     "referenced_type" : "_ZTIP19AAssetStreamAdaptor"
    }
   ],
   "return_type" : "_ZTIPKv",
   "source_file" : "frameworks/base/native/graphics/jni/aassetstreamadaptor.h"
  },
  {
   "function_name" : "AAssetStreamAdaptor::move",
   "linker_set_key" : "_ZN19AAssetStreamAdaptor4moveEl",
   "parameters" :
   [
    {
     "is_this_ptr" : true,
     "referenced_type" : "_ZTIP19AAssetStreamAdaptor"
    },
    {
     "referenced_type" : "_ZTIl"
    }
   ],
   "return_type" : "_ZTIb",
   "source_file" : "frameworks/base/native/graphics/jni/aassetstreamadaptor.h"
  },
  {
   "function_name" : "AAssetStreamAdaptor::read",
   "linker_set_key" : "_ZN19AAssetStreamAdaptor4readEPvj",
   "parameters" :
   [
    {
     "is_this_ptr" : true,
     "referenced_type" : "_ZTIP19AAssetStreamAdaptor"
    },
    {
     "referenced_type" : "_ZTIPv"
    },
    {
     "referenced_type" : "_ZTIj"
    }
   ],
   "return_type" : "_ZTIj",
   "source_file" : "frameworks/base/native/graphics/jni/aassetstreamadaptor.h"
  },
  {
   "function_name" : "AAssetStreamAdaptor::seek",
   "linker_set_key" : "_ZN19AAssetStreamAdaptor4seekEj",
   "parameters" :
   [
    {
     "is_this_ptr" : true,
     "referenced_type" : "_ZTIP19AAssetStreamAdaptor"
    },
    {
     "referenced_type" : "_ZTIj"
    }
   ],
   "return_type" : "_ZTIb",
   "source_file" : "frameworks/base/native/graphics/jni/aassetstreamadaptor.h"
  },
  {
   "function_name" : "AAssetStreamAdaptor::rewind",
   "linker_set_key" : "_ZN19AAssetStreamAdaptor6rewindEv",
   "parameters" :
   [
    {
     "is_this_ptr" : true,
     "referenced_type" : "_ZTIP19AAssetStreamAdaptor"
    }
   ],
   "return_type" : "_ZTIb",
   "source_file" : "frameworks/base/native/graphics/jni/aassetstreamadaptor.h"
  },
  {
   "function_name" : "AAssetStreamAdaptor::AAssetStreamAdaptor",
   "linker_set_key" : "_ZN19AAssetStreamAdaptorC1EP6AAsset",
   "parameters" :
   [
    {
     "is_this_ptr" : true,
     "referenced_type" : "_ZTIP19AAssetStreamAdaptor"
    },
    {
     "referenced_type" : "_ZTIP6AAsset"
    }
   ],
   "return_type" : "_ZTIv",
   "source_file" : "frameworks/base/native/graphics/jni/aassetstreamadaptor.h"
  },
  {
   "function_name" : "AAssetStreamAdaptor::AAssetStreamAdaptor",
   "linker_set_key" : "_ZN19AAssetStreamAdaptorC2EP6AAsset",
   "parameters" :
   [
    {
     "is_this_ptr" : true,
     "referenced_type" : "_ZTIP19AAssetStreamAdaptor"
    },
    {
     "referenced_type" : "_ZTIP6AAsset"
    }
   ],
   "return_type" : "_ZTIv",
   "source_file" : "frameworks/base/native/graphics/jni/aassetstreamadaptor.h"
  },
  {
   "function_name" : "SkDynamicMemoryWStream::SkDynamicMemoryWStream",
   "linker_set_key" : "_ZN22SkDynamicMemoryWStreamC1Ev",
   "parameters" :
   [
    {
     "is_this_ptr" : true,
     "referenced_type" : "_ZTIP22SkDynamicMemoryWStream"
    }
   ],
   "return_type" : "_ZTIv",
   "source_file" : "external/skia/include/core/SkStream.h"
  },
  {
   "function_name" : "SkDynamicMemoryWStream::SkDynamicMemoryWStream",
   "linker_set_key" : "_ZN22SkDynamicMemoryWStreamC2Ev",
   "parameters" :
   [
    {
     "is_this_ptr" : true,
     "referenced_type" : "_ZTIP22SkDynamicMemoryWStream"
    }
   ],
   "return_type" : "_ZTIv",
   "source_file" : "external/skia/include/core/SkStream.h"
  },
  {
   "function_name" : "sk_sp<SkData>::sk_sp",
   "linker_set_key" : "_ZN5sk_spI6SkDataEC1ERKS1_",
   "parameters" :
   [
    {
     "is_this_ptr" : true,
     "referenced_type" : "_ZTIP5sk_spI6SkDataE"
    },
    {
     "referenced_type" : "_ZTIRK5sk_spI6SkDataE"
    }
   ],
   "return_type" : "_ZTIv",
   "source_file" : "external/skia/include/core/SkRefCnt.h"
  },
  {
   "function_name" : "sk_sp<SkData>::sk_sp",
   "linker_set_key" : "_ZN5sk_spI6SkDataEC2ERKS1_",
   "parameters" :
   [
    {
     "is_this_ptr" : true,
     "referenced_type" : "_ZTIP5sk_spI6SkDataE"
    },
    {
     "referenced_type" : "_ZTIRK5sk_spI6SkDataE"
    }
   ],
   "return_type" : "_ZTIv",
   "source_file" : "external/skia/include/core/SkRefCnt.h"
  },
  {
   "function_name" : "sk_sp<SkData>::~sk_sp",
   "linker_set_key" : "_ZN5sk_spI6SkDataED1Ev",
   "parameters" :
   [
    {
     "is_this_ptr" : true,
     "referenced_type" : "_ZTIP5sk_spI6SkDataE"
    }
   ],
   "return_type" : "_ZTIv",
   "source_file" : "external/skia/include/core/SkRefCnt.h"
  },
  {
   "function_name" : "sk_sp<SkData>::~sk_sp",
   "linker_set_key" : "_ZN5sk_spI6SkDataED2Ev",
   "parameters" :
   [
    {
     "is_this_ptr" : true,
     "referenced_type" : "_ZTIP5sk_spI6SkDataE"
    }
   ],
   "return_type" : "_ZTIv",
   "source_file" : "external/skia/include/core/SkRefCnt.h"
  },
  {
   "function_name" : "SkData::writable_data",
   "linker_set_key" : "_ZN6SkData13writable_dataEv",
   "parameters" :
   [
    {
     "is_this_ptr" : true,
     "referenced_type" : "_ZTIP6SkData"
    }
   ],
   "return_type" : "_ZTIPv",
   "source_file" : "external/skia/include/core/SkData.h"
  },
  {
   "function_name" : "SkData::MakeWithoutCopy",
   "linker_set_key" : "_ZN6SkData15MakeWithoutCopyEPKvj",
   "parameters" :
   [
    {
     "referenced_type" : "_ZTIPKv"
    },
    {
     "referenced_type" : "_ZTIj"
    }
   ],
   "return_type" : "_ZTI5sk_spI6SkDataE",
   "source_file" : "external/skia/include/core/SkData.h"
  },
  {
   "function_name" : "SkStream::getMemoryBase",
   "linker_set_key" : "_ZN8SkStream13getMemoryBaseEv",
   "parameters" :
   [
    {
     "is_this_ptr" : true,
     "referenced_type" : "_ZTIP8SkStream"
    }
   ],
   "return_type" : "_ZTIPKv",
   "source_file" : "external/skia/include/core/SkStream.h"
  },
  {
   "function_name" : "SkStream::move",
   "linker_set_key" : "_ZN8SkStream4moveEl",
   "parameters" :
   [
    {
     "is_this_ptr" : true,
     "referenced_type" : "_ZTIP8SkStream"
    },
    {
     "referenced_type" : "_ZTIl"
    }
   ],
   "return_type" : "_ZTIb",
   "source_file" : "external/skia/include/core/SkStream.h"
  },
  {
   "function_name" : "SkStream::seek",
   "linker_set_key" : "_ZN8SkStream4seekEj",
   "parameters" :
   [
    {
     "is_this_ptr" : true,
     "referenced_type" : "_ZTIP8SkStream"
    },
    {
     "referenced_type" : "_ZTIj"
    }
   ],
   "return_type" : "_ZTIb",
   "source_file" : "external/skia/include/core/SkStream.h"
  },
  {
   "function_name" : "SkStream::skip",
   "linker_set_key" : "_ZN8SkStream4skipEj",
   "parameters" :
   [
    {
     "is_this_ptr" : true,
     "referenced_type" : "_ZTIP8SkStream"
    },
    {
     "referenced_type" : "_ZTIj"
    }
   ],
   "return_type" : "_ZTIj",
   "source_file" : "external/skia/include/core/SkStream.h"
  },
  {
   "function_name" : "SkStream::readU8",
   "linker_set_key" : "_ZN8SkStream6readU8EPh",
   "parameters" :
   [
    {
     "is_this_ptr" : true,
     "referenced_type" : "_ZTIP8SkStream"
    },
    {
     "referenced_type" : "_ZTIPh"
    }
   ],
   "return_type" : "_ZTIb",
   "source_file" : "external/skia/include/core/SkStream.h"
  },
  {
   "function_name" : "SkStream::rewind",
   "linker_set_key" : "_ZN8SkStream6rewindEv",
   "parameters" :
   [
    {
     "is_this_ptr" : true,
     "referenced_type" : "_ZTIP8SkStream"
    }
   ],
   "return_type" : "_ZTIb",
   "source_file" : "external/skia/include/core/SkStream.h"
  },
  {
   "function_name" : "SkStream::readU16",
   "linker_set_key" : "_ZN8SkStream7readU16EPt",
   "parameters" :
   [
    {
     "is_this_ptr" : true,
     "referenced_type" : "_ZTIP8SkStream"
    },
    {
     "referenced_type" : "_ZTIPt"
    }
   ],
   "return_type" : "_ZTIb",
   "source_file" : "external/skia/include/core/SkStream.h"
  },
  {
   "function_name" : "SkStream::readU32",
   "linker_set_key" : "_ZN8SkStream7readU32EPj",
   "parameters" :
   [
    {
     "is_this_ptr" : true,
     "referenced_type" : "_ZTIP8SkStream"
    },
    {
     "referenced_type" : "_ZTIPj"
    }
   ],
   "return_type" : "_ZTIb",
   "source_file" : "external/skia/include/core/SkStream.h"
  },
  {
   "function_name" : "SkStream::readBool",
   "linker_set_key" : "_ZN8SkStream8readBoolEPb",
   "parameters" :
   [
    {
     "is_this_ptr" : true,
     "referenced_type" : "_ZTIP8SkStream"
    },
    {
     "referenced_type" : "_ZTIPb"
    }
   ],
   "return_type" : "_ZTIb",
   "source_file" : "external/skia/include/core/SkStream.h"
  },
  {
   "function_name" : "SkStream::SkStream",
   "linker_set_key" : "_ZN8SkStreamC2Ev",
   "parameters" :
   [
    {
     "is_this_ptr" : true,
     "referenced_type" : "_ZTIP8SkStream"
    }
   ],
   "return_type" : "_ZTIv",
   "source_file" : "external/skia/include/core/SkStream.h"
  },
  {
   "function_name" : "SkStream::~SkStream",
   "linker_set_key" : "_ZN8SkStreamD0Ev",
   "parameters" :
   [
    {
     "is_this_ptr" : true,
     "referenced_type" : "_ZTIP8SkStream"
    }
   ],
   "return_type" : "_ZTIv",
   "source_file" : "external/skia/include/core/SkStream.h"
  },
  {
   "function_name" : "SkStream::~SkStream",
   "linker_set_key" : "_ZN8SkStreamD1Ev",
   "parameters" :
   [
    {
     "is_this_ptr" : true,
     "referenced_type" : "_ZTIP8SkStream"
    }
   ],
   "return_type" : "_ZTIv",
   "source_file" : "external/skia/include/core/SkStream.h"
  },
  {
   "function_name" : "SkStream::~SkStream",
   "linker_set_key" : "_ZN8SkStreamD2Ev",
   "parameters" :
   [
    {
     "is_this_ptr" : true,
     "referenced_type" : "_ZTIP8SkStream"
    }
   ],
   "return_type" : "_ZTIv",
   "source_file" : "external/skia/include/core/SkStream.h"
  },
  {
   "function_name" : "log_time::log_time",
   "linker_set_key" : "_ZN8log_timeC1ERK8timespec",
   "parameters" :
   [
    {
     "is_this_ptr" : true,
     "referenced_type" : "_ZTIP8log_time"
    },
    {
     "referenced_type" : "_ZTIRK8timespec"
    }
   ],
   "return_type" : "_ZTIv",
   "source_file" : "system/logging/liblog/include/log/log_time.h"
  },
  {
   "function_name" : "log_time::log_time",
   "linker_set_key" : "_ZN8log_timeC1Ei",
   "parameters" :
   [
    {
     "is_this_ptr" : true,
     "referenced_type" : "_ZTIP8log_time"
    },
    {
     "referenced_type" : "_ZTIi"
    }
   ],
   "return_type" : "_ZTIv",
   "source_file" : "system/logging/liblog/include/log/log_time.h"
  },
  {
   "function_name" : "log_time::log_time",
   "linker_set_key" : "_ZN8log_timeC1Ejj",
   "parameters" :
   [
    {
     "is_this_ptr" : true,
     "referenced_type" : "_ZTIP8log_time"
    },
    {
     "referenced_type" : "_ZTIj"
    },
    {
     "default_arg" : true,
     "referenced_type" : "_ZTIj"
    }
   ],
   "return_type" : "_ZTIv",
   "source_file" : "system/logging/liblog/include/log/log_time.h"
  },
  {
   "function_name" : "log_time::log_time",
   "linker_set_key" : "_ZN8log_timeC1Ev",
   "parameters" :
   [
    {
     "is_this_ptr" : true,
     "referenced_type" : "_ZTIP8log_time"
    }
   ],
   "return_type" : "_ZTIv",
   "source_file" : "system/logging/liblog/include/log/log_time.h"
  },
  {
   "function_name" : "log_time::log_time",
   "linker_set_key" : "_ZN8log_timeC2ERK8timespec",
   "parameters" :
   [
    {
     "is_this_ptr" : true,
     "referenced_type" : "_ZTIP8log_time"
    },
    {
     "referenced_type" : "_ZTIRK8timespec"
    }
   ],
   "return_type" : "_ZTIv",
   "source_file" : "system/logging/liblog/include/log/log_time.h"
  },
  {
   "function_name" : "log_time::log_time",
   "linker_set_key" : "_ZN8log_timeC2Ei",
   "parameters" :
   [
    {
     "is_this_ptr" : true,
     "referenced_type" : "_ZTIP8log_time"
    },
    {
     "referenced_type" : "_ZTIi"
    }
   ],
   "return_type" : "_ZTIv",
   "source_file" : "system/logging/liblog/include/log/log_time.h"
  },
  {
   "function_name" : "log_time::log_time",
   "linker_set_key" : "_ZN8log_timeC2Ejj",
   "parameters" :
   [
    {
     "is_this_ptr" : true,
     "referenced_type" : "_ZTIP8log_time"
    },
    {
     "referenced_type" : "_ZTIj"
    },
    {
     "default_arg" : true,
     "referenced_type" : "_ZTIj"
    }
   ],
   "return_type" : "_ZTIv",
   "source_file" : "system/logging/liblog/include/log/log_time.h"
  },
  {
   "function_name" : "log_time::log_time",
   "linker_set_key" : "_ZN8log_timeC2Ev",
   "parameters" :
   [
    {
     "is_this_ptr" : true,
     "referenced_type" : "_ZTIP8log_time"
    }
   ],
   "return_type" : "_ZTIv",
   "source_file" : "system/logging/liblog/include/log/log_time.h"
  },
  {
   "function_name" : "log_time::operator-=",
   "linker_set_key" : "_ZN8log_timemIERKS_",
   "parameters" :
   [
    {
     "is_this_ptr" : true,
     "referenced_type" : "_ZTIP8log_time"
    },
    {
     "referenced_type" : "_ZTIRK8log_time"
    }
   ],
   "return_type" : "_ZTI8log_time",
   "source_file" : "system/logging/liblog/include/log/log_time.h"
  },
  {
   "function_name" : "log_time::operator+=",
   "linker_set_key" : "_ZN8log_timepLERKS_",
   "parameters" :
   [
    {
     "is_this_ptr" : true,
     "referenced_type" : "_ZTIP8log_time"
    },
    {
     "referenced_type" : "_ZTIRK8log_time"
    }
   ],
   "return_type" : "_ZTI8log_time",
   "source_file" : "system/logging/liblog/include/log/log_time.h"
  },
  {
   "function_name" : "SkWStream::write8",
   "linker_set_key" : "_ZN9SkWStream6write8Ej",
   "parameters" :
   [
    {
     "is_this_ptr" : true,
     "referenced_type" : "_ZTIP9SkWStream"
    },
    {
     "referenced_type" : "_ZTIj"
    }
   ],
   "return_type" : "_ZTIb",
   "source_file" : "external/skia/include/core/SkStream.h"
  },
  {
   "function_name" : "SkWStream::newline",
   "linker_set_key" : "_ZN9SkWStream7newlineEv",
   "parameters" :
   [
    {
     "is_this_ptr" : true,
     "referenced_type" : "_ZTIP9SkWStream"
    }
   ],
   "return_type" : "_ZTIb",
   "source_file" : "external/skia/include/core/SkStream.h"
  },
  {
   "function_name" : "SkWStream::write16",
   "linker_set_key" : "_ZN9SkWStream7write16Ej",
   "parameters" :
   [
    {
     "is_this_ptr" : true,
     "referenced_type" : "_ZTIP9SkWStream"
    },
    {
     "referenced_type" : "_ZTIj"
    }
   ],
   "return_type" : "_ZTIb",
   "source_file" : "external/skia/include/core/SkStream.h"
  },
  {
   "function_name" : "SkWStream::write32",
   "linker_set_key" : "_ZN9SkWStream7write32Ej",
   "parameters" :
   [
    {
     "is_this_ptr" : true,
     "referenced_type" : "_ZTIP9SkWStream"
    },
    {
     "referenced_type" : "_ZTIj"
    }
   ],
   "return_type" : "_ZTIb",
   "source_file" : "external/skia/include/core/SkStream.h"
  },
  {
   "function_name" : "SkWStream::writeBool",
   "linker_set_key" : "_ZN9SkWStream9writeBoolEb",
   "parameters" :
   [
    {
     "is_this_ptr" : true,
     "referenced_type" : "_ZTIP9SkWStream"
    },
    {
     "referenced_type" : "_ZTIb"
    }
   ],
   "return_type" : "_ZTIb",
   "source_file" : "external/skia/include/core/SkStream.h"
  },
  {
   "function_name" : "SkWStream::writeText",
   "linker_set_key" : "_ZN9SkWStream9writeTextEPKc",
   "parameters" :
   [
    {
     "is_this_ptr" : true,
     "referenced_type" : "_ZTIP9SkWStream"
    },
    {
     "referenced_type" : "_ZTIPKc"
    }
   ],
   "return_type" : "_ZTIb",
   "source_file" : "external/skia/include/core/SkStream.h"
  },
  {
   "function_name" : "SkWStream::SkWStream",
   "linker_set_key" : "_ZN9SkWStreamC2Ev",
   "parameters" :
   [
    {
     "is_this_ptr" : true,
     "referenced_type" : "_ZTIP9SkWStream"
    }
   ],
   "return_type" : "_ZTIv",
   "source_file" : "external/skia/include/core/SkStream.h"
  },
  {
   "function_name" : "SkNVRefCnt<SkData>::ref",
   "linker_set_key" : "_ZNK10SkNVRefCntI6SkDataE3refEv",
   "parameters" :
   [
    {
     "is_this_ptr" : true,
     "referenced_type" : "_ZTIPK10SkNVRefCntI6SkDataE"
    }
   ],
   "return_type" : "_ZTIv",
   "source_file" : "external/skia/include/core/SkRefCnt.h"
  },
  {
   "function_name" : "SkNVRefCnt<SkData>::unref",
   "linker_set_key" : "_ZNK10SkNVRefCntI6SkDataE5unrefEv",
   "parameters" :
   [
    {
     "is_this_ptr" : true,
     "referenced_type" : "_ZTIPK10SkNVRefCntI6SkDataE"
    }
   ],
   "return_type" : "_ZTIv",
   "source_file" : "external/skia/include/core/SkRefCnt.h"
  },
  {
   "function_name" : "SkFILEStream::fork",
   "linker_set_key" : "_ZNK12SkFILEStream4forkEv",
   "parameters" :
   [
    {
     "is_this_ptr" : true,
     "referenced_type" : "_ZTIPK12SkFILEStream"
    }
   ],
   "return_type" : "_ZTINSt3__110unique_ptrI13SkStreamAssetNS_14default_deleteIS1_EEEE",
   "source_file" : "external/skia/include/core/SkStream.h"
  },
  {
   "function_name" : "SkFILEStream::isValid",
   "linker_set_key" : "_ZNK12SkFILEStream7isValidEv",
   "parameters" :
   [
    {
     "is_this_ptr" : true,
     "referenced_type" : "_ZTIPK12SkFILEStream"
    }
   ],
   "return_type" : "_ZTIb",
   "source_file" : "external/skia/include/core/SkStream.h"
  },
  {
   "function_name" : "SkFILEStream::duplicate",
   "linker_set_key" : "_ZNK12SkFILEStream9duplicateEv",
   "parameters" :
   [
    {
     "is_this_ptr" : true,
     "referenced_type" : "_ZTIPK12SkFILEStream"
    }
   ],
   "return_type" : "_ZTINSt3__110unique_ptrI13SkStreamAssetNS_14default_deleteIS1_EEEE",
   "source_file" : "external/skia/include/core/SkStream.h"
  },
  {
   "access" : "private",
   "function_name" : "SkRefCntBase::internal_dispose",
   "linker_set_key" : "_ZNK12SkRefCntBase16internal_disposeEv",
   "parameters" :
   [
    {
     "is_this_ptr" : true,
     "referenced_type" : "_ZTIPK12SkRefCntBase"
    }
   ],
   "return_type" : "_ZTIv",
   "source_file" : "external/skia/include/core/SkRefCnt.h"
  },
  {
   "function_name" : "SkRefCntBase::ref",
   "linker_set_key" : "_ZNK12SkRefCntBase3refEv",
   "parameters" :
   [
    {
     "is_this_ptr" : true,
     "referenced_type" : "_ZTIPK12SkRefCntBase"
    }
   ],
   "return_type" : "_ZTIv",
   "source_file" : "external/skia/include/core/SkRefCnt.h"
  },
  {
   "function_name" : "SkRefCntBase::unref",
   "linker_set_key" : "_ZNK12SkRefCntBase5unrefEv",
   "parameters" :
   [
    {
     "is_this_ptr" : true,
     "referenced_type" : "_ZTIPK12SkRefCntBase"
    }
   ],
   "return_type" : "_ZTIv",
   "source_file" : "external/skia/include/core/SkRefCnt.h"
  },
  {
   "function_name" : "SkRefCntBase::unique",
   "linker_set_key" : "_ZNK12SkRefCntBase6uniqueEv",
   "parameters" :
   [
    {
     "is_this_ptr" : true,
     "referenced_type" : "_ZTIPK12SkRefCntBase"
    }
   ],
   "return_type" : "_ZTIb",
   "source_file" : "external/skia/include/core/SkRefCnt.h"
  },
  {
   "function_name" : "SkFILEWStream::isValid",
   "linker_set_key" : "_ZNK13SkFILEWStream7isValidEv",
   "parameters" :
   [
    {
     "is_this_ptr" : true,
     "referenced_type" : "_ZTIPK13SkFILEWStream"
    }
   ],
   "return_type" : "_ZTIb",
   "source_file" : "external/skia/include/core/SkStream.h"
  },
  {
   "function_name" : "SkNullWStream::bytesWritten",
   "linker_set_key" : "_ZNK13SkNullWStream12bytesWrittenEv",
   "parameters" :
   [
    {
     "is_this_ptr" : true,
     "referenced_type" : "_ZTIPK13SkNullWStream"
    }
   ],
   "return_type" : "_ZTIj",
   "source_file" : "external/skia/include/core/SkStream.h"
  },
  {
   "function_name" : "SkStreamAsset::fork",
   "linker_set_key" : "_ZNK13SkStreamAsset4forkEv",
   "parameters" :
   [
    {
     "is_this_ptr" : true,
     "referenced_type" : "_ZTIPK13SkStreamAsset"
    }
   ],
   "return_type" : "_ZTINSt3__110unique_ptrI13SkStreamAssetNS_14default_deleteIS1_EEEE",
   "source_file" : "external/skia/include/core/SkStream.h"
  },
  {
   "function_name" : "SkStreamAsset::duplicate",
   "linker_set_key" : "_ZNK13SkStreamAsset9duplicateEv",
   "parameters" :
   [
    {
     "is_this_ptr" : true,
     "referenced_type" : "_ZTIPK13SkStreamAsset"
    }
   ],
   "return_type" : "_ZTINSt3__110unique_ptrI13SkStreamAssetNS_14default_deleteIS1_EEEE",
   "source_file" : "external/skia/include/core/SkStream.h"
  },
  {
   "function_name" : "SkStreamAsset::hasLength",
   "linker_set_key" : "_ZNK13SkStreamAsset9hasLengthEv",
   "parameters" :
   [
    {
     "is_this_ptr" : true,
     "referenced_type" : "_ZTIPK13SkStreamAsset"
    }
   ],
   "return_type" : "_ZTIb",
   "source_file" : "external/skia/include/core/SkStream.h"
  },
  {
   "function_name" : "SkMemoryStream::fork",
   "linker_set_key" : "_ZNK14SkMemoryStream4forkEv",
   "parameters" :
   [
    {
     "is_this_ptr" : true,
     "referenced_type" : "_ZTIPK14SkMemoryStream"
    }
   ],
   "return_type" : "_ZTINSt3__110unique_ptrI14SkMemoryStreamNS_14default_deleteIS1_EEEE",
   "source_file" : "external/skia/include/core/SkStream.h"
  },
  {
   "function_name" : "SkMemoryStream::asData",
   "linker_set_key" : "_ZNK14SkMemoryStream6asDataEv",
   "parameters" :
   [
    {
     "is_this_ptr" : true,
     "referenced_type" : "_ZTIPK14SkMemoryStream"
    }
   ],
   "return_type" : "_ZTI5sk_spI6SkDataE",
   "source_file" : "external/skia/include/core/SkStream.h"
  },
  {
   "function_name" : "SkMemoryStream::duplicate",
   "linker_set_key" : "_ZNK14SkMemoryStream9duplicateEv",
   "parameters" :
   [
    {
     "is_this_ptr" : true,
     "referenced_type" : "_ZTIPK14SkMemoryStream"
    }
   ],
   "return_type" : "_ZTINSt3__110unique_ptrI14SkMemoryStreamNS_14default_deleteIS1_EEEE",
   "source_file" : "external/skia/include/core/SkStream.h"
  },
  {
   "function_name" : "SkStreamMemory::fork",
   "linker_set_key" : "_ZNK14SkStreamMemory4forkEv",
   "parameters" :
   [
    {
     "is_this_ptr" : true,
     "referenced_type" : "_ZTIPK14SkStreamMemory"
    }
   ],
   "return_type" : "_ZTINSt3__110unique_ptrI14SkStreamMemoryNS_14default_deleteIS1_EEEE",
   "source_file" : "external/skia/include/core/SkStream.h"
  },
  {
   "function_name" : "SkStreamMemory::duplicate",
   "linker_set_key" : "_ZNK14SkStreamMemory9duplicateEv",
   "parameters" :
   [
    {
     "is_this_ptr" : true,
     "referenced_type" : "_ZTIPK14SkStreamMemory"
    }
   ],
   "return_type" : "_ZTINSt3__110unique_ptrI14SkStreamMemoryNS_14default_deleteIS1_EEEE",
   "source_file" : "external/skia/include/core/SkStream.h"
  },
  {
   "function_name" : "SkStreamSeekable::hasPosition",
   "linker_set_key" : "_ZNK16SkStreamSeekable11hasPositionEv",
   "parameters" :
   [
    {
     "is_this_ptr" : true,
     "referenced_type" : "_ZTIPK16SkStreamSeekable"
    }
   ],
   "return_type" : "_ZTIb",
   "source_file" : "external/skia/include/core/SkStream.h"
  },
  {
   "function_name" : "SkStreamSeekable::fork",
   "linker_set_key" : "_ZNK16SkStreamSeekable4forkEv",
   "parameters" :
   [
    {
     "is_this_ptr" : true,
     "referenced_type" : "_ZTIPK16SkStreamSeekable"
    }
   ],
   "return_type" : "_ZTINSt3__110unique_ptrI16SkStreamSeekableNS_14default_deleteIS1_EEEE",
   "source_file" : "external/skia/include/core/SkStream.h"
  },
  {
   "function_name" : "SkStreamSeekable::duplicate",
   "linker_set_key" : "_ZNK16SkStreamSeekable9duplicateEv",
   "parameters" :
   [
    {
     "is_this_ptr" : true,
     "referenced_type" : "_ZTIPK16SkStreamSeekable"
    }
   ],
   "return_type" : "_ZTINSt3__110unique_ptrI16SkStreamSeekableNS_14default_deleteIS1_EEEE",
   "source_file" : "external/skia/include/core/SkStream.h"
  },
  {
   "function_name" : "SkStreamRewindable::duplicate",
   "linker_set_key" : "_ZNK18SkStreamRewindable9duplicateEv",
   "parameters" :
   [
    {
     "is_this_ptr" : true,
     "referenced_type" : "_ZTIPK18SkStreamRewindable"
    }
   ],
   "return_type" : "_ZTINSt3__110unique_ptrI18SkStreamRewindableNS_14default_deleteIS1_EEEE",
   "source_file" : "external/skia/include/core/SkStream.h"
  },
  {
   "function_name" : "AAssetStreamAdaptor::getPosition",
   "linker_set_key" : "_ZNK19AAssetStreamAdaptor11getPositionEv",
   "parameters" :
   [
    {
     "is_this_ptr" : true,
     "referenced_type" : "_ZTIPK19AAssetStreamAdaptor"
    }
   ],
   "return_type" : "_ZTIj",
   "source_file" : "frameworks/base/native/graphics/jni/aassetstreamadaptor.h"
  },
  {
   "function_name" : "AAssetStreamAdaptor::hasPosition",
   "linker_set_key" : "_ZNK19AAssetStreamAdaptor11hasPositionEv",
   "parameters" :
   [
    {
     "is_this_ptr" : true,
     "referenced_type" : "_ZTIPK19AAssetStreamAdaptor"
    }
   ],
   "return_type" : "_ZTIb",
   "source_file" : "frameworks/base/native/graphics/jni/aassetstreamadaptor.h"
  },
  {
   "access" : "protected",
   "function_name" : "AAssetStreamAdaptor::onDuplicate",
   "linker_set_key" : "_ZNK19AAssetStreamAdaptor11onDuplicateEv",
   "parameters" :
   [
    {
     "is_this_ptr" : true,
     "referenced_type" : "_ZTIPK19AAssetStreamAdaptor"
    }
   ],
   "return_type" : "_ZTIP18SkStreamRewindable",
   "source_file" : "frameworks/base/native/graphics/jni/aassetstreamadaptor.h"
  },
  {
   "function_name" : "AAssetStreamAdaptor::isAtEnd",
   "linker_set_key" : "_ZNK19AAssetStreamAdaptor7isAtEndEv",
   "parameters" :
   [
    {
     "is_this_ptr" : true,
     "referenced_type" : "_ZTIPK19AAssetStreamAdaptor"
    }
   ],
   "return_type" : "_ZTIb",
   "source_file" : "frameworks/base/native/graphics/jni/aassetstreamadaptor.h"
  },
  {
   "function_name" : "AAssetStreamAdaptor::getLength",
   "linker_set_key" : "_ZNK19AAssetStreamAdaptor9getLengthEv",
   "parameters" :
   [
    {
     "is_this_ptr" : true,
     "referenced_type" : "_ZTIPK19AAssetStreamAdaptor"
    }
   ],
   "return_type" : "_ZTIj",
   "source_file" : "frameworks/base/native/graphics/jni/aassetstreamadaptor.h"
  },
  {
   "function_name" : "AAssetStreamAdaptor::hasLength",
   "linker_set_key" : "_ZNK19AAssetStreamAdaptor9hasLengthEv",
   "parameters" :
   [
    {
     "is_this_ptr" : true,
     "referenced_type" : "_ZTIPK19AAssetStreamAdaptor"
    }
   ],
   "return_type" : "_ZTIb",
   "source_file" : "frameworks/base/native/graphics/jni/aassetstreamadaptor.h"
  },
  {
   "access" : "private",
   "function_name" : "SkDynamicMemoryWStream::validate",
   "linker_set_key" : "_ZNK22SkDynamicMemoryWStream8validateEv",
   "parameters" :
   [
    {
     "is_this_ptr" : true,
     "referenced_type" : "_ZTIPK22SkDynamicMemoryWStream"
    }
   ],
   "return_type" : "_ZTIv",
   "source_file" : "external/skia/include/core/SkStream.h"
  },
  {
   "function_name" : "sk_sp<SkData>::get",
   "linker_set_key" : "_ZNK5sk_spI6SkDataE3getEv",
   "parameters" :
   [
    {
     "is_this_ptr" : true,
     "referenced_type" : "_ZTIPK5sk_spI6SkDataE"
    }
   ],
   "return_type" : "_ZTIP6SkData",
   "source_file" : "external/skia/include/core/SkRefCnt.h"
  },
  {
   "function_name" : "SkData::data",
   "linker_set_key" : "_ZNK6SkData4dataEv",
   "parameters" :
   [
    {
     "is_this_ptr" : true,
     "referenced_type" : "_ZTIPK6SkData"
    }
   ],
   "return_type" : "_ZTIPKv",
   "source_file" : "external/skia/include/core/SkData.h"
  },
  {
   "function_name" : "SkData::size",
   "linker_set_key" : "_ZNK6SkData4sizeEv",
   "parameters" :
   [
    {
     "is_this_ptr" : true,
     "referenced_type" : "_ZTIPK6SkData"
    }
   ],
   "return_type" : "_ZTIj",
   "source_file" : "external/skia/include/core/SkData.h"
  },
  {
   "function_name" : "SkData::bytes",
   "linker_set_key" : "_ZNK6SkData5bytesEv",
   "parameters" :
   [
    {
     "is_this_ptr" : true,
     "referenced_type" : "_ZTIPK6SkData"
    }
   ],
   "return_type" : "_ZTIPKh",
   "source_file" : "external/skia/include/core/SkData.h"
  },
  {
   "function_name" : "SkData::isEmpty",
   "linker_set_key" : "_ZNK6SkData7isEmptyEv",
   "parameters" :
   [
    {
     "is_this_ptr" : true,
     "referenced_type" : "_ZTIPK6SkData"
    }
   ],
   "return_type" : "_ZTIb",
   "source_file" : "external/skia/include/core/SkData.h"
  },
  {
   "function_name" : "SkStream::getPosition",
   "linker_set_key" : "_ZNK8SkStream11getPositionEv",
   "parameters" :
   [
    {
     "is_this_ptr" : true,
     "referenced_type" : "_ZTIPK8SkStream"
    }
   ],
   "return_type" : "_ZTIj",
   "source_file" : "external/skia/include/core/SkStream.h"
  },
  {
   "function_name" : "SkStream::hasPosition",
   "linker_set_key" : "_ZNK8SkStream11hasPositionEv",
   "parameters" :
   [
    {
     "is_this_ptr" : true,
     "referenced_type" : "_ZTIPK8SkStream"
    }
   ],
   "return_type" : "_ZTIb",
   "source_file" : "external/skia/include/core/SkStream.h"
  },
  {
   "access" : "private",
   "function_name" : "SkStream::onDuplicate",
   "linker_set_key" : "_ZNK8SkStream11onDuplicateEv",
   "parameters" :
   [
    {
     "is_this_ptr" : true,
     "referenced_type" : "_ZTIPK8SkStream"
    }
   ],
   "return_type" : "_ZTIP8SkStream",
   "source_file" : "external/skia/include/core/SkStream.h"
  },
  {
   "function_name" : "SkStream::fork",
   "linker_set_key" : "_ZNK8SkStream4forkEv",
   "parameters" :
   [
    {
     "is_this_ptr" : true,
     "referenced_type" : "_ZTIPK8SkStream"
    }
   ],
   "return_type" : "_ZTINSt3__110unique_ptrI8SkStreamNS_14default_deleteIS1_EEEE",
   "source_file" : "external/skia/include/core/SkStream.h"
  },
  {
   "function_name" : "SkStream::peek",
   "linker_set_key" : "_ZNK8SkStream4peekEPvj",
   "parameters" :
   [
    {
     "is_this_ptr" : true,
     "referenced_type" : "_ZTIPK8SkStream"
    },
    {
     "referenced_type" : "_ZTIPv"
    },
    {
     "referenced_type" : "_ZTIj"
    }
   ],
   "return_type" : "_ZTIj",
   "source_file" : "external/skia/include/core/SkStream.h"
  },
  {
   "access" : "private",
   "function_name" : "SkStream::onFork",
   "linker_set_key" : "_ZNK8SkStream6onForkEv",
   "parameters" :
   [
    {
     "is_this_ptr" : true,
     "referenced_type" : "_ZTIPK8SkStream"
    }
   ],
   "return_type" : "_ZTIP8SkStream",
   "source_file" : "external/skia/include/core/SkStream.h"
  },
  {
   "function_name" : "SkStream::duplicate",
   "linker_set_key" : "_ZNK8SkStream9duplicateEv",
   "parameters" :
   [
    {
     "is_this_ptr" : true,
     "referenced_type" : "_ZTIPK8SkStream"
    }
   ],
   "return_type" : "_ZTINSt3__110unique_ptrI8SkStreamNS_14default_deleteIS1_EEEE",
   "source_file" : "external/skia/include/core/SkStream.h"
  },
  {
   "function_name" : "SkStream::getLength",
   "linker_set_key" : "_ZNK8SkStream9getLengthEv",
   "parameters" :
   [
    {
     "is_this_ptr" : true,
     "referenced_type" : "_ZTIPK8SkStream"
    }
   ],
   "return_type" : "_ZTIj",
   "source_file" : "external/skia/include/core/SkStream.h"
  },
  {
   "function_name" : "SkStream::hasLength",
   "linker_set_key" : "_ZNK8SkStream9hasLengthEv",
   "parameters" :
   [
    {
     "is_this_ptr" : true,
     "referenced_type" : "_ZTIPK8SkStream"
    }
   ],
   "return_type" : "_ZTIb",
   "source_file" : "external/skia/include/core/SkStream.h"
  },
  {
   "function_name" : "log_time::msec",
   "linker_set_key" : "_ZNK8log_time4msecEv",
   "parameters" :
   [
    {
     "is_this_ptr" : true,
     "referenced_type" : "_ZTIPK8log_time"
    }
   ],
   "return_type" : "_ZTIy",
   "source_file" : "system/logging/liblog/include/log/log_time.h"
  },
  {
   "function_name" : "log_time::nsec",
   "linker_set_key" : "_ZNK8log_time4nsecEv",
   "parameters" :
   [
    {
     "is_this_ptr" : true,
     "referenced_type" : "_ZTIPK8log_time"
    }
   ],
   "return_type" : "_ZTIy",
   "source_file" : "system/logging/liblog/include/log/log_time.h"
  },
  {
   "function_name" : "log_time::usec",
   "linker_set_key" : "_ZNK8log_time4usecEv",
   "parameters" :
   [
    {
     "is_this_ptr" : true,
     "referenced_type" : "_ZTIPK8log_time"
    }
   ],
   "return_type" : "_ZTIy",
   "source_file" : "system/logging/liblog/include/log/log_time.h"
  },
  {
   "function_name" : "log_time::operator==",
   "linker_set_key" : "_ZNK8log_timeeqERK8timespec",
   "parameters" :
   [
    {
     "is_this_ptr" : true,
     "referenced_type" : "_ZTIPK8log_time"
    },
    {
     "referenced_type" : "_ZTIRK8timespec"
    }
   ],
   "return_type" : "_ZTIb",
   "source_file" : "system/logging/liblog/include/log/log_time.h"
  },
  {
   "function_name" : "log_time::operator==",
   "linker_set_key" : "_ZNK8log_timeeqERKS_",
   "parameters" :
   [
    {
     "is_this_ptr" : true,
     "referenced_type" : "_ZTIPK8log_time"
    },
    {
     "referenced_type" : "_ZTIRK8log_time"
    }
   ],
   "return_type" : "_ZTIb",
   "source_file" : "system/logging/liblog/include/log/log_time.h"
  },
  {
   "function_name" : "log_time::operator>=",
   "linker_set_key" : "_ZNK8log_timegeERK8timespec",
   "parameters" :
   [
    {
     "is_this_ptr" : true,
     "referenced_type" : "_ZTIPK8log_time"
    },
    {
     "referenced_type" : "_ZTIRK8timespec"
    }
   ],
   "return_type" : "_ZTIb",
   "source_file" : "system/logging/liblog/include/log/log_time.h"
  },
  {
   "function_name" : "log_time::operator>=",
   "linker_set_key" : "_ZNK8log_timegeERKS_",
   "parameters" :
   [
    {
     "is_this_ptr" : true,
     "referenced_type" : "_ZTIPK8log_time"
    },
    {
     "referenced_type" : "_ZTIRK8log_time"
    }
   ],
   "return_type" : "_ZTIb",
   "source_file" : "system/logging/liblog/include/log/log_time.h"
  },
  {
   "function_name" : "log_time::operator>",
   "linker_set_key" : "_ZNK8log_timegtERK8timespec",
   "parameters" :
   [
    {
     "is_this_ptr" : true,
     "referenced_type" : "_ZTIPK8log_time"
    },
    {
     "referenced_type" : "_ZTIRK8timespec"
    }
   ],
   "return_type" : "_ZTIb",
   "source_file" : "system/logging/liblog/include/log/log_time.h"
  },
  {
   "function_name" : "log_time::operator>",
   "linker_set_key" : "_ZNK8log_timegtERKS_",
   "parameters" :
   [
    {
     "is_this_ptr" : true,
     "referenced_type" : "_ZTIPK8log_time"
    },
    {
     "referenced_type" : "_ZTIRK8log_time"
    }
   ],
   "return_type" : "_ZTIb",
   "source_file" : "system/logging/liblog/include/log/log_time.h"
  },
  {
   "function_name" : "log_time::operator<=",
   "linker_set_key" : "_ZNK8log_timeleERK8timespec",
   "parameters" :
   [
    {
     "is_this_ptr" : true,
     "referenced_type" : "_ZTIPK8log_time"
    },
    {
     "referenced_type" : "_ZTIRK8timespec"
    }
   ],
   "return_type" : "_ZTIb",
   "source_file" : "system/logging/liblog/include/log/log_time.h"
  },
  {
   "function_name" : "log_time::operator<=",
   "linker_set_key" : "_ZNK8log_timeleERKS_",
   "parameters" :
   [
    {
     "is_this_ptr" : true,
     "referenced_type" : "_ZTIPK8log_time"
    },
    {
     "referenced_type" : "_ZTIRK8log_time"
    }
   ],
   "return_type" : "_ZTIb",
   "source_file" : "system/logging/liblog/include/log/log_time.h"
  },
  {
   "function_name" : "log_time::operator<",
   "linker_set_key" : "_ZNK8log_timeltERK8timespec",
   "parameters" :
   [
    {
     "is_this_ptr" : true,
     "referenced_type" : "_ZTIPK8log_time"
    },
    {
     "referenced_type" : "_ZTIRK8timespec"
    }
   ],
   "return_type" : "_ZTIb",
   "source_file" : "system/logging/liblog/include/log/log_time.h"
  },
  {
   "function_name" : "log_time::operator<",
   "linker_set_key" : "_ZNK8log_timeltERKS_",
   "parameters" :
   [
    {
     "is_this_ptr" : true,
     "referenced_type" : "_ZTIPK8log_time"
    },
    {
     "referenced_type" : "_ZTIRK8log_time"
    }
   ],
   "return_type" : "_ZTIb",
   "source_file" : "system/logging/liblog/include/log/log_time.h"
  },
  {
   "function_name" : "log_time::operator-",
   "linker_set_key" : "_ZNK8log_timemiERKS_",
   "parameters" :
   [
    {
     "is_this_ptr" : true,
     "referenced_type" : "_ZTIPK8log_time"
    },
    {
     "referenced_type" : "_ZTIRK8log_time"
    }
   ],
   "return_type" : "_ZTI8log_time",
   "source_file" : "system/logging/liblog/include/log/log_time.h"
  },
  {
   "function_name" : "log_time::operator!=",
   "linker_set_key" : "_ZNK8log_timeneERK8timespec",
   "parameters" :
   [
    {
     "is_this_ptr" : true,
     "referenced_type" : "_ZTIPK8log_time"
    },
    {
     "referenced_type" : "_ZTIRK8timespec"
    }
   ],
   "return_type" : "_ZTIb",
   "source_file" : "system/logging/liblog/include/log/log_time.h"
  },
  {
   "function_name" : "log_time::operator!=",
   "linker_set_key" : "_ZNK8log_timeneERKS_",
   "parameters" :
   [
    {
     "is_this_ptr" : true,
     "referenced_type" : "_ZTIPK8log_time"
    },
    {
     "referenced_type" : "_ZTIRK8log_time"
    }
   ],
   "return_type" : "_ZTIb",
   "source_file" : "system/logging/liblog/include/log/log_time.h"
  },
  {
   "function_name" : "log_time::operator+",
   "linker_set_key" : "_ZNK8log_timeplERKS_",
   "parameters" :
   [
    {
     "is_this_ptr" : true,
     "referenced_type" : "_ZTIPK8log_time"
    },
    {
     "referenced_type" : "_ZTIRK8log_time"
    }
   ],
   "return_type" : "_ZTI8log_time",
   "source_file" : "system/logging/liblog/include/log/log_time.h"
  },
  {
   "function_name" : "std::exception_ptr::operator bool",
   "linker_set_key" : "_ZNKSt13exception_ptrcvbEv",
   "parameters" :
   [
    {
     "is_this_ptr" : true,
     "referenced_type" : "_ZTIPKSt13exception_ptr"
    }
   ],
   "return_type" : "_ZTIb",
   "source_file" : "external/libcxx/include/exception"
  },
  {
   "function_name" : "std::nested_exception::nested_ptr",
   "linker_set_key" : "_ZNKSt16nested_exception10nested_ptrEv",
   "parameters" :
   [
    {
     "is_this_ptr" : true,
     "referenced_type" : "_ZTIPKSt16nested_exception"
    }
   ],
   "return_type" : "_ZTISt13exception_ptr",
   "source_file" : "external/libcxx/include/exception"
  },
  {
   "function_name" : "std::__1::shared_ptr<__sFILE>::get",
   "linker_set_key" : "_ZNKSt3__110shared_ptrI7__sFILEE3getEv",
   "parameters" :
   [
    {
     "is_this_ptr" : true,
     "referenced_type" : "_ZTIPKNSt3__110shared_ptrI7__sFILEEE"
    }
   ],
   "return_type" : "_ZTIP7__sFILE",
   "source_file" : "external/libcxx/include/memory"
  },
  {
   "function_name" : "std::__1::shared_ptr<__sFILE>::operator bool",
   "linker_set_key" : "_ZNKSt3__110shared_ptrI7__sFILEEcvbEv",
   "parameters" :
   [
    {
     "is_this_ptr" : true,
     "referenced_type" : "_ZTIPKNSt3__110shared_ptrI7__sFILEEE"
    }
   ],
   "return_type" : "_ZTIb",
   "source_file" : "external/libcxx/include/memory"
  },
  {
   "function_name" : "std::__1::unique_ptr<SkFILEStream, std::__1::default_delete<SkFILEStream>>::operator->",
   "linker_set_key" : "_ZNKSt3__110unique_ptrI12SkFILEStreamNS_14default_deleteIS1_EEEptEv",
   "parameters" :
   [
    {
     "is_this_ptr" : true,
     "referenced_type" : "_ZTIPKNSt3__110unique_ptrI12SkFILEStreamNS_14default_deleteIS1_EEEE"
    }
   ],
   "return_type" : "_ZTIP12SkFILEStream",
   "source_file" : "external/libcxx/include/memory"
  },
  {
   "function_name" : "std::__1::__atomic_base<int, false>::load",
   "linker_set_key" : "_ZNKSt3__113__atomic_baseIiLb0EE4loadENS_12memory_orderE",
   "parameters" :
   [
    {
     "is_this_ptr" : true,
     "referenced_type" : "_ZTIPKNSt3__113__atomic_baseIiLb0EEE"
    },
    {
     "default_arg" : true,
     "referenced_type" : "_ZTINSt3__112memory_orderE"
    }
   ],
   "return_type" : "_ZTIi",
   "source_file" : "external/libcxx/include/atomic"
  },
  {
   "function_name" : "std::__1::__scalar_hash<std::__1::_PairT, 2>::operator()",
   "linker_set_key" : "_ZNKSt3__113__scalar_hashINS_6_PairTELj2EEclES1_",
   "parameters" :
   [
    {
     "is_this_ptr" : true,
     "referenced_type" : "_ZTIPKNSt3__113__scalar_hashINS_6_PairTELj2EEE"
    },
    {
     "referenced_type" : "_ZTINSt3__16_PairTE"
    }
   ],
   "return_type" : "_ZTIj",
   "source_file" : "external/libcxx/include/utility"
  },
  {
   "function_name" : "std::__1::__scalar_hash<double, 2>::operator()",
   "linker_set_key" : "_ZNKSt3__113__scalar_hashIdLj2EEclEd",
   "parameters" :
   [
    {
     "is_this_ptr" : true,
     "referenced_type" : "_ZTIPKNSt3__113__scalar_hashIdLj2EEE"
    },
    {
     "referenced_type" : "_ZTId"
    }
   ],
   "return_type" : "_ZTIj",
   "source_file" : "external/libcxx/include/utility"
  },
  {
   "function_name" : "std::__1::__scalar_hash<long double, 2>::operator()",
   "linker_set_key" : "_ZNKSt3__113__scalar_hashIeLj2EEclEe",
   "parameters" :
   [
    {
     "is_this_ptr" : true,
     "referenced_type" : "_ZTIPKNSt3__113__scalar_hashIeLj2EEE"
    },
    {
     "referenced_type" : "_ZTIe"
    }
   ],
   "return_type" : "_ZTIj",
   "source_file" : "external/libcxx/include/utility"
  },
  {
   "function_name" : "std::__1::__scalar_hash<float, 1>::operator()",
   "linker_set_key" : "_ZNKSt3__113__scalar_hashIfLj1EEclEf",
   "parameters" :
   [
    {
     "is_this_ptr" : true,
     "referenced_type" : "_ZTIPKNSt3__113__scalar_hashIfLj1EEE"
    },
    {
     "referenced_type" : "_ZTIf"
    }
   ],
   "return_type" : "_ZTIj",
   "source_file" : "external/libcxx/include/utility"
  },
  {
   "function_name" : "std::__1::__shared_count::use_count",
   "linker_set_key" : "_ZNKSt3__114__shared_count9use_countEv",
   "parameters" :
   [
    {
     "is_this_ptr" : true,
     "referenced_type" : "_ZTIPKNSt3__114__shared_countE"
    }
   ],
   "return_type" : "_ZTIl",
   "source_file" : "external/libcxx/include/memory"
  },
  {
   "function_name" : "std::__1::default_delete<SkFILEStream>::operator()",
   "linker_set_key" : "_ZNKSt3__114default_deleteI12SkFILEStreamEclEPS1_",
   "parameters" :
   [
    {
     "is_this_ptr" : true,
     "referenced_type" : "_ZTIPKNSt3__114default_deleteI12SkFILEStreamEE"
    },
    {
     "referenced_type" : "_ZTIP12SkFILEStream"
    }
   ],
   "return_type" : "_ZTIv",
   "source_file" : "external/libcxx/include/memory"
  },
  {
   "function_name" : "std::__1::default_delete<SkStreamAsset>::operator()",
   "linker_set_key" : "_ZNKSt3__114default_deleteI13SkStreamAssetEclEPS1_",
   "parameters" :
   [
    {
     "is_this_ptr" : true,
     "referenced_type" : "_ZTIPKNSt3__114default_deleteI13SkStreamAssetEE"
    },
    {
     "referenced_type" : "_ZTIP13SkStreamAsset"
    }
   ],
   "return_type" : "_ZTIv",
   "source_file" : "external/libcxx/include/memory"
  },
  {
   "function_name" : "std::__1::default_delete<SkMemoryStream>::operator()",
   "linker_set_key" : "_ZNKSt3__114default_deleteI14SkMemoryStreamEclEPS1_",
   "parameters" :
   [
    {
     "is_this_ptr" : true,
     "referenced_type" : "_ZTIPKNSt3__114default_deleteI14SkMemoryStreamEE"
    },
    {
     "referenced_type" : "_ZTIP14SkMemoryStream"
    }
   ],
   "return_type" : "_ZTIv",
   "source_file" : "external/libcxx/include/memory"
  },
  {
   "function_name" : "std::__1::default_delete<SkStreamMemory>::operator()",
   "linker_set_key" : "_ZNKSt3__114default_deleteI14SkStreamMemoryEclEPS1_",
   "parameters" :
   [
    {
     "is_this_ptr" : true,
     "referenced_type" : "_ZTIPKNSt3__114default_deleteI14SkStreamMemoryEE"
    },
    {
     "referenced_type" : "_ZTIP14SkStreamMemory"
    }
   ],
   "return_type" : "_ZTIv",
   "source_file" : "external/libcxx/include/memory"
  },
  {
   "function_name" : "std::__1::default_delete<SkStreamSeekable>::operator()",
   "linker_set_key" : "_ZNKSt3__114default_deleteI16SkStreamSeekableEclEPS1_",
   "parameters" :
   [
    {
     "is_this_ptr" : true,
     "referenced_type" : "_ZTIPKNSt3__114default_deleteI16SkStreamSeekableEE"
    },
    {
     "referenced_type" : "_ZTIP16SkStreamSeekable"
    }
   ],
   "return_type" : "_ZTIv",
   "source_file" : "external/libcxx/include/memory"
  },
  {
   "function_name" : "std::__1::default_delete<SkStreamRewindable>::operator()",
   "linker_set_key" : "_ZNKSt3__114default_deleteI18SkStreamRewindableEclEPS1_",
   "parameters" :
   [
    {
     "is_this_ptr" : true,
     "referenced_type" : "_ZTIPKNSt3__114default_deleteI18SkStreamRewindableEE"
    },
    {
     "referenced_type" : "_ZTIP18SkStreamRewindable"
    }
   ],
   "return_type" : "_ZTIv",
   "source_file" : "external/libcxx/include/memory"
  },
  {
   "function_name" : "std::__1::default_delete<SkStream>::operator()",
   "linker_set_key" : "_ZNKSt3__114default_deleteI8SkStreamEclEPS1_",
   "parameters" :
   [
    {
     "is_this_ptr" : true,
     "referenced_type" : "_ZTIPKNSt3__114default_deleteI8SkStreamEE"
    },
    {
     "referenced_type" : "_ZTIP8SkStream"
    }
   ],
   "return_type" : "_ZTIv",
   "source_file" : "external/libcxx/include/memory"
  },
  {
   "function_name" : "std::__1::pointer_safety::operator int",
   "linker_set_key" : "_ZNKSt3__114pointer_safetycviEv",
   "parameters" :
   [
    {
     "is_this_ptr" : true,
     "referenced_type" : "_ZTIPKNSt3__114pointer_safetyE"
    }
   ],
   "return_type" : "_ZTIi",
   "source_file" : "external/libcxx/include/memory"
  },
  {
   "function_name" : "std::__1::__compressed_pair<SkFILEStream *, std::__1::default_delete<SkFILEStream>>::first",
   "linker_set_key" : "_ZNKSt3__117__compressed_pairIP12SkFILEStreamNS_14default_deleteIS1_EEE5firstEv",
   "parameters" :
   [
    {
     "is_this_ptr" : true,
     "referenced_type" : "_ZTIPKNSt3__117__compressed_pairIP12SkFILEStreamNS_14default_deleteIS1_EEEE"
    }
   ],
   "return_type" : "_ZTIRKP12SkFILEStream",
   "source_file" : "external/libcxx/include/memory"
  },
  {
   "function_name" : "std::__1::__libcpp_refstring::c_str",
   "linker_set_key" : "_ZNKSt3__118__libcpp_refstring5c_strEv",
   "parameters" :
   [
    {
     "is_this_ptr" : true,
     "referenced_type" : "_ZTIPKNSt3__118__libcpp_refstringE"
    }
   ],
   "return_type" : "_ZTIPKc",
   "source_file" : "external/libcxx/include/stdexcept"
  },
  {
   "function_name" : "std::__1::__shared_weak_count::use_count",
   "linker_set_key" : "_ZNKSt3__119__shared_weak_count9use_countEv",
   "parameters" :
   [
    {
     "is_this_ptr" : true,
     "referenced_type" : "_ZTIPKNSt3__119__shared_weak_countE"
    }
   ],
   "return_type" : "_ZTIl",
   "source_file" : "external/libcxx/include/memory"
  },
  {
   "function_name" : "std::__1::__compressed_pair_elem<SkFILEStream *, 0, false>::__get",
   "linker_set_key" : "_ZNKSt3__122__compressed_pair_elemIP12SkFILEStreamLi0ELb0EE5__getEv",
   "parameters" :
   [
    {
     "is_this_ptr" : true,
     "referenced_type" : "_ZTIPKNSt3__122__compressed_pair_elemIP12SkFILEStreamLi0ELb0EEE"
    }
   ],
   "return_type" : "_ZTIRKP12SkFILEStream",
   "source_file" : "external/libcxx/include/memory"
  },
  {
   "function_name" : "std::__1::hash<char32_t>::operator()",
   "linker_set_key" : "_ZNKSt3__14hashIDiEclEDi",
   "parameters" :
   [
    {
     "is_this_ptr" : true,
     "referenced_type" : "_ZTIPKNSt3__14hashIDiEE"
    },
    {
     "referenced_type" : "_ZTIDi"
    }
   ],
   "return_type" : "_ZTIj",
   "source_file" : "external/libcxx/include/utility"
  },
  {
   "function_name" : "std::__1::hash<nullptr_t>::operator()",
   "linker_set_key" : "_ZNKSt3__14hashIDnEclEDn",
   "parameters" :
   [
    {
     "is_this_ptr" : true,
     "referenced_type" : "_ZTIPKNSt3__14hashIDnEE"
    },
    {
     "referenced_type" : "_ZTIDn"
    }
   ],
   "return_type" : "_ZTIj",
   "source_file" : "external/libcxx/include/utility"
  },
  {
   "function_name" : "std::__1::hash<char16_t>::operator()",
   "linker_set_key" : "_ZNKSt3__14hashIDsEclEDs",
   "parameters" :
   [
    {
     "is_this_ptr" : true,
     "referenced_type" : "_ZTIPKNSt3__14hashIDsEE"
    },
    {
     "referenced_type" : "_ZTIDs"
    }
   ],
   "return_type" : "_ZTIj",
   "source_file" : "external/libcxx/include/utility"
  },
  {
   "function_name" : "std::__1::hash<signed char>::operator()",
   "linker_set_key" : "_ZNKSt3__14hashIaEclEa",
   "parameters" :
   [
    {
     "is_this_ptr" : true,
     "referenced_type" : "_ZTIPKNSt3__14hashIaEE"
    },
    {
     "referenced_type" : "_ZTIa"
    }
   ],
   "return_type" : "_ZTIj",
   "source_file" : "external/libcxx/include/utility"
  },
  {
   "function_name" : "std::__1::hash<bool>::operator()",
   "linker_set_key" : "_ZNKSt3__14hashIbEclEb",
   "parameters" :
   [
    {
     "is_this_ptr" : true,
     "referenced_type" : "_ZTIPKNSt3__14hashIbEE"
    },
    {
     "referenced_type" : "_ZTIb"
    }
   ],
   "return_type" : "_ZTIj",
   "source_file" : "external/libcxx/include/utility"
  },
  {
   "function_name" : "std::__1::hash<char>::operator()",
   "linker_set_key" : "_ZNKSt3__14hashIcEclEc",
   "parameters" :
   [
    {
     "is_this_ptr" : true,
     "referenced_type" : "_ZTIPKNSt3__14hashIcEE"
    },
    {
     "referenced_type" : "_ZTIc"
    }
   ],
   "return_type" : "_ZTIj",
   "source_file" : "external/libcxx/include/utility"
  },
  {
   "function_name" : "std::__1::hash<double>::operator()",
   "linker_set_key" : "_ZNKSt3__14hashIdEclEd",
   "parameters" :
   [
    {
     "is_this_ptr" : true,
     "referenced_type" : "_ZTIPKNSt3__14hashIdEE"
    },
    {
     "referenced_type" : "_ZTId"
    }
   ],
   "return_type" : "_ZTIj",
   "source_file" : "external/libcxx/include/utility"
  },
  {
   "function_name" : "std::__1::hash<long double>::operator()",
   "linker_set_key" : "_ZNKSt3__14hashIeEclEe",
   "parameters" :
   [
    {
     "is_this_ptr" : true,
     "referenced_type" : "_ZTIPKNSt3__14hashIeEE"
    },
    {
     "referenced_type" : "_ZTIe"
    }
   ],
   "return_type" : "_ZTIj",
   "source_file" : "external/libcxx/include/utility"
  },
  {
   "function_name" : "std::__1::hash<float>::operator()",
   "linker_set_key" : "_ZNKSt3__14hashIfEclEf",
   "parameters" :
   [
    {
     "is_this_ptr" : true,
     "referenced_type" : "_ZTIPKNSt3__14hashIfEE"
    },
    {
     "referenced_type" : "_ZTIf"
    }
   ],
   "return_type" : "_ZTIj",
   "source_file" : "external/libcxx/include/utility"
  },
  {
   "function_name" : "std::__1::hash<unsigned char>::operator()",
   "linker_set_key" : "_ZNKSt3__14hashIhEclEh",
   "parameters" :
   [
    {
     "is_this_ptr" : true,
     "referenced_type" : "_ZTIPKNSt3__14hashIhEE"
    },
    {
     "referenced_type" : "_ZTIh"
    }
   ],
   "return_type" : "_ZTIj",
   "source_file" : "external/libcxx/include/utility"
  },
  {
   "function_name" : "std::__1::hash<int>::operator()",
   "linker_set_key" : "_ZNKSt3__14hashIiEclEi",
   "parameters" :
   [
    {
     "is_this_ptr" : true,
     "referenced_type" : "_ZTIPKNSt3__14hashIiEE"
    },
    {
     "referenced_type" : "_ZTIi"
    }
   ],
   "return_type" : "_ZTIj",
   "source_file" : "external/libcxx/include/utility"
  },
  {
   "function_name" : "std::__1::hash<unsigned int>::operator()",
   "linker_set_key" : "_ZNKSt3__14hashIjEclEj",
   "parameters" :
   [
    {
     "is_this_ptr" : true,
     "referenced_type" : "_ZTIPKNSt3__14hashIjEE"
    },
    {
     "referenced_type" : "_ZTIj"
    }
   ],
   "return_type" : "_ZTIj",
   "source_file" : "external/libcxx/include/utility"
  },
  {
   "function_name" : "std::__1::hash<long>::operator()",
   "linker_set_key" : "_ZNKSt3__14hashIlEclEl",
   "parameters" :
   [
    {
     "is_this_ptr" : true,
     "referenced_type" : "_ZTIPKNSt3__14hashIlEE"
    },
    {
     "referenced_type" : "_ZTIl"
    }
   ],
   "return_type" : "_ZTIj",
   "source_file" : "external/libcxx/include/utility"
  },
  {
   "function_name" : "std::__1::hash<unsigned long>::operator()",
   "linker_set_key" : "_ZNKSt3__14hashImEclEm",
   "parameters" :
   [
    {
     "is_this_ptr" : true,
     "referenced_type" : "_ZTIPKNSt3__14hashImEE"
    },
    {
     "referenced_type" : "_ZTIm"
    }
   ],
   "return_type" : "_ZTIj",
   "source_file" : "external/libcxx/include/utility"
  },
  {
   "function_name" : "std::__1::hash<short>::operator()",
   "linker_set_key" : "_ZNKSt3__14hashIsEclEs",
   "parameters" :
   [
    {
     "is_this_ptr" : true,
     "referenced_type" : "_ZTIPKNSt3__14hashIsEE"
    },
    {
     "referenced_type" : "_ZTIs"
    }
   ],
   "return_type" : "_ZTIj",
   "source_file" : "external/libcxx/include/utility"
  },
  {
   "function_name" : "std::__1::hash<unsigned short>::operator()",
   "linker_set_key" : "_ZNKSt3__14hashItEclEt",
   "parameters" :
   [
    {
     "is_this_ptr" : true,
     "referenced_type" : "_ZTIPKNSt3__14hashItEE"
    },
    {
     "referenced_type" : "_ZTIt"
    }
   ],
   "return_type" : "_ZTIj",
   "source_file" : "external/libcxx/include/utility"
  },
  {
   "function_name" : "std::__1::hash<wchar_t>::operator()",
   "linker_set_key" : "_ZNKSt3__14hashIwEclEw",
   "parameters" :
   [
    {
     "is_this_ptr" : true,
     "referenced_type" : "_ZTIPKNSt3__14hashIwEE"
    },
    {
     "referenced_type" : "_ZTIw"
    }
   ],
   "return_type" : "_ZTIj",
   "source_file" : "external/libcxx/include/utility"
  },
  {
   "function_name" : "std::type_info::name",
   "linker_set_key" : "_ZNKSt9type_info4nameEv",
   "parameters" :
   [
    {
     "is_this_ptr" : true,
     "referenced_type" : "_ZTIPKSt9type_info"
    }
   ],
   "return_type" : "_ZTIPKc",
   "source_file" : "external/libcxx/include/typeinfo"
  },
  {
   "function_name" : "std::type_info::before",
   "linker_set_key" : "_ZNKSt9type_info6beforeERKS_",
   "parameters" :
   [
    {
     "is_this_ptr" : true,
     "referenced_type" : "_ZTIPKSt9type_info"
    },
    {
     "referenced_type" : "_ZTIRKSt9type_info"
    }
   ],
   "return_type" : "_ZTIb",
   "source_file" : "external/libcxx/include/typeinfo"
  },
  {
   "function_name" : "std::type_info::hash_code",
   "linker_set_key" : "_ZNKSt9type_info9hash_codeEv",
   "parameters" :
   [
    {
     "is_this_ptr" : true,
     "referenced_type" : "_ZTIPKSt9type_info"
    }
   ],
   "return_type" : "_ZTIj",
   "source_file" : "external/libcxx/include/typeinfo"
  },
  {
   "function_name" : "std::type_info::operator==",
   "linker_set_key" : "_ZNKSt9type_infoeqERKS_",
   "parameters" :
   [
    {
     "is_this_ptr" : true,
     "referenced_type" : "_ZTIPKSt9type_info"
    },
    {
     "referenced_type" : "_ZTIRKSt9type_info"
    }
   ],
   "return_type" : "_ZTIb",
   "source_file" : "external/libcxx/include/typeinfo"
  },
  {
   "function_name" : "std::type_info::operator!=",
   "linker_set_key" : "_ZNKSt9type_infoneERKS_",
   "parameters" :
   [
    {
     "is_this_ptr" : true,
     "referenced_type" : "_ZTIPKSt9type_info"
    },
    {
     "referenced_type" : "_ZTIRKSt9type_info"
    }
   ],
   "return_type" : "_ZTIb",
   "source_file" : "external/libcxx/include/typeinfo"
  },
  {
   "function_name" : "std::range_error::range_error",
   "linker_set_key" : "_ZNSt11range_errorC1EPKc",
   "parameters" :
   [
    {
     "is_this_ptr" : true,
     "referenced_type" : "_ZTIPSt11range_error"
    },
    {
     "referenced_type" : "_ZTIPKc"
    }
   ],
   "return_type" : "_ZTIv",
   "source_file" : "external/libcxx/include/stdexcept"
  },
  {
   "function_name" : "std::range_error::range_error",
   "linker_set_key" : "_ZNSt11range_errorC1ERKNSt3__112basic_stringIcNS0_11char_traitsIcEENS0_9allocatorIcEEEE",
   "parameters" :
   [
    {
     "is_this_ptr" : true,
     "referenced_type" : "_ZTIPSt11range_error"
    },
    {
     "referenced_type" : "_ZTIRKNSt3__112basic_stringIcNS_11char_traitsIcEENS_9allocatorIcEEEE"
    }
   ],
   "return_type" : "_ZTIv",
   "source_file" : "external/libcxx/include/stdexcept"
  },
  {
   "function_name" : "std::range_error::range_error",
   "linker_set_key" : "_ZNSt11range_errorC2EPKc",
   "parameters" :
   [
    {
     "is_this_ptr" : true,
     "referenced_type" : "_ZTIPSt11range_error"
    },
    {
     "referenced_type" : "_ZTIPKc"
    }
   ],
   "return_type" : "_ZTIv",
   "source_file" : "external/libcxx/include/stdexcept"
  },
  {
   "function_name" : "std::range_error::range_error",
   "linker_set_key" : "_ZNSt11range_errorC2ERKNSt3__112basic_stringIcNS0_11char_traitsIcEENS0_9allocatorIcEEEE",
   "parameters" :
   [
    {
     "is_this_ptr" : true,
     "referenced_type" : "_ZTIPSt11range_error"
    },
    {
     "referenced_type" : "_ZTIRKNSt3__112basic_stringIcNS_11char_traitsIcEENS_9allocatorIcEEEE"
    }
   ],
   "return_type" : "_ZTIv",
   "source_file" : "external/libcxx/include/stdexcept"
  },
  {
   "function_name" : "std::domain_error::domain_error",
   "linker_set_key" : "_ZNSt12domain_errorC1EPKc",
   "parameters" :
   [
    {
     "is_this_ptr" : true,
     "referenced_type" : "_ZTIPSt12domain_error"
    },
    {
     "referenced_type" : "_ZTIPKc"
    }
   ],
   "return_type" : "_ZTIv",
   "source_file" : "external/libcxx/include/stdexcept"
  },
  {
   "function_name" : "std::domain_error::domain_error",
   "linker_set_key" : "_ZNSt12domain_errorC1ERKNSt3__112basic_stringIcNS0_11char_traitsIcEENS0_9allocatorIcEEEE",
   "parameters" :
   [
    {
     "is_this_ptr" : true,
     "referenced_type" : "_ZTIPSt12domain_error"
    },
    {
     "referenced_type" : "_ZTIRKNSt3__112basic_stringIcNS_11char_traitsIcEENS_9allocatorIcEEEE"
    }
   ],
   "return_type" : "_ZTIv",
   "source_file" : "external/libcxx/include/stdexcept"
  },
  {
   "function_name" : "std::domain_error::domain_error",
   "linker_set_key" : "_ZNSt12domain_errorC2EPKc",
   "parameters" :
   [
    {
     "is_this_ptr" : true,
     "referenced_type" : "_ZTIPSt12domain_error"
    },
    {
     "referenced_type" : "_ZTIPKc"
    }
   ],
   "return_type" : "_ZTIv",
   "source_file" : "external/libcxx/include/stdexcept"
  },
  {
   "function_name" : "std::domain_error::domain_error",
   "linker_set_key" : "_ZNSt12domain_errorC2ERKNSt3__112basic_stringIcNS0_11char_traitsIcEENS0_9allocatorIcEEEE",
   "parameters" :
   [
    {
     "is_this_ptr" : true,
     "referenced_type" : "_ZTIPSt12domain_error"
    },
    {
     "referenced_type" : "_ZTIRKNSt3__112basic_stringIcNS_11char_traitsIcEENS_9allocatorIcEEEE"
    }
   ],
   "return_type" : "_ZTIv",
   "source_file" : "external/libcxx/include/stdexcept"
  },
  {
   "function_name" : "std::length_error::length_error",
   "linker_set_key" : "_ZNSt12length_errorC1EPKc",
   "parameters" :
   [
    {
     "is_this_ptr" : true,
     "referenced_type" : "_ZTIPSt12length_error"
    },
    {
     "referenced_type" : "_ZTIPKc"
    }
   ],
   "return_type" : "_ZTIv",
   "source_file" : "external/libcxx/include/stdexcept"
  },
  {
   "function_name" : "std::length_error::length_error",
   "linker_set_key" : "_ZNSt12length_errorC1ERKNSt3__112basic_stringIcNS0_11char_traitsIcEENS0_9allocatorIcEEEE",
   "parameters" :
   [
    {
     "is_this_ptr" : true,
     "referenced_type" : "_ZTIPSt12length_error"
    },
    {
     "referenced_type" : "_ZTIRKNSt3__112basic_stringIcNS_11char_traitsIcEENS_9allocatorIcEEEE"
    }
   ],
   "return_type" : "_ZTIv",
   "source_file" : "external/libcxx/include/stdexcept"
  },
  {
   "function_name" : "std::length_error::length_error",
   "linker_set_key" : "_ZNSt12length_errorC2EPKc",
   "parameters" :
   [
    {
     "is_this_ptr" : true,
     "referenced_type" : "_ZTIPSt12length_error"
    },
    {
     "referenced_type" : "_ZTIPKc"
    }
   ],
   "return_type" : "_ZTIv",
   "source_file" : "external/libcxx/include/stdexcept"
  },
  {
   "function_name" : "std::length_error::length_error",
   "linker_set_key" : "_ZNSt12length_errorC2ERKNSt3__112basic_stringIcNS0_11char_traitsIcEENS0_9allocatorIcEEEE",
   "parameters" :
   [
    {
     "is_this_ptr" : true,
     "referenced_type" : "_ZTIPSt12length_error"
    },
    {
     "referenced_type" : "_ZTIRKNSt3__112basic_stringIcNS_11char_traitsIcEENS_9allocatorIcEEEE"
    }
   ],
   "return_type" : "_ZTIv",
   "source_file" : "external/libcxx/include/stdexcept"
  },
  {
   "function_name" : "std::out_of_range::out_of_range",
   "linker_set_key" : "_ZNSt12out_of_rangeC1EPKc",
   "parameters" :
   [
    {
     "is_this_ptr" : true,
     "referenced_type" : "_ZTIPSt12out_of_range"
    },
    {
     "referenced_type" : "_ZTIPKc"
    }
   ],
   "return_type" : "_ZTIv",
   "source_file" : "external/libcxx/include/stdexcept"
  },
  {
   "function_name" : "std::out_of_range::out_of_range",
   "linker_set_key" : "_ZNSt12out_of_rangeC1ERKNSt3__112basic_stringIcNS0_11char_traitsIcEENS0_9allocatorIcEEEE",
   "parameters" :
   [
    {
     "is_this_ptr" : true,
     "referenced_type" : "_ZTIPSt12out_of_range"
    },
    {
     "referenced_type" : "_ZTIRKNSt3__112basic_stringIcNS_11char_traitsIcEENS_9allocatorIcEEEE"
    }
   ],
   "return_type" : "_ZTIv",
   "source_file" : "external/libcxx/include/stdexcept"
  },
  {
   "function_name" : "std::out_of_range::out_of_range",
   "linker_set_key" : "_ZNSt12out_of_rangeC2EPKc",
   "parameters" :
   [
    {
     "is_this_ptr" : true,
     "referenced_type" : "_ZTIPSt12out_of_range"
    },
    {
     "referenced_type" : "_ZTIPKc"
    }
   ],
   "return_type" : "_ZTIv",
   "source_file" : "external/libcxx/include/stdexcept"
  },
  {
   "function_name" : "std::out_of_range::out_of_range",
   "linker_set_key" : "_ZNSt12out_of_rangeC2ERKNSt3__112basic_stringIcNS0_11char_traitsIcEENS0_9allocatorIcEEEE",
   "parameters" :
   [
    {
     "is_this_ptr" : true,
     "referenced_type" : "_ZTIPSt12out_of_range"
    },
    {
     "referenced_type" : "_ZTIRKNSt3__112basic_stringIcNS_11char_traitsIcEENS_9allocatorIcEEEE"
    }
   ],
   "return_type" : "_ZTIv",
   "source_file" : "external/libcxx/include/stdexcept"
  },
  {
   "function_name" : "std::bad_exception::bad_exception",
   "linker_set_key" : "_ZNSt13bad_exceptionC1Ev",
   "parameters" :
   [
    {
     "is_this_ptr" : true,
     "referenced_type" : "_ZTIPSt13bad_exception"
    }
   ],
   "return_type" : "_ZTIv",
   "source_file" : "external/libcxx/include/exception"
  },
  {
   "function_name" : "std::bad_exception::bad_exception",
   "linker_set_key" : "_ZNSt13bad_exceptionC2Ev",
   "parameters" :
   [
    {
     "is_this_ptr" : true,
     "referenced_type" : "_ZTIPSt13bad_exception"
    }
   ],
   "return_type" : "_ZTIv",
   "source_file" : "external/libcxx/include/exception"
  },
  {
   "function_name" : "std::exception_ptr::exception_ptr",
   "linker_set_key" : "_ZNSt13exception_ptrC1EDn",
   "parameters" :
   [
    {
     "is_this_ptr" : true,
     "referenced_type" : "_ZTIPSt13exception_ptr"
    },
    {
     "referenced_type" : "_ZTIDn"
    }
   ],
   "return_type" : "_ZTIv",
   "source_file" : "external/libcxx/include/exception"
  },
  {
   "function_name" : "std::exception_ptr::exception_ptr",
   "linker_set_key" : "_ZNSt13exception_ptrC1Ev",
   "parameters" :
   [
    {
     "is_this_ptr" : true,
     "referenced_type" : "_ZTIPSt13exception_ptr"
    }
   ],
   "return_type" : "_ZTIv",
   "source_file" : "external/libcxx/include/exception"
  },
  {
   "function_name" : "std::exception_ptr::exception_ptr",
   "linker_set_key" : "_ZNSt13exception_ptrC2EDn",
   "parameters" :
   [
    {
     "is_this_ptr" : true,
     "referenced_type" : "_ZTIPSt13exception_ptr"
    },
    {
     "referenced_type" : "_ZTIDn"
    }
   ],
   "return_type" : "_ZTIv",
   "source_file" : "external/libcxx/include/exception"
  },
  {
   "function_name" : "std::exception_ptr::exception_ptr",
   "linker_set_key" : "_ZNSt13exception_ptrC2Ev",
   "parameters" :
   [
    {
     "is_this_ptr" : true,
     "referenced_type" : "_ZTIPSt13exception_ptr"
    }
   ],
   "return_type" : "_ZTIv",
   "source_file" : "external/libcxx/include/exception"
  },
  {
   "function_name" : "std::overflow_error::overflow_error",
   "linker_set_key" : "_ZNSt14overflow_errorC1EPKc",
   "parameters" :
   [
    {
     "is_this_ptr" : true,
     "referenced_type" : "_ZTIPSt14overflow_error"
    },
    {
     "referenced_type" : "_ZTIPKc"
    }
   ],
   "return_type" : "_ZTIv",
   "source_file" : "external/libcxx/include/stdexcept"
  },
  {
   "function_name" : "std::overflow_error::overflow_error",
   "linker_set_key" : "_ZNSt14overflow_errorC1ERKNSt3__112basic_stringIcNS0_11char_traitsIcEENS0_9allocatorIcEEEE",
   "parameters" :
   [
    {
     "is_this_ptr" : true,
     "referenced_type" : "_ZTIPSt14overflow_error"
    },
    {
     "referenced_type" : "_ZTIRKNSt3__112basic_stringIcNS_11char_traitsIcEENS_9allocatorIcEEEE"
    }
   ],
   "return_type" : "_ZTIv",
   "source_file" : "external/libcxx/include/stdexcept"
  },
  {
   "function_name" : "std::overflow_error::overflow_error",
   "linker_set_key" : "_ZNSt14overflow_errorC2EPKc",
   "parameters" :
   [
    {
     "is_this_ptr" : true,
     "referenced_type" : "_ZTIPSt14overflow_error"
    },
    {
     "referenced_type" : "_ZTIPKc"
    }
   ],
   "return_type" : "_ZTIv",
   "source_file" : "external/libcxx/include/stdexcept"
  },
  {
   "function_name" : "std::overflow_error::overflow_error",
   "linker_set_key" : "_ZNSt14overflow_errorC2ERKNSt3__112basic_stringIcNS0_11char_traitsIcEENS0_9allocatorIcEEEE",
   "parameters" :
   [
    {
     "is_this_ptr" : true,
     "referenced_type" : "_ZTIPSt14overflow_error"
    },
    {
     "referenced_type" : "_ZTIRKNSt3__112basic_stringIcNS_11char_traitsIcEENS_9allocatorIcEEEE"
    }
   ],
   "return_type" : "_ZTIv",
   "source_file" : "external/libcxx/include/stdexcept"
  },
  {
   "function_name" : "std::underflow_error::underflow_error",
   "linker_set_key" : "_ZNSt15underflow_errorC1EPKc",
   "parameters" :
   [
    {
     "is_this_ptr" : true,
     "referenced_type" : "_ZTIPSt15underflow_error"
    },
    {
     "referenced_type" : "_ZTIPKc"
    }
   ],
   "return_type" : "_ZTIv",
   "source_file" : "external/libcxx/include/stdexcept"
  },
  {
   "function_name" : "std::underflow_error::underflow_error",
   "linker_set_key" : "_ZNSt15underflow_errorC1ERKNSt3__112basic_stringIcNS0_11char_traitsIcEENS0_9allocatorIcEEEE",
   "parameters" :
   [
    {
     "is_this_ptr" : true,
     "referenced_type" : "_ZTIPSt15underflow_error"
    },
    {
     "referenced_type" : "_ZTIRKNSt3__112basic_stringIcNS_11char_traitsIcEENS_9allocatorIcEEEE"
    }
   ],
   "return_type" : "_ZTIv",
   "source_file" : "external/libcxx/include/stdexcept"
  },
  {
   "function_name" : "std::underflow_error::underflow_error",
   "linker_set_key" : "_ZNSt15underflow_errorC2EPKc",
   "parameters" :
   [
    {
     "is_this_ptr" : true,
     "referenced_type" : "_ZTIPSt15underflow_error"
    },
    {
     "referenced_type" : "_ZTIPKc"
    }
   ],
   "return_type" : "_ZTIv",
   "source_file" : "external/libcxx/include/stdexcept"
  },
  {
   "function_name" : "std::underflow_error::underflow_error",
   "linker_set_key" : "_ZNSt15underflow_errorC2ERKNSt3__112basic_stringIcNS0_11char_traitsIcEENS0_9allocatorIcEEEE",
   "parameters" :
   [
    {
     "is_this_ptr" : true,
     "referenced_type" : "_ZTIPSt15underflow_error"
    },
    {
     "referenced_type" : "_ZTIRKNSt3__112basic_stringIcNS_11char_traitsIcEENS_9allocatorIcEEEE"
    }
   ],
   "return_type" : "_ZTIv",
   "source_file" : "external/libcxx/include/stdexcept"
  },
  {
   "function_name" : "std::invalid_argument::invalid_argument",
   "linker_set_key" : "_ZNSt16invalid_argumentC1EPKc",
   "parameters" :
   [
    {
     "is_this_ptr" : true,
     "referenced_type" : "_ZTIPSt16invalid_argument"
    },
    {
     "referenced_type" : "_ZTIPKc"
    }
   ],
   "return_type" : "_ZTIv",
   "source_file" : "external/libcxx/include/stdexcept"
  },
  {
   "function_name" : "std::invalid_argument::invalid_argument",
   "linker_set_key" : "_ZNSt16invalid_argumentC1ERKNSt3__112basic_stringIcNS0_11char_traitsIcEENS0_9allocatorIcEEEE",
   "parameters" :
   [
    {
     "is_this_ptr" : true,
     "referenced_type" : "_ZTIPSt16invalid_argument"
    },
    {
     "referenced_type" : "_ZTIRKNSt3__112basic_stringIcNS_11char_traitsIcEENS_9allocatorIcEEEE"
    }
   ],
   "return_type" : "_ZTIv",
   "source_file" : "external/libcxx/include/stdexcept"
  },
  {
   "function_name" : "std::invalid_argument::invalid_argument",
   "linker_set_key" : "_ZNSt16invalid_argumentC2EPKc",
   "parameters" :
   [
    {
     "is_this_ptr" : true,
     "referenced_type" : "_ZTIPSt16invalid_argument"
    },
    {
     "referenced_type" : "_ZTIPKc"
    }
   ],
   "return_type" : "_ZTIv",
   "source_file" : "external/libcxx/include/stdexcept"
  },
  {
   "function_name" : "std::invalid_argument::invalid_argument",
   "linker_set_key" : "_ZNSt16invalid_argumentC2ERKNSt3__112basic_stringIcNS0_11char_traitsIcEENS0_9allocatorIcEEEE",
   "parameters" :
   [
    {
     "is_this_ptr" : true,
     "referenced_type" : "_ZTIPSt16invalid_argument"
    },
    {
     "referenced_type" : "_ZTIRKNSt3__112basic_stringIcNS_11char_traitsIcEENS_9allocatorIcEEEE"
    }
   ],
   "return_type" : "_ZTIv",
   "source_file" : "external/libcxx/include/stdexcept"
  },
  {
   "function_name" : "std::__1::__loadword",
   "linker_set_key" : "_ZNSt3__110__loadwordIjEET_PKv",
   "parameters" :
   [
    {
     "referenced_type" : "_ZTIPKv"
    }
   ],
   "return_type" : "_ZTIj",
   "source_file" : "external/libcxx/include/utility",
   "template_args" : [ "_ZTIj" ]
  },
  {
   "function_name" : "std::__1::in_place_t::in_place_t",
   "linker_set_key" : "_ZNSt3__110in_place_tC1Ev",
   "parameters" :
   [
    {
     "is_this_ptr" : true,
     "referenced_type" : "_ZTIPNSt3__110in_place_tE"
    }
   ],
   "return_type" : "_ZTIv",
   "source_file" : "external/libcxx/include/utility"
  },
  {
   "function_name" : "std::__1::in_place_t::in_place_t",
   "linker_set_key" : "_ZNSt3__110in_place_tC2Ev",
   "parameters" :
   [
    {
     "is_this_ptr" : true,
     "referenced_type" : "_ZTIPNSt3__110in_place_tE"
    }
   ],
   "return_type" : "_ZTIv",
   "source_file" : "external/libcxx/include/utility"
  },
  {
   "function_name" : "std::__1::unique_ptr<SkFILEStream, std::__1::default_delete<SkFILEStream>>::get_deleter",
   "linker_set_key" : "_ZNSt3__110unique_ptrI12SkFILEStreamNS_14default_deleteIS1_EEE11get_deleterEv",
   "parameters" :
   [
    {
     "is_this_ptr" : true,
     "referenced_type" : "_ZTIPNSt3__110unique_ptrI12SkFILEStreamNS_14default_deleteIS1_EEEE"
    }
   ],
   "return_type" : "_ZTIRNSt3__114default_deleteI12SkFILEStreamEE",
   "source_file" : "external/libcxx/include/memory"
  },
  {
   "function_name" : "std::__1::unique_ptr<SkFILEStream, std::__1::default_delete<SkFILEStream>>::reset",
   "linker_set_key" : "_ZNSt3__110unique_ptrI12SkFILEStreamNS_14default_deleteIS1_EEE5resetEPS1_",
   "parameters" :
   [
    {
     "is_this_ptr" : true,
     "referenced_type" : "_ZTIPNSt3__110unique_ptrI12SkFILEStreamNS_14default_deleteIS1_EEEE"
    },
    {
     "default_arg" : true,
     "referenced_type" : "_ZTIP12SkFILEStream"
    }
   ],
   "return_type" : "_ZTIv",
   "source_file" : "external/libcxx/include/memory"
  },
  {
   "function_name" : "std::__1::unique_ptr<SkFILEStream, std::__1::default_delete<SkFILEStream>>::release",
   "linker_set_key" : "_ZNSt3__110unique_ptrI12SkFILEStreamNS_14default_deleteIS1_EEE7releaseEv",
   "parameters" :
   [
    {
     "is_this_ptr" : true,
     "referenced_type" : "_ZTIPNSt3__110unique_ptrI12SkFILEStreamNS_14default_deleteIS1_EEEE"
    }
   ],
   "return_type" : "_ZTIP12SkFILEStream",
   "source_file" : "external/libcxx/include/memory"
  },
  {
   "function_name" : "std::__1::unique_ptr<SkFILEStream, std::__1::default_delete<SkFILEStream>>::unique_ptr",
   "linker_set_key" : "_ZNSt3__110unique_ptrI12SkFILEStreamNS_14default_deleteIS1_EEEC1EOS4_",
   "parameters" :
   [
    {
     "is_this_ptr" : true,
     "referenced_type" : "_ZTIPNSt3__110unique_ptrI12SkFILEStreamNS_14default_deleteIS1_EEEE"
    },
    {
     "referenced_type" : "_ZTIONSt3__110unique_ptrI12SkFILEStreamNS_14default_deleteIS1_EEEE"
    }
   ],
   "return_type" : "_ZTIv",
   "source_file" : "external/libcxx/include/memory"
  },
  {
   "function_name" : "std::__1::unique_ptr<SkFILEStream, std::__1::default_delete<SkFILEStream>>::unique_ptr",
   "linker_set_key" : "_ZNSt3__110unique_ptrI12SkFILEStreamNS_14default_deleteIS1_EEEC1ILb1EvEEDn",
   "parameters" :
   [
    {
     "is_this_ptr" : true,
     "referenced_type" : "_ZTIPNSt3__110unique_ptrI12SkFILEStreamNS_14default_deleteIS1_EEEE"
    },
    {
     "referenced_type" : "_ZTIDn"
    }
   ],
   "return_type" : "_ZTIv",
   "source_file" : "external/libcxx/include/memory",
   "template_args" : [ "_ZTIv" ]
  },
  {
   "function_name" : "std::__1::unique_ptr<SkFILEStream, std::__1::default_delete<SkFILEStream>>::unique_ptr",
   "linker_set_key" : "_ZNSt3__110unique_ptrI12SkFILEStreamNS_14default_deleteIS1_EEEC1ILb1EvEEPS1_",
   "parameters" :
   [
    {
     "is_this_ptr" : true,
     "referenced_type" : "_ZTIPNSt3__110unique_ptrI12SkFILEStreamNS_14default_deleteIS1_EEEE"
    },
    {
     "referenced_type" : "_ZTIP12SkFILEStream"
    }
   ],
   "return_type" : "_ZTIv",
   "source_file" : "external/libcxx/include/memory",
   "template_args" : [ "_ZTIv" ]
  },
  {
   "function_name" : "std::__1::unique_ptr<SkFILEStream, std::__1::default_delete<SkFILEStream>>::unique_ptr",
   "linker_set_key" : "_ZNSt3__110unique_ptrI12SkFILEStreamNS_14default_deleteIS1_EEEC2EOS4_",
   "parameters" :
   [
    {
     "is_this_ptr" : true,
     "referenced_type" : "_ZTIPNSt3__110unique_ptrI12SkFILEStreamNS_14default_deleteIS1_EEEE"
    },
    {
     "referenced_type" : "_ZTIONSt3__110unique_ptrI12SkFILEStreamNS_14default_deleteIS1_EEEE"
    }
   ],
   "return_type" : "_ZTIv",
   "source_file" : "external/libcxx/include/memory"
  },
  {
   "function_name" : "std::__1::unique_ptr<SkFILEStream, std::__1::default_delete<SkFILEStream>>::unique_ptr",
   "linker_set_key" : "_ZNSt3__110unique_ptrI12SkFILEStreamNS_14default_deleteIS1_EEEC2ILb1EvEEDn",
   "parameters" :
   [
    {
     "is_this_ptr" : true,
     "referenced_type" : "_ZTIPNSt3__110unique_ptrI12SkFILEStreamNS_14default_deleteIS1_EEEE"
    },
    {
     "referenced_type" : "_ZTIDn"
    }
   ],
   "return_type" : "_ZTIv",
   "source_file" : "external/libcxx/include/memory",
   "template_args" : [ "_ZTIv" ]
  },
  {
   "function_name" : "std::__1::unique_ptr<SkFILEStream, std::__1::default_delete<SkFILEStream>>::unique_ptr",
   "linker_set_key" : "_ZNSt3__110unique_ptrI12SkFILEStreamNS_14default_deleteIS1_EEEC2ILb1EvEEPS1_",
   "parameters" :
   [
    {
     "is_this_ptr" : true,
     "referenced_type" : "_ZTIPNSt3__110unique_ptrI12SkFILEStreamNS_14default_deleteIS1_EEEE"
    },
    {
     "referenced_type" : "_ZTIP12SkFILEStream"
    }
   ],
   "return_type" : "_ZTIv",
   "source_file" : "external/libcxx/include/memory",
   "template_args" : [ "_ZTIv" ]
  },
  {
   "function_name" : "std::__1::unique_ptr<SkFILEStream, std::__1::default_delete<SkFILEStream>>::~unique_ptr",
   "linker_set_key" : "_ZNSt3__110unique_ptrI12SkFILEStreamNS_14default_deleteIS1_EEED1Ev",
   "parameters" :
   [
    {
     "is_this_ptr" : true,
     "referenced_type" : "_ZTIPNSt3__110unique_ptrI12SkFILEStreamNS_14default_deleteIS1_EEEE"
    }
   ],
   "return_type" : "_ZTIv",
   "source_file" : "external/libcxx/include/memory"
  },
  {
   "function_name" : "std::__1::unique_ptr<SkFILEStream, std::__1::default_delete<SkFILEStream>>::~unique_ptr",
   "linker_set_key" : "_ZNSt3__110unique_ptrI12SkFILEStreamNS_14default_deleteIS1_EEED2Ev",
   "parameters" :
   [
    {
     "is_this_ptr" : true,
     "referenced_type" : "_ZTIPNSt3__110unique_ptrI12SkFILEStreamNS_14default_deleteIS1_EEEE"
    }
   ],
   "return_type" : "_ZTIv",
   "source_file" : "external/libcxx/include/memory"
  },
  {
   "function_name" : "std::__1::unique_ptr<SkStreamAsset, std::__1::default_delete<SkStreamAsset>>::reset",
   "linker_set_key" : "_ZNSt3__110unique_ptrI13SkStreamAssetNS_14default_deleteIS1_EEE5resetEPS1_",
   "parameters" :
   [
    {
     "is_this_ptr" : true,
     "referenced_type" : "_ZTIPNSt3__110unique_ptrI13SkStreamAssetNS_14default_deleteIS1_EEEE"
    },
    {
     "default_arg" : true,
     "referenced_type" : "_ZTIP13SkStreamAsset"
    }
   ],
   "return_type" : "_ZTIv",
   "source_file" : "external/libcxx/include/memory"
  },
  {
   "function_name" : "std::__1::unique_ptr<SkStreamAsset, std::__1::default_delete<SkStreamAsset>>::unique_ptr",
   "linker_set_key" : "_ZNSt3__110unique_ptrI13SkStreamAssetNS_14default_deleteIS1_EEEC1ILb1EvEEPS1_",
   "parameters" :
   [
    {
     "is_this_ptr" : true,
     "referenced_type" : "_ZTIPNSt3__110unique_ptrI13SkStreamAssetNS_14default_deleteIS1_EEEE"
    },
    {
     "referenced_type" : "_ZTIP13SkStreamAsset"
    }
   ],
   "return_type" : "_ZTIv",
   "source_file" : "external/libcxx/include/memory",
   "template_args" : [ "_ZTIv" ]
  },
  {
   "function_name" : "std::__1::unique_ptr<SkStreamAsset, std::__1::default_delete<SkStreamAsset>>::unique_ptr",
   "linker_set_key" : "_ZNSt3__110unique_ptrI13SkStreamAssetNS_14default_deleteIS1_EEEC2ILb1EvEEPS1_",
   "parameters" :
   [
    {
     "is_this_ptr" : true,
     "referenced_type" : "_ZTIPNSt3__110unique_ptrI13SkStreamAssetNS_14default_deleteIS1_EEEE"
    },
    {
     "referenced_type" : "_ZTIP13SkStreamAsset"
    }
   ],
   "return_type" : "_ZTIv",
   "source_file" : "external/libcxx/include/memory",
   "template_args" : [ "_ZTIv" ]
  },
  {
   "function_name" : "std::__1::unique_ptr<SkStreamAsset, std::__1::default_delete<SkStreamAsset>>::~unique_ptr",
   "linker_set_key" : "_ZNSt3__110unique_ptrI13SkStreamAssetNS_14default_deleteIS1_EEED1Ev",
   "parameters" :
   [
    {
     "is_this_ptr" : true,
     "referenced_type" : "_ZTIPNSt3__110unique_ptrI13SkStreamAssetNS_14default_deleteIS1_EEEE"
    }
   ],
   "return_type" : "_ZTIv",
   "source_file" : "external/libcxx/include/memory"
  },
  {
   "function_name" : "std::__1::unique_ptr<SkStreamAsset, std::__1::default_delete<SkStreamAsset>>::~unique_ptr",
   "linker_set_key" : "_ZNSt3__110unique_ptrI13SkStreamAssetNS_14default_deleteIS1_EEED2Ev",
   "parameters" :
   [
    {
     "is_this_ptr" : true,
     "referenced_type" : "_ZTIPNSt3__110unique_ptrI13SkStreamAssetNS_14default_deleteIS1_EEEE"
    }
   ],
   "return_type" : "_ZTIv",
   "source_file" : "external/libcxx/include/memory"
  },
  {
   "function_name" : "std::__1::unique_ptr<SkMemoryStream, std::__1::default_delete<SkMemoryStream>>::reset",
   "linker_set_key" : "_ZNSt3__110unique_ptrI14SkMemoryStreamNS_14default_deleteIS1_EEE5resetEPS1_",
   "parameters" :
   [
    {
     "is_this_ptr" : true,
     "referenced_type" : "_ZTIPNSt3__110unique_ptrI14SkMemoryStreamNS_14default_deleteIS1_EEEE"
    },
    {
     "default_arg" : true,
     "referenced_type" : "_ZTIP14SkMemoryStream"
    }
   ],
   "return_type" : "_ZTIv",
   "source_file" : "external/libcxx/include/memory"
  },
  {
   "function_name" : "std::__1::unique_ptr<SkMemoryStream, std::__1::default_delete<SkMemoryStream>>::unique_ptr",
   "linker_set_key" : "_ZNSt3__110unique_ptrI14SkMemoryStreamNS_14default_deleteIS1_EEEC1ILb1EvEEPS1_",
   "parameters" :
   [
    {
     "is_this_ptr" : true,
     "referenced_type" : "_ZTIPNSt3__110unique_ptrI14SkMemoryStreamNS_14default_deleteIS1_EEEE"
    },
    {
     "referenced_type" : "_ZTIP14SkMemoryStream"
    }
   ],
   "return_type" : "_ZTIv",
   "source_file" : "external/libcxx/include/memory",
   "template_args" : [ "_ZTIv" ]
  },
  {
   "function_name" : "std::__1::unique_ptr<SkMemoryStream, std::__1::default_delete<SkMemoryStream>>::unique_ptr",
   "linker_set_key" : "_ZNSt3__110unique_ptrI14SkMemoryStreamNS_14default_deleteIS1_EEEC2ILb1EvEEPS1_",
   "parameters" :
   [
    {
     "is_this_ptr" : true,
     "referenced_type" : "_ZTIPNSt3__110unique_ptrI14SkMemoryStreamNS_14default_deleteIS1_EEEE"
    },
    {
     "referenced_type" : "_ZTIP14SkMemoryStream"
    }
   ],
   "return_type" : "_ZTIv",
   "source_file" : "external/libcxx/include/memory",
   "template_args" : [ "_ZTIv" ]
  },
  {
   "function_name" : "std::__1::unique_ptr<SkMemoryStream, std::__1::default_delete<SkMemoryStream>>::~unique_ptr",
   "linker_set_key" : "_ZNSt3__110unique_ptrI14SkMemoryStreamNS_14default_deleteIS1_EEED1Ev",
   "parameters" :
   [
    {
     "is_this_ptr" : true,
     "referenced_type" : "_ZTIPNSt3__110unique_ptrI14SkMemoryStreamNS_14default_deleteIS1_EEEE"
    }
   ],
   "return_type" : "_ZTIv",
   "source_file" : "external/libcxx/include/memory"
  },
  {
   "function_name" : "std::__1::unique_ptr<SkMemoryStream, std::__1::default_delete<SkMemoryStream>>::~unique_ptr",
   "linker_set_key" : "_ZNSt3__110unique_ptrI14SkMemoryStreamNS_14default_deleteIS1_EEED2Ev",
   "parameters" :
   [
    {
     "is_this_ptr" : true,
     "referenced_type" : "_ZTIPNSt3__110unique_ptrI14SkMemoryStreamNS_14default_deleteIS1_EEEE"
    }
   ],
   "return_type" : "_ZTIv",
   "source_file" : "external/libcxx/include/memory"
  },
  {
   "function_name" : "std::__1::unique_ptr<SkStreamMemory, std::__1::default_delete<SkStreamMemory>>::reset",
   "linker_set_key" : "_ZNSt3__110unique_ptrI14SkStreamMemoryNS_14default_deleteIS1_EEE5resetEPS1_",
   "parameters" :
   [
    {
     "is_this_ptr" : true,
     "referenced_type" : "_ZTIPNSt3__110unique_ptrI14SkStreamMemoryNS_14default_deleteIS1_EEEE"
    },
    {
     "default_arg" : true,
     "referenced_type" : "_ZTIP14SkStreamMemory"
    }
   ],
   "return_type" : "_ZTIv",
   "source_file" : "external/libcxx/include/memory"
  },
  {
   "function_name" : "std::__1::unique_ptr<SkStreamMemory, std::__1::default_delete<SkStreamMemory>>::unique_ptr",
   "linker_set_key" : "_ZNSt3__110unique_ptrI14SkStreamMemoryNS_14default_deleteIS1_EEEC1ILb1EvEEPS1_",
   "parameters" :
   [
    {
     "is_this_ptr" : true,
     "referenced_type" : "_ZTIPNSt3__110unique_ptrI14SkStreamMemoryNS_14default_deleteIS1_EEEE"
    },
    {
     "referenced_type" : "_ZTIP14SkStreamMemory"
    }
   ],
   "return_type" : "_ZTIv",
   "source_file" : "external/libcxx/include/memory",
   "template_args" : [ "_ZTIv" ]
  },
  {
   "function_name" : "std::__1::unique_ptr<SkStreamMemory, std::__1::default_delete<SkStreamMemory>>::unique_ptr",
   "linker_set_key" : "_ZNSt3__110unique_ptrI14SkStreamMemoryNS_14default_deleteIS1_EEEC2ILb1EvEEPS1_",
   "parameters" :
   [
    {
     "is_this_ptr" : true,
     "referenced_type" : "_ZTIPNSt3__110unique_ptrI14SkStreamMemoryNS_14default_deleteIS1_EEEE"
    },
    {
     "referenced_type" : "_ZTIP14SkStreamMemory"
    }
   ],
   "return_type" : "_ZTIv",
   "source_file" : "external/libcxx/include/memory",
   "template_args" : [ "_ZTIv" ]
  },
  {
   "function_name" : "std::__1::unique_ptr<SkStreamMemory, std::__1::default_delete<SkStreamMemory>>::~unique_ptr",
   "linker_set_key" : "_ZNSt3__110unique_ptrI14SkStreamMemoryNS_14default_deleteIS1_EEED1Ev",
   "parameters" :
   [
    {
     "is_this_ptr" : true,
     "referenced_type" : "_ZTIPNSt3__110unique_ptrI14SkStreamMemoryNS_14default_deleteIS1_EEEE"
    }
   ],
   "return_type" : "_ZTIv",
   "source_file" : "external/libcxx/include/memory"
  },
  {
   "function_name" : "std::__1::unique_ptr<SkStreamMemory, std::__1::default_delete<SkStreamMemory>>::~unique_ptr",
   "linker_set_key" : "_ZNSt3__110unique_ptrI14SkStreamMemoryNS_14default_deleteIS1_EEED2Ev",
   "parameters" :
   [
    {
     "is_this_ptr" : true,
     "referenced_type" : "_ZTIPNSt3__110unique_ptrI14SkStreamMemoryNS_14default_deleteIS1_EEEE"
    }
   ],
   "return_type" : "_ZTIv",
   "source_file" : "external/libcxx/include/memory"
  },
  {
   "function_name" : "std::__1::unique_ptr<SkStreamSeekable, std::__1::default_delete<SkStreamSeekable>>::reset",
   "linker_set_key" : "_ZNSt3__110unique_ptrI16SkStreamSeekableNS_14default_deleteIS1_EEE5resetEPS1_",
   "parameters" :
   [
    {
     "is_this_ptr" : true,
     "referenced_type" : "_ZTIPNSt3__110unique_ptrI16SkStreamSeekableNS_14default_deleteIS1_EEEE"
    },
    {
     "default_arg" : true,
     "referenced_type" : "_ZTIP16SkStreamSeekable"
    }
   ],
   "return_type" : "_ZTIv",
   "source_file" : "external/libcxx/include/memory"
  },
  {
   "function_name" : "std::__1::unique_ptr<SkStreamSeekable, std::__1::default_delete<SkStreamSeekable>>::unique_ptr",
   "linker_set_key" : "_ZNSt3__110unique_ptrI16SkStreamSeekableNS_14default_deleteIS1_EEEC1ILb1EvEEPS1_",
   "parameters" :
   [
    {
     "is_this_ptr" : true,
     "referenced_type" : "_ZTIPNSt3__110unique_ptrI16SkStreamSeekableNS_14default_deleteIS1_EEEE"
    },
    {
     "referenced_type" : "_ZTIP16SkStreamSeekable"
    }
   ],
   "return_type" : "_ZTIv",
   "source_file" : "external/libcxx/include/memory",
   "template_args" : [ "_ZTIv" ]
  },
  {
   "function_name" : "std::__1::unique_ptr<SkStreamSeekable, std::__1::default_delete<SkStreamSeekable>>::unique_ptr",
   "linker_set_key" : "_ZNSt3__110unique_ptrI16SkStreamSeekableNS_14default_deleteIS1_EEEC2ILb1EvEEPS1_",
   "parameters" :
   [
    {
     "is_this_ptr" : true,
     "referenced_type" : "_ZTIPNSt3__110unique_ptrI16SkStreamSeekableNS_14default_deleteIS1_EEEE"
    },
    {
     "referenced_type" : "_ZTIP16SkStreamSeekable"
    }
   ],
   "return_type" : "_ZTIv",
   "source_file" : "external/libcxx/include/memory",
   "template_args" : [ "_ZTIv" ]
  },
  {
   "function_name" : "std::__1::unique_ptr<SkStreamSeekable, std::__1::default_delete<SkStreamSeekable>>::~unique_ptr",
   "linker_set_key" : "_ZNSt3__110unique_ptrI16SkStreamSeekableNS_14default_deleteIS1_EEED1Ev",
   "parameters" :
   [
    {
     "is_this_ptr" : true,
     "referenced_type" : "_ZTIPNSt3__110unique_ptrI16SkStreamSeekableNS_14default_deleteIS1_EEEE"
    }
   ],
   "return_type" : "_ZTIv",
   "source_file" : "external/libcxx/include/memory"
  },
  {
   "function_name" : "std::__1::unique_ptr<SkStreamSeekable, std::__1::default_delete<SkStreamSeekable>>::~unique_ptr",
   "linker_set_key" : "_ZNSt3__110unique_ptrI16SkStreamSeekableNS_14default_deleteIS1_EEED2Ev",
   "parameters" :
   [
    {
     "is_this_ptr" : true,
     "referenced_type" : "_ZTIPNSt3__110unique_ptrI16SkStreamSeekableNS_14default_deleteIS1_EEEE"
    }
   ],
   "return_type" : "_ZTIv",
   "source_file" : "external/libcxx/include/memory"
  },
  {
   "function_name" : "std::__1::unique_ptr<SkStreamRewindable, std::__1::default_delete<SkStreamRewindable>>::reset",
   "linker_set_key" : "_ZNSt3__110unique_ptrI18SkStreamRewindableNS_14default_deleteIS1_EEE5resetEPS1_",
   "parameters" :
   [
    {
     "is_this_ptr" : true,
     "referenced_type" : "_ZTIPNSt3__110unique_ptrI18SkStreamRewindableNS_14default_deleteIS1_EEEE"
    },
    {
     "default_arg" : true,
     "referenced_type" : "_ZTIP18SkStreamRewindable"
    }
   ],
   "return_type" : "_ZTIv",
   "source_file" : "external/libcxx/include/memory"
  },
  {
   "function_name" : "std::__1::unique_ptr<SkStreamRewindable, std::__1::default_delete<SkStreamRewindable>>::unique_ptr",
   "linker_set_key" : "_ZNSt3__110unique_ptrI18SkStreamRewindableNS_14default_deleteIS1_EEEC1ILb1EvEEPS1_",
   "parameters" :
   [
    {
     "is_this_ptr" : true,
     "referenced_type" : "_ZTIPNSt3__110unique_ptrI18SkStreamRewindableNS_14default_deleteIS1_EEEE"
    },
    {
     "referenced_type" : "_ZTIP18SkStreamRewindable"
    }
   ],
   "return_type" : "_ZTIv",
   "source_file" : "external/libcxx/include/memory",
   "template_args" : [ "_ZTIv" ]
  },
  {
   "function_name" : "std::__1::unique_ptr<SkStreamRewindable, std::__1::default_delete<SkStreamRewindable>>::unique_ptr",
   "linker_set_key" : "_ZNSt3__110unique_ptrI18SkStreamRewindableNS_14default_deleteIS1_EEEC2ILb1EvEEPS1_",
   "parameters" :
   [
    {
     "is_this_ptr" : true,
     "referenced_type" : "_ZTIPNSt3__110unique_ptrI18SkStreamRewindableNS_14default_deleteIS1_EEEE"
    },
    {
     "referenced_type" : "_ZTIP18SkStreamRewindable"
    }
   ],
   "return_type" : "_ZTIv",
   "source_file" : "external/libcxx/include/memory",
   "template_args" : [ "_ZTIv" ]
  },
  {
   "function_name" : "std::__1::unique_ptr<SkStreamRewindable, std::__1::default_delete<SkStreamRewindable>>::~unique_ptr",
   "linker_set_key" : "_ZNSt3__110unique_ptrI18SkStreamRewindableNS_14default_deleteIS1_EEED1Ev",
   "parameters" :
   [
    {
     "is_this_ptr" : true,
     "referenced_type" : "_ZTIPNSt3__110unique_ptrI18SkStreamRewindableNS_14default_deleteIS1_EEEE"
    }
   ],
   "return_type" : "_ZTIv",
   "source_file" : "external/libcxx/include/memory"
  },
  {
   "function_name" : "std::__1::unique_ptr<SkStreamRewindable, std::__1::default_delete<SkStreamRewindable>>::~unique_ptr",
   "linker_set_key" : "_ZNSt3__110unique_ptrI18SkStreamRewindableNS_14default_deleteIS1_EEED2Ev",
   "parameters" :
   [
    {
     "is_this_ptr" : true,
     "referenced_type" : "_ZTIPNSt3__110unique_ptrI18SkStreamRewindableNS_14default_deleteIS1_EEEE"
    }
   ],
   "return_type" : "_ZTIv",
   "source_file" : "external/libcxx/include/memory"
  },
  {
   "function_name" : "std::__1::unique_ptr<SkStream, std::__1::default_delete<SkStream>>::reset",
   "linker_set_key" : "_ZNSt3__110unique_ptrI8SkStreamNS_14default_deleteIS1_EEE5resetEPS1_",
   "parameters" :
   [
    {
     "is_this_ptr" : true,
     "referenced_type" : "_ZTIPNSt3__110unique_ptrI8SkStreamNS_14default_deleteIS1_EEEE"
    },
    {
     "default_arg" : true,
     "referenced_type" : "_ZTIP8SkStream"
    }
   ],
   "return_type" : "_ZTIv",
   "source_file" : "external/libcxx/include/memory"
  },
  {
   "function_name" : "std::__1::unique_ptr<SkStream, std::__1::default_delete<SkStream>>::unique_ptr",
   "linker_set_key" : "_ZNSt3__110unique_ptrI8SkStreamNS_14default_deleteIS1_EEEC1ILb1EvEEPS1_",
   "parameters" :
   [
    {
     "is_this_ptr" : true,
     "referenced_type" : "_ZTIPNSt3__110unique_ptrI8SkStreamNS_14default_deleteIS1_EEEE"
    },
    {
     "referenced_type" : "_ZTIP8SkStream"
    }
   ],
   "return_type" : "_ZTIv",
   "source_file" : "external/libcxx/include/memory",
   "template_args" : [ "_ZTIv" ]
  },
  {
   "function_name" : "std::__1::unique_ptr<SkStream, std::__1::default_delete<SkStream>>::unique_ptr",
   "linker_set_key" : "_ZNSt3__110unique_ptrI8SkStreamNS_14default_deleteIS1_EEEC2ILb1EvEEPS1_",
   "parameters" :
   [
    {
     "is_this_ptr" : true,
     "referenced_type" : "_ZTIPNSt3__110unique_ptrI8SkStreamNS_14default_deleteIS1_EEEE"
    },
    {
     "referenced_type" : "_ZTIP8SkStream"
    }
   ],
   "return_type" : "_ZTIv",
   "source_file" : "external/libcxx/include/memory",
   "template_args" : [ "_ZTIv" ]
  },
  {
   "function_name" : "std::__1::unique_ptr<SkStream, std::__1::default_delete<SkStream>>::~unique_ptr",
   "linker_set_key" : "_ZNSt3__110unique_ptrI8SkStreamNS_14default_deleteIS1_EEED1Ev",
   "parameters" :
   [
    {
     "is_this_ptr" : true,
     "referenced_type" : "_ZTIPNSt3__110unique_ptrI8SkStreamNS_14default_deleteIS1_EEEE"
    }
   ],
   "return_type" : "_ZTIv",
   "source_file" : "external/libcxx/include/memory"
  },
  {
   "function_name" : "std::__1::unique_ptr<SkStream, std::__1::default_delete<SkStream>>::~unique_ptr",
   "linker_set_key" : "_ZNSt3__110unique_ptrI8SkStreamNS_14default_deleteIS1_EEED2Ev",
   "parameters" :
   [
    {
     "is_this_ptr" : true,
     "referenced_type" : "_ZTIPNSt3__110unique_ptrI8SkStreamNS_14default_deleteIS1_EEEE"
    }
   ],
   "return_type" : "_ZTIv",
   "source_file" : "external/libcxx/include/memory"
  },
  {
   "function_name" : "std::__1::atomic_flag::test_and_set",
   "linker_set_key" : "_ZNSt3__111atomic_flag12test_and_setENS_12memory_orderE",
   "parameters" :
   [
    {
     "is_this_ptr" : true,
     "referenced_type" : "_ZTIPNSt3__111atomic_flagE"
    },
    {
     "default_arg" : true,
     "referenced_type" : "_ZTINSt3__112memory_orderE"
    }
   ],
   "return_type" : "_ZTIb",
   "source_file" : "external/libcxx/include/atomic"
  },
  {
   "function_name" : "std::__1::atomic_flag::clear",
   "linker_set_key" : "_ZNSt3__111atomic_flag5clearENS_12memory_orderE",
   "parameters" :
   [
    {
     "is_this_ptr" : true,
     "referenced_type" : "_ZTIPNSt3__111atomic_flagE"
    },
    {
     "default_arg" : true,
     "referenced_type" : "_ZTINSt3__112memory_orderE"
    }
   ],
   "return_type" : "_ZTIv",
   "source_file" : "external/libcxx/include/atomic"
  },
  {
   "function_name" : "std::__1::atomic_flag::atomic_flag",
   "linker_set_key" : "_ZNSt3__111atomic_flagC1Eb",
   "parameters" :
   [
    {
     "is_this_ptr" : true,
     "referenced_type" : "_ZTIPNSt3__111atomic_flagE"
    },
    {
     "referenced_type" : "_ZTIb"
    }
   ],
   "return_type" : "_ZTIv",
   "source_file" : "external/libcxx/include/atomic"
  },
  {
   "function_name" : "std::__1::atomic_flag::atomic_flag",
   "linker_set_key" : "_ZNSt3__111atomic_flagC1Ev",
   "parameters" :
   [
    {
     "is_this_ptr" : true,
     "referenced_type" : "_ZTIPNSt3__111atomic_flagE"
    }
   ],
   "return_type" : "_ZTIv",
   "source_file" : "external/libcxx/include/atomic"
  },
  {
   "function_name" : "std::__1::atomic_flag::atomic_flag",
   "linker_set_key" : "_ZNSt3__111atomic_flagC2Eb",
   "parameters" :
   [
    {
     "is_this_ptr" : true,
     "referenced_type" : "_ZTIPNSt3__111atomic_flagE"
    },
    {
     "referenced_type" : "_ZTIb"
    }
   ],
   "return_type" : "_ZTIv",
   "source_file" : "external/libcxx/include/atomic"
  },
  {
   "function_name" : "std::__1::atomic_flag::atomic_flag",
   "linker_set_key" : "_ZNSt3__111atomic_flagC2Ev",
   "parameters" :
   [
    {
     "is_this_ptr" : true,
     "referenced_type" : "_ZTIPNSt3__111atomic_flagE"
    }
   ],
   "return_type" : "_ZTIv",
   "source_file" : "external/libcxx/include/atomic"
  },
  {
   "access" : "private",
   "function_name" : "std::__1::__destruct_n::__set",
   "linker_set_key" : "_ZNSt3__112__destruct_n5__setEjNS_17integral_constantIbLb0EEE",
   "parameters" :
   [
    {
     "is_this_ptr" : true,
     "referenced_type" : "_ZTIPNSt3__112__destruct_nE"
    },
    {
     "referenced_type" : "_ZTIj"
    },
    {
     "referenced_type" : "_ZTINSt3__117integral_constantIbLb0EEE"
    }
   ],
   "return_type" : "_ZTIv",
   "source_file" : "external/libcxx/include/memory"
  },
  {
   "access" : "private",
   "function_name" : "std::__1::__destruct_n::__set",
   "linker_set_key" : "_ZNSt3__112__destruct_n5__setEjNS_17integral_constantIbLb1EEE",
   "parameters" :
   [
    {
     "is_this_ptr" : true,
     "referenced_type" : "_ZTIPNSt3__112__destruct_nE"
    },
    {
     "referenced_type" : "_ZTIj"
    },
    {
     "referenced_type" : "_ZTINSt3__117integral_constantIbLb1EEE"
    }
   ],
   "return_type" : "_ZTIv",
   "source_file" : "external/libcxx/include/memory"
  },
  {
   "access" : "private",
   "function_name" : "std::__1::__destruct_n::__incr",
   "linker_set_key" : "_ZNSt3__112__destruct_n6__incrENS_17integral_constantIbLb0EEE",
   "parameters" :
   [
    {
     "is_this_ptr" : true,
     "referenced_type" : "_ZTIPNSt3__112__destruct_nE"
    },
    {
     "referenced_type" : "_ZTINSt3__117integral_constantIbLb0EEE"
    }
   ],
   "return_type" : "_ZTIv",
   "source_file" : "external/libcxx/include/memory"
  },
  {
   "access" : "private",
   "function_name" : "std::__1::__destruct_n::__incr",
   "linker_set_key" : "_ZNSt3__112__destruct_n6__incrENS_17integral_constantIbLb1EEE",
   "parameters" :
   [
    {
     "is_this_ptr" : true,
     "referenced_type" : "_ZTIPNSt3__112__destruct_nE"
    },
    {
     "referenced_type" : "_ZTINSt3__117integral_constantIbLb1EEE"
    }
   ],
   "return_type" : "_ZTIv",
   "source_file" : "external/libcxx/include/memory"
  },
  {
   "function_name" : "std::__1::__destruct_n::__destruct_n",
   "linker_set_key" : "_ZNSt3__112__destruct_nC1Ej",
   "parameters" :
   [
    {
     "is_this_ptr" : true,
     "referenced_type" : "_ZTIPNSt3__112__destruct_nE"
    },
    {
     "referenced_type" : "_ZTIj"
    }
   ],
   "return_type" : "_ZTIv",
   "source_file" : "external/libcxx/include/memory"
  },
  {
   "function_name" : "std::__1::__destruct_n::__destruct_n",
   "linker_set_key" : "_ZNSt3__112__destruct_nC2Ej",
   "parameters" :
   [
    {
     "is_this_ptr" : true,
     "referenced_type" : "_ZTIPNSt3__112__destruct_nE"
    },
    {
     "referenced_type" : "_ZTIj"
    }
   ],
   "return_type" : "_ZTIv",
   "source_file" : "external/libcxx/include/memory"
  },
  {
   "function_name" : "std::__1::__atomic_base<int, false>::__atomic_base",
   "linker_set_key" : "_ZNSt3__113__atomic_baseIiLb0EEC1Ei",
   "parameters" :
   [
    {
     "is_this_ptr" : true,
     "referenced_type" : "_ZTIPNSt3__113__atomic_baseIiLb0EEE"
    },
    {
     "referenced_type" : "_ZTIi"
    }
   ],
   "return_type" : "_ZTIv",
   "source_file" : "external/libcxx/include/atomic"
  },
  {
   "function_name" : "std::__1::__atomic_base<int, false>::__atomic_base",
   "linker_set_key" : "_ZNSt3__113__atomic_baseIiLb0EEC1Ev",
   "parameters" :
   [
    {
     "is_this_ptr" : true,
     "referenced_type" : "_ZTIPNSt3__113__atomic_baseIiLb0EEE"
    }
   ],
   "return_type" : "_ZTIv",
   "source_file" : "external/libcxx/include/atomic"
  },
  {
   "function_name" : "std::__1::__atomic_base<int, false>::__atomic_base",
   "linker_set_key" : "_ZNSt3__113__atomic_baseIiLb0EEC2Ei",
   "parameters" :
   [
    {
     "is_this_ptr" : true,
     "referenced_type" : "_ZTIPNSt3__113__atomic_baseIiLb0EEE"
    },
    {
     "referenced_type" : "_ZTIi"
    }
   ],
   "return_type" : "_ZTIv",
   "source_file" : "external/libcxx/include/atomic"
  },
  {
   "function_name" : "std::__1::__atomic_base<int, false>::__atomic_base",
   "linker_set_key" : "_ZNSt3__113__atomic_baseIiLb0EEC2Ev",
   "parameters" :
   [
    {
     "is_this_ptr" : true,
     "referenced_type" : "_ZTIPNSt3__113__atomic_baseIiLb0EEE"
    }
   ],
   "return_type" : "_ZTIv",
   "source_file" : "external/libcxx/include/atomic"
  },
  {
   "function_name" : "std::__1::__atomic_base<int, true>::fetch_add",
   "linker_set_key" : "_ZNSt3__113__atomic_baseIiLb1EE9fetch_addEiNS_12memory_orderE",
   "parameters" :
   [
    {
     "is_this_ptr" : true,
     "referenced_type" : "_ZTIPNSt3__113__atomic_baseIiLb1EEE"
    },
    {
     "referenced_type" : "_ZTIi"
    },
    {
     "default_arg" : true,
     "referenced_type" : "_ZTINSt3__112memory_orderE"
    }
   ],
   "return_type" : "_ZTIi",
   "source_file" : "external/libcxx/include/atomic"
  },
  {
   "function_name" : "std::__1::__atomic_base<int, true>::__atomic_base",
   "linker_set_key" : "_ZNSt3__113__atomic_baseIiLb1EEC1Ei",
   "parameters" :
   [
    {
     "is_this_ptr" : true,
     "referenced_type" : "_ZTIPNSt3__113__atomic_baseIiLb1EEE"
    },
    {
     "referenced_type" : "_ZTIi"
    }
   ],
   "return_type" : "_ZTIv",
   "source_file" : "external/libcxx/include/atomic"
  },
  {
   "function_name" : "std::__1::__atomic_base<int, true>::__atomic_base",
   "linker_set_key" : "_ZNSt3__113__atomic_baseIiLb1EEC1Ev",
   "parameters" :
   [
    {
     "is_this_ptr" : true,
     "referenced_type" : "_ZTIPNSt3__113__atomic_baseIiLb1EEE"
    }
   ],
   "return_type" : "_ZTIv",
   "source_file" : "external/libcxx/include/atomic"
  },
  {
   "function_name" : "std::__1::__atomic_base<int, true>::__atomic_base",
   "linker_set_key" : "_ZNSt3__113__atomic_baseIiLb1EEC2Ei",
   "parameters" :
   [
    {
     "is_this_ptr" : true,
     "referenced_type" : "_ZTIPNSt3__113__atomic_baseIiLb1EEE"
    },
    {
     "referenced_type" : "_ZTIi"
    }
   ],
   "return_type" : "_ZTIv",
   "source_file" : "external/libcxx/include/atomic"
  },
  {
   "function_name" : "std::__1::__atomic_base<int, true>::__atomic_base",
   "linker_set_key" : "_ZNSt3__113__atomic_baseIiLb1EEC2Ev",
   "parameters" :
   [
    {
     "is_this_ptr" : true,
     "referenced_type" : "_ZTIPNSt3__113__atomic_baseIiLb1EEE"
    }
   ],
   "return_type" : "_ZTIv",
   "source_file" : "external/libcxx/include/atomic"
  },
  {
   "function_name" : "std::__1::__find_detail::__find_idx_return",
   "linker_set_key" : "_ZNSt3__113__find_detail17__find_idx_returnEjjb",
   "parameters" :
   [
    {
     "referenced_type" : "_ZTIj"
    },
    {
     "referenced_type" : "_ZTIj"
    },
    {
     "referenced_type" : "_ZTIb"
    }
   ],
   "return_type" : "_ZTIj",
   "source_file" : "external/libcxx/include/tuple"
  },
  {
   "function_name" : "std::__1::__hash_combine",
   "linker_set_key" : "_ZNSt3__114__hash_combineEjj",
   "parameters" :
   [
    {
     "referenced_type" : "_ZTIj"
    },
    {
     "referenced_type" : "_ZTIj"
    }
   ],
   "return_type" : "_ZTIj",
   "source_file" : "external/libcxx/include/utility"
  },
  {
   "function_name" : "std::__1::__shared_count::__add_shared",
   "linker_set_key" : "_ZNSt3__114__shared_count12__add_sharedEv",
   "parameters" :
   [
    {
     "is_this_ptr" : true,
     "referenced_type" : "_ZTIPNSt3__114__shared_countE"
    }
   ],
   "return_type" : "_ZTIv",
   "source_file" : "external/libcxx/include/memory"
  },
  {
   "function_name" : "std::__1::__shared_count::__release_shared",
   "linker_set_key" : "_ZNSt3__114__shared_count16__release_sharedEv",
   "parameters" :
   [
    {
     "is_this_ptr" : true,
     "referenced_type" : "_ZTIPNSt3__114__shared_countE"
    }
   ],
   "return_type" : "_ZTIb",
   "source_file" : "external/libcxx/include/memory"
  },
  {
   "function_name" : "std::__1::__shared_count::__shared_count",
   "linker_set_key" : "_ZNSt3__114__shared_countC2El",
   "parameters" :
   [
    {
     "is_this_ptr" : true,
     "referenced_type" : "_ZTIPNSt3__114__shared_countE"
    },
    {
     "default_arg" : true,
     "referenced_type" : "_ZTIl"
    }
   ],
   "return_type" : "_ZTIv",
   "source_file" : "external/libcxx/include/memory"
  },
  {
   "function_name" : "std::__1::default_delete<SkFILEStream>::default_delete",
   "linker_set_key" : "_ZNSt3__114default_deleteI12SkFILEStreamEC1Ev",
   "parameters" :
   [
    {
     "is_this_ptr" : true,
     "referenced_type" : "_ZTIPNSt3__114default_deleteI12SkFILEStreamEE"
    }
   ],
   "return_type" : "_ZTIv",
   "source_file" : "external/libcxx/include/memory"
  },
  {
   "function_name" : "std::__1::default_delete<SkFILEStream>::default_delete",
   "linker_set_key" : "_ZNSt3__114default_deleteI12SkFILEStreamEC2Ev",
   "parameters" :
   [
    {
     "is_this_ptr" : true,
     "referenced_type" : "_ZTIPNSt3__114default_deleteI12SkFILEStreamEE"
    }
   ],
   "return_type" : "_ZTIv",
   "source_file" : "external/libcxx/include/memory"
  },
  {
   "function_name" : "std::__1::default_delete<SkStreamAsset>::default_delete",
   "linker_set_key" : "_ZNSt3__114default_deleteI13SkStreamAssetEC1Ev",
   "parameters" :
   [
    {
     "is_this_ptr" : true,
     "referenced_type" : "_ZTIPNSt3__114default_deleteI13SkStreamAssetEE"
    }
   ],
   "return_type" : "_ZTIv",
   "source_file" : "external/libcxx/include/memory"
  },
  {
   "function_name" : "std::__1::default_delete<SkStreamAsset>::default_delete",
   "linker_set_key" : "_ZNSt3__114default_deleteI13SkStreamAssetEC2Ev",
   "parameters" :
   [
    {
     "is_this_ptr" : true,
     "referenced_type" : "_ZTIPNSt3__114default_deleteI13SkStreamAssetEE"
    }
   ],
   "return_type" : "_ZTIv",
   "source_file" : "external/libcxx/include/memory"
  },
  {
   "function_name" : "std::__1::default_delete<SkMemoryStream>::default_delete",
   "linker_set_key" : "_ZNSt3__114default_deleteI14SkMemoryStreamEC1Ev",
   "parameters" :
   [
    {
     "is_this_ptr" : true,
     "referenced_type" : "_ZTIPNSt3__114default_deleteI14SkMemoryStreamEE"
    }
   ],
   "return_type" : "_ZTIv",
   "source_file" : "external/libcxx/include/memory"
  },
  {
   "function_name" : "std::__1::default_delete<SkMemoryStream>::default_delete",
   "linker_set_key" : "_ZNSt3__114default_deleteI14SkMemoryStreamEC2Ev",
   "parameters" :
   [
    {
     "is_this_ptr" : true,
     "referenced_type" : "_ZTIPNSt3__114default_deleteI14SkMemoryStreamEE"
    }
   ],
   "return_type" : "_ZTIv",
   "source_file" : "external/libcxx/include/memory"
  },
  {
   "function_name" : "std::__1::default_delete<SkStreamMemory>::default_delete",
   "linker_set_key" : "_ZNSt3__114default_deleteI14SkStreamMemoryEC1Ev",
   "parameters" :
   [
    {
     "is_this_ptr" : true,
     "referenced_type" : "_ZTIPNSt3__114default_deleteI14SkStreamMemoryEE"
    }
   ],
   "return_type" : "_ZTIv",
   "source_file" : "external/libcxx/include/memory"
  },
  {
   "function_name" : "std::__1::default_delete<SkStreamMemory>::default_delete",
   "linker_set_key" : "_ZNSt3__114default_deleteI14SkStreamMemoryEC2Ev",
   "parameters" :
   [
    {
     "is_this_ptr" : true,
     "referenced_type" : "_ZTIPNSt3__114default_deleteI14SkStreamMemoryEE"
    }
   ],
   "return_type" : "_ZTIv",
   "source_file" : "external/libcxx/include/memory"
  },
  {
   "function_name" : "std::__1::default_delete<SkStreamSeekable>::default_delete",
   "linker_set_key" : "_ZNSt3__114default_deleteI16SkStreamSeekableEC1Ev",
   "parameters" :
   [
    {
     "is_this_ptr" : true,
     "referenced_type" : "_ZTIPNSt3__114default_deleteI16SkStreamSeekableEE"
    }
   ],
   "return_type" : "_ZTIv",
   "source_file" : "external/libcxx/include/memory"
  },
  {
   "function_name" : "std::__1::default_delete<SkStreamSeekable>::default_delete",
   "linker_set_key" : "_ZNSt3__114default_deleteI16SkStreamSeekableEC2Ev",
   "parameters" :
   [
    {
     "is_this_ptr" : true,
     "referenced_type" : "_ZTIPNSt3__114default_deleteI16SkStreamSeekableEE"
    }
   ],
   "return_type" : "_ZTIv",
   "source_file" : "external/libcxx/include/memory"
  },
  {
   "function_name" : "std::__1::default_delete<SkStreamRewindable>::default_delete",
   "linker_set_key" : "_ZNSt3__114default_deleteI18SkStreamRewindableEC1Ev",
   "parameters" :
   [
    {
     "is_this_ptr" : true,
     "referenced_type" : "_ZTIPNSt3__114default_deleteI18SkStreamRewindableEE"
    }
   ],
   "return_type" : "_ZTIv",
   "source_file" : "external/libcxx/include/memory"
  },
  {
   "function_name" : "std::__1::default_delete<SkStreamRewindable>::default_delete",
   "linker_set_key" : "_ZNSt3__114default_deleteI18SkStreamRewindableEC2Ev",
   "parameters" :
   [
    {
     "is_this_ptr" : true,
     "referenced_type" : "_ZTIPNSt3__114default_deleteI18SkStreamRewindableEE"
    }
   ],
   "return_type" : "_ZTIv",
   "source_file" : "external/libcxx/include/memory"
  },
  {
   "function_name" : "std::__1::default_delete<SkStream>::default_delete",
   "linker_set_key" : "_ZNSt3__114default_deleteI8SkStreamEC1Ev",
   "parameters" :
   [
    {
     "is_this_ptr" : true,
     "referenced_type" : "_ZTIPNSt3__114default_deleteI8SkStreamEE"
    }
   ],
   "return_type" : "_ZTIv",
   "source_file" : "external/libcxx/include/memory"
  },
  {
   "function_name" : "std::__1::default_delete<SkStream>::default_delete",
   "linker_set_key" : "_ZNSt3__114default_deleteI8SkStreamEC2Ev",
   "parameters" :
   [
    {
     "is_this_ptr" : true,
     "referenced_type" : "_ZTIPNSt3__114default_deleteI8SkStreamEE"
    }
   ],
   "return_type" : "_ZTIv",
   "source_file" : "external/libcxx/include/memory"
  },
  {
   "function_name" : "std::__1::pointer_safety::pointer_safety",
   "linker_set_key" : "_ZNSt3__114pointer_safetyC1ENS0_4__lxE",
   "parameters" :
   [
    {
     "is_this_ptr" : true,
     "referenced_type" : "_ZTIPNSt3__114pointer_safetyE"
    },
    {
     "referenced_type" : "_ZTINSt3__114pointer_safety4__lxE"
    }
   ],
   "return_type" : "_ZTIv",
   "source_file" : "external/libcxx/include/memory"
  },
  {
   "function_name" : "std::__1::pointer_safety::pointer_safety",
   "linker_set_key" : "_ZNSt3__114pointer_safetyC1Ev",
   "parameters" :
   [
    {
     "is_this_ptr" : true,
     "referenced_type" : "_ZTIPNSt3__114pointer_safetyE"
    }
   ],
   "return_type" : "_ZTIv",
   "source_file" : "external/libcxx/include/memory"
  },
  {
   "function_name" : "std::__1::pointer_safety::pointer_safety",
   "linker_set_key" : "_ZNSt3__114pointer_safetyC2ENS0_4__lxE",
   "parameters" :
   [
    {
     "is_this_ptr" : true,
     "referenced_type" : "_ZTIPNSt3__114pointer_safetyE"
    },
    {
     "referenced_type" : "_ZTINSt3__114pointer_safety4__lxE"
    }
   ],
   "return_type" : "_ZTIv",
   "source_file" : "external/libcxx/include/memory"
  },
  {
   "function_name" : "std::__1::pointer_safety::pointer_safety",
   "linker_set_key" : "_ZNSt3__114pointer_safetyC2Ev",
   "parameters" :
   [
    {
     "is_this_ptr" : true,
     "referenced_type" : "_ZTIPNSt3__114pointer_safetyE"
    }
   ],
   "return_type" : "_ZTIv",
   "source_file" : "external/libcxx/include/memory"
  },
  {
   "function_name" : "std::__1::__throw_bad_cast",
   "linker_set_key" : "_ZNSt3__116__throw_bad_castEv",
   "return_type" : "_ZTIv",
   "source_file" : "external/libcxx/include/typeinfo"
  },
  {
   "access" : "private",
   "function_name" : "std::__1::_DeallocateCaller::__do_deallocate_handle_size",
   "linker_set_key" : "_ZNSt3__117_DeallocateCaller27__do_deallocate_handle_sizeEPvj",
   "parameters" :
   [
    {
     "referenced_type" : "_ZTIPv"
    },
    {
     "referenced_type" : "_ZTIj"
    }
   ],
   "return_type" : "_ZTIv",
   "source_file" : "external/libcxx/include/new"
  },
  {
   "access" : "private",
   "function_name" : "std::__1::_DeallocateCaller::__do_deallocate_handle_size",
   "linker_set_key" : "_ZNSt3__117_DeallocateCaller27__do_deallocate_handle_sizeEPvjSt11align_val_t",
   "parameters" :
   [
    {
     "referenced_type" : "_ZTIPv"
    },
    {
     "referenced_type" : "_ZTIj"
    },
    {
     "referenced_type" : "_ZTISt11align_val_t"
    }
   ],
   "return_type" : "_ZTIv",
   "source_file" : "external/libcxx/include/new"
  },
  {
   "function_name" : "std::__1::_DeallocateCaller::__do_deallocate_handle_align",
   "linker_set_key" : "_ZNSt3__117_DeallocateCaller28__do_deallocate_handle_alignEPvj",
   "parameters" :
   [
    {
     "referenced_type" : "_ZTIPv"
    },
    {
     "referenced_type" : "_ZTIj"
    }
   ],
   "return_type" : "_ZTIv",
   "source_file" : "external/libcxx/include/new"
  },
  {
   "function_name" : "std::__1::_DeallocateCaller::__do_deallocate_handle_size_align",
   "linker_set_key" : "_ZNSt3__117_DeallocateCaller33__do_deallocate_handle_size_alignEPvjj",
   "parameters" :
   [
    {
     "referenced_type" : "_ZTIPv"
    },
    {
     "referenced_type" : "_ZTIj"
    },
    {
     "referenced_type" : "_ZTIj"
    }
   ],
   "return_type" : "_ZTIv",
   "source_file" : "external/libcxx/include/new"
  },
  {
   "access" : "private",
   "function_name" : "std::__1::_DeallocateCaller::__do_call",
   "linker_set_key" : "_ZNSt3__117_DeallocateCaller9__do_callEPv",
   "parameters" :
   [
    {
     "referenced_type" : "_ZTIPv"
    }
   ],
   "return_type" : "_ZTIv",
   "source_file" : "external/libcxx/include/new"
  },
  {
   "access" : "private",
   "function_name" : "std::__1::_DeallocateCaller::__do_call",
   "linker_set_key" : "_ZNSt3__117_DeallocateCaller9__do_callISt11align_val_tEEvPvT_",
   "parameters" :
   [
    {
     "referenced_type" : "_ZTIPv"
    },
    {
     "referenced_type" : "_ZTISt11align_val_t"
    }
   ],
   "return_type" : "_ZTIv",
   "source_file" : "external/libcxx/include/new",
   "template_args" : [ "_ZTISt11align_val_t" ]
  },
  {
   "function_name" : "std::__1::__compressed_pair<SkFILEStream *, std::__1::default_delete<SkFILEStream>>::first",
   "linker_set_key" : "_ZNSt3__117__compressed_pairIP12SkFILEStreamNS_14default_deleteIS1_EEE5firstEv",
   "parameters" :
   [
    {
     "is_this_ptr" : true,
     "referenced_type" : "_ZTIPNSt3__117__compressed_pairIP12SkFILEStreamNS_14default_deleteIS1_EEEE"
    }
   ],
   "return_type" : "_ZTIRP12SkFILEStream",
   "source_file" : "external/libcxx/include/memory"
  },
  {
   "function_name" : "std::__1::__compressed_pair<SkFILEStream *, std::__1::default_delete<SkFILEStream>>::second",
   "linker_set_key" : "_ZNSt3__117__compressed_pairIP12SkFILEStreamNS_14default_deleteIS1_EEE6secondEv",
   "parameters" :
   [
    {
     "is_this_ptr" : true,
     "referenced_type" : "_ZTIPNSt3__117__compressed_pairIP12SkFILEStreamNS_14default_deleteIS1_EEEE"
    }
   ],
   "return_type" : "_ZTIRNSt3__114default_deleteI12SkFILEStreamEE",
   "source_file" : "external/libcxx/include/memory"
  },
  {
   "function_name" : "std::__1::__compressed_pair<SkFILEStream *, std::__1::default_delete<SkFILEStream>>::__compressed_pair",
   "linker_set_key" : "_ZNSt3__117__compressed_pairIP12SkFILEStreamNS_14default_deleteIS1_EEEC1IRS2_Lb1EEEOT_",
   "parameters" :
   [
    {
     "is_this_ptr" : true,
     "referenced_type" : "_ZTIPNSt3__117__compressed_pairIP12SkFILEStreamNS_14default_deleteIS1_EEEE"
    },
    {
     "referenced_type" : "_ZTIRP12SkFILEStream"
    }
   ],
   "return_type" : "_ZTIv",
   "source_file" : "external/libcxx/include/memory",
   "template_args" : [ "_ZTIRP12SkFILEStream" ]
  },
  {
   "function_name" : "std::__1::__compressed_pair<SkFILEStream *, std::__1::default_delete<SkFILEStream>>::__compressed_pair",
   "linker_set_key" : "_ZNSt3__117__compressed_pairIP12SkFILEStreamNS_14default_deleteIS1_EEEC1IS2_Lb1EEEOT_",
   "parameters" :
   [
    {
     "is_this_ptr" : true,
     "referenced_type" : "_ZTIPNSt3__117__compressed_pairIP12SkFILEStreamNS_14default_deleteIS1_EEEE"
    },
    {
     "referenced_type" : "_ZTIOP12SkFILEStream"
    }
   ],
   "return_type" : "_ZTIv",
   "source_file" : "external/libcxx/include/memory",
   "template_args" : [ "_ZTIP12SkFILEStream" ]
  },
  {
   "function_name" : "std::__1::__compressed_pair<SkFILEStream *, std::__1::default_delete<SkFILEStream>>::__compressed_pair",
   "linker_set_key" : "_ZNSt3__117__compressed_pairIP12SkFILEStreamNS_14default_deleteIS1_EEEC1IS2_S4_EEOT_OT0_",
   "parameters" :
   [
    {
     "is_this_ptr" : true,
     "referenced_type" : "_ZTIPNSt3__117__compressed_pairIP12SkFILEStreamNS_14default_deleteIS1_EEEE"
    },
    {
     "referenced_type" : "_ZTIOP12SkFILEStream"
    },
    {
     "referenced_type" : "_ZTIONSt3__114default_deleteI12SkFILEStreamEE"
    }
   ],
   "return_type" : "_ZTIv",
   "source_file" : "external/libcxx/include/memory",
   "template_args" : [ "_ZTIP12SkFILEStream", "_ZTINSt3__114default_deleteI12SkFILEStreamEE" ]
  },
  {
   "function_name" : "std::__1::__compressed_pair<SkFILEStream *, std::__1::default_delete<SkFILEStream>>::__compressed_pair",
   "linker_set_key" : "_ZNSt3__117__compressed_pairIP12SkFILEStreamNS_14default_deleteIS1_EEEC2IRS2_Lb1EEEOT_",
   "parameters" :
   [
    {
     "is_this_ptr" : true,
     "referenced_type" : "_ZTIPNSt3__117__compressed_pairIP12SkFILEStreamNS_14default_deleteIS1_EEEE"
    },
    {
     "referenced_type" : "_ZTIRP12SkFILEStream"
    }
   ],
   "return_type" : "_ZTIv",
   "source_file" : "external/libcxx/include/memory",
   "template_args" : [ "_ZTIRP12SkFILEStream" ]
  },
  {
   "function_name" : "std::__1::__compressed_pair<SkFILEStream *, std::__1::default_delete<SkFILEStream>>::__compressed_pair",
   "linker_set_key" : "_ZNSt3__117__compressed_pairIP12SkFILEStreamNS_14default_deleteIS1_EEEC2IS2_Lb1EEEOT_",
   "parameters" :
   [
    {
     "is_this_ptr" : true,
     "referenced_type" : "_ZTIPNSt3__117__compressed_pairIP12SkFILEStreamNS_14default_deleteIS1_EEEE"
    },
    {
     "referenced_type" : "_ZTIOP12SkFILEStream"
    }
   ],
   "return_type" : "_ZTIv",
   "source_file" : "external/libcxx/include/memory",
   "template_args" : [ "_ZTIP12SkFILEStream" ]
  },
  {
   "function_name" : "std::__1::__compressed_pair<SkFILEStream *, std::__1::default_delete<SkFILEStream>>::__compressed_pair",
   "linker_set_key" : "_ZNSt3__117__compressed_pairIP12SkFILEStreamNS_14default_deleteIS1_EEEC2IS2_S4_EEOT_OT0_",
   "parameters" :
   [
    {
     "is_this_ptr" : true,
     "referenced_type" : "_ZTIPNSt3__117__compressed_pairIP12SkFILEStreamNS_14default_deleteIS1_EEEE"
    },
    {
     "referenced_type" : "_ZTIOP12SkFILEStream"
    },
    {
     "referenced_type" : "_ZTIONSt3__114default_deleteI12SkFILEStreamEE"
    }
   ],
   "return_type" : "_ZTIv",
   "source_file" : "external/libcxx/include/memory",
   "template_args" : [ "_ZTIP12SkFILEStream", "_ZTINSt3__114default_deleteI12SkFILEStreamEE" ]
  },
  {
   "function_name" : "std::__1::__compressed_pair<SkStreamAsset *, std::__1::default_delete<SkStreamAsset>>::first",
   "linker_set_key" : "_ZNSt3__117__compressed_pairIP13SkStreamAssetNS_14default_deleteIS1_EEE5firstEv",
   "parameters" :
   [
    {
     "is_this_ptr" : true,
     "referenced_type" : "_ZTIPNSt3__117__compressed_pairIP13SkStreamAssetNS_14default_deleteIS1_EEEE"
    }
   ],
   "return_type" : "_ZTIRP13SkStreamAsset",
   "source_file" : "external/libcxx/include/memory"
  },
  {
   "function_name" : "std::__1::__compressed_pair<SkStreamAsset *, std::__1::default_delete<SkStreamAsset>>::second",
   "linker_set_key" : "_ZNSt3__117__compressed_pairIP13SkStreamAssetNS_14default_deleteIS1_EEE6secondEv",
   "parameters" :
   [
    {
     "is_this_ptr" : true,
     "referenced_type" : "_ZTIPNSt3__117__compressed_pairIP13SkStreamAssetNS_14default_deleteIS1_EEEE"
    }
   ],
   "return_type" : "_ZTIRNSt3__114default_deleteI13SkStreamAssetEE",
   "source_file" : "external/libcxx/include/memory"
  },
  {
   "function_name" : "std::__1::__compressed_pair<SkStreamAsset *, std::__1::default_delete<SkStreamAsset>>::__compressed_pair",
   "linker_set_key" : "_ZNSt3__117__compressed_pairIP13SkStreamAssetNS_14default_deleteIS1_EEEC1IRS2_Lb1EEEOT_",
   "parameters" :
   [
    {
     "is_this_ptr" : true,
     "referenced_type" : "_ZTIPNSt3__117__compressed_pairIP13SkStreamAssetNS_14default_deleteIS1_EEEE"
    },
    {
     "referenced_type" : "_ZTIRP13SkStreamAsset"
    }
   ],
   "return_type" : "_ZTIv",
   "source_file" : "external/libcxx/include/memory",
   "template_args" : [ "_ZTIRP13SkStreamAsset" ]
  },
  {
   "function_name" : "std::__1::__compressed_pair<SkStreamAsset *, std::__1::default_delete<SkStreamAsset>>::__compressed_pair",
   "linker_set_key" : "_ZNSt3__117__compressed_pairIP13SkStreamAssetNS_14default_deleteIS1_EEEC2IRS2_Lb1EEEOT_",
   "parameters" :
   [
    {
     "is_this_ptr" : true,
     "referenced_type" : "_ZTIPNSt3__117__compressed_pairIP13SkStreamAssetNS_14default_deleteIS1_EEEE"
    },
    {
     "referenced_type" : "_ZTIRP13SkStreamAsset"
    }
   ],
   "return_type" : "_ZTIv",
   "source_file" : "external/libcxx/include/memory",
   "template_args" : [ "_ZTIRP13SkStreamAsset" ]
  },
  {
   "function_name" : "std::__1::__compressed_pair<SkMemoryStream *, std::__1::default_delete<SkMemoryStream>>::first",
   "linker_set_key" : "_ZNSt3__117__compressed_pairIP14SkMemoryStreamNS_14default_deleteIS1_EEE5firstEv",
   "parameters" :
   [
    {
     "is_this_ptr" : true,
     "referenced_type" : "_ZTIPNSt3__117__compressed_pairIP14SkMemoryStreamNS_14default_deleteIS1_EEEE"
    }
   ],
   "return_type" : "_ZTIRP14SkMemoryStream",
   "source_file" : "external/libcxx/include/memory"
  },
  {
   "function_name" : "std::__1::__compressed_pair<SkMemoryStream *, std::__1::default_delete<SkMemoryStream>>::second",
   "linker_set_key" : "_ZNSt3__117__compressed_pairIP14SkMemoryStreamNS_14default_deleteIS1_EEE6secondEv",
   "parameters" :
   [
    {
     "is_this_ptr" : true,
     "referenced_type" : "_ZTIPNSt3__117__compressed_pairIP14SkMemoryStreamNS_14default_deleteIS1_EEEE"
    }
   ],
   "return_type" : "_ZTIRNSt3__114default_deleteI14SkMemoryStreamEE",
   "source_file" : "external/libcxx/include/memory"
  },
  {
   "function_name" : "std::__1::__compressed_pair<SkMemoryStream *, std::__1::default_delete<SkMemoryStream>>::__compressed_pair",
   "linker_set_key" : "_ZNSt3__117__compressed_pairIP14SkMemoryStreamNS_14default_deleteIS1_EEEC1IRS2_Lb1EEEOT_",
   "parameters" :
   [
    {
     "is_this_ptr" : true,
     "referenced_type" : "_ZTIPNSt3__117__compressed_pairIP14SkMemoryStreamNS_14default_deleteIS1_EEEE"
    },
    {
     "referenced_type" : "_ZTIRP14SkMemoryStream"
    }
   ],
   "return_type" : "_ZTIv",
   "source_file" : "external/libcxx/include/memory",
   "template_args" : [ "_ZTIRP14SkMemoryStream" ]
  },
  {
   "function_name" : "std::__1::__compressed_pair<SkMemoryStream *, std::__1::default_delete<SkMemoryStream>>::__compressed_pair",
   "linker_set_key" : "_ZNSt3__117__compressed_pairIP14SkMemoryStreamNS_14default_deleteIS1_EEEC2IRS2_Lb1EEEOT_",
   "parameters" :
   [
    {
     "is_this_ptr" : true,
     "referenced_type" : "_ZTIPNSt3__117__compressed_pairIP14SkMemoryStreamNS_14default_deleteIS1_EEEE"
    },
    {
     "referenced_type" : "_ZTIRP14SkMemoryStream"
    }
   ],
   "return_type" : "_ZTIv",
   "source_file" : "external/libcxx/include/memory",
   "template_args" : [ "_ZTIRP14SkMemoryStream" ]
  },
  {
   "function_name" : "std::__1::__compressed_pair<SkStreamMemory *, std::__1::default_delete<SkStreamMemory>>::first",
   "linker_set_key" : "_ZNSt3__117__compressed_pairIP14SkStreamMemoryNS_14default_deleteIS1_EEE5firstEv",
   "parameters" :
   [
    {
     "is_this_ptr" : true,
     "referenced_type" : "_ZTIPNSt3__117__compressed_pairIP14SkStreamMemoryNS_14default_deleteIS1_EEEE"
    }
   ],
   "return_type" : "_ZTIRP14SkStreamMemory",
   "source_file" : "external/libcxx/include/memory"
  },
  {
   "function_name" : "std::__1::__compressed_pair<SkStreamMemory *, std::__1::default_delete<SkStreamMemory>>::second",
   "linker_set_key" : "_ZNSt3__117__compressed_pairIP14SkStreamMemoryNS_14default_deleteIS1_EEE6secondEv",
   "parameters" :
   [
    {
     "is_this_ptr" : true,
     "referenced_type" : "_ZTIPNSt3__117__compressed_pairIP14SkStreamMemoryNS_14default_deleteIS1_EEEE"
    }
   ],
   "return_type" : "_ZTIRNSt3__114default_deleteI14SkStreamMemoryEE",
   "source_file" : "external/libcxx/include/memory"
  },
  {
   "function_name" : "std::__1::__compressed_pair<SkStreamMemory *, std::__1::default_delete<SkStreamMemory>>::__compressed_pair",
   "linker_set_key" : "_ZNSt3__117__compressed_pairIP14SkStreamMemoryNS_14default_deleteIS1_EEEC1IRS2_Lb1EEEOT_",
   "parameters" :
   [
    {
     "is_this_ptr" : true,
     "referenced_type" : "_ZTIPNSt3__117__compressed_pairIP14SkStreamMemoryNS_14default_deleteIS1_EEEE"
    },
    {
     "referenced_type" : "_ZTIRP14SkStreamMemory"
    }
   ],
   "return_type" : "_ZTIv",
   "source_file" : "external/libcxx/include/memory",
   "template_args" : [ "_ZTIRP14SkStreamMemory" ]
  },
  {
   "function_name" : "std::__1::__compressed_pair<SkStreamMemory *, std::__1::default_delete<SkStreamMemory>>::__compressed_pair",
   "linker_set_key" : "_ZNSt3__117__compressed_pairIP14SkStreamMemoryNS_14default_deleteIS1_EEEC2IRS2_Lb1EEEOT_",
   "parameters" :
   [
    {
     "is_this_ptr" : true,
     "referenced_type" : "_ZTIPNSt3__117__compressed_pairIP14SkStreamMemoryNS_14default_deleteIS1_EEEE"
    },
    {
     "referenced_type" : "_ZTIRP14SkStreamMemory"
    }
   ],
   "return_type" : "_ZTIv",
   "source_file" : "external/libcxx/include/memory",
   "template_args" : [ "_ZTIRP14SkStreamMemory" ]
  },
  {
   "function_name" : "std::__1::__compressed_pair<SkStreamSeekable *, std::__1::default_delete<SkStreamSeekable>>::first",
   "linker_set_key" : "_ZNSt3__117__compressed_pairIP16SkStreamSeekableNS_14default_deleteIS1_EEE5firstEv",
   "parameters" :
   [
    {
     "is_this_ptr" : true,
     "referenced_type" : "_ZTIPNSt3__117__compressed_pairIP16SkStreamSeekableNS_14default_deleteIS1_EEEE"
    }
   ],
   "return_type" : "_ZTIRP16SkStreamSeekable",
   "source_file" : "external/libcxx/include/memory"
  },
  {
   "function_name" : "std::__1::__compressed_pair<SkStreamSeekable *, std::__1::default_delete<SkStreamSeekable>>::second",
   "linker_set_key" : "_ZNSt3__117__compressed_pairIP16SkStreamSeekableNS_14default_deleteIS1_EEE6secondEv",
   "parameters" :
   [
    {
     "is_this_ptr" : true,
     "referenced_type" : "_ZTIPNSt3__117__compressed_pairIP16SkStreamSeekableNS_14default_deleteIS1_EEEE"
    }
   ],
   "return_type" : "_ZTIRNSt3__114default_deleteI16SkStreamSeekableEE",
   "source_file" : "external/libcxx/include/memory"
  },
  {
   "function_name" : "std::__1::__compressed_pair<SkStreamSeekable *, std::__1::default_delete<SkStreamSeekable>>::__compressed_pair",
   "linker_set_key" : "_ZNSt3__117__compressed_pairIP16SkStreamSeekableNS_14default_deleteIS1_EEEC1IRS2_Lb1EEEOT_",
   "parameters" :
   [
    {
     "is_this_ptr" : true,
     "referenced_type" : "_ZTIPNSt3__117__compressed_pairIP16SkStreamSeekableNS_14default_deleteIS1_EEEE"
    },
    {
     "referenced_type" : "_ZTIRP16SkStreamSeekable"
    }
   ],
   "return_type" : "_ZTIv",
   "source_file" : "external/libcxx/include/memory",
   "template_args" : [ "_ZTIRP16SkStreamSeekable" ]
  },
  {
   "function_name" : "std::__1::__compressed_pair<SkStreamSeekable *, std::__1::default_delete<SkStreamSeekable>>::__compressed_pair",
   "linker_set_key" : "_ZNSt3__117__compressed_pairIP16SkStreamSeekableNS_14default_deleteIS1_EEEC2IRS2_Lb1EEEOT_",
   "parameters" :
   [
    {
     "is_this_ptr" : true,
     "referenced_type" : "_ZTIPNSt3__117__compressed_pairIP16SkStreamSeekableNS_14default_deleteIS1_EEEE"
    },
    {
     "referenced_type" : "_ZTIRP16SkStreamSeekable"
    }
   ],
   "return_type" : "_ZTIv",
   "source_file" : "external/libcxx/include/memory",
   "template_args" : [ "_ZTIRP16SkStreamSeekable" ]
  },
  {
   "function_name" : "std::__1::__compressed_pair<SkStreamRewindable *, std::__1::default_delete<SkStreamRewindable>>::first",
   "linker_set_key" : "_ZNSt3__117__compressed_pairIP18SkStreamRewindableNS_14default_deleteIS1_EEE5firstEv",
   "parameters" :
   [
    {
     "is_this_ptr" : true,
     "referenced_type" : "_ZTIPNSt3__117__compressed_pairIP18SkStreamRewindableNS_14default_deleteIS1_EEEE"
    }
   ],
   "return_type" : "_ZTIRP18SkStreamRewindable",
   "source_file" : "external/libcxx/include/memory"
  },
  {
   "function_name" : "std::__1::__compressed_pair<SkStreamRewindable *, std::__1::default_delete<SkStreamRewindable>>::second",
   "linker_set_key" : "_ZNSt3__117__compressed_pairIP18SkStreamRewindableNS_14default_deleteIS1_EEE6secondEv",
   "parameters" :
   [
    {
     "is_this_ptr" : true,
     "referenced_type" : "_ZTIPNSt3__117__compressed_pairIP18SkStreamRewindableNS_14default_deleteIS1_EEEE"
    }
   ],
   "return_type" : "_ZTIRNSt3__114default_deleteI18SkStreamRewindableEE",
   "source_file" : "external/libcxx/include/memory"
  },
  {
   "function_name" : "std::__1::__compressed_pair<SkStreamRewindable *, std::__1::default_delete<SkStreamRewindable>>::__compressed_pair",
   "linker_set_key" : "_ZNSt3__117__compressed_pairIP18SkStreamRewindableNS_14default_deleteIS1_EEEC1IRS2_Lb1EEEOT_",
   "parameters" :
   [
    {
     "is_this_ptr" : true,
     "referenced_type" : "_ZTIPNSt3__117__compressed_pairIP18SkStreamRewindableNS_14default_deleteIS1_EEEE"
    },
    {
     "referenced_type" : "_ZTIRP18SkStreamRewindable"
    }
   ],
   "return_type" : "_ZTIv",
   "source_file" : "external/libcxx/include/memory",
   "template_args" : [ "_ZTIRP18SkStreamRewindable" ]
  },
  {
   "function_name" : "std::__1::__compressed_pair<SkStreamRewindable *, std::__1::default_delete<SkStreamRewindable>>::__compressed_pair",
   "linker_set_key" : "_ZNSt3__117__compressed_pairIP18SkStreamRewindableNS_14default_deleteIS1_EEEC2IRS2_Lb1EEEOT_",
   "parameters" :
   [
    {
     "is_this_ptr" : true,
     "referenced_type" : "_ZTIPNSt3__117__compressed_pairIP18SkStreamRewindableNS_14default_deleteIS1_EEEE"
    },
    {
     "referenced_type" : "_ZTIRP18SkStreamRewindable"
    }
   ],
   "return_type" : "_ZTIv",
   "source_file" : "external/libcxx/include/memory",
   "template_args" : [ "_ZTIRP18SkStreamRewindable" ]
  },
  {
   "function_name" : "std::__1::__compressed_pair<SkStream *, std::__1::default_delete<SkStream>>::first",
   "linker_set_key" : "_ZNSt3__117__compressed_pairIP8SkStreamNS_14default_deleteIS1_EEE5firstEv",
   "parameters" :
   [
    {
     "is_this_ptr" : true,
     "referenced_type" : "_ZTIPNSt3__117__compressed_pairIP8SkStreamNS_14default_deleteIS1_EEEE"
    }
   ],
   "return_type" : "_ZTIRP8SkStream",
   "source_file" : "external/libcxx/include/memory"
  },
  {
   "function_name" : "std::__1::__compressed_pair<SkStream *, std::__1::default_delete<SkStream>>::second",
   "linker_set_key" : "_ZNSt3__117__compressed_pairIP8SkStreamNS_14default_deleteIS1_EEE6secondEv",
   "parameters" :
   [
    {
     "is_this_ptr" : true,
     "referenced_type" : "_ZTIPNSt3__117__compressed_pairIP8SkStreamNS_14default_deleteIS1_EEEE"
    }
   ],
   "return_type" : "_ZTIRNSt3__114default_deleteI8SkStreamEE",
   "source_file" : "external/libcxx/include/memory"
  },
  {
   "function_name" : "std::__1::__compressed_pair<SkStream *, std::__1::default_delete<SkStream>>::__compressed_pair",
   "linker_set_key" : "_ZNSt3__117__compressed_pairIP8SkStreamNS_14default_deleteIS1_EEEC1IRS2_Lb1EEEOT_",
   "parameters" :
   [
    {
     "is_this_ptr" : true,
     "referenced_type" : "_ZTIPNSt3__117__compressed_pairIP8SkStreamNS_14default_deleteIS1_EEEE"
    },
    {
     "referenced_type" : "_ZTIRP8SkStream"
    }
   ],
   "return_type" : "_ZTIv",
   "source_file" : "external/libcxx/include/memory",
   "template_args" : [ "_ZTIRP8SkStream" ]
  },
  {
   "function_name" : "std::__1::__compressed_pair<SkStream *, std::__1::default_delete<SkStream>>::__compressed_pair",
   "linker_set_key" : "_ZNSt3__117__compressed_pairIP8SkStreamNS_14default_deleteIS1_EEEC2IRS2_Lb1EEEOT_",
   "parameters" :
   [
    {
     "is_this_ptr" : true,
     "referenced_type" : "_ZTIPNSt3__117__compressed_pairIP8SkStreamNS_14default_deleteIS1_EEEE"
    },
    {
     "referenced_type" : "_ZTIRP8SkStream"
    }
   ],
   "return_type" : "_ZTIv",
   "source_file" : "external/libcxx/include/memory",
   "template_args" : [ "_ZTIRP8SkStream" ]
  },
  {
   "function_name" : "std::__1::__libcpp_allocate",
   "linker_set_key" : "_ZNSt3__117__libcpp_allocateEjj",
   "parameters" :
   [
    {
     "referenced_type" : "_ZTIj"
    },
    {
     "referenced_type" : "_ZTIj"
    }
   ],
   "return_type" : "_ZTIPv",
   "source_file" : "external/libcxx/include/new"
  },
  {
   "function_name" : "std::__1::atomic_flag_clear",
   "linker_set_key" : "_ZNSt3__117atomic_flag_clearEPNS_11atomic_flagE",
   "parameters" :
   [
    {
     "referenced_type" : "_ZTIPNSt3__111atomic_flagE"
    }
   ],
   "return_type" : "_ZTIv",
   "source_file" : "external/libcxx/include/atomic"
  },
  {
   "function_name" : "std::__1::atomic_flag_clear",
   "linker_set_key" : "_ZNSt3__117atomic_flag_clearEPVNS_11atomic_flagE",
   "parameters" :
   [
    {
     "referenced_type" : "_ZTIPVNSt3__111atomic_flagE"
    }
   ],
   "return_type" : "_ZTIv",
   "source_file" : "external/libcxx/include/atomic"
  },
  {
   "function_name" : "std::__1::__sfinae_ctor_base<false, false>::__sfinae_ctor_base",
   "linker_set_key" : "_ZNSt3__118__sfinae_ctor_baseILb0ELb0EEC1Ev",
   "parameters" :
   [
    {
     "is_this_ptr" : true,
     "referenced_type" : "_ZTIPNSt3__118__sfinae_ctor_baseILb0ELb0EEE"
    }
   ],
   "return_type" : "_ZTIv",
   "source_file" : "external/libcxx/include/__tuple"
  },
  {
   "function_name" : "std::__1::__sfinae_ctor_base<false, false>::__sfinae_ctor_base",
   "linker_set_key" : "_ZNSt3__118__sfinae_ctor_baseILb0ELb0EEC2Ev",
   "parameters" :
   [
    {
     "is_this_ptr" : true,
     "referenced_type" : "_ZTIPNSt3__118__sfinae_ctor_baseILb0ELb0EEE"
    }
   ],
   "return_type" : "_ZTIv",
   "source_file" : "external/libcxx/include/__tuple"
  },
  {
   "function_name" : "std::__1::__sfinae_ctor_base<false, false>::operator=",
   "linker_set_key" : "_ZNSt3__118__sfinae_ctor_baseILb0ELb0EEaSEOS1_",
   "parameters" :
   [
    {
     "is_this_ptr" : true,
     "referenced_type" : "_ZTIPNSt3__118__sfinae_ctor_baseILb0ELb0EEE"
    },
    {
     "referenced_type" : "_ZTIONSt3__118__sfinae_ctor_baseILb0ELb0EEE"
    }
   ],
   "return_type" : "_ZTIRNSt3__118__sfinae_ctor_baseILb0ELb0EEE",
   "source_file" : "external/libcxx/include/__tuple"
  },
  {
   "function_name" : "std::__1::__sfinae_ctor_base<false, false>::operator=",
   "linker_set_key" : "_ZNSt3__118__sfinae_ctor_baseILb0ELb0EEaSERKS1_",
   "parameters" :
   [
    {
     "is_this_ptr" : true,
     "referenced_type" : "_ZTIPNSt3__118__sfinae_ctor_baseILb0ELb0EEE"
    },
    {
     "referenced_type" : "_ZTIRKNSt3__118__sfinae_ctor_baseILb0ELb0EEE"
    }
   ],
   "return_type" : "_ZTIRNSt3__118__sfinae_ctor_baseILb0ELb0EEE",
   "source_file" : "external/libcxx/include/__tuple"
  },
  {
   "function_name" : "std::__1::__sfinae_ctor_base<false, true>::__sfinae_ctor_base",
   "linker_set_key" : "_ZNSt3__118__sfinae_ctor_baseILb0ELb1EEC1EOS1_",
   "parameters" :
   [
    {
     "is_this_ptr" : true,
     "referenced_type" : "_ZTIPNSt3__118__sfinae_ctor_baseILb0ELb1EEE"
    },
    {
     "referenced_type" : "_ZTIONSt3__118__sfinae_ctor_baseILb0ELb1EEE"
    }
   ],
   "return_type" : "_ZTIv",
   "source_file" : "external/libcxx/include/__tuple"
  },
  {
   "function_name" : "std::__1::__sfinae_ctor_base<false, true>::__sfinae_ctor_base",
   "linker_set_key" : "_ZNSt3__118__sfinae_ctor_baseILb0ELb1EEC1Ev",
   "parameters" :
   [
    {
     "is_this_ptr" : true,
     "referenced_type" : "_ZTIPNSt3__118__sfinae_ctor_baseILb0ELb1EEE"
    }
   ],
   "return_type" : "_ZTIv",
   "source_file" : "external/libcxx/include/__tuple"
  },
  {
   "function_name" : "std::__1::__sfinae_ctor_base<false, true>::__sfinae_ctor_base",
   "linker_set_key" : "_ZNSt3__118__sfinae_ctor_baseILb0ELb1EEC2EOS1_",
   "parameters" :
   [
    {
     "is_this_ptr" : true,
     "referenced_type" : "_ZTIPNSt3__118__sfinae_ctor_baseILb0ELb1EEE"
    },
    {
     "referenced_type" : "_ZTIONSt3__118__sfinae_ctor_baseILb0ELb1EEE"
    }
   ],
   "return_type" : "_ZTIv",
   "source_file" : "external/libcxx/include/__tuple"
  },
  {
   "function_name" : "std::__1::__sfinae_ctor_base<false, true>::__sfinae_ctor_base",
   "linker_set_key" : "_ZNSt3__118__sfinae_ctor_baseILb0ELb1EEC2Ev",
   "parameters" :
   [
    {
     "is_this_ptr" : true,
     "referenced_type" : "_ZTIPNSt3__118__sfinae_ctor_baseILb0ELb1EEE"
    }
   ],
   "return_type" : "_ZTIv",
   "source_file" : "external/libcxx/include/__tuple"
  },
  {
   "function_name" : "std::__1::__sfinae_ctor_base<false, true>::operator=",
   "linker_set_key" : "_ZNSt3__118__sfinae_ctor_baseILb0ELb1EEaSEOS1_",
   "parameters" :
   [
    {
     "is_this_ptr" : true,
     "referenced_type" : "_ZTIPNSt3__118__sfinae_ctor_baseILb0ELb1EEE"
    },
    {
     "referenced_type" : "_ZTIONSt3__118__sfinae_ctor_baseILb0ELb1EEE"
    }
   ],
   "return_type" : "_ZTIRNSt3__118__sfinae_ctor_baseILb0ELb1EEE",
   "source_file" : "external/libcxx/include/__tuple"
  },
  {
   "function_name" : "std::__1::__sfinae_ctor_base<false, true>::operator=",
   "linker_set_key" : "_ZNSt3__118__sfinae_ctor_baseILb0ELb1EEaSERKS1_",
   "parameters" :
   [
    {
     "is_this_ptr" : true,
     "referenced_type" : "_ZTIPNSt3__118__sfinae_ctor_baseILb0ELb1EEE"
    },
    {
     "referenced_type" : "_ZTIRKNSt3__118__sfinae_ctor_baseILb0ELb1EEE"
    }
   ],
   "return_type" : "_ZTIRNSt3__118__sfinae_ctor_baseILb0ELb1EEE",
   "source_file" : "external/libcxx/include/__tuple"
  },
  {
   "function_name" : "std::__1::__sfinae_ctor_base<true, false>::__sfinae_ctor_base",
   "linker_set_key" : "_ZNSt3__118__sfinae_ctor_baseILb1ELb0EEC1ERKS1_",
   "parameters" :
   [
    {
     "is_this_ptr" : true,
     "referenced_type" : "_ZTIPNSt3__118__sfinae_ctor_baseILb1ELb0EEE"
    },
    {
     "referenced_type" : "_ZTIRKNSt3__118__sfinae_ctor_baseILb1ELb0EEE"
    }
   ],
   "return_type" : "_ZTIv",
   "source_file" : "external/libcxx/include/__tuple"
  },
  {
   "function_name" : "std::__1::__sfinae_ctor_base<true, false>::__sfinae_ctor_base",
   "linker_set_key" : "_ZNSt3__118__sfinae_ctor_baseILb1ELb0EEC1Ev",
   "parameters" :
   [
    {
     "is_this_ptr" : true,
     "referenced_type" : "_ZTIPNSt3__118__sfinae_ctor_baseILb1ELb0EEE"
    }
   ],
   "return_type" : "_ZTIv",
   "source_file" : "external/libcxx/include/__tuple"
  },
  {
   "function_name" : "std::__1::__sfinae_ctor_base<true, false>::__sfinae_ctor_base",
   "linker_set_key" : "_ZNSt3__118__sfinae_ctor_baseILb1ELb0EEC2ERKS1_",
   "parameters" :
   [
    {
     "is_this_ptr" : true,
     "referenced_type" : "_ZTIPNSt3__118__sfinae_ctor_baseILb1ELb0EEE"
    },
    {
     "referenced_type" : "_ZTIRKNSt3__118__sfinae_ctor_baseILb1ELb0EEE"
    }
   ],
   "return_type" : "_ZTIv",
   "source_file" : "external/libcxx/include/__tuple"
  },
  {
   "function_name" : "std::__1::__sfinae_ctor_base<true, false>::__sfinae_ctor_base",
   "linker_set_key" : "_ZNSt3__118__sfinae_ctor_baseILb1ELb0EEC2Ev",
   "parameters" :
   [
    {
     "is_this_ptr" : true,
     "referenced_type" : "_ZTIPNSt3__118__sfinae_ctor_baseILb1ELb0EEE"
    }
   ],
   "return_type" : "_ZTIv",
   "source_file" : "external/libcxx/include/__tuple"
  },
  {
   "function_name" : "std::__1::__sfinae_ctor_base<true, false>::operator=",
   "linker_set_key" : "_ZNSt3__118__sfinae_ctor_baseILb1ELb0EEaSEOS1_",
   "parameters" :
   [
    {
     "is_this_ptr" : true,
     "referenced_type" : "_ZTIPNSt3__118__sfinae_ctor_baseILb1ELb0EEE"
    },
    {
     "referenced_type" : "_ZTIONSt3__118__sfinae_ctor_baseILb1ELb0EEE"
    }
   ],
   "return_type" : "_ZTIRNSt3__118__sfinae_ctor_baseILb1ELb0EEE",
   "source_file" : "external/libcxx/include/__tuple"
  },
  {
   "function_name" : "std::__1::__sfinae_ctor_base<true, false>::operator=",
   "linker_set_key" : "_ZNSt3__118__sfinae_ctor_baseILb1ELb0EEaSERKS1_",
   "parameters" :
   [
    {
     "is_this_ptr" : true,
     "referenced_type" : "_ZTIPNSt3__118__sfinae_ctor_baseILb1ELb0EEE"
    },
    {
     "referenced_type" : "_ZTIRKNSt3__118__sfinae_ctor_baseILb1ELb0EEE"
    }
   ],
   "return_type" : "_ZTIRNSt3__118__sfinae_ctor_baseILb1ELb0EEE",
   "source_file" : "external/libcxx/include/__tuple"
  },
  {
   "function_name" : "std::__1::get_pointer_safety",
   "linker_set_key" : "_ZNSt3__118get_pointer_safetyEv",
   "return_type" : "_ZTINSt3__114pointer_safetyE",
   "source_file" : "external/libcxx/include/memory"
  },
  {
   "function_name" : "std::__1::__libcpp_deallocate",
   "linker_set_key" : "_ZNSt3__119__libcpp_deallocateEPvjj",
   "parameters" :
   [
    {
     "referenced_type" : "_ZTIPv"
    },
    {
     "referenced_type" : "_ZTIj"
    },
    {
     "referenced_type" : "_ZTIj"
    }
   ],
   "return_type" : "_ZTIv",
   "source_file" : "external/libcxx/include/new"
  },
  {
   "function_name" : "std::__1::__libcpp_debug_info::__libcpp_debug_info",
   "linker_set_key" : "_ZNSt3__119__libcpp_debug_infoC1EPKciS2_S2_",
   "parameters" :
   [
    {
     "is_this_ptr" : true,
     "referenced_type" : "_ZTIPNSt3__119__libcpp_debug_infoE"
    },
    {
     "referenced_type" : "_ZTIPKc"
    },
    {
     "referenced_type" : "_ZTIi"
    },
    {
     "referenced_type" : "_ZTIPKc"
    },
    {
     "referenced_type" : "_ZTIPKc"
    }
   ],
   "return_type" : "_ZTIv",
   "source_file" : "external/libcxx/include/__debug"
  },
  {
   "function_name" : "std::__1::__libcpp_debug_info::__libcpp_debug_info",
   "linker_set_key" : "_ZNSt3__119__libcpp_debug_infoC1Ev",
   "parameters" :
   [
    {
     "is_this_ptr" : true,
     "referenced_type" : "_ZTIPNSt3__119__libcpp_debug_infoE"
    }
   ],
   "return_type" : "_ZTIv",
   "source_file" : "external/libcxx/include/__debug"
  },
  {
   "function_name" : "std::__1::__libcpp_debug_info::__libcpp_debug_info",
   "linker_set_key" : "_ZNSt3__119__libcpp_debug_infoC2EPKciS2_S2_",
   "parameters" :
   [
    {
     "is_this_ptr" : true,
     "referenced_type" : "_ZTIPNSt3__119__libcpp_debug_infoE"
    },
    {
     "referenced_type" : "_ZTIPKc"
    },
    {
     "referenced_type" : "_ZTIi"
    },
    {
     "referenced_type" : "_ZTIPKc"
    },
    {
     "referenced_type" : "_ZTIPKc"
    }
   ],
   "return_type" : "_ZTIv",
   "source_file" : "external/libcxx/include/__debug"
  },
  {
   "function_name" : "std::__1::__libcpp_debug_info::__libcpp_debug_info",
   "linker_set_key" : "_ZNSt3__119__libcpp_debug_infoC2Ev",
   "parameters" :
   [
    {
     "is_this_ptr" : true,
     "referenced_type" : "_ZTIPNSt3__119__libcpp_debug_infoE"
    }
   ],
   "return_type" : "_ZTIv",
   "source_file" : "external/libcxx/include/__debug"
  },
  {
   "function_name" : "std::__1::__shared_weak_count::__add_weak",
   "linker_set_key" : "_ZNSt3__119__shared_weak_count10__add_weakEv",
   "parameters" :
   [
    {
     "is_this_ptr" : true,
     "referenced_type" : "_ZTIPNSt3__119__shared_weak_countE"
    }
   ],
   "return_type" : "_ZTIv",
   "source_file" : "external/libcxx/include/memory"
  },
  {
   "function_name" : "std::__1::__shared_weak_count::__add_shared",
   "linker_set_key" : "_ZNSt3__119__shared_weak_count12__add_sharedEv",
   "parameters" :
   [
    {
     "is_this_ptr" : true,
     "referenced_type" : "_ZTIPNSt3__119__shared_weak_countE"
    }
   ],
   "return_type" : "_ZTIv",
   "source_file" : "external/libcxx/include/memory"
  },
  {
   "function_name" : "std::__1::__shared_weak_count::__release_shared",
   "linker_set_key" : "_ZNSt3__119__shared_weak_count16__release_sharedEv",
   "parameters" :
   [
    {
     "is_this_ptr" : true,
     "referenced_type" : "_ZTIPNSt3__119__shared_weak_countE"
    }
   ],
   "return_type" : "_ZTIv",
   "source_file" : "external/libcxx/include/memory"
  },
  {
   "function_name" : "std::__1::__shared_weak_count::__shared_weak_count",
   "linker_set_key" : "_ZNSt3__119__shared_weak_countC2El",
   "parameters" :
   [
    {
     "is_this_ptr" : true,
     "referenced_type" : "_ZTIPNSt3__119__shared_weak_countE"
    },
    {
     "default_arg" : true,
     "referenced_type" : "_ZTIl"
    }
   ],
   "return_type" : "_ZTIv",
   "source_file" : "external/libcxx/include/memory"
  },
  {
   "function_name" : "std::__1::__throw_logic_error",
   "linker_set_key" : "_ZNSt3__119__throw_logic_errorEPKc",
   "parameters" :
   [
    {
     "referenced_type" : "_ZTIPKc"
    }
   ],
   "return_type" : "_ZTIv",
   "source_file" : "external/libcxx/include/stdexcept"
  },
  {
   "function_name" : "std::__1::__throw_range_error",
   "linker_set_key" : "_ZNSt3__119__throw_range_errorEPKc",
   "parameters" :
   [
    {
     "referenced_type" : "_ZTIPKc"
    }
   ],
   "return_type" : "_ZTIv",
   "source_file" : "external/libcxx/include/stdexcept"
  },
  {
   "function_name" : "std::__1::atomic_signal_fence",
   "linker_set_key" : "_ZNSt3__119atomic_signal_fenceENS_12memory_orderE",
   "parameters" :
   [
    {
     "referenced_type" : "_ZTINSt3__112memory_orderE"
    }
   ],
   "return_type" : "_ZTIv",
   "source_file" : "external/libcxx/include/atomic"
  },
  {
   "function_name" : "std::__1::atomic_thread_fence",
   "linker_set_key" : "_ZNSt3__119atomic_thread_fenceENS_12memory_orderE",
   "parameters" :
   [
    {
     "referenced_type" : "_ZTINSt3__112memory_orderE"
    }
   ],
   "return_type" : "_ZTIv",
   "source_file" : "external/libcxx/include/atomic"
  },
  {
   "function_name" : "std::__1::__sfinae_assign_base<false, false>::__sfinae_assign_base",
   "linker_set_key" : "_ZNSt3__120__sfinae_assign_baseILb0ELb0EEC1EOS1_",
   "parameters" :
   [
    {
     "is_this_ptr" : true,
     "referenced_type" : "_ZTIPNSt3__120__sfinae_assign_baseILb0ELb0EEE"
    },
    {
     "referenced_type" : "_ZTIONSt3__120__sfinae_assign_baseILb0ELb0EEE"
    }
   ],
   "return_type" : "_ZTIv",
   "source_file" : "external/libcxx/include/__tuple"
  },
  {
   "function_name" : "std::__1::__sfinae_assign_base<false, false>::__sfinae_assign_base",
   "linker_set_key" : "_ZNSt3__120__sfinae_assign_baseILb0ELb0EEC1ERKS1_",
   "parameters" :
   [
    {
     "is_this_ptr" : true,
     "referenced_type" : "_ZTIPNSt3__120__sfinae_assign_baseILb0ELb0EEE"
    },
    {
     "referenced_type" : "_ZTIRKNSt3__120__sfinae_assign_baseILb0ELb0EEE"
    }
   ],
   "return_type" : "_ZTIv",
   "source_file" : "external/libcxx/include/__tuple"
  },
  {
   "function_name" : "std::__1::__sfinae_assign_base<false, false>::__sfinae_assign_base",
   "linker_set_key" : "_ZNSt3__120__sfinae_assign_baseILb0ELb0EEC1Ev",
   "parameters" :
   [
    {
     "is_this_ptr" : true,
     "referenced_type" : "_ZTIPNSt3__120__sfinae_assign_baseILb0ELb0EEE"
    }
   ],
   "return_type" : "_ZTIv",
   "source_file" : "external/libcxx/include/__tuple"
  },
  {
   "function_name" : "std::__1::__sfinae_assign_base<false, false>::__sfinae_assign_base",
   "linker_set_key" : "_ZNSt3__120__sfinae_assign_baseILb0ELb0EEC2EOS1_",
   "parameters" :
   [
    {
     "is_this_ptr" : true,
     "referenced_type" : "_ZTIPNSt3__120__sfinae_assign_baseILb0ELb0EEE"
    },
    {
     "referenced_type" : "_ZTIONSt3__120__sfinae_assign_baseILb0ELb0EEE"
    }
   ],
   "return_type" : "_ZTIv",
   "source_file" : "external/libcxx/include/__tuple"
  },
  {
   "function_name" : "std::__1::__sfinae_assign_base<false, false>::__sfinae_assign_base",
   "linker_set_key" : "_ZNSt3__120__sfinae_assign_baseILb0ELb0EEC2ERKS1_",
   "parameters" :
   [
    {
     "is_this_ptr" : true,
     "referenced_type" : "_ZTIPNSt3__120__sfinae_assign_baseILb0ELb0EEE"
    },
    {
     "referenced_type" : "_ZTIRKNSt3__120__sfinae_assign_baseILb0ELb0EEE"
    }
   ],
   "return_type" : "_ZTIv",
   "source_file" : "external/libcxx/include/__tuple"
  },
  {
   "function_name" : "std::__1::__sfinae_assign_base<false, false>::__sfinae_assign_base",
   "linker_set_key" : "_ZNSt3__120__sfinae_assign_baseILb0ELb0EEC2Ev",
   "parameters" :
   [
    {
     "is_this_ptr" : true,
     "referenced_type" : "_ZTIPNSt3__120__sfinae_assign_baseILb0ELb0EEE"
    }
   ],
   "return_type" : "_ZTIv",
   "source_file" : "external/libcxx/include/__tuple"
  },
  {
   "function_name" : "std::__1::__sfinae_assign_base<false, true>::__sfinae_assign_base",
   "linker_set_key" : "_ZNSt3__120__sfinae_assign_baseILb0ELb1EEC1EOS1_",
   "parameters" :
   [
    {
     "is_this_ptr" : true,
     "referenced_type" : "_ZTIPNSt3__120__sfinae_assign_baseILb0ELb1EEE"
    },
    {
     "referenced_type" : "_ZTIONSt3__120__sfinae_assign_baseILb0ELb1EEE"
    }
   ],
   "return_type" : "_ZTIv",
   "source_file" : "external/libcxx/include/__tuple"
  },
  {
   "function_name" : "std::__1::__sfinae_assign_base<false, true>::__sfinae_assign_base",
   "linker_set_key" : "_ZNSt3__120__sfinae_assign_baseILb0ELb1EEC1ERKS1_",
   "parameters" :
   [
    {
     "is_this_ptr" : true,
     "referenced_type" : "_ZTIPNSt3__120__sfinae_assign_baseILb0ELb1EEE"
    },
    {
     "referenced_type" : "_ZTIRKNSt3__120__sfinae_assign_baseILb0ELb1EEE"
    }
   ],
   "return_type" : "_ZTIv",
   "source_file" : "external/libcxx/include/__tuple"
  },
  {
   "function_name" : "std::__1::__sfinae_assign_base<false, true>::__sfinae_assign_base",
   "linker_set_key" : "_ZNSt3__120__sfinae_assign_baseILb0ELb1EEC1Ev",
   "parameters" :
   [
    {
     "is_this_ptr" : true,
     "referenced_type" : "_ZTIPNSt3__120__sfinae_assign_baseILb0ELb1EEE"
    }
   ],
   "return_type" : "_ZTIv",
   "source_file" : "external/libcxx/include/__tuple"
  },
  {
   "function_name" : "std::__1::__sfinae_assign_base<false, true>::__sfinae_assign_base",
   "linker_set_key" : "_ZNSt3__120__sfinae_assign_baseILb0ELb1EEC2EOS1_",
   "parameters" :
   [
    {
     "is_this_ptr" : true,
     "referenced_type" : "_ZTIPNSt3__120__sfinae_assign_baseILb0ELb1EEE"
    },
    {
     "referenced_type" : "_ZTIONSt3__120__sfinae_assign_baseILb0ELb1EEE"
    }
   ],
   "return_type" : "_ZTIv",
   "source_file" : "external/libcxx/include/__tuple"
  },
  {
   "function_name" : "std::__1::__sfinae_assign_base<false, true>::__sfinae_assign_base",
   "linker_set_key" : "_ZNSt3__120__sfinae_assign_baseILb0ELb1EEC2ERKS1_",
   "parameters" :
   [
    {
     "is_this_ptr" : true,
     "referenced_type" : "_ZTIPNSt3__120__sfinae_assign_baseILb0ELb1EEE"
    },
    {
     "referenced_type" : "_ZTIRKNSt3__120__sfinae_assign_baseILb0ELb1EEE"
    }
   ],
   "return_type" : "_ZTIv",
   "source_file" : "external/libcxx/include/__tuple"
  },
  {
   "function_name" : "std::__1::__sfinae_assign_base<false, true>::__sfinae_assign_base",
   "linker_set_key" : "_ZNSt3__120__sfinae_assign_baseILb0ELb1EEC2Ev",
   "parameters" :
   [
    {
     "is_this_ptr" : true,
     "referenced_type" : "_ZTIPNSt3__120__sfinae_assign_baseILb0ELb1EEE"
    }
   ],
   "return_type" : "_ZTIv",
   "source_file" : "external/libcxx/include/__tuple"
  },
  {
   "function_name" : "std::__1::__sfinae_assign_base<false, true>::operator=",
   "linker_set_key" : "_ZNSt3__120__sfinae_assign_baseILb0ELb1EEaSEOS1_",
   "parameters" :
   [
    {
     "is_this_ptr" : true,
     "referenced_type" : "_ZTIPNSt3__120__sfinae_assign_baseILb0ELb1EEE"
    },
    {
     "referenced_type" : "_ZTIONSt3__120__sfinae_assign_baseILb0ELb1EEE"
    }
   ],
   "return_type" : "_ZTIRNSt3__120__sfinae_assign_baseILb0ELb1EEE",
   "source_file" : "external/libcxx/include/__tuple"
  },
  {
   "function_name" : "std::__1::__sfinae_assign_base<true, false>::__sfinae_assign_base",
   "linker_set_key" : "_ZNSt3__120__sfinae_assign_baseILb1ELb0EEC1EOS1_",
   "parameters" :
   [
    {
     "is_this_ptr" : true,
     "referenced_type" : "_ZTIPNSt3__120__sfinae_assign_baseILb1ELb0EEE"
    },
    {
     "referenced_type" : "_ZTIONSt3__120__sfinae_assign_baseILb1ELb0EEE"
    }
   ],
   "return_type" : "_ZTIv",
   "source_file" : "external/libcxx/include/__tuple"
  },
  {
   "function_name" : "std::__1::__sfinae_assign_base<true, false>::__sfinae_assign_base",
   "linker_set_key" : "_ZNSt3__120__sfinae_assign_baseILb1ELb0EEC1ERKS1_",
   "parameters" :
   [
    {
     "is_this_ptr" : true,
     "referenced_type" : "_ZTIPNSt3__120__sfinae_assign_baseILb1ELb0EEE"
    },
    {
     "referenced_type" : "_ZTIRKNSt3__120__sfinae_assign_baseILb1ELb0EEE"
    }
   ],
   "return_type" : "_ZTIv",
   "source_file" : "external/libcxx/include/__tuple"
  },
  {
   "function_name" : "std::__1::__sfinae_assign_base<true, false>::__sfinae_assign_base",
   "linker_set_key" : "_ZNSt3__120__sfinae_assign_baseILb1ELb0EEC1Ev",
   "parameters" :
   [
    {
     "is_this_ptr" : true,
     "referenced_type" : "_ZTIPNSt3__120__sfinae_assign_baseILb1ELb0EEE"
    }
   ],
   "return_type" : "_ZTIv",
   "source_file" : "external/libcxx/include/__tuple"
  },
  {
   "function_name" : "std::__1::__sfinae_assign_base<true, false>::__sfinae_assign_base",
   "linker_set_key" : "_ZNSt3__120__sfinae_assign_baseILb1ELb0EEC2EOS1_",
   "parameters" :
   [
    {
     "is_this_ptr" : true,
     "referenced_type" : "_ZTIPNSt3__120__sfinae_assign_baseILb1ELb0EEE"
    },
    {
     "referenced_type" : "_ZTIONSt3__120__sfinae_assign_baseILb1ELb0EEE"
    }
   ],
   "return_type" : "_ZTIv",
   "source_file" : "external/libcxx/include/__tuple"
  },
  {
   "function_name" : "std::__1::__sfinae_assign_base<true, false>::__sfinae_assign_base",
   "linker_set_key" : "_ZNSt3__120__sfinae_assign_baseILb1ELb0EEC2ERKS1_",
   "parameters" :
   [
    {
     "is_this_ptr" : true,
     "referenced_type" : "_ZTIPNSt3__120__sfinae_assign_baseILb1ELb0EEE"
    },
    {
     "referenced_type" : "_ZTIRKNSt3__120__sfinae_assign_baseILb1ELb0EEE"
    }
   ],
   "return_type" : "_ZTIv",
   "source_file" : "external/libcxx/include/__tuple"
  },
  {
   "function_name" : "std::__1::__sfinae_assign_base<true, false>::__sfinae_assign_base",
   "linker_set_key" : "_ZNSt3__120__sfinae_assign_baseILb1ELb0EEC2Ev",
   "parameters" :
   [
    {
     "is_this_ptr" : true,
     "referenced_type" : "_ZTIPNSt3__120__sfinae_assign_baseILb1ELb0EEE"
    }
   ],
   "return_type" : "_ZTIv",
   "source_file" : "external/libcxx/include/__tuple"
  },
  {
   "function_name" : "std::__1::__sfinae_assign_base<true, false>::operator=",
   "linker_set_key" : "_ZNSt3__120__sfinae_assign_baseILb1ELb0EEaSERKS1_",
   "parameters" :
   [
    {
     "is_this_ptr" : true,
     "referenced_type" : "_ZTIPNSt3__120__sfinae_assign_baseILb1ELb0EEE"
    },
    {
     "referenced_type" : "_ZTIRKNSt3__120__sfinae_assign_baseILb1ELb0EEE"
    }
   ],
   "return_type" : "_ZTIRNSt3__120__sfinae_assign_baseILb1ELb0EEE",
   "source_file" : "external/libcxx/include/__tuple"
  },
  {
   "function_name" : "std::__1::__throw_bad_weak_ptr",
   "linker_set_key" : "_ZNSt3__120__throw_bad_weak_ptrEv",
   "return_type" : "_ZTIv",
   "source_file" : "external/libcxx/include/memory"
  },
  {
   "function_name" : "std::__1::__throw_domain_error",
   "linker_set_key" : "_ZNSt3__120__throw_domain_errorEPKc",
   "parameters" :
   [
    {
     "referenced_type" : "_ZTIPKc"
    }
   ],
   "return_type" : "_ZTIv",
   "source_file" : "external/libcxx/include/stdexcept"
  },
  {
   "function_name" : "std::__1::__throw_length_error",
   "linker_set_key" : "_ZNSt3__120__throw_length_errorEPKc",
   "parameters" :
   [
    {
     "referenced_type" : "_ZTIPKc"
    }
   ],
   "return_type" : "_ZTIv",
   "source_file" : "external/libcxx/include/stdexcept"
  },
  {
   "function_name" : "std::__1::__throw_out_of_range",
   "linker_set_key" : "_ZNSt3__120__throw_out_of_rangeEPKc",
   "parameters" :
   [
    {
     "referenced_type" : "_ZTIPKc"
    }
   ],
   "return_type" : "_ZTIv",
   "source_file" : "external/libcxx/include/stdexcept"
  },
  {
   "function_name" : "std::__1::__convert_to_integral",
   "linker_set_key" : "_ZNSt3__121__convert_to_integralEi",
   "parameters" :
   [
    {
     "referenced_type" : "_ZTIi"
    }
   ],
   "return_type" : "_ZTIi",
   "source_file" : "external/libcxx/include/type_traits"
  },
  {
   "function_name" : "std::__1::__convert_to_integral",
   "linker_set_key" : "_ZNSt3__121__convert_to_integralEj",
   "parameters" :
   [
    {
     "referenced_type" : "_ZTIj"
    }
   ],
   "return_type" : "_ZTIj",
   "source_file" : "external/libcxx/include/type_traits"
  },
  {
   "function_name" : "std::__1::__convert_to_integral",
   "linker_set_key" : "_ZNSt3__121__convert_to_integralEl",
   "parameters" :
   [
    {
     "referenced_type" : "_ZTIl"
    }
   ],
   "return_type" : "_ZTIl",
   "source_file" : "external/libcxx/include/type_traits"
  },
  {
   "function_name" : "std::__1::__convert_to_integral",
   "linker_set_key" : "_ZNSt3__121__convert_to_integralEm",
   "parameters" :
   [
    {
     "referenced_type" : "_ZTIm"
    }
   ],
   "return_type" : "_ZTIm",
   "source_file" : "external/libcxx/include/type_traits"
  },
  {
   "function_name" : "std::__1::__convert_to_integral",
   "linker_set_key" : "_ZNSt3__121__convert_to_integralEx",
   "parameters" :
   [
    {
     "referenced_type" : "_ZTIx"
    }
   ],
   "return_type" : "_ZTIx",
   "source_file" : "external/libcxx/include/type_traits"
  },
  {
   "function_name" : "std::__1::__convert_to_integral",
   "linker_set_key" : "_ZNSt3__121__convert_to_integralEy",
   "parameters" :
   [
    {
     "referenced_type" : "_ZTIy"
    }
   ],
   "return_type" : "_ZTIy",
   "source_file" : "external/libcxx/include/type_traits"
  },
  {
   "function_name" : "std::__1::__libcpp_relaxed_load",
   "linker_set_key" : "_ZNSt3__121__libcpp_relaxed_loadIlEET_PKS1_",
   "parameters" :
   [
    {
     "referenced_type" : "_ZTIPKl"
    }
   ],
   "return_type" : "_ZTIl",
   "source_file" : "external/libcxx/include/memory",
   "template_args" : [ "_ZTIl" ]
  },
  {
   "function_name" : "std::__1::__murmur2_or_cityhash<unsigned int, 32>::operator()",
   "linker_set_key" : "_ZNSt3__121__murmur2_or_cityhashIjLj32EEclEPKvj",
   "parameters" :
   [
    {
     "is_this_ptr" : true,
     "referenced_type" : "_ZTIPNSt3__121__murmur2_or_cityhashIjLj32EEE"
    },
    {
     "referenced_type" : "_ZTIPKv"
    },
    {
     "referenced_type" : "_ZTIj"
    }
   ],
   "return_type" : "_ZTIj",
   "source_file" : "external/libcxx/include/utility"
  },
  {
   "function_name" : "std::__1::__compressed_pair_elem<std::__1::default_delete<SkFILEStream>, 1, true>::__get",
   "linker_set_key" : "_ZNSt3__122__compressed_pair_elemINS_14default_deleteI12SkFILEStreamEELi1ELb1EE5__getEv",
   "parameters" :
   [
    {
     "is_this_ptr" : true,
     "referenced_type" : "_ZTIPNSt3__122__compressed_pair_elemINS_14default_deleteI12SkFILEStreamEELi1ELb1EEE"
    }
   ],
   "return_type" : "_ZTIRNSt3__114default_deleteI12SkFILEStreamEE",
   "source_file" : "external/libcxx/include/memory"
  },
  {
   "function_name" : "std::__1::__compressed_pair_elem<std::__1::default_delete<SkFILEStream>, 1, true>::__compressed_pair_elem",
   "linker_set_key" : "_ZNSt3__122__compressed_pair_elemINS_14default_deleteI12SkFILEStreamEELi1ELb1EEC1Ev",
   "parameters" :
   [
    {
     "is_this_ptr" : true,
     "referenced_type" : "_ZTIPNSt3__122__compressed_pair_elemINS_14default_deleteI12SkFILEStreamEELi1ELb1EEE"
    }
   ],
   "return_type" : "_ZTIv",
   "source_file" : "external/libcxx/include/memory"
  },
  {
   "function_name" : "std::__1::__compressed_pair_elem<std::__1::default_delete<SkFILEStream>, 1, true>::__compressed_pair_elem",
   "linker_set_key" : "_ZNSt3__122__compressed_pair_elemINS_14default_deleteI12SkFILEStreamEELi1ELb1EEC1IS3_vEEOT_",
   "parameters" :
   [
    {
     "is_this_ptr" : true,
     "referenced_type" : "_ZTIPNSt3__122__compressed_pair_elemINS_14default_deleteI12SkFILEStreamEELi1ELb1EEE"
    },
    {
     "referenced_type" : "_ZTIONSt3__114default_deleteI12SkFILEStreamEE"
    }
   ],
   "return_type" : "_ZTIv",
   "source_file" : "external/libcxx/include/memory",
   "template_args" : [ "_ZTINSt3__114default_deleteI12SkFILEStreamEE", "_ZTIv" ]
  },
  {
   "function_name" : "std::__1::__compressed_pair_elem<std::__1::default_delete<SkFILEStream>, 1, true>::__compressed_pair_elem",
   "linker_set_key" : "_ZNSt3__122__compressed_pair_elemINS_14default_deleteI12SkFILEStreamEELi1ELb1EEC2Ev",
   "parameters" :
   [
    {
     "is_this_ptr" : true,
     "referenced_type" : "_ZTIPNSt3__122__compressed_pair_elemINS_14default_deleteI12SkFILEStreamEELi1ELb1EEE"
    }
   ],
   "return_type" : "_ZTIv",
   "source_file" : "external/libcxx/include/memory"
  },
  {
   "function_name" : "std::__1::__compressed_pair_elem<std::__1::default_delete<SkFILEStream>, 1, true>::__compressed_pair_elem",
   "linker_set_key" : "_ZNSt3__122__compressed_pair_elemINS_14default_deleteI12SkFILEStreamEELi1ELb1EEC2IS3_vEEOT_",
   "parameters" :
   [
    {
     "is_this_ptr" : true,
     "referenced_type" : "_ZTIPNSt3__122__compressed_pair_elemINS_14default_deleteI12SkFILEStreamEELi1ELb1EEE"
    },
    {
     "referenced_type" : "_ZTIONSt3__114default_deleteI12SkFILEStreamEE"
    }
   ],
   "return_type" : "_ZTIv",
   "source_file" : "external/libcxx/include/memory",
   "template_args" : [ "_ZTINSt3__114default_deleteI12SkFILEStreamEE", "_ZTIv" ]
  },
  {
   "function_name" : "std::__1::__compressed_pair_elem<std::__1::default_delete<SkStreamAsset>, 1, true>::__get",
   "linker_set_key" : "_ZNSt3__122__compressed_pair_elemINS_14default_deleteI13SkStreamAssetEELi1ELb1EE5__getEv",
   "parameters" :
   [
    {
     "is_this_ptr" : true,
     "referenced_type" : "_ZTIPNSt3__122__compressed_pair_elemINS_14default_deleteI13SkStreamAssetEELi1ELb1EEE"
    }
   ],
   "return_type" : "_ZTIRNSt3__114default_deleteI13SkStreamAssetEE",
   "source_file" : "external/libcxx/include/memory"
  },
  {
   "function_name" : "std::__1::__compressed_pair_elem<std::__1::default_delete<SkStreamAsset>, 1, true>::__compressed_pair_elem",
   "linker_set_key" : "_ZNSt3__122__compressed_pair_elemINS_14default_deleteI13SkStreamAssetEELi1ELb1EEC1Ev",
   "parameters" :
   [
    {
     "is_this_ptr" : true,
     "referenced_type" : "_ZTIPNSt3__122__compressed_pair_elemINS_14default_deleteI13SkStreamAssetEELi1ELb1EEE"
    }
   ],
   "return_type" : "_ZTIv",
   "source_file" : "external/libcxx/include/memory"
  },
  {
   "function_name" : "std::__1::__compressed_pair_elem<std::__1::default_delete<SkStreamAsset>, 1, true>::__compressed_pair_elem",
   "linker_set_key" : "_ZNSt3__122__compressed_pair_elemINS_14default_deleteI13SkStreamAssetEELi1ELb1EEC2Ev",
   "parameters" :
   [
    {
     "is_this_ptr" : true,
     "referenced_type" : "_ZTIPNSt3__122__compressed_pair_elemINS_14default_deleteI13SkStreamAssetEELi1ELb1EEE"
    }
   ],
   "return_type" : "_ZTIv",
   "source_file" : "external/libcxx/include/memory"
  },
  {
   "function_name" : "std::__1::__compressed_pair_elem<std::__1::default_delete<SkMemoryStream>, 1, true>::__get",
   "linker_set_key" : "_ZNSt3__122__compressed_pair_elemINS_14default_deleteI14SkMemoryStreamEELi1ELb1EE5__getEv",
   "parameters" :
   [
    {
     "is_this_ptr" : true,
     "referenced_type" : "_ZTIPNSt3__122__compressed_pair_elemINS_14default_deleteI14SkMemoryStreamEELi1ELb1EEE"
    }
   ],
   "return_type" : "_ZTIRNSt3__114default_deleteI14SkMemoryStreamEE",
   "source_file" : "external/libcxx/include/memory"
  },
  {
   "function_name" : "std::__1::__compressed_pair_elem<std::__1::default_delete<SkMemoryStream>, 1, true>::__compressed_pair_elem",
   "linker_set_key" : "_ZNSt3__122__compressed_pair_elemINS_14default_deleteI14SkMemoryStreamEELi1ELb1EEC1Ev",
   "parameters" :
   [
    {
     "is_this_ptr" : true,
     "referenced_type" : "_ZTIPNSt3__122__compressed_pair_elemINS_14default_deleteI14SkMemoryStreamEELi1ELb1EEE"
    }
   ],
   "return_type" : "_ZTIv",
   "source_file" : "external/libcxx/include/memory"
  },
  {
   "function_name" : "std::__1::__compressed_pair_elem<std::__1::default_delete<SkMemoryStream>, 1, true>::__compressed_pair_elem",
   "linker_set_key" : "_ZNSt3__122__compressed_pair_elemINS_14default_deleteI14SkMemoryStreamEELi1ELb1EEC2Ev",
   "parameters" :
   [
    {
     "is_this_ptr" : true,
     "referenced_type" : "_ZTIPNSt3__122__compressed_pair_elemINS_14default_deleteI14SkMemoryStreamEELi1ELb1EEE"
    }
   ],
   "return_type" : "_ZTIv",
   "source_file" : "external/libcxx/include/memory"
  },
  {
   "function_name" : "std::__1::__compressed_pair_elem<std::__1::default_delete<SkStreamMemory>, 1, true>::__get",
   "linker_set_key" : "_ZNSt3__122__compressed_pair_elemINS_14default_deleteI14SkStreamMemoryEELi1ELb1EE5__getEv",
   "parameters" :
   [
    {
     "is_this_ptr" : true,
     "referenced_type" : "_ZTIPNSt3__122__compressed_pair_elemINS_14default_deleteI14SkStreamMemoryEELi1ELb1EEE"
    }
   ],
   "return_type" : "_ZTIRNSt3__114default_deleteI14SkStreamMemoryEE",
   "source_file" : "external/libcxx/include/memory"
  },
  {
   "function_name" : "std::__1::__compressed_pair_elem<std::__1::default_delete<SkStreamMemory>, 1, true>::__compressed_pair_elem",
   "linker_set_key" : "_ZNSt3__122__compressed_pair_elemINS_14default_deleteI14SkStreamMemoryEELi1ELb1EEC1Ev",
   "parameters" :
   [
    {
     "is_this_ptr" : true,
     "referenced_type" : "_ZTIPNSt3__122__compressed_pair_elemINS_14default_deleteI14SkStreamMemoryEELi1ELb1EEE"
    }
   ],
   "return_type" : "_ZTIv",
   "source_file" : "external/libcxx/include/memory"
  },
  {
   "function_name" : "std::__1::__compressed_pair_elem<std::__1::default_delete<SkStreamMemory>, 1, true>::__compressed_pair_elem",
   "linker_set_key" : "_ZNSt3__122__compressed_pair_elemINS_14default_deleteI14SkStreamMemoryEELi1ELb1EEC2Ev",
   "parameters" :
   [
    {
     "is_this_ptr" : true,
     "referenced_type" : "_ZTIPNSt3__122__compressed_pair_elemINS_14default_deleteI14SkStreamMemoryEELi1ELb1EEE"
    }
   ],
   "return_type" : "_ZTIv",
   "source_file" : "external/libcxx/include/memory"
  },
  {
   "function_name" : "std::__1::__compressed_pair_elem<std::__1::default_delete<SkStreamSeekable>, 1, true>::__get",
   "linker_set_key" : "_ZNSt3__122__compressed_pair_elemINS_14default_deleteI16SkStreamSeekableEELi1ELb1EE5__getEv",
   "parameters" :
   [
    {
     "is_this_ptr" : true,
     "referenced_type" : "_ZTIPNSt3__122__compressed_pair_elemINS_14default_deleteI16SkStreamSeekableEELi1ELb1EEE"
    }
   ],
   "return_type" : "_ZTIRNSt3__114default_deleteI16SkStreamSeekableEE",
   "source_file" : "external/libcxx/include/memory"
  },
  {
   "function_name" : "std::__1::__compressed_pair_elem<std::__1::default_delete<SkStreamSeekable>, 1, true>::__compressed_pair_elem",
   "linker_set_key" : "_ZNSt3__122__compressed_pair_elemINS_14default_deleteI16SkStreamSeekableEELi1ELb1EEC1Ev",
   "parameters" :
   [
    {
     "is_this_ptr" : true,
     "referenced_type" : "_ZTIPNSt3__122__compressed_pair_elemINS_14default_deleteI16SkStreamSeekableEELi1ELb1EEE"
    }
   ],
   "return_type" : "_ZTIv",
   "source_file" : "external/libcxx/include/memory"
  },
  {
   "function_name" : "std::__1::__compressed_pair_elem<std::__1::default_delete<SkStreamSeekable>, 1, true>::__compressed_pair_elem",
   "linker_set_key" : "_ZNSt3__122__compressed_pair_elemINS_14default_deleteI16SkStreamSeekableEELi1ELb1EEC2Ev",
   "parameters" :
   [
    {
     "is_this_ptr" : true,
     "referenced_type" : "_ZTIPNSt3__122__compressed_pair_elemINS_14default_deleteI16SkStreamSeekableEELi1ELb1EEE"
    }
   ],
   "return_type" : "_ZTIv",
   "source_file" : "external/libcxx/include/memory"
  },
  {
   "function_name" : "std::__1::__compressed_pair_elem<std::__1::default_delete<SkStreamRewindable>, 1, true>::__get",
   "linker_set_key" : "_ZNSt3__122__compressed_pair_elemINS_14default_deleteI18SkStreamRewindableEELi1ELb1EE5__getEv",
   "parameters" :
   [
    {
     "is_this_ptr" : true,
     "referenced_type" : "_ZTIPNSt3__122__compressed_pair_elemINS_14default_deleteI18SkStreamRewindableEELi1ELb1EEE"
    }
   ],
   "return_type" : "_ZTIRNSt3__114default_deleteI18SkStreamRewindableEE",
   "source_file" : "external/libcxx/include/memory"
  },
  {
   "function_name" : "std::__1::__compressed_pair_elem<std::__1::default_delete<SkStreamRewindable>, 1, true>::__compressed_pair_elem",
   "linker_set_key" : "_ZNSt3__122__compressed_pair_elemINS_14default_deleteI18SkStreamRewindableEELi1ELb1EEC1Ev",
   "parameters" :
   [
    {
     "is_this_ptr" : true,
     "referenced_type" : "_ZTIPNSt3__122__compressed_pair_elemINS_14default_deleteI18SkStreamRewindableEELi1ELb1EEE"
    }
   ],
   "return_type" : "_ZTIv",
   "source_file" : "external/libcxx/include/memory"
  },
  {
   "function_name" : "std::__1::__compressed_pair_elem<std::__1::default_delete<SkStreamRewindable>, 1, true>::__compressed_pair_elem",
   "linker_set_key" : "_ZNSt3__122__compressed_pair_elemINS_14default_deleteI18SkStreamRewindableEELi1ELb1EEC2Ev",
   "parameters" :
   [
    {
     "is_this_ptr" : true,
     "referenced_type" : "_ZTIPNSt3__122__compressed_pair_elemINS_14default_deleteI18SkStreamRewindableEELi1ELb1EEE"
    }
   ],
   "return_type" : "_ZTIv",
   "source_file" : "external/libcxx/include/memory"
  },
  {
   "function_name" : "std::__1::__compressed_pair_elem<std::__1::default_delete<SkStream>, 1, true>::__get",
   "linker_set_key" : "_ZNSt3__122__compressed_pair_elemINS_14default_deleteI8SkStreamEELi1ELb1EE5__getEv",
   "parameters" :
   [
    {
     "is_this_ptr" : true,
     "referenced_type" : "_ZTIPNSt3__122__compressed_pair_elemINS_14default_deleteI8SkStreamEELi1ELb1EEE"
    }
   ],
   "return_type" : "_ZTIRNSt3__114default_deleteI8SkStreamEE",
   "source_file" : "external/libcxx/include/memory"
  },
  {
   "function_name" : "std::__1::__compressed_pair_elem<std::__1::default_delete<SkStream>, 1, true>::__compressed_pair_elem",
   "linker_set_key" : "_ZNSt3__122__compressed_pair_elemINS_14default_deleteI8SkStreamEELi1ELb1EEC1Ev",
   "parameters" :
   [
    {
     "is_this_ptr" : true,
     "referenced_type" : "_ZTIPNSt3__122__compressed_pair_elemINS_14default_deleteI8SkStreamEELi1ELb1EEE"
    }
   ],
   "return_type" : "_ZTIv",
   "source_file" : "external/libcxx/include/memory"
  },
  {
   "function_name" : "std::__1::__compressed_pair_elem<std::__1::default_delete<SkStream>, 1, true>::__compressed_pair_elem",
   "linker_set_key" : "_ZNSt3__122__compressed_pair_elemINS_14default_deleteI8SkStreamEELi1ELb1EEC2Ev",
   "parameters" :
   [
    {
     "is_this_ptr" : true,
     "referenced_type" : "_ZTIPNSt3__122__compressed_pair_elemINS_14default_deleteI8SkStreamEELi1ELb1EEE"
    }
   ],
   "return_type" : "_ZTIv",
   "source_file" : "external/libcxx/include/memory"
  },
  {
   "function_name" : "std::__1::__compressed_pair_elem<SkFILEStream *, 0, false>::__get",
   "linker_set_key" : "_ZNSt3__122__compressed_pair_elemIP12SkFILEStreamLi0ELb0EE5__getEv",
   "parameters" :
   [
    {
     "is_this_ptr" : true,
     "referenced_type" : "_ZTIPNSt3__122__compressed_pair_elemIP12SkFILEStreamLi0ELb0EEE"
    }
   ],
   "return_type" : "_ZTIRP12SkFILEStream",
   "source_file" : "external/libcxx/include/memory"
  },
  {
   "function_name" : "std::__1::__compressed_pair_elem<SkFILEStream *, 0, false>::__compressed_pair_elem",
   "linker_set_key" : "_ZNSt3__122__compressed_pair_elemIP12SkFILEStreamLi0ELb0EEC1IRS2_vEEOT_",
   "parameters" :
   [
    {
     "is_this_ptr" : true,
     "referenced_type" : "_ZTIPNSt3__122__compressed_pair_elemIP12SkFILEStreamLi0ELb0EEE"
    },
    {
     "referenced_type" : "_ZTIRP12SkFILEStream"
    }
   ],
   "return_type" : "_ZTIv",
   "source_file" : "external/libcxx/include/memory",
   "template_args" : [ "_ZTIRP12SkFILEStream", "_ZTIv" ]
  },
  {
   "function_name" : "std::__1::__compressed_pair_elem<SkFILEStream *, 0, false>::__compressed_pair_elem",
   "linker_set_key" : "_ZNSt3__122__compressed_pair_elemIP12SkFILEStreamLi0ELb0EEC1IS2_vEEOT_",
   "parameters" :
   [
    {
     "is_this_ptr" : true,
     "referenced_type" : "_ZTIPNSt3__122__compressed_pair_elemIP12SkFILEStreamLi0ELb0EEE"
    },
    {
     "referenced_type" : "_ZTIOP12SkFILEStream"
    }
   ],
   "return_type" : "_ZTIv",
   "source_file" : "external/libcxx/include/memory",
   "template_args" : [ "_ZTIP12SkFILEStream", "_ZTIv" ]
  },
  {
   "function_name" : "std::__1::__compressed_pair_elem<SkFILEStream *, 0, false>::__compressed_pair_elem",
   "linker_set_key" : "_ZNSt3__122__compressed_pair_elemIP12SkFILEStreamLi0ELb0EEC2IRS2_vEEOT_",
   "parameters" :
   [
    {
     "is_this_ptr" : true,
     "referenced_type" : "_ZTIPNSt3__122__compressed_pair_elemIP12SkFILEStreamLi0ELb0EEE"
    },
    {
     "referenced_type" : "_ZTIRP12SkFILEStream"
    }
   ],
   "return_type" : "_ZTIv",
   "source_file" : "external/libcxx/include/memory",
   "template_args" : [ "_ZTIRP12SkFILEStream", "_ZTIv" ]
  },
  {
   "function_name" : "std::__1::__compressed_pair_elem<SkFILEStream *, 0, false>::__compressed_pair_elem",
   "linker_set_key" : "_ZNSt3__122__compressed_pair_elemIP12SkFILEStreamLi0ELb0EEC2IS2_vEEOT_",
   "parameters" :
   [
    {
     "is_this_ptr" : true,
     "referenced_type" : "_ZTIPNSt3__122__compressed_pair_elemIP12SkFILEStreamLi0ELb0EEE"
    },
    {
     "referenced_type" : "_ZTIOP12SkFILEStream"
    }
   ],
   "return_type" : "_ZTIv",
   "source_file" : "external/libcxx/include/memory",
   "template_args" : [ "_ZTIP12SkFILEStream", "_ZTIv" ]
  },
  {
   "function_name" : "std::__1::__compressed_pair_elem<SkStreamAsset *, 0, false>::__get",
   "linker_set_key" : "_ZNSt3__122__compressed_pair_elemIP13SkStreamAssetLi0ELb0EE5__getEv",
   "parameters" :
   [
    {
     "is_this_ptr" : true,
     "referenced_type" : "_ZTIPNSt3__122__compressed_pair_elemIP13SkStreamAssetLi0ELb0EEE"
    }
   ],
   "return_type" : "_ZTIRP13SkStreamAsset",
   "source_file" : "external/libcxx/include/memory"
  },
  {
   "function_name" : "std::__1::__compressed_pair_elem<SkStreamAsset *, 0, false>::__compressed_pair_elem",
   "linker_set_key" : "_ZNSt3__122__compressed_pair_elemIP13SkStreamAssetLi0ELb0EEC1IRS2_vEEOT_",
   "parameters" :
   [
    {
     "is_this_ptr" : true,
     "referenced_type" : "_ZTIPNSt3__122__compressed_pair_elemIP13SkStreamAssetLi0ELb0EEE"
    },
    {
     "referenced_type" : "_ZTIRP13SkStreamAsset"
    }
   ],
   "return_type" : "_ZTIv",
   "source_file" : "external/libcxx/include/memory",
   "template_args" : [ "_ZTIRP13SkStreamAsset", "_ZTIv" ]
  },
  {
   "function_name" : "std::__1::__compressed_pair_elem<SkStreamAsset *, 0, false>::__compressed_pair_elem",
   "linker_set_key" : "_ZNSt3__122__compressed_pair_elemIP13SkStreamAssetLi0ELb0EEC2IRS2_vEEOT_",
   "parameters" :
   [
    {
     "is_this_ptr" : true,
     "referenced_type" : "_ZTIPNSt3__122__compressed_pair_elemIP13SkStreamAssetLi0ELb0EEE"
    },
    {
     "referenced_type" : "_ZTIRP13SkStreamAsset"
    }
   ],
   "return_type" : "_ZTIv",
   "source_file" : "external/libcxx/include/memory",
   "template_args" : [ "_ZTIRP13SkStreamAsset", "_ZTIv" ]
  },
  {
   "function_name" : "std::__1::__compressed_pair_elem<SkMemoryStream *, 0, false>::__get",
   "linker_set_key" : "_ZNSt3__122__compressed_pair_elemIP14SkMemoryStreamLi0ELb0EE5__getEv",
   "parameters" :
   [
    {
     "is_this_ptr" : true,
     "referenced_type" : "_ZTIPNSt3__122__compressed_pair_elemIP14SkMemoryStreamLi0ELb0EEE"
    }
   ],
   "return_type" : "_ZTIRP14SkMemoryStream",
   "source_file" : "external/libcxx/include/memory"
  },
  {
   "function_name" : "std::__1::__compressed_pair_elem<SkMemoryStream *, 0, false>::__compressed_pair_elem",
   "linker_set_key" : "_ZNSt3__122__compressed_pair_elemIP14SkMemoryStreamLi0ELb0EEC1IRS2_vEEOT_",
   "parameters" :
   [
    {
     "is_this_ptr" : true,
     "referenced_type" : "_ZTIPNSt3__122__compressed_pair_elemIP14SkMemoryStreamLi0ELb0EEE"
    },
    {
     "referenced_type" : "_ZTIRP14SkMemoryStream"
    }
   ],
   "return_type" : "_ZTIv",
   "source_file" : "external/libcxx/include/memory",
   "template_args" : [ "_ZTIRP14SkMemoryStream", "_ZTIv" ]
  },
  {
   "function_name" : "std::__1::__compressed_pair_elem<SkMemoryStream *, 0, false>::__compressed_pair_elem",
   "linker_set_key" : "_ZNSt3__122__compressed_pair_elemIP14SkMemoryStreamLi0ELb0EEC2IRS2_vEEOT_",
   "parameters" :
   [
    {
     "is_this_ptr" : true,
     "referenced_type" : "_ZTIPNSt3__122__compressed_pair_elemIP14SkMemoryStreamLi0ELb0EEE"
    },
    {
     "referenced_type" : "_ZTIRP14SkMemoryStream"
    }
   ],
   "return_type" : "_ZTIv",
   "source_file" : "external/libcxx/include/memory",
   "template_args" : [ "_ZTIRP14SkMemoryStream", "_ZTIv" ]
  },
  {
   "function_name" : "std::__1::__compressed_pair_elem<SkStreamMemory *, 0, false>::__get",
   "linker_set_key" : "_ZNSt3__122__compressed_pair_elemIP14SkStreamMemoryLi0ELb0EE5__getEv",
   "parameters" :
   [
    {
     "is_this_ptr" : true,
     "referenced_type" : "_ZTIPNSt3__122__compressed_pair_elemIP14SkStreamMemoryLi0ELb0EEE"
    }
   ],
   "return_type" : "_ZTIRP14SkStreamMemory",
   "source_file" : "external/libcxx/include/memory"
  },
  {
   "function_name" : "std::__1::__compressed_pair_elem<SkStreamMemory *, 0, false>::__compressed_pair_elem",
   "linker_set_key" : "_ZNSt3__122__compressed_pair_elemIP14SkStreamMemoryLi0ELb0EEC1IRS2_vEEOT_",
   "parameters" :
   [
    {
     "is_this_ptr" : true,
     "referenced_type" : "_ZTIPNSt3__122__compressed_pair_elemIP14SkStreamMemoryLi0ELb0EEE"
    },
    {
     "referenced_type" : "_ZTIRP14SkStreamMemory"
    }
   ],
   "return_type" : "_ZTIv",
   "source_file" : "external/libcxx/include/memory",
   "template_args" : [ "_ZTIRP14SkStreamMemory", "_ZTIv" ]
  },
  {
   "function_name" : "std::__1::__compressed_pair_elem<SkStreamMemory *, 0, false>::__compressed_pair_elem",
   "linker_set_key" : "_ZNSt3__122__compressed_pair_elemIP14SkStreamMemoryLi0ELb0EEC2IRS2_vEEOT_",
   "parameters" :
   [
    {
     "is_this_ptr" : true,
     "referenced_type" : "_ZTIPNSt3__122__compressed_pair_elemIP14SkStreamMemoryLi0ELb0EEE"
    },
    {
     "referenced_type" : "_ZTIRP14SkStreamMemory"
    }
   ],
   "return_type" : "_ZTIv",
   "source_file" : "external/libcxx/include/memory",
   "template_args" : [ "_ZTIRP14SkStreamMemory", "_ZTIv" ]
  },
  {
   "function_name" : "std::__1::__compressed_pair_elem<SkStreamSeekable *, 0, false>::__get",
   "linker_set_key" : "_ZNSt3__122__compressed_pair_elemIP16SkStreamSeekableLi0ELb0EE5__getEv",
   "parameters" :
   [
    {
     "is_this_ptr" : true,
     "referenced_type" : "_ZTIPNSt3__122__compressed_pair_elemIP16SkStreamSeekableLi0ELb0EEE"
    }
   ],
   "return_type" : "_ZTIRP16SkStreamSeekable",
   "source_file" : "external/libcxx/include/memory"
  },
  {
   "function_name" : "std::__1::__compressed_pair_elem<SkStreamSeekable *, 0, false>::__compressed_pair_elem",
   "linker_set_key" : "_ZNSt3__122__compressed_pair_elemIP16SkStreamSeekableLi0ELb0EEC1IRS2_vEEOT_",
   "parameters" :
   [
    {
     "is_this_ptr" : true,
     "referenced_type" : "_ZTIPNSt3__122__compressed_pair_elemIP16SkStreamSeekableLi0ELb0EEE"
    },
    {
     "referenced_type" : "_ZTIRP16SkStreamSeekable"
    }
   ],
   "return_type" : "_ZTIv",
   "source_file" : "external/libcxx/include/memory",
   "template_args" : [ "_ZTIRP16SkStreamSeekable", "_ZTIv" ]
  },
  {
   "function_name" : "std::__1::__compressed_pair_elem<SkStreamSeekable *, 0, false>::__compressed_pair_elem",
   "linker_set_key" : "_ZNSt3__122__compressed_pair_elemIP16SkStreamSeekableLi0ELb0EEC2IRS2_vEEOT_",
   "parameters" :
   [
    {
     "is_this_ptr" : true,
     "referenced_type" : "_ZTIPNSt3__122__compressed_pair_elemIP16SkStreamSeekableLi0ELb0EEE"
    },
    {
     "referenced_type" : "_ZTIRP16SkStreamSeekable"
    }
   ],
   "return_type" : "_ZTIv",
   "source_file" : "external/libcxx/include/memory",
   "template_args" : [ "_ZTIRP16SkStreamSeekable", "_ZTIv" ]
  },
  {
   "function_name" : "std::__1::__compressed_pair_elem<SkStreamRewindable *, 0, false>::__get",
   "linker_set_key" : "_ZNSt3__122__compressed_pair_elemIP18SkStreamRewindableLi0ELb0EE5__getEv",
   "parameters" :
   [
    {
     "is_this_ptr" : true,
     "referenced_type" : "_ZTIPNSt3__122__compressed_pair_elemIP18SkStreamRewindableLi0ELb0EEE"
    }
   ],
   "return_type" : "_ZTIRP18SkStreamRewindable",
   "source_file" : "external/libcxx/include/memory"
  },
  {
   "function_name" : "std::__1::__compressed_pair_elem<SkStreamRewindable *, 0, false>::__compressed_pair_elem",
   "linker_set_key" : "_ZNSt3__122__compressed_pair_elemIP18SkStreamRewindableLi0ELb0EEC1IRS2_vEEOT_",
   "parameters" :
   [
    {
     "is_this_ptr" : true,
     "referenced_type" : "_ZTIPNSt3__122__compressed_pair_elemIP18SkStreamRewindableLi0ELb0EEE"
    },
    {
     "referenced_type" : "_ZTIRP18SkStreamRewindable"
    }
   ],
   "return_type" : "_ZTIv",
   "source_file" : "external/libcxx/include/memory",
   "template_args" : [ "_ZTIRP18SkStreamRewindable", "_ZTIv" ]
  },
  {
   "function_name" : "std::__1::__compressed_pair_elem<SkStreamRewindable *, 0, false>::__compressed_pair_elem",
   "linker_set_key" : "_ZNSt3__122__compressed_pair_elemIP18SkStreamRewindableLi0ELb0EEC2IRS2_vEEOT_",
   "parameters" :
   [
    {
     "is_this_ptr" : true,
     "referenced_type" : "_ZTIPNSt3__122__compressed_pair_elemIP18SkStreamRewindableLi0ELb0EEE"
    },
    {
     "referenced_type" : "_ZTIRP18SkStreamRewindable"
    }
   ],
   "return_type" : "_ZTIv",
   "source_file" : "external/libcxx/include/memory",
   "template_args" : [ "_ZTIRP18SkStreamRewindable", "_ZTIv" ]
  },
  {
   "function_name" : "std::__1::__compressed_pair_elem<SkStream *, 0, false>::__get",
   "linker_set_key" : "_ZNSt3__122__compressed_pair_elemIP8SkStreamLi0ELb0EE5__getEv",
   "parameters" :
   [
    {
     "is_this_ptr" : true,
     "referenced_type" : "_ZTIPNSt3__122__compressed_pair_elemIP8SkStreamLi0ELb0EEE"
    }
   ],
   "return_type" : "_ZTIRP8SkStream",
   "source_file" : "external/libcxx/include/memory"
  },
  {
   "function_name" : "std::__1::__compressed_pair_elem<SkStream *, 0, false>::__compressed_pair_elem",
   "linker_set_key" : "_ZNSt3__122__compressed_pair_elemIP8SkStreamLi0ELb0EEC1IRS2_vEEOT_",
   "parameters" :
   [
    {
     "is_this_ptr" : true,
     "referenced_type" : "_ZTIPNSt3__122__compressed_pair_elemIP8SkStreamLi0ELb0EEE"
    },
    {
     "referenced_type" : "_ZTIRP8SkStream"
    }
   ],
   "return_type" : "_ZTIv",
   "source_file" : "external/libcxx/include/memory",
   "template_args" : [ "_ZTIRP8SkStream", "_ZTIv" ]
  },
  {
   "function_name" : "std::__1::__compressed_pair_elem<SkStream *, 0, false>::__compressed_pair_elem",
   "linker_set_key" : "_ZNSt3__122__compressed_pair_elemIP8SkStreamLi0ELb0EEC2IRS2_vEEOT_",
   "parameters" :
   [
    {
     "is_this_ptr" : true,
     "referenced_type" : "_ZTIPNSt3__122__compressed_pair_elemIP8SkStreamLi0ELb0EEE"
    },
    {
     "referenced_type" : "_ZTIRP8SkStream"
    }
   ],
   "return_type" : "_ZTIv",
   "source_file" : "external/libcxx/include/memory",
   "template_args" : [ "_ZTIRP8SkStream", "_ZTIv" ]
  },
  {
   "function_name" : "std::__1::__throw_overflow_error",
   "linker_set_key" : "_ZNSt3__122__throw_overflow_errorEPKc",
   "parameters" :
   [
    {
     "referenced_type" : "_ZTIPKc"
    }
   ],
   "return_type" : "_ZTIv",
   "source_file" : "external/libcxx/include/stdexcept"
  },
  {
   "access" : "protected",
   "function_name" : "std::__1::__libcpp_numeric_limits<bool, true>::denorm_min",
   "linker_set_key" : "_ZNSt3__123__libcpp_numeric_limitsIbLb1EE10denorm_minEv",
   "return_type" : "_ZTIb",
   "source_file" : "external/libcxx/include/limits"
  },
  {
   "access" : "protected",
   "function_name" : "std::__1::__libcpp_numeric_limits<bool, true>::round_error",
   "linker_set_key" : "_ZNSt3__123__libcpp_numeric_limitsIbLb1EE11round_errorEv",
   "return_type" : "_ZTIb",
   "source_file" : "external/libcxx/include/limits"
  },
  {
   "access" : "protected",
   "function_name" : "std::__1::__libcpp_numeric_limits<bool, true>::signaling_NaN",
   "linker_set_key" : "_ZNSt3__123__libcpp_numeric_limitsIbLb1EE13signaling_NaNEv",
   "return_type" : "_ZTIb",
   "source_file" : "external/libcxx/include/limits"
  },
  {
   "access" : "protected",
   "function_name" : "std::__1::__libcpp_numeric_limits<bool, true>::max",
   "linker_set_key" : "_ZNSt3__123__libcpp_numeric_limitsIbLb1EE3maxEv",
   "return_type" : "_ZTIb",
   "source_file" : "external/libcxx/include/limits"
  },
  {
   "access" : "protected",
   "function_name" : "std::__1::__libcpp_numeric_limits<bool, true>::min",
   "linker_set_key" : "_ZNSt3__123__libcpp_numeric_limitsIbLb1EE3minEv",
   "return_type" : "_ZTIb",
   "source_file" : "external/libcxx/include/limits"
  },
  {
   "access" : "protected",
   "function_name" : "std::__1::__libcpp_numeric_limits<bool, true>::lowest",
   "linker_set_key" : "_ZNSt3__123__libcpp_numeric_limitsIbLb1EE6lowestEv",
   "return_type" : "_ZTIb",
   "source_file" : "external/libcxx/include/limits"
  },
  {
   "access" : "protected",
   "function_name" : "std::__1::__libcpp_numeric_limits<bool, true>::epsilon",
   "linker_set_key" : "_ZNSt3__123__libcpp_numeric_limitsIbLb1EE7epsilonEv",
   "return_type" : "_ZTIb",
   "source_file" : "external/libcxx/include/limits"
  },
  {
   "access" : "protected",
   "function_name" : "std::__1::__libcpp_numeric_limits<bool, true>::infinity",
   "linker_set_key" : "_ZNSt3__123__libcpp_numeric_limitsIbLb1EE8infinityEv",
   "return_type" : "_ZTIb",
   "source_file" : "external/libcxx/include/limits"
  },
  {
   "access" : "protected",
   "function_name" : "std::__1::__libcpp_numeric_limits<bool, true>::quiet_NaN",
   "linker_set_key" : "_ZNSt3__123__libcpp_numeric_limitsIbLb1EE9quiet_NaNEv",
   "return_type" : "_ZTIb",
   "source_file" : "external/libcxx/include/limits"
  },
  {
   "access" : "protected",
   "function_name" : "std::__1::__libcpp_numeric_limits<double, true>::denorm_min",
   "linker_set_key" : "_ZNSt3__123__libcpp_numeric_limitsIdLb1EE10denorm_minEv",
   "return_type" : "_ZTId",
   "source_file" : "external/libcxx/include/limits"
  },
  {
   "access" : "protected",
   "function_name" : "std::__1::__libcpp_numeric_limits<double, true>::round_error",
   "linker_set_key" : "_ZNSt3__123__libcpp_numeric_limitsIdLb1EE11round_errorEv",
   "return_type" : "_ZTId",
   "source_file" : "external/libcxx/include/limits"
  },
  {
   "access" : "protected",
   "function_name" : "std::__1::__libcpp_numeric_limits<double, true>::signaling_NaN",
   "linker_set_key" : "_ZNSt3__123__libcpp_numeric_limitsIdLb1EE13signaling_NaNEv",
   "return_type" : "_ZTId",
   "source_file" : "external/libcxx/include/limits"
  },
  {
   "access" : "protected",
   "function_name" : "std::__1::__libcpp_numeric_limits<double, true>::max",
   "linker_set_key" : "_ZNSt3__123__libcpp_numeric_limitsIdLb1EE3maxEv",
   "return_type" : "_ZTId",
   "source_file" : "external/libcxx/include/limits"
  },
  {
   "access" : "protected",
   "function_name" : "std::__1::__libcpp_numeric_limits<double, true>::min",
   "linker_set_key" : "_ZNSt3__123__libcpp_numeric_limitsIdLb1EE3minEv",
   "return_type" : "_ZTId",
   "source_file" : "external/libcxx/include/limits"
  },
  {
   "access" : "protected",
   "function_name" : "std::__1::__libcpp_numeric_limits<double, true>::lowest",
   "linker_set_key" : "_ZNSt3__123__libcpp_numeric_limitsIdLb1EE6lowestEv",
   "return_type" : "_ZTId",
   "source_file" : "external/libcxx/include/limits"
  },
  {
   "access" : "protected",
   "function_name" : "std::__1::__libcpp_numeric_limits<double, true>::epsilon",
   "linker_set_key" : "_ZNSt3__123__libcpp_numeric_limitsIdLb1EE7epsilonEv",
   "return_type" : "_ZTId",
   "source_file" : "external/libcxx/include/limits"
  },
  {
   "access" : "protected",
   "function_name" : "std::__1::__libcpp_numeric_limits<double, true>::infinity",
   "linker_set_key" : "_ZNSt3__123__libcpp_numeric_limitsIdLb1EE8infinityEv",
   "return_type" : "_ZTId",
   "source_file" : "external/libcxx/include/limits"
  },
  {
   "access" : "protected",
   "function_name" : "std::__1::__libcpp_numeric_limits<double, true>::quiet_NaN",
   "linker_set_key" : "_ZNSt3__123__libcpp_numeric_limitsIdLb1EE9quiet_NaNEv",
   "return_type" : "_ZTId",
   "source_file" : "external/libcxx/include/limits"
  },
  {
   "access" : "protected",
   "function_name" : "std::__1::__libcpp_numeric_limits<long double, true>::denorm_min",
   "linker_set_key" : "_ZNSt3__123__libcpp_numeric_limitsIeLb1EE10denorm_minEv",
   "return_type" : "_ZTIe",
   "source_file" : "external/libcxx/include/limits"
  },
  {
   "access" : "protected",
   "function_name" : "std::__1::__libcpp_numeric_limits<long double, true>::round_error",
   "linker_set_key" : "_ZNSt3__123__libcpp_numeric_limitsIeLb1EE11round_errorEv",
   "return_type" : "_ZTIe",
   "source_file" : "external/libcxx/include/limits"
  },
  {
   "access" : "protected",
   "function_name" : "std::__1::__libcpp_numeric_limits<long double, true>::signaling_NaN",
   "linker_set_key" : "_ZNSt3__123__libcpp_numeric_limitsIeLb1EE13signaling_NaNEv",
   "return_type" : "_ZTIe",
   "source_file" : "external/libcxx/include/limits"
  },
  {
   "access" : "protected",
   "function_name" : "std::__1::__libcpp_numeric_limits<long double, true>::max",
   "linker_set_key" : "_ZNSt3__123__libcpp_numeric_limitsIeLb1EE3maxEv",
   "return_type" : "_ZTIe",
   "source_file" : "external/libcxx/include/limits"
  },
  {
   "access" : "protected",
   "function_name" : "std::__1::__libcpp_numeric_limits<long double, true>::min",
   "linker_set_key" : "_ZNSt3__123__libcpp_numeric_limitsIeLb1EE3minEv",
   "return_type" : "_ZTIe",
   "source_file" : "external/libcxx/include/limits"
  },
  {
   "access" : "protected",
   "function_name" : "std::__1::__libcpp_numeric_limits<long double, true>::lowest",
   "linker_set_key" : "_ZNSt3__123__libcpp_numeric_limitsIeLb1EE6lowestEv",
   "return_type" : "_ZTIe",
   "source_file" : "external/libcxx/include/limits"
  },
  {
   "access" : "protected",
   "function_name" : "std::__1::__libcpp_numeric_limits<long double, true>::epsilon",
   "linker_set_key" : "_ZNSt3__123__libcpp_numeric_limitsIeLb1EE7epsilonEv",
   "return_type" : "_ZTIe",
   "source_file" : "external/libcxx/include/limits"
  },
  {
   "access" : "protected",
   "function_name" : "std::__1::__libcpp_numeric_limits<long double, true>::infinity",
   "linker_set_key" : "_ZNSt3__123__libcpp_numeric_limitsIeLb1EE8infinityEv",
   "return_type" : "_ZTIe",
   "source_file" : "external/libcxx/include/limits"
  },
  {
   "access" : "protected",
   "function_name" : "std::__1::__libcpp_numeric_limits<long double, true>::quiet_NaN",
   "linker_set_key" : "_ZNSt3__123__libcpp_numeric_limitsIeLb1EE9quiet_NaNEv",
   "return_type" : "_ZTIe",
   "source_file" : "external/libcxx/include/limits"
  },
  {
   "access" : "protected",
   "function_name" : "std::__1::__libcpp_numeric_limits<float, true>::denorm_min",
   "linker_set_key" : "_ZNSt3__123__libcpp_numeric_limitsIfLb1EE10denorm_minEv",
   "return_type" : "_ZTIf",
   "source_file" : "external/libcxx/include/limits"
  },
  {
   "access" : "protected",
   "function_name" : "std::__1::__libcpp_numeric_limits<float, true>::round_error",
   "linker_set_key" : "_ZNSt3__123__libcpp_numeric_limitsIfLb1EE11round_errorEv",
   "return_type" : "_ZTIf",
   "source_file" : "external/libcxx/include/limits"
  },
  {
   "access" : "protected",
   "function_name" : "std::__1::__libcpp_numeric_limits<float, true>::signaling_NaN",
   "linker_set_key" : "_ZNSt3__123__libcpp_numeric_limitsIfLb1EE13signaling_NaNEv",
   "return_type" : "_ZTIf",
   "source_file" : "external/libcxx/include/limits"
  },
  {
   "access" : "protected",
   "function_name" : "std::__1::__libcpp_numeric_limits<float, true>::max",
   "linker_set_key" : "_ZNSt3__123__libcpp_numeric_limitsIfLb1EE3maxEv",
   "return_type" : "_ZTIf",
   "source_file" : "external/libcxx/include/limits"
  },
  {
   "access" : "protected",
   "function_name" : "std::__1::__libcpp_numeric_limits<float, true>::min",
   "linker_set_key" : "_ZNSt3__123__libcpp_numeric_limitsIfLb1EE3minEv",
   "return_type" : "_ZTIf",
   "source_file" : "external/libcxx/include/limits"
  },
  {
   "access" : "protected",
   "function_name" : "std::__1::__libcpp_numeric_limits<float, true>::lowest",
   "linker_set_key" : "_ZNSt3__123__libcpp_numeric_limitsIfLb1EE6lowestEv",
   "return_type" : "_ZTIf",
   "source_file" : "external/libcxx/include/limits"
  },
  {
   "access" : "protected",
   "function_name" : "std::__1::__libcpp_numeric_limits<float, true>::epsilon",
   "linker_set_key" : "_ZNSt3__123__libcpp_numeric_limitsIfLb1EE7epsilonEv",
   "return_type" : "_ZTIf",
   "source_file" : "external/libcxx/include/limits"
  },
  {
   "access" : "protected",
   "function_name" : "std::__1::__libcpp_numeric_limits<float, true>::infinity",
   "linker_set_key" : "_ZNSt3__123__libcpp_numeric_limitsIfLb1EE8infinityEv",
   "return_type" : "_ZTIf",
   "source_file" : "external/libcxx/include/limits"
  },
  {
   "access" : "protected",
   "function_name" : "std::__1::__libcpp_numeric_limits<float, true>::quiet_NaN",
   "linker_set_key" : "_ZNSt3__123__libcpp_numeric_limitsIfLb1EE9quiet_NaNEv",
   "return_type" : "_ZTIf",
   "source_file" : "external/libcxx/include/limits"
  },
  {
   "function_name" : "std::__1::__throw_underflow_error",
   "linker_set_key" : "_ZNSt3__123__throw_underflow_errorEPKc",
   "parameters" :
   [
    {
     "referenced_type" : "_ZTIPKc"
    }
   ],
   "return_type" : "_ZTIv",
   "source_file" : "external/libcxx/include/stdexcept"
  },
  {
   "function_name" : "std::__1::__is_overaligned_for_new",
   "linker_set_key" : "_ZNSt3__124__is_overaligned_for_newEj",
   "parameters" :
   [
    {
     "referenced_type" : "_ZTIj"
    }
   ],
   "return_type" : "_ZTIb",
   "source_file" : "external/libcxx/include/new"
  },
  {
   "function_name" : "std::__1::__throw_invalid_argument",
   "linker_set_key" : "_ZNSt3__124__throw_invalid_argumentEPKc",
   "parameters" :
   [
    {
     "referenced_type" : "_ZTIPKc"
    }
   ],
   "return_type" : "_ZTIv",
   "source_file" : "external/libcxx/include/stdexcept"
  },
  {
   "function_name" : "std::__1::atomic_flag_test_and_set",
   "linker_set_key" : "_ZNSt3__124atomic_flag_test_and_setEPNS_11atomic_flagE",
   "parameters" :
   [
    {
     "referenced_type" : "_ZTIPNSt3__111atomic_flagE"
    }
   ],
   "return_type" : "_ZTIb",
   "source_file" : "external/libcxx/include/atomic"
  },
  {
   "function_name" : "std::__1::atomic_flag_test_and_set",
   "linker_set_key" : "_ZNSt3__124atomic_flag_test_and_setEPVNS_11atomic_flagE",
   "parameters" :
   [
    {
     "referenced_type" : "_ZTIPVNSt3__111atomic_flagE"
    }
   ],
   "return_type" : "_ZTIb",
   "source_file" : "external/libcxx/include/atomic"
  },
  {
   "function_name" : "std::__1::atomic_flag_clear_explicit",
   "linker_set_key" : "_ZNSt3__126atomic_flag_clear_explicitEPNS_11atomic_flagENS_12memory_orderE",
   "parameters" :
   [
    {
     "referenced_type" : "_ZTIPNSt3__111atomic_flagE"
    },
    {
     "referenced_type" : "_ZTINSt3__112memory_orderE"
    }
   ],
   "return_type" : "_ZTIv",
   "source_file" : "external/libcxx/include/atomic"
  },
  {
   "function_name" : "std::__1::atomic_flag_clear_explicit",
   "linker_set_key" : "_ZNSt3__126atomic_flag_clear_explicitEPVNS_11atomic_flagENS_12memory_orderE",
   "parameters" :
   [
    {
     "referenced_type" : "_ZTIPVNSt3__111atomic_flagE"
    },
    {
     "referenced_type" : "_ZTINSt3__112memory_orderE"
    }
   ],
   "return_type" : "_ZTIv",
   "source_file" : "external/libcxx/include/atomic"
  },
  {
   "function_name" : "std::__1::__libcpp_deallocate_unsized",
   "linker_set_key" : "_ZNSt3__127__libcpp_deallocate_unsizedEPvj",
   "parameters" :
   [
    {
     "referenced_type" : "_ZTIPv"
    },
    {
     "referenced_type" : "_ZTIj"
    }
   ],
   "return_type" : "_ZTIv",
   "source_file" : "external/libcxx/include/new"
  },
  {
   "function_name" : "std::__1::atomic_flag_test_and_set_explicit",
   "linker_set_key" : "_ZNSt3__133atomic_flag_test_and_set_explicitEPNS_11atomic_flagENS_12memory_orderE",
   "parameters" :
   [
    {
     "referenced_type" : "_ZTIPNSt3__111atomic_flagE"
    },
    {
     "referenced_type" : "_ZTINSt3__112memory_orderE"
    }
   ],
   "return_type" : "_ZTIb",
   "source_file" : "external/libcxx/include/atomic"
  },
  {
   "function_name" : "std::__1::atomic_flag_test_and_set_explicit",
   "linker_set_key" : "_ZNSt3__133atomic_flag_test_and_set_explicitEPVNS_11atomic_flagENS_12memory_orderE",
   "parameters" :
   [
    {
     "referenced_type" : "_ZTIPVNSt3__111atomic_flagE"
    },
    {
     "referenced_type" : "_ZTINSt3__112memory_orderE"
    }
   ],
   "return_type" : "_ZTIb",
   "source_file" : "external/libcxx/include/atomic"
  },
  {
   "function_name" : "std::__1::__libcpp_atomic_refcount_decrement",
   "linker_set_key" : "_ZNSt3__134__libcpp_atomic_refcount_decrementIlEET_RS1_",
   "parameters" :
   [
    {
     "referenced_type" : "_ZTIRl"
    }
   ],
   "return_type" : "_ZTIl",
   "source_file" : "external/libcxx/include/memory",
   "template_args" : [ "_ZTIl" ]
  },
  {
   "function_name" : "std::__1::__libcpp_atomic_refcount_increment",
   "linker_set_key" : "_ZNSt3__134__libcpp_atomic_refcount_incrementIlEET_RS1_",
   "parameters" :
   [
    {
     "referenced_type" : "_ZTIRl"
    }
   ],
   "return_type" : "_ZTIl",
   "source_file" : "external/libcxx/include/memory",
   "template_args" : [ "_ZTIl" ]
  },
  {
   "function_name" : "std::__1::move",
   "linker_set_key" : "_ZNSt3__14moveIRNS_10unique_ptrI12SkFILEStreamNS_14default_deleteIS2_EEEEEEONS_16remove_referenceIT_E4typeEOS8_",
   "parameters" :
   [
    {
     "referenced_type" : "_ZTIRNSt3__110unique_ptrI12SkFILEStreamNS_14default_deleteIS1_EEEE"
    }
   ],
   "return_type" : "_ZTIONSt3__110unique_ptrI12SkFILEStreamNS_14default_deleteIS1_EEEE",
   "source_file" : "external/libcxx/include/type_traits",
   "template_args" : [ "_ZTIRNSt3__110unique_ptrI12SkFILEStreamNS_14default_deleteIS1_EEEE" ]
  },
  {
   "function_name" : "std::__1::hypot",
   "linker_set_key" : "_ZNSt3__15hypotEddd",
   "parameters" :
   [
    {
     "referenced_type" : "_ZTId"
    },
    {
     "referenced_type" : "_ZTId"
    },
    {
     "referenced_type" : "_ZTId"
    }
   ],
   "return_type" : "_ZTId",
   "source_file" : "external/libcxx/include/cmath"
  },
  {
   "function_name" : "std::__1::hypot",
   "linker_set_key" : "_ZNSt3__15hypotEeee",
   "parameters" :
   [
    {
     "referenced_type" : "_ZTIe"
    },
    {
     "referenced_type" : "_ZTIe"
    },
    {
     "referenced_type" : "_ZTIe"
    }
   ],
   "return_type" : "_ZTIe",
   "source_file" : "external/libcxx/include/cmath"
  },
  {
   "function_name" : "std::__1::hypot",
   "linker_set_key" : "_ZNSt3__15hypotEfff",
   "parameters" :
   [
    {
     "referenced_type" : "_ZTIf"
    },
    {
     "referenced_type" : "_ZTIf"
    },
    {
     "referenced_type" : "_ZTIf"
    }
   ],
   "return_type" : "_ZTIf",
   "source_file" : "external/libcxx/include/cmath"
  },
  {
   "function_name" : "std::__1::tuple<>::swap",
   "linker_set_key" : "_ZNSt3__15tupleIJEE4swapERS1_",
   "parameters" :
   [
    {
     "is_this_ptr" : true,
     "referenced_type" : "_ZTIPNSt3__15tupleIJEEE"
    },
    {
     "referenced_type" : "_ZTIRNSt3__15tupleIJEEE"
    }
   ],
   "return_type" : "_ZTIv",
   "source_file" : "external/libcxx/include/tuple"
  },
  {
   "function_name" : "std::__1::tuple<>::tuple",
   "linker_set_key" : "_ZNSt3__15tupleIJEEC1Ev",
   "parameters" :
   [
    {
     "is_this_ptr" : true,
     "referenced_type" : "_ZTIPNSt3__15tupleIJEEE"
    }
   ],
   "return_type" : "_ZTIv",
   "source_file" : "external/libcxx/include/tuple"
  },
  {
   "function_name" : "std::__1::tuple<>::tuple",
   "linker_set_key" : "_ZNSt3__15tupleIJEEC2Ev",
   "parameters" :
   [
    {
     "is_this_ptr" : true,
     "referenced_type" : "_ZTIPNSt3__15tupleIJEEE"
    }
   ],
   "return_type" : "_ZTIv",
   "source_file" : "external/libcxx/include/tuple"
  },
  {
   "function_name" : "std::__1::atomic<int>::atomic",
   "linker_set_key" : "_ZNSt3__16atomicIiEC1Ei",
   "parameters" :
   [
    {
     "is_this_ptr" : true,
     "referenced_type" : "_ZTIPNSt3__16atomicIiEE"
    },
    {
     "referenced_type" : "_ZTIi"
    }
   ],
   "return_type" : "_ZTIv",
   "source_file" : "external/libcxx/include/atomic"
  },
  {
   "function_name" : "std::__1::atomic<int>::atomic",
   "linker_set_key" : "_ZNSt3__16atomicIiEC1Ev",
   "parameters" :
   [
    {
     "is_this_ptr" : true,
     "referenced_type" : "_ZTIPNSt3__16atomicIiEE"
    }
   ],
   "return_type" : "_ZTIv",
   "source_file" : "external/libcxx/include/atomic"
  },
  {
   "function_name" : "std::__1::atomic<int>::atomic",
   "linker_set_key" : "_ZNSt3__16atomicIiEC2Ei",
   "parameters" :
   [
    {
     "is_this_ptr" : true,
     "referenced_type" : "_ZTIPNSt3__16atomicIiEE"
    },
    {
     "referenced_type" : "_ZTIi"
    }
   ],
   "return_type" : "_ZTIv",
   "source_file" : "external/libcxx/include/atomic"
  },
  {
   "function_name" : "std::__1::atomic<int>::atomic",
   "linker_set_key" : "_ZNSt3__16atomicIiEC2Ev",
   "parameters" :
   [
    {
     "is_this_ptr" : true,
     "referenced_type" : "_ZTIPNSt3__16atomicIiEE"
    }
   ],
   "return_type" : "_ZTIv",
   "source_file" : "external/libcxx/include/atomic"
  },
  {
   "function_name" : "std::__1::forward",
   "linker_set_key" : "_ZNSt3__17forwardINS_14default_deleteI12SkFILEStreamEEEEOT_RNS_16remove_referenceIS4_E4typeE",
   "parameters" :
   [
    {
     "referenced_type" : "_ZTIRNSt3__114default_deleteI12SkFILEStreamEE"
    }
   ],
   "return_type" : "_ZTIONSt3__114default_deleteI12SkFILEStreamEE",
   "source_file" : "external/libcxx/include/type_traits",
   "template_args" : [ "_ZTINSt3__114default_deleteI12SkFILEStreamEE" ]
  },
  {
   "function_name" : "std::__1::forward",
   "linker_set_key" : "_ZNSt3__17forwardIP12SkFILEStreamEEOT_RNS_16remove_referenceIS3_E4typeE",
   "parameters" :
   [
    {
     "referenced_type" : "_ZTIRP12SkFILEStream"
    }
   ],
   "return_type" : "_ZTIOP12SkFILEStream",
   "source_file" : "external/libcxx/include/type_traits",
   "template_args" : [ "_ZTIP12SkFILEStream" ]
  },
  {
   "function_name" : "std::__1::forward",
   "linker_set_key" : "_ZNSt3__17forwardIRP12SkFILEStreamEEOT_RNS_16remove_referenceIS4_E4typeE",
   "parameters" :
   [
    {
     "referenced_type" : "_ZTIRP12SkFILEStream"
    }
   ],
   "return_type" : "_ZTIRP12SkFILEStream",
   "source_file" : "external/libcxx/include/type_traits",
   "template_args" : [ "_ZTIRP12SkFILEStream" ]
  },
  {
   "function_name" : "std::__1::forward",
   "linker_set_key" : "_ZNSt3__17forwardIRP13SkStreamAssetEEOT_RNS_16remove_referenceIS4_E4typeE",
   "parameters" :
   [
    {
     "referenced_type" : "_ZTIRP13SkStreamAsset"
    }
   ],
   "return_type" : "_ZTIRP13SkStreamAsset",
   "source_file" : "external/libcxx/include/type_traits",
   "template_args" : [ "_ZTIRP13SkStreamAsset" ]
  },
  {
   "function_name" : "std::__1::forward",
   "linker_set_key" : "_ZNSt3__17forwardIRP14SkMemoryStreamEEOT_RNS_16remove_referenceIS4_E4typeE",
   "parameters" :
   [
    {
     "referenced_type" : "_ZTIRP14SkMemoryStream"
    }
   ],
   "return_type" : "_ZTIRP14SkMemoryStream",
   "source_file" : "external/libcxx/include/type_traits",
   "template_args" : [ "_ZTIRP14SkMemoryStream" ]
  },
  {
   "function_name" : "std::__1::forward",
   "linker_set_key" : "_ZNSt3__17forwardIRP14SkStreamMemoryEEOT_RNS_16remove_referenceIS4_E4typeE",
   "parameters" :
   [
    {
     "referenced_type" : "_ZTIRP14SkStreamMemory"
    }
   ],
   "return_type" : "_ZTIRP14SkStreamMemory",
   "source_file" : "external/libcxx/include/type_traits",
   "template_args" : [ "_ZTIRP14SkStreamMemory" ]
  },
  {
   "function_name" : "std::__1::forward",
   "linker_set_key" : "_ZNSt3__17forwardIRP16SkStreamSeekableEEOT_RNS_16remove_referenceIS4_E4typeE",
   "parameters" :
   [
    {
     "referenced_type" : "_ZTIRP16SkStreamSeekable"
    }
   ],
   "return_type" : "_ZTIRP16SkStreamSeekable",
   "source_file" : "external/libcxx/include/type_traits",
   "template_args" : [ "_ZTIRP16SkStreamSeekable" ]
  },
  {
   "function_name" : "std::__1::forward",
   "linker_set_key" : "_ZNSt3__17forwardIRP18SkStreamRewindableEEOT_RNS_16remove_referenceIS4_E4typeE",
   "parameters" :
   [
    {
     "referenced_type" : "_ZTIRP18SkStreamRewindable"
    }
   ],
   "return_type" : "_ZTIRP18SkStreamRewindable",
   "source_file" : "external/libcxx/include/type_traits",
   "template_args" : [ "_ZTIRP18SkStreamRewindable" ]
  },
  {
   "function_name" : "std::__1::forward",
   "linker_set_key" : "_ZNSt3__17forwardIRP8SkStreamEEOT_RNS_16remove_referenceIS4_E4typeE",
   "parameters" :
   [
    {
     "referenced_type" : "_ZTIRP8SkStream"
    }
   ],
   "return_type" : "_ZTIRP8SkStream",
   "source_file" : "external/libcxx/include/type_traits",
   "template_args" : [ "_ZTIRP8SkStream" ]
  },
  {
   "function_name" : "std::__1::tuple_cat",
   "linker_set_key" : "_ZNSt3__19tuple_catEv",
   "return_type" : "_ZTINSt3__15tupleIJEEE",
   "source_file" : "external/libcxx/include/tuple"
  },
  {
   "function_name" : "std::__1::operator!=",
   "linker_set_key" : "_ZNSt3__1neI7__sFILEEEbRKNS_10shared_ptrIT_EEDn",
   "parameters" :
   [
    {
     "referenced_type" : "_ZTIRKNSt3__110shared_ptrI7__sFILEEE"
    },
    {
     "referenced_type" : "_ZTIDn"
    }
   ],
   "return_type" : "_ZTIb",
   "source_file" : "external/libcxx/include/memory",
   "template_args" : [ "_ZTI7__sFILE" ]
  },
  {
   "function_name" : "std::exception::exception",
   "linker_set_key" : "_ZNSt9exceptionC1Ev",
   "parameters" :
   [
    {
     "is_this_ptr" : true,
     "referenced_type" : "_ZTIPSt9exception"
    }
   ],
   "return_type" : "_ZTIv",
   "source_file" : "external/libcxx/include/exception"
  },
  {
   "function_name" : "std::exception::exception",
   "linker_set_key" : "_ZNSt9exceptionC2Ev",
   "parameters" :
   [
    {
     "is_this_ptr" : true,
     "referenced_type" : "_ZTIPSt9exception"
    }
   ],
   "return_type" : "_ZTIv",
   "source_file" : "external/libcxx/include/exception"
  },
  {
   "access" : "protected",
   "function_name" : "std::type_info::type_info",
   "linker_set_key" : "_ZNSt9type_infoC1EPKc",
   "parameters" :
   [
    {
     "is_this_ptr" : true,
     "referenced_type" : "_ZTIPSt9type_info"
    },
    {
     "referenced_type" : "_ZTIPKc"
    }
   ],
   "return_type" : "_ZTIv",
   "source_file" : "external/libcxx/include/typeinfo"
  },
  {
   "access" : "protected",
   "function_name" : "std::type_info::type_info",
   "linker_set_key" : "_ZNSt9type_infoC2EPKc",
   "parameters" :
   [
    {
     "is_this_ptr" : true,
     "referenced_type" : "_ZTIPSt9type_info"
    },
    {
     "referenced_type" : "_ZTIPKc"
    }
   ],
   "return_type" : "_ZTIv",
   "source_file" : "external/libcxx/include/typeinfo"
  },
  {
   "function_name" : "std::__1::atomic_flag::test_and_set",
   "linker_set_key" : "_ZNVSt3__111atomic_flag12test_and_setENS_12memory_orderE",
   "parameters" :
   [
    {
     "is_this_ptr" : true,
     "referenced_type" : "_ZTIPVNSt3__111atomic_flagE"
    },
    {
     "default_arg" : true,
     "referenced_type" : "_ZTINSt3__112memory_orderE"
    }
   ],
   "return_type" : "_ZTIb",
   "source_file" : "external/libcxx/include/atomic"
  },
  {
   "function_name" : "std::__1::atomic_flag::clear",
   "linker_set_key" : "_ZNVSt3__111atomic_flag5clearENS_12memory_orderE",
   "parameters" :
   [
    {
     "is_this_ptr" : true,
     "referenced_type" : "_ZTIPVNSt3__111atomic_flagE"
    },
    {
     "default_arg" : true,
     "referenced_type" : "_ZTINSt3__112memory_orderE"
    }
   ],
   "return_type" : "_ZTIv",
   "source_file" : "external/libcxx/include/atomic"
  },
  {
   "function_name" : "std::operator&=",
   "linker_set_key" : "_ZStaNRSt4byteS_",
   "parameters" :
   [
    {
     "referenced_type" : "_ZTIRSt4byte"
    },
    {
     "referenced_type" : "_ZTISt4byte"
    }
   ],
   "return_type" : "_ZTIRSt4byte",
   "source_file" : "external/libcxx/include/cstddef"
  },
  {
   "function_name" : "std::operator&",
   "linker_set_key" : "_ZStanSt4byteS_",
   "parameters" :
   [
    {
     "referenced_type" : "_ZTISt4byte"
    },
    {
     "referenced_type" : "_ZTISt4byte"
    }
   ],
   "return_type" : "_ZTISt4byte",
   "source_file" : "external/libcxx/include/cstddef"
  },
  {
   "function_name" : "std::operator~",
   "linker_set_key" : "_ZStcoSt4byte",
   "parameters" :
   [
    {
     "referenced_type" : "_ZTISt4byte"
    }
   ],
   "return_type" : "_ZTISt4byte",
   "source_file" : "external/libcxx/include/cstddef"
  },
  {
   "function_name" : "std::operator^=",
   "linker_set_key" : "_ZSteORSt4byteS_",
   "parameters" :
   [
    {
     "referenced_type" : "_ZTIRSt4byte"
    },
    {
     "referenced_type" : "_ZTISt4byte"
    }
   ],
   "return_type" : "_ZTIRSt4byte",
   "source_file" : "external/libcxx/include/cstddef"
  },
  {
   "function_name" : "std::operator^",
   "linker_set_key" : "_ZSteoSt4byteS_",
   "parameters" :
   [
    {
     "referenced_type" : "_ZTISt4byte"
    },
    {
     "referenced_type" : "_ZTISt4byte"
    }
   ],
   "return_type" : "_ZTISt4byte",
   "source_file" : "external/libcxx/include/cstddef"
  },
  {
   "function_name" : "std::operator==",
   "linker_set_key" : "_ZSteqRKSt13exception_ptrS1_",
   "parameters" :
   [
    {
     "referenced_type" : "_ZTIRKSt13exception_ptr"
    },
    {
     "referenced_type" : "_ZTIRKSt13exception_ptr"
    }
   ],
   "return_type" : "_ZTIb",
   "source_file" : "external/libcxx/include/exception"
  },
  {
   "function_name" : "std::operator!=",
   "linker_set_key" : "_ZStneRKSt13exception_ptrS1_",
   "parameters" :
   [
    {
     "referenced_type" : "_ZTIRKSt13exception_ptr"
    },
    {
     "referenced_type" : "_ZTIRKSt13exception_ptr"
    }
   ],
   "return_type" : "_ZTIb",
   "source_file" : "external/libcxx/include/exception"
  },
  {
   "function_name" : "std::operator|=",
   "linker_set_key" : "_ZStoRRSt4byteS_",
   "parameters" :
   [
    {
     "referenced_type" : "_ZTIRSt4byte"
    },
    {
     "referenced_type" : "_ZTISt4byte"
    }
   ],
   "return_type" : "_ZTIRSt4byte",
   "source_file" : "external/libcxx/include/cstddef"
  },
  {
   "function_name" : "std::operator|",
   "linker_set_key" : "_ZStorSt4byteS_",
   "parameters" :
   [
    {
     "referenced_type" : "_ZTISt4byte"
    },
    {
     "referenced_type" : "_ZTISt4byte"
    }
   ],
   "return_type" : "_ZTISt4byte",
   "source_file" : "external/libcxx/include/cstddef"
  },
  {
   "function_name" : "operator delete[]",
   "linker_set_key" : "_ZdaPvS_",
   "parameters" :
   [
    {
     "referenced_type" : "_ZTIPv"
    },
    {
     "referenced_type" : "_ZTIPv"
    }
   ],
   "return_type" : "_ZTIv",
   "source_file" : "external/libcxx/include/new"
  },
  {
   "function_name" : "operator delete",
   "linker_set_key" : "_ZdlPvS_",
   "parameters" :
   [
    {
     "referenced_type" : "_ZTIPv"
    },
    {
     "referenced_type" : "_ZTIPv"
    }
   ],
   "return_type" : "_ZTIv",
   "source_file" : "external/libcxx/include/new"
  },
  {
   "function_name" : "operator new[]",
   "linker_set_key" : "_ZnajPv",
   "parameters" :
   [
    {
     "referenced_type" : "_ZTIj"
    },
    {
     "referenced_type" : "_ZTIPv"
    }
   ],
   "return_type" : "_ZTIPv",
   "source_file" : "external/libcxx/include/new"
  },
  {
   "function_name" : "operator new",
   "linker_set_key" : "_ZnwjPv",
   "parameters" :
   [
    {
     "referenced_type" : "_ZTIj"
    },
    {
     "referenced_type" : "_ZTIPv"
    }
   ],
   "return_type" : "_ZTIPv",
   "source_file" : "external/libcxx/include/new"
  }
 ],
 "global_vars" :
 [
  {
   "linker_set_key" : "_ZL10SK_FloatPI",
   "name" : "SK_FloatPI",
   "referenced_type" : "_ZTIKf",
   "source_file" : "external/skia/include/private/SkFloatingPoint.h"
  },
  {
   "linker_set_key" : "_ZL10SK_MSecMax",
   "name" : "SK_MSecMax",
   "referenced_type" : "_ZTIKj",
   "source_file" : "external/skia/include/core/SkTypes.h"
  },
  {
   "linker_set_key" : "_ZL11SK_DoublePI",
   "name" : "SK_DoublePI",
   "referenced_type" : "_ZTIKd",
   "source_file" : "external/skia/include/private/SkFloatingPoint.h"
  },
  {
   "linker_set_key" : "_ZL13SK_FloatSqrt2",
   "name" : "SK_FloatSqrt2",
   "referenced_type" : "_ZTIKf",
   "source_file" : "external/skia/include/private/SkFloatingPoint.h"
  },
  {
   "linker_set_key" : "_ZL15SK_InvalidGenID",
   "name" : "SK_InvalidGenID",
   "referenced_type" : "_ZTIKj",
   "source_file" : "external/skia/include/core/SkTypes.h"
  },
  {
   "linker_set_key" : "_ZL18SK_InvalidUniqueID",
   "name" : "SK_InvalidUniqueID",
   "referenced_type" : "_ZTIKj",
   "source_file" : "external/skia/include/core/SkTypes.h"
  },
  {
   "linker_set_key" : "_ZL23gFloatBits_matissa_mask",
   "name" : "gFloatBits_matissa_mask",
   "referenced_type" : "_ZTIKi",
   "source_file" : "external/skia/include/private/SkFloatBits.h"
  },
  {
   "linker_set_key" : "_ZL24gFloatBits_exponent_mask",
   "name" : "gFloatBits_exponent_mask",
   "referenced_type" : "_ZTIKi",
   "source_file" : "external/skia/include/private/SkFloatBits.h"
  },
  {
   "linker_set_key" : "_ZL8SK_NaN32",
   "name" : "SK_NaN32",
   "referenced_type" : "_ZTIKi",
   "source_file" : "external/skia/include/core/SkTypes.h"
  },
  {
   "linker_set_key" : "_ZL9SK_MaxS16",
   "name" : "SK_MaxS16",
   "referenced_type" : "_ZTIKs",
   "source_file" : "external/skia/include/core/SkTypes.h"
  },
  {
   "linker_set_key" : "_ZL9SK_MaxS32",
   "name" : "SK_MaxS32",
   "referenced_type" : "_ZTIKi",
   "source_file" : "external/skia/include/core/SkTypes.h"
  },
  {
   "linker_set_key" : "_ZL9SK_MaxS64",
   "name" : "SK_MaxS64",
   "referenced_type" : "_ZTIKx",
   "source_file" : "external/skia/include/core/SkTypes.h"
  },
  {
   "linker_set_key" : "_ZL9SK_MinS16",
   "name" : "SK_MinS16",
   "referenced_type" : "_ZTIKs",
   "source_file" : "external/skia/include/core/SkTypes.h"
  },
  {
   "linker_set_key" : "_ZL9SK_MinS32",
   "name" : "SK_MinS32",
   "referenced_type" : "_ZTIKi",
   "source_file" : "external/skia/include/core/SkTypes.h"
  },
  {
   "linker_set_key" : "_ZL9SK_MinS64",
   "name" : "SK_MinS64",
   "referenced_type" : "_ZTIKx",
   "source_file" : "external/skia/include/core/SkTypes.h"
  },
  {
   "linker_set_key" : "_ZN8log_time5EPOCHE",
   "name" : "log_time::EPOCH",
   "referenced_type" : "_ZTIK8timespec",
   "source_file" : "system/logging/liblog/include/log/log_time.h"
  },
  {
   "linker_set_key" : "_ZNSt3__110is_array_vE",
   "name" : "std::__1::is_array_v",
   "referenced_type" : "_ZTIKb",
   "source_file" : "external/libcxx/include/type_traits"
  },
  {
   "linker_set_key" : "_ZNSt3__110is_class_vE",
   "name" : "std::__1::is_class_v",
   "referenced_type" : "_ZTIKb",
   "source_file" : "external/libcxx/include/type_traits"
  },
  {
   "linker_set_key" : "_ZNSt3__110is_const_vE",
   "name" : "std::__1::is_const_v",
   "referenced_type" : "_ZTIKb",
   "source_file" : "external/libcxx/include/type_traits"
  },
  {
   "linker_set_key" : "_ZNSt3__110is_empty_vE",
   "name" : "std::__1::is_empty_v",
   "referenced_type" : "_ZTIKb",
   "source_file" : "external/libcxx/include/type_traits"
  },
  {
   "linker_set_key" : "_ZNSt3__110is_final_vE",
   "name" : "std::__1::is_final_v",
   "referenced_type" : "_ZTIKb",
   "source_file" : "external/libcxx/include/type_traits"
  },
  {
   "linker_set_key" : "_ZNSt3__110is_union_vE",
   "name" : "std::__1::is_union_v",
   "referenced_type" : "_ZTIKb",
   "source_file" : "external/libcxx/include/type_traits"
  },
  {
   "linker_set_key" : "_ZNSt3__110negation_vE",
   "name" : "std::__1::negation_v",
   "referenced_type" : "_ZTIKb",
   "source_file" : "external/libcxx/include/type_traits"
  },
  {
   "linker_set_key" : "_ZNSt3__111is_object_vE",
   "name" : "std::__1::is_object_v",
   "referenced_type" : "_ZTIKb",
   "source_file" : "external/libcxx/include/type_traits"
  },
  {
   "linker_set_key" : "_ZNSt3__111is_scalar_vE",
   "name" : "std::__1::is_scalar_v",
   "referenced_type" : "_ZTIKb",
   "source_file" : "external/libcxx/include/type_traits"
  },
  {
   "linker_set_key" : "_ZNSt3__111is_signed_vE",
   "name" : "std::__1::is_signed_v",
   "referenced_type" : "_ZTIKb",
   "source_file" : "external/libcxx/include/type_traits"
  },
  {
   "linker_set_key" : "_ZNSt3__112_GLOBAL__N_16ignoreE",
   "name" : "std::__1::(anonymous namespace)::ignore",
   "referenced_type" : "_ZTIKNSt3__110__ignore_tIhEE",
   "source_file" : "external/libcxx/include/tuple"
  },
  {
   "linker_set_key" : "_ZNSt3__112__align_type5valueE",
   "name" : "std::__1::__align_type::value",
   "referenced_type" : "_ZTIKj",
   "source_file" : "external/libcxx/include/type_traits"
  },
  {
   "linker_set_key" : "_ZNSt3__112__has_rebind5valueE",
   "name" : "std::__1::__has_rebind::value",
   "referenced_type" : "_ZTIKb",
   "source_file" : "external/libcxx/include/memory"
  },
  {
   "linker_set_key" : "_ZNSt3__112__static_maxIXT_EJEE5valueE",
   "name" : "std::__1::__static_max<_I0>::value",
   "referenced_type" : "_ZTIKj",
   "source_file" : "external/libcxx/include/type_traits"
  },
  {
   "linker_set_key" : "_ZNSt3__112__static_maxIXT_EJXT0_EXspT1_EEE5valueE",
   "name" : "std::__1::__static_max<_I0, _I1, _In...>::value",
   "referenced_type" : "_ZTIKj",
   "source_file" : "external/libcxx/include/type_traits"
  },
  {
   "linker_set_key" : "_ZNSt3__112is_base_of_vE",
   "name" : "std::__1::is_base_of_v",
   "referenced_type" : "_ZTIKb",
   "source_file" : "external/libcxx/include/type_traits"
  },
  {
   "linker_set_key" : "_ZNSt3__112is_pointer_vE",
   "name" : "std::__1::is_pointer_v",
   "referenced_type" : "_ZTIKb",
   "source_file" : "external/libcxx/include/type_traits"
  },
  {
   "linker_set_key" : "_ZNSt3__112is_trivial_vE",
   "name" : "std::__1::is_trivial_v",
   "referenced_type" : "_ZTIKb",
   "source_file" : "external/libcxx/include/type_traits"
  },
  {
   "linker_set_key" : "_ZNSt3__112tuple_size_vE",
   "name" : "std::__1::tuple_size_v",
   "referenced_type" : "_ZTIKj",
   "source_file" : "external/libcxx/include/tuple"
  },
  {
   "linker_set_key" : "_ZNSt3__113__atomic_base19is_always_lock_freeE",
   "name" : "std::__1::__atomic_base::is_always_lock_free",
   "referenced_type" : "_ZTIKb",
   "source_file" : "external/libcxx/include/atomic"
  },
  {
   "linker_set_key" : "_ZNSt3__113__atomic_baseIiLb0EE19is_always_lock_freeE",
   "name" : "std::__1::__atomic_base<int, false>::is_always_lock_free",
   "referenced_type" : "_ZTIKb",
   "source_file" : "external/libcxx/include/atomic"
  },
  {
   "linker_set_key" : "_ZNSt3__113__find_detail26__find_exactly_one_checked5valueE",
   "name" : "std::__1::__find_detail::__find_exactly_one_checked::value",
   "referenced_type" : "_ZTIKj",
   "source_file" : "external/libcxx/include/tuple"
  },
  {
   "linker_set_key" : "_ZNSt3__113__find_detailL11__ambiguousE",
   "name" : "std::__1::__find_detail::__ambiguous",
   "referenced_type" : "_ZTIKj",
   "source_file" : "external/libcxx/include/tuple"
  },
  {
   "linker_set_key" : "_ZNSt3__113__find_detailL11__not_foundE",
   "name" : "std::__1::__find_detail::__not_found",
   "referenced_type" : "_ZTIKj",
   "source_file" : "external/libcxx/include/tuple"
  },
  {
   "linker_set_key" : "_ZNSt3__113__invokable_r5valueE",
   "name" : "std::__1::__invokable_r::value",
   "referenced_type" : "_ZTIKb",
   "source_file" : "external/libcxx/include/type_traits"
  },
  {
   "linker_set_key" : "_ZNSt3__113__promote_imp5valueE",
   "name" : "std::__1::__promote_imp::value",
   "referenced_type" : "_ZTIKb",
   "source_file" : "external/libcxx/include/type_traits"
  },
  {
   "linker_set_key" : "_ZNSt3__113__promote_impIT_T0_T1_Lb1EE5valueE",
   "name" : "std::__1::__promote_imp<type-parameter-0-0, type-parameter-0-1, type-parameter-0-2, true>::value",
   "referenced_type" : "_ZTIKb",
   "source_file" : "external/libcxx/include/type_traits"
  },
  {
   "linker_set_key" : "_ZNSt3__113__promote_impIT_T0_vLb1EE5valueE",
   "name" : "std::__1::__promote_imp<type-parameter-0-0, type-parameter-0-1, void, true>::value",
   "referenced_type" : "_ZTIKb",
   "source_file" : "external/libcxx/include/type_traits"
  },
  {
   "linker_set_key" : "_ZNSt3__113__promote_impIT_vvLb1EE5valueE",
   "name" : "std::__1::__promote_imp<type-parameter-0-0, void, void, true>::value",
   "referenced_type" : "_ZTIKb",
   "source_file" : "external/libcxx/include/type_traits"
  },
  {
   "linker_set_key" : "_ZNSt3__113aligned_union15alignment_valueE",
   "name" : "std::__1::aligned_union::alignment_value",
   "referenced_type" : "_ZTIKj",
   "source_file" : "external/libcxx/include/type_traits"
  },
  {
   "linker_set_key" : "_ZNSt3__113aligned_union5__lenE",
   "name" : "std::__1::aligned_union::__len",
   "referenced_type" : "_ZTIKj",
   "source_file" : "external/libcxx/include/type_traits"
  },
  {
   "linker_set_key" : "_ZNSt3__113conjunction_vE",
   "name" : "std::__1::conjunction_v",
   "referenced_type" : "_ZTIKb",
   "source_file" : "external/libcxx/include/type_traits"
  },
  {
   "linker_set_key" : "_ZNSt3__113disjunction_vE",
   "name" : "std::__1::disjunction_v",
   "referenced_type" : "_ZTIKb",
   "source_file" : "external/libcxx/include/type_traits"
  },
  {
   "linker_set_key" : "_ZNSt3__113is_abstract_vE",
   "name" : "std::__1::is_abstract_v",
   "referenced_type" : "_ZTIKb",
   "source_file" : "external/libcxx/include/type_traits"
  },
  {
   "linker_set_key" : "_ZNSt3__113is_compound_vE",
   "name" : "std::__1::is_compound_v",
   "referenced_type" : "_ZTIKb",
   "source_file" : "external/libcxx/include/type_traits"
  },
  {
   "linker_set_key" : "_ZNSt3__113is_function_vE",
   "name" : "std::__1::is_function_v",
   "referenced_type" : "_ZTIKb",
   "source_file" : "external/libcxx/include/type_traits"
  },
  {
   "linker_set_key" : "_ZNSt3__113is_integral_vE",
   "name" : "std::__1::is_integral_v",
   "referenced_type" : "_ZTIKb",
   "source_file" : "external/libcxx/include/type_traits"
  },
  {
   "linker_set_key" : "_ZNSt3__113is_unsigned_vE",
   "name" : "std::__1::is_unsigned_v",
   "referenced_type" : "_ZTIKb",
   "source_file" : "external/libcxx/include/type_traits"
  },
  {
   "linker_set_key" : "_ZNSt3__113is_volatile_vE",
   "name" : "std::__1::is_volatile_v",
   "referenced_type" : "_ZTIKb",
   "source_file" : "external/libcxx/include/type_traits"
  },
  {
   "linker_set_key" : "_ZNSt3__114__numeric_type5valueE",
   "name" : "std::__1::__numeric_type::value",
   "referenced_type" : "_ZTIKb",
   "source_file" : "external/libcxx/include/type_traits"
  },
  {
   "linker_set_key" : "_ZNSt3__114__numeric_typeIvE5valueE",
   "name" : "std::__1::__numeric_type<void>::value",
   "referenced_type" : "_ZTIKb",
   "source_file" : "external/libcxx/include/type_traits"
  },
  {
   "access" : "private",
   "linker_set_key" : "_ZNSt3__114__select_align5__maxE",
   "name" : "std::__1::__select_align::__max",
   "referenced_type" : "_ZTIKj",
   "source_file" : "external/libcxx/include/type_traits"
  },
  {
   "access" : "private",
   "linker_set_key" : "_ZNSt3__114__select_align5__minE",
   "name" : "std::__1::__select_align::__min",
   "referenced_type" : "_ZTIKj",
   "source_file" : "external/libcxx/include/type_traits"
  },
  {
   "linker_set_key" : "_ZNSt3__114__select_align5valueE",
   "name" : "std::__1::__select_align::value",
   "referenced_type" : "_ZTIKj",
   "source_file" : "external/libcxx/include/type_traits"
  },
  {
   "linker_set_key" : "_ZNSt3__114alignment_of_vE",
   "name" : "std::__1::alignment_of_v",
   "referenced_type" : "_ZTIKj",
   "source_file" : "external/libcxx/include/type_traits"
  },
  {
   "linker_set_key" : "_ZNSt3__114is_aggregate_vE",
   "name" : "std::__1::is_aggregate_v",
   "referenced_type" : "_ZTIKb",
   "source_file" : "external/libcxx/include/type_traits"
  },
  {
   "linker_set_key" : "_ZNSt3__114is_invocable_vE",
   "name" : "std::__1::is_invocable_v",
   "referenced_type" : "_ZTIKb",
   "source_file" : "external/libcxx/include/type_traits"
  },
  {
   "linker_set_key" : "_ZNSt3__114is_reference_vE",
   "name" : "std::__1::is_reference_v",
   "referenced_type" : "_ZTIKb",
   "source_file" : "external/libcxx/include/type_traits"
  },
  {
   "linker_set_key" : "_ZNSt3__114is_swappable_vE",
   "name" : "std::__1::is_swappable_v",
   "referenced_type" : "_ZTIKb",
   "source_file" : "external/libcxx/include/type_traits"
  },
  {
   "linker_set_key" : "_ZNSt3__114numeric_limits10has_denormE",
   "name" : "std::__1::numeric_limits::has_denorm",
   "referenced_type" : "_ZTIKNSt3__118float_denorm_styleE",
   "source_file" : "external/libcxx/include/limits"
  },
  {
   "linker_set_key" : "_ZNSt3__114numeric_limits10is_boundedE",
   "name" : "std::__1::numeric_limits::is_bounded",
   "referenced_type" : "_ZTIKb",
   "source_file" : "external/libcxx/include/limits"
  },
  {
   "linker_set_key" : "_ZNSt3__114numeric_limits10is_integerE",
   "name" : "std::__1::numeric_limits::is_integer",
   "referenced_type" : "_ZTIKb",
   "source_file" : "external/libcxx/include/limits"
  },
  {
   "linker_set_key" : "_ZNSt3__114numeric_limits11round_styleE",
   "name" : "std::__1::numeric_limits::round_style",
   "referenced_type" : "_ZTIKNSt3__117float_round_styleE",
   "source_file" : "external/libcxx/include/limits"
  },
  {
   "linker_set_key" : "_ZNSt3__114numeric_limits12has_infinityE",
   "name" : "std::__1::numeric_limits::has_infinity",
   "referenced_type" : "_ZTIKb",
   "source_file" : "external/libcxx/include/limits"
  },
  {
   "linker_set_key" : "_ZNSt3__114numeric_limits12max_digits10E",
   "name" : "std::__1::numeric_limits::max_digits10",
   "referenced_type" : "_ZTIKi",
   "source_file" : "external/libcxx/include/limits"
  },
  {
   "linker_set_key" : "_ZNSt3__114numeric_limits12max_exponentE",
   "name" : "std::__1::numeric_limits::max_exponent",
   "referenced_type" : "_ZTIKi",
   "source_file" : "external/libcxx/include/limits"
  },
  {
   "linker_set_key" : "_ZNSt3__114numeric_limits12min_exponentE",
   "name" : "std::__1::numeric_limits::min_exponent",
   "referenced_type" : "_ZTIKi",
   "source_file" : "external/libcxx/include/limits"
  },
  {
   "linker_set_key" : "_ZNSt3__114numeric_limits13has_quiet_NaNE",
   "name" : "std::__1::numeric_limits::has_quiet_NaN",
   "referenced_type" : "_ZTIKb",
   "source_file" : "external/libcxx/include/limits"
  },
  {
   "linker_set_key" : "_ZNSt3__114numeric_limits14is_specializedE",
   "name" : "std::__1::numeric_limits::is_specialized",
   "referenced_type" : "_ZTIKb",
   "source_file" : "external/libcxx/include/limits"
  },
  {
   "linker_set_key" : "_ZNSt3__114numeric_limits14max_exponent10E",
   "name" : "std::__1::numeric_limits::max_exponent10",
   "referenced_type" : "_ZTIKi",
   "source_file" : "external/libcxx/include/limits"
  },
  {
   "linker_set_key" : "_ZNSt3__114numeric_limits14min_exponent10E",
   "name" : "std::__1::numeric_limits::min_exponent10",
   "referenced_type" : "_ZTIKi",
   "source_file" : "external/libcxx/include/limits"
  },
  {
   "linker_set_key" : "_ZNSt3__114numeric_limits15has_denorm_lossE",
   "name" : "std::__1::numeric_limits::has_denorm_loss",
   "referenced_type" : "_ZTIKb",
   "source_file" : "external/libcxx/include/limits"
  },
  {
   "linker_set_key" : "_ZNSt3__114numeric_limits15tinyness_beforeE",
   "name" : "std::__1::numeric_limits::tinyness_before",
   "referenced_type" : "_ZTIKb",
   "source_file" : "external/libcxx/include/limits"
  },
  {
   "linker_set_key" : "_ZNSt3__114numeric_limits17has_signaling_NaNE",
   "name" : "std::__1::numeric_limits::has_signaling_NaN",
   "referenced_type" : "_ZTIKb",
   "source_file" : "external/libcxx/include/limits"
  },
  {
   "linker_set_key" : "_ZNSt3__114numeric_limits5radixE",
   "name" : "std::__1::numeric_limits::radix",
   "referenced_type" : "_ZTIKi",
   "source_file" : "external/libcxx/include/limits"
  },
  {
   "linker_set_key" : "_ZNSt3__114numeric_limits5trapsE",
   "name" : "std::__1::numeric_limits::traps",
   "referenced_type" : "_ZTIKb",
   "source_file" : "external/libcxx/include/limits"
  },
  {
   "linker_set_key" : "_ZNSt3__114numeric_limits6digitsE",
   "name" : "std::__1::numeric_limits::digits",
   "referenced_type" : "_ZTIKi",
   "source_file" : "external/libcxx/include/limits"
  },
  {
   "linker_set_key" : "_ZNSt3__114numeric_limits8digits10E",
   "name" : "std::__1::numeric_limits::digits10",
   "referenced_type" : "_ZTIKi",
   "source_file" : "external/libcxx/include/limits"
  },
  {
   "linker_set_key" : "_ZNSt3__114numeric_limits8is_exactE",
   "name" : "std::__1::numeric_limits::is_exact",
   "referenced_type" : "_ZTIKb",
   "source_file" : "external/libcxx/include/limits"
  },
  {
   "linker_set_key" : "_ZNSt3__114numeric_limits9is_iec559E",
   "name" : "std::__1::numeric_limits::is_iec559",
   "referenced_type" : "_ZTIKb",
   "source_file" : "external/libcxx/include/limits"
  },
  {
   "linker_set_key" : "_ZNSt3__114numeric_limits9is_moduloE",
   "name" : "std::__1::numeric_limits::is_modulo",
   "referenced_type" : "_ZTIKb",
   "source_file" : "external/libcxx/include/limits"
  },
  {
   "linker_set_key" : "_ZNSt3__114numeric_limits9is_signedE",
   "name" : "std::__1::numeric_limits::is_signed",
   "referenced_type" : "_ZTIKb",
   "source_file" : "external/libcxx/include/limits"
  },
  {
   "linker_set_key" : "_ZNSt3__114numeric_limitsIKT_E10has_denormE",
   "name" : "std::__1::numeric_limits<const type-parameter-0-0>::has_denorm",
   "referenced_type" : "_ZTIKNSt3__118float_denorm_styleE",
   "source_file" : "external/libcxx/include/limits"
  },
  {
   "linker_set_key" : "_ZNSt3__114numeric_limitsIKT_E10is_boundedE",
   "name" : "std::__1::numeric_limits<const type-parameter-0-0>::is_bounded",
   "referenced_type" : "_ZTIKb",
   "source_file" : "external/libcxx/include/limits"
  },
  {
   "linker_set_key" : "_ZNSt3__114numeric_limitsIKT_E10is_integerE",
   "name" : "std::__1::numeric_limits<const type-parameter-0-0>::is_integer",
   "referenced_type" : "_ZTIKb",
   "source_file" : "external/libcxx/include/limits"
  },
  {
   "linker_set_key" : "_ZNSt3__114numeric_limitsIKT_E11round_styleE",
   "name" : "std::__1::numeric_limits<const type-parameter-0-0>::round_style",
   "referenced_type" : "_ZTIKNSt3__117float_round_styleE",
   "source_file" : "external/libcxx/include/limits"
  },
  {
   "linker_set_key" : "_ZNSt3__114numeric_limitsIKT_E12has_infinityE",
   "name" : "std::__1::numeric_limits<const type-parameter-0-0>::has_infinity",
   "referenced_type" : "_ZTIKb",
   "source_file" : "external/libcxx/include/limits"
  },
  {
   "linker_set_key" : "_ZNSt3__114numeric_limitsIKT_E12max_digits10E",
   "name" : "std::__1::numeric_limits<const type-parameter-0-0>::max_digits10",
   "referenced_type" : "_ZTIKi",
   "source_file" : "external/libcxx/include/limits"
  },
  {
   "linker_set_key" : "_ZNSt3__114numeric_limitsIKT_E12max_exponentE",
   "name" : "std::__1::numeric_limits<const type-parameter-0-0>::max_exponent",
   "referenced_type" : "_ZTIKi",
   "source_file" : "external/libcxx/include/limits"
  },
  {
   "linker_set_key" : "_ZNSt3__114numeric_limitsIKT_E12min_exponentE",
   "name" : "std::__1::numeric_limits<const type-parameter-0-0>::min_exponent",
   "referenced_type" : "_ZTIKi",
   "source_file" : "external/libcxx/include/limits"
  },
  {
   "linker_set_key" : "_ZNSt3__114numeric_limitsIKT_E13has_quiet_NaNE",
   "name" : "std::__1::numeric_limits<const type-parameter-0-0>::has_quiet_NaN",
   "referenced_type" : "_ZTIKb",
   "source_file" : "external/libcxx/include/limits"
  },
  {
   "linker_set_key" : "_ZNSt3__114numeric_limitsIKT_E14is_specializedE",
   "name" : "std::__1::numeric_limits<const type-parameter-0-0>::is_specialized",
   "referenced_type" : "_ZTIKb",
   "source_file" : "external/libcxx/include/limits"
  },
  {
   "linker_set_key" : "_ZNSt3__114numeric_limitsIKT_E14max_exponent10E",
   "name" : "std::__1::numeric_limits<const type-parameter-0-0>::max_exponent10",
   "referenced_type" : "_ZTIKi",
   "source_file" : "external/libcxx/include/limits"
  },
  {
   "linker_set_key" : "_ZNSt3__114numeric_limitsIKT_E14min_exponent10E",
   "name" : "std::__1::numeric_limits<const type-parameter-0-0>::min_exponent10",
   "referenced_type" : "_ZTIKi",
   "source_file" : "external/libcxx/include/limits"
  },
  {
   "linker_set_key" : "_ZNSt3__114numeric_limitsIKT_E15has_denorm_lossE",
   "name" : "std::__1::numeric_limits<const type-parameter-0-0>::has_denorm_loss",
   "referenced_type" : "_ZTIKb",
   "source_file" : "external/libcxx/include/limits"
  },
  {
   "linker_set_key" : "_ZNSt3__114numeric_limitsIKT_E15tinyness_beforeE",
   "name" : "std::__1::numeric_limits<const type-parameter-0-0>::tinyness_before",
   "referenced_type" : "_ZTIKb",
   "source_file" : "external/libcxx/include/limits"
  },
  {
   "linker_set_key" : "_ZNSt3__114numeric_limitsIKT_E17has_signaling_NaNE",
   "name" : "std::__1::numeric_limits<const type-parameter-0-0>::has_signaling_NaN",
   "referenced_type" : "_ZTIKb",
   "source_file" : "external/libcxx/include/limits"
  },
  {
   "linker_set_key" : "_ZNSt3__114numeric_limitsIKT_E5radixE",
   "name" : "std::__1::numeric_limits<const type-parameter-0-0>::radix",
   "referenced_type" : "_ZTIKi",
   "source_file" : "external/libcxx/include/limits"
  },
  {
   "linker_set_key" : "_ZNSt3__114numeric_limitsIKT_E5trapsE",
   "name" : "std::__1::numeric_limits<const type-parameter-0-0>::traps",
   "referenced_type" : "_ZTIKb",
   "source_file" : "external/libcxx/include/limits"
  },
  {
   "linker_set_key" : "_ZNSt3__114numeric_limitsIKT_E6digitsE",
   "name" : "std::__1::numeric_limits<const type-parameter-0-0>::digits",
   "referenced_type" : "_ZTIKi",
   "source_file" : "external/libcxx/include/limits"
  },
  {
   "linker_set_key" : "_ZNSt3__114numeric_limitsIKT_E8digits10E",
   "name" : "std::__1::numeric_limits<const type-parameter-0-0>::digits10",
   "referenced_type" : "_ZTIKi",
   "source_file" : "external/libcxx/include/limits"
  },
  {
   "linker_set_key" : "_ZNSt3__114numeric_limitsIKT_E8is_exactE",
   "name" : "std::__1::numeric_limits<const type-parameter-0-0>::is_exact",
   "referenced_type" : "_ZTIKb",
   "source_file" : "external/libcxx/include/limits"
  },
  {
   "linker_set_key" : "_ZNSt3__114numeric_limitsIKT_E9is_iec559E",
   "name" : "std::__1::numeric_limits<const type-parameter-0-0>::is_iec559",
   "referenced_type" : "_ZTIKb",
   "source_file" : "external/libcxx/include/limits"
  },
  {
   "linker_set_key" : "_ZNSt3__114numeric_limitsIKT_E9is_moduloE",
   "name" : "std::__1::numeric_limits<const type-parameter-0-0>::is_modulo",
   "referenced_type" : "_ZTIKb",
   "source_file" : "external/libcxx/include/limits"
  },
  {
   "linker_set_key" : "_ZNSt3__114numeric_limitsIKT_E9is_signedE",
   "name" : "std::__1::numeric_limits<const type-parameter-0-0>::is_signed",
   "referenced_type" : "_ZTIKb",
   "source_file" : "external/libcxx/include/limits"
  },
  {
   "linker_set_key" : "_ZNSt3__114numeric_limitsIVKT_E10has_denormE",
   "name" : "std::__1::numeric_limits<const volatile type-parameter-0-0>::has_denorm",
   "referenced_type" : "_ZTIKNSt3__118float_denorm_styleE",
   "source_file" : "external/libcxx/include/limits"
  },
  {
   "linker_set_key" : "_ZNSt3__114numeric_limitsIVKT_E10is_boundedE",
   "name" : "std::__1::numeric_limits<const volatile type-parameter-0-0>::is_bounded",
   "referenced_type" : "_ZTIKb",
   "source_file" : "external/libcxx/include/limits"
  },
  {
   "linker_set_key" : "_ZNSt3__114numeric_limitsIVKT_E10is_integerE",
   "name" : "std::__1::numeric_limits<const volatile type-parameter-0-0>::is_integer",
   "referenced_type" : "_ZTIKb",
   "source_file" : "external/libcxx/include/limits"
  },
  {
   "linker_set_key" : "_ZNSt3__114numeric_limitsIVKT_E11round_styleE",
   "name" : "std::__1::numeric_limits<const volatile type-parameter-0-0>::round_style",
   "referenced_type" : "_ZTIKNSt3__117float_round_styleE",
   "source_file" : "external/libcxx/include/limits"
  },
  {
   "linker_set_key" : "_ZNSt3__114numeric_limitsIVKT_E12has_infinityE",
   "name" : "std::__1::numeric_limits<const volatile type-parameter-0-0>::has_infinity",
   "referenced_type" : "_ZTIKb",
   "source_file" : "external/libcxx/include/limits"
  },
  {
   "linker_set_key" : "_ZNSt3__114numeric_limitsIVKT_E12max_digits10E",
   "name" : "std::__1::numeric_limits<const volatile type-parameter-0-0>::max_digits10",
   "referenced_type" : "_ZTIKi",
   "source_file" : "external/libcxx/include/limits"
  },
  {
   "linker_set_key" : "_ZNSt3__114numeric_limitsIVKT_E12max_exponentE",
   "name" : "std::__1::numeric_limits<const volatile type-parameter-0-0>::max_exponent",
   "referenced_type" : "_ZTIKi",
   "source_file" : "external/libcxx/include/limits"
  },
  {
   "linker_set_key" : "_ZNSt3__114numeric_limitsIVKT_E12min_exponentE",
   "name" : "std::__1::numeric_limits<const volatile type-parameter-0-0>::min_exponent",
   "referenced_type" : "_ZTIKi",
   "source_file" : "external/libcxx/include/limits"
  },
  {
   "linker_set_key" : "_ZNSt3__114numeric_limitsIVKT_E13has_quiet_NaNE",
   "name" : "std::__1::numeric_limits<const volatile type-parameter-0-0>::has_quiet_NaN",
   "referenced_type" : "_ZTIKb",
   "source_file" : "external/libcxx/include/limits"
  },
  {
   "linker_set_key" : "_ZNSt3__114numeric_limitsIVKT_E14is_specializedE",
   "name" : "std::__1::numeric_limits<const volatile type-parameter-0-0>::is_specialized",
   "referenced_type" : "_ZTIKb",
   "source_file" : "external/libcxx/include/limits"
  },
  {
   "linker_set_key" : "_ZNSt3__114numeric_limitsIVKT_E14max_exponent10E",
   "name" : "std::__1::numeric_limits<const volatile type-parameter-0-0>::max_exponent10",
   "referenced_type" : "_ZTIKi",
   "source_file" : "external/libcxx/include/limits"
  },
  {
   "linker_set_key" : "_ZNSt3__114numeric_limitsIVKT_E14min_exponent10E",
   "name" : "std::__1::numeric_limits<const volatile type-parameter-0-0>::min_exponent10",
   "referenced_type" : "_ZTIKi",
   "source_file" : "external/libcxx/include/limits"
  },
  {
   "linker_set_key" : "_ZNSt3__114numeric_limitsIVKT_E15has_denorm_lossE",
   "name" : "std::__1::numeric_limits<const volatile type-parameter-0-0>::has_denorm_loss",
   "referenced_type" : "_ZTIKb",
   "source_file" : "external/libcxx/include/limits"
  },
  {
   "linker_set_key" : "_ZNSt3__114numeric_limitsIVKT_E15tinyness_beforeE",
   "name" : "std::__1::numeric_limits<const volatile type-parameter-0-0>::tinyness_before",
   "referenced_type" : "_ZTIKb",
   "source_file" : "external/libcxx/include/limits"
  },
  {
   "linker_set_key" : "_ZNSt3__114numeric_limitsIVKT_E17has_signaling_NaNE",
   "name" : "std::__1::numeric_limits<const volatile type-parameter-0-0>::has_signaling_NaN",
   "referenced_type" : "_ZTIKb",
   "source_file" : "external/libcxx/include/limits"
  },
  {
   "linker_set_key" : "_ZNSt3__114numeric_limitsIVKT_E5radixE",
   "name" : "std::__1::numeric_limits<const volatile type-parameter-0-0>::radix",
   "referenced_type" : "_ZTIKi",
   "source_file" : "external/libcxx/include/limits"
  },
  {
   "linker_set_key" : "_ZNSt3__114numeric_limitsIVKT_E5trapsE",
   "name" : "std::__1::numeric_limits<const volatile type-parameter-0-0>::traps",
   "referenced_type" : "_ZTIKb",
   "source_file" : "external/libcxx/include/limits"
  },
  {
   "linker_set_key" : "_ZNSt3__114numeric_limitsIVKT_E6digitsE",
   "name" : "std::__1::numeric_limits<const volatile type-parameter-0-0>::digits",
   "referenced_type" : "_ZTIKi",
   "source_file" : "external/libcxx/include/limits"
  },
  {
   "linker_set_key" : "_ZNSt3__114numeric_limitsIVKT_E8digits10E",
   "name" : "std::__1::numeric_limits<const volatile type-parameter-0-0>::digits10",
   "referenced_type" : "_ZTIKi",
   "source_file" : "external/libcxx/include/limits"
  },
  {
   "linker_set_key" : "_ZNSt3__114numeric_limitsIVKT_E8is_exactE",
   "name" : "std::__1::numeric_limits<const volatile type-parameter-0-0>::is_exact",
   "referenced_type" : "_ZTIKb",
   "source_file" : "external/libcxx/include/limits"
  },
  {
   "linker_set_key" : "_ZNSt3__114numeric_limitsIVKT_E9is_iec559E",
   "name" : "std::__1::numeric_limits<const volatile type-parameter-0-0>::is_iec559",
   "referenced_type" : "_ZTIKb",
   "source_file" : "external/libcxx/include/limits"
  },
  {
   "linker_set_key" : "_ZNSt3__114numeric_limitsIVKT_E9is_moduloE",
   "name" : "std::__1::numeric_limits<const volatile type-parameter-0-0>::is_modulo",
   "referenced_type" : "_ZTIKb",
   "source_file" : "external/libcxx/include/limits"
  },
  {
   "linker_set_key" : "_ZNSt3__114numeric_limitsIVKT_E9is_signedE",
   "name" : "std::__1::numeric_limits<const volatile type-parameter-0-0>::is_signed",
   "referenced_type" : "_ZTIKb",
   "source_file" : "external/libcxx/include/limits"
  },
  {
   "linker_set_key" : "_ZNSt3__114numeric_limitsIVT_E10has_denormE",
   "name" : "std::__1::numeric_limits<volatile type-parameter-0-0>::has_denorm",
   "referenced_type" : "_ZTIKNSt3__118float_denorm_styleE",
   "source_file" : "external/libcxx/include/limits"
  },
  {
   "linker_set_key" : "_ZNSt3__114numeric_limitsIVT_E10is_boundedE",
   "name" : "std::__1::numeric_limits<volatile type-parameter-0-0>::is_bounded",
   "referenced_type" : "_ZTIKb",
   "source_file" : "external/libcxx/include/limits"
  },
  {
   "linker_set_key" : "_ZNSt3__114numeric_limitsIVT_E10is_integerE",
   "name" : "std::__1::numeric_limits<volatile type-parameter-0-0>::is_integer",
   "referenced_type" : "_ZTIKb",
   "source_file" : "external/libcxx/include/limits"
  },
  {
   "linker_set_key" : "_ZNSt3__114numeric_limitsIVT_E11round_styleE",
   "name" : "std::__1::numeric_limits<volatile type-parameter-0-0>::round_style",
   "referenced_type" : "_ZTIKNSt3__117float_round_styleE",
   "source_file" : "external/libcxx/include/limits"
  },
  {
   "linker_set_key" : "_ZNSt3__114numeric_limitsIVT_E12has_infinityE",
   "name" : "std::__1::numeric_limits<volatile type-parameter-0-0>::has_infinity",
   "referenced_type" : "_ZTIKb",
   "source_file" : "external/libcxx/include/limits"
  },
  {
   "linker_set_key" : "_ZNSt3__114numeric_limitsIVT_E12max_digits10E",
   "name" : "std::__1::numeric_limits<volatile type-parameter-0-0>::max_digits10",
   "referenced_type" : "_ZTIKi",
   "source_file" : "external/libcxx/include/limits"
  },
  {
   "linker_set_key" : "_ZNSt3__114numeric_limitsIVT_E12max_exponentE",
   "name" : "std::__1::numeric_limits<volatile type-parameter-0-0>::max_exponent",
   "referenced_type" : "_ZTIKi",
   "source_file" : "external/libcxx/include/limits"
  },
  {
   "linker_set_key" : "_ZNSt3__114numeric_limitsIVT_E12min_exponentE",
   "name" : "std::__1::numeric_limits<volatile type-parameter-0-0>::min_exponent",
   "referenced_type" : "_ZTIKi",
   "source_file" : "external/libcxx/include/limits"
  },
  {
   "linker_set_key" : "_ZNSt3__114numeric_limitsIVT_E13has_quiet_NaNE",
   "name" : "std::__1::numeric_limits<volatile type-parameter-0-0>::has_quiet_NaN",
   "referenced_type" : "_ZTIKb",
   "source_file" : "external/libcxx/include/limits"
  },
  {
   "linker_set_key" : "_ZNSt3__114numeric_limitsIVT_E14is_specializedE",
   "name" : "std::__1::numeric_limits<volatile type-parameter-0-0>::is_specialized",
   "referenced_type" : "_ZTIKb",
   "source_file" : "external/libcxx/include/limits"
  },
  {
   "linker_set_key" : "_ZNSt3__114numeric_limitsIVT_E14max_exponent10E",
   "name" : "std::__1::numeric_limits<volatile type-parameter-0-0>::max_exponent10",
   "referenced_type" : "_ZTIKi",
   "source_file" : "external/libcxx/include/limits"
  },
  {
   "linker_set_key" : "_ZNSt3__114numeric_limitsIVT_E14min_exponent10E",
   "name" : "std::__1::numeric_limits<volatile type-parameter-0-0>::min_exponent10",
   "referenced_type" : "_ZTIKi",
   "source_file" : "external/libcxx/include/limits"
  },
  {
   "linker_set_key" : "_ZNSt3__114numeric_limitsIVT_E15has_denorm_lossE",
   "name" : "std::__1::numeric_limits<volatile type-parameter-0-0>::has_denorm_loss",
   "referenced_type" : "_ZTIKb",
   "source_file" : "external/libcxx/include/limits"
  },
  {
   "linker_set_key" : "_ZNSt3__114numeric_limitsIVT_E15tinyness_beforeE",
   "name" : "std::__1::numeric_limits<volatile type-parameter-0-0>::tinyness_before",
   "referenced_type" : "_ZTIKb",
   "source_file" : "external/libcxx/include/limits"
  },
  {
   "linker_set_key" : "_ZNSt3__114numeric_limitsIVT_E17has_signaling_NaNE",
   "name" : "std::__1::numeric_limits<volatile type-parameter-0-0>::has_signaling_NaN",
   "referenced_type" : "_ZTIKb",
   "source_file" : "external/libcxx/include/limits"
  },
  {
   "linker_set_key" : "_ZNSt3__114numeric_limitsIVT_E5radixE",
   "name" : "std::__1::numeric_limits<volatile type-parameter-0-0>::radix",
   "referenced_type" : "_ZTIKi",
   "source_file" : "external/libcxx/include/limits"
  },
  {
   "linker_set_key" : "_ZNSt3__114numeric_limitsIVT_E5trapsE",
   "name" : "std::__1::numeric_limits<volatile type-parameter-0-0>::traps",
   "referenced_type" : "_ZTIKb",
   "source_file" : "external/libcxx/include/limits"
  },
  {
   "linker_set_key" : "_ZNSt3__114numeric_limitsIVT_E6digitsE",
   "name" : "std::__1::numeric_limits<volatile type-parameter-0-0>::digits",
   "referenced_type" : "_ZTIKi",
   "source_file" : "external/libcxx/include/limits"
  },
  {
   "linker_set_key" : "_ZNSt3__114numeric_limitsIVT_E8digits10E",
   "name" : "std::__1::numeric_limits<volatile type-parameter-0-0>::digits10",
   "referenced_type" : "_ZTIKi",
   "source_file" : "external/libcxx/include/limits"
  },
  {
   "linker_set_key" : "_ZNSt3__114numeric_limitsIVT_E8is_exactE",
   "name" : "std::__1::numeric_limits<volatile type-parameter-0-0>::is_exact",
   "referenced_type" : "_ZTIKb",
   "source_file" : "external/libcxx/include/limits"
  },
  {
   "linker_set_key" : "_ZNSt3__114numeric_limitsIVT_E9is_iec559E",
   "name" : "std::__1::numeric_limits<volatile type-parameter-0-0>::is_iec559",
   "referenced_type" : "_ZTIKb",
   "source_file" : "external/libcxx/include/limits"
  },
  {
   "linker_set_key" : "_ZNSt3__114numeric_limitsIVT_E9is_moduloE",
   "name" : "std::__1::numeric_limits<volatile type-parameter-0-0>::is_modulo",
   "referenced_type" : "_ZTIKb",
   "source_file" : "external/libcxx/include/limits"
  },
  {
   "linker_set_key" : "_ZNSt3__114numeric_limitsIVT_E9is_signedE",
   "name" : "std::__1::numeric_limits<volatile type-parameter-0-0>::is_signed",
   "referenced_type" : "_ZTIKb",
   "source_file" : "external/libcxx/include/limits"
  },
  {
   "linker_set_key" : "_ZNSt3__115is_arithmetic_vE",
   "name" : "std::__1::is_arithmetic_v",
   "referenced_type" : "_ZTIKb",
   "source_file" : "external/libcxx/include/type_traits"
  },
  {
   "linker_set_key" : "_ZNSt3__115is_assignable_vE",
   "name" : "std::__1::is_assignable_v",
   "referenced_type" : "_ZTIKb",
   "source_file" : "external/libcxx/include/type_traits"
  },
  {
   "linker_set_key" : "_ZNSt3__116is_convertible_vE",
   "name" : "std::__1::is_convertible_v",
   "referenced_type" : "_ZTIKb",
   "source_file" : "external/libcxx/include/type_traits"
  },
  {
   "linker_set_key" : "_ZNSt3__116is_fundamental_vE",
   "name" : "std::__1::is_fundamental_v",
   "referenced_type" : "_ZTIKb",
   "source_file" : "external/libcxx/include/type_traits"
  },
  {
   "linker_set_key" : "_ZNSt3__116is_invocable_r_vE",
   "name" : "std::__1::is_invocable_r_v",
   "referenced_type" : "_ZTIKb",
   "source_file" : "external/libcxx/include/type_traits"
  },
  {
   "linker_set_key" : "_ZNSt3__116is_polymorphic_vE",
   "name" : "std::__1::is_polymorphic_v",
   "referenced_type" : "_ZTIKb",
   "source_file" : "external/libcxx/include/type_traits"
  },
  {
   "linker_set_key" : "_ZNSt3__116uses_allocator_vE",
   "name" : "std::__1::uses_allocator_v",
   "referenced_type" : "_ZTIKj",
   "source_file" : "external/libcxx/include/__functional_base"
  },
  {
   "linker_set_key" : "_ZNSt3__117__has_result_type5valueE",
   "name" : "std::__1::__has_result_type::value",
   "referenced_type" : "_ZTIKb",
   "source_file" : "external/libcxx/include/__functional_base"
  },
  {
   "linker_set_key" : "_ZNSt3__117integral_constantIbLb0EE5valueE",
   "name" : "std::__1::integral_constant<bool, false>::value",
   "referenced_type" : "_ZTIKb",
   "source_file" : "external/libcxx/include/type_traits"
  },
  {
   "linker_set_key" : "_ZNSt3__117integral_constantIbLb1EE5valueE",
   "name" : "std::__1::integral_constant<bool, true>::value",
   "referenced_type" : "_ZTIKb",
   "source_file" : "external/libcxx/include/type_traits"
  },
  {
   "linker_set_key" : "_ZNSt3__117integral_constantIiLi0EE5valueE",
   "name" : "std::__1::integral_constant<int, 0>::value",
   "referenced_type" : "_ZTIKi",
   "source_file" : "external/libcxx/include/type_traits"
  },
  {
   "linker_set_key" : "_ZNSt3__117integral_constantIiLi1EE5valueE",
   "name" : "std::__1::integral_constant<int, 1>::value",
   "referenced_type" : "_ZTIKi",
   "source_file" : "external/libcxx/include/type_traits"
  },
  {
   "linker_set_key" : "_ZNSt3__117integral_constantIiLi2EE5valueE",
   "name" : "std::__1::integral_constant<int, 2>::value",
   "referenced_type" : "_ZTIKi",
   "source_file" : "external/libcxx/include/type_traits"
  },
  {
   "linker_set_key" : "_ZNSt3__117integral_constantIjLj0EE5valueE",
   "name" : "std::__1::integral_constant<unsigned int, 0>::value",
   "referenced_type" : "_ZTIKj",
   "source_file" : "external/libcxx/include/type_traits"
  },
  {
   "linker_set_key" : "_ZNSt3__117integral_constantIjLj2EE5valueE",
   "name" : "std::__1::integral_constant<unsigned int, 2>::value",
   "referenced_type" : "_ZTIKj",
   "source_file" : "external/libcxx/include/type_traits"
  },
  {
   "linker_set_key" : "_ZNSt3__117is_destructible_vE",
   "name" : "std::__1::is_destructible_v",
   "referenced_type" : "_ZTIKb",
   "source_file" : "external/libcxx/include/type_traits"
  },
  {
   "linker_set_key" : "_ZNSt3__117is_literal_type_vE",
   "name" : "std::__1::is_literal_type_v",
   "referenced_type" : "_ZTIKb",
   "source_file" : "external/libcxx/include/type_traits"
  },
  {
   "linker_set_key" : "_ZNSt3__117is_null_pointer_vE",
   "name" : "std::__1::is_null_pointer_v",
   "referenced_type" : "_ZTIKb",
   "source_file" : "external/libcxx/include/type_traits"
  },
  {
   "linker_set_key" : "_ZNSt3__118__has_rebind_other5valueE",
   "name" : "std::__1::__has_rebind_other::value",
   "referenced_type" : "_ZTIKb",
   "source_file" : "external/libcxx/include/memory"
  },
  {
   "linker_set_key" : "_ZNSt3__118__has_rebind_otherIT_T0_Lb0EE5valueE",
   "name" : "std::__1::__has_rebind_other<type-parameter-0-0, type-parameter-0-1, false>::value",
   "referenced_type" : "_ZTIKb",
   "source_file" : "external/libcxx/include/memory"
  },
  {
   "linker_set_key" : "_ZNSt3__118is_constructible_vE",
   "name" : "std::__1::is_constructible_v",
   "referenced_type" : "_ZTIKb",
   "source_file" : "external/libcxx/include/type_traits"
  },
  {
   "linker_set_key" : "_ZNSt3__119is_floating_point_vE",
   "name" : "std::__1::is_floating_point_v",
   "referenced_type" : "_ZTIKb",
   "source_file" : "external/libcxx/include/type_traits"
  },
  {
   "linker_set_key" : "_ZNSt3__119is_member_pointer_vE",
   "name" : "std::__1::is_member_pointer_v",
   "referenced_type" : "_ZTIKb",
   "source_file" : "external/libcxx/include/type_traits"
  },
  {
   "linker_set_key" : "_ZNSt3__119is_swappable_with_vE",
   "name" : "std::__1::is_swappable_with_v",
   "referenced_type" : "_ZTIKb",
   "source_file" : "external/libcxx/include/type_traits"
  },
  {
   "linker_set_key" : "_ZNSt3__120__has_allocator_type5valueE",
   "name" : "std::__1::__has_allocator_type::value",
   "referenced_type" : "_ZTIKb",
   "source_file" : "external/libcxx/include/__functional_base"
  },
  {
   "linker_set_key" : "_ZNSt3__120is_copy_assignable_vE",
   "name" : "std::__1::is_copy_assignable_v",
   "referenced_type" : "_ZTIKb",
   "source_file" : "external/libcxx/include/type_traits"
  },
  {
   "linker_set_key" : "_ZNSt3__120is_move_assignable_vE",
   "name" : "std::__1::is_move_assignable_v",
   "referenced_type" : "_ZTIKb",
   "source_file" : "external/libcxx/include/type_traits"
  },
  {
   "linker_set_key" : "_ZNSt3__120is_standard_layout_vE",
   "name" : "std::__1::is_standard_layout_v",
   "referenced_type" : "_ZTIKb",
   "source_file" : "external/libcxx/include/type_traits"
  },
  {
   "linker_set_key" : "_ZNSt3__121__uses_alloc_ctor_imp4__icE",
   "name" : "std::__1::__uses_alloc_ctor_imp::__ic",
   "referenced_type" : "_ZTIKb",
   "source_file" : "external/libcxx/include/__functional_base"
  },
  {
   "linker_set_key" : "_ZNSt3__121__uses_alloc_ctor_imp4__uaE",
   "name" : "std::__1::__uses_alloc_ctor_imp::__ua",
   "referenced_type" : "_ZTIKb",
   "source_file" : "external/libcxx/include/__functional_base"
  },
  {
   "linker_set_key" : "_ZNSt3__121__uses_alloc_ctor_imp5valueE",
   "name" : "std::__1::__uses_alloc_ctor_imp::value",
   "referenced_type" : "_ZTIKi",
   "source_file" : "external/libcxx/include/__functional_base"
  },
  {
   "linker_set_key" : "_ZNSt3__121is_lvalue_reference_vE",
   "name" : "std::__1::is_lvalue_reference_v",
   "referenced_type" : "_ZTIKb",
   "source_file" : "external/libcxx/include/type_traits"
  },
  {
   "linker_set_key" : "_ZNSt3__121is_rvalue_reference_vE",
   "name" : "std::__1::is_rvalue_reference_v",
   "referenced_type" : "_ZTIKb",
   "source_file" : "external/libcxx/include/type_traits"
  },
  {
   "linker_set_key" : "_ZNSt3__122is_nothrow_invocable_vE",
   "name" : "std::__1::is_nothrow_invocable_v",
   "referenced_type" : "_ZTIKb",
   "source_file" : "external/libcxx/include/type_traits"
  },
  {
   "linker_set_key" : "_ZNSt3__122is_nothrow_swappable_vE",
   "name" : "std::__1::is_nothrow_swappable_v",
   "referenced_type" : "_ZTIKb",
   "source_file" : "external/libcxx/include/type_traits"
  },
  {
   "linker_set_key" : "_ZNSt3__123__has_iterator_category5valueE",
   "name" : "std::__1::__has_iterator_category::value",
   "referenced_type" : "_ZTIKb",
   "source_file" : "external/libcxx/include/iterator"
  },
  {
   "linker_set_key" : "_ZNSt3__123__has_iterator_typedefs5valueE",
   "name" : "std::__1::__has_iterator_typedefs::value",
   "referenced_type" : "_ZTIKb",
   "source_file" : "external/libcxx/include/iterator"
  },
  {
   "linker_set_key" : "_ZNSt3__123__libcpp_debug_functionE",
   "name" : "std::__1::__libcpp_debug_function",
   "referenced_type" : "_ZTIPFvRKNSt3__119__libcpp_debug_infoEE",
   "source_file" : "external/libcxx/include/__debug"
  },
  {
   "access" : "protected",
   "linker_set_key" : "_ZNSt3__123__libcpp_numeric_limits10has_denormE",
   "name" : "std::__1::__libcpp_numeric_limits::has_denorm",
   "referenced_type" : "_ZTIKNSt3__118float_denorm_styleE",
   "source_file" : "external/libcxx/include/limits"
  },
  {
   "access" : "protected",
   "linker_set_key" : "_ZNSt3__123__libcpp_numeric_limits10is_boundedE",
   "name" : "std::__1::__libcpp_numeric_limits::is_bounded",
   "referenced_type" : "_ZTIKb",
   "source_file" : "external/libcxx/include/limits"
  },
  {
   "access" : "protected",
   "linker_set_key" : "_ZNSt3__123__libcpp_numeric_limits10is_integerE",
   "name" : "std::__1::__libcpp_numeric_limits::is_integer",
   "referenced_type" : "_ZTIKb",
   "source_file" : "external/libcxx/include/limits"
  },
  {
   "access" : "protected",
   "linker_set_key" : "_ZNSt3__123__libcpp_numeric_limits11round_styleE",
   "name" : "std::__1::__libcpp_numeric_limits::round_style",
   "referenced_type" : "_ZTIKNSt3__117float_round_styleE",
   "source_file" : "external/libcxx/include/limits"
  },
  {
   "access" : "protected",
   "linker_set_key" : "_ZNSt3__123__libcpp_numeric_limits12has_infinityE",
   "name" : "std::__1::__libcpp_numeric_limits::has_infinity",
   "referenced_type" : "_ZTIKb",
   "source_file" : "external/libcxx/include/limits"
  },
  {
   "access" : "protected",
   "linker_set_key" : "_ZNSt3__123__libcpp_numeric_limits12max_digits10E",
   "name" : "std::__1::__libcpp_numeric_limits::max_digits10",
   "referenced_type" : "_ZTIKi",
   "source_file" : "external/libcxx/include/limits"
  },
  {
   "access" : "protected",
   "linker_set_key" : "_ZNSt3__123__libcpp_numeric_limits12max_exponentE",
   "name" : "std::__1::__libcpp_numeric_limits::max_exponent",
   "referenced_type" : "_ZTIKi",
   "source_file" : "external/libcxx/include/limits"
  },
  {
   "access" : "protected",
   "linker_set_key" : "_ZNSt3__123__libcpp_numeric_limits12min_exponentE",
   "name" : "std::__1::__libcpp_numeric_limits::min_exponent",
   "referenced_type" : "_ZTIKi",
   "source_file" : "external/libcxx/include/limits"
  },
  {
   "access" : "protected",
   "linker_set_key" : "_ZNSt3__123__libcpp_numeric_limits13has_quiet_NaNE",
   "name" : "std::__1::__libcpp_numeric_limits::has_quiet_NaN",
   "referenced_type" : "_ZTIKb",
   "source_file" : "external/libcxx/include/limits"
  },
  {
   "access" : "protected",
   "linker_set_key" : "_ZNSt3__123__libcpp_numeric_limits14is_specializedE",
   "name" : "std::__1::__libcpp_numeric_limits::is_specialized",
   "referenced_type" : "_ZTIKb",
   "source_file" : "external/libcxx/include/limits"
  },
  {
   "access" : "protected",
   "linker_set_key" : "_ZNSt3__123__libcpp_numeric_limits14max_exponent10E",
   "name" : "std::__1::__libcpp_numeric_limits::max_exponent10",
   "referenced_type" : "_ZTIKi",
   "source_file" : "external/libcxx/include/limits"
  },
  {
   "access" : "protected",
   "linker_set_key" : "_ZNSt3__123__libcpp_numeric_limits14min_exponent10E",
   "name" : "std::__1::__libcpp_numeric_limits::min_exponent10",
   "referenced_type" : "_ZTIKi",
   "source_file" : "external/libcxx/include/limits"
  },
  {
   "access" : "protected",
   "linker_set_key" : "_ZNSt3__123__libcpp_numeric_limits15has_denorm_lossE",
   "name" : "std::__1::__libcpp_numeric_limits::has_denorm_loss",
   "referenced_type" : "_ZTIKb",
   "source_file" : "external/libcxx/include/limits"
  },
  {
   "access" : "protected",
   "linker_set_key" : "_ZNSt3__123__libcpp_numeric_limits15tinyness_beforeE",
   "name" : "std::__1::__libcpp_numeric_limits::tinyness_before",
   "referenced_type" : "_ZTIKb",
   "source_file" : "external/libcxx/include/limits"
  },
  {
   "access" : "protected",
   "linker_set_key" : "_ZNSt3__123__libcpp_numeric_limits17has_signaling_NaNE",
   "name" : "std::__1::__libcpp_numeric_limits::has_signaling_NaN",
   "referenced_type" : "_ZTIKb",
   "source_file" : "external/libcxx/include/limits"
  },
  {
   "access" : "protected",
   "linker_set_key" : "_ZNSt3__123__libcpp_numeric_limits5radixE",
   "name" : "std::__1::__libcpp_numeric_limits::radix",
   "referenced_type" : "_ZTIKi",
   "source_file" : "external/libcxx/include/limits"
  },
  {
   "access" : "protected",
   "linker_set_key" : "_ZNSt3__123__libcpp_numeric_limits5trapsE",
   "name" : "std::__1::__libcpp_numeric_limits::traps",
   "referenced_type" : "_ZTIKb",
   "source_file" : "external/libcxx/include/limits"
  },
  {
   "access" : "protected",
   "linker_set_key" : "_ZNSt3__123__libcpp_numeric_limits6digitsE",
   "name" : "std::__1::__libcpp_numeric_limits::digits",
   "referenced_type" : "_ZTIKi",
   "source_file" : "external/libcxx/include/limits"
  },
  {
   "access" : "protected",
   "linker_set_key" : "_ZNSt3__123__libcpp_numeric_limits8digits10E",
   "name" : "std::__1::__libcpp_numeric_limits::digits10",
   "referenced_type" : "_ZTIKi",
   "source_file" : "external/libcxx/include/limits"
  },
  {
   "access" : "protected",
   "linker_set_key" : "_ZNSt3__123__libcpp_numeric_limits8is_exactE",
   "name" : "std::__1::__libcpp_numeric_limits::is_exact",
   "referenced_type" : "_ZTIKb",
   "source_file" : "external/libcxx/include/limits"
  },
  {
   "access" : "protected",
   "linker_set_key" : "_ZNSt3__123__libcpp_numeric_limits9is_iec559E",
   "name" : "std::__1::__libcpp_numeric_limits::is_iec559",
   "referenced_type" : "_ZTIKb",
   "source_file" : "external/libcxx/include/limits"
  },
  {
   "access" : "protected",
   "linker_set_key" : "_ZNSt3__123__libcpp_numeric_limits9is_moduloE",
   "name" : "std::__1::__libcpp_numeric_limits::is_modulo",
   "referenced_type" : "_ZTIKb",
   "source_file" : "external/libcxx/include/limits"
  },
  {
   "access" : "protected",
   "linker_set_key" : "_ZNSt3__123__libcpp_numeric_limits9is_signedE",
   "name" : "std::__1::__libcpp_numeric_limits::is_signed",
   "referenced_type" : "_ZTIKb",
   "source_file" : "external/libcxx/include/limits"
  },
  {
   "access" : "protected",
   "linker_set_key" : "_ZNSt3__123__libcpp_numeric_limitsIT_Lb1EE10has_denormE",
   "name" : "std::__1::__libcpp_numeric_limits<type-parameter-0-0, true>::has_denorm",
   "referenced_type" : "_ZTIKNSt3__118float_denorm_styleE",
   "source_file" : "external/libcxx/include/limits"
  },
  {
   "access" : "protected",
   "linker_set_key" : "_ZNSt3__123__libcpp_numeric_limitsIT_Lb1EE10is_boundedE",
   "name" : "std::__1::__libcpp_numeric_limits<type-parameter-0-0, true>::is_bounded",
   "referenced_type" : "_ZTIKb",
   "source_file" : "external/libcxx/include/limits"
  },
  {
   "access" : "protected",
   "linker_set_key" : "_ZNSt3__123__libcpp_numeric_limitsIT_Lb1EE10is_integerE",
   "name" : "std::__1::__libcpp_numeric_limits<type-parameter-0-0, true>::is_integer",
   "referenced_type" : "_ZTIKb",
   "source_file" : "external/libcxx/include/limits"
  },
  {
   "access" : "protected",
   "linker_set_key" : "_ZNSt3__123__libcpp_numeric_limitsIT_Lb1EE11round_styleE",
   "name" : "std::__1::__libcpp_numeric_limits<type-parameter-0-0, true>::round_style",
   "referenced_type" : "_ZTIKNSt3__117float_round_styleE",
   "source_file" : "external/libcxx/include/limits"
  },
  {
   "access" : "protected",
   "linker_set_key" : "_ZNSt3__123__libcpp_numeric_limitsIT_Lb1EE12has_infinityE",
   "name" : "std::__1::__libcpp_numeric_limits<type-parameter-0-0, true>::has_infinity",
   "referenced_type" : "_ZTIKb",
   "source_file" : "external/libcxx/include/limits"
  },
  {
   "access" : "protected",
   "linker_set_key" : "_ZNSt3__123__libcpp_numeric_limitsIT_Lb1EE12max_digits10E",
   "name" : "std::__1::__libcpp_numeric_limits<type-parameter-0-0, true>::max_digits10",
   "referenced_type" : "_ZTIKi",
   "source_file" : "external/libcxx/include/limits"
  },
  {
   "access" : "protected",
   "linker_set_key" : "_ZNSt3__123__libcpp_numeric_limitsIT_Lb1EE12max_exponentE",
   "name" : "std::__1::__libcpp_numeric_limits<type-parameter-0-0, true>::max_exponent",
   "referenced_type" : "_ZTIKi",
   "source_file" : "external/libcxx/include/limits"
  },
  {
   "access" : "protected",
   "linker_set_key" : "_ZNSt3__123__libcpp_numeric_limitsIT_Lb1EE12min_exponentE",
   "name" : "std::__1::__libcpp_numeric_limits<type-parameter-0-0, true>::min_exponent",
   "referenced_type" : "_ZTIKi",
   "source_file" : "external/libcxx/include/limits"
  },
  {
   "access" : "protected",
   "linker_set_key" : "_ZNSt3__123__libcpp_numeric_limitsIT_Lb1EE13has_quiet_NaNE",
   "name" : "std::__1::__libcpp_numeric_limits<type-parameter-0-0, true>::has_quiet_NaN",
   "referenced_type" : "_ZTIKb",
   "source_file" : "external/libcxx/include/limits"
  },
  {
   "access" : "protected",
   "linker_set_key" : "_ZNSt3__123__libcpp_numeric_limitsIT_Lb1EE14is_specializedE",
   "name" : "std::__1::__libcpp_numeric_limits<type-parameter-0-0, true>::is_specialized",
   "referenced_type" : "_ZTIKb",
   "source_file" : "external/libcxx/include/limits"
  },
  {
   "access" : "protected",
   "linker_set_key" : "_ZNSt3__123__libcpp_numeric_limitsIT_Lb1EE14max_exponent10E",
   "name" : "std::__1::__libcpp_numeric_limits<type-parameter-0-0, true>::max_exponent10",
   "referenced_type" : "_ZTIKi",
   "source_file" : "external/libcxx/include/limits"
  },
  {
   "access" : "protected",
   "linker_set_key" : "_ZNSt3__123__libcpp_numeric_limitsIT_Lb1EE14min_exponent10E",
   "name" : "std::__1::__libcpp_numeric_limits<type-parameter-0-0, true>::min_exponent10",
   "referenced_type" : "_ZTIKi",
   "source_file" : "external/libcxx/include/limits"
  },
  {
   "access" : "protected",
   "linker_set_key" : "_ZNSt3__123__libcpp_numeric_limitsIT_Lb1EE15has_denorm_lossE",
   "name" : "std::__1::__libcpp_numeric_limits<type-parameter-0-0, true>::has_denorm_loss",
   "referenced_type" : "_ZTIKb",
   "source_file" : "external/libcxx/include/limits"
  },
  {
   "access" : "protected",
   "linker_set_key" : "_ZNSt3__123__libcpp_numeric_limitsIT_Lb1EE15tinyness_beforeE",
   "name" : "std::__1::__libcpp_numeric_limits<type-parameter-0-0, true>::tinyness_before",
   "referenced_type" : "_ZTIKb",
   "source_file" : "external/libcxx/include/limits"
  },
  {
   "access" : "protected",
   "linker_set_key" : "_ZNSt3__123__libcpp_numeric_limitsIT_Lb1EE17has_signaling_NaNE",
   "name" : "std::__1::__libcpp_numeric_limits<type-parameter-0-0, true>::has_signaling_NaN",
   "referenced_type" : "_ZTIKb",
   "source_file" : "external/libcxx/include/limits"
  },
  {
   "access" : "protected",
   "linker_set_key" : "_ZNSt3__123__libcpp_numeric_limitsIT_Lb1EE5radixE",
   "name" : "std::__1::__libcpp_numeric_limits<type-parameter-0-0, true>::radix",
   "referenced_type" : "_ZTIKi",
   "source_file" : "external/libcxx/include/limits"
  },
  {
   "access" : "protected",
   "linker_set_key" : "_ZNSt3__123__libcpp_numeric_limitsIT_Lb1EE5trapsE",
   "name" : "std::__1::__libcpp_numeric_limits<type-parameter-0-0, true>::traps",
   "referenced_type" : "_ZTIKb",
   "source_file" : "external/libcxx/include/limits"
  },
  {
   "access" : "protected",
   "linker_set_key" : "_ZNSt3__123__libcpp_numeric_limitsIT_Lb1EE6digitsE",
   "name" : "std::__1::__libcpp_numeric_limits<type-parameter-0-0, true>::digits",
   "referenced_type" : "_ZTIKi",
   "source_file" : "external/libcxx/include/limits"
  },
  {
   "access" : "protected",
   "linker_set_key" : "_ZNSt3__123__libcpp_numeric_limitsIT_Lb1EE8digits10E",
   "name" : "std::__1::__libcpp_numeric_limits<type-parameter-0-0, true>::digits10",
   "referenced_type" : "_ZTIKi",
   "source_file" : "external/libcxx/include/limits"
  },
  {
   "access" : "protected",
   "linker_set_key" : "_ZNSt3__123__libcpp_numeric_limitsIT_Lb1EE8is_exactE",
   "name" : "std::__1::__libcpp_numeric_limits<type-parameter-0-0, true>::is_exact",
   "referenced_type" : "_ZTIKb",
   "source_file" : "external/libcxx/include/limits"
  },
  {
   "access" : "protected",
   "linker_set_key" : "_ZNSt3__123__libcpp_numeric_limitsIT_Lb1EE9is_iec559E",
   "name" : "std::__1::__libcpp_numeric_limits<type-parameter-0-0, true>::is_iec559",
   "referenced_type" : "_ZTIKb",
   "source_file" : "external/libcxx/include/limits"
  },
  {
   "access" : "protected",
   "linker_set_key" : "_ZNSt3__123__libcpp_numeric_limitsIT_Lb1EE9is_moduloE",
   "name" : "std::__1::__libcpp_numeric_limits<type-parameter-0-0, true>::is_modulo",
   "referenced_type" : "_ZTIKb",
   "source_file" : "external/libcxx/include/limits"
  },
  {
   "access" : "protected",
   "linker_set_key" : "_ZNSt3__123__libcpp_numeric_limitsIT_Lb1EE9is_signedE",
   "name" : "std::__1::__libcpp_numeric_limits<type-parameter-0-0, true>::is_signed",
   "referenced_type" : "_ZTIKb",
   "source_file" : "external/libcxx/include/limits"
  },
  {
   "access" : "protected",
   "linker_set_key" : "_ZNSt3__123__libcpp_numeric_limitsIbLb1EE10has_denormE",
   "name" : "std::__1::__libcpp_numeric_limits<bool, true>::has_denorm",
   "referenced_type" : "_ZTIKNSt3__118float_denorm_styleE",
   "source_file" : "external/libcxx/include/limits"
  },
  {
   "access" : "protected",
   "linker_set_key" : "_ZNSt3__123__libcpp_numeric_limitsIbLb1EE10is_boundedE",
   "name" : "std::__1::__libcpp_numeric_limits<bool, true>::is_bounded",
   "referenced_type" : "_ZTIKb",
   "source_file" : "external/libcxx/include/limits"
  },
  {
   "access" : "protected",
   "linker_set_key" : "_ZNSt3__123__libcpp_numeric_limitsIbLb1EE10is_integerE",
   "name" : "std::__1::__libcpp_numeric_limits<bool, true>::is_integer",
   "referenced_type" : "_ZTIKb",
   "source_file" : "external/libcxx/include/limits"
  },
  {
   "access" : "protected",
   "linker_set_key" : "_ZNSt3__123__libcpp_numeric_limitsIbLb1EE11round_styleE",
   "name" : "std::__1::__libcpp_numeric_limits<bool, true>::round_style",
   "referenced_type" : "_ZTIKNSt3__117float_round_styleE",
   "source_file" : "external/libcxx/include/limits"
  },
  {
   "access" : "protected",
   "linker_set_key" : "_ZNSt3__123__libcpp_numeric_limitsIbLb1EE12has_infinityE",
   "name" : "std::__1::__libcpp_numeric_limits<bool, true>::has_infinity",
   "referenced_type" : "_ZTIKb",
   "source_file" : "external/libcxx/include/limits"
  },
  {
   "access" : "protected",
   "linker_set_key" : "_ZNSt3__123__libcpp_numeric_limitsIbLb1EE12max_digits10E",
   "name" : "std::__1::__libcpp_numeric_limits<bool, true>::max_digits10",
   "referenced_type" : "_ZTIKi",
   "source_file" : "external/libcxx/include/limits"
  },
  {
   "access" : "protected",
   "linker_set_key" : "_ZNSt3__123__libcpp_numeric_limitsIbLb1EE12max_exponentE",
   "name" : "std::__1::__libcpp_numeric_limits<bool, true>::max_exponent",
   "referenced_type" : "_ZTIKi",
   "source_file" : "external/libcxx/include/limits"
  },
  {
   "access" : "protected",
   "linker_set_key" : "_ZNSt3__123__libcpp_numeric_limitsIbLb1EE12min_exponentE",
   "name" : "std::__1::__libcpp_numeric_limits<bool, true>::min_exponent",
   "referenced_type" : "_ZTIKi",
   "source_file" : "external/libcxx/include/limits"
  },
  {
   "access" : "protected",
   "linker_set_key" : "_ZNSt3__123__libcpp_numeric_limitsIbLb1EE13has_quiet_NaNE",
   "name" : "std::__1::__libcpp_numeric_limits<bool, true>::has_quiet_NaN",
   "referenced_type" : "_ZTIKb",
   "source_file" : "external/libcxx/include/limits"
  },
  {
   "access" : "protected",
   "linker_set_key" : "_ZNSt3__123__libcpp_numeric_limitsIbLb1EE14is_specializedE",
   "name" : "std::__1::__libcpp_numeric_limits<bool, true>::is_specialized",
   "referenced_type" : "_ZTIKb",
   "source_file" : "external/libcxx/include/limits"
  },
  {
   "access" : "protected",
   "linker_set_key" : "_ZNSt3__123__libcpp_numeric_limitsIbLb1EE14max_exponent10E",
   "name" : "std::__1::__libcpp_numeric_limits<bool, true>::max_exponent10",
   "referenced_type" : "_ZTIKi",
   "source_file" : "external/libcxx/include/limits"
  },
  {
   "access" : "protected",
   "linker_set_key" : "_ZNSt3__123__libcpp_numeric_limitsIbLb1EE14min_exponent10E",
   "name" : "std::__1::__libcpp_numeric_limits<bool, true>::min_exponent10",
   "referenced_type" : "_ZTIKi",
   "source_file" : "external/libcxx/include/limits"
  },
  {
   "access" : "protected",
   "linker_set_key" : "_ZNSt3__123__libcpp_numeric_limitsIbLb1EE15has_denorm_lossE",
   "name" : "std::__1::__libcpp_numeric_limits<bool, true>::has_denorm_loss",
   "referenced_type" : "_ZTIKb",
   "source_file" : "external/libcxx/include/limits"
  },
  {
   "access" : "protected",
   "linker_set_key" : "_ZNSt3__123__libcpp_numeric_limitsIbLb1EE15tinyness_beforeE",
   "name" : "std::__1::__libcpp_numeric_limits<bool, true>::tinyness_before",
   "referenced_type" : "_ZTIKb",
   "source_file" : "external/libcxx/include/limits"
  },
  {
   "access" : "protected",
   "linker_set_key" : "_ZNSt3__123__libcpp_numeric_limitsIbLb1EE17has_signaling_NaNE",
   "name" : "std::__1::__libcpp_numeric_limits<bool, true>::has_signaling_NaN",
   "referenced_type" : "_ZTIKb",
   "source_file" : "external/libcxx/include/limits"
  },
  {
   "access" : "protected",
   "linker_set_key" : "_ZNSt3__123__libcpp_numeric_limitsIbLb1EE5__maxE",
   "name" : "std::__1::__libcpp_numeric_limits<bool, true>::__max",
   "referenced_type" : "_ZTIKb",
   "source_file" : "external/libcxx/include/limits"
  },
  {
   "access" : "protected",
   "linker_set_key" : "_ZNSt3__123__libcpp_numeric_limitsIbLb1EE5__minE",
   "name" : "std::__1::__libcpp_numeric_limits<bool, true>::__min",
   "referenced_type" : "_ZTIKb",
   "source_file" : "external/libcxx/include/limits"
  },
  {
   "access" : "protected",
   "linker_set_key" : "_ZNSt3__123__libcpp_numeric_limitsIbLb1EE5radixE",
   "name" : "std::__1::__libcpp_numeric_limits<bool, true>::radix",
   "referenced_type" : "_ZTIKi",
   "source_file" : "external/libcxx/include/limits"
  },
  {
   "access" : "protected",
   "linker_set_key" : "_ZNSt3__123__libcpp_numeric_limitsIbLb1EE5trapsE",
   "name" : "std::__1::__libcpp_numeric_limits<bool, true>::traps",
   "referenced_type" : "_ZTIKb",
   "source_file" : "external/libcxx/include/limits"
  },
  {
   "access" : "protected",
   "linker_set_key" : "_ZNSt3__123__libcpp_numeric_limitsIbLb1EE6digitsE",
   "name" : "std::__1::__libcpp_numeric_limits<bool, true>::digits",
   "referenced_type" : "_ZTIKi",
   "source_file" : "external/libcxx/include/limits"
  },
  {
   "access" : "protected",
   "linker_set_key" : "_ZNSt3__123__libcpp_numeric_limitsIbLb1EE8digits10E",
   "name" : "std::__1::__libcpp_numeric_limits<bool, true>::digits10",
   "referenced_type" : "_ZTIKi",
   "source_file" : "external/libcxx/include/limits"
  },
  {
   "access" : "protected",
   "linker_set_key" : "_ZNSt3__123__libcpp_numeric_limitsIbLb1EE8is_exactE",
   "name" : "std::__1::__libcpp_numeric_limits<bool, true>::is_exact",
   "referenced_type" : "_ZTIKb",
   "source_file" : "external/libcxx/include/limits"
  },
  {
   "access" : "protected",
   "linker_set_key" : "_ZNSt3__123__libcpp_numeric_limitsIbLb1EE9is_iec559E",
   "name" : "std::__1::__libcpp_numeric_limits<bool, true>::is_iec559",
   "referenced_type" : "_ZTIKb",
   "source_file" : "external/libcxx/include/limits"
  },
  {
   "access" : "protected",
   "linker_set_key" : "_ZNSt3__123__libcpp_numeric_limitsIbLb1EE9is_moduloE",
   "name" : "std::__1::__libcpp_numeric_limits<bool, true>::is_modulo",
   "referenced_type" : "_ZTIKb",
   "source_file" : "external/libcxx/include/limits"
  },
  {
   "access" : "protected",
   "linker_set_key" : "_ZNSt3__123__libcpp_numeric_limitsIbLb1EE9is_signedE",
   "name" : "std::__1::__libcpp_numeric_limits<bool, true>::is_signed",
   "referenced_type" : "_ZTIKb",
   "source_file" : "external/libcxx/include/limits"
  },
  {
   "access" : "protected",
   "linker_set_key" : "_ZNSt3__123__libcpp_numeric_limitsIdLb1EE10has_denormE",
   "name" : "std::__1::__libcpp_numeric_limits<double, true>::has_denorm",
   "referenced_type" : "_ZTIKNSt3__118float_denorm_styleE",
   "source_file" : "external/libcxx/include/limits"
  },
  {
   "access" : "protected",
   "linker_set_key" : "_ZNSt3__123__libcpp_numeric_limitsIdLb1EE10is_boundedE",
   "name" : "std::__1::__libcpp_numeric_limits<double, true>::is_bounded",
   "referenced_type" : "_ZTIKb",
   "source_file" : "external/libcxx/include/limits"
  },
  {
   "access" : "protected",
   "linker_set_key" : "_ZNSt3__123__libcpp_numeric_limitsIdLb1EE10is_integerE",
   "name" : "std::__1::__libcpp_numeric_limits<double, true>::is_integer",
   "referenced_type" : "_ZTIKb",
   "source_file" : "external/libcxx/include/limits"
  },
  {
   "access" : "protected",
   "linker_set_key" : "_ZNSt3__123__libcpp_numeric_limitsIdLb1EE11round_styleE",
   "name" : "std::__1::__libcpp_numeric_limits<double, true>::round_style",
   "referenced_type" : "_ZTIKNSt3__117float_round_styleE",
   "source_file" : "external/libcxx/include/limits"
  },
  {
   "access" : "protected",
   "linker_set_key" : "_ZNSt3__123__libcpp_numeric_limitsIdLb1EE12has_infinityE",
   "name" : "std::__1::__libcpp_numeric_limits<double, true>::has_infinity",
   "referenced_type" : "_ZTIKb",
   "source_file" : "external/libcxx/include/limits"
  },
  {
   "access" : "protected",
   "linker_set_key" : "_ZNSt3__123__libcpp_numeric_limitsIdLb1EE12max_digits10E",
   "name" : "std::__1::__libcpp_numeric_limits<double, true>::max_digits10",
   "referenced_type" : "_ZTIKi",
   "source_file" : "external/libcxx/include/limits"
  },
  {
   "access" : "protected",
   "linker_set_key" : "_ZNSt3__123__libcpp_numeric_limitsIdLb1EE12max_exponentE",
   "name" : "std::__1::__libcpp_numeric_limits<double, true>::max_exponent",
   "referenced_type" : "_ZTIKi",
   "source_file" : "external/libcxx/include/limits"
  },
  {
   "access" : "protected",
   "linker_set_key" : "_ZNSt3__123__libcpp_numeric_limitsIdLb1EE12min_exponentE",
   "name" : "std::__1::__libcpp_numeric_limits<double, true>::min_exponent",
   "referenced_type" : "_ZTIKi",
   "source_file" : "external/libcxx/include/limits"
  },
  {
   "access" : "protected",
   "linker_set_key" : "_ZNSt3__123__libcpp_numeric_limitsIdLb1EE13has_quiet_NaNE",
   "name" : "std::__1::__libcpp_numeric_limits<double, true>::has_quiet_NaN",
   "referenced_type" : "_ZTIKb",
   "source_file" : "external/libcxx/include/limits"
  },
  {
   "access" : "protected",
   "linker_set_key" : "_ZNSt3__123__libcpp_numeric_limitsIdLb1EE14is_specializedE",
   "name" : "std::__1::__libcpp_numeric_limits<double, true>::is_specialized",
   "referenced_type" : "_ZTIKb",
   "source_file" : "external/libcxx/include/limits"
  },
  {
   "access" : "protected",
   "linker_set_key" : "_ZNSt3__123__libcpp_numeric_limitsIdLb1EE14max_exponent10E",
   "name" : "std::__1::__libcpp_numeric_limits<double, true>::max_exponent10",
   "referenced_type" : "_ZTIKi",
   "source_file" : "external/libcxx/include/limits"
  },
  {
   "access" : "protected",
   "linker_set_key" : "_ZNSt3__123__libcpp_numeric_limitsIdLb1EE14min_exponent10E",
   "name" : "std::__1::__libcpp_numeric_limits<double, true>::min_exponent10",
   "referenced_type" : "_ZTIKi",
   "source_file" : "external/libcxx/include/limits"
  },
  {
   "access" : "protected",
   "linker_set_key" : "_ZNSt3__123__libcpp_numeric_limitsIdLb1EE15has_denorm_lossE",
   "name" : "std::__1::__libcpp_numeric_limits<double, true>::has_denorm_loss",
   "referenced_type" : "_ZTIKb",
   "source_file" : "external/libcxx/include/limits"
  },
  {
   "access" : "protected",
   "linker_set_key" : "_ZNSt3__123__libcpp_numeric_limitsIdLb1EE15tinyness_beforeE",
   "name" : "std::__1::__libcpp_numeric_limits<double, true>::tinyness_before",
   "referenced_type" : "_ZTIKb",
   "source_file" : "external/libcxx/include/limits"
  },
  {
   "access" : "protected",
   "linker_set_key" : "_ZNSt3__123__libcpp_numeric_limitsIdLb1EE17has_signaling_NaNE",
   "name" : "std::__1::__libcpp_numeric_limits<double, true>::has_signaling_NaN",
   "referenced_type" : "_ZTIKb",
   "source_file" : "external/libcxx/include/limits"
  },
  {
   "access" : "protected",
   "linker_set_key" : "_ZNSt3__123__libcpp_numeric_limitsIdLb1EE5radixE",
   "name" : "std::__1::__libcpp_numeric_limits<double, true>::radix",
   "referenced_type" : "_ZTIKi",
   "source_file" : "external/libcxx/include/limits"
  },
  {
   "access" : "protected",
   "linker_set_key" : "_ZNSt3__123__libcpp_numeric_limitsIdLb1EE5trapsE",
   "name" : "std::__1::__libcpp_numeric_limits<double, true>::traps",
   "referenced_type" : "_ZTIKb",
   "source_file" : "external/libcxx/include/limits"
  },
  {
   "access" : "protected",
   "linker_set_key" : "_ZNSt3__123__libcpp_numeric_limitsIdLb1EE6digitsE",
   "name" : "std::__1::__libcpp_numeric_limits<double, true>::digits",
   "referenced_type" : "_ZTIKi",
   "source_file" : "external/libcxx/include/limits"
  },
  {
   "access" : "protected",
   "linker_set_key" : "_ZNSt3__123__libcpp_numeric_limitsIdLb1EE8digits10E",
   "name" : "std::__1::__libcpp_numeric_limits<double, true>::digits10",
   "referenced_type" : "_ZTIKi",
   "source_file" : "external/libcxx/include/limits"
  },
  {
   "access" : "protected",
   "linker_set_key" : "_ZNSt3__123__libcpp_numeric_limitsIdLb1EE8is_exactE",
   "name" : "std::__1::__libcpp_numeric_limits<double, true>::is_exact",
   "referenced_type" : "_ZTIKb",
   "source_file" : "external/libcxx/include/limits"
  },
  {
   "access" : "protected",
   "linker_set_key" : "_ZNSt3__123__libcpp_numeric_limitsIdLb1EE9is_iec559E",
   "name" : "std::__1::__libcpp_numeric_limits<double, true>::is_iec559",
   "referenced_type" : "_ZTIKb",
   "source_file" : "external/libcxx/include/limits"
  },
  {
   "access" : "protected",
   "linker_set_key" : "_ZNSt3__123__libcpp_numeric_limitsIdLb1EE9is_moduloE",
   "name" : "std::__1::__libcpp_numeric_limits<double, true>::is_modulo",
   "referenced_type" : "_ZTIKb",
   "source_file" : "external/libcxx/include/limits"
  },
  {
   "access" : "protected",
   "linker_set_key" : "_ZNSt3__123__libcpp_numeric_limitsIdLb1EE9is_signedE",
   "name" : "std::__1::__libcpp_numeric_limits<double, true>::is_signed",
   "referenced_type" : "_ZTIKb",
   "source_file" : "external/libcxx/include/limits"
  },
  {
   "access" : "protected",
   "linker_set_key" : "_ZNSt3__123__libcpp_numeric_limitsIeLb1EE10has_denormE",
   "name" : "std::__1::__libcpp_numeric_limits<long double, true>::has_denorm",
   "referenced_type" : "_ZTIKNSt3__118float_denorm_styleE",
   "source_file" : "external/libcxx/include/limits"
  },
  {
   "access" : "protected",
   "linker_set_key" : "_ZNSt3__123__libcpp_numeric_limitsIeLb1EE10is_boundedE",
   "name" : "std::__1::__libcpp_numeric_limits<long double, true>::is_bounded",
   "referenced_type" : "_ZTIKb",
   "source_file" : "external/libcxx/include/limits"
  },
  {
   "access" : "protected",
   "linker_set_key" : "_ZNSt3__123__libcpp_numeric_limitsIeLb1EE10is_integerE",
   "name" : "std::__1::__libcpp_numeric_limits<long double, true>::is_integer",
   "referenced_type" : "_ZTIKb",
   "source_file" : "external/libcxx/include/limits"
  },
  {
   "access" : "protected",
   "linker_set_key" : "_ZNSt3__123__libcpp_numeric_limitsIeLb1EE11round_styleE",
   "name" : "std::__1::__libcpp_numeric_limits<long double, true>::round_style",
   "referenced_type" : "_ZTIKNSt3__117float_round_styleE",
   "source_file" : "external/libcxx/include/limits"
  },
  {
   "access" : "protected",
   "linker_set_key" : "_ZNSt3__123__libcpp_numeric_limitsIeLb1EE12has_infinityE",
   "name" : "std::__1::__libcpp_numeric_limits<long double, true>::has_infinity",
   "referenced_type" : "_ZTIKb",
   "source_file" : "external/libcxx/include/limits"
  },
  {
   "access" : "protected",
   "linker_set_key" : "_ZNSt3__123__libcpp_numeric_limitsIeLb1EE12max_digits10E",
   "name" : "std::__1::__libcpp_numeric_limits<long double, true>::max_digits10",
   "referenced_type" : "_ZTIKi",
   "source_file" : "external/libcxx/include/limits"
  },
  {
   "access" : "protected",
   "linker_set_key" : "_ZNSt3__123__libcpp_numeric_limitsIeLb1EE12max_exponentE",
   "name" : "std::__1::__libcpp_numeric_limits<long double, true>::max_exponent",
   "referenced_type" : "_ZTIKi",
   "source_file" : "external/libcxx/include/limits"
  },
  {
   "access" : "protected",
   "linker_set_key" : "_ZNSt3__123__libcpp_numeric_limitsIeLb1EE12min_exponentE",
   "name" : "std::__1::__libcpp_numeric_limits<long double, true>::min_exponent",
   "referenced_type" : "_ZTIKi",
   "source_file" : "external/libcxx/include/limits"
  },
  {
   "access" : "protected",
   "linker_set_key" : "_ZNSt3__123__libcpp_numeric_limitsIeLb1EE13has_quiet_NaNE",
   "name" : "std::__1::__libcpp_numeric_limits<long double, true>::has_quiet_NaN",
   "referenced_type" : "_ZTIKb",
   "source_file" : "external/libcxx/include/limits"
  },
  {
   "access" : "protected",
   "linker_set_key" : "_ZNSt3__123__libcpp_numeric_limitsIeLb1EE14is_specializedE",
   "name" : "std::__1::__libcpp_numeric_limits<long double, true>::is_specialized",
   "referenced_type" : "_ZTIKb",
   "source_file" : "external/libcxx/include/limits"
  },
  {
   "access" : "protected",
   "linker_set_key" : "_ZNSt3__123__libcpp_numeric_limitsIeLb1EE14max_exponent10E",
   "name" : "std::__1::__libcpp_numeric_limits<long double, true>::max_exponent10",
   "referenced_type" : "_ZTIKi",
   "source_file" : "external/libcxx/include/limits"
  },
  {
   "access" : "protected",
   "linker_set_key" : "_ZNSt3__123__libcpp_numeric_limitsIeLb1EE14min_exponent10E",
   "name" : "std::__1::__libcpp_numeric_limits<long double, true>::min_exponent10",
   "referenced_type" : "_ZTIKi",
   "source_file" : "external/libcxx/include/limits"
  },
  {
   "access" : "protected",
   "linker_set_key" : "_ZNSt3__123__libcpp_numeric_limitsIeLb1EE15has_denorm_lossE",
   "name" : "std::__1::__libcpp_numeric_limits<long double, true>::has_denorm_loss",
   "referenced_type" : "_ZTIKb",
   "source_file" : "external/libcxx/include/limits"
  },
  {
   "access" : "protected",
   "linker_set_key" : "_ZNSt3__123__libcpp_numeric_limitsIeLb1EE15tinyness_beforeE",
   "name" : "std::__1::__libcpp_numeric_limits<long double, true>::tinyness_before",
   "referenced_type" : "_ZTIKb",
   "source_file" : "external/libcxx/include/limits"
  },
  {
   "access" : "protected",
   "linker_set_key" : "_ZNSt3__123__libcpp_numeric_limitsIeLb1EE17has_signaling_NaNE",
   "name" : "std::__1::__libcpp_numeric_limits<long double, true>::has_signaling_NaN",
   "referenced_type" : "_ZTIKb",
   "source_file" : "external/libcxx/include/limits"
  },
  {
   "access" : "protected",
   "linker_set_key" : "_ZNSt3__123__libcpp_numeric_limitsIeLb1EE5radixE",
   "name" : "std::__1::__libcpp_numeric_limits<long double, true>::radix",
   "referenced_type" : "_ZTIKi",
   "source_file" : "external/libcxx/include/limits"
  },
  {
   "access" : "protected",
   "linker_set_key" : "_ZNSt3__123__libcpp_numeric_limitsIeLb1EE5trapsE",
   "name" : "std::__1::__libcpp_numeric_limits<long double, true>::traps",
   "referenced_type" : "_ZTIKb",
   "source_file" : "external/libcxx/include/limits"
  },
  {
   "access" : "protected",
   "linker_set_key" : "_ZNSt3__123__libcpp_numeric_limitsIeLb1EE6digitsE",
   "name" : "std::__1::__libcpp_numeric_limits<long double, true>::digits",
   "referenced_type" : "_ZTIKi",
   "source_file" : "external/libcxx/include/limits"
  },
  {
   "access" : "protected",
   "linker_set_key" : "_ZNSt3__123__libcpp_numeric_limitsIeLb1EE8digits10E",
   "name" : "std::__1::__libcpp_numeric_limits<long double, true>::digits10",
   "referenced_type" : "_ZTIKi",
   "source_file" : "external/libcxx/include/limits"
  },
  {
   "access" : "protected",
   "linker_set_key" : "_ZNSt3__123__libcpp_numeric_limitsIeLb1EE8is_exactE",
   "name" : "std::__1::__libcpp_numeric_limits<long double, true>::is_exact",
   "referenced_type" : "_ZTIKb",
   "source_file" : "external/libcxx/include/limits"
  },
  {
   "access" : "protected",
   "linker_set_key" : "_ZNSt3__123__libcpp_numeric_limitsIeLb1EE9is_iec559E",
   "name" : "std::__1::__libcpp_numeric_limits<long double, true>::is_iec559",
   "referenced_type" : "_ZTIKb",
   "source_file" : "external/libcxx/include/limits"
  },
  {
   "access" : "protected",
   "linker_set_key" : "_ZNSt3__123__libcpp_numeric_limitsIeLb1EE9is_moduloE",
   "name" : "std::__1::__libcpp_numeric_limits<long double, true>::is_modulo",
   "referenced_type" : "_ZTIKb",
   "source_file" : "external/libcxx/include/limits"
  },
  {
   "access" : "protected",
   "linker_set_key" : "_ZNSt3__123__libcpp_numeric_limitsIeLb1EE9is_signedE",
   "name" : "std::__1::__libcpp_numeric_limits<long double, true>::is_signed",
   "referenced_type" : "_ZTIKb",
   "source_file" : "external/libcxx/include/limits"
  },
  {
   "access" : "protected",
   "linker_set_key" : "_ZNSt3__123__libcpp_numeric_limitsIfLb1EE10has_denormE",
   "name" : "std::__1::__libcpp_numeric_limits<float, true>::has_denorm",
   "referenced_type" : "_ZTIKNSt3__118float_denorm_styleE",
   "source_file" : "external/libcxx/include/limits"
  },
  {
   "access" : "protected",
   "linker_set_key" : "_ZNSt3__123__libcpp_numeric_limitsIfLb1EE10is_boundedE",
   "name" : "std::__1::__libcpp_numeric_limits<float, true>::is_bounded",
   "referenced_type" : "_ZTIKb",
   "source_file" : "external/libcxx/include/limits"
  },
  {
   "access" : "protected",
   "linker_set_key" : "_ZNSt3__123__libcpp_numeric_limitsIfLb1EE10is_integerE",
   "name" : "std::__1::__libcpp_numeric_limits<float, true>::is_integer",
   "referenced_type" : "_ZTIKb",
   "source_file" : "external/libcxx/include/limits"
  },
  {
   "access" : "protected",
   "linker_set_key" : "_ZNSt3__123__libcpp_numeric_limitsIfLb1EE11round_styleE",
   "name" : "std::__1::__libcpp_numeric_limits<float, true>::round_style",
   "referenced_type" : "_ZTIKNSt3__117float_round_styleE",
   "source_file" : "external/libcxx/include/limits"
  },
  {
   "access" : "protected",
   "linker_set_key" : "_ZNSt3__123__libcpp_numeric_limitsIfLb1EE12has_infinityE",
   "name" : "std::__1::__libcpp_numeric_limits<float, true>::has_infinity",
   "referenced_type" : "_ZTIKb",
   "source_file" : "external/libcxx/include/limits"
  },
  {
   "access" : "protected",
   "linker_set_key" : "_ZNSt3__123__libcpp_numeric_limitsIfLb1EE12max_digits10E",
   "name" : "std::__1::__libcpp_numeric_limits<float, true>::max_digits10",
   "referenced_type" : "_ZTIKi",
   "source_file" : "external/libcxx/include/limits"
  },
  {
   "access" : "protected",
   "linker_set_key" : "_ZNSt3__123__libcpp_numeric_limitsIfLb1EE12max_exponentE",
   "name" : "std::__1::__libcpp_numeric_limits<float, true>::max_exponent",
   "referenced_type" : "_ZTIKi",
   "source_file" : "external/libcxx/include/limits"
  },
  {
   "access" : "protected",
   "linker_set_key" : "_ZNSt3__123__libcpp_numeric_limitsIfLb1EE12min_exponentE",
   "name" : "std::__1::__libcpp_numeric_limits<float, true>::min_exponent",
   "referenced_type" : "_ZTIKi",
   "source_file" : "external/libcxx/include/limits"
  },
  {
   "access" : "protected",
   "linker_set_key" : "_ZNSt3__123__libcpp_numeric_limitsIfLb1EE13has_quiet_NaNE",
   "name" : "std::__1::__libcpp_numeric_limits<float, true>::has_quiet_NaN",
   "referenced_type" : "_ZTIKb",
   "source_file" : "external/libcxx/include/limits"
  },
  {
   "access" : "protected",
   "linker_set_key" : "_ZNSt3__123__libcpp_numeric_limitsIfLb1EE14is_specializedE",
   "name" : "std::__1::__libcpp_numeric_limits<float, true>::is_specialized",
   "referenced_type" : "_ZTIKb",
   "source_file" : "external/libcxx/include/limits"
  },
  {
   "access" : "protected",
   "linker_set_key" : "_ZNSt3__123__libcpp_numeric_limitsIfLb1EE14max_exponent10E",
   "name" : "std::__1::__libcpp_numeric_limits<float, true>::max_exponent10",
   "referenced_type" : "_ZTIKi",
   "source_file" : "external/libcxx/include/limits"
  },
  {
   "access" : "protected",
   "linker_set_key" : "_ZNSt3__123__libcpp_numeric_limitsIfLb1EE14min_exponent10E",
   "name" : "std::__1::__libcpp_numeric_limits<float, true>::min_exponent10",
   "referenced_type" : "_ZTIKi",
   "source_file" : "external/libcxx/include/limits"
  },
  {
   "access" : "protected",
   "linker_set_key" : "_ZNSt3__123__libcpp_numeric_limitsIfLb1EE15has_denorm_lossE",
   "name" : "std::__1::__libcpp_numeric_limits<float, true>::has_denorm_loss",
   "referenced_type" : "_ZTIKb",
   "source_file" : "external/libcxx/include/limits"
  },
  {
   "access" : "protected",
   "linker_set_key" : "_ZNSt3__123__libcpp_numeric_limitsIfLb1EE15tinyness_beforeE",
   "name" : "std::__1::__libcpp_numeric_limits<float, true>::tinyness_before",
   "referenced_type" : "_ZTIKb",
   "source_file" : "external/libcxx/include/limits"
  },
  {
   "access" : "protected",
   "linker_set_key" : "_ZNSt3__123__libcpp_numeric_limitsIfLb1EE17has_signaling_NaNE",
   "name" : "std::__1::__libcpp_numeric_limits<float, true>::has_signaling_NaN",
   "referenced_type" : "_ZTIKb",
   "source_file" : "external/libcxx/include/limits"
  },
  {
   "access" : "protected",
   "linker_set_key" : "_ZNSt3__123__libcpp_numeric_limitsIfLb1EE5radixE",
   "name" : "std::__1::__libcpp_numeric_limits<float, true>::radix",
   "referenced_type" : "_ZTIKi",
   "source_file" : "external/libcxx/include/limits"
  },
  {
   "access" : "protected",
   "linker_set_key" : "_ZNSt3__123__libcpp_numeric_limitsIfLb1EE5trapsE",
   "name" : "std::__1::__libcpp_numeric_limits<float, true>::traps",
   "referenced_type" : "_ZTIKb",
   "source_file" : "external/libcxx/include/limits"
  },
  {
   "access" : "protected",
   "linker_set_key" : "_ZNSt3__123__libcpp_numeric_limitsIfLb1EE6digitsE",
   "name" : "std::__1::__libcpp_numeric_limits<float, true>::digits",
   "referenced_type" : "_ZTIKi",
   "source_file" : "external/libcxx/include/limits"
  },
  {
   "access" : "protected",
   "linker_set_key" : "_ZNSt3__123__libcpp_numeric_limitsIfLb1EE8digits10E",
   "name" : "std::__1::__libcpp_numeric_limits<float, true>::digits10",
   "referenced_type" : "_ZTIKi",
   "source_file" : "external/libcxx/include/limits"
  },
  {
   "access" : "protected",
   "linker_set_key" : "_ZNSt3__123__libcpp_numeric_limitsIfLb1EE8is_exactE",
   "name" : "std::__1::__libcpp_numeric_limits<float, true>::is_exact",
   "referenced_type" : "_ZTIKb",
   "source_file" : "external/libcxx/include/limits"
  },
  {
   "access" : "protected",
   "linker_set_key" : "_ZNSt3__123__libcpp_numeric_limitsIfLb1EE9is_iec559E",
   "name" : "std::__1::__libcpp_numeric_limits<float, true>::is_iec559",
   "referenced_type" : "_ZTIKb",
   "source_file" : "external/libcxx/include/limits"
  },
  {
   "access" : "protected",
   "linker_set_key" : "_ZNSt3__123__libcpp_numeric_limitsIfLb1EE9is_moduloE",
   "name" : "std::__1::__libcpp_numeric_limits<float, true>::is_modulo",
   "referenced_type" : "_ZTIKb",
   "source_file" : "external/libcxx/include/limits"
  },
  {
   "access" : "protected",
   "linker_set_key" : "_ZNSt3__123__libcpp_numeric_limitsIfLb1EE9is_signedE",
   "name" : "std::__1::__libcpp_numeric_limits<float, true>::is_signed",
   "referenced_type" : "_ZTIKb",
   "source_file" : "external/libcxx/include/limits"
  },
  {
   "linker_set_key" : "_ZNSt3__123is_copy_constructible_vE",
   "name" : "std::__1::is_copy_constructible_v",
   "referenced_type" : "_ZTIKb",
   "source_file" : "external/libcxx/include/type_traits"
  },
  {
   "linker_set_key" : "_ZNSt3__123is_move_constructible_vE",
   "name" : "std::__1::is_move_constructible_v",
   "referenced_type" : "_ZTIKb",
   "source_file" : "external/libcxx/include/type_traits"
  },
  {
   "linker_set_key" : "_ZNSt3__123is_nothrow_assignable_vE",
   "name" : "std::__1::is_nothrow_assignable_v",
   "referenced_type" : "_ZTIKb",
   "source_file" : "external/libcxx/include/type_traits"
  },
  {
   "linker_set_key" : "_ZNSt3__123is_trivially_copyable_vE",
   "name" : "std::__1::is_trivially_copyable_v",
   "referenced_type" : "_ZTIKb",
   "source_file" : "external/libcxx/include/type_traits"
  },
  {
   "linker_set_key" : "_ZNSt3__124has_virtual_destructor_vE",
   "name" : "std::__1::has_virtual_destructor_v",
   "referenced_type" : "_ZTIKb",
   "source_file" : "external/libcxx/include/type_traits"
  },
  {
   "linker_set_key" : "_ZNSt3__124is_nothrow_invocable_r_vE",
   "name" : "std::__1::is_nothrow_invocable_r_v",
   "referenced_type" : "_ZTIKb",
   "source_file" : "external/libcxx/include/type_traits"
  },
  {
   "linker_set_key" : "_ZNSt3__125__nothrow_invokable_r_imp5valueE",
   "name" : "std::__1::__nothrow_invokable_r_imp::value",
   "referenced_type" : "_ZTIKb",
   "source_file" : "external/libcxx/include/type_traits"
  },
  {
   "linker_set_key" : "_ZNSt3__125__nothrow_invokable_r_impILb1ELb0ET_T0_JDpT1_EE5valueE",
   "name" : "std::__1::__nothrow_invokable_r_imp<true, false, type-parameter-0-0, type-parameter-0-1, type-parameter-0-2...>::value",
   "referenced_type" : "_ZTIKb",
   "source_file" : "external/libcxx/include/type_traits"
  },
  {
   "linker_set_key" : "_ZNSt3__125__nothrow_invokable_r_impILb1ELb1ET_T0_JDpT1_EE5valueE",
   "name" : "std::__1::__nothrow_invokable_r_imp<true, true, type-parameter-0-0, type-parameter-0-1, type-parameter-0-2...>::value",
   "referenced_type" : "_ZTIKb",
   "source_file" : "external/libcxx/include/type_traits"
  },
  {
   "linker_set_key" : "_ZNSt3__125is_nothrow_destructible_vE",
   "name" : "std::__1::is_nothrow_destructible_v",
   "referenced_type" : "_ZTIKb",
   "source_file" : "external/libcxx/include/type_traits"
  },
  {
   "linker_set_key" : "_ZNSt3__125is_trivially_assignable_vE",
   "name" : "std::__1::is_trivially_assignable_v",
   "referenced_type" : "_ZTIKb",
   "source_file" : "external/libcxx/include/type_traits"
  },
  {
   "linker_set_key" : "_ZNSt3__126__is_destructor_wellformed5valueE",
   "name" : "std::__1::__is_destructor_wellformed::value",
   "referenced_type" : "_ZTIKb",
   "source_file" : "external/libcxx/include/type_traits"
  },
  {
   "linker_set_key" : "_ZNSt3__126is_default_constructible_vE",
   "name" : "std::__1::is_default_constructible_v",
   "referenced_type" : "_ZTIKb",
   "source_file" : "external/libcxx/include/type_traits"
  },
  {
   "linker_set_key" : "_ZNSt3__126is_member_object_pointer_vE",
   "name" : "std::__1::is_member_object_pointer_v",
   "referenced_type" : "_ZTIKb",
   "source_file" : "external/libcxx/include/type_traits"
  },
  {
   "linker_set_key" : "_ZNSt3__126is_nothrow_constructible_vE",
   "name" : "std::__1::is_nothrow_constructible_v",
   "referenced_type" : "_ZTIKb",
   "source_file" : "external/libcxx/include/type_traits"
  },
  {
   "linker_set_key" : "_ZNSt3__127is_nothrow_swappable_with_vE",
   "name" : "std::__1::is_nothrow_swappable_with_v",
   "referenced_type" : "_ZTIKb",
   "source_file" : "external/libcxx/include/type_traits"
  },
  {
   "linker_set_key" : "_ZNSt3__127is_trivially_destructible_vE",
   "name" : "std::__1::is_trivially_destructible_v",
   "referenced_type" : "_ZTIKb",
   "source_file" : "external/libcxx/include/type_traits"
  },
  {
   "linker_set_key" : "_ZNSt3__128is_member_function_pointer_vE",
   "name" : "std::__1::is_member_function_pointer_v",
   "referenced_type" : "_ZTIKb",
   "source_file" : "external/libcxx/include/type_traits"
  },
  {
   "linker_set_key" : "_ZNSt3__128is_nothrow_copy_assignable_vE",
   "name" : "std::__1::is_nothrow_copy_assignable_v",
   "referenced_type" : "_ZTIKb",
   "source_file" : "external/libcxx/include/type_traits"
  },
  {
   "linker_set_key" : "_ZNSt3__128is_nothrow_move_assignable_vE",
   "name" : "std::__1::is_nothrow_move_assignable_v",
   "referenced_type" : "_ZTIKb",
   "source_file" : "external/libcxx/include/type_traits"
  },
  {
   "linker_set_key" : "_ZNSt3__128is_trivially_constructible_vE",
   "name" : "std::__1::is_trivially_constructible_v",
   "referenced_type" : "_ZTIKb",
   "source_file" : "external/libcxx/include/type_traits"
  },
  {
   "linker_set_key" : "_ZNSt3__129__derives_from_unary_function5valueE",
   "name" : "std::__1::__derives_from_unary_function::value",
   "referenced_type" : "_ZTIKb",
   "source_file" : "external/libcxx/include/__functional_base"
  },
  {
   "linker_set_key" : "_ZNSt3__130__derives_from_binary_function5valueE",
   "name" : "std::__1::__derives_from_binary_function::value",
   "referenced_type" : "_ZTIKb",
   "source_file" : "external/libcxx/include/__functional_base"
  },
  {
   "linker_set_key" : "_ZNSt3__130is_trivially_copy_assignable_vE",
   "name" : "std::__1::is_trivially_copy_assignable_v",
   "referenced_type" : "_ZTIKb",
   "source_file" : "external/libcxx/include/type_traits"
  },
  {
   "linker_set_key" : "_ZNSt3__130is_trivially_move_assignable_vE",
   "name" : "std::__1::is_trivially_move_assignable_v",
   "referenced_type" : "_ZTIKb",
   "source_file" : "external/libcxx/include/type_traits"
  },
  {
   "linker_set_key" : "_ZNSt3__131is_nothrow_copy_constructible_vE",
   "name" : "std::__1::is_nothrow_copy_constructible_v",
   "referenced_type" : "_ZTIKb",
   "source_file" : "external/libcxx/include/type_traits"
  },
  {
   "linker_set_key" : "_ZNSt3__131is_nothrow_move_constructible_vE",
   "name" : "std::__1::is_nothrow_move_constructible_v",
   "referenced_type" : "_ZTIKb",
   "source_file" : "external/libcxx/include/type_traits"
  },
  {
   "linker_set_key" : "_ZNSt3__133__has_operator_addressof_free_imp5valueE",
   "name" : "std::__1::__has_operator_addressof_free_imp::value",
   "referenced_type" : "_ZTIKb",
   "source_file" : "external/libcxx/include/type_traits"
  },
  {
   "linker_set_key" : "_ZNSt3__133is_trivially_copy_constructible_vE",
   "name" : "std::__1::is_trivially_copy_constructible_v",
   "referenced_type" : "_ZTIKb",
   "source_file" : "external/libcxx/include/type_traits"
  },
  {
   "linker_set_key" : "_ZNSt3__133is_trivially_move_constructible_vE",
   "name" : "std::__1::is_trivially_move_constructible_v",
   "referenced_type" : "_ZTIKb",
   "source_file" : "external/libcxx/include/type_traits"
  },
  {
   "linker_set_key" : "_ZNSt3__134is_nothrow_default_constructible_vE",
   "name" : "std::__1::is_nothrow_default_constructible_v",
   "referenced_type" : "_ZTIKb",
   "source_file" : "external/libcxx/include/type_traits"
  },
  {
   "linker_set_key" : "_ZNSt3__135__has_operator_addressof_member_imp5valueE",
   "name" : "std::__1::__has_operator_addressof_member_imp::value",
   "referenced_type" : "_ZTIKb",
   "source_file" : "external/libcxx/include/type_traits"
  },
  {
   "linker_set_key" : "_ZNSt3__135has_unique_object_representations_vE",
   "name" : "std::__1::has_unique_object_representations_v",
   "referenced_type" : "_ZTIKb",
   "source_file" : "external/libcxx/include/type_traits"
  },
  {
   "linker_set_key" : "_ZNSt3__136is_trivially_default_constructible_vE",
   "name" : "std::__1::is_trivially_default_constructible_v",
   "referenced_type" : "_ZTIKb",
   "source_file" : "external/libcxx/include/type_traits"
  },
  {
   "access" : "private",
   "linker_set_key" : "_ZNSt3__15tuple36_EnableImplicitReducedArityExtensionE",
   "name" : "std::__1::tuple::_EnableImplicitReducedArityExtension",
   "referenced_type" : "_ZTIKb",
   "source_file" : "external/libcxx/include/tuple"
  },
  {
   "linker_set_key" : "_ZNSt3__16rank_vE",
   "name" : "std::__1::rank_v",
   "referenced_type" : "_ZTIKj",
   "source_file" : "external/libcxx/include/type_traits"
  },
  {
   "linker_set_key" : "_ZNSt3__18__detail16__swappable_with5valueE",
   "name" : "std::__1::__detail::__swappable_with::value",
   "referenced_type" : "_ZTIKb",
   "source_file" : "external/libcxx/include/type_traits"
  },
  {
   "linker_set_key" : "_ZNSt3__18__detail24__nothrow_swappable_with5valueE",
   "name" : "std::__1::__detail::__nothrow_swappable_with::value",
   "referenced_type" : "_ZTIKb",
   "source_file" : "external/libcxx/include/type_traits"
  },
  {
   "linker_set_key" : "_ZNSt3__18extent_vE",
   "name" : "std::__1::extent_v",
   "referenced_type" : "_ZTIKj",
   "source_file" : "external/libcxx/include/type_traits"
  },
  {
   "linker_set_key" : "_ZNSt3__18in_placeE",
   "name" : "std::__1::in_place",
   "referenced_type" : "_ZTIKNSt3__110in_place_tE",
   "source_file" : "external/libcxx/include/utility"
  },
  {
   "linker_set_key" : "_ZNSt3__18is_pod_vE",
   "name" : "std::__1::is_pod_v",
   "referenced_type" : "_ZTIKb",
   "source_file" : "external/libcxx/include/type_traits"
  },
  {
   "linker_set_key" : "_ZNSt3__19is_enum_vE",
   "name" : "std::__1::is_enum_v",
   "referenced_type" : "_ZTIKb",
   "source_file" : "external/libcxx/include/type_traits"
  },
  {
   "linker_set_key" : "_ZNSt3__19is_same_vE",
   "name" : "std::__1::is_same_v",
   "referenced_type" : "_ZTIKb",
   "source_file" : "external/libcxx/include/type_traits"
  },
  {
   "linker_set_key" : "_ZNSt3__19is_void_vE",
   "name" : "std::__1::is_void_v",
   "referenced_type" : "_ZTIKb",
   "source_file" : "external/libcxx/include/type_traits"
  },
  {
   "linker_set_key" : "_ZNSt3__1L13allocator_argE",
   "name" : "std::__1::allocator_arg",
   "referenced_type" : "_ZTIKNSt3__115allocator_arg_tE",
   "source_file" : "external/libcxx/include/__functional_base"
  },
  {
   "linker_set_key" : "_ZNSt3__1L19piecewise_constructE",
   "name" : "std::__1::piecewise_construct",
   "referenced_type" : "_ZTIKNSt3__121piecewise_construct_tE",
   "source_file" : "external/libcxx/include/utility"
  },
  {
   "linker_set_key" : "_ZSt7nothrow",
   "name" : "std::nothrow",
   "referenced_type" : "_ZTIKSt9nothrow_t",
   "source_file" : "external/libcxx/include/new"
  },
  {
   "linker_set_key" : "__free_hook",
   "name" : "__free_hook",
   "referenced_type" : "_ZTIVPFvPvPKvE",
   "source_file" : "bionic/libc/include/malloc.h"
  },
  {
   "linker_set_key" : "__malloc_hook",
   "name" : "__malloc_hook",
   "referenced_type" : "_ZTIVPFPvjPKvE",
   "source_file" : "bionic/libc/include/malloc.h"
  },
  {
   "linker_set_key" : "__memalign_hook",
   "name" : "__memalign_hook",
   "referenced_type" : "_ZTIVPFPvjjPKvE",
   "source_file" : "bionic/libc/include/malloc.h"
  },
  {
   "linker_set_key" : "__realloc_hook",
   "name" : "__realloc_hook",
   "referenced_type" : "_ZTIVPFPvS_jPKvE",
   "source_file" : "bionic/libc/include/malloc.h"
  },
  {
   "linker_set_key" : "daylight",
   "name" : "daylight",
   "referenced_type" : "_ZTIi",
   "source_file" : "bionic/libc/include/time.h"
  },
  {
   "linker_set_key" : "environ",
   "name" : "environ",
   "referenced_type" : "_ZTIPPc",
   "source_file" : "bionic/libc/include/unistd.h"
  },
  {
   "linker_set_key" : "optarg",
   "name" : "optarg",
   "referenced_type" : "_ZTIPc",
   "source_file" : "bionic/libc/include/bits/getopt.h"
  },
  {
   "linker_set_key" : "opterr",
   "name" : "opterr",
   "referenced_type" : "_ZTIi",
   "source_file" : "bionic/libc/include/bits/getopt.h"
  },
  {
   "linker_set_key" : "optind",
   "name" : "optind",
   "referenced_type" : "_ZTIi",
   "source_file" : "bionic/libc/include/bits/getopt.h"
  },
  {
   "linker_set_key" : "optopt",
   "name" : "optopt",
   "referenced_type" : "_ZTIi",
   "source_file" : "bionic/libc/include/bits/getopt.h"
  },
  {
   "linker_set_key" : "signgam",
   "name" : "signgam",
   "referenced_type" : "_ZTIi",
   "source_file" : "bionic/libc/include/math.h"
  },
  {
   "linker_set_key" : "stderr",
   "name" : "stderr",
   "referenced_type" : "_ZTIP7__sFILE",
   "source_file" : "bionic/libc/include/stdio.h"
  },
  {
   "linker_set_key" : "stdin",
   "name" : "stdin",
   "referenced_type" : "_ZTIP7__sFILE",
   "source_file" : "bionic/libc/include/stdio.h"
  },
  {
   "linker_set_key" : "stdout",
   "name" : "stdout",
   "referenced_type" : "_ZTIP7__sFILE",
   "source_file" : "bionic/libc/include/stdio.h"
  },
  {
   "linker_set_key" : "sys_siglist",
   "name" : "sys_siglist",
   "referenced_type" : "_ZTIA65_KPKc",
   "source_file" : "bionic/libc/include/signal.h"
  },
  {
   "linker_set_key" : "sys_signame",
   "name" : "sys_signame",
   "referenced_type" : "_ZTIA65_KPKc",
   "source_file" : "bionic/libc/include/signal.h"
  },
  {
   "linker_set_key" : "timezone",
   "name" : "timezone",
   "referenced_type" : "_ZTIl",
   "source_file" : "bionic/libc/include/time.h"
  },
  {
   "linker_set_key" : "tzname",
   "name" : "tzname",
   "referenced_type" : "_ZTIA_Pc",
   "source_file" : "bionic/libc/include/time.h"
  }
 ],
 "lvalue_reference_types" :
 [
  {
   "alignment" : 4,
   "linker_set_key" : "_ZTIR12SkFILEStream",
   "name" : "SkFILEStream &",
   "referenced_type" : "_ZTI12SkFILEStream",
   "self_type" : "_ZTIR12SkFILEStream",
   "size" : 4,
   "source_file" : "external/libcxx/include/type_traits"
  },
  {
   "alignment" : 4,
   "linker_set_key" : "_ZTIR13SkStreamAsset",
   "name" : "SkStreamAsset &",
   "referenced_type" : "_ZTI13SkStreamAsset",
   "self_type" : "_ZTIR13SkStreamAsset",
   "size" : 4,
   "source_file" : "external/libcxx/include/type_traits"
  },
  {
   "alignment" : 4,
   "linker_set_key" : "_ZTIR14SkMemoryStream",
   "name" : "SkMemoryStream &",
   "referenced_type" : "_ZTI14SkMemoryStream",
   "self_type" : "_ZTIR14SkMemoryStream",
   "size" : 4,
   "source_file" : "external/libcxx/include/type_traits"
  },
  {
   "alignment" : 4,
   "linker_set_key" : "_ZTIR14SkStreamMemory",
   "name" : "SkStreamMemory &",
   "referenced_type" : "_ZTI14SkStreamMemory",
   "self_type" : "_ZTIR14SkStreamMemory",
   "size" : 4,
   "source_file" : "external/libcxx/include/type_traits"
  },
  {
   "alignment" : 4,
   "linker_set_key" : "_ZTIR16SkStreamSeekable",
   "name" : "SkStreamSeekable &",
   "referenced_type" : "_ZTI16SkStreamSeekable",
   "self_type" : "_ZTIR16SkStreamSeekable",
   "size" : 4,
   "source_file" : "external/libcxx/include/type_traits"
  },
  {
   "alignment" : 4,
   "linker_set_key" : "_ZTIR18SkStreamRewindable",
   "name" : "SkStreamRewindable &",
   "referenced_type" : "_ZTI18SkStreamRewindable",
   "self_type" : "_ZTIR18SkStreamRewindable",
   "size" : 4,
   "source_file" : "external/libcxx/include/type_traits"
  },
  {
   "alignment" : 4,
   "linker_set_key" : "_ZTIR7__sFILE",
   "name" : "__sFILE &",
   "referenced_type" : "_ZTI7__sFILE",
   "self_type" : "_ZTIR7__sFILE",
   "size" : 4,
   "source_file" : "external/libcxx/include/type_traits"
  },
  {
   "alignment" : 4,
   "linker_set_key" : "_ZTIR8SkStream",
   "name" : "SkStream &",
   "referenced_type" : "_ZTI8SkStream",
   "self_type" : "_ZTIR8SkStream",
   "size" : 4,
   "source_file" : "external/libcxx/include/type_traits"
  },
  {
   "alignment" : 4,
   "linker_set_key" : "_ZTIRK5sk_spI6SkDataE",
   "name" : "const sk_sp<SkData> &",
   "referenced_type" : "_ZTIK5sk_spI6SkDataE",
   "self_type" : "_ZTIRK5sk_spI6SkDataE",
   "size" : 4,
   "source_file" : "external/skia/include/core/SkRefCnt.h"
  },
  {
   "alignment" : 4,
   "linker_set_key" : "_ZTIRK8log_time",
   "name" : "const log_time &",
   "referenced_type" : "_ZTIK8log_time",
   "self_type" : "_ZTIRK8log_time",
   "size" : 4,
   "source_file" : "system/logging/liblog/include/log/log_time.h"
  },
  {
   "alignment" : 4,
   "linker_set_key" : "_ZTIRK8timespec",
   "name" : "const timespec &",
   "referenced_type" : "_ZTIK8timespec",
   "self_type" : "_ZTIRK8timespec",
   "size" : 4,
   "source_file" : "system/logging/liblog/include/log/log_time.h"
  },
  {
   "alignment" : 4,
   "linker_set_key" : "_ZTIRKNSt3__110shared_ptrI7__sFILEEE",
   "name" : "const std::shared_ptr<__sFILE> &",
   "referenced_type" : "_ZTIKNSt3__110shared_ptrI7__sFILEEE",
   "self_type" : "_ZTIRKNSt3__110shared_ptrI7__sFILEEE",
   "size" : 4,
   "source_file" : "external/libcxx/include/memory"
  },
  {
   "alignment" : 4,
   "linker_set_key" : "_ZTIRKNSt3__112basic_stringIcNS_11char_traitsIcEENS_9allocatorIcEEEE",
   "name" : "const std::basic_string<char, std::char_traits<char>, std::allocator<char>> &",
   "referenced_type" : "_ZTIKNSt3__112basic_stringIcNS_11char_traitsIcEENS_9allocatorIcEEEE",
   "self_type" : "_ZTIRKNSt3__112basic_stringIcNS_11char_traitsIcEENS_9allocatorIcEEEE",
   "size" : 4,
   "source_file" : "external/libcxx/include/stdexcept"
  },
  {
   "alignment" : 4,
   "linker_set_key" : "_ZTIRKNSt3__117__compressed_pairIP12SkFILEStreamNS_14default_deleteIS1_EEEE",
   "name" : "const std::__compressed_pair<SkFILEStream *, std::default_delete<SkFILEStream>> &",
   "referenced_type" : "_ZTIKNSt3__117__compressed_pairIP12SkFILEStreamNS_14default_deleteIS1_EEEE",
   "self_type" : "_ZTIRKNSt3__117__compressed_pairIP12SkFILEStreamNS_14default_deleteIS1_EEEE",
   "size" : 4,
   "source_file" : "external/libcxx/include/type_traits"
  },
  {
   "alignment" : 4,
   "linker_set_key" : "_ZTIRKNSt3__117__compressed_pairIP13SkStreamAssetNS_14default_deleteIS1_EEEE",
   "name" : "const std::__compressed_pair<SkStreamAsset *, std::default_delete<SkStreamAsset>> &",
   "referenced_type" : "_ZTIKNSt3__117__compressed_pairIP13SkStreamAssetNS_14default_deleteIS1_EEEE",
   "self_type" : "_ZTIRKNSt3__117__compressed_pairIP13SkStreamAssetNS_14default_deleteIS1_EEEE",
   "size" : 4,
   "source_file" : "external/libcxx/include/type_traits"
  },
  {
   "alignment" : 4,
   "linker_set_key" : "_ZTIRKNSt3__117__compressed_pairIP14SkMemoryStreamNS_14default_deleteIS1_EEEE",
   "name" : "const std::__compressed_pair<SkMemoryStream *, std::default_delete<SkMemoryStream>> &",
   "referenced_type" : "_ZTIKNSt3__117__compressed_pairIP14SkMemoryStreamNS_14default_deleteIS1_EEEE",
   "self_type" : "_ZTIRKNSt3__117__compressed_pairIP14SkMemoryStreamNS_14default_deleteIS1_EEEE",
   "size" : 4,
   "source_file" : "external/libcxx/include/type_traits"
  },
  {
   "alignment" : 4,
   "linker_set_key" : "_ZTIRKNSt3__117__compressed_pairIP14SkStreamMemoryNS_14default_deleteIS1_EEEE",
   "name" : "const std::__compressed_pair<SkStreamMemory *, std::default_delete<SkStreamMemory>> &",
   "referenced_type" : "_ZTIKNSt3__117__compressed_pairIP14SkStreamMemoryNS_14default_deleteIS1_EEEE",
   "self_type" : "_ZTIRKNSt3__117__compressed_pairIP14SkStreamMemoryNS_14default_deleteIS1_EEEE",
   "size" : 4,
   "source_file" : "external/libcxx/include/type_traits"
  },
  {
   "alignment" : 4,
   "linker_set_key" : "_ZTIRKNSt3__117__compressed_pairIP16SkStreamSeekableNS_14default_deleteIS1_EEEE",
   "name" : "const std::__compressed_pair<SkStreamSeekable *, std::default_delete<SkStreamSeekable>> &",
   "referenced_type" : "_ZTIKNSt3__117__compressed_pairIP16SkStreamSeekableNS_14default_deleteIS1_EEEE",
   "self_type" : "_ZTIRKNSt3__117__compressed_pairIP16SkStreamSeekableNS_14default_deleteIS1_EEEE",
   "size" : 4,
   "source_file" : "external/libcxx/include/type_traits"
  },
  {
   "alignment" : 4,
   "linker_set_key" : "_ZTIRKNSt3__117__compressed_pairIP18SkStreamRewindableNS_14default_deleteIS1_EEEE",
   "name" : "const std::__compressed_pair<SkStreamRewindable *, std::default_delete<SkStreamRewindable>> &",
   "referenced_type" : "_ZTIKNSt3__117__compressed_pairIP18SkStreamRewindableNS_14default_deleteIS1_EEEE",
   "self_type" : "_ZTIRKNSt3__117__compressed_pairIP18SkStreamRewindableNS_14default_deleteIS1_EEEE",
   "size" : 4,
   "source_file" : "external/libcxx/include/type_traits"
  },
  {
   "alignment" : 4,
   "linker_set_key" : "_ZTIRKNSt3__117__compressed_pairIP8SkStreamNS_14default_deleteIS1_EEEE",
   "name" : "const std::__compressed_pair<SkStream *, std::default_delete<SkStream>> &",
   "referenced_type" : "_ZTIKNSt3__117__compressed_pairIP8SkStreamNS_14default_deleteIS1_EEEE",
   "self_type" : "_ZTIRKNSt3__117__compressed_pairIP8SkStreamNS_14default_deleteIS1_EEEE",
   "size" : 4,
   "source_file" : "external/libcxx/include/type_traits"
  },
  {
   "alignment" : 4,
   "linker_set_key" : "_ZTIRKNSt3__118__sfinae_ctor_baseILb0ELb0EEE",
   "name" : "const std::__sfinae_ctor_base<false, false> &",
   "referenced_type" : "_ZTIKNSt3__118__sfinae_ctor_baseILb0ELb0EEE",
   "self_type" : "_ZTIRKNSt3__118__sfinae_ctor_baseILb0ELb0EEE",
   "size" : 4,
   "source_file" : "external/libcxx/include/__tuple"
  },
  {
   "alignment" : 4,
   "linker_set_key" : "_ZTIRKNSt3__118__sfinae_ctor_baseILb0ELb1EEE",
   "name" : "const std::__sfinae_ctor_base<false, true> &",
   "referenced_type" : "_ZTIKNSt3__118__sfinae_ctor_baseILb0ELb1EEE",
   "self_type" : "_ZTIRKNSt3__118__sfinae_ctor_baseILb0ELb1EEE",
   "size" : 4,
   "source_file" : "external/libcxx/include/__tuple"
  },
  {
   "alignment" : 4,
   "linker_set_key" : "_ZTIRKNSt3__118__sfinae_ctor_baseILb1ELb0EEE",
   "name" : "const std::__sfinae_ctor_base<true, false> &",
   "referenced_type" : "_ZTIKNSt3__118__sfinae_ctor_baseILb1ELb0EEE",
   "self_type" : "_ZTIRKNSt3__118__sfinae_ctor_baseILb1ELb0EEE",
   "size" : 4,
   "source_file" : "external/libcxx/include/__tuple"
  },
  {
   "alignment" : 4,
   "linker_set_key" : "_ZTIRKNSt3__119__libcpp_debug_infoE",
   "name" : "const std::__libcpp_debug_info &",
   "referenced_type" : "_ZTIKNSt3__119__libcpp_debug_infoE",
   "self_type" : "_ZTIRKNSt3__119__libcpp_debug_infoE",
   "size" : 4,
   "source_file" : "external/libcxx/include/__debug"
  },
  {
   "alignment" : 4,
   "linker_set_key" : "_ZTIRKNSt3__120__sfinae_assign_baseILb0ELb0EEE",
   "name" : "const std::__sfinae_assign_base<false, false> &",
   "referenced_type" : "_ZTIKNSt3__120__sfinae_assign_baseILb0ELb0EEE",
   "self_type" : "_ZTIRKNSt3__120__sfinae_assign_baseILb0ELb0EEE",
   "size" : 4,
   "source_file" : "external/libcxx/include/__tuple"
  },
  {
   "alignment" : 4,
   "linker_set_key" : "_ZTIRKNSt3__120__sfinae_assign_baseILb0ELb1EEE",
   "name" : "const std::__sfinae_assign_base<false, true> &",
   "referenced_type" : "_ZTIKNSt3__120__sfinae_assign_baseILb0ELb1EEE",
   "self_type" : "_ZTIRKNSt3__120__sfinae_assign_baseILb0ELb1EEE",
   "size" : 4,
   "source_file" : "external/libcxx/include/__tuple"
  },
  {
   "alignment" : 4,
   "linker_set_key" : "_ZTIRKNSt3__120__sfinae_assign_baseILb1ELb0EEE",
   "name" : "const std::__sfinae_assign_base<true, false> &",
   "referenced_type" : "_ZTIKNSt3__120__sfinae_assign_baseILb1ELb0EEE",
   "self_type" : "_ZTIRKNSt3__120__sfinae_assign_baseILb1ELb0EEE",
   "size" : 4,
   "source_file" : "external/libcxx/include/__tuple"
  },
  {
   "alignment" : 4,
   "linker_set_key" : "_ZTIRKNSt3__122__compressed_pair_elemINS_14default_deleteI12SkFILEStreamEELi1ELb1EEE",
   "name" : "const std::__compressed_pair_elem<std::default_delete<SkFILEStream>, 1, true> &",
   "referenced_type" : "_ZTIKNSt3__122__compressed_pair_elemINS_14default_deleteI12SkFILEStreamEELi1ELb1EEE",
   "self_type" : "_ZTIRKNSt3__122__compressed_pair_elemINS_14default_deleteI12SkFILEStreamEELi1ELb1EEE",
   "size" : 4,
   "source_file" : "external/libcxx/include/type_traits"
  },
  {
   "alignment" : 4,
   "linker_set_key" : "_ZTIRKNSt3__122__compressed_pair_elemINS_14default_deleteI13SkStreamAssetEELi1ELb1EEE",
   "name" : "const std::__compressed_pair_elem<std::default_delete<SkStreamAsset>, 1, true> &",
   "referenced_type" : "_ZTIKNSt3__122__compressed_pair_elemINS_14default_deleteI13SkStreamAssetEELi1ELb1EEE",
   "self_type" : "_ZTIRKNSt3__122__compressed_pair_elemINS_14default_deleteI13SkStreamAssetEELi1ELb1EEE",
   "size" : 4,
   "source_file" : "external/libcxx/include/type_traits"
  },
  {
   "alignment" : 4,
   "linker_set_key" : "_ZTIRKNSt3__122__compressed_pair_elemINS_14default_deleteI14SkMemoryStreamEELi1ELb1EEE",
   "name" : "const std::__compressed_pair_elem<std::default_delete<SkMemoryStream>, 1, true> &",
   "referenced_type" : "_ZTIKNSt3__122__compressed_pair_elemINS_14default_deleteI14SkMemoryStreamEELi1ELb1EEE",
   "self_type" : "_ZTIRKNSt3__122__compressed_pair_elemINS_14default_deleteI14SkMemoryStreamEELi1ELb1EEE",
   "size" : 4,
   "source_file" : "external/libcxx/include/type_traits"
  },
  {
   "alignment" : 4,
   "linker_set_key" : "_ZTIRKNSt3__122__compressed_pair_elemINS_14default_deleteI14SkStreamMemoryEELi1ELb1EEE",
   "name" : "const std::__compressed_pair_elem<std::default_delete<SkStreamMemory>, 1, true> &",
   "referenced_type" : "_ZTIKNSt3__122__compressed_pair_elemINS_14default_deleteI14SkStreamMemoryEELi1ELb1EEE",
   "self_type" : "_ZTIRKNSt3__122__compressed_pair_elemINS_14default_deleteI14SkStreamMemoryEELi1ELb1EEE",
   "size" : 4,
   "source_file" : "external/libcxx/include/type_traits"
  },
  {
   "alignment" : 4,
   "linker_set_key" : "_ZTIRKNSt3__122__compressed_pair_elemINS_14default_deleteI16SkStreamSeekableEELi1ELb1EEE",
   "name" : "const std::__compressed_pair_elem<std::default_delete<SkStreamSeekable>, 1, true> &",
   "referenced_type" : "_ZTIKNSt3__122__compressed_pair_elemINS_14default_deleteI16SkStreamSeekableEELi1ELb1EEE",
   "self_type" : "_ZTIRKNSt3__122__compressed_pair_elemINS_14default_deleteI16SkStreamSeekableEELi1ELb1EEE",
   "size" : 4,
   "source_file" : "external/libcxx/include/type_traits"
  },
  {
   "alignment" : 4,
   "linker_set_key" : "_ZTIRKNSt3__122__compressed_pair_elemINS_14default_deleteI18SkStreamRewindableEELi1ELb1EEE",
   "name" : "const std::__compressed_pair_elem<std::default_delete<SkStreamRewindable>, 1, true> &",
   "referenced_type" : "_ZTIKNSt3__122__compressed_pair_elemINS_14default_deleteI18SkStreamRewindableEELi1ELb1EEE",
   "self_type" : "_ZTIRKNSt3__122__compressed_pair_elemINS_14default_deleteI18SkStreamRewindableEELi1ELb1EEE",
   "size" : 4,
   "source_file" : "external/libcxx/include/type_traits"
  },
  {
   "alignment" : 4,
   "linker_set_key" : "_ZTIRKNSt3__122__compressed_pair_elemINS_14default_deleteI8SkStreamEELi1ELb1EEE",
   "name" : "const std::__compressed_pair_elem<std::default_delete<SkStream>, 1, true> &",
   "referenced_type" : "_ZTIKNSt3__122__compressed_pair_elemINS_14default_deleteI8SkStreamEELi1ELb1EEE",
   "self_type" : "_ZTIRKNSt3__122__compressed_pair_elemINS_14default_deleteI8SkStreamEELi1ELb1EEE",
   "size" : 4,
   "source_file" : "external/libcxx/include/type_traits"
  },
  {
   "alignment" : 4,
   "linker_set_key" : "_ZTIRKNSt3__122__compressed_pair_elemIP12SkFILEStreamLi0ELb0EEE",
   "name" : "const std::__compressed_pair_elem<SkFILEStream *, 0, false> &",
   "referenced_type" : "_ZTIKNSt3__122__compressed_pair_elemIP12SkFILEStreamLi0ELb0EEE",
   "self_type" : "_ZTIRKNSt3__122__compressed_pair_elemIP12SkFILEStreamLi0ELb0EEE",
   "size" : 4,
   "source_file" : "external/libcxx/include/type_traits"
  },
  {
   "alignment" : 4,
   "linker_set_key" : "_ZTIRKNSt3__122__compressed_pair_elemIP13SkStreamAssetLi0ELb0EEE",
   "name" : "const std::__compressed_pair_elem<SkStreamAsset *, 0, false> &",
   "referenced_type" : "_ZTIKNSt3__122__compressed_pair_elemIP13SkStreamAssetLi0ELb0EEE",
   "self_type" : "_ZTIRKNSt3__122__compressed_pair_elemIP13SkStreamAssetLi0ELb0EEE",
   "size" : 4,
   "source_file" : "external/libcxx/include/type_traits"
  },
  {
   "alignment" : 4,
   "linker_set_key" : "_ZTIRKNSt3__122__compressed_pair_elemIP14SkMemoryStreamLi0ELb0EEE",
   "name" : "const std::__compressed_pair_elem<SkMemoryStream *, 0, false> &",
   "referenced_type" : "_ZTIKNSt3__122__compressed_pair_elemIP14SkMemoryStreamLi0ELb0EEE",
   "self_type" : "_ZTIRKNSt3__122__compressed_pair_elemIP14SkMemoryStreamLi0ELb0EEE",
   "size" : 4,
   "source_file" : "external/libcxx/include/type_traits"
  },
  {
   "alignment" : 4,
   "linker_set_key" : "_ZTIRKNSt3__122__compressed_pair_elemIP14SkStreamMemoryLi0ELb0EEE",
   "name" : "const std::__compressed_pair_elem<SkStreamMemory *, 0, false> &",
   "referenced_type" : "_ZTIKNSt3__122__compressed_pair_elemIP14SkStreamMemoryLi0ELb0EEE",
   "self_type" : "_ZTIRKNSt3__122__compressed_pair_elemIP14SkStreamMemoryLi0ELb0EEE",
   "size" : 4,
   "source_file" : "external/libcxx/include/type_traits"
  },
  {
   "alignment" : 4,
   "linker_set_key" : "_ZTIRKNSt3__122__compressed_pair_elemIP16SkStreamSeekableLi0ELb0EEE",
   "name" : "const std::__compressed_pair_elem<SkStreamSeekable *, 0, false> &",
   "referenced_type" : "_ZTIKNSt3__122__compressed_pair_elemIP16SkStreamSeekableLi0ELb0EEE",
   "self_type" : "_ZTIRKNSt3__122__compressed_pair_elemIP16SkStreamSeekableLi0ELb0EEE",
   "size" : 4,
   "source_file" : "external/libcxx/include/type_traits"
  },
  {
   "alignment" : 4,
   "linker_set_key" : "_ZTIRKNSt3__122__compressed_pair_elemIP18SkStreamRewindableLi0ELb0EEE",
   "name" : "const std::__compressed_pair_elem<SkStreamRewindable *, 0, false> &",
   "referenced_type" : "_ZTIKNSt3__122__compressed_pair_elemIP18SkStreamRewindableLi0ELb0EEE",
   "self_type" : "_ZTIRKNSt3__122__compressed_pair_elemIP18SkStreamRewindableLi0ELb0EEE",
   "size" : 4,
   "source_file" : "external/libcxx/include/type_traits"
  },
  {
   "alignment" : 4,
   "linker_set_key" : "_ZTIRKNSt3__122__compressed_pair_elemIP8SkStreamLi0ELb0EEE",
   "name" : "const std::__compressed_pair_elem<SkStream *, 0, false> &",
   "referenced_type" : "_ZTIKNSt3__122__compressed_pair_elemIP8SkStreamLi0ELb0EEE",
   "self_type" : "_ZTIRKNSt3__122__compressed_pair_elemIP8SkStreamLi0ELb0EEE",
   "size" : 4,
   "source_file" : "external/libcxx/include/type_traits"
  },
  {
   "alignment" : 4,
   "linker_set_key" : "_ZTIRKP12SkFILEStream",
   "name" : "SkFILEStream *const &",
   "referenced_type" : "_ZTIKP12SkFILEStream",
   "self_type" : "_ZTIRKP12SkFILEStream",
   "size" : 4,
   "source_file" : "external/libcxx/include/memory"
  },
  {
   "alignment" : 4,
   "linker_set_key" : "_ZTIRKSt13exception_ptr",
   "name" : "const std::exception_ptr &",
   "referenced_type" : "_ZTIKSt13exception_ptr",
   "self_type" : "_ZTIRKSt13exception_ptr",
   "size" : 4,
   "source_file" : "external/libcxx/include/exception"
  },
  {
   "alignment" : 4,
   "linker_set_key" : "_ZTIRKSt9type_info",
   "name" : "const std::type_info &",
   "referenced_type" : "_ZTIKSt9type_info",
   "self_type" : "_ZTIRKSt9type_info",
   "size" : 4,
   "source_file" : "external/libcxx/include/typeinfo"
  },
  {
   "alignment" : 4,
   "linker_set_key" : "_ZTIRNSt3__110unique_ptrI12SkFILEStreamNS_14default_deleteIS1_EEEE",
   "name" : "std::unique_ptr<SkFILEStream, std::default_delete<SkFILEStream>> &",
   "referenced_type" : "_ZTINSt3__110unique_ptrI12SkFILEStreamNS_14default_deleteIS1_EEEE",
   "self_type" : "_ZTIRNSt3__110unique_ptrI12SkFILEStreamNS_14default_deleteIS1_EEEE",
   "size" : 4,
   "source_file" : "external/libcxx/include/type_traits"
  },
  {
   "alignment" : 4,
   "linker_set_key" : "_ZTIRNSt3__114default_deleteI12SkFILEStreamEE",
   "name" : "std::default_delete<SkFILEStream> &",
   "referenced_type" : "_ZTINSt3__114default_deleteI12SkFILEStreamEE",
   "self_type" : "_ZTIRNSt3__114default_deleteI12SkFILEStreamEE",
   "size" : 4,
   "source_file" : "external/libcxx/include/type_traits"
  },
  {
   "alignment" : 4,
   "linker_set_key" : "_ZTIRNSt3__114default_deleteI13SkStreamAssetEE",
   "name" : "std::default_delete<SkStreamAsset> &",
   "referenced_type" : "_ZTINSt3__114default_deleteI13SkStreamAssetEE",
   "self_type" : "_ZTIRNSt3__114default_deleteI13SkStreamAssetEE",
   "size" : 4,
   "source_file" : "external/libcxx/include/memory"
  },
  {
   "alignment" : 4,
   "linker_set_key" : "_ZTIRNSt3__114default_deleteI14SkMemoryStreamEE",
   "name" : "std::default_delete<SkMemoryStream> &",
   "referenced_type" : "_ZTINSt3__114default_deleteI14SkMemoryStreamEE",
   "self_type" : "_ZTIRNSt3__114default_deleteI14SkMemoryStreamEE",
   "size" : 4,
   "source_file" : "external/libcxx/include/memory"
  },
  {
   "alignment" : 4,
   "linker_set_key" : "_ZTIRNSt3__114default_deleteI14SkStreamMemoryEE",
   "name" : "std::default_delete<SkStreamMemory> &",
   "referenced_type" : "_ZTINSt3__114default_deleteI14SkStreamMemoryEE",
   "self_type" : "_ZTIRNSt3__114default_deleteI14SkStreamMemoryEE",
   "size" : 4,
   "source_file" : "external/libcxx/include/memory"
  },
  {
   "alignment" : 4,
   "linker_set_key" : "_ZTIRNSt3__114default_deleteI16SkStreamSeekableEE",
   "name" : "std::default_delete<SkStreamSeekable> &",
   "referenced_type" : "_ZTINSt3__114default_deleteI16SkStreamSeekableEE",
   "self_type" : "_ZTIRNSt3__114default_deleteI16SkStreamSeekableEE",
   "size" : 4,
   "source_file" : "external/libcxx/include/memory"
  },
  {
   "alignment" : 4,
   "linker_set_key" : "_ZTIRNSt3__114default_deleteI18SkStreamRewindableEE",
   "name" : "std::default_delete<SkStreamRewindable> &",
   "referenced_type" : "_ZTINSt3__114default_deleteI18SkStreamRewindableEE",
   "self_type" : "_ZTIRNSt3__114default_deleteI18SkStreamRewindableEE",
   "size" : 4,
   "source_file" : "external/libcxx/include/memory"
  },
  {
   "alignment" : 4,
   "linker_set_key" : "_ZTIRNSt3__114default_deleteI8SkStreamEE",
   "name" : "std::default_delete<SkStream> &",
   "referenced_type" : "_ZTINSt3__114default_deleteI8SkStreamEE",
   "self_type" : "_ZTIRNSt3__114default_deleteI8SkStreamEE",
   "size" : 4,
   "source_file" : "external/libcxx/include/memory"
  },
  {
   "alignment" : 4,
   "linker_set_key" : "_ZTIRNSt3__118__sfinae_ctor_baseILb0ELb0EEE",
   "name" : "std::__sfinae_ctor_base<false, false> &",
   "referenced_type" : "_ZTINSt3__118__sfinae_ctor_baseILb0ELb0EEE",
   "self_type" : "_ZTIRNSt3__118__sfinae_ctor_baseILb0ELb0EEE",
   "size" : 4,
   "source_file" : "external/libcxx/include/__tuple"
  },
  {
   "alignment" : 4,
   "linker_set_key" : "_ZTIRNSt3__118__sfinae_ctor_baseILb0ELb1EEE",
   "name" : "std::__sfinae_ctor_base<false, true> &",
   "referenced_type" : "_ZTINSt3__118__sfinae_ctor_baseILb0ELb1EEE",
   "self_type" : "_ZTIRNSt3__118__sfinae_ctor_baseILb0ELb1EEE",
   "size" : 4,
   "source_file" : "external/libcxx/include/__tuple"
  },
  {
   "alignment" : 4,
   "linker_set_key" : "_ZTIRNSt3__118__sfinae_ctor_baseILb1ELb0EEE",
   "name" : "std::__sfinae_ctor_base<true, false> &",
   "referenced_type" : "_ZTINSt3__118__sfinae_ctor_baseILb1ELb0EEE",
   "self_type" : "_ZTIRNSt3__118__sfinae_ctor_baseILb1ELb0EEE",
   "size" : 4,
   "source_file" : "external/libcxx/include/__tuple"
  },
  {
   "alignment" : 4,
   "linker_set_key" : "_ZTIRNSt3__120__sfinae_assign_baseILb0ELb1EEE",
   "name" : "std::__sfinae_assign_base<false, true> &",
   "referenced_type" : "_ZTINSt3__120__sfinae_assign_baseILb0ELb1EEE",
   "self_type" : "_ZTIRNSt3__120__sfinae_assign_baseILb0ELb1EEE",
   "size" : 4,
   "source_file" : "external/libcxx/include/__tuple"
  },
  {
   "alignment" : 4,
   "linker_set_key" : "_ZTIRNSt3__120__sfinae_assign_baseILb1ELb0EEE",
   "name" : "std::__sfinae_assign_base<true, false> &",
   "referenced_type" : "_ZTINSt3__120__sfinae_assign_baseILb1ELb0EEE",
   "self_type" : "_ZTIRNSt3__120__sfinae_assign_baseILb1ELb0EEE",
   "size" : 4,
   "source_file" : "external/libcxx/include/__tuple"
  },
  {
   "alignment" : 4,
   "linker_set_key" : "_ZTIRNSt3__122__compressed_pair_elemINS_14default_deleteI12SkFILEStreamEELi1ELb1EEE",
   "name" : "std::__compressed_pair_elem<std::default_delete<SkFILEStream>, 1, true> &",
   "referenced_type" : "_ZTINSt3__122__compressed_pair_elemINS_14default_deleteI12SkFILEStreamEELi1ELb1EEE",
   "self_type" : "_ZTIRNSt3__122__compressed_pair_elemINS_14default_deleteI12SkFILEStreamEELi1ELb1EEE",
   "size" : 4,
   "source_file" : "external/libcxx/include/type_traits"
  },
  {
   "alignment" : 4,
   "linker_set_key" : "_ZTIRNSt3__122__compressed_pair_elemINS_14default_deleteI13SkStreamAssetEELi1ELb1EEE",
   "name" : "std::__compressed_pair_elem<std::default_delete<SkStreamAsset>, 1, true> &",
   "referenced_type" : "_ZTINSt3__122__compressed_pair_elemINS_14default_deleteI13SkStreamAssetEELi1ELb1EEE",
   "self_type" : "_ZTIRNSt3__122__compressed_pair_elemINS_14default_deleteI13SkStreamAssetEELi1ELb1EEE",
   "size" : 4,
   "source_file" : "external/libcxx/include/type_traits"
  },
  {
   "alignment" : 4,
   "linker_set_key" : "_ZTIRNSt3__122__compressed_pair_elemINS_14default_deleteI14SkMemoryStreamEELi1ELb1EEE",
   "name" : "std::__compressed_pair_elem<std::default_delete<SkMemoryStream>, 1, true> &",
   "referenced_type" : "_ZTINSt3__122__compressed_pair_elemINS_14default_deleteI14SkMemoryStreamEELi1ELb1EEE",
   "self_type" : "_ZTIRNSt3__122__compressed_pair_elemINS_14default_deleteI14SkMemoryStreamEELi1ELb1EEE",
   "size" : 4,
   "source_file" : "external/libcxx/include/type_traits"
  },
  {
   "alignment" : 4,
   "linker_set_key" : "_ZTIRNSt3__122__compressed_pair_elemINS_14default_deleteI14SkStreamMemoryEELi1ELb1EEE",
   "name" : "std::__compressed_pair_elem<std::default_delete<SkStreamMemory>, 1, true> &",
   "referenced_type" : "_ZTINSt3__122__compressed_pair_elemINS_14default_deleteI14SkStreamMemoryEELi1ELb1EEE",
   "self_type" : "_ZTIRNSt3__122__compressed_pair_elemINS_14default_deleteI14SkStreamMemoryEELi1ELb1EEE",
   "size" : 4,
   "source_file" : "external/libcxx/include/type_traits"
  },
  {
   "alignment" : 4,
   "linker_set_key" : "_ZTIRNSt3__122__compressed_pair_elemINS_14default_deleteI16SkStreamSeekableEELi1ELb1EEE",
   "name" : "std::__compressed_pair_elem<std::default_delete<SkStreamSeekable>, 1, true> &",
   "referenced_type" : "_ZTINSt3__122__compressed_pair_elemINS_14default_deleteI16SkStreamSeekableEELi1ELb1EEE",
   "self_type" : "_ZTIRNSt3__122__compressed_pair_elemINS_14default_deleteI16SkStreamSeekableEELi1ELb1EEE",
   "size" : 4,
   "source_file" : "external/libcxx/include/type_traits"
  },
  {
   "alignment" : 4,
   "linker_set_key" : "_ZTIRNSt3__122__compressed_pair_elemINS_14default_deleteI18SkStreamRewindableEELi1ELb1EEE",
   "name" : "std::__compressed_pair_elem<std::default_delete<SkStreamRewindable>, 1, true> &",
   "referenced_type" : "_ZTINSt3__122__compressed_pair_elemINS_14default_deleteI18SkStreamRewindableEELi1ELb1EEE",
   "self_type" : "_ZTIRNSt3__122__compressed_pair_elemINS_14default_deleteI18SkStreamRewindableEELi1ELb1EEE",
   "size" : 4,
   "source_file" : "external/libcxx/include/type_traits"
  },
  {
   "alignment" : 4,
   "linker_set_key" : "_ZTIRNSt3__122__compressed_pair_elemINS_14default_deleteI8SkStreamEELi1ELb1EEE",
   "name" : "std::__compressed_pair_elem<std::default_delete<SkStream>, 1, true> &",
   "referenced_type" : "_ZTINSt3__122__compressed_pair_elemINS_14default_deleteI8SkStreamEELi1ELb1EEE",
   "self_type" : "_ZTIRNSt3__122__compressed_pair_elemINS_14default_deleteI8SkStreamEELi1ELb1EEE",
   "size" : 4,
   "source_file" : "external/libcxx/include/type_traits"
  },
  {
   "alignment" : 4,
   "linker_set_key" : "_ZTIRNSt3__122__compressed_pair_elemIP12SkFILEStreamLi0ELb0EEE",
   "name" : "std::__compressed_pair_elem<SkFILEStream *, 0, false> &",
   "referenced_type" : "_ZTINSt3__122__compressed_pair_elemIP12SkFILEStreamLi0ELb0EEE",
   "self_type" : "_ZTIRNSt3__122__compressed_pair_elemIP12SkFILEStreamLi0ELb0EEE",
   "size" : 4,
   "source_file" : "external/libcxx/include/type_traits"
  },
  {
   "alignment" : 4,
   "linker_set_key" : "_ZTIRNSt3__122__compressed_pair_elemIP13SkStreamAssetLi0ELb0EEE",
   "name" : "std::__compressed_pair_elem<SkStreamAsset *, 0, false> &",
   "referenced_type" : "_ZTINSt3__122__compressed_pair_elemIP13SkStreamAssetLi0ELb0EEE",
   "self_type" : "_ZTIRNSt3__122__compressed_pair_elemIP13SkStreamAssetLi0ELb0EEE",
   "size" : 4,
   "source_file" : "external/libcxx/include/type_traits"
  },
  {
   "alignment" : 4,
   "linker_set_key" : "_ZTIRNSt3__122__compressed_pair_elemIP14SkMemoryStreamLi0ELb0EEE",
   "name" : "std::__compressed_pair_elem<SkMemoryStream *, 0, false> &",
   "referenced_type" : "_ZTINSt3__122__compressed_pair_elemIP14SkMemoryStreamLi0ELb0EEE",
   "self_type" : "_ZTIRNSt3__122__compressed_pair_elemIP14SkMemoryStreamLi0ELb0EEE",
   "size" : 4,
   "source_file" : "external/libcxx/include/type_traits"
  },
  {
   "alignment" : 4,
   "linker_set_key" : "_ZTIRNSt3__122__compressed_pair_elemIP14SkStreamMemoryLi0ELb0EEE",
   "name" : "std::__compressed_pair_elem<SkStreamMemory *, 0, false> &",
   "referenced_type" : "_ZTINSt3__122__compressed_pair_elemIP14SkStreamMemoryLi0ELb0EEE",
   "self_type" : "_ZTIRNSt3__122__compressed_pair_elemIP14SkStreamMemoryLi0ELb0EEE",
   "size" : 4,
   "source_file" : "external/libcxx/include/type_traits"
  },
  {
   "alignment" : 4,
   "linker_set_key" : "_ZTIRNSt3__122__compressed_pair_elemIP16SkStreamSeekableLi0ELb0EEE",
   "name" : "std::__compressed_pair_elem<SkStreamSeekable *, 0, false> &",
   "referenced_type" : "_ZTINSt3__122__compressed_pair_elemIP16SkStreamSeekableLi0ELb0EEE",
   "self_type" : "_ZTIRNSt3__122__compressed_pair_elemIP16SkStreamSeekableLi0ELb0EEE",
   "size" : 4,
   "source_file" : "external/libcxx/include/type_traits"
  },
  {
   "alignment" : 4,
   "linker_set_key" : "_ZTIRNSt3__122__compressed_pair_elemIP18SkStreamRewindableLi0ELb0EEE",
   "name" : "std::__compressed_pair_elem<SkStreamRewindable *, 0, false> &",
   "referenced_type" : "_ZTINSt3__122__compressed_pair_elemIP18SkStreamRewindableLi0ELb0EEE",
   "self_type" : "_ZTIRNSt3__122__compressed_pair_elemIP18SkStreamRewindableLi0ELb0EEE",
   "size" : 4,
   "source_file" : "external/libcxx/include/type_traits"
  },
  {
   "alignment" : 4,
   "linker_set_key" : "_ZTIRNSt3__122__compressed_pair_elemIP8SkStreamLi0ELb0EEE",
   "name" : "std::__compressed_pair_elem<SkStream *, 0, false> &",
   "referenced_type" : "_ZTINSt3__122__compressed_pair_elemIP8SkStreamLi0ELb0EEE",
   "self_type" : "_ZTIRNSt3__122__compressed_pair_elemIP8SkStreamLi0ELb0EEE",
   "size" : 4,
   "source_file" : "external/libcxx/include/type_traits"
  },
  {
   "alignment" : 4,
   "linker_set_key" : "_ZTIRNSt3__15tupleIJEEE",
   "name" : "std::tuple<> &",
   "referenced_type" : "_ZTINSt3__15tupleIJEEE",
   "self_type" : "_ZTIRNSt3__15tupleIJEEE",
   "size" : 4,
   "source_file" : "external/libcxx/include/tuple"
  },
  {
   "alignment" : 4,
   "linker_set_key" : "_ZTIRP12SkFILEStream",
   "name" : "SkFILEStream *&",
   "referenced_type" : "_ZTIP12SkFILEStream",
   "self_type" : "_ZTIRP12SkFILEStream",
   "size" : 4,
   "source_file" : "external/libcxx/include/type_traits"
  },
  {
   "alignment" : 4,
   "linker_set_key" : "_ZTIRP13SkStreamAsset",
   "name" : "SkStreamAsset *&",
   "referenced_type" : "_ZTIP13SkStreamAsset",
   "self_type" : "_ZTIRP13SkStreamAsset",
   "size" : 4,
   "source_file" : "external/libcxx/include/type_traits"
  },
  {
   "alignment" : 4,
   "linker_set_key" : "_ZTIRP14SkMemoryStream",
   "name" : "SkMemoryStream *&",
   "referenced_type" : "_ZTIP14SkMemoryStream",
   "self_type" : "_ZTIRP14SkMemoryStream",
   "size" : 4,
   "source_file" : "external/libcxx/include/type_traits"
  },
  {
   "alignment" : 4,
   "linker_set_key" : "_ZTIRP14SkStreamMemory",
   "name" : "SkStreamMemory *&",
   "referenced_type" : "_ZTIP14SkStreamMemory",
   "self_type" : "_ZTIRP14SkStreamMemory",
   "size" : 4,
   "source_file" : "external/libcxx/include/type_traits"
  },
  {
   "alignment" : 4,
   "linker_set_key" : "_ZTIRP16SkStreamSeekable",
   "name" : "SkStreamSeekable *&",
   "referenced_type" : "_ZTIP16SkStreamSeekable",
   "self_type" : "_ZTIRP16SkStreamSeekable",
   "size" : 4,
   "source_file" : "external/libcxx/include/type_traits"
  },
  {
   "alignment" : 4,
   "linker_set_key" : "_ZTIRP18SkStreamRewindable",
   "name" : "SkStreamRewindable *&",
   "referenced_type" : "_ZTIP18SkStreamRewindable",
   "self_type" : "_ZTIRP18SkStreamRewindable",
   "size" : 4,
   "source_file" : "external/libcxx/include/type_traits"
  },
  {
   "alignment" : 4,
   "linker_set_key" : "_ZTIRP8SkStream",
   "name" : "SkStream *&",
   "referenced_type" : "_ZTIP8SkStream",
   "self_type" : "_ZTIRP8SkStream",
   "size" : 4,
   "source_file" : "external/libcxx/include/type_traits"
  },
  {
   "alignment" : 4,
   "linker_set_key" : "_ZTIRSt4byte",
   "name" : "std::byte &",
   "referenced_type" : "_ZTISt4byte",
   "self_type" : "_ZTIRSt4byte",
   "size" : 4,
   "source_file" : "external/libcxx/include/cstddef"
  },
  {
   "alignment" : 4,
   "linker_set_key" : "_ZTIRl",
   "name" : "long &",
   "referenced_type" : "_ZTIl",
   "self_type" : "_ZTIRl",
   "size" : 4,
   "source_file" : "external/libcxx/include/memory"
  }
 ],
 "pointer_types" :
 [
  {
   "alignment" : 4,
   "linker_set_key" : "_ZTIP11user_fpregs",
   "name" : "user_fpregs *",
   "referenced_type" : "_ZTI11user_fpregs",
   "self_type" : "_ZTIP11user_fpregs",
   "size" : 4,
   "source_file" : "bionic/libc/include/sys/user.h"
  },
  {
   "alignment" : 4,
   "linker_set_key" : "_ZTIP12SkFILEStream",
   "name" : "SkFILEStream *",
   "referenced_type" : "_ZTI12SkFILEStream",
   "self_type" : "_ZTIP12SkFILEStream",
   "size" : 4,
   "source_file" : "external/libcxx/include/type_traits"
  },
  {
   "alignment" : 4,
   "linker_set_key" : "_ZTIP12SkRefCntBase",
   "name" : "SkRefCntBase *",
   "referenced_type" : "_ZTI12SkRefCntBase",
   "self_type" : "_ZTIP12SkRefCntBase",
   "size" : 4,
   "source_file" : "external/skia/include/core/SkRefCnt.h"
  },
  {
   "alignment" : 4,
   "linker_set_key" : "_ZTIP13SkNullWStream",
   "name" : "SkNullWStream *",
   "referenced_type" : "_ZTI13SkNullWStream",
   "self_type" : "_ZTIP13SkNullWStream",
   "size" : 4,
   "source_file" : "external/skia/include/core/SkStream.h"
  },
  {
   "alignment" : 4,
   "linker_set_key" : "_ZTIP13SkStreamAsset",
   "name" : "SkStreamAsset *",
   "referenced_type" : "_ZTI13SkStreamAsset",
   "self_type" : "_ZTIP13SkStreamAsset",
   "size" : 4,
   "source_file" : "external/libcxx/include/type_traits"
  },
  {
   "alignment" : 4,
   "linker_set_key" : "_ZTIP14SkMemoryStream",
   "name" : "SkMemoryStream *",
   "referenced_type" : "_ZTI14SkMemoryStream",
   "self_type" : "_ZTIP14SkMemoryStream",
   "size" : 4,
   "source_file" : "external/libcxx/include/type_traits"
  },
  {
   "alignment" : 4,
   "linker_set_key" : "_ZTIP14SkStreamMemory",
   "name" : "SkStreamMemory *",
   "referenced_type" : "_ZTI14SkStreamMemory",
   "self_type" : "_ZTIP14SkStreamMemory",
   "size" : 4,
   "source_file" : "external/libcxx/include/type_traits"
  },
  {
   "alignment" : 4,
   "linker_set_key" : "_ZTIP16SkStreamSeekable",
   "name" : "SkStreamSeekable *",
   "referenced_type" : "_ZTI16SkStreamSeekable",
   "self_type" : "_ZTIP16SkStreamSeekable",
   "size" : 4,
   "source_file" : "external/libcxx/include/type_traits"
  },
  {
   "alignment" : 4,
   "linker_set_key" : "_ZTIP18SkStreamRewindable",
   "name" : "SkStreamRewindable *",
   "referenced_type" : "_ZTI18SkStreamRewindable",
   "self_type" : "_ZTIP18SkStreamRewindable",
   "size" : 4,
   "source_file" : "external/libcxx/include/type_traits"
  },
  {
   "alignment" : 4,
   "linker_set_key" : "_ZTIP19AAssetStreamAdaptor",
   "name" : "AAssetStreamAdaptor *",
   "referenced_type" : "_ZTI19AAssetStreamAdaptor",
   "self_type" : "_ZTIP19AAssetStreamAdaptor",
   "size" : 4,
   "source_file" : "frameworks/base/native/graphics/jni/aassetstreamadaptor.h"
  },
  {
   "alignment" : 4,
   "linker_set_key" : "_ZTIP19__pthread_cleanup_t",
   "name" : "__pthread_cleanup_t *",
   "referenced_type" : "_ZTI19__pthread_cleanup_t",
   "self_type" : "_ZTIP19__pthread_cleanup_t",
   "size" : 4,
   "source_file" : "bionic/libc/include/pthread.h"
  },
  {
   "alignment" : 4,
   "linker_set_key" : "_ZTIP22SkDynamicMemoryWStream",
   "name" : "SkDynamicMemoryWStream *",
   "referenced_type" : "_ZTI22SkDynamicMemoryWStream",
   "self_type" : "_ZTIP22SkDynamicMemoryWStream",
   "size" : 4,
   "source_file" : "external/skia/include/core/SkStream.h"
  },
  {
   "alignment" : 4,
   "linker_set_key" : "_ZTIP5sk_spI6SkDataE",
   "name" : "sk_sp<SkData> *",
   "referenced_type" : "_ZTI5sk_spI6SkDataE",
   "self_type" : "_ZTIP5sk_spI6SkDataE",
   "size" : 4,
   "source_file" : "external/skia/include/core/SkRefCnt.h"
  },
  {
   "alignment" : 4,
   "linker_set_key" : "_ZTIP6AAsset",
   "name" : "AAsset *",
   "referenced_type" : "_ZTI6AAsset",
   "self_type" : "_ZTIP6AAsset",
   "size" : 4,
   "source_file" : "frameworks/base/native/graphics/jni/aassetstreamadaptor.h"
  },
  {
   "alignment" : 4,
   "linker_set_key" : "_ZTIP6SkData",
   "name" : "SkData *",
   "referenced_type" : "_ZTI6SkData",
   "self_type" : "_ZTIP6SkData",
   "size" : 4,
   "source_file" : "external/libcxx/include/type_traits"
  },
  {
   "alignment" : 4,
   "linker_set_key" : "_ZTIP7__sFILE",
   "name" : "__sFILE *",
   "referenced_type" : "_ZTI7__sFILE",
   "self_type" : "_ZTIP7__sFILE",
   "size" : 4,
   "source_file" : "bionic/libc/include/stdio.h"
  },
  {
   "alignment" : 4,
   "linker_set_key" : "_ZTIP7siginfo",
   "name" : "siginfo *",
   "referenced_type" : "_ZTI7siginfo",
   "self_type" : "_ZTIP7siginfo",
   "size" : 4,
   "source_file" : "bionic/libc/kernel/uapi/asm-arm/asm/signal.h"
  },
  {
   "alignment" : 4,
   "linker_set_key" : "_ZTIP8SkStream",
   "name" : "SkStream *",
   "referenced_type" : "_ZTI8SkStream",
   "self_type" : "_ZTIP8SkStream",
   "size" : 4,
   "source_file" : "external/libcxx/include/type_traits"
  },
  {
   "alignment" : 4,
   "linker_set_key" : "_ZTIP8log_time",
   "name" : "log_time *",
   "referenced_type" : "_ZTI8log_time",
   "self_type" : "_ZTIP8log_time",
   "size" : 4,
   "source_file" : "system/logging/liblog/include/log/log_time.h"
  },
  {
   "alignment" : 4,
   "linker_set_key" : "_ZTIP8ucontext",
   "name" : "ucontext *",
   "referenced_type" : "_ZTI8ucontext",
   "self_type" : "_ZTIP8ucontext",
   "size" : 4,
   "source_file" : "bionic/libc/include/sys/ucontext.h"
  },
  {
   "alignment" : 4,
   "linker_set_key" : "_ZTIP9SkWStream",
   "name" : "SkWStream *",
   "referenced_type" : "_ZTI9SkWStream",
   "self_type" : "_ZTIP9SkWStream",
   "size" : 4,
   "source_file" : "external/skia/include/core/SkStream.h"
  },
  {
   "alignment" : 4,
   "linker_set_key" : "_ZTIP9user_regs",
   "name" : "user_regs *",
   "referenced_type" : "_ZTI9user_regs",
   "self_type" : "_ZTIP9user_regs",
   "size" : 4,
   "source_file" : "bionic/libc/include/sys/user.h"
  },
  {
   "alignment" : 4,
   "linker_set_key" : "_ZTIPFPvS_jPKvE",
   "name" : "void *(*)(void *, unsigned int, const void *)",
   "referenced_type" : "_ZTIFPvS_jPKvE",
   "self_type" : "_ZTIPFPvS_jPKvE",
   "size" : 4,
   "source_file" : "bionic/libc/include/malloc.h"
  },
  {
   "alignment" : 4,
   "linker_set_key" : "_ZTIPFPvjPKvE",
   "name" : "void *(*)(unsigned int, const void *)",
   "referenced_type" : "_ZTIFPvjPKvE",
   "self_type" : "_ZTIPFPvjPKvE",
   "size" : 4,
   "source_file" : "bionic/libc/include/malloc.h"
  },
  {
   "alignment" : 4,
   "linker_set_key" : "_ZTIPFPvjjPKvE",
   "name" : "void *(*)(unsigned int, unsigned int, const void *)",
   "referenced_type" : "_ZTIFPvjjPKvE",
   "self_type" : "_ZTIPFPvjjPKvE",
   "size" : 4,
   "source_file" : "bionic/libc/include/malloc.h"
  },
  {
   "alignment" : 4,
   "linker_set_key" : "_ZTIPFv6sigvalE",
   "name" : "void (*)(sigval)",
   "referenced_type" : "_ZTIFv6sigvalE",
   "self_type" : "_ZTIPFv6sigvalE",
   "size" : 4,
   "source_file" : "bionic/libc/kernel/uapi/asm-generic/siginfo.h"
  },
  {
   "alignment" : 4,
   "linker_set_key" : "_ZTIPFvPKvPvE",
   "name" : "void (*)(const void *, void *)",
   "referenced_type" : "_ZTIFvPKvPvE",
   "self_type" : "_ZTIPFvPKvPvE",
   "size" : 4,
   "source_file" : "external/skia/include/core/SkData.h"
  },
  {
   "alignment" : 4,
   "linker_set_key" : "_ZTIPFvPvE",
   "name" : "void (*)(void *)",
   "referenced_type" : "_ZTIFvPvE",
   "self_type" : "_ZTIPFvPvE",
   "size" : 4,
   "source_file" : "bionic/libc/include/pthread.h"
  },
  {
   "alignment" : 4,
   "linker_set_key" : "_ZTIPFvPvPKvE",
   "name" : "void (*)(void *, const void *)",
   "referenced_type" : "_ZTIFvPvPKvE",
   "self_type" : "_ZTIPFvPvPKvE",
   "size" : 4,
   "source_file" : "bionic/libc/include/malloc.h"
  },
  {
   "alignment" : 4,
   "linker_set_key" : "_ZTIPFvRKNSt3__119__libcpp_debug_infoEE",
   "name" : "void (*)(const std::__1::__libcpp_debug_info &)",
   "referenced_type" : "_ZTIFvRKNSt3__119__libcpp_debug_infoEE",
   "self_type" : "_ZTIPFvRKNSt3__119__libcpp_debug_infoEE",
   "size" : 4,
   "source_file" : "external/libcxx/include/__debug"
  },
  {
   "alignment" : 4,
   "linker_set_key" : "_ZTIPFviE",
   "name" : "void (*)(int)",
   "referenced_type" : "_ZTIFviE",
   "self_type" : "_ZTIPFviE",
   "size" : 4,
   "source_file" : "bionic/libc/kernel/uapi/asm-arm/asm/signal.h"
  },
  {
   "alignment" : 4,
   "linker_set_key" : "_ZTIPFviP7siginfoPvE",
   "name" : "void (*)(int, siginfo *, void *)",
   "referenced_type" : "_ZTIFviP7siginfoPvE",
   "self_type" : "_ZTIPFviP7siginfoPvE",
   "size" : 4,
   "source_file" : "bionic/libc/kernel/uapi/asm-arm/asm/signal.h"
  },
  {
   "alignment" : 4,
   "linker_set_key" : "_ZTIPFvvE",
   "name" : "void (*)()",
   "referenced_type" : "_ZTIFvvE",
   "self_type" : "_ZTIPFvvE",
   "size" : 4,
   "source_file" : "bionic/libc/kernel/uapi/asm-arm/asm/signal.h"
  },
  {
   "alignment" : 4,
   "linker_set_key" : "_ZTIPK10SkNVRefCntI6SkDataE",
   "name" : "const SkNVRefCnt<SkData> *",
   "referenced_type" : "_ZTIK10SkNVRefCntI6SkDataE",
   "self_type" : "_ZTIPK10SkNVRefCntI6SkDataE",
   "size" : 4,
   "source_file" : "external/skia/include/core/SkRefCnt.h"
  },
  {
   "alignment" : 4,
   "linker_set_key" : "_ZTIPK12SkFILEStream",
   "name" : "const SkFILEStream *",
   "referenced_type" : "_ZTIK12SkFILEStream",
   "self_type" : "_ZTIPK12SkFILEStream",
   "size" : 4,
   "source_file" : "external/skia/include/core/SkStream.h"
  },
  {
   "alignment" : 4,
   "linker_set_key" : "_ZTIPK12SkRefCntBase",
   "name" : "const SkRefCntBase *",
   "referenced_type" : "_ZTIK12SkRefCntBase",
   "self_type" : "_ZTIPK12SkRefCntBase",
   "size" : 4,
   "source_file" : "external/skia/include/core/SkRefCnt.h"
  },
  {
   "alignment" : 4,
   "linker_set_key" : "_ZTIPK13SkFILEWStream",
   "name" : "const SkFILEWStream *",
   "referenced_type" : "_ZTIK13SkFILEWStream",
   "self_type" : "_ZTIPK13SkFILEWStream",
   "size" : 4,
   "source_file" : "external/skia/include/core/SkStream.h"
  },
  {
   "alignment" : 4,
   "linker_set_key" : "_ZTIPK13SkNullWStream",
   "name" : "const SkNullWStream *",
   "referenced_type" : "_ZTIK13SkNullWStream",
   "self_type" : "_ZTIPK13SkNullWStream",
   "size" : 4,
   "source_file" : "external/skia/include/core/SkStream.h"
  },
  {
   "alignment" : 4,
   "linker_set_key" : "_ZTIPK13SkStreamAsset",
   "name" : "const SkStreamAsset *",
   "referenced_type" : "_ZTIK13SkStreamAsset",
   "self_type" : "_ZTIPK13SkStreamAsset",
   "size" : 4,
   "source_file" : "external/skia/include/core/SkStream.h"
  },
  {
   "alignment" : 4,
   "linker_set_key" : "_ZTIPK14SkMemoryStream",
   "name" : "const SkMemoryStream *",
   "referenced_type" : "_ZTIK14SkMemoryStream",
   "self_type" : "_ZTIPK14SkMemoryStream",
   "size" : 4,
   "source_file" : "external/skia/include/core/SkStream.h"
  },
  {
   "alignment" : 4,
   "linker_set_key" : "_ZTIPK14SkStreamMemory",
   "name" : "const SkStreamMemory *",
   "referenced_type" : "_ZTIK14SkStreamMemory",
   "self_type" : "_ZTIPK14SkStreamMemory",
   "size" : 4,
   "source_file" : "external/skia/include/core/SkStream.h"
  },
  {
   "alignment" : 4,
   "linker_set_key" : "_ZTIPK16SkStreamSeekable",
   "name" : "const SkStreamSeekable *",
   "referenced_type" : "_ZTIK16SkStreamSeekable",
   "self_type" : "_ZTIPK16SkStreamSeekable",
   "size" : 4,
   "source_file" : "external/skia/include/core/SkStream.h"
  },
  {
   "alignment" : 4,
   "linker_set_key" : "_ZTIPK18SkStreamRewindable",
   "name" : "const SkStreamRewindable *",
   "referenced_type" : "_ZTIK18SkStreamRewindable",
   "self_type" : "_ZTIPK18SkStreamRewindable",
   "size" : 4,
   "source_file" : "external/skia/include/core/SkStream.h"
  },
  {
   "alignment" : 4,
   "linker_set_key" : "_ZTIPK19AAssetStreamAdaptor",
   "name" : "const AAssetStreamAdaptor *",
   "referenced_type" : "_ZTIK19AAssetStreamAdaptor",
   "self_type" : "_ZTIPK19AAssetStreamAdaptor",
   "size" : 4,
   "source_file" : "frameworks/base/native/graphics/jni/aassetstreamadaptor.h"
  },
  {
   "alignment" : 4,
   "linker_set_key" : "_ZTIPK22SkDynamicMemoryWStream",
   "name" : "const SkDynamicMemoryWStream *",
   "referenced_type" : "_ZTIK22SkDynamicMemoryWStream",
   "self_type" : "_ZTIPK22SkDynamicMemoryWStream",
   "size" : 4,
   "source_file" : "external/skia/include/core/SkStream.h"
  },
  {
   "alignment" : 4,
   "linker_set_key" : "_ZTIPK5sk_spI6SkDataE",
   "name" : "const sk_sp<SkData> *",
   "referenced_type" : "_ZTIK5sk_spI6SkDataE",
   "self_type" : "_ZTIPK5sk_spI6SkDataE",
   "size" : 4,
   "source_file" : "external/skia/include/core/SkRefCnt.h"
  },
  {
   "alignment" : 4,
   "linker_set_key" : "_ZTIPK6SkData",
   "name" : "const SkData *",
   "referenced_type" : "_ZTIK6SkData",
   "self_type" : "_ZTIPK6SkData",
   "size" : 4,
   "source_file" : "external/skia/include/core/SkData.h"
  },
  {
   "alignment" : 4,
   "linker_set_key" : "_ZTIPK8SkStream",
   "name" : "const SkStream *",
   "referenced_type" : "_ZTIK8SkStream",
   "self_type" : "_ZTIPK8SkStream",
   "size" : 4,
   "source_file" : "external/skia/include/core/SkStream.h"
  },
  {
   "alignment" : 4,
   "linker_set_key" : "_ZTIPK8log_time",
   "name" : "const log_time *",
   "referenced_type" : "_ZTIK8log_time",
   "self_type" : "_ZTIPK8log_time",
   "size" : 4,
   "source_file" : "system/logging/liblog/include/log/log_time.h"
  },
  {
   "alignment" : 4,
   "linker_set_key" : "_ZTIPKNSt3__110shared_ptrI7__sFILEEE",
   "name" : "const std::shared_ptr<__sFILE> *",
   "referenced_type" : "_ZTIKNSt3__110shared_ptrI7__sFILEEE",
   "self_type" : "_ZTIPKNSt3__110shared_ptrI7__sFILEEE",
   "size" : 4,
   "source_file" : "external/libcxx/include/memory"
  },
  {
   "alignment" : 4,
   "linker_set_key" : "_ZTIPKNSt3__110unique_ptrI12SkFILEStreamNS_14default_deleteIS1_EEEE",
   "name" : "const std::unique_ptr<SkFILEStream, std::default_delete<SkFILEStream>> *",
   "referenced_type" : "_ZTIKNSt3__110unique_ptrI12SkFILEStreamNS_14default_deleteIS1_EEEE",
   "self_type" : "_ZTIPKNSt3__110unique_ptrI12SkFILEStreamNS_14default_deleteIS1_EEEE",
   "size" : 4,
   "source_file" : "external/libcxx/include/memory"
  },
  {
   "alignment" : 4,
   "linker_set_key" : "_ZTIPKNSt3__113__atomic_baseIiLb0EEE",
   "name" : "const std::__atomic_base<int, false> *",
   "referenced_type" : "_ZTIKNSt3__113__atomic_baseIiLb0EEE",
   "self_type" : "_ZTIPKNSt3__113__atomic_baseIiLb0EEE",
   "size" : 4,
   "source_file" : "external/libcxx/include/atomic"
  },
  {
   "alignment" : 4,
   "linker_set_key" : "_ZTIPKNSt3__113__scalar_hashINS_6_PairTELj2EEE",
   "name" : "const std::__scalar_hash<std::_PairT, 2> *",
   "referenced_type" : "_ZTIKNSt3__113__scalar_hashINS_6_PairTELj2EEE",
   "self_type" : "_ZTIPKNSt3__113__scalar_hashINS_6_PairTELj2EEE",
   "size" : 4,
   "source_file" : "external/libcxx/include/utility"
  },
  {
   "alignment" : 4,
   "linker_set_key" : "_ZTIPKNSt3__113__scalar_hashIdLj2EEE",
   "name" : "const std::__scalar_hash<double, 2> *",
   "referenced_type" : "_ZTIKNSt3__113__scalar_hashIdLj2EEE",
   "self_type" : "_ZTIPKNSt3__113__scalar_hashIdLj2EEE",
   "size" : 4,
   "source_file" : "external/libcxx/include/utility"
  },
  {
   "alignment" : 4,
   "linker_set_key" : "_ZTIPKNSt3__113__scalar_hashIeLj2EEE",
   "name" : "const std::__scalar_hash<long double, 2> *",
   "referenced_type" : "_ZTIKNSt3__113__scalar_hashIeLj2EEE",
   "self_type" : "_ZTIPKNSt3__113__scalar_hashIeLj2EEE",
   "size" : 4,
   "source_file" : "external/libcxx/include/utility"
  },
  {
   "alignment" : 4,
   "linker_set_key" : "_ZTIPKNSt3__113__scalar_hashIfLj1EEE",
   "name" : "const std::__scalar_hash<float, 1> *",
   "referenced_type" : "_ZTIKNSt3__113__scalar_hashIfLj1EEE",
   "self_type" : "_ZTIPKNSt3__113__scalar_hashIfLj1EEE",
   "size" : 4,
   "source_file" : "external/libcxx/include/utility"
  },
  {
   "alignment" : 4,
   "linker_set_key" : "_ZTIPKNSt3__114__shared_countE",
   "name" : "const std::__shared_count *",
   "referenced_type" : "_ZTIKNSt3__114__shared_countE",
   "self_type" : "_ZTIPKNSt3__114__shared_countE",
   "size" : 4,
   "source_file" : "external/libcxx/include/memory"
  },
  {
   "alignment" : 4,
   "linker_set_key" : "_ZTIPKNSt3__114default_deleteI12SkFILEStreamEE",
   "name" : "const std::default_delete<SkFILEStream> *",
   "referenced_type" : "_ZTIKNSt3__114default_deleteI12SkFILEStreamEE",
   "self_type" : "_ZTIPKNSt3__114default_deleteI12SkFILEStreamEE",
   "size" : 4,
   "source_file" : "external/libcxx/include/memory"
  },
  {
   "alignment" : 4,
   "linker_set_key" : "_ZTIPKNSt3__114default_deleteI13SkStreamAssetEE",
   "name" : "const std::default_delete<SkStreamAsset> *",
   "referenced_type" : "_ZTIKNSt3__114default_deleteI13SkStreamAssetEE",
   "self_type" : "_ZTIPKNSt3__114default_deleteI13SkStreamAssetEE",
   "size" : 4,
   "source_file" : "external/libcxx/include/memory"
  },
  {
   "alignment" : 4,
   "linker_set_key" : "_ZTIPKNSt3__114default_deleteI14SkMemoryStreamEE",
   "name" : "const std::default_delete<SkMemoryStream> *",
   "referenced_type" : "_ZTIKNSt3__114default_deleteI14SkMemoryStreamEE",
   "self_type" : "_ZTIPKNSt3__114default_deleteI14SkMemoryStreamEE",
   "size" : 4,
   "source_file" : "external/libcxx/include/memory"
  },
  {
   "alignment" : 4,
   "linker_set_key" : "_ZTIPKNSt3__114default_deleteI14SkStreamMemoryEE",
   "name" : "const std::default_delete<SkStreamMemory> *",
   "referenced_type" : "_ZTIKNSt3__114default_deleteI14SkStreamMemoryEE",
   "self_type" : "_ZTIPKNSt3__114default_deleteI14SkStreamMemoryEE",
   "size" : 4,
   "source_file" : "external/libcxx/include/memory"
  },
  {
   "alignment" : 4,
   "linker_set_key" : "_ZTIPKNSt3__114default_deleteI16SkStreamSeekableEE",
   "name" : "const std::default_delete<SkStreamSeekable> *",
   "referenced_type" : "_ZTIKNSt3__114default_deleteI16SkStreamSeekableEE",
   "self_type" : "_ZTIPKNSt3__114default_deleteI16SkStreamSeekableEE",
   "size" : 4,
   "source_file" : "external/libcxx/include/memory"
  },
  {
   "alignment" : 4,
   "linker_set_key" : "_ZTIPKNSt3__114default_deleteI18SkStreamRewindableEE",
   "name" : "const std::default_delete<SkStreamRewindable> *",
   "referenced_type" : "_ZTIKNSt3__114default_deleteI18SkStreamRewindableEE",
   "self_type" : "_ZTIPKNSt3__114default_deleteI18SkStreamRewindableEE",
   "size" : 4,
   "source_file" : "external/libcxx/include/memory"
  },
  {
   "alignment" : 4,
   "linker_set_key" : "_ZTIPKNSt3__114default_deleteI8SkStreamEE",
   "name" : "const std::default_delete<SkStream> *",
   "referenced_type" : "_ZTIKNSt3__114default_deleteI8SkStreamEE",
   "self_type" : "_ZTIPKNSt3__114default_deleteI8SkStreamEE",
   "size" : 4,
   "source_file" : "external/libcxx/include/memory"
  },
  {
   "alignment" : 4,
   "linker_set_key" : "_ZTIPKNSt3__114pointer_safetyE",
   "name" : "const std::pointer_safety *",
   "referenced_type" : "_ZTIKNSt3__114pointer_safetyE",
   "self_type" : "_ZTIPKNSt3__114pointer_safetyE",
   "size" : 4,
   "source_file" : "external/libcxx/include/memory"
  },
  {
   "alignment" : 4,
   "linker_set_key" : "_ZTIPKNSt3__117__compressed_pairIP12SkFILEStreamNS_14default_deleteIS1_EEEE",
   "name" : "const std::__compressed_pair<SkFILEStream *, std::default_delete<SkFILEStream>> *",
   "referenced_type" : "_ZTIKNSt3__117__compressed_pairIP12SkFILEStreamNS_14default_deleteIS1_EEEE",
   "self_type" : "_ZTIPKNSt3__117__compressed_pairIP12SkFILEStreamNS_14default_deleteIS1_EEEE",
   "size" : 4,
   "source_file" : "external/libcxx/include/type_traits"
  },
  {
   "alignment" : 4,
   "linker_set_key" : "_ZTIPKNSt3__117__compressed_pairIP13SkStreamAssetNS_14default_deleteIS1_EEEE",
   "name" : "const std::__compressed_pair<SkStreamAsset *, std::default_delete<SkStreamAsset>> *",
   "referenced_type" : "_ZTIKNSt3__117__compressed_pairIP13SkStreamAssetNS_14default_deleteIS1_EEEE",
   "self_type" : "_ZTIPKNSt3__117__compressed_pairIP13SkStreamAssetNS_14default_deleteIS1_EEEE",
   "size" : 4,
   "source_file" : "external/libcxx/include/type_traits"
  },
  {
   "alignment" : 4,
   "linker_set_key" : "_ZTIPKNSt3__117__compressed_pairIP14SkMemoryStreamNS_14default_deleteIS1_EEEE",
   "name" : "const std::__compressed_pair<SkMemoryStream *, std::default_delete<SkMemoryStream>> *",
   "referenced_type" : "_ZTIKNSt3__117__compressed_pairIP14SkMemoryStreamNS_14default_deleteIS1_EEEE",
   "self_type" : "_ZTIPKNSt3__117__compressed_pairIP14SkMemoryStreamNS_14default_deleteIS1_EEEE",
   "size" : 4,
   "source_file" : "external/libcxx/include/type_traits"
  },
  {
   "alignment" : 4,
   "linker_set_key" : "_ZTIPKNSt3__117__compressed_pairIP14SkStreamMemoryNS_14default_deleteIS1_EEEE",
   "name" : "const std::__compressed_pair<SkStreamMemory *, std::default_delete<SkStreamMemory>> *",
   "referenced_type" : "_ZTIKNSt3__117__compressed_pairIP14SkStreamMemoryNS_14default_deleteIS1_EEEE",
   "self_type" : "_ZTIPKNSt3__117__compressed_pairIP14SkStreamMemoryNS_14default_deleteIS1_EEEE",
   "size" : 4,
   "source_file" : "external/libcxx/include/type_traits"
  },
  {
   "alignment" : 4,
   "linker_set_key" : "_ZTIPKNSt3__117__compressed_pairIP16SkStreamSeekableNS_14default_deleteIS1_EEEE",
   "name" : "const std::__compressed_pair<SkStreamSeekable *, std::default_delete<SkStreamSeekable>> *",
   "referenced_type" : "_ZTIKNSt3__117__compressed_pairIP16SkStreamSeekableNS_14default_deleteIS1_EEEE",
   "self_type" : "_ZTIPKNSt3__117__compressed_pairIP16SkStreamSeekableNS_14default_deleteIS1_EEEE",
   "size" : 4,
   "source_file" : "external/libcxx/include/type_traits"
  },
  {
   "alignment" : 4,
   "linker_set_key" : "_ZTIPKNSt3__117__compressed_pairIP18SkStreamRewindableNS_14default_deleteIS1_EEEE",
   "name" : "const std::__compressed_pair<SkStreamRewindable *, std::default_delete<SkStreamRewindable>> *",
   "referenced_type" : "_ZTIKNSt3__117__compressed_pairIP18SkStreamRewindableNS_14default_deleteIS1_EEEE",
   "self_type" : "_ZTIPKNSt3__117__compressed_pairIP18SkStreamRewindableNS_14default_deleteIS1_EEEE",
   "size" : 4,
   "source_file" : "external/libcxx/include/type_traits"
  },
  {
   "alignment" : 4,
   "linker_set_key" : "_ZTIPKNSt3__117__compressed_pairIP8SkStreamNS_14default_deleteIS1_EEEE",
   "name" : "const std::__compressed_pair<SkStream *, std::default_delete<SkStream>> *",
   "referenced_type" : "_ZTIKNSt3__117__compressed_pairIP8SkStreamNS_14default_deleteIS1_EEEE",
   "self_type" : "_ZTIPKNSt3__117__compressed_pairIP8SkStreamNS_14default_deleteIS1_EEEE",
   "size" : 4,
   "source_file" : "external/libcxx/include/type_traits"
  },
  {
   "alignment" : 4,
   "linker_set_key" : "_ZTIPKNSt3__118__libcpp_refstringE",
   "name" : "const std::__libcpp_refstring *",
   "referenced_type" : "_ZTIKNSt3__118__libcpp_refstringE",
   "self_type" : "_ZTIPKNSt3__118__libcpp_refstringE",
   "size" : 4,
   "source_file" : "external/libcxx/include/stdexcept"
  },
  {
   "alignment" : 4,
   "linker_set_key" : "_ZTIPKNSt3__119__shared_weak_countE",
   "name" : "const std::__shared_weak_count *",
   "referenced_type" : "_ZTIKNSt3__119__shared_weak_countE",
   "self_type" : "_ZTIPKNSt3__119__shared_weak_countE",
   "size" : 4,
   "source_file" : "external/libcxx/include/memory"
  },
  {
   "alignment" : 4,
   "linker_set_key" : "_ZTIPKNSt3__122__compressed_pair_elemINS_14default_deleteI12SkFILEStreamEELi1ELb1EEE",
   "name" : "const std::__compressed_pair_elem<std::default_delete<SkFILEStream>, 1, true> *",
   "referenced_type" : "_ZTIKNSt3__122__compressed_pair_elemINS_14default_deleteI12SkFILEStreamEELi1ELb1EEE",
   "self_type" : "_ZTIPKNSt3__122__compressed_pair_elemINS_14default_deleteI12SkFILEStreamEELi1ELb1EEE",
   "size" : 4,
   "source_file" : "external/libcxx/include/type_traits"
  },
  {
   "alignment" : 4,
   "linker_set_key" : "_ZTIPKNSt3__122__compressed_pair_elemINS_14default_deleteI13SkStreamAssetEELi1ELb1EEE",
   "name" : "const std::__compressed_pair_elem<std::default_delete<SkStreamAsset>, 1, true> *",
   "referenced_type" : "_ZTIKNSt3__122__compressed_pair_elemINS_14default_deleteI13SkStreamAssetEELi1ELb1EEE",
   "self_type" : "_ZTIPKNSt3__122__compressed_pair_elemINS_14default_deleteI13SkStreamAssetEELi1ELb1EEE",
   "size" : 4,
   "source_file" : "external/libcxx/include/type_traits"
  },
  {
   "alignment" : 4,
   "linker_set_key" : "_ZTIPKNSt3__122__compressed_pair_elemINS_14default_deleteI14SkMemoryStreamEELi1ELb1EEE",
   "name" : "const std::__compressed_pair_elem<std::default_delete<SkMemoryStream>, 1, true> *",
   "referenced_type" : "_ZTIKNSt3__122__compressed_pair_elemINS_14default_deleteI14SkMemoryStreamEELi1ELb1EEE",
   "self_type" : "_ZTIPKNSt3__122__compressed_pair_elemINS_14default_deleteI14SkMemoryStreamEELi1ELb1EEE",
   "size" : 4,
   "source_file" : "external/libcxx/include/type_traits"
  },
  {
   "alignment" : 4,
   "linker_set_key" : "_ZTIPKNSt3__122__compressed_pair_elemINS_14default_deleteI14SkStreamMemoryEELi1ELb1EEE",
   "name" : "const std::__compressed_pair_elem<std::default_delete<SkStreamMemory>, 1, true> *",
   "referenced_type" : "_ZTIKNSt3__122__compressed_pair_elemINS_14default_deleteI14SkStreamMemoryEELi1ELb1EEE",
   "self_type" : "_ZTIPKNSt3__122__compressed_pair_elemINS_14default_deleteI14SkStreamMemoryEELi1ELb1EEE",
   "size" : 4,
   "source_file" : "external/libcxx/include/type_traits"
  },
  {
   "alignment" : 4,
   "linker_set_key" : "_ZTIPKNSt3__122__compressed_pair_elemINS_14default_deleteI16SkStreamSeekableEELi1ELb1EEE",
   "name" : "const std::__compressed_pair_elem<std::default_delete<SkStreamSeekable>, 1, true> *",
   "referenced_type" : "_ZTIKNSt3__122__compressed_pair_elemINS_14default_deleteI16SkStreamSeekableEELi1ELb1EEE",
   "self_type" : "_ZTIPKNSt3__122__compressed_pair_elemINS_14default_deleteI16SkStreamSeekableEELi1ELb1EEE",
   "size" : 4,
   "source_file" : "external/libcxx/include/type_traits"
  },
  {
   "alignment" : 4,
   "linker_set_key" : "_ZTIPKNSt3__122__compressed_pair_elemINS_14default_deleteI18SkStreamRewindableEELi1ELb1EEE",
   "name" : "const std::__compressed_pair_elem<std::default_delete<SkStreamRewindable>, 1, true> *",
   "referenced_type" : "_ZTIKNSt3__122__compressed_pair_elemINS_14default_deleteI18SkStreamRewindableEELi1ELb1EEE",
   "self_type" : "_ZTIPKNSt3__122__compressed_pair_elemINS_14default_deleteI18SkStreamRewindableEELi1ELb1EEE",
   "size" : 4,
   "source_file" : "external/libcxx/include/type_traits"
  },
  {
   "alignment" : 4,
   "linker_set_key" : "_ZTIPKNSt3__122__compressed_pair_elemINS_14default_deleteI8SkStreamEELi1ELb1EEE",
   "name" : "const std::__compressed_pair_elem<std::default_delete<SkStream>, 1, true> *",
   "referenced_type" : "_ZTIKNSt3__122__compressed_pair_elemINS_14default_deleteI8SkStreamEELi1ELb1EEE",
   "self_type" : "_ZTIPKNSt3__122__compressed_pair_elemINS_14default_deleteI8SkStreamEELi1ELb1EEE",
   "size" : 4,
   "source_file" : "external/libcxx/include/type_traits"
  },
  {
   "alignment" : 4,
   "linker_set_key" : "_ZTIPKNSt3__122__compressed_pair_elemIP12SkFILEStreamLi0ELb0EEE",
   "name" : "const std::__compressed_pair_elem<SkFILEStream *, 0, false> *",
   "referenced_type" : "_ZTIKNSt3__122__compressed_pair_elemIP12SkFILEStreamLi0ELb0EEE",
   "self_type" : "_ZTIPKNSt3__122__compressed_pair_elemIP12SkFILEStreamLi0ELb0EEE",
   "size" : 4,
   "source_file" : "external/libcxx/include/type_traits"
  },
  {
   "alignment" : 4,
   "linker_set_key" : "_ZTIPKNSt3__122__compressed_pair_elemIP13SkStreamAssetLi0ELb0EEE",
   "name" : "const std::__compressed_pair_elem<SkStreamAsset *, 0, false> *",
   "referenced_type" : "_ZTIKNSt3__122__compressed_pair_elemIP13SkStreamAssetLi0ELb0EEE",
   "self_type" : "_ZTIPKNSt3__122__compressed_pair_elemIP13SkStreamAssetLi0ELb0EEE",
   "size" : 4,
   "source_file" : "external/libcxx/include/type_traits"
  },
  {
   "alignment" : 4,
   "linker_set_key" : "_ZTIPKNSt3__122__compressed_pair_elemIP14SkMemoryStreamLi0ELb0EEE",
   "name" : "const std::__compressed_pair_elem<SkMemoryStream *, 0, false> *",
   "referenced_type" : "_ZTIKNSt3__122__compressed_pair_elemIP14SkMemoryStreamLi0ELb0EEE",
   "self_type" : "_ZTIPKNSt3__122__compressed_pair_elemIP14SkMemoryStreamLi0ELb0EEE",
   "size" : 4,
   "source_file" : "external/libcxx/include/type_traits"
  },
  {
   "alignment" : 4,
   "linker_set_key" : "_ZTIPKNSt3__122__compressed_pair_elemIP14SkStreamMemoryLi0ELb0EEE",
   "name" : "const std::__compressed_pair_elem<SkStreamMemory *, 0, false> *",
   "referenced_type" : "_ZTIKNSt3__122__compressed_pair_elemIP14SkStreamMemoryLi0ELb0EEE",
   "self_type" : "_ZTIPKNSt3__122__compressed_pair_elemIP14SkStreamMemoryLi0ELb0EEE",
   "size" : 4,
   "source_file" : "external/libcxx/include/type_traits"
  },
  {
   "alignment" : 4,
   "linker_set_key" : "_ZTIPKNSt3__122__compressed_pair_elemIP16SkStreamSeekableLi0ELb0EEE",
   "name" : "const std::__compressed_pair_elem<SkStreamSeekable *, 0, false> *",
   "referenced_type" : "_ZTIKNSt3__122__compressed_pair_elemIP16SkStreamSeekableLi0ELb0EEE",
   "self_type" : "_ZTIPKNSt3__122__compressed_pair_elemIP16SkStreamSeekableLi0ELb0EEE",
   "size" : 4,
   "source_file" : "external/libcxx/include/type_traits"
  },
  {
   "alignment" : 4,
   "linker_set_key" : "_ZTIPKNSt3__122__compressed_pair_elemIP18SkStreamRewindableLi0ELb0EEE",
   "name" : "const std::__compressed_pair_elem<SkStreamRewindable *, 0, false> *",
   "referenced_type" : "_ZTIKNSt3__122__compressed_pair_elemIP18SkStreamRewindableLi0ELb0EEE",
   "self_type" : "_ZTIPKNSt3__122__compressed_pair_elemIP18SkStreamRewindableLi0ELb0EEE",
   "size" : 4,
   "source_file" : "external/libcxx/include/type_traits"
  },
  {
   "alignment" : 4,
   "linker_set_key" : "_ZTIPKNSt3__122__compressed_pair_elemIP8SkStreamLi0ELb0EEE",
   "name" : "const std::__compressed_pair_elem<SkStream *, 0, false> *",
   "referenced_type" : "_ZTIKNSt3__122__compressed_pair_elemIP8SkStreamLi0ELb0EEE",
   "self_type" : "_ZTIPKNSt3__122__compressed_pair_elemIP8SkStreamLi0ELb0EEE",
   "size" : 4,
   "source_file" : "external/libcxx/include/type_traits"
  },
  {
   "alignment" : 4,
   "linker_set_key" : "_ZTIPKNSt3__14hashIDiEE",
   "name" : "const std::hash<char32_t> *",
   "referenced_type" : "_ZTIKNSt3__14hashIDiEE",
   "self_type" : "_ZTIPKNSt3__14hashIDiEE",
   "size" : 4,
   "source_file" : "external/libcxx/include/utility"
  },
  {
   "alignment" : 4,
   "linker_set_key" : "_ZTIPKNSt3__14hashIDnEE",
   "name" : "const std::hash<nullptr_t> *",
   "referenced_type" : "_ZTIKNSt3__14hashIDnEE",
   "self_type" : "_ZTIPKNSt3__14hashIDnEE",
   "size" : 4,
   "source_file" : "external/libcxx/include/utility"
  },
  {
   "alignment" : 4,
   "linker_set_key" : "_ZTIPKNSt3__14hashIDsEE",
   "name" : "const std::hash<char16_t> *",
   "referenced_type" : "_ZTIKNSt3__14hashIDsEE",
   "self_type" : "_ZTIPKNSt3__14hashIDsEE",
   "size" : 4,
   "source_file" : "external/libcxx/include/utility"
  },
  {
   "alignment" : 4,
   "linker_set_key" : "_ZTIPKNSt3__14hashIaEE",
   "name" : "const std::hash<signed char> *",
   "referenced_type" : "_ZTIKNSt3__14hashIaEE",
   "self_type" : "_ZTIPKNSt3__14hashIaEE",
   "size" : 4,
   "source_file" : "external/libcxx/include/utility"
  },
  {
   "alignment" : 4,
   "linker_set_key" : "_ZTIPKNSt3__14hashIbEE",
   "name" : "const std::hash<bool> *",
   "referenced_type" : "_ZTIKNSt3__14hashIbEE",
   "self_type" : "_ZTIPKNSt3__14hashIbEE",
   "size" : 4,
   "source_file" : "external/libcxx/include/utility"
  },
  {
   "alignment" : 4,
   "linker_set_key" : "_ZTIPKNSt3__14hashIcEE",
   "name" : "const std::hash<char> *",
   "referenced_type" : "_ZTIKNSt3__14hashIcEE",
   "self_type" : "_ZTIPKNSt3__14hashIcEE",
   "size" : 4,
   "source_file" : "external/libcxx/include/utility"
  },
  {
   "alignment" : 4,
   "linker_set_key" : "_ZTIPKNSt3__14hashIdEE",
   "name" : "const std::hash<double> *",
   "referenced_type" : "_ZTIKNSt3__14hashIdEE",
   "self_type" : "_ZTIPKNSt3__14hashIdEE",
   "size" : 4,
   "source_file" : "external/libcxx/include/utility"
  },
  {
   "alignment" : 4,
   "linker_set_key" : "_ZTIPKNSt3__14hashIeEE",
   "name" : "const std::hash<long double> *",
   "referenced_type" : "_ZTIKNSt3__14hashIeEE",
   "self_type" : "_ZTIPKNSt3__14hashIeEE",
   "size" : 4,
   "source_file" : "external/libcxx/include/utility"
  },
  {
   "alignment" : 4,
   "linker_set_key" : "_ZTIPKNSt3__14hashIfEE",
   "name" : "const std::hash<float> *",
   "referenced_type" : "_ZTIKNSt3__14hashIfEE",
   "self_type" : "_ZTIPKNSt3__14hashIfEE",
   "size" : 4,
   "source_file" : "external/libcxx/include/utility"
  },
  {
   "alignment" : 4,
   "linker_set_key" : "_ZTIPKNSt3__14hashIhEE",
   "name" : "const std::hash<unsigned char> *",
   "referenced_type" : "_ZTIKNSt3__14hashIhEE",
   "self_type" : "_ZTIPKNSt3__14hashIhEE",
   "size" : 4,
   "source_file" : "external/libcxx/include/utility"
  },
  {
   "alignment" : 4,
   "linker_set_key" : "_ZTIPKNSt3__14hashIiEE",
   "name" : "const std::hash<int> *",
   "referenced_type" : "_ZTIKNSt3__14hashIiEE",
   "self_type" : "_ZTIPKNSt3__14hashIiEE",
   "size" : 4,
   "source_file" : "external/libcxx/include/utility"
  },
  {
   "alignment" : 4,
   "linker_set_key" : "_ZTIPKNSt3__14hashIjEE",
   "name" : "const std::hash<unsigned int> *",
   "referenced_type" : "_ZTIKNSt3__14hashIjEE",
   "self_type" : "_ZTIPKNSt3__14hashIjEE",
   "size" : 4,
   "source_file" : "external/libcxx/include/utility"
  },
  {
   "alignment" : 4,
   "linker_set_key" : "_ZTIPKNSt3__14hashIlEE",
   "name" : "const std::hash<long> *",
   "referenced_type" : "_ZTIKNSt3__14hashIlEE",
   "self_type" : "_ZTIPKNSt3__14hashIlEE",
   "size" : 4,
   "source_file" : "external/libcxx/include/utility"
  },
  {
   "alignment" : 4,
   "linker_set_key" : "_ZTIPKNSt3__14hashImEE",
   "name" : "const std::hash<unsigned long> *",
   "referenced_type" : "_ZTIKNSt3__14hashImEE",
   "self_type" : "_ZTIPKNSt3__14hashImEE",
   "size" : 4,
   "source_file" : "external/libcxx/include/utility"
  },
  {
   "alignment" : 4,
   "linker_set_key" : "_ZTIPKNSt3__14hashIsEE",
   "name" : "const std::hash<short> *",
   "referenced_type" : "_ZTIKNSt3__14hashIsEE",
   "self_type" : "_ZTIPKNSt3__14hashIsEE",
   "size" : 4,
   "source_file" : "external/libcxx/include/utility"
  },
  {
   "alignment" : 4,
   "linker_set_key" : "_ZTIPKNSt3__14hashItEE",
   "name" : "const std::hash<unsigned short> *",
   "referenced_type" : "_ZTIKNSt3__14hashItEE",
   "self_type" : "_ZTIPKNSt3__14hashItEE",
   "size" : 4,
   "source_file" : "external/libcxx/include/utility"
  },
  {
   "alignment" : 4,
   "linker_set_key" : "_ZTIPKNSt3__14hashIwEE",
   "name" : "const std::hash<wchar_t> *",
   "referenced_type" : "_ZTIKNSt3__14hashIwEE",
   "self_type" : "_ZTIPKNSt3__14hashIwEE",
   "size" : 4,
   "source_file" : "external/libcxx/include/utility"
  },
  {
   "alignment" : 4,
   "linker_set_key" : "_ZTIPKSt13exception_ptr",
   "name" : "const std::exception_ptr *",
   "referenced_type" : "_ZTIKSt13exception_ptr",
   "self_type" : "_ZTIPKSt13exception_ptr",
   "size" : 4,
   "source_file" : "external/libcxx/include/exception"
  },
  {
   "alignment" : 4,
   "linker_set_key" : "_ZTIPKSt16nested_exception",
   "name" : "const std::nested_exception *",
   "referenced_type" : "_ZTIKSt16nested_exception",
   "self_type" : "_ZTIPKSt16nested_exception",
   "size" : 4,
   "source_file" : "external/libcxx/include/exception"
  },
  {
   "alignment" : 4,
   "linker_set_key" : "_ZTIPKSt9type_info",
   "name" : "const std::type_info *",
   "referenced_type" : "_ZTIKSt9type_info",
   "self_type" : "_ZTIPKSt9type_info",
   "size" : 4,
   "source_file" : "external/libcxx/include/typeinfo"
  },
  {
   "alignment" : 4,
   "linker_set_key" : "_ZTIPKc",
   "name" : "const char *",
   "referenced_type" : "_ZTIKc",
   "self_type" : "_ZTIPKc",
   "size" : 4,
   "source_file" : "bionic/libc/include/signal.h"
  },
  {
   "alignment" : 4,
   "linker_set_key" : "_ZTIPKh",
   "name" : "const unsigned char *",
   "referenced_type" : "_ZTIKh",
   "self_type" : "_ZTIPKh",
   "size" : 4,
   "source_file" : "external/skia/include/core/SkData.h"
  },
  {
   "alignment" : 4,
   "linker_set_key" : "_ZTIPKl",
   "name" : "const long *",
   "referenced_type" : "_ZTIKl",
   "self_type" : "_ZTIPKl",
   "size" : 4,
   "source_file" : "external/libcxx/include/memory"
  },
  {
   "alignment" : 4,
   "linker_set_key" : "_ZTIPKv",
   "name" : "const void *",
   "referenced_type" : "_ZTIKv",
   "self_type" : "_ZTIPKv",
   "size" : 4,
   "source_file" : "bionic/libc/include/malloc.h"
  },
  {
   "alignment" : 4,
   "linker_set_key" : "_ZTIPKw",
   "name" : "const wchar_t *",
   "referenced_type" : "_ZTIKw",
   "self_type" : "_ZTIPKw",
   "size" : 4,
   "source_file" : "external/libcxx/include/wchar.h"
  },
  {
   "alignment" : 4,
   "linker_set_key" : "_ZTIPN22SkDynamicMemoryWStream5BlockE",
   "name" : "SkDynamicMemoryWStream::Block *",
   "referenced_type" : "_ZTIN22SkDynamicMemoryWStream5BlockE",
   "self_type" : "_ZTIPN22SkDynamicMemoryWStream5BlockE",
   "size" : 4,
   "source_file" : "external/skia/include/core/SkStream.h"
  },
  {
   "alignment" : 4,
   "linker_set_key" : "_ZTIPNSt3__110in_place_tE",
   "name" : "std::in_place_t *",
   "referenced_type" : "_ZTINSt3__110in_place_tE",
   "self_type" : "_ZTIPNSt3__110in_place_tE",
   "size" : 4,
   "source_file" : "external/libcxx/include/utility"
  },
  {
   "alignment" : 4,
   "linker_set_key" : "_ZTIPNSt3__110unique_ptrI12SkFILEStreamNS_14default_deleteIS1_EEEE",
   "name" : "std::unique_ptr<SkFILEStream, std::default_delete<SkFILEStream>> *",
   "referenced_type" : "_ZTINSt3__110unique_ptrI12SkFILEStreamNS_14default_deleteIS1_EEEE",
   "self_type" : "_ZTIPNSt3__110unique_ptrI12SkFILEStreamNS_14default_deleteIS1_EEEE",
   "size" : 4,
   "source_file" : "external/libcxx/include/memory"
  },
  {
   "alignment" : 4,
   "linker_set_key" : "_ZTIPNSt3__110unique_ptrI13SkStreamAssetNS_14default_deleteIS1_EEEE",
   "name" : "std::unique_ptr<SkStreamAsset, std::default_delete<SkStreamAsset>> *",
   "referenced_type" : "_ZTINSt3__110unique_ptrI13SkStreamAssetNS_14default_deleteIS1_EEEE",
   "self_type" : "_ZTIPNSt3__110unique_ptrI13SkStreamAssetNS_14default_deleteIS1_EEEE",
   "size" : 4,
   "source_file" : "external/libcxx/include/memory"
  },
  {
   "alignment" : 4,
   "linker_set_key" : "_ZTIPNSt3__110unique_ptrI14SkMemoryStreamNS_14default_deleteIS1_EEEE",
   "name" : "std::unique_ptr<SkMemoryStream, std::default_delete<SkMemoryStream>> *",
   "referenced_type" : "_ZTINSt3__110unique_ptrI14SkMemoryStreamNS_14default_deleteIS1_EEEE",
   "self_type" : "_ZTIPNSt3__110unique_ptrI14SkMemoryStreamNS_14default_deleteIS1_EEEE",
   "size" : 4,
   "source_file" : "external/libcxx/include/memory"
  },
  {
   "alignment" : 4,
   "linker_set_key" : "_ZTIPNSt3__110unique_ptrI14SkStreamMemoryNS_14default_deleteIS1_EEEE",
   "name" : "std::unique_ptr<SkStreamMemory, std::default_delete<SkStreamMemory>> *",
   "referenced_type" : "_ZTINSt3__110unique_ptrI14SkStreamMemoryNS_14default_deleteIS1_EEEE",
   "self_type" : "_ZTIPNSt3__110unique_ptrI14SkStreamMemoryNS_14default_deleteIS1_EEEE",
   "size" : 4,
   "source_file" : "external/libcxx/include/memory"
  },
  {
   "alignment" : 4,
   "linker_set_key" : "_ZTIPNSt3__110unique_ptrI16SkStreamSeekableNS_14default_deleteIS1_EEEE",
   "name" : "std::unique_ptr<SkStreamSeekable, std::default_delete<SkStreamSeekable>> *",
   "referenced_type" : "_ZTINSt3__110unique_ptrI16SkStreamSeekableNS_14default_deleteIS1_EEEE",
   "self_type" : "_ZTIPNSt3__110unique_ptrI16SkStreamSeekableNS_14default_deleteIS1_EEEE",
   "size" : 4,
   "source_file" : "external/libcxx/include/memory"
  },
  {
   "alignment" : 4,
   "linker_set_key" : "_ZTIPNSt3__110unique_ptrI18SkStreamRewindableNS_14default_deleteIS1_EEEE",
   "name" : "std::unique_ptr<SkStreamRewindable, std::default_delete<SkStreamRewindable>> *",
   "referenced_type" : "_ZTINSt3__110unique_ptrI18SkStreamRewindableNS_14default_deleteIS1_EEEE",
   "self_type" : "_ZTIPNSt3__110unique_ptrI18SkStreamRewindableNS_14default_deleteIS1_EEEE",
   "size" : 4,
   "source_file" : "external/libcxx/include/memory"
  },
  {
   "alignment" : 4,
   "linker_set_key" : "_ZTIPNSt3__110unique_ptrI8SkStreamNS_14default_deleteIS1_EEEE",
   "name" : "std::unique_ptr<SkStream, std::default_delete<SkStream>> *",
   "referenced_type" : "_ZTINSt3__110unique_ptrI8SkStreamNS_14default_deleteIS1_EEEE",
   "self_type" : "_ZTIPNSt3__110unique_ptrI8SkStreamNS_14default_deleteIS1_EEEE",
   "size" : 4,
   "source_file" : "external/libcxx/include/memory"
  },
  {
   "alignment" : 4,
   "linker_set_key" : "_ZTIPNSt3__111atomic_flagE",
   "name" : "std::atomic_flag *",
   "referenced_type" : "_ZTINSt3__111atomic_flagE",
   "self_type" : "_ZTIPNSt3__111atomic_flagE",
   "size" : 4,
   "source_file" : "external/libcxx/include/atomic"
  },
  {
   "alignment" : 4,
   "linker_set_key" : "_ZTIPNSt3__112__destruct_nE",
   "name" : "std::__destruct_n *",
   "referenced_type" : "_ZTINSt3__112__destruct_nE",
   "self_type" : "_ZTIPNSt3__112__destruct_nE",
   "size" : 4,
   "source_file" : "external/libcxx/include/memory"
  },
  {
   "alignment" : 4,
   "linker_set_key" : "_ZTIPNSt3__113__atomic_baseIiLb0EEE",
   "name" : "std::__atomic_base<int, false> *",
   "referenced_type" : "_ZTINSt3__113__atomic_baseIiLb0EEE",
   "self_type" : "_ZTIPNSt3__113__atomic_baseIiLb0EEE",
   "size" : 4,
   "source_file" : "external/libcxx/include/atomic"
  },
  {
   "alignment" : 4,
   "linker_set_key" : "_ZTIPNSt3__113__atomic_baseIiLb1EEE",
   "name" : "std::__atomic_base<int, true> *",
   "referenced_type" : "_ZTINSt3__113__atomic_baseIiLb1EEE",
   "self_type" : "_ZTIPNSt3__113__atomic_baseIiLb1EEE",
   "size" : 4,
   "source_file" : "external/libcxx/include/atomic"
  },
  {
   "alignment" : 4,
   "linker_set_key" : "_ZTIPNSt3__114__shared_countE",
   "name" : "std::__shared_count *",
   "referenced_type" : "_ZTINSt3__114__shared_countE",
   "self_type" : "_ZTIPNSt3__114__shared_countE",
   "size" : 4,
   "source_file" : "external/libcxx/include/memory"
  },
  {
   "alignment" : 4,
   "linker_set_key" : "_ZTIPNSt3__114default_deleteI12SkFILEStreamEE",
   "name" : "std::default_delete<SkFILEStream> *",
   "referenced_type" : "_ZTINSt3__114default_deleteI12SkFILEStreamEE",
   "self_type" : "_ZTIPNSt3__114default_deleteI12SkFILEStreamEE",
   "size" : 4,
   "source_file" : "external/libcxx/include/type_traits"
  },
  {
   "alignment" : 4,
   "linker_set_key" : "_ZTIPNSt3__114default_deleteI13SkStreamAssetEE",
   "name" : "std::default_delete<SkStreamAsset> *",
   "referenced_type" : "_ZTINSt3__114default_deleteI13SkStreamAssetEE",
   "self_type" : "_ZTIPNSt3__114default_deleteI13SkStreamAssetEE",
   "size" : 4,
   "source_file" : "external/libcxx/include/memory"
  },
  {
   "alignment" : 4,
   "linker_set_key" : "_ZTIPNSt3__114default_deleteI14SkMemoryStreamEE",
   "name" : "std::default_delete<SkMemoryStream> *",
   "referenced_type" : "_ZTINSt3__114default_deleteI14SkMemoryStreamEE",
   "self_type" : "_ZTIPNSt3__114default_deleteI14SkMemoryStreamEE",
   "size" : 4,
   "source_file" : "external/libcxx/include/memory"
  },
  {
   "alignment" : 4,
   "linker_set_key" : "_ZTIPNSt3__114default_deleteI14SkStreamMemoryEE",
   "name" : "std::default_delete<SkStreamMemory> *",
   "referenced_type" : "_ZTINSt3__114default_deleteI14SkStreamMemoryEE",
   "self_type" : "_ZTIPNSt3__114default_deleteI14SkStreamMemoryEE",
   "size" : 4,
   "source_file" : "external/libcxx/include/memory"
  },
  {
   "alignment" : 4,
   "linker_set_key" : "_ZTIPNSt3__114default_deleteI16SkStreamSeekableEE",
   "name" : "std::default_delete<SkStreamSeekable> *",
   "referenced_type" : "_ZTINSt3__114default_deleteI16SkStreamSeekableEE",
   "self_type" : "_ZTIPNSt3__114default_deleteI16SkStreamSeekableEE",
   "size" : 4,
   "source_file" : "external/libcxx/include/memory"
  },
  {
   "alignment" : 4,
   "linker_set_key" : "_ZTIPNSt3__114default_deleteI18SkStreamRewindableEE",
   "name" : "std::default_delete<SkStreamRewindable> *",
   "referenced_type" : "_ZTINSt3__114default_deleteI18SkStreamRewindableEE",
   "self_type" : "_ZTIPNSt3__114default_deleteI18SkStreamRewindableEE",
   "size" : 4,
   "source_file" : "external/libcxx/include/memory"
  },
  {
   "alignment" : 4,
   "linker_set_key" : "_ZTIPNSt3__114default_deleteI8SkStreamEE",
   "name" : "std::default_delete<SkStream> *",
   "referenced_type" : "_ZTINSt3__114default_deleteI8SkStreamEE",
   "self_type" : "_ZTIPNSt3__114default_deleteI8SkStreamEE",
   "size" : 4,
   "source_file" : "external/libcxx/include/memory"
  },
  {
   "alignment" : 4,
   "linker_set_key" : "_ZTIPNSt3__114pointer_safetyE",
   "name" : "std::pointer_safety *",
   "referenced_type" : "_ZTINSt3__114pointer_safetyE",
   "self_type" : "_ZTIPNSt3__114pointer_safetyE",
   "size" : 4,
   "source_file" : "external/libcxx/include/memory"
  },
  {
   "alignment" : 4,
   "linker_set_key" : "_ZTIPNSt3__117__compressed_pairIP12SkFILEStreamNS_14default_deleteIS1_EEEE",
   "name" : "std::__compressed_pair<SkFILEStream *, std::default_delete<SkFILEStream>> *",
   "referenced_type" : "_ZTINSt3__117__compressed_pairIP12SkFILEStreamNS_14default_deleteIS1_EEEE",
   "self_type" : "_ZTIPNSt3__117__compressed_pairIP12SkFILEStreamNS_14default_deleteIS1_EEEE",
   "size" : 4,
   "source_file" : "external/libcxx/include/memory"
  },
  {
   "alignment" : 4,
   "linker_set_key" : "_ZTIPNSt3__117__compressed_pairIP13SkStreamAssetNS_14default_deleteIS1_EEEE",
   "name" : "std::__compressed_pair<SkStreamAsset *, std::default_delete<SkStreamAsset>> *",
   "referenced_type" : "_ZTINSt3__117__compressed_pairIP13SkStreamAssetNS_14default_deleteIS1_EEEE",
   "self_type" : "_ZTIPNSt3__117__compressed_pairIP13SkStreamAssetNS_14default_deleteIS1_EEEE",
   "size" : 4,
   "source_file" : "external/libcxx/include/memory"
  },
  {
   "alignment" : 4,
   "linker_set_key" : "_ZTIPNSt3__117__compressed_pairIP14SkMemoryStreamNS_14default_deleteIS1_EEEE",
   "name" : "std::__compressed_pair<SkMemoryStream *, std::default_delete<SkMemoryStream>> *",
   "referenced_type" : "_ZTINSt3__117__compressed_pairIP14SkMemoryStreamNS_14default_deleteIS1_EEEE",
   "self_type" : "_ZTIPNSt3__117__compressed_pairIP14SkMemoryStreamNS_14default_deleteIS1_EEEE",
   "size" : 4,
   "source_file" : "external/libcxx/include/memory"
  },
  {
   "alignment" : 4,
   "linker_set_key" : "_ZTIPNSt3__117__compressed_pairIP14SkStreamMemoryNS_14default_deleteIS1_EEEE",
   "name" : "std::__compressed_pair<SkStreamMemory *, std::default_delete<SkStreamMemory>> *",
   "referenced_type" : "_ZTINSt3__117__compressed_pairIP14SkStreamMemoryNS_14default_deleteIS1_EEEE",
   "self_type" : "_ZTIPNSt3__117__compressed_pairIP14SkStreamMemoryNS_14default_deleteIS1_EEEE",
   "size" : 4,
   "source_file" : "external/libcxx/include/memory"
  },
  {
   "alignment" : 4,
   "linker_set_key" : "_ZTIPNSt3__117__compressed_pairIP16SkStreamSeekableNS_14default_deleteIS1_EEEE",
   "name" : "std::__compressed_pair<SkStreamSeekable *, std::default_delete<SkStreamSeekable>> *",
   "referenced_type" : "_ZTINSt3__117__compressed_pairIP16SkStreamSeekableNS_14default_deleteIS1_EEEE",
   "self_type" : "_ZTIPNSt3__117__compressed_pairIP16SkStreamSeekableNS_14default_deleteIS1_EEEE",
   "size" : 4,
   "source_file" : "external/libcxx/include/memory"
  },
  {
   "alignment" : 4,
   "linker_set_key" : "_ZTIPNSt3__117__compressed_pairIP18SkStreamRewindableNS_14default_deleteIS1_EEEE",
   "name" : "std::__compressed_pair<SkStreamRewindable *, std::default_delete<SkStreamRewindable>> *",
   "referenced_type" : "_ZTINSt3__117__compressed_pairIP18SkStreamRewindableNS_14default_deleteIS1_EEEE",
   "self_type" : "_ZTIPNSt3__117__compressed_pairIP18SkStreamRewindableNS_14default_deleteIS1_EEEE",
   "size" : 4,
   "source_file" : "external/libcxx/include/memory"
  },
  {
   "alignment" : 4,
   "linker_set_key" : "_ZTIPNSt3__117__compressed_pairIP8SkStreamNS_14default_deleteIS1_EEEE",
   "name" : "std::__compressed_pair<SkStream *, std::default_delete<SkStream>> *",
   "referenced_type" : "_ZTINSt3__117__compressed_pairIP8SkStreamNS_14default_deleteIS1_EEEE",
   "self_type" : "_ZTIPNSt3__117__compressed_pairIP8SkStreamNS_14default_deleteIS1_EEEE",
   "size" : 4,
   "source_file" : "external/libcxx/include/memory"
  },
  {
   "alignment" : 4,
   "linker_set_key" : "_ZTIPNSt3__118__sfinae_ctor_baseILb0ELb0EEE",
   "name" : "std::__sfinae_ctor_base<false, false> *",
   "referenced_type" : "_ZTINSt3__118__sfinae_ctor_baseILb0ELb0EEE",
   "self_type" : "_ZTIPNSt3__118__sfinae_ctor_baseILb0ELb0EEE",
   "size" : 4,
   "source_file" : "external/libcxx/include/__tuple"
  },
  {
   "alignment" : 4,
   "linker_set_key" : "_ZTIPNSt3__118__sfinae_ctor_baseILb0ELb1EEE",
   "name" : "std::__sfinae_ctor_base<false, true> *",
   "referenced_type" : "_ZTINSt3__118__sfinae_ctor_baseILb0ELb1EEE",
   "self_type" : "_ZTIPNSt3__118__sfinae_ctor_baseILb0ELb1EEE",
   "size" : 4,
   "source_file" : "external/libcxx/include/__tuple"
  },
  {
   "alignment" : 4,
   "linker_set_key" : "_ZTIPNSt3__118__sfinae_ctor_baseILb1ELb0EEE",
   "name" : "std::__sfinae_ctor_base<true, false> *",
   "referenced_type" : "_ZTINSt3__118__sfinae_ctor_baseILb1ELb0EEE",
   "self_type" : "_ZTIPNSt3__118__sfinae_ctor_baseILb1ELb0EEE",
   "size" : 4,
   "source_file" : "external/libcxx/include/__tuple"
  },
  {
   "alignment" : 4,
   "linker_set_key" : "_ZTIPNSt3__119__libcpp_debug_infoE",
   "name" : "std::__libcpp_debug_info *",
   "referenced_type" : "_ZTINSt3__119__libcpp_debug_infoE",
   "self_type" : "_ZTIPNSt3__119__libcpp_debug_infoE",
   "size" : 4,
   "source_file" : "external/libcxx/include/__debug"
  },
  {
   "alignment" : 4,
   "linker_set_key" : "_ZTIPNSt3__119__shared_weak_countE",
   "name" : "std::__shared_weak_count *",
   "referenced_type" : "_ZTINSt3__119__shared_weak_countE",
   "self_type" : "_ZTIPNSt3__119__shared_weak_countE",
   "size" : 4,
   "source_file" : "external/libcxx/include/memory"
  },
  {
   "alignment" : 4,
   "linker_set_key" : "_ZTIPNSt3__120__sfinae_assign_baseILb0ELb0EEE",
   "name" : "std::__sfinae_assign_base<false, false> *",
   "referenced_type" : "_ZTINSt3__120__sfinae_assign_baseILb0ELb0EEE",
   "self_type" : "_ZTIPNSt3__120__sfinae_assign_baseILb0ELb0EEE",
   "size" : 4,
   "source_file" : "external/libcxx/include/__tuple"
  },
  {
   "alignment" : 4,
   "linker_set_key" : "_ZTIPNSt3__120__sfinae_assign_baseILb0ELb1EEE",
   "name" : "std::__sfinae_assign_base<false, true> *",
   "referenced_type" : "_ZTINSt3__120__sfinae_assign_baseILb0ELb1EEE",
   "self_type" : "_ZTIPNSt3__120__sfinae_assign_baseILb0ELb1EEE",
   "size" : 4,
   "source_file" : "external/libcxx/include/__tuple"
  },
  {
   "alignment" : 4,
   "linker_set_key" : "_ZTIPNSt3__120__sfinae_assign_baseILb1ELb0EEE",
   "name" : "std::__sfinae_assign_base<true, false> *",
   "referenced_type" : "_ZTINSt3__120__sfinae_assign_baseILb1ELb0EEE",
   "self_type" : "_ZTIPNSt3__120__sfinae_assign_baseILb1ELb0EEE",
   "size" : 4,
   "source_file" : "external/libcxx/include/__tuple"
  },
  {
   "alignment" : 4,
   "linker_set_key" : "_ZTIPNSt3__121__murmur2_or_cityhashIjLj32EEE",
   "name" : "std::__murmur2_or_cityhash<unsigned int, 32> *",
   "referenced_type" : "_ZTINSt3__121__murmur2_or_cityhashIjLj32EEE",
   "self_type" : "_ZTIPNSt3__121__murmur2_or_cityhashIjLj32EEE",
   "size" : 4,
   "source_file" : "external/libcxx/include/utility"
  },
  {
   "alignment" : 4,
   "linker_set_key" : "_ZTIPNSt3__122__compressed_pair_elemINS_14default_deleteI12SkFILEStreamEELi1ELb1EEE",
   "name" : "std::__compressed_pair_elem<std::default_delete<SkFILEStream>, 1, true> *",
   "referenced_type" : "_ZTINSt3__122__compressed_pair_elemINS_14default_deleteI12SkFILEStreamEELi1ELb1EEE",
   "self_type" : "_ZTIPNSt3__122__compressed_pair_elemINS_14default_deleteI12SkFILEStreamEELi1ELb1EEE",
   "size" : 4,
   "source_file" : "external/libcxx/include/type_traits"
  },
  {
   "alignment" : 4,
   "linker_set_key" : "_ZTIPNSt3__122__compressed_pair_elemINS_14default_deleteI13SkStreamAssetEELi1ELb1EEE",
   "name" : "std::__compressed_pair_elem<std::default_delete<SkStreamAsset>, 1, true> *",
   "referenced_type" : "_ZTINSt3__122__compressed_pair_elemINS_14default_deleteI13SkStreamAssetEELi1ELb1EEE",
   "self_type" : "_ZTIPNSt3__122__compressed_pair_elemINS_14default_deleteI13SkStreamAssetEELi1ELb1EEE",
   "size" : 4,
   "source_file" : "external/libcxx/include/type_traits"
  },
  {
   "alignment" : 4,
   "linker_set_key" : "_ZTIPNSt3__122__compressed_pair_elemINS_14default_deleteI14SkMemoryStreamEELi1ELb1EEE",
   "name" : "std::__compressed_pair_elem<std::default_delete<SkMemoryStream>, 1, true> *",
   "referenced_type" : "_ZTINSt3__122__compressed_pair_elemINS_14default_deleteI14SkMemoryStreamEELi1ELb1EEE",
   "self_type" : "_ZTIPNSt3__122__compressed_pair_elemINS_14default_deleteI14SkMemoryStreamEELi1ELb1EEE",
   "size" : 4,
   "source_file" : "external/libcxx/include/type_traits"
  },
  {
   "alignment" : 4,
   "linker_set_key" : "_ZTIPNSt3__122__compressed_pair_elemINS_14default_deleteI14SkStreamMemoryEELi1ELb1EEE",
   "name" : "std::__compressed_pair_elem<std::default_delete<SkStreamMemory>, 1, true> *",
   "referenced_type" : "_ZTINSt3__122__compressed_pair_elemINS_14default_deleteI14SkStreamMemoryEELi1ELb1EEE",
   "self_type" : "_ZTIPNSt3__122__compressed_pair_elemINS_14default_deleteI14SkStreamMemoryEELi1ELb1EEE",
   "size" : 4,
   "source_file" : "external/libcxx/include/type_traits"
  },
  {
   "alignment" : 4,
   "linker_set_key" : "_ZTIPNSt3__122__compressed_pair_elemINS_14default_deleteI16SkStreamSeekableEELi1ELb1EEE",
   "name" : "std::__compressed_pair_elem<std::default_delete<SkStreamSeekable>, 1, true> *",
   "referenced_type" : "_ZTINSt3__122__compressed_pair_elemINS_14default_deleteI16SkStreamSeekableEELi1ELb1EEE",
   "self_type" : "_ZTIPNSt3__122__compressed_pair_elemINS_14default_deleteI16SkStreamSeekableEELi1ELb1EEE",
   "size" : 4,
   "source_file" : "external/libcxx/include/type_traits"
  },
  {
   "alignment" : 4,
   "linker_set_key" : "_ZTIPNSt3__122__compressed_pair_elemINS_14default_deleteI18SkStreamRewindableEELi1ELb1EEE",
   "name" : "std::__compressed_pair_elem<std::default_delete<SkStreamRewindable>, 1, true> *",
   "referenced_type" : "_ZTINSt3__122__compressed_pair_elemINS_14default_deleteI18SkStreamRewindableEELi1ELb1EEE",
   "self_type" : "_ZTIPNSt3__122__compressed_pair_elemINS_14default_deleteI18SkStreamRewindableEELi1ELb1EEE",
   "size" : 4,
   "source_file" : "external/libcxx/include/type_traits"
  },
  {
   "alignment" : 4,
   "linker_set_key" : "_ZTIPNSt3__122__compressed_pair_elemINS_14default_deleteI8SkStreamEELi1ELb1EEE",
   "name" : "std::__compressed_pair_elem<std::default_delete<SkStream>, 1, true> *",
   "referenced_type" : "_ZTINSt3__122__compressed_pair_elemINS_14default_deleteI8SkStreamEELi1ELb1EEE",
   "self_type" : "_ZTIPNSt3__122__compressed_pair_elemINS_14default_deleteI8SkStreamEELi1ELb1EEE",
   "size" : 4,
   "source_file" : "external/libcxx/include/type_traits"
  },
  {
   "alignment" : 4,
   "linker_set_key" : "_ZTIPNSt3__122__compressed_pair_elemIP12SkFILEStreamLi0ELb0EEE",
   "name" : "std::__compressed_pair_elem<SkFILEStream *, 0, false> *",
   "referenced_type" : "_ZTINSt3__122__compressed_pair_elemIP12SkFILEStreamLi0ELb0EEE",
   "self_type" : "_ZTIPNSt3__122__compressed_pair_elemIP12SkFILEStreamLi0ELb0EEE",
   "size" : 4,
   "source_file" : "external/libcxx/include/type_traits"
  },
  {
   "alignment" : 4,
   "linker_set_key" : "_ZTIPNSt3__122__compressed_pair_elemIP13SkStreamAssetLi0ELb0EEE",
   "name" : "std::__compressed_pair_elem<SkStreamAsset *, 0, false> *",
   "referenced_type" : "_ZTINSt3__122__compressed_pair_elemIP13SkStreamAssetLi0ELb0EEE",
   "self_type" : "_ZTIPNSt3__122__compressed_pair_elemIP13SkStreamAssetLi0ELb0EEE",
   "size" : 4,
   "source_file" : "external/libcxx/include/type_traits"
  },
  {
   "alignment" : 4,
   "linker_set_key" : "_ZTIPNSt3__122__compressed_pair_elemIP14SkMemoryStreamLi0ELb0EEE",
   "name" : "std::__compressed_pair_elem<SkMemoryStream *, 0, false> *",
   "referenced_type" : "_ZTINSt3__122__compressed_pair_elemIP14SkMemoryStreamLi0ELb0EEE",
   "self_type" : "_ZTIPNSt3__122__compressed_pair_elemIP14SkMemoryStreamLi0ELb0EEE",
   "size" : 4,
   "source_file" : "external/libcxx/include/type_traits"
  },
  {
   "alignment" : 4,
   "linker_set_key" : "_ZTIPNSt3__122__compressed_pair_elemIP14SkStreamMemoryLi0ELb0EEE",
   "name" : "std::__compressed_pair_elem<SkStreamMemory *, 0, false> *",
   "referenced_type" : "_ZTINSt3__122__compressed_pair_elemIP14SkStreamMemoryLi0ELb0EEE",
   "self_type" : "_ZTIPNSt3__122__compressed_pair_elemIP14SkStreamMemoryLi0ELb0EEE",
   "size" : 4,
   "source_file" : "external/libcxx/include/type_traits"
  },
  {
   "alignment" : 4,
   "linker_set_key" : "_ZTIPNSt3__122__compressed_pair_elemIP16SkStreamSeekableLi0ELb0EEE",
   "name" : "std::__compressed_pair_elem<SkStreamSeekable *, 0, false> *",
   "referenced_type" : "_ZTINSt3__122__compressed_pair_elemIP16SkStreamSeekableLi0ELb0EEE",
   "self_type" : "_ZTIPNSt3__122__compressed_pair_elemIP16SkStreamSeekableLi0ELb0EEE",
   "size" : 4,
   "source_file" : "external/libcxx/include/type_traits"
  },
  {
   "alignment" : 4,
   "linker_set_key" : "_ZTIPNSt3__122__compressed_pair_elemIP18SkStreamRewindableLi0ELb0EEE",
   "name" : "std::__compressed_pair_elem<SkStreamRewindable *, 0, false> *",
   "referenced_type" : "_ZTINSt3__122__compressed_pair_elemIP18SkStreamRewindableLi0ELb0EEE",
   "self_type" : "_ZTIPNSt3__122__compressed_pair_elemIP18SkStreamRewindableLi0ELb0EEE",
   "size" : 4,
   "source_file" : "external/libcxx/include/type_traits"
  },
  {
   "alignment" : 4,
   "linker_set_key" : "_ZTIPNSt3__122__compressed_pair_elemIP8SkStreamLi0ELb0EEE",
   "name" : "std::__compressed_pair_elem<SkStream *, 0, false> *",
   "referenced_type" : "_ZTINSt3__122__compressed_pair_elemIP8SkStreamLi0ELb0EEE",
   "self_type" : "_ZTIPNSt3__122__compressed_pair_elemIP8SkStreamLi0ELb0EEE",
   "size" : 4,
   "source_file" : "external/libcxx/include/type_traits"
  },
  {
   "alignment" : 4,
   "linker_set_key" : "_ZTIPNSt3__15tupleIJEEE",
   "name" : "std::tuple<> *",
   "referenced_type" : "_ZTINSt3__15tupleIJEEE",
   "self_type" : "_ZTIPNSt3__15tupleIJEEE",
   "size" : 4,
   "source_file" : "external/libcxx/include/tuple"
  },
  {
   "alignment" : 4,
   "linker_set_key" : "_ZTIPNSt3__16atomicIiEE",
   "name" : "std::atomic<int> *",
   "referenced_type" : "_ZTINSt3__16atomicIiEE",
   "self_type" : "_ZTIPNSt3__16atomicIiEE",
   "size" : 4,
   "source_file" : "external/libcxx/include/atomic"
  },
  {
   "alignment" : 4,
   "linker_set_key" : "_ZTIPP12SkFILEStream",
   "name" : "SkFILEStream **",
   "referenced_type" : "_ZTIP12SkFILEStream",
   "self_type" : "_ZTIPP12SkFILEStream",
   "size" : 4,
   "source_file" : "external/libcxx/include/type_traits"
  },
  {
   "alignment" : 4,
   "linker_set_key" : "_ZTIPP13SkStreamAsset",
   "name" : "SkStreamAsset **",
   "referenced_type" : "_ZTIP13SkStreamAsset",
   "self_type" : "_ZTIPP13SkStreamAsset",
   "size" : 4,
   "source_file" : "external/libcxx/include/type_traits"
  },
  {
   "alignment" : 4,
   "linker_set_key" : "_ZTIPP14SkMemoryStream",
   "name" : "SkMemoryStream **",
   "referenced_type" : "_ZTIP14SkMemoryStream",
   "self_type" : "_ZTIPP14SkMemoryStream",
   "size" : 4,
   "source_file" : "external/libcxx/include/type_traits"
  },
  {
   "alignment" : 4,
   "linker_set_key" : "_ZTIPP14SkStreamMemory",
   "name" : "SkStreamMemory **",
   "referenced_type" : "_ZTIP14SkStreamMemory",
   "self_type" : "_ZTIPP14SkStreamMemory",
   "size" : 4,
   "source_file" : "external/libcxx/include/type_traits"
  },
  {
   "alignment" : 4,
   "linker_set_key" : "_ZTIPP16SkStreamSeekable",
   "name" : "SkStreamSeekable **",
   "referenced_type" : "_ZTIP16SkStreamSeekable",
   "self_type" : "_ZTIPP16SkStreamSeekable",
   "size" : 4,
   "source_file" : "external/libcxx/include/type_traits"
  },
  {
   "alignment" : 4,
   "linker_set_key" : "_ZTIPP18SkStreamRewindable",
   "name" : "SkStreamRewindable **",
   "referenced_type" : "_ZTIP18SkStreamRewindable",
   "self_type" : "_ZTIPP18SkStreamRewindable",
   "size" : 4,
   "source_file" : "external/libcxx/include/type_traits"
  },
  {
   "alignment" : 4,
   "linker_set_key" : "_ZTIPP8SkStream",
   "name" : "SkStream **",
   "referenced_type" : "_ZTIP8SkStream",
   "self_type" : "_ZTIPP8SkStream",
   "size" : 4,
   "source_file" : "external/libcxx/include/type_traits"
  },
  {
   "alignment" : 4,
   "linker_set_key" : "_ZTIPPc",
   "name" : "char **",
   "referenced_type" : "_ZTIPc",
   "self_type" : "_ZTIPPc",
   "size" : 4,
   "source_file" : "bionic/libc/include/unistd.h"
  },
  {
   "alignment" : 4,
   "linker_set_key" : "_ZTIPSt11range_error",
   "name" : "std::range_error *",
   "referenced_type" : "_ZTISt11range_error",
   "self_type" : "_ZTIPSt11range_error",
   "size" : 4,
   "source_file" : "external/libcxx/include/stdexcept"
  },
  {
   "alignment" : 4,
   "linker_set_key" : "_ZTIPSt12domain_error",
   "name" : "std::domain_error *",
   "referenced_type" : "_ZTISt12domain_error",
   "self_type" : "_ZTIPSt12domain_error",
   "size" : 4,
   "source_file" : "external/libcxx/include/stdexcept"
  },
  {
   "alignment" : 4,
   "linker_set_key" : "_ZTIPSt12length_error",
   "name" : "std::length_error *",
   "referenced_type" : "_ZTISt12length_error",
   "self_type" : "_ZTIPSt12length_error",
   "size" : 4,
   "source_file" : "external/libcxx/include/stdexcept"
  },
  {
   "alignment" : 4,
   "linker_set_key" : "_ZTIPSt12out_of_range",
   "name" : "std::out_of_range *",
   "referenced_type" : "_ZTISt12out_of_range",
   "self_type" : "_ZTIPSt12out_of_range",
   "size" : 4,
   "source_file" : "external/libcxx/include/stdexcept"
  },
  {
   "alignment" : 4,
   "linker_set_key" : "_ZTIPSt13bad_exception",
   "name" : "std::bad_exception *",
   "referenced_type" : "_ZTISt13bad_exception",
   "self_type" : "_ZTIPSt13bad_exception",
   "size" : 4,
   "source_file" : "external/libcxx/include/exception"
  },
  {
   "alignment" : 4,
   "linker_set_key" : "_ZTIPSt13exception_ptr",
   "name" : "std::exception_ptr *",
   "referenced_type" : "_ZTISt13exception_ptr",
   "self_type" : "_ZTIPSt13exception_ptr",
   "size" : 4,
   "source_file" : "external/libcxx/include/exception"
  },
  {
   "alignment" : 4,
   "linker_set_key" : "_ZTIPSt14overflow_error",
   "name" : "std::overflow_error *",
   "referenced_type" : "_ZTISt14overflow_error",
   "self_type" : "_ZTIPSt14overflow_error",
   "size" : 4,
   "source_file" : "external/libcxx/include/stdexcept"
  },
  {
   "alignment" : 4,
   "linker_set_key" : "_ZTIPSt15underflow_error",
   "name" : "std::underflow_error *",
   "referenced_type" : "_ZTISt15underflow_error",
   "self_type" : "_ZTIPSt15underflow_error",
   "size" : 4,
   "source_file" : "external/libcxx/include/stdexcept"
  },
  {
   "alignment" : 4,
   "linker_set_key" : "_ZTIPSt16invalid_argument",
   "name" : "std::invalid_argument *",
   "referenced_type" : "_ZTISt16invalid_argument",
   "self_type" : "_ZTIPSt16invalid_argument",
   "size" : 4,
   "source_file" : "external/libcxx/include/stdexcept"
  },
  {
   "alignment" : 4,
   "linker_set_key" : "_ZTIPSt9exception",
   "name" : "std::exception *",
   "referenced_type" : "_ZTISt9exception",
   "self_type" : "_ZTIPSt9exception",
   "size" : 4,
   "source_file" : "external/libcxx/include/exception"
  },
  {
   "alignment" : 4,
   "linker_set_key" : "_ZTIPSt9type_info",
   "name" : "std::type_info *",
   "referenced_type" : "_ZTISt9type_info",
   "self_type" : "_ZTIPSt9type_info",
   "size" : 4,
   "source_file" : "external/libcxx/include/typeinfo"
  },
  {
   "alignment" : 4,
   "linker_set_key" : "_ZTIPVNSt3__111atomic_flagE",
   "name" : "volatile std::atomic_flag *",
   "referenced_type" : "_ZTIVNSt3__111atomic_flagE",
   "self_type" : "_ZTIPVNSt3__111atomic_flagE",
   "size" : 4,
   "source_file" : "external/libcxx/include/atomic"
  },
  {
   "alignment" : 4,
   "linker_set_key" : "_ZTIPb",
   "name" : "bool *",
   "referenced_type" : "_ZTIb",
   "self_type" : "_ZTIPb",
   "size" : 4,
   "source_file" : "external/skia/include/core/SkStream.h"
  },
  {
   "alignment" : 4,
   "linker_set_key" : "_ZTIPc",
   "name" : "char *",
   "referenced_type" : "_ZTIc",
   "self_type" : "_ZTIPc",
   "size" : 4,
   "source_file" : "bionic/libc/include/time.h"
  },
  {
   "alignment" : 4,
   "linker_set_key" : "_ZTIPe",
   "name" : "long double *",
   "referenced_type" : "_ZTIe",
   "self_type" : "_ZTIPe",
   "size" : 4,
   "source_file" : "external/libcxx/include/math.h"
  },
  {
   "alignment" : 4,
   "linker_set_key" : "_ZTIPf",
   "name" : "float *",
   "referenced_type" : "_ZTIf",
   "self_type" : "_ZTIPf",
   "size" : 4,
   "source_file" : "external/libcxx/include/math.h"
  },
  {
   "alignment" : 4,
   "linker_set_key" : "_ZTIPh",
   "name" : "unsigned char *",
   "referenced_type" : "_ZTIh",
   "self_type" : "_ZTIPh",
   "size" : 4,
   "source_file" : "external/skia/include/core/SkStream.h"
  },
  {
   "alignment" : 4,
   "linker_set_key" : "_ZTIPi",
   "name" : "int *",
   "referenced_type" : "_ZTIi",
   "self_type" : "_ZTIPi",
   "size" : 4,
   "source_file" : "external/libcxx/include/math.h"
  },
  {
   "alignment" : 4,
   "linker_set_key" : "_ZTIPj",
   "name" : "unsigned int *",
   "referenced_type" : "_ZTIj",
   "self_type" : "_ZTIPj",
   "size" : 4,
   "source_file" : "external/skia/include/core/SkStream.h"
  },
  {
   "alignment" : 4,
   "linker_set_key" : "_ZTIPt",
   "name" : "unsigned short *",
   "referenced_type" : "_ZTIt",
   "self_type" : "_ZTIPt",
   "size" : 4,
   "source_file" : "external/skia/include/core/SkStream.h"
  },
  {
   "alignment" : 4,
   "linker_set_key" : "_ZTIPv",
   "name" : "void *",
   "referenced_type" : "_ZTIv",
   "self_type" : "_ZTIPv",
   "size" : 4,
   "source_file" : "bionic/libc/include/bits/pthread_types.h"
  },
  {
   "alignment" : 4,
   "linker_set_key" : "_ZTIPw",
   "name" : "wchar_t *",
   "referenced_type" : "_ZTIw",
   "self_type" : "_ZTIPw",
   "size" : 4,
   "source_file" : "external/libcxx/include/wchar.h"
  }
 ],
 "qualified_types" :
 [
  {
   "alignment" : 4,
   "is_const" : true,
   "linker_set_key" : "_ZTIA65_KPKc",
   "name" : "const char *const[65]",
   "referenced_type" : "_ZTIA65_PKc",
   "self_type" : "_ZTIA65_KPKc",
   "size" : 260,
   "source_file" : "bionic/libc/include/signal.h"
  },
  {
   "alignment" : 4,
   "is_const" : true,
   "linker_set_key" : "_ZTIK10SkNVRefCntI6SkDataE",
   "name" : "const SkNVRefCnt<SkData>",
   "referenced_type" : "_ZTI10SkNVRefCntI6SkDataE",
   "self_type" : "_ZTIK10SkNVRefCntI6SkDataE",
   "size" : 4,
   "source_file" : "external/skia/include/core/SkRefCnt.h"
  },
  {
   "alignment" : 4,
   "is_const" : true,
   "linker_set_key" : "_ZTIK12SkFILEStream",
   "name" : "const SkFILEStream",
   "referenced_type" : "_ZTI12SkFILEStream",
   "self_type" : "_ZTIK12SkFILEStream",
   "size" : 24,
   "source_file" : "external/skia/include/core/SkStream.h"
  },
  {
   "alignment" : 4,
   "is_const" : true,
   "linker_set_key" : "_ZTIK12SkRefCntBase",
   "name" : "const SkRefCntBase",
   "referenced_type" : "_ZTI12SkRefCntBase",
   "self_type" : "_ZTIK12SkRefCntBase",
   "size" : 8,
   "source_file" : "external/skia/include/core/SkRefCnt.h"
  },
  {
   "alignment" : 4,
   "is_const" : true,
   "linker_set_key" : "_ZTIK13SkFILEWStream",
   "name" : "const SkFILEWStream",
   "referenced_type" : "_ZTI13SkFILEWStream",
   "self_type" : "_ZTIK13SkFILEWStream",
   "size" : 8,
   "source_file" : "external/skia/include/core/SkStream.h"
  },
  {
   "alignment" : 4,
   "is_const" : true,
   "linker_set_key" : "_ZTIK13SkNullWStream",
   "name" : "const SkNullWStream",
   "referenced_type" : "_ZTI13SkNullWStream",
   "self_type" : "_ZTIK13SkNullWStream",
   "size" : 8,
   "source_file" : "external/skia/include/core/SkStream.h"
  },
  {
   "alignment" : 4,
   "is_const" : true,
   "linker_set_key" : "_ZTIK13SkStreamAsset",
   "name" : "const SkStreamAsset",
   "referenced_type" : "_ZTI13SkStreamAsset",
   "self_type" : "_ZTIK13SkStreamAsset",
   "size" : 4,
   "source_file" : "external/skia/include/core/SkStream.h"
  },
  {
   "alignment" : 4,
   "is_const" : true,
   "linker_set_key" : "_ZTIK14SkMemoryStream",
   "name" : "const SkMemoryStream",
   "referenced_type" : "_ZTI14SkMemoryStream",
   "self_type" : "_ZTIK14SkMemoryStream",
   "size" : 12,
   "source_file" : "external/skia/include/core/SkStream.h"
  },
  {
   "alignment" : 4,
   "is_const" : true,
   "linker_set_key" : "_ZTIK14SkStreamMemory",
   "name" : "const SkStreamMemory",
   "referenced_type" : "_ZTI14SkStreamMemory",
   "self_type" : "_ZTIK14SkStreamMemory",
   "size" : 4,
   "source_file" : "external/skia/include/core/SkStream.h"
  },
  {
   "alignment" : 4,
   "is_const" : true,
   "linker_set_key" : "_ZTIK16SkStreamSeekable",
   "name" : "const SkStreamSeekable",
   "referenced_type" : "_ZTI16SkStreamSeekable",
   "self_type" : "_ZTIK16SkStreamSeekable",
   "size" : 4,
   "source_file" : "external/skia/include/core/SkStream.h"
  },
  {
   "alignment" : 4,
   "is_const" : true,
   "linker_set_key" : "_ZTIK18SkStreamRewindable",
   "name" : "const SkStreamRewindable",
   "referenced_type" : "_ZTI18SkStreamRewindable",
   "self_type" : "_ZTIK18SkStreamRewindable",
   "size" : 4,
   "source_file" : "external/skia/include/core/SkStream.h"
  },
  {
   "alignment" : 4,
   "is_const" : true,
   "linker_set_key" : "_ZTIK19AAssetStreamAdaptor",
   "name" : "const AAssetStreamAdaptor",
   "referenced_type" : "_ZTI19AAssetStreamAdaptor",
   "self_type" : "_ZTIK19AAssetStreamAdaptor",
   "size" : 8,
   "source_file" : "frameworks/base/native/graphics/jni/aassetstreamadaptor.h"
  },
  {
   "alignment" : 4,
   "is_const" : true,
   "linker_set_key" : "_ZTIK22SkDynamicMemoryWStream",
   "name" : "const SkDynamicMemoryWStream",
   "referenced_type" : "_ZTI22SkDynamicMemoryWStream",
   "self_type" : "_ZTIK22SkDynamicMemoryWStream",
   "size" : 16,
   "source_file" : "external/skia/include/core/SkStream.h"
  },
  {
   "alignment" : 4,
   "is_const" : true,
   "linker_set_key" : "_ZTIK5sk_spI6SkDataE",
   "name" : "const sk_sp<SkData>",
   "referenced_type" : "_ZTI5sk_spI6SkDataE",
   "self_type" : "_ZTIK5sk_spI6SkDataE",
   "size" : 4,
   "source_file" : "external/skia/include/core/SkRefCnt.h"
  },
  {
   "alignment" : 4,
   "is_const" : true,
   "linker_set_key" : "_ZTIK6SkData",
   "name" : "const SkData",
   "referenced_type" : "_ZTI6SkData",
   "self_type" : "_ZTIK6SkData",
   "size" : 20,
   "source_file" : "external/skia/include/core/SkData.h"
  },
  {
   "alignment" : 4,
   "is_const" : true,
   "linker_set_key" : "_ZTIK8SkStream",
   "name" : "const SkStream",
   "referenced_type" : "_ZTI8SkStream",
   "self_type" : "_ZTIK8SkStream",
   "size" : 4,
   "source_file" : "external/skia/include/core/SkStream.h"
  },
  {
   "alignment" : 1,
   "is_const" : true,
   "linker_set_key" : "_ZTIK8log_time",
   "name" : "const log_time",
   "referenced_type" : "_ZTI8log_time",
   "self_type" : "_ZTIK8log_time",
   "size" : 8,
   "source_file" : "system/logging/liblog/include/log/log_time.h"
  },
  {
   "alignment" : 4,
   "is_const" : true,
   "linker_set_key" : "_ZTIK8timespec",
   "name" : "const timespec",
   "referenced_type" : "_ZTI8timespec",
   "self_type" : "_ZTIK8timespec",
   "size" : 8,
   "source_file" : "system/logging/liblog/include/log/log_time.h"
  },
  {
   "alignment" : 1,
   "is_const" : true,
   "linker_set_key" : "_ZTIKNSt3__110__ignore_tIhEE",
   "name" : "const std::__ignore_t<unsigned char>",
   "referenced_type" : "_ZTINSt3__110__ignore_tIhEE",
   "self_type" : "_ZTIKNSt3__110__ignore_tIhEE",
   "size" : 1,
   "source_file" : "external/libcxx/include/tuple"
  },
  {
   "alignment" : 1,
   "is_const" : true,
   "linker_set_key" : "_ZTIKNSt3__110in_place_tE",
   "name" : "const std::in_place_t",
   "referenced_type" : "_ZTINSt3__110in_place_tE",
   "self_type" : "_ZTIKNSt3__110in_place_tE",
   "size" : 1,
   "source_file" : "external/libcxx/include/utility"
  },
  {
   "alignment" : 4,
   "is_const" : true,
   "linker_set_key" : "_ZTIKNSt3__110shared_ptrI7__sFILEEE",
   "name" : "const std::shared_ptr<__sFILE>",
   "referenced_type" : "_ZTINSt3__110shared_ptrI7__sFILEEE",
   "self_type" : "_ZTIKNSt3__110shared_ptrI7__sFILEEE",
   "size" : 8,
   "source_file" : "external/libcxx/include/memory"
  },
  {
   "alignment" : 4,
   "is_const" : true,
   "linker_set_key" : "_ZTIKNSt3__110unique_ptrI12SkFILEStreamNS_14default_deleteIS1_EEEE",
   "name" : "const std::unique_ptr<SkFILEStream, std::default_delete<SkFILEStream>>",
   "referenced_type" : "_ZTINSt3__110unique_ptrI12SkFILEStreamNS_14default_deleteIS1_EEEE",
   "self_type" : "_ZTIKNSt3__110unique_ptrI12SkFILEStreamNS_14default_deleteIS1_EEEE",
   "size" : 4,
   "source_file" : "external/libcxx/include/memory"
  },
  {
   "is_const" : true,
   "linker_set_key" : "_ZTIKNSt3__112basic_stringIcNS_11char_traitsIcEENS_9allocatorIcEEEE",
   "name" : "const std::basic_string<char, std::char_traits<char>, std::allocator<char>>",
   "referenced_type" : "_ZTINSt3__112basic_stringIcNS_11char_traitsIcEENS_9allocatorIcEEEE",
   "self_type" : "_ZTIKNSt3__112basic_stringIcNS_11char_traitsIcEENS_9allocatorIcEEEE",
   "source_file" : "external/libcxx/include/stdexcept"
  },
  {
   "alignment" : 4,
   "is_const" : true,
   "linker_set_key" : "_ZTIKNSt3__113__atomic_baseIiLb0EEE",
   "name" : "const std::__atomic_base<int, false>",
   "referenced_type" : "_ZTINSt3__113__atomic_baseIiLb0EEE",
   "self_type" : "_ZTIKNSt3__113__atomic_baseIiLb0EEE",
   "size" : 4,
   "source_file" : "external/libcxx/include/atomic"
  },
  {
   "alignment" : 1,
   "is_const" : true,
   "linker_set_key" : "_ZTIKNSt3__113__scalar_hashINS_6_PairTELj2EEE",
   "name" : "const std::__scalar_hash<std::_PairT, 2>",
   "referenced_type" : "_ZTINSt3__113__scalar_hashINS_6_PairTELj2EEE",
   "self_type" : "_ZTIKNSt3__113__scalar_hashINS_6_PairTELj2EEE",
   "size" : 1,
   "source_file" : "external/libcxx/include/utility"
  },
  {
   "alignment" : 1,
   "is_const" : true,
   "linker_set_key" : "_ZTIKNSt3__113__scalar_hashIdLj2EEE",
   "name" : "const std::__scalar_hash<double, 2>",
   "referenced_type" : "_ZTINSt3__113__scalar_hashIdLj2EEE",
   "self_type" : "_ZTIKNSt3__113__scalar_hashIdLj2EEE",
   "size" : 1,
   "source_file" : "external/libcxx/include/utility"
  },
  {
   "alignment" : 1,
   "is_const" : true,
   "linker_set_key" : "_ZTIKNSt3__113__scalar_hashIeLj2EEE",
   "name" : "const std::__scalar_hash<long double, 2>",
   "referenced_type" : "_ZTINSt3__113__scalar_hashIeLj2EEE",
   "self_type" : "_ZTIKNSt3__113__scalar_hashIeLj2EEE",
   "size" : 1,
   "source_file" : "external/libcxx/include/utility"
  },
  {
   "alignment" : 1,
   "is_const" : true,
   "linker_set_key" : "_ZTIKNSt3__113__scalar_hashIfLj1EEE",
   "name" : "const std::__scalar_hash<float, 1>",
   "referenced_type" : "_ZTINSt3__113__scalar_hashIfLj1EEE",
   "self_type" : "_ZTIKNSt3__113__scalar_hashIfLj1EEE",
   "size" : 1,
   "source_file" : "external/libcxx/include/utility"
  },
  {
   "alignment" : 4,
   "is_const" : true,
   "linker_set_key" : "_ZTIKNSt3__114__shared_countE",
   "name" : "const std::__shared_count",
   "referenced_type" : "_ZTINSt3__114__shared_countE",
   "self_type" : "_ZTIKNSt3__114__shared_countE",
   "size" : 8,
   "source_file" : "external/libcxx/include/memory"
  },
  {
   "alignment" : 1,
   "is_const" : true,
   "linker_set_key" : "_ZTIKNSt3__114default_deleteI12SkFILEStreamEE",
   "name" : "const std::default_delete<SkFILEStream>",
   "referenced_type" : "_ZTINSt3__114default_deleteI12SkFILEStreamEE",
   "self_type" : "_ZTIKNSt3__114default_deleteI12SkFILEStreamEE",
   "size" : 1,
   "source_file" : "external/libcxx/include/memory"
  },
  {
   "alignment" : 1,
   "is_const" : true,
   "linker_set_key" : "_ZTIKNSt3__114default_deleteI13SkStreamAssetEE",
   "name" : "const std::default_delete<SkStreamAsset>",
   "referenced_type" : "_ZTINSt3__114default_deleteI13SkStreamAssetEE",
   "self_type" : "_ZTIKNSt3__114default_deleteI13SkStreamAssetEE",
   "size" : 1,
   "source_file" : "external/libcxx/include/memory"
  },
  {
   "alignment" : 1,
   "is_const" : true,
   "linker_set_key" : "_ZTIKNSt3__114default_deleteI14SkMemoryStreamEE",
   "name" : "const std::default_delete<SkMemoryStream>",
   "referenced_type" : "_ZTINSt3__114default_deleteI14SkMemoryStreamEE",
   "self_type" : "_ZTIKNSt3__114default_deleteI14SkMemoryStreamEE",
   "size" : 1,
   "source_file" : "external/libcxx/include/memory"
  },
  {
   "alignment" : 1,
   "is_const" : true,
   "linker_set_key" : "_ZTIKNSt3__114default_deleteI14SkStreamMemoryEE",
   "name" : "const std::default_delete<SkStreamMemory>",
   "referenced_type" : "_ZTINSt3__114default_deleteI14SkStreamMemoryEE",
   "self_type" : "_ZTIKNSt3__114default_deleteI14SkStreamMemoryEE",
   "size" : 1,
   "source_file" : "external/libcxx/include/memory"
  },
  {
   "alignment" : 1,
   "is_const" : true,
   "linker_set_key" : "_ZTIKNSt3__114default_deleteI16SkStreamSeekableEE",
   "name" : "const std::default_delete<SkStreamSeekable>",
   "referenced_type" : "_ZTINSt3__114default_deleteI16SkStreamSeekableEE",
   "self_type" : "_ZTIKNSt3__114default_deleteI16SkStreamSeekableEE",
   "size" : 1,
   "source_file" : "external/libcxx/include/memory"
  },
  {
   "alignment" : 1,
   "is_const" : true,
   "linker_set_key" : "_ZTIKNSt3__114default_deleteI18SkStreamRewindableEE",
   "name" : "const std::default_delete<SkStreamRewindable>",
   "referenced_type" : "_ZTINSt3__114default_deleteI18SkStreamRewindableEE",
   "self_type" : "_ZTIKNSt3__114default_deleteI18SkStreamRewindableEE",
   "size" : 1,
   "source_file" : "external/libcxx/include/memory"
  },
  {
   "alignment" : 1,
   "is_const" : true,
   "linker_set_key" : "_ZTIKNSt3__114default_deleteI8SkStreamEE",
   "name" : "const std::default_delete<SkStream>",
   "referenced_type" : "_ZTINSt3__114default_deleteI8SkStreamEE",
   "self_type" : "_ZTIKNSt3__114default_deleteI8SkStreamEE",
   "size" : 1,
   "source_file" : "external/libcxx/include/memory"
  },
  {
   "alignment" : 4,
   "is_const" : true,
   "linker_set_key" : "_ZTIKNSt3__114pointer_safetyE",
   "name" : "const std::pointer_safety",
   "referenced_type" : "_ZTINSt3__114pointer_safetyE",
   "self_type" : "_ZTIKNSt3__114pointer_safetyE",
   "size" : 4,
   "source_file" : "external/libcxx/include/memory"
  },
  {
   "alignment" : 1,
   "is_const" : true,
   "linker_set_key" : "_ZTIKNSt3__115allocator_arg_tE",
   "name" : "const std::allocator_arg_t",
   "referenced_type" : "_ZTINSt3__115allocator_arg_tE",
   "self_type" : "_ZTIKNSt3__115allocator_arg_tE",
   "size" : 1,
   "source_file" : "external/libcxx/include/__functional_base"
  },
  {
   "alignment" : 4,
   "is_const" : true,
   "linker_set_key" : "_ZTIKNSt3__117__compressed_pairIP12SkFILEStreamNS_14default_deleteIS1_EEEE",
   "name" : "const std::__compressed_pair<SkFILEStream *, std::default_delete<SkFILEStream>>",
   "referenced_type" : "_ZTINSt3__117__compressed_pairIP12SkFILEStreamNS_14default_deleteIS1_EEEE",
   "self_type" : "_ZTIKNSt3__117__compressed_pairIP12SkFILEStreamNS_14default_deleteIS1_EEEE",
   "size" : 4,
   "source_file" : "external/libcxx/include/type_traits"
  },
  {
   "alignment" : 4,
   "is_const" : true,
   "linker_set_key" : "_ZTIKNSt3__117__compressed_pairIP13SkStreamAssetNS_14default_deleteIS1_EEEE",
   "name" : "const std::__compressed_pair<SkStreamAsset *, std::default_delete<SkStreamAsset>>",
   "referenced_type" : "_ZTINSt3__117__compressed_pairIP13SkStreamAssetNS_14default_deleteIS1_EEEE",
   "self_type" : "_ZTIKNSt3__117__compressed_pairIP13SkStreamAssetNS_14default_deleteIS1_EEEE",
   "size" : 4,
   "source_file" : "external/libcxx/include/type_traits"
  },
  {
   "alignment" : 4,
   "is_const" : true,
   "linker_set_key" : "_ZTIKNSt3__117__compressed_pairIP14SkMemoryStreamNS_14default_deleteIS1_EEEE",
   "name" : "const std::__compressed_pair<SkMemoryStream *, std::default_delete<SkMemoryStream>>",
   "referenced_type" : "_ZTINSt3__117__compressed_pairIP14SkMemoryStreamNS_14default_deleteIS1_EEEE",
   "self_type" : "_ZTIKNSt3__117__compressed_pairIP14SkMemoryStreamNS_14default_deleteIS1_EEEE",
   "size" : 4,
   "source_file" : "external/libcxx/include/type_traits"
  },
  {
   "alignment" : 4,
   "is_const" : true,
   "linker_set_key" : "_ZTIKNSt3__117__compressed_pairIP14SkStreamMemoryNS_14default_deleteIS1_EEEE",
   "name" : "const std::__compressed_pair<SkStreamMemory *, std::default_delete<SkStreamMemory>>",
   "referenced_type" : "_ZTINSt3__117__compressed_pairIP14SkStreamMemoryNS_14default_deleteIS1_EEEE",
   "self_type" : "_ZTIKNSt3__117__compressed_pairIP14SkStreamMemoryNS_14default_deleteIS1_EEEE",
   "size" : 4,
   "source_file" : "external/libcxx/include/type_traits"
  },
  {
   "alignment" : 4,
   "is_const" : true,
   "linker_set_key" : "_ZTIKNSt3__117__compressed_pairIP16SkStreamSeekableNS_14default_deleteIS1_EEEE",
   "name" : "const std::__compressed_pair<SkStreamSeekable *, std::default_delete<SkStreamSeekable>>",
   "referenced_type" : "_ZTINSt3__117__compressed_pairIP16SkStreamSeekableNS_14default_deleteIS1_EEEE",
   "self_type" : "_ZTIKNSt3__117__compressed_pairIP16SkStreamSeekableNS_14default_deleteIS1_EEEE",
   "size" : 4,
   "source_file" : "external/libcxx/include/type_traits"
  },
  {
   "alignment" : 4,
   "is_const" : true,
   "linker_set_key" : "_ZTIKNSt3__117__compressed_pairIP18SkStreamRewindableNS_14default_deleteIS1_EEEE",
   "name" : "const std::__compressed_pair<SkStreamRewindable *, std::default_delete<SkStreamRewindable>>",
   "referenced_type" : "_ZTINSt3__117__compressed_pairIP18SkStreamRewindableNS_14default_deleteIS1_EEEE",
   "self_type" : "_ZTIKNSt3__117__compressed_pairIP18SkStreamRewindableNS_14default_deleteIS1_EEEE",
   "size" : 4,
   "source_file" : "external/libcxx/include/type_traits"
  },
  {
   "alignment" : 4,
   "is_const" : true,
   "linker_set_key" : "_ZTIKNSt3__117__compressed_pairIP8SkStreamNS_14default_deleteIS1_EEEE",
   "name" : "const std::__compressed_pair<SkStream *, std::default_delete<SkStream>>",
   "referenced_type" : "_ZTINSt3__117__compressed_pairIP8SkStreamNS_14default_deleteIS1_EEEE",
   "self_type" : "_ZTIKNSt3__117__compressed_pairIP8SkStreamNS_14default_deleteIS1_EEEE",
   "size" : 4,
   "source_file" : "external/libcxx/include/type_traits"
  },
  {
   "alignment" : 4,
   "is_const" : true,
   "linker_set_key" : "_ZTIKNSt3__117float_round_styleE",
   "name" : "const std::float_round_style",
   "referenced_type" : "_ZTINSt3__117float_round_styleE",
   "self_type" : "_ZTIKNSt3__117float_round_styleE",
   "size" : 4,
   "source_file" : "external/libcxx/include/limits"
  },
  {
   "alignment" : 4,
   "is_const" : true,
   "linker_set_key" : "_ZTIKNSt3__118__libcpp_refstringE",
   "name" : "const std::__libcpp_refstring",
   "referenced_type" : "_ZTINSt3__118__libcpp_refstringE",
   "self_type" : "_ZTIKNSt3__118__libcpp_refstringE",
   "size" : 4,
   "source_file" : "external/libcxx/include/stdexcept"
  },
  {
   "alignment" : 1,
   "is_const" : true,
   "linker_set_key" : "_ZTIKNSt3__118__sfinae_ctor_baseILb0ELb0EEE",
   "name" : "const std::__sfinae_ctor_base<false, false>",
   "referenced_type" : "_ZTINSt3__118__sfinae_ctor_baseILb0ELb0EEE",
   "self_type" : "_ZTIKNSt3__118__sfinae_ctor_baseILb0ELb0EEE",
   "size" : 1,
   "source_file" : "external/libcxx/include/__tuple"
  },
  {
   "alignment" : 1,
   "is_const" : true,
   "linker_set_key" : "_ZTIKNSt3__118__sfinae_ctor_baseILb0ELb1EEE",
   "name" : "const std::__sfinae_ctor_base<false, true>",
   "referenced_type" : "_ZTINSt3__118__sfinae_ctor_baseILb0ELb1EEE",
   "self_type" : "_ZTIKNSt3__118__sfinae_ctor_baseILb0ELb1EEE",
   "size" : 1,
   "source_file" : "external/libcxx/include/__tuple"
  },
  {
   "alignment" : 1,
   "is_const" : true,
   "linker_set_key" : "_ZTIKNSt3__118__sfinae_ctor_baseILb1ELb0EEE",
   "name" : "const std::__sfinae_ctor_base<true, false>",
   "referenced_type" : "_ZTINSt3__118__sfinae_ctor_baseILb1ELb0EEE",
   "self_type" : "_ZTIKNSt3__118__sfinae_ctor_baseILb1ELb0EEE",
   "size" : 1,
   "source_file" : "external/libcxx/include/__tuple"
  },
  {
   "alignment" : 4,
   "is_const" : true,
   "linker_set_key" : "_ZTIKNSt3__118float_denorm_styleE",
   "name" : "const std::float_denorm_style",
   "referenced_type" : "_ZTINSt3__118float_denorm_styleE",
   "self_type" : "_ZTIKNSt3__118float_denorm_styleE",
   "size" : 4,
   "source_file" : "external/libcxx/include/limits"
  },
  {
   "alignment" : 4,
   "is_const" : true,
   "linker_set_key" : "_ZTIKNSt3__119__libcpp_debug_infoE",
   "name" : "const std::__libcpp_debug_info",
   "referenced_type" : "_ZTINSt3__119__libcpp_debug_infoE",
   "self_type" : "_ZTIKNSt3__119__libcpp_debug_infoE",
   "size" : 16,
   "source_file" : "external/libcxx/include/__debug"
  },
  {
   "alignment" : 4,
   "is_const" : true,
   "linker_set_key" : "_ZTIKNSt3__119__shared_weak_countE",
   "name" : "const std::__shared_weak_count",
   "referenced_type" : "_ZTINSt3__119__shared_weak_countE",
   "self_type" : "_ZTIKNSt3__119__shared_weak_countE",
   "size" : 12,
   "source_file" : "external/libcxx/include/memory"
  },
  {
   "alignment" : 1,
   "is_const" : true,
   "linker_set_key" : "_ZTIKNSt3__120__sfinae_assign_baseILb0ELb0EEE",
   "name" : "const std::__sfinae_assign_base<false, false>",
   "referenced_type" : "_ZTINSt3__120__sfinae_assign_baseILb0ELb0EEE",
   "self_type" : "_ZTIKNSt3__120__sfinae_assign_baseILb0ELb0EEE",
   "size" : 1,
   "source_file" : "external/libcxx/include/__tuple"
  },
  {
   "alignment" : 1,
   "is_const" : true,
   "linker_set_key" : "_ZTIKNSt3__120__sfinae_assign_baseILb0ELb1EEE",
   "name" : "const std::__sfinae_assign_base<false, true>",
   "referenced_type" : "_ZTINSt3__120__sfinae_assign_baseILb0ELb1EEE",
   "self_type" : "_ZTIKNSt3__120__sfinae_assign_baseILb0ELb1EEE",
   "size" : 1,
   "source_file" : "external/libcxx/include/__tuple"
  },
  {
   "alignment" : 1,
   "is_const" : true,
   "linker_set_key" : "_ZTIKNSt3__120__sfinae_assign_baseILb1ELb0EEE",
   "name" : "const std::__sfinae_assign_base<true, false>",
   "referenced_type" : "_ZTINSt3__120__sfinae_assign_baseILb1ELb0EEE",
   "self_type" : "_ZTIKNSt3__120__sfinae_assign_baseILb1ELb0EEE",
   "size" : 1,
   "source_file" : "external/libcxx/include/__tuple"
  },
  {
   "alignment" : 1,
   "is_const" : true,
   "linker_set_key" : "_ZTIKNSt3__121piecewise_construct_tE",
   "name" : "const std::piecewise_construct_t",
   "referenced_type" : "_ZTINSt3__121piecewise_construct_tE",
   "self_type" : "_ZTIKNSt3__121piecewise_construct_tE",
   "size" : 1,
   "source_file" : "external/libcxx/include/utility"
  },
  {
   "alignment" : 1,
   "is_const" : true,
   "linker_set_key" : "_ZTIKNSt3__122__compressed_pair_elemINS_14default_deleteI12SkFILEStreamEELi1ELb1EEE",
   "name" : "const std::__compressed_pair_elem<std::default_delete<SkFILEStream>, 1, true>",
   "referenced_type" : "_ZTINSt3__122__compressed_pair_elemINS_14default_deleteI12SkFILEStreamEELi1ELb1EEE",
   "self_type" : "_ZTIKNSt3__122__compressed_pair_elemINS_14default_deleteI12SkFILEStreamEELi1ELb1EEE",
   "size" : 1,
   "source_file" : "external/libcxx/include/type_traits"
  },
  {
   "alignment" : 1,
   "is_const" : true,
   "linker_set_key" : "_ZTIKNSt3__122__compressed_pair_elemINS_14default_deleteI13SkStreamAssetEELi1ELb1EEE",
   "name" : "const std::__compressed_pair_elem<std::default_delete<SkStreamAsset>, 1, true>",
   "referenced_type" : "_ZTINSt3__122__compressed_pair_elemINS_14default_deleteI13SkStreamAssetEELi1ELb1EEE",
   "self_type" : "_ZTIKNSt3__122__compressed_pair_elemINS_14default_deleteI13SkStreamAssetEELi1ELb1EEE",
   "size" : 1,
   "source_file" : "external/libcxx/include/type_traits"
  },
  {
   "alignment" : 1,
   "is_const" : true,
   "linker_set_key" : "_ZTIKNSt3__122__compressed_pair_elemINS_14default_deleteI14SkMemoryStreamEELi1ELb1EEE",
   "name" : "const std::__compressed_pair_elem<std::default_delete<SkMemoryStream>, 1, true>",
   "referenced_type" : "_ZTINSt3__122__compressed_pair_elemINS_14default_deleteI14SkMemoryStreamEELi1ELb1EEE",
   "self_type" : "_ZTIKNSt3__122__compressed_pair_elemINS_14default_deleteI14SkMemoryStreamEELi1ELb1EEE",
   "size" : 1,
   "source_file" : "external/libcxx/include/type_traits"
  },
  {
   "alignment" : 1,
   "is_const" : true,
   "linker_set_key" : "_ZTIKNSt3__122__compressed_pair_elemINS_14default_deleteI14SkStreamMemoryEELi1ELb1EEE",
   "name" : "const std::__compressed_pair_elem<std::default_delete<SkStreamMemory>, 1, true>",
   "referenced_type" : "_ZTINSt3__122__compressed_pair_elemINS_14default_deleteI14SkStreamMemoryEELi1ELb1EEE",
   "self_type" : "_ZTIKNSt3__122__compressed_pair_elemINS_14default_deleteI14SkStreamMemoryEELi1ELb1EEE",
   "size" : 1,
   "source_file" : "external/libcxx/include/type_traits"
  },
  {
   "alignment" : 1,
   "is_const" : true,
   "linker_set_key" : "_ZTIKNSt3__122__compressed_pair_elemINS_14default_deleteI16SkStreamSeekableEELi1ELb1EEE",
