{
 "array_types" :
 [
  {
   "alignment" : 1,
   "linker_set_key" : "_ZTIA100_A2_c",
   "name" : "char [100][2]",
   "referenced_type" : "_ZTIA2_c",
   "self_type" : "_ZTIA100_A2_c",
   "size" : 200,
   "source_file" : "external/fmtlib/include/fmt/format-inl.h"
  },
  {
   "alignment" : 1,
   "linker_set_key" : "_ZTIA1024_c",
   "name" : "char [1024]",
   "referenced_type" : "_ZTIc",
   "self_type" : "_ZTIA1024_c",
   "size" : 1024,
   "source_file" : "system/libbase/include/android-base/file.h"
  },
  {
   "alignment" : 4,
   "linker_set_key" : "_ZTIA10_j",
   "name" : "unsigned int [10]",
   "referenced_type" : "_ZTIj",
   "self_type" : "_ZTIA10_j",
   "size" : 40,
   "source_file" : "external/fmtlib/include/fmt/format-inl.h"
  },
  {
   "alignment" : 4,
   "linker_set_key" : "_ZTIA11_N3fmt2v76detail19divtest_table_entryIjEE",
   "name" : "fmt::v7::detail::divtest_table_entry<unsigned int> [11]",
   "referenced_type" : "_ZTIN3fmt2v76detail19divtest_table_entryIjEE",
   "self_type" : "_ZTIA11_N3fmt2v76detail19divtest_table_entryIjEE",
   "size" : 88,
   "source_file" : "external/fmtlib/include/fmt/format-inl.h"
  },
  {
   "alignment" : 4,
   "linker_set_key" : "_ZTIA11_j",
   "name" : "unsigned int [11]",
   "referenced_type" : "_ZTIj",
   "self_type" : "_ZTIA11_j",
   "size" : 44,
   "source_file" : "external/fmtlib/include/fmt/format-inl.h"
  },
  {
   "alignment" : 1,
   "linker_set_key" : "_ZTIA17_c",
   "name" : "char [17]",
   "referenced_type" : "_ZTIc",
   "self_type" : "_ZTIA17_c",
   "size" : 17,
   "source_file" : "external/fmtlib/include/fmt/format-inl.h"
  },
  {
   "alignment" : 4,
   "linker_set_key" : "_ZTIA1_N3fmt2v76detail5valueINS0_20basic_format_contextINS1_15buffer_appenderIcEEcEEEE",
   "name" : "fmt::v7::detail::value<fmt::v7::basic_format_context<fmt::v7::detail::buffer_appender<char>, char>> [1]",
   "referenced_type" : "_ZTIN3fmt2v76detail5valueINS0_20basic_format_contextINS1_15buffer_appenderIcEEcEEEE",
   "self_type" : "_ZTIA1_N3fmt2v76detail5valueINS0_20basic_format_contextINS1_15buffer_appenderIcEEcEEEE",
   "size" : 8,
   "source_file" : "external/fmtlib/include/fmt/core.h"
  },
  {
   "alignment" : 4,
   "linker_set_key" : "_ZTIA20_y",
   "name" : "unsigned long long [20]",
   "referenced_type" : "_ZTIy",
   "self_type" : "_ZTIA20_y",
   "size" : 160,
   "source_file" : "external/fmtlib/include/fmt/format-inl.h"
  },
  {
   "alignment" : 4,
   "linker_set_key" : "_ZTIA21_y",
   "name" : "unsigned long long [21]",
   "referenced_type" : "_ZTIy",
   "self_type" : "_ZTIA21_y",
   "size" : 168,
   "source_file" : "external/fmtlib/include/fmt/format-inl.h"
  },
  {
   "alignment" : 1,
   "linker_set_key" : "_ZTIA22_c",
   "name" : "char [22]",
   "referenced_type" : "_ZTIc",
   "self_type" : "_ZTIA22_c",
   "size" : 22,
   "source_file" : "external/fmtlib/include/fmt/format.h"
  },
  {
   "alignment" : 4,
   "linker_set_key" : "_ZTIA23_N3fmt2v76detail15uint128_wrapperE",
   "name" : "fmt::v7::detail::uint128_wrapper [23]",
   "referenced_type" : "_ZTIN3fmt2v76detail15uint128_wrapperE",
   "self_type" : "_ZTIA23_N3fmt2v76detail15uint128_wrapperE",
   "size" : 368,
   "source_file" : "external/fmtlib/include/fmt/format-inl.h"
  },
  {
   "alignment" : 4,
   "linker_set_key" : "_ZTIA24_N3fmt2v76detail19divtest_table_entryIyEE",
   "name" : "fmt::v7::detail::divtest_table_entry<unsigned long long> [24]",
   "referenced_type" : "_ZTIN3fmt2v76detail19divtest_table_entryIyEE",
   "self_type" : "_ZTIA24_N3fmt2v76detail19divtest_table_entryIyEE",
   "size" : 384,
   "source_file" : "external/fmtlib/include/fmt/format-inl.h"
  },
  {
   "alignment" : 1,
   "linker_set_key" : "_ZTIA256_c",
   "name" : "char [256]",
   "referenced_type" : "_ZTIc",
   "self_type" : "_ZTIA256_c",
   "size" : 256,
   "source_file" : "external/fmtlib/include/fmt/core.h"
  },
  {
   "alignment" : 4,
   "linker_set_key" : "_ZTIA27_y",
   "name" : "unsigned long long [27]",
   "referenced_type" : "_ZTIy",
   "self_type" : "_ZTIA27_y",
   "size" : 216,
   "source_file" : "external/fmtlib/include/fmt/format-inl.h"
  },
  {
   "alignment" : 4,
   "linker_set_key" : "_ZTIA2_N3fmt2v76detail5valueINS0_20basic_format_contextINS1_15buffer_appenderIcEEcEEEE",
   "name" : "fmt::v7::detail::value<fmt::v7::basic_format_context<fmt::v7::detail::buffer_appender<char>, char>> [2]",
   "referenced_type" : "_ZTIN3fmt2v76detail5valueINS0_20basic_format_contextINS1_15buffer_appenderIcEEcEEEE",
   "self_type" : "_ZTIA2_N3fmt2v76detail5valueINS0_20basic_format_contextINS1_15buffer_appenderIcEEcEEEE",
   "size" : 16,
   "source_file" : "external/fmtlib/include/fmt/core.h"
  },
  {
   "alignment" : 4,
   "linker_set_key" : "_ZTIA2_ZN3fmt2v76detail9dragonbox23small_division_by_pow10ILi1EEEjjEUt_",
   "name" : "(anonymous struct at external/fmtlib/include/fmt/format-inl.h:1805:20) [2]",
   "referenced_type" : "_ZTIZN3fmt2v76detail9dragonbox23small_division_by_pow10ILi1EEEjjEUt_",
   "self_type" : "_ZTIA2_ZN3fmt2v76detail9dragonbox23small_division_by_pow10ILi1EEEjjEUt_",
   "size" : 24,
   "source_file" : "external/fmtlib/include/fmt/format-inl.h"
  },
  {
   "alignment" : 4,
   "linker_set_key" : "_ZTIA2_ZN3fmt2v76detail9dragonbox23small_division_by_pow10ILi2EEEjjEUt_",
   "name" : "(anonymous struct at external/fmtlib/include/fmt/format-inl.h:1805:20) [2]",
   "referenced_type" : "_ZTIZN3fmt2v76detail9dragonbox23small_division_by_pow10ILi2EEEjjEUt_",
   "self_type" : "_ZTIA2_ZN3fmt2v76detail9dragonbox23small_division_by_pow10ILi2EEEjjEUt_",
   "size" : 24,
   "source_file" : "external/fmtlib/include/fmt/format-inl.h"
  },
  {
   "alignment" : 4,
   "linker_set_key" : "_ZTIA2_ZN3fmt2v76detail9dragonbox37check_divisibility_and_divide_by_pow5ILi1EEEbRjEUt_",
   "name" : "(anonymous struct at external/fmtlib/include/fmt/format-inl.h:1788:20) [2]",
   "referenced_type" : "_ZTIZN3fmt2v76detail9dragonbox37check_divisibility_and_divide_by_pow5ILi1EEEbRjEUt_",
   "self_type" : "_ZTIA2_ZN3fmt2v76detail9dragonbox37check_divisibility_and_divide_by_pow5ILi1EEEbRjEUt_",
   "size" : 32,
   "source_file" : "external/fmtlib/include/fmt/format-inl.h"
  },
  {
   "alignment" : 4,
   "linker_set_key" : "_ZTIA2_ZN3fmt2v76detail9dragonbox37check_divisibility_and_divide_by_pow5ILi2EEEbRjEUt_",
   "name" : "(anonymous struct at external/fmtlib/include/fmt/format-inl.h:1788:20) [2]",
   "referenced_type" : "_ZTIZN3fmt2v76detail9dragonbox37check_divisibility_and_divide_by_pow5ILi2EEEbRjEUt_",
   "self_type" : "_ZTIA2_ZN3fmt2v76detail9dragonbox37check_divisibility_and_divide_by_pow5ILi2EEEbRjEUt_",
   "size" : 32,
   "source_file" : "external/fmtlib/include/fmt/format-inl.h"
  },
  {
   "alignment" : 1,
   "linker_set_key" : "_ZTIA2_c",
   "name" : "char [2]",
   "referenced_type" : "_ZTIc",
   "self_type" : "_ZTIA2_c",
   "size" : 2,
   "source_file" : "external/fmtlib/include/fmt/format.h"
  },
  {
   "alignment" : 4,
   "linker_set_key" : "_ZTIA32_j",
   "name" : "unsigned int [32]",
   "referenced_type" : "_ZTIj",
   "self_type" : "_ZTIA32_j",
   "size" : 128,
   "source_file" : "external/fmtlib/include/fmt/format.h"
  },
  {
   "alignment" : 4,
   "linker_set_key" : "_ZTIA39_j",
   "name" : "unsigned int [39]",
   "referenced_type" : "_ZTIj",
   "self_type" : "_ZTIA39_j",
   "size" : 156,
   "source_file" : "external/fmtlib/include/fmt/format-inl.h"
  },
  {
   "alignment" : 1,
   "linker_set_key" : "_ZTIA3_c",
   "name" : "char [3]",
   "referenced_type" : "_ZTIc",
   "self_type" : "_ZTIA3_c",
   "size" : 3,
   "source_file" : "external/fmtlib/include/fmt/core.h"
  },
  {
   "alignment" : 1,
   "linker_set_key" : "_ZTIA3_h",
   "name" : "unsigned char [3]",
   "referenced_type" : "_ZTIh",
   "self_type" : "_ZTIA3_h",
   "size" : 3,
   "source_file" : "external/fmtlib/include/fmt/core.h"
  },
  {
   "alignment" : 1,
   "linker_set_key" : "_ZTIA4_c",
   "name" : "char [4]",
   "referenced_type" : "_ZTIc",
   "self_type" : "_ZTIA4_c",
   "size" : 4,
   "source_file" : "external/fmtlib/include/fmt/core.h"
  },
  {
   "alignment" : 1,
   "linker_set_key" : "_ZTIA4_h",
   "name" : "unsigned char [4]",
   "referenced_type" : "_ZTIh",
   "self_type" : "_ZTIA4_h",
   "size" : 4,
   "source_file" : "external/fmtlib/include/fmt/format.h"
  },
  {
   "alignment" : 1,
   "linker_set_key" : "_ZTIA500_c",
   "name" : "char [500]",
   "referenced_type" : "_ZTIc",
   "self_type" : "_ZTIA500_c",
   "size" : 500,
   "source_file" : "external/fmtlib/include/fmt/format.h"
  },
  {
   "alignment" : 4,
   "linker_set_key" : "_ZTIA500_w",
   "name" : "wchar_t [500]",
   "referenced_type" : "_ZTIw",
   "self_type" : "_ZTIA500_w",
   "size" : 2000,
   "source_file" : "external/fmtlib/include/fmt/format.h"
  },
  {
   "alignment" : 1,
   "linker_set_key" : "_ZTIA5_c",
   "name" : "char [5]",
   "referenced_type" : "_ZTIc",
   "self_type" : "_ZTIA5_c",
   "size" : 5,
   "source_file" : "external/fmtlib/include/fmt/core.h"
  },
  {
   "alignment" : 4,
   "linker_set_key" : "_ZTIA5_i",
   "name" : "int [5]",
   "referenced_type" : "_ZTIi",
   "self_type" : "_ZTIA5_i",
   "size" : 20,
   "source_file" : "external/fmtlib/include/fmt/format-inl.h"
  },
  {
   "alignment" : 4,
   "linker_set_key" : "_ZTIA5_j",
   "name" : "unsigned int [5]",
   "referenced_type" : "_ZTIj",
   "self_type" : "_ZTIA5_j",
   "size" : 20,
   "source_file" : "external/fmtlib/include/fmt/format-inl.h"
  },
  {
   "alignment" : 4,
   "linker_set_key" : "_ZTIA5_w",
   "name" : "wchar_t [5]",
   "referenced_type" : "_ZTIw",
   "self_type" : "_ZTIA5_w",
   "size" : 20,
   "source_file" : "external/fmtlib/include/fmt/format.h"
  },
  {
   "alignment" : 2,
   "linker_set_key" : "_ZTIA64_t",
   "name" : "unsigned short [64]",
   "referenced_type" : "_ZTIt",
   "self_type" : "_ZTIA64_t",
   "size" : 128,
   "source_file" : "external/fmtlib/include/fmt/format.h"
  },
  {
   "alignment" : 4,
   "linker_set_key" : "_ZTIA78_y",
   "name" : "unsigned long long [78]",
   "referenced_type" : "_ZTIy",
   "self_type" : "_ZTIA78_y",
   "size" : 624,
   "source_file" : "external/fmtlib/include/fmt/format-inl.h"
  },
  {
   "alignment" : 1,
   "linker_set_key" : "_ZTIA7_c",
   "name" : "char [7]",
   "referenced_type" : "_ZTIc",
   "self_type" : "_ZTIA7_c",
   "size" : 7,
   "source_file" : "external/fmtlib/include/fmt/core.h"
  },
  {
   "alignment" : 2,
   "linker_set_key" : "_ZTIA87_s",
   "name" : "short [87]",
   "referenced_type" : "_ZTIs",
   "self_type" : "_ZTIA87_s",
   "size" : 174,
   "source_file" : "external/fmtlib/include/fmt/format-inl.h"
  },
  {
   "alignment" : 4,
   "linker_set_key" : "_ZTIA87_y",
   "name" : "unsigned long long [87]",
   "referenced_type" : "_ZTIy",
   "self_type" : "_ZTIA87_y",
   "size" : 696,
   "source_file" : "external/fmtlib/include/fmt/format-inl.h"
  },
  {
   "alignment" : 1,
   "linker_set_key" : "_ZTIA8_c",
   "name" : "char [8]",
   "referenced_type" : "_ZTIc",
   "self_type" : "_ZTIA8_c",
   "size" : 8,
   "source_file" : "external/fmtlib/include/fmt/format-inl.h"
  },
  {
   "alignment" : 1,
   "linker_set_key" : "_ZTIA92_c",
   "name" : "char [92]",
   "referenced_type" : "_ZTIc",
   "self_type" : "_ZTIA92_c",
   "size" : 92,
   "source_file" : "system/libbase/include/android-base/properties.h"
  },
  {
   "linker_set_key" : "_ZTIA_A2_c",
   "name" : "char [][2]",
   "referenced_type" : "_ZTIA2_c",
   "self_type" : "_ZTIA_A2_c",
   "source_file" : "external/fmtlib/include/fmt/format.h"
  },
  {
   "linker_set_key" : "_ZTIA_N3fmt2v76detail15uint128_wrapperE",
   "name" : "fmt::v7::detail::uint128_wrapper []",
   "referenced_type" : "_ZTIN3fmt2v76detail15uint128_wrapperE",
   "self_type" : "_ZTIA_N3fmt2v76detail15uint128_wrapperE",
   "source_file" : "external/fmtlib/include/fmt/format.h"
  },
  {
   "linker_set_key" : "_ZTIA_N3fmt2v76detail19divtest_table_entryIjEE",
   "name" : "fmt::v7::detail::divtest_table_entry<unsigned int> []",
   "referenced_type" : "_ZTIN3fmt2v76detail19divtest_table_entryIjEE",
   "self_type" : "_ZTIA_N3fmt2v76detail19divtest_table_entryIjEE",
   "source_file" : "external/fmtlib/include/fmt/format.h"
  },
  {
   "linker_set_key" : "_ZTIA_N3fmt2v76detail19divtest_table_entryIyEE",
   "name" : "fmt::v7::detail::divtest_table_entry<unsigned long long> []",
   "referenced_type" : "_ZTIN3fmt2v76detail19divtest_table_entryIyEE",
   "self_type" : "_ZTIA_N3fmt2v76detail19divtest_table_entryIyEE",
   "source_file" : "external/fmtlib/include/fmt/format.h"
  },
  {
   "linker_set_key" : "_ZTIA_c",
   "name" : "char []",
   "referenced_type" : "_ZTIc",
   "self_type" : "_ZTIA_c",
   "source_file" : "external/fmtlib/include/fmt/format.h"
  },
  {
   "linker_set_key" : "_ZTIA_j",
   "name" : "unsigned int []",
   "referenced_type" : "_ZTIj",
   "self_type" : "_ZTIA_j",
   "source_file" : "external/fmtlib/include/fmt/format.h"
  },
  {
   "linker_set_key" : "_ZTIA_s",
   "name" : "short []",
   "referenced_type" : "_ZTIs",
   "self_type" : "_ZTIA_s",
   "source_file" : "external/fmtlib/include/fmt/format.h"
  },
  {
   "linker_set_key" : "_ZTIA_y",
   "name" : "unsigned long long []",
   "referenced_type" : "_ZTIy",
   "self_type" : "_ZTIA_y",
   "source_file" : "external/fmtlib/include/fmt/format.h"
  }
 ],
 "builtin_types" :
 [
  {
   "alignment" : 4,
   "is_integral" : true,
   "is_unsigned" : true,
   "linker_set_key" : "_ZTIDi",
   "name" : "char32_t",
   "referenced_type" : "_ZTIDi",
   "self_type" : "_ZTIDi",
   "size" : 4
  },
  {
   "alignment" : 4,
   "linker_set_key" : "_ZTIDn",
   "name" : "nullptr_t",
   "referenced_type" : "_ZTIDn",
   "self_type" : "_ZTIDn",
   "size" : 4
  },
  {
   "alignment" : 2,
   "is_integral" : true,
   "is_unsigned" : true,
   "linker_set_key" : "_ZTIDs",
   "name" : "char16_t",
   "referenced_type" : "_ZTIDs",
   "self_type" : "_ZTIDs",
   "size" : 2
  },
  {
   "alignment" : 1,
   "is_integral" : true,
   "linker_set_key" : "_ZTIa",
   "name" : "signed char",
   "referenced_type" : "_ZTIa",
   "self_type" : "_ZTIa",
   "size" : 1
  },
  {
   "alignment" : 1,
   "is_integral" : true,
   "is_unsigned" : true,
   "linker_set_key" : "_ZTIb",
   "name" : "bool",
   "referenced_type" : "_ZTIb",
   "self_type" : "_ZTIb",
   "size" : 1
  },
  {
   "alignment" : 1,
   "is_integral" : true,
   "linker_set_key" : "_ZTIc",
   "name" : "char",
   "referenced_type" : "_ZTIc",
   "self_type" : "_ZTIc",
   "size" : 1
  },
  {
   "alignment" : 4,
   "linker_set_key" : "_ZTId",
   "name" : "double",
   "referenced_type" : "_ZTId",
   "self_type" : "_ZTId",
   "size" : 8
  },
  {
   "alignment" : 4,
   "linker_set_key" : "_ZTIe",
   "name" : "long double",
   "referenced_type" : "_ZTIe",
   "self_type" : "_ZTIe",
   "size" : 8
  },
  {
   "alignment" : 4,
   "linker_set_key" : "_ZTIf",
   "name" : "float",
   "referenced_type" : "_ZTIf",
   "self_type" : "_ZTIf",
   "size" : 4
  },
  {
   "alignment" : 1,
   "is_integral" : true,
   "is_unsigned" : true,
   "linker_set_key" : "_ZTIh",
   "name" : "unsigned char",
   "referenced_type" : "_ZTIh",
   "self_type" : "_ZTIh",
   "size" : 1
  },
  {
   "alignment" : 4,
   "is_integral" : true,
   "linker_set_key" : "_ZTIi",
   "name" : "int",
   "referenced_type" : "_ZTIi",
   "self_type" : "_ZTIi",
   "size" : 4
  },
  {
   "alignment" : 4,
   "is_integral" : true,
   "is_unsigned" : true,
   "linker_set_key" : "_ZTIj",
   "name" : "unsigned int",
   "referenced_type" : "_ZTIj",
   "self_type" : "_ZTIj",
   "size" : 4
  },
  {
   "alignment" : 4,
   "is_integral" : true,
   "linker_set_key" : "_ZTIl",
   "name" : "long",
   "referenced_type" : "_ZTIl",
   "self_type" : "_ZTIl",
   "size" : 4
  },
  {
   "alignment" : 4,
   "is_integral" : true,
   "is_unsigned" : true,
   "linker_set_key" : "_ZTIm",
   "name" : "unsigned long",
   "referenced_type" : "_ZTIm",
   "self_type" : "_ZTIm",
   "size" : 4
  },
  {
   "alignment" : 2,
   "is_integral" : true,
   "linker_set_key" : "_ZTIs",
   "name" : "short",
   "referenced_type" : "_ZTIs",
   "self_type" : "_ZTIs",
   "size" : 2
  },
  {
   "alignment" : 2,
   "is_integral" : true,
   "is_unsigned" : true,
   "linker_set_key" : "_ZTIt",
   "name" : "unsigned short",
   "referenced_type" : "_ZTIt",
   "self_type" : "_ZTIt",
   "size" : 2
  },
  {
   "linker_set_key" : "_ZTIv",
   "name" : "void",
   "referenced_type" : "_ZTIv",
   "self_type" : "_ZTIv"
  },
  {
   "alignment" : 4,
   "is_integral" : true,
   "linker_set_key" : "_ZTIw",
   "name" : "wchar_t",
   "referenced_type" : "_ZTIw",
   "self_type" : "_ZTIw",
   "size" : 4
  },
  {
   "alignment" : 4,
   "is_integral" : true,
   "linker_set_key" : "_ZTIx",
   "name" : "long long",
   "referenced_type" : "_ZTIx",
   "self_type" : "_ZTIx",
   "size" : 8
  },
  {
   "alignment" : 4,
   "is_integral" : true,
   "is_unsigned" : true,
   "linker_set_key" : "_ZTIy",
   "name" : "unsigned long long",
   "referenced_type" : "_ZTIy",
   "self_type" : "_ZTIy",
   "size" : 8
  }
 ],
 "elf_functions" :
 [
  {
   "name" : "_ZN10MappedFile6FromFdEixmi"
  },
  {
   "name" : "_ZN12TemporaryDir4initERKNSt3__112basic_stringIcNS0_11char_traitsIcEENS0_9allocatorIcEEEE"
  },
  {
   "name" : "_ZN12TemporaryDirC1Ev"
  },
  {
   "name" : "_ZN12TemporaryDirC2Ev"
  },
  {
   "name" : "_ZN12TemporaryDirD1Ev"
  },
  {
   "name" : "_ZN12TemporaryDirD2Ev"
  },
  {
   "name" : "_ZN13CapturedStdFd3strEv"
  },
  {
   "name" : "_ZN13CapturedStdFd4StopEv"
  },
  {
   "name" : "_ZN13CapturedStdFd5ResetEv"
  },
  {
   "name" : "_ZN13CapturedStdFd5StartEv"
  },
  {
   "name" : "_ZN13CapturedStdFdC1Ei"
  },
  {
   "name" : "_ZN13CapturedStdFdC2Ei"
  },
  {
   "name" : "_ZN13CapturedStdFdD1Ev"
  },
  {
   "name" : "_ZN13CapturedStdFdD2Ev"
  },
  {
   "name" : "_ZN13TemporaryFile4initERKNSt3__112basic_stringIcNS0_11char_traitsIcEENS0_9allocatorIcEEEE"
  },
  {
   "name" : "_ZN13TemporaryFile7releaseEv"
  },
  {
   "name" : "_ZN13TemporaryFileC1ERKNSt3__112basic_stringIcNS0_11char_traitsIcEENS0_9allocatorIcEEEE"
  },
  {
   "name" : "_ZN13TemporaryFileC1Ev"
  },
  {
   "name" : "_ZN13TemporaryFileC2ERKNSt3__112basic_stringIcNS0_11char_traitsIcEENS0_9allocatorIcEEEE"
  },
  {
   "name" : "_ZN13TemporaryFileC2Ev"
  },
  {
   "name" : "_ZN13TemporaryFileD1Ev"
  },
  {
   "name" : "_ZN13TemporaryFileD2Ev"
  },
  {
   "name" : "_ZN3fmt2v712format_errorD0Ev"
  },
  {
   "name" : "_ZN3fmt2v712format_errorD1Ev"
  },
  {
   "name" : "_ZN3fmt2v712format_errorD2Ev"
  },
  {
   "name" : "_ZN3fmt2v712system_error4initEiNS0_17basic_string_viewIcEENS0_11format_argsE"
  },
  {
   "name" : "_ZN3fmt2v712system_errorD0Ev"
  },
  {
   "name" : "_ZN3fmt2v712system_errorD1Ev"
  },
  {
   "name" : "_ZN3fmt2v712system_errorD2Ev"
  },
  {
   "binding" : "weak",
   "name" : "_ZN3fmt2v719basic_memory_bufferIcLj500ENSt3__19allocatorIcEEE4growEj"
  },
  {
   "binding" : "weak",
   "name" : "_ZN3fmt2v719basic_memory_bufferIjLj32ENSt3__19allocatorIjEEE4growEj"
  },
  {
   "binding" : "weak",
   "name" : "_ZN3fmt2v719basic_memory_bufferIwLj500ENSt3__19allocatorIwEEE4growEj"
  },
  {
   "name" : "_ZN3fmt2v719format_system_errorERNS0_6detail6bufferIcEEiNS0_17basic_string_viewIcEE"
  },
  {
   "name" : "_ZN3fmt2v719report_system_errorEiNS0_17basic_string_viewIcEE"
  },
  {
   "binding" : "weak",
   "name" : "_ZN3fmt2v76detail10locale_refC1INSt3__16localeEEERKT_"
  },
  {
   "binding" : "weak",
   "name" : "_ZN3fmt2v76detail10locale_refC2INSt3__16localeEEERKT_"
  },
  {
   "binding" : "weak",
   "name" : "_ZN3fmt2v76detail10vformat_toIcEENS0_20basic_format_contextINSt3__120back_insert_iteratorINS1_6bufferIT_EEEES7_E8iteratorERS8_NS0_17basic_string_viewIS7_EENS0_17basic_format_argsINS3_INS5_INS6_INS0_13type_identityIS7_E4typeEEEEESI_EEEE"
  },
  {
   "binding" : "weak",
   "name" : "_ZN3fmt2v76detail10vformat_toIcEEvRNS1_6bufferIT_EENS0_17basic_string_viewIS4_EENS0_17basic_format_argsINS0_20basic_format_contextINS1_15buffer_appenderINS0_13type_identityIS4_E4typeEEESE_EEEENS1_10locale_refE"
  },
  {
   "binding" : "weak",
   "name" : "_ZN3fmt2v76detail10write_charIcNSt3__120back_insert_iteratorINS1_6bufferIcEEEEEET0_S8_T_RKNS0_18basic_format_specsIS9_EE"
  },
  {
   "name" : "_ZN3fmt2v76detail11assert_failEPKciS3_"
  },
  {
   "binding" : "weak",
   "name" : "_ZN3fmt2v76detail11write_floatINS1_15buffer_appenderIcEENS1_14big_decimal_fpEcEET_S6_RKT0_RKNS0_18basic_format_specsIT1_EENS1_11float_specsESB_"
  },
  {
   "binding" : "weak",
   "name" : "_ZN3fmt2v76detail11write_floatINS1_15buffer_appenderIcEENS1_9dragonbox10decimal_fpIdEEcEET_S8_RKT0_RKNS0_18basic_format_specsIT1_EENS1_11float_specsESD_"
  },
  {
   "binding" : "weak",
   "name" : "_ZN3fmt2v76detail11write_floatINS1_15buffer_appenderIcEENS1_9dragonbox10decimal_fpIfEEcEET_S8_RKT0_RKNS0_18basic_format_specsIT1_EENS1_11float_specsESD_"
  },
  {
   "binding" : "weak",
   "name" : "_ZN3fmt2v76detail11write_floatINSt3__120back_insert_iteratorINS1_6bufferIcEEEENS1_14big_decimal_fpEcEET_S9_RKT0_RKNS0_18basic_format_specsIT1_EENS1_11float_specsESE_"
  },
  {
   "binding" : "weak",
   "name" : "_ZN3fmt2v76detail11write_floatINSt3__120back_insert_iteratorINS1_6bufferIcEEEENS1_9dragonbox10decimal_fpIdEEcEET_SB_RKT0_RKNS0_18basic_format_specsIT1_EENS1_11float_specsESG_"
  },
  {
   "binding" : "weak",
   "name" : "_ZN3fmt2v76detail11write_floatINSt3__120back_insert_iteratorINS1_6bufferIcEEEENS1_9dragonbox10decimal_fpIfEEcEET_SB_RKT0_RKNS0_18basic_format_specsIT1_EENS1_11float_specsESG_"
  },
  {
   "binding" : "weak",
   "name" : "_ZN3fmt2v76detail11write_floatINSt3__120back_insert_iteratorINS3_12basic_stringIcNS3_11char_traitsIcEENS3_9allocatorIcEEEEEENS1_9dragonbox10decimal_fpIdEEcEET_SF_RKT0_RKNS0_18basic_format_specsIT1_EENS1_11float_specsESK_"
  },
  {
   "binding" : "weak",
   "name" : "_ZN3fmt2v76detail11write_floatINSt3__120back_insert_iteratorINS3_12basic_stringIcNS3_11char_traitsIcEENS3_9allocatorIcEEEEEENS1_9dragonbox10decimal_fpIfEEcEET_SF_RKT0_RKNS0_18basic_format_specsIT1_EENS1_11float_specsESK_"
  },
  {
   "name" : "_ZN3fmt2v76detail12count_digitsILj4ENS1_16fallback_uintptrEEEiT0_"
  },
  {
   "binding" : "weak",
   "name" : "_ZN3fmt2v76detail12format_floatIdEEiT_iNS1_11float_specsERNS1_6bufferIcEE"
  },
  {
   "binding" : "weak",
   "name" : "_ZN3fmt2v76detail12format_floatIeEEiT_iNS1_11float_specsERNS1_6bufferIcEE"
  },
  {
   "name" : "_ZN3fmt2v76detail12report_errorEPFvRNS1_6bufferIcEEiNS0_17basic_string_viewIcEEEiS6_"
  },
  {
   "name" : "_ZN3fmt2v76detail13error_handler8on_errorEPKc"
  },
  {
   "binding" : "weak",
   "name" : "_ZN3fmt2v76detail13grouping_implIcEENSt3__112basic_stringIcNS3_11char_traitsIcEENS3_9allocatorIcEEEENS1_10locale_refE"
  },
  {
   "binding" : "weak",
   "name" : "_ZN3fmt2v76detail13grouping_implIwEENSt3__112basic_stringIcNS3_11char_traitsIcEENS3_9allocatorIcEEEENS1_10locale_refE"
  },
  {
   "name" : "_ZN3fmt2v76detail13utf8_to_utf16C1ENS0_17basic_string_viewIcEE"
  },
  {
   "name" : "_ZN3fmt2v76detail13utf8_to_utf16C2ENS0_17basic_string_viewIcEE"
  },
  {
   "binding" : "weak",
   "name" : "_ZN3fmt2v76detail14snprintf_floatIdEEiT_iNS1_11float_specsERNS1_6bufferIcEE"
  },
  {
   "binding" : "weak",
   "name" : "_ZN3fmt2v76detail14snprintf_floatIeEEiT_iNS1_11float_specsERNS1_6bufferIcEE"
  },
  {
   "binding" : "weak",
   "name" : "_ZN3fmt2v76detail14write_exponentIcNS1_15buffer_appenderIcEEEET0_iS5_"
  },
  {
   "binding" : "weak",
   "name" : "_ZN3fmt2v76detail14write_exponentIcNSt3__120back_insert_iteratorINS1_6bufferIcEEEEEET0_iS8_"
  },
  {
   "binding" : "weak",
   "name" : "_ZN3fmt2v76detail15fallback_formatIdEEvT_ibRNS1_6bufferIcEERi"
  },
  {
   "binding" : "weak",
   "name" : "_ZN3fmt2v76detail15fallback_formatIeEEvT_ibRNS1_6bufferIcEERi"
  },
  {
   "name" : "_ZN3fmt2v76detail17format_error_codeERNS1_6bufferIcEEiNS0_17basic_string_viewIcEE"
  },
  {
   "binding" : "weak",
   "name" : "_ZN3fmt2v76detail18decimal_point_implIcEET_NS1_10locale_refE"
  },
  {
   "binding" : "weak",
   "name" : "_ZN3fmt2v76detail18decimal_point_implIwEET_NS1_10locale_refE"
  },
  {
   "binding" : "weak",
   "name" : "_ZN3fmt2v76detail18thousands_sep_implIcEET_NS1_10locale_refE"
  },
  {
   "binding" : "weak",
   "name" : "_ZN3fmt2v76detail18thousands_sep_implIwEET_NS1_10locale_refE"
  },
  {
   "binding" : "weak",
   "name" : "_ZN3fmt2v76detail4fillINS1_15buffer_appenderIcEEcEET_S5_jRKNS1_6fill_tIT0_EE"
  },
  {
   "binding" : "weak",
   "name" : "_ZN3fmt2v76detail4fillINSt3__120back_insert_iteratorINS1_6bufferIcEEEEcEET_S8_jRKNS1_6fill_tIT0_EE"
  },
  {
   "binding" : "weak",
   "name" : "_ZN3fmt2v76detail4fillIPccEET_S4_jRKNS1_6fill_tIT0_EE"
  },
  {
   "binding" : "weak",
   "name" : "_ZN3fmt2v76detail5writeIcNS1_15buffer_appenderIcEEdLi0EEET0_S5_T1_"
  },
  {
   "binding" : "weak",
   "name" : "_ZN3fmt2v76detail5writeIcNS1_15buffer_appenderIcEEdLi0EEET0_S5_T1_NS0_18basic_format_specsIT_EENS1_10locale_refE"
  },
  {
   "binding" : "weak",
   "name" : "_ZN3fmt2v76detail5writeIcNS1_15buffer_appenderIcEEeLi0EEET0_S5_T1_"
  },
  {
   "binding" : "weak",
   "name" : "_ZN3fmt2v76detail5writeIcNS1_15buffer_appenderIcEEeLi0EEET0_S5_T1_NS0_18basic_format_specsIT_EENS1_10locale_refE"
  },
  {
   "binding" : "weak",
   "name" : "_ZN3fmt2v76detail5writeIcNS1_15buffer_appenderIcEEfLi0EEET0_S5_T1_"
  },
  {
   "binding" : "weak",
   "name" : "_ZN3fmt2v76detail5writeIcNS1_15buffer_appenderIcEEfLi0EEET0_S5_T1_NS0_18basic_format_specsIT_EENS1_10locale_refE"
  },
  {
   "binding" : "weak",
   "name" : "_ZN3fmt2v76detail5writeIcNS1_15buffer_appenderIcEEiLi0EEET0_S5_T1_"
  },
  {
   "binding" : "weak",
   "name" : "_ZN3fmt2v76detail5writeIcNS1_15buffer_appenderIcEEjLi0EEET0_S5_T1_"
  },
  {
   "binding" : "weak",
   "name" : "_ZN3fmt2v76detail5writeIcNS1_15buffer_appenderIcEExLi0EEET0_S5_T1_"
  },
  {
   "binding" : "weak",
   "name" : "_ZN3fmt2v76detail5writeIcNS1_15buffer_appenderIcEEyLi0EEET0_S5_T1_"
  },
  {
   "binding" : "weak",
   "name" : "_ZN3fmt2v76detail5writeIcNSt3__120back_insert_iteratorINS1_6bufferIcEEEEdLi0EEET0_S8_T1_"
  },
  {
   "binding" : "weak",
   "name" : "_ZN3fmt2v76detail5writeIcNSt3__120back_insert_iteratorINS1_6bufferIcEEEEdLi0EEET0_S8_T1_NS0_18basic_format_specsIT_EENS1_10locale_refE"
  },
  {
   "binding" : "weak",
   "name" : "_ZN3fmt2v76detail5writeIcNSt3__120back_insert_iteratorINS1_6bufferIcEEEEeLi0EEET0_S8_T1_"
  },
  {
   "binding" : "weak",
   "name" : "_ZN3fmt2v76detail5writeIcNSt3__120back_insert_iteratorINS1_6bufferIcEEEEeLi0EEET0_S8_T1_NS0_18basic_format_specsIT_EENS1_10locale_refE"
  },
  {
   "binding" : "weak",
   "name" : "_ZN3fmt2v76detail5writeIcNSt3__120back_insert_iteratorINS1_6bufferIcEEEEfLi0EEET0_S8_T1_"
  },
  {
   "binding" : "weak",
   "name" : "_ZN3fmt2v76detail5writeIcNSt3__120back_insert_iteratorINS1_6bufferIcEEEEfLi0EEET0_S8_T1_NS0_18basic_format_specsIT_EENS1_10locale_refE"
  },
  {
   "binding" : "weak",
   "name" : "_ZN3fmt2v76detail5writeIcNSt3__120back_insert_iteratorINS3_12basic_stringIcNS3_11char_traitsIcEENS3_9allocatorIcEEEEEEEET0_SC_PKT_"
  },
  {
   "binding" : "weak",
   "name" : "_ZN3fmt2v76detail5writeIcNSt3__120back_insert_iteratorINS3_12basic_stringIcNS3_11char_traitsIcEENS3_9allocatorIcEEEEEEdLi0EEET0_SC_T1_"
  },
  {
   "binding" : "weak",
   "name" : "_ZN3fmt2v76detail5writeIcNSt3__120back_insert_iteratorINS3_12basic_stringIcNS3_11char_traitsIcEENS3_9allocatorIcEEEEEEeLi0EEET0_SC_T1_"
  },
  {
   "binding" : "weak",
   "name" : "_ZN3fmt2v76detail5writeIcNSt3__120back_insert_iteratorINS3_12basic_stringIcNS3_11char_traitsIcEENS3_9allocatorIcEEEEEEfLi0EEET0_SC_T1_"
  },
  {
   "binding" : "weak",
   "name" : "_ZN3fmt2v76detail6bufferIcE6appendIcEEvPKT_S7_"
  },
  {
   "binding" : "weak",
   "name" : "_ZN3fmt2v76detail6bufferIwE6appendIwEEvPKT_S7_"
  },
  {
   "name" : "_ZN3fmt2v76detail7vformatENS0_17basic_string_viewIcEENS0_11format_argsE"
  },
  {
   "binding" : "weak",
   "name" : "_ZN3fmt2v76detail9dragonbox10to_decimalIdEENS2_10decimal_fpIT_EES5_"
  },
  {
   "binding" : "weak",
   "name" : "_ZN3fmt2v76detail9dragonbox10to_decimalIfEENS2_10decimal_fpIT_EES5_"
  },
  {
   "binding" : "weak",
   "name" : "_ZN3fmt2v76detail9write_ptrIcNSt3__120back_insert_iteratorINS1_6bufferIcEEEEjEET0_S8_T1_PKNS0_18basic_format_specsIT_EE"
  },
  {
   "name" : "_ZN3fmt2v76vprintENS0_17basic_string_viewIcEENS0_11format_argsE"
  },
  {
   "name" : "_ZN3fmt2v76vprintEP7__sFILENS0_17basic_string_viewIcEENS0_11format_argsE"
  },
  {
   "name" : "_ZN7android4base10LogMessage6streamEv"
  },
  {
   "name" : "_ZN7android4base10LogMessage7LogLineEPKcjNS0_11LogSeverityES3_S3_"
  },
  {
   "name" : "_ZN7android4base10LogMessageC1EPKcjNS0_11LogSeverityES3_i"
  },
  {
   "name" : "_ZN7android4base10LogMessageC1EPKcjNS0_5LogIdENS0_11LogSeverityES3_i"
  },
  {
   "name" : "_ZN7android4base10LogMessageC2EPKcjNS0_11LogSeverityES3_i"
  },
  {
   "name" : "_ZN7android4base10LogMessageC2EPKcjNS0_5LogIdENS0_11LogSeverityES3_i"
  },
  {
   "name" : "_ZN7android4base10LogMessageD1Ev"
  },
  {
   "name" : "_ZN7android4base10LogMessageD2Ev"
  },
  {
   "name" : "_ZN7android4base10LogdLoggerC1ENS0_5LogIdE"
  },
  {
   "name" : "_ZN7android4base10LogdLoggerC2ENS0_5LogIdE"
  },
  {
   "name" : "_ZN7android4base10LogdLoggerclENS0_5LogIdENS0_11LogSeverityEPKcS5_jS5_"
  },
  {
   "name" : "_ZN7android4base10MappedFile12FromOsHandleEixji"
  },
  {
   "name" : "_ZN7android4base10MappedFile5CloseEv"
  },
  {
   "name" : "_ZN7android4base10MappedFile6FromFdENS0_11borrowed_fdExji"
  },
  {
   "name" : "_ZN7android4base10MappedFileC1EOS1_"
  },
  {
   "name" : "_ZN7android4base10MappedFileC2EOS1_"
  },
  {
   "name" : "_ZN7android4base10MappedFileD1Ev"
  },
  {
   "name" : "_ZN7android4base10MappedFileD2Ev"
  },
  {
   "name" : "_ZN7android4base10MappedFileaSEOS1_"
  },
  {
   "name" : "_ZN7android4base10SetAborterEONSt3__18functionIFvPKcEEE"
  },
  {
   "name" : "_ZN7android4base10StartsWithENSt3__117basic_string_viewIcNS1_11char_traitsIcEEEES5_"
  },
  {
   "name" : "_ZN7android4base10StartsWithENSt3__117basic_string_viewIcNS1_11char_traitsIcEEEEc"
  },
  {
   "name" : "_ZN7android4base10WriteFullyENS0_11borrowed_fdEPKvj"
  },
  {
   "name" : "_ZN7android4base10WriteFullyEiPKvj"
  },
  {
   "name" : "_ZN7android4base10boot_clock3nowEv"
  },
  {
   "name" : "_ZN7android4base11GetPropertyERKNSt3__112basic_stringIcNS1_11char_traitsIcEENS1_9allocatorIcEEEES9_"
  },
  {
   "name" : "_ZN7android4base11GetThreadIdEv"
  },
  {
   "name" : "_ZN7android4base11InitLoggingEPPcONSt3__18functionIFvNS0_5LogIdENS0_11LogSeverityEPKcS8_jS8_EEEONS4_IFvS8_EEE"
  },
  {
   "name" : "_ZN7android4base11SetPropertyERKNSt3__112basic_stringIcNS1_11char_traitsIcEENS1_9allocatorIcEEEES9_"
  },
  {
   "name" : "_ZN7android4base11StdioLoggerENS0_5LogIdENS0_11LogSeverityEPKcS4_jS4_"
  },
  {
   "name" : "_ZN7android4base12KernelLoggerENS0_5LogIdENS0_11LogSeverityEPKcS4_jS4_"
  },
  {
   "name" : "_ZN7android4base12StderrLoggerENS0_5LogIdENS0_11LogSeverityEPKcS4_jS4_"
  },
  {
   "name" : "_ZN7android4base12StringPrintfEPKcz"
  },
  {
   "name" : "_ZN7android4base13SetDefaultTagERKNSt3__112basic_stringIcNS1_11char_traitsIcEENS1_9allocatorIcEEEE"
  },
  {
   "name" : "_ZN7android4base13StringAppendFEPNSt3__112basic_stringIcNS1_11char_traitsIcEENS1_9allocatorIcEEEEPKcz"
  },
  {
   "name" : "_ZN7android4base13StringAppendVEPNSt3__112basic_stringIcNS1_11char_traitsIcEENS1_9allocatorIcEEEEPKcPc"
  },
  {
   "name" : "_ZN7android4base13StringReplaceENSt3__117basic_string_viewIcNS1_11char_traitsIcEEEES5_S5_b"
  },
  {
   "name" : "_ZN7android4base14CachedProperty3GetEPb"
  },
  {
   "name" : "_ZN7android4base14CachedPropertyC1EPKc"
  },
  {
   "name" : "_ZN7android4base14CachedPropertyC2EPKc"
  },
  {
   "name" : "_ZN7android4base14DefaultAborterEPKc"
  },
  {
   "binding" : "weak",
   "name" : "_ZN7android4base14GetIntPropertyIaEET_RKNSt3__112basic_stringIcNS3_11char_traitsIcEENS3_9allocatorIcEEEES2_S2_S2_"
  },
  {
   "binding" : "weak",
   "name" : "_ZN7android4base14GetIntPropertyIiEET_RKNSt3__112basic_stringIcNS3_11char_traitsIcEENS3_9allocatorIcEEEES2_S2_S2_"
  },
  {
   "binding" : "weak",
   "name" : "_ZN7android4base14GetIntPropertyIsEET_RKNSt3__112basic_stringIcNS3_11char_traitsIcEENS3_9allocatorIcEEEES2_S2_S2_"
  },
  {
   "binding" : "weak",
   "name" : "_ZN7android4base14GetIntPropertyIxEET_RKNSt3__112basic_stringIcNS3_11char_traitsIcEENS3_9allocatorIcEEEES2_S2_S2_"
  },
  {
   "name" : "_ZN7android4base14ReadFdToStringENS0_11borrowed_fdEPNSt3__112basic_stringIcNS2_11char_traitsIcEENS2_9allocatorIcEEEE"
  },
  {
   "name" : "_ZN7android4base14ReadFdToStringEiPNSt3__112basic_stringIcNS1_11char_traitsIcEENS1_9allocatorIcEEEE"
  },
  {
   "name" : "_ZN7android4base15GetBoolPropertyERKNSt3__112basic_stringIcNS1_11char_traitsIcEENS1_9allocatorIcEEEEb"
  },
  {
   "binding" : "weak",
   "name" : "_ZN7android4base15GetUintPropertyIhEET_RKNSt3__112basic_stringIcNS3_11char_traitsIcEENS3_9allocatorIcEEEES2_S2_"
  },
  {
   "binding" : "weak",
   "name" : "_ZN7android4base15GetUintPropertyIjEET_RKNSt3__112basic_stringIcNS3_11char_traitsIcEENS3_9allocatorIcEEEES2_S2_"
  },
  {
   "binding" : "weak",
   "name" : "_ZN7android4base15GetUintPropertyItEET_RKNSt3__112basic_stringIcNS3_11char_traitsIcEENS3_9allocatorIcEEEES2_S2_"
  },
  {
   "binding" : "weak",
   "name" : "_ZN7android4base15GetUintPropertyIyEET_RKNSt3__112basic_stringIcNS3_11char_traitsIcEENS3_9allocatorIcEEEES2_S2_"
  },
  {
   "name" : "_ZN7android4base15ParseNetAddressERKNSt3__112basic_stringIcNS1_11char_traitsIcEENS1_9allocatorIcEEEEPS7_PiSA_SA_"
  },
  {
   "name" : "_ZN7android4base15WaitForPropertyERKNSt3__112basic_stringIcNS1_11char_traitsIcEENS1_9allocatorIcEEEES9_NS1_6chrono8durationIxNS1_5ratioILx1ELx1000EEEEE"
  },
  {
   "name" : "_ZN7android4base15WriteStringToFdERKNSt3__112basic_stringIcNS1_11char_traitsIcEENS1_9allocatorIcEEEENS0_11borrowed_fdE"
  },
  {
   "name" : "_ZN7android4base15WriteStringToFdERKNSt3__112basic_stringIcNS1_11char_traitsIcEENS1_9allocatorIcEEEEi"
  },
  {
   "name" : "_ZN7android4base16EqualsIgnoreCaseENSt3__117basic_string_viewIcNS1_11char_traitsIcEEEES5_"
  },
  {
   "name" : "_ZN7android4base16ReadFileToStringERKNSt3__112basic_stringIcNS1_11char_traitsIcEENS1_9allocatorIcEEEEPS7_b"
  },
  {
   "name" : "_ZN7android4base17GetExecutablePathEv"
  },
  {
   "name" : "_ZN7android4base17ReadFullyAtOffsetENS0_11borrowed_fdEPvjx"
  },
  {
   "name" : "_ZN7android4base17ReadFullyAtOffsetEiPvjx"
  },
  {
   "name" : "_ZN7android4base17ScopedLogSeverityC1ENS0_11LogSeverityE"
  },
  {
   "name" : "_ZN7android4base17ScopedLogSeverityC2ENS0_11LogSeverityE"
  },
  {
   "name" : "_ZN7android4base17ScopedLogSeverityD1Ev"
  },
  {
   "name" : "_ZN7android4base17ScopedLogSeverityD2Ev"
  },
  {
   "name" : "_ZN7android4base17WriteStringToFileERKNSt3__112basic_stringIcNS1_11char_traitsIcEENS1_9allocatorIcEEEES9_b"
  },
  {
   "name" : "_ZN7android4base17WriteStringToFileERKNSt3__112basic_stringIcNS1_11char_traitsIcEENS1_9allocatorIcEEEES9_tjjb"
  },
  {
   "name" : "_ZN7android4base18EndsWithIgnoreCaseENSt3__117basic_string_viewIcNS1_11char_traitsIcEEEES5_"
  },
  {
   "name" : "_ZN7android4base18RemoveFileIfExistsERKNSt3__112basic_stringIcNS1_11char_traitsIcEENS1_9allocatorIcEEEEPS7_"
  },
  {
   "name" : "_ZN7android4base20StartsWithIgnoreCaseENSt3__117basic_string_viewIcNS1_11char_traitsIcEEEES5_"
  },
  {
   "name" : "_ZN7android4base21GetMinimumLogSeverityEv"
  },
  {
   "name" : "_ZN7android4base21SetMinimumLogSeverityENS0_11LogSeverityE"
  },
  {
   "name" : "_ZN7android4base22GetExecutableDirectoryEv"
  },
  {
   "name" : "_ZN7android4base23SystemErrorCodeToStringEi"
  },
  {
   "name" : "_ZN7android4base23WaitForPropertyCreationERKNSt3__112basic_stringIcNS1_11char_traitsIcEENS1_9allocatorIcEEEENS1_6chrono8durationIxNS1_5ratioILx1ELx1000EEEEE"
  },
  {
   "name" : "_ZN7android4base24SendFileDescriptorVectorENS0_11borrowed_fdEPKvjRKNSt3__16vectorIiNS4_9allocatorIiEEEE"
  },
  {
   "name" : "_ZN7android4base24SendFileDescriptorVectorEiPKvjRKNSt3__16vectorIiNS3_9allocatorIiEEEE"
  },
  {
   "name" : "_ZN7android4base27ReceiveFileDescriptorVectorENS0_11borrowed_fdEPvjjPNSt3__16vectorINS0_14unique_fd_implINS0_13DefaultCloserEEENS3_9allocatorIS7_EEEE"
  },
  {
   "name" : "_ZN7android4base27ReceiveFileDescriptorVectorEiPvjjPNSt3__16vectorINS0_14unique_fd_implINS0_13DefaultCloserEEENS2_9allocatorIS6_EEEE"
  },
  {
   "binding" : "weak",
   "name" : "_ZN7android4base4JoinINSt3__16vectorINS2_12basic_stringIcNS2_11char_traitsIcEENS2_9allocatorIcEEEENS7_IS9_EEEERKS9_EES9_RKT_T0_"
  },
  {
   "binding" : "weak",
   "name" : "_ZN7android4base4JoinINSt3__16vectorINS2_12basic_stringIcNS2_11char_traitsIcEENS2_9allocatorIcEEEENS7_IS9_EEEEcEES9_RKT_T0_"
  },
  {
   "binding" : "weak",
   "name" : "_ZN7android4base4JoinINSt3__16vectorIPKcNS2_9allocatorIS5_EEEERKNS2_12basic_stringIcNS2_11char_traitsIcEENS6_IcEEEEEESD_RKT_T0_"
  },
  {
   "binding" : "weak",
   "name" : "_ZN7android4base4JoinINSt3__16vectorIPKcNS2_9allocatorIS5_EEEEcEENS2_12basic_stringIcNS2_11char_traitsIcEENS6_IcEEEERKT_T0_"
  },
  {
   "name" : "_ZN7android4base4TrimERKNSt3__112basic_stringIcNS1_11char_traitsIcEENS1_9allocatorIcEEEE"
  },
  {
   "name" : "_ZN7android4base5SplitERKNSt3__112basic_stringIcNS1_11char_traitsIcEENS1_9allocatorIcEEEES9_"
  },
  {
   "name" : "_ZN7android4base7AllPids11PidIterator9IncrementEv"
  },
  {
   "name" : "_ZN7android4base7DirnameERKNSt3__112basic_stringIcNS1_11char_traitsIcEENS1_9allocatorIcEEEE"
  },
  {
   "name" : "_ZN7android4base8BasenameERKNSt3__112basic_stringIcNS1_11char_traitsIcEENS1_9allocatorIcEEEE"
  },
  {
   "name" : "_ZN7android4base8EndsWithENSt3__117basic_string_viewIcNS1_11char_traitsIcEEEES5_"
  },
  {
   "name" : "_ZN7android4base8EndsWithENSt3__117basic_string_viewIcNS1_11char_traitsIcEEEEc"
  },
  {
   "name" : "_ZN7android4base8ReadlinkERKNSt3__112basic_stringIcNS1_11char_traitsIcEENS1_9allocatorIcEEEEPS7_"
  },
  {
   "name" : "_ZN7android4base8RealpathERKNSt3__112basic_stringIcNS1_11char_traitsIcEENS1_9allocatorIcEEEEPS7_"
  },
  {
   "name" : "_ZN7android4base9ParseBoolENSt3__117basic_string_viewIcNS1_11char_traitsIcEEEE"
  },
  {
   "binding" : "weak",
   "name" : "_ZN7android4base9ParseUintIhEEbPKcPT_S4_b"
  },
  {
   "binding" : "weak",
   "name" : "_ZN7android4base9ParseUintIjEEbPKcPT_S4_b"
  },
  {
   "binding" : "weak",
   "name" : "_ZN7android4base9ParseUintItEEbPKcPT_S4_b"
  },
  {
   "binding" : "weak",
   "name" : "_ZN7android4base9ParseUintIyEEbPKcPT_S4_b"
  },
  {
   "name" : "_ZN7android4base9ReadFullyENS0_11borrowed_fdEPvj"
  },
  {
   "name" : "_ZN7android4base9ReadFullyEiPvj"
  },
  {
   "name" : "_ZN7android4base9SetLoggerEONSt3__18functionIFvNS0_5LogIdENS0_11LogSeverityEPKcS6_jS6_EEE"
  },
  {
   "name" : "_ZN7android4base9ShouldLogENS0_11LogSeverityEPKc"
  },
  {
   "name" : "_ZN7android4baselsERNSt3__113basic_ostreamIcNS1_11char_traitsIcEEEERKNS0_5TimerE"
  },
  {
   "name" : "_ZNK13CapturedStdFd2fdEv"
  },
  {
   "binding" : "weak",
   "name" : "_ZNK3fmt2v76detail10locale_ref3getINSt3__16localeEEET_v"
  },
  {
   "binding" : "weak",
   "name" : "_ZNKSt3__110__function6__funcIN7android4base10LogdLoggerENS_9allocatorIS4_EEFvNS3_5LogIdENS3_11LogSeverityEPKcSA_jSA_EE7__cloneEPNS0_6__baseISB_EE"
  },
  {
   "binding" : "weak",
   "name" : "_ZNKSt3__110__function6__funcIN7android4base10LogdLoggerENS_9allocatorIS4_EEFvNS3_5LogIdENS3_11LogSeverityEPKcSA_jSA_EE7__cloneEv"
  },
  {
   "binding" : "weak",
   "name" : "_ZNKSt3__110__function6__funcIPFvPKcENS_9allocatorIS5_EES4_E7__cloneEPNS0_6__baseIS4_EE"
  },
  {
   "binding" : "weak",
   "name" : "_ZNKSt3__110__function6__funcIPFvPKcENS_9allocatorIS5_EES4_E7__cloneEv"
  },
  {
   "binding" : "weak",
   "name" : "_ZNKSt3__115basic_stringbufIcNS_11char_traitsIcEENS_9allocatorIcEEE3strEv"
  },
  {
   "binding" : "weak",
   "name" : "_ZNSt3__110__function6__funcIN7android4base10LogdLoggerENS_9allocatorIS4_EEFvNS3_5LogIdENS3_11LogSeverityEPKcSA_jSA_EE18destroy_deallocateEv"
  },
  {
   "binding" : "weak",
   "name" : "_ZNSt3__110__function6__funcIN7android4base10LogdLoggerENS_9allocatorIS4_EEFvNS3_5LogIdENS3_11LogSeverityEPKcSA_jSA_EE7destroyEv"
  },
  {
   "binding" : "weak",
   "name" : "_ZNSt3__110__function6__funcIN7android4base10LogdLoggerENS_9allocatorIS4_EEFvNS3_5LogIdENS3_11LogSeverityEPKcSA_jSA_EEclEOS7_OS8_OSA_SF_OjSF_"
  },
  {
   "binding" : "weak",
   "name" : "_ZNSt3__110__function6__funcIPFvPKcENS_9allocatorIS5_EES4_E18destroy_deallocateEv"
  },
  {
   "binding" : "weak",
   "name" : "_ZNSt3__110__function6__funcIPFvPKcENS_9allocatorIS5_EES4_E7destroyEv"
  },
  {
   "binding" : "weak",
   "name" : "_ZNSt3__110__function6__funcIPFvPKcENS_9allocatorIS5_EES4_EclEOS3_"
  },
  {
   "binding" : "weak",
   "name" : "_ZNSt3__115basic_stringbufIcNS_11char_traitsIcEENS_9allocatorIcEEE7seekoffExNS_8ios_base7seekdirEj"
  },
  {
   "binding" : "weak",
   "name" : "_ZNSt3__115basic_stringbufIcNS_11char_traitsIcEENS_9allocatorIcEEE8overflowEi"
  },
  {
   "binding" : "weak",
   "name" : "_ZNSt3__115basic_stringbufIcNS_11char_traitsIcEENS_9allocatorIcEEE9pbackfailEi"
  },
  {
   "binding" : "weak",
   "name" : "_ZNSt3__115basic_stringbufIcNS_11char_traitsIcEENS_9allocatorIcEEE9underflowEv"
  },
  {
   "binding" : "weak",
   "name" : "_ZNSt3__124__put_character_sequenceIcNS_11char_traitsIcEEEERNS_13basic_ostreamIT_T0_EES7_PKS4_j"
  },
  {
   "binding" : "weak",
   "name" : "_ZNSt3__16vectorIN7android4base14unique_fd_implINS2_13DefaultCloserEEENS_9allocatorIS5_EEE13__vdeallocateEv"
  },
  {
   "binding" : "weak",
   "name" : "_ZNSt3__16vectorIN7android4base14unique_fd_implINS2_13DefaultCloserEEENS_9allocatorIS5_EEE24__emplace_back_slow_pathIJRiEEEvDpOT_"
  },
  {
   "binding" : "weak",
   "name" : "_ZNSt3__16vectorINS_12basic_stringIcNS_11char_traitsIcEENS_9allocatorIcEEEENS4_IS6_EEE21__push_back_slow_pathIS6_EEvOT_"
  },
  {
   "binding" : "weak",
   "name" : "_ZNSt3__16vectorIcNS_9allocatorIcEEE8__appendEj"
  },
  {
   "binding" : "weak",
   "name" : "_ZNSt3__1lsIcNS_11char_traitsIcEENS_9allocatorIcEEEERNS_13basic_ostreamIT_T0_EES9_RKNS_12basic_stringIS6_S7_T1_EE"
  }
 ],
 "elf_objects" :
 [
  {
   "binding" : "weak",
   "name" : "_ZGVN3fmt2v76detail10basic_dataIvE32dragonbox_pow10_significands_128E"
  },
  {
   "name" : "_ZN3fmt2v724instantiate_format_floatE"
  },
  {
   "binding" : "weak",
   "name" : "_ZN3fmt2v76detail10basic_dataIvE10hex_digitsE"
  },
  {
   "binding" : "weak",
   "name" : "_ZN3fmt2v76detail10basic_dataIvE11reset_colorE"
  },
  {
   "binding" : "weak",
   "name" : "_ZN3fmt2v76detail10basic_dataIvE12wreset_colorE"
  },
  {
   "binding" : "weak",
   "name" : "_ZN3fmt2v76detail10basic_dataIvE14powers_of_5_64E"
  },
  {
   "binding" : "weak",
   "name" : "_ZN3fmt2v76detail10basic_dataIvE15powers_of_10_64E"
  },
  {
   "binding" : "weak",
   "name" : "_ZN3fmt2v76detail10basic_dataIvE16background_colorE"
  },
  {
   "binding" : "weak",
   "name" : "_ZN3fmt2v76detail10basic_dataIvE16foreground_colorE"
  },
  {
   "binding" : "weak",
   "name" : "_ZN3fmt2v76detail10basic_dataIvE19left_padding_shiftsE"
  },
  {
   "binding" : "weak",
   "name" : "_ZN3fmt2v76detail10basic_dataIvE20right_padding_shiftsE"
  },
  {
   "binding" : "weak",
   "name" : "_ZN3fmt2v76detail10basic_dataIvE21grisu_pow10_exponentsE"
  },
  {
   "binding" : "weak",
   "name" : "_ZN3fmt2v76detail10basic_dataIvE23zero_or_powers_of_10_32E"
  },
  {
   "binding" : "weak",
   "name" : "_ZN3fmt2v76detail10basic_dataIvE23zero_or_powers_of_10_64E"
  },
  {
   "binding" : "weak",
   "name" : "_ZN3fmt2v76detail10basic_dataIvE24grisu_pow10_significandsE"
  },
  {
   "binding" : "weak",
   "name" : "_ZN3fmt2v76detail10basic_dataIvE25divtest_table_for_pow5_32E"
  },
  {
   "binding" : "weak",
   "name" : "_ZN3fmt2v76detail10basic_dataIvE25divtest_table_for_pow5_64E"
  },
  {
   "binding" : "weak",
   "name" : "_ZN3fmt2v76detail10basic_dataIvE27zero_or_powers_of_10_32_newE"
  },
  {
   "binding" : "weak",
   "name" : "_ZN3fmt2v76detail10basic_dataIvE27zero_or_powers_of_10_64_newE"
  },
  {
   "binding" : "weak",
   "name" : "_ZN3fmt2v76detail10basic_dataIvE31dragonbox_pow10_recovery_errorsE"
  },
  {
   "binding" : "weak",
   "name" : "_ZN3fmt2v76detail10basic_dataIvE31dragonbox_pow10_significands_64E"
  },
  {
   "binding" : "weak",
   "name" : "_ZN3fmt2v76detail10basic_dataIvE32dragonbox_pow10_significands_128E"
  },
  {
   "binding" : "weak",
   "name" : "_ZN3fmt2v76detail10basic_dataIvE5signsE"
  },
  {
   "binding" : "weak",
   "name" : "_ZN3fmt2v76detail10basic_dataIvE6digitsE"
  },
  {
   "binding" : "weak",
   "name" : "_ZTCNSt3__119basic_ostringstreamIcNS_11char_traitsIcEENS_9allocatorIcEEEE0_NS_13basic_ostreamIcS2_EE"
  },
  {
   "binding" : "weak",
   "name" : "_ZTTNSt3__119basic_ostringstreamIcNS_11char_traitsIcEENS_9allocatorIcEEEE"
  },
  {
   "name" : "_ZTVN3fmt2v712format_errorE"
  },
  {
   "name" : "_ZTVN3fmt2v712system_errorE"
  },
  {
   "binding" : "weak",
   "name" : "_ZTVN3fmt2v719basic_memory_bufferIcLj500ENSt3__19allocatorIcEEEE"
  },
  {
   "binding" : "weak",
   "name" : "_ZTVN3fmt2v719basic_memory_bufferIjLj32ENSt3__19allocatorIjEEEE"
  },
  {
   "binding" : "weak",
   "name" : "_ZTVN3fmt2v719basic_memory_bufferIwLj500ENSt3__19allocatorIwEEEE"
  },
  {
   "binding" : "weak",
   "name" : "_ZTVNSt3__110__function6__funcIN7android4base10LogdLoggerENS_9allocatorIS4_EEFvNS3_5LogIdENS3_11LogSeverityEPKcSA_jSA_EEE"
  },
  {
   "binding" : "weak",
   "name" : "_ZTVNSt3__110__function6__funcIPFvPKcENS_9allocatorIS5_EES4_EE"
  },
  {
   "binding" : "weak",
   "name" : "_ZTVNSt3__115basic_stringbufIcNS_11char_traitsIcEENS_9allocatorIcEEEE"
  },
  {
   "binding" : "weak",
   "name" : "_ZTVNSt3__119basic_ostringstreamIcNS_11char_traitsIcEENS_9allocatorIcEEEE"
  },
  {
   "binding" : "weak",
   "name" : "_ZZN3fmt2v76detail11utf8_decodeEPKcPjPiE4mins"
  },
  {
   "binding" : "weak",
   "name" : "_ZZN3fmt2v76detail11utf8_decodeEPKcPjPiE5masks"
  },
  {
   "binding" : "weak",
   "name" : "_ZZN3fmt2v76detail11utf8_decodeEPKcPjPiE6shiftc"
  },
  {
   "binding" : "weak",
   "name" : "_ZZN3fmt2v76detail11utf8_decodeEPKcPjPiE6shifte"
  },
  {
   "binding" : "weak",
   "name" : "_ZZN3fmt2v76detail5writeIcNS1_15buffer_appenderIcEEdLi0EEET0_S5_T1_E5specs"
  },
  {
   "binding" : "weak",
   "name" : "_ZZN3fmt2v76detail5writeIcNS1_15buffer_appenderIcEEeLi0EEET0_S5_T1_E5specs"
  },
  {
   "binding" : "weak",
   "name" : "_ZZN3fmt2v76detail5writeIcNS1_15buffer_appenderIcEEfLi0EEET0_S5_T1_E5specs"
  },
  {
   "binding" : "weak",
   "name" : "_ZZN3fmt2v76detail5writeIcNSt3__120back_insert_iteratorINS1_6bufferIcEEEEdLi0EEET0_S8_T1_E5specs"
  },
  {
   "binding" : "weak",
   "name" : "_ZZN3fmt2v76detail5writeIcNSt3__120back_insert_iteratorINS1_6bufferIcEEEEeLi0EEET0_S8_T1_E5specs"
  },
  {
   "binding" : "weak",
   "name" : "_ZZN3fmt2v76detail5writeIcNSt3__120back_insert_iteratorINS1_6bufferIcEEEEfLi0EEET0_S8_T1_E5specs"
  },
  {
   "binding" : "weak",
   "name" : "_ZZN3fmt2v76detail5writeIcNSt3__120back_insert_iteratorINS3_12basic_stringIcNS3_11char_traitsIcEENS3_9allocatorIcEEEEEEdLi0EEET0_SC_T1_E5specs"
  },
  {
   "binding" : "weak",
   "name" : "_ZZN3fmt2v76detail5writeIcNSt3__120back_insert_iteratorINS3_12basic_stringIcNS3_11char_traitsIcEENS3_9allocatorIcEEEEEEeLi0EEET0_SC_T1_E5specs"
  },
  {
   "binding" : "weak",
   "name" : "_ZZN3fmt2v76detail5writeIcNSt3__120back_insert_iteratorINS3_12basic_stringIcNS3_11char_traitsIcEENS3_9allocatorIcEEEEEEfLi0EEET0_SC_T1_E5specs"
  },
  {
   "binding" : "weak",
   "name" : "_ZZN3fmt2v76detail9bsr2log10EiE4data"
  }
 ],
 "enum_types" :
 [
  {
   "access" : "private",
   "alignment" : 4,
   "enum_fields" :
   [
    {
     "enum_field_value" : 22,
     "name" : "fmt::v7::format_int::buffer_size"
    }
   ],
   "linker_set_key" : "_ZTIN3fmt2v710format_int12$buffer_sizeE",
   "name" : "fmt::format_int::(anonymous enum at external/fmtlib/include/fmt/format.h:3338:3)",
   "referenced_type" : "_ZTIN3fmt2v710format_int12$buffer_sizeE",
   "self_type" : "_ZTIN3fmt2v710format_int12$buffer_sizeE",
   "size" : 4,
   "source_file" : "external/fmtlib/include/fmt/format.h",
   "underlying_type" : "_ZTIj"
  },
  {
   "alignment" : 4,
   "enum_fields" :
   [
    {
     "enum_field_value" : 500,
     "name" : "fmt::v7::inline_buffer_size"
    }
   ],
   "linker_set_key" : "_ZTIN3fmt2v719$inline_buffer_sizeE",
   "name" : "fmt::(anonymous enum at external/fmtlib/include/fmt/format.h:621:1)",
   "referenced_type" : "_ZTIN3fmt2v719$inline_buffer_sizeE",
   "self_type" : "_ZTIN3fmt2v719$inline_buffer_sizeE",
   "size" : 4,
   "source_file" : "external/fmtlib/include/fmt/format.h",
   "underlying_type" : "_ZTIj"
  },
  {
   "alignment" : 4,
   "enum_fields" :
   [
    {
     "enum_field_value" : 0,
     "name" : "fmt::v7::sign::none"
    },
    {
     "enum_field_value" : 1,
     "name" : "fmt::v7::sign::minus"
    },
    {
     "enum_field_value" : 2,
     "name" : "fmt::v7::sign::plus"
    },
    {
     "enum_field_value" : 3,
     "name" : "fmt::v7::sign::space"
    }
   ],
   "linker_set_key" : "_ZTIN3fmt2v74sign4typeE",
   "name" : "fmt::sign::type",
   "referenced_type" : "_ZTIN3fmt2v74sign4typeE",
   "self_type" : "_ZTIN3fmt2v74sign4typeE",
   "size" : 4,
   "source_file" : "external/fmtlib/include/fmt/format.h",
   "underlying_type" : "_ZTIj"
  },
  {
   "alignment" : 4,
   "enum_fields" :
   [
    {
     "enum_field_value" : 0,
     "name" : "fmt::v7::align::none"
    },
    {
     "enum_field_value" : 1,
     "name" : "fmt::v7::align::left"
    },
    {
     "enum_field_value" : 2,
     "name" : "fmt::v7::align::right"
    },
    {
     "enum_field_value" : 3,
     "name" : "fmt::v7::align::center"
    },
    {
     "enum_field_value" : 4,
     "name" : "fmt::v7::align::numeric"
    }
   ],
   "linker_set_key" : "_ZTIN3fmt2v75align4typeE",
   "name" : "fmt::align::type",
   "referenced_type" : "_ZTIN3fmt2v75align4typeE",
   "self_type" : "_ZTIN3fmt2v75align4typeE",
   "size" : 4,
   "source_file" : "external/fmtlib/include/fmt/format.h",
   "underlying_type" : "_ZTIj"
  },
  {
   "alignment" : 1,
   "linker_set_key" : "_ZTIN3fmt2v76detail10char8_typeE",
   "name" : "fmt::detail::char8_type",
   "referenced_type" : "_ZTIN3fmt2v76detail10char8_typeE",
   "self_type" : "_ZTIN3fmt2v76detail10char8_typeE",
   "size" : 1,
   "source_file" : "external/fmtlib/include/fmt/core.h",
   "underlying_type" : "_ZTIh"
  },
  {
   "alignment" : 4,
   "enum_fields" :
   [
    {
     "enum_field_value" : 1,
     "name" : "fmt::v7::detail::int_writer<fmt::v7::detail::buffer_appender<char>, char, unsigned int>::sep_size"
    }
   ],
   "linker_set_key" : "_ZTIN3fmt2v76detail10int_writerINS1_15buffer_appenderIcEEcjE9$sep_sizeE",
   "name" : "fmt::detail::int_writer<buffer_appender<char>, char, unsigned int>::(anonymous enum at external/fmtlib/include/fmt/format.h:1662:3)",
   "referenced_type" : "_ZTIN3fmt2v76detail10int_writerINS1_15buffer_appenderIcEEcjE9$sep_sizeE",
   "self_type" : "_ZTIN3fmt2v76detail10int_writerINS1_15buffer_appenderIcEEcjE9$sep_sizeE",
   "size" : 4,
   "source_file" : "external/fmtlib/include/fmt/format.h",
   "underlying_type" : "_ZTIj"
  },
  {
   "alignment" : 4,
   "enum_fields" :
   [
    {
     "enum_field_value" : 1,
     "name" : "fmt::v7::detail::int_writer<fmt::v7::detail::buffer_appender<char>, char, unsigned long long>::sep_size"
    }
   ],
   "linker_set_key" : "_ZTIN3fmt2v76detail10int_writerINS1_15buffer_appenderIcEEcyE9$sep_sizeE",
   "name" : "fmt::detail::int_writer<buffer_appender<char>, char, unsigned long long>::(anonymous enum at external/fmtlib/include/fmt/format.h:1662:3)",
   "referenced_type" : "_ZTIN3fmt2v76detail10int_writerINS1_15buffer_appenderIcEEcyE9$sep_sizeE",
   "self_type" : "_ZTIN3fmt2v76detail10int_writerINS1_15buffer_appenderIcEEcyE9$sep_sizeE",
   "size" : 4,
   "source_file" : "external/fmtlib/include/fmt/format.h",
   "underlying_type" : "_ZTIj"
  },
  {
   "alignment" : 4,
   "enum_fields" :
   [
    {
     "enum_field_value" : 1,
     "name" : "fmt::v7::detail::int_writer<std::__1::back_insert_iterator<fmt::v7::detail::buffer<char>>, char, unsigned int>::sep_size"
    }
   ],
   "linker_set_key" : "_ZTIN3fmt2v76detail10int_writerINSt3__120back_insert_iteratorINS1_6bufferIcEEEEcjE9$sep_sizeE",
   "name" : "fmt::detail::int_writer<back_insert_iterator<buffer<char>>, char, unsigned int>::(anonymous enum at external/fmtlib/include/fmt/format.h:1662:3)",
   "referenced_type" : "_ZTIN3fmt2v76detail10int_writerINSt3__120back_insert_iteratorINS1_6bufferIcEEEEcjE9$sep_sizeE",
   "self_type" : "_ZTIN3fmt2v76detail10int_writerINSt3__120back_insert_iteratorINS1_6bufferIcEEEEcjE9$sep_sizeE",
   "size" : 4,
   "source_file" : "external/fmtlib/include/fmt/format.h",
   "underlying_type" : "_ZTIj"
  },
  {
   "alignment" : 4,
   "enum_fields" :
   [
    {
     "enum_field_value" : 1,
     "name" : "fmt::v7::detail::int_writer<std::__1::back_insert_iterator<fmt::v7::detail::buffer<char>>, char, unsigned long long>::sep_size"
    }
   ],
   "linker_set_key" : "_ZTIN3fmt2v76detail10int_writerINSt3__120back_insert_iteratorINS1_6bufferIcEEEEcyE9$sep_sizeE",
   "name" : "fmt::detail::int_writer<back_insert_iterator<buffer<char>>, char, unsigned long long>::(anonymous enum at external/fmtlib/include/fmt/format.h:1662:3)",
   "referenced_type" : "_ZTIN3fmt2v76detail10int_writerINSt3__120back_insert_iteratorINS1_6bufferIcEEEEcyE9$sep_sizeE",
   "self_type" : "_ZTIN3fmt2v76detail10int_writerINSt3__120back_insert_iteratorINS1_6bufferIcEEEEcyE9$sep_sizeE",
   "size" : 4,
   "source_file" : "external/fmtlib/include/fmt/format.h",
   "underlying_type" : "_ZTIj"
  },
  {
   "alignment" : 4,
   "enum_fields" :
   [
    {
     "enum_field_value" : 1,
     "name" : "fmt::v7::detail::long_short"
    }
   ],
   "linker_set_key" : "_ZTIN3fmt2v76detail11$long_shortE",
   "name" : "fmt::detail::(anonymous enum at external/fmtlib/include/fmt/core.h:1119:1)",
   "referenced_type" : "_ZTIN3fmt2v76detail11$long_shortE",
   "self_type" : "_ZTIN3fmt2v76detail11$long_shortE",
   "size" : 4,
   "source_file" : "external/fmtlib/include/fmt/core.h",
   "underlying_type" : "_ZTIj"
  },
  {
   "alignment" : 4,
   "enum_fields" :
   [
    {
     "enum_field_value" : 0,
     "name" : "fmt::v7::detail::arg_id_kind::none"
    },
    {
     "enum_field_value" : 1,
     "name" : "fmt::v7::detail::arg_id_kind::index"
    },
    {
     "enum_field_value" : 2,
     "name" : "fmt::v7::detail::arg_id_kind::name"
    }
   ],
   "linker_set_key" : "_ZTIN3fmt2v76detail11arg_id_kindE",
   "name" : "fmt::detail::arg_id_kind",
   "referenced_type" : "_ZTIN3fmt2v76detail11arg_id_kindE",
   "self_type" : "_ZTIN3fmt2v76detail11arg_id_kindE",
   "size" : 4,
   "source_file" : "external/fmtlib/include/fmt/format.h",
   "underlying_type" : "_ZTIi"
  },
  {
   "alignment" : 1,
   "enum_fields" :
   [
    {
     "enum_field_value" : 0,
     "name" : "fmt::v7::detail::float_format::general"
    },
    {
     "enum_field_value" : 1,
     "name" : "fmt::v7::detail::float_format::exp"
    },
    {
     "enum_field_value" : 2,
     "name" : "fmt::v7::detail::float_format::fixed"
    },
    {
     "enum_field_value" : 3,
     "name" : "fmt::v7::detail::float_format::hex"
    }
   ],
   "linker_set_key" : "_ZTIN3fmt2v76detail12float_formatE",
   "name" : "fmt::detail::float_format",
   "referenced_type" : "_ZTIN3fmt2v76detail12float_formatE",
   "self_type" : "_ZTIN3fmt2v76detail12float_formatE",
   "size" : 1,
   "source_file" : "external/fmtlib/include/fmt/format.h",
   "underlying_type" : "_ZTIh"
  },
  {
   "access" : "private",
   "alignment" : 4,
   "enum_fields" :
   [
    {
     "enum_field_value" : 256,
     "name" : "fmt::v7::detail::counting_buffer<char>::buffer_size"
    }
   ],
   "linker_set_key" : "_ZTIN3fmt2v76detail15counting_bufferIcE12$buffer_sizeE",
   "name" : "fmt::detail::counting_buffer<char>::(anonymous enum at external/fmtlib/include/fmt/core.h:836:3)",
   "referenced_type" : "_ZTIN3fmt2v76detail15counting_bufferIcE12$buffer_sizeE",
   "self_type" : "_ZTIN3fmt2v76detail15counting_bufferIcE12$buffer_sizeE",
   "size" : 4,
   "source_file" : "external/fmtlib/include/fmt/core.h",
   "underlying_type" : "_ZTIj"
  },
  {
   "alignment" : 4,
   "enum_fields" :
   [
    {
     "enum_field_value" : 0,
     "name" : "fmt::v7::detail::round_direction::unknown"
    },
    {
     "enum_field_value" : 1,
     "name" : "fmt::v7::detail::round_direction::up"
    },
    {
     "enum_field_value" : 2,
     "name" : "fmt::v7::detail::round_direction::down"
    }
   ],
   "linker_set_key" : "_ZTIN3fmt2v76detail15round_directionE",
   "name" : "fmt::detail::round_direction",
   "referenced_type" : "_ZTIN3fmt2v76detail15round_directionE",
   "self_type" : "_ZTIN3fmt2v76detail15round_directionE",
   "size" : 4,
   "source_file" : "external/fmtlib/include/fmt/format-inl.h",
   "underlying_type" : "_ZTIi"
  },
  {
   "alignment" : 4,
   "enum_fields" :
   [
    {
     "enum_field_value" : 0,
     "name" : "fmt::v7::detail::is_unpacked_bit"
    }
   ],
   "linker_set_key" : "_ZTIN3fmt2v76detail16$is_unpacked_bitE",
   "name" : "fmt::detail::(anonymous enum at external/fmtlib/include/fmt/core.h:1245:1)",
   "referenced_type" : "_ZTIN3fmt2v76detail16$is_unpacked_bitE",
   "self_type" : "_ZTIN3fmt2v76detail16$is_unpacked_bitE",
   "size" : 8,
   "source_file" : "external/fmtlib/include/fmt/core.h",
   "underlying_type" : "_ZTIy"
  },
  {
   "alignment" : 4,
   "enum_fields" :
   [
    {
     "enum_field_value" : 15,
     "name" : "fmt::v7::detail::max_packed_args"
    }
   ],
   "linker_set_key" : "_ZTIN3fmt2v76detail16$max_packed_argsE",
   "name" : "fmt::detail::(anonymous enum at external/fmtlib/include/fmt/core.h:1244:1)",
   "referenced_type" : "_ZTIN3fmt2v76detail16$max_packed_argsE",
   "self_type" : "_ZTIN3fmt2v76detail16$max_packed_argsE",
   "size" : 4,
   "source_file" : "external/fmtlib/include/fmt/core.h",
   "underlying_type" : "_ZTIj"
  },
  {
   "alignment" : 4,
   "enum_fields" :
   [
    {
     "enum_field_value" : 4,
     "name" : "fmt::v7::detail::packed_arg_bits"
    }
   ],
   "linker_set_key" : "_ZTIN3fmt2v76detail16$packed_arg_bitsE",
   "name" : "fmt::detail::(anonymous enum at external/fmtlib/include/fmt/core.h:1242:1)",
   "referenced_type" : "_ZTIN3fmt2v76detail16$packed_arg_bitsE",
   "self_type" : "_ZTIN3fmt2v76detail16$packed_arg_bitsE",
   "size" : 4,
   "source_file" : "external/fmtlib/include/fmt/core.h",
   "underlying_type" : "_ZTIj"
  },
  {
   "alignment" : 4,
   "enum_fields" :
   [
    {
     "enum_field_value" : 0,
     "name" : "fmt::v7::detail::has_named_args_bit"
    }
   ],
   "linker_set_key" : "_ZTIN3fmt2v76detail19$has_named_args_bitE",
   "name" : "fmt::detail::(anonymous enum at external/fmtlib/include/fmt/core.h:1246:1)",
   "referenced_type" : "_ZTIN3fmt2v76detail19$has_named_args_bitE",
   "self_type" : "_ZTIN3fmt2v76detail19$has_named_args_bitE",
   "size" : 8,
   "source_file" : "external/fmtlib/include/fmt/core.h",
   "underlying_type" : "_ZTIy"
  },
  {
   "alignment" : 4,
   "enum_fields" :
   [
    {
     "enum_field_value" : 0,
     "name" : "fmt::v7::detail::type::none_type"
    },
    {
     "enum_field_value" : 1,
     "name" : "fmt::v7::detail::type::int_type"
    },
    {
     "enum_field_value" : 2,
     "name" : "fmt::v7::detail::type::uint_type"
    },
    {
     "enum_field_value" : 3,
     "name" : "fmt::v7::detail::type::long_long_type"
    },
    {
     "enum_field_value" : 4,
     "name" : "fmt::v7::detail::type::ulong_long_type"
    },
    {
     "enum_field_value" : 5,
     "name" : "fmt::v7::detail::type::int128_type"
    },
    {
     "enum_field_value" : 6,
     "name" : "fmt::v7::detail::type::uint128_type"
    },
    {
     "enum_field_value" : 7,
     "name" : "fmt::v7::detail::type::bool_type"
    },
    {
     "enum_field_value" : 8,
     "name" : "fmt::v7::detail::type::char_type"
    },
    {
     "enum_field_value" : 8,
     "name" : "fmt::v7::detail::type::last_integer_type"
    },
    {
     "enum_field_value" : 9,
     "name" : "fmt::v7::detail::type::float_type"
    },
    {
     "enum_field_value" : 10,
     "name" : "fmt::v7::detail::type::double_type"
    },
    {
     "enum_field_value" : 11,
     "name" : "fmt::v7::detail::type::long_double_type"
    },
    {
     "enum_field_value" : 11,
     "name" : "fmt::v7::detail::type::last_numeric_type"
    },
    {
     "enum_field_value" : 12,
     "name" : "fmt::v7::detail::type::cstring_type"
    },
    {
     "enum_field_value" : 13,
     "name" : "fmt::v7::detail::type::string_type"
    },
    {
     "enum_field_value" : 14,
     "name" : "fmt::v7::detail::type::pointer_type"
    },
    {
     "enum_field_value" : 15,
     "name" : "fmt::v7::detail::type::custom_type"
    }
   ],
   "linker_set_key" : "_ZTIN3fmt2v76detail4typeE",
   "name" : "fmt::detail::type",
   "referenced_type" : "_ZTIN3fmt2v76detail4typeE",
   "self_type" : "_ZTIN3fmt2v76detail4typeE",
   "size" : 4,
   "source_file" : "external/fmtlib/include/fmt/core.h",
   "underlying_type" : "_ZTIi"
  },
  {
   "access" : "private",
   "alignment" : 4,
   "enum_fields" :
   [
    {
     "enum_field_value" : 32,
     "name" : "fmt::v7::detail::bigint::bigits_capacity"
    }
   ],
   "linker_set_key" : "_ZTIN3fmt2v76detail6bigint16$bigits_capacityE",
   "name" : "fmt::detail::bigint::(anonymous enum at external/fmtlib/include/fmt/format-inl.h:1244:3)",
   "referenced_type" : "_ZTIN3fmt2v76detail6bigint16$bigits_capacityE",
   "self_type" : "_ZTIN3fmt2v76detail6bigint16$bigits_capacityE",
   "size" : 4,
   "source_file" : "external/fmtlib/include/fmt/format-inl.h",
   "underlying_type" : "_ZTIj"
  },
  {
   "alignment" : 4,
   "enum_fields" :
   [
    {
     "enum_field_value" : 0,
     "name" : "fmt::v7::detail::digits::more"
    },
    {
     "enum_field_value" : 1,
     "name" : "fmt::v7::detail::digits::done"
    },
    {
     "enum_field_value" : 2,
     "name" : "fmt::v7::detail::digits::error"
    }
   ],
   "linker_set_key" : "_ZTIN3fmt2v76detail6digits6resultE",
   "name" : "fmt::detail::digits::result",
   "referenced_type" : "_ZTIN3fmt2v76detail6digits6resultE",
   "self_type" : "_ZTIN3fmt2v76detail6digits6resultE",
   "size" : 4,
   "source_file" : "external/fmtlib/include/fmt/format-inl.h",
   "underlying_type" : "_ZTIj"
  },
  {
   "access" : "private",
   "alignment" : 4,
   "enum_fields" :
   [
    {
     "enum_field_value" : 4,
     "name" : "fmt::v7::detail::fill_t<char>::max_size"
    }
   ],
   "linker_set_key" : "_ZTIN3fmt2v76detail6fill_tIcE9$max_sizeE",
   "name" : "fmt::detail::fill_t<char>::(anonymous enum at external/fmtlib/include/fmt/format.h:1147:3)",
   "referenced_type" : "_ZTIN3fmt2v76detail6fill_tIcE9$max_sizeE",
   "self_type" : "_ZTIN3fmt2v76detail6fill_tIcE9$max_sizeE",
   "size" : 4,
   "source_file" : "external/fmtlib/include/fmt/format.h",
   "underlying_type" : "_ZTIj"
  },
  {
   "alignment" : 4,
   "enum_fields" :
   [
    {
     "enum_field_value" : 0,
     "name" : "android::base::VERBOSE"
    },
    {
     "enum_field_value" : 1,
     "name" : "android::base::DEBUG"
    },
    {
     "enum_field_value" : 2,
     "name" : "android::base::INFO"
    },
    {
     "enum_field_value" : 3,
     "name" : "android::base::WARNING"
    },
    {
     "enum_field_value" : 4,
     "name" : "android::base::ERROR"
    },
    {
     "enum_field_value" : 5,
     "name" : "android::base::FATAL_WITHOUT_ABORT"
    },
    {
     "enum_field_value" : 6,
     "name" : "android::base::FATAL"
    }
   ],
   "linker_set_key" : "_ZTIN7android4base11LogSeverityE",
   "name" : "android::base::LogSeverity",
   "referenced_type" : "_ZTIN7android4base11LogSeverityE",
   "self_type" : "_ZTIN7android4base11LogSeverityE",
   "size" : 4,
   "source_file" : "system/libbase/include/android-base/logging.h",
   "underlying_type" : "_ZTIj"
  },
  {
   "alignment" : 4,
   "enum_fields" :
   [
    {
     "enum_field_value" : 0,
     "name" : "android::base::ParseBoolResult::kError"
    },
    {
     "enum_field_value" : 1,
     "name" : "android::base::ParseBoolResult::kFalse"
    },
    {
     "enum_field_value" : 2,
     "name" : "android::base::ParseBoolResult::kTrue"
    }
   ],
   "linker_set_key" : "_ZTIN7android4base15ParseBoolResultE",
   "name" : "android::base::ParseBoolResult",
   "referenced_type" : "_ZTIN7android4base15ParseBoolResultE",
   "self_type" : "_ZTIN7android4base15ParseBoolResultE",
   "size" : 4,
   "source_file" : "system/libbase/include/android-base/parsebool.h",
   "underlying_type" : "_ZTIi"
  },
  {
   "alignment" : 4,
   "enum_fields" :
   [
    {
     "enum_field_value" : 0,
     "name" : "android::base::DEFAULT"
    },
    {
     "enum_field_value" : 1,
     "name" : "android::base::MAIN"
    },
    {
     "enum_field_value" : 2,
     "name" : "android::base::SYSTEM"
    },
    {
     "enum_field_value" : 3,
     "name" : "android::base::RADIO"
    },
    {
     "enum_field_value" : 4,
     "name" : "android::base::CRASH"
    }
   ],
   "linker_set_key" : "_ZTIN7android4base5LogIdE",
   "name" : "android::base::LogId",
   "referenced_type" : "_ZTIN7android4base5LogIdE",
   "self_type" : "_ZTIN7android4base5LogIdE",
   "size" : 4,
   "source_file" : "system/libbase/include/android-base/logging.h",
   "underlying_type" : "_ZTIj"
  },
  {
   "alignment" : 4,
   "enum_fields" :
   [
    {
     "enum_field_value" : 7,
     "name" : "fmt::v7::detail::snprintf_float(double, int, fmt::v7::detail::float_specs, buffer<char> &)::max_format_size"
    }
   ],
   "linker_set_key" : "_ZTIZN3fmt2v76detail14snprintf_floatIdEEiT_iNS1_11float_specsERNS1_6bufferIcEEE16$max_format_size",
   "name" : "(anonymous enum at external/fmtlib/include/fmt/format-inl.h:2506:3)",
   "referenced_type" : "_ZTIZN3fmt2v76detail14snprintf_floatIdEEiT_iNS1_11float_specsERNS1_6bufferIcEEE16$max_format_size",
   "self_type" : "_ZTIZN3fmt2v76detail14snprintf_floatIdEEiT_iNS1_11float_specsERNS1_6bufferIcEEE16$max_format_size",
   "size" : 4,
   "source_file" : "external/fmtlib/include/fmt/format-inl.h",
   "underlying_type" : "_ZTIj"
  },
  {
   "alignment" : 4,
   "enum_fields" :
   [
    {
     "enum_field_value" : 7,
     "name" : "fmt::v7::detail::snprintf_float(long double, int, fmt::v7::detail::float_specs, buffer<char> &)::max_format_size"
    }
   ],
   "linker_set_key" : "_ZTIZN3fmt2v76detail14snprintf_floatIeEEiT_iNS1_11float_specsERNS1_6bufferIcEEE16$max_format_size",
   "name" : "(anonymous enum at external/fmtlib/include/fmt/format-inl.h:2506:3)",
   "referenced_type" : "_ZTIZN3fmt2v76detail14snprintf_floatIeEEiT_iNS1_11float_specsERNS1_6bufferIcEEE16$max_format_size",
   "self_type" : "_ZTIZN3fmt2v76detail14snprintf_floatIeEEiT_iNS1_11float_specsERNS1_6bufferIcEEE16$max_format_size",
   "size" : 4,
   "source_file" : "external/fmtlib/include/fmt/format-inl.h",
   "underlying_type" : "_ZTIj"
  }
 ],
 "function_types" :
 [
  {
   "alignment" : 4,
   "linker_set_key" : "_ZTIFvPKvRN3fmt2v726basic_format_parse_contextIcNS2_6detail13error_handlerEEERNS2_20basic_format_contextINS4_15buffer_appenderIcEEcEEE",
   "name" : "void (const void *, fmt::v7::basic_format_parse_context<char, fmt::v7::detail::error_handler> &, fmt::v7::basic_format_context<fmt::v7::detail::buffer_appender<char>, char> &)",
   "parameters" :
   [
    {
     "referenced_type" : "_ZTIPKv"
    },
    {
     "referenced_type" : "_ZTIRN3fmt2v726basic_format_parse_contextIcNS0_6detail13error_handlerEEE"
    },
    {
     "referenced_type" : "_ZTIRN3fmt2v720basic_format_contextINS0_6detail15buffer_appenderIcEEcEE"
    }
   ],
   "referenced_type" : "_ZTIFvPKvRN3fmt2v726basic_format_parse_contextIcNS2_6detail13error_handlerEEERNS2_20basic_format_contextINS4_15buffer_appenderIcEEcEEE",
   "return_type" : "_ZTIv",
   "self_type" : "_ZTIFvPKvRN3fmt2v726basic_format_parse_contextIcNS2_6detail13error_handlerEEERNS2_20basic_format_contextINS4_15buffer_appenderIcEEcEEE",
   "source_file" : "external/fmtlib/include/fmt/core.h"
  },
  {
   "alignment" : 4,
   "linker_set_key" : "_ZTIFvPKvRN3fmt2v726basic_format_parse_contextIcNS2_6detail13error_handlerEEERNS2_20basic_format_contextINSt3__120back_insert_iteratorINS4_6bufferIcEEEEcEEE",
   "name" : "void (const void *, fmt::v7::basic_format_parse_context<char, fmt::v7::detail::error_handler> &, fmt::v7::basic_format_context<std::__1::back_insert_iterator<fmt::v7::detail::buffer<char>>, char> &)",
   "parameters" :
   [
    {
     "referenced_type" : "_ZTIPKv"
    },
    {
     "referenced_type" : "_ZTIRN3fmt2v726basic_format_parse_contextIcNS0_6detail13error_handlerEEE"
    },
    {
     "referenced_type" : "_ZTIRN3fmt2v720basic_format_contextINSt3__120back_insert_iteratorINS0_6detail6bufferIcEEEEcEE"
    }
   ],
   "referenced_type" : "_ZTIFvPKvRN3fmt2v726basic_format_parse_contextIcNS2_6detail13error_handlerEEERNS2_20basic_format_contextINSt3__120back_insert_iteratorINS4_6bufferIcEEEEcEEE",
   "return_type" : "_ZTIv",
   "self_type" : "_ZTIFvPKvRN3fmt2v726basic_format_parse_contextIcNS2_6detail13error_handlerEEERNS2_20basic_format_contextINSt3__120back_insert_iteratorINS4_6bufferIcEEEEcEEE",
   "source_file" : "external/fmtlib/include/fmt/core.h"
  },
  {
   "alignment" : 4,
   "linker_set_key" : "_ZTIFvRN3fmt2v76detail6bufferIcEEiNS0_17basic_string_viewIcEEE",
   "name" : "void (fmt::v7::detail::buffer<char> &, int, fmt::v7::basic_string_view<char>)",
   "parameters" :
   [
    {
     "referenced_type" : "_ZTIRN3fmt2v76detail6bufferIcEE"
    },
    {
     "referenced_type" : "_ZTIi"
    },
    {
     "referenced_type" : "_ZTIN3fmt2v717basic_string_viewIcEE"
    }
   ],
   "referenced_type" : "_ZTIFvRN3fmt2v76detail6bufferIcEEiNS0_17basic_string_viewIcEEE",
   "return_type" : "_ZTIv",
   "self_type" : "_ZTIFvRN3fmt2v76detail6bufferIcEEiNS0_17basic_string_viewIcEEE",
   "source_file" : "external/fmtlib/include/fmt/format.h"
  }
 ],
 "functions" :
 [
  {
   "access" : "private",
   "function_name" : "TemporaryDir::init",
   "linker_set_key" : "_ZN12TemporaryDir4initERKNSt3__112basic_stringIcNS0_11char_traitsIcEENS0_9allocatorIcEEEE",
   "parameters" :
   [
    {
     "is_this_ptr" : true,
     "referenced_type" : "_ZTIP12TemporaryDir"
    },
    {
     "referenced_type" : "_ZTIRKNSt3__112basic_stringIcNS_11char_traitsIcEENS_9allocatorIcEEEE"
    }
   ],
   "return_type" : "_ZTIb",
   "source_file" : "system/libbase/include/android-base/file.h"
  },
  {
   "function_name" : "TemporaryDir::TemporaryDir",
   "linker_set_key" : "_ZN12TemporaryDirC1Ev",
   "parameters" :
   [
    {
     "is_this_ptr" : true,
     "referenced_type" : "_ZTIP12TemporaryDir"
    }
   ],
   "return_type" : "_ZTIv",
   "source_file" : "system/libbase/include/android-base/file.h"
  },
  {
   "function_name" : "TemporaryDir::TemporaryDir",
   "linker_set_key" : "_ZN12TemporaryDirC2Ev",
   "parameters" :
   [
    {
     "is_this_ptr" : true,
     "referenced_type" : "_ZTIP12TemporaryDir"
    }
   ],
   "return_type" : "_ZTIv",
   "source_file" : "system/libbase/include/android-base/file.h"
  },
  {
   "function_name" : "TemporaryDir::~TemporaryDir",
   "linker_set_key" : "_ZN12TemporaryDirD1Ev",
   "parameters" :
   [
    {
     "is_this_ptr" : true,
     "referenced_type" : "_ZTIP12TemporaryDir"
    }
   ],
   "return_type" : "_ZTIv",
   "source_file" : "system/libbase/include/android-base/file.h"
  },
  {
   "function_name" : "TemporaryDir::~TemporaryDir",
   "linker_set_key" : "_ZN12TemporaryDirD2Ev",
   "parameters" :
   [
    {
     "is_this_ptr" : true,
     "referenced_type" : "_ZTIP12TemporaryDir"
    }
   ],
   "return_type" : "_ZTIv",
   "source_file" : "system/libbase/include/android-base/file.h"
  },
  {
   "function_name" : "CapturedStdFd::str",
   "linker_set_key" : "_ZN13CapturedStdFd3strEv",
   "parameters" :
   [
    {
     "is_this_ptr" : true,
     "referenced_type" : "_ZTIP13CapturedStdFd"
    }
   ],
   "return_type" : "_ZTINSt3__112basic_stringIcNS_11char_traitsIcEENS_9allocatorIcEEEE",
   "source_file" : "system/libbase/include/android-base/test_utils.h"
  },
  {
   "function_name" : "CapturedStdFd::Stop",
   "linker_set_key" : "_ZN13CapturedStdFd4StopEv",
   "parameters" :
   [
    {
     "is_this_ptr" : true,
     "referenced_type" : "_ZTIP13CapturedStdFd"
    }
   ],
   "return_type" : "_ZTIv",
   "source_file" : "system/libbase/include/android-base/test_utils.h"
  },
  {
   "function_name" : "CapturedStdFd::Reset",
   "linker_set_key" : "_ZN13CapturedStdFd5ResetEv",
   "parameters" :
   [
    {
     "is_this_ptr" : true,
     "referenced_type" : "_ZTIP13CapturedStdFd"
    }
   ],
   "return_type" : "_ZTIv",
   "source_file" : "system/libbase/include/android-base/test_utils.h"
  },
  {
   "function_name" : "CapturedStdFd::Start",
   "linker_set_key" : "_ZN13CapturedStdFd5StartEv",
   "parameters" :
   [
    {
     "is_this_ptr" : true,
     "referenced_type" : "_ZTIP13CapturedStdFd"
    }
   ],
   "return_type" : "_ZTIv",
   "source_file" : "system/libbase/include/android-base/test_utils.h"
  },
  {
   "function_name" : "CapturedStdFd::CapturedStdFd",
   "linker_set_key" : "_ZN13CapturedStdFdC1Ei",
   "parameters" :
   [
    {
     "is_this_ptr" : true,
     "referenced_type" : "_ZTIP13CapturedStdFd"
    },
    {
     "referenced_type" : "_ZTIi"
    }
   ],
   "return_type" : "_ZTIv",
   "source_file" : "system/libbase/include/android-base/test_utils.h"
  },
  {
   "function_name" : "CapturedStdFd::CapturedStdFd",
   "linker_set_key" : "_ZN13CapturedStdFdC2Ei",
   "parameters" :
   [
    {
     "is_this_ptr" : true,
     "referenced_type" : "_ZTIP13CapturedStdFd"
    },
    {
     "referenced_type" : "_ZTIi"
    }
   ],
   "return_type" : "_ZTIv",
   "source_file" : "system/libbase/include/android-base/test_utils.h"
  },
  {
   "function_name" : "CapturedStdFd::~CapturedStdFd",
   "linker_set_key" : "_ZN13CapturedStdFdD1Ev",
   "parameters" :
   [
    {
     "is_this_ptr" : true,
     "referenced_type" : "_ZTIP13CapturedStdFd"
    }
   ],
   "return_type" : "_ZTIv",
   "source_file" : "system/libbase/include/android-base/test_utils.h"
  },
  {
   "function_name" : "CapturedStdFd::~CapturedStdFd",
   "linker_set_key" : "_ZN13CapturedStdFdD2Ev",
   "parameters" :
   [
    {
     "is_this_ptr" : true,
     "referenced_type" : "_ZTIP13CapturedStdFd"
    }
   ],
   "return_type" : "_ZTIv",
   "source_file" : "system/libbase/include/android-base/test_utils.h"
  },
  {
   "access" : "private",
   "function_name" : "TemporaryFile::init",
   "linker_set_key" : "_ZN13TemporaryFile4initERKNSt3__112basic_stringIcNS0_11char_traitsIcEENS0_9allocatorIcEEEE",
   "parameters" :
   [
    {
     "is_this_ptr" : true,
     "referenced_type" : "_ZTIP13TemporaryFile"
    },
    {
     "referenced_type" : "_ZTIRKNSt3__112basic_stringIcNS_11char_traitsIcEENS_9allocatorIcEEEE"
    }
   ],
   "return_type" : "_ZTIv",
   "source_file" : "system/libbase/include/android-base/file.h"
  },
  {
   "function_name" : "TemporaryFile::release",
   "linker_set_key" : "_ZN13TemporaryFile7releaseEv",
   "parameters" :
   [
    {
     "is_this_ptr" : true,
     "referenced_type" : "_ZTIP13TemporaryFile"
    }
   ],
   "return_type" : "_ZTIi",
   "source_file" : "system/libbase/include/android-base/file.h"
  },
  {
   "function_name" : "TemporaryFile::TemporaryFile",
   "linker_set_key" : "_ZN13TemporaryFileC1ERKNSt3__112basic_stringIcNS0_11char_traitsIcEENS0_9allocatorIcEEEE",
   "parameters" :
   [
    {
     "is_this_ptr" : true,
     "referenced_type" : "_ZTIP13TemporaryFile"
    },
    {
     "referenced_type" : "_ZTIRKNSt3__112basic_stringIcNS_11char_traitsIcEENS_9allocatorIcEEEE"
    }
   ],
   "return_type" : "_ZTIv",
   "source_file" : "system/libbase/include/android-base/file.h"
  },
  {
   "function_name" : "TemporaryFile::TemporaryFile",
   "linker_set_key" : "_ZN13TemporaryFileC1Ev",
   "parameters" :
   [
    {
     "is_this_ptr" : true,
     "referenced_type" : "_ZTIP13TemporaryFile"
    }
   ],
   "return_type" : "_ZTIv",
   "source_file" : "system/libbase/include/android-base/file.h"
  },
  {
   "function_name" : "TemporaryFile::TemporaryFile",
   "linker_set_key" : "_ZN13TemporaryFileC2ERKNSt3__112basic_stringIcNS0_11char_traitsIcEENS0_9allocatorIcEEEE",
   "parameters" :
   [
    {
     "is_this_ptr" : true,
     "referenced_type" : "_ZTIP13TemporaryFile"
    },
    {
     "referenced_type" : "_ZTIRKNSt3__112basic_stringIcNS_11char_traitsIcEENS_9allocatorIcEEEE"
    }
   ],
   "return_type" : "_ZTIv",
   "source_file" : "system/libbase/include/android-base/file.h"
  },
  {
   "function_name" : "TemporaryFile::TemporaryFile",
   "linker_set_key" : "_ZN13TemporaryFileC2Ev",
   "parameters" :
   [
    {
     "is_this_ptr" : true,
     "referenced_type" : "_ZTIP13TemporaryFile"
    }
   ],
   "return_type" : "_ZTIv",
   "source_file" : "system/libbase/include/android-base/file.h"
  },
  {
   "function_name" : "TemporaryFile::~TemporaryFile",
   "linker_set_key" : "_ZN13TemporaryFileD1Ev",
   "parameters" :
   [
    {
     "is_this_ptr" : true,
     "referenced_type" : "_ZTIP13TemporaryFile"
    }
   ],
   "return_type" : "_ZTIv",
   "source_file" : "system/libbase/include/android-base/file.h"
  },
  {
   "function_name" : "TemporaryFile::~TemporaryFile",
   "linker_set_key" : "_ZN13TemporaryFileD2Ev",
   "parameters" :
   [
    {
     "is_this_ptr" : true,
     "referenced_type" : "_ZTIP13TemporaryFile"
    }
   ],
   "return_type" : "_ZTIv",
   "source_file" : "system/libbase/include/android-base/file.h"
  },
  {
   "function_name" : "fmt::v7::format_error::~format_error",
   "linker_set_key" : "_ZN3fmt2v712format_errorD0Ev",
   "parameters" :
   [
    {
     "is_this_ptr" : true,
     "referenced_type" : "_ZTIPN3fmt2v712format_errorE"
    }
   ],
   "return_type" : "_ZTIv",
   "source_file" : "external/fmtlib/include/fmt/format.h"
  },
  {
   "function_name" : "fmt::v7::format_error::~format_error",
   "linker_set_key" : "_ZN3fmt2v712format_errorD1Ev",
   "parameters" :
   [
    {
     "is_this_ptr" : true,
     "referenced_type" : "_ZTIPN3fmt2v712format_errorE"
    }
   ],
   "return_type" : "_ZTIv",
   "source_file" : "external/fmtlib/include/fmt/format.h"
  },
  {
   "function_name" : "fmt::v7::format_error::~format_error",
   "linker_set_key" : "_ZN3fmt2v712format_errorD2Ev",
   "parameters" :
   [
    {
     "is_this_ptr" : true,
     "referenced_type" : "_ZTIPN3fmt2v712format_errorE"
    }
   ],
   "return_type" : "_ZTIv",
   "source_file" : "external/fmtlib/include/fmt/format.h"
  },
  {
   "access" : "private",
   "function_name" : "fmt::v7::system_error::init",
   "linker_set_key" : "_ZN3fmt2v712system_error4initEiNS0_17basic_string_viewIcEENS0_11format_argsE",
   "parameters" :
   [
    {
     "is_this_ptr" : true,
     "referenced_type" : "_ZTIPN3fmt2v712system_errorE"
    },
    {
     "referenced_type" : "_ZTIi"
    },
    {
     "referenced_type" : "_ZTIN3fmt2v717basic_string_viewIcEE"
    },
    {
     "referenced_type" : "_ZTIN3fmt2v711format_argsE"
    }
   ],
   "return_type" : "_ZTIv",
   "source_file" : "external/fmtlib/include/fmt/format.h"
  },
  {
   "function_name" : "fmt::v7::system_error::~system_error",
   "linker_set_key" : "_ZN3fmt2v712system_errorD0Ev",
   "parameters" :
   [
    {
     "is_this_ptr" : true,
     "referenced_type" : "_ZTIPN3fmt2v712system_errorE"
    }
   ],
   "return_type" : "_ZTIv",
   "source_file" : "external/fmtlib/include/fmt/format.h"
  },
  {
   "function_name" : "fmt::v7::system_error::~system_error",
   "linker_set_key" : "_ZN3fmt2v712system_errorD1Ev",
   "parameters" :
   [
    {
     "is_this_ptr" : true,
     "referenced_type" : "_ZTIPN3fmt2v712system_errorE"
    }
   ],
   "return_type" : "_ZTIv",
   "source_file" : "external/fmtlib/include/fmt/format.h"
  },
  {
   "function_name" : "fmt::v7::system_error::~system_error",
   "linker_set_key" : "_ZN3fmt2v712system_errorD2Ev",
   "parameters" :
   [
    {
     "is_this_ptr" : true,
     "referenced_type" : "_ZTIPN3fmt2v712system_errorE"
    }
   ],
   "return_type" : "_ZTIv",
   "source_file" : "external/fmtlib/include/fmt/format.h"
  },
  {
   "access" : "protected",
   "function_name" : "fmt::v7::basic_memory_buffer<char, 500, std::__1::allocator<char>>::grow",
   "linker_set_key" : "_ZN3fmt2v719basic_memory_bufferIcLj500ENSt3__19allocatorIcEEE4growEj",
   "parameters" :
   [
    {
     "is_this_ptr" : true,
     "referenced_type" : "_ZTIPN3fmt2v719basic_memory_bufferIcLj500ENSt3__19allocatorIcEEEE"
    },
    {
     "referenced_type" : "_ZTIj"
    }
   ],
   "return_type" : "_ZTIv",
   "source_file" : "external/fmtlib/include/fmt/format.h"
  },
  {
   "access" : "protected",
   "function_name" : "fmt::v7::basic_memory_buffer<unsigned int, 32, std::__1::allocator<unsigned int>>::grow",
   "linker_set_key" : "_ZN3fmt2v719basic_memory_bufferIjLj32ENSt3__19allocatorIjEEE4growEj",
   "parameters" :
   [
    {
     "is_this_ptr" : true,
     "referenced_type" : "_ZTIPN3fmt2v719basic_memory_bufferIjLj32ENSt3__19allocatorIjEEEE"
    },
    {
     "referenced_type" : "_ZTIj"
    }
   ],
   "return_type" : "_ZTIv",
   "source_file" : "external/fmtlib/include/fmt/format.h"
  },
  {
   "access" : "protected",
   "function_name" : "fmt::v7::basic_memory_buffer<wchar_t, 500, std::__1::allocator<wchar_t>>::grow",
   "linker_set_key" : "_ZN3fmt2v719basic_memory_bufferIwLj500ENSt3__19allocatorIwEEE4growEj",
   "parameters" :
   [
    {
     "is_this_ptr" : true,
     "referenced_type" : "_ZTIPN3fmt2v719basic_memory_bufferIwLj500ENSt3__19allocatorIwEEEE"
    },
    {
     "referenced_type" : "_ZTIj"
    }
   ],
   "return_type" : "_ZTIv",
   "source_file" : "external/fmtlib/include/fmt/format.h"
  },
  {
   "function_name" : "fmt::v7::format_system_error",
   "linker_set_key" : "_ZN3fmt2v719format_system_errorERNS0_6detail6bufferIcEEiNS0_17basic_string_viewIcEE",
   "parameters" :
   [
    {
     "referenced_type" : "_ZTIRN3fmt2v76detail6bufferIcEE"
    },
    {
     "referenced_type" : "_ZTIi"
    },
    {
     "referenced_type" : "_ZTIN3fmt2v717basic_string_viewIcEE"
    }
   ],
   "return_type" : "_ZTIv",
   "source_file" : "external/fmtlib/include/fmt/format.h"
  },
  {
   "function_name" : "fmt::v7::report_system_error",
   "linker_set_key" : "_ZN3fmt2v719report_system_errorEiNS0_17basic_string_viewIcEE",
   "parameters" :
   [
    {
     "referenced_type" : "_ZTIi"
    },
    {
     "referenced_type" : "_ZTIN3fmt2v717basic_string_viewIcEE"
    }
   ],
   "return_type" : "_ZTIv",
   "source_file" : "external/fmtlib/include/fmt/format.h"
  },
  {
   "function_name" : "fmt::v7::detail::locale_ref::locale_ref",
   "linker_set_key" : "_ZN3fmt2v76detail10locale_refC1INSt3__16localeEEERKT_",
   "parameters" :
   [
    {
     "is_this_ptr" : true,
     "referenced_type" : "_ZTIPN3fmt2v76detail10locale_refE"
    },
    {
     "referenced_type" : "_ZTIRKNSt3__16localeE"
    }
   ],
   "return_type" : "_ZTIv",
   "source_file" : "external/fmtlib/include/fmt/format-inl.h",
   "template_args" : [ "_ZTINSt3__16localeE" ]
  },
  {
   "function_name" : "fmt::v7::detail::locale_ref::locale_ref",
   "linker_set_key" : "_ZN3fmt2v76detail10locale_refC2INSt3__16localeEEERKT_",
   "parameters" :
   [
    {
     "is_this_ptr" : true,
     "referenced_type" : "_ZTIPN3fmt2v76detail10locale_refE"
    },
    {
     "referenced_type" : "_ZTIRKNSt3__16localeE"
    }
   ],
   "return_type" : "_ZTIv",
   "source_file" : "external/fmtlib/include/fmt/format-inl.h",
   "template_args" : [ "_ZTINSt3__16localeE" ]
  },
  {
   "function_name" : "fmt::v7::detail::vformat_to",
   "linker_set_key" : "_ZN3fmt2v76detail10vformat_toIcEEvRNS1_6bufferIT_EENS0_17basic_string_viewIS4_EENS0_17basic_format_argsINS0_20basic_format_contextINS1_15buffer_appenderINS0_13type_identityIS4_E4typeEEESE_EEEENS1_10locale_refE",
   "parameters" :
   [
    {
     "referenced_type" : "_ZTIRN3fmt2v76detail6bufferIcEE"
    },
    {
     "referenced_type" : "_ZTIN3fmt2v717basic_string_viewIcEE"
    },
    {
     "referenced_type" : "_ZTIN3fmt2v717basic_format_argsINS0_20basic_format_contextINS0_6detail15buffer_appenderIcEEcEEEE"
    },
    {
     "default_arg" : true,
     "referenced_type" : "_ZTIN3fmt2v76detail10locale_refE"
    }
   ],
   "return_type" : "_ZTIv",
   "source_file" : "external/fmtlib/include/fmt/format.h",
   "template_args" : [ "_ZTIc" ]
  },
  {
   "function_name" : "fmt::v7::detail::write_char",
   "linker_set_key" : "_ZN3fmt2v76detail10write_charIcNSt3__120back_insert_iteratorINS1_6bufferIcEEEEEET0_S8_T_RKNS0_18basic_format_specsIS9_EE",
   "parameters" :
   [
    {
     "referenced_type" : "_ZTINSt3__120back_insert_iteratorIN3fmt2v76detail6bufferIcEEEE"
    },
    {
     "referenced_type" : "_ZTIc"
    },
    {
     "referenced_type" : "_ZTIRKN3fmt2v718basic_format_specsIcEE"
    }
   ],
   "return_type" : "_ZTINSt3__120back_insert_iteratorIN3fmt2v76detail6bufferIcEEEE",
   "source_file" : "external/fmtlib/include/fmt/format.h",
   "template_args" :
   [
    "_ZTIc",
    "_ZTINSt3__120back_insert_iteratorIN3fmt2v76detail6bufferIcEEEE"
   ]
  },
  {
   "function_name" : "fmt::v7::detail::assert_fail",
   "linker_set_key" : "_ZN3fmt2v76detail11assert_failEPKciS3_",
   "parameters" :
   [
    {
     "referenced_type" : "_ZTIPKc"
    },
    {
     "referenced_type" : "_ZTIi"
    },
    {
     "referenced_type" : "_ZTIPKc"
    }
   ],
   "return_type" : "_ZTIv",
   "source_file" : "external/fmtlib/include/fmt/core.h"
  },
  {
   "function_name" : "fmt::v7::detail::write_float",
   "linker_set_key" : "_ZN3fmt2v76detail11write_floatINS1_15buffer_appenderIcEENS1_14big_decimal_fpEcEET_S6_RKT0_RKNS0_18basic_format_specsIT1_EENS1_11float_specsESB_",
   "parameters" :
   [
    {
     "referenced_type" : "_ZTIN3fmt2v76detail15buffer_appenderIcEE"
    },
    {
     "referenced_type" : "_ZTIRKN3fmt2v76detail14big_decimal_fpE"
    },
    {
     "referenced_type" : "_ZTIRKN3fmt2v718basic_format_specsIcEE"
    },
    {
     "referenced_type" : "_ZTIN3fmt2v76detail11float_specsE"
    },
    {
     "referenced_type" : "_ZTIc"
    }
   ],
   "return_type" : "_ZTIN3fmt2v76detail15buffer_appenderIcEE",
   "source_file" : "external/fmtlib/include/fmt/format.h",
   "template_args" :
   [
    "_ZTIN3fmt2v76detail15buffer_appenderIcEE",
    "_ZTIN3fmt2v76detail14big_decimal_fpE",
    "_ZTIc"
   ]
  },
  {
   "function_name" : "fmt::v7::detail::write_float",
   "linker_set_key" : "_ZN3fmt2v76detail11write_floatINS1_15buffer_appenderIcEENS1_9dragonbox10decimal_fpIdEEcEET_S8_RKT0_RKNS0_18basic_format_specsIT1_EENS1_11float_specsESD_",
   "parameters" :
   [
    {
     "referenced_type" : "_ZTIN3fmt2v76detail15buffer_appenderIcEE"
    },
    {
     "referenced_type" : "_ZTIRKN3fmt2v76detail9dragonbox10decimal_fpIdEE"
    },
    {
     "referenced_type" : "_ZTIRKN3fmt2v718basic_format_specsIcEE"
    },
    {
     "referenced_type" : "_ZTIN3fmt2v76detail11float_specsE"
    },
    {
     "referenced_type" : "_ZTIc"
    }
   ],
   "return_type" : "_ZTIN3fmt2v76detail15buffer_appenderIcEE",
   "source_file" : "external/fmtlib/include/fmt/format.h",
   "template_args" :
   [
    "_ZTIN3fmt2v76detail15buffer_appenderIcEE",
    "_ZTIN3fmt2v76detail9dragonbox10decimal_fpIdEE",
    "_ZTIc"
   ]
  },
  {
   "function_name" : "fmt::v7::detail::write_float",
   "linker_set_key" : "_ZN3fmt2v76detail11write_floatINS1_15buffer_appenderIcEENS1_9dragonbox10decimal_fpIfEEcEET_S8_RKT0_RKNS0_18basic_format_specsIT1_EENS1_11float_specsESD_",
   "parameters" :
   [
    {
     "referenced_type" : "_ZTIN3fmt2v76detail15buffer_appenderIcEE"
    },
    {
     "referenced_type" : "_ZTIRKN3fmt2v76detail9dragonbox10decimal_fpIfEE"
    },
    {
     "referenced_type" : "_ZTIRKN3fmt2v718basic_format_specsIcEE"
    },
    {
     "referenced_type" : "_ZTIN3fmt2v76detail11float_specsE"
    },
    {
     "referenced_type" : "_ZTIc"
    }
   ],
   "return_type" : "_ZTIN3fmt2v76detail15buffer_appenderIcEE",
   "source_file" : "external/fmtlib/include/fmt/format.h",
   "template_args" :
   [
    "_ZTIN3fmt2v76detail15buffer_appenderIcEE",
    "_ZTIN3fmt2v76detail9dragonbox10decimal_fpIfEE",
    "_ZTIc"
   ]
  },
  {
   "function_name" : "fmt::v7::detail::write_float",
   "linker_set_key" : "_ZN3fmt2v76detail11write_floatINSt3__120back_insert_iteratorINS1_6bufferIcEEEENS1_14big_decimal_fpEcEET_S9_RKT0_RKNS0_18basic_format_specsIT1_EENS1_11float_specsESE_",
   "parameters" :
   [
    {
     "referenced_type" : "_ZTINSt3__120back_insert_iteratorIN3fmt2v76detail6bufferIcEEEE"
    },
    {
     "referenced_type" : "_ZTIRKN3fmt2v76detail14big_decimal_fpE"
    },
    {
     "referenced_type" : "_ZTIRKN3fmt2v718basic_format_specsIcEE"
    },
    {
     "referenced_type" : "_ZTIN3fmt2v76detail11float_specsE"
    },
    {
     "referenced_type" : "_ZTIc"
    }
   ],
   "return_type" : "_ZTINSt3__120back_insert_iteratorIN3fmt2v76detail6bufferIcEEEE",
   "source_file" : "external/fmtlib/include/fmt/format.h",
   "template_args" :
   [
    "_ZTINSt3__120back_insert_iteratorIN3fmt2v76detail6bufferIcEEEE",
    "_ZTIN3fmt2v76detail14big_decimal_fpE",
    "_ZTIc"
   ]
  },
  {
   "function_name" : "fmt::v7::detail::write_float",
   "linker_set_key" : "_ZN3fmt2v76detail11write_floatINSt3__120back_insert_iteratorINS1_6bufferIcEEEENS1_9dragonbox10decimal_fpIdEEcEET_SB_RKT0_RKNS0_18basic_format_specsIT1_EENS1_11float_specsESG_",
   "parameters" :
   [
    {
     "referenced_type" : "_ZTINSt3__120back_insert_iteratorIN3fmt2v76detail6bufferIcEEEE"
    },
    {
     "referenced_type" : "_ZTIRKN3fmt2v76detail9dragonbox10decimal_fpIdEE"
    },
    {
     "referenced_type" : "_ZTIRKN3fmt2v718basic_format_specsIcEE"
    },
    {
     "referenced_type" : "_ZTIN3fmt2v76detail11float_specsE"
    },
    {
     "referenced_type" : "_ZTIc"
    }
   ],
   "return_type" : "_ZTINSt3__120back_insert_iteratorIN3fmt2v76detail6bufferIcEEEE",
   "source_file" : "external/fmtlib/include/fmt/format.h",
   "template_args" :
   [
    "_ZTINSt3__120back_insert_iteratorIN3fmt2v76detail6bufferIcEEEE",
    "_ZTIN3fmt2v76detail9dragonbox10decimal_fpIdEE",
    "_ZTIc"
   ]
  },
  {
   "function_name" : "fmt::v7::detail::write_float",
   "linker_set_key" : "_ZN3fmt2v76detail11write_floatINSt3__120back_insert_iteratorINS1_6bufferIcEEEENS1_9dragonbox10decimal_fpIfEEcEET_SB_RKT0_RKNS0_18basic_format_specsIT1_EENS1_11float_specsESG_",
   "parameters" :
   [
    {
     "referenced_type" : "_ZTINSt3__120back_insert_iteratorIN3fmt2v76detail6bufferIcEEEE"
    },
    {
     "referenced_type" : "_ZTIRKN3fmt2v76detail9dragonbox10decimal_fpIfEE"
    },
    {
     "referenced_type" : "_ZTIRKN3fmt2v718basic_format_specsIcEE"
    },
    {
     "referenced_type" : "_ZTIN3fmt2v76detail11float_specsE"
    },
    {
     "referenced_type" : "_ZTIc"
    }
   ],
   "return_type" : "_ZTINSt3__120back_insert_iteratorIN3fmt2v76detail6bufferIcEEEE",
   "source_file" : "external/fmtlib/include/fmt/format.h",
   "template_args" :
   [
    "_ZTINSt3__120back_insert_iteratorIN3fmt2v76detail6bufferIcEEEE",
    "_ZTIN3fmt2v76detail9dragonbox10decimal_fpIfEE",
    "_ZTIc"
   ]
  },
  {
   "function_name" : "fmt::v7::detail::write_float",
   "linker_set_key" : "_ZN3fmt2v76detail11write_floatINSt3__120back_insert_iteratorINS3_12basic_stringIcNS3_11char_traitsIcEENS3_9allocatorIcEEEEEENS1_9dragonbox10decimal_fpIdEEcEET_SF_RKT0_RKNS0_18basic_format_specsIT1_EENS1_11float_specsESK_",
   "parameters" :
   [
    {
     "referenced_type" : "_ZTINSt3__120back_insert_iteratorINS_12basic_stringIcNS_11char_traitsIcEENS_9allocatorIcEEEEEE"
    },
    {
     "referenced_type" : "_ZTIRKN3fmt2v76detail9dragonbox10decimal_fpIdEE"
    },
    {
     "referenced_type" : "_ZTIRKN3fmt2v718basic_format_specsIcEE"
    },
    {
     "referenced_type" : "_ZTIN3fmt2v76detail11float_specsE"
    },
    {
     "referenced_type" : "_ZTIc"
    }
   ],
   "return_type" : "_ZTINSt3__120back_insert_iteratorINS_12basic_stringIcNS_11char_traitsIcEENS_9allocatorIcEEEEEE",
   "source_file" : "external/fmtlib/include/fmt/format.h",
   "template_args" :
   [
    "_ZTINSt3__120back_insert_iteratorINS_12basic_stringIcNS_11char_traitsIcEENS_9allocatorIcEEEEEE",
    "_ZTIN3fmt2v76detail9dragonbox10decimal_fpIdEE",
    "_ZTIc"
   ]
  },
  {
   "function_name" : "fmt::v7::detail::write_float",
   "linker_set_key" : "_ZN3fmt2v76detail11write_floatINSt3__120back_insert_iteratorINS3_12basic_stringIcNS3_11char_traitsIcEENS3_9allocatorIcEEEEEENS1_9dragonbox10decimal_fpIfEEcEET_SF_RKT0_RKNS0_18basic_format_specsIT1_EENS1_11float_specsESK_",
   "parameters" :
   [
    {
     "referenced_type" : "_ZTINSt3__120back_insert_iteratorINS_12basic_stringIcNS_11char_traitsIcEENS_9allocatorIcEEEEEE"
    },
    {
     "referenced_type" : "_ZTIRKN3fmt2v76detail9dragonbox10decimal_fpIfEE"
    },
    {
     "referenced_type" : "_ZTIRKN3fmt2v718basic_format_specsIcEE"
    },
    {
     "referenced_type" : "_ZTIN3fmt2v76detail11float_specsE"
    },
    {
     "referenced_type" : "_ZTIc"
    }
   ],
   "return_type" : "_ZTINSt3__120back_insert_iteratorINS_12basic_stringIcNS_11char_traitsIcEENS_9allocatorIcEEEEEE",
   "source_file" : "external/fmtlib/include/fmt/format.h",
   "template_args" :
   [
    "_ZTINSt3__120back_insert_iteratorINS_12basic_stringIcNS_11char_traitsIcEENS_9allocatorIcEEEEEE",
    "_ZTIN3fmt2v76detail9dragonbox10decimal_fpIfEE",
    "_ZTIc"
   ]
  },
  {
   "function_name" : "fmt::v7::detail::count_digits",
   "linker_set_key" : "_ZN3fmt2v76detail12count_digitsILj4ENS1_16fallback_uintptrEEEiT0_",
   "parameters" :
   [
    {
     "referenced_type" : "_ZTIN3fmt2v76detail16fallback_uintptrE"
    }
   ],
   "return_type" : "_ZTIi",
   "source_file" : "external/fmtlib/include/fmt/format.h",
   "template_args" : [ "_ZTIN3fmt2v76detail16fallback_uintptrE" ]
  },
  {
   "function_name" : "fmt::v7::detail::format_float",
   "linker_set_key" : "_ZN3fmt2v76detail12format_floatIdEEiT_iNS1_11float_specsERNS1_6bufferIcEE",
   "parameters" :
   [
    {
     "referenced_type" : "_ZTId"
    },
    {
     "referenced_type" : "_ZTIi"
    },
    {
     "referenced_type" : "_ZTIN3fmt2v76detail11float_specsE"
    },
    {
     "referenced_type" : "_ZTIRN3fmt2v76detail6bufferIcEE"
    }
   ],
   "return_type" : "_ZTIi",
   "source_file" : "external/fmtlib/include/fmt/format.h",
   "template_args" : [ "_ZTId" ]
  },
  {
   "function_name" : "fmt::v7::detail::format_float",
   "linker_set_key" : "_ZN3fmt2v76detail12format_floatIeEEiT_iNS1_11float_specsERNS1_6bufferIcEE",
   "parameters" :
   [
    {
     "referenced_type" : "_ZTIe"
    },
    {
     "referenced_type" : "_ZTIi"
    },
    {
     "referenced_type" : "_ZTIN3fmt2v76detail11float_specsE"
    },
    {
     "referenced_type" : "_ZTIRN3fmt2v76detail6bufferIcEE"
    }
   ],
   "return_type" : "_ZTIi",
   "source_file" : "external/fmtlib/include/fmt/format.h",
   "template_args" : [ "_ZTIe" ]
  },
  {
   "function_name" : "fmt::v7::detail::report_error",
   "linker_set_key" : "_ZN3fmt2v76detail12report_errorEPFvRNS1_6bufferIcEEiNS0_17basic_string_viewIcEEEiS6_",
   "parameters" :
   [
    {
     "referenced_type" : "_ZTIPFvRN3fmt2v76detail6bufferIcEEiNS0_17basic_string_viewIcEEE"
    },
    {
     "referenced_type" : "_ZTIi"
    },
    {
     "referenced_type" : "_ZTIN3fmt2v717basic_string_viewIcEE"
    }
   ],
   "return_type" : "_ZTIv",
   "source_file" : "external/fmtlib/include/fmt/format.h"
  },
  {
   "function_name" : "fmt::v7::detail::error_handler::on_error",
   "linker_set_key" : "_ZN3fmt2v76detail13error_handler8on_errorEPKc",
   "parameters" :
   [
    {
     "is_this_ptr" : true,
     "referenced_type" : "_ZTIPN3fmt2v76detail13error_handlerE"
    },
    {
     "referenced_type" : "_ZTIPKc"
    }
   ],
   "return_type" : "_ZTIv",
   "source_file" : "external/fmtlib/include/fmt/core.h"
  },
  {
   "function_name" : "fmt::v7::detail::grouping_impl",
   "linker_set_key" : "_ZN3fmt2v76detail13grouping_implIcEENSt3__112basic_stringIcNS3_11char_traitsIcEENS3_9allocatorIcEEEENS1_10locale_refE",
   "parameters" :
   [
    {
     "referenced_type" : "_ZTIN3fmt2v76detail10locale_refE"
    }
   ],
   "return_type" : "_ZTINSt3__112basic_stringIcNS_11char_traitsIcEENS_9allocatorIcEEEE",
   "source_file" : "external/fmtlib/include/fmt/format.h",
   "template_args" : [ "_ZTIc" ]
  },
  {
   "function_name" : "fmt::v7::detail::grouping_impl",
   "linker_set_key" : "_ZN3fmt2v76detail13grouping_implIwEENSt3__112basic_stringIcNS3_11char_traitsIcEENS3_9allocatorIcEEEENS1_10locale_refE",
   "parameters" :
   [
    {
     "referenced_type" : "_ZTIN3fmt2v76detail10locale_refE"
    }
   ],
   "return_type" : "_ZTINSt3__112basic_stringIcNS_11char_traitsIcEENS_9allocatorIcEEEE",
   "source_file" : "external/fmtlib/include/fmt/format.h",
   "template_args" : [ "_ZTIw" ]
  },
  {
   "function_name" : "fmt::v7::detail::utf8_to_utf16::utf8_to_utf16",
   "linker_set_key" : "_ZN3fmt2v76detail13utf8_to_utf16C1ENS0_17basic_string_viewIcEE",
   "parameters" :
   [
    {
     "is_this_ptr" : true,
     "referenced_type" : "_ZTIPN3fmt2v76detail13utf8_to_utf16E"
    },
    {
     "referenced_type" : "_ZTIN3fmt2v717basic_string_viewIcEE"
    }
   ],
   "return_type" : "_ZTIv",
   "source_file" : "external/fmtlib/include/fmt/format.h"
  },
  {
   "function_name" : "fmt::v7::detail::utf8_to_utf16::utf8_to_utf16",
   "linker_set_key" : "_ZN3fmt2v76detail13utf8_to_utf16C2ENS0_17basic_string_viewIcEE",
   "parameters" :
   [
    {
     "is_this_ptr" : true,
     "referenced_type" : "_ZTIPN3fmt2v76detail13utf8_to_utf16E"
    },
    {
     "referenced_type" : "_ZTIN3fmt2v717basic_string_viewIcEE"
    }
   ],
   "return_type" : "_ZTIv",
   "source_file" : "external/fmtlib/include/fmt/format.h"
  },
  {
   "function_name" : "fmt::v7::detail::snprintf_float",
   "linker_set_key" : "_ZN3fmt2v76detail14snprintf_floatIdEEiT_iNS1_11float_specsERNS1_6bufferIcEE",
   "parameters" :
   [
    {
     "referenced_type" : "_ZTId"
    },
    {
     "referenced_type" : "_ZTIi"
    },
    {
     "referenced_type" : "_ZTIN3fmt2v76detail11float_specsE"
    },
    {
     "referenced_type" : "_ZTIRN3fmt2v76detail6bufferIcEE"
    }
   ],
   "return_type" : "_ZTIi",
   "source_file" : "external/fmtlib/include/fmt/format.h",
   "template_args" : [ "_ZTId" ]
  },
  {
   "function_name" : "fmt::v7::detail::snprintf_float",
   "linker_set_key" : "_ZN3fmt2v76detail14snprintf_floatIeEEiT_iNS1_11float_specsERNS1_6bufferIcEE",
   "parameters" :
   [
    {
     "referenced_type" : "_ZTIe"
    },
    {
     "referenced_type" : "_ZTIi"
    },
    {
     "referenced_type" : "_ZTIN3fmt2v76detail11float_specsE"
    },
    {
     "referenced_type" : "_ZTIRN3fmt2v76detail6bufferIcEE"
    }
   ],
   "return_type" : "_ZTIi",
   "source_file" : "external/fmtlib/include/fmt/format.h",
   "template_args" : [ "_ZTIe" ]
  },
  {
   "function_name" : "fmt::v7::detail::write_exponent",
   "linker_set_key" : "_ZN3fmt2v76detail14write_exponentIcNS1_15buffer_appenderIcEEEET0_iS5_",
   "parameters" :
   [
    {
     "referenced_type" : "_ZTIi"
    },
    {
     "referenced_type" : "_ZTIN3fmt2v76detail15buffer_appenderIcEE"
    }
   ],
   "return_type" : "_ZTIN3fmt2v76detail15buffer_appenderIcEE",
   "source_file" : "external/fmtlib/include/fmt/format.h",
   "template_args" : [ "_ZTIc", "_ZTIN3fmt2v76detail15buffer_appenderIcEE" ]
  },
  {
   "function_name" : "fmt::v7::detail::write_exponent",
   "linker_set_key" : "_ZN3fmt2v76detail14write_exponentIcNSt3__120back_insert_iteratorINS1_6bufferIcEEEEEET0_iS8_",
   "parameters" :
   [
    {
     "referenced_type" : "_ZTIi"
    },
    {
     "referenced_type" : "_ZTINSt3__120back_insert_iteratorIN3fmt2v76detail6bufferIcEEEE"
    }
   ],
   "return_type" : "_ZTINSt3__120back_insert_iteratorIN3fmt2v76detail6bufferIcEEEE",
   "source_file" : "external/fmtlib/include/fmt/format.h",
   "template_args" :
   [
    "_ZTIc",
    "_ZTINSt3__120back_insert_iteratorIN3fmt2v76detail6bufferIcEEEE"
   ]
  },
  {
   "function_name" : "fmt::v7::detail::fallback_format",
   "linker_set_key" : "_ZN3fmt2v76detail15fallback_formatIdEEvT_ibRNS1_6bufferIcEERi",
   "parameters" :
   [
    {
     "referenced_type" : "_ZTId"
    },
    {
     "referenced_type" : "_ZTIi"
    },
    {
     "referenced_type" : "_ZTIb"
    },
    {
     "referenced_type" : "_ZTIRN3fmt2v76detail6bufferIcEE"
    },
    {
     "referenced_type" : "_ZTIRi"
    }
   ],
   "return_type" : "_ZTIv",
   "source_file" : "external/fmtlib/include/fmt/format-inl.h",
   "template_args" : [ "_ZTId" ]
  },
  {
   "function_name" : "fmt::v7::detail::fallback_format",
   "linker_set_key" : "_ZN3fmt2v76detail15fallback_formatIeEEvT_ibRNS1_6bufferIcEERi",
   "parameters" :
   [
    {
     "referenced_type" : "_ZTIe"
    },
    {
     "referenced_type" : "_ZTIi"
    },
    {
     "referenced_type" : "_ZTIb"
    },
    {
     "referenced_type" : "_ZTIRN3fmt2v76detail6bufferIcEE"
    },
    {
     "referenced_type" : "_ZTIRi"
    }
   ],
   "return_type" : "_ZTIv",
   "source_file" : "external/fmtlib/include/fmt/format-inl.h",
   "template_args" : [ "_ZTIe" ]
  },
  {
   "function_name" : "fmt::v7::detail::format_error_code",
   "linker_set_key" : "_ZN3fmt2v76detail17format_error_codeERNS1_6bufferIcEEiNS0_17basic_string_viewIcEE",
   "parameters" :
   [
    {
     "referenced_type" : "_ZTIRN3fmt2v76detail6bufferIcEE"
    },
    {
     "referenced_type" : "_ZTIi"
    },
    {
     "referenced_type" : "_ZTIN3fmt2v717basic_string_viewIcEE"
    }
   ],
   "return_type" : "_ZTIv",
   "source_file" : "external/fmtlib/include/fmt/format.h"
  },
  {
   "function_name" : "fmt::v7::detail::decimal_point_impl",
   "linker_set_key" : "_ZN3fmt2v76detail18decimal_point_implIcEET_NS1_10locale_refE",
   "parameters" :
   [
    {
     "referenced_type" : "_ZTIN3fmt2v76detail10locale_refE"
    }
   ],
   "return_type" : "_ZTIc",
   "source_file" : "external/fmtlib/include/fmt/format.h",
   "template_args" : [ "_ZTIc" ]
  },
  {
   "function_name" : "fmt::v7::detail::decimal_point_impl",
   "linker_set_key" : "_ZN3fmt2v76detail18decimal_point_implIwEET_NS1_10locale_refE",
   "parameters" :
   [
    {
     "referenced_type" : "_ZTIN3fmt2v76detail10locale_refE"
    }
   ],
   "return_type" : "_ZTIw",
   "source_file" : "external/fmtlib/include/fmt/format.h",
   "template_args" : [ "_ZTIw" ]
  },
  {
   "function_name" : "fmt::v7::detail::thousands_sep_impl",
   "linker_set_key" : "_ZN3fmt2v76detail18thousands_sep_implIcEET_NS1_10locale_refE",
   "parameters" :
   [
    {
     "referenced_type" : "_ZTIN3fmt2v76detail10locale_refE"
    }
   ],
   "return_type" : "_ZTIc",
   "source_file" : "external/fmtlib/include/fmt/format.h",
   "template_args" : [ "_ZTIc" ]
  },
  {
   "function_name" : "fmt::v7::detail::thousands_sep_impl",
   "linker_set_key" : "_ZN3fmt2v76detail18thousands_sep_implIwEET_NS1_10locale_refE",
   "parameters" :
   [
    {
     "referenced_type" : "_ZTIN3fmt2v76detail10locale_refE"
    }
   ],
   "return_type" : "_ZTIw",
   "source_file" : "external/fmtlib/include/fmt/format.h",
   "template_args" : [ "_ZTIw" ]
  },
  {
   "function_name" : "fmt::v7::detail::fill",
   "linker_set_key" : "_ZN3fmt2v76detail4fillINS1_15buffer_appenderIcEEcEET_S5_jRKNS1_6fill_tIT0_EE",
   "parameters" :
   [
    {
     "referenced_type" : "_ZTIN3fmt2v76detail15buffer_appenderIcEE"
    },
    {
     "referenced_type" : "_ZTIj"
    },
    {
     "referenced_type" : "_ZTIRKN3fmt2v76detail6fill_tIcEE"
    }
   ],
   "return_type" : "_ZTIN3fmt2v76detail15buffer_appenderIcEE",
   "source_file" : "external/fmtlib/include/fmt/format.h",
   "template_args" : [ "_ZTIN3fmt2v76detail15buffer_appenderIcEE", "_ZTIc" ]
  },
  {
   "function_name" : "fmt::v7::detail::fill",
   "linker_set_key" : "_ZN3fmt2v76detail4fillINSt3__120back_insert_iteratorINS1_6bufferIcEEEEcEET_S8_jRKNS1_6fill_tIT0_EE",
   "parameters" :
   [
    {
     "referenced_type" : "_ZTINSt3__120back_insert_iteratorIN3fmt2v76detail6bufferIcEEEE"
    },
    {
     "referenced_type" : "_ZTIj"
    },
    {
     "referenced_type" : "_ZTIRKN3fmt2v76detail6fill_tIcEE"
    }
   ],
   "return_type" : "_ZTINSt3__120back_insert_iteratorIN3fmt2v76detail6bufferIcEEEE",
   "source_file" : "external/fmtlib/include/fmt/format.h",
   "template_args" :
   [
    "_ZTINSt3__120back_insert_iteratorIN3fmt2v76detail6bufferIcEEEE",
    "_ZTIc"
   ]
  },
  {
   "function_name" : "fmt::v7::detail::fill",
   "linker_set_key" : "_ZN3fmt2v76detail4fillIPccEET_S4_jRKNS1_6fill_tIT0_EE",
   "parameters" :
   [
    {
     "referenced_type" : "_ZTIPc"
    },
    {
     "referenced_type" : "_ZTIj"
    },
    {
     "referenced_type" : "_ZTIRKN3fmt2v76detail6fill_tIcEE"
    }
   ],
   "return_type" : "_ZTIPc",
   "source_file" : "external/fmtlib/include/fmt/format.h",
   "template_args" : [ "_ZTIPc", "_ZTIc" ]
  },
  {
   "function_name" : "fmt::v7::detail::write",
   "linker_set_key" : "_ZN3fmt2v76detail5writeIcNS1_15buffer_appenderIcEEdLi0EEET0_S5_T1_",
   "parameters" :
   [
    {
     "referenced_type" : "_ZTIN3fmt2v76detail15buffer_appenderIcEE"
    },
    {
     "referenced_type" : "_ZTId"
    }
   ],
   "return_type" : "_ZTIN3fmt2v76detail15buffer_appenderIcEE",
   "source_file" : "external/fmtlib/include/fmt/format.h",
   "template_args" : [ "_ZTIc", "_ZTIN3fmt2v76detail15buffer_appenderIcEE", "_ZTId" ]
  },
  {
   "function_name" : "fmt::v7::detail::write",
   "linker_set_key" : "_ZN3fmt2v76detail5writeIcNS1_15buffer_appenderIcEEdLi0EEET0_S5_T1_NS0_18basic_format_specsIT_EENS1_10locale_refE",
   "parameters" :
   [
    {
     "referenced_type" : "_ZTIN3fmt2v76detail15buffer_appenderIcEE"
    },
    {
     "referenced_type" : "_ZTId"
    },
    {
     "referenced_type" : "_ZTIN3fmt2v718basic_format_specsIcEE"
    },
    {
     "default_arg" : true,
     "referenced_type" : "_ZTIN3fmt2v76detail10locale_refE"
    }
   ],
   "return_type" : "_ZTIN3fmt2v76detail15buffer_appenderIcEE",
   "source_file" : "external/fmtlib/include/fmt/format.h",
   "template_args" : [ "_ZTIc", "_ZTIN3fmt2v76detail15buffer_appenderIcEE", "_ZTId" ]
  },
  {
   "function_name" : "fmt::v7::detail::write",
   "linker_set_key" : "_ZN3fmt2v76detail5writeIcNS1_15buffer_appenderIcEEeLi0EEET0_S5_T1_",
   "parameters" :
   [
    {
     "referenced_type" : "_ZTIN3fmt2v76detail15buffer_appenderIcEE"
    },
    {
     "referenced_type" : "_ZTIe"
    }
   ],
   "return_type" : "_ZTIN3fmt2v76detail15buffer_appenderIcEE",
   "source_file" : "external/fmtlib/include/fmt/format.h",
   "template_args" : [ "_ZTIc", "_ZTIN3fmt2v76detail15buffer_appenderIcEE", "_ZTIe" ]
  },
  {
   "function_name" : "fmt::v7::detail::write",
   "linker_set_key" : "_ZN3fmt2v76detail5writeIcNS1_15buffer_appenderIcEEeLi0EEET0_S5_T1_NS0_18basic_format_specsIT_EENS1_10locale_refE",
   "parameters" :
   [
    {
     "referenced_type" : "_ZTIN3fmt2v76detail15buffer_appenderIcEE"
    },
    {
     "referenced_type" : "_ZTIe"
    },
    {
     "referenced_type" : "_ZTIN3fmt2v718basic_format_specsIcEE"
    },
    {
     "default_arg" : true,
     "referenced_type" : "_ZTIN3fmt2v76detail10locale_refE"
    }
   ],
   "return_type" : "_ZTIN3fmt2v76detail15buffer_appenderIcEE",
   "source_file" : "external/fmtlib/include/fmt/format.h",
   "template_args" : [ "_ZTIc", "_ZTIN3fmt2v76detail15buffer_appenderIcEE", "_ZTIe" ]
  },
  {
   "function_name" : "fmt::v7::detail::write",
   "linker_set_key" : "_ZN3fmt2v76detail5writeIcNS1_15buffer_appenderIcEEfLi0EEET0_S5_T1_",
   "parameters" :
   [
    {
     "referenced_type" : "_ZTIN3fmt2v76detail15buffer_appenderIcEE"
    },
    {
     "referenced_type" : "_ZTIf"
    }
   ],
   "return_type" : "_ZTIN3fmt2v76detail15buffer_appenderIcEE",
   "source_file" : "external/fmtlib/include/fmt/format.h",
   "template_args" : [ "_ZTIc", "_ZTIN3fmt2v76detail15buffer_appenderIcEE", "_ZTIf" ]
  },
  {
   "function_name" : "fmt::v7::detail::write",
   "linker_set_key" : "_ZN3fmt2v76detail5writeIcNS1_15buffer_appenderIcEEfLi0EEET0_S5_T1_NS0_18basic_format_specsIT_EENS1_10locale_refE",
   "parameters" :
   [
    {
     "referenced_type" : "_ZTIN3fmt2v76detail15buffer_appenderIcEE"
    },
    {
     "referenced_type" : "_ZTIf"
    },
    {
     "referenced_type" : "_ZTIN3fmt2v718basic_format_specsIcEE"
    },
    {
     "default_arg" : true,
     "referenced_type" : "_ZTIN3fmt2v76detail10locale_refE"
    }
   ],
   "return_type" : "_ZTIN3fmt2v76detail15buffer_appenderIcEE",
   "source_file" : "external/fmtlib/include/fmt/format.h",
   "template_args" : [ "_ZTIc", "_ZTIN3fmt2v76detail15buffer_appenderIcEE", "_ZTIf" ]
  },
  {
   "function_name" : "fmt::v7::detail::write",
   "linker_set_key" : "_ZN3fmt2v76detail5writeIcNS1_15buffer_appenderIcEEiLi0EEET0_S5_T1_",
   "parameters" :
   [
    {
     "referenced_type" : "_ZTIN3fmt2v76detail15buffer_appenderIcEE"
    },
    {
     "referenced_type" : "_ZTIi"
    }
   ],
   "return_type" : "_ZTIN3fmt2v76detail15buffer_appenderIcEE",
   "source_file" : "external/fmtlib/include/fmt/format.h",
   "template_args" : [ "_ZTIc", "_ZTIN3fmt2v76detail15buffer_appenderIcEE", "_ZTIi" ]
  },
  {
   "function_name" : "fmt::v7::detail::write",
   "linker_set_key" : "_ZN3fmt2v76detail5writeIcNS1_15buffer_appenderIcEEjLi0EEET0_S5_T1_",
   "parameters" :
   [
    {
     "referenced_type" : "_ZTIN3fmt2v76detail15buffer_appenderIcEE"
    },
    {
     "referenced_type" : "_ZTIj"
    }
   ],
   "return_type" : "_ZTIN3fmt2v76detail15buffer_appenderIcEE",
   "source_file" : "external/fmtlib/include/fmt/format.h",
   "template_args" : [ "_ZTIc", "_ZTIN3fmt2v76detail15buffer_appenderIcEE", "_ZTIj" ]
  },
  {
   "function_name" : "fmt::v7::detail::write",
   "linker_set_key" : "_ZN3fmt2v76detail5writeIcNS1_15buffer_appenderIcEExLi0EEET0_S5_T1_",
   "parameters" :
   [
    {
     "referenced_type" : "_ZTIN3fmt2v76detail15buffer_appenderIcEE"
    },
    {
     "referenced_type" : "_ZTIx"
    }
   ],
   "return_type" : "_ZTIN3fmt2v76detail15buffer_appenderIcEE",
   "source_file" : "external/fmtlib/include/fmt/format.h",
   "template_args" : [ "_ZTIc", "_ZTIN3fmt2v76detail15buffer_appenderIcEE", "_ZTIx" ]
  },
  {
   "function_name" : "fmt::v7::detail::write",
   "linker_set_key" : "_ZN3fmt2v76detail5writeIcNS1_15buffer_appenderIcEEyLi0EEET0_S5_T1_",
   "parameters" :
   [
    {
     "referenced_type" : "_ZTIN3fmt2v76detail15buffer_appenderIcEE"
    },
    {
     "referenced_type" : "_ZTIy"
    }
   ],
   "return_type" : "_ZTIN3fmt2v76detail15buffer_appenderIcEE",
   "source_file" : "external/fmtlib/include/fmt/format.h",
   "template_args" : [ "_ZTIc", "_ZTIN3fmt2v76detail15buffer_appenderIcEE", "_ZTIy" ]
  },
  {
   "function_name" : "fmt::v7::detail::write",
   "linker_set_key" : "_ZN3fmt2v76detail5writeIcNSt3__120back_insert_iteratorINS1_6bufferIcEEEEdLi0EEET0_S8_T1_",
   "parameters" :
   [
    {
     "referenced_type" : "_ZTINSt3__120back_insert_iteratorIN3fmt2v76detail6bufferIcEEEE"
    },
    {
     "referenced_type" : "_ZTId"
    }
   ],
   "return_type" : "_ZTINSt3__120back_insert_iteratorIN3fmt2v76detail6bufferIcEEEE",
   "source_file" : "external/fmtlib/include/fmt/format.h",
   "template_args" :
   [
    "_ZTIc",
    "_ZTINSt3__120back_insert_iteratorIN3fmt2v76detail6bufferIcEEEE",
    "_ZTId"
   ]
  },
  {
   "function_name" : "fmt::v7::detail::write",
   "linker_set_key" : "_ZN3fmt2v76detail5writeIcNSt3__120back_insert_iteratorINS1_6bufferIcEEEEdLi0EEET0_S8_T1_NS0_18basic_format_specsIT_EENS1_10locale_refE",
   "parameters" :
   [
    {
     "referenced_type" : "_ZTINSt3__120back_insert_iteratorIN3fmt2v76detail6bufferIcEEEE"
    },
    {
     "referenced_type" : "_ZTId"
    },
    {
     "referenced_type" : "_ZTIN3fmt2v718basic_format_specsIcEE"
    },
    {
     "default_arg" : true,
     "referenced_type" : "_ZTIN3fmt2v76detail10locale_refE"
    }
   ],
   "return_type" : "_ZTINSt3__120back_insert_iteratorIN3fmt2v76detail6bufferIcEEEE",
   "source_file" : "external/fmtlib/include/fmt/format.h",
   "template_args" :
   [
    "_ZTIc",
    "_ZTINSt3__120back_insert_iteratorIN3fmt2v76detail6bufferIcEEEE",
    "_ZTId"
   ]
  },
  {
   "function_name" : "fmt::v7::detail::write",
   "linker_set_key" : "_ZN3fmt2v76detail5writeIcNSt3__120back_insert_iteratorINS1_6bufferIcEEEEeLi0EEET0_S8_T1_",
   "parameters" :
   [
    {
     "referenced_type" : "_ZTINSt3__120back_insert_iteratorIN3fmt2v76detail6bufferIcEEEE"
    },
    {
     "referenced_type" : "_ZTIe"
    }
   ],
   "return_type" : "_ZTINSt3__120back_insert_iteratorIN3fmt2v76detail6bufferIcEEEE",
   "source_file" : "external/fmtlib/include/fmt/format.h",
   "template_args" :
   [
    "_ZTIc",
    "_ZTINSt3__120back_insert_iteratorIN3fmt2v76detail6bufferIcEEEE",
    "_ZTIe"
   ]
  },
  {
   "function_name" : "fmt::v7::detail::write",
   "linker_set_key" : "_ZN3fmt2v76detail5writeIcNSt3__120back_insert_iteratorINS1_6bufferIcEEEEeLi0EEET0_S8_T1_NS0_18basic_format_specsIT_EENS1_10locale_refE",
   "parameters" :
   [
    {
     "referenced_type" : "_ZTINSt3__120back_insert_iteratorIN3fmt2v76detail6bufferIcEEEE"
    },
    {
     "referenced_type" : "_ZTIe"
    },
    {
     "referenced_type" : "_ZTIN3fmt2v718basic_format_specsIcEE"
    },
    {
     "default_arg" : true,
     "referenced_type" : "_ZTIN3fmt2v76detail10locale_refE"
    }
   ],
   "return_type" : "_ZTINSt3__120back_insert_iteratorIN3fmt2v76detail6bufferIcEEEE",
   "source_file" : "external/fmtlib/include/fmt/format.h",
   "template_args" :
   [
    "_ZTIc",
    "_ZTINSt3__120back_insert_iteratorIN3fmt2v76detail6bufferIcEEEE",
    "_ZTIe"
   ]
  },
  {
   "function_name" : "fmt::v7::detail::write",
   "linker_set_key" : "_ZN3fmt2v76detail5writeIcNSt3__120back_insert_iteratorINS1_6bufferIcEEEEfLi0EEET0_S8_T1_",
   "parameters" :
   [
    {
     "referenced_type" : "_ZTINSt3__120back_insert_iteratorIN3fmt2v76detail6bufferIcEEEE"
    },
    {
     "referenced_type" : "_ZTIf"
    }
   ],
   "return_type" : "_ZTINSt3__120back_insert_iteratorIN3fmt2v76detail6bufferIcEEEE",
   "source_file" : "external/fmtlib/include/fmt/format.h",
   "template_args" :
   [
    "_ZTIc",
    "_ZTINSt3__120back_insert_iteratorIN3fmt2v76detail6bufferIcEEEE",
    "_ZTIf"
   ]
  },
  {
   "function_name" : "fmt::v7::detail::write",
   "linker_set_key" : "_ZN3fmt2v76detail5writeIcNSt3__120back_insert_iteratorINS1_6bufferIcEEEEfLi0EEET0_S8_T1_NS0_18basic_format_specsIT_EENS1_10locale_refE",
   "parameters" :
   [
    {
     "referenced_type" : "_ZTINSt3__120back_insert_iteratorIN3fmt2v76detail6bufferIcEEEE"
    },
    {
     "referenced_type" : "_ZTIf"
    },
    {
     "referenced_type" : "_ZTIN3fmt2v718basic_format_specsIcEE"
    },
    {
     "default_arg" : true,
     "referenced_type" : "_ZTIN3fmt2v76detail10locale_refE"
    }
   ],
   "return_type" : "_ZTINSt3__120back_insert_iteratorIN3fmt2v76detail6bufferIcEEEE",
   "source_file" : "external/fmtlib/include/fmt/format.h",
   "template_args" :
   [
    "_ZTIc",
    "_ZTINSt3__120back_insert_iteratorIN3fmt2v76detail6bufferIcEEEE",
    "_ZTIf"
   ]
  },
  {
   "function_name" : "fmt::v7::detail::write",
   "linker_set_key" : "_ZN3fmt2v76detail5writeIcNSt3__120back_insert_iteratorINS3_12basic_stringIcNS3_11char_traitsIcEENS3_9allocatorIcEEEEEEEET0_SC_PKT_",
   "parameters" :
   [
    {
     "referenced_type" : "_ZTINSt3__120back_insert_iteratorINS_12basic_stringIcNS_11char_traitsIcEENS_9allocatorIcEEEEEE"
    },
    {
     "referenced_type" : "_ZTIPKc"
    }
   ],
   "return_type" : "_ZTINSt3__120back_insert_iteratorINS_12basic_stringIcNS_11char_traitsIcEENS_9allocatorIcEEEEEE",
   "source_file" : "external/fmtlib/include/fmt/format.h",
   "template_args" :
   [
    "_ZTIc",
    "_ZTINSt3__120back_insert_iteratorINS_12basic_stringIcNS_11char_traitsIcEENS_9allocatorIcEEEEEE"
   ]
  },
  {
   "function_name" : "fmt::v7::detail::write",
   "linker_set_key" : "_ZN3fmt2v76detail5writeIcNSt3__120back_insert_iteratorINS3_12basic_stringIcNS3_11char_traitsIcEENS3_9allocatorIcEEEEEEdLi0EEET0_SC_T1_",
   "parameters" :
   [
    {
     "referenced_type" : "_ZTINSt3__120back_insert_iteratorINS_12basic_stringIcNS_11char_traitsIcEENS_9allocatorIcEEEEEE"
    },
    {
     "referenced_type" : "_ZTId"
    }
   ],
   "return_type" : "_ZTINSt3__120back_insert_iteratorINS_12basic_stringIcNS_11char_traitsIcEENS_9allocatorIcEEEEEE",
   "source_file" : "external/fmtlib/include/fmt/format.h",
   "template_args" :
   [
    "_ZTIc",
    "_ZTINSt3__120back_insert_iteratorINS_12basic_stringIcNS_11char_traitsIcEENS_9allocatorIcEEEEEE",
    "_ZTId"
   ]
  },
  {
   "function_name" : "fmt::v7::detail::write",
   "linker_set_key" : "_ZN3fmt2v76detail5writeIcNSt3__120back_insert_iteratorINS3_12basic_stringIcNS3_11char_traitsIcEENS3_9allocatorIcEEEEEEeLi0EEET0_SC_T1_",
   "parameters" :
   [
    {
     "referenced_type" : "_ZTINSt3__120back_insert_iteratorINS_12basic_stringIcNS_11char_traitsIcEENS_9allocatorIcEEEEEE"
    },
    {
     "referenced_type" : "_ZTIe"
    }
   ],
   "return_type" : "_ZTINSt3__120back_insert_iteratorINS_12basic_stringIcNS_11char_traitsIcEENS_9allocatorIcEEEEEE",
   "source_file" : "external/fmtlib/include/fmt/format.h",
   "template_args" :
   [
    "_ZTIc",
    "_ZTINSt3__120back_insert_iteratorINS_12basic_stringIcNS_11char_traitsIcEENS_9allocatorIcEEEEEE",
    "_ZTIe"
   ]
  },
  {
   "function_name" : "fmt::v7::detail::write",
   "linker_set_key" : "_ZN3fmt2v76detail5writeIcNSt3__120back_insert_iteratorINS3_12basic_stringIcNS3_11char_traitsIcEENS3_9allocatorIcEEEEEEfLi0EEET0_SC_T1_",
   "parameters" :
   [
    {
     "referenced_type" : "_ZTINSt3__120back_insert_iteratorINS_12basic_stringIcNS_11char_traitsIcEENS_9allocatorIcEEEEEE"
    },
    {
     "referenced_type" : "_ZTIf"
    }
   ],
   "return_type" : "_ZTINSt3__120back_insert_iteratorINS_12basic_stringIcNS_11char_traitsIcEENS_9allocatorIcEEEEEE",
   "source_file" : "external/fmtlib/include/fmt/format.h",
   "template_args" :
   [
    "_ZTIc",
    "_ZTINSt3__120back_insert_iteratorINS_12basic_stringIcNS_11char_traitsIcEENS_9allocatorIcEEEEEE",
    "_ZTIf"
   ]
  },
  {
   "function_name" : "fmt::v7::detail::buffer<char>::append",
   "linker_set_key" : "_ZN3fmt2v76detail6bufferIcE6appendIcEEvPKT_S7_",
   "parameters" :
   [
    {
     "is_this_ptr" : true,
     "referenced_type" : "_ZTIPN3fmt2v76detail6bufferIcEE"
    },
    {
     "referenced_type" : "_ZTIPKc"
    },
    {
     "referenced_type" : "_ZTIPKc"
    }
   ],
   "return_type" : "_ZTIv",
   "source_file" : "external/fmtlib/include/fmt/core.h",
   "template_args" : [ "_ZTIc" ]
  },
  {
   "function_name" : "fmt::v7::detail::buffer<wchar_t>::append",
   "linker_set_key" : "_ZN3fmt2v76detail6bufferIwE6appendIwEEvPKT_S7_",
   "parameters" :
   [
    {
     "is_this_ptr" : true,
     "referenced_type" : "_ZTIPN3fmt2v76detail6bufferIwEE"
    },
    {
     "referenced_type" : "_ZTIPKw"
    },
    {
     "referenced_type" : "_ZTIPKw"
    }
   ],
   "return_type" : "_ZTIv",
   "source_file" : "external/fmtlib/include/fmt/core.h",
   "template_args" : [ "_ZTIw" ]
  },
  {
   "function_name" : "fmt::v7::detail::vformat",
   "linker_set_key" : "_ZN3fmt2v76detail7vformatENS0_17basic_string_viewIcEENS0_11format_argsE",
   "parameters" :
   [
    {
     "referenced_type" : "_ZTIN3fmt2v717basic_string_viewIcEE"
    },
    {
     "referenced_type" : "_ZTIN3fmt2v711format_argsE"
    }
   ],
   "return_type" : "_ZTINSt3__112basic_stringIcNS_11char_traitsIcEENS_9allocatorIcEEEE",
   "source_file" : "external/fmtlib/include/fmt/core.h"
  },
  {
   "function_name" : "fmt::v7::detail::dragonbox::to_decimal",
   "linker_set_key" : "_ZN3fmt2v76detail9dragonbox10to_decimalIdEENS2_10decimal_fpIT_EES5_",
   "parameters" :
   [
    {
     "referenced_type" : "_ZTId"
    }
   ],
   "return_type" : "_ZTIN3fmt2v76detail9dragonbox10decimal_fpIdEE",
   "source_file" : "external/fmtlib/include/fmt/format-inl.h",
   "template_args" : [ "_ZTId" ]
  },
  {
   "function_name" : "fmt::v7::detail::dragonbox::to_decimal",
   "linker_set_key" : "_ZN3fmt2v76detail9dragonbox10to_decimalIfEENS2_10decimal_fpIT_EES5_",
   "parameters" :
   [
    {
     "referenced_type" : "_ZTIf"
    }
   ],
   "return_type" : "_ZTIN3fmt2v76detail9dragonbox10decimal_fpIfEE",
   "source_file" : "external/fmtlib/include/fmt/format-inl.h",
   "template_args" : [ "_ZTIf" ]
  },
  {
   "function_name" : "fmt::v7::detail::write_ptr",
   "linker_set_key" : "_ZN3fmt2v76detail9write_ptrIcNSt3__120back_insert_iteratorINS1_6bufferIcEEEEjEET0_S8_T1_PKNS0_18basic_format_specsIT_EE",
   "parameters" :
   [
    {
     "referenced_type" : "_ZTINSt3__120back_insert_iteratorIN3fmt2v76detail6bufferIcEEEE"
    },
    {
     "referenced_type" : "_ZTIj"
    },
    {
     "referenced_type" : "_ZTIPKN3fmt2v718basic_format_specsIcEE"
    }
   ],
   "return_type" : "_ZTINSt3__120back_insert_iteratorIN3fmt2v76detail6bufferIcEEEE",
   "source_file" : "external/fmtlib/include/fmt/format.h",
   "template_args" :
   [
    "_ZTIc",
    "_ZTINSt3__120back_insert_iteratorIN3fmt2v76detail6bufferIcEEEE",
    "_ZTIj"
   ]
  },
  {
   "function_name" : "fmt::v7::vprint",
   "linker_set_key" : "_ZN3fmt2v76vprintENS0_17basic_string_viewIcEENS0_11format_argsE",
   "parameters" :
   [
    {
     "referenced_type" : "_ZTIN3fmt2v717basic_string_viewIcEE"
    },
    {
     "referenced_type" : "_ZTIN3fmt2v711format_argsE"
    }
   ],
   "return_type" : "_ZTIv",
   "source_file" : "external/fmtlib/include/fmt/core.h"
  },
  {
   "function_name" : "fmt::v7::vprint",
   "linker_set_key" : "_ZN3fmt2v76vprintEP7__sFILENS0_17basic_string_viewIcEENS0_11format_argsE",
   "parameters" :
   [
    {
     "referenced_type" : "_ZTIP7__sFILE"
    },
    {
     "referenced_type" : "_ZTIN3fmt2v717basic_string_viewIcEE"
    },
    {
     "referenced_type" : "_ZTIN3fmt2v711format_argsE"
    }
   ],
   "return_type" : "_ZTIv",
   "source_file" : "external/fmtlib/include/fmt/core.h"
  },
  {
   "function_name" : "android::base::LogMessage::stream",
   "linker_set_key" : "_ZN7android4base10LogMessage6streamEv",
   "parameters" :
   [
    {
     "is_this_ptr" : true,
     "referenced_type" : "_ZTIPN7android4base10LogMessageE"
    }
   ],
   "return_type" : "_ZTIRNSt3__113basic_ostreamIcNS_11char_traitsIcEEEE",
   "source_file" : "system/libbase/include/android-base/logging.h"
  },
  {
   "function_name" : "android::base::LogMessage::LogLine",
   "linker_set_key" : "_ZN7android4base10LogMessage7LogLineEPKcjNS0_11LogSeverityES3_S3_",
   "parameters" :
   [
    {
     "referenced_type" : "_ZTIPKc"
    },
    {
     "referenced_type" : "_ZTIj"
    },
    {
     "referenced_type" : "_ZTIN7android4base11LogSeverityE"
    },
    {
     "referenced_type" : "_ZTIPKc"
    },
    {
     "referenced_type" : "_ZTIPKc"
    }
   ],
   "return_type" : "_ZTIv",
   "source_file" : "system/libbase/include/android-base/logging.h"
  },
  {
   "function_name" : "android::base::LogMessage::LogMessage",
   "linker_set_key" : "_ZN7android4base10LogMessageC1EPKcjNS0_11LogSeverityES3_i",
   "parameters" :
   [
    {
     "is_this_ptr" : true,
     "referenced_type" : "_ZTIPN7android4base10LogMessageE"
    },
    {
     "referenced_type" : "_ZTIPKc"
    },
    {
     "referenced_type" : "_ZTIj"
    },
    {
     "referenced_type" : "_ZTIN7android4base11LogSeverityE"
    },
    {
     "referenced_type" : "_ZTIPKc"
    },
    {
     "referenced_type" : "_ZTIi"
    }
   ],
   "return_type" : "_ZTIv",
   "source_file" : "system/libbase/include/android-base/logging.h"
  },
  {
   "function_name" : "android::base::LogMessage::LogMessage",
   "linker_set_key" : "_ZN7android4base10LogMessageC1EPKcjNS0_5LogIdENS0_11LogSeverityES3_i",
   "parameters" :
   [
    {
     "is_this_ptr" : true,
     "referenced_type" : "_ZTIPN7android4base10LogMessageE"
    },
    {
     "referenced_type" : "_ZTIPKc"
    },
    {
     "referenced_type" : "_ZTIj"
    },
    {
     "referenced_type" : "_ZTIN7android4base5LogIdE"
    },
    {
     "referenced_type" : "_ZTIN7android4base11LogSeverityE"
    },
    {
     "referenced_type" : "_ZTIPKc"
    },
    {
     "referenced_type" : "_ZTIi"
    }
   ],
   "return_type" : "_ZTIv",
   "source_file" : "system/libbase/include/android-base/logging.h"
  },
  {
   "function_name" : "android::base::LogMessage::LogMessage",
   "linker_set_key" : "_ZN7android4base10LogMessageC2EPKcjNS0_11LogSeverityES3_i",
   "parameters" :
   [
    {
     "is_this_ptr" : true,
     "referenced_type" : "_ZTIPN7android4base10LogMessageE"
    },
    {
     "referenced_type" : "_ZTIPKc"
    },
    {
     "referenced_type" : "_ZTIj"
    },
    {
     "referenced_type" : "_ZTIN7android4base11LogSeverityE"
    },
    {
     "referenced_type" : "_ZTIPKc"
    },
    {
     "referenced_type" : "_ZTIi"
    }
   ],
   "return_type" : "_ZTIv",
   "source_file" : "system/libbase/include/android-base/logging.h"
  },
  {
   "function_name" : "android::base::LogMessage::LogMessage",
   "linker_set_key" : "_ZN7android4base10LogMessageC2EPKcjNS0_5LogIdENS0_11LogSeverityES3_i",
   "parameters" :
   [
    {
     "is_this_ptr" : true,
     "referenced_type" : "_ZTIPN7android4base10LogMessageE"
    },
    {
     "referenced_type" : "_ZTIPKc"
    },
    {
     "referenced_type" : "_ZTIj"
    },
    {
     "referenced_type" : "_ZTIN7android4base5LogIdE"
    },
    {
     "referenced_type" : "_ZTIN7android4base11LogSeverityE"
    },
    {
     "referenced_type" : "_ZTIPKc"
    },
    {
     "referenced_type" : "_ZTIi"
    }
   ],
   "return_type" : "_ZTIv",
   "source_file" : "system/libbase/include/android-base/logging.h"
  },
  {
   "function_name" : "android::base::LogMessage::~LogMessage",
   "linker_set_key" : "_ZN7android4base10LogMessageD1Ev",
   "parameters" :
   [
    {
     "is_this_ptr" : true,
     "referenced_type" : "_ZTIPN7android4base10LogMessageE"
    }
   ],
   "return_type" : "_ZTIv",
   "source_file" : "system/libbase/include/android-base/logging.h"
  },
  {
   "function_name" : "android::base::LogMessage::~LogMessage",
   "linker_set_key" : "_ZN7android4base10LogMessageD2Ev",
   "parameters" :
   [
    {
     "is_this_ptr" : true,
     "referenced_type" : "_ZTIPN7android4base10LogMessageE"
    }
   ],
   "return_type" : "_ZTIv",
   "source_file" : "system/libbase/include/android-base/logging.h"
  },
  {
   "function_name" : "android::base::LogdLogger::LogdLogger",
   "linker_set_key" : "_ZN7android4base10LogdLoggerC1ENS0_5LogIdE",
   "parameters" :
   [
    {
     "is_this_ptr" : true,
     "referenced_type" : "_ZTIPN7android4base10LogdLoggerE"
    },
    {
     "default_arg" : true,
     "referenced_type" : "_ZTIN7android4base5LogIdE"
    }
   ],
   "return_type" : "_ZTIv",
   "source_file" : "system/libbase/include/android-base/logging.h"
  },
  {
   "function_name" : "android::base::LogdLogger::LogdLogger",
   "linker_set_key" : "_ZN7android4base10LogdLoggerC2ENS0_5LogIdE",
   "parameters" :
   [
    {
     "is_this_ptr" : true,
     "referenced_type" : "_ZTIPN7android4base10LogdLoggerE"
    },
    {
     "default_arg" : true,
     "referenced_type" : "_ZTIN7android4base5LogIdE"
    }
   ],
   "return_type" : "_ZTIv",
   "source_file" : "system/libbase/include/android-base/logging.h"
  },
  {
   "function_name" : "android::base::LogdLogger::operator()",
   "linker_set_key" : "_ZN7android4base10LogdLoggerclENS0_5LogIdENS0_11LogSeverityEPKcS5_jS5_",
   "parameters" :
   [
    {
     "is_this_ptr" : true,
     "referenced_type" : "_ZTIPN7android4base10LogdLoggerE"
    },
    {
     "referenced_type" : "_ZTIN7android4base5LogIdE"
    },
    {
     "referenced_type" : "_ZTIN7android4base11LogSeverityE"
    },
    {
     "referenced_type" : "_ZTIPKc"
    },
    {
     "referenced_type" : "_ZTIPKc"
    },
    {
     "referenced_type" : "_ZTIj"
    },
    {
     "referenced_type" : "_ZTIPKc"
    }
   ],
   "return_type" : "_ZTIv",
   "source_file" : "system/libbase/include/android-base/logging.h"
  },
  {
   "function_name" : "android::base::MappedFile::FromOsHandle",
   "linker_set_key" : "_ZN7android4base10MappedFile12FromOsHandleEixji",
   "parameters" :
   [
    {
     "referenced_type" : "_ZTIi"
    },
    {
     "referenced_type" : "_ZTIx"
    },
    {
     "referenced_type" : "_ZTIj"
    },
    {
     "referenced_type" : "_ZTIi"
    }
   ],
   "return_type" : "_ZTINSt3__110unique_ptrIN7android4base10MappedFileENS_14default_deleteIS3_EEEE",
   "source_file" : "system/libbase/include/android-base/mapped_file.h"
  },
  {
   "access" : "private",
   "function_name" : "android::base::MappedFile::Close",
   "linker_set_key" : "_ZN7android4base10MappedFile5CloseEv",
   "parameters" :
   [
    {
     "is_this_ptr" : true,
     "referenced_type" : "_ZTIPN7android4base10MappedFileE"
    }
   ],
   "return_type" : "_ZTIv",
   "source_file" : "system/libbase/include/android-base/mapped_file.h"
  },
  {
   "function_name" : "android::base::MappedFile::FromFd",
   "linker_set_key" : "_ZN7android4base10MappedFile6FromFdENS0_11borrowed_fdExji",
   "parameters" :
   [
    {
     "referenced_type" : "_ZTIN7android4base11borrowed_fdE"
    },
    {
     "referenced_type" : "_ZTIx"
    },
    {
     "referenced_type" : "_ZTIj"
    },
    {
     "referenced_type" : "_ZTIi"
    }
   ],
   "return_type" : "_ZTINSt3__110unique_ptrIN7android4base10MappedFileENS_14default_deleteIS3_EEEE",
   "source_file" : "system/libbase/include/android-base/mapped_file.h"
  },
  {
   "function_name" : "android::base::MappedFile::MappedFile",
   "linker_set_key" : "_ZN7android4base10MappedFileC1EOS1_",
   "parameters" :
   [
    {
     "is_this_ptr" : true,
     "referenced_type" : "_ZTIPN7android4base10MappedFileE"
    },
    {
     "referenced_type" : "_ZTION7android4base10MappedFileE"
    }
   ],
   "return_type" : "_ZTIv",
   "source_file" : "system/libbase/include/android-base/mapped_file.h"
  },
  {
   "function_name" : "android::base::MappedFile::MappedFile",
   "linker_set_key" : "_ZN7android4base10MappedFileC2EOS1_",
   "parameters" :
   [
    {
     "is_this_ptr" : true,
     "referenced_type" : "_ZTIPN7android4base10MappedFileE"
    },
    {
     "referenced_type" : "_ZTION7android4base10MappedFileE"
    }
   ],
   "return_type" : "_ZTIv",
   "source_file" : "system/libbase/include/android-base/mapped_file.h"
  },
  {
   "function_name" : "android::base::MappedFile::~MappedFile",
   "linker_set_key" : "_ZN7android4base10MappedFileD1Ev",
   "parameters" :
   [
    {
     "is_this_ptr" : true,
     "referenced_type" : "_ZTIPN7android4base10MappedFileE"
    }
   ],
   "return_type" : "_ZTIv",
   "source_file" : "system/libbase/include/android-base/mapped_file.h"
  },
  {
   "function_name" : "android::base::MappedFile::~MappedFile",
   "linker_set_key" : "_ZN7android4base10MappedFileD2Ev",
   "parameters" :
   [
    {
     "is_this_ptr" : true,
     "referenced_type" : "_ZTIPN7android4base10MappedFileE"
    }
   ],
   "return_type" : "_ZTIv",
   "source_file" : "system/libbase/include/android-base/mapped_file.h"
  },
  {
   "function_name" : "android::base::MappedFile::operator=",
   "linker_set_key" : "_ZN7android4base10MappedFileaSEOS1_",
   "parameters" :
   [
    {
     "is_this_ptr" : true,
     "referenced_type" : "_ZTIPN7android4base10MappedFileE"
    },
    {
     "referenced_type" : "_ZTION7android4base10MappedFileE"
    }
   ],
   "return_type" : "_ZTIRN7android4base10MappedFileE",
   "source_file" : "system/libbase/include/android-base/mapped_file.h"
  },
  {
   "function_name" : "android::base::SetAborter",
   "linker_set_key" : "_ZN7android4base10SetAborterEONSt3__18functionIFvPKcEEE",
   "parameters" :
   [
    {
     "referenced_type" : "_ZTIONSt3__18functionIFvPKcEEE"
    }
   ],
   "return_type" : "_ZTINSt3__18functionIFvPKcEEE",
   "source_file" : "system/libbase/include/android-base/logging.h"
  },
  {
   "function_name" : "android::base::StartsWith",
   "linker_set_key" : "_ZN7android4base10StartsWithENSt3__117basic_string_viewIcNS1_11char_traitsIcEEEES5_",
   "parameters" :
   [
    {
     "referenced_type" : "_ZTINSt3__117basic_string_viewIcNS_11char_traitsIcEEEE"
    },
    {
     "referenced_type" : "_ZTINSt3__117basic_string_viewIcNS_11char_traitsIcEEEE"
    }
   ],
   "return_type" : "_ZTIb",
   "source_file" : "system/libbase/include/android-base/strings.h"
  },
  {
   "function_name" : "android::base::StartsWith",
   "linker_set_key" : "_ZN7android4base10StartsWithENSt3__117basic_string_viewIcNS1_11char_traitsIcEEEEc",
   "parameters" :
   [
    {
     "referenced_type" : "_ZTINSt3__117basic_string_viewIcNS_11char_traitsIcEEEE"
    },
    {
     "referenced_type" : "_ZTIc"
    }
   ],
   "return_type" : "_ZTIb",
   "source_file" : "system/libbase/include/android-base/strings.h"
  },
  {
   "function_name" : "android::base::WriteFully",
   "linker_set_key" : "_ZN7android4base10WriteFullyENS0_11borrowed_fdEPKvj",
   "parameters" :
   [
    {
     "referenced_type" : "_ZTIN7android4base11borrowed_fdE"
    },
    {
     "referenced_type" : "_ZTIPKv"
    },
    {
     "referenced_type" : "_ZTIj"
    }
   ],
   "return_type" : "_ZTIb",
   "source_file" : "system/libbase/include/android-base/file.h"
  },
  {
   "function_name" : "android::base::boot_clock::now",
   "linker_set_key" : "_ZN7android4base10boot_clock3nowEv",
   "return_type" : "_ZTINSt3__16chrono10time_pointIN7android4base10boot_clockENS0_8durationIxNS_5ratioILx1ELx1000000000EEEEEEE",
   "source_file" : "system/libbase/include/android-base/chrono_utils.h"
  },
  {
   "function_name" : "android::base::GetProperty",
   "linker_set_key" : "_ZN7android4base11GetPropertyERKNSt3__112basic_stringIcNS1_11char_traitsIcEENS1_9allocatorIcEEEES9_",
   "parameters" :
   [
    {
     "referenced_type" : "_ZTIRKNSt3__112basic_stringIcNS_11char_traitsIcEENS_9allocatorIcEEEE"
    },
    {
     "referenced_type" : "_ZTIRKNSt3__112basic_stringIcNS_11char_traitsIcEENS_9allocatorIcEEEE"
    }
   ],
   "return_type" : "_ZTINSt3__112basic_stringIcNS_11char_traitsIcEENS_9allocatorIcEEEE",
   "source_file" : "system/libbase/include/android-base/properties.h"
  },
  {
   "function_name" : "android::base::GetThreadId",
   "linker_set_key" : "_ZN7android4base11GetThreadIdEv",
   "return_type" : "_ZTIy",
   "source_file" : "system/libbase/include/android-base/threads.h"
  },
  {
   "function_name" : "android::base::InitLogging",
   "linker_set_key" : "_ZN7android4base11InitLoggingEPPcONSt3__18functionIFvNS0_5LogIdENS0_11LogSeverityEPKcS8_jS8_EEEONS4_IFvS8_EEE",
   "parameters" :
   [
    {
     "referenced_type" : "_ZTIPPc"
    },
    {
     "default_arg" : true,
     "referenced_type" : "_ZTIONSt3__18functionIFvN7android4base5LogIdENS2_11LogSeverityEPKcS6_jS6_EEE"
    },
    {
     "default_arg" : true,
     "referenced_type" : "_ZTIONSt3__18functionIFvPKcEEE"
    }
   ],
   "return_type" : "_ZTIv",
   "source_file" : "system/libbase/include/android-base/logging.h"
  },
  {
   "function_name" : "android::base::SetProperty",
   "linker_set_key" : "_ZN7android4base11SetPropertyERKNSt3__112basic_stringIcNS1_11char_traitsIcEENS1_9allocatorIcEEEES9_",
   "parameters" :
   [
    {
     "referenced_type" : "_ZTIRKNSt3__112basic_stringIcNS_11char_traitsIcEENS_9allocatorIcEEEE"
    },
    {
     "referenced_type" : "_ZTIRKNSt3__112basic_stringIcNS_11char_traitsIcEENS_9allocatorIcEEEE"
    }
   ],
   "return_type" : "_ZTIb",
   "source_file" : "system/libbase/include/android-base/properties.h"
  },
  {
   "function_name" : "android::base::StdioLogger",
   "linker_set_key" : "_ZN7android4base11StdioLoggerENS0_5LogIdENS0_11LogSeverityEPKcS4_jS4_",
   "parameters" :
   [
    {
     "referenced_type" : "_ZTIN7android4base5LogIdE"
    },
    {
     "referenced_type" : "_ZTIN7android4base11LogSeverityE"
    },
    {
     "referenced_type" : "_ZTIPKc"
    },
    {
     "referenced_type" : "_ZTIPKc"
    },
    {
     "referenced_type" : "_ZTIj"
    },
    {
     "referenced_type" : "_ZTIPKc"
    }
   ],
   "return_type" : "_ZTIv",
   "source_file" : "system/libbase/include/android-base/logging.h"
  },
  {
   "function_name" : "android::base::KernelLogger",
   "linker_set_key" : "_ZN7android4base12KernelLoggerENS0_5LogIdENS0_11LogSeverityEPKcS4_jS4_",
   "parameters" :
   [
    {
     "referenced_type" : "_ZTIN7android4base5LogIdE"
    },
    {
     "referenced_type" : "_ZTIN7android4base11LogSeverityE"
    },
    {
     "referenced_type" : "_ZTIPKc"
    },
    {
     "referenced_type" : "_ZTIPKc"
    },
    {
     "referenced_type" : "_ZTIj"
    },
    {
     "referenced_type" : "_ZTIPKc"
    }
   ],
   "return_type" : "_ZTIv",
   "source_file" : "system/libbase/include/android-base/logging.h"
  },
  {
   "function_name" : "android::base::StderrLogger",
   "linker_set_key" : "_ZN7android4base12StderrLoggerENS0_5LogIdENS0_11LogSeverityEPKcS4_jS4_",
   "parameters" :
   [
    {
     "referenced_type" : "_ZTIN7android4base5LogIdE"
    },
    {
     "referenced_type" : "_ZTIN7android4base11LogSeverityE"
    },
    {
     "referenced_type" : "_ZTIPKc"
    },
    {
     "referenced_type" : "_ZTIPKc"
    },
    {
     "referenced_type" : "_ZTIj"
    },
    {
     "referenced_type" : "_ZTIPKc"
    }
   ],
   "return_type" : "_ZTIv",
   "source_file" : "system/libbase/include/android-base/logging.h"
  },
  {
   "function_name" : "android::base::StringPrintf",
   "linker_set_key" : "_ZN7android4base12StringPrintfEPKcz",
   "parameters" :
   [
    {
     "referenced_type" : "_ZTIPKc"
    }
   ],
   "return_type" : "_ZTINSt3__112basic_stringIcNS_11char_traitsIcEENS_9allocatorIcEEEE",
   "source_file" : "system/libbase/include/android-base/stringprintf.h"
  },
  {
   "function_name" : "android::base::SetDefaultTag",
   "linker_set_key" : "_ZN7android4base13SetDefaultTagERKNSt3__112basic_stringIcNS1_11char_traitsIcEENS1_9allocatorIcEEEE",
   "parameters" :
   [
    {
     "referenced_type" : "_ZTIRKNSt3__112basic_stringIcNS_11char_traitsIcEENS_9allocatorIcEEEE"
    }
   ],
   "return_type" : "_ZTIv",
   "source_file" : "system/libbase/include/android-base/logging.h"
  },
  {
   "function_name" : "android::base::StringAppendF",
   "linker_set_key" : "_ZN7android4base13StringAppendFEPNSt3__112basic_stringIcNS1_11char_traitsIcEENS1_9allocatorIcEEEEPKcz",
   "parameters" :
   [
    {
     "referenced_type" : "_ZTIPNSt3__112basic_stringIcNS_11char_traitsIcEENS_9allocatorIcEEEE"
    },
    {
     "referenced_type" : "_ZTIPKc"
    }
   ],
   "return_type" : "_ZTIv",
   "source_file" : "system/libbase/include/android-base/stringprintf.h"
  },
  {
   "function_name" : "android::base::StringAppendV",
   "linker_set_key" : "_ZN7android4base13StringAppendVEPNSt3__112basic_stringIcNS1_11char_traitsIcEENS1_9allocatorIcEEEEPKcPc",
   "parameters" :
   [
    {
     "referenced_type" : "_ZTIPNSt3__112basic_stringIcNS_11char_traitsIcEENS_9allocatorIcEEEE"
    },
    {
     "referenced_type" : "_ZTIPKc"
    },
    {
     "referenced_type" : "_ZTIPc"
    }
   ],
   "return_type" : "_ZTIv",
   "source_file" : "system/libbase/include/android-base/stringprintf.h"
  },
  {
   "function_name" : "android::base::StringReplace",
   "linker_set_key" : "_ZN7android4base13StringReplaceENSt3__117basic_string_viewIcNS1_11char_traitsIcEEEES5_S5_b",
   "parameters" :
   [
    {
     "referenced_type" : "_ZTINSt3__117basic_string_viewIcNS_11char_traitsIcEEEE"
    },
    {
     "referenced_type" : "_ZTINSt3__117basic_string_viewIcNS_11char_traitsIcEEEE"
    },
    {
     "referenced_type" : "_ZTINSt3__117basic_string_viewIcNS_11char_traitsIcEEEE"
    },
    {
     "referenced_type" : "_ZTIb"
    }
   ],
   "return_type" : "_ZTINSt3__112basic_stringIcNS_11char_traitsIcEENS_9allocatorIcEEEE",
   "source_file" : "system/libbase/include/android-base/strings.h"
  },
  {
   "function_name" : "android::base::CachedProperty::Get",
   "linker_set_key" : "_ZN7android4base14CachedProperty3GetEPb",
   "parameters" :
   [
    {
     "is_this_ptr" : true,
     "referenced_type" : "_ZTIPN7android4base14CachedPropertyE"
    },
    {
     "default_arg" : true,
     "referenced_type" : "_ZTIPb"
    }
   ],
   "return_type" : "_ZTIPKc",
   "source_file" : "system/libbase/include/android-base/properties.h"
  },
  {
   "function_name" : "android::base::CachedProperty::CachedProperty",
   "linker_set_key" : "_ZN7android4base14CachedPropertyC1EPKc",
   "parameters" :
   [
    {
     "is_this_ptr" : true,
     "referenced_type" : "_ZTIPN7android4base14CachedPropertyE"
    },
    {
     "referenced_type" : "_ZTIPKc"
    }
   ],
   "return_type" : "_ZTIv",
   "source_file" : "system/libbase/include/android-base/properties.h"
  },
  {
   "function_name" : "android::base::CachedProperty::CachedProperty",
   "linker_set_key" : "_ZN7android4base14CachedPropertyC2EPKc",
   "parameters" :
   [
    {
     "is_this_ptr" : true,
     "referenced_type" : "_ZTIPN7android4base14CachedPropertyE"
    },
    {
     "referenced_type" : "_ZTIPKc"
    }
   ],
   "return_type" : "_ZTIv",
   "source_file" : "system/libbase/include/android-base/properties.h"
  },
  {
   "function_name" : "android::base::DefaultAborter",
   "linker_set_key" : "_ZN7android4base14DefaultAborterEPKc",
   "parameters" :
   [
    {
     "referenced_type" : "_ZTIPKc"
    }
   ],
   "return_type" : "_ZTIv",
   "source_file" : "system/libbase/include/android-base/logging.h"
  },
  {
   "function_name" : "android::base::GetIntProperty",
   "linker_set_key" : "_ZN7android4base14GetIntPropertyIiEET_RKNSt3__112basic_stringIcNS3_11char_traitsIcEENS3_9allocatorIcEEEES2_S2_S2_",
   "parameters" :
   [
    {
     "referenced_type" : "_ZTIRKNSt3__112basic_stringIcNS_11char_traitsIcEENS_9allocatorIcEEEE"
    },
    {
     "referenced_type" : "_ZTIi"
    },
    {
     "default_arg" : true,
     "referenced_type" : "_ZTIi"
    },
    {
     "default_arg" : true,
     "referenced_type" : "_ZTIi"
    }
   ],
   "return_type" : "_ZTIi",
   "source_file" : "system/libbase/include/android-base/properties.h",
   "template_args" : [ "_ZTIi" ]
  },
  {
   "function_name" : "android::base::ReadFdToString",
   "linker_set_key" : "_ZN7android4base14ReadFdToStringENS0_11borrowed_fdEPNSt3__112basic_stringIcNS2_11char_traitsIcEENS2_9allocatorIcEEEE",
   "parameters" :
   [
    {
     "referenced_type" : "_ZTIN7android4base11borrowed_fdE"
    },
    {
     "referenced_type" : "_ZTIPNSt3__112basic_stringIcNS_11char_traitsIcEENS_9allocatorIcEEEE"
    }
   ],
   "return_type" : "_ZTIb",
   "source_file" : "system/libbase/include/android-base/file.h"
  },
  {
   "function_name" : "android::base::GetBoolProperty",
   "linker_set_key" : "_ZN7android4base15GetBoolPropertyERKNSt3__112basic_stringIcNS1_11char_traitsIcEENS1_9allocatorIcEEEEb",
   "parameters" :
   [
    {
     "referenced_type" : "_ZTIRKNSt3__112basic_stringIcNS_11char_traitsIcEENS_9allocatorIcEEEE"
    },
    {
     "referenced_type" : "_ZTIb"
    }
   ],
   "return_type" : "_ZTIb",
   "source_file" : "system/libbase/include/android-base/properties.h"
  },
  {
   "function_name" : "android::base::ParseNetAddress",
   "linker_set_key" : "_ZN7android4base15ParseNetAddressERKNSt3__112basic_stringIcNS1_11char_traitsIcEENS1_9allocatorIcEEEEPS7_PiSA_SA_",
   "parameters" :
   [
    {
     "referenced_type" : "_ZTIRKNSt3__112basic_stringIcNS_11char_traitsIcEENS_9allocatorIcEEEE"
    },
    {
     "referenced_type" : "_ZTIPNSt3__112basic_stringIcNS_11char_traitsIcEENS_9allocatorIcEEEE"
    },
    {
     "referenced_type" : "_ZTIPi"
    },
    {
     "referenced_type" : "_ZTIPNSt3__112basic_stringIcNS_11char_traitsIcEENS_9allocatorIcEEEE"
    },
    {
     "referenced_type" : "_ZTIPNSt3__112basic_stringIcNS_11char_traitsIcEENS_9allocatorIcEEEE"
    }
   ],
   "return_type" : "_ZTIb",
   "source_file" : "system/libbase/include/android-base/parsenetaddress.h"
  },
  {
   "function_name" : "android::base::WaitForProperty",
   "linker_set_key" : "_ZN7android4base15WaitForPropertyERKNSt3__112basic_stringIcNS1_11char_traitsIcEENS1_9allocatorIcEEEES9_NS1_6chrono8durationIxNS1_5ratioILx1ELx1000EEEEE",
   "parameters" :
   [
    {
     "referenced_type" : "_ZTIRKNSt3__112basic_stringIcNS_11char_traitsIcEENS_9allocatorIcEEEE"
    },
    {
     "referenced_type" : "_ZTIRKNSt3__112basic_stringIcNS_11char_traitsIcEENS_9allocatorIcEEEE"
    },
    {
     "default_arg" : true,
     "referenced_type" : "_ZTINSt3__16chrono8durationIxNS_5ratioILx1ELx1000EEEEE"
    }
   ],
   "return_type" : "_ZTIb",
   "source_file" : "system/libbase/include/android-base/properties.h"
  },
  {
   "function_name" : "android::base::WriteStringToFd",
   "linker_set_key" : "_ZN7android4base15WriteStringToFdERKNSt3__112basic_stringIcNS1_11char_traitsIcEENS1_9allocatorIcEEEENS0_11borrowed_fdE",
   "parameters" :
   [
    {
     "referenced_type" : "_ZTIRKNSt3__112basic_stringIcNS_11char_traitsIcEENS_9allocatorIcEEEE"
    },
    {
     "referenced_type" : "_ZTIN7android4base11borrowed_fdE"
    }
   ],
   "return_type" : "_ZTIb",
   "source_file" : "system/libbase/include/android-base/file.h"
  },
  {
   "function_name" : "android::base::EqualsIgnoreCase",
   "linker_set_key" : "_ZN7android4base16EqualsIgnoreCaseENSt3__117basic_string_viewIcNS1_11char_traitsIcEEEES5_",
   "parameters" :
   [
    {
     "referenced_type" : "_ZTINSt3__117basic_string_viewIcNS_11char_traitsIcEEEE"
    },
    {
     "referenced_type" : "_ZTINSt3__117basic_string_viewIcNS_11char_traitsIcEEEE"
    }
   ],
   "return_type" : "_ZTIb",
   "source_file" : "system/libbase/include/android-base/strings.h"
  },
  {
   "function_name" : "android::base::ReadFileToString",
   "linker_set_key" : "_ZN7android4base16ReadFileToStringERKNSt3__112basic_stringIcNS1_11char_traitsIcEENS1_9allocatorIcEEEEPS7_b",
   "parameters" :
   [
    {
     "referenced_type" : "_ZTIRKNSt3__112basic_stringIcNS_11char_traitsIcEENS_9allocatorIcEEEE"
    },
    {
     "referenced_type" : "_ZTIPNSt3__112basic_stringIcNS_11char_traitsIcEENS_9allocatorIcEEEE"
    },
    {
     "default_arg" : true,
     "referenced_type" : "_ZTIb"
    }
   ],
   "return_type" : "_ZTIb",
   "source_file" : "system/libbase/include/android-base/file.h"
  },
  {
   "function_name" : "android::base::GetExecutablePath",
   "linker_set_key" : "_ZN7android4base17GetExecutablePathEv",
   "return_type" : "_ZTINSt3__112basic_stringIcNS_11char_traitsIcEENS_9allocatorIcEEEE",
   "source_file" : "system/libbase/include/android-base/file.h"
  },
  {
   "function_name" : "android::base::ReadFullyAtOffset",
   "linker_set_key" : "_ZN7android4base17ReadFullyAtOffsetENS0_11borrowed_fdEPvjx",
   "parameters" :
   [
    {
     "referenced_type" : "_ZTIN7android4base11borrowed_fdE"
    },
    {
     "referenced_type" : "_ZTIPv"
    },
    {
     "referenced_type" : "_ZTIj"
    },
    {
     "referenced_type" : "_ZTIx"
    }
   ],
   "return_type" : "_ZTIb",
   "source_file" : "system/libbase/include/android-base/file.h"
  },
  {
   "function_name" : "android::base::ScopedLogSeverity::ScopedLogSeverity",
   "linker_set_key" : "_ZN7android4base17ScopedLogSeverityC1ENS0_11LogSeverityE",
   "parameters" :
   [
    {
     "is_this_ptr" : true,
     "referenced_type" : "_ZTIPN7android4base17ScopedLogSeverityE"
    },
    {
     "referenced_type" : "_ZTIN7android4base11LogSeverityE"
    }
   ],
   "return_type" : "_ZTIv",
   "source_file" : "system/libbase/include/android-base/logging.h"
  },
  {
   "function_name" : "android::base::ScopedLogSeverity::ScopedLogSeverity",
   "linker_set_key" : "_ZN7android4base17ScopedLogSeverityC2ENS0_11LogSeverityE",
   "parameters" :
   [
    {
     "is_this_ptr" : true,
     "referenced_type" : "_ZTIPN7android4base17ScopedLogSeverityE"
    },
    {
     "referenced_type" : "_ZTIN7android4base11LogSeverityE"
    }
   ],
   "return_type" : "_ZTIv",
   "source_file" : "system/libbase/include/android-base/logging.h"
  },
  {
   "function_name" : "android::base::ScopedLogSeverity::~ScopedLogSeverity",
   "linker_set_key" : "_ZN7android4base17ScopedLogSeverityD1Ev",
   "parameters" :
   [
    {
     "is_this_ptr" : true,
     "referenced_type" : "_ZTIPN7android4base17ScopedLogSeverityE"
    }
   ],
   "return_type" : "_ZTIv",
   "source_file" : "system/libbase/include/android-base/logging.h"
  },
  {
   "function_name" : "android::base::ScopedLogSeverity::~ScopedLogSeverity",
   "linker_set_key" : "_ZN7android4base17ScopedLogSeverityD2Ev",
   "parameters" :
   [
    {
     "is_this_ptr" : true,
     "referenced_type" : "_ZTIPN7android4base17ScopedLogSeverityE"
    }
   ],
   "return_type" : "_ZTIv",
   "source_file" : "system/libbase/include/android-base/logging.h"
  },
  {
   "function_name" : "android::base::WriteStringToFile",
   "linker_set_key" : "_ZN7android4base17WriteStringToFileERKNSt3__112basic_stringIcNS1_11char_traitsIcEENS1_9allocatorIcEEEES9_b",
   "parameters" :
   [
    {
     "referenced_type" : "_ZTIRKNSt3__112basic_stringIcNS_11char_traitsIcEENS_9allocatorIcEEEE"
    },
    {
     "referenced_type" : "_ZTIRKNSt3__112basic_stringIcNS_11char_traitsIcEENS_9allocatorIcEEEE"
    },
    {
     "default_arg" : true,
     "referenced_type" : "_ZTIb"
    }
   ],
   "return_type" : "_ZTIb",
   "source_file" : "system/libbase/include/android-base/file.h"
  },
  {
   "function_name" : "android::base::WriteStringToFile",
   "linker_set_key" : "_ZN7android4base17WriteStringToFileERKNSt3__112basic_stringIcNS1_11char_traitsIcEENS1_9allocatorIcEEEES9_tjjb",
   "parameters" :
   [
    {
     "referenced_type" : "_ZTIRKNSt3__112basic_stringIcNS_11char_traitsIcEENS_9allocatorIcEEEE"
    },
    {
     "referenced_type" : "_ZTIRKNSt3__112basic_stringIcNS_11char_traitsIcEENS_9allocatorIcEEEE"
    },
    {
     "referenced_type" : "_ZTIt"
    },
    {
     "referenced_type" : "_ZTIj"
    },
    {
     "referenced_type" : "_ZTIj"
    },
    {
     "default_arg" : true,
     "referenced_type" : "_ZTIb"
    }
   ],
   "return_type" : "_ZTIb",
   "source_file" : "system/libbase/include/android-base/file.h"
  },
  {
   "function_name" : "android::base::EndsWithIgnoreCase",
   "linker_set_key" : "_ZN7android4base18EndsWithIgnoreCaseENSt3__117basic_string_viewIcNS1_11char_traitsIcEEEES5_",
   "parameters" :
   [
    {
     "referenced_type" : "_ZTINSt3__117basic_string_viewIcNS_11char_traitsIcEEEE"
    },
    {
     "referenced_type" : "_ZTINSt3__117basic_string_viewIcNS_11char_traitsIcEEEE"
    }
   ],
   "return_type" : "_ZTIb",
   "source_file" : "system/libbase/include/android-base/strings.h"
  },
  {
   "function_name" : "android::base::RemoveFileIfExists",
   "linker_set_key" : "_ZN7android4base18RemoveFileIfExistsERKNSt3__112basic_stringIcNS1_11char_traitsIcEENS1_9allocatorIcEEEEPS7_",
   "parameters" :
   [
    {
     "referenced_type" : "_ZTIRKNSt3__112basic_stringIcNS_11char_traitsIcEENS_9allocatorIcEEEE"
    },
    {
     "default_arg" : true,
     "referenced_type" : "_ZTIPNSt3__112basic_stringIcNS_11char_traitsIcEENS_9allocatorIcEEEE"
    }
   ],
   "return_type" : "_ZTIb",
   "source_file" : "system/libbase/include/android-base/file.h"
  },
  {
   "function_name" : "android::base::StartsWithIgnoreCase",
   "linker_set_key" : "_ZN7android4base20StartsWithIgnoreCaseENSt3__117basic_string_viewIcNS1_11char_traitsIcEEEES5_",
   "parameters" :
   [
    {
     "referenced_type" : "_ZTINSt3__117basic_string_viewIcNS_11char_traitsIcEEEE"
    },
    {
     "referenced_type" : "_ZTINSt3__117basic_string_viewIcNS_11char_traitsIcEEEE"
    }
   ],
   "return_type" : "_ZTIb",
   "source_file" : "system/libbase/include/android-base/strings.h"
  },
  {
   "function_name" : "android::base::GetMinimumLogSeverity",
   "linker_set_key" : "_ZN7android4base21GetMinimumLogSeverityEv",
   "return_type" : "_ZTIN7android4base11LogSeverityE",
   "source_file" : "system/libbase/include/android-base/logging.h"
  },
  {
   "function_name" : "android::base::SetMinimumLogSeverity",
   "linker_set_key" : "_ZN7android4base21SetMinimumLogSeverityENS0_11LogSeverityE",
   "parameters" :
   [
    {
     "referenced_type" : "_ZTIN7android4base11LogSeverityE"
    }
   ],
   "return_type" : "_ZTIN7android4base11LogSeverityE",
   "source_file" : "system/libbase/include/android-base/logging.h"
  },
  {
   "function_name" : "android::base::GetExecutableDirectory",
   "linker_set_key" : "_ZN7android4base22GetExecutableDirectoryEv",
   "return_type" : "_ZTINSt3__112basic_stringIcNS_11char_traitsIcEENS_9allocatorIcEEEE",
   "source_file" : "system/libbase/include/android-base/file.h"
  },
  {
   "function_name" : "android::base::SystemErrorCodeToString",
   "linker_set_key" : "_ZN7android4base23SystemErrorCodeToStringEi",
   "parameters" :
   [
    {
     "referenced_type" : "_ZTIi"
    }
   ],
   "return_type" : "_ZTINSt3__112basic_stringIcNS_11char_traitsIcEENS_9allocatorIcEEEE",
   "source_file" : "system/libbase/include/android-base/errors.h"
  },
  {
   "function_name" : "android::base::WaitForPropertyCreation",
   "linker_set_key" : "_ZN7android4base23WaitForPropertyCreationERKNSt3__112basic_stringIcNS1_11char_traitsIcEENS1_9allocatorIcEEEENS1_6chrono8durationIxNS1_5ratioILx1ELx1000EEEEE",
   "parameters" :
   [
    {
     "referenced_type" : "_ZTIRKNSt3__112basic_stringIcNS_11char_traitsIcEENS_9allocatorIcEEEE"
    },
    {
     "default_arg" : true,
     "referenced_type" : "_ZTINSt3__16chrono8durationIxNS_5ratioILx1ELx1000EEEEE"
    }
   ],
   "return_type" : "_ZTIb",
   "source_file" : "system/libbase/include/android-base/properties.h"
  },
  {
   "function_name" : "android::base::SendFileDescriptorVector",
   "linker_set_key" : "_ZN7android4base24SendFileDescriptorVectorENS0_11borrowed_fdEPKvjRKNSt3__16vectorIiNS4_9allocatorIiEEEE",
   "parameters" :
   [
    {
     "referenced_type" : "_ZTIN7android4base11borrowed_fdE"
    },
    {
     "referenced_type" : "_ZTIPKv"
    },
    {
     "referenced_type" : "_ZTIj"
    },
    {
     "referenced_type" : "_ZTIRKNSt3__16vectorIiNS_9allocatorIiEEEE"
    }
   ],
   "return_type" : "_ZTIi",
   "source_file" : "system/libbase/include/android-base/cmsg.h"
  },
  {
   "function_name" : "android::base::ReceiveFileDescriptorVector",
   "linker_set_key" : "_ZN7android4base27ReceiveFileDescriptorVectorENS0_11borrowed_fdEPvjjPNSt3__16vectorINS0_14unique_fd_implINS0_13DefaultCloserEEENS3_9allocatorIS7_EEEE",
   "parameters" :
   [
    {
     "referenced_type" : "_ZTIN7android4base11borrowed_fdE"
    },
    {
     "referenced_type" : "_ZTIPv"
    },
    {
     "referenced_type" : "_ZTIj"
    },
    {
     "referenced_type" : "_ZTIj"
    },
    {
     "referenced_type" : "_ZTIPNSt3__16vectorIN7android4base14unique_fd_implINS2_13DefaultCloserEEENS_9allocatorIS5_EEEE"
    }
   ],
   "return_type" : "_ZTIi",
   "source_file" : "system/libbase/include/android-base/cmsg.h"
  },
  {
   "function_name" : "android::base::Join",
   "linker_set_key" : "_ZN7android4base4JoinINSt3__16vectorINS2_12basic_stringIcNS2_11char_traitsIcEENS2_9allocatorIcEEEENS7_IS9_EEEERKS9_EES9_RKT_T0_",
   "parameters" :
   [
    {
     "referenced_type" : "_ZTIRKNSt3__16vectorINS_12basic_stringIcNS_11char_traitsIcEENS_9allocatorIcEEEENS4_IS6_EEEE"
    },
    {
     "referenced_type" : "_ZTIRKNSt3__112basic_stringIcNS_11char_traitsIcEENS_9allocatorIcEEEE"
    }
   ],
   "return_type" : "_ZTINSt3__112basic_stringIcNS_11char_traitsIcEENS_9allocatorIcEEEE",
   "source_file" : "system/libbase/include/android-base/strings.h",
   "template_args" :
   [
    "_ZTINSt3__16vectorINS_12basic_stringIcNS_11char_traitsIcEENS_9allocatorIcEEEENS4_IS6_EEEE",
    "_ZTIRKNSt3__112basic_stringIcNS_11char_traitsIcEENS_9allocatorIcEEEE"
   ]
  },
  {
   "function_name" : "android::base::Join",
   "linker_set_key" : "_ZN7android4base4JoinINSt3__16vectorINS2_12basic_stringIcNS2_11char_traitsIcEENS2_9allocatorIcEEEENS7_IS9_EEEEcEES9_RKT_T0_",
   "parameters" :
   [
    {
     "referenced_type" : "_ZTIRKNSt3__16vectorINS_12basic_stringIcNS_11char_traitsIcEENS_9allocatorIcEEEENS4_IS6_EEEE"
    },
    {
     "referenced_type" : "_ZTIc"
    }
   ],
   "return_type" : "_ZTINSt3__112basic_stringIcNS_11char_traitsIcEENS_9allocatorIcEEEE",
   "source_file" : "system/libbase/include/android-base/strings.h",
   "template_args" :
   [
    "_ZTINSt3__16vectorINS_12basic_stringIcNS_11char_traitsIcEENS_9allocatorIcEEEENS4_IS6_EEEE",
    "_ZTIc"
   ]
  },
  {
   "function_name" : "android::base::Join",
   "linker_set_key" : "_ZN7android4base4JoinINSt3__16vectorIPKcNS2_9allocatorIS5_EEEERKNS2_12basic_stringIcNS2_11char_traitsIcEENS6_IcEEEEEESD_RKT_T0_",
   "parameters" :
   [
    {
     "referenced_type" : "_ZTIRKNSt3__16vectorIPKcNS_9allocatorIS2_EEEE"
    },
    {
     "referenced_type" : "_ZTIRKNSt3__112basic_stringIcNS_11char_traitsIcEENS_9allocatorIcEEEE"
    }
   ],
   "return_type" : "_ZTINSt3__112basic_stringIcNS_11char_traitsIcEENS_9allocatorIcEEEE",
   "source_file" : "system/libbase/include/android-base/strings.h",
   "template_args" :
   [
    "_ZTINSt3__16vectorIPKcNS_9allocatorIS2_EEEE",
    "_ZTIRKNSt3__112basic_stringIcNS_11char_traitsIcEENS_9allocatorIcEEEE"
   ]
  },
  {
   "function_name" : "android::base::Join",
   "linker_set_key" : "_ZN7android4base4JoinINSt3__16vectorIPKcNS2_9allocatorIS5_EEEEcEENS2_12basic_stringIcNS2_11char_traitsIcEENS6_IcEEEERKT_T0_",
   "parameters" :
   [
    {
     "referenced_type" : "_ZTIRKNSt3__16vectorIPKcNS_9allocatorIS2_EEEE"
    },
    {
     "referenced_type" : "_ZTIc"
    }
   ],
   "return_type" : "_ZTINSt3__112basic_stringIcNS_11char_traitsIcEENS_9allocatorIcEEEE",
   "source_file" : "system/libbase/include/android-base/strings.h",
   "template_args" : [ "_ZTINSt3__16vectorIPKcNS_9allocatorIS2_EEEE", "_ZTIc" ]
  },
  {
   "function_name" : "android::base::Trim",
   "linker_set_key" : "_ZN7android4base4TrimERKNSt3__112basic_stringIcNS1_11char_traitsIcEENS1_9allocatorIcEEEE",
   "parameters" :
   [
    {
     "referenced_type" : "_ZTIRKNSt3__112basic_stringIcNS_11char_traitsIcEENS_9allocatorIcEEEE"
    }
   ],
   "return_type" : "_ZTINSt3__112basic_stringIcNS_11char_traitsIcEENS_9allocatorIcEEEE",
   "source_file" : "system/libbase/include/android-base/strings.h"
  },
  {
   "function_name" : "android::base::Split",
   "linker_set_key" : "_ZN7android4base5SplitERKNSt3__112basic_stringIcNS1_11char_traitsIcEENS1_9allocatorIcEEEES9_",
   "parameters" :
   [
    {
     "referenced_type" : "_ZTIRKNSt3__112basic_stringIcNS_11char_traitsIcEENS_9allocatorIcEEEE"
    },
    {
     "referenced_type" : "_ZTIRKNSt3__112basic_stringIcNS_11char_traitsIcEENS_9allocatorIcEEEE"
    }
   ],
   "return_type" : "_ZTINSt3__16vectorINS_12basic_stringIcNS_11char_traitsIcEENS_9allocatorIcEEEENS4_IS6_EEEE",
   "source_file" : "system/libbase/include/android-base/strings.h"
  },
  {
   "access" : "private",
   "function_name" : "android::base::AllPids::PidIterator::Increment",
   "linker_set_key" : "_ZN7android4base7AllPids11PidIterator9IncrementEv",
   "parameters" :
   [
    {
     "is_this_ptr" : true,
     "referenced_type" : "_ZTIPN7android4base7AllPids11PidIteratorE"
    }
   ],
   "return_type" : "_ZTIv",
   "source_file" : "system/libbase/include/android-base/process.h"
  },
  {
   "function_name" : "android::base::Dirname",
   "linker_set_key" : "_ZN7android4base7DirnameERKNSt3__112basic_stringIcNS1_11char_traitsIcEENS1_9allocatorIcEEEE",
   "parameters" :
   [
    {
     "referenced_type" : "_ZTIRKNSt3__112basic_stringIcNS_11char_traitsIcEENS_9allocatorIcEEEE"
    }
   ],
   "return_type" : "_ZTINSt3__112basic_stringIcNS_11char_traitsIcEENS_9allocatorIcEEEE",
   "source_file" : "system/libbase/include/android-base/file.h"
  },
  {
   "function_name" : "android::base::Basename",
   "linker_set_key" : "_ZN7android4base8BasenameERKNSt3__112basic_stringIcNS1_11char_traitsIcEENS1_9allocatorIcEEEE",
   "parameters" :
   [
    {
     "referenced_type" : "_ZTIRKNSt3__112basic_stringIcNS_11char_traitsIcEENS_9allocatorIcEEEE"
    }
   ],
   "return_type" : "_ZTINSt3__112basic_stringIcNS_11char_traitsIcEENS_9allocatorIcEEEE",
   "source_file" : "system/libbase/include/android-base/file.h"
  },
  {
   "function_name" : "android::base::EndsWith",
   "linker_set_key" : "_ZN7android4base8EndsWithENSt3__117basic_string_viewIcNS1_11char_traitsIcEEEES5_",
   "parameters" :
   [
    {
     "referenced_type" : "_ZTINSt3__117basic_string_viewIcNS_11char_traitsIcEEEE"
    },
    {
     "referenced_type" : "_ZTINSt3__117basic_string_viewIcNS_11char_traitsIcEEEE"
    }
   ],
   "return_type" : "_ZTIb",
   "source_file" : "system/libbase/include/android-base/strings.h"
  },
  {
   "function_name" : "android::base::EndsWith",
   "linker_set_key" : "_ZN7android4base8EndsWithENSt3__117basic_string_viewIcNS1_11char_traitsIcEEEEc",
   "parameters" :
   [
    {
     "referenced_type" : "_ZTINSt3__117basic_string_viewIcNS_11char_traitsIcEEEE"
    },
    {
     "referenced_type" : "_ZTIc"
    }
   ],
   "return_type" : "_ZTIb",
   "source_file" : "system/libbase/include/android-base/strings.h"
  },
  {
   "function_name" : "android::base::Readlink",
   "linker_set_key" : "_ZN7android4base8ReadlinkERKNSt3__112basic_stringIcNS1_11char_traitsIcEENS1_9allocatorIcEEEEPS7_",
   "parameters" :
   [
    {
     "referenced_type" : "_ZTIRKNSt3__112basic_stringIcNS_11char_traitsIcEENS_9allocatorIcEEEE"
    },
    {
     "referenced_type" : "_ZTIPNSt3__112basic_stringIcNS_11char_traitsIcEENS_9allocatorIcEEEE"
    }
   ],
   "return_type" : "_ZTIb",
   "source_file" : "system/libbase/include/android-base/file.h"
  },
  {
   "function_name" : "android::base::Realpath",
   "linker_set_key" : "_ZN7android4base8RealpathERKNSt3__112basic_stringIcNS1_11char_traitsIcEENS1_9allocatorIcEEEEPS7_",
   "parameters" :
   [
    {
     "referenced_type" : "_ZTIRKNSt3__112basic_stringIcNS_11char_traitsIcEENS_9allocatorIcEEEE"
    },
    {
     "referenced_type" : "_ZTIPNSt3__112basic_stringIcNS_11char_traitsIcEENS_9allocatorIcEEEE"
    }
   ],
   "return_type" : "_ZTIb",
   "source_file" : "system/libbase/include/android-base/file.h"
  },
  {
   "function_name" : "android::base::ParseBool",
   "linker_set_key" : "_ZN7android4base9ParseBoolENSt3__117basic_string_viewIcNS1_11char_traitsIcEEEE",
   "parameters" :
   [
    {
     "referenced_type" : "_ZTINSt3__117basic_string_viewIcNS_11char_traitsIcEEEE"
    }
   ],
   "return_type" : "_ZTIN7android4base15ParseBoolResultE",
   "source_file" : "system/libbase/include/android-base/parsebool.h"
  },
  {
   "function_name" : "android::base::ParseUint",
   "linker_set_key" : "_ZN7android4base9ParseUintIhEEbPKcPT_S4_b",
   "parameters" :
   [
    {
     "referenced_type" : "_ZTIPKc"
    },
    {
     "referenced_type" : "_ZTIPh"
    },
    {
     "default_arg" : true,
     "referenced_type" : "_ZTIh"
    },
    {
     "default_arg" : true,
     "referenced_type" : "_ZTIb"
    }
   ],
   "return_type" : "_ZTIb",
   "source_file" : "system/libbase/include/android-base/parseint.h",
   "template_args" : [ "_ZTIh" ]
  },
  {
   "function_name" : "android::base::ParseUint",
   "linker_set_key" : "_ZN7android4base9ParseUintIjEEbPKcPT_S4_b",
   "parameters" :
   [
    {
     "referenced_type" : "_ZTIPKc"
    },
    {
     "referenced_type" : "_ZTIPj"
    },
    {
     "default_arg" : true,
     "referenced_type" : "_ZTIj"
    },
    {
     "default_arg" : true,
     "referenced_type" : "_ZTIb"
    }
   ],
   "return_type" : "_ZTIb",
   "source_file" : "system/libbase/include/android-base/parseint.h",
   "template_args" : [ "_ZTIj" ]
  },
  {
   "function_name" : "android::base::ParseUint",
   "linker_set_key" : "_ZN7android4base9ParseUintItEEbPKcPT_S4_b",
   "parameters" :
   [
    {
     "referenced_type" : "_ZTIPKc"
    },
    {
     "referenced_type" : "_ZTIPt"
    },
    {
     "default_arg" : true,
     "referenced_type" : "_ZTIt"
    },
    {
     "default_arg" : true,
     "referenced_type" : "_ZTIb"
    }
   ],
   "return_type" : "_ZTIb",
   "source_file" : "system/libbase/include/android-base/parseint.h",
   "template_args" : [ "_ZTIt" ]
  },
  {
   "function_name" : "android::base::ParseUint",
   "linker_set_key" : "_ZN7android4base9ParseUintIyEEbPKcPT_S4_b",
   "parameters" :
   [
    {
     "referenced_type" : "_ZTIPKc"
    },
    {
     "referenced_type" : "_ZTIPy"
    },
    {
     "default_arg" : true,
     "referenced_type" : "_ZTIy"
    },
    {
     "default_arg" : true,
     "referenced_type" : "_ZTIb"
    }
   ],
   "return_type" : "_ZTIb",
   "source_file" : "system/libbase/include/android-base/parseint.h",
   "template_args" : [ "_ZTIy" ]
  },
  {
   "function_name" : "android::base::ReadFully",
   "linker_set_key" : "_ZN7android4base9ReadFullyENS0_11borrowed_fdEPvj",
   "parameters" :
   [
    {
     "referenced_type" : "_ZTIN7android4base11borrowed_fdE"
    },
    {
     "referenced_type" : "_ZTIPv"
    },
    {
     "referenced_type" : "_ZTIj"
    }
   ],
   "return_type" : "_ZTIb",
   "source_file" : "system/libbase/include/android-base/file.h"
  },
  {
   "function_name" : "android::base::SetLogger",
   "linker_set_key" : "_ZN7android4base9SetLoggerEONSt3__18functionIFvNS0_5LogIdENS0_11LogSeverityEPKcS6_jS6_EEE",
   "parameters" :
   [
    {
     "referenced_type" : "_ZTIONSt3__18functionIFvN7android4base5LogIdENS2_11LogSeverityEPKcS6_jS6_EEE"
    }
   ],
   "return_type" : "_ZTINSt3__18functionIFvN7android4base5LogIdENS2_11LogSeverityEPKcS6_jS6_EEE",
   "source_file" : "system/libbase/include/android-base/logging.h"
  },
  {
   "function_name" : "android::base::ShouldLog",
   "linker_set_key" : "_ZN7android4base9ShouldLogENS0_11LogSeverityEPKc",
   "parameters" :
   [
    {
     "referenced_type" : "_ZTIN7android4base11LogSeverityE"
    },
    {
     "referenced_type" : "_ZTIPKc"
    }
   ],
   "return_type" : "_ZTIb",
   "source_file" : "system/libbase/include/android-base/logging.h"
  },
  {
   "function_name" : "android::base::operator<<",
   "linker_set_key" : "_ZN7android4baselsERNSt3__113basic_ostreamIcNS1_11char_traitsIcEEEERKNS0_5TimerE",
   "parameters" :
   [
    {
     "referenced_type" : "_ZTIRNSt3__113basic_ostreamIcNS_11char_traitsIcEEEE"
    },
    {
     "referenced_type" : "_ZTIRKN7android4base5TimerE"
    }
   ],
   "return_type" : "_ZTIRNSt3__113basic_ostreamIcNS_11char_traitsIcEEEE",
   "source_file" : "system/libbase/include/android-base/chrono_utils.h"
  },
  {
   "access" : "private",
   "function_name" : "CapturedStdFd::fd",
   "linker_set_key" : "_ZNK13CapturedStdFd2fdEv",
   "parameters" :
   [
    {
     "is_this_ptr" : true,
     "referenced_type" : "_ZTIPK13CapturedStdFd"
    }
   ],
   "return_type" : "_ZTIi",
   "source_file" : "system/libbase/include/android-base/test_utils.h"
  },
  {
   "function_name" : "fmt::v7::detail::locale_ref::get",
   "linker_set_key" : "_ZNK3fmt2v76detail10locale_ref3getINSt3__16localeEEET_v",
   "parameters" :
   [
    {
     "is_this_ptr" : true,
     "referenced_type" : "_ZTIPKN3fmt2v76detail10locale_refE"
    }
   ],
   "return_type" : "_ZTINSt3__16localeE",
   "source_file" : "external/fmtlib/include/fmt/format-inl.h",
   "template_args" : [ "_ZTINSt3__16localeE" ]
  }
 ],
 "global_vars" :
 [
  {
   "linker_set_key" : "_ZN3fmt2v76detail10basic_dataIvE10hex_digitsE",
   "name" : "fmt::v7::detail::basic_data<void>::hex_digits",
   "referenced_type" : "_ZTIA_Kc",
   "source_file" : "external/fmtlib/include/fmt/format.h"
  },
  {
   "linker_set_key" : "_ZN3fmt2v76detail10basic_dataIvE11reset_colorE",
   "name" : "fmt::v7::detail::basic_data<void>::reset_color",
   "referenced_type" : "_ZTIA5_Kc",
   "source_file" : "external/fmtlib/include/fmt/format.h"
  },
  {
   "linker_set_key" : "_ZN3fmt2v76detail10basic_dataIvE12wreset_colorE",
   "name" : "fmt::v7::detail::basic_data<void>::wreset_color",
   "referenced_type" : "_ZTIA5_Kw",
   "source_file" : "external/fmtlib/include/fmt/format.h"
  },
  {
   "linker_set_key" : "_ZN3fmt2v76detail10basic_dataIvE14powers_of_5_64E",
   "name" : "fmt::v7::detail::basic_data<void>::powers_of_5_64",
   "referenced_type" : "_ZTIA_Ky",
   "source_file" : "external/fmtlib/include/fmt/format.h"
  },
  {
   "linker_set_key" : "_ZN3fmt2v76detail10basic_dataIvE15powers_of_10_64E",
   "name" : "fmt::v7::detail::basic_data<void>::powers_of_10_64",
   "referenced_type" : "_ZTIA_Ky",
   "source_file" : "external/fmtlib/include/fmt/format.h"
  },
  {
   "linker_set_key" : "_ZN3fmt2v76detail10basic_dataIvE16background_colorE",
   "name" : "fmt::v7::detail::basic_data<void>::background_color",
   "referenced_type" : "_ZTIA_Kc",
   "source_file" : "external/fmtlib/include/fmt/format.h"
  },
  {
   "linker_set_key" : "_ZN3fmt2v76detail10basic_dataIvE16foreground_colorE",
   "name" : "fmt::v7::detail::basic_data<void>::foreground_color",
   "referenced_type" : "_ZTIA_Kc",
   "source_file" : "external/fmtlib/include/fmt/format.h"
  },
  {
   "linker_set_key" : "_ZN3fmt2v76detail10basic_dataIvE19left_padding_shiftsE",
   "name" : "fmt::v7::detail::basic_data<void>::left_padding_shifts",
   "referenced_type" : "_ZTIA5_Kc",
   "source_file" : "external/fmtlib/include/fmt/format.h"
  },
  {
   "linker_set_key" : "_ZN3fmt2v76detail10basic_dataIvE20right_padding_shiftsE",
   "name" : "fmt::v7::detail::basic_data<void>::right_padding_shifts",
   "referenced_type" : "_ZTIA5_Kc",
   "source_file" : "external/fmtlib/include/fmt/format.h"
  },
  {
   "linker_set_key" : "_ZN3fmt2v76detail10basic_dataIvE21grisu_pow10_exponentsE",
   "name" : "fmt::v7::detail::basic_data<void>::grisu_pow10_exponents",
   "referenced_type" : "_ZTIA_Ks",
   "source_file" : "external/fmtlib/include/fmt/format.h"
  },
  {
   "linker_set_key" : "_ZN3fmt2v76detail10basic_dataIvE23zero_or_powers_of_10_32E",
   "name" : "fmt::v7::detail::basic_data<void>::zero_or_powers_of_10_32",
   "referenced_type" : "_ZTIA_Kj",
   "source_file" : "external/fmtlib/include/fmt/format.h"
  },
  {
   "linker_set_key" : "_ZN3fmt2v76detail10basic_dataIvE23zero_or_powers_of_10_64E",
   "name" : "fmt::v7::detail::basic_data<void>::zero_or_powers_of_10_64",
   "referenced_type" : "_ZTIA_Ky",
   "source_file" : "external/fmtlib/include/fmt/format.h"
  },
  {
   "linker_set_key" : "_ZN3fmt2v76detail10basic_dataIvE24grisu_pow10_significandsE",
   "name" : "fmt::v7::detail::basic_data<void>::grisu_pow10_significands",
   "referenced_type" : "_ZTIA_Ky",
   "source_file" : "external/fmtlib/include/fmt/format.h"
  },
  {
   "linker_set_key" : "_ZN3fmt2v76detail10basic_dataIvE25divtest_table_for_pow5_32E",
   "name" : "fmt::v7::detail::basic_data<void>::divtest_table_for_pow5_32",
   "referenced_type" : "_ZTIA_KN3fmt2v76detail19divtest_table_entryIjEE",
   "source_file" : "external/fmtlib/include/fmt/format.h"
  },
  {
   "linker_set_key" : "_ZN3fmt2v76detail10basic_dataIvE25divtest_table_for_pow5_64E",
   "name" : "fmt::v7::detail::basic_data<void>::divtest_table_for_pow5_64",
   "referenced_type" : "_ZTIA_KN3fmt2v76detail19divtest_table_entryIyEE",
   "source_file" : "external/fmtlib/include/fmt/format.h"
  },
  {
   "linker_set_key" : "_ZN3fmt2v76detail10basic_dataIvE27zero_or_powers_of_10_32_newE",
   "name" : "fmt::v7::detail::basic_data<void>::zero_or_powers_of_10_32_new",
   "referenced_type" : "_ZTIA_Kj",
   "source_file" : "external/fmtlib/include/fmt/format.h"
  },
  {
   "linker_set_key" : "_ZN3fmt2v76detail10basic_dataIvE27zero_or_powers_of_10_64_newE",
   "name" : "fmt::v7::detail::basic_data<void>::zero_or_powers_of_10_64_new",
   "referenced_type" : "_ZTIA_Ky",
   "source_file" : "external/fmtlib/include/fmt/format.h"
  },
  {
   "linker_set_key" : "_ZN3fmt2v76detail10basic_dataIvE31dragonbox_pow10_recovery_errorsE",
   "name" : "fmt::v7::detail::basic_data<void>::dragonbox_pow10_recovery_errors",
   "referenced_type" : "_ZTIA_Kj",
   "source_file" : "external/fmtlib/include/fmt/format.h"
  },
  {
   "linker_set_key" : "_ZN3fmt2v76detail10basic_dataIvE31dragonbox_pow10_significands_64E",
   "name" : "fmt::v7::detail::basic_data<void>::dragonbox_pow10_significands_64",
   "referenced_type" : "_ZTIA_Ky",
   "source_file" : "external/fmtlib/include/fmt/format.h"
  },
  {
   "linker_set_key" : "_ZN3fmt2v76detail10basic_dataIvE32dragonbox_pow10_significands_128E",
   "name" : "fmt::v7::detail::basic_data<void>::dragonbox_pow10_significands_128",
   "referenced_type" : "_ZTIA_KN3fmt2v76detail15uint128_wrapperE",
   "source_file" : "external/fmtlib/include/fmt/format.h"
  },
  {
   "linker_set_key" : "_ZN3fmt2v76detail10basic_dataIvE5signsE",
   "name" : "fmt::v7::detail::basic_data<void>::signs",
   "referenced_type" : "_ZTIA_Kc",
   "source_file" : "external/fmtlib/include/fmt/format.h"
  },
  {
   "linker_set_key" : "_ZN3fmt2v76detail10basic_dataIvE6digitsE",
   "name" : "fmt::v7::detail::basic_data<void>::digits",
   "referenced_type" : "_ZTIA_A2_Kc",
   "source_file" : "external/fmtlib/include/fmt/format.h"
  },
  {
   "linker_set_key" : "_ZZN3fmt2v76detail11utf8_decodeEPKcPjPiE4mins",
   "name" : "mins",
   "referenced_type" : "_ZTIA5_Kj",
   "source_file" : "external/fmtlib/include/fmt/format-inl.h"
  },
  {
   "linker_set_key" : "_ZZN3fmt2v76detail11utf8_decodeEPKcPjPiE5masks",
   "name" : "masks",
   "referenced_type" : "_ZTIA5_Ki",
   "source_file" : "external/fmtlib/include/fmt/format-inl.h"
  },
  {
   "linker_set_key" : "_ZZN3fmt2v76detail11utf8_decodeEPKcPjPiE6shiftc",
   "name" : "shiftc",
   "referenced_type" : "_ZTIA5_Ki",
   "source_file" : "external/fmtlib/include/fmt/format-inl.h"
  },
  {
   "linker_set_key" : "_ZZN3fmt2v76detail11utf8_decodeEPKcPjPiE6shifte",
   "name" : "shifte",
   "referenced_type" : "_ZTIA5_Ki",
   "source_file" : "external/fmtlib/include/fmt/format-inl.h"
  },
  {
   "linker_set_key" : "_ZZN3fmt2v76detail5writeIcNS1_15buffer_appenderIcEEdLi0EEET0_S5_T1_E5specs",
   "name" : "specs",
   "referenced_type" : "_ZTIKN3fmt2v718basic_format_specsIcEE",
   "source_file" : "external/fmtlib/include/fmt/format.h"
  },
  {
   "linker_set_key" : "_ZZN3fmt2v76detail5writeIcNS1_15buffer_appenderIcEEeLi0EEET0_S5_T1_E5specs",
   "name" : "specs",
   "referenced_type" : "_ZTIKN3fmt2v718basic_format_specsIcEE",
   "source_file" : "external/fmtlib/include/fmt/format.h"
  },
  {
   "linker_set_key" : "_ZZN3fmt2v76detail5writeIcNS1_15buffer_appenderIcEEfLi0EEET0_S5_T1_E5specs",
   "name" : "specs",
   "referenced_type" : "_ZTIKN3fmt2v718basic_format_specsIcEE",
   "source_file" : "external/fmtlib/include/fmt/format.h"
  },
  {
   "linker_set_key" : "_ZZN3fmt2v76detail5writeIcNSt3__120back_insert_iteratorINS1_6bufferIcEEEEdLi0EEET0_S8_T1_E5specs",
   "name" : "specs",
   "referenced_type" : "_ZTIKN3fmt2v718basic_format_specsIcEE",
   "source_file" : "external/fmtlib/include/fmt/format.h"
  },
  {
   "linker_set_key" : "_ZZN3fmt2v76detail5writeIcNSt3__120back_insert_iteratorINS1_6bufferIcEEEEeLi0EEET0_S8_T1_E5specs",
   "name" : "specs",
   "referenced_type" : "_ZTIKN3fmt2v718basic_format_specsIcEE",
   "source_file" : "external/fmtlib/include/fmt/format.h"
  },
  {
   "linker_set_key" : "_ZZN3fmt2v76detail5writeIcNSt3__120back_insert_iteratorINS1_6bufferIcEEEEfLi0EEET0_S8_T1_E5specs",
   "name" : "specs",
   "referenced_type" : "_ZTIKN3fmt2v718basic_format_specsIcEE",
   "source_file" : "external/fmtlib/include/fmt/format.h"
  },
  {
   "linker_set_key" : "_ZZN3fmt2v76detail5writeIcNSt3__120back_insert_iteratorINS3_12basic_stringIcNS3_11char_traitsIcEENS3_9allocatorIcEEEEEEdLi0EEET0_SC_T1_E5specs",
   "name" : "specs",
   "referenced_type" : "_ZTIKN3fmt2v718basic_format_specsIcEE",
   "source_file" : "external/fmtlib/include/fmt/format.h"
  },
  {
   "linker_set_key" : "_ZZN3fmt2v76detail5writeIcNSt3__120back_insert_iteratorINS3_12basic_stringIcNS3_11char_traitsIcEENS3_9allocatorIcEEEEEEeLi0EEET0_SC_T1_E5specs",
   "name" : "specs",
   "referenced_type" : "_ZTIKN3fmt2v718basic_format_specsIcEE",
   "source_file" : "external/fmtlib/include/fmt/format.h"
  },
  {
   "linker_set_key" : "_ZZN3fmt2v76detail5writeIcNSt3__120back_insert_iteratorINS3_12basic_stringIcNS3_11char_traitsIcEENS3_9allocatorIcEEEEEEfLi0EEET0_SC_T1_E5specs",
   "name" : "specs",
   "referenced_type" : "_ZTIKN3fmt2v718basic_format_specsIcEE",
   "source_file" : "external/fmtlib/include/fmt/format.h"
  },
  {
   "linker_set_key" : "_ZZN3fmt2v76detail9bsr2log10EiE4data",
   "name" : "data",
   "referenced_type" : "_ZTIA64_Kt",
   "source_file" : "external/fmtlib/include/fmt/format.h"
  }
 ],
 "lvalue_reference_types" :
 [
  {
   "alignment" : 4,
   "linker_set_key" : "_ZTIRA3_Kc",
   "name" : "char const (&)[3]",
   "referenced_type" : "_ZTIA3_Kc",
   "self_type" : "_ZTIRA3_Kc",
   "size" : 4,
   "source_file" : "external/fmtlib/include/fmt/core.h"
  },
  {
   "alignment" : 4,
   "linker_set_key" : "_ZTIRA4_Kc",
   "name" : "char const (&)[4]",
   "referenced_type" : "_ZTIA4_Kc",
   "self_type" : "_ZTIRA4_Kc",
   "size" : 4,
   "source_file" : "external/fmtlib/include/fmt/core.h"
  },
  {
   "alignment" : 4,
   "linker_set_key" : "_ZTIRA5_Kc",
   "name" : "char const (&)[5]",
   "referenced_type" : "_ZTIA5_Kc",
   "self_type" : "_ZTIRA5_Kc",
   "size" : 4,
   "source_file" : "external/fmtlib/include/fmt/core.h"
  },
  {
   "alignment" : 4,
   "linker_set_key" : "_ZTIRA7_Kc",
   "name" : "char const (&)[7]",
   "referenced_type" : "_ZTIA7_Kc",
   "self_type" : "_ZTIRA7_Kc",
   "size" : 4,
   "source_file" : "external/fmtlib/include/fmt/core.h"
  },
  {
   "alignment" : 4,
   "linker_set_key" : "_ZTIRKDn",
   "name" : "const nullptr_t &",
   "referenced_type" : "_ZTIKDn",
   "self_type" : "_ZTIRKDn",
   "size" : 4,
   "source_file" : "system/libbase/include/android-base/logging.h"
  },
  {
   "alignment" : 4,
   "linker_set_key" : "_ZTIRKN3fmt2v712format_errorE",
   "name" : "const fmt::format_error &",
   "referenced_type" : "_ZTIKN3fmt2v712format_errorE",
   "self_type" : "_ZTIRKN3fmt2v712format_errorE",
   "size" : 4,
   "source_file" : "external/fmtlib/include/fmt/format.h"
  },
  {
   "alignment" : 4,
   "linker_set_key" : "_ZTIRKN3fmt2v712system_errorE",
   "name" : "const fmt::system_error &",
   "referenced_type" : "_ZTIKN3fmt2v712system_errorE",
   "self_type" : "_ZTIRKN3fmt2v712system_errorE",
   "size" : 4,
   "source_file" : "external/fmtlib/include/fmt/format.h"
  },
  {
   "alignment" : 4,
   "linker_set_key" : "_ZTIRKN3fmt2v716basic_format_argINS0_20basic_format_contextINS0_6detail15buffer_appenderIcEEcEEEE",
   "name" : "const fmt::basic_format_arg<fmt::basic_format_context<fmt::detail::buffer_appender<char>, char>> &",
   "referenced_type" : "_ZTIKN3fmt2v716basic_format_argINS0_20basic_format_contextINS0_6detail15buffer_appenderIcEEcEEEE",
   "self_type" : "_ZTIRKN3fmt2v716basic_format_argINS0_20basic_format_contextINS0_6detail15buffer_appenderIcEEcEEEE",
   "size" : 4,
   "source_file" : "external/fmtlib/include/fmt/core.h"
  },
  {
   "alignment" : 4,
   "linker_set_key" : "_ZTIRKN3fmt2v716basic_format_argINS0_20basic_format_contextINSt3__120back_insert_iteratorINS0_6detail6bufferIcEEEEcEEEE",
   "name" : "const fmt::basic_format_arg<fmt::basic_format_context<std::back_insert_iterator<fmt::detail::buffer<char>>, char>> &",
   "referenced_type" : "_ZTIKN3fmt2v716basic_format_argINS0_20basic_format_contextINSt3__120back_insert_iteratorINS0_6detail6bufferIcEEEEcEEEE",
   "self_type" : "_ZTIRKN3fmt2v716basic_format_argINS0_20basic_format_contextINSt3__120back_insert_iteratorINS0_6detail6bufferIcEEEEcEEEE",
   "size" : 4,
   "source_file" : "external/fmtlib/include/fmt/core.h"
  },
  {
   "alignment" : 4,
   "linker_set_key" : "_ZTIRKN3fmt2v716format_arg_storeINS0_20basic_format_contextINS0_6detail15buffer_appenderIcEEcEEJA7_KciEEE",
   "name" : "const fmt::format_arg_store<fmt::basic_format_context<fmt::detail::buffer_appender<char>, char>, char const[7], int> &",
   "referenced_type" : "_ZTIKN3fmt2v716format_arg_storeINS0_20basic_format_contextINS0_6detail15buffer_appenderIcEEcEEJA7_KciEEE",
   "self_type" : "_ZTIRKN3fmt2v716format_arg_storeINS0_20basic_format_contextINS0_6detail15buffer_appenderIcEEcEEJA7_KciEEE",
   "size" : 4,
   "source_file" : "external/fmtlib/include/fmt/core.h"
  },
  {
   "alignment" : 4,
   "linker_set_key" : "_ZTIRKN3fmt2v716format_arg_storeINS0_20basic_format_contextINS0_6detail15buffer_appenderIcEEcEEJNS0_17basic_string_viewIcEEA3_KcEEE",
   "name" : "const fmt::format_arg_store<fmt::basic_format_context<fmt::detail::buffer_appender<char>, char>, basic_string_view<char>, char const[3]> &",
   "referenced_type" : "_ZTIKN3fmt2v716format_arg_storeINS0_20basic_format_contextINS0_6detail15buffer_appenderIcEEcEEJNS0_17basic_string_viewIcEEA3_KcEEE",
   "self_type" : "_ZTIRKN3fmt2v716format_arg_storeINS0_20basic_format_contextINS0_6detail15buffer_appenderIcEEcEEJNS0_17basic_string_viewIcEEA3_KcEEE",
   "size" : 4,
   "source_file" : "external/fmtlib/include/fmt/core.h"
  },
  {
   "alignment" : 4,
   "linker_set_key" : "_ZTIRKN3fmt2v716format_arg_storeINS0_20basic_format_contextINS0_6detail15buffer_appenderIcEEcEEJNS0_17basic_string_viewIcEEPcEEE",
   "name" : "const fmt::format_arg_store<fmt::basic_format_context<fmt::detail::buffer_appender<char>, char>, basic_string_view<char>, char *> &",
   "referenced_type" : "_ZTIKN3fmt2v716format_arg_storeINS0_20basic_format_contextINS0_6detail15buffer_appenderIcEEcEEJNS0_17basic_string_viewIcEEPcEEE",
   "self_type" : "_ZTIRKN3fmt2v716format_arg_storeINS0_20basic_format_contextINS0_6detail15buffer_appenderIcEEcEEJNS0_17basic_string_viewIcEEPcEEE",
   "size" : 4,
   "source_file" : "external/fmtlib/include/fmt/core.h"
  },
  {
   "alignment" : 4,
   "linker_set_key" : "_ZTIRKN3fmt2v716format_arg_storeINS0_20basic_format_contextINS0_6detail15buffer_appenderIcEEcEEJiEEE",
   "name" : "const fmt::format_arg_store<fmt::basic_format_context<fmt::detail::buffer_appender<char>, char>, int> &",
   "referenced_type" : "_ZTIKN3fmt2v716format_arg_storeINS0_20basic_format_contextINS0_6detail15buffer_appenderIcEEcEEJiEEE",
   "self_type" : "_ZTIRKN3fmt2v716format_arg_storeINS0_20basic_format_contextINS0_6detail15buffer_appenderIcEEcEEJiEEE",
   "size" : 4,
   "source_file" : "external/fmtlib/include/fmt/core.h"
  },
  {
   "alignment" : 4,
   "linker_set_key" : "_ZTIRKN3fmt2v716format_arg_storeINS0_20basic_format_contextINS0_6detail15buffer_appenderIcEEcEEJjEEE",
   "name" : "const fmt::format_arg_store<fmt::basic_format_context<fmt::detail::buffer_appender<char>, char>, unsigned int> &",
   "referenced_type" : "_ZTIKN3fmt2v716format_arg_storeINS0_20basic_format_contextINS0_6detail15buffer_appenderIcEEcEEJjEEE",
   "self_type" : "_ZTIRKN3fmt2v716format_arg_storeINS0_20basic_format_contextINS0_6detail15buffer_appenderIcEEcEEJjEEE",
   "size" : 4,
   "source_file" : "external/fmtlib/include/fmt/core.h"
  },
  {
   "alignment" : 4,
   "linker_set_key" : "_ZTIRKN3fmt2v717basic_format_argsINS0_20basic_format_contextINS0_6detail15buffer_appenderIcEEcEEEE",
   "name" : "const fmt::basic_format_args<fmt::basic_format_context<fmt::detail::buffer_appender<char>, char>> &",
   "referenced_type" : "_ZTIKN3fmt2v717basic_format_argsINS0_20basic_format_contextINS0_6detail15buffer_appenderIcEEcEEEE",
   "self_type" : "_ZTIRKN3fmt2v717basic_format_argsINS0_20basic_format_contextINS0_6detail15buffer_appenderIcEEcEEEE",
   "size" : 4,
   "source_file" : "external/fmtlib/include/fmt/core.h"
  },
  {
   "alignment" : 4,
   "linker_set_key" : "_ZTIRKN3fmt2v717basic_format_argsINS0_20basic_format_contextINSt3__120back_insert_iteratorINS0_6detail6bufferIcEEEEcEEEE",
   "name" : "const fmt::basic_format_args<fmt::basic_format_context<std::back_insert_iterator<fmt::detail::buffer<char>>, char>> &",
   "referenced_type" : "_ZTIKN3fmt2v717basic_format_argsINS0_20basic_format_contextINSt3__120back_insert_iteratorINS0_6detail6bufferIcEEEEcEEEE",
   "self_type" : "_ZTIRKN3fmt2v717basic_format_argsINS0_20basic_format_contextINSt3__120back_insert_iteratorINS0_6detail6bufferIcEEEEcEEEE",
   "size" : 4,
   "source_file" : "external/fmtlib/include/fmt/core.h"
  },
  {
   "alignment" : 4,
   "linker_set_key" : "_ZTIRKN3fmt2v717basic_string_viewIcEE",
   "name" : "const fmt::basic_string_view<char> &",
   "referenced_type" : "_ZTIKN3fmt2v717basic_string_viewIcEE",
   "self_type" : "_ZTIRKN3fmt2v717basic_string_viewIcEE",
   "size" : 4,
   "source_file" : "external/fmtlib/include/fmt/core.h"
  },
  {
   "alignment" : 4,
   "linker_set_key" : "_ZTIRKN3fmt2v718basic_format_specsIcEE",
   "name" : "const fmt::basic_format_specs<char> &",
   "referenced_type" : "_ZTIKN3fmt2v718basic_format_specsIcEE",
   "self_type" : "_ZTIRKN3fmt2v718basic_format_specsIcEE",
   "size" : 4,
   "source_file" : "external/fmtlib/include/fmt/format.h"
  },
  {
   "alignment" : 4,
   "linker_set_key" : "_ZTIRKN3fmt2v719basic_memory_bufferIcLj500ENSt3__19allocatorIcEEEE",
   "name" : "const fmt::basic_memory_buffer<char, 500, std::allocator<char>> &",
   "referenced_type" : "_ZTIKN3fmt2v719basic_memory_bufferIcLj500ENSt3__19allocatorIcEEEE",
   "self_type" : "_ZTIRKN3fmt2v719basic_memory_bufferIcLj500ENSt3__19allocatorIcEEEE",
   "size" : 4,
   "source_file" : "external/fmtlib/include/fmt/format.h"
  },
  {
   "alignment" : 4,
   "linker_set_key" : "_ZTIRKN3fmt2v76detail11float_specsE",
   "name" : "const fmt::detail::float_specs &",
   "referenced_type" : "_ZTIKN3fmt2v76detail11float_specsE",
   "self_type" : "_ZTIRKN3fmt2v76detail11float_specsE",
   "size" : 4,
   "source_file" : "external/fmtlib/include/fmt/format.h"
  },
  {
   "alignment" : 4,
   "linker_set_key" : "_ZTIRKN3fmt2v76detail12specs_setterIcEE",
   "name" : "const fmt::detail::specs_setter<char> &",
   "referenced_type" : "_ZTIKN3fmt2v76detail12specs_setterIcEE",
   "self_type" : "_ZTIRKN3fmt2v76detail12specs_setterIcEE",
   "size" : 4,
   "source_file" : "external/fmtlib/include/fmt/format.h"
  },
  {
   "alignment" : 4,
   "linker_set_key" : "_ZTIRKN3fmt2v76detail13error_handlerE",
   "name" : "const fmt::detail::error_handler &",
   "referenced_type" : "_ZTIKN3fmt2v76detail13error_handlerE",
   "self_type" : "_ZTIRKN3fmt2v76detail13error_handlerE",
   "size" : 4,
   "source_file" : "external/fmtlib/include/fmt/core.h"
  },
  {
   "alignment" : 4,
   "linker_set_key" : "_ZTIRKN3fmt2v76detail13specs_handlerINS0_26basic_format_parse_contextIcNS1_13error_handlerEEENS0_20basic_format_contextINS1_15buffer_appenderIcEEcEEEE",
   "name" : "const fmt::detail::specs_handler<fmt::basic_format_parse_context<char, fmt::detail::error_handler>, fmt::basic_format_context<fmt::detail::buffer_appender<char>, char>> &",
   "referenced_type" : "_ZTIKN3fmt2v76detail13specs_handlerINS0_26basic_format_parse_contextIcNS1_13error_handlerEEENS0_20basic_format_contextINS1_15buffer_appenderIcEEcEEEE",
   "self_type" : "_ZTIRKN3fmt2v76detail13specs_handlerINS0_26basic_format_parse_contextIcNS1_13error_handlerEEENS0_20basic_format_contextINS1_15buffer_appenderIcEEcEEEE",
   "size" : 4,
   "source_file" : "external/fmtlib/include/fmt/format.h"
  },
  {
   "alignment" : 4,
   "linker_set_key" : "_ZTIRKN3fmt2v76detail13specs_handlerINS0_26basic_format_parse_contextIcNS1_13error_handlerEEENS0_20basic_format_contextINSt3__120back_insert_iteratorINS1_6bufferIcEEEEcEEEE",
   "name" : "const fmt::detail::specs_handler<fmt::basic_format_parse_context<char, fmt::detail::error_handler>, fmt::basic_format_context<std::back_insert_iterator<fmt::detail::buffer<char>>, char>> &",
   "referenced_type" : "_ZTIKN3fmt2v76detail13specs_handlerINS0_26basic_format_parse_contextIcNS1_13error_handlerEEENS0_20basic_format_contextINSt3__120back_insert_iteratorINS1_6bufferIcEEEEcEEEE",
   "self_type" : "_ZTIRKN3fmt2v76detail13specs_handlerINS0_26basic_format_parse_contextIcNS1_13error_handlerEEENS0_20basic_format_contextINSt3__120back_insert_iteratorINS1_6bufferIcEEEEcEEEE",
   "size" : 4,
   "source_file" : "external/fmtlib/include/fmt/format.h"
  },
  {
   "alignment" : 4,
   "linker_set_key" : "_ZTIRKN3fmt2v76detail14big_decimal_fpE",
   "name" : "const fmt::detail::big_decimal_fp &",
   "referenced_type" : "_ZTIKN3fmt2v76detail14big_decimal_fpE",
   "self_type" : "_ZTIRKN3fmt2v76detail14big_decimal_fpE",
   "size" : 4,
   "source_file" : "external/fmtlib/include/fmt/format.h"
  },
  {
   "alignment" : 4,
   "linker_set_key" : "_ZTIRKN3fmt2v76detail15uint128_wrapperE",
   "name" : "const fmt::detail::uint128_wrapper &",
   "referenced_type" : "_ZTIKN3fmt2v76detail15uint128_wrapperE",
   "self_type" : "_ZTIRKN3fmt2v76detail15uint128_wrapperE",
   "size" : 4,
   "source_file" : "external/fmtlib/include/fmt/format-inl.h"
  },
  {
   "alignment" : 4,
   "linker_set_key" : "_ZTIRKN3fmt2v76detail5valueINS0_20basic_format_contextINS1_15buffer_appenderIcEEcEEEE",
   "name" : "const fmt::detail::value<fmt::basic_format_context<fmt::detail::buffer_appender<char>, char>> &",
   "referenced_type" : "_ZTIKN3fmt2v76detail5valueINS0_20basic_format_contextINS1_15buffer_appenderIcEEcEEEE",
   "self_type" : "_ZTIRKN3fmt2v76detail5valueINS0_20basic_format_contextINS1_15buffer_appenderIcEEcEEEE",
   "size" : 4,
   "source_file" : "external/fmtlib/include/fmt/core.h"
  },
  {
   "alignment" : 4,
   "linker_set_key" : "_ZTIRKN3fmt2v76detail6bigintE",
   "name" : "const fmt::detail::bigint &",
   "referenced_type" : "_ZTIKN3fmt2v76detail6bigintE",
   "self_type" : "_ZTIRKN3fmt2v76detail6bigintE",
   "size" : 4,
   "source_file" : "external/fmtlib/include/fmt/format-inl.h"
  },
  {
   "alignment" : 4,
   "linker_set_key" : "_ZTIRKN3fmt2v76detail6fill_tIcEE",
   "name" : "const fmt::detail::fill_t<char> &",
   "referenced_type" : "_ZTIKN3fmt2v76detail6fill_tIcEE",
   "self_type" : "_ZTIRKN3fmt2v76detail6fill_tIcEE",
   "size" : 4,
   "source_file" : "external/fmtlib/include/fmt/format.h"
  },
  {
   "alignment" : 4,
   "linker_set_key" : "_ZTIRKN3fmt2v76detail9dragonbox10decimal_fpIdEE",
   "name" : "const fmt::detail::dragonbox::decimal_fp<double> &",
   "referenced_type" : "_ZTIKN3fmt2v76detail9dragonbox10decimal_fpIdEE",
   "self_type" : "_ZTIRKN3fmt2v76detail9dragonbox10decimal_fpIdEE",
   "size" : 4,
   "source_file" : "external/fmtlib/include/fmt/format.h"
  },
  {
   "alignment" : 4,
   "linker_set_key" : "_ZTIRKN3fmt2v76detail9dragonbox10decimal_fpIfEE",
   "name" : "const fmt::detail::dragonbox::decimal_fp<float> &",
   "referenced_type" : "_ZTIKN3fmt2v76detail9dragonbox10decimal_fpIfEE",
   "self_type" : "_ZTIRKN3fmt2v76detail9dragonbox10decimal_fpIfEE",
   "size" : 4,
   "source_file" : "external/fmtlib/include/fmt/format.h"
  },
  {
   "alignment" : 4,
   "linker_set_key" : "_ZTIRKN3fmt2v79monostateE",
   "name" : "const fmt::monostate &",
   "referenced_type" : "_ZTIKN3fmt2v79monostateE",
   "self_type" : "_ZTIRKN3fmt2v79monostateE",
   "size" : 4,
   "source_file" : "external/fmtlib/include/fmt/format.h"
  },
  {
   "alignment" : 4,
   "linker_set_key" : "_ZTIRKN7android4base14unique_fd_implINS0_13DefaultCloserEEE",
   "name" : "const android::base::unique_fd_impl<android::base::DefaultCloser> &",
   "referenced_type" : "_ZTIKN7android4base14unique_fd_implINS0_13DefaultCloserEEE",
   "self_type" : "_ZTIRKN7android4base14unique_fd_implINS0_13DefaultCloserEEE",
   "size" : 4,
   "source_file" : "system/libbase/include/android-base/unique_fd.h"
  },
  {
   "alignment" : 4,
   "linker_set_key" : "_ZTIRKN7android4base5TimerE",
   "name" : "const android::base::Timer &",
   "referenced_type" : "_ZTIKN7android4base5TimerE",
   "self_type" : "_ZTIRKN7android4base5TimerE",
   "size" : 4,
   "source_file" : "system/libbase/include/android-base/chrono_utils.h"
  },
  {
   "alignment" : 4,
   "linker_set_key" : "_ZTIRKN7android4base7AllPids11PidIteratorE",
   "name" : "const android::base::AllPids::PidIterator &",
   "referenced_type" : "_ZTIKN7android4base7AllPids11PidIteratorE",
   "self_type" : "_ZTIRKN7android4base7AllPids11PidIteratorE",
   "size" : 4,
   "source_file" : "system/libbase/include/android-base/process.h"
  },
  {
   "alignment" : 4,
   "linker_set_key" : "_ZTIRKNSt3__112basic_stringIcNS_11char_traitsIcEENS_9allocatorIcEEEE",
   "name" : "const std::basic_string<char, std::char_traits<char>, std::allocator<char>> &",
   "referenced_type" : "_ZTIKNSt3__112basic_stringIcNS_11char_traitsIcEENS_9allocatorIcEEEE",
   "self_type" : "_ZTIRKNSt3__112basic_stringIcNS_11char_traitsIcEENS_9allocatorIcEEEE",
   "size" : 4,
   "source_file" : "system/libbase/include/android-base/file.h"
  },
  {
   "alignment" : 4,
   "linker_set_key" : "_ZTIRKNSt3__16localeE",
   "name" : "const std::locale &",
   "referenced_type" : "_ZTIKNSt3__16localeE",
   "self_type" : "_ZTIRKNSt3__16localeE",
   "size" : 4,
   "source_file" : "external/fmtlib/include/fmt/format-inl.h"
  },
  {
   "alignment" : 4,
   "linker_set_key" : "_ZTIRKNSt3__16vectorINS_12basic_stringIcNS_11char_traitsIcEENS_9allocatorIcEEEENS4_IS6_EEEE",
   "name" : "const std::vector<std::basic_string<char, std::char_traits<char>, std::allocator<char>>, std::allocator<std::basic_string<char, std::char_traits<char>, std::allocator<char>>>> &",
   "referenced_type" : "_ZTIKNSt3__16vectorINS_12basic_stringIcNS_11char_traitsIcEENS_9allocatorIcEEEENS4_IS6_EEEE",
   "self_type" : "_ZTIRKNSt3__16vectorINS_12basic_stringIcNS_11char_traitsIcEENS_9allocatorIcEEEENS4_IS6_EEEE",
   "size" : 4,
   "source_file" : "system/libbase/include/android-base/strings.h"
  },
  {
   "alignment" : 4,
   "linker_set_key" : "_ZTIRKNSt3__16vectorIPKcNS_9allocatorIS2_EEEE",
   "name" : "const std::vector<const char *, std::allocator<const char *>> &",
   "referenced_type" : "_ZTIKNSt3__16vectorIPKcNS_9allocatorIS2_EEEE",
   "self_type" : "_ZTIRKNSt3__16vectorIPKcNS_9allocatorIS2_EEEE",
   "size" : 4,
   "source_file" : "system/libbase/include/android-base/strings.h"
  },
  {
   "alignment" : 4,
   "linker_set_key" : "_ZTIRKNSt3__16vectorIiNS_9allocatorIiEEEE",
   "name" : "const std::vector<int, std::allocator<int>> &",
   "referenced_type" : "_ZTIKNSt3__16vectorIiNS_9allocatorIiEEEE",
   "self_type" : "_ZTIRKNSt3__16vectorIiNS_9allocatorIiEEEE",
   "size" : 4,
   "source_file" : "system/libbase/include/android-base/cmsg.h"
  },
  {
   "alignment" : 4,
   "linker_set_key" : "_ZTIRKNSt3__19allocatorIcEE",
   "name" : "const std::allocator<char> &",
   "referenced_type" : "_ZTIKNSt3__19allocatorIcEE",
   "self_type" : "_ZTIRKNSt3__19allocatorIcEE",
   "size" : 4,
   "source_file" : "external/fmtlib/include/fmt/format.h"
  },
  {
   "alignment" : 4,
   "linker_set_key" : "_ZTIRKNSt3__19allocatorIjEE",
   "name" : "const std::allocator<unsigned int> &",
   "referenced_type" : "_ZTIKNSt3__19allocatorIjEE",
   "self_type" : "_ZTIRKNSt3__19allocatorIjEE",
   "size" : 4,
   "source_file" : "external/fmtlib/include/fmt/format.h"
  },
  {
   "alignment" : 4,
   "linker_set_key" : "_ZTIRKNSt3__19allocatorIwEE",
   "name" : "const std::allocator<wchar_t> &",
   "referenced_type" : "_ZTIKNSt3__19allocatorIwEE",
   "self_type" : "_ZTIRKNSt3__19allocatorIwEE",
   "size" : 4,
   "source_file" : "external/fmtlib/include/fmt/format.h"
  },
  {
   "alignment" : 4,
   "linker_set_key" : "_ZTIRKPKc",
   "name" : "const char *const &",
   "referenced_type" : "_ZTIKPKc",
   "self_type" : "_ZTIRKPKc",
   "size" : 4,
   "source_file" : "external/fmtlib/include/fmt/core.h"
  },
  {
   "alignment" : 4,
   "linker_set_key" : "_ZTIRKPKv",
   "name" : "const void *const &",
   "referenced_type" : "_ZTIKPKv",
   "self_type" : "_ZTIRKPKv",
   "size" : 4,
   "source_file" : "external/fmtlib/include/fmt/format.h"
  },
  {
   "alignment" : 4,
   "linker_set_key" : "_ZTIRKPc",
   "name" : "char *const &",
   "referenced_type" : "_ZTIKPc",
   "self_type" : "_ZTIRKPc",
   "size" : 4,
   "source_file" : "external/fmtlib/include/fmt/core.h"
  },
  {
   "alignment" : 4,
   "linker_set_key" : "_ZTIRKc",
   "name" : "const char &",
   "referenced_type" : "_ZTIKc",
   "self_type" : "_ZTIRKc",
   "size" : 4,
   "source_file" : "external/fmtlib/include/fmt/core.h"
  },
  {
   "alignment" : 4,
   "linker_set_key" : "_ZTIRKd",
   "name" : "const double &",
   "referenced_type" : "_ZTIKd",
   "self_type" : "_ZTIRKd",
   "size" : 4,
   "source_file" : "external/fmtlib/include/fmt/format.h"
  },
  {
   "alignment" : 4,
   "linker_set_key" : "_ZTIRKe",
   "name" : "const long double &",
   "referenced_type" : "_ZTIKe",
   "self_type" : "_ZTIRKe",
   "size" : 4,
   "source_file" : "external/fmtlib/include/fmt/format.h"
  },
  {
   "alignment" : 4,
   "linker_set_key" : "_ZTIRKf",
   "name" : "const float &",
   "referenced_type" : "_ZTIKf",
   "self_type" : "_ZTIRKf",
   "size" : 4,
   "source_file" : "external/fmtlib/include/fmt/format.h"
  },
  {
   "alignment" : 4,
   "linker_set_key" : "_ZTIRKi",
   "name" : "const int &",
   "referenced_type" : "_ZTIKi",
   "self_type" : "_ZTIRKi",
   "size" : 4,
   "source_file" : "system/libbase/include/android-base/logging.h"
  },
  {
   "alignment" : 4,
   "linker_set_key" : "_ZTIRKj",
   "name" : "const unsigned int &",
   "referenced_type" : "_ZTIKj",
   "self_type" : "_ZTIRKj",
   "size" : 4,
   "source_file" : "external/fmtlib/include/fmt/core.h"
  },
  {
   "alignment" : 4,
   "linker_set_key" : "_ZTIRKw",
   "name" : "const wchar_t &",
   "referenced_type" : "_ZTIKw",
   "self_type" : "_ZTIRKw",
   "size" : 4,
   "source_file" : "external/fmtlib/include/fmt/core.h"
  },
  {
   "alignment" : 4,
   "linker_set_key" : "_ZTIRKx",
   "name" : "const long long &",
   "referenced_type" : "_ZTIKx",
   "self_type" : "_ZTIRKx",
   "size" : 4,
   "source_file" : "system/libbase/include/android-base/logging.h"
  },
  {
   "alignment" : 4,
   "linker_set_key" : "_ZTIRKy",
   "name" : "const unsigned long long &",
   "referenced_type" : "_ZTIKy",
   "self_type" : "_ZTIRKy",
   "size" : 4,
   "source_file" : "external/fmtlib/include/fmt/format-inl.h"
  },
  {
   "alignment" : 4,
   "linker_set_key" : "_ZTIRN3fmt2v712format_errorE",
   "name" : "fmt::format_error &",
   "referenced_type" : "_ZTIN3fmt2v712format_errorE",
   "self_type" : "_ZTIRN3fmt2v712format_errorE",
   "size" : 4,
   "source_file" : "external/fmtlib/include/fmt/format.h"
  },
  {
   "alignment" : 4,
   "linker_set_key" : "_ZTIRN3fmt2v712system_errorE",
   "name" : "fmt::system_error &",
   "referenced_type" : "_ZTIN3fmt2v712system_errorE",
   "self_type" : "_ZTIRN3fmt2v712system_errorE",
   "size" : 4,
   "source_file" : "external/fmtlib/include/fmt/format.h"
  },
  {
   "alignment" : 4,
   "linker_set_key" : "_ZTIRN3fmt2v717basic_string_viewIcEE",
   "name" : "fmt::basic_string_view<char> &",
   "referenced_type" : "_ZTIN3fmt2v717basic_string_viewIcEE",
   "self_type" : "_ZTIRN3fmt2v717basic_string_viewIcEE",
   "size" : 4,
   "source_file" : "external/fmtlib/include/fmt/core.h"
  },
  {
   "alignment" : 4,
   "linker_set_key" : "_ZTIRN3fmt2v718basic_format_specsIcEE",
   "name" : "fmt::basic_format_specs<char> &",
   "referenced_type" : "_ZTIN3fmt2v718basic_format_specsIcEE",
   "self_type" : "_ZTIRN3fmt2v718basic_format_specsIcEE",
   "size" : 4,
   "source_file" : "external/fmtlib/include/fmt/format.h"
  },
  {
   "alignment" : 4,
   "linker_set_key" : "_ZTIRN3fmt2v719basic_memory_bufferIjLj32ENSt3__19allocatorIjEEEE",
   "name" : "fmt::basic_memory_buffer<unsigned int, 32, std::allocator<unsigned int>> &",
   "referenced_type" : "_ZTIN3fmt2v719basic_memory_bufferIjLj32ENSt3__19allocatorIjEEEE",
   "self_type" : "_ZTIRN3fmt2v719basic_memory_bufferIjLj32ENSt3__19allocatorIjEEEE",
   "size" : 4,
   "source_file" : "external/fmtlib/include/fmt/format.h"
  },
  {
   "alignment" : 4,
   "linker_set_key" : "_ZTIRN3fmt2v720basic_format_contextINS0_6detail15buffer_appenderIcEEcEE",
   "name" : "fmt::basic_format_context<fmt::detail::buffer_appender<char>, char> &",
   "referenced_type" : "_ZTIN3fmt2v720basic_format_contextINS0_6detail15buffer_appenderIcEEcEE",
   "self_type" : "_ZTIRN3fmt2v720basic_format_contextINS0_6detail15buffer_appenderIcEEcEE",
   "size" : 4,
   "source_file" : "external/fmtlib/include/fmt/core.h"
  },
  {
   "alignment" : 4,
   "linker_set_key" : "_ZTIRN3fmt2v720basic_format_contextINSt3__120back_insert_iteratorINS0_6detail6bufferIcEEEEcEE",
   "name" : "fmt::basic_format_context<std::back_insert_iterator<fmt::detail::buffer<char>>, char> &",
   "referenced_type" : "_ZTIN3fmt2v720basic_format_contextINSt3__120back_insert_iteratorINS0_6detail6bufferIcEEEEcEE",
   "self_type" : "_ZTIRN3fmt2v720basic_format_contextINSt3__120back_insert_iteratorINS0_6detail6bufferIcEEEEcEE",
   "size" : 4,
   "source_file" : "external/fmtlib/include/fmt/core.h"
  },
  {
   "alignment" : 4,
   "linker_set_key" : "_ZTIRN3fmt2v726basic_format_parse_contextIcNS0_6detail13error_handlerEEE",
   "name" : "fmt::basic_format_parse_context<char, fmt::detail::error_handler> &",
   "referenced_type" : "_ZTIN3fmt2v726basic_format_parse_contextIcNS0_6detail13error_handlerEEE",
   "self_type" : "_ZTIRN3fmt2v726basic_format_parse_contextIcNS0_6detail13error_handlerEEE",
   "size" : 4,
   "source_file" : "external/fmtlib/include/fmt/core.h"
  },
  {
   "alignment" : 4,
   "linker_set_key" : "_ZTIRN3fmt2v76detail10id_adapterIRNS1_14format_handlerINS1_15buffer_appenderIcEEcNS0_20basic_format_contextIS5_cEEEEcEE",
   "name" : "fmt::detail::id_adapter<fmt::detail::format_handler<fmt::detail::buffer_appender<char>, char, fmt::basic_format_context<fmt::detail::buffer_appender<char>, char>> &, char> &",
   "referenced_type" : "_ZTIN3fmt2v76detail10id_adapterIRNS1_14format_handlerINS1_15buffer_appenderIcEEcNS0_20basic_format_contextIS5_cEEEEcEE",
   "self_type" : "_ZTIRN3fmt2v76detail10id_adapterIRNS1_14format_handlerINS1_15buffer_appenderIcEEcNS0_20basic_format_contextIS5_cEEEEcEE",
   "size" : 4,
   "source_file" : "external/fmtlib/include/fmt/format.h"
  },
  {
   "alignment" : 4,
   "linker_set_key" : "_ZTIRN3fmt2v76detail10id_adapterIRNS1_14format_handlerINSt3__120back_insert_iteratorINS1_6bufferIcEEEEcNS0_20basic_format_contextIS8_cEEEEcEE",
   "name" : "fmt::detail::id_adapter<fmt::detail::format_handler<std::back_insert_iterator<fmt::detail::buffer<char>>, char, fmt::basic_format_context<std::back_insert_iterator<fmt::detail::buffer<char>>, char>> &, char> &",
   "referenced_type" : "_ZTIN3fmt2v76detail10id_adapterIRNS1_14format_handlerINSt3__120back_insert_iteratorINS1_6bufferIcEEEEcNS0_20basic_format_contextIS8_cEEEEcEE",
   "self_type" : "_ZTIRN3fmt2v76detail10id_adapterIRNS1_14format_handlerINSt3__120back_insert_iteratorINS1_6bufferIcEEEEcNS0_20basic_format_contextIS8_cEEEEcEE",
   "size" : 4,
   "source_file" : "external/fmtlib/include/fmt/format.h"
  },
  {
   "alignment" : 4,
   "linker_set_key" : "_ZTIRN3fmt2v76detail10int_writerINS1_15buffer_appenderIcEEcjEE",
   "name" : "fmt::detail::int_writer<fmt::detail::buffer_appender<char>, char, unsigned int> &",
   "referenced_type" : "_ZTIN3fmt2v76detail10int_writerINS1_15buffer_appenderIcEEcjEE",
   "self_type" : "_ZTIRN3fmt2v76detail10int_writerINS1_15buffer_appenderIcEEcjEE",
   "size" : 4,
   "source_file" : "external/fmtlib/include/fmt/format.h"
  },
  {
   "alignment" : 4,
   "linker_set_key" : "_ZTIRN3fmt2v76detail10int_writerINS1_15buffer_appenderIcEEcyEE",
   "name" : "fmt::detail::int_writer<fmt::detail::buffer_appender<char>, char, unsigned long long> &",
   "referenced_type" : "_ZTIN3fmt2v76detail10int_writerINS1_15buffer_appenderIcEEcyEE",
   "self_type" : "_ZTIRN3fmt2v76detail10int_writerINS1_15buffer_appenderIcEEcyEE",
   "size" : 4,
   "source_file" : "external/fmtlib/include/fmt/format.h"
  },
  {
   "alignment" : 4,
   "linker_set_key" : "_ZTIRN3fmt2v76detail10int_writerINSt3__120back_insert_iteratorINS1_6bufferIcEEEEcjEE",
   "name" : "fmt::detail::int_writer<std::back_insert_iterator<fmt::detail::buffer<char>>, char, unsigned int> &",
   "referenced_type" : "_ZTIN3fmt2v76detail10int_writerINSt3__120back_insert_iteratorINS1_6bufferIcEEEEcjEE",
   "self_type" : "_ZTIRN3fmt2v76detail10int_writerINSt3__120back_insert_iteratorINS1_6bufferIcEEEEcjEE",
   "size" : 4,
   "source_file" : "external/fmtlib/include/fmt/format.h"
  },
  {
   "alignment" : 4,
   "linker_set_key" : "_ZTIRN3fmt2v76detail10int_writerINSt3__120back_insert_iteratorINS1_6bufferIcEEEEcyEE",
   "name" : "fmt::detail::int_writer<std::back_insert_iterator<fmt::detail::buffer<char>>, char, unsigned long long> &",
   "referenced_type" : "_ZTIN3fmt2v76detail10int_writerINSt3__120back_insert_iteratorINS1_6bufferIcEEEEcyEE",
   "self_type" : "_ZTIRN3fmt2v76detail10int_writerINSt3__120back_insert_iteratorINS1_6bufferIcEEEEcyEE",
   "size" : 4,
   "source_file" : "external/fmtlib/include/fmt/format.h"
  },
  {
   "alignment" : 4,
   "linker_set_key" : "_ZTIRN3fmt2v76detail13error_handlerE",
   "name" : "fmt::detail::error_handler &",
   "referenced_type" : "_ZTIN3fmt2v76detail13error_handlerE",
   "self_type" : "_ZTIRN3fmt2v76detail13error_handlerE",
   "size" : 4,
   "source_file" : "external/fmtlib/include/fmt/format.h"
  },
  {
   "alignment" : 4,
   "linker_set_key" : "_ZTIRN3fmt2v76detail13fixed_handlerE",
   "name" : "fmt::detail::fixed_handler &",
   "referenced_type" : "_ZTIN3fmt2v76detail13fixed_handlerE",
   "self_type" : "_ZTIRN3fmt2v76detail13fixed_handlerE",
   "size" : 4,
   "source_file" : "external/fmtlib/include/fmt/format-inl.h"
  },
  {
   "alignment" : 4,
   "linker_set_key" : "_ZTIRN3fmt2v76detail13specs_checkerINS1_13specs_handlerINS0_26basic_format_parse_contextIcNS1_13error_handlerEEENS0_20basic_format_contextINS1_15buffer_appenderIcEEcEEEEEE",
   "name" : "fmt::detail::specs_checker<fmt::detail::specs_handler<fmt::basic_format_parse_context<char, fmt::detail::error_handler>, fmt::basic_format_context<fmt::detail::buffer_appender<char>, char>>> &",
   "referenced_type" : "_ZTIN3fmt2v76detail13specs_checkerINS1_13specs_handlerINS0_26basic_format_parse_contextIcNS1_13error_handlerEEENS0_20basic_format_contextINS1_15buffer_appenderIcEEcEEEEEE",
   "self_type" : "_ZTIRN3fmt2v76detail13specs_checkerINS1_13specs_handlerINS0_26basic_format_parse_contextIcNS1_13error_handlerEEENS0_20basic_format_contextINS1_15buffer_appenderIcEEcEEEEEE",
   "size" : 4,
   "source_file" : "external/fmtlib/include/fmt/format.h"
  },
  {
   "alignment" : 4,
   "linker_set_key" : "_ZTIRN3fmt2v76detail13specs_checkerINS1_13specs_handlerINS0_26basic_format_parse_contextIcNS1_13error_handlerEEENS0_20basic_format_contextINSt3__120back_insert_iteratorINS1_6bufferIcEEEEcEEEEEE",
   "name" : "fmt::detail::specs_checker<fmt::detail::specs_handler<fmt::basic_format_parse_context<char, fmt::detail::error_handler>, fmt::basic_format_context<std::back_insert_iterator<fmt::detail::buffer<char>>, char>>> &",
   "referenced_type" : "_ZTIN3fmt2v76detail13specs_checkerINS1_13specs_handlerINS0_26basic_format_parse_contextIcNS1_13error_handlerEEENS0_20basic_format_contextINSt3__120back_insert_iteratorINS1_6bufferIcEEEEcEEEEEE",
   "self_type" : "_ZTIRN3fmt2v76detail13specs_checkerINS1_13specs_handlerINS0_26basic_format_parse_contextIcNS1_13error_handlerEEENS0_20basic_format_contextINSt3__120back_insert_iteratorINS1_6bufferIcEEEEcEEEEEE",
   "size" : 4,
   "source_file" : "external/fmtlib/include/fmt/format.h"
  },
  {
   "alignment" : 4,
   "linker_set_key" : "_ZTIRN3fmt2v76detail13specs_handlerINS0_26basic_format_parse_contextIcNS1_13error_handlerEEENS0_20basic_format_contextINS1_15buffer_appenderIcEEcEEEE",
   "name" : "fmt::detail::specs_handler<fmt::basic_format_parse_context<char, fmt::detail::error_handler>, fmt::basic_format_context<fmt::detail::buffer_appender<char>, char>> &",
   "referenced_type" : "_ZTIN3fmt2v76detail13specs_handlerINS0_26basic_format_parse_contextIcNS1_13error_handlerEEENS0_20basic_format_contextINS1_15buffer_appenderIcEEcEEEE",
   "self_type" : "_ZTIRN3fmt2v76detail13specs_handlerINS0_26basic_format_parse_contextIcNS1_13error_handlerEEENS0_20basic_format_contextINS1_15buffer_appenderIcEEcEEEE",
   "size" : 4,
   "source_file" : "external/fmtlib/include/fmt/format.h"
  },
  {
   "alignment" : 4,
   "linker_set_key" : "_ZTIRN3fmt2v76detail13specs_handlerINS0_26basic_format_parse_contextIcNS1_13error_handlerEEENS0_20basic_format_contextINSt3__120back_insert_iteratorINS1_6bufferIcEEEEcEEEE",
   "name" : "fmt::detail::specs_handler<fmt::basic_format_parse_context<char, fmt::detail::error_handler>, fmt::basic_format_context<std::back_insert_iterator<fmt::detail::buffer<char>>, char>> &",
   "referenced_type" : "_ZTIN3fmt2v76detail13specs_handlerINS0_26basic_format_parse_contextIcNS1_13error_handlerEEENS0_20basic_format_contextINSt3__120back_insert_iteratorINS1_6bufferIcEEEEcEEEE",
   "self_type" : "_ZTIRN3fmt2v76detail13specs_handlerINS0_26basic_format_parse_contextIcNS1_13error_handlerEEENS0_20basic_format_contextINSt3__120back_insert_iteratorINS1_6bufferIcEEEEcEEEE",
   "size" : 4,
   "source_file" : "external/fmtlib/include/fmt/format.h"
  },
  {
   "alignment" : 4,
   "linker_set_key" : "_ZTIRN3fmt2v76detail13width_adapterIRNS1_13specs_checkerINS1_13specs_handlerINS0_26basic_format_parse_contextIcNS1_13error_handlerEEENS0_20basic_format_contextINS1_15buffer_appenderIcEEcEEEEEEcEE",
   "name" : "fmt::detail::width_adapter<fmt::detail::specs_checker<fmt::detail::specs_handler<fmt::basic_format_parse_context<char, fmt::detail::error_handler>, fmt::basic_format_context<fmt::detail::buffer_appender<char>, char>>> &, char> &",
   "referenced_type" : "_ZTIN3fmt2v76detail13width_adapterIRNS1_13specs_checkerINS1_13specs_handlerINS0_26basic_format_parse_contextIcNS1_13error_handlerEEENS0_20basic_format_contextINS1_15buffer_appenderIcEEcEEEEEEcEE",
   "self_type" : "_ZTIRN3fmt2v76detail13width_adapterIRNS1_13specs_checkerINS1_13specs_handlerINS0_26basic_format_parse_contextIcNS1_13error_handlerEEENS0_20basic_format_contextINS1_15buffer_appenderIcEEcEEEEEEcEE",
   "size" : 4,
   "source_file" : "external/fmtlib/include/fmt/format.h"
  },
  {
   "alignment" : 4,
   "linker_set_key" : "_ZTIRN3fmt2v76detail13width_adapterIRNS1_13specs_checkerINS1_13specs_handlerINS0_26basic_format_parse_contextIcNS1_13error_handlerEEENS0_20basic_format_contextINSt3__120back_insert_iteratorINS1_6bufferIcEEEEcEEEEEEcEE",
   "name" : "fmt::detail::width_adapter<fmt::detail::specs_checker<fmt::detail::specs_handler<fmt::basic_format_parse_context<char, fmt::detail::error_handler>, fmt::basic_format_context<std::back_insert_iterator<fmt::detail::buffer<char>>, char>>> &, char> &",
   "referenced_type" : "_ZTIN3fmt2v76detail13width_adapterIRNS1_13specs_checkerINS1_13specs_handlerINS0_26basic_format_parse_contextIcNS1_13error_handlerEEENS0_20basic_format_contextINSt3__120back_insert_iteratorINS1_6bufferIcEEEEcEEEEEEcEE",
   "self_type" : "_ZTIRN3fmt2v76detail13width_adapterIRNS1_13specs_checkerINS1_13specs_handlerINS0_26basic_format_parse_contextIcNS1_13error_handlerEEENS0_20basic_format_contextINSt3__120back_insert_iteratorINS1_6bufferIcEEEEcEEEEEEcEE",
   "size" : 4,
   "source_file" : "external/fmtlib/include/fmt/format.h"
  },
  {
   "alignment" : 4,
   "linker_set_key" : "_ZTIRN3fmt2v76detail14format_handlerINS1_15buffer_appenderIcEEcNS0_20basic_format_contextIS4_cEEEE",
   "name" : "fmt::detail::format_handler<fmt::detail::buffer_appender<char>, char, fmt::basic_format_context<fmt::detail::buffer_appender<char>, char>> &",
   "referenced_type" : "_ZTIN3fmt2v76detail14format_handlerINS1_15buffer_appenderIcEEcNS0_20basic_format_contextIS4_cEEEE",
   "self_type" : "_ZTIRN3fmt2v76detail14format_handlerINS1_15buffer_appenderIcEEcNS0_20basic_format_contextIS4_cEEEE",
   "size" : 4,
   "source_file" : "external/fmtlib/include/fmt/format.h"
  },
  {
   "alignment" : 4,
   "linker_set_key" : "_ZTIRN3fmt2v76detail14format_handlerINSt3__120back_insert_iteratorINS1_6bufferIcEEEEcNS0_20basic_format_contextIS7_cEEEE",
   "name" : "fmt::detail::format_handler<std::back_insert_iterator<fmt::detail::buffer<char>>, char, fmt::basic_format_context<std::back_insert_iterator<fmt::detail::buffer<char>>, char>> &",
   "referenced_type" : "_ZTIN3fmt2v76detail14format_handlerINSt3__120back_insert_iteratorINS1_6bufferIcEEEEcNS0_20basic_format_contextIS7_cEEEE",
   "self_type" : "_ZTIRN3fmt2v76detail14format_handlerINSt3__120back_insert_iteratorINS1_6bufferIcEEEEcNS0_20basic_format_contextIS7_cEEEE",
   "size" : 4,
   "source_file" : "external/fmtlib/include/fmt/format.h"
  },
  {
   "alignment" : 4,
   "linker_set_key" : "_ZTIRN3fmt2v76detail15buffer_appenderIcEE",
   "name" : "fmt::detail::buffer_appender<char> &",
   "referenced_type" : "_ZTIN3fmt2v76detail15buffer_appenderIcEE",
   "self_type" : "_ZTIRN3fmt2v76detail15buffer_appenderIcEE",
   "size" : 4,
   "source_file" : "external/fmtlib/include/fmt/core.h"
  },
  {
   "alignment" : 4,
   "linker_set_key" : "_ZTIRN3fmt2v76detail15uint128_wrapperE",
   "name" : "fmt::detail::uint128_wrapper &",
   "referenced_type" : "_ZTIN3fmt2v76detail15uint128_wrapperE",
   "self_type" : "_ZTIRN3fmt2v76detail15uint128_wrapperE",
   "size" : 4,
   "source_file" : "external/fmtlib/include/fmt/format.h"
  },
  {
   "alignment" : 4,
   "linker_set_key" : "_ZTIRN3fmt2v76detail17counting_iteratorE",
   "name" : "fmt::detail::counting_iterator &",
   "referenced_type" : "_ZTIN3fmt2v76detail17counting_iteratorE",
   "self_type" : "_ZTIRN3fmt2v76detail17counting_iteratorE",
   "size" : 4,
   "source_file" : "external/fmtlib/include/fmt/format.h"
  },
  {
   "alignment" : 4,
   "linker_set_key" : "_ZTIRN3fmt2v76detail17precision_adapterIRNS1_13specs_checkerINS1_13specs_handlerINS0_26basic_format_parse_contextIcNS1_13error_handlerEEENS0_20basic_format_contextINS1_15buffer_appenderIcEEcEEEEEEcEE",
   "name" : "fmt::detail::precision_adapter<fmt::detail::specs_checker<fmt::detail::specs_handler<fmt::basic_format_parse_context<char, fmt::detail::error_handler>, fmt::basic_format_context<fmt::detail::buffer_appender<char>, char>>> &, char> &",
   "referenced_type" : "_ZTIN3fmt2v76detail17precision_adapterIRNS1_13specs_checkerINS1_13specs_handlerINS0_26basic_format_parse_contextIcNS1_13error_handlerEEENS0_20basic_format_contextINS1_15buffer_appenderIcEEcEEEEEEcEE",
   "self_type" : "_ZTIRN3fmt2v76detail17precision_adapterIRNS1_13specs_checkerINS1_13specs_handlerINS0_26basic_format_parse_contextIcNS1_13error_handlerEEENS0_20basic_format_contextINS1_15buffer_appenderIcEEcEEEEEEcEE",
   "size" : 4,
   "source_file" : "external/fmtlib/include/fmt/format.h"
  },
  {
   "alignment" : 4,
   "linker_set_key" : "_ZTIRN3fmt2v76detail17precision_adapterIRNS1_13specs_checkerINS1_13specs_handlerINS0_26basic_format_parse_contextIcNS1_13error_handlerEEENS0_20basic_format_contextINSt3__120back_insert_iteratorINS1_6bufferIcEEEEcEEEEEEcEE",
   "name" : "fmt::detail::precision_adapter<fmt::detail::specs_checker<fmt::detail::specs_handler<fmt::basic_format_parse_context<char, fmt::detail::error_handler>, fmt::basic_format_context<std::back_insert_iterator<fmt::detail::buffer<char>>, char>>> &, char> &",
   "referenced_type" : "_ZTIN3fmt2v76detail17precision_adapterIRNS1_13specs_checkerINS1_13specs_handlerINS0_26basic_format_parse_contextIcNS1_13error_handlerEEENS0_20basic_format_contextINSt3__120back_insert_iteratorINS1_6bufferIcEEEEcEEEEEEcEE",
   "self_type" : "_ZTIRN3fmt2v76detail17precision_adapterIRNS1_13specs_checkerINS1_13specs_handlerINS0_26basic_format_parse_contextIcNS1_13error_handlerEEENS0_20basic_format_contextINSt3__120back_insert_iteratorINS1_6bufferIcEEEEcEEEEEEcEE",
   "size" : 4,
   "source_file" : "external/fmtlib/include/fmt/format.h"
  },
  {
   "alignment" : 4,
   "linker_set_key" : "_ZTIRN3fmt2v76detail18arg_formatter_baseINS1_15buffer_appenderIcEEcNS1_13error_handlerEEE",
   "name" : "fmt::detail::arg_formatter_base<fmt::detail::buffer_appender<char>, char, fmt::detail::error_handler> &",
   "referenced_type" : "_ZTIN3fmt2v76detail18arg_formatter_baseINS1_15buffer_appenderIcEEcNS1_13error_handlerEEE",
   "self_type" : "_ZTIRN3fmt2v76detail18arg_formatter_baseINS1_15buffer_appenderIcEEcNS1_13error_handlerEEE",
   "size" : 4,
   "source_file" : "external/fmtlib/include/fmt/format.h"
  },
  {
   "alignment" : 4,
   "linker_set_key" : "_ZTIRN3fmt2v76detail18arg_formatter_baseINSt3__120back_insert_iteratorINS1_6bufferIcEEEEcNS1_13error_handlerEEE",
   "name" : "fmt::detail::arg_formatter_base<std::back_insert_iterator<fmt::detail::buffer<char>>, char, fmt::detail::error_handler> &",
   "referenced_type" : "_ZTIN3fmt2v76detail18arg_formatter_baseINSt3__120back_insert_iteratorINS1_6bufferIcEEEEcNS1_13error_handlerEEE",
   "self_type" : "_ZTIRN3fmt2v76detail18arg_formatter_baseINSt3__120back_insert_iteratorINS1_6bufferIcEEEEcNS1_13error_handlerEEE",
   "size" : 4,
   "source_file" : "external/fmtlib/include/fmt/format.h"
  },
  {
   "alignment" : 4,
   "linker_set_key" : "_ZTIRN3fmt2v76detail6bigintE",
   "name" : "fmt::detail::bigint &",
   "referenced_type" : "_ZTIN3fmt2v76detail6bigintE",
   "self_type" : "_ZTIRN3fmt2v76detail6bigintE",
   "size" : 4,
   "source_file" : "external/fmtlib/include/fmt/format-inl.h"
  },
  {
   "alignment" : 4,
   "linker_set_key" : "_ZTIRN3fmt2v76detail6bufferIcEE",
   "name" : "fmt::detail::buffer<char> &",
   "referenced_type" : "_ZTIN3fmt2v76detail6bufferIcEE",
   "self_type" : "_ZTIRN3fmt2v76detail6bufferIcEE",
   "size" : 4,
   "source_file" : "external/fmtlib/include/fmt/core.h"
  },
  {
   "alignment" : 4,
   "linker_set_key" : "_ZTIRN7android4base10MappedFileE",
   "name" : "android::base::MappedFile &",
   "referenced_type" : "_ZTIN7android4base10MappedFileE",
   "self_type" : "_ZTIRN7android4base10MappedFileE",
   "size" : 4,
   "source_file" : "system/libbase/include/android-base/mapped_file.h"
  },
  {
   "alignment" : 4,
   "linker_set_key" : "_ZTIRN7android4base7AllPids11PidIteratorE",
   "name" : "android::base::AllPids::PidIterator &",
   "referenced_type" : "_ZTIN7android4base7AllPids11PidIteratorE",
   "self_type" : "_ZTIRN7android4base7AllPids11PidIteratorE",
   "size" : 4,
   "source_file" : "system/libbase/include/android-base/process.h"
  },
  {
   "alignment" : 4,
   "linker_set_key" : "_ZTIRNSt3__112basic_stringIcNS_11char_traitsIcEENS_9allocatorIcEEEE",
   "name" : "std::basic_string<char, std::char_traits<char>, std::allocator<char>> &",
   "referenced_type" : "_ZTINSt3__112basic_stringIcNS_11char_traitsIcEENS_9allocatorIcEEEE",
   "self_type" : "_ZTIRNSt3__112basic_stringIcNS_11char_traitsIcEENS_9allocatorIcEEEE",
   "size" : 4,
   "source_file" : "external/fmtlib/include/fmt/core.h"
  },
  {
   "alignment" : 4,
   "linker_set_key" : "_ZTIRNSt3__113basic_ostreamIcNS_11char_traitsIcEEEE",
   "name" : "std::basic_ostream<char, std::char_traits<char>> &",
   "referenced_type" : "_ZTINSt3__113basic_ostreamIcNS_11char_traitsIcEEEE",
   "self_type" : "_ZTIRNSt3__113basic_ostreamIcNS_11char_traitsIcEEEE",
   "size" : 4,
   "source_file" : "system/libbase/include/android-base/chrono_utils.h"
  },
  {
   "alignment" : 4,
   "linker_set_key" : "_ZTIRNSt3__120back_insert_iteratorIN3fmt2v76detail6bufferIcEEEE",
   "name" : "std::back_insert_iterator<fmt::detail::buffer<char>> &",
   "referenced_type" : "_ZTINSt3__120back_insert_iteratorIN3fmt2v76detail6bufferIcEEEE",
   "self_type" : "_ZTIRNSt3__120back_insert_iteratorIN3fmt2v76detail6bufferIcEEEE",
   "size" : 4,
   "source_file" : "external/fmtlib/include/fmt/format.h"
  },
  {
   "alignment" : 4,
   "linker_set_key" : "_ZTIRNSt3__120back_insert_iteratorINS_12basic_stringIcNS_11char_traitsIcEENS_9allocatorIcEEEEEE",
   "name" : "std::back_insert_iterator<std::basic_string<char, std::char_traits<char>, std::allocator<char>>> &",
   "referenced_type" : "_ZTINSt3__120back_insert_iteratorINS_12basic_stringIcNS_11char_traitsIcEENS_9allocatorIcEEEEEE",
   "self_type" : "_ZTIRNSt3__120back_insert_iteratorINS_12basic_stringIcNS_11char_traitsIcEENS_9allocatorIcEEEEEE",
   "size" : 4,
   "source_file" : "external/fmtlib/include/fmt/format.h"
  },
  {
   "alignment" : 4,
   "linker_set_key" : "_ZTIRPKc",
   "name" : "const char *&",
   "referenced_type" : "_ZTIPKc",
   "self_type" : "_ZTIRPKc",
   "size" : 4,
   "source_file" : "external/fmtlib/include/fmt/format.h"
  },
  {
   "alignment" : 4,
   "linker_set_key" : "_ZTIRPc",
   "name" : "char *&",
   "referenced_type" : "_ZTIPc",
   "self_type" : "_ZTIRPc",
   "size" : 4,
   "source_file" : "external/fmtlib/include/fmt/core.h"
  },
  {
   "alignment" : 4,
   "linker_set_key" : "_ZTIRc",
   "name" : "char &",
   "referenced_type" : "_ZTIc",
   "self_type" : "_ZTIRc",
   "size" : 4,
   "source_file" : "external/fmtlib/include/fmt/core.h"
  },
  {
   "alignment" : 4,
   "linker_set_key" : "_ZTIRi",
   "name" : "int &",
   "referenced_type" : "_ZTIi",
   "self_type" : "_ZTIRi",
   "size" : 4,
   "source_file" : "system/libbase/include/android-base/logging.h"
  },
  {
   "alignment" : 4,
   "linker_set_key" : "_ZTIRj",
   "name" : "unsigned int &",
   "referenced_type" : "_ZTIj",
   "self_type" : "_ZTIRj",
   "size" : 4,
   "source_file" : "external/fmtlib/include/fmt/core.h"
  },
  {
   "alignment" : 4,
   "linker_set_key" : "_ZTIRy",
   "name" : "unsigned long long &",
   "referenced_type" : "_ZTIy",
   "self_type" : "_ZTIRy",
   "size" : 4,
   "source_file" : "external/fmtlib/include/fmt/format-inl.h"
  }
 ],
 "pointer_types" :
 [
  {
   "alignment" : 4,
   "linker_set_key" : "_ZTIP12TemporaryDir",
   "name" : "TemporaryDir *",
   "referenced_type" : "_ZTI12TemporaryDir",
   "self_type" : "_ZTIP12TemporaryDir",
   "size" : 4,
   "source_file" : "system/libbase/include/android-base/file.h"
  },
  {
   "alignment" : 4,
   "linker_set_key" : "_ZTIP13CapturedStdFd",
   "name" : "CapturedStdFd *",
   "referenced_type" : "_ZTI13CapturedStdFd",
   "self_type" : "_ZTIP13CapturedStdFd",
   "size" : 4,
   "source_file" : "system/libbase/include/android-base/test_utils.h"
  },
  {
   "alignment" : 4,
   "linker_set_key" : "_ZTIP13TemporaryFile",
   "name" : "TemporaryFile *",
   "referenced_type" : "_ZTI13TemporaryFile",
   "self_type" : "_ZTIP13TemporaryFile",
   "size" : 4,
   "source_file" : "system/libbase/include/android-base/file.h"
  },
  {
   "alignment" : 4,
   "linker_set_key" : "_ZTIP14CapturedStderr",
   "name" : "CapturedStderr *",
   "referenced_type" : "_ZTI14CapturedStderr",
   "self_type" : "_ZTIP14CapturedStderr",
   "size" : 4,
   "source_file" : "system/libbase/include/android-base/test_utils.h"
  },
  {
   "alignment" : 4,
   "linker_set_key" : "_ZTIP14CapturedStdout",
   "name" : "CapturedStdout *",
   "referenced_type" : "_ZTI14CapturedStdout",
   "self_type" : "_ZTIP14CapturedStdout",
   "size" : 4,
   "source_file" : "system/libbase/include/android-base/test_utils.h"
  },
  {
   "alignment" : 4,
   "linker_set_key" : "_ZTIP3DIR",
   "name" : "DIR *",
   "referenced_type" : "_ZTI3DIR",
   "self_type" : "_ZTIP3DIR",
   "size" : 4,
   "source_file" : "system/libbase/include/android-base/unique_fd.h"
  },
  {
   "alignment" : 4,
   "linker_set_key" : "_ZTIP7__sFILE",
   "name" : "__sFILE *",
   "referenced_type" : "_ZTI7__sFILE",
   "self_type" : "_ZTIP7__sFILE",
   "size" : 4,
   "source_file" : "system/libbase/include/android-base/unique_fd.h"
  },
  {
   "alignment" : 4,
   "linker_set_key" : "_ZTIPFvPKvRN3fmt2v726basic_format_parse_contextIcNS2_6detail13error_handlerEEERNS2_20basic_format_contextINS4_15buffer_appenderIcEEcEEE",
   "name" : "void (*)(const void *, fmt::v7::basic_format_parse_context<char, fmt::v7::detail::error_handler> &, fmt::v7::basic_format_context<fmt::v7::detail::buffer_appender<char>, char> &)",
   "referenced_type" : "_ZTIFvPKvRN3fmt2v726basic_format_parse_contextIcNS2_6detail13error_handlerEEERNS2_20basic_format_contextINS4_15buffer_appenderIcEEcEEE",
   "self_type" : "_ZTIPFvPKvRN3fmt2v726basic_format_parse_contextIcNS2_6detail13error_handlerEEERNS2_20basic_format_contextINS4_15buffer_appenderIcEEcEEE",
   "size" : 4,
   "source_file" : "external/fmtlib/include/fmt/core.h"
  },
  {
   "alignment" : 4,
   "linker_set_key" : "_ZTIPFvPKvRN3fmt2v726basic_format_parse_contextIcNS2_6detail13error_handlerEEERNS2_20basic_format_contextINSt3__120back_insert_iteratorINS4_6bufferIcEEEEcEEE",
   "name" : "void (*)(const void *, fmt::v7::basic_format_parse_context<char, fmt::v7::detail::error_handler> &, fmt::v7::basic_format_context<std::__1::back_insert_iterator<fmt::v7::detail::buffer<char>>, char> &)",
   "referenced_type" : "_ZTIFvPKvRN3fmt2v726basic_format_parse_contextIcNS2_6detail13error_handlerEEERNS2_20basic_format_contextINSt3__120back_insert_iteratorINS4_6bufferIcEEEEcEEE",
   "self_type" : "_ZTIPFvPKvRN3fmt2v726basic_format_parse_contextIcNS2_6detail13error_handlerEEERNS2_20basic_format_contextINSt3__120back_insert_iteratorINS4_6bufferIcEEEEcEEE",
   "size" : 4,
   "source_file" : "external/fmtlib/include/fmt/core.h"
  },
  {
   "alignment" : 4,
   "linker_set_key" : "_ZTIPFvRN3fmt2v76detail6bufferIcEEiNS0_17basic_string_viewIcEEE",
   "name" : "void (*)(fmt::v7::detail::buffer<char> &, int, fmt::v7::basic_string_view<char>)",
   "referenced_type" : "_ZTIFvRN3fmt2v76detail6bufferIcEEiNS0_17basic_string_viewIcEEE",
   "self_type" : "_ZTIPFvRN3fmt2v76detail6bufferIcEEiNS0_17basic_string_viewIcEEE",
   "size" : 4,
   "source_file" : "external/fmtlib/include/fmt/format.h"
  },
  {
   "alignment" : 4,
   "linker_set_key" : "_ZTIPK13CapturedStdFd",
   "name" : "const CapturedStdFd *",
   "referenced_type" : "_ZTIK13CapturedStdFd",
   "self_type" : "_ZTIPK13CapturedStdFd",
   "size" : 4,
   "source_file" : "system/libbase/include/android-base/test_utils.h"
  },
  {
   "alignment" : 4,
   "linker_set_key" : "_ZTIPK9prop_info",
   "name" : "const prop_info *",
   "referenced_type" : "_ZTIK9prop_info",
   "self_type" : "_ZTIPK9prop_info",
   "size" : 4,
   "source_file" : "system/libbase/include/android-base/properties.h"
  },
  {
   "alignment" : 4,
   "linker_set_key" : "_ZTIPKN3fmt2v710format_intE",
   "name" : "const fmt::format_int *",
   "referenced_type" : "_ZTIKN3fmt2v710format_intE",
   "self_type" : "_ZTIPKN3fmt2v710format_intE",
   "size" : 4,
   "source_file" : "external/fmtlib/include/fmt/format.h"
  },
  {
   "alignment" : 4,
   "linker_set_key" : "_ZTIPKN3fmt2v712system_errorE",
   "name" : "const fmt::system_error *",
   "referenced_type" : "_ZTIKN3fmt2v712system_errorE",
   "self_type" : "_ZTIPKN3fmt2v712system_errorE",
   "size" : 4,
   "source_file" : "external/fmtlib/include/fmt/format.h"
  },
  {
   "alignment" : 4,
   "linker_set_key" : "_ZTIPKN3fmt2v716basic_format_argINS0_20basic_format_contextINS0_6detail15buffer_appenderIcEEcEEE6handleE",
   "name" : "const fmt::basic_format_arg<basic_format_context<buffer_appender<char>, char>>::handle *",
   "referenced_type" : "_ZTIKN3fmt2v716basic_format_argINS0_20basic_format_contextINS0_6detail15buffer_appenderIcEEcEEE6handleE",
   "self_type" : "_ZTIPKN3fmt2v716basic_format_argINS0_20basic_format_contextINS0_6detail15buffer_appenderIcEEcEEE6handleE",
   "size" : 4,
   "source_file" : "external/fmtlib/include/fmt/core.h"
  },
  {
   "alignment" : 4,
   "linker_set_key" : "_ZTIPKN3fmt2v716basic_format_argINS0_20basic_format_contextINS0_6detail15buffer_appenderIcEEcEEEE",
   "name" : "const fmt::basic_format_arg<fmt::basic_format_context<fmt::detail::buffer_appender<char>, char>> *",
   "referenced_type" : "_ZTIKN3fmt2v716basic_format_argINS0_20basic_format_contextINS0_6detail15buffer_appenderIcEEcEEEE",
   "self_type" : "_ZTIPKN3fmt2v716basic_format_argINS0_20basic_format_contextINS0_6detail15buffer_appenderIcEEcEEEE",
   "size" : 4,
   "source_file" : "external/fmtlib/include/fmt/core.h"
  },
  {
   "alignment" : 4,
   "linker_set_key" : "_ZTIPKN3fmt2v716basic_format_argINS0_20basic_format_contextINS0_6detail15buffer_appenderIwEEwEEEE",
   "name" : "const fmt::basic_format_arg<fmt::basic_format_context<fmt::detail::buffer_appender<wchar_t>, wchar_t>> *",
   "referenced_type" : "_ZTIKN3fmt2v716basic_format_argINS0_20basic_format_contextINS0_6detail15buffer_appenderIwEEwEEEE",
   "self_type" : "_ZTIPKN3fmt2v716basic_format_argINS0_20basic_format_contextINS0_6detail15buffer_appenderIwEEwEEEE",
   "size" : 4,
   "source_file" : "external/fmtlib/include/fmt/core.h"
  },
  {
   "alignment" : 4,
   "linker_set_key" : "_ZTIPKN3fmt2v716basic_format_argINS0_20basic_format_contextINSt3__120back_insert_iteratorINS0_6detail6bufferIcEEEEcEEE6handleE",
   "name" : "const fmt::basic_format_arg<basic_format_context<back_insert_iterator<buffer<char>>, char>>::handle *",
   "referenced_type" : "_ZTIKN3fmt2v716basic_format_argINS0_20basic_format_contextINSt3__120back_insert_iteratorINS0_6detail6bufferIcEEEEcEEE6handleE",
   "self_type" : "_ZTIPKN3fmt2v716basic_format_argINS0_20basic_format_contextINSt3__120back_insert_iteratorINS0_6detail6bufferIcEEEEcEEE6handleE",
   "size" : 4,
   "source_file" : "external/fmtlib/include/fmt/core.h"
  },
  {
   "alignment" : 4,
   "linker_set_key" : "_ZTIPKN3fmt2v716basic_format_argINS0_20basic_format_contextINSt3__120back_insert_iteratorINS0_6detail6bufferIcEEEEcEEEE",
   "name" : "const fmt::basic_format_arg<fmt::basic_format_context<std::back_insert_iterator<fmt::detail::buffer<char>>, char>> *",
   "referenced_type" : "_ZTIKN3fmt2v716basic_format_argINS0_20basic_format_contextINSt3__120back_insert_iteratorINS0_6detail6bufferIcEEEEcEEEE",
   "self_type" : "_ZTIPKN3fmt2v716basic_format_argINS0_20basic_format_contextINSt3__120back_insert_iteratorINS0_6detail6bufferIcEEEEcEEEE",
   "size" : 4,
   "source_file" : "external/fmtlib/include/fmt/core.h"
  },
  {
   "alignment" : 4,
   "linker_set_key" : "_ZTIPKN3fmt2v716basic_format_argINS0_20basic_format_contextINSt3__120back_insert_iteratorINS3_12basic_stringIcNS3_11char_traitsIcEENS3_9allocatorIcEEEEEEcEEEE",
   "name" : "const fmt::basic_format_arg<fmt::basic_format_context<std::back_insert_iterator<std::basic_string<char, std::char_traits<char>, std::allocator<char>>>, char>> *",
   "referenced_type" : "_ZTIKN3fmt2v716basic_format_argINS0_20basic_format_contextINSt3__120back_insert_iteratorINS3_12basic_stringIcNS3_11char_traitsIcEENS3_9allocatorIcEEEEEEcEEEE",
   "self_type" : "_ZTIPKN3fmt2v716basic_format_argINS0_20basic_format_contextINSt3__120back_insert_iteratorINS3_12basic_stringIcNS3_11char_traitsIcEENS3_9allocatorIcEEEEEEcEEEE",
   "size" : 4,
   "source_file" : "external/fmtlib/include/fmt/core.h"
  },
  {
   "alignment" : 4,
   "linker_set_key" : "_ZTIPKN3fmt2v716basic_format_argINS0_20basic_format_contextIPccEEEE",
   "name" : "const fmt::basic_format_arg<fmt::basic_format_context<char *, char>> *",
   "referenced_type" : "_ZTIKN3fmt2v716basic_format_argINS0_20basic_format_contextIPccEEEE",
   "self_type" : "_ZTIPKN3fmt2v716basic_format_argINS0_20basic_format_contextIPccEEEE",
   "size" : 4,
   "source_file" : "external/fmtlib/include/fmt/core.h"
  },
  {
   "alignment" : 4,
   "linker_set_key" : "_ZTIPKN3fmt2v717basic_format_argsINS0_20basic_format_contextINS0_6detail15buffer_appenderIcEEcEEEE",
   "name" : "const fmt::basic_format_args<fmt::basic_format_context<fmt::detail::buffer_appender<char>, char>> *",
   "referenced_type" : "_ZTIKN3fmt2v717basic_format_argsINS0_20basic_format_contextINS0_6detail15buffer_appenderIcEEcEEEE",
   "self_type" : "_ZTIPKN3fmt2v717basic_format_argsINS0_20basic_format_contextINS0_6detail15buffer_appenderIcEEcEEEE",
   "size" : 4,
   "source_file" : "external/fmtlib/include/fmt/core.h"
  },
  {
   "alignment" : 4,
   "linker_set_key" : "_ZTIPKN3fmt2v717basic_format_argsINS0_20basic_format_contextINSt3__120back_insert_iteratorINS0_6detail6bufferIcEEEEcEEEE",
   "name" : "const fmt::basic_format_args<fmt::basic_format_context<std::back_insert_iterator<fmt::detail::buffer<char>>, char>> *",
   "referenced_type" : "_ZTIKN3fmt2v717basic_format_argsINS0_20basic_format_contextINSt3__120back_insert_iteratorINS0_6detail6bufferIcEEEEcEEEE",
   "self_type" : "_ZTIPKN3fmt2v717basic_format_argsINS0_20basic_format_contextINSt3__120back_insert_iteratorINS0_6detail6bufferIcEEEEcEEEE",
   "size" : 4,
   "source_file" : "external/fmtlib/include/fmt/core.h"
  },
  {
   "alignment" : 4,
   "linker_set_key" : "_ZTIPKN3fmt2v717basic_string_viewINS0_6detail10char8_typeEEE",
   "name" : "const fmt::basic_string_view<fmt::detail::char8_type> *",
   "referenced_type" : "_ZTIKN3fmt2v717basic_string_viewINS0_6detail10char8_typeEEE",
   "self_type" : "_ZTIPKN3fmt2v717basic_string_viewINS0_6detail10char8_typeEEE",
   "size" : 4,
   "source_file" : "external/fmtlib/include/fmt/core.h"
  },
  {
   "alignment" : 4,
   "linker_set_key" : "_ZTIPKN3fmt2v717basic_string_viewIcEE",
   "name" : "const fmt::basic_string_view<char> *",
   "referenced_type" : "_ZTIKN3fmt2v717basic_string_viewIcEE",
   "self_type" : "_ZTIPKN3fmt2v717basic_string_viewIcEE",
   "size" : 4,
   "source_file" : "external/fmtlib/include/fmt/core.h"
  },
  {
   "alignment" : 4,
   "linker_set_key" : "_ZTIPKN3fmt2v717basic_string_viewIwEE",
   "name" : "const fmt::basic_string_view<wchar_t> *",
   "referenced_type" : "_ZTIKN3fmt2v717basic_string_viewIwEE",
   "self_type" : "_ZTIPKN3fmt2v717basic_string_viewIwEE",
   "size" : 4,
   "source_file" : "external/fmtlib/include/fmt/core.h"
  },
  {
   "alignment" : 4,
   "linker_set_key" : "_ZTIPKN3fmt2v718basic_format_specsIcEE",
   "name" : "const fmt::basic_format_specs<char> *",
   "referenced_type" : "_ZTIKN3fmt2v718basic_format_specsIcEE",
   "self_type" : "_ZTIPKN3fmt2v718basic_format_specsIcEE",
   "size" : 4,
   "source_file" : "external/fmtlib/include/fmt/format.h"
  },
  {
   "alignment" : 4,
   "linker_set_key" : "_ZTIPKN3fmt2v720basic_format_contextINS0_6detail15buffer_appenderIcEEcEE",
   "name" : "const fmt::basic_format_context<fmt::detail::buffer_appender<char>, char> *",
   "referenced_type" : "_ZTIKN3fmt2v720basic_format_contextINS0_6detail15buffer_appenderIcEEcEE",
   "self_type" : "_ZTIPKN3fmt2v720basic_format_contextINS0_6detail15buffer_appenderIcEEcEE",
   "size" : 4,
   "source_file" : "external/fmtlib/include/fmt/core.h"
  },
  {
   "alignment" : 4,
   "linker_set_key" : "_ZTIPKN3fmt2v720basic_format_contextINSt3__120back_insert_iteratorINS0_6detail6bufferIcEEEEcEE",
   "name" : "const fmt::basic_format_context<std::back_insert_iterator<fmt::detail::buffer<char>>, char> *",
   "referenced_type" : "_ZTIKN3fmt2v720basic_format_contextINSt3__120back_insert_iteratorINS0_6detail6bufferIcEEEEcEE",
   "self_type" : "_ZTIPKN3fmt2v720basic_format_contextINSt3__120back_insert_iteratorINS0_6detail6bufferIcEEEEcEE",
   "size" : 4,
   "source_file" : "external/fmtlib/include/fmt/core.h"
  },
  {
   "alignment" : 4,
   "linker_set_key" : "_ZTIPKN3fmt2v726basic_format_parse_contextIcNS0_6detail13error_handlerEEE",
   "name" : "const fmt::basic_format_parse_context<char, fmt::detail::error_handler> *",
   "referenced_type" : "_ZTIKN3fmt2v726basic_format_parse_contextIcNS0_6detail13error_handlerEEE",
   "self_type" : "_ZTIPKN3fmt2v726basic_format_parse_contextIcNS0_6detail13error_handlerEEE",
   "size" : 4,
   "source_file" : "external/fmtlib/include/fmt/core.h"
  },
  {
   "alignment" : 4,
   "linker_set_key" : "_ZTIPKN3fmt2v76detail10char8_typeE",
   "name" : "const fmt::detail::char8_type *",
   "referenced_type" : "_ZTIKN3fmt2v76detail10char8_typeE",
   "self_type" : "_ZTIPKN3fmt2v76detail10char8_typeE",
   "size" : 4,
   "source_file" : "external/fmtlib/include/fmt/core.h"
  },
  {
   "alignment" : 4,
   "linker_set_key" : "_ZTIPKN3fmt2v76detail10int_writerINS1_15buffer_appenderIcEEcjEE",
   "name" : "const fmt::detail::int_writer<fmt::detail::buffer_appender<char>, char, unsigned int> *",
   "referenced_type" : "_ZTIKN3fmt2v76detail10int_writerINS1_15buffer_appenderIcEEcjEE",
   "self_type" : "_ZTIPKN3fmt2v76detail10int_writerINS1_15buffer_appenderIcEEcjEE",
   "size" : 4,
   "source_file" : "external/fmtlib/include/fmt/format.h"
  },
  {
   "alignment" : 4,
   "linker_set_key" : "_ZTIPKN3fmt2v76detail10int_writerINS1_15buffer_appenderIcEEcyEE",
   "name" : "const fmt::detail::int_writer<fmt::detail::buffer_appender<char>, char, unsigned long long> *",
   "referenced_type" : "_ZTIKN3fmt2v76detail10int_writerINS1_15buffer_appenderIcEEcyEE",
   "self_type" : "_ZTIPKN3fmt2v76detail10int_writerINS1_15buffer_appenderIcEEcyEE",
   "size" : 4,
   "source_file" : "external/fmtlib/include/fmt/format.h"
  },
  {
   "alignment" : 4,
   "linker_set_key" : "_ZTIPKN3fmt2v76detail10int_writerINSt3__120back_insert_iteratorINS1_6bufferIcEEEEcjEE",
   "name" : "const fmt::detail::int_writer<std::back_insert_iterator<fmt::detail::buffer<char>>, char, unsigned int> *",
   "referenced_type" : "_ZTIKN3fmt2v76detail10int_writerINSt3__120back_insert_iteratorINS1_6bufferIcEEEEcjEE",
   "self_type" : "_ZTIPKN3fmt2v76detail10int_writerINSt3__120back_insert_iteratorINS1_6bufferIcEEEEcjEE",
   "size" : 4,
   "source_file" : "external/fmtlib/include/fmt/format.h"
  },
  {
   "alignment" : 4,
   "linker_set_key" : "_ZTIPKN3fmt2v76detail10int_writerINSt3__120back_insert_iteratorINS1_6bufferIcEEEEcyEE",
   "name" : "const fmt::detail::int_writer<std::back_insert_iterator<fmt::detail::buffer<char>>, char, unsigned long long> *",
   "referenced_type" : "_ZTIKN3fmt2v76detail10int_writerINSt3__120back_insert_iteratorINS1_6bufferIcEEEEcyEE",
   "self_type" : "_ZTIPKN3fmt2v76detail10int_writerINSt3__120back_insert_iteratorINS1_6bufferIcEEEEcyEE",
   "size" : 4,
   "source_file" : "external/fmtlib/include/fmt/format.h"
  },
  {
   "alignment" : 4,
   "linker_set_key" : "_ZTIPKN3fmt2v76detail10locale_refE",
   "name" : "const fmt::detail::locale_ref *",
   "referenced_type" : "_ZTIKN3fmt2v76detail10locale_refE",
   "self_type" : "_ZTIPKN3fmt2v76detail10locale_refE",
   "size" : 4,
   "source_file" : "external/fmtlib/include/fmt/core.h"
  },
  {
   "alignment" : 4,
   "linker_set_key" : "_ZTIPKN3fmt2v76detail11accumulatorE",
   "name" : "const fmt::detail::accumulator *",
   "referenced_type" : "_ZTIKN3fmt2v76detail11accumulatorE",
   "self_type" : "_ZTIPKN3fmt2v76detail11accumulatorE",
   "size" : 4,
   "source_file" : "external/fmtlib/include/fmt/format-inl.h"
  },
  {
   "alignment" : 4,
   "linker_set_key" : "_ZTIPKN3fmt2v76detail11stringifierE",
   "name" : "const fmt::detail::stringifier *",
   "referenced_type" : "_ZTIKN3fmt2v76detail11stringifierE",
   "self_type" : "_ZTIPKN3fmt2v76detail11stringifierE",
   "size" : 4,
   "source_file" : "external/fmtlib/include/fmt/format-inl.h"
  },
  {
   "alignment" : 4,
   "linker_set_key" : "_ZTIPKN3fmt2v76detail13buffer_traitsE",
   "name" : "const fmt::detail::buffer_traits *",
   "referenced_type" : "_ZTIKN3fmt2v76detail13buffer_traitsE",
   "self_type" : "_ZTIPKN3fmt2v76detail13buffer_traitsE",
   "size" : 4,
   "source_file" : "external/fmtlib/include/fmt/core.h"
  },
  {
   "alignment" : 4,
   "linker_set_key" : "_ZTIPKN3fmt2v76detail13utf8_to_utf16E",
   "name" : "const fmt::detail::utf8_to_utf16 *",
   "referenced_type" : "_ZTIKN3fmt2v76detail13utf8_to_utf16E",
   "self_type" : "_ZTIPKN3fmt2v76detail13utf8_to_utf16E",
   "size" : 4,
   "source_file" : "external/fmtlib/include/fmt/format.h"
  },
  {
   "alignment" : 4,
   "linker_set_key" : "_ZTIPKN3fmt2v76detail14named_arg_infoIcEE",
   "name" : "const fmt::detail::named_arg_info<char> *",
   "referenced_type" : "_ZTIKN3fmt2v76detail14named_arg_infoIcEE",
   "self_type" : "_ZTIPKN3fmt2v76detail14named_arg_infoIcEE",
   "size" : 4,
   "source_file" : "external/fmtlib/include/fmt/core.h"
  },
  {
   "alignment" : 4,
   "linker_set_key" : "_ZTIPKN3fmt2v76detail15uint128_wrapperE",
   "name" : "const fmt::detail::uint128_wrapper *",
   "referenced_type" : "_ZTIKN3fmt2v76detail15uint128_wrapperE",
   "self_type" : "_ZTIPKN3fmt2v76detail15uint128_wrapperE",
   "size" : 4,
   "source_file" : "external/fmtlib/include/fmt/format.h"
  },
  {
   "alignment" : 4,
   "linker_set_key" : "_ZTIPKN3fmt2v76detail16custom_formatterINS0_20basic_format_contextINS1_15buffer_appenderIcEEcEEEE",
   "name" : "const fmt::detail::custom_formatter<fmt::basic_format_context<fmt::detail::buffer_appender<char>, char>> *",
   "referenced_type" : "_ZTIKN3fmt2v76detail16custom_formatterINS0_20basic_format_contextINS1_15buffer_appenderIcEEcEEEE",
   "self_type" : "_ZTIPKN3fmt2v76detail16custom_formatterINS0_20basic_format_contextINS1_15buffer_appenderIcEEcEEEE",
   "size" : 4,
   "source_file" : "external/fmtlib/include/fmt/format.h"
  },
  {
   "alignment" : 4,
   "linker_set_key" : "_ZTIPKN3fmt2v76detail16custom_formatterINS0_20basic_format_contextINSt3__120back_insert_iteratorINS1_6bufferIcEEEEcEEEE",
   "name" : "const fmt::detail::custom_formatter<fmt::basic_format_context<std::back_insert_iterator<fmt::detail::buffer<char>>, char>> *",
   "referenced_type" : "_ZTIKN3fmt2v76detail16custom_formatterINS0_20basic_format_contextINSt3__120back_insert_iteratorINS1_6bufferIcEEEEcEEEE",
   "self_type" : "_ZTIPKN3fmt2v76detail16custom_formatterINS0_20basic_format_contextINSt3__120back_insert_iteratorINS1_6bufferIcEEEEcEEEE",
   "size" : 4,
   "source_file" : "external/fmtlib/include/fmt/format.h"
  },
  {
   "alignment" : 4,
   "linker_set_key" : "_ZTIPKN3fmt2v76detail17counting_iteratorE",
   "name" : "const fmt::detail::counting_iterator *",
   "referenced_type" : "_ZTIKN3fmt2v76detail17counting_iteratorE",
   "self_type" : "_ZTIPKN3fmt2v76detail17counting_iteratorE",
   "size" : 4,
   "source_file" : "external/fmtlib/include/fmt/format.h"
  },
  {
   "alignment" : 4,
   "linker_set_key" : "_ZTIPKN3fmt2v76detail19fixed_buffer_traitsE",
   "name" : "const fmt::detail::fixed_buffer_traits *",
   "referenced_type" : "_ZTIKN3fmt2v76detail19fixed_buffer_traitsE",
   "self_type" : "_ZTIPKN3fmt2v76detail19fixed_buffer_traitsE",
   "size" : 4,
   "source_file" : "external/fmtlib/include/fmt/core.h"
  },
  {
   "alignment" : 4,
   "linker_set_key" : "_ZTIPKN3fmt2v76detail5valueINS0_20basic_format_contextINS1_15buffer_appenderIcEEcEEEE",
   "name" : "const fmt::detail::value<fmt::basic_format_context<fmt::detail::buffer_appender<char>, char>> *",
   "referenced_type" : "_ZTIKN3fmt2v76detail5valueINS0_20basic_format_contextINS1_15buffer_appenderIcEEcEEEE",
   "self_type" : "_ZTIPKN3fmt2v76detail5valueINS0_20basic_format_contextINS1_15buffer_appenderIcEEcEEEE",
   "size" : 4,
   "source_file" : "external/fmtlib/include/fmt/core.h"
  },
  {
   "alignment" : 4,
   "linker_set_key" : "_ZTIPKN3fmt2v76detail5valueINS0_20basic_format_contextINS1_15buffer_appenderIwEEwEEEE",
   "name" : "const fmt::detail::value<fmt::basic_format_context<fmt::detail::buffer_appender<wchar_t>, wchar_t>> *",
   "referenced_type" : "_ZTIKN3fmt2v76detail5valueINS0_20basic_format_contextINS1_15buffer_appenderIwEEwEEEE",
   "self_type" : "_ZTIPKN3fmt2v76detail5valueINS0_20basic_format_contextINS1_15buffer_appenderIwEEwEEEE",
   "size" : 4,
   "source_file" : "external/fmtlib/include/fmt/core.h"
  },
  {
   "alignment" : 4,
   "linker_set_key" : "_ZTIPKN3fmt2v76detail5valueINS0_20basic_format_contextINSt3__120back_insert_iteratorINS1_6bufferIcEEEEcEEEE",
   "name" : "const fmt::detail::value<fmt::basic_format_context<std::back_insert_iterator<fmt::detail::buffer<char>>, char>> *",
   "referenced_type" : "_ZTIKN3fmt2v76detail5valueINS0_20basic_format_contextINSt3__120back_insert_iteratorINS1_6bufferIcEEEEcEEEE",
   "self_type" : "_ZTIPKN3fmt2v76detail5valueINS0_20basic_format_contextINSt3__120back_insert_iteratorINS1_6bufferIcEEEEcEEEE",
   "size" : 4,
   "source_file" : "external/fmtlib/include/fmt/core.h"
  },
  {
   "alignment" : 4,
   "linker_set_key" : "_ZTIPKN3fmt2v76detail5valueINS0_20basic_format_contextINSt3__120back_insert_iteratorINS4_12basic_stringIcNS4_11char_traitsIcEENS4_9allocatorIcEEEEEEcEEEE",
   "name" : "const fmt::detail::value<fmt::basic_format_context<std::back_insert_iterator<std::basic_string<char, std::char_traits<char>, std::allocator<char>>>, char>> *",
   "referenced_type" : "_ZTIKN3fmt2v76detail5valueINS0_20basic_format_contextINSt3__120back_insert_iteratorINS4_12basic_stringIcNS4_11char_traitsIcEENS4_9allocatorIcEEEEEEcEEEE",
   "self_type" : "_ZTIPKN3fmt2v76detail5valueINS0_20basic_format_contextINSt3__120back_insert_iteratorINS4_12basic_stringIcNS4_11char_traitsIcEENS4_9allocatorIcEEEEEEcEEEE",
   "size" : 4,
   "source_file" : "external/fmtlib/include/fmt/core.h"
  },
  {
   "alignment" : 4,
   "linker_set_key" : "_ZTIPKN3fmt2v76detail5valueINS0_20basic_format_contextIPccEEEE",
   "name" : "const fmt::detail::value<fmt::basic_format_context<char *, char>> *",
   "referenced_type" : "_ZTIKN3fmt2v76detail5valueINS0_20basic_format_contextIPccEEEE",
   "self_type" : "_ZTIPKN3fmt2v76detail5valueINS0_20basic_format_contextIPccEEEE",
   "size" : 4,
   "source_file" : "external/fmtlib/include/fmt/core.h"
  },
  {
   "alignment" : 4,
   "linker_set_key" : "_ZTIPKN3fmt2v76detail6bigintE",
   "name" : "const fmt::detail::bigint *",
   "referenced_type" : "_ZTIKN3fmt2v76detail6bigintE",
   "self_type" : "_ZTIPKN3fmt2v76detail6bigintE",
   "size" : 4,
   "source_file" : "external/fmtlib/include/fmt/format-inl.h"
  },
  {
   "alignment" : 4,
   "linker_set_key" : "_ZTIPKN3fmt2v76detail6bufferIcEE",
   "name" : "const fmt::detail::buffer<char> *",
   "referenced_type" : "_ZTIKN3fmt2v76detail6bufferIcEE",
   "self_type" : "_ZTIPKN3fmt2v76detail6bufferIcEE",
   "size" : 4,
   "source_file" : "external/fmtlib/include/fmt/core.h"
  },
  {
   "alignment" : 4,
   "linker_set_key" : "_ZTIPKN3fmt2v76detail6bufferIjEE",
   "name" : "const fmt::detail::buffer<unsigned int> *",
   "referenced_type" : "_ZTIKN3fmt2v76detail6bufferIjEE",
   "self_type" : "_ZTIPKN3fmt2v76detail6bufferIjEE",
   "size" : 4,
   "source_file" : "external/fmtlib/include/fmt/core.h"
  },
  {
   "alignment" : 4,
   "linker_set_key" : "_ZTIPKN3fmt2v76detail6bufferIwEE",
   "name" : "const fmt::detail::buffer<wchar_t> *",
   "referenced_type" : "_ZTIKN3fmt2v76detail6bufferIwEE",
   "self_type" : "_ZTIPKN3fmt2v76detail6bufferIwEE",
   "size" : 4,
   "source_file" : "external/fmtlib/include/fmt/core.h"
  },
  {
   "alignment" : 4,
   "linker_set_key" : "_ZTIPKN3fmt2v76detail6fill_tIcEE",
   "name" : "const fmt::detail::fill_t<char> *",
   "referenced_type" : "_ZTIKN3fmt2v76detail6fill_tIcEE",
   "self_type" : "_ZTIPKN3fmt2v76detail6fill_tIcEE",
   "size" : 4,
   "source_file" : "external/fmtlib/include/fmt/format.h"
  },
  {
   "alignment" : 4,
   "linker_set_key" : "_ZTIPKN3fmt2v76detail8arg_dataINS1_5valueINS0_20basic_format_contextINS1_15buffer_appenderIcEEcEEEEcLj1ELj0EEE",
   "name" : "const fmt::detail::arg_data<fmt::detail::value<fmt::basic_format_context<fmt::detail::buffer_appender<char>, char>>, char, 1, 0> *",
   "referenced_type" : "_ZTIKN3fmt2v76detail8arg_dataINS1_5valueINS0_20basic_format_contextINS1_15buffer_appenderIcEEcEEEEcLj1ELj0EEE",
   "self_type" : "_ZTIPKN3fmt2v76detail8arg_dataINS1_5valueINS0_20basic_format_contextINS1_15buffer_appenderIcEEcEEEEcLj1ELj0EEE",
   "size" : 4,
   "source_file" : "external/fmtlib/include/fmt/core.h"
  },
  {
   "alignment" : 4,
   "linker_set_key" : "_ZTIPKN3fmt2v76detail8arg_dataINS1_5valueINS0_20basic_format_contextINS1_15buffer_appenderIcEEcEEEEcLj2ELj0EEE",
   "name" : "const fmt::detail::arg_data<fmt::detail::value<fmt::basic_format_context<fmt::detail::buffer_appender<char>, char>>, char, 2, 0> *",
   "referenced_type" : "_ZTIKN3fmt2v76detail8arg_dataINS1_5valueINS0_20basic_format_contextINS1_15buffer_appenderIcEEcEEEEcLj2ELj0EEE",
   "self_type" : "_ZTIPKN3fmt2v76detail8arg_dataINS1_5valueINS0_20basic_format_contextINS1_15buffer_appenderIcEEcEEEEcLj2ELj0EEE",
   "size" : 4,
   "source_file" : "external/fmtlib/include/fmt/core.h"
  },
  {
   "alignment" : 4,
   "linker_set_key" : "_ZTIPKN7android4base10MappedFileE",
   "name" : "const android::base::MappedFile *",
   "referenced_type" : "_ZTIKN7android4base10MappedFileE",
   "self_type" : "_ZTIPKN7android4base10MappedFileE",
   "size" : 4,
   "source_file" : "system/libbase/include/android-base/mapped_file.h"
  },
  {
   "alignment" : 4,
   "linker_set_key" : "_ZTIPKN7android4base11borrowed_fdE",
   "name" : "const android::base::borrowed_fd *",
   "referenced_type" : "_ZTIKN7android4base11borrowed_fdE",
   "self_type" : "_ZTIPKN7android4base11borrowed_fdE",
   "size" : 4,
   "source_file" : "system/libbase/include/android-base/unique_fd.h"
  },
  {
   "alignment" : 4,
   "linker_set_key" : "_ZTIPKN7android4base13ErrnoRestorerE",
   "name" : "const android::base::ErrnoRestorer *",
   "referenced_type" : "_ZTIKN7android4base13ErrnoRestorerE",
   "self_type" : "_ZTIPKN7android4base13ErrnoRestorerE",
   "size" : 4,
   "source_file" : "system/libbase/include/android-base/errno_restorer.h"
  },
  {
   "alignment" : 4,
   "linker_set_key" : "_ZTIPKN7android4base14unique_fd_implINS0_13DefaultCloserEEE",
   "name" : "const android::base::unique_fd_impl<android::base::DefaultCloser> *",
   "referenced_type" : "_ZTIKN7android4base14unique_fd_implINS0_13DefaultCloserEEE",
   "self_type" : "_ZTIPKN7android4base14unique_fd_implINS0_13DefaultCloserEEE",
   "size" : 4,
   "source_file" : "system/libbase/include/android-base/unique_fd.h"
  },
  {
   "alignment" : 4,
   "linker_set_key" : "_ZTIPKN7android4base5TimerE",
   "name" : "const android::base::Timer *",
   "referenced_type" : "_ZTIKN7android4base5TimerE",
   "self_type" : "_ZTIPKN7android4base5TimerE",
   "size" : 4,
   "source_file" : "system/libbase/include/android-base/chrono_utils.h"
  },
  {
   "alignment" : 4,
   "linker_set_key" : "_ZTIPKN7android4base7AllPids11PidIteratorE",
   "name" : "const android::base::AllPids::PidIterator *",
   "referenced_type" : "_ZTIKN7android4base7AllPids11PidIteratorE",
   "self_type" : "_ZTIPKN7android4base7AllPids11PidIteratorE",
   "size" : 4,
   "source_file" : "system/libbase/include/android-base/process.h"
  },
  {
   "alignment" : 4,
   "linker_set_key" : "_ZTIPKNSt3__112basic_stringIcNS_11char_traitsIcEENS_9allocatorIcEEEE",
   "name" : "const std::basic_string<char, std::char_traits<char>, std::allocator<char>> *",
   "referenced_type" : "_ZTIKNSt3__112basic_stringIcNS_11char_traitsIcEENS_9allocatorIcEEEE",
   "self_type" : "_ZTIPKNSt3__112basic_stringIcNS_11char_traitsIcEENS_9allocatorIcEEEE",
   "size" : 4,
   "source_file" : "system/libbase/include/android-base/logging.h"
  },
  {
   "alignment" : 4,
   "linker_set_key" : "_ZTIPKc",
   "name" : "const char *",
   "referenced_type" : "_ZTIKc",
   "self_type" : "_ZTIPKc",
   "size" : 4,
   "source_file" : "system/libbase/include/android-base/unique_fd.h"
  },
  {
   "alignment" : 4,
   "linker_set_key" : "_ZTIPKj",
   "name" : "const unsigned int *",
   "referenced_type" : "_ZTIKj",
   "self_type" : "_ZTIPKj",
   "size" : 4,
   "source_file" : "external/fmtlib/include/fmt/core.h"
  },
  {
   "alignment" : 4,
   "linker_set_key" : "_ZTIPKv",
   "name" : "const void *",
   "referenced_type" : "_ZTIKv",
   "self_type" : "_ZTIPKv",
   "size" : 4,
   "source_file" : "system/libbase/include/android-base/cmsg.h"
  },
  {
   "alignment" : 4,
   "linker_set_key" : "_ZTIPKw",
   "name" : "const wchar_t *",
   "referenced_type" : "_ZTIKw",
   "self_type" : "_ZTIPKw",
   "size" : 4,
   "source_file" : "external/fmtlib/include/fmt/core.h"
  },
  {
   "alignment" : 4,
   "linker_set_key" : "_ZTIPN3fmt2v710format_intE",
   "name" : "fmt::format_int *",
   "referenced_type" : "_ZTIN3fmt2v710format_intE",
   "self_type" : "_ZTIPN3fmt2v710format_intE",
   "size" : 4,
   "source_file" : "external/fmtlib/include/fmt/format.h"
  },
  {
   "alignment" : 4,
   "linker_set_key" : "_ZTIPN3fmt2v711format_argsE",
   "name" : "fmt::format_args *",
   "referenced_type" : "_ZTIN3fmt2v711format_argsE",
   "self_type" : "_ZTIPN3fmt2v711format_argsE",
   "size" : 4,
   "source_file" : "external/fmtlib/include/fmt/core.h"
  },
  {
   "alignment" : 4,
   "linker_set_key" : "_ZTIPN3fmt2v712format_errorE",
   "name" : "fmt::format_error *",
   "referenced_type" : "_ZTIN3fmt2v712format_errorE",
   "self_type" : "_ZTIPN3fmt2v712format_errorE",
   "size" : 4,
   "source_file" : "external/fmtlib/include/fmt/format.h"
  },
  {
   "alignment" : 4,
   "linker_set_key" : "_ZTIPN3fmt2v712system_errorE",
   "name" : "fmt::system_error *",
   "referenced_type" : "_ZTIN3fmt2v712system_errorE",
   "self_type" : "_ZTIPN3fmt2v712system_errorE",
   "size" : 4,
   "source_file" : "external/fmtlib/include/fmt/format.h"
  },
  {
   "alignment" : 4,
   "linker_set_key" : "_ZTIPN3fmt2v716basic_format_argINS0_20basic_format_contextINS0_6detail15buffer_appenderIcEEcEEE6handleE",
   "name" : "fmt::basic_format_arg<basic_format_context<buffer_appender<char>, char>>::handle *",
   "referenced_type" : "_ZTIN3fmt2v716basic_format_argINS0_20basic_format_contextINS0_6detail15buffer_appenderIcEEcEEE6handleE",
   "self_type" : "_ZTIPN3fmt2v716basic_format_argINS0_20basic_format_contextINS0_6detail15buffer_appenderIcEEcEEE6handleE",
   "size" : 4,
   "source_file" : "external/fmtlib/include/fmt/core.h"
  },
  {
   "alignment" : 4,
   "linker_set_key" : "_ZTIPN3fmt2v716basic_format_argINS0_20basic_format_contextINS0_6detail15buffer_appenderIcEEcEEEE",
   "name" : "fmt::basic_format_arg<fmt::basic_format_context<fmt::detail::buffer_appender<char>, char>> *",
   "referenced_type" : "_ZTIN3fmt2v716basic_format_argINS0_20basic_format_contextINS0_6detail15buffer_appenderIcEEcEEEE",
   "self_type" : "_ZTIPN3fmt2v716basic_format_argINS0_20basic_format_contextINS0_6detail15buffer_appenderIcEEcEEEE",
   "size" : 4,
   "source_file" : "external/fmtlib/include/fmt/core.h"
  },
  {
   "alignment" : 4,
   "linker_set_key" : "_ZTIPN3fmt2v716basic_format_argINS0_20basic_format_contextINSt3__120back_insert_iteratorINS0_6detail6bufferIcEEEEcEEE6handleE",
   "name" : "fmt::basic_format_arg<basic_format_context<back_insert_iterator<buffer<char>>, char>>::handle *",
   "referenced_type" : "_ZTIN3fmt2v716basic_format_argINS0_20basic_format_contextINSt3__120back_insert_iteratorINS0_6detail6bufferIcEEEEcEEE6handleE",
   "self_type" : "_ZTIPN3fmt2v716basic_format_argINS0_20basic_format_contextINSt3__120back_insert_iteratorINS0_6detail6bufferIcEEEEcEEE6handleE",
   "size" : 4,
   "source_file" : "external/fmtlib/include/fmt/core.h"
  },
  {
   "alignment" : 4,
   "linker_set_key" : "_ZTIPN3fmt2v716basic_format_argINS0_20basic_format_contextINSt3__120back_insert_iteratorINS0_6detail6bufferIcEEEEcEEEE",
   "name" : "fmt::basic_format_arg<fmt::basic_format_context<std::back_insert_iterator<fmt::detail::buffer<char>>, char>> *",
   "referenced_type" : "_ZTIN3fmt2v716basic_format_argINS0_20basic_format_contextINSt3__120back_insert_iteratorINS0_6detail6bufferIcEEEEcEEEE",
   "self_type" : "_ZTIPN3fmt2v716basic_format_argINS0_20basic_format_contextINSt3__120back_insert_iteratorINS0_6detail6bufferIcEEEEcEEEE",
   "size" : 4,
   "source_file" : "external/fmtlib/include/fmt/core.h"
  },
  {
   "alignment" : 4,
   "linker_set_key" : "_ZTIPN3fmt2v716format_arg_storeINS0_20basic_format_contextINS0_6detail15buffer_appenderIcEEcEEJA7_KciEEE",
   "name" : "fmt::format_arg_store<fmt::basic_format_context<fmt::detail::buffer_appender<char>, char>, char const[7], int> *",
   "referenced_type" : "_ZTIN3fmt2v716format_arg_storeINS0_20basic_format_contextINS0_6detail15buffer_appenderIcEEcEEJA7_KciEEE",
   "self_type" : "_ZTIPN3fmt2v716format_arg_storeINS0_20basic_format_contextINS0_6detail15buffer_appenderIcEEcEEJA7_KciEEE",
   "size" : 4,
   "source_file" : "external/fmtlib/include/fmt/core.h"
  },
  {
   "alignment" : 4,
   "linker_set_key" : "_ZTIPN3fmt2v716format_arg_storeINS0_20basic_format_contextINS0_6detail15buffer_appenderIcEEcEEJNS0_17basic_string_viewIcEEA3_KcEEE",
   "name" : "fmt::format_arg_store<fmt::basic_format_context<fmt::detail::buffer_appender<char>, char>, basic_string_view<char>, char const[3]> *",
   "referenced_type" : "_ZTIN3fmt2v716format_arg_storeINS0_20basic_format_contextINS0_6detail15buffer_appenderIcEEcEEJNS0_17basic_string_viewIcEEA3_KcEEE",
   "self_type" : "_ZTIPN3fmt2v716format_arg_storeINS0_20basic_format_contextINS0_6detail15buffer_appenderIcEEcEEJNS0_17basic_string_viewIcEEA3_KcEEE",
   "size" : 4,
   "source_file" : "external/fmtlib/include/fmt/core.h"
  },
  {
   "alignment" : 4,
   "linker_set_key" : "_ZTIPN3fmt2v716format_arg_storeINS0_20basic_format_contextINS0_6detail15buffer_appenderIcEEcEEJNS0_17basic_string_viewIcEEPcEEE",
   "name" : "fmt::format_arg_store<fmt::basic_format_context<fmt::detail::buffer_appender<char>, char>, basic_string_view<char>, char *> *",
   "referenced_type" : "_ZTIN3fmt2v716format_arg_storeINS0_20basic_format_contextINS0_6detail15buffer_appenderIcEEcEEJNS0_17basic_string_viewIcEEPcEEE",
   "self_type" : "_ZTIPN3fmt2v716format_arg_storeINS0_20basic_format_contextINS0_6detail15buffer_appenderIcEEcEEJNS0_17basic_string_viewIcEEPcEEE",
   "size" : 4,
   "source_file" : "external/fmtlib/include/fmt/core.h"
  },
  {
   "alignment" : 4,
   "linker_set_key" : "_ZTIPN3fmt2v716format_arg_storeINS0_20basic_format_contextINS0_6detail15buffer_appenderIcEEcEEJiEEE",
   "name" : "fmt::format_arg_store<fmt::basic_format_context<fmt::detail::buffer_appender<char>, char>, int> *",
   "referenced_type" : "_ZTIN3fmt2v716format_arg_storeINS0_20basic_format_contextINS0_6detail15buffer_appenderIcEEcEEJiEEE",
   "self_type" : "_ZTIPN3fmt2v716format_arg_storeINS0_20basic_format_contextINS0_6detail15buffer_appenderIcEEcEEJiEEE",
   "size" : 4,
   "source_file" : "external/fmtlib/include/fmt/core.h"
  },
  {
   "alignment" : 4,
   "linker_set_key" : "_ZTIPN3fmt2v716format_arg_storeINS0_20basic_format_contextINS0_6detail15buffer_appenderIcEEcEEJjEEE",
   "name" : "fmt::format_arg_store<fmt::basic_format_context<fmt::detail::buffer_appender<char>, char>, unsigned int> *",
   "referenced_type" : "_ZTIN3fmt2v716format_arg_storeINS0_20basic_format_contextINS0_6detail15buffer_appenderIcEEcEEJjEEE",
   "self_type" : "_ZTIPN3fmt2v716format_arg_storeINS0_20basic_format_contextINS0_6detail15buffer_appenderIcEEcEEJjEEE",
   "size" : 4,
   "source_file" : "external/fmtlib/include/fmt/core.h"
  },
  {
   "alignment" : 4,
   "linker_set_key" : "_ZTIPN3fmt2v717basic_format_argsINS0_20basic_format_contextINS0_6detail15buffer_appenderIcEEcEEEE",
   "name" : "fmt::basic_format_args<fmt::basic_format_context<fmt::detail::buffer_appender<char>, char>> *",
   "referenced_type" : "_ZTIN3fmt2v717basic_format_argsINS0_20basic_format_contextINS0_6detail15buffer_appenderIcEEcEEEE",
   "self_type" : "_ZTIPN3fmt2v717basic_format_argsINS0_20basic_format_contextINS0_6detail15buffer_appenderIcEEcEEEE",
   "size" : 4,
   "source_file" : "external/fmtlib/include/fmt/core.h"
  },
  {
   "alignment" : 4,
   "linker_set_key" : "_ZTIPN3fmt2v717basic_string_viewIcEE",
   "name" : "fmt::basic_string_view<char> *",
   "referenced_type" : "_ZTIN3fmt2v717basic_string_viewIcEE",
   "self_type" : "_ZTIPN3fmt2v717basic_string_viewIcEE",
   "size" : 4,
   "source_file" : "external/fmtlib/include/fmt/core.h"
  },
  {
   "alignment" : 4,
   "linker_set_key" : "_ZTIPN3fmt2v717basic_string_viewIwEE",
   "name" : "fmt::basic_string_view<wchar_t> *",
   "referenced_type" : "_ZTIN3fmt2v717basic_string_viewIwEE",
   "self_type" : "_ZTIPN3fmt2v717basic_string_viewIwEE",
   "size" : 4,
   "source_file" : "external/fmtlib/include/fmt/core.h"
  },
  {
   "alignment" : 4,
   "linker_set_key" : "_ZTIPN3fmt2v718basic_format_specsIcEE",
   "name" : "fmt::basic_format_specs<char> *",
   "referenced_type" : "_ZTIN3fmt2v718basic_format_specsIcEE",
   "self_type" : "_ZTIPN3fmt2v718basic_format_specsIcEE",
   "size" : 4,
   "source_file" : "external/fmtlib/include/fmt/format.h"
  },
  {
   "alignment" : 4,
   "linker_set_key" : "_ZTIPN3fmt2v719basic_memory_bufferIcLj500ENSt3__19allocatorIcEEEE",
   "name" : "fmt::basic_memory_buffer<char, 500, std::allocator<char>> *",
   "referenced_type" : "_ZTIN3fmt2v719basic_memory_bufferIcLj500ENSt3__19allocatorIcEEEE",
   "self_type" : "_ZTIPN3fmt2v719basic_memory_bufferIcLj500ENSt3__19allocatorIcEEEE",
   "size" : 4,
   "source_file" : "external/fmtlib/include/fmt/format.h"
  },
  {
   "alignment" : 4,
   "linker_set_key" : "_ZTIPN3fmt2v719basic_memory_bufferIjLj32ENSt3__19allocatorIjEEEE",
   "name" : "fmt::basic_memory_buffer<unsigned int, 32, std::allocator<unsigned int>> *",
   "referenced_type" : "_ZTIN3fmt2v719basic_memory_bufferIjLj32ENSt3__19allocatorIjEEEE",
   "self_type" : "_ZTIPN3fmt2v719basic_memory_bufferIjLj32ENSt3__19allocatorIjEEEE",
   "size" : 4,
   "source_file" : "external/fmtlib/include/fmt/format.h"
  },
  {
   "alignment" : 4,
   "linker_set_key" : "_ZTIPN3fmt2v719basic_memory_bufferIwLj500ENSt3__19allocatorIwEEEE",
   "name" : "fmt::basic_memory_buffer<wchar_t, 500, std::allocator<wchar_t>> *",
   "referenced_type" : "_ZTIN3fmt2v719basic_memory_bufferIwLj500ENSt3__19allocatorIwEEEE",
   "self_type" : "_ZTIPN3fmt2v719basic_memory_bufferIwLj500ENSt3__19allocatorIwEEEE",
   "size" : 4,
   "source_file" : "external/fmtlib/include/fmt/format.h"
  },
  {
   "alignment" : 4,
   "linker_set_key" : "_ZTIPN3fmt2v720basic_format_contextINS0_6detail15buffer_appenderIcEEcEE",
   "name" : "fmt::basic_format_context<fmt::detail::buffer_appender<char>, char> *",
   "referenced_type" : "_ZTIN3fmt2v720basic_format_contextINS0_6detail15buffer_appenderIcEEcEE",
   "self_type" : "_ZTIPN3fmt2v720basic_format_contextINS0_6detail15buffer_appenderIcEEcEE",
   "size" : 4,
   "source_file" : "external/fmtlib/include/fmt/core.h"
  },
  {
   "alignment" : 4,
   "linker_set_key" : "_ZTIPN3fmt2v720basic_format_contextINSt3__120back_insert_iteratorINS0_6detail6bufferIcEEEEcEE",
   "name" : "fmt::basic_format_context<std::back_insert_iterator<fmt::detail::buffer<char>>, char> *",
   "referenced_type" : "_ZTIN3fmt2v720basic_format_contextINSt3__120back_insert_iteratorINS0_6detail6bufferIcEEEEcEE",
   "self_type" : "_ZTIPN3fmt2v720basic_format_contextINSt3__120back_insert_iteratorINS0_6detail6bufferIcEEEEcEE",
   "size" : 4,
   "source_file" : "external/fmtlib/include/fmt/core.h"
  },
  {
   "alignment" : 4,
   "linker_set_key" : "_ZTIPN3fmt2v726basic_format_parse_contextIcNS0_6detail13error_handlerEEE",
   "name" : "fmt::basic_format_parse_context<char, fmt::detail::error_handler> *",
   "referenced_type" : "_ZTIN3fmt2v726basic_format_parse_contextIcNS0_6detail13error_handlerEEE",
   "self_type" : "_ZTIPN3fmt2v726basic_format_parse_contextIcNS0_6detail13error_handlerEEE",
   "size" : 4,
   "source_file" : "external/fmtlib/include/fmt/core.h"
  },
  {
   "alignment" : 4,
   "linker_set_key" : "_ZTIPN3fmt2v75bytesE",
   "name" : "fmt::bytes *",
   "referenced_type" : "_ZTIN3fmt2v75bytesE",
   "self_type" : "_ZTIPN3fmt2v75bytesE",
   "size" : 4,
   "source_file" : "external/fmtlib/include/fmt/format.h"
  },
  {
   "alignment" : 4,
   "linker_set_key" : "_ZTIPN3fmt2v76detail10arg_mapperINS0_20basic_format_contextINS1_15buffer_appenderIcEEcEEEE",
   "name" : "fmt::detail::arg_mapper<fmt::basic_format_context<fmt::detail::buffer_appender<char>, char>> *",
   "referenced_type" : "_ZTIN3fmt2v76detail10arg_mapperINS0_20basic_format_contextINS1_15buffer_appenderIcEEcEEEE",
   "self_type" : "_ZTIPN3fmt2v76detail10arg_mapperINS0_20basic_format_contextINS1_15buffer_appenderIcEEcEEEE",
   "size" : 4,
   "source_file" : "external/fmtlib/include/fmt/core.h"
  },
  {
   "alignment" : 4,
   "linker_set_key" : "_ZTIPN3fmt2v76detail10id_adapterIRNS1_14format_handlerINS1_15buffer_appenderIcEEcNS0_20basic_format_contextIS5_cEEEEcEE",
   "name" : "fmt::detail::id_adapter<fmt::detail::format_handler<fmt::detail::buffer_appender<char>, char, fmt::basic_format_context<fmt::detail::buffer_appender<char>, char>> &, char> *",
   "referenced_type" : "_ZTIN3fmt2v76detail10id_adapterIRNS1_14format_handlerINS1_15buffer_appenderIcEEcNS0_20basic_format_contextIS5_cEEEEcEE",
   "self_type" : "_ZTIPN3fmt2v76detail10id_adapterIRNS1_14format_handlerINS1_15buffer_appenderIcEEcNS0_20basic_format_contextIS5_cEEEEcEE",
   "size" : 4,
   "source_file" : "external/fmtlib/include/fmt/format.h"
  },
  {
   "alignment" : 4,
   "linker_set_key" : "_ZTIPN3fmt2v76detail10id_adapterIRNS1_14format_handlerINSt3__120back_insert_iteratorINS1_6bufferIcEEEEcNS0_20basic_format_contextIS8_cEEEEcEE",
   "name" : "fmt::detail::id_adapter<fmt::detail::format_handler<std::back_insert_iterator<fmt::detail::buffer<char>>, char, fmt::basic_format_context<std::back_insert_iterator<fmt::detail::buffer<char>>, char>> &, char> *",
   "referenced_type" : "_ZTIN3fmt2v76detail10id_adapterIRNS1_14format_handlerINSt3__120back_insert_iteratorINS1_6bufferIcEEEEcNS0_20basic_format_contextIS8_cEEEEcEE",
   "self_type" : "_ZTIPN3fmt2v76detail10id_adapterIRNS1_14format_handlerINSt3__120back_insert_iteratorINS1_6bufferIcEEEEcNS0_20basic_format_contextIS8_cEEEEcEE",
   "size" : 4,
   "source_file" : "external/fmtlib/include/fmt/format.h"
  },
  {
   "alignment" : 4,
   "linker_set_key" : "_ZTIPN3fmt2v76detail10int_writerINS1_15buffer_appenderIcEEcjEE",
   "name" : "fmt::detail::int_writer<fmt::detail::buffer_appender<char>, char, unsigned int> *",
   "referenced_type" : "_ZTIN3fmt2v76detail10int_writerINS1_15buffer_appenderIcEEcjEE",
   "self_type" : "_ZTIPN3fmt2v76detail10int_writerINS1_15buffer_appenderIcEEcjEE",
   "size" : 4,
   "source_file" : "external/fmtlib/include/fmt/format.h"
  },
  {
   "alignment" : 4,
   "linker_set_key" : "_ZTIPN3fmt2v76detail10int_writerINS1_15buffer_appenderIcEEcyEE",
   "name" : "fmt::detail::int_writer<fmt::detail::buffer_appender<char>, char, unsigned long long> *",
   "referenced_type" : "_ZTIN3fmt2v76detail10int_writerINS1_15buffer_appenderIcEEcyEE",
   "self_type" : "_ZTIPN3fmt2v76detail10int_writerINS1_15buffer_appenderIcEEcyEE",
   "size" : 4,
   "source_file" : "external/fmtlib/include/fmt/format.h"
  },
  {
   "alignment" : 4,
   "linker_set_key" : "_ZTIPN3fmt2v76detail10int_writerINSt3__120back_insert_iteratorINS1_6bufferIcEEEEcjEE",
   "name" : "fmt::detail::int_writer<std::back_insert_iterator<fmt::detail::buffer<char>>, char, unsigned int> *",
   "referenced_type" : "_ZTIN3fmt2v76detail10int_writerINSt3__120back_insert_iteratorINS1_6bufferIcEEEEcjEE",
   "self_type" : "_ZTIPN3fmt2v76detail10int_writerINSt3__120back_insert_iteratorINS1_6bufferIcEEEEcjEE",
   "size" : 4,
   "source_file" : "external/fmtlib/include/fmt/format.h"
  },
  {
   "alignment" : 4,
   "linker_set_key" : "_ZTIPN3fmt2v76detail10int_writerINSt3__120back_insert_iteratorINS1_6bufferIcEEEEcyEE",
   "name" : "fmt::detail::int_writer<std::back_insert_iterator<fmt::detail::buffer<char>>, char, unsigned long long> *",
   "referenced_type" : "_ZTIN3fmt2v76detail10int_writerINSt3__120back_insert_iteratorINS1_6bufferIcEEEEcyEE",
   "self_type" : "_ZTIPN3fmt2v76detail10int_writerINSt3__120back_insert_iteratorINS1_6bufferIcEEEEcyEE",
   "size" : 4,
   "source_file" : "external/fmtlib/include/fmt/format.h"
  },
  {
   "alignment" : 4,
   "linker_set_key" : "_ZTIPN3fmt2v76detail10locale_refE",
   "name" : "fmt::detail::locale_ref *",
   "referenced_type" : "_ZTIN3fmt2v76detail10locale_refE",
   "self_type" : "_ZTIPN3fmt2v76detail10locale_refE",
   "size" : 4,
   "source_file" : "external/fmtlib/include/fmt/core.h"
  },
  {
   "alignment" : 4,
   "linker_set_key" : "_ZTIPN3fmt2v76detail11accumulatorE",
   "name" : "fmt::detail::accumulator *",
   "referenced_type" : "_ZTIN3fmt2v76detail11accumulatorE",
   "self_type" : "_ZTIPN3fmt2v76detail11accumulatorE",
   "size" : 4,
   "source_file" : "external/fmtlib/include/fmt/format-inl.h"
  },
  {
   "alignment" : 4,
   "linker_set_key" : "_ZTIPN3fmt2v76detail12specs_setterIcEE",
   "name" : "fmt::detail::specs_setter<char> *",
   "referenced_type" : "_ZTIN3fmt2v76detail12specs_setterIcEE",
   "self_type" : "_ZTIPN3fmt2v76detail12specs_setterIcEE",
   "size" : 4,
   "source_file" : "external/fmtlib/include/fmt/format.h"
  },
  {
   "alignment" : 4,
   "linker_set_key" : "_ZTIPN3fmt2v76detail13arg_formatterINS1_15buffer_appenderIcEEcEE",
   "name" : "fmt::detail::arg_formatter<fmt::detail::buffer_appender<char>, char> *",
   "referenced_type" : "_ZTIN3fmt2v76detail13arg_formatterINS1_15buffer_appenderIcEEcEE",
   "self_type" : "_ZTIPN3fmt2v76detail13arg_formatterINS1_15buffer_appenderIcEEcEE",
   "size" : 4,
   "source_file" : "external/fmtlib/include/fmt/format.h"
  },
  {
   "alignment" : 4,
   "linker_set_key" : "_ZTIPN3fmt2v76detail13arg_formatterINSt3__120back_insert_iteratorINS1_6bufferIcEEEEcEE",
   "name" : "fmt::detail::arg_formatter<std::back_insert_iterator<fmt::detail::buffer<char>>, char> *",
   "referenced_type" : "_ZTIN3fmt2v76detail13arg_formatterINSt3__120back_insert_iteratorINS1_6bufferIcEEEEcEE",
   "self_type" : "_ZTIPN3fmt2v76detail13arg_formatterINSt3__120back_insert_iteratorINS1_6bufferIcEEEEcEE",
   "size" : 4,
   "source_file" : "external/fmtlib/include/fmt/format.h"
  },
  {
   "alignment" : 4,
   "linker_set_key" : "_ZTIPN3fmt2v76detail13buffer_traitsE",
   "name" : "fmt::detail::buffer_traits *",
   "referenced_type" : "_ZTIN3fmt2v76detail13buffer_traitsE",
   "self_type" : "_ZTIPN3fmt2v76detail13buffer_traitsE",
   "size" : 4,
   "source_file" : "external/fmtlib/include/fmt/core.h"
  },
  {
   "alignment" : 4,
   "linker_set_key" : "_ZTIPN3fmt2v76detail13error_handlerE",
   "name" : "fmt::detail::error_handler *",
   "referenced_type" : "_ZTIN3fmt2v76detail13error_handlerE",
   "self_type" : "_ZTIPN3fmt2v76detail13error_handlerE",
   "size" : 4,
   "source_file" : "external/fmtlib/include/fmt/core.h"
  },
  {
   "alignment" : 4,
   "linker_set_key" : "_ZTIPN3fmt2v76detail13fixed_handlerE",
   "name" : "fmt::detail::fixed_handler *",
   "referenced_type" : "_ZTIN3fmt2v76detail13fixed_handlerE",
   "self_type" : "_ZTIPN3fmt2v76detail13fixed_handlerE",
   "size" : 4,
   "source_file" : "external/fmtlib/include/fmt/format-inl.h"
  },
  {
   "alignment" : 4,
   "linker_set_key" : "_ZTIPN3fmt2v76detail13specs_checkerINS1_13specs_handlerINS0_26basic_format_parse_contextIcNS1_13error_handlerEEENS0_20basic_format_contextINS1_15buffer_appenderIcEEcEEEEEE",
   "name" : "fmt::detail::specs_checker<fmt::detail::specs_handler<fmt::basic_format_parse_context<char, fmt::detail::error_handler>, fmt::basic_format_context<fmt::detail::buffer_appender<char>, char>>> *",
   "referenced_type" : "_ZTIN3fmt2v76detail13specs_checkerINS1_13specs_handlerINS0_26basic_format_parse_contextIcNS1_13error_handlerEEENS0_20basic_format_contextINS1_15buffer_appenderIcEEcEEEEEE",
   "self_type" : "_ZTIPN3fmt2v76detail13specs_checkerINS1_13specs_handlerINS0_26basic_format_parse_contextIcNS1_13error_handlerEEENS0_20basic_format_contextINS1_15buffer_appenderIcEEcEEEEEE",
   "size" : 4,
   "source_file" : "external/fmtlib/include/fmt/format.h"
  },
  {
   "alignment" : 4,
   "linker_set_key" : "_ZTIPN3fmt2v76detail13specs_checkerINS1_13specs_handlerINS0_26basic_format_parse_contextIcNS1_13error_handlerEEENS0_20basic_format_contextINSt3__120back_insert_iteratorINS1_6bufferIcEEEEcEEEEEE",
   "name" : "fmt::detail::specs_checker<fmt::detail::specs_handler<fmt::basic_format_parse_context<char, fmt::detail::error_handler>, fmt::basic_format_context<std::back_insert_iterator<fmt::detail::buffer<char>>, char>>> *",
   "referenced_type" : "_ZTIN3fmt2v76detail13specs_checkerINS1_13specs_handlerINS0_26basic_format_parse_contextIcNS1_13error_handlerEEENS0_20basic_format_contextINSt3__120back_insert_iteratorINS1_6bufferIcEEEEcEEEEEE",
   "self_type" : "_ZTIPN3fmt2v76detail13specs_checkerINS1_13specs_handlerINS0_26basic_format_parse_contextIcNS1_13error_handlerEEENS0_20basic_format_contextINSt3__120back_insert_iteratorINS1_6bufferIcEEEEcEEEEEE",
   "size" : 4,
   "source_file" : "external/fmtlib/include/fmt/format.h"
  },
  {
   "alignment" : 4,
   "linker_set_key" : "_ZTIPN3fmt2v76detail13specs_handlerINS0_26basic_format_parse_contextIcNS1_13error_handlerEEENS0_20basic_format_contextINS1_15buffer_appenderIcEEcEEEE",
   "name" : "fmt::detail::specs_handler<fmt::basic_format_parse_context<char, fmt::detail::error_handler>, fmt::basic_format_context<fmt::detail::buffer_appender<char>, char>> *",
   "referenced_type" : "_ZTIN3fmt2v76detail13specs_handlerINS0_26basic_format_parse_contextIcNS1_13error_handlerEEENS0_20basic_format_contextINS1_15buffer_appenderIcEEcEEEE",
   "self_type" : "_ZTIPN3fmt2v76detail13specs_handlerINS0_26basic_format_parse_contextIcNS1_13error_handlerEEENS0_20basic_format_contextINS1_15buffer_appenderIcEEcEEEE",
   "size" : 4,
   "source_file" : "external/fmtlib/include/fmt/format.h"
  },
  {
   "alignment" : 4,
   "linker_set_key" : "_ZTIPN3fmt2v76detail13specs_handlerINS0_26basic_format_parse_contextIcNS1_13error_handlerEEENS0_20basic_format_contextINSt3__120back_insert_iteratorINS1_6bufferIcEEEEcEEEE",
   "name" : "fmt::detail::specs_handler<fmt::basic_format_parse_context<char, fmt::detail::error_handler>, fmt::basic_format_context<std::back_insert_iterator<fmt::detail::buffer<char>>, char>> *",
   "referenced_type" : "_ZTIN3fmt2v76detail13specs_handlerINS0_26basic_format_parse_contextIcNS1_13error_handlerEEENS0_20basic_format_contextINSt3__120back_insert_iteratorINS1_6bufferIcEEEEcEEEE",
   "self_type" : "_ZTIPN3fmt2v76detail13specs_handlerINS0_26basic_format_parse_contextIcNS1_13error_handlerEEENS0_20basic_format_contextINSt3__120back_insert_iteratorINS1_6bufferIcEEEEcEEEE",
   "size" : 4,
   "source_file" : "external/fmtlib/include/fmt/format.h"
  },
  {
   "alignment" : 4,
   "linker_set_key" : "_ZTIPN3fmt2v76detail13utf8_to_utf16E",
   "name" : "fmt::detail::utf8_to_utf16 *",
   "referenced_type" : "_ZTIN3fmt2v76detail13utf8_to_utf16E",
   "self_type" : "_ZTIPN3fmt2v76detail13utf8_to_utf16E",
   "size" : 4,
   "source_file" : "external/fmtlib/include/fmt/format.h"
  },
  {
   "alignment" : 4,
   "linker_set_key" : "_ZTIPN3fmt2v76detail13width_adapterIRNS1_13specs_checkerINS1_13specs_handlerINS0_26basic_format_parse_contextIcNS1_13error_handlerEEENS0_20basic_format_contextINS1_15buffer_appenderIcEEcEEEEEEcEE",
   "name" : "fmt::detail::width_adapter<fmt::detail::specs_checker<fmt::detail::specs_handler<fmt::basic_format_parse_context<char, fmt::detail::error_handler>, fmt::basic_format_context<fmt::detail::buffer_appender<char>, char>>> &, char> *",
   "referenced_type" : "_ZTIN3fmt2v76detail13width_adapterIRNS1_13specs_checkerINS1_13specs_handlerINS0_26basic_format_parse_contextIcNS1_13error_handlerEEENS0_20basic_format_contextINS1_15buffer_appenderIcEEcEEEEEEcEE",
   "self_type" : "_ZTIPN3fmt2v76detail13width_adapterIRNS1_13specs_checkerINS1_13specs_handlerINS0_26basic_format_parse_contextIcNS1_13error_handlerEEENS0_20basic_format_contextINS1_15buffer_appenderIcEEcEEEEEEcEE",
   "size" : 4,
   "source_file" : "external/fmtlib/include/fmt/format.h"
  },
  {
   "alignment" : 4,
   "linker_set_key" : "_ZTIPN3fmt2v76detail13width_adapterIRNS1_13specs_checkerINS1_13specs_handlerINS0_26basic_format_parse_contextIcNS1_13error_handlerEEENS0_20basic_format_contextINSt3__120back_insert_iteratorINS1_6bufferIcEEEEcEEEEEEcEE",
   "name" : "fmt::detail::width_adapter<fmt::detail::specs_checker<fmt::detail::specs_handler<fmt::basic_format_parse_context<char, fmt::detail::error_handler>, fmt::basic_format_context<std::back_insert_iterator<fmt::detail::buffer<char>>, char>>> &, char> *",
   "referenced_type" : "_ZTIN3fmt2v76detail13width_adapterIRNS1_13specs_checkerINS1_13specs_handlerINS0_26basic_format_parse_contextIcNS1_13error_handlerEEENS0_20basic_format_contextINSt3__120back_insert_iteratorINS1_6bufferIcEEEEcEEEEEEcEE",
   "self_type" : "_ZTIPN3fmt2v76detail13width_adapterIRNS1_13specs_checkerINS1_13specs_handlerINS0_26basic_format_parse_contextIcNS1_13error_handlerEEENS0_20basic_format_contextINSt3__120back_insert_iteratorINS1_6bufferIcEEEEcEEEEEEcEE",
   "size" : 4,
   "source_file" : "external/fmtlib/include/fmt/format.h"
  },
  {
   "alignment" : 4,
   "linker_set_key" : "_ZTIPN3fmt2v76detail13width_checkerINS1_13error_handlerEEE",
   "name" : "fmt::detail::width_checker<fmt::detail::error_handler> *",
   "referenced_type" : "_ZTIN3fmt2v76detail13width_checkerINS1_13error_handlerEEE",
   "self_type" : "_ZTIPN3fmt2v76detail13width_checkerINS1_13error_handlerEEE",
   "size" : 4,
   "source_file" : "external/fmtlib/include/fmt/format.h"
  },
  {
   "alignment" : 4,
   "linker_set_key" : "_ZTIPN3fmt2v76detail14format_handlerINS1_15buffer_appenderIcEEcNS0_20basic_format_contextIS4_cEEEE",
   "name" : "fmt::detail::format_handler<fmt::detail::buffer_appender<char>, char, fmt::basic_format_context<fmt::detail::buffer_appender<char>, char>> *",
   "referenced_type" : "_ZTIN3fmt2v76detail14format_handlerINS1_15buffer_appenderIcEEcNS0_20basic_format_contextIS4_cEEEE",
   "self_type" : "_ZTIPN3fmt2v76detail14format_handlerINS1_15buffer_appenderIcEEcNS0_20basic_format_contextIS4_cEEEE",
   "size" : 4,
   "source_file" : "external/fmtlib/include/fmt/format.h"
  },
  {
   "alignment" : 4,
   "linker_set_key" : "_ZTIPN3fmt2v76detail14format_handlerINSt3__120back_insert_iteratorINS1_6bufferIcEEEEcNS0_20basic_format_contextIS7_cEEEE",
   "name" : "fmt::detail::format_handler<std::back_insert_iterator<fmt::detail::buffer<char>>, char, fmt::basic_format_context<std::back_insert_iterator<fmt::detail::buffer<char>>, char>> *",
   "referenced_type" : "_ZTIN3fmt2v76detail14format_handlerINSt3__120back_insert_iteratorINS1_6bufferIcEEEEcNS0_20basic_format_contextIS7_cEEEE",
   "self_type" : "_ZTIPN3fmt2v76detail14format_handlerINSt3__120back_insert_iteratorINS1_6bufferIcEEEEcNS0_20basic_format_contextIS7_cEEEE",
   "size" : 4,
   "source_file" : "external/fmtlib/include/fmt/format.h"
  },
  {
   "alignment" : 4,
   "linker_set_key" : "_ZTIPN3fmt2v76detail14write_int_dataIcEE",
   "name" : "fmt::detail::write_int_data<char> *",
   "referenced_type" : "_ZTIN3fmt2v76detail14write_int_dataIcEE",
   "self_type" : "_ZTIPN3fmt2v76detail14write_int_dataIcEE",
   "size" : 4,
   "source_file" : "external/fmtlib/include/fmt/format.h"
  },
  {
   "alignment" : 4,
   "linker_set_key" : "_ZTIPN3fmt2v76detail15buffer_appenderIcEE",
   "name" : "fmt::detail::buffer_appender<char> *",
   "referenced_type" : "_ZTIN3fmt2v76detail15buffer_appenderIcEE",
   "self_type" : "_ZTIPN3fmt2v76detail15buffer_appenderIcEE",
   "size" : 4,
   "source_file" : "external/fmtlib/include/fmt/core.h"
  },
  {
   "alignment" : 4,
   "linker_set_key" : "_ZTIPN3fmt2v76detail15uint128_wrapperE",
   "name" : "fmt::detail::uint128_wrapper *",
   "referenced_type" : "_ZTIN3fmt2v76detail15uint128_wrapperE",
   "self_type" : "_ZTIPN3fmt2v76detail15uint128_wrapperE",
   "size" : 4,
   "source_file" : "external/fmtlib/include/fmt/format.h"
  },
  {
   "alignment" : 4,
   "linker_set_key" : "_ZTIPN3fmt2v76detail16custom_formatterINS0_20basic_format_contextINS1_15buffer_appenderIcEEcEEEE",
   "name" : "fmt::detail::custom_formatter<fmt::basic_format_context<fmt::detail::buffer_appender<char>, char>> *",
   "referenced_type" : "_ZTIN3fmt2v76detail16custom_formatterINS0_20basic_format_contextINS1_15buffer_appenderIcEEcEEEE",
   "self_type" : "_ZTIPN3fmt2v76detail16custom_formatterINS0_20basic_format_contextINS1_15buffer_appenderIcEEcEEEE",
   "size" : 4,
   "source_file" : "external/fmtlib/include/fmt/format.h"
  },
  {
   "alignment" : 4,
   "linker_set_key" : "_ZTIPN3fmt2v76detail16custom_formatterINS0_20basic_format_contextINSt3__120back_insert_iteratorINS1_6bufferIcEEEEcEEEE",
   "name" : "fmt::detail::custom_formatter<fmt::basic_format_context<std::back_insert_iterator<fmt::detail::buffer<char>>, char>> *",
   "referenced_type" : "_ZTIN3fmt2v76detail16custom_formatterINS0_20basic_format_contextINSt3__120back_insert_iteratorINS1_6bufferIcEEEEcEEEE",
   "self_type" : "_ZTIPN3fmt2v76detail16custom_formatterINS0_20basic_format_contextINSt3__120back_insert_iteratorINS1_6bufferIcEEEEcEEEE",
   "size" : 4,
   "source_file" : "external/fmtlib/include/fmt/format.h"
  },
  {
   "alignment" : 4,
   "linker_set_key" : "_ZTIPN3fmt2v76detail16dynamic_arg_list4nodeIvEE",
   "name" : "fmt::detail::dynamic_arg_list::node<void> *",
   "referenced_type" : "_ZTIN3fmt2v76detail16dynamic_arg_list4nodeIvEE",
   "self_type" : "_ZTIPN3fmt2v76detail16dynamic_arg_list4nodeIvEE",
   "size" : 4,
   "source_file" : "external/fmtlib/include/fmt/core.h"
  },
  {
   "alignment" : 4,
   "linker_set_key" : "_ZTIPN3fmt2v76detail16fallback_uintptrE",
   "name" : "fmt::detail::fallback_uintptr *",
   "referenced_type" : "_ZTIN3fmt2v76detail16fallback_uintptrE",
   "self_type" : "_ZTIPN3fmt2v76detail16fallback_uintptrE",
   "size" : 4,
   "source_file" : "external/fmtlib/include/fmt/format.h"
  },
  {
   "alignment" : 4,
   "linker_set_key" : "_ZTIPN3fmt2v76detail17counting_iteratorE",
   "name" : "fmt::detail::counting_iterator *",
   "referenced_type" : "_ZTIN3fmt2v76detail17counting_iteratorE",
   "self_type" : "_ZTIPN3fmt2v76detail17counting_iteratorE",
   "size" : 4,
   "source_file" : "external/fmtlib/include/fmt/format.h"
  },
  {
   "alignment" : 4,
   "linker_set_key" : "_ZTIPN3fmt2v76detail17precision_adapterIRNS1_13specs_checkerINS1_13specs_handlerINS0_26basic_format_parse_contextIcNS1_13error_handlerEEENS0_20basic_format_contextINS1_15buffer_appenderIcEEcEEEEEEcEE",
   "name" : "fmt::detail::precision_adapter<fmt::detail::specs_checker<fmt::detail::specs_handler<fmt::basic_format_parse_context<char, fmt::detail::error_handler>, fmt::basic_format_context<fmt::detail::buffer_appender<char>, char>>> &, char> *",
   "referenced_type" : "_ZTIN3fmt2v76detail17precision_adapterIRNS1_13specs_checkerINS1_13specs_handlerINS0_26basic_format_parse_contextIcNS1_13error_handlerEEENS0_20basic_format_contextINS1_15buffer_appenderIcEEcEEEEEEcEE",
   "self_type" : "_ZTIPN3fmt2v76detail17precision_adapterIRNS1_13specs_checkerINS1_13specs_handlerINS0_26basic_format_parse_contextIcNS1_13error_handlerEEENS0_20basic_format_contextINS1_15buffer_appenderIcEEcEEEEEEcEE",
   "size" : 4,
   "source_file" : "external/fmtlib/include/fmt/format.h"
  },
  {
   "alignment" : 4,
   "linker_set_key" : "_ZTIPN3fmt2v76detail17precision_adapterIRNS1_13specs_checkerINS1_13specs_handlerINS0_26basic_format_parse_contextIcNS1_13error_handlerEEENS0_20basic_format_contextINSt3__120back_insert_iteratorINS1_6bufferIcEEEEcEEEEEEcEE",
   "name" : "fmt::detail::precision_adapter<fmt::detail::specs_checker<fmt::detail::specs_handler<fmt::basic_format_parse_context<char, fmt::detail::error_handler>, fmt::basic_format_context<std::back_insert_iterator<fmt::detail::buffer<char>>, char>>> &, char> *",
   "referenced_type" : "_ZTIN3fmt2v76detail17precision_adapterIRNS1_13specs_checkerINS1_13specs_handlerINS0_26basic_format_parse_contextIcNS1_13error_handlerEEENS0_20basic_format_contextINSt3__120back_insert_iteratorINS1_6bufferIcEEEEcEEEEEEcEE",
   "self_type" : "_ZTIPN3fmt2v76detail17precision_adapterIRNS1_13specs_checkerINS1_13specs_handlerINS0_26basic_format_parse_contextIcNS1_13error_handlerEEENS0_20basic_format_contextINSt3__120back_insert_iteratorINS1_6bufferIcEEEEcEEEEEEcEE",
   "size" : 4,
   "source_file" : "external/fmtlib/include/fmt/format.h"
  },
  {
   "alignment" : 4,
   "linker_set_key" : "_ZTIPN3fmt2v76detail17precision_checkerINS1_13error_handlerEEE",
   "name" : "fmt::detail::precision_checker<fmt::detail::error_handler> *",
   "referenced_type" : "_ZTIN3fmt2v76detail17precision_checkerINS1_13error_handlerEEE",
   "self_type" : "_ZTIPN3fmt2v76detail17precision_checkerINS1_13error_handlerEEE",
   "size" : 4,
   "source_file" : "external/fmtlib/include/fmt/format.h"
  },
  {
   "alignment" : 4,
   "linker_set_key" : "_ZTIPN3fmt2v76detail18arg_formatter_baseINS1_15buffer_appenderIcEEcNS1_13error_handlerEE17char_spec_handlerE",
   "name" : "fmt::detail::arg_formatter_base<buffer_appender<char>, char, error_handler>::char_spec_handler *",
   "referenced_type" : "_ZTIN3fmt2v76detail18arg_formatter_baseINS1_15buffer_appenderIcEEcNS1_13error_handlerEE17char_spec_handlerE",
   "self_type" : "_ZTIPN3fmt2v76detail18arg_formatter_baseINS1_15buffer_appenderIcEEcNS1_13error_handlerEE17char_spec_handlerE",
   "size" : 4,
   "source_file" : "external/fmtlib/include/fmt/format.h"
  },
  {
   "alignment" : 4,
   "linker_set_key" : "_ZTIPN3fmt2v76detail18arg_formatter_baseINS1_15buffer_appenderIcEEcNS1_13error_handlerEE20cstring_spec_handlerE",
   "name" : "fmt::detail::arg_formatter_base<buffer_appender<char>, char, error_handler>::cstring_spec_handler *",
   "referenced_type" : "_ZTIN3fmt2v76detail18arg_formatter_baseINS1_15buffer_appenderIcEEcNS1_13error_handlerEE20cstring_spec_handlerE",
   "self_type" : "_ZTIPN3fmt2v76detail18arg_formatter_baseINS1_15buffer_appenderIcEEcNS1_13error_handlerEE20cstring_spec_handlerE",
   "size" : 4,
   "source_file" : "external/fmtlib/include/fmt/format.h"
  },
  {
   "alignment" : 4,
   "linker_set_key" : "_ZTIPN3fmt2v76detail18arg_formatter_baseINS1_15buffer_appenderIcEEcNS1_13error_handlerEEE",
   "name" : "fmt::detail::arg_formatter_base<fmt::detail::buffer_appender<char>, char, fmt::detail::error_handler> *",
   "referenced_type" : "_ZTIN3fmt2v76detail18arg_formatter_baseINS1_15buffer_appenderIcEEcNS1_13error_handlerEEE",
   "self_type" : "_ZTIPN3fmt2v76detail18arg_formatter_baseINS1_15buffer_appenderIcEEcNS1_13error_handlerEEE",
   "size" : 4,
   "source_file" : "external/fmtlib/include/fmt/format.h"
  },
  {
   "alignment" : 4,
   "linker_set_key" : "_ZTIPN3fmt2v76detail18arg_formatter_baseINSt3__120back_insert_iteratorINS1_6bufferIcEEEEcNS1_13error_handlerEE17char_spec_handlerE",
   "name" : "fmt::detail::arg_formatter_base<back_insert_iterator<buffer<char>>, char, error_handler>::char_spec_handler *",
   "referenced_type" : "_ZTIN3fmt2v76detail18arg_formatter_baseINSt3__120back_insert_iteratorINS1_6bufferIcEEEEcNS1_13error_handlerEE17char_spec_handlerE",
   "self_type" : "_ZTIPN3fmt2v76detail18arg_formatter_baseINSt3__120back_insert_iteratorINS1_6bufferIcEEEEcNS1_13error_handlerEE17char_spec_handlerE",
   "size" : 4,
   "source_file" : "external/fmtlib/include/fmt/format.h"
  },
  {
   "alignment" : 4,
   "linker_set_key" : "_ZTIPN3fmt2v76detail18arg_formatter_baseINSt3__120back_insert_iteratorINS1_6bufferIcEEEEcNS1_13error_handlerEE20cstring_spec_handlerE",
   "name" : "fmt::detail::arg_formatter_base<back_insert_iterator<buffer<char>>, char, error_handler>::cstring_spec_handler *",
   "referenced_type" : "_ZTIN3fmt2v76detail18arg_formatter_baseINSt3__120back_insert_iteratorINS1_6bufferIcEEEEcNS1_13error_handlerEE20cstring_spec_handlerE",
   "self_type" : "_ZTIPN3fmt2v76detail18arg_formatter_baseINSt3__120back_insert_iteratorINS1_6bufferIcEEEEcNS1_13error_handlerEE20cstring_spec_handlerE",
   "size" : 4,
   "source_file" : "external/fmtlib/include/fmt/format.h"
  },
  {
   "alignment" : 4,
   "linker_set_key" : "_ZTIPN3fmt2v76detail18arg_formatter_baseINSt3__120back_insert_iteratorINS1_6bufferIcEEEEcNS1_13error_handlerEEE",
   "name" : "fmt::detail::arg_formatter_base<std::back_insert_iterator<fmt::detail::buffer<char>>, char, fmt::detail::error_handler> *",
   "referenced_type" : "_ZTIN3fmt2v76detail18arg_formatter_baseINSt3__120back_insert_iteratorINS1_6bufferIcEEEEcNS1_13error_handlerEEE",
   "self_type" : "_ZTIPN3fmt2v76detail18arg_formatter_baseINSt3__120back_insert_iteratorINS1_6bufferIcEEEEcNS1_13error_handlerEEE",
   "size" : 4,
   "source_file" : "external/fmtlib/include/fmt/format.h"
  },
  {
   "alignment" : 4,
   "linker_set_key" : "_ZTIPN3fmt2v76detail19fixed_buffer_traitsE",
   "name" : "fmt::detail::fixed_buffer_traits *",
   "referenced_type" : "_ZTIN3fmt2v76detail19fixed_buffer_traitsE",
   "self_type" : "_ZTIPN3fmt2v76detail19fixed_buffer_traitsE",
   "size" : 4,
   "source_file" : "external/fmtlib/include/fmt/core.h"
  },
  {
   "alignment" : 4,
   "linker_set_key" : "_ZTIPN3fmt2v76detail21default_arg_formatterINS1_15buffer_appenderIcEEcEE",
   "name" : "fmt::detail::default_arg_formatter<fmt::detail::buffer_appender<char>, char> *",
   "referenced_type" : "_ZTIN3fmt2v76detail21default_arg_formatterINS1_15buffer_appenderIcEEcEE",
   "self_type" : "_ZTIPN3fmt2v76detail21default_arg_formatterINS1_15buffer_appenderIcEEcEE",
   "size" : 4,
   "source_file" : "external/fmtlib/include/fmt/format.h"
  },
  {
   "alignment" : 4,
   "linker_set_key" : "_ZTIPN3fmt2v76detail21default_arg_formatterINSt3__120back_insert_iteratorINS1_6bufferIcEEEEcEE",
   "name" : "fmt::detail::default_arg_formatter<std::back_insert_iterator<fmt::detail::buffer<char>>, char> *",
   "referenced_type" : "_ZTIN3fmt2v76detail21default_arg_formatterINSt3__120back_insert_iteratorINS1_6bufferIcEEEEcEE",
   "self_type" : "_ZTIPN3fmt2v76detail21default_arg_formatterINSt3__120back_insert_iteratorINS1_6bufferIcEEEEcEE",
   "size" : 4,
   "source_file" : "external/fmtlib/include/fmt/format.h"
  },
  {
   "alignment" : 4,
   "linker_set_key" : "_ZTIPN3fmt2v76detail21numeric_specs_checkerINS1_13specs_handlerINS0_26basic_format_parse_contextIcNS1_13error_handlerEEENS0_20basic_format_contextINS1_15buffer_appenderIcEEcEEEEEE",
   "name" : "fmt::detail::numeric_specs_checker<fmt::detail::specs_handler<fmt::basic_format_parse_context<char, fmt::detail::error_handler>, fmt::basic_format_context<fmt::detail::buffer_appender<char>, char>>> *",
   "referenced_type" : "_ZTIN3fmt2v76detail21numeric_specs_checkerINS1_13specs_handlerINS0_26basic_format_parse_contextIcNS1_13error_handlerEEENS0_20basic_format_contextINS1_15buffer_appenderIcEEcEEEEEE",
   "self_type" : "_ZTIPN3fmt2v76detail21numeric_specs_checkerINS1_13specs_handlerINS0_26basic_format_parse_contextIcNS1_13error_handlerEEENS0_20basic_format_contextINS1_15buffer_appenderIcEEcEEEEEE",
   "size" : 4,
   "source_file" : "external/fmtlib/include/fmt/format.h"
  },
  {
   "alignment" : 4,
   "linker_set_key" : "_ZTIPN3fmt2v76detail21numeric_specs_checkerINS1_13specs_handlerINS0_26basic_format_parse_contextIcNS1_13error_handlerEEENS0_20basic_format_contextINSt3__120back_insert_iteratorINS1_6bufferIcEEEEcEEEEEE",
   "name" : "fmt::detail::numeric_specs_checker<fmt::detail::specs_handler<fmt::basic_format_parse_context<char, fmt::detail::error_handler>, fmt::basic_format_context<std::back_insert_iterator<fmt::detail::buffer<char>>, char>>> *",
   "referenced_type" : "_ZTIN3fmt2v76detail21numeric_specs_checkerINS1_13specs_handlerINS0_26basic_format_parse_contextIcNS1_13error_handlerEEENS0_20basic_format_contextINSt3__120back_insert_iteratorINS1_6bufferIcEEEEcEEEEEE",
   "self_type" : "_ZTIPN3fmt2v76detail21numeric_specs_checkerINS1_13specs_handlerINS0_26basic_format_parse_contextIcNS1_13error_handlerEEENS0_20basic_format_contextINSt3__120back_insert_iteratorINS1_6bufferIcEEEEcEEEEEE",
   "size" : 4,
   "source_file" : "external/fmtlib/include/fmt/format.h"
  },
  {
   "alignment" : 4,
   "linker_set_key" : "_ZTIPN3fmt2v76detail2fpE",
   "name" : "fmt::detail::fp *",
   "referenced_type" : "_ZTIN3fmt2v76detail2fpE",
   "self_type" : "_ZTIPN3fmt2v76detail2fpE",
   "size" : 4,
   "source_file" : "external/fmtlib/include/fmt/format-inl.h"
  },
  {
   "alignment" : 4,
   "linker_set_key" : "_ZTIPN3fmt2v76detail5valueINS0_20basic_format_contextINS1_15buffer_appenderIcEEcEEEE",
   "name" : "fmt::detail::value<fmt::basic_format_context<fmt::detail::buffer_appender<char>, char>> *",
   "referenced_type" : "_ZTIN3fmt2v76detail5valueINS0_20basic_format_contextINS1_15buffer_appenderIcEEcEEEE",
   "self_type" : "_ZTIPN3fmt2v76detail5valueINS0_20basic_format_contextINS1_15buffer_appenderIcEEcEEEE",
   "size" : 4,
   "source_file" : "external/fmtlib/include/fmt/core.h"
  },
  {
   "alignment" : 4,
   "linker_set_key" : "_ZTIPN3fmt2v76detail5valueINS0_20basic_format_contextINSt3__120back_insert_iteratorINS1_6bufferIcEEEEcEEEE",
   "name" : "fmt::detail::value<fmt::basic_format_context<std::back_insert_iterator<fmt::detail::buffer<char>>, char>> *",
   "referenced_type" : "_ZTIN3fmt2v76detail5valueINS0_20basic_format_contextINSt3__120back_insert_iteratorINS1_6bufferIcEEEEcEEEE",
   "self_type" : "_ZTIPN3fmt2v76detail5valueINS0_20basic_format_contextINSt3__120back_insert_iteratorINS1_6bufferIcEEEEcEEEE",
   "size" : 4,
   "source_file" : "external/fmtlib/include/fmt/core.h"
  },
  {
   "alignment" : 4,
   "linker_set_key" : "_ZTIPN3fmt2v76detail6bigintE",
   "name" : "fmt::detail::bigint *",
   "referenced_type" : "_ZTIN3fmt2v76detail6bigintE",
   "self_type" : "_ZTIPN3fmt2v76detail6bigintE",
   "size" : 4,
   "source_file" : "external/fmtlib/include/fmt/format-inl.h"
  },
  {
   "alignment" : 4,
   "linker_set_key" : "_ZTIPN3fmt2v76detail6bufferIcEE",
   "name" : "fmt::detail::buffer<char> *",
   "referenced_type" : "_ZTIN3fmt2v76detail6bufferIcEE",
   "self_type" : "_ZTIPN3fmt2v76detail6bufferIcEE",
   "size" : 4,
   "source_file" : "external/fmtlib/include/fmt/core.h"
  },
  {
   "alignment" : 4,
   "linker_set_key" : "_ZTIPN3fmt2v76detail6bufferIjEE",
   "name" : "fmt::detail::buffer<unsigned int> *",
   "referenced_type" : "_ZTIN3fmt2v76detail6bufferIjEE",
   "self_type" : "_ZTIPN3fmt2v76detail6bufferIjEE",
   "size" : 4,
   "source_file" : "external/fmtlib/include/fmt/core.h"
  },
  {
   "alignment" : 4,
   "linker_set_key" : "_ZTIPN3fmt2v76detail6bufferIwEE",
   "name" : "fmt::detail::buffer<wchar_t> *",
   "referenced_type" : "_ZTIN3fmt2v76detail6bufferIwEE",
   "self_type" : "_ZTIPN3fmt2v76detail6bufferIwEE",
   "size" : 4,
   "source_file" : "external/fmtlib/include/fmt/core.h"
  },
  {
   "alignment" : 4,
   "linker_set_key" : "_ZTIPN3fmt2v76detail6fill_tIcEE",
   "name" : "fmt::detail::fill_t<char> *",
   "referenced_type" : "_ZTIN3fmt2v76detail6fill_tIcEE",
   "self_type" : "_ZTIPN3fmt2v76detail6fill_tIcEE",
   "size" : 4,
   "source_file" : "external/fmtlib/include/fmt/format.h"
  },
  {
   "alignment" : 4,
   "linker_set_key" : "_ZTIPN3fmt2v76detail8arg_dataINS1_5valueINS0_20basic_format_contextINS1_15buffer_appenderIcEEcEEEEcLj1ELj0EEE",
   "name" : "fmt::detail::arg_data<fmt::detail::value<fmt::basic_format_context<fmt::detail::buffer_appender<char>, char>>, char, 1, 0> *",
   "referenced_type" : "_ZTIN3fmt2v76detail8arg_dataINS1_5valueINS0_20basic_format_contextINS1_15buffer_appenderIcEEcEEEEcLj1ELj0EEE",
   "self_type" : "_ZTIPN3fmt2v76detail8arg_dataINS1_5valueINS0_20basic_format_contextINS1_15buffer_appenderIcEEcEEEEcLj1ELj0EEE",
   "size" : 4,
   "source_file" : "external/fmtlib/include/fmt/core.h"
  },
  {
   "alignment" : 4,
   "linker_set_key" : "_ZTIPN3fmt2v76detail8arg_dataINS1_5valueINS0_20basic_format_contextINS1_15buffer_appenderIcEEcEEEEcLj2ELj0EEE",
   "name" : "fmt::detail::arg_data<fmt::detail::value<fmt::basic_format_context<fmt::detail::buffer_appender<char>, char>>, char, 2, 0> *",
   "referenced_type" : "_ZTIN3fmt2v76detail8arg_dataINS1_5valueINS0_20basic_format_contextINS1_15buffer_appenderIcEEcEEEEcLj2ELj0EEE",
   "self_type" : "_ZTIPN3fmt2v76detail8arg_dataINS1_5valueINS0_20basic_format_contextINS1_15buffer_appenderIcEEcEEEEcLj2ELj0EEE",
   "size" : 4,
   "source_file" : "external/fmtlib/include/fmt/core.h"
  },
  {
   "alignment" : 4,
   "linker_set_key" : "_ZTIPN3fmt2v79formatterINS0_17basic_string_viewIcEEcvEE",
   "name" : "fmt::formatter<fmt::basic_string_view<char>, char, void> *",
   "referenced_type" : "_ZTIN3fmt2v79formatterINS0_17basic_string_viewIcEEcvEE",
   "self_type" : "_ZTIPN3fmt2v79formatterINS0_17basic_string_viewIcEEcvEE",
   "size" : 4,
   "source_file" : "external/fmtlib/include/fmt/format.h"
  },
  {
   "alignment" : 4,
   "linker_set_key" : "_ZTIPN3fmt2v79formatterINS0_6detail6bigintEcvEE",
   "name" : "fmt::formatter<fmt::detail::bigint, char, void> *",
   "referenced_type" : "_ZTIN3fmt2v79formatterINS0_6detail6bigintEcvEE",
   "self_type" : "_ZTIPN3fmt2v79formatterINS0_6detail6bigintEcvEE",
   "size" : 4,
   "source_file" : "external/fmtlib/include/fmt/format-inl.h"
  },
  {
   "alignment" : 4,
   "linker_set_key" : "_ZTIPN3fmt2v79formatterIPKccvEE",
   "name" : "fmt::formatter<const char *, char, void> *",
   "referenced_type" : "_ZTIN3fmt2v79formatterIPKccvEE",
   "self_type" : "_ZTIPN3fmt2v79formatterIPKccvEE",
   "size" : 4,
   "source_file" : "external/fmtlib/include/fmt/format.h"
  },
  {
   "alignment" : 4,
   "linker_set_key" : "_ZTIPN3fmt2v79formatterIPKvcvEE",
   "name" : "fmt::formatter<const void *, char, void> *",
   "referenced_type" : "_ZTIN3fmt2v79formatterIPKvcvEE",
   "self_type" : "_ZTIPN3fmt2v79formatterIPKvcvEE",
   "size" : 4,
   "source_file" : "external/fmtlib/include/fmt/format.h"
  },
  {
   "alignment" : 4,
   "linker_set_key" : "_ZTIPN3fmt2v79formatterIbcvEE",
   "name" : "fmt::formatter<bool, char, void> *",
   "referenced_type" : "_ZTIN3fmt2v79formatterIbcvEE",
   "self_type" : "_ZTIPN3fmt2v79formatterIbcvEE",
   "size" : 4,
   "source_file" : "external/fmtlib/include/fmt/format.h"
  },
  {
   "alignment" : 4,
   "linker_set_key" : "_ZTIPN3fmt2v79formatterIccvEE",
   "name" : "fmt::formatter<char, char, void> *",
   "referenced_type" : "_ZTIN3fmt2v79formatterIccvEE",
   "self_type" : "_ZTIPN3fmt2v79formatterIccvEE",
   "size" : 4,
   "source_file" : "external/fmtlib/include/fmt/format.h"
  },
  {
   "alignment" : 4,
   "linker_set_key" : "_ZTIPN3fmt2v79formatterIdcvEE",
   "name" : "fmt::formatter<double, char, void> *",
   "referenced_type" : "_ZTIN3fmt2v79formatterIdcvEE",
   "self_type" : "_ZTIPN3fmt2v79formatterIdcvEE",
   "size" : 4,
   "source_file" : "external/fmtlib/include/fmt/format.h"
  },
  {
   "alignment" : 4,
   "linker_set_key" : "_ZTIPN3fmt2v79formatterIecvEE",
   "name" : "fmt::formatter<long double, char, void> *",
   "referenced_type" : "_ZTIN3fmt2v79formatterIecvEE",
   "self_type" : "_ZTIPN3fmt2v79formatterIecvEE",
   "size" : 4,
   "source_file" : "external/fmtlib/include/fmt/format.h"
  },
  {
   "alignment" : 4,
   "linker_set_key" : "_ZTIPN3fmt2v79formatterIfcvEE",
   "name" : "fmt::formatter<float, char, void> *",
   "referenced_type" : "_ZTIN3fmt2v79formatterIfcvEE",
   "self_type" : "_ZTIPN3fmt2v79formatterIfcvEE",
   "size" : 4,
   "source_file" : "external/fmtlib/include/fmt/format.h"
  },
  {
   "alignment" : 4,
   "linker_set_key" : "_ZTIPN3fmt2v79formatterIicvEE",
   "name" : "fmt::formatter<int, char, void> *",
   "referenced_type" : "_ZTIN3fmt2v79formatterIicvEE",
   "self_type" : "_ZTIPN3fmt2v79formatterIicvEE",
   "size" : 4,
   "source_file" : "external/fmtlib/include/fmt/format.h"
  },
  {
   "alignment" : 4,
   "linker_set_key" : "_ZTIPN3fmt2v79formatterIjcvEE",
   "name" : "fmt::formatter<unsigned int, char, void> *",
   "referenced_type" : "_ZTIN3fmt2v79formatterIjcvEE",
   "self_type" : "_ZTIPN3fmt2v79formatterIjcvEE",
   "size" : 4,
   "source_file" : "external/fmtlib/include/fmt/format.h"
  },
  {
   "alignment" : 4,
   "linker_set_key" : "_ZTIPN3fmt2v79formatterIxcvEE",
   "name" : "fmt::formatter<long long, char, void> *",
   "referenced_type" : "_ZTIN3fmt2v79formatterIxcvEE",
   "self_type" : "_ZTIPN3fmt2v79formatterIxcvEE",
   "size" : 4,
   "source_file" : "external/fmtlib/include/fmt/format.h"
  },
  {
   "alignment" : 4,
   "linker_set_key" : "_ZTIPN3fmt2v79formatterIycvEE",
   "name" : "fmt::formatter<unsigned long long, char, void> *",
   "referenced_type" : "_ZTIN3fmt2v79formatterIycvEE",
   "self_type" : "_ZTIPN3fmt2v79formatterIycvEE",
   "size" : 4,
   "source_file" : "external/fmtlib/include/fmt/format.h"
  },
  {
   "alignment" : 4,
   "linker_set_key" : "_ZTIPN7android4base10LogMessageE",
   "name" : "android::base::LogMessage *",
   "referenced_type" : "_ZTIN7android4base10LogMessageE",
   "self_type" : "_ZTIPN7android4base10LogMessageE",
   "size" : 4,
   "source_file" : "system/libbase/include/android-base/logging.h"
  },
  {
   "alignment" : 4,
   "linker_set_key" : "_ZTIPN7android4base10LogdLoggerE",
   "name" : "android::base::LogdLogger *",
   "referenced_type" : "_ZTIN7android4base10LogdLoggerE",
   "self_type" : "_ZTIPN7android4base10LogdLoggerE",
   "size" : 4,
   "source_file" : "system/libbase/include/android-base/logging.h"
  },
  {
   "alignment" : 4,
   "linker_set_key" : "_ZTIPN7android4base10MappedFileE",
   "name" : "android::base::MappedFile *",
   "referenced_type" : "_ZTIN7android4base10MappedFileE",
   "self_type" : "_ZTIPN7android4base10MappedFileE",
   "size" : 4,
   "source_file" : "system/libbase/include/android-base/mapped_file.h"
  },
  {
   "alignment" : 4,
   "linker_set_key" : "_ZTIPN7android4base10log_detail14EagerEvaluatorIiiEE",
   "name" : "android::base::log_detail::EagerEvaluator<int, int> *",
   "referenced_type" : "_ZTIN7android4base10log_detail14EagerEvaluatorIiiEE",
   "self_type" : "_ZTIPN7android4base10log_detail14EagerEvaluatorIiiEE",
   "size" : 4,
   "source_file" : "system/libbase/include/android-base/logging.h"
  },
  {
   "alignment" : 4,
   "linker_set_key" : "_ZTIPN7android4base10log_detail14EagerEvaluatorIixEE",
   "name" : "android::base::log_detail::EagerEvaluator<int, long long> *",
   "referenced_type" : "_ZTIN7android4base10log_detail14EagerEvaluatorIixEE",
   "self_type" : "_ZTIPN7android4base10log_detail14EagerEvaluatorIixEE",
   "size" : 4,
   "source_file" : "system/libbase/include/android-base/logging.h"
  },
  {
   "alignment" : 4,
   "linker_set_key" : "_ZTIPN7android4base10log_detail7StorageIiEE",
   "name" : "android::base::log_detail::Storage<int> *",
   "referenced_type" : "_ZTIN7android4base10log_detail7StorageIiEE",
   "self_type" : "_ZTIPN7android4base10log_detail7StorageIiEE",
   "size" : 4,
   "source_file" : "system/libbase/include/android-base/logging.h"
  },
  {
   "alignment" : 4,
   "linker_set_key" : "_ZTIPN7android4base10log_detail7StorageIxEE",
   "name" : "android::base::log_detail::Storage<long long> *",
   "referenced_type" : "_ZTIN7android4base10log_detail7StorageIxEE",
   "self_type" : "_ZTIPN7android4base10log_detail7StorageIxEE",
   "size" : 4,
   "source_file" : "system/libbase/include/android-base/logging.h"
  },
  {
   "alignment" : 4,
   "linker_set_key" : "_ZTIPN7android4base11borrowed_fdE",
   "name" : "android::base::borrowed_fd *",
   "referenced_type" : "_ZTIN7android4base11borrowed_fdE",
   "self_type" : "_ZTIPN7android4base11borrowed_fdE",
   "size" : 4,
   "source_file" : "system/libbase/include/android-base/unique_fd.h"
  },
  {
   "alignment" : 4,
   "linker_set_key" : "_ZTIPN7android4base13ErrnoRestorerE",
   "name" : "android::base::ErrnoRestorer *",
   "referenced_type" : "_ZTIN7android4base13ErrnoRestorerE",
   "self_type" : "_ZTIPN7android4base13ErrnoRestorerE",
   "size" : 4,
   "source_file" : "system/libbase/include/android-base/errno_restorer.h"
  },
  {
   "alignment" : 4,
   "linker_set_key" : "_ZTIPN7android4base14CachedPropertyE",
   "name" : "android::base::CachedProperty *",
   "referenced_type" : "_ZTIN7android4base14CachedPropertyE",
   "self_type" : "_ZTIPN7android4base14CachedPropertyE",
   "size" : 4,
   "source_file" : "system/libbase/include/android-base/properties.h"
  },
  {
   "alignment" : 4,
   "linker_set_key" : "_ZTIPN7android4base14unique_fd_implINS0_13DefaultCloserEEE",
   "name" : "android::base::unique_fd_impl<android::base::DefaultCloser> *",
   "referenced_type" : "_ZTIN7android4base14unique_fd_implINS0_13DefaultCloserEEE",
   "self_type" : "_ZTIPN7android4base14unique_fd_implINS0_13DefaultCloserEEE",
   "size" : 4,
   "source_file" : "system/libbase/include/android-base/unique_fd.h"
  },
  {
   "alignment" : 4,
   "linker_set_key" : "_ZTIPN7android4base17ScopedLogSeverityE",
   "name" : "android::base::ScopedLogSeverity *",
   "referenced_type" : "_ZTIN7android4base17ScopedLogSeverityE",
   "self_type" : "_ZTIPN7android4base17ScopedLogSeverityE",
   "size" : 4,
   "source_file" : "system/libbase/include/android-base/logging.h"
  },
  {
   "alignment" : 4,
   "linker_set_key" : "_ZTIPN7android4base5TimerE",
   "name" : "android::base::Timer *",
   "referenced_type" : "_ZTIN7android4base5TimerE",
   "self_type" : "_ZTIPN7android4base5TimerE",
   "size" : 4,
   "source_file" : "system/libbase/include/android-base/chrono_utils.h"
  },
  {
   "alignment" : 4,
   "linker_set_key" : "_ZTIPN7android4base7AllPids11PidIteratorE",
   "name" : "android::base::AllPids::PidIterator *",
   "referenced_type" : "_ZTIN7android4base7AllPids11PidIteratorE",
   "self_type" : "_ZTIPN7android4base7AllPids11PidIteratorE",
   "size" : 4,
   "source_file" : "system/libbase/include/android-base/process.h"
  },
  {
   "alignment" : 4,
   "linker_set_key" : "_ZTIPN7android4base7AllPidsE",
   "name" : "android::base::AllPids *",
   "referenced_type" : "_ZTIN7android4base7AllPidsE",
   "self_type" : "_ZTIPN7android4base7AllPidsE",
   "size" : 4,
   "source_file" : "system/libbase/include/android-base/process.h"
  },
  {
   "alignment" : 4,
   "linker_set_key" : "_ZTIPNSt3__112basic_stringIcNS_11char_traitsIcEENS_9allocatorIcEEEE",
   "name" : "std::basic_string<char, std::char_traits<char>, std::allocator<char>> *",
   "referenced_type" : "_ZTINSt3__112basic_stringIcNS_11char_traitsIcEENS_9allocatorIcEEEE",
   "self_type" : "_ZTIPNSt3__112basic_stringIcNS_11char_traitsIcEENS_9allocatorIcEEEE",
   "size" : 4,
   "source_file" : "system/libbase/include/android-base/file.h"
  },
  {
   "alignment" : 4,
   "linker_set_key" : "_ZTIPNSt3__117basic_string_viewIcNS_11char_traitsIcEEEE",
   "name" : "std::basic_string_view<char, std::char_traits<char>> *",
   "referenced_type" : "_ZTINSt3__117basic_string_viewIcNS_11char_traitsIcEEEE",
   "self_type" : "_ZTIPNSt3__117basic_string_viewIcNS_11char_traitsIcEEEE",
   "size" : 4,
   "source_file" : "system/libbase/include/android-base/strings.h"
  },
  {
   "alignment" : 4,
   "linker_set_key" : "_ZTIPNSt3__16vectorIN7android4base14unique_fd_implINS2_13DefaultCloserEEENS_9allocatorIS5_EEEE",
   "name" : "std::vector<android::base::unique_fd_impl<android::base::DefaultCloser>, std::allocator<android::base::unique_fd_impl<android::base::DefaultCloser>>> *",
   "referenced_type" : "_ZTINSt3__16vectorIN7android4base14unique_fd_implINS2_13DefaultCloserEEENS_9allocatorIS5_EEEE",
   "self_type" : "_ZTIPNSt3__16vectorIN7android4base14unique_fd_implINS2_13DefaultCloserEEENS_9allocatorIS5_EEEE",
   "size" : 4,
   "source_file" : "system/libbase/include/android-base/cmsg.h"
  },
  {
   "alignment" : 4,
   "linker_set_key" : "_ZTIPPc",
   "name" : "char **",
   "referenced_type" : "_ZTIPc",
   "self_type" : "_ZTIPPc",
   "size" : 4,
   "source_file" : "system/libbase/include/android-base/logging.h"
  },
  {
   "alignment" : 4,
   "linker_set_key" : "_ZTIPa",
   "name" : "signed char *",
   "referenced_type" : "_ZTIa",
   "self_type" : "_ZTIPa",
   "size" : 4,
   "source_file" : "system/libbase/include/android-base/parseint.h"
  },
  {
   "alignment" : 4,
   "linker_set_key" : "_ZTIPb",
   "name" : "bool *",
   "referenced_type" : "_ZTIb",
   "self_type" : "_ZTIPb",
   "size" : 4,
   "source_file" : "system/libbase/include/android-base/properties.h"
  },
  {
   "alignment" : 4,
   "linker_set_key" : "_ZTIPc",
   "name" : "char *",
   "referenced_type" : "_ZTIc",
   "self_type" : "_ZTIPc",
   "size" : 4,
   "source_file" : "system/libbase/include/android-base/mapped_file.h"
  },
  {
   "alignment" : 4,
   "linker_set_key" : "_ZTIPh",
   "name" : "unsigned char *",
   "referenced_type" : "_ZTIh",
   "self_type" : "_ZTIPh",
   "size" : 4,
   "source_file" : "system/libbase/include/android-base/parseint.h"
  },
  {
   "alignment" : 4,
   "linker_set_key" : "_ZTIPi",
   "name" : "int *",
   "referenced_type" : "_ZTIi",
   "self_type" : "_ZTIPi",
   "size" : 4,
   "source_file" : "system/libbase/include/android-base/parseint.h"
  },
  {
   "alignment" : 4,
   "linker_set_key" : "_ZTIPj",
   "name" : "unsigned int *",
   "referenced_type" : "_ZTIj",
   "self_type" : "_ZTIPj",
   "size" : 4,
   "source_file" : "system/libbase/include/android-base/parseint.h"
  },
  {
   "alignment" : 4,
   "linker_set_key" : "_ZTIPs",
   "name" : "short *",
   "referenced_type" : "_ZTIs",
   "self_type" : "_ZTIPs",
   "size" : 4,
   "source_file" : "system/libbase/include/android-base/parseint.h"
  },
  {
   "alignment" : 4,
   "linker_set_key" : "_ZTIPt",
   "name" : "unsigned short *",
   "referenced_type" : "_ZTIt",
   "self_type" : "_ZTIPt",
   "size" : 4,
   "source_file" : "system/libbase/include/android-base/parseint.h"
  },
  {
   "alignment" : 4,
   "linker_set_key" : "_ZTIPv",
   "name" : "void *",
   "referenced_type" : "_ZTIv",
   "self_type" : "_ZTIPv",
   "size" : 4,
   "source_file" : "system/libbase/include/android-base/unique_fd.h"
  },
  {
   "alignment" : 4,
   "linker_set_key" : "_ZTIPw",
   "name" : "wchar_t *",
   "referenced_type" : "_ZTIw",
   "self_type" : "_ZTIPw",
   "size" : 4,
   "source_file" : "external/fmtlib/include/fmt/core.h"
  },
  {
   "alignment" : 4,
   "linker_set_key" : "_ZTIPx",
   "name" : "long long *",
   "referenced_type" : "_ZTIx",
   "self_type" : "_ZTIPx",
   "size" : 4,
   "source_file" : "system/libbase/include/android-base/parseint.h"
  },
  {
   "alignment" : 4,
   "linker_set_key" : "_ZTIPy",
   "name" : "unsigned long long *",
   "referenced_type" : "_ZTIy",
   "self_type" : "_ZTIPy",
   "size" : 4,
   "source_file" : "system/libbase/include/android-base/parseint.h"
  }
 ],
 "qualified_types" :
 [
  {
   "alignment" : 1,
   "is_const" : true,
   "linker_set_key" : "_ZTIA100_A2_Kc",
   "name" : "char const[100][2]",
   "referenced_type" : "_ZTIA100_A2_c",
   "self_type" : "_ZTIA100_A2_Kc",
   "size" : 200,
   "source_file" : "external/fmtlib/include/fmt/format-inl.h"
  },
  {
   "alignment" : 4,
   "is_const" : true,
   "linker_set_key" : "_ZTIA10_Kj",
   "name" : "unsigned int const[10]",
   "referenced_type" : "_ZTIA10_j",
   "self_type" : "_ZTIA10_Kj",
   "size" : 40,
   "source_file" : "external/fmtlib/include/fmt/format-inl.h"
  },
  {
   "alignment" : 4,
   "is_const" : true,
   "linker_set_key" : "_ZTIA11_KN3fmt2v76detail19divtest_table_entryIjEE",
   "name" : "fmt::v7::detail::divtest_table_entry<unsigned int> const[11]",
   "referenced_type" : "_ZTIA11_N3fmt2v76detail19divtest_table_entryIjEE",
   "self_type" : "_ZTIA11_KN3fmt2v76detail19divtest_table_entryIjEE",
   "size" : 88,
   "source_file" : "external/fmtlib/include/fmt/format-inl.h"
  },
  {
   "alignment" : 4,
   "is_const" : true,
   "linker_set_key" : "_ZTIA11_Kj",
   "name" : "unsigned int const[11]",
   "referenced_type" : "_ZTIA11_j",
   "self_type" : "_ZTIA11_Kj",
   "size" : 44,
   "source_file" : "external/fmtlib/include/fmt/format-inl.h"
  },
  {
   "alignment" : 1,
   "is_const" : true,
   "linker_set_key" : "_ZTIA17_Kc",
   "name" : "char const[17]",
   "referenced_type" : "_ZTIA17_c",
   "self_type" : "_ZTIA17_Kc",
   "size" : 17,
   "source_file" : "external/fmtlib/include/fmt/format-inl.h"
  },
  {
   "alignment" : 4,
   "is_const" : true,
   "linker_set_key" : "_ZTIA20_Ky",
   "name" : "unsigned long long const[20]",
   "referenced_type" : "_ZTIA20_y",
   "self_type" : "_ZTIA20_Ky",
   "size" : 160,
   "source_file" : "external/fmtlib/include/fmt/format-inl.h"
  },
  {
   "alignment" : 4,
   "is_const" : true,
   "linker_set_key" : "_ZTIA21_Ky",
   "name" : "unsigned long long const[21]",
   "referenced_type" : "_ZTIA21_y",
   "self_type" : "_ZTIA21_Ky",
   "size" : 168,
   "source_file" : "external/fmtlib/include/fmt/format-inl.h"
  },
  {
   "alignment" : 4,
   "is_const" : true,
   "linker_set_key" : "_ZTIA23_KN3fmt2v76detail15uint128_wrapperE",
   "name" : "fmt::v7::detail::uint128_wrapper const[23]",
   "referenced_type" : "_ZTIA23_N3fmt2v76detail15uint128_wrapperE",
   "self_type" : "_ZTIA23_KN3fmt2v76detail15uint128_wrapperE",
   "size" : 368,
   "source_file" : "external/fmtlib/include/fmt/format-inl.h"
  },
  {
   "alignment" : 4,
   "is_const" : true,
   "linker_set_key" : "_ZTIA24_KN3fmt2v76detail19divtest_table_entryIyEE",
   "name" : "fmt::v7::detail::divtest_table_entry<unsigned long long> const[24]",
   "referenced_type" : "_ZTIA24_N3fmt2v76detail19divtest_table_entryIyEE",
   "self_type" : "_ZTIA24_KN3fmt2v76detail19divtest_table_entryIyEE",
   "size" : 384,
   "source_file" : "external/fmtlib/include/fmt/format-inl.h"
  },
  {
   "alignment" : 4,
   "is_const" : true,
   "linker_set_key" : "_ZTIA27_Ky",
   "name" : "unsigned long long const[27]",
   "referenced_type" : "_ZTIA27_y",
   "self_type" : "_ZTIA27_Ky",
   "size" : 216,
   "source_file" : "external/fmtlib/include/fmt/format-inl.h"
  },
  {
   "alignment" : 4,
   "is_const" : true,
   "linker_set_key" : "_ZTIA2_KZN3fmt2v76detail9dragonbox23small_division_by_pow10ILi1EEEjjEUt_",
   "name" : "(anonymous struct at external/fmtlib/include/fmt/format-inl.h:1805:20) const[2]",
   "referenced_type" : "_ZTIA2_ZN3fmt2v76detail9dragonbox23small_division_by_pow10ILi1EEEjjEUt_",
   "self_type" : "_ZTIA2_KZN3fmt2v76detail9dragonbox23small_division_by_pow10ILi1EEEjjEUt_",
   "size" : 24,
   "source_file" : "external/fmtlib/include/fmt/format-inl.h"
  },
  {
   "alignment" : 4,
   "is_const" : true,
   "linker_set_key" : "_ZTIA2_KZN3fmt2v76detail9dragonbox23small_division_by_pow10ILi2EEEjjEUt_",
   "name" : "(anonymous struct at external/fmtlib/include/fmt/format-inl.h:1805:20) const[2]",
   "referenced_type" : "_ZTIA2_ZN3fmt2v76detail9dragonbox23small_division_by_pow10ILi2EEEjjEUt_",
   "self_type" : "_ZTIA2_KZN3fmt2v76detail9dragonbox23small_division_by_pow10ILi2EEEjjEUt_",
   "size" : 24,
   "source_file" : "external/fmtlib/include/fmt/format-inl.h"
  },
  {
   "alignment" : 4,
   "is_const" : true,
   "linker_set_key" : "_ZTIA2_KZN3fmt2v76detail9dragonbox37check_divisibility_and_divide_by_pow5ILi1EEEbRjEUt_",
   "name" : "(anonymous struct at external/fmtlib/include/fmt/format-inl.h:1788:20) const[2]",
   "referenced_type" : "_ZTIA2_ZN3fmt2v76detail9dragonbox37check_divisibility_and_divide_by_pow5ILi1EEEbRjEUt_",
   "self_type" : "_ZTIA2_KZN3fmt2v76detail9dragonbox37check_divisibility_and_divide_by_pow5ILi1EEEbRjEUt_",
   "size" : 32,
   "source_file" : "external/fmtlib/include/fmt/format-inl.h"
  },
  {
   "alignment" : 4,
   "is_const" : true,
   "linker_set_key" : "_ZTIA2_KZN3fmt2v76detail9dragonbox37check_divisibility_and_divide_by_pow5ILi2EEEbRjEUt_",
   "name" : "(anonymous struct at external/fmtlib/include/fmt/format-inl.h:1788:20) const[2]",
   "referenced_type" : "_ZTIA2_ZN3fmt2v76detail9dragonbox37check_divisibility_and_divide_by_pow5ILi2EEEbRjEUt_",
   "self_type" : "_ZTIA2_KZN3fmt2v76detail9dragonbox37check_divisibility_and_divide_by_pow5ILi2EEEbRjEUt_",
   "size" : 32,
   "source_file" : "external/fmtlib/include/fmt/format-inl.h"
  },
  {
   "alignment" : 4,
   "is_const" : true,
   "linker_set_key" : "_ZTIA39_Kj",
   "name" : "unsigned int const[39]",
   "referenced_type" : "_ZTIA39_j",
   "self_type" : "_ZTIA39_Kj",
   "size" : 156,
   "source_file" : "external/fmtlib/include/fmt/format-inl.h"
  },
  {
   "alignment" : 1,
   "is_const" : true,
   "linker_set_key" : "_ZTIA3_Kc",
   "name" : "char const[3]",
   "referenced_type" : "_ZTIA3_c",
   "self_type" : "_ZTIA3_Kc",
   "size" : 3,
   "source_file" : "external/fmtlib/include/fmt/core.h"
  },
  {
   "alignment" : 1,
   "is_const" : true,
   "linker_set_key" : "_ZTIA3_Kh",
   "name" : "unsigned char const[3]",
   "referenced_type" : "_ZTIA3_h",
   "self_type" : "_ZTIA3_Kh",
   "size" : 3,
   "source_file" : "external/fmtlib/include/fmt/core.h"
  },
  {
   "alignment" : 1,
   "is_const" : true,
   "linker_set_key" : "_ZTIA4_Kc",
   "name" : "char const[4]",
   "referenced_type" : "_ZTIA4_c",
   "self_type" : "_ZTIA4_Kc",
   "size" : 4,
   "source_file" : "external/fmtlib/include/fmt/core.h"
  },
  {
   "alignment" : 1,
   "is_const" : true,
   "linker_set_key" : "_ZTIA5_Kc",
   "name" : "char const[5]",
   "referenced_type" : "_ZTIA5_c",
   "self_type" : "_ZTIA5_Kc",
   "size" : 5,
   "source_file" : "external/fmtlib/include/fmt/core.h"
  },
  {
   "alignment" : 4,
   "is_const" : true,
   "linker_set_key" : "_ZTIA5_Ki",
   "name" : "int const[5]",
   "referenced_type" : "_ZTIA5_i",
   "self_type" : "_ZTIA5_Ki",
   "size" : 20,
   "source_file" : "external/fmtlib/include/fmt/format-inl.h"
  },
  {
   "alignment" : 4,
   "is_const" : true,
   "linker_set_key" : "_ZTIA5_Kj",
   "name" : "unsigned int const[5]",
   "referenced_type" : "_ZTIA5_j",
   "self_type" : "_ZTIA5_Kj",
   "size" : 20,
   "source_file" : "external/fmtlib/include/fmt/format-inl.h"
  },
  {
   "alignment" : 4,
   "is_const" : true,
   "linker_set_key" : "_ZTIA5_Kw",
   "name" : "wchar_t const[5]",
   "referenced_type" : "_ZTIA5_w",
   "self_type" : "_ZTIA5_Kw",
   "size" : 20,
   "source_file" : "external/fmtlib/include/fmt/format.h"
  },
  {
   "alignment" : 2,
   "is_const" : true,
   "linker_set_key" : "_ZTIA64_Kt",
   "name" : "unsigned short const[64]",
   "referenced_type" : "_ZTIA64_t",
   "self_type" : "_ZTIA64_Kt",
   "size" : 128,
   "source_file" : "external/fmtlib/include/fmt/format.h"
  },
  {
   "alignment" : 4,
   "is_const" : true,
   "linker_set_key" : "_ZTIA78_Ky",
   "name" : "unsigned long long const[78]",
   "referenced_type" : "_ZTIA78_y",
   "self_type" : "_ZTIA78_Ky",
   "size" : 624,
   "source_file" : "external/fmtlib/include/fmt/format-inl.h"
  },
  {
   "alignment" : 1,
   "is_const" : true,
   "linker_set_key" : "_ZTIA7_Kc",
   "name" : "char const[7]",
   "referenced_type" : "_ZTIA7_c",
   "self_type" : "_ZTIA7_Kc",
   "size" : 7,
   "source_file" : "external/fmtlib/include/fmt/core.h"
  },
  {
   "alignment" : 2,
   "is_const" : true,
   "linker_set_key" : "_ZTIA87_Ks",
   "name" : "short const[87]",
   "referenced_type" : "_ZTIA87_s",
   "self_type" : "_ZTIA87_Ks",
   "size" : 174,
   "source_file" : "external/fmtlib/include/fmt/format-inl.h"
  },
  {
   "alignment" : 4,
   "is_const" : true,
   "linker_set_key" : "_ZTIA87_Ky",
   "name" : "unsigned long long const[87]",
   "referenced_type" : "_ZTIA87_y",
   "self_type" : "_ZTIA87_Ky",
   "size" : 696,
   "source_file" : "external/fmtlib/include/fmt/format-inl.h"
  },
  {
   "alignment" : 1,
   "is_const" : true,
   "linker_set_key" : "_ZTIA8_Kc",
   "name" : "char const[8]",
   "referenced_type" : "_ZTIA8_c",
   "self_type" : "_ZTIA8_Kc",
   "size" : 8,
   "source_file" : "external/fmtlib/include/fmt/format-inl.h"
  },
  {
   "is_const" : true,
   "linker_set_key" : "_ZTIA_A2_Kc",
   "name" : "char const[][2]",
   "referenced_type" : "_ZTIA_A2_c",
   "self_type" : "_ZTIA_A2_Kc",
   "source_file" : "external/fmtlib/include/fmt/format.h"
  },
  {
   "is_const" : true,
   "linker_set_key" : "_ZTIA_KN3fmt2v76detail15uint128_wrapperE",
   "name" : "fmt::v7::detail::uint128_wrapper const[]",
   "referenced_type" : "_ZTIA_N3fmt2v76detail15uint128_wrapperE",
   "self_type" : "_ZTIA_KN3fmt2v76detail15uint128_wrapperE",
   "source_file" : "external/fmtlib/include/fmt/format.h"
  },
  {
   "is_const" : true,
   "linker_set_key" : "_ZTIA_KN3fmt2v76detail19divtest_table_entryIjEE",
   "name" : "fmt::v7::detail::divtest_table_entry<unsigned int> const[]",
   "referenced_type" : "_ZTIA_N3fmt2v76detail19divtest_table_entryIjEE",
   "self_type" : "_ZTIA_KN3fmt2v76detail19divtest_table_entryIjEE",
   "source_file" : "external/fmtlib/include/fmt/format.h"
  },
  {
   "is_const" : true,
   "linker_set_key" : "_ZTIA_KN3fmt2v76detail19divtest_table_entryIyEE",
   "name" : "fmt::v7::detail::divtest_table_entry<unsigned long long> const[]",
   "referenced_type" : "_ZTIA_N3fmt2v76detail19divtest_table_entryIyEE",
   "self_type" : "_ZTIA_KN3fmt2v76detail19divtest_table_entryIyEE",
   "source_file" : "external/fmtlib/include/fmt/format.h"
  },
  {
   "is_const" : true,
   "linker_set_key" : "_ZTIA_Kc",
   "name" : "char const[]",
   "referenced_type" : "_ZTIA_c",
   "self_type" : "_ZTIA_Kc",
   "source_file" : "external/fmtlib/include/fmt/format.h"
  },
  {
   "is_const" : true,
   "linker_set_key" : "_ZTIA_Kj",
   "name" : "unsigned int const[]",
   "referenced_type" : "_ZTIA_j",
   "self_type" : "_ZTIA_Kj",
   "source_file" : "external/fmtlib/include/fmt/format.h"
  },
  {
   "is_const" : true,
   "linker_set_key" : "_ZTIA_Ks",
   "name" : "short const[]",
   "referenced_type" : "_ZTIA_s",
   "self_type" : "_ZTIA_Ks",
   "source_file" : "external/fmtlib/include/fmt/format.h"
  },
  {
   "is_const" : true,
   "linker_set_key" : "_ZTIA_Ky",
   "name" : "unsigned long long const[]",
   "referenced_type" : "_ZTIA_y",
   "self_type" : "_ZTIA_Ky",
   "source_file" : "external/fmtlib/include/fmt/format.h"
  },
  {
   "alignment" : 4,
   "is_const" : true,
   "linker_set_key" : "_ZTIK13CapturedStdFd",
   "name" : "const CapturedStdFd",
   "referenced_type" : "_ZTI13CapturedStdFd",
   "self_type" : "_ZTIK13CapturedStdFd",
   "size" : 1040,
   "source_file" : "system/libbase/include/android-base/test_utils.h"
  },
  {
   "is_const" : true,
   "linker_set_key" : "_ZTIK9prop_info",
   "name" : "const prop_info",
   "referenced_type" : "_ZTI9prop_info",
   "self_type" : "_ZTIK9prop_info",
   "source_file" : "system/libbase/include/android-base/properties.h"
  },
  {
   "alignment" : 4,
   "is_const" : true,
   "linker_set_key" : "_ZTIKDn",
   "name" : "const nullptr_t",
   "referenced_type" : "_ZTIDn",
   "self_type" : "_ZTIKDn",
   "size" : 4,
   "source_file" : "system/libbase/include/android-base/logging.h"
  },
  {
   "alignment" : 4,
   "is_const" : true,
   "linker_set_key" : "_ZTIKN3fmt2v710format_intE",
   "name" : "const fmt::format_int",
   "referenced_type" : "_ZTIN3fmt2v710format_intE",
   "self_type" : "_ZTIKN3fmt2v710format_intE",
   "size" : 28,
   "source_file" : "external/fmtlib/include/fmt/format.h"
  },
  {
   "alignment" : 4,
   "is_const" : true,
   "linker_set_key" : "_ZTIKN3fmt2v712format_errorE",
   "name" : "const fmt::format_error",
   "referenced_type" : "_ZTIN3fmt2v712format_errorE",
   "self_type" : "_ZTIKN3fmt2v712format_errorE",
   "size" : 8,
   "source_file" : "external/fmtlib/include/fmt/format.h"
  },
  {
   "alignment" : 4,
   "is_const" : true,
   "linker_set_key" : "_ZTIKN3fmt2v712system_errorE",
   "name" : "const fmt::system_error",
   "referenced_type" : "_ZTIN3fmt2v712system_errorE",
   "self_type" : "_ZTIKN3fmt2v712system_errorE",
   "size" : 12,
   "source_file" : "external/fmtlib/include/fmt/format.h"
  },
  {
   "alignment" : 4,
   "is_const" : true,
   "linker_set_key" : "_ZTIKN3fmt2v716basic_format_argINS0_20basic_format_contextINS0_6detail15buffer_appenderIcEEcEEE6handleE",
   "name" : "const fmt::basic_format_arg<basic_format_context<buffer_appender<char>, char>>::handle",
   "referenced_type" : "_ZTIN3fmt2v716basic_format_argINS0_20basic_format_contextINS0_6detail15buffer_appenderIcEEcEEE6handleE",
   "self_type" : "_ZTIKN3fmt2v716basic_format_argINS0_20basic_format_contextINS0_6detail15buffer_appenderIcEEcEEE6handleE",
   "size" : 8,
   "source_file" : "external/fmtlib/include/fmt/core.h"
  },
  {
   "alignment" : 4,
   "is_const" : true,
   "linker_set_key" : "_ZTIKN3fmt2v716basic_format_argINS0_20basic_format_contextINS0_6detail15buffer_appenderIcEEcEEEE",
   "name" : "const fmt::basic_format_arg<fmt::basic_format_context<fmt::detail::buffer_appender<char>, char>>",
   "referenced_type" : "_ZTIN3fmt2v716basic_format_argINS0_20basic_format_contextINS0_6detail15buffer_appenderIcEEcEEEE",
   "self_type" : "_ZTIKN3fmt2v716basic_format_argINS0_20basic_format_contextINS0_6detail15buffer_appenderIcEEcEEEE",
   "size" : 12,
   "source_file" : "external/fmtlib/include/fmt/core.h"
  },
  {
   "is_const" : true,
   "linker_set_key" : "_ZTIKN3fmt2v716basic_format_argINS0_20basic_format_contextINS0_6detail15buffer_appenderIwEEwEEEE",
   "name" : "const fmt::basic_format_arg<fmt::basic_format_context<fmt::detail::buffer_appender<wchar_t>, wchar_t>>",
   "referenced_type" : "_ZTIN3fmt2v716basic_format_argINS0_20basic_format_contextINS0_6detail15buffer_appenderIwEEwEEEE",
   "self_type" : "_ZTIKN3fmt2v716basic_format_argINS0_20basic_format_contextINS0_6detail15buffer_appenderIwEEwEEEE",
   "source_file" : "external/fmtlib/include/fmt/core.h"
  },
  {
   "alignment" : 4,
   "is_const" : true,
   "linker_set_key" : "_ZTIKN3fmt2v716basic_format_argINS0_20basic_format_contextINSt3__120back_insert_iteratorINS0_6detail6bufferIcEEEEcEEE6handleE",
   "name" : "const fmt::basic_format_arg<basic_format_context<back_insert_iterator<buffer<char>>, char>>::handle",
   "referenced_type" : "_ZTIN3fmt2v716basic_format_argINS0_20basic_format_contextINSt3__120back_insert_iteratorINS0_6detail6bufferIcEEEEcEEE6handleE",
   "self_type" : "_ZTIKN3fmt2v716basic_format_argINS0_20basic_format_contextINSt3__120back_insert_iteratorINS0_6detail6bufferIcEEEEcEEE6handleE",
   "size" : 8,
   "source_file" : "external/fmtlib/include/fmt/core.h"
  },
  {
   "alignment" : 4,
   "is_const" : true,
   "linker_set_key" : "_ZTIKN3fmt2v716basic_format_argINS0_20basic_format_contextINSt3__120back_insert_iteratorINS0_6detail6bufferIcEEEEcEEEE",
   "name" : "const fmt::basic_format_arg<fmt::basic_format_context<std::back_insert_iterator<fmt::detail::buffer<char>>, char>>",
   "referenced_type" : "_ZTIN3fmt2v716basic_format_argINS0_20basic_format_contextINSt3__120back_insert_iteratorINS0_6detail6bufferIcEEEEcEEEE",
   "self_type" : "_ZTIKN3fmt2v716basic_format_argINS0_20basic_format_contextINSt3__120back_insert_iteratorINS0_6detail6bufferIcEEEEcEEEE",
   "size" : 12,
   "source_file" : "external/fmtlib/include/fmt/core.h"
  },
  {
   "is_const" : true,
   "linker_set_key" : "_ZTIKN3fmt2v716basic_format_argINS0_20basic_format_contextINSt3__120back_insert_iteratorINS3_12basic_stringIcNS3_11char_traitsIcEENS3_9allocatorIcEEEEEEcEEEE",
   "name" : "const fmt::basic_format_arg<fmt::basic_format_context<std::back_insert_iterator<std::basic_string<char, std::char_traits<char>, std::allocator<char>>>, char>>",
   "referenced_type" : "_ZTIN3fmt2v716basic_format_argINS0_20basic_format_contextINSt3__120back_insert_iteratorINS3_12basic_stringIcNS3_11char_traitsIcEENS3_9allocatorIcEEEEEEcEEEE",
   "self_type" : "_ZTIKN3fmt2v716basic_format_argINS0_20basic_format_contextINSt3__120back_insert_iteratorINS3_12basic_stringIcNS3_11char_traitsIcEENS3_9allocatorIcEEEEEEcEEEE",
   "source_file" : "external/fmtlib/include/fmt/core.h"
  },
  {
   "is_const" : true,
   "linker_set_key" : "_ZTIKN3fmt2v716basic_format_argINS0_20basic_format_contextIPccEEEE",
   "name" : "const fmt::basic_format_arg<fmt::basic_format_context<char *, char>>",
   "referenced_type" : "_ZTIN3fmt2v716basic_format_argINS0_20basic_format_contextIPccEEEE",
   "self_type" : "_ZTIKN3fmt2v716basic_format_argINS0_20basic_format_contextIPccEEEE",
   "source_file" : "external/fmtlib/include/fmt/core.h"
  },
  {
   "alignment" : 4,
   "is_const" : true,
   "linker_set_key" : "_ZTIKN3fmt2v716format_arg_storeINS0_20basic_format_contextINS0_6detail15buffer_appenderIcEEcEEJA7_KciEEE",
   "name" : "const fmt::format_arg_store<fmt::basic_format_context<fmt::detail::buffer_appender<char>, char>, char const[7], int>",
   "referenced_type" : "_ZTIN3fmt2v716format_arg_storeINS0_20basic_format_contextINS0_6detail15buffer_appenderIcEEcEEJA7_KciEEE",
   "self_type" : "_ZTIKN3fmt2v716format_arg_storeINS0_20basic_format_contextINS0_6detail15buffer_appenderIcEEcEEJA7_KciEEE",
   "size" : 16,
   "source_file" : "external/fmtlib/include/fmt/core.h"
  },
  {
   "alignment" : 4,
   "is_const" : true,
   "linker_set_key" : "_ZTIKN3fmt2v716format_arg_storeINS0_20basic_format_contextINS0_6detail15buffer_appenderIcEEcEEJNS0_17basic_string_viewIcEEA3_KcEEE",
   "name" : "const fmt::format_arg_store<fmt::basic_format_context<fmt::detail::buffer_appender<char>, char>, basic_string_view<char>, char const[3]>",
   "referenced_type" : "_ZTIN3fmt2v716format_arg_storeINS0_20basic_format_contextINS0_6detail15buffer_appenderIcEEcEEJNS0_17basic_string_viewIcEEA3_KcEEE",
   "self_type" : "_ZTIKN3fmt2v716format_arg_storeINS0_20basic_format_contextINS0_6detail15buffer_appenderIcEEcEEJNS0_17basic_string_viewIcEEA3_KcEEE",
   "size" : 16,
   "source_file" : "external/fmtlib/include/fmt/core.h"
  },
  {
   "alignment" : 4,
   "is_const" : true,
   "linker_set_key" : "_ZTIKN3fmt2v716format_arg_storeINS0_20basic_format_contextINS0_6detail15buffer_appenderIcEEcEEJNS0_17basic_string_viewIcEEPcEEE",
   "name" : "const fmt::format_arg_store<fmt::basic_format_context<fmt::detail::buffer_appender<char>, char>, basic_string_view<char>, char *>",
   "referenced_type" : "_ZTIN3fmt2v716format_arg_storeINS0_20basic_format_contextINS0_6detail15buffer_appenderIcEEcEEJNS0_17basic_string_viewIcEEPcEEE",
   "self_type" : "_ZTIKN3fmt2v716format_arg_storeINS0_20basic_format_contextINS0_6detail15buffer_appenderIcEEcEEJNS0_17basic_string_viewIcEEPcEEE",
   "size" : 16,
   "source_file" : "external/fmtlib/include/fmt/core.h"
  },
  {
   "alignment" : 4,
   "is_const" : true,
   "linker_set_key" : "_ZTIKN3fmt2v716format_arg_storeINS0_20basic_format_contextINS0_6detail15buffer_appenderIcEEcEEJiEEE",
   "name" : "const fmt::format_arg_store<fmt::basic_format_context<fmt::detail::buffer_appender<char>, char>, int>",
   "referenced_type" : "_ZTIN3fmt2v716format_arg_storeINS0_20basic_format_contextINS0_6detail15buffer_appenderIcEEcEEJiEEE",
   "self_type" : "_ZTIKN3fmt2v716format_arg_storeINS0_20basic_format_contextINS0_6detail15buffer_appenderIcEEcEEJiEEE",
   "size" : 8,
   "source_file" : "external/fmtlib/include/fmt/core.h"
  },
  {
   "alignment" : 4,
   "is_const" : true,
   "linker_set_key" : "_ZTIKN3fmt2v716format_arg_storeINS0_20basic_format_contextINS0_6detail15buffer_appenderIcEEcEEJjEEE",
   "name" : "const fmt::format_arg_store<fmt::basic_format_context<fmt::detail::buffer_appender<char>, char>, unsigned int>",
   "referenced_type" : "_ZTIN3fmt2v716format_arg_storeINS0_20basic_format_contextINS0_6detail15buffer_appenderIcEEcEEJjEEE",
   "self_type" : "_ZTIKN3fmt2v716format_arg_storeINS0_20basic_format_contextINS0_6detail15buffer_appenderIcEEcEEJjEEE",
   "size" : 8,
   "source_file" : "external/fmtlib/include/fmt/core.h"
  },
  {
   "alignment" : 4,
   "is_const" : true,
   "linker_set_key" : "_ZTIKN3fmt2v717basic_format_argsINS0_20basic_format_contextINS0_6detail15buffer_appenderIcEEcEEEE",
   "name" : "const fmt::basic_format_args<fmt::basic_format_context<fmt::detail::buffer_appender<char>, char>>",
   "referenced_type" : "_ZTIN3fmt2v717basic_format_argsINS0_20basic_format_contextINS0_6detail15buffer_appenderIcEEcEEEE",
   "self_type" : "_ZTIKN3fmt2v717basic_format_argsINS0_20basic_format_contextINS0_6detail15buffer_appenderIcEEcEEEE",
   "size" : 12,
   "source_file" : "external/fmtlib/include/fmt/core.h"
  },
  {
   "alignment" : 4,
   "is_const" : true,
   "linker_set_key" : "_ZTIKN3fmt2v717basic_format_argsINS0_20basic_format_contextINSt3__120back_insert_iteratorINS0_6detail6bufferIcEEEEcEEEE",
   "name" : "const fmt::basic_format_args<fmt::basic_format_context<std::back_insert_iterator<fmt::detail::buffer<char>>, char>>",
   "referenced_type" : "_ZTIN3fmt2v717basic_format_argsINS0_20basic_format_contextINSt3__120back_insert_iteratorINS0_6detail6bufferIcEEEEcEEEE",
   "self_type" : "_ZTIKN3fmt2v717basic_format_argsINS0_20basic_format_contextINSt3__120back_insert_iteratorINS0_6detail6bufferIcEEEEcEEEE",
   "size" : 12,
   "source_file" : "external/fmtlib/include/fmt/core.h"
  },
  {
   "alignment" : 4,
   "is_const" : true,
   "linker_set_key" : "_ZTIKN3fmt2v717basic_string_viewINS0_6detail10char8_typeEEE",
   "name" : "const fmt::basic_string_view<fmt::detail::char8_type>",
   "referenced_type" : "_ZTIN3fmt2v717basic_string_viewINS0_6detail10char8_typeEEE",
   "self_type" : "_ZTIKN3fmt2v717basic_string_viewINS0_6detail10char8_typeEEE",
   "size" : 8,
   "source_file" : "external/fmtlib/include/fmt/core.h"
  },
  {
   "alignment" : 4,
   "is_const" : true,
   "linker_set_key" : "_ZTIKN3fmt2v717basic_string_viewIcEE",
   "name" : "const fmt::basic_string_view<char>",
   "referenced_type" : "_ZTIN3fmt2v717basic_string_viewIcEE",
   "self_type" : "_ZTIKN3fmt2v717basic_string_viewIcEE",
   "size" : 8,
   "source_file" : "external/fmtlib/include/fmt/core.h"
  },
  {
   "alignment" : 4,
   "is_const" : true,
   "linker_set_key" : "_ZTIKN3fmt2v717basic_string_viewIwEE",
   "name" : "const fmt::basic_string_view<wchar_t>",
   "referenced_type" : "_ZTIN3fmt2v717basic_string_viewIwEE",
   "self_type" : "_ZTIKN3fmt2v717basic_string_viewIwEE",
   "size" : 8,
   "source_file" : "external/fmtlib/include/fmt/core.h"
  },
  {
   "alignment" : 4,
   "is_const" : true,
   "linker_set_key" : "_ZTIKN3fmt2v718basic_format_specsIcEE",
   "name" : "const fmt::basic_format_specs<char>",
   "referenced_type" : "_ZTIN3fmt2v718basic_format_specsIcEE",
   "self_type" : "_ZTIKN3fmt2v718basic_format_specsIcEE",
   "size" : 16,
   "source_file" : "external/fmtlib/include/fmt/format.h"
  },
  {
   "alignment" : 4,
   "is_const" : true,
   "linker_set_key" : "_ZTIKN3fmt2v719basic_memory_bufferIcLj500ENSt3__19allocatorIcEEEE",
   "name" : "const fmt::basic_memory_buffer<char, 500, std::allocator<char>>",
   "referenced_type" : "_ZTIN3fmt2v719basic_memory_bufferIcLj500ENSt3__19allocatorIcEEEE",
   "self_type" : "_ZTIKN3fmt2v719basic_memory_bufferIcLj500ENSt3__19allocatorIcEEEE",
   "size" : 520,
   "source_file" : "external/fmtlib/include/fmt/format.h"
  },
  {
   "alignment" : 4,
   "is_const" : true,
   "linker_set_key" : "_ZTIKN3fmt2v720basic_format_contextINS0_6detail15buffer_appenderIcEEcEE",
   "name" : "const fmt::basic_format_context<fmt::detail::buffer_appender<char>, char>",
   "referenced_type" : "_ZTIN3fmt2v720basic_format_contextINS0_6detail15buffer_appenderIcEEcEE",
   "self_type" : "_ZTIKN3fmt2v720basic_format_contextINS0_6detail15buffer_appenderIcEEcEE",
   "size" : 20,
   "source_file" : "external/fmtlib/include/fmt/core.h"
  },
  {
   "alignment" : 4,
   "is_const" : true,
   "linker_set_key" : "_ZTIKN3fmt2v720basic_format_contextINSt3__120back_insert_iteratorINS0_6detail6bufferIcEEEEcEE",
   "name" : "const fmt::basic_format_context<std::back_insert_iterator<fmt::detail::buffer<char>>, char>",
   "referenced_type" : "_ZTIN3fmt2v720basic_format_contextINSt3__120back_insert_iteratorINS0_6detail6bufferIcEEEEcEE",
   "self_type" : "_ZTIKN3fmt2v720basic_format_contextINSt3__120back_insert_iteratorINS0_6detail6bufferIcEEEEcEE",
   "size" : 20,
   "source_file" : "external/fmtlib/include/fmt/core.h"
  },
  {
   "alignment" : 4,
   "is_const" : true,
   "linker_set_key" : "_ZTIKN3fmt2v726basic_format_parse_contextIcNS0_6detail13error_handlerEEE",
   "name" : "const fmt::basic_format_parse_context<char, fmt::detail::error_handler>",
   "referenced_type" : "_ZTIN3fmt2v726basic_format_parse_contextIcNS0_6detail13error_handlerEEE",
   "self_type" : "_ZTIKN3fmt2v726basic_format_parse_contextIcNS0_6detail13error_handlerEEE",
   "size" : 12,
   "source_file" : "external/fmtlib/include/fmt/core.h"
  },
  {
   "alignment" : 1,
   "is_const" : true,
   "linker_set_key" : "_ZTIKN3fmt2v76detail10char8_typeE",
   "name" : "const fmt::detail::char8_type",
   "referenced_type" : "_ZTIN3fmt2v76detail10char8_typeE",
   "self_type" : "_ZTIKN3fmt2v76detail10char8_typeE",
   "size" : 1,
   "source_file" : "external/fmtlib/include/fmt/core.h"
  },
  {
   "alignment" : 4,
   "is_const" : true,
   "linker_set_key" : "_ZTIKN3fmt2v76detail10int_writerINS1_15buffer_appenderIcEEcjEE",
   "name" : "const fmt::detail::int_writer<fmt::detail::buffer_appender<char>, char, unsigned int>",
   "referenced_type" : "_ZTIN3fmt2v76detail10int_writerINS1_15buffer_appenderIcEEcjEE",
   "self_type" : "_ZTIKN3fmt2v76detail10int_writerINS1_15buffer_appenderIcEEcjEE",
   "size" : 24,
   "source_file" : "external/fmtlib/include/fmt/format.h"
  },
  {
   "alignment" : 4,
   "is_const" : true,
   "linker_set_key" : "_ZTIKN3fmt2v76detail10int_writerINS1_15buffer_appenderIcEEcyEE",
   "name" : "const fmt::detail::int_writer<fmt::detail::buffer_appender<char>, char, unsigned long long>",
   "referenced_type" : "_ZTIN3fmt2v76detail10int_writerINS1_15buffer_appenderIcEEcyEE",
   "self_type" : "_ZTIKN3fmt2v76detail10int_writerINS1_15buffer_appenderIcEEcyEE",
   "size" : 28,
   "source_file" : "external/fmtlib/include/fmt/format.h"
  },
  {
   "alignment" : 4,
   "is_const" : true,
   "linker_set_key" : "_ZTIKN3fmt2v76detail10int_writerINSt3__120back_insert_iteratorINS1_6bufferIcEEEEcjEE",
   "name" : "const fmt::detail::int_writer<std::back_insert_iterator<fmt::detail::buffer<char>>, char, unsigned int>",
   "referenced_type" : "_ZTIN3fmt2v76detail10int_writerINSt3__120back_insert_iteratorINS1_6bufferIcEEEEcjEE",
   "self_type" : "_ZTIKN3fmt2v76detail10int_writerINSt3__120back_insert_iteratorINS1_6bufferIcEEEEcjEE",
   "size" : 24,
   "source_file" : "external/fmtlib/include/fmt/format.h"
  },
  {
   "alignment" : 4,
   "is_const" : true,
   "linker_set_key" : "_ZTIKN3fmt2v76detail10int_writerINSt3__120back_insert_iteratorINS1_6bufferIcEEEEcyEE",
   "name" : "const fmt::detail::int_writer<std::back_insert_iterator<fmt::detail::buffer<char>>, char, unsigned long long>",
   "referenced_type" : "_ZTIN3fmt2v76detail10int_writerINSt3__120back_insert_iteratorINS1_6bufferIcEEEEcyEE",
   "self_type" : "_ZTIKN3fmt2v76detail10int_writerINSt3__120back_insert_iteratorINS1_6bufferIcEEEEcyEE",
   "size" : 28,
   "source_file" : "external/fmtlib/include/fmt/format.h"
  },
  {
   "alignment" : 4,
   "is_const" : true,
   "linker_set_key" : "_ZTIKN3fmt2v76detail10locale_refE",
   "name" : "const fmt::detail::locale_ref",
   "referenced_type" : "_ZTIN3fmt2v76detail10locale_refE",
   "self_type" : "_ZTIKN3fmt2v76detail10locale_refE",
   "size" : 4,
   "source_file" : "external/fmtlib/include/fmt/core.h"
  },
  {
   "alignment" : 4,
   "is_const" : true,
   "linker_set_key" : "_ZTIKN3fmt2v76detail11accumulatorE",
   "name" : "const fmt::detail::accumulator",
   "referenced_type" : "_ZTIN3fmt2v76detail11accumulatorE",
   "self_type" : "_ZTIKN3fmt2v76detail11accumulatorE",
   "size" : 16,
   "source_file" : "external/fmtlib/include/fmt/format-inl.h"
  },
  {
   "alignment" : 4,
   "is_const" : true,
   "linker_set_key" : "_ZTIKN3fmt2v76detail11float_specsE",
   "name" : "const fmt::detail::float_specs",
   "referenced_type" : "_ZTIN3fmt2v76detail11float_specsE",
   "self_type" : "_ZTIKN3fmt2v76detail11float_specsE",
   "size" : 8,
   "source_file" : "external/fmtlib/include/fmt/format.h"
  },
  {
   "alignment" : 1,
   "is_const" : true,
   "linker_set_key" : "_ZTIKN3fmt2v76detail11stringifierE",
   "name" : "const fmt::detail::stringifier",
   "referenced_type" : "_ZTIN3fmt2v76detail11stringifierE",
   "self_type" : "_ZTIKN3fmt2v76detail11stringifierE",
   "size" : 1,
   "source_file" : "external/fmtlib/include/fmt/format-inl.h"
  },
  {
   "alignment" : 4,
   "is_const" : true,
   "linker_set_key" : "_ZTIKN3fmt2v76detail12specs_setterIcEE",
   "name" : "const fmt::detail::specs_setter<char>",
   "referenced_type" : "_ZTIN3fmt2v76detail12specs_setterIcEE",
   "self_type" : "_ZTIKN3fmt2v76detail12specs_setterIcEE",
   "size" : 4,
   "source_file" : "external/fmtlib/include/fmt/format.h"
  },
  {
   "alignment" : 1,
   "is_const" : true,
   "linker_set_key" : "_ZTIKN3fmt2v76detail13buffer_traitsE",
   "name" : "const fmt::detail::buffer_traits",
   "referenced_type" : "_ZTIN3fmt2v76detail13buffer_traitsE",
   "self_type" : "_ZTIKN3fmt2v76detail13buffer_traitsE",
   "size" : 1,
   "source_file" : "external/fmtlib/include/fmt/core.h"
  },
  {
   "alignment" : 1,
   "is_const" : true,
   "linker_set_key" : "_ZTIKN3fmt2v76detail13error_handlerE",
   "name" : "const fmt::detail::error_handler",
   "referenced_type" : "_ZTIN3fmt2v76detail13error_handlerE",
   "self_type" : "_ZTIKN3fmt2v76detail13error_handlerE",
   "size" : 1,
   "source_file" : "external/fmtlib/include/fmt/core.h"
  },
  {
   "alignment" : 4,
   "is_const" : true,
   "linker_set_key" : "_ZTIKN3fmt2v76detail13specs_handlerINS0_26basic_format_parse_contextIcNS1_13error_handlerEEENS0_20basic_format_contextINS1_15buffer_appenderIcEEcEEEE",
   "name" : "const fmt::detail::specs_handler<fmt::basic_format_parse_context<char, fmt::detail::error_handler>, fmt::basic_format_context<fmt::detail::buffer_appender<char>, char>>",
   "referenced_type" : "_ZTIN3fmt2v76detail13specs_handlerINS0_26basic_format_parse_contextIcNS1_13error_handlerEEENS0_20basic_format_contextINS1_15buffer_appenderIcEEcEEEE",
   "self_type" : "_ZTIKN3fmt2v76detail13specs_handlerINS0_26basic_format_parse_contextIcNS1_13error_handlerEEENS0_20basic_format_contextINS1_15buffer_appenderIcEEcEEEE",
   "size" : 12,
   "source_file" : "external/fmtlib/include/fmt/format.h"
  },
  {
   "alignment" : 4,
   "is_const" : true,
   "linker_set_key" : "_ZTIKN3fmt2v76detail13specs_handlerINS0_26basic_format_parse_contextIcNS1_13error_handlerEEENS0_20basic_format_contextINSt3__120back_insert_iteratorINS1_6bufferIcEEEEcEEEE",
   "name" : "const fmt::detail::specs_handler<fmt::basic_format_parse_context<char, fmt::detail::error_handler>, fmt::basic_format_context<std::back_insert_iterator<fmt::detail::buffer<char>>, char>>",
   "referenced_type" : "_ZTIN3fmt2v76detail13specs_handlerINS0_26basic_format_parse_contextIcNS1_13error_handlerEEENS0_20basic_format_contextINSt3__120back_insert_iteratorINS1_6bufferIcEEEEcEEEE",
   "self_type" : "_ZTIKN3fmt2v76detail13specs_handlerINS0_26basic_format_parse_contextIcNS1_13error_handlerEEENS0_20basic_format_contextINSt3__120back_insert_iteratorINS1_6bufferIcEEEEcEEEE",
   "size" : 12,
   "source_file" : "external/fmtlib/include/fmt/format.h"
  },
  {
   "alignment" : 4,
   "is_const" : true,
   "linker_set_key" : "_ZTIKN3fmt2v76detail13utf8_to_utf16E",
   "name" : "const fmt::detail::utf8_to_utf16",
   "referenced_type" : "_ZTIN3fmt2v76detail13utf8_to_utf16E",
   "self_type" : "_ZTIKN3fmt2v76detail13utf8_to_utf16E",
   "size" : 2020,
   "source_file" : "external/fmtlib/include/fmt/format.h"
  },
  {
   "alignment" : 4,
   "is_const" : true,
   "linker_set_key" : "_ZTIKN3fmt2v76detail14big_decimal_fpE",
   "name" : "const fmt::detail::big_decimal_fp",
   "referenced_type" : "_ZTIN3fmt2v76detail14big_decimal_fpE",
   "self_type" : "_ZTIKN3fmt2v76detail14big_decimal_fpE",
   "size" : 12,
   "source_file" : "external/fmtlib/include/fmt/format.h"
  },
  {
   "alignment" : 4,
   "is_const" : true,
   "linker_set_key" : "_ZTIKN3fmt2v76detail14named_arg_infoIcEE",
   "name" : "const fmt::detail::named_arg_info<char>",
   "referenced_type" : "_ZTIN3fmt2v76detail14named_arg_infoIcEE",
   "self_type" : "_ZTIKN3fmt2v76detail14named_arg_infoIcEE",
   "size" : 8,
   "source_file" : "external/fmtlib/include/fmt/core.h"
  },
  {
   "alignment" : 4,
   "is_const" : true,
   "linker_set_key" : "_ZTIKN3fmt2v76detail15uint128_wrapperE",
   "name" : "const fmt::detail::uint128_wrapper",
   "referenced_type" : "_ZTIN3fmt2v76detail15uint128_wrapperE",
   "self_type" : "_ZTIKN3fmt2v76detail15uint128_wrapperE",
   "size" : 16,
   "source_file" : "external/fmtlib/include/fmt/format.h"
  },
  {
   "alignment" : 4,
   "is_const" : true,
   "linker_set_key" : "_ZTIKN3fmt2v76detail16custom_formatterINS0_20basic_format_contextINS1_15buffer_appenderIcEEcEEEE",
   "name" : "const fmt::detail::custom_formatter<fmt::basic_format_context<fmt::detail::buffer_appender<char>, char>>",
   "referenced_type" : "_ZTIN3fmt2v76detail16custom_formatterINS0_20basic_format_contextINS1_15buffer_appenderIcEEcEEEE",
   "self_type" : "_ZTIKN3fmt2v76detail16custom_formatterINS0_20basic_format_contextINS1_15buffer_appenderIcEEcEEEE",
   "size" : 8,
   "source_file" : "external/fmtlib/include/fmt/format.h"
  },
  {
   "alignment" : 4,
   "is_const" : true,
   "linker_set_key" : "_ZTIKN3fmt2v76detail16custom_formatterINS0_20basic_format_contextINSt3__120back_insert_iteratorINS1_6bufferIcEEEEcEEEE",
   "name" : "const fmt::detail::custom_formatter<fmt::basic_format_context<std::back_insert_iterator<fmt::detail::buffer<char>>, char>>",
   "referenced_type" : "_ZTIN3fmt2v76detail16custom_formatterINS0_20basic_format_contextINSt3__120back_insert_iteratorINS1_6bufferIcEEEEcEEEE",
   "self_type" : "_ZTIKN3fmt2v76detail16custom_formatterINS0_20basic_format_contextINSt3__120back_insert_iteratorINS1_6bufferIcEEEEcEEEE",
   "size" : 8,
   "source_file" : "external/fmtlib/include/fmt/format.h"
  },
  {
   "alignment" : 4,
   "is_const" : true,
   "linker_set_key" : "_ZTIKN3fmt2v76detail17counting_iteratorE",
   "name" : "const fmt::detail::counting_iterator",
   "referenced_type" : "_ZTIN3fmt2v76detail17counting_iteratorE",
   "self_type" : "_ZTIKN3fmt2v76detail17counting_iteratorE",
   "size" : 4,
   "source_file" : "external/fmtlib/include/fmt/format.h"
  },
  {
   "alignment" : 4,
   "is_const" : true,
   "linker_set_key" : "_ZTIKN3fmt2v76detail19fixed_buffer_traitsE",
   "name" : "const fmt::detail::fixed_buffer_traits",
   "referenced_type" : "_ZTIN3fmt2v76detail19fixed_buffer_traitsE",
   "self_type" : "_ZTIKN3fmt2v76detail19fixed_buffer_traitsE",
   "size" : 8,
   "source_file" : "external/fmtlib/include/fmt/core.h"
  },
  {
   "alignment" : 4,
   "is_const" : true,
   "linker_set_key" : "_ZTIKN3fmt2v76detail4typeE",
   "name" : "const fmt::detail::type",
   "referenced_type" : "_ZTIN3fmt2v76detail4typeE",
   "self_type" : "_ZTIKN3fmt2v76detail4typeE",
   "size" : 4,
   "source_file" : "external/fmtlib/include/fmt/core.h"
  },
  {
   "alignment" : 4,
   "is_const" : true,
   "linker_set_key" : "_ZTIKN3fmt2v76detail5valueINS0_20basic_format_contextINS1_15buffer_appenderIcEEcEEEE",
   "name" : "const fmt::detail::value<fmt::basic_format_context<fmt::detail::buffer_appender<char>, char>>",
   "referenced_type" : "_ZTIN3fmt2v76detail5valueINS0_20basic_format_contextINS1_15buffer_appenderIcEEcEEEE",
   "self_type" : "_ZTIKN3fmt2v76detail5valueINS0_20basic_format_contextINS1_15buffer_appenderIcEEcEEEE",
   "size" : 8,
   "source_file" : "external/fmtlib/include/fmt/core.h"
  },
  {
   "is_const" : true,
   "linker_set_key" : "_ZTIKN3fmt2v76detail5valueINS0_20basic_format_contextINS1_15buffer_appenderIwEEwEEEE",
   "name" : "const fmt::detail::value<fmt::basic_format_context<fmt::detail::buffer_appender<wchar_t>, wchar_t>>",
   "referenced_type" : "_ZTIN3fmt2v76detail5valueINS0_20basic_format_contextINS1_15buffer_appenderIwEEwEEEE",
   "self_type" : "_ZTIKN3fmt2v76detail5valueINS0_20basic_format_contextINS1_15buffer_appenderIwEEwEEEE",
   "source_file" : "external/fmtlib/include/fmt/core.h"
  },
  {
   "alignment" : 4,
   "is_const" : true,
   "linker_set_key" : "_ZTIKN3fmt2v76detail5valueINS0_20basic_format_contextINSt3__120back_insert_iteratorINS1_6bufferIcEEEEcEEEE",
   "name" : "const fmt::detail::value<fmt::basic_format_context<std::back_insert_iterator<fmt::detail::buffer<char>>, char>>",
   "referenced_type" : "_ZTIN3fmt2v76detail5valueINS0_20basic_format_contextINSt3__120back_insert_iteratorINS1_6bufferIcEEEEcEEEE",
   "self_type" : "_ZTIKN3fmt2v76detail5valueINS0_20basic_format_contextINSt3__120back_insert_iteratorINS1_6bufferIcEEEEcEEEE",
   "size" : 8,
   "source_file" : "external/fmtlib/include/fmt/core.h"
  },
  {
   "is_const" : true,
   "linker_set_key" : "_ZTIKN3fmt2v76detail5valueINS0_20basic_format_contextINSt3__120back_insert_iteratorINS4_12basic_stringIcNS4_11char_traitsIcEENS4_9allocatorIcEEEEEEcEEEE",
   "name" : "const fmt::detail::value<fmt::basic_format_context<std::back_insert_iterator<std::basic_string<char, std::char_traits<char>, std::allocator<char>>>, char>>",
   "referenced_type" : "_ZTIN3fmt2v76detail5valueINS0_20basic_format_contextINSt3__120back_insert_iteratorINS4_12basic_stringIcNS4_11char_traitsIcEENS4_9allocatorIcEEEEEEcEEEE",
   "self_type" : "_ZTIKN3fmt2v76detail5valueINS0_20basic_format_contextINSt3__120back_insert_iteratorINS4_12basic_stringIcNS4_11char_traitsIcEENS4_9allocatorIcEEEEEEcEEEE",
   "source_file" : "external/fmtlib/include/fmt/core.h"
  },
  {
   "is_const" : true,
   "linker_set_key" : "_ZTIKN3fmt2v76detail5valueINS0_20basic_format_contextIPccEEEE",
   "name" : "const fmt::detail::value<fmt::basic_format_context<char *, char>>",
   "referenced_type" : "_ZTIN3fmt2v76detail5valueINS0_20basic_format_contextIPccEEEE",
   "self_type" : "_ZTIKN3fmt2v76detail5valueINS0_20basic_format_contextIPccEEEE",
   "source_file" : "external/fmtlib/include/fmt/core.h"
  },
  {
   "alignment" : 4,
   "is_const" : true,
   "linker_set_key" : "_ZTIKN3fmt2v76detail6bigintE",
   "name" : "const fmt::detail::bigint",
   "referenced_type" : "_ZTIN3fmt2v76detail6bigintE",
   "self_type" : "_ZTIKN3fmt2v76detail6bigintE",
   "size" : 152,
   "source_file" : "external/fmtlib/include/fmt/format-inl.h"
  },
  {
   "alignment" : 4,
   "is_const" : true,
   "linker_set_key" : "_ZTIKN3fmt2v76detail6bufferIcEE",
   "name" : "const fmt::detail::buffer<char>",
   "referenced_type" : "_ZTIN3fmt2v76detail6bufferIcEE",
   "self_type" : "_ZTIKN3fmt2v76detail6bufferIcEE",
   "size" : 16,
   "source_file" : "external/fmtlib/include/fmt/core.h"
  },
  {
   "alignment" : 4,
   "is_const" : true,
   "linker_set_key" : "_ZTIKN3fmt2v76detail6bufferIjEE",
   "name" : "const fmt::detail::buffer<unsigned int>",
   "referenced_type" : "_ZTIN3fmt2v76detail6bufferIjEE",
   "self_type" : "_ZTIKN3fmt2v76detail6bufferIjEE",
   "size" : 16,
   "source_file" : "external/fmtlib/include/fmt/core.h"
  },
  {
   "alignment" : 4,
   "is_const" : true,
   "linker_set_key" : "_ZTIKN3fmt2v76detail6bufferIwEE",
   "name" : "const fmt::detail::buffer<wchar_t>",
   "referenced_type" : "_ZTIN3fmt2v76detail6bufferIwEE",
   "self_type" : "_ZTIKN3fmt2v76detail6bufferIwEE",
   "size" : 16,
   "source_file" : "external/fmtlib/include/fmt/core.h"
  },
  {
   "alignment" : 1,
   "is_const" : true,
   "linker_set_key" : "_ZTIKN3fmt2v76detail6fill_tIcEE",
   "name" : "const fmt::detail::fill_t<char>",
   "referenced_type" : "_ZTIN3fmt2v76detail6fill_tIcEE",
   "self_type" : "_ZTIKN3fmt2v76detail6fill_tIcEE",
   "size" : 5,
   "source_file" : "external/fmtlib/include/fmt/format.h"
  },
  {
   "alignment" : 4,
   "is_const" : true,
   "linker_set_key" : "_ZTIKN3fmt2v76detail8arg_dataINS1_5valueINS0_20basic_format_contextINS1_15buffer_appenderIcEEcEEEEcLj1ELj0EEE",
   "name" : "const fmt::detail::arg_data<fmt::detail::value<fmt::basic_format_context<fmt::detail::buffer_appender<char>, char>>, char, 1, 0>",
   "referenced_type" : "_ZTIN3fmt2v76detail8arg_dataINS1_5valueINS0_20basic_format_contextINS1_15buffer_appenderIcEEcEEEEcLj1ELj0EEE",
   "self_type" : "_ZTIKN3fmt2v76detail8arg_dataINS1_5valueINS0_20basic_format_contextINS1_15buffer_appenderIcEEcEEEEcLj1ELj0EEE",
   "size" : 8,
   "source_file" : "external/fmtlib/include/fmt/core.h"
  },
  {
   "alignment" : 4,
   "is_const" : true,
   "linker_set_key" : "_ZTIKN3fmt2v76detail8arg_dataINS1_5valueINS0_20basic_format_contextINS1_15buffer_appenderIcEEcEEEEcLj2ELj0EEE",
   "name" : "const fmt::detail::arg_data<fmt::detail::value<fmt::basic_format_context<fmt::detail::buffer_appender<char>, char>>, char, 2, 0>",
   "referenced_type" : "_ZTIN3fmt2v76detail8arg_dataINS1_5valueINS0_20basic_format_contextINS1_15buffer_appenderIcEEcEEEEcLj2ELj0EEE",
   "self_type" : "_ZTIKN3fmt2v76detail8arg_dataINS1_5valueINS0_20basic_format_contextINS1_15buffer_appenderIcEEcEEEEcLj2ELj0EEE",
   "size" : 16,
   "source_file" : "external/fmtlib/include/fmt/core.h"
  },
  {
   "alignment" : 4,
   "is_const" : true,
   "linker_set_key" : "_ZTIKN3fmt2v76detail9dragonbox10decimal_fpIdEE",
   "name" : "const fmt::detail::dragonbox::decimal_fp<double>",
   "referenced_type" : "_ZTIN3fmt2v76detail9dragonbox10decimal_fpIdEE",
   "self_type" : "_ZTIKN3fmt2v76detail9dragonbox10decimal_fpIdEE",
   "size" : 12,
   "source_file" : "external/fmtlib/include/fmt/format.h"
  },
  {
   "alignment" : 4,
   "is_const" : true,
   "linker_set_key" : "_ZTIKN3fmt2v76detail9dragonbox10decimal_fpIfEE",
   "name" : "const fmt::detail::dragonbox::decimal_fp<float>",
   "referenced_type" : "_ZTIN3fmt2v76detail9dragonbox10decimal_fpIfEE",
   "self_type" : "_ZTIKN3fmt2v76detail9dragonbox10decimal_fpIfEE",
   "size" : 8,
   "source_file" : "external/fmtlib/include/fmt/format.h"
  },
  {
   "alignment" : 1,
   "is_const" : true,
   "linker_set_key" : "_ZTIKN3fmt2v79monostateE",
   "name" : "const fmt::monostate",
   "referenced_type" : "_ZTIN3fmt2v79monostateE",
   "self_type" : "_ZTIKN3fmt2v79monostateE",
   "size" : 1,
   "source_file" : "external/fmtlib/include/fmt/format.h"
  },
  {
   "alignment" : 4,
   "is_const" : true,
   "linker_set_key" : "_ZTIKN7android4base10MappedFileE",
   "name" : "const android::base::MappedFile",
   "referenced_type" : "_ZTIN7android4base10MappedFileE",
   "self_type" : "_ZTIKN7android4base10MappedFileE",
   "size" : 12,
   "source_file" : "system/libbase/include/android-base/mapped_file.h"
  },
  {
   "alignment" : 4,
   "is_const" : true,
   "linker_set_key" : "_ZTIKN7android4base10log_detail7StorageIiEE",
   "name" : "const android::base::log_detail::Storage<int>",
   "referenced_type" : "_ZTIN7android4base10log_detail7StorageIiEE",
   "self_type" : "_ZTIKN7android4base10log_detail7StorageIiEE",
   "size" : 4,
   "source_file" : "system/libbase/include/android-base/logging.h"
  },
  {
   "alignment" : 4,
   "is_const" : true,
   "linker_set_key" : "_ZTIKN7android4base10log_detail7StorageIxEE",
   "name" : "const android::base::log_detail::Storage<long long>",
   "referenced_type" : "_ZTIN7android4base10log_detail7StorageIxEE",
   "self_type" : "_ZTIKN7android4base10log_detail7StorageIxEE",
   "size" : 8,
   "source_file" : "system/libbase/include/android-base/logging.h"
  },
  {
   "alignment" : 4,
   "is_const" : true,
   "linker_set_key" : "_ZTIKN7android4base11borrowed_fdE",
   "name" : "const android::base::borrowed_fd",
   "referenced_type" : "_ZTIN7android4base11borrowed_fdE",
   "self_type" : "_ZTIKN7android4base11borrowed_fdE",
   "size" : 4,
   "source_file" : "system/libbase/include/android-base/unique_fd.h"
  },
  {
   "alignment" : 4,
   "is_const" : true,
   "linker_set_key" : "_ZTIKN7android4base13ErrnoRestorerE",
   "name" : "const android::base::ErrnoRestorer",
   "referenced_type" : "_ZTIN7android4base13ErrnoRestorerE",
   "self_type" : "_ZTIKN7android4base13ErrnoRestorerE",
   "size" : 4,
   "source_file" : "system/libbase/include/android-base/errno_restorer.h"
  },
  {
   "alignment" : 4,
   "is_const" : true,
   "linker_set_key" : "_ZTIKN7android4base14unique_fd_implINS0_13DefaultCloserEEE",
   "name" : "const android::base::unique_fd_impl<android::base::DefaultCloser>",
   "referenced_type" : "_ZTIN7android4base14unique_fd_implINS0_13DefaultCloserEEE",
   "self_type" : "_ZTIKN7android4base14unique_fd_implINS0_13DefaultCloserEEE",
   "size" : 4,
   "source_file" : "system/libbase/include/android-base/unique_fd.h"
  },
  {
   "alignment" : 4,
   "is_const" : true,
   "linker_set_key" : "_ZTIKN7android4base5TimerE",
   "name" : "const android::base::Timer",
   "referenced_type" : "_ZTIN7android4base5TimerE",
   "self_type" : "_ZTIKN7android4base5TimerE",
   "size" : 8,
   "source_file" : "system/libbase/include/android-base/chrono_utils.h"
  },
  {
   "alignment" : 4,
   "is_const" : true,
   "linker_set_key" : "_ZTIKN7android4base7AllPids11PidIteratorE",
   "name" : "const android::base::AllPids::PidIterator",
   "referenced_type" : "_ZTIN7android4base7AllPids11PidIteratorE",
   "self_type" : "_ZTIKN7android4base7AllPids11PidIteratorE",
   "size" : 12,
   "source_file" : "system/libbase/include/android-base/process.h"
  },
  {
   "alignment" : 4,
   "is_const" : true,
   "linker_set_key" : "_ZTIKNSt3__110unique_ptrIN7android4base14LogMessageDataENS_14default_deleteIS3_EEEE",
   "name" : "const std::unique_ptr<android::base::LogMessageData, std::default_delete<android::base::LogMessageData>>",
   "referenced_type" : "_ZTINSt3__110unique_ptrIN7android4base14LogMessageDataENS_14default_deleteIS3_EEEE",
   "self_type" : "_ZTIKNSt3__110unique_ptrIN7android4base14LogMessageDataENS_14default_deleteIS3_EEEE",
   "size" : 4,
   "source_file" : "system/libbase/include/android-base/logging.h"
  },
  {
   "alignment" : 4,
   "is_const" : true,
   "linker_set_key" : "_ZTIKNSt3__112basic_stringIcNS_11char_traitsIcEENS_9allocatorIcEEEE",
   "name" : "const std::basic_string<char, std::char_traits<char>, std::allocator<char>>",
   "referenced_type" : "_ZTINSt3__112basic_stringIcNS_11char_traitsIcEENS_9allocatorIcEEEE",
   "self_type" : "_ZTIKNSt3__112basic_stringIcNS_11char_traitsIcEENS_9allocatorIcEEEE",
   "size" : 12,
   "source_file" : "system/libbase/include/android-base/logging.h"
  },
  {
   "alignment" : 4,
   "is_const" : true,
   "linker_set_key" : "_ZTIKNSt3__16localeE",
   "name" : "const std::locale",
   "referenced_type" : "_ZTINSt3__16localeE",
   "self_type" : "_ZTIKNSt3__16localeE",
   "size" : 4,
   "source_file" : "external/fmtlib/include/fmt/format-inl.h"
  },
  {
   "alignment" : 4,
   "is_const" : true,
   "linker_set_key" : "_ZTIKNSt3__16vectorINS_12basic_stringIcNS_11char_traitsIcEENS_9allocatorIcEEEENS4_IS6_EEEE",
   "name" : "const std::vector<std::basic_string<char, std::char_traits<char>, std::allocator<char>>, std::allocator<std::basic_string<char, std::char_traits<char>, std::allocator<char>>>>",
   "referenced_type" : "_ZTINSt3__16vectorINS_12basic_stringIcNS_11char_traitsIcEENS_9allocatorIcEEEENS4_IS6_EEEE",
   "self_type" : "_ZTIKNSt3__16vectorINS_12basic_stringIcNS_11char_traitsIcEENS_9allocatorIcEEEENS4_IS6_EEEE",
   "size" : 12,
   "source_file" : "system/libbase/include/android-base/strings.h"
  },
  {
   "alignment" : 4,
   "is_const" : true,
   "linker_set_key" : "_ZTIKNSt3__16vectorIPKcNS_9allocatorIS2_EEEE",
   "name" : "const std::vector<const char *, std::allocator<const char *>>",
   "referenced_type" : "_ZTINSt3__16vectorIPKcNS_9allocatorIS2_EEEE",
   "self_type" : "_ZTIKNSt3__16vectorIPKcNS_9allocatorIS2_EEEE",
   "size" : 12,
   "source_file" : "system/libbase/include/android-base/strings.h"
  },
  {
   "alignment" : 4,
   "is_const" : true,
   "linker_set_key" : "_ZTIKNSt3__16vectorIiNS_9allocatorIiEEEE",
   "name" : "const std::vector<int, std::allocator<int>>",
   "referenced_type" : "_ZTINSt3__16vectorIiNS_9allocatorIiEEEE",
   "self_type" : "_ZTIKNSt3__16vectorIiNS_9allocatorIiEEEE",
   "size" : 12,
   "source_file" : "system/libbase/include/android-base/cmsg.h"
  },
  {
   "alignment" : 1,
   "is_const" : true,
   "linker_set_key" : "_ZTIKNSt3__19allocatorIcEE",
   "name" : "const std::allocator<char>",
   "referenced_type" : "_ZTINSt3__19allocatorIcEE",
   "self_type" : "_ZTIKNSt3__19allocatorIcEE",
   "size" : 1,
   "source_file" : "external/fmtlib/include/fmt/format.h"
  },
  {
   "alignment" : 1,
   "is_const" : true,
   "linker_set_key" : "_ZTIKNSt3__19allocatorIjEE",
   "name" : "const std::allocator<unsigned int>",
   "referenced_type" : "_ZTINSt3__19allocatorIjEE",
   "self_type" : "_ZTIKNSt3__19allocatorIjEE",
   "size" : 1,
   "source_file" : "external/fmtlib/include/fmt/format.h"
  },
  {
   "alignment" : 1,
   "is_const" : true,
   "linker_set_key" : "_ZTIKNSt3__19allocatorIwEE",
   "name" : "const std::allocator<wchar_t>",
   "referenced_type" : "_ZTINSt3__19allocatorIwEE",
   "self_type" : "_ZTIKNSt3__19allocatorIwEE",
   "size" : 1,
   "source_file" : "external/fmtlib/include/fmt/format.h"
  },
  {
   "alignment" : 4,
   "is_const" : true,
   "linker_set_key" : "_ZTIKPKc",
   "name" : "const char *const",
   "referenced_type" : "_ZTIPKc",
   "self_type" : "_ZTIKPKc",
   "size" : 4,
   "source_file" : "external/fmtlib/include/fmt/core.h"
  },
  {
   "alignment" : 4,
   "is_const" : true,
   "linker_set_key" : "_ZTIKPKv",
   "name" : "const void *const",
   "referenced_type" : "_ZTIPKv",
   "self_type" : "_ZTIKPKv",
   "size" : 4,
   "source_file" : "external/fmtlib/include/fmt/format.h"
  },
  {
   "alignment" : 4,
   "is_const" : true,
   "linker_set_key" : "_ZTIKPc",
   "name" : "char *const",
   "referenced_type" : "_ZTIPc",
   "self_type" : "_ZTIKPc",
   "size" : 4,
   "source_file" : "external/fmtlib/include/fmt/core.h"
  },
  {
   "alignment" : 1,
   "is_const" : true,
   "linker_set_key" : "_ZTIKb",
   "name" : "const bool",
   "referenced_type" : "_ZTIb",
   "self_type" : "_ZTIKb",
   "size" : 1,
   "source_file" : "system/libbase/include/android-base/logging.h"
  },
  {
   "alignment" : 1,
   "is_const" : true,
   "linker_set_key" : "_ZTIKc",
   "name" : "const char",
   "referenced_type" : "_ZTIc",
   "self_type" : "_ZTIKc",
   "size" : 1,
   "source_file" : "system/libbase/include/android-base/unique_fd.h"
  },
  {
   "alignment" : 4,
   "is_const" : true,
   "linker_set_key" : "_ZTIKd",
   "name" : "const double",
   "referenced_type" : "_ZTId",
   "self_type" : "_ZTIKd",
   "size" : 8,
   "source_file" : "external/fmtlib/include/fmt/format.h"
  },
  {
   "alignment" : 4,
   "is_const" : true,
   "linker_set_key" : "_ZTIKe",
   "name" : "const long double",
   "referenced_type" : "_ZTIe",
   "self_type" : "_ZTIKe",
   "size" : 8,
   "source_file" : "external/fmtlib/include/fmt/format.h"
  },
  {
   "alignment" : 4,
   "is_const" : true,
   "linker_set_key" : "_ZTIKf",
   "name" : "const float",
   "referenced_type" : "_ZTIf",
   "self_type" : "_ZTIKf",
   "size" : 4,
   "source_file" : "external/fmtlib/include/fmt/format.h"
  },
  {
   "alignment" : 4,
   "is_const" : true,
   "linker_set_key" : "_ZTIKi",
   "name" : "const int",
   "referenced_type" : "_ZTIi",
   "self_type" : "_ZTIKi",
   "size" : 4,
   "source_file" : "system/libbase/include/android-base/errno_restorer.h"
  },
  {
   "alignment" : 4,
   "is_const" : true,
   "linker_set_key" : "_ZTIKj",
   "name" : "const unsigned int",
   "referenced_type" : "_ZTIj",
   "self_type" : "_ZTIKj",
   "size" : 4,
   "source_file" : "external/fmtlib/include/fmt/core.h"
  },
  {
   "is_const" : true,
   "linker_set_key" : "_ZTIKv",
   "name" : "const void",
   "referenced_type" : "_ZTIv",
   "self_type" : "_ZTIKv",
   "source_file" : "system/libbase/include/android-base/cmsg.h"
  },
  {
   "alignment" : 4,
   "is_const" : true,
   "linker_set_key" : "_ZTIKw",
   "name" : "const wchar_t",
   "referenced_type" : "_ZTIw",
   "self_type" : "_ZTIKw",
   "size" : 4,
   "source_file" : "external/fmtlib/include/fmt/core.h"
  },
  {
   "alignment" : 4,
   "is_const" : true,
   "linker_set_key" : "_ZTIKx",
   "name" : "const long long",
   "referenced_type" : "_ZTIx",
   "self_type" : "_ZTIKx",
   "size" : 8,
   "source_file" : "system/libbase/include/android-base/logging.h"
  },
  {
   "alignment" : 4,
   "is_const" : true,
   "linker_set_key" : "_ZTIKy",
   "name" : "const unsigned long long",
   "referenced_type" : "_ZTIy",
   "self_type" : "_ZTIKy",
   "size" : 8,
   "source_file" : "external/fmtlib/include/fmt/core.h"
  }
 ],
 "record_types" :
 [
  {
   "alignment" : 1,
   "fields" :
   [
    {
     "field_name" : "path",
     "referenced_type" : "_ZTIA1024_c"
    },
    {
     "access" : "private",
     "field_name" : "remove_dir_and_contents_",
     "field_offset" : 8192,
     "referenced_type" : "_ZTIb"
    }
   ],
   "linker_set_key" : "_ZTI12TemporaryDir",
   "name" : "TemporaryDir",
   "record_kind" : "class",
   "referenced_type" : "_ZTI12TemporaryDir",
   "self_type" : "_ZTI12TemporaryDir",
   "size" : 1025,
   "source_file" : "system/libbase/include/android-base/file.h"
  },
  {
   "alignment" : 4,
   "fields" :
   [
    {
     "access" : "private",
     "field_name" : "temp_file_",
     "referenced_type" : "_ZTI13TemporaryFile"
    },
    {
     "access" : "private",
     "field_name" : "std_fd_",
     "field_offset" : 8256,
     "referenced_type" : "_ZTIi"
    },
    {
     "access" : "private",
     "field_name" : "old_fd_",
     "field_offset" : 8288,
     "referenced_type" : "_ZTIi"
    }
   ],
   "linker_set_key" : "_ZTI13CapturedStdFd",
   "name" : "CapturedStdFd",
   "record_kind" : "class",
   "referenced_type" : "_ZTI13CapturedStdFd",
   "self_type" : "_ZTI13CapturedStdFd",
   "size" : 1040,
   "source_file" : "system/libbase/include/android-base/test_utils.h"
  },
  {
   "alignment" : 4,
   "fields" :
   [
    {
     "field_name" : "fd",
     "referenced_type" : "_ZTIi"
    },
    {
     "field_name" : "path",
     "field_offset" : 32,
     "referenced_type" : "_ZTIA1024_c"
    },
    {
     "access" : "private",
     "field_name" : "remove_file_",
     "field_offset" : 8224,
     "referenced_type" : "_ZTIb"
    }
   ],
   "linker_set_key" : "_ZTI13TemporaryFile",
   "name" : "TemporaryFile",
   "record_kind" : "class",
   "referenced_type" : "_ZTI13TemporaryFile",
   "self_type" : "_ZTI13TemporaryFile",
   "size" : 1032,
   "source_file" : "system/libbase/include/android-base/file.h"
  },
  {
   "alignment" : 4,
   "base_specifiers" :
   [
    {
     "referenced_type" : "_ZTI13CapturedStdFd"
    }
   ],
   "linker_set_key" : "_ZTI14CapturedStderr",
   "name" : "CapturedStderr",
   "record_kind" : "class",
   "referenced_type" : "_ZTI14CapturedStderr",
   "self_type" : "_ZTI14CapturedStderr",
   "size" : 1040,
   "source_file" : "system/libbase/include/android-base/test_utils.h"
  },
  {
   "alignment" : 4,
   "base_specifiers" :
   [
    {
     "referenced_type" : "_ZTI13CapturedStdFd"
    }
   ],
   "linker_set_key" : "_ZTI14CapturedStdout",
   "name" : "CapturedStdout",
   "record_kind" : "class",
   "referenced_type" : "_ZTI14CapturedStdout",
   "self_type" : "_ZTI14CapturedStdout",
   "size" : 1040,
   "source_file" : "system/libbase/include/android-base/test_utils.h"
  },
  {
   "alignment" : 4,
   "fields" :
   [
    {
     "access" : "private",
     "field_name" : "buffer_",
     "referenced_type" : "_ZTIA22_c"
    },
    {
     "access" : "private",
     "field_name" : "str_",
     "field_offset" : 192,
     "referenced_type" : "_ZTIPc"
    }
   ],
   "linker_set_key" : "_ZTIN3fmt2v710format_intE",
   "name" : "fmt::format_int",
   "record_kind" : "class",
   "referenced_type" : "_ZTIN3fmt2v710format_intE",
   "self_type" : "_ZTIN3fmt2v710format_intE",
   "size" : 28,
   "source_file" : "external/fmtlib/include/fmt/format.h"
  },
  {
   "alignment" : 4,
   "base_specifiers" :
   [
    {
     "referenced_type" : "_ZTIN3fmt2v717basic_format_argsINS0_20basic_format_contextINS0_6detail15buffer_appenderIcEEcEEEE"
    }
   ],
   "linker_set_key" : "_ZTIN3fmt2v711format_argsE",
   "name" : "fmt::format_args",
   "referenced_type" : "_ZTIN3fmt2v711format_argsE",
   "self_type" : "_ZTIN3fmt2v711format_argsE",
   "size" : 12,
   "source_file" : "external/fmtlib/include/fmt/core.h"
  },
  {
   "alignment" : 4,
   "base_specifiers" :
   [
    {
     "referenced_type" : "_ZTISt13runtime_error"
    }
   ],
   "linker_set_key" : "_ZTIN3fmt2v712format_errorE",
   "name" : "fmt::format_error",
   "record_kind" : "class",
   "referenced_type" : "_ZTIN3fmt2v712format_errorE",
   "self_type" : "_ZTIN3fmt2v712format_errorE",
   "size" : 8,
   "source_file" : "external/fmtlib/include/fmt/format.h",
   "vtable_components" :
   [
    {
     "kind" : "offset_to_top"
    },
    {
     "kind" : "rtti",
     "mangled_component_name" : "_ZTIN3fmt2v712format_errorE"
    },
    {
     "kind" : "complete_dtor_pointer",
     "mangled_component_name" : "_ZN3fmt2v712format_errorD1Ev"
    },
    {
     "kind" : "deleting_dtor_pointer",
     "mangled_component_name" : "_ZN3fmt2v712format_errorD0Ev"
    },
    {
     "mangled_component_name" : "_ZNKSt13runtime_error4whatEv"
    }
   ]
  },
  {
   "alignment" : 4,
   "base_specifiers" :
   [
    {
     "referenced_type" : "_ZTISt13runtime_error"
    }
   ],
   "fields" :
   [
    {
     "access" : "protected",
     "field_name" : "error_code_",
     "field_offset" : 64,
     "referenced_type" : "_ZTIi"
    }
   ],
   "linker_set_key" : "_ZTIN3fmt2v712system_errorE",
   "name" : "fmt::system_error",
   "record_kind" : "class",
   "referenced_type" : "_ZTIN3fmt2v712system_errorE",
   "self_type" : "_ZTIN3fmt2v712system_errorE",
   "size" : 12,
   "source_file" : "external/fmtlib/include/fmt/format.h",
   "vtable_components" :
   [
    {
     "kind" : "offset_to_top"
    },
    {
     "kind" : "rtti",
     "mangled_component_name" : "_ZTIN3fmt2v712system_errorE"
    },
    {
     "kind" : "complete_dtor_pointer",
     "mangled_component_name" : "_ZN3fmt2v712system_errorD1Ev"
    },
    {
     "kind" : "deleting_dtor_pointer",
     "mangled_component_name" : "_ZN3fmt2v712system_errorD0Ev"
    },
    {
     "mangled_component_name" : "_ZNKSt13runtime_error4whatEv"
    }
   ]
  },
  {
   "alignment" : 4,
   "base_specifiers" :
   [
    {
     "referenced_type" : "_ZTIN3fmt2v717basic_format_argsINS0_20basic_format_contextINS0_6detail15buffer_appenderIwEEwEEEE"
    }
   ],
   "linker_set_key" : "_ZTIN3fmt2v712wformat_argsE",
   "name" : "fmt::wformat_args",
   "referenced_type" : "_ZTIN3fmt2v712wformat_argsE",
   "self_type" : "_ZTIN3fmt2v712wformat_argsE",
   "size" : 12,
   "source_file" : "external/fmtlib/include/fmt/core.h"
  },
  {
   "alignment" : 1,
   "base_specifiers" :
   [
    {
     "referenced_type" : "_ZTINSt3__117integral_constantIbLb0EEE"
    }
   ],
   "linker_set_key" : "_ZTIN3fmt2v713is_contiguousINS0_6detail6bufferIcEEEE",
   "name" : "fmt::is_contiguous<fmt::detail::buffer<char>>",
   "referenced_type" : "_ZTIN3fmt2v713is_contiguousINS0_6detail6bufferIcEEEE",
   "self_type" : "_ZTIN3fmt2v713is_contiguousINS0_6detail6bufferIcEEEE",
   "size" : 1,
   "source_file" : "external/fmtlib/include/fmt/core.h",
   "template_args" : [ "_ZTIN3fmt2v76detail6bufferIcEE" ]
  },
  {
   "alignment" : 1,
   "base_specifiers" :
   [
    {
     "referenced_type" : "_ZTINSt3__117integral_constantIbLb1EEE"
    }
   ],
   "linker_set_key" : "_ZTIN3fmt2v713is_contiguousINSt3__112basic_stringIcNS2_11char_traitsIcEENS2_9allocatorIcEEEEEE",
   "name" : "fmt::is_contiguous<std::basic_string<char, std::char_traits<char>, std::allocator<char>>>",
   "referenced_type" : "_ZTIN3fmt2v713is_contiguousINSt3__112basic_stringIcNS2_11char_traitsIcEENS2_9allocatorIcEEEEEE",
   "self_type" : "_ZTIN3fmt2v713is_contiguousINSt3__112basic_stringIcNS2_11char_traitsIcEENS2_9allocatorIcEEEEEE",
   "size" : 1,
   "source_file" : "external/fmtlib/include/fmt/core.h",
   "template_args" : [ "_ZTINSt3__112basic_stringIcNS_11char_traitsIcEENS_9allocatorIcEEEE" ]
  },
  {
   "alignment" : 1,
   "linker_set_key" : "_ZTIN3fmt2v713type_identityIcEE",
   "name" : "fmt::type_identity<char>",
   "referenced_type" : "_ZTIN3fmt2v713type_identityIcEE",
   "self_type" : "_ZTIN3fmt2v713type_identityIcEE",
   "size" : 1,
   "source_file" : "external/fmtlib/include/fmt/core.h",
   "template_args" : [ "_ZTIc" ]
  },
  {
   "alignment" : 1,
   "linker_set_key" : "_ZTIN3fmt2v714compile_stringE",
   "name" : "fmt::compile_string",
   "referenced_type" : "_ZTIN3fmt2v714compile_stringE",
   "self_type" : "_ZTIN3fmt2v714compile_stringE",
   "size" : 1,
   "source_file" : "external/fmtlib/include/fmt/core.h"
  },
  {
   "alignment" : 4,
   "fields" :
   [
    {
     "access" : "private",
     "field_name" : "custom_",
     "referenced_type" : "_ZTIN3fmt2v76detail12custom_valueINS0_20basic_format_contextINS1_15buffer_appenderIcEEcEEEE"
    }
   ],
   "linker_set_key" : "_ZTIN3fmt2v716basic_format_argINS0_20basic_format_contextINS0_6detail15buffer_appenderIcEEcEEE6handleE",
   "name" : "fmt::basic_format_arg<basic_format_context<buffer_appender<char>, char>>::handle",
   "record_kind" : "class",
   "referenced_type" : "_ZTIN3fmt2v716basic_format_argINS0_20basic_format_contextINS0_6detail15buffer_appenderIcEEcEEE6handleE",
   "self_type" : "_ZTIN3fmt2v716basic_format_argINS0_20basic_format_contextINS0_6detail15buffer_appenderIcEEcEEE6handleE",
   "size" : 8,
   "source_file" : "external/fmtlib/include/fmt/core.h"
  },
  {
   "alignment" : 4,
   "fields" :
   [
    {
     "access" : "private",
     "field_name" : "value_",
     "referenced_type" : "_ZTIN3fmt2v76detail5valueINS0_20basic_format_contextINS1_15buffer_appenderIcEEcEEEE"
    },
    {
     "access" : "private",
     "field_name" : "type_",
     "field_offset" : 64,
     "referenced_type" : "_ZTIN3fmt2v76detail4typeE"
    }
   ],
   "linker_set_key" : "_ZTIN3fmt2v716basic_format_argINS0_20basic_format_contextINS0_6detail15buffer_appenderIcEEcEEEE",
   "name" : "fmt::basic_format_arg<fmt::basic_format_context<fmt::detail::buffer_appender<char>, char>>",
   "record_kind" : "class",
   "referenced_type" : "_ZTIN3fmt2v716basic_format_argINS0_20basic_format_contextINS0_6detail15buffer_appenderIcEEcEEEE",
   "self_type" : "_ZTIN3fmt2v716basic_format_argINS0_20basic_format_contextINS0_6detail15buffer_appenderIcEEcEEEE",
   "size" : 12,
   "source_file" : "external/fmtlib/include/fmt/core.h",
   "template_args" :
   [
    "_ZTIN3fmt2v720basic_format_contextINS0_6detail15buffer_appenderIcEEcEE"
   ]
  },
  {
   "alignment" : 4,
   "fields" :
   [
    {
     "access" : "private",
     "field_name" : "custom_",
     "referenced_type" : "_ZTIN3fmt2v76detail12custom_valueINS0_20basic_format_contextINSt3__120back_insert_iteratorINS1_6bufferIcEEEEcEEEE"
    }
   ],
   "linker_set_key" : "_ZTIN3fmt2v716basic_format_argINS0_20basic_format_contextINSt3__120back_insert_iteratorINS0_6detail6bufferIcEEEEcEEE6handleE",
   "name" : "fmt::basic_format_arg<basic_format_context<back_insert_iterator<buffer<char>>, char>>::handle",
   "record_kind" : "class",
   "referenced_type" : "_ZTIN3fmt2v716basic_format_argINS0_20basic_format_contextINSt3__120back_insert_iteratorINS0_6detail6bufferIcEEEEcEEE6handleE",
   "self_type" : "_ZTIN3fmt2v716basic_format_argINS0_20basic_format_contextINSt3__120back_insert_iteratorINS0_6detail6bufferIcEEEEcEEE6handleE",
   "size" : 8,
   "source_file" : "external/fmtlib/include/fmt/core.h"
  },
  {
   "alignment" : 4,
   "fields" :
   [
    {
     "access" : "private",
     "field_name" : "value_",
     "referenced_type" : "_ZTIN3fmt2v76detail5valueINS0_20basic_format_contextINSt3__120back_insert_iteratorINS1_6bufferIcEEEEcEEEE"
    },
    {
     "access" : "private",
     "field_name" : "type_",
     "field_offset" : 64,
     "referenced_type" : "_ZTIN3fmt2v76detail4typeE"
    }
   ],
   "linker_set_key" : "_ZTIN3fmt2v716basic_format_argINS0_20basic_format_contextINSt3__120back_insert_iteratorINS0_6detail6bufferIcEEEEcEEEE",
   "name" : "fmt::basic_format_arg<fmt::basic_format_context<std::back_insert_iterator<fmt::detail::buffer<char>>, char>>",
   "record_kind" : "class",
   "referenced_type" : "_ZTIN3fmt2v716basic_format_argINS0_20basic_format_contextINSt3__120back_insert_iteratorINS0_6detail6bufferIcEEEEcEEEE",
   "self_type" : "_ZTIN3fmt2v716basic_format_argINS0_20basic_format_contextINSt3__120back_insert_iteratorINS0_6detail6bufferIcEEEEcEEEE",
   "size" : 12,
   "source_file" : "external/fmtlib/include/fmt/core.h",
   "template_args" :
   [
    "_ZTIN3fmt2v720basic_format_contextINSt3__120back_insert_iteratorINS0_6detail6bufferIcEEEEcEE"
   ]
  },
  {
   "alignment" : 4,
   "fields" :
   [
    {
     "access" : "private",
     "field_name" : "data_",
     "referenced_type" : "_ZTIN3fmt2v76detail8arg_dataINS1_5valueINS0_20basic_format_contextINS1_15buffer_appenderIcEEcEEEEcLj2ELj0EEE"
    }
   ],
   "linker_set_key" : "_ZTIN3fmt2v716format_arg_storeINS0_20basic_format_contextINS0_6detail15buffer_appenderIcEEcEEJA7_KciEEE",
   "name" : "fmt::format_arg_store<fmt::basic_format_context<fmt::detail::buffer_appender<char>, char>, char const[7], int>",
   "record_kind" : "class",
   "referenced_type" : "_ZTIN3fmt2v716format_arg_storeINS0_20basic_format_contextINS0_6detail15buffer_appenderIcEEcEEJA7_KciEEE",
   "self_type" : "_ZTIN3fmt2v716format_arg_storeINS0_20basic_format_contextINS0_6detail15buffer_appenderIcEEcEEJA7_KciEEE",
   "size" : 16,
   "source_file" : "external/fmtlib/include/fmt/core.h",
   "template_args" :
   [
    "_ZTIN3fmt2v720basic_format_contextINS0_6detail15buffer_appenderIcEEcEE"
   ]
  },
  {
   "alignment" : 4,
   "fields" :
   [
    {
     "access" : "private",
     "field_name" : "data_",
     "referenced_type" : "_ZTIN3fmt2v76detail8arg_dataINS1_5valueINS0_20basic_format_contextINS1_15buffer_appenderIcEEcEEEEcLj2ELj0EEE"
    }
   ],
   "linker_set_key" : "_ZTIN3fmt2v716format_arg_storeINS0_20basic_format_contextINS0_6detail15buffer_appenderIcEEcEEJNS0_17basic_string_viewIcEEA3_KcEEE",
   "name" : "fmt::format_arg_store<fmt::basic_format_context<fmt::detail::buffer_appender<char>, char>, basic_string_view<char>, char const[3]>",
   "record_kind" : "class",
   "referenced_type" : "_ZTIN3fmt2v716format_arg_storeINS0_20basic_format_contextINS0_6detail15buffer_appenderIcEEcEEJNS0_17basic_string_viewIcEEA3_KcEEE",
   "self_type" : "_ZTIN3fmt2v716format_arg_storeINS0_20basic_format_contextINS0_6detail15buffer_appenderIcEEcEEJNS0_17basic_string_viewIcEEA3_KcEEE",
   "size" : 16,
   "source_file" : "external/fmtlib/include/fmt/core.h",
   "template_args" :
   [
    "_ZTIN3fmt2v720basic_format_contextINS0_6detail15buffer_appenderIcEEcEE"
   ]
  },
  {
   "alignment" : 4,
   "fields" :
   [
    {
     "access" : "private",
     "field_name" : "data_",
     "referenced_type" : "_ZTIN3fmt2v76detail8arg_dataINS1_5valueINS0_20basic_format_contextINS1_15buffer_appenderIcEEcEEEEcLj2ELj0EEE"
    }
   ],
   "linker_set_key" : "_ZTIN3fmt2v716format_arg_storeINS0_20basic_format_contextINS0_6detail15buffer_appenderIcEEcEEJNS0_17basic_string_viewIcEEPcEEE",
   "name" : "fmt::format_arg_store<fmt::basic_format_context<fmt::detail::buffer_appender<char>, char>, basic_string_view<char>, char *>",
   "record_kind" : "class",
   "referenced_type" : "_ZTIN3fmt2v716format_arg_storeINS0_20basic_format_contextINS0_6detail15buffer_appenderIcEEcEEJNS0_17basic_string_viewIcEEPcEEE",
   "self_type" : "_ZTIN3fmt2v716format_arg_storeINS0_20basic_format_contextINS0_6detail15buffer_appenderIcEEcEEJNS0_17basic_string_viewIcEEPcEEE",
   "size" : 16,
   "source_file" : "external/fmtlib/include/fmt/core.h",
   "template_args" :
   [
    "_ZTIN3fmt2v720basic_format_contextINS0_6detail15buffer_appenderIcEEcEE"
   ]
  },
  {
   "alignment" : 4,
   "fields" :
   [
    {
     "access" : "private",
     "field_name" : "data_",
     "referenced_type" : "_ZTIN3fmt2v76detail8arg_dataINS1_5valueINS0_20basic_format_contextINS1_15buffer_appenderIcEEcEEEEcLj1ELj0EEE"
    }
   ],
   "linker_set_key" : "_ZTIN3fmt2v716format_arg_storeINS0_20basic_format_contextINS0_6detail15buffer_appenderIcEEcEEJiEEE",
   "name" : "fmt::format_arg_store<fmt::basic_format_context<fmt::detail::buffer_appender<char>, char>, int>",
   "record_kind" : "class",
   "referenced_type" : "_ZTIN3fmt2v716format_arg_storeINS0_20basic_format_contextINS0_6detail15buffer_appenderIcEEcEEJiEEE",
   "self_type" : "_ZTIN3fmt2v716format_arg_storeINS0_20basic_format_contextINS0_6detail15buffer_appenderIcEEcEEJiEEE",
   "size" : 8,
   "source_file" : "external/fmtlib/include/fmt/core.h",
   "template_args" :
   [
    "_ZTIN3fmt2v720basic_format_contextINS0_6detail15buffer_appenderIcEEcEE"
   ]
  },
  {
   "alignment" : 4,
   "fields" :
   [
    {
     "access" : "private",
     "field_name" : "data_",
     "referenced_type" : "_ZTIN3fmt2v76detail8arg_dataINS1_5valueINS0_20basic_format_contextINS1_15buffer_appenderIcEEcEEEEcLj1ELj0EEE"
    }
   ],
   "linker_set_key" : "_ZTIN3fmt2v716format_arg_storeINS0_20basic_format_contextINS0_6detail15buffer_appenderIcEEcEEJjEEE",
   "name" : "fmt::format_arg_store<fmt::basic_format_context<fmt::detail::buffer_appender<char>, char>, unsigned int>",
   "record_kind" : "class",
   "referenced_type" : "_ZTIN3fmt2v716format_arg_storeINS0_20basic_format_contextINS0_6detail15buffer_appenderIcEEcEEJjEEE",
   "self_type" : "_ZTIN3fmt2v716format_arg_storeINS0_20basic_format_contextINS0_6detail15buffer_appenderIcEEcEEJjEEE",
   "size" : 8,
   "source_file" : "external/fmtlib/include/fmt/core.h",
   "template_args" :
   [
    "_ZTIN3fmt2v720basic_format_contextINS0_6detail15buffer_appenderIcEEcEE"
   ]
  },
  {
   "alignment" : 4,
   "fields" :
   [
    {
     "access" : "private",
     "field_name" : "desc_",
     "referenced_type" : "_ZTIy"
    },
    {
     "access" : "private",
     "field_offset" : 64,
     "referenced_type" : "_ZTIN3fmt2v717basic_format_argsINS0_20basic_format_contextINS0_6detail15buffer_appenderIcEEcEEEUt_E"
    }
   ],
   "linker_set_key" : "_ZTIN3fmt2v717basic_format_argsINS0_20basic_format_contextINS0_6detail15buffer_appenderIcEEcEEEE",
   "name" : "fmt::basic_format_args<fmt::basic_format_context<fmt::detail::buffer_appender<char>, char>>",
   "record_kind" : "class",
   "referenced_type" : "_ZTIN3fmt2v717basic_format_argsINS0_20basic_format_contextINS0_6detail15buffer_appenderIcEEcEEEE",
   "self_type" : "_ZTIN3fmt2v717basic_format_argsINS0_20basic_format_contextINS0_6detail15buffer_appenderIcEEcEEEE",
   "size" : 12,
   "source_file" : "external/fmtlib/include/fmt/core.h",
   "template_args" :
   [
    "_ZTIN3fmt2v720basic_format_contextINS0_6detail15buffer_appenderIcEEcEE"
   ]
  },
  {
   "access" : "private",
   "alignment" : 4,
   "fields" :
   [
    {
     "field_name" : "values_",
     "referenced_type" : "_ZTIPKN3fmt2v76detail5valueINS0_20basic_format_contextINS1_15buffer_appenderIcEEcEEEE"
    },
    {
     "field_name" : "args_",
     "referenced_type" : "_ZTIPKN3fmt2v716basic_format_argINS0_20basic_format_contextINS0_6detail15buffer_appenderIcEEcEEEE"
    }
   ],
   "is_anonymous" : true,
   "linker_set_key" : "_ZTIN3fmt2v717basic_format_argsINS0_20basic_format_contextINS0_6detail15buffer_appenderIcEEcEEEUt_E",
   "name" : "fmt::basic_format_args<basic_format_context<buffer_appender<char>, char>>::(anonymous union at external/fmtlib/include/fmt/core.h:1839:3)",
   "record_kind" : "union",
   "referenced_type" : "_ZTIN3fmt2v717basic_format_argsINS0_20basic_format_contextINS0_6detail15buffer_appenderIcEEcEEEUt_E",
   "self_type" : "_ZTIN3fmt2v717basic_format_argsINS0_20basic_format_contextINS0_6detail15buffer_appenderIcEEcEEEUt_E",
   "size" : 4,
   "source_file" : "external/fmtlib/include/fmt/core.h"
  },
  {
   "alignment" : 4,
   "fields" :
   [
    {
     "access" : "private",
     "field_name" : "desc_",
     "referenced_type" : "_ZTIy"
    },
    {
     "access" : "private",
     "field_offset" : 64,
     "referenced_type" : "_ZTIN3fmt2v717basic_format_argsINS0_20basic_format_contextINS0_6detail15buffer_appenderIwEEwEEEUt_E"
    }
   ],
   "linker_set_key" : "_ZTIN3fmt2v717basic_format_argsINS0_20basic_format_contextINS0_6detail15buffer_appenderIwEEwEEEE",
   "name" : "fmt::basic_format_args<fmt::basic_format_context<fmt::detail::buffer_appender<wchar_t>, wchar_t>>",
   "record_kind" : "class",
   "referenced_type" : "_ZTIN3fmt2v717basic_format_argsINS0_20basic_format_contextINS0_6detail15buffer_appenderIwEEwEEEE",
   "self_type" : "_ZTIN3fmt2v717basic_format_argsINS0_20basic_format_contextINS0_6detail15buffer_appenderIwEEwEEEE",
   "size" : 12,
   "source_file" : "external/fmtlib/include/fmt/core.h",
   "template_args" :
   [
    "_ZTIN3fmt2v720basic_format_contextINS0_6detail15buffer_appenderIwEEwEE"
   ]
  },
  {
   "access" : "private",
   "alignment" : 4,
   "fields" :
   [
    {
     "field_name" : "values_",
     "referenced_type" : "_ZTIPKN3fmt2v76detail5valueINS0_20basic_format_contextINS1_15buffer_appenderIwEEwEEEE"
    },
    {
     "field_name" : "args_",
     "referenced_type" : "_ZTIPKN3fmt2v716basic_format_argINS0_20basic_format_contextINS0_6detail15buffer_appenderIwEEwEEEE"
    }
   ],
   "is_anonymous" : true,
   "linker_set_key" : "_ZTIN3fmt2v717basic_format_argsINS0_20basic_format_contextINS0_6detail15buffer_appenderIwEEwEEEUt_E",
   "name" : "fmt::basic_format_args<basic_format_context<buffer_appender<wchar_t>, wchar_t>>::(anonymous union at external/fmtlib/include/fmt/core.h:1839:3)",
   "record_kind" : "union",
   "referenced_type" : "_ZTIN3fmt2v717basic_format_argsINS0_20basic_format_contextINS0_6detail15buffer_appenderIwEEwEEEUt_E",
   "self_type" : "_ZTIN3fmt2v717basic_format_argsINS0_20basic_format_contextINS0_6detail15buffer_appenderIwEEwEEEUt_E",
   "size" : 4,
   "source_file" : "external/fmtlib/include/fmt/core.h"
  },
  {
   "alignment" : 4,
   "fields" :
   [
    {
     "access" : "private",
     "field_name" : "desc_",
     "referenced_type" : "_ZTIy"
    },
    {
     "access" : "private",
     "field_offset" : 64,
     "referenced_type" : "_ZTIN3fmt2v717basic_format_argsINS0_20basic_format_contextINSt3__120back_insert_iteratorINS0_6detail6bufferIcEEEEcEEEUt_E"
    }
   ],
   "linker_set_key" : "_ZTIN3fmt2v717basic_format_argsINS0_20basic_format_contextINSt3__120back_insert_iteratorINS0_6detail6bufferIcEEEEcEEEE",
   "name" : "fmt::basic_format_args<fmt::basic_format_context<std::back_insert_iterator<fmt::detail::buffer<char>>, char>>",
   "record_kind" : "class",
   "referenced_type" : "_ZTIN3fmt2v717basic_format_argsINS0_20basic_format_contextINSt3__120back_insert_iteratorINS0_6detail6bufferIcEEEEcEEEE",
   "self_type" : "_ZTIN3fmt2v717basic_format_argsINS0_20basic_format_contextINSt3__120back_insert_iteratorINS0_6detail6bufferIcEEEEcEEEE",
   "size" : 12,
   "source_file" : "external/fmtlib/include/fmt/core.h",
   "template_args" :
   [
    "_ZTIN3fmt2v720basic_format_contextINSt3__120back_insert_iteratorINS0_6detail6bufferIcEEEEcEE"
   ]
  },
  {
   "access" : "private",
   "alignment" : 4,
   "fields" :
   [
    {
     "field_name" : "values_",
     "referenced_type" : "_ZTIPKN3fmt2v76detail5valueINS0_20basic_format_contextINSt3__120back_insert_iteratorINS1_6bufferIcEEEEcEEEE"
    },
    {
     "field_name" : "args_",
     "referenced_type" : "_ZTIPKN3fmt2v716basic_format_argINS0_20basic_format_contextINSt3__120back_insert_iteratorINS0_6detail6bufferIcEEEEcEEEE"
    }
   ],
   "is_anonymous" : true,
   "linker_set_key" : "_ZTIN3fmt2v717basic_format_argsINS0_20basic_format_contextINSt3__120back_insert_iteratorINS0_6detail6bufferIcEEEEcEEEUt_E",
   "name" : "fmt::basic_format_args<basic_format_context<back_insert_iterator<buffer<char>>, char>>::(anonymous union at external/fmtlib/include/fmt/core.h:1839:3)",
   "record_kind" : "union",
   "referenced_type" : "_ZTIN3fmt2v717basic_format_argsINS0_20basic_format_contextINSt3__120back_insert_iteratorINS0_6detail6bufferIcEEEEcEEEUt_E",
   "self_type" : "_ZTIN3fmt2v717basic_format_argsINS0_20basic_format_contextINSt3__120back_insert_iteratorINS0_6detail6bufferIcEEEEcEEEUt_E",
   "size" : 4,
   "source_file" : "external/fmtlib/include/fmt/core.h"
  },
  {
   "alignment" : 4,
   "fields" :
   [
    {
     "access" : "private",
     "field_name" : "desc_",
     "referenced_type" : "_ZTIy"
    },
    {
     "access" : "private",
     "field_offset" : 64,
     "referenced_type" : "_ZTIN3fmt2v717basic_format_argsINS0_20basic_format_contextINSt3__120back_insert_iteratorINS3_12basic_stringIcNS3_11char_traitsIcEENS3_9allocatorIcEEEEEEcEEEUt_E"
    }
   ],
   "linker_set_key" : "_ZTIN3fmt2v717basic_format_argsINS0_20basic_format_contextINSt3__120back_insert_iteratorINS3_12basic_stringIcNS3_11char_traitsIcEENS3_9allocatorIcEEEEEEcEEEE",
   "name" : "fmt::basic_format_args<fmt::basic_format_context<std::back_insert_iterator<std::basic_string<char, std::char_traits<char>, std::allocator<char>>>, char>>",
   "record_kind" : "class",
   "referenced_type" : "_ZTIN3fmt2v717basic_format_argsINS0_20basic_format_contextINSt3__120back_insert_iteratorINS3_12basic_stringIcNS3_11char_traitsIcEENS3_9allocatorIcEEEEEEcEEEE",
   "self_type" : "_ZTIN3fmt2v717basic_format_argsINS0_20basic_format_contextINSt3__120back_insert_iteratorINS3_12basic_stringIcNS3_11char_traitsIcEENS3_9allocatorIcEEEEEEcEEEE",
   "size" : 12,
   "source_file" : "external/fmtlib/include/fmt/core.h",
   "template_args" :
   [
    "_ZTIN3fmt2v720basic_format_contextINSt3__120back_insert_iteratorINS2_12basic_stringIcNS2_11char_traitsIcEENS2_9allocatorIcEEEEEEcEE"
   ]
  },
  {
   "access" : "private",
   "alignment" : 4,
   "fields" :
   [
    {
     "field_name" : "values_",
     "referenced_type" : "_ZTIPKN3fmt2v76detail5valueINS0_20basic_format_contextINSt3__120back_insert_iteratorINS4_12basic_stringIcNS4_11char_traitsIcEENS4_9allocatorIcEEEEEEcEEEE"
    },
    {
     "field_name" : "args_",
     "referenced_type" : "_ZTIPKN3fmt2v716basic_format_argINS0_20basic_format_contextINSt3__120back_insert_iteratorINS3_12basic_stringIcNS3_11char_traitsIcEENS3_9allocatorIcEEEEEEcEEEE"
    }
   ],
   "is_anonymous" : true,
   "linker_set_key" : "_ZTIN3fmt2v717basic_format_argsINS0_20basic_format_contextINSt3__120back_insert_iteratorINS3_12basic_stringIcNS3_11char_traitsIcEENS3_9allocatorIcEEEEEEcEEEUt_E",
   "name" : "fmt::basic_format_args<basic_format_context<back_insert_iterator<basic_string<char>>, char>>::(anonymous union at external/fmtlib/include/fmt/core.h:1839:3)",
   "record_kind" : "union",
   "referenced_type" : "_ZTIN3fmt2v717basic_format_argsINS0_20basic_format_contextINSt3__120back_insert_iteratorINS3_12basic_stringIcNS3_11char_traitsIcEENS3_9allocatorIcEEEEEEcEEEUt_E",
   "self_type" : "_ZTIN3fmt2v717basic_format_argsINS0_20basic_format_contextINSt3__120back_insert_iteratorINS3_12basic_stringIcNS3_11char_traitsIcEENS3_9allocatorIcEEEEEEcEEEUt_E",
   "size" : 4,
   "source_file" : "external/fmtlib/include/fmt/core.h"
  },
  {
   "alignment" : 4,
   "fields" :
   [
    {
     "access" : "private",
     "field_name" : "desc_",
     "referenced_type" : "_ZTIy"
    },
    {
     "access" : "private",
     "field_offset" : 64,
     "referenced_type" : "_ZTIN3fmt2v717basic_format_argsINS0_20basic_format_contextIPccEEEUt_E"
    }
   ],
   "linker_set_key" : "_ZTIN3fmt2v717basic_format_argsINS0_20basic_format_contextIPccEEEE",
   "name" : "fmt::basic_format_args<fmt::basic_format_context<char *, char>>",
   "record_kind" : "class",
   "referenced_type" : "_ZTIN3fmt2v717basic_format_argsINS0_20basic_format_contextIPccEEEE",
   "self_type" : "_ZTIN3fmt2v717basic_format_argsINS0_20basic_format_contextIPccEEEE",
   "size" : 12,
   "source_file" : "external/fmtlib/include/fmt/core.h",
   "template_args" : [ "_ZTIN3fmt2v720basic_format_contextIPccEE" ]
  },
  {
   "access" : "private",
   "alignment" : 4,
   "fields" :
   [
    {
     "field_name" : "values_",
     "referenced_type" : "_ZTIPKN3fmt2v76detail5valueINS0_20basic_format_contextIPccEEEE"
    },
    {
     "field_name" : "args_",
     "referenced_type" : "_ZTIPKN3fmt2v716basic_format_argINS0_20basic_format_contextIPccEEEE"
    }
   ],
   "is_anonymous" : true,
   "linker_set_key" : "_ZTIN3fmt2v717basic_format_argsINS0_20basic_format_contextIPccEEEUt_E",
   "name" : "fmt::basic_format_args<basic_format_context<char *, char>>::(anonymous union at external/fmtlib/include/fmt/core.h:1839:3)",
   "record_kind" : "union",
   "referenced_type" : "_ZTIN3fmt2v717basic_format_argsINS0_20basic_format_contextIPccEEEUt_E",
   "self_type" : "_ZTIN3fmt2v717basic_format_argsINS0_20basic_format_contextIPccEEEUt_E",
   "size" : 4,
   "source_file" : "external/fmtlib/include/fmt/core.h"
  },
  {
   "alignment" : 4,
   "fields" :
   [
    {
     "access" : "private",
     "field_name" : "data_",
     "referenced_type" : "_ZTIPKN3fmt2v76detail10char8_typeE"
    },
    {
     "access" : "private",
     "field_name" : "size_",
     "field_offset" : 32,
     "referenced_type" : "_ZTIj"
    }
   ],
   "linker_set_key" : "_ZTIN3fmt2v717basic_string_viewINS0_6detail10char8_typeEEE",
   "name" : "fmt::basic_string_view<fmt::detail::char8_type>",
   "record_kind" : "class",
   "referenced_type" : "_ZTIN3fmt2v717basic_string_viewINS0_6detail10char8_typeEEE",
   "self_type" : "_ZTIN3fmt2v717basic_string_viewINS0_6detail10char8_typeEEE",
   "size" : 8,
   "source_file" : "external/fmtlib/include/fmt/core.h",
   "template_args" : [ "_ZTIN3fmt2v76detail10char8_typeE" ]
  },
  {
   "alignment" : 4,
   "fields" :
   [
    {
     "access" : "private",
     "field_name" : "data_",
     "referenced_type" : "_ZTIPKc"
    },
    {
     "access" : "private",
     "field_name" : "size_",
     "field_offset" : 32,
     "referenced_type" : "_ZTIj"
    }
   ],
   "linker_set_key" : "_ZTIN3fmt2v717basic_string_viewIcEE",
   "name" : "fmt::basic_string_view<char>",
   "record_kind" : "class",
   "referenced_type" : "_ZTIN3fmt2v717basic_string_viewIcEE",
   "self_type" : "_ZTIN3fmt2v717basic_string_viewIcEE",
   "size" : 8,
   "source_file" : "external/fmtlib/include/fmt/core.h",
   "template_args" : [ "_ZTIc" ]
  },
  {
   "alignment" : 4,
   "fields" :
   [
    {
     "access" : "private",
     "field_name" : "data_",
     "referenced_type" : "_ZTIPKw"
    },
    {
     "access" : "private",
     "field_name" : "size_",
     "field_offset" : 32,
     "referenced_type" : "_ZTIj"
    }
   ],
   "linker_set_key" : "_ZTIN3fmt2v717basic_string_viewIwEE",
   "name" : "fmt::basic_string_view<wchar_t>",
   "record_kind" : "class",
   "referenced_type" : "_ZTIN3fmt2v717basic_string_viewIwEE",
   "self_type" : "_ZTIN3fmt2v717basic_string_viewIwEE",
   "size" : 8,
   "source_file" : "external/fmtlib/include/fmt/core.h",
   "template_args" : [ "_ZTIw" ]
  },
  {
   "alignment" : 1,
   "base_specifiers" :
   [
    {
     "referenced_type" : "_ZTINSt3__110is_base_ofIN3fmt2v714compile_stringEA3_cEE"
    }
   ],
   "linker_set_key" : "_ZTIN3fmt2v717is_compile_stringIA3_cEE",
   "name" : "fmt::is_compile_string<char [3]>",
   "referenced_type" : "_ZTIN3fmt2v717is_compile_stringIA3_cEE",
   "self_type" : "_ZTIN3fmt2v717is_compile_stringIA3_cEE",
   "size" : 1,
   "source_file" : "external/fmtlib/include/fmt/core.h",
   "template_args" : [ "_ZTIA3_c" ]
  },
  {
   "alignment" : 1,
   "base_specifiers" :
   [
    {
     "referenced_type" : "_ZTINSt3__110is_base_ofIN3fmt2v714compile_stringEA4_cEE"
    }
   ],
   "linker_set_key" : "_ZTIN3fmt2v717is_compile_stringIA4_cEE",
   "name" : "fmt::is_compile_string<char [4]>",
   "referenced_type" : "_ZTIN3fmt2v717is_compile_stringIA4_cEE",
   "self_type" : "_ZTIN3fmt2v717is_compile_stringIA4_cEE",
   "size" : 1,
   "source_file" : "external/fmtlib/include/fmt/core.h",
   "template_args" : [ "_ZTIA4_c" ]
  },
  {
   "alignment" : 1,
   "base_specifiers" :
   [
    {
     "referenced_type" : "_ZTINSt3__110is_base_ofIN3fmt2v714compile_stringEA5_cEE"
    }
   ],
   "linker_set_key" : "_ZTIN3fmt2v717is_compile_stringIA5_cEE",
   "name" : "fmt::is_compile_string<char [5]>",
   "referenced_type" : "_ZTIN3fmt2v717is_compile_stringIA5_cEE",
   "self_type" : "_ZTIN3fmt2v717is_compile_stringIA5_cEE",
   "size" : 1,
   "source_file" : "external/fmtlib/include/fmt/core.h",
   "template_args" : [ "_ZTIA5_c" ]
  },
  {
   "alignment" : 1,
   "base_specifiers" :
   [
    {
     "referenced_type" : "_ZTINSt3__110is_base_ofIN3fmt2v714compile_stringEA7_cEE"
    }
   ],
   "linker_set_key" : "_ZTIN3fmt2v717is_compile_stringIA7_cEE",
   "name" : "fmt::is_compile_string<char [7]>",
   "referenced_type" : "_ZTIN3fmt2v717is_compile_stringIA7_cEE",
   "self_type" : "_ZTIN3fmt2v717is_compile_stringIA7_cEE",
   "size" : 1,
   "source_file" : "external/fmtlib/include/fmt/core.h",
   "template_args" : [ "_ZTIA7_c" ]
  },
  {
   "alignment" : 1,
   "base_specifiers" :
   [
    {
     "referenced_type" : "_ZTINSt3__110is_base_ofIN3fmt2v714compile_stringENS2_17basic_string_viewIcEEEE"
    }
   ],
   "linker_set_key" : "_ZTIN3fmt2v717is_compile_stringINS0_17basic_string_viewIcEEEE",
   "name" : "fmt::is_compile_string<fmt::basic_string_view<char>>",
   "referenced_type" : "_ZTIN3fmt2v717is_compile_stringINS0_17basic_string_viewIcEEEE",
   "self_type" : "_ZTIN3fmt2v717is_compile_stringINS0_17basic_string_viewIcEEEE",
   "size" : 1,
   "source_file" : "external/fmtlib/include/fmt/core.h",
   "template_args" : [ "_ZTIN3fmt2v717basic_string_viewIcEE" ]
  },
  {
   "alignment" : 1,
   "base_specifiers" :
   [
    {
     "referenced_type" : "_ZTINSt3__110is_base_ofIN3fmt2v714compile_stringENS2_9monostateEEE"
    }
   ],
   "linker_set_key" : "_ZTIN3fmt2v717is_compile_stringINS0_9monostateEEE",
   "name" : "fmt::is_compile_string<fmt::monostate>",
   "referenced_type" : "_ZTIN3fmt2v717is_compile_stringINS0_9monostateEEE",
   "self_type" : "_ZTIN3fmt2v717is_compile_stringINS0_9monostateEEE",
   "size" : 1,
   "source_file" : "external/fmtlib/include/fmt/core.h",
   "template_args" : [ "_ZTIN3fmt2v79monostateE" ]
  },
  {
   "alignment" : 1,
   "base_specifiers" :
   [
    {
     "referenced_type" : "_ZTINSt3__110is_base_ofIN3fmt2v714compile_stringEPKcEE"
    }
   ],
   "linker_set_key" : "_ZTIN3fmt2v717is_compile_stringIPKcEE",
   "name" : "fmt::is_compile_string<const char *>",
   "referenced_type" : "_ZTIN3fmt2v717is_compile_stringIPKcEE",
   "self_type" : "_ZTIN3fmt2v717is_compile_stringIPKcEE",
   "size" : 1,
   "source_file" : "external/fmtlib/include/fmt/core.h",
   "template_args" : [ "_ZTIPKc" ]
  },
  {
   "alignment" : 1,
   "base_specifiers" :
   [
    {
     "referenced_type" : "_ZTINSt3__110is_base_ofIN3fmt2v714compile_stringEPKvEE"
    }
   ],
   "linker_set_key" : "_ZTIN3fmt2v717is_compile_stringIPKvEE",
   "name" : "fmt::is_compile_string<const void *>",
   "referenced_type" : "_ZTIN3fmt2v717is_compile_stringIPKvEE",
   "self_type" : "_ZTIN3fmt2v717is_compile_stringIPKvEE",
   "size" : 1,
   "source_file" : "external/fmtlib/include/fmt/core.h",
   "template_args" : [ "_ZTIPKv" ]
  },
  {
   "alignment" : 1,
   "base_specifiers" :
   [
    {
     "referenced_type" : "_ZTINSt3__110is_base_ofIN3fmt2v714compile_stringEPcEE"
    }
   ],
   "linker_set_key" : "_ZTIN3fmt2v717is_compile_stringIPcEE",
   "name" : "fmt::is_compile_string<char *>",
   "referenced_type" : "_ZTIN3fmt2v717is_compile_stringIPcEE",
   "self_type" : "_ZTIN3fmt2v717is_compile_stringIPcEE",
   "size" : 1,
   "source_file" : "external/fmtlib/include/fmt/core.h",
   "template_args" : [ "_ZTIPc" ]
  },
  {
   "alignment" : 1,
   "base_specifiers" :
   [
    {
     "referenced_type" : "_ZTINSt3__110is_base_ofIN3fmt2v714compile_stringEbEE"
    }
   ],
   "linker_set_key" : "_ZTIN3fmt2v717is_compile_stringIbEE",
   "name" : "fmt::is_compile_string<bool>",
   "referenced_type" : "_ZTIN3fmt2v717is_compile_stringIbEE",
   "self_type" : "_ZTIN3fmt2v717is_compile_stringIbEE",
   "size" : 1,
   "source_file" : "external/fmtlib/include/fmt/core.h",
   "template_args" : [ "_ZTIb" ]
  },
  {
   "alignment" : 1,
   "base_specifiers" :
   [
    {
     "referenced_type" : "_ZTINSt3__110is_base_ofIN3fmt2v714compile_stringEcEE"
    }
   ],
   "linker_set_key" : "_ZTIN3fmt2v717is_compile_stringIcEE",
   "name" : "fmt::is_compile_string<char>",
   "referenced_type" : "_ZTIN3fmt2v717is_compile_stringIcEE",
   "self_type" : "_ZTIN3fmt2v717is_compile_stringIcEE",
   "size" : 1,
   "source_file" : "external/fmtlib/include/fmt/core.h",
   "template_args" : [ "_ZTIc" ]
  },
  {
   "alignment" : 1,
   "base_specifiers" :
   [
    {
     "referenced_type" : "_ZTINSt3__110is_base_ofIN3fmt2v714compile_stringEdEE"
    }
   ],
   "linker_set_key" : "_ZTIN3fmt2v717is_compile_stringIdEE",
   "name" : "fmt::is_compile_string<double>",
   "referenced_type" : "_ZTIN3fmt2v717is_compile_stringIdEE",
   "self_type" : "_ZTIN3fmt2v717is_compile_stringIdEE",
   "size" : 1,
   "source_file" : "external/fmtlib/include/fmt/core.h",
   "template_args" : [ "_ZTId" ]
  },
  {
   "alignment" : 1,
   "base_specifiers" :
   [
    {
     "referenced_type" : "_ZTINSt3__110is_base_ofIN3fmt2v714compile_stringEeEE"
    }
   ],
   "linker_set_key" : "_ZTIN3fmt2v717is_compile_stringIeEE",
   "name" : "fmt::is_compile_string<long double>",
   "referenced_type" : "_ZTIN3fmt2v717is_compile_stringIeEE",
   "self_type" : "_ZTIN3fmt2v717is_compile_stringIeEE",
   "size" : 1,
   "source_file" : "external/fmtlib/include/fmt/core.h",
   "template_args" : [ "_ZTIe" ]
  },
  {
   "alignment" : 1,
   "base_specifiers" :
   [
    {
     "referenced_type" : "_ZTINSt3__110is_base_ofIN3fmt2v714compile_stringEfEE"
    }
   ],
   "linker_set_key" : "_ZTIN3fmt2v717is_compile_stringIfEE",
   "name" : "fmt::is_compile_string<float>",
   "referenced_type" : "_ZTIN3fmt2v717is_compile_stringIfEE",
   "self_type" : "_ZTIN3fmt2v717is_compile_stringIfEE",
   "size" : 1,
   "source_file" : "external/fmtlib/include/fmt/core.h",
   "template_args" : [ "_ZTIf" ]
  },
  {
   "alignment" : 1,
   "base_specifiers" :
   [
    {
     "referenced_type" : "_ZTINSt3__110is_base_ofIN3fmt2v714compile_stringEiEE"
    }
   ],
   "linker_set_key" : "_ZTIN3fmt2v717is_compile_stringIiEE",
   "name" : "fmt::is_compile_string<int>",
   "referenced_type" : "_ZTIN3fmt2v717is_compile_stringIiEE",
   "self_type" : "_ZTIN3fmt2v717is_compile_stringIiEE",
   "size" : 1,
   "source_file" : "external/fmtlib/include/fmt/core.h",
   "template_args" : [ "_ZTIi" ]
  },
  {
   "alignment" : 1,
   "base_specifiers" :
   [
    {
     "referenced_type" : "_ZTINSt3__110is_base_ofIN3fmt2v714compile_stringEjEE"
    }
   ],
   "linker_set_key" : "_ZTIN3fmt2v717is_compile_stringIjEE",
   "name" : "fmt::is_compile_string<unsigned int>",
   "referenced_type" : "_ZTIN3fmt2v717is_compile_stringIjEE",
   "self_type" : "_ZTIN3fmt2v717is_compile_stringIjEE",
   "size" : 1,
   "source_file" : "external/fmtlib/include/fmt/core.h",
   "template_args" : [ "_ZTIj" ]
  },
  {
   "alignment" : 1,
   "base_specifiers" :
   [
    {
     "referenced_type" : "_ZTINSt3__110is_base_ofIN3fmt2v714compile_stringExEE"
    }
   ],
   "linker_set_key" : "_ZTIN3fmt2v717is_compile_stringIxEE",
   "name" : "fmt::is_compile_string<long long>",
   "referenced_type" : "_ZTIN3fmt2v717is_compile_stringIxEE",
   "self_type" : "_ZTIN3fmt2v717is_compile_stringIxEE",
   "size" : 1,
   "source_file" : "external/fmtlib/include/fmt/core.h",
   "template_args" : [ "_ZTIx" ]
  },
  {
   "alignment" : 1,
   "base_specifiers" :
   [
    {
     "referenced_type" : "_ZTINSt3__110is_base_ofIN3fmt2v714compile_stringEyEE"
    }
   ],
   "linker_set_key" : "_ZTIN3fmt2v717is_compile_stringIyEE",
   "name" : "fmt::is_compile_string<unsigned long long>",
   "referenced_type" : "_ZTIN3fmt2v717is_compile_stringIyEE",
   "self_type" : "_ZTIN3fmt2v717is_compile_stringIyEE",
   "size" : 1,
   "source_file" : "external/fmtlib/include/fmt/core.h",
   "template_args" : [ "_ZTIy" ]
  },
  {
   "alignment" : 4,
   "fields" :
   [
    {
     "field_name" : "width",
     "referenced_type" : "_ZTIi"
    },
    {
     "field_name" : "precision",
     "field_offset" : 32,
     "referenced_type" : "_ZTIi"
    },
    {
     "field_name" : "type",
     "field_offset" : 64,
     "referenced_type" : "_ZTIc"
    },
    {
     "field_name" : "align",
     "field_offset" : 72,
     "referenced_type" : "_ZTIN3fmt2v75align4typeE"
    },
    {
     "field_name" : "sign",
     "field_offset" : 76,
     "referenced_type" : "_ZTIN3fmt2v74sign4typeE"
    },
    {
     "field_name" : "alt",
     "field_offset" : 79,
     "referenced_type" : "_ZTIb"
    },
    {
     "field_name" : "fill",
     "field_offset" : 80,
     "referenced_type" : "_ZTIN3fmt2v76detail6fill_tIcEE"
    }
   ],
   "linker_set_key" : "_ZTIN3fmt2v718basic_format_specsIcEE",
   "name" : "fmt::basic_format_specs<char>",
   "referenced_type" : "_ZTIN3fmt2v718basic_format_specsIcEE",
   "self_type" : "_ZTIN3fmt2v718basic_format_specsIcEE",
   "size" : 16,
   "source_file" : "external/fmtlib/include/fmt/format.h",
   "template_args" : [ "_ZTIc" ]
  },
  {
   "alignment" : 4,
   "base_specifiers" :
   [
    {
     "referenced_type" : "_ZTIN3fmt2v76detail6bufferIcEE"
    }
   ],
   "fields" :
   [
    {
     "access" : "private",
     "field_name" : "store_",
     "field_offset" : 128,
     "referenced_type" : "_ZTIA500_c"
    },
    {
     "access" : "private",
     "field_name" : "alloc_",
     "field_offset" : 4128,
     "referenced_type" : "_ZTINSt3__19allocatorIcEE"
    }
   ],
   "linker_set_key" : "_ZTIN3fmt2v719basic_memory_bufferIcLj500ENSt3__19allocatorIcEEEE",
   "name" : "fmt::basic_memory_buffer<char, 500, std::allocator<char>>",
   "record_kind" : "class",
   "referenced_type" : "_ZTIN3fmt2v719basic_memory_bufferIcLj500ENSt3__19allocatorIcEEEE",
   "self_type" : "_ZTIN3fmt2v719basic_memory_bufferIcLj500ENSt3__19allocatorIcEEEE",
   "size" : 520,
   "source_file" : "external/fmtlib/include/fmt/format.h",
   "template_args" : [ "_ZTIc", "_ZTINSt3__19allocatorIcEE" ],
   "vtable_components" :
   [
    {
     "kind" : "offset_to_top"
    },
    {
     "kind" : "rtti",
     "mangled_component_name" : "_ZTIN3fmt2v719basic_memory_bufferIcLj500ENSt3__19allocatorIcEEEE"
    },
    {
     "mangled_component_name" : "_ZN3fmt2v719basic_memory_bufferIcLj500ENSt3__19allocatorIcEEE4growEj"
    }
   ]
  },
  {
   "alignment" : 4,
   "base_specifiers" :
   [
    {
     "referenced_type" : "_ZTIN3fmt2v76detail6bufferIjEE"
    }
   ],
   "fields" :
   [
    {
     "access" : "private",
     "field_name" : "store_",
     "field_offset" : 128,
     "referenced_type" : "_ZTIA32_j"
    },
    {
     "access" : "private",
     "field_name" : "alloc_",
     "field_offset" : 1152,
     "referenced_type" : "_ZTINSt3__19allocatorIjEE"
    }
   ],
   "linker_set_key" : "_ZTIN3fmt2v719basic_memory_bufferIjLj32ENSt3__19allocatorIjEEEE",
   "name" : "fmt::basic_memory_buffer<unsigned int, 32, std::allocator<unsigned int>>",
   "record_kind" : "class",
   "referenced_type" : "_ZTIN3fmt2v719basic_memory_bufferIjLj32ENSt3__19allocatorIjEEEE",
   "self_type" : "_ZTIN3fmt2v719basic_memory_bufferIjLj32ENSt3__19allocatorIjEEEE",
   "size" : 148,
   "source_file" : "external/fmtlib/include/fmt/format.h",
   "template_args" : [ "_ZTIj", "_ZTINSt3__19allocatorIjEE" ],
   "vtable_components" :
   [
    {
     "kind" : "offset_to_top"
    },
    {
     "kind" : "rtti",
     "mangled_component_name" : "_ZTIN3fmt2v719basic_memory_bufferIjLj32ENSt3__19allocatorIjEEEE"
    },
    {
     "mangled_component_name" : "_ZN3fmt2v719basic_memory_bufferIjLj32ENSt3__19allocatorIjEEE4growEj"
    }
   ]
  },
  {
   "alignment" : 4,
   "base_specifiers" :
   [
    {
     "referenced_type" : "_ZTIN3fmt2v76detail6bufferIwEE"
    }
   ],
   "fields" :
   [
    {
     "access" : "private",
     "field_name" : "store_",
     "field_offset" : 128,
     "referenced_type" : "_ZTIA500_w"
    },
    {
     "access" : "private",
     "field_name" : "alloc_",
     "field_offset" : 16128,
     "referenced_type" : "_ZTINSt3__19allocatorIwEE"
    }
   ],
   "linker_set_key" : "_ZTIN3fmt2v719basic_memory_bufferIwLj500ENSt3__19allocatorIwEEEE",
   "name" : "fmt::basic_memory_buffer<wchar_t, 500, std::allocator<wchar_t>>",
   "record_kind" : "class",
   "referenced_type" : "_ZTIN3fmt2v719basic_memory_bufferIwLj500ENSt3__19allocatorIwEEEE",
   "self_type" : "_ZTIN3fmt2v719basic_memory_bufferIwLj500ENSt3__19allocatorIwEEEE",
   "size" : 2020,
   "source_file" : "external/fmtlib/include/fmt/format.h",
   "template_args" : [ "_ZTIw", "_ZTINSt3__19allocatorIwEE" ],
   "vtable_components" :
   [
    {
     "kind" : "offset_to_top"
    },
    {
     "kind" : "rtti",
     "mangled_component_name" : "_ZTIN3fmt2v719basic_memory_bufferIwLj500ENSt3__19allocatorIwEEEE"
    },
    {
     "mangled_component_name" : "_ZN3fmt2v719basic_memory_bufferIwLj500ENSt3__19allocatorIwEEE4growEj"
    }
   ]
  },
  {
   "alignment" : 4,
   "fields" :
   [
    {
     "access" : "private",
     "field_name" : "out_",
     "referenced_type" : "_ZTIN3fmt2v76detail15buffer_appenderIcEE"
    },
    {
     "access" : "private",
     "field_name" : "args_",
     "field_offset" : 32,
     "referenced_type" : "_ZTIN3fmt2v717basic_format_argsINS0_20basic_format_contextINS0_6detail15buffer_appenderIcEEcEEEE"
    },
    {
     "access" : "private",
     "field_name" : "loc_",
     "field_offset" : 128,
     "referenced_type" : "_ZTIN3fmt2v76detail10locale_refE"
    }
   ],
   "linker_set_key" : "_ZTIN3fmt2v720basic_format_contextINS0_6detail15buffer_appenderIcEEcEE",
   "name" : "fmt::basic_format_context<fmt::detail::buffer_appender<char>, char>",
   "record_kind" : "class",
   "referenced_type" : "_ZTIN3fmt2v720basic_format_contextINS0_6detail15buffer_appenderIcEEcEE",
   "self_type" : "_ZTIN3fmt2v720basic_format_contextINS0_6detail15buffer_appenderIcEEcEE",
   "size" : 20,
   "source_file" : "external/fmtlib/include/fmt/core.h",
   "template_args" : [ "_ZTIN3fmt2v76detail15buffer_appenderIcEE", "_ZTIc" ]
  },
  {
   "alignment" : 4,
   "fields" :
   [
    {
     "access" : "private",
     "field_name" : "out_",
     "referenced_type" : "_ZTINSt3__120back_insert_iteratorIN3fmt2v76detail6bufferIcEEEE"
    },
    {
     "access" : "private",
     "field_name" : "args_",
     "field_offset" : 32,
     "referenced_type" : "_ZTIN3fmt2v717basic_format_argsINS0_20basic_format_contextINSt3__120back_insert_iteratorINS0_6detail6bufferIcEEEEcEEEE"
    },
    {
     "access" : "private",
     "field_name" : "loc_",
     "field_offset" : 128,
     "referenced_type" : "_ZTIN3fmt2v76detail10locale_refE"
    }
   ],
   "linker_set_key" : "_ZTIN3fmt2v720basic_format_contextINSt3__120back_insert_iteratorINS0_6detail6bufferIcEEEEcEE",
   "name" : "fmt::basic_format_context<std::back_insert_iterator<fmt::detail::buffer<char>>, char>",
   "record_kind" : "class",
   "referenced_type" : "_ZTIN3fmt2v720basic_format_contextINSt3__120back_insert_iteratorINS0_6detail6bufferIcEEEEcEE",
   "self_type" : "_ZTIN3fmt2v720basic_format_contextINSt3__120back_insert_iteratorINS0_6detail6bufferIcEEEEcEE",
   "size" : 20,
   "source_file" : "external/fmtlib/include/fmt/core.h",
   "template_args" :
   [
    "_ZTINSt3__120back_insert_iteratorIN3fmt2v76detail6bufferIcEEEE",
    "_ZTIc"
   ]
  },
  {
   "alignment" : 4,
   "fields" :
   [
    {
     "access" : "private",
     "field_name" : "out_",
     "referenced_type" : "_ZTINSt3__120back_insert_iteratorINS_12basic_stringIcNS_11char_traitsIcEENS_9allocatorIcEEEEEE"
    },
    {
     "access" : "private",
     "field_name" : "args_",
     "field_offset" : 32,
     "referenced_type" : "_ZTIN3fmt2v717basic_format_argsINS0_20basic_format_contextINSt3__120back_insert_iteratorINS3_12basic_stringIcNS3_11char_traitsIcEENS3_9allocatorIcEEEEEEcEEEE"
    },
    {
     "access" : "private",
     "field_name" : "loc_",
     "field_offset" : 128,
     "referenced_type" : "_ZTIN3fmt2v76detail10locale_refE"
    }
   ],
   "linker_set_key" : "_ZTIN3fmt2v720basic_format_contextINSt3__120back_insert_iteratorINS2_12basic_stringIcNS2_11char_traitsIcEENS2_9allocatorIcEEEEEEcEE",
   "name" : "fmt::basic_format_context<std::back_insert_iterator<std::basic_string<char, std::char_traits<char>, std::allocator<char>>>, char>",
   "record_kind" : "class",
   "referenced_type" : "_ZTIN3fmt2v720basic_format_contextINSt3__120back_insert_iteratorINS2_12basic_stringIcNS2_11char_traitsIcEENS2_9allocatorIcEEEEEEcEE",
   "self_type" : "_ZTIN3fmt2v720basic_format_contextINSt3__120back_insert_iteratorINS2_12basic_stringIcNS2_11char_traitsIcEENS2_9allocatorIcEEEEEEcEE",
   "size" : 20,
   "source_file" : "external/fmtlib/include/fmt/core.h",
   "template_args" :
   [
    "_ZTINSt3__120back_insert_iteratorINS_12basic_stringIcNS_11char_traitsIcEENS_9allocatorIcEEEEEE",
    "_ZTIc"
   ]
  },
  {
   "alignment" : 4,
   "fields" :
   [
    {
     "access" : "private",
     "field_name" : "out_",
     "referenced_type" : "_ZTIPc"
    },
    {
     "access" : "private",
     "field_name" : "args_",
     "field_offset" : 32,
     "referenced_type" : "_ZTIN3fmt2v717basic_format_argsINS0_20basic_format_contextIPccEEEE"
    },
    {
     "access" : "private",
     "field_name" : "loc_",
     "field_offset" : 128,
     "referenced_type" : "_ZTIN3fmt2v76detail10locale_refE"
    }
   ],
   "linker_set_key" : "_ZTIN3fmt2v720basic_format_contextIPccEE",
   "name" : "fmt::basic_format_context<char *, char>",
   "record_kind" : "class",
   "referenced_type" : "_ZTIN3fmt2v720basic_format_contextIPccEE",
   "self_type" : "_ZTIN3fmt2v720basic_format_contextIPccEE",
   "size" : 20,
   "source_file" : "external/fmtlib/include/fmt/core.h",
   "template_args" : [ "_ZTIPc", "_ZTIc" ]
  },
  {
   "alignment" : 4,
   "fields" :
   [
    {
     "access" : "private",
     "field_name" : "data_",
     "referenced_type" : "_ZTINSt3__16vectorIN3fmt2v716basic_format_argINS2_20basic_format_contextINS2_6detail15buffer_appenderIcEEcEEEENS_9allocatorIS9_EEEE"
    },
    {
     "access" : "private",
     "field_name" : "named_info_",
     "field_offset" : 96,
     "referenced_type" : "_ZTINSt3__16vectorIN3fmt2v76detail14named_arg_infoIcEENS_9allocatorIS5_EEEE"
    },
    {
     "access" : "private",
     "field_name" : "dynamic_args_",
     "field_offset" : 192,
     "referenced_type" : "_ZTIN3fmt2v76detail16dynamic_arg_listE"
    }
   ],
   "linker_set_key" : "_ZTIN3fmt2v724dynamic_format_arg_storeINS0_20basic_format_contextINS0_6detail15buffer_appenderIcEEcEEEE",
   "name" : "fmt::dynamic_format_arg_store<fmt::basic_format_context<fmt::detail::buffer_appender<char>, char>>",
   "record_kind" : "class",
   "referenced_type" : "_ZTIN3fmt2v724dynamic_format_arg_storeINS0_20basic_format_contextINS0_6detail15buffer_appenderIcEEcEEEE",
   "self_type" : "_ZTIN3fmt2v724dynamic_format_arg_storeINS0_20basic_format_contextINS0_6detail15buffer_appenderIcEEcEEEE",
   "size" : 28,
   "source_file" : "external/fmtlib/include/fmt/core.h",
   "template_args" :
   [
    "_ZTIN3fmt2v720basic_format_contextINS0_6detail15buffer_appenderIcEEcEE"
   ]
  },
  {
   "alignment" : 4,
   "fields" :
   [
    {
     "access" : "private",
     "field_name" : "data_",
     "referenced_type" : "_ZTINSt3__16vectorIN3fmt2v716basic_format_argINS2_20basic_format_contextINS_20back_insert_iteratorINS2_6detail6bufferIcEEEEcEEEENS_9allocatorISB_EEEE"
    },
    {
     "access" : "private",
     "field_name" : "named_info_",
     "field_offset" : 96,
     "referenced_type" : "_ZTINSt3__16vectorIN3fmt2v76detail14named_arg_infoIcEENS_9allocatorIS5_EEEE"
    },
    {
     "access" : "private",
     "field_name" : "dynamic_args_",
     "field_offset" : 192,
     "referenced_type" : "_ZTIN3fmt2v76detail16dynamic_arg_listE"
    }
   ],
   "linker_set_key" : "_ZTIN3fmt2v724dynamic_format_arg_storeINS0_20basic_format_contextINSt3__120back_insert_iteratorINS0_6detail6bufferIcEEEEcEEEE",
   "name" : "fmt::dynamic_format_arg_store<fmt::basic_format_context<std::back_insert_iterator<fmt::detail::buffer<char>>, char>>",
   "record_kind" : "class",
   "referenced_type" : "_ZTIN3fmt2v724dynamic_format_arg_storeINS0_20basic_format_contextINSt3__120back_insert_iteratorINS0_6detail6bufferIcEEEEcEEEE",
   "self_type" : "_ZTIN3fmt2v724dynamic_format_arg_storeINS0_20basic_format_contextINSt3__120back_insert_iteratorINS0_6detail6bufferIcEEEEcEEEE",
   "size" : 28,
   "source_file" : "external/fmtlib/include/fmt/core.h",
   "template_args" :
   [
    "_ZTIN3fmt2v720basic_format_contextINSt3__120back_insert_iteratorINS0_6detail6bufferIcEEEEcEE"
   ]
  },
  {
   "alignment" : 4,
   "base_specifiers" :
   [
    {
     "access" : "private",
     "referenced_type" : "_ZTIN3fmt2v76detail13error_handlerE"
    }
   ],
   "fields" :
   [
    {
     "access" : "private",
     "field_name" : "format_str_",
     "referenced_type" : "_ZTIN3fmt2v717basic_string_viewIcEE"
    },
    {
     "access" : "private",
     "field_name" : "next_arg_id_",
     "field_offset" : 64,
     "referenced_type" : "_ZTIi"
    }
   ],
   "linker_set_key" : "_ZTIN3fmt2v726basic_format_parse_contextIcNS0_6detail13error_handlerEEE",
   "name" : "fmt::basic_format_parse_context<char, fmt::detail::error_handler>",
   "record_kind" : "class",
   "referenced_type" : "_ZTIN3fmt2v726basic_format_parse_contextIcNS0_6detail13error_handlerEEE",
   "self_type" : "_ZTIN3fmt2v726basic_format_parse_contextIcNS0_6detail13error_handlerEEE",
   "size" : 12,
   "source_file" : "external/fmtlib/include/fmt/core.h",
   "template_args" : [ "_ZTIc", "_ZTIN3fmt2v76detail13error_handlerE" ]
  },
  {
   "alignment" : 4,
   "fields" :
   [
    {
     "access" : "private",
     "field_name" : "data_",
     "referenced_type" : "_ZTIN3fmt2v717basic_string_viewIcEE"
    }
   ],
   "linker_set_key" : "_ZTIN3fmt2v75bytesE",
   "name" : "fmt::bytes",
   "record_kind" : "class",
   "referenced_type" : "_ZTIN3fmt2v75bytesE",
   "self_type" : "_ZTIN3fmt2v75bytesE",
   "size" : 8,
   "source_file" : "external/fmtlib/include/fmt/format.h"
  },
  {
   "alignment" : 1,
   "linker_set_key" : "_ZTIN3fmt2v76detail10arg_mapperINS0_20basic_format_contextINS1_15buffer_appenderIcEEcEEEE",
   "name" : "fmt::detail::arg_mapper<fmt::basic_format_context<fmt::detail::buffer_appender<char>, char>>",
   "referenced_type" : "_ZTIN3fmt2v76detail10arg_mapperINS0_20basic_format_contextINS1_15buffer_appenderIcEEcEEEE",
   "self_type" : "_ZTIN3fmt2v76detail10arg_mapperINS0_20basic_format_contextINS1_15buffer_appenderIcEEcEEEE",
   "size" : 1,
   "source_file" : "external/fmtlib/include/fmt/core.h",
   "template_args" :
   [
    "_ZTIN3fmt2v720basic_format_contextINS0_6detail15buffer_appenderIcEEcEE"
   ]
  },
  {
   "alignment" : 1,
   "linker_set_key" : "_ZTIN3fmt2v76detail10arg_mapperINS0_20basic_format_contextINSt3__120back_insert_iteratorINS1_6bufferIcEEEEcEEEE",
   "name" : "fmt::detail::arg_mapper<fmt::basic_format_context<std::back_insert_iterator<fmt::detail::buffer<char>>, char>>",
   "referenced_type" : "_ZTIN3fmt2v76detail10arg_mapperINS0_20basic_format_contextINSt3__120back_insert_iteratorINS1_6bufferIcEEEEcEEEE",
   "self_type" : "_ZTIN3fmt2v76detail10arg_mapperINS0_20basic_format_contextINSt3__120back_insert_iteratorINS1_6bufferIcEEEEcEEEE",
   "size" : 1,
   "source_file" : "external/fmtlib/include/fmt/core.h",
   "template_args" :
   [
    "_ZTIN3fmt2v720basic_format_contextINSt3__120back_insert_iteratorINS0_6detail6bufferIcEEEEcEE"
   ]
  },
  {
   "alignment" : 1,
   "linker_set_key" : "_ZTIN3fmt2v76detail10arg_mapperINS0_20basic_format_contextINSt3__120back_insert_iteratorINS4_12basic_stringIcNS4_11char_traitsIcEENS4_9allocatorIcEEEEEEcEEEE",
   "name" : "fmt::detail::arg_mapper<fmt::basic_format_context<std::back_insert_iterator<std::basic_string<char, std::char_traits<char>, std::allocator<char>>>, char>>",
   "referenced_type" : "_ZTIN3fmt2v76detail10arg_mapperINS0_20basic_format_contextINSt3__120back_insert_iteratorINS4_12basic_stringIcNS4_11char_traitsIcEENS4_9allocatorIcEEEEEEcEEEE",
   "self_type" : "_ZTIN3fmt2v76detail10arg_mapperINS0_20basic_format_contextINSt3__120back_insert_iteratorINS4_12basic_stringIcNS4_11char_traitsIcEENS4_9allocatorIcEEEEEEcEEEE",
   "size" : 1,
   "source_file" : "external/fmtlib/include/fmt/core.h",
   "template_args" :
   [
    "_ZTIN3fmt2v720basic_format_contextINSt3__120back_insert_iteratorINS2_12basic_stringIcNS2_11char_traitsIcEENS2_9allocatorIcEEEEEEcEE"
   ]
  },
  {
   "alignment" : 1,
   "linker_set_key" : "_ZTIN3fmt2v76detail10arg_mapperINS0_20basic_format_contextIPccEEEE",
   "name" : "fmt::detail::arg_mapper<fmt::basic_format_context<char *, char>>",
   "referenced_type" : "_ZTIN3fmt2v76detail10arg_mapperINS0_20basic_format_contextIPccEEEE",
   "self_type" : "_ZTIN3fmt2v76detail10arg_mapperINS0_20basic_format_contextIPccEEEE",
   "size" : 1,
   "source_file" : "external/fmtlib/include/fmt/core.h",
   "template_args" : [ "_ZTIN3fmt2v720basic_format_contextIPccEE" ]
  },
  {
   "alignment" : 1,
   "linker_set_key" : "_ZTIN3fmt2v76detail10basic_dataIvEE",
   "name" : "fmt::detail::basic_data<void>",
   "referenced_type" : "_ZTIN3fmt2v76detail10basic_dataIvEE",
   "self_type" : "_ZTIN3fmt2v76detail10basic_dataIvEE",
   "size" : 1,
   "source_file" : "external/fmtlib/include/fmt/format.h",
   "template_args" : [ "_ZTIv" ]
  },
  {
   "alignment" : 4,
   "fields" :
   [
    {
     "field_name" : "lower",
     "referenced_type" : "_ZTIy"
    },
    {
     "field_name" : "upper",
     "field_offset" : 64,
     "referenced_type" : "_ZTIy"
    }
   ],
   "linker_set_key" : "_ZTIN3fmt2v76detail10boundariesE",
   "name" : "fmt::detail::boundaries",
   "referenced_type" : "_ZTIN3fmt2v76detail10boundariesE",
   "self_type" : "_ZTIN3fmt2v76detail10boundariesE",
   "size" : 16,
   "source_file" : "external/fmtlib/include/fmt/format-inl.h"
  },
  {
   "alignment" : 4,
   "fields" :
   [
    {
     "field_name" : "handler",
     "referenced_type" : "_ZTIRN3fmt2v76detail14format_handlerINS1_15buffer_appenderIcEEcNS0_20basic_format_contextIS4_cEEEE"
    },
    {
     "field_name" : "arg_id",
     "field_offset" : 32,
     "referenced_type" : "_ZTIi"
    }
   ],
   "linker_set_key" : "_ZTIN3fmt2v76detail10id_adapterIRNS1_14format_handlerINS1_15buffer_appenderIcEEcNS0_20basic_format_contextIS5_cEEEEcEE",
   "name" : "fmt::detail::id_adapter<fmt::detail::format_handler<fmt::detail::buffer_appender<char>, char, fmt::basic_format_context<fmt::detail::buffer_appender<char>, char>> &, char>",
   "referenced_type" : "_ZTIN3fmt2v76detail10id_adapterIRNS1_14format_handlerINS1_15buffer_appenderIcEEcNS0_20basic_format_contextIS5_cEEEEcEE",
   "self_type" : "_ZTIN3fmt2v76detail10id_adapterIRNS1_14format_handlerINS1_15buffer_appenderIcEEcNS0_20basic_format_contextIS5_cEEEEcEE",
   "size" : 8,
   "source_file" : "external/fmtlib/include/fmt/format.h",
   "template_args" :
   [
    "_ZTIRN3fmt2v76detail14format_handlerINS1_15buffer_appenderIcEEcNS0_20basic_format_contextIS4_cEEEE",
    "_ZTIc"
   ]
  },
  {
   "alignment" : 4,
   "fields" :
   [
    {
     "field_name" : "handler",
     "referenced_type" : "_ZTIRN3fmt2v76detail14format_handlerINSt3__120back_insert_iteratorINS1_6bufferIcEEEEcNS0_20basic_format_contextIS7_cEEEE"
    },
    {
     "field_name" : "arg_id",
     "field_offset" : 32,
     "referenced_type" : "_ZTIi"
    }
   ],
   "linker_set_key" : "_ZTIN3fmt2v76detail10id_adapterIRNS1_14format_handlerINSt3__120back_insert_iteratorINS1_6bufferIcEEEEcNS0_20basic_format_contextIS8_cEEEEcEE",
   "name" : "fmt::detail::id_adapter<fmt::detail::format_handler<std::back_insert_iterator<fmt::detail::buffer<char>>, char, fmt::basic_format_context<std::back_insert_iterator<fmt::detail::buffer<char>>, char>> &, char>",
   "referenced_type" : "_ZTIN3fmt2v76detail10id_adapterIRNS1_14format_handlerINSt3__120back_insert_iteratorINS1_6bufferIcEEEEcNS0_20basic_format_contextIS8_cEEEEcEE",
   "self_type" : "_ZTIN3fmt2v76detail10id_adapterIRNS1_14format_handlerINSt3__120back_insert_iteratorINS1_6bufferIcEEEEcNS0_20basic_format_contextIS8_cEEEEcEE",
   "size" : 8,
   "source_file" : "external/fmtlib/include/fmt/format.h",
   "template_args" :
   [
    "_ZTIRN3fmt2v76detail14format_handlerINSt3__120back_insert_iteratorINS1_6bufferIcEEEEcNS0_20basic_format_contextIS7_cEEEE",
    "_ZTIc"
   ]
  },
  {
   "alignment" : 4,
   "fields" :
   [
    {
     "field_name" : "out",
     "referenced_type" : "_ZTIN3fmt2v76detail15buffer_appenderIcEE"
    },
    {
     "field_name" : "locale",
     "field_offset" : 32,
     "referenced_type" : "_ZTIN3fmt2v76detail10locale_refE"
    },
    {
     "field_name" : "specs",
     "field_offset" : 64,
     "referenced_type" : "_ZTIRKN3fmt2v718basic_format_specsIcEE"
    },
    {
     "field_name" : "abs_value",
     "field_offset" : 96,
     "referenced_type" : "_ZTIj"
    },
    {
     "field_name" : "prefix",
     "field_offset" : 128,
     "referenced_type" : "_ZTIA4_c"
    },
    {
     "field_name" : "prefix_size",
     "field_offset" : 160,
     "referenced_type" : "_ZTIj"
    }
   ],
   "linker_set_key" : "_ZTIN3fmt2v76detail10int_writerINS1_15buffer_appenderIcEEcjEE",
   "name" : "fmt::detail::int_writer<fmt::detail::buffer_appender<char>, char, unsigned int>",
   "referenced_type" : "_ZTIN3fmt2v76detail10int_writerINS1_15buffer_appenderIcEEcjEE",
   "self_type" : "_ZTIN3fmt2v76detail10int_writerINS1_15buffer_appenderIcEEcjEE",
   "size" : 24,
   "source_file" : "external/fmtlib/include/fmt/format.h",
   "template_args" : [ "_ZTIN3fmt2v76detail15buffer_appenderIcEE", "_ZTIc", "_ZTIj" ]
  },
  {
   "alignment" : 4,
   "fields" :
   [
    {
     "field_name" : "out",
     "referenced_type" : "_ZTIN3fmt2v76detail15buffer_appenderIcEE"
    },
    {
     "field_name" : "locale",
     "field_offset" : 32,
     "referenced_type" : "_ZTIN3fmt2v76detail10locale_refE"
    },
    {
     "field_name" : "specs",
     "field_offset" : 64,
     "referenced_type" : "_ZTIRKN3fmt2v718basic_format_specsIcEE"
    },
    {
     "field_name" : "abs_value",
     "field_offset" : 96,
     "referenced_type" : "_ZTIy"
    },
    {
     "field_name" : "prefix",
     "field_offset" : 160,
     "referenced_type" : "_ZTIA4_c"
    },
    {
     "field_name" : "prefix_size",
     "field_offset" : 192,
     "referenced_type" : "_ZTIj"
    }
   ],
   "linker_set_key" : "_ZTIN3fmt2v76detail10int_writerINS1_15buffer_appenderIcEEcyEE",
   "name" : "fmt::detail::int_writer<fmt::detail::buffer_appender<char>, char, unsigned long long>",
   "referenced_type" : "_ZTIN3fmt2v76detail10int_writerINS1_15buffer_appenderIcEEcyEE",
   "self_type" : "_ZTIN3fmt2v76detail10int_writerINS1_15buffer_appenderIcEEcyEE",
   "size" : 28,
   "source_file" : "external/fmtlib/include/fmt/format.h",
   "template_args" : [ "_ZTIN3fmt2v76detail15buffer_appenderIcEE", "_ZTIc", "_ZTIy" ]
  },
  {
   "alignment" : 4,
   "fields" :
   [
    {
     "field_name" : "out",
     "referenced_type" : "_ZTINSt3__120back_insert_iteratorIN3fmt2v76detail6bufferIcEEEE"
    },
    {
     "field_name" : "locale",
     "field_offset" : 32,
     "referenced_type" : "_ZTIN3fmt2v76detail10locale_refE"
    },
    {
     "field_name" : "specs",
     "field_offset" : 64,
     "referenced_type" : "_ZTIRKN3fmt2v718basic_format_specsIcEE"
    },
    {
     "field_name" : "abs_value",
     "field_offset" : 96,
     "referenced_type" : "_ZTIj"
    },
    {
     "field_name" : "prefix",
     "field_offset" : 128,
     "referenced_type" : "_ZTIA4_c"
    },
    {
     "field_name" : "prefix_size",
     "field_offset" : 160,
     "referenced_type" : "_ZTIj"
    }
   ],
   "linker_set_key" : "_ZTIN3fmt2v76detail10int_writerINSt3__120back_insert_iteratorINS1_6bufferIcEEEEcjEE",
   "name" : "fmt::detail::int_writer<std::back_insert_iterator<fmt::detail::buffer<char>>, char, unsigned int>",
   "referenced_type" : "_ZTIN3fmt2v76detail10int_writerINSt3__120back_insert_iteratorINS1_6bufferIcEEEEcjEE",
   "self_type" : "_ZTIN3fmt2v76detail10int_writerINSt3__120back_insert_iteratorINS1_6bufferIcEEEEcjEE",
   "size" : 24,
   "source_file" : "external/fmtlib/include/fmt/format.h",
   "template_args" :
   [
    "_ZTINSt3__120back_insert_iteratorIN3fmt2v76detail6bufferIcEEEE",
    "_ZTIc",
    "_ZTIj"
   ]
  },
  {
   "alignment" : 4,
   "fields" :
   [
    {
     "field_name" : "out",
     "referenced_type" : "_ZTINSt3__120back_insert_iteratorIN3fmt2v76detail6bufferIcEEEE"
    },
    {
     "field_name" : "locale",
     "field_offset" : 32,
     "referenced_type" : "_ZTIN3fmt2v76detail10locale_refE"
    },
    {
     "field_name" : "specs",
     "field_offset" : 64,
     "referenced_type" : "_ZTIRKN3fmt2v718basic_format_specsIcEE"
    },
    {
     "field_name" : "abs_value",
     "field_offset" : 96,
     "referenced_type" : "_ZTIy"
    },
    {
     "field_name" : "prefix",
     "field_offset" : 160,
     "referenced_type" : "_ZTIA4_c"
    },
    {
     "field_name" : "prefix_size",
     "field_offset" : 192,
     "referenced_type" : "_ZTIj"
    }
   ],
   "linker_set_key" : "_ZTIN3fmt2v76detail10int_writerINSt3__120back_insert_iteratorINS1_6bufferIcEEEEcyEE",
   "name" : "fmt::detail::int_writer<std::back_insert_iterator<fmt::detail::buffer<char>>, char, unsigned long long>",
   "referenced_type" : "_ZTIN3fmt2v76detail10int_writerINSt3__120back_insert_iteratorINS1_6bufferIcEEEEcyEE",
   "self_type" : "_ZTIN3fmt2v76detail10int_writerINSt3__120back_insert_iteratorINS1_6bufferIcEEEEcyEE",
   "size" : 28,
   "source_file" : "external/fmtlib/include/fmt/format.h",
   "template_args" :
   [
    "_ZTINSt3__120back_insert_iteratorIN3fmt2v76detail6bufferIcEEEE",
    "_ZTIc",
    "_ZTIy"
   ]
  },
  {
   "alignment" : 4,
   "fields" :
   [
    {
     "access" : "private",
     "field_name" : "locale_",
     "referenced_type" : "_ZTIPKv"
    }
   ],
   "linker_set_key" : "_ZTIN3fmt2v76detail10locale_refE",
   "name" : "fmt::detail::locale_ref",
   "record_kind" : "class",
   "referenced_type" : "_ZTIN3fmt2v76detail10locale_refE",
   "self_type" : "_ZTIN3fmt2v76detail10locale_refE",
   "size" : 4,
   "source_file" : "external/fmtlib/include/fmt/core.h"
  },
  {
   "alignment" : 4,
   "fields" :
   [
    {
     "field_name" : "lower",
     "referenced_type" : "_ZTIy"
    },
    {
     "field_name" : "upper",
     "field_offset" : 64,
     "referenced_type" : "_ZTIy"
    }
   ],
   "linker_set_key" : "_ZTIN3fmt2v76detail11accumulatorE",
   "name" : "fmt::detail::accumulator",
   "referenced_type" : "_ZTIN3fmt2v76detail11accumulatorE",
   "self_type" : "_ZTIN3fmt2v76detail11accumulatorE",
   "size" : 16,
   "source_file" : "external/fmtlib/include/fmt/format-inl.h"
  },
  {
   "alignment" : 1,
   "linker_set_key" : "_ZTIN3fmt2v76detail11char_t_implIA4_cvEE",
   "name" : "fmt::detail::char_t_impl<char [4], void>",
   "referenced_type" : "_ZTIN3fmt2v76detail11char_t_implIA4_cvEE",
   "self_type" : "_ZTIN3fmt2v76detail11char_t_implIA4_cvEE",
   "size" : 1,
   "source_file" : "external/fmtlib/include/fmt/core.h",
   "template_args" : [ "_ZTIA4_c", "_ZTIv" ]
  },
  {
   "alignment" : 1,
   "linker_set_key" : "_ZTIN3fmt2v76detail11char_t_implIA5_cvEE",
   "name" : "fmt::detail::char_t_impl<char [5], void>",
   "referenced_type" : "_ZTIN3fmt2v76detail11char_t_implIA5_cvEE",
   "self_type" : "_ZTIN3fmt2v76detail11char_t_implIA5_cvEE",
   "size" : 1,
   "source_file" : "external/fmtlib/include/fmt/core.h",
   "template_args" : [ "_ZTIA5_c", "_ZTIv" ]
  },
  {
   "alignment" : 1,
   "linker_set_key" : "_ZTIN3fmt2v76detail11char_t_implIA7_cvEE",
   "name" : "fmt::detail::char_t_impl<char [7], void>",
   "referenced_type" : "_ZTIN3fmt2v76detail11char_t_implIA7_cvEE",
   "self_type" : "_ZTIN3fmt2v76detail11char_t_implIA7_cvEE",
   "size" : 1,
   "source_file" : "external/fmtlib/include/fmt/core.h",
   "template_args" : [ "_ZTIA7_c", "_ZTIv" ]
  },
  {
   "alignment" : 1,
   "linker_set_key" : "_ZTIN3fmt2v76detail11char_t_implINS0_17basic_string_viewIcEEvEE",
   "name" : "fmt::detail::char_t_impl<fmt::basic_string_view<char>, void>",
   "referenced_type" : "_ZTIN3fmt2v76detail11char_t_implINS0_17basic_string_viewIcEEvEE",
   "self_type" : "_ZTIN3fmt2v76detail11char_t_implINS0_17basic_string_viewIcEEvEE",
   "size" : 1,
   "source_file" : "external/fmtlib/include/fmt/core.h",
   "template_args" : [ "_ZTIN3fmt2v717basic_string_viewIcEE", "_ZTIv" ]
  },
  {
   "alignment" : 4,
   "fields" :
   [
    {
     "field_name" : "precision",
     "referenced_type" : "_ZTIi"
    },
    {
     "field_name" : "format",
     "field_offset" : 32,
     "referenced_type" : "_ZTIN3fmt2v76detail12float_formatE"
    },
    {
     "field_name" : "sign",
     "field_offset" : 40,
     "referenced_type" : "_ZTIN3fmt2v74sign4typeE"
    },
    {
     "field_name" : "upper",
     "field_offset" : 48,
     "referenced_type" : "_ZTIb"
    },
    {
     "field_name" : "locale",
     "field_offset" : 49,
     "referenced_type" : "_ZTIb"
    },
    {
     "field_name" : "binary32",
     "field_offset" : 50,
     "referenced_type" : "_ZTIb"
    },
    {
     "field_name" : "use_grisu",
     "field_offset" : 51,
     "referenced_type" : "_ZTIb"
    },
    {
     "field_name" : "showpoint",
     "field_offset" : 52,
     "referenced_type" : "_ZTIb"
    }
   ],
   "linker_set_key" : "_ZTIN3fmt2v76detail11float_specsE",
   "name" : "fmt::detail::float_specs",
   "referenced_type" : "_ZTIN3fmt2v76detail11float_specsE",
   "self_type" : "_ZTIN3fmt2v76detail11float_specsE",
   "size" : 8,
   "source_file" : "external/fmtlib/include/fmt/format.h"
  },
  {
   "alignment" : 1,
   "base_specifiers" :
   [
    {
     "referenced_type" : "_ZTINSt3__111is_integralIN3fmt2v716basic_format_argINS2_20basic_format_contextINS2_6detail15buffer_appenderIcEEcEEE6handleEEE"
    }
   ],
   "linker_set_key" : "_ZTIN3fmt2v76detail11is_integralINS0_16basic_format_argINS0_20basic_format_contextINS1_15buffer_appenderIcEEcEEE6handleEEE",
   "name" : "fmt::detail::is_integral<fmt::basic_format_arg<basic_format_context<buffer_appender<char>, char>>::handle>",
   "referenced_type" : "_ZTIN3fmt2v76detail11is_integralINS0_16basic_format_argINS0_20basic_format_contextINS1_15buffer_appenderIcEEcEEE6handleEEE",
   "self_type" : "_ZTIN3fmt2v76detail11is_integralINS0_16basic_format_argINS0_20basic_format_contextINS1_15buffer_appenderIcEEcEEE6handleEEE",
   "size" : 1,
   "source_file" : "external/fmtlib/include/fmt/format.h",
   "template_args" :
   [
    "_ZTIN3fmt2v716basic_format_argINS0_20basic_format_contextINS0_6detail15buffer_appenderIcEEcEEE6handleE"
   ]
  },
  {
   "alignment" : 1,
   "base_specifiers" :
   [
    {
     "referenced_type" : "_ZTINSt3__111is_integralIN3fmt2v716basic_format_argINS2_20basic_format_contextINS_20back_insert_iteratorINS2_6detail6bufferIcEEEEcEEE6handleEEE"
    }
   ],
   "linker_set_key" : "_ZTIN3fmt2v76detail11is_integralINS0_16basic_format_argINS0_20basic_format_contextINSt3__120back_insert_iteratorINS1_6bufferIcEEEEcEEE6handleEEE",
   "name" : "fmt::detail::is_integral<fmt::basic_format_arg<basic_format_context<back_insert_iterator<buffer<char>>, char>>::handle>",
   "referenced_type" : "_ZTIN3fmt2v76detail11is_integralINS0_16basic_format_argINS0_20basic_format_contextINSt3__120back_insert_iteratorINS1_6bufferIcEEEEcEEE6handleEEE",
   "self_type" : "_ZTIN3fmt2v76detail11is_integralINS0_16basic_format_argINS0_20basic_format_contextINSt3__120back_insert_iteratorINS1_6bufferIcEEEEcEEE6handleEEE",
   "size" : 1,
   "source_file" : "external/fmtlib/include/fmt/format.h",
   "template_args" :
   [
    "_ZTIN3fmt2v716basic_format_argINS0_20basic_format_contextINSt3__120back_insert_iteratorINS0_6detail6bufferIcEEEEcEEE6handleE"
   ]
  },
  {
   "alignment" : 1,
   "base_specifiers" :
   [
    {
     "referenced_type" : "_ZTINSt3__111is_integralIN3fmt2v717basic_string_viewIcEEEE"
    }
   ],
   "linker_set_key" : "_ZTIN3fmt2v76detail11is_integralINS0_17basic_string_viewIcEEEE",
   "name" : "fmt::detail::is_integral<fmt::basic_string_view<char>>",
   "referenced_type" : "_ZTIN3fmt2v76detail11is_integralINS0_17basic_string_viewIcEEEE",
   "self_type" : "_ZTIN3fmt2v76detail11is_integralINS0_17basic_string_viewIcEEEE",
   "size" : 1,
   "source_file" : "external/fmtlib/include/fmt/format.h",
   "template_args" : [ "_ZTIN3fmt2v717basic_string_viewIcEE" ]
  },
  {
   "alignment" : 1,
   "base_specifiers" :
   [
    {
     "referenced_type" : "_ZTINSt3__111is_integralIN3fmt2v79monostateEEE"
    }
   ],
   "linker_set_key" : "_ZTIN3fmt2v76detail11is_integralINS0_9monostateEEE",
   "name" : "fmt::detail::is_integral<fmt::monostate>",
   "referenced_type" : "_ZTIN3fmt2v76detail11is_integralINS0_9monostateEEE",
   "self_type" : "_ZTIN3fmt2v76detail11is_integralINS0_9monostateEEE",
   "size" : 1,
   "source_file" : "external/fmtlib/include/fmt/format.h",
   "template_args" : [ "_ZTIN3fmt2v79monostateE" ]
  },
  {
   "alignment" : 1,
   "base_specifiers" :
   [
    {
     "referenced_type" : "_ZTINSt3__117integral_constantIbLb1EEE"
    }
   ],
   "linker_set_key" : "_ZTIN3fmt2v76detail11is_integralINS1_8int128_tEEE",
   "name" : "fmt::detail::is_integral<fmt::detail::int128_t>",
   "referenced_type" : "_ZTIN3fmt2v76detail11is_integralINS1_8int128_tEEE",
   "self_type" : "_ZTIN3fmt2v76detail11is_integralINS1_8int128_tEEE",
   "size" : 1,
   "source_file" : "external/fmtlib/include/fmt/format.h",
   "template_args" : [ "_ZTIN3fmt2v76detail8int128_tE" ]
  },
  {
   "alignment" : 1,
   "base_specifiers" :
   [
    {
     "referenced_type" : "_ZTINSt3__117integral_constantIbLb1EEE"
    }
   ],
   "linker_set_key" : "_ZTIN3fmt2v76detail11is_integralINS1_9uint128_tEEE",
   "name" : "fmt::detail::is_integral<fmt::detail::uint128_t>",
   "referenced_type" : "_ZTIN3fmt2v76detail11is_integralINS1_9uint128_tEEE",
   "self_type" : "_ZTIN3fmt2v76detail11is_integralINS1_9uint128_tEEE",
   "size" : 1,
   "source_file" : "external/fmtlib/include/fmt/format.h",
   "template_args" : [ "_ZTIN3fmt2v76detail9uint128_tE" ]
  },
  {
   "alignment" : 1,
   "base_specifiers" :
   [
    {
     "referenced_type" : "_ZTINSt3__111is_integralIPKcEE"
    }
   ],
   "linker_set_key" : "_ZTIN3fmt2v76detail11is_integralIPKcEE",
   "name" : "fmt::detail::is_integral<const char *>",
   "referenced_type" : "_ZTIN3fmt2v76detail11is_integralIPKcEE",
   "self_type" : "_ZTIN3fmt2v76detail11is_integralIPKcEE",
   "size" : 1,
   "source_file" : "external/fmtlib/include/fmt/format.h",
   "template_args" : [ "_ZTIPKc" ]
  },
  {
   "alignment" : 1,
   "base_specifiers" :
   [
    {
     "referenced_type" : "_ZTINSt3__111is_integralIPKvEE"
    }
   ],
   "linker_set_key" : "_ZTIN3fmt2v76detail11is_integralIPKvEE",
   "name" : "fmt::detail::is_integral<const void *>",
   "referenced_type" : "_ZTIN3fmt2v76detail11is_integralIPKvEE",
   "self_type" : "_ZTIN3fmt2v76detail11is_integralIPKvEE",
   "size" : 1,
   "source_file" : "external/fmtlib/include/fmt/format.h",
   "template_args" : [ "_ZTIPKv" ]
  },
  {
   "alignment" : 1,
   "base_specifiers" :
   [
    {
     "referenced_type" : "_ZTINSt3__111is_integralIbEE"
    }
   ],
   "linker_set_key" : "_ZTIN3fmt2v76detail11is_integralIbEE",
   "name" : "fmt::detail::is_integral<bool>",
   "referenced_type" : "_ZTIN3fmt2v76detail11is_integralIbEE",
   "self_type" : "_ZTIN3fmt2v76detail11is_integralIbEE",
   "size" : 1,
   "source_file" : "external/fmtlib/include/fmt/format.h",
   "template_args" : [ "_ZTIb" ]
  },
  {
   "alignment" : 1,
   "base_specifiers" :
   [
    {
     "referenced_type" : "_ZTINSt3__111is_integralIcEE"
    }
   ],
   "linker_set_key" : "_ZTIN3fmt2v76detail11is_integralIcEE",
   "name" : "fmt::detail::is_integral<char>",
   "referenced_type" : "_ZTIN3fmt2v76detail11is_integralIcEE",
   "self_type" : "_ZTIN3fmt2v76detail11is_integralIcEE",
   "size" : 1,
   "source_file" : "external/fmtlib/include/fmt/format.h",
   "template_args" : [ "_ZTIc" ]
  },
  {
   "alignment" : 1,
   "base_specifiers" :
   [
    {
     "referenced_type" : "_ZTINSt3__111is_integralIdEE"
    }
   ],
   "linker_set_key" : "_ZTIN3fmt2v76detail11is_integralIdEE",
   "name" : "fmt::detail::is_integral<double>",
   "referenced_type" : "_ZTIN3fmt2v76detail11is_integralIdEE",
   "self_type" : "_ZTIN3fmt2v76detail11is_integralIdEE",
   "size" : 1,
   "source_file" : "external/fmtlib/include/fmt/format.h",
   "template_args" : [ "_ZTId" ]
  },
  {
   "alignment" : 1,
   "base_specifiers" :
   [
    {
     "referenced_type" : "_ZTINSt3__111is_integralIeEE"
    }
   ],
   "linker_set_key" : "_ZTIN3fmt2v76detail11is_integralIeEE",
   "name" : "fmt::detail::is_integral<long double>",
   "referenced_type" : "_ZTIN3fmt2v76detail11is_integralIeEE",
   "self_type" : "_ZTIN3fmt2v76detail11is_integralIeEE",
   "size" : 1,
   "source_file" : "external/fmtlib/include/fmt/format.h",
   "template_args" : [ "_ZTIe" ]
  },
  {
   "alignment" : 1,
   "base_specifiers" :
   [
    {
     "referenced_type" : "_ZTINSt3__111is_integralIfEE"
    }
   ],
   "linker_set_key" : "_ZTIN3fmt2v76detail11is_integralIfEE",
   "name" : "fmt::detail::is_integral<float>",
   "referenced_type" : "_ZTIN3fmt2v76detail11is_integralIfEE",
   "self_type" : "_ZTIN3fmt2v76detail11is_integralIfEE",
   "size" : 1,
   "source_file" : "external/fmtlib/include/fmt/format.h",
   "template_args" : [ "_ZTIf" ]
  },
  {
   "alignment" : 1,
   "base_specifiers" :
   [
    {
     "referenced_type" : "_ZTINSt3__111is_integralIiEE"
    }
   ],
   "linker_set_key" : "_ZTIN3fmt2v76detail11is_integralIiEE",
   "name" : "fmt::detail::is_integral<int>",
   "referenced_type" : "_ZTIN3fmt2v76detail11is_integralIiEE",
   "self_type" : "_ZTIN3fmt2v76detail11is_integralIiEE",
   "size" : 1,
   "source_file" : "external/fmtlib/include/fmt/format.h",
   "template_args" : [ "_ZTIi" ]
  },
  {
   "alignment" : 1,
   "base_specifiers" :
   [
    {
     "referenced_type" : "_ZTINSt3__111is_integralIjEE"
    }
   ],
   "linker_set_key" : "_ZTIN3fmt2v76detail11is_integralIjEE",
   "name" : "fmt::detail::is_integral<unsigned int>",
   "referenced_type" : "_ZTIN3fmt2v76detail11is_integralIjEE",
   "self_type" : "_ZTIN3fmt2v76detail11is_integralIjEE",
   "size" : 1,
   "source_file" : "external/fmtlib/include/fmt/format.h",
   "template_args" : [ "_ZTIj" ]
  },
  {
   "alignment" : 1,
   "base_specifiers" :
   [
    {
     "referenced_type" : "_ZTINSt3__111is_integralIxEE"
    }
   ],
   "linker_set_key" : "_ZTIN3fmt2v76detail11is_integralIxEE",
   "name" : "fmt::detail::is_integral<long long>",
   "referenced_type" : "_ZTIN3fmt2v76detail11is_integralIxEE",
   "self_type" : "_ZTIN3fmt2v76detail11is_integralIxEE",
   "size" : 1,
   "source_file" : "external/fmtlib/include/fmt/format.h",
   "template_args" : [ "_ZTIx" ]
  },
  {
   "alignment" : 1,
   "base_specifiers" :
   [
    {
     "referenced_type" : "_ZTINSt3__111is_integralIyEE"
    }
   ],
   "linker_set_key" : "_ZTIN3fmt2v76detail11is_integralIyEE",
   "name" : "fmt::detail::is_integral<unsigned long long>",
   "referenced_type" : "_ZTIN3fmt2v76detail11is_integralIyEE",
   "self_type" : "_ZTIN3fmt2v76detail11is_integralIyEE",
   "size" : 1,
   "source_file" : "external/fmtlib/include/fmt/format.h",
   "template_args" : [ "_ZTIy" ]
  },
  {
   "alignment" : 1,
   "linker_set_key" : "_ZTIN3fmt2v76detail11stringifierE",
   "name" : "fmt::detail::stringifier",
   "referenced_type" : "_ZTIN3fmt2v76detail11stringifierE",
   "self_type" : "_ZTIN3fmt2v76detail11stringifierE",
   "size" : 1,
   "source_file" : "external/fmtlib/include/fmt/format-inl.h"
  },
  {
   "alignment" : 1,
   "linker_set_key" : "_ZTIN3fmt2v76detail11void_t_implIJNSt3__119output_iterator_tagERNS3_20back_insert_iteratorINS1_6bufferIcEEEEEEE",
   "name" : "fmt::detail::void_t_impl<output_iterator_tag, back_insert_iterator<buffer<char>> &>",
   "referenced_type" : "_ZTIN3fmt2v76detail11void_t_implIJNSt3__119output_iterator_tagERNS3_20back_insert_iteratorINS1_6bufferIcEEEEEEE",
   "self_type" : "_ZTIN3fmt2v76detail11void_t_implIJNSt3__119output_iterator_tagERNS3_20back_insert_iteratorINS1_6bufferIcEEEEEEE",
   "size" : 1,
   "source_file" : "external/fmtlib/include/fmt/core.h"
  },
  {
   "alignment" : 4,
   "fields" :
   [
    {
     "field_name" : "value",
     "referenced_type" : "_ZTIPKv"
    },
    {
     "field_name" : "format",
     "field_offset" : 32,
     "referenced_type" : "_ZTIPFvPKvRN3fmt2v726basic_format_parse_contextIcNS2_6detail13error_handlerEEERNS2_20basic_format_contextINS4_15buffer_appenderIcEEcEEE"
    }
   ],
   "linker_set_key" : "_ZTIN3fmt2v76detail12custom_valueINS0_20basic_format_contextINS1_15buffer_appenderIcEEcEEEE",
   "name" : "fmt::detail::custom_value<fmt::basic_format_context<fmt::detail::buffer_appender<char>, char>>",
   "referenced_type" : "_ZTIN3fmt2v76detail12custom_valueINS0_20basic_format_contextINS1_15buffer_appenderIcEEcEEEE",
   "self_type" : "_ZTIN3fmt2v76detail12custom_valueINS0_20basic_format_contextINS1_15buffer_appenderIcEEcEEEE",
   "size" : 8,
   "source_file" : "external/fmtlib/include/fmt/core.h",
   "template_args" :
   [
    "_ZTIN3fmt2v720basic_format_contextINS0_6detail15buffer_appenderIcEEcEE"
   ]
  },
  {
   "alignment" : 4,
   "fields" :
   [
    {
     "field_name" : "value",
     "referenced_type" : "_ZTIPKv"
    },
    {
     "field_name" : "format",
     "field_offset" : 32,
     "referenced_type" : "_ZTIPFvPKvRN3fmt2v726basic_format_parse_contextIcNS2_6detail13error_handlerEEERNS2_20basic_format_contextINSt3__120back_insert_iteratorINS4_6bufferIcEEEEcEEE"
    }
   ],
   "linker_set_key" : "_ZTIN3fmt2v76detail12custom_valueINS0_20basic_format_contextINSt3__120back_insert_iteratorINS1_6bufferIcEEEEcEEEE",
   "name" : "fmt::detail::custom_value<fmt::basic_format_context<std::back_insert_iterator<fmt::detail::buffer<char>>, char>>",
   "referenced_type" : "_ZTIN3fmt2v76detail12custom_valueINS0_20basic_format_contextINSt3__120back_insert_iteratorINS1_6bufferIcEEEEcEEEE",
   "self_type" : "_ZTIN3fmt2v76detail12custom_valueINS0_20basic_format_contextINSt3__120back_insert_iteratorINS1_6bufferIcEEEEcEEEE",
   "size" : 8,
   "source_file" : "external/fmtlib/include/fmt/core.h",
   "template_args" :
   [
    "_ZTIN3fmt2v720basic_format_contextINSt3__120back_insert_iteratorINS0_6detail6bufferIcEEEEcEE"
   ]
  },
  {
   "alignment" : 1,
   "base_specifiers" :
   [
    {
     "referenced_type" : "_ZTINSt3__117integral_constantIbLb0EEE"
    }
   ],
   "linker_set_key" : "_ZTIN3fmt2v76detail12is_named_argIA3_KcEE",
   "name" : "fmt::detail::is_named_arg<char const[3]>",
   "referenced_type" : "_ZTIN3fmt2v76detail12is_named_argIA3_KcEE",
   "self_type" : "_ZTIN3fmt2v76detail12is_named_argIA3_KcEE",
   "size" : 1,
   "source_file" : "external/fmtlib/include/fmt/core.h",
   "template_args" : [ "_ZTIA3_Kc" ]
  },
  {
   "alignment" : 1,
   "base_specifiers" :
   [
    {
     "referenced_type" : "_ZTINSt3__117integral_constantIbLb0EEE"
    }
   ],
   "linker_set_key" : "_ZTIN3fmt2v76detail12is_named_argIA7_KcEE",
   "name" : "fmt::detail::is_named_arg<char const[7]>",
   "referenced_type" : "_ZTIN3fmt2v76detail12is_named_argIA7_KcEE",
   "self_type" : "_ZTIN3fmt2v76detail12is_named_argIA7_KcEE",
   "size" : 1,
   "source_file" : "external/fmtlib/include/fmt/core.h",
   "template_args" : [ "_ZTIA7_Kc" ]
  },
  {
   "alignment" : 1,
   "base_specifiers" :
   [
    {
     "referenced_type" : "_ZTINSt3__117integral_constantIbLb0EEE"
    }
   ],
   "linker_set_key" : "_ZTIN3fmt2v76detail12is_named_argINS0_17basic_string_viewIcEEEE",
   "name" : "fmt::detail::is_named_arg<fmt::basic_string_view<char>>",
   "referenced_type" : "_ZTIN3fmt2v76detail12is_named_argINS0_17basic_string_viewIcEEEE",
   "self_type" : "_ZTIN3fmt2v76detail12is_named_argINS0_17basic_string_viewIcEEEE",
   "size" : 1,
   "source_file" : "external/fmtlib/include/fmt/core.h",
   "template_args" : [ "_ZTIN3fmt2v717basic_string_viewIcEE" ]
  },
  {
   "alignment" : 1,
   "base_specifiers" :
   [
    {
     "referenced_type" : "_ZTINSt3__117integral_constantIbLb0EEE"
    }
   ],
   "linker_set_key" : "_ZTIN3fmt2v76detail12is_named_argIPcEE",
   "name" : "fmt::detail::is_named_arg<char *>",
   "referenced_type" : "_ZTIN3fmt2v76detail12is_named_argIPcEE",
   "self_type" : "_ZTIN3fmt2v76detail12is_named_argIPcEE",
   "size" : 1,
   "source_file" : "external/fmtlib/include/fmt/core.h",
   "template_args" : [ "_ZTIPc" ]
  },
  {
   "alignment" : 1,
   "base_specifiers" :
   [
    {
     "referenced_type" : "_ZTINSt3__117integral_constantIbLb0EEE"
    }
   ],
   "linker_set_key" : "_ZTIN3fmt2v76detail12is_named_argIiEE",
   "name" : "fmt::detail::is_named_arg<int>",
   "referenced_type" : "_ZTIN3fmt2v76detail12is_named_argIiEE",
   "self_type" : "_ZTIN3fmt2v76detail12is_named_argIiEE",
   "size" : 1,
   "source_file" : "external/fmtlib/include/fmt/core.h",
   "template_args" : [ "_ZTIi" ]
  },
  {
   "alignment" : 1,
   "base_specifiers" :
   [
    {
     "referenced_type" : "_ZTINSt3__117integral_constantIbLb0EEE"
    }
   ],
   "linker_set_key" : "_ZTIN3fmt2v76detail12is_named_argIjEE",
   "name" : "fmt::detail::is_named_arg<unsigned int>",
   "referenced_type" : "_ZTIN3fmt2v76detail12is_named_argIjEE",
   "self_type" : "_ZTIN3fmt2v76detail12is_named_argIjEE",
   "size" : 1,
   "source_file" : "external/fmtlib/include/fmt/core.h",
   "template_args" : [ "_ZTIj" ]
  },
  {
   "alignment" : 4,
   "fields" :
   [
    {
     "access" : "protected",
     "field_name" : "specs_",
     "referenced_type" : "_ZTIRN3fmt2v718basic_format_specsIcEE"
    }
   ],
   "linker_set_key" : "_ZTIN3fmt2v76detail12specs_setterIcEE",
   "name" : "fmt::detail::specs_setter<char>",
   "record_kind" : "class",
   "referenced_type" : "_ZTIN3fmt2v76detail12specs_setterIcEE",
   "self_type" : "_ZTIN3fmt2v76detail12specs_setterIcEE",
   "size" : 4,
   "source_file" : "external/fmtlib/include/fmt/format.h",
   "template_args" : [ "_ZTIc" ]
  },
  {
   "alignment" : 4,
   "fields" :
   [
    {
     "field_name" : "data",
     "referenced_type" : "_ZTIPKc"
    },
    {
     "field_name" : "size",
     "field_offset" : 32,
     "referenced_type" : "_ZTIj"
    }
   ],
   "linker_set_key" : "_ZTIN3fmt2v76detail12string_valueIcEE",
   "name" : "fmt::detail::string_value<char>",
   "referenced_type" : "_ZTIN3fmt2v76detail12string_valueIcEE",
   "self_type" : "_ZTIN3fmt2v76detail12string_valueIcEE",
   "size" : 8,
   "source_file" : "external/fmtlib/include/fmt/core.h",
   "template_args" : [ "_ZTIc" ]
  },
  {
   "alignment" : 4,
   "base_specifiers" :
   [
    {
     "referenced_type" : "_ZTIN3fmt2v76detail18arg_formatter_baseINS1_15buffer_appenderIcEEcNS1_13error_handlerEEE"
    }
   ],
   "fields" :
   [
    {
     "access" : "private",
     "field_name" : "ctx_",
     "field_offset" : 96,
     "referenced_type" : "_ZTIRN3fmt2v720basic_format_contextINS0_6detail15buffer_appenderIcEEcEE"
    },
    {
     "access" : "private",
     "field_name" : "parse_ctx_",
     "field_offset" : 128,
     "referenced_type" : "_ZTIPN3fmt2v726basic_format_parse_contextIcNS0_6detail13error_handlerEEE"
    },
    {
     "access" : "private",
     "field_name" : "ptr_",
     "field_offset" : 160,
     "referenced_type" : "_ZTIPKc"
    }
   ],
   "linker_set_key" : "_ZTIN3fmt2v76detail13arg_formatterINS1_15buffer_appenderIcEEcEE",
   "name" : "fmt::detail::arg_formatter<fmt::detail::buffer_appender<char>, char>",
   "record_kind" : "class",
   "referenced_type" : "_ZTIN3fmt2v76detail13arg_formatterINS1_15buffer_appenderIcEEcEE",
   "self_type" : "_ZTIN3fmt2v76detail13arg_formatterINS1_15buffer_appenderIcEEcEE",
   "size" : 24,
   "source_file" : "external/fmtlib/include/fmt/format.h",
   "template_args" : [ "_ZTIN3fmt2v76detail15buffer_appenderIcEE", "_ZTIc" ]
  },
  {
   "alignment" : 4,
   "base_specifiers" :
   [
    {
     "referenced_type" : "_ZTIN3fmt2v76detail18arg_formatter_baseINSt3__120back_insert_iteratorINS1_6bufferIcEEEEcNS1_13error_handlerEEE"
    }
   ],
   "fields" :
   [
    {
     "access" : "private",
     "field_name" : "ctx_",
     "field_offset" : 96,
     "referenced_type" : "_ZTIRN3fmt2v720basic_format_contextINSt3__120back_insert_iteratorINS0_6detail6bufferIcEEEEcEE"
    },
    {
     "access" : "private",
     "field_name" : "parse_ctx_",
     "field_offset" : 128,
     "referenced_type" : "_ZTIPN3fmt2v726basic_format_parse_contextIcNS0_6detail13error_handlerEEE"
    },
    {
     "access" : "private",
     "field_name" : "ptr_",
     "field_offset" : 160,
     "referenced_type" : "_ZTIPKc"
    }
   ],
   "linker_set_key" : "_ZTIN3fmt2v76detail13arg_formatterINSt3__120back_insert_iteratorINS1_6bufferIcEEEEcEE",
   "name" : "fmt::detail::arg_formatter<std::back_insert_iterator<fmt::detail::buffer<char>>, char>",
   "record_kind" : "class",
   "referenced_type" : "_ZTIN3fmt2v76detail13arg_formatterINSt3__120back_insert_iteratorINS1_6bufferIcEEEEcEE",
   "self_type" : "_ZTIN3fmt2v76detail13arg_formatterINSt3__120back_insert_iteratorINS1_6bufferIcEEEEcEE",
   "size" : 24,
   "source_file" : "external/fmtlib/include/fmt/format.h",
   "template_args" :
   [
    "_ZTINSt3__120back_insert_iteratorIN3fmt2v76detail6bufferIcEEEE",
    "_ZTIc"
   ]
  },
  {
   "alignment" : 1,
   "linker_set_key" : "_ZTIN3fmt2v76detail13buffer_traitsE",
   "name" : "fmt::detail::buffer_traits",
   "referenced_type" : "_ZTIN3fmt2v76detail13buffer_traitsE",
   "self_type" : "_ZTIN3fmt2v76detail13buffer_traitsE",
   "size" : 1,
   "source_file" : "external/fmtlib/include/fmt/core.h"
  },
  {
   "alignment" : 1,
   "linker_set_key" : "_ZTIN3fmt2v76detail13error_handlerE",
   "name" : "fmt::detail::error_handler",
   "referenced_type" : "_ZTIN3fmt2v76detail13error_handlerE",
   "self_type" : "_ZTIN3fmt2v76detail13error_handlerE",
   "size" : 1,
   "source_file" : "external/fmtlib/include/fmt/core.h"
  },
  {
   "alignment" : 4,
   "fields" :
   [
    {
     "field_name" : "buf",
     "referenced_type" : "_ZTIPc"
    },
    {
     "field_name" : "size",
     "field_offset" : 32,
     "referenced_type" : "_ZTIi"
    },
    {
     "field_name" : "precision",
     "field_offset" : 64,
     "referenced_type" : "_ZTIi"
    },
    {
     "field_name" : "exp10",
     "field_offset" : 96,
     "referenced_type" : "_ZTIi"
    },
    {
     "field_name" : "fixed",
     "field_offset" : 128,
     "referenced_type" : "_ZTIb"
    }
   ],
   "linker_set_key" : "_ZTIN3fmt2v76detail13fixed_handlerE",
   "name" : "fmt::detail::fixed_handler",
   "referenced_type" : "_ZTIN3fmt2v76detail13fixed_handlerE",
   "self_type" : "_ZTIN3fmt2v76detail13fixed_handlerE",
   "size" : 20,
   "source_file" : "external/fmtlib/include/fmt/format-inl.h"
  },
  {
   "alignment" : 4,
   "base_specifiers" :
   [
    {
     "referenced_type" : "_ZTIN3fmt2v76detail13specs_handlerINS0_26basic_format_parse_contextIcNS1_13error_handlerEEENS0_20basic_format_contextINS1_15buffer_appenderIcEEcEEEE"
    }
   ],
   "fields" :
   [
    {
     "access" : "private",
     "field_name" : "checker_",
     "field_offset" : 96,
     "referenced_type" : "_ZTIN3fmt2v76detail21numeric_specs_checkerINS1_13specs_handlerINS0_26basic_format_parse_contextIcNS1_13error_handlerEEENS0_20basic_format_contextINS1_15buffer_appenderIcEEcEEEEEE"
    }
   ],
   "linker_set_key" : "_ZTIN3fmt2v76detail13specs_checkerINS1_13specs_handlerINS0_26basic_format_parse_contextIcNS1_13error_handlerEEENS0_20basic_format_contextINS1_15buffer_appenderIcEEcEEEEEE",
   "name" : "fmt::detail::specs_checker<fmt::detail::specs_handler<fmt::basic_format_parse_context<char, fmt::detail::error_handler>, fmt::basic_format_context<fmt::detail::buffer_appender<char>, char>>>",
   "record_kind" : "class",
   "referenced_type" : "_ZTIN3fmt2v76detail13specs_checkerINS1_13specs_handlerINS0_26basic_format_parse_contextIcNS1_13error_handlerEEENS0_20basic_format_contextINS1_15buffer_appenderIcEEcEEEEEE",
   "self_type" : "_ZTIN3fmt2v76detail13specs_checkerINS1_13specs_handlerINS0_26basic_format_parse_contextIcNS1_13error_handlerEEENS0_20basic_format_contextINS1_15buffer_appenderIcEEcEEEEEE",
   "size" : 20,
   "source_file" : "external/fmtlib/include/fmt/format.h",
   "template_args" :
   [
    "_ZTIN3fmt2v76detail13specs_handlerINS0_26basic_format_parse_contextIcNS1_13error_handlerEEENS0_20basic_format_contextINS1_15buffer_appenderIcEEcEEEE"
   ]
  },
  {
   "alignment" : 4,
   "base_specifiers" :
   [
    {
     "referenced_type" : "_ZTIN3fmt2v76detail13specs_handlerINS0_26basic_format_parse_contextIcNS1_13error_handlerEEENS0_20basic_format_contextINSt3__120back_insert_iteratorINS1_6bufferIcEEEEcEEEE"
    }
   ],
   "fields" :
   [
    {
     "access" : "private",
     "field_name" : "checker_",
     "field_offset" : 96,
     "referenced_type" : "_ZTIN3fmt2v76detail21numeric_specs_checkerINS1_13specs_handlerINS0_26basic_format_parse_contextIcNS1_13error_handlerEEENS0_20basic_format_contextINSt3__120back_insert_iteratorINS1_6bufferIcEEEEcEEEEEE"
    }
   ],
   "linker_set_key" : "_ZTIN3fmt2v76detail13specs_checkerINS1_13specs_handlerINS0_26basic_format_parse_contextIcNS1_13error_handlerEEENS0_20basic_format_contextINSt3__120back_insert_iteratorINS1_6bufferIcEEEEcEEEEEE",
   "name" : "fmt::detail::specs_checker<fmt::detail::specs_handler<fmt::basic_format_parse_context<char, fmt::detail::error_handler>, fmt::basic_format_context<std::back_insert_iterator<fmt::detail::buffer<char>>, char>>>",
   "record_kind" : "class",
   "referenced_type" : "_ZTIN3fmt2v76detail13specs_checkerINS1_13specs_handlerINS0_26basic_format_parse_contextIcNS1_13error_handlerEEENS0_20basic_format_contextINSt3__120back_insert_iteratorINS1_6bufferIcEEEEcEEEEEE",
   "self_type" : "_ZTIN3fmt2v76detail13specs_checkerINS1_13specs_handlerINS0_26basic_format_parse_contextIcNS1_13error_handlerEEENS0_20basic_format_contextINSt3__120back_insert_iteratorINS1_6bufferIcEEEEcEEEEEE",
   "size" : 20,
   "source_file" : "external/fmtlib/include/fmt/format.h",
   "template_args" :
   [
    "_ZTIN3fmt2v76detail13specs_handlerINS0_26basic_format_parse_contextIcNS1_13error_handlerEEENS0_20basic_format_contextINSt3__120back_insert_iteratorINS1_6bufferIcEEEEcEEEE"
   ]
  },
  {
   "alignment" : 4,
   "base_specifiers" :
   [
    {
     "referenced_type" : "_ZTIN3fmt2v76detail12specs_setterIcEE"
    }
   ],
   "fields" :
   [
    {
     "access" : "private",
     "field_name" : "parse_context_",
     "field_offset" : 32,
     "referenced_type" : "_ZTIRN3fmt2v726basic_format_parse_contextIcNS0_6detail13error_handlerEEE"
    },
    {
     "access" : "private",
     "field_name" : "context_",
     "field_offset" : 64,
     "referenced_type" : "_ZTIRN3fmt2v720basic_format_contextINS0_6detail15buffer_appenderIcEEcEE"
    }
   ],
   "linker_set_key" : "_ZTIN3fmt2v76detail13specs_handlerINS0_26basic_format_parse_contextIcNS1_13error_handlerEEENS0_20basic_format_contextINS1_15buffer_appenderIcEEcEEEE",
   "name" : "fmt::detail::specs_handler<fmt::basic_format_parse_context<char, fmt::detail::error_handler>, fmt::basic_format_context<fmt::detail::buffer_appender<char>, char>>",
   "record_kind" : "class",
   "referenced_type" : "_ZTIN3fmt2v76detail13specs_handlerINS0_26basic_format_parse_contextIcNS1_13error_handlerEEENS0_20basic_format_contextINS1_15buffer_appenderIcEEcEEEE",
   "self_type" : "_ZTIN3fmt2v76detail13specs_handlerINS0_26basic_format_parse_contextIcNS1_13error_handlerEEENS0_20basic_format_contextINS1_15buffer_appenderIcEEcEEEE",
   "size" : 12,
   "source_file" : "external/fmtlib/include/fmt/format.h",
   "template_args" :
   [
    "_ZTIN3fmt2v726basic_format_parse_contextIcNS0_6detail13error_handlerEEE",
    "_ZTIN3fmt2v720basic_format_contextINS0_6detail15buffer_appenderIcEEcEE"
   ]
  },
  {
   "alignment" : 4,
   "base_specifiers" :
   [
    {
     "referenced_type" : "_ZTIN3fmt2v76detail12specs_setterIcEE"
    }
   ],
   "fields" :
   [
    {
     "access" : "private",
     "field_name" : "parse_context_",
     "field_offset" : 32,
     "referenced_type" : "_ZTIRN3fmt2v726basic_format_parse_contextIcNS0_6detail13error_handlerEEE"
    },
    {
     "access" : "private",
     "field_name" : "context_",
     "field_offset" : 64,
     "referenced_type" : "_ZTIRN3fmt2v720basic_format_contextINSt3__120back_insert_iteratorINS0_6detail6bufferIcEEEEcEE"
    }
   ],
   "linker_set_key" : "_ZTIN3fmt2v76detail13specs_handlerINS0_26basic_format_parse_contextIcNS1_13error_handlerEEENS0_20basic_format_contextINSt3__120back_insert_iteratorINS1_6bufferIcEEEEcEEEE",
   "name" : "fmt::detail::specs_handler<fmt::basic_format_parse_context<char, fmt::detail::error_handler>, fmt::basic_format_context<std::back_insert_iterator<fmt::detail::buffer<char>>, char>>",
   "record_kind" : "class",
   "referenced_type" : "_ZTIN3fmt2v76detail13specs_handlerINS0_26basic_format_parse_contextIcNS1_13error_handlerEEENS0_20basic_format_contextINSt3__120back_insert_iteratorINS1_6bufferIcEEEEcEEEE",
   "self_type" : "_ZTIN3fmt2v76detail13specs_handlerINS0_26basic_format_parse_contextIcNS1_13error_handlerEEENS0_20basic_format_contextINSt3__120back_insert_iteratorINS1_6bufferIcEEEEcEEEE",
   "size" : 12,
   "source_file" : "external/fmtlib/include/fmt/format.h",
   "template_args" :
   [
    "_ZTIN3fmt2v726basic_format_parse_contextIcNS0_6detail13error_handlerEEE",
    "_ZTIN3fmt2v720basic_format_contextINSt3__120back_insert_iteratorINS0_6detail6bufferIcEEEEcEE"
   ]
  },
  {
   "alignment" : 1,
   "base_specifiers" :
   [
    {
     "referenced_type" : "_ZTINSt3__117integral_constantIN3fmt2v76detail4typeELS4_15EEE"
    }
   ],
   "linker_set_key" : "_ZTIN3fmt2v76detail13type_constantIA3_ccEE",
   "name" : "fmt::detail::type_constant<char [3], char>",
   "referenced_type" : "_ZTIN3fmt2v76detail13type_constantIA3_ccEE",
   "self_type" : "_ZTIN3fmt2v76detail13type_constantIA3_ccEE",
   "size" : 1,
   "source_file" : "external/fmtlib/include/fmt/core.h",
   "template_args" : [ "_ZTIA3_c", "_ZTIc" ]
  },
  {
   "alignment" : 1,
   "base_specifiers" :
   [
    {
     "referenced_type" : "_ZTINSt3__117integral_constantIN3fmt2v76detail4typeELS4_15EEE"
    }
   ],
   "linker_set_key" : "_ZTIN3fmt2v76detail13type_constantIA7_ccEE",
   "name" : "fmt::detail::type_constant<char [7], char>",
   "referenced_type" : "_ZTIN3fmt2v76detail13type_constantIA7_ccEE",
   "self_type" : "_ZTIN3fmt2v76detail13type_constantIA7_ccEE",
   "size" : 1,
   "source_file" : "external/fmtlib/include/fmt/core.h",
   "template_args" : [ "_ZTIA7_c", "_ZTIc" ]
  },
  {
   "alignment" : 1,
   "base_specifiers" :
   [
    {
     "referenced_type" : "_ZTINSt3__117integral_constantIN3fmt2v76detail4typeELS4_13EEE"
    }
   ],
   "linker_set_key" : "_ZTIN3fmt2v76detail13type_constantINS0_17basic_string_viewIcEEcEE",
   "name" : "fmt::detail::type_constant<fmt::basic_string_view<char>, char>",
   "referenced_type" : "_ZTIN3fmt2v76detail13type_constantINS0_17basic_string_viewIcEEcEE",
   "self_type" : "_ZTIN3fmt2v76detail13type_constantINS0_17basic_string_viewIcEEcEE",
   "size" : 1,
   "source_file" : "external/fmtlib/include/fmt/core.h",
   "template_args" : [ "_ZTIN3fmt2v717basic_string_viewIcEE", "_ZTIc" ]
  },
  {
   "alignment" : 1,
   "base_specifiers" :
   [
    {
     "referenced_type" : "_ZTINSt3__117integral_constantIN3fmt2v76detail4typeELS4_15EEE"
    }
   ],
   "linker_set_key" : "_ZTIN3fmt2v76detail13type_constantINS0_9monostateEcEE",
   "name" : "fmt::detail::type_constant<fmt::monostate, char>",
   "referenced_type" : "_ZTIN3fmt2v76detail13type_constantINS0_9monostateEcEE",
   "self_type" : "_ZTIN3fmt2v76detail13type_constantINS0_9monostateEcEE",
   "size" : 1,
   "source_file" : "external/fmtlib/include/fmt/core.h",
   "template_args" : [ "_ZTIN3fmt2v79monostateE", "_ZTIc" ]
  },
  {
   "alignment" : 1,
   "base_specifiers" :
   [
    {
     "referenced_type" : "_ZTINSt3__117integral_constantIN3fmt2v76detail4typeELS4_15EEE"
    }
   ],
   "linker_set_key" : "_ZTIN3fmt2v76detail13type_constantINS1_13unformattableEcEE",
   "name" : "fmt::detail::type_constant<fmt::detail::unformattable, char>",
   "referenced_type" : "_ZTIN3fmt2v76detail13type_constantINS1_13unformattableEcEE",
   "self_type" : "_ZTIN3fmt2v76detail13type_constantINS1_13unformattableEcEE",
   "size" : 1,
   "source_file" : "external/fmtlib/include/fmt/core.h",
   "template_args" : [ "_ZTIN3fmt2v76detail13unformattableE", "_ZTIc" ]
  },
  {
   "alignment" : 1,
   "base_specifiers" :
   [
    {
     "referenced_type" : "_ZTINSt3__117integral_constantIN3fmt2v76detail4typeELS4_12EEE"
    }
   ],
   "linker_set_key" : "_ZTIN3fmt2v76detail13type_constantIPKccEE",
   "name" : "fmt::detail::type_constant<const char *, char>",
   "referenced_type" : "_ZTIN3fmt2v76detail13type_constantIPKccEE",
   "self_type" : "_ZTIN3fmt2v76detail13type_constantIPKccEE",
   "size" : 1,
   "source_file" : "external/fmtlib/include/fmt/core.h",
   "template_args" : [ "_ZTIPKc", "_ZTIc" ]
  },
  {
   "alignment" : 1,
   "base_specifiers" :
   [
    {
     "referenced_type" : "_ZTINSt3__117integral_constantIN3fmt2v76detail4typeELS4_14EEE"
    }
   ],
   "linker_set_key" : "_ZTIN3fmt2v76detail13type_constantIPKvcEE",
   "name" : "fmt::detail::type_constant<const void *, char>",
   "referenced_type" : "_ZTIN3fmt2v76detail13type_constantIPKvcEE",
   "self_type" : "_ZTIN3fmt2v76detail13type_constantIPKvcEE",
   "size" : 1,
   "source_file" : "external/fmtlib/include/fmt/core.h",
   "template_args" : [ "_ZTIPKv", "_ZTIc" ]
  },
  {
   "alignment" : 1,
   "base_specifiers" :
   [
    {
     "referenced_type" : "_ZTINSt3__117integral_constantIN3fmt2v76detail4typeELS4_15EEE"
    }
   ],
   "linker_set_key" : "_ZTIN3fmt2v76detail13type_constantIPccEE",
   "name" : "fmt::detail::type_constant<char *, char>",
   "referenced_type" : "_ZTIN3fmt2v76detail13type_constantIPccEE",
   "self_type" : "_ZTIN3fmt2v76detail13type_constantIPccEE",
   "size" : 1,
   "source_file" : "external/fmtlib/include/fmt/core.h",
   "template_args" : [ "_ZTIPc", "_ZTIc" ]
  },
  {
   "alignment" : 1,
   "base_specifiers" :
   [
    {
     "referenced_type" : "_ZTINSt3__117integral_constantIN3fmt2v76detail4typeELS4_7EEE"
    }
   ],
   "linker_set_key" : "_ZTIN3fmt2v76detail13type_constantIbcEE",
   "name" : "fmt::detail::type_constant<bool, char>",
   "referenced_type" : "_ZTIN3fmt2v76detail13type_constantIbcEE",
   "self_type" : "_ZTIN3fmt2v76detail13type_constantIbcEE",
   "size" : 1,
   "source_file" : "external/fmtlib/include/fmt/core.h",
   "template_args" : [ "_ZTIb", "_ZTIc" ]
  },
  {
   "alignment" : 1,
   "base_specifiers" :
   [
    {
     "referenced_type" : "_ZTINSt3__117integral_constantIN3fmt2v76detail4typeELS4_8EEE"
    }
   ],
   "linker_set_key" : "_ZTIN3fmt2v76detail13type_constantIccEE",
   "name" : "fmt::detail::type_constant<char, char>",
   "referenced_type" : "_ZTIN3fmt2v76detail13type_constantIccEE",
   "self_type" : "_ZTIN3fmt2v76detail13type_constantIccEE",
   "size" : 1,
   "source_file" : "external/fmtlib/include/fmt/core.h",
   "template_args" : [ "_ZTIc", "_ZTIc" ]
  },
  {
   "alignment" : 1,
   "base_specifiers" :
   [
    {
     "referenced_type" : "_ZTINSt3__117integral_constantIN3fmt2v76detail4typeELS4_10EEE"
    }
   ],
   "linker_set_key" : "_ZTIN3fmt2v76detail13type_constantIdcEE",
   "name" : "fmt::detail::type_constant<double, char>",
   "referenced_type" : "_ZTIN3fmt2v76detail13type_constantIdcEE",
   "self_type" : "_ZTIN3fmt2v76detail13type_constantIdcEE",
   "size" : 1,
   "source_file" : "external/fmtlib/include/fmt/core.h",
   "template_args" : [ "_ZTId", "_ZTIc" ]
  },
  {
   "alignment" : 1,
   "base_specifiers" :
   [
    {
     "referenced_type" : "_ZTINSt3__117integral_constantIN3fmt2v76detail4typeELS4_11EEE"
    }
   ],
   "linker_set_key" : "_ZTIN3fmt2v76detail13type_constantIecEE",
   "name" : "fmt::detail::type_constant<long double, char>",
   "referenced_type" : "_ZTIN3fmt2v76detail13type_constantIecEE",
   "self_type" : "_ZTIN3fmt2v76detail13type_constantIecEE",
   "size" : 1,
   "source_file" : "external/fmtlib/include/fmt/core.h",
   "template_args" : [ "_ZTIe", "_ZTIc" ]
  },
  {
   "alignment" : 1,
   "base_specifiers" :
   [
    {
     "referenced_type" : "_ZTINSt3__117integral_constantIN3fmt2v76detail4typeELS4_9EEE"
    }
   ],
   "linker_set_key" : "_ZTIN3fmt2v76detail13type_constantIfcEE",
   "name" : "fmt::detail::type_constant<float, char>",
   "referenced_type" : "_ZTIN3fmt2v76detail13type_constantIfcEE",
   "self_type" : "_ZTIN3fmt2v76detail13type_constantIfcEE",
   "size" : 1,
   "source_file" : "external/fmtlib/include/fmt/core.h",
   "template_args" : [ "_ZTIf", "_ZTIc" ]
  },
  {
   "alignment" : 1,
   "base_specifiers" :
   [
    {
     "referenced_type" : "_ZTINSt3__117integral_constantIN3fmt2v76detail4typeELS4_1EEE"
    }
   ],
   "linker_set_key" : "_ZTIN3fmt2v76detail13type_constantIicEE",
   "name" : "fmt::detail::type_constant<int, char>",
   "referenced_type" : "_ZTIN3fmt2v76detail13type_constantIicEE",
   "self_type" : "_ZTIN3fmt2v76detail13type_constantIicEE",
   "size" : 1,
   "source_file" : "external/fmtlib/include/fmt/core.h",
   "template_args" : [ "_ZTIi", "_ZTIc" ]
  },
  {
   "alignment" : 1,
   "base_specifiers" :
   [
    {
     "referenced_type" : "_ZTINSt3__117integral_constantIN3fmt2v76detail4typeELS4_2EEE"
    }
   ],
   "linker_set_key" : "_ZTIN3fmt2v76detail13type_constantIjcEE",
   "name" : "fmt::detail::type_constant<unsigned int, char>",
   "referenced_type" : "_ZTIN3fmt2v76detail13type_constantIjcEE",
   "self_type" : "_ZTIN3fmt2v76detail13type_constantIjcEE",
   "size" : 1,
   "source_file" : "external/fmtlib/include/fmt/core.h",
   "template_args" : [ "_ZTIj", "_ZTIc" ]
  },
  {
   "alignment" : 1,
   "base_specifiers" :
   [
    {
     "referenced_type" : "_ZTINSt3__117integral_constantIN3fmt2v76detail4typeELS4_3EEE"
    }
   ],
   "linker_set_key" : "_ZTIN3fmt2v76detail13type_constantIxcEE",
   "name" : "fmt::detail::type_constant<long long, char>",
   "referenced_type" : "_ZTIN3fmt2v76detail13type_constantIxcEE",
   "self_type" : "_ZTIN3fmt2v76detail13type_constantIxcEE",
   "size" : 1,
   "source_file" : "external/fmtlib/include/fmt/core.h",
   "template_args" : [ "_ZTIx", "_ZTIc" ]
  },
  {
   "alignment" : 1,
   "base_specifiers" :
   [
    {
     "referenced_type" : "_ZTINSt3__117integral_constantIN3fmt2v76detail4typeELS4_4EEE"
    }
   ],
   "linker_set_key" : "_ZTIN3fmt2v76detail13type_constantIycEE",
   "name" : "fmt::detail::type_constant<unsigned long long, char>",
   "referenced_type" : "_ZTIN3fmt2v76detail13type_constantIycEE",
   "self_type" : "_ZTIN3fmt2v76detail13type_constantIycEE",
   "size" : 1,
   "source_file" : "external/fmtlib/include/fmt/core.h",
   "template_args" : [ "_ZTIy", "_ZTIc" ]
  },
  {
   "alignment" : 1,
   "linker_set_key" : "_ZTIN3fmt2v76detail13unformattableE",
   "name" : "fmt::detail::unformattable",
   "referenced_type" : "_ZTIN3fmt2v76detail13unformattableE",
   "self_type" : "_ZTIN3fmt2v76detail13unformattableE",
   "size" : 1,
   "source_file" : "external/fmtlib/include/fmt/core.h"
  },
  {
   "alignment" : 4,
   "fields" :
   [
    {
     "access" : "private",
     "field_name" : "buffer_",
     "referenced_type" : "_ZTIN3fmt2v719basic_memory_bufferIwLj500ENSt3__19allocatorIwEEEE"
    }
   ],
   "linker_set_key" : "_ZTIN3fmt2v76detail13utf8_to_utf16E",
   "name" : "fmt::detail::utf8_to_utf16",
   "record_kind" : "class",
   "referenced_type" : "_ZTIN3fmt2v76detail13utf8_to_utf16E",
   "self_type" : "_ZTIN3fmt2v76detail13utf8_to_utf16E",
   "size" : 2020,
   "source_file" : "external/fmtlib/include/fmt/format.h"
  },
  {
   "alignment" : 4,
   "fields" :
   [
    {
     "field_name" : "handler",
     "referenced_type" : "_ZTIRN3fmt2v76detail13specs_checkerINS1_13specs_handlerINS0_26basic_format_parse_contextIcNS1_13error_handlerEEENS0_20basic_format_contextINS1_15buffer_appenderIcEEcEEEEEE"
    }
   ],
   "linker_set_key" : "_ZTIN3fmt2v76detail13width_adapterIRNS1_13specs_checkerINS1_13specs_handlerINS0_26basic_format_parse_contextIcNS1_13error_handlerEEENS0_20basic_format_contextINS1_15buffer_appenderIcEEcEEEEEEcEE",
   "name" : "fmt::detail::width_adapter<fmt::detail::specs_checker<fmt::detail::specs_handler<fmt::basic_format_parse_context<char, fmt::detail::error_handler>, fmt::basic_format_context<fmt::detail::buffer_appender<char>, char>>> &, char>",
   "referenced_type" : "_ZTIN3fmt2v76detail13width_adapterIRNS1_13specs_checkerINS1_13specs_handlerINS0_26basic_format_parse_contextIcNS1_13error_handlerEEENS0_20basic_format_contextINS1_15buffer_appenderIcEEcEEEEEEcEE",
   "self_type" : "_ZTIN3fmt2v76detail13width_adapterIRNS1_13specs_checkerINS1_13specs_handlerINS0_26basic_format_parse_contextIcNS1_13error_handlerEEENS0_20basic_format_contextINS1_15buffer_appenderIcEEcEEEEEEcEE",
   "size" : 4,
   "source_file" : "external/fmtlib/include/fmt/format.h",
   "template_args" :
   [
    "_ZTIRN3fmt2v76detail13specs_checkerINS1_13specs_handlerINS0_26basic_format_parse_contextIcNS1_13error_handlerEEENS0_20basic_format_contextINS1_15buffer_appenderIcEEcEEEEEE",
    "_ZTIc"
   ]
  },
  {
   "alignment" : 4,
   "fields" :
   [
    {
     "field_name" : "handler",
     "referenced_type" : "_ZTIRN3fmt2v76detail13specs_checkerINS1_13specs_handlerINS0_26basic_format_parse_contextIcNS1_13error_handlerEEENS0_20basic_format_contextINSt3__120back_insert_iteratorINS1_6bufferIcEEEEcEEEEEE"
    }
   ],
   "linker_set_key" : "_ZTIN3fmt2v76detail13width_adapterIRNS1_13specs_checkerINS1_13specs_handlerINS0_26basic_format_parse_contextIcNS1_13error_handlerEEENS0_20basic_format_contextINSt3__120back_insert_iteratorINS1_6bufferIcEEEEcEEEEEEcEE",
   "name" : "fmt::detail::width_adapter<fmt::detail::specs_checker<fmt::detail::specs_handler<fmt::basic_format_parse_context<char, fmt::detail::error_handler>, fmt::basic_format_context<std::back_insert_iterator<fmt::detail::buffer<char>>, char>>> &, char>",
   "referenced_type" : "_ZTIN3fmt2v76detail13width_adapterIRNS1_13specs_checkerINS1_13specs_handlerINS0_26basic_format_parse_contextIcNS1_13error_handlerEEENS0_20basic_format_contextINSt3__120back_insert_iteratorINS1_6bufferIcEEEEcEEEEEEcEE",
   "self_type" : "_ZTIN3fmt2v76detail13width_adapterIRNS1_13specs_checkerINS1_13specs_handlerINS0_26basic_format_parse_contextIcNS1_13error_handlerEEENS0_20basic_format_contextINSt3__120back_insert_iteratorINS1_6bufferIcEEEEcEEEEEEcEE",
   "size" : 4,
   "source_file" : "external/fmtlib/include/fmt/format.h",
   "template_args" :
   [
    "_ZTIRN3fmt2v76detail13specs_checkerINS1_13specs_handlerINS0_26basic_format_parse_contextIcNS1_13error_handlerEEENS0_20basic_format_contextINSt3__120back_insert_iteratorINS1_6bufferIcEEEEcEEEEEE",
    "_ZTIc"
   ]
  },
  {
   "alignment" : 4,
   "fields" :
   [
    {
     "access" : "private",
     "field_name" : "handler_",
     "referenced_type" : "_ZTIRN3fmt2v76detail13error_handlerE"
    }
   ],
   "linker_set_key" : "_ZTIN3fmt2v76detail13width_checkerINS1_13error_handlerEEE",
   "name" : "fmt::detail::width_checker<fmt::detail::error_handler>",
   "record_kind" : "class",
   "referenced_type" : "_ZTIN3fmt2v76detail13width_checkerINS1_13error_handlerEEE",
   "self_type" : "_ZTIN3fmt2v76detail13width_checkerINS1_13error_handlerEEE",
   "size" : 4,
   "source_file" : "external/fmtlib/include/fmt/format.h",
   "template_args" : [ "_ZTIN3fmt2v76detail13error_handlerE" ]
  },
  {
   "alignment" : 4,
   "fields" :
   [
    {
     "field_name" : "significand",
     "referenced_type" : "_ZTIPKc"
    },
    {
     "field_name" : "significand_size",
     "field_offset" : 32,
     "referenced_type" : "_ZTIi"
    },
    {
     "field_name" : "exponent",
     "field_offset" : 64,
     "referenced_type" : "_ZTIi"
    }
   ],
   "linker_set_key" : "_ZTIN3fmt2v76detail14big_decimal_fpE",
   "name" : "fmt::detail::big_decimal_fp",
   "referenced_type" : "_ZTIN3fmt2v76detail14big_decimal_fpE",
   "self_type" : "_ZTIN3fmt2v76detail14big_decimal_fpE",
   "size" : 12,
   "source_file" : "external/fmtlib/include/fmt/format.h"
  },
  {
   "alignment" : 4,
   "base_specifiers" :
   [
    {
     "referenced_type" : "_ZTIN3fmt2v76detail13error_handlerE"
    }
   ],
   "fields" :
   [
    {
     "field_name" : "parse_context",
     "field_offset" : 32,
     "referenced_type" : "_ZTIN3fmt2v726basic_format_parse_contextIcNS0_6detail13error_handlerEEE"
    },
    {
     "field_name" : "context",
     "field_offset" : 128,
     "referenced_type" : "_ZTIN3fmt2v720basic_format_contextINS0_6detail15buffer_appenderIcEEcEE"
    }
   ],
   "linker_set_key" : "_ZTIN3fmt2v76detail14format_handlerINS1_15buffer_appenderIcEEcNS0_20basic_format_contextIS4_cEEEE",
   "name" : "fmt::detail::format_handler<fmt::detail::buffer_appender<char>, char, fmt::basic_format_context<fmt::detail::buffer_appender<char>, char>>",
   "referenced_type" : "_ZTIN3fmt2v76detail14format_handlerINS1_15buffer_appenderIcEEcNS0_20basic_format_contextIS4_cEEEE",
   "self_type" : "_ZTIN3fmt2v76detail14format_handlerINS1_15buffer_appenderIcEEcNS0_20basic_format_contextIS4_cEEEE",
   "size" : 36,
   "source_file" : "external/fmtlib/include/fmt/format.h",
   "template_args" :
   [
    "_ZTIN3fmt2v76detail15buffer_appenderIcEE",
    "_ZTIc",
    "_ZTIN3fmt2v720basic_format_contextINS0_6detail15buffer_appenderIcEEcEE"
   ]
  },
  {
   "alignment" : 4,
   "base_specifiers" :
   [
    {
     "referenced_type" : "_ZTIN3fmt2v76detail13error_handlerE"
    }
   ],
   "fields" :
   [
    {
     "field_name" : "parse_context",
     "field_offset" : 32,
     "referenced_type" : "_ZTIN3fmt2v726basic_format_parse_contextIcNS0_6detail13error_handlerEEE"
    },
    {
     "field_name" : "context",
     "field_offset" : 128,
     "referenced_type" : "_ZTIN3fmt2v720basic_format_contextINSt3__120back_insert_iteratorINS0_6detail6bufferIcEEEEcEE"
    }
   ],
   "linker_set_key" : "_ZTIN3fmt2v76detail14format_handlerINSt3__120back_insert_iteratorINS1_6bufferIcEEEEcNS0_20basic_format_contextIS7_cEEEE",
   "name" : "fmt::detail::format_handler<std::back_insert_iterator<fmt::detail::buffer<char>>, char, fmt::basic_format_context<std::back_insert_iterator<fmt::detail::buffer<char>>, char>>",
   "referenced_type" : "_ZTIN3fmt2v76detail14format_handlerINSt3__120back_insert_iteratorINS1_6bufferIcEEEEcNS0_20basic_format_contextIS7_cEEEE",
   "self_type" : "_ZTIN3fmt2v76detail14format_handlerINSt3__120back_insert_iteratorINS1_6bufferIcEEEEcNS0_20basic_format_contextIS7_cEEEE",
   "size" : 36,
   "source_file" : "external/fmtlib/include/fmt/format.h",
   "template_args" :
   [
    "_ZTINSt3__120back_insert_iteratorIN3fmt2v76detail6bufferIcEEEE",
    "_ZTIc",
    "_ZTIN3fmt2v720basic_format_contextINSt3__120back_insert_iteratorINS0_6detail6bufferIcEEEEcEE"
   ]
  },
  {
   "alignment" : 4,
   "fields" :
   [
    {
     "field_name" : "name",
     "referenced_type" : "_ZTIPKc"
    },
    {
     "field_name" : "id",
     "field_offset" : 32,
     "referenced_type" : "_ZTIi"
    }
   ],
   "linker_set_key" : "_ZTIN3fmt2v76detail14named_arg_infoIcEE",
   "name" : "fmt::detail::named_arg_info<char>",
   "referenced_type" : "_ZTIN3fmt2v76detail14named_arg_infoIcEE",
   "self_type" : "_ZTIN3fmt2v76detail14named_arg_infoIcEE",
   "size" : 8,
   "source_file" : "external/fmtlib/include/fmt/core.h",
   "template_args" : [ "_ZTIc" ]
  },
  {
   "alignment" : 4,
   "fields" :
   [
    {
     "field_name" : "size",
     "referenced_type" : "_ZTIj"
    },
    {
     "field_name" : "padding",
     "field_offset" : 32,
     "referenced_type" : "_ZTIj"
    }
   ],
   "linker_set_key" : "_ZTIN3fmt2v76detail14write_int_dataIcEE",
   "name" : "fmt::detail::write_int_data<char>",
   "referenced_type" : "_ZTIN3fmt2v76detail14write_int_dataIcEE",
   "self_type" : "_ZTIN3fmt2v76detail14write_int_dataIcEE",
   "size" : 8,
   "source_file" : "external/fmtlib/include/fmt/format.h",
   "template_args" : [ "_ZTIc" ]
  },
  {
   "alignment" : 4,
   "base_specifiers" :
   [
    {
     "referenced_type" : "_ZTINSt3__120back_insert_iteratorIN3fmt2v76detail6bufferIcEEEE"
    }
   ],
   "linker_set_key" : "_ZTIN3fmt2v76detail15buffer_appenderIcEE",
   "name" : "fmt::detail::buffer_appender<char>",
   "record_kind" : "class",
   "referenced_type" : "_ZTIN3fmt2v76detail15buffer_appenderIcEE",
   "self_type" : "_ZTIN3fmt2v76detail15buffer_appenderIcEE",
   "size" : 4,
   "source_file" : "external/fmtlib/include/fmt/core.h",
   "template_args" : [ "_ZTIc" ]
  },
  {
   "alignment" : 4,
   "base_specifiers" :
   [
    {
     "referenced_type" : "_ZTIN3fmt2v76detail6bufferIcEE"
    }
   ],
   "fields" :
   [
    {
     "access" : "private",
     "field_name" : "data_",
     "field_offset" : 128,
     "referenced_type" : "_ZTIA256_c"
    },
    {
     "access" : "private",
     "field_name" : "count_",
     "field_offset" : 2176,
     "referenced_type" : "_ZTIj"
    }
   ],
   "linker_set_key" : "_ZTIN3fmt2v76detail15counting_bufferIcEE",
   "name" : "fmt::detail::counting_buffer<char>",
   "record_kind" : "class",
   "referenced_type" : "_ZTIN3fmt2v76detail15counting_bufferIcEE",
   "self_type" : "_ZTIN3fmt2v76detail15counting_bufferIcEE",
   "size" : 276,
   "source_file" : "external/fmtlib/include/fmt/core.h",
   "template_args" : [ "_ZTIc" ],
   "vtable_components" :
   [
    {
     "kind" : "offset_to_top"
    },
    {
     "kind" : "rtti",
     "mangled_component_name" : "_ZTIN3fmt2v76detail15counting_bufferIcEE"
    },
    {
     "mangled_component_name" : "_ZN3fmt2v76detail15counting_bufferIcE4growEj"
    }
   ]
  },
  {
   "alignment" : 4,
   "fields" :
   [
    {
     "field_name" : "data",
     "referenced_type" : "_ZTIPKN3fmt2v76detail14named_arg_infoIcEE"
    },
    {
     "field_name" : "size",
     "field_offset" : 32,
     "referenced_type" : "_ZTIj"
    }
   ],
   "linker_set_key" : "_ZTIN3fmt2v76detail15named_arg_valueIcEE",
   "name" : "fmt::detail::named_arg_value<char>",
   "referenced_type" : "_ZTIN3fmt2v76detail15named_arg_valueIcEE",
   "self_type" : "_ZTIN3fmt2v76detail15named_arg_valueIcEE",
   "size" : 8,
   "source_file" : "external/fmtlib/include/fmt/core.h",
   "template_args" : [ "_ZTIc" ]
  },
  {
   "alignment" : 4,
   "fields" :
   [
    {
     "field_name" : "high_",
     "referenced_type" : "_ZTIy"
    },
    {
     "field_name" : "low_",
     "field_offset" : 64,
     "referenced_type" : "_ZTIy"
    }
   ],
   "linker_set_key" : "_ZTIN3fmt2v76detail15uint128_wrapperE",
   "name" : "fmt::detail::uint128_wrapper",
   "referenced_type" : "_ZTIN3fmt2v76detail15uint128_wrapperE",
   "self_type" : "_ZTIN3fmt2v76detail15uint128_wrapperE",
   "size" : 16,
   "source_file" : "external/fmtlib/include/fmt/format.h"
  },
  {
   "alignment" : 4,
   "fields" :
   [
    {
     "access" : "private",
     "field_name" : "parse_ctx_",
     "referenced_type" : "_ZTIRN3fmt2v726basic_format_parse_contextIcNS0_6detail13error_handlerEEE"
    },
    {
     "access" : "private",
     "field_name" : "ctx_",
     "field_offset" : 32,
     "referenced_type" : "_ZTIRN3fmt2v720basic_format_contextINS0_6detail15buffer_appenderIcEEcEE"
    }
   ],
   "linker_set_key" : "_ZTIN3fmt2v76detail16custom_formatterINS0_20basic_format_contextINS1_15buffer_appenderIcEEcEEEE",
   "name" : "fmt::detail::custom_formatter<fmt::basic_format_context<fmt::detail::buffer_appender<char>, char>>",
   "record_kind" : "class",
   "referenced_type" : "_ZTIN3fmt2v76detail16custom_formatterINS0_20basic_format_contextINS1_15buffer_appenderIcEEcEEEE",
   "self_type" : "_ZTIN3fmt2v76detail16custom_formatterINS0_20basic_format_contextINS1_15buffer_appenderIcEEcEEEE",
   "size" : 8,
   "source_file" : "external/fmtlib/include/fmt/format.h",
   "template_args" :
   [
    "_ZTIN3fmt2v720basic_format_contextINS0_6detail15buffer_appenderIcEEcEE"
   ]
  },
  {
   "alignment" : 4,
   "fields" :
   [
    {
     "access" : "private",
     "field_name" : "parse_ctx_",
     "referenced_type" : "_ZTIRN3fmt2v726basic_format_parse_contextIcNS0_6detail13error_handlerEEE"
    },
    {
     "access" : "private",
     "field_name" : "ctx_",
     "field_offset" : 32,
     "referenced_type" : "_ZTIRN3fmt2v720basic_format_contextINSt3__120back_insert_iteratorINS0_6detail6bufferIcEEEEcEE"
    }
   ],
   "linker_set_key" : "_ZTIN3fmt2v76detail16custom_formatterINS0_20basic_format_contextINSt3__120back_insert_iteratorINS1_6bufferIcEEEEcEEEE",
   "name" : "fmt::detail::custom_formatter<fmt::basic_format_context<std::back_insert_iterator<fmt::detail::buffer<char>>, char>>",
   "record_kind" : "class",
   "referenced_type" : "_ZTIN3fmt2v76detail16custom_formatterINS0_20basic_format_contextINSt3__120back_insert_iteratorINS1_6bufferIcEEEEcEEEE",
   "self_type" : "_ZTIN3fmt2v76detail16custom_formatterINS0_20basic_format_contextINSt3__120back_insert_iteratorINS1_6bufferIcEEEEcEEEE",
   "size" : 8,
   "source_file" : "external/fmtlib/include/fmt/format.h",
   "template_args" :
   [
    "_ZTIN3fmt2v720basic_format_contextINSt3__120back_insert_iteratorINS0_6detail6bufferIcEEEEcEE"
   ]
  },
  {
   "alignment" : 4,
   "fields" :
   [
    {
     "field_name" : "next",
     "field_offset" : 32,
     "referenced_type" : "_ZTINSt3__110unique_ptrIN3fmt2v76detail16dynamic_arg_list4nodeIvEENS_14default_deleteIS6_EEEE"
    }
   ],
   "linker_set_key" : "_ZTIN3fmt2v76detail16dynamic_arg_list4nodeIvEE",
   "name" : "fmt::detail::dynamic_arg_list::node<void>",
   "referenced_type" : "_ZTIN3fmt2v76detail16dynamic_arg_list4nodeIvEE",
   "self_type" : "_ZTIN3fmt2v76detail16dynamic_arg_list4nodeIvEE",
   "size" : 8,
   "source_file" : "external/fmtlib/include/fmt/core.h",
   "template_args" : [ "_ZTIv" ],
   "vtable_components" :
   [
    {
     "kind" : "offset_to_top"
    },
    {
     "kind" : "rtti",
     "mangled_component_name" : "_ZTIN3fmt2v76detail16dynamic_arg_list4nodeIvEE"
    },
    {
     "kind" : "complete_dtor_pointer",
     "mangled_component_name" : "_ZN3fmt2v76detail16dynamic_arg_list4nodeIvED1Ev"
    },
    {
     "kind" : "deleting_dtor_pointer",
     "mangled_component_name" : "_ZN3fmt2v76detail16dynamic_arg_list4nodeIvED0Ev"
    }
   ]
  },
  {
   "alignment" : 4,
   "fields" :
   [
    {
     "access" : "private",
     "field_name" : "head_",
     "referenced_type" : "_ZTINSt3__110unique_ptrIN3fmt2v76detail16dynamic_arg_list4nodeIvEENS_14default_deleteIS6_EEEE"
    }
   ],
   "linker_set_key" : "_ZTIN3fmt2v76detail16dynamic_arg_listE",
   "name" : "fmt::detail::dynamic_arg_list",
   "record_kind" : "class",
   "referenced_type" : "_ZTIN3fmt2v76detail16dynamic_arg_listE",
   "self_type" : "_ZTIN3fmt2v76detail16dynamic_arg_listE",
   "size" : 4,
   "source_file" : "external/fmtlib/include/fmt/core.h"
  },
  {
   "alignment" : 1,
   "fields" :
   [
    {
     "field_name" : "value",
     "referenced_type" : "_ZTIA4_h"
    }
   ],
   "linker_set_key" : "_ZTIN3fmt2v76detail16fallback_uintptrE",
   "name" : "fmt::detail::fallback_uintptr",
   "referenced_type" : "_ZTIN3fmt2v76detail16fallback_uintptrE",
   "self_type" : "_ZTIN3fmt2v76detail16fallback_uintptrE",
   "size" : 4,
   "source_file" : "external/fmtlib/include/fmt/format.h"
  },
  {
   "alignment" : 1,
   "linker_set_key" : "_ZTIN3fmt2v76detail17counting_iterator10value_typeE",
   "name" : "fmt::detail::counting_iterator::value_type",
   "referenced_type" : "_ZTIN3fmt2v76detail17counting_iterator10value_typeE",
   "self_type" : "_ZTIN3fmt2v76detail17counting_iterator10value_typeE",
   "size" : 1,
   "source_file" : "external/fmtlib/include/fmt/format.h"
  },
  {
   "alignment" : 4,
   "fields" :
   [
    {
     "access" : "private",
     "field_name" : "count_",
     "referenced_type" : "_ZTIj"
    }
   ],
   "linker_set_key" : "_ZTIN3fmt2v76detail17counting_iteratorE",
   "name" : "fmt::detail::counting_iterator",
   "record_kind" : "class",
   "referenced_type" : "_ZTIN3fmt2v76detail17counting_iteratorE",
   "self_type" : "_ZTIN3fmt2v76detail17counting_iteratorE",
   "size" : 4,
   "source_file" : "external/fmtlib/include/fmt/format.h"
  },
  {
   "alignment" : 4,
   "fields" :
   [
    {
     "field_name" : "handler",
     "referenced_type" : "_ZTIRN3fmt2v76detail13specs_checkerINS1_13specs_handlerINS0_26basic_format_parse_contextIcNS1_13error_handlerEEENS0_20basic_format_contextINS1_15buffer_appenderIcEEcEEEEEE"
    }
   ],
   "linker_set_key" : "_ZTIN3fmt2v76detail17precision_adapterIRNS1_13specs_checkerINS1_13specs_handlerINS0_26basic_format_parse_contextIcNS1_13error_handlerEEENS0_20basic_format_contextINS1_15buffer_appenderIcEEcEEEEEEcEE",
   "name" : "fmt::detail::precision_adapter<fmt::detail::specs_checker<fmt::detail::specs_handler<fmt::basic_format_parse_context<char, fmt::detail::error_handler>, fmt::basic_format_context<fmt::detail::buffer_appender<char>, char>>> &, char>",
   "referenced_type" : "_ZTIN3fmt2v76detail17precision_adapterIRNS1_13specs_checkerINS1_13specs_handlerINS0_26basic_format_parse_contextIcNS1_13error_handlerEEENS0_20basic_format_contextINS1_15buffer_appenderIcEEcEEEEEEcEE",
   "self_type" : "_ZTIN3fmt2v76detail17precision_adapterIRNS1_13specs_checkerINS1_13specs_handlerINS0_26basic_format_parse_contextIcNS1_13error_handlerEEENS0_20basic_format_contextINS1_15buffer_appenderIcEEcEEEEEEcEE",
   "size" : 4,
   "source_file" : "external/fmtlib/include/fmt/format.h",
   "template_args" :
   [
    "_ZTIRN3fmt2v76detail13specs_checkerINS1_13specs_handlerINS0_26basic_format_parse_contextIcNS1_13error_handlerEEENS0_20basic_format_contextINS1_15buffer_appenderIcEEcEEEEEE",
    "_ZTIc"
   ]
  },
  {
   "alignment" : 4,
   "fields" :
   [
    {
     "field_name" : "handler",
     "referenced_type" : "_ZTIRN3fmt2v76detail13specs_checkerINS1_13specs_handlerINS0_26basic_format_parse_contextIcNS1_13error_handlerEEENS0_20basic_format_contextINSt3__120back_insert_iteratorINS1_6bufferIcEEEEcEEEEEE"
    }
   ],
   "linker_set_key" : "_ZTIN3fmt2v76detail17precision_adapterIRNS1_13specs_checkerINS1_13specs_handlerINS0_26basic_format_parse_contextIcNS1_13error_handlerEEENS0_20basic_format_contextINSt3__120back_insert_iteratorINS1_6bufferIcEEEEcEEEEEEcEE",
   "name" : "fmt::detail::precision_adapter<fmt::detail::specs_checker<fmt::detail::specs_handler<fmt::basic_format_parse_context<char, fmt::detail::error_handler>, fmt::basic_format_context<std::back_insert_iterator<fmt::detail::buffer<char>>, char>>> &, char>",
   "referenced_type" : "_ZTIN3fmt2v76detail17precision_adapterIRNS1_13specs_checkerINS1_13specs_handlerINS0_26basic_format_parse_contextIcNS1_13error_handlerEEENS0_20basic_format_contextINSt3__120back_insert_iteratorINS1_6bufferIcEEEEcEEEEEEcEE",
   "self_type" : "_ZTIN3fmt2v76detail17precision_adapterIRNS1_13specs_checkerINS1_13specs_handlerINS0_26basic_format_parse_contextIcNS1_13error_handlerEEENS0_20basic_format_contextINSt3__120back_insert_iteratorINS1_6bufferIcEEEEcEEEEEEcEE",
   "size" : 4,
   "source_file" : "external/fmtlib/include/fmt/format.h",
   "template_args" :
   [
    "_ZTIRN3fmt2v76detail13specs_checkerINS1_13specs_handlerINS0_26basic_format_parse_contextIcNS1_13error_handlerEEENS0_20basic_format_contextINSt3__120back_insert_iteratorINS1_6bufferIcEEEEcEEEEEE",
    "_ZTIc"
   ]
  },
  {
   "alignment" : 4,
   "fields" :
   [
    {
     "access" : "private",
     "field_name" : "handler_",
     "referenced_type" : "_ZTIRN3fmt2v76detail13error_handlerE"
    }
   ],
   "linker_set_key" : "_ZTIN3fmt2v76detail17precision_checkerINS1_13error_handlerEEE",
   "name" : "fmt::detail::precision_checker<fmt::detail::error_handler>",
   "record_kind" : "class",
   "referenced_type" : "_ZTIN3fmt2v76detail17precision_checkerINS1_13error_handlerEEE",
   "self_type" : "_ZTIN3fmt2v76detail17precision_checkerINS1_13error_handlerEEE",
   "size" : 4,
   "source_file" : "external/fmtlib/include/fmt/format.h",
   "template_args" : [ "_ZTIN3fmt2v76detail13error_handlerE" ]
  },
  {
   "access" : "private",
   "alignment" : 4,
   "base_specifiers" :
   [
    {
     "referenced_type" : "_ZTIN3fmt2v76detail13error_handlerE"
    }
   ],
   "fields" :
   [
    {
     "field_name" : "formatter",
     "referenced_type" : "_ZTIRN3fmt2v76detail18arg_formatter_baseINS1_15buffer_appenderIcEEcNS1_13error_handlerEEE"
    },
    {
     "field_name" : "value",
     "field_offset" : 32,
     "referenced_type" : "_ZTIc"
    }
   ],
   "linker_set_key" : "_ZTIN3fmt2v76detail18arg_formatter_baseINS1_15buffer_appenderIcEEcNS1_13error_handlerEE17char_spec_handlerE",
   "name" : "fmt::detail::arg_formatter_base<buffer_appender<char>, char, error_handler>::char_spec_handler",
   "referenced_type" : "_ZTIN3fmt2v76detail18arg_formatter_baseINS1_15buffer_appenderIcEEcNS1_13error_handlerEE17char_spec_handlerE",
   "self_type" : "_ZTIN3fmt2v76detail18arg_formatter_baseINS1_15buffer_appenderIcEEcNS1_13error_handlerEE17char_spec_handlerE",
   "size" : 8,
   "source_file" : "external/fmtlib/include/fmt/format.h"
  },
  {
   "access" : "private",
   "alignment" : 4,
   "base_specifiers" :
   [
    {
     "referenced_type" : "_ZTIN3fmt2v76detail13error_handlerE"
    }
   ],
   "fields" :
   [
    {
     "field_name" : "formatter",
     "referenced_type" : "_ZTIRN3fmt2v76detail18arg_formatter_baseINS1_15buffer_appenderIcEEcNS1_13error_handlerEEE"
    },
    {
     "field_name" : "value",
     "field_offset" : 32,
     "referenced_type" : "_ZTIPKc"
    }
   ],
   "linker_set_key" : "_ZTIN3fmt2v76detail18arg_formatter_baseINS1_15buffer_appenderIcEEcNS1_13error_handlerEE20cstring_spec_handlerE",
   "name" : "fmt::detail::arg_formatter_base<buffer_appender<char>, char, error_handler>::cstring_spec_handler",
   "referenced_type" : "_ZTIN3fmt2v76detail18arg_formatter_baseINS1_15buffer_appenderIcEEcNS1_13error_handlerEE20cstring_spec_handlerE",
   "self_type" : "_ZTIN3fmt2v76detail18arg_formatter_baseINS1_15buffer_appenderIcEEcNS1_13error_handlerEE20cstring_spec_handlerE",
   "size" : 8,
   "source_file" : "external/fmtlib/include/fmt/format.h"
  },
  {
   "alignment" : 4,
   "fields" :
   [
    {
     "access" : "private",
     "field_name" : "out_",
     "referenced_type" : "_ZTIN3fmt2v76detail15buffer_appenderIcEE"
    },
    {
     "access" : "private",
     "field_name" : "locale_",
     "field_offset" : 32,
     "referenced_type" : "_ZTIN3fmt2v76detail10locale_refE"
    },
    {
     "access" : "private",
     "field_name" : "specs_",
     "field_offset" : 64,
     "referenced_type" : "_ZTIPN3fmt2v718basic_format_specsIcEE"
    }
   ],
   "linker_set_key" : "_ZTIN3fmt2v76detail18arg_formatter_baseINS1_15buffer_appenderIcEEcNS1_13error_handlerEEE",
   "name" : "fmt::detail::arg_formatter_base<fmt::detail::buffer_appender<char>, char, fmt::detail::error_handler>",
   "record_kind" : "class",
   "referenced_type" : "_ZTIN3fmt2v76detail18arg_formatter_baseINS1_15buffer_appenderIcEEcNS1_13error_handlerEEE",
   "self_type" : "_ZTIN3fmt2v76detail18arg_formatter_baseINS1_15buffer_appenderIcEEcNS1_13error_handlerEEE",
   "size" : 12,
   "source_file" : "external/fmtlib/include/fmt/format.h",
   "template_args" :
   [
    "_ZTIN3fmt2v76detail15buffer_appenderIcEE",
    "_ZTIc",
    "_ZTIN3fmt2v76detail13error_handlerE"
   ]
  },
  {
   "access" : "private",
   "alignment" : 4,
   "base_specifiers" :
   [
    {
     "referenced_type" : "_ZTIN3fmt2v76detail13error_handlerE"
    }
   ],
   "fields" :
   [
    {
     "field_name" : "formatter",
     "referenced_type" : "_ZTIRN3fmt2v76detail18arg_formatter_baseINSt3__120back_insert_iteratorINS1_6bufferIcEEEEcNS1_13error_handlerEEE"
    },
    {
     "field_name" : "value",
     "field_offset" : 32,
     "referenced_type" : "_ZTIc"
    }
   ],
   "linker_set_key" : "_ZTIN3fmt2v76detail18arg_formatter_baseINSt3__120back_insert_iteratorINS1_6bufferIcEEEEcNS1_13error_handlerEE17char_spec_handlerE",
   "name" : "fmt::detail::arg_formatter_base<back_insert_iterator<buffer<char>>, char, error_handler>::char_spec_handler",
   "referenced_type" : "_ZTIN3fmt2v76detail18arg_formatter_baseINSt3__120back_insert_iteratorINS1_6bufferIcEEEEcNS1_13error_handlerEE17char_spec_handlerE",
   "self_type" : "_ZTIN3fmt2v76detail18arg_formatter_baseINSt3__120back_insert_iteratorINS1_6bufferIcEEEEcNS1_13error_handlerEE17char_spec_handlerE",
   "size" : 8,
   "source_file" : "external/fmtlib/include/fmt/format.h"
  },
  {
   "access" : "private",
   "alignment" : 4,
   "base_specifiers" :
   [
    {
     "referenced_type" : "_ZTIN3fmt2v76detail13error_handlerE"
    }
   ],
   "fields" :
   [
    {
     "field_name" : "formatter",
     "referenced_type" : "_ZTIRN3fmt2v76detail18arg_formatter_baseINSt3__120back_insert_iteratorINS1_6bufferIcEEEEcNS1_13error_handlerEEE"
    },
    {
     "field_name" : "value",
     "field_offset" : 32,
     "referenced_type" : "_ZTIPKc"
    }
   ],
   "linker_set_key" : "_ZTIN3fmt2v76detail18arg_formatter_baseINSt3__120back_insert_iteratorINS1_6bufferIcEEEEcNS1_13error_handlerEE20cstring_spec_handlerE",
   "name" : "fmt::detail::arg_formatter_base<back_insert_iterator<buffer<char>>, char, error_handler>::cstring_spec_handler",
   "referenced_type" : "_ZTIN3fmt2v76detail18arg_formatter_baseINSt3__120back_insert_iteratorINS1_6bufferIcEEEEcNS1_13error_handlerEE20cstring_spec_handlerE",
   "self_type" : "_ZTIN3fmt2v76detail18arg_formatter_baseINSt3__120back_insert_iteratorINS1_6bufferIcEEEEcNS1_13error_handlerEE20cstring_spec_handlerE",
   "size" : 8,
   "source_file" : "external/fmtlib/include/fmt/format.h"
  },
  {
   "alignment" : 4,
   "fields" :
   [
    {
     "access" : "private",
     "field_name" : "out_",
     "referenced_type" : "_ZTINSt3__120back_insert_iteratorIN3fmt2v76detail6bufferIcEEEE"
    },
    {
     "access" : "private",
     "field_name" : "locale_",
     "field_offset" : 32,
     "referenced_type" : "_ZTIN3fmt2v76detail10locale_refE"
    },
    {
     "access" : "private",
     "field_name" : "specs_",
     "field_offset" : 64,
     "referenced_type" : "_ZTIPN3fmt2v718basic_format_specsIcEE"
    }
   ],
   "linker_set_key" : "_ZTIN3fmt2v76detail18arg_formatter_baseINSt3__120back_insert_iteratorINS1_6bufferIcEEEEcNS1_13error_handlerEEE",
   "name" : "fmt::detail::arg_formatter_base<std::back_insert_iterator<fmt::detail::buffer<char>>, char, fmt::detail::error_handler>",
   "record_kind" : "class",
   "referenced_type" : "_ZTIN3fmt2v76detail18arg_formatter_baseINSt3__120back_insert_iteratorINS1_6bufferIcEEEEcNS1_13error_handlerEEE",
   "self_type" : "_ZTIN3fmt2v76detail18arg_formatter_baseINSt3__120back_insert_iteratorINS1_6bufferIcEEEEcNS1_13error_handlerEEE",
   "size" : 12,
   "source_file" : "external/fmtlib/include/fmt/format.h",
   "template_args" :
   [
    "_ZTINSt3__120back_insert_iteratorIN3fmt2v76detail6bufferIcEEEE",
    "_ZTIc",
    "_ZTIN3fmt2v76detail13error_handlerE"
   ]
  },
  {
   "alignment" : 1,
   "linker_set_key" : "_ZTIN3fmt2v76detail18fallback_formatterIA3_ccvEE",
   "name" : "fmt::detail::fallback_formatter<char [3], char, void>",
   "referenced_type" : "_ZTIN3fmt2v76detail18fallback_formatterIA3_ccvEE",
   "self_type" : "_ZTIN3fmt2v76detail18fallback_formatterIA3_ccvEE",
   "size" : 1,
   "source_file" : "external/fmtlib/include/fmt/core.h",
   "template_args" : [ "_ZTIA3_c", "_ZTIc", "_ZTIv" ]
  },
  {
   "alignment" : 1,
   "linker_set_key" : "_ZTIN3fmt2v76detail18fallback_formatterIA7_ccvEE",
   "name" : "fmt::detail::fallback_formatter<char [7], char, void>",
   "referenced_type" : "_ZTIN3fmt2v76detail18fallback_formatterIA7_ccvEE",
   "self_type" : "_ZTIN3fmt2v76detail18fallback_formatterIA7_ccvEE",
   "size" : 1,
   "source_file" : "external/fmtlib/include/fmt/core.h",
   "template_args" : [ "_ZTIA7_c", "_ZTIc", "_ZTIv" ]
  },
  {
   "alignment" : 1,
   "linker_set_key" : "_ZTIN3fmt2v76detail18fallback_formatterINS0_17basic_string_viewIcEEcvEE",
   "name" : "fmt::detail::fallback_formatter<fmt::basic_string_view<char>, char, void>",
   "referenced_type" : "_ZTIN3fmt2v76detail18fallback_formatterINS0_17basic_string_viewIcEEcvEE",
   "self_type" : "_ZTIN3fmt2v76detail18fallback_formatterINS0_17basic_string_viewIcEEcvEE",
   "size" : 1,
   "source_file" : "external/fmtlib/include/fmt/core.h",
   "template_args" : [ "_ZTIN3fmt2v717basic_string_viewIcEE", "_ZTIc", "_ZTIv" ]
  },
  {
   "alignment" : 1,
   "linker_set_key" : "_ZTIN3fmt2v76detail18fallback_formatterINS0_9monostateEcvEE",
   "name" : "fmt::detail::fallback_formatter<fmt::monostate, char, void>",
   "referenced_type" : "_ZTIN3fmt2v76detail18fallback_formatterINS0_9monostateEcvEE",
   "self_type" : "_ZTIN3fmt2v76detail18fallback_formatterINS0_9monostateEcvEE",
   "size" : 1,
   "source_file" : "external/fmtlib/include/fmt/core.h",
   "template_args" : [ "_ZTIN3fmt2v79monostateE", "_ZTIc", "_ZTIv" ]
  },
  {
   "alignment" : 1,
   "linker_set_key" : "_ZTIN3fmt2v76detail18fallback_formatterIPKccvEE",
   "name" : "fmt::detail::fallback_formatter<const char *, char, void>",
   "referenced_type" : "_ZTIN3fmt2v76detail18fallback_formatterIPKccvEE",
   "self_type" : "_ZTIN3fmt2v76detail18fallback_formatterIPKccvEE",
   "size" : 1,
   "source_file" : "external/fmtlib/include/fmt/core.h",
   "template_args" : [ "_ZTIPKc", "_ZTIc", "_ZTIv" ]
  },
  {
   "alignment" : 1,
   "linker_set_key" : "_ZTIN3fmt2v76detail18fallback_formatterIPKvcvEE",
   "name" : "fmt::detail::fallback_formatter<const void *, char, void>",
   "referenced_type" : "_ZTIN3fmt2v76detail18fallback_formatterIPKvcvEE",
   "self_type" : "_ZTIN3fmt2v76detail18fallback_formatterIPKvcvEE",
   "size" : 1,
   "source_file" : "external/fmtlib/include/fmt/core.h",
   "template_args" : [ "_ZTIPKv", "_ZTIc", "_ZTIv" ]
  },
  {
   "alignment" : 1,
   "linker_set_key" : "_ZTIN3fmt2v76detail18fallback_formatterIPccvEE",
   "name" : "fmt::detail::fallback_formatter<char *, char, void>",
   "referenced_type" : "_ZTIN3fmt2v76detail18fallback_formatterIPccvEE",
   "self_type" : "_ZTIN3fmt2v76detail18fallback_formatterIPccvEE",
   "size" : 1,
   "source_file" : "external/fmtlib/include/fmt/core.h",
   "template_args" : [ "_ZTIPc", "_ZTIc", "_ZTIv" ]
  },
  {
   "alignment" : 1,
   "linker_set_key" : "_ZTIN3fmt2v76detail18fallback_formatterIbcvEE",
   "name" : "fmt::detail::fallback_formatter<bool, char, void>",
   "referenced_type" : "_ZTIN3fmt2v76detail18fallback_formatterIbcvEE",
   "self_type" : "_ZTIN3fmt2v76detail18fallback_formatterIbcvEE",
   "size" : 1,
   "source_file" : "external/fmtlib/include/fmt/core.h",
   "template_args" : [ "_ZTIb", "_ZTIc", "_ZTIv" ]
  },
  {
   "alignment" : 1,
   "linker_set_key" : "_ZTIN3fmt2v76detail18fallback_formatterIccvEE",
   "name" : "fmt::detail::fallback_formatter<char, char, void>",
   "referenced_type" : "_ZTIN3fmt2v76detail18fallback_formatterIccvEE",
   "self_type" : "_ZTIN3fmt2v76detail18fallback_formatterIccvEE",
   "size" : 1,
   "source_file" : "external/fmtlib/include/fmt/core.h",
   "template_args" : [ "_ZTIc", "_ZTIc", "_ZTIv" ]
  },
  {
   "alignment" : 1,
   "linker_set_key" : "_ZTIN3fmt2v76detail18fallback_formatterIdcvEE",
   "name" : "fmt::detail::fallback_formatter<double, char, void>",
   "referenced_type" : "_ZTIN3fmt2v76detail18fallback_formatterIdcvEE",
   "self_type" : "_ZTIN3fmt2v76detail18fallback_formatterIdcvEE",
   "size" : 1,
   "source_file" : "external/fmtlib/include/fmt/core.h",
   "template_args" : [ "_ZTId", "_ZTIc", "_ZTIv" ]
  },
  {
   "alignment" : 1,
   "linker_set_key" : "_ZTIN3fmt2v76detail18fallback_formatterIecvEE",
   "name" : "fmt::detail::fallback_formatter<long double, char, void>",
   "referenced_type" : "_ZTIN3fmt2v76detail18fallback_formatterIecvEE",
   "self_type" : "_ZTIN3fmt2v76detail18fallback_formatterIecvEE",
   "size" : 1,
   "source_file" : "external/fmtlib/include/fmt/core.h",
   "template_args" : [ "_ZTIe", "_ZTIc", "_ZTIv" ]
  },
  {
   "alignment" : 1,
