{
 "array_types" : [],
 "builtin_types" :
 [
  {
   "alignment" : 1,
   "is_integral" : true,
   "is_unsigned" : true,
   "linker_set_key" : "_ZTIc",
   "name" : "char",
   "referenced_type" : "_ZTIc",
   "self_type" : "_ZTIc",
   "size" : 1
  },
  {
   "alignment" : 4,
   "is_integral" : true,
   "is_unsigned" : true,
   "linker_set_key" : "_ZTIj",
   "name" : "unsigned int",
   "referenced_type" : "_ZTIj",
   "self_type" : "_ZTIj",
   "size" : 4
  }
 ],
 "elf_functions" : [],
 "elf_objects" : [],
 "enum_types" :
 [
  {
   "alignment" : 4,
   "enum_fields" :
   [
    {
     "enum_field_value" : 2,
     "name" : "android::kAudioEncodingPcm16bit"
    },
    {
     "enum_field_value" : 3,
     "name" : "android::kAudioEncodingPcm8bit"
    },
    {
     "enum_field_value" : 4,
     "name" : "android::kAudioEncodingPcmFloat"
    },
    {
     "enum_field_value" : 21,
     "name" : "android::kAudioEncodingPcm24bitPacked"
    },
    {
     "enum_field_value" : 22,
     "name" : "android::kAudioEncodingPcm32bit"
    }
   ],
   "linker_set_key" : "_ZTIN7android13AudioEncodingE",
   "name" : "android::AudioEncoding",
   "referenced_type" : "_ZTIN7android13AudioEncodingE",
   "self_type" : "_ZTIN7android13AudioEncodingE",
   "size" : 4,
   "source_file" : "frameworks/av/media/libstagefright/foundation/include/media/stagefright/foundation/MediaDefs.h",
   "underlying_type" : "_ZTIj"
  }
 ],
 "function_types" : [],
 "functions" : [],
 "global_vars" :
 [
  {
   "linker_set_key" : "_ZN7android23MEDIA_MIMETYPE_TEXT_VTTE",
   "name" : "android::MEDIA_MIMETYPE_TEXT_VTT",
   "referenced_type" : "_ZTIPKc",
   "source_file" : "frameworks/av/media/libstagefright/foundation/include/media/stagefright/foundation/MediaDefs.h"
  },
  {
   "linker_set_key" : "_ZN7android24MEDIA_MIMETYPE_AUDIO_AACE",
   "name" : "android::MEDIA_MIMETYPE_AUDIO_AAC",
   "referenced_type" : "_ZTIPKc",
   "source_file" : "frameworks/av/media/libstagefright/foundation/include/media/stagefright/foundation/MediaDefs.h"
  },
  {
   "linker_set_key" : "_ZN7android24MEDIA_MIMETYPE_AUDIO_AC3E",
   "name" : "android::MEDIA_MIMETYPE_AUDIO_AC3",
   "referenced_type" : "_ZTIPKc",
   "source_file" : "frameworks/av/media/libstagefright/foundation/include/media/stagefright/foundation/MediaDefs.h"
  },
  {
   "linker_set_key" : "_ZN7android24MEDIA_MIMETYPE_AUDIO_AC4E",
   "name" : "android::MEDIA_MIMETYPE_AUDIO_AC4",
   "referenced_type" : "_ZTIPKc",
   "source_file" : "frameworks/av/media/libstagefright/foundation/include/media/stagefright/foundation/MediaDefs.h"
  },
  {
   "linker_set_key" : "_ZN7android24MEDIA_MIMETYPE_AUDIO_RAWE",
   "name" : "android::MEDIA_MIMETYPE_AUDIO_RAW",
   "referenced_type" : "_ZTIPKc",
   "source_file" : "frameworks/av/media/libstagefright/foundation/include/media/stagefright/foundation/MediaDefs.h"
  },
  {
   "linker_set_key" : "_ZN7android24MEDIA_MIMETYPE_AUDIO_WMAE",
   "name" : "android::MEDIA_MIMETYPE_AUDIO_WMA",
   "referenced_type" : "_ZTIPKc",
   "source_file" : "frameworks/av/media/libstagefright/foundation/include/media/stagefright/foundation/MediaDefs.h"
  },
  {
   "linker_set_key" : "_ZN7android24MEDIA_MIMETYPE_TEXT_3GPPE",
   "name" : "android::MEDIA_MIMETYPE_TEXT_3GPP",
   "referenced_type" : "_ZTIPKc",
   "source_file" : "frameworks/av/media/libstagefright/foundation/include/media/stagefright/foundation/MediaDefs.h"
  },
  {
   "linker_set_key" : "_ZN7android24MEDIA_MIMETYPE_VIDEO_AV1E",
   "name" : "android::MEDIA_MIMETYPE_VIDEO_AV1",
   "referenced_type" : "_ZTIPKc",
   "source_file" : "frameworks/av/media/libstagefright/foundation/include/media/stagefright/foundation/MediaDefs.h"
  },
  {
   "linker_set_key" : "_ZN7android24MEDIA_MIMETYPE_VIDEO_AVCE",
   "name" : "android::MEDIA_MIMETYPE_VIDEO_AVC",
   "referenced_type" : "_ZTIPKc",
   "source_file" : "frameworks/av/media/libstagefright/foundation/include/media/stagefright/foundation/MediaDefs.h"
  },
  {
   "linker_set_key" : "_ZN7android24MEDIA_MIMETYPE_VIDEO_RAWE",
   "name" : "android::MEDIA_MIMETYPE_VIDEO_RAW",
   "referenced_type" : "_ZTIPKc",
   "source_file" : "frameworks/av/media/libstagefright/foundation/include/media/stagefright/foundation/MediaDefs.h"
  },
  {
   "linker_set_key" : "_ZN7android24MEDIA_MIMETYPE_VIDEO_VP8E",
   "name" : "android::MEDIA_MIMETYPE_VIDEO_VP8",
   "referenced_type" : "_ZTIPKc",
   "source_file" : "frameworks/av/media/libstagefright/foundation/include/media/stagefright/foundation/MediaDefs.h"
  },
  {
   "linker_set_key" : "_ZN7android24MEDIA_MIMETYPE_VIDEO_VP9E",
   "name" : "android::MEDIA_MIMETYPE_VIDEO_VP9",
   "referenced_type" : "_ZTIPKc",
   "source_file" : "frameworks/av/media/libstagefright/foundation/include/media/stagefright/foundation/MediaDefs.h"
  },
  {
   "linker_set_key" : "_ZN7android25MEDIA_MIMETYPE_AUDIO_ALACE",
   "name" : "android::MEDIA_MIMETYPE_AUDIO_ALAC",
   "referenced_type" : "_ZTIPKc",
   "source_file" : "frameworks/av/media/libstagefright/foundation/include/media/stagefright/foundation/MediaDefs.h"
  },
  {
   "linker_set_key" : "_ZN7android25MEDIA_MIMETYPE_AUDIO_EAC3E",
   "name" : "android::MEDIA_MIMETYPE_AUDIO_EAC3",
   "referenced_type" : "_ZTIPKc",
   "source_file" : "frameworks/av/media/libstagefright/foundation/include/media/stagefright/foundation/MediaDefs.h"
  },
  {
   "linker_set_key" : "_ZN7android25MEDIA_MIMETYPE_AUDIO_FLACE",
   "name" : "android::MEDIA_MIMETYPE_AUDIO_FLAC",
   "referenced_type" : "_ZTIPKc",
   "source_file" : "frameworks/av/media/libstagefright/foundation/include/media/stagefright/foundation/MediaDefs.h"
  },
  {
   "linker_set_key" : "_ZN7android25MEDIA_MIMETYPE_AUDIO_MIDIE",
   "name" : "android::MEDIA_MIMETYPE_AUDIO_MIDI",
   "referenced_type" : "_ZTIPKc",
   "source_file" : "frameworks/av/media/libstagefright/foundation/include/media/stagefright/foundation/MediaDefs.h"
  },
  {
   "linker_set_key" : "_ZN7android25MEDIA_MIMETYPE_AUDIO_MPEGE",
   "name" : "android::MEDIA_MIMETYPE_AUDIO_MPEG",
   "referenced_type" : "_ZTIPKc",
   "source_file" : "frameworks/av/media/libstagefright/foundation/include/media/stagefright/foundation/MediaDefs.h"
  },
  {
   "linker_set_key" : "_ZN7android25MEDIA_MIMETYPE_AUDIO_OPUSE",
   "name" : "android::MEDIA_MIMETYPE_AUDIO_OPUS",
   "referenced_type" : "_ZTIPKc",
   "source_file" : "frameworks/av/media/libstagefright/foundation/include/media/stagefright/foundation/MediaDefs.h"
  },
  {
   "linker_set_key" : "_ZN7android25MEDIA_MIMETYPE_IMAGE_AVIFE",
   "name" : "android::MEDIA_MIMETYPE_IMAGE_AVIF",
   "referenced_type" : "_ZTIPKc",
   "source_file" : "frameworks/av/media/libstagefright/foundation/include/media/stagefright/foundation/MediaDefs.h"
  },
  {
   "linker_set_key" : "_ZN7android25MEDIA_MIMETYPE_IMAGE_JPEGE",
   "name" : "android::MEDIA_MIMETYPE_IMAGE_JPEG",
   "referenced_type" : "_ZTIPKc",
   "source_file" : "frameworks/av/media/libstagefright/foundation/include/media/stagefright/foundation/MediaDefs.h"
  },
  {
   "linker_set_key" : "_ZN7android25MEDIA_MIMETYPE_VIDEO_DIVXE",
   "name" : "android::MEDIA_MIMETYPE_VIDEO_DIVX",
   "referenced_type" : "_ZTIPKc",
   "source_file" : "frameworks/av/media/libstagefright/foundation/include/media/stagefright/foundation/MediaDefs.h"
  },
  {
   "linker_set_key" : "_ZN7android25MEDIA_MIMETYPE_VIDEO_H263E",
   "name" : "android::MEDIA_MIMETYPE_VIDEO_H263",
   "referenced_type" : "_ZTIPKc",
   "source_file" : "frameworks/av/media/libstagefright/foundation/include/media/stagefright/foundation/MediaDefs.h"
  },
  {
   "linker_set_key" : "_ZN7android25MEDIA_MIMETYPE_VIDEO_HEVCE",
   "name" : "android::MEDIA_MIMETYPE_VIDEO_HEVC",
   "referenced_type" : "_ZTIPKc",
   "source_file" : "frameworks/av/media/libstagefright/foundation/include/media/stagefright/foundation/MediaDefs.h"
  },
  {
   "linker_set_key" : "_ZN7android25MEDIA_MIMETYPE_VIDEO_XVIDE",
   "name" : "android::MEDIA_MIMETYPE_VIDEO_XVID",
   "referenced_type" : "_ZTIPKc",
   "source_file" : "frameworks/av/media/libstagefright/foundation/include/media/stagefright/foundation/MediaDefs.h"
  },
  {
   "linker_set_key" : "_ZN7android26MEDIA_MIMETYPE_AUDIO_MSGSME",
   "name" : "android::MEDIA_MIMETYPE_AUDIO_MSGSM",
   "referenced_type" : "_ZTIPKc",
   "source_file" : "frameworks/av/media/libstagefright/foundation/include/media/stagefright/foundation/MediaDefs.h"
  },
  {
   "linker_set_key" : "_ZN7android26MEDIA_MIMETYPE_AUDIO_QCELPE",
   "name" : "android::MEDIA_MIMETYPE_AUDIO_QCELP",
   "referenced_type" : "_ZTIPKc",
   "source_file" : "frameworks/av/media/libstagefright/foundation/include/media/stagefright/foundation/MediaDefs.h"
  },
  {
   "linker_set_key" : "_ZN7android26MEDIA_MIMETYPE_TEXT_SUBRIPE",
   "name" : "android::MEDIA_MIMETYPE_TEXT_SUBRIP",
   "referenced_type" : "_ZTIPKc",
   "source_file" : "frameworks/av/media/libstagefright/foundation/include/media/stagefright/foundation/MediaDefs.h"
  },
  {
   "linker_set_key" : "_ZN7android26MEDIA_MIMETYPE_VIDEO_DIVX3E",
   "name" : "android::MEDIA_MIMETYPE_VIDEO_DIVX3",
   "referenced_type" : "_ZTIPKc",
   "source_file" : "frameworks/av/media/libstagefright/foundation/include/media/stagefright/foundation/MediaDefs.h"
  },
  {
   "linker_set_key" : "_ZN7android26MEDIA_MIMETYPE_VIDEO_MJPEGE",
   "name" : "android::MEDIA_MIMETYPE_VIDEO_MJPEG",
   "referenced_type" : "_ZTIPKc",
   "source_file" : "frameworks/av/media/libstagefright/foundation/include/media/stagefright/foundation/MediaDefs.h"
  },
  {
   "linker_set_key" : "_ZN7android26MEDIA_MIMETYPE_VIDEO_MPEG2E",
   "name" : "android::MEDIA_MIMETYPE_VIDEO_MPEG2",
   "referenced_type" : "_ZTIPKc",
   "source_file" : "frameworks/av/media/libstagefright/foundation/include/media/stagefright/foundation/MediaDefs.h"
  },
  {
   "linker_set_key" : "_ZN7android26MEDIA_MIMETYPE_VIDEO_MPEG4E",
   "name" : "android::MEDIA_MIMETYPE_VIDEO_MPEG4",
   "referenced_type" : "_ZTIPKc",
   "source_file" : "frameworks/av/media/libstagefright/foundation/include/media/stagefright/foundation/MediaDefs.h"
  },
  {
   "linker_set_key" : "_ZN7android27MEDIA_MIMETYPE_AUDIO_AMR_NBE",
   "name" : "android::MEDIA_MIMETYPE_AUDIO_AMR_NB",
   "referenced_type" : "_ZTIPKc",
   "source_file" : "frameworks/av/media/libstagefright/foundation/include/media/stagefright/foundation/MediaDefs.h"
  },
  {
   "linker_set_key" : "_ZN7android27MEDIA_MIMETYPE_AUDIO_AMR_WBE",
   "name" : "android::MEDIA_MIMETYPE_AUDIO_AMR_WB",
   "referenced_type" : "_ZTIPKc",
   "source_file" : "frameworks/av/media/libstagefright/foundation/include/media/stagefright/foundation/MediaDefs.h"
  },
  {
   "linker_set_key" : "_ZN7android27MEDIA_MIMETYPE_AUDIO_VORBISE",
   "name" : "android::MEDIA_MIMETYPE_AUDIO_VORBIS",
   "referenced_type" : "_ZTIPKc",
   "source_file" : "frameworks/av/media/libstagefright/foundation/include/media/stagefright/foundation/MediaDefs.h"
  },
  {
   "linker_set_key" : "_ZN7android27MEDIA_MIMETYPE_TEXT_CEA_608E",
   "name" : "android::MEDIA_MIMETYPE_TEXT_CEA_608",
   "referenced_type" : "_ZTIPKc",
   "source_file" : "frameworks/av/media/libstagefright/foundation/include/media/stagefright/foundation/MediaDefs.h"
  },
  {
   "linker_set_key" : "_ZN7android27MEDIA_MIMETYPE_TEXT_CEA_708E",
   "name" : "android::MEDIA_MIMETYPE_TEXT_CEA_708",
   "referenced_type" : "_ZTIPKc",
   "source_file" : "frameworks/av/media/libstagefright/foundation/include/media/stagefright/foundation/MediaDefs.h"
  },
  {
   "linker_set_key" : "_ZN7android28MEDIA_MIMETYPE_CONTAINER_AVIE",
   "name" : "android::MEDIA_MIMETYPE_CONTAINER_AVI",
   "referenced_type" : "_ZTIPKc",
   "source_file" : "frameworks/av/media/libstagefright/foundation/include/media/stagefright/foundation/MediaDefs.h"
  },
  {
   "linker_set_key" : "_ZN7android28MEDIA_MIMETYPE_CONTAINER_OGGE",
   "name" : "android::MEDIA_MIMETYPE_CONTAINER_OGG",
   "referenced_type" : "_ZTIPKc",
   "source_file" : "frameworks/av/media/libstagefright/foundation/include/media/stagefright/foundation/MediaDefs.h"
  },
  {
   "linker_set_key" : "_ZN7android28MEDIA_MIMETYPE_CONTAINER_WAVE",
   "name" : "android::MEDIA_MIMETYPE_CONTAINER_WAV",
   "referenced_type" : "_ZTIPKc",
   "source_file" : "frameworks/av/media/libstagefright/foundation/include/media/stagefright/foundation/MediaDefs.h"
  },
  {
   "linker_set_key" : "_ZN7android29MEDIA_MIMETYPE_AUDIO_AAC_ADTSE",
   "name" : "android::MEDIA_MIMETYPE_AUDIO_AAC_ADTS",
   "referenced_type" : "_ZTIPKc",
   "source_file" : "frameworks/av/media/libstagefright/foundation/include/media/stagefright/foundation/MediaDefs.h"
  },
  {
   "linker_set_key" : "_ZN7android29MEDIA_MIMETYPE_AUDIO_EAC3_JOCE",
   "name" : "android::MEDIA_MIMETYPE_AUDIO_EAC3_JOC",
   "referenced_type" : "_ZTIPKc",
   "source_file" : "frameworks/av/media/libstagefright/foundation/include/media/stagefright/foundation/MediaDefs.h"
  },
  {
   "linker_set_key" : "_ZN7android29MEDIA_MIMETYPE_AUDIO_MS_ADPCME",
   "name" : "android::MEDIA_MIMETYPE_AUDIO_MS_ADPCM",
   "referenced_type" : "_ZTIPKc",
   "source_file" : "frameworks/av/media/libstagefright/foundation/include/media/stagefright/foundation/MediaDefs.h"
  },
  {
   "linker_set_key" : "_ZN7android29MEDIA_MIMETYPE_CONTAINER_HEIFE",
   "name" : "android::MEDIA_MIMETYPE_CONTAINER_HEIF",
   "referenced_type" : "_ZTIPKc",
   "source_file" : "frameworks/av/media/libstagefright/foundation/include/media/stagefright/foundation/MediaDefs.h"
  },
  {
   "linker_set_key" : "_ZN7android29MEDIA_MIMETYPE_DATA_TIMED_ID3E",
   "name" : "android::MEDIA_MIMETYPE_DATA_TIMED_ID3",
   "referenced_type" : "_ZTIPKc",
   "source_file" : "frameworks/av/media/libstagefright/foundation/include/media/stagefright/foundation/MediaDefs.h"
  },
  {
   "linker_set_key" : "_ZN7android30MEDIA_MIMETYPE_AUDIO_G711_ALAWE",
   "name" : "android::MEDIA_MIMETYPE_AUDIO_G711_ALAW",
   "referenced_type" : "_ZTIPKc",
   "source_file" : "frameworks/av/media/libstagefright/foundation/include/media/stagefright/foundation/MediaDefs.h"
  },
  {
   "linker_set_key" : "_ZN7android30MEDIA_MIMETYPE_AUDIO_G711_MLAWE",
   "name" : "android::MEDIA_MIMETYPE_AUDIO_G711_MLAW",
   "referenced_type" : "_ZTIPKc",
   "source_file" : "frameworks/av/media/libstagefright/foundation/include/media/stagefright/foundation/MediaDefs.h"
  },
  {
   "linker_set_key" : "_ZN7android30MEDIA_MIMETYPE_AUDIO_SCRAMBLEDE",
   "name" : "android::MEDIA_MIMETYPE_AUDIO_SCRAMBLED",
   "referenced_type" : "_ZTIPKc",
   "source_file" : "frameworks/av/media/libstagefright/foundation/include/media/stagefright/foundation/MediaDefs.h"
  },
  {
   "linker_set_key" : "_ZN7android30MEDIA_MIMETYPE_CONTAINER_MPEG4E",
   "name" : "android::MEDIA_MIMETYPE_CONTAINER_MPEG4",
   "referenced_type" : "_ZTIPKc",
   "source_file" : "frameworks/av/media/libstagefright/foundation/include/media/stagefright/foundation/MediaDefs.h"
  },
  {
   "linker_set_key" : "_ZN7android30MEDIA_MIMETYPE_VIDEO_SCRAMBLEDE",
   "name" : "android::MEDIA_MIMETYPE_VIDEO_SCRAMBLED",
   "referenced_type" : "_ZTIPKc",
   "source_file" : "frameworks/av/media/libstagefright/foundation/include/media/stagefright/foundation/MediaDefs.h"
  },
  {
   "linker_set_key" : "_ZN7android31MEDIA_MIMETYPE_AUDIO_MPEGH_MHA1E",
   "name" : "android::MEDIA_MIMETYPE_AUDIO_MPEGH_MHA1",
   "referenced_type" : "_ZTIPKc",
   "source_file" : "frameworks/av/media/libstagefright/foundation/include/media/stagefright/foundation/MediaDefs.h"
  },
  {
   "linker_set_key" : "_ZN7android31MEDIA_MIMETYPE_AUDIO_MPEGH_MHM1E",
   "name" : "android::MEDIA_MIMETYPE_AUDIO_MPEGH_MHM1",
   "referenced_type" : "_ZTIPKc",
   "source_file" : "frameworks/av/media/libstagefright/foundation/include/media/stagefright/foundation/MediaDefs.h"
  },
  {
   "linker_set_key" : "_ZN7android32MEDIA_MIMETYPE_CONTAINER_MPEG2PSE",
   "name" : "android::MEDIA_MIMETYPE_CONTAINER_MPEG2PS",
   "referenced_type" : "_ZTIPKc",
   "source_file" : "frameworks/av/media/libstagefright/foundation/include/media/stagefright/foundation/MediaDefs.h"
  },
  {
   "linker_set_key" : "_ZN7android32MEDIA_MIMETYPE_CONTAINER_MPEG2TSE",
   "name" : "android::MEDIA_MIMETYPE_CONTAINER_MPEG2TS",
   "referenced_type" : "_ZTIPKc",
   "source_file" : "frameworks/av/media/libstagefright/foundation/include/media/stagefright/foundation/MediaDefs.h"
  },
  {
   "linker_set_key" : "_ZN7android33MEDIA_MIMETYPE_AUDIO_MPEG_LAYER_IE",
   "name" : "android::MEDIA_MIMETYPE_AUDIO_MPEG_LAYER_I",
   "referenced_type" : "_ZTIPKc",
   "source_file" : "frameworks/av/media/libstagefright/foundation/include/media/stagefright/foundation/MediaDefs.h"
  },
  {
   "linker_set_key" : "_ZN7android33MEDIA_MIMETYPE_CONTAINER_MATROSKAE",
   "name" : "android::MEDIA_MIMETYPE_CONTAINER_MATROSKA",
   "referenced_type" : "_ZTIPKc",
   "source_file" : "frameworks/av/media/libstagefright/foundation/include/media/stagefright/foundation/MediaDefs.h"
  },
  {
   "linker_set_key" : "_ZN7android33MEDIA_MIMETYPE_IMAGE_ANDROID_HEICE",
   "name" : "android::MEDIA_MIMETYPE_IMAGE_ANDROID_HEIC",
   "referenced_type" : "_ZTIPKc",
   "source_file" : "frameworks/av/media/libstagefright/foundation/include/media/stagefright/foundation/MediaDefs.h"
  },
  {
   "linker_set_key" : "_ZN7android33MEDIA_MIMETYPE_VIDEO_DOLBY_VISIONE",
   "name" : "android::MEDIA_MIMETYPE_VIDEO_DOLBY_VISION",
   "referenced_type" : "_ZTIPKc",
   "source_file" : "frameworks/av/media/libstagefright/foundation/include/media/stagefright/foundation/MediaDefs.h"
  },
  {
   "linker_set_key" : "_ZN7android34MEDIA_MIMETYPE_AUDIO_DVI_IMA_ADPCME",
   "name" : "android::MEDIA_MIMETYPE_AUDIO_DVI_IMA_ADPCM",
   "referenced_type" : "_ZTIPKc",
   "source_file" : "frameworks/av/media/libstagefright/foundation/include/media/stagefright/foundation/MediaDefs.h"
  },
  {
   "linker_set_key" : "_ZN7android34MEDIA_MIMETYPE_AUDIO_MPEG_LAYER_IIE",
   "name" : "android::MEDIA_MIMETYPE_AUDIO_MPEG_LAYER_II",
   "referenced_type" : "_ZTIPKc",
   "source_file" : "frameworks/av/media/libstagefright/foundation/include/media/stagefright/foundation/MediaDefs.h"
  }
 ],
 "lvalue_reference_types" : [],
 "pointer_types" :
 [
  {
   "alignment" : 8,
   "linker_set_key" : "_ZTIPKc",
   "name" : "const char *",
   "referenced_type" : "_ZTIKc",
   "self_type" : "_ZTIPKc",
   "size" : 8,
   "source_file" : "frameworks/av/media/libstagefright/foundation/include/media/stagefright/foundation/MediaDefs.h"
  }
 ],
 "qualified_types" :
 [
  {
   "alignment" : 1,
   "is_const" : true,
   "linker_set_key" : "_ZTIKc",
   "name" : "const char",
   "referenced_type" : "_ZTIc",
   "self_type" : "_ZTIKc",
   "size" : 1,
   "source_file" : "frameworks/av/media/libstagefright/foundation/include/media/stagefright/foundation/MediaDefs.h"
  }
 ],
 "record_types" : [],
 "rvalue_reference_types" : []
}
