{
 "array_types" :
 [
  {
   "alignment" : 1,
   "linker_set_key" : "_ZTIA12_c",
   "name" : "char [12]",
   "referenced_type" : "_ZTIc",
   "self_type" : "_ZTIA12_c",
   "size" : 12,
   "source_file" : "external/llvm/include/llvm/Support/AlignOf.h"
  },
  {
   "alignment" : 4,
   "linker_set_key" : "_ZTIA15_N4llvm21AlignedCharArrayUnionINS_15LayoutAlignElemEcccccccccEE",
   "name" : "llvm::AlignedCharArrayUnion<llvm::LayoutAlignElem, char, char, char, char, char, char, char, char, char> [15]",
   "referenced_type" : "_ZTIN4llvm21AlignedCharArrayUnionINS_15LayoutAlignElemEcccccccccEE",
   "self_type" : "_ZTIA15_N4llvm21AlignedCharArrayUnionINS_15LayoutAlignElemEcccccccccEE",
   "size" : 120,
   "source_file" : "external/llvm/include/llvm/ADT/SmallVector.h"
  },
  {
   "alignment" : 1,
   "linker_set_key" : "_ZTIA16_c",
   "name" : "char [16]",
   "referenced_type" : "_ZTIc",
   "self_type" : "_ZTIA16_c",
   "size" : 16,
   "source_file" : "external/llvm/include/llvm/Support/AlignOf.h"
  },
  {
   "alignment" : 4,
   "linker_set_key" : "_ZTIA16_j",
   "name" : "unsigned int [16]",
   "referenced_type" : "_ZTIj",
   "self_type" : "_ZTIA16_j",
   "size" : 64,
   "source_file" : "external/llvm/include/llvm/Support/MD5.h"
  },
  {
   "alignment" : 4,
   "linker_set_key" : "_ZTIA1_N4llvm21AlignedCharArrayUnionIPKvcccccccccEE",
   "name" : "llvm::AlignedCharArrayUnion<const void *, char, char, char, char, char, char, char, char, char> [1]",
   "referenced_type" : "_ZTIN4llvm21AlignedCharArrayUnionIPKvcccccccccEE",
   "self_type" : "_ZTIA1_N4llvm21AlignedCharArrayUnionIPKvcccccccccEE",
   "size" : 4,
   "source_file" : "external/llvm/include/llvm/ADT/SmallVector.h"
  },
  {
   "alignment" : 1,
   "linker_set_key" : "_ZTIA1_c",
   "name" : "char [1]",
   "referenced_type" : "_ZTIc",
   "self_type" : "_ZTIA1_c",
   "size" : 1,
   "source_file" : "external/llvm/include/llvm/Support/AlignOf.h"
  },
  {
   "alignment" : 8,
   "linker_set_key" : "_ZTIA1_y",
   "name" : "unsigned long long [1]",
   "referenced_type" : "_ZTIy",
   "self_type" : "_ZTIA1_y",
   "size" : 8,
   "source_file" : "external/llvm/include/llvm/IR/DataLayout.h"
  },
  {
   "alignment" : 1,
   "linker_set_key" : "_ZTIA256_h",
   "name" : "unsigned char [256]",
   "referenced_type" : "_ZTIh",
   "self_type" : "_ZTIA256_h",
   "size" : 256,
   "source_file" : "external/llvm/include/llvm/Support/MathExtras.h"
  },
  {
   "alignment" : 1,
   "linker_set_key" : "_ZTIA2_c",
   "name" : "char [2]",
   "referenced_type" : "_ZTIc",
   "self_type" : "_ZTIA2_c",
   "size" : 2,
   "source_file" : "external/llvm/include/llvm/Support/AlignOf.h"
  },
  {
   "alignment" : 4,
   "linker_set_key" : "_ZTIA2_j",
   "name" : "unsigned int [2]",
   "referenced_type" : "_ZTIj",
   "self_type" : "_ZTIA2_j",
   "size" : 8,
   "source_file" : "external/llvm/include/llvm/ADT/ArrayRef.h"
  },
  {
   "alignment" : 4,
   "linker_set_key" : "_ZTIA31_N4llvm21AlignedCharArrayUnionIjcccccccccEE",
   "name" : "llvm::AlignedCharArrayUnion<unsigned int, char, char, char, char, char, char, char, char, char> [31]",
   "referenced_type" : "_ZTIN4llvm21AlignedCharArrayUnionIjcccccccccEE",
   "self_type" : "_ZTIA31_N4llvm21AlignedCharArrayUnionIjcccccccccEE",
   "size" : 124,
   "source_file" : "external/llvm/include/llvm/ADT/SmallVector.h"
  },
  {
   "alignment" : 4,
   "linker_set_key" : "_ZTIA3_N4llvm21AlignedCharArrayUnionINSt3__14pairIPKcNS2_IiS4_EEEEcccccccccEE",
   "name" : "llvm::AlignedCharArrayUnion<std::__1::pair<const char *, std::__1::pair<int, const char *>>, char, char, char, char, char, char, char, char, char> [3]",
   "referenced_type" : "_ZTIN4llvm21AlignedCharArrayUnionINSt3__14pairIPKcNS2_IiS4_EEEEcccccccccEE",
   "self_type" : "_ZTIA3_N4llvm21AlignedCharArrayUnionINSt3__14pairIPKcNS2_IiS4_EEEEcccccccccEE",
   "size" : 36,
   "source_file" : "external/llvm/include/llvm/ADT/SmallVector.h"
  },
  {
   "alignment" : 4,
   "linker_set_key" : "_ZTIA3_N4llvm21AlignedCharArrayUnionIPNS_2cl6OptionEcccccccccEE",
   "name" : "llvm::AlignedCharArrayUnion<llvm::cl::Option *, char, char, char, char, char, char, char, char, char> [3]",
   "referenced_type" : "_ZTIN4llvm21AlignedCharArrayUnionIPNS_2cl6OptionEcccccccccEE",
   "self_type" : "_ZTIA3_N4llvm21AlignedCharArrayUnionIPNS_2cl6OptionEcccccccccEE",
   "size" : 12,
   "source_file" : "external/llvm/include/llvm/ADT/SmallVector.h"
  },
  {
   "alignment" : 4,
   "linker_set_key" : "_ZTIA3_N4llvm21AlignedCharArrayUnionIPNS_8MetadataEcccccccccEE",
   "name" : "llvm::AlignedCharArrayUnion<llvm::Metadata *, char, char, char, char, char, char, char, char, char> [3]",
   "referenced_type" : "_ZTIN4llvm21AlignedCharArrayUnionIPNS_8MetadataEcccccccccEE",
   "self_type" : "_ZTIA3_N4llvm21AlignedCharArrayUnionIPNS_8MetadataEcccccccccEE",
   "size" : 12,
   "source_file" : "external/llvm/include/llvm/ADT/SmallVector.h"
  },
  {
   "alignment" : 4,
   "linker_set_key" : "_ZTIA3_N4llvm21AlignedCharArrayUnionIPvcccccccccEE",
   "name" : "llvm::AlignedCharArrayUnion<void *, char, char, char, char, char, char, char, char, char> [3]",
   "referenced_type" : "_ZTIN4llvm21AlignedCharArrayUnionIPvcccccccccEE",
   "self_type" : "_ZTIA3_N4llvm21AlignedCharArrayUnionIPvcccccccccEE",
   "size" : 12,
   "source_file" : "external/llvm/include/llvm/ADT/SmallVector.h"
  },
  {
   "alignment" : 8,
   "linker_set_key" : "_ZTIA4_N4llvm6detail12DenseMapPairIPvNSt3__14pairINS_12PointerUnionIPNS_15MetadataAsValueEPNS_8MetadataEEEyEEEE",
   "name" : "llvm::detail::DenseMapPair<void *, std::__1::pair<llvm::PointerUnion<llvm::MetadataAsValue *, llvm::Metadata *>, unsigned long long>> [4]",
   "referenced_type" : "_ZTIN4llvm6detail12DenseMapPairIPvNSt3__14pairINS_12PointerUnionIPNS_15MetadataAsValueEPNS_8MetadataEEEyEEEE",
   "self_type" : "_ZTIA4_N4llvm6detail12DenseMapPairIPvNSt3__14pairINS_12PointerUnionIPNS_15MetadataAsValueEPNS_8MetadataEEEyEEEE",
   "size" : 96,
   "source_file" : "external/llvm/include/llvm/Support/AlignOf.h"
  },
  {
   "alignment" : 4,
   "linker_set_key" : "_ZTIA4_PKv",
   "name" : "const void *[4]",
   "referenced_type" : "_ZTIPKv",
   "self_type" : "_ZTIA4_PKv",
   "size" : 16,
   "source_file" : "external/llvm/include/llvm/ADT/SmallPtrSet.h"
  },
  {
   "alignment" : 1,
   "linker_set_key" : "_ZTIA4_c",
   "name" : "char [4]",
   "referenced_type" : "_ZTIc",
   "self_type" : "_ZTIA4_c",
   "size" : 4,
   "source_file" : "external/llvm/include/llvm/Support/AlignOf.h"
  },
  {
   "alignment" : 1,
   "linker_set_key" : "_ZTIA64_c",
   "name" : "char [64]",
   "referenced_type" : "_ZTIc",
   "self_type" : "_ZTIA64_c",
   "size" : 64,
   "source_file" : "external/llvm/include/llvm/ADT/Hashing.h"
  },
  {
   "alignment" : 1,
   "linker_set_key" : "_ZTIA64_h",
   "name" : "unsigned char [64]",
   "referenced_type" : "_ZTIh",
   "self_type" : "_ZTIA64_h",
   "size" : 64,
   "source_file" : "external/llvm/include/llvm/Support/MD5.h"
  },
  {
   "alignment" : 4,
   "linker_set_key" : "_ZTIA7_N4llvm21AlignedCharArrayUnionINS_16PointerAlignElemEcccccccccEE",
   "name" : "llvm::AlignedCharArrayUnion<llvm::PointerAlignElem, char, char, char, char, char, char, char, char, char> [7]",
   "referenced_type" : "_ZTIN4llvm21AlignedCharArrayUnionINS_16PointerAlignElemEcccccccccEE",
   "self_type" : "_ZTIA7_N4llvm21AlignedCharArrayUnionINS_16PointerAlignElemEcccccccccEE",
   "size" : 112,
   "source_file" : "external/llvm/include/llvm/ADT/SmallVector.h"
  },
  {
   "alignment" : 4,
   "linker_set_key" : "_ZTIA7_N4llvm21AlignedCharArrayUnionIPKvcccccccccEE",
   "name" : "llvm::AlignedCharArrayUnion<const void *, char, char, char, char, char, char, char, char, char> [7]",
   "referenced_type" : "_ZTIN4llvm21AlignedCharArrayUnionIPKvcccccccccEE",
   "self_type" : "_ZTIA7_N4llvm21AlignedCharArrayUnionIPKvcccccccccEE",
   "size" : 28,
   "source_file" : "external/llvm/include/llvm/ADT/SmallVector.h"
  },
  {
   "alignment" : 1,
   "linker_set_key" : "_ZTIA7_N4llvm21AlignedCharArrayUnionIhcccccccccEE",
   "name" : "llvm::AlignedCharArrayUnion<unsigned char, char, char, char, char, char, char, char, char, char> [7]",
   "referenced_type" : "_ZTIN4llvm21AlignedCharArrayUnionIhcccccccccEE",
   "self_type" : "_ZTIA7_N4llvm21AlignedCharArrayUnionIhcccccccccEE",
   "size" : 7,
   "source_file" : "external/llvm/include/llvm/ADT/SmallVector.h"
  },
  {
   "alignment" : 1,
   "linker_set_key" : "_ZTIA8_c",
   "name" : "char [8]",
   "referenced_type" : "_ZTIc",
   "self_type" : "_ZTIA8_c",
   "size" : 8,
   "source_file" : "external/llvm/include/llvm/Support/AlignOf.h"
  },
  {
   "alignment" : 1,
   "linker_set_key" : "_ZTIA96_c",
   "name" : "char [96]",
   "referenced_type" : "_ZTIc",
   "self_type" : "_ZTIA96_c",
   "size" : 96,
   "source_file" : "external/llvm/include/llvm/Support/AlignOf.h"
  }
 ],
 "builtin_types" :
 [
  {
   "alignment" : 1,
   "is_integral" : true,
   "linker_set_key" : "_ZTIa",
   "name" : "signed char",
   "referenced_type" : "_ZTIa",
   "self_type" : "_ZTIa",
   "size" : 1
  },
  {
   "alignment" : 1,
   "is_integral" : true,
   "is_unsigned" : true,
   "linker_set_key" : "_ZTIb",
   "name" : "bool",
   "referenced_type" : "_ZTIb",
   "self_type" : "_ZTIb",
   "size" : 1
  },
  {
   "alignment" : 1,
   "is_integral" : true,
   "is_unsigned" : true,
   "linker_set_key" : "_ZTIc",
   "name" : "char",
   "referenced_type" : "_ZTIc",
   "self_type" : "_ZTIc",
   "size" : 1
  },
  {
   "alignment" : 8,
   "linker_set_key" : "_ZTId",
   "name" : "double",
   "referenced_type" : "_ZTId",
   "self_type" : "_ZTId",
   "size" : 8
  },
  {
   "alignment" : 4,
   "linker_set_key" : "_ZTIf",
   "name" : "float",
   "referenced_type" : "_ZTIf",
   "self_type" : "_ZTIf",
   "size" : 4
  },
  {
   "alignment" : 1,
   "is_integral" : true,
   "is_unsigned" : true,
   "linker_set_key" : "_ZTIh",
   "name" : "unsigned char",
   "referenced_type" : "_ZTIh",
   "self_type" : "_ZTIh",
   "size" : 1
  },
  {
   "alignment" : 4,
   "is_integral" : true,
   "linker_set_key" : "_ZTIi",
   "name" : "int",
   "referenced_type" : "_ZTIi",
   "self_type" : "_ZTIi",
   "size" : 4
  },
  {
   "alignment" : 4,
   "is_integral" : true,
   "is_unsigned" : true,
   "linker_set_key" : "_ZTIj",
   "name" : "unsigned int",
   "referenced_type" : "_ZTIj",
   "self_type" : "_ZTIj",
   "size" : 4
  },
  {
   "alignment" : 4,
   "is_integral" : true,
   "linker_set_key" : "_ZTIl",
   "name" : "long",
   "referenced_type" : "_ZTIl",
   "self_type" : "_ZTIl",
   "size" : 4
  },
  {
   "alignment" : 4,
   "is_integral" : true,
   "is_unsigned" : true,
   "linker_set_key" : "_ZTIm",
   "name" : "unsigned long",
   "referenced_type" : "_ZTIm",
   "self_type" : "_ZTIm",
   "size" : 4
  },
  {
   "alignment" : 2,
   "is_integral" : true,
   "linker_set_key" : "_ZTIs",
   "name" : "short",
   "referenced_type" : "_ZTIs",
   "self_type" : "_ZTIs",
   "size" : 2
  },
  {
   "alignment" : 2,
   "is_integral" : true,
   "is_unsigned" : true,
   "linker_set_key" : "_ZTIt",
   "name" : "unsigned short",
   "referenced_type" : "_ZTIt",
   "self_type" : "_ZTIt",
   "size" : 2
  },
  {
   "linker_set_key" : "_ZTIv",
   "name" : "void",
   "referenced_type" : "_ZTIv",
   "self_type" : "_ZTIv"
  },
  {
   "alignment" : 8,
   "is_integral" : true,
   "linker_set_key" : "_ZTIx",
   "name" : "long long",
   "referenced_type" : "_ZTIx",
   "self_type" : "_ZTIx",
   "size" : 8
  },
  {
   "alignment" : 8,
   "is_integral" : true,
   "is_unsigned" : true,
   "linker_set_key" : "_ZTIy",
   "name" : "unsigned long long",
   "referenced_type" : "_ZTIy",
   "self_type" : "_ZTIy",
   "size" : 8
  }
 ],
 "elf_functions" : [],
 "elf_objects" : [],
 "enum_types" :
 [
  {
   "alignment" : 4,
   "enum_fields" :
   [
    {
     "enum_field_value" : 0,
     "name" : "llvm::CodeGenOpt::None"
    },
    {
     "enum_field_value" : 1,
     "name" : "llvm::CodeGenOpt::Less"
    },
    {
     "enum_field_value" : 2,
     "name" : "llvm::CodeGenOpt::Default"
    },
    {
     "enum_field_value" : 3,
     "name" : "llvm::CodeGenOpt::Aggressive"
    }
   ],
   "linker_set_key" : "_ZTIN4llvm10CodeGenOpt5LevelE",
   "name" : "llvm::CodeGenOpt::Level",
   "referenced_type" : "_ZTIN4llvm10CodeGenOpt5LevelE",
   "self_type" : "_ZTIN4llvm10CodeGenOpt5LevelE",
   "size" : 4,
   "source_file" : "external/llvm/include/llvm/Support/CodeGen.h",
   "underlying_type" : "_ZTIj"
  },
  {
   "access" : "private",
   "alignment" : 4,
   "enum_fields" :
   [
    {
     "enum_field_value" : 0,
     "name" : "llvm::DataLayout::MM_None"
    },
    {
     "enum_field_value" : 1,
     "name" : "llvm::DataLayout::MM_ELF"
    },
    {
     "enum_field_value" : 2,
     "name" : "llvm::DataLayout::MM_MachO"
    },
    {
     "enum_field_value" : 3,
     "name" : "llvm::DataLayout::MM_WinCOFF"
    },
    {
     "enum_field_value" : 4,
     "name" : "llvm::DataLayout::MM_WinCOFFX86"
    },
    {
     "enum_field_value" : 5,
     "name" : "llvm::DataLayout::MM_Mips"
    }
   ],
   "linker_set_key" : "_ZTIN4llvm10DataLayout13ManglingModeTE",
   "name" : "llvm::DataLayout::ManglingModeT",
   "referenced_type" : "_ZTIN4llvm10DataLayout13ManglingModeTE",
   "self_type" : "_ZTIN4llvm10DataLayout13ManglingModeTE",
   "size" : 4,
   "source_file" : "external/llvm/include/llvm/IR/DataLayout.h",
   "underlying_type" : "_ZTIj"
  },
  {
   "access" : "private",
   "alignment" : 4,
   "enum_fields" :
   [
    {
     "enum_field_value" : 1,
     "name" : "llvm::StructType::SCDB_HasBody"
    },
    {
     "enum_field_value" : 2,
     "name" : "llvm::StructType::SCDB_Packed"
    },
    {
     "enum_field_value" : 4,
     "name" : "llvm::StructType::SCDB_IsLiteral"
    },
    {
     "enum_field_value" : 8,
     "name" : "llvm::StructType::SCDB_IsSized"
    }
   ],
   "linker_set_key" : "_ZTIN4llvm10StructType13$SCDB_HasBodyE",
   "name" : "llvm::StructType::(anonymous enum at external/llvm/include/llvm/IR/DerivedTypes.h:201:3)",
   "referenced_type" : "_ZTIN4llvm10StructType13$SCDB_HasBodyE",
   "self_type" : "_ZTIN4llvm10StructType13$SCDB_HasBodyE",
   "size" : 4,
   "source_file" : "external/llvm/include/llvm/IR/DerivedTypes.h",
   "underlying_type" : "_ZTIj"
  },
  {
   "alignment" : 4,
   "enum_fields" :
   [
    {
     "enum_field_value" : 0,
     "name" : "llvm::CallingConv::C"
    },
    {
     "enum_field_value" : 8,
     "name" : "llvm::CallingConv::Fast"
    },
    {
     "enum_field_value" : 9,
     "name" : "llvm::CallingConv::Cold"
    },
    {
     "enum_field_value" : 10,
     "name" : "llvm::CallingConv::GHC"
    },
    {
     "enum_field_value" : 11,
     "name" : "llvm::CallingConv::HiPE"
    },
    {
     "enum_field_value" : 12,
     "name" : "llvm::CallingConv::WebKit_JS"
    },
    {
     "enum_field_value" : 13,
     "name" : "llvm::CallingConv::AnyReg"
    },
    {
     "enum_field_value" : 14,
     "name" : "llvm::CallingConv::PreserveMost"
    },
    {
     "enum_field_value" : 15,
     "name" : "llvm::CallingConv::PreserveAll"
    },
    {
     "enum_field_value" : 16,
     "name" : "llvm::CallingConv::Swift"
    },
    {
     "enum_field_value" : 17,
     "name" : "llvm::CallingConv::CXX_FAST_TLS"
    },
    {
     "enum_field_value" : 64,
     "name" : "llvm::CallingConv::FirstTargetCC"
    },
    {
     "enum_field_value" : 64,
     "name" : "llvm::CallingConv::X86_StdCall"
    },
    {
     "enum_field_value" : 65,
     "name" : "llvm::CallingConv::X86_FastCall"
    },
    {
     "enum_field_value" : 66,
     "name" : "llvm::CallingConv::ARM_APCS"
    },
    {
     "enum_field_value" : 67,
     "name" : "llvm::CallingConv::ARM_AAPCS"
    },
    {
     "enum_field_value" : 68,
     "name" : "llvm::CallingConv::ARM_AAPCS_VFP"
    },
    {
     "enum_field_value" : 69,
     "name" : "llvm::CallingConv::MSP430_INTR"
    },
    {
     "enum_field_value" : 70,
     "name" : "llvm::CallingConv::X86_ThisCall"
    },
    {
     "enum_field_value" : 71,
     "name" : "llvm::CallingConv::PTX_Kernel"
    },
    {
     "enum_field_value" : 72,
     "name" : "llvm::CallingConv::PTX_Device"
    },
    {
     "enum_field_value" : 75,
     "name" : "llvm::CallingConv::SPIR_FUNC"
    },
    {
     "enum_field_value" : 76,
     "name" : "llvm::CallingConv::SPIR_KERNEL"
    },
    {
     "enum_field_value" : 77,
     "name" : "llvm::CallingConv::Intel_OCL_BI"
    },
    {
     "enum_field_value" : 78,
     "name" : "llvm::CallingConv::X86_64_SysV"
    },
    {
     "enum_field_value" : 79,
     "name" : "llvm::CallingConv::X86_64_Win64"
    },
    {
     "enum_field_value" : 80,
     "name" : "llvm::CallingConv::X86_VectorCall"
    },
    {
     "enum_field_value" : 81,
     "name" : "llvm::CallingConv::HHVM"
    },
    {
     "enum_field_value" : 82,
     "name" : "llvm::CallingConv::HHVM_C"
    },
    {
     "enum_field_value" : 83,
     "name" : "llvm::CallingConv::X86_INTR"
    },
    {
     "enum_field_value" : 84,
     "name" : "llvm::CallingConv::AVR_INTR"
    },
    {
     "enum_field_value" : 85,
     "name" : "llvm::CallingConv::AVR_SIGNAL"
    },
    {
     "enum_field_value" : 86,
     "name" : "llvm::CallingConv::AVR_BUILTIN"
    },
    {
     "enum_field_value" : 87,
     "name" : "llvm::CallingConv::AMDGPU_VS"
    },
    {
     "enum_field_value" : 88,
     "name" : "llvm::CallingConv::AMDGPU_GS"
    },
    {
     "enum_field_value" : 89,
     "name" : "llvm::CallingConv::AMDGPU_PS"
    },
    {
     "enum_field_value" : 90,
     "name" : "llvm::CallingConv::AMDGPU_CS"
    },
    {
     "enum_field_value" : 91,
     "name" : "llvm::CallingConv::AMDGPU_KERNEL"
    },
    {
     "enum_field_value" : 1023,
     "name" : "llvm::CallingConv::MaxID"
    }
   ],
   "linker_set_key" : "_ZTIN4llvm11CallingConv10$AMDGPU_CSE",
   "name" : "llvm::CallingConv::(anonymous enum at external/llvm/include/llvm/IR/CallingConv.h:29:3)",
   "referenced_type" : "_ZTIN4llvm11CallingConv10$AMDGPU_CSE",
   "self_type" : "_ZTIN4llvm11CallingConv10$AMDGPU_CSE",
   "size" : 4,
   "source_file" : "external/llvm/include/llvm/IR/CallingConv.h",
   "underlying_type" : "_ZTIj"
  },
  {
   "access" : "private",
   "alignment" : 4,
   "enum_fields" :
   [
    {
     "enum_field_value" : 1,
     "name" : "llvm::GEPOperator::IsInBounds"
    }
   ],
   "linker_set_key" : "_ZTIN4llvm11GEPOperator11$IsInBoundsE",
   "name" : "llvm::GEPOperator::(anonymous enum at external/llvm/include/llvm/IR/Operator.h:366:3)",
   "referenced_type" : "_ZTIN4llvm11GEPOperator11$IsInBoundsE",
   "self_type" : "_ZTIN4llvm11GEPOperator11$IsInBoundsE",
   "size" : 4,
   "source_file" : "external/llvm/include/llvm/IR/Operator.h",
   "underlying_type" : "_ZTIj"
  },
  {
   "alignment" : 4,
   "enum_fields" :
   [
    {
     "enum_field_value" : 0,
     "name" : "llvm::GlobalValue::UnnamedAddr::None"
    },
    {
     "enum_field_value" : 1,
     "name" : "llvm::GlobalValue::UnnamedAddr::Local"
    },
    {
     "enum_field_value" : 2,
     "name" : "llvm::GlobalValue::UnnamedAddr::Global"
    }
   ],
   "linker_set_key" : "_ZTIN4llvm11GlobalValue11UnnamedAddrE",
   "name" : "llvm::GlobalValue::UnnamedAddr",
   "referenced_type" : "_ZTIN4llvm11GlobalValue11UnnamedAddrE",
   "self_type" : "_ZTIN4llvm11GlobalValue11UnnamedAddrE",
   "size" : 4,
   "source_file" : "external/llvm/include/llvm/IR/GlobalValue.h",
   "underlying_type" : "_ZTIi"
  },
  {
   "alignment" : 4,
   "enum_fields" :
   [
    {
     "enum_field_value" : 0,
     "name" : "llvm::GlobalValue::ExternalLinkage"
    },
    {
     "enum_field_value" : 1,
     "name" : "llvm::GlobalValue::AvailableExternallyLinkage"
    },
    {
     "enum_field_value" : 2,
     "name" : "llvm::GlobalValue::LinkOnceAnyLinkage"
    },
    {
     "enum_field_value" : 3,
     "name" : "llvm::GlobalValue::LinkOnceODRLinkage"
    },
    {
     "enum_field_value" : 4,
     "name" : "llvm::GlobalValue::WeakAnyLinkage"
    },
    {
     "enum_field_value" : 5,
     "name" : "llvm::GlobalValue::WeakODRLinkage"
    },
    {
     "enum_field_value" : 6,
     "name" : "llvm::GlobalValue::AppendingLinkage"
    },
    {
     "enum_field_value" : 7,
     "name" : "llvm::GlobalValue::InternalLinkage"
    },
    {
     "enum_field_value" : 8,
     "name" : "llvm::GlobalValue::PrivateLinkage"
    },
    {
     "enum_field_value" : 9,
     "name" : "llvm::GlobalValue::ExternalWeakLinkage"
    },
    {
     "enum_field_value" : 10,
     "name" : "llvm::GlobalValue::CommonLinkage"
    }
   ],
   "linker_set_key" : "_ZTIN4llvm11GlobalValue12LinkageTypesE",
   "name" : "llvm::GlobalValue::LinkageTypes",
   "referenced_type" : "_ZTIN4llvm11GlobalValue12LinkageTypesE",
   "self_type" : "_ZTIN4llvm11GlobalValue12LinkageTypesE",
   "size" : 4,
   "source_file" : "external/llvm/include/llvm/IR/GlobalValue.h",
   "underlying_type" : "_ZTIj"
  },
  {
   "alignment" : 4,
   "enum_fields" :
   [
    {
     "enum_field_value" : 0,
     "name" : "llvm::GlobalValue::NotThreadLocal"
    },
    {
     "enum_field_value" : 1,
     "name" : "llvm::GlobalValue::GeneralDynamicTLSModel"
    },
    {
     "enum_field_value" : 2,
     "name" : "llvm::GlobalValue::LocalDynamicTLSModel"
    },
    {
     "enum_field_value" : 3,
     "name" : "llvm::GlobalValue::InitialExecTLSModel"
    },
    {
     "enum_field_value" : 4,
     "name" : "llvm::GlobalValue::LocalExecTLSModel"
    }
   ],
   "linker_set_key" : "_ZTIN4llvm11GlobalValue15ThreadLocalModeE",
   "name" : "llvm::GlobalValue::ThreadLocalMode",
   "referenced_type" : "_ZTIN4llvm11GlobalValue15ThreadLocalModeE",
   "self_type" : "_ZTIN4llvm11GlobalValue15ThreadLocalModeE",
   "size" : 4,
   "source_file" : "external/llvm/include/llvm/IR/GlobalValue.h",
   "underlying_type" : "_ZTIj"
  },
  {
   "alignment" : 4,
   "enum_fields" :
   [
    {
     "enum_field_value" : 0,
     "name" : "llvm::GlobalValue::DefaultVisibility"
    },
    {
     "enum_field_value" : 1,
     "name" : "llvm::GlobalValue::HiddenVisibility"
    },
    {
     "enum_field_value" : 2,
     "name" : "llvm::GlobalValue::ProtectedVisibility"
    }
   ],
   "linker_set_key" : "_ZTIN4llvm11GlobalValue15VisibilityTypesE",
   "name" : "llvm::GlobalValue::VisibilityTypes",
   "referenced_type" : "_ZTIN4llvm11GlobalValue15VisibilityTypesE",
   "self_type" : "_ZTIN4llvm11GlobalValue15VisibilityTypesE",
   "size" : 4,
   "source_file" : "external/llvm/include/llvm/IR/GlobalValue.h",
   "underlying_type" : "_ZTIj"
  },
  {
   "alignment" : 4,
   "enum_fields" :
   [
    {
     "enum_field_value" : 0,
     "name" : "llvm::GlobalValue::DefaultStorageClass"
    },
    {
     "enum_field_value" : 1,
     "name" : "llvm::GlobalValue::DLLImportStorageClass"
    },
    {
     "enum_field_value" : 2,
     "name" : "llvm::GlobalValue::DLLExportStorageClass"
    }
   ],
   "linker_set_key" : "_ZTIN4llvm11GlobalValue20DLLStorageClassTypesE",
   "name" : "llvm::GlobalValue::DLLStorageClassTypes",
   "referenced_type" : "_ZTIN4llvm11GlobalValue20DLLStorageClassTypesE",
   "self_type" : "_ZTIN4llvm11GlobalValue20DLLStorageClassTypesE",
   "size" : 4,
   "source_file" : "external/llvm/include/llvm/IR/GlobalValue.h",
   "underlying_type" : "_ZTIj"
  },
  {
   "alignment" : 4,
   "enum_fields" :
   [
    {
     "enum_field_value" : 49,
     "name" : "llvm::Instruction::FuncletPadOpsBegin"
    },
    {
     "enum_field_value" : 49,
     "name" : "llvm::Instruction::CleanupPad"
    },
    {
     "enum_field_value" : 50,
     "name" : "llvm::Instruction::CatchPad"
    },
    {
     "enum_field_value" : 51,
     "name" : "llvm::Instruction::FuncletPadOpsEnd"
    }
   ],
   "linker_set_key" : "_ZTIN4llvm11Instruction13FuncletPadOpsE",
   "name" : "llvm::Instruction::FuncletPadOps",
   "referenced_type" : "_ZTIN4llvm11Instruction13FuncletPadOpsE",
   "self_type" : "_ZTIN4llvm11Instruction13FuncletPadOpsE",
   "size" : 4,
   "source_file" : "external/llvm/include/llvm/IR/Instruction.h",
   "underlying_type" : "_ZTIj"
  },
  {
   "access" : "private",
   "alignment" : 4,
   "enum_fields" :
   [
    {
     "enum_field_value" : 32768,
     "name" : "llvm::Instruction::HasMetadataBit"
    }
   ],
   "linker_set_key" : "_ZTIN4llvm11Instruction15$HasMetadataBitE",
   "name" : "llvm::Instruction::(anonymous enum at external/llvm/include/llvm/IR/Instruction.h:44:3)",
   "referenced_type" : "_ZTIN4llvm11Instruction15$HasMetadataBitE",
   "self_type" : "_ZTIN4llvm11Instruction15$HasMetadataBitE",
   "size" : 4,
   "source_file" : "external/llvm/include/llvm/IR/Instruction.h",
   "underlying_type" : "_ZTIj"
  },
  {
   "alignment" : 4,
   "enum_fields" :
   [
    {
     "enum_field_value" : 1,
     "name" : "llvm::Instruction::CompareIgnoringAlignment"
    },
    {
     "enum_field_value" : 2,
     "name" : "llvm::Instruction::CompareUsingScalarTypes"
    }
   ],
   "linker_set_key" : "_ZTIN4llvm11Instruction25OperationEquivalenceFlagsE",
   "name" : "llvm::Instruction::OperationEquivalenceFlags",
   "referenced_type" : "_ZTIN4llvm11Instruction25OperationEquivalenceFlagsE",
   "self_type" : "_ZTIN4llvm11Instruction25OperationEquivalenceFlagsE",
   "size" : 4,
   "source_file" : "external/llvm/include/llvm/IR/Instruction.h",
   "underlying_type" : "_ZTIj"
  },
  {
   "alignment" : 4,
   "enum_fields" :
   [
    {
     "enum_field_value" : 36,
     "name" : "llvm::Instruction::CastOpsBegin"
    },
    {
     "enum_field_value" : 36,
     "name" : "llvm::Instruction::Trunc"
    },
    {
     "enum_field_value" : 37,
     "name" : "llvm::Instruction::ZExt"
    },
    {
     "enum_field_value" : 38,
     "name" : "llvm::Instruction::SExt"
    },
    {
     "enum_field_value" : 39,
     "name" : "llvm::Instruction::FPToUI"
    },
    {
     "enum_field_value" : 40,
     "name" : "llvm::Instruction::FPToSI"
    },
    {
     "enum_field_value" : 41,
     "name" : "llvm::Instruction::UIToFP"
    },
    {
     "enum_field_value" : 42,
     "name" : "llvm::Instruction::SIToFP"
    },
    {
     "enum_field_value" : 43,
     "name" : "llvm::Instruction::FPTrunc"
    },
    {
     "enum_field_value" : 44,
     "name" : "llvm::Instruction::FPExt"
    },
    {
     "enum_field_value" : 45,
     "name" : "llvm::Instruction::PtrToInt"
    },
    {
     "enum_field_value" : 46,
     "name" : "llvm::Instruction::IntToPtr"
    },
    {
     "enum_field_value" : 47,
     "name" : "llvm::Instruction::BitCast"
    },
    {
     "enum_field_value" : 48,
     "name" : "llvm::Instruction::AddrSpaceCast"
    },
    {
     "enum_field_value" : 49,
     "name" : "llvm::Instruction::CastOpsEnd"
    }
   ],
   "linker_set_key" : "_ZTIN4llvm11Instruction7CastOpsE",
   "name" : "llvm::Instruction::CastOps",
   "referenced_type" : "_ZTIN4llvm11Instruction7CastOpsE",
   "self_type" : "_ZTIN4llvm11Instruction7CastOpsE",
   "size" : 4,
   "source_file" : "external/llvm/include/llvm/IR/Instruction.h",
   "underlying_type" : "_ZTIj"
  },
  {
   "alignment" : 4,
   "enum_fields" :
   [
    {
     "enum_field_value" : 1,
     "name" : "llvm::Instruction::TermOpsBegin"
    },
    {
     "enum_field_value" : 1,
     "name" : "llvm::Instruction::Ret"
    },
    {
     "enum_field_value" : 2,
     "name" : "llvm::Instruction::Br"
    },
    {
     "enum_field_value" : 3,
     "name" : "llvm::Instruction::Switch"
    },
    {
     "enum_field_value" : 4,
     "name" : "llvm::Instruction::IndirectBr"
    },
    {
     "enum_field_value" : 5,
     "name" : "llvm::Instruction::Invoke"
    },
    {
     "enum_field_value" : 6,
     "name" : "llvm::Instruction::Resume"
    },
    {
     "enum_field_value" : 7,
     "name" : "llvm::Instruction::Unreachable"
    },
    {
     "enum_field_value" : 8,
     "name" : "llvm::Instruction::CleanupRet"
    },
    {
     "enum_field_value" : 9,
     "name" : "llvm::Instruction::CatchRet"
    },
    {
     "enum_field_value" : 10,
     "name" : "llvm::Instruction::CatchSwitch"
    },
    {
     "enum_field_value" : 11,
     "name" : "llvm::Instruction::TermOpsEnd"
    }
   ],
   "linker_set_key" : "_ZTIN4llvm11Instruction7TermOpsE",
   "name" : "llvm::Instruction::TermOps",
   "referenced_type" : "_ZTIN4llvm11Instruction7TermOpsE",
   "self_type" : "_ZTIN4llvm11Instruction7TermOpsE",
   "size" : 4,
   "source_file" : "external/llvm/include/llvm/IR/Instruction.h",
   "underlying_type" : "_ZTIj"
  },
  {
   "alignment" : 4,
   "enum_fields" :
   [
    {
     "enum_field_value" : 51,
     "name" : "llvm::Instruction::OtherOpsBegin"
    },
    {
     "enum_field_value" : 51,
     "name" : "llvm::Instruction::ICmp"
    },
    {
     "enum_field_value" : 52,
     "name" : "llvm::Instruction::FCmp"
    },
    {
     "enum_field_value" : 53,
     "name" : "llvm::Instruction::PHI"
    },
    {
     "enum_field_value" : 54,
     "name" : "llvm::Instruction::Call"
    },
    {
     "enum_field_value" : 55,
     "name" : "llvm::Instruction::Select"
    },
    {
     "enum_field_value" : 56,
     "name" : "llvm::Instruction::UserOp1"
    },
    {
     "enum_field_value" : 57,
     "name" : "llvm::Instruction::UserOp2"
    },
    {
     "enum_field_value" : 58,
     "name" : "llvm::Instruction::VAArg"
    },
    {
     "enum_field_value" : 59,
     "name" : "llvm::Instruction::ExtractElement"
    },
    {
     "enum_field_value" : 60,
     "name" : "llvm::Instruction::InsertElement"
    },
    {
     "enum_field_value" : 61,
     "name" : "llvm::Instruction::ShuffleVector"
    },
    {
     "enum_field_value" : 62,
     "name" : "llvm::Instruction::ExtractValue"
    },
    {
     "enum_field_value" : 63,
     "name" : "llvm::Instruction::InsertValue"
    },
    {
     "enum_field_value" : 64,
     "name" : "llvm::Instruction::LandingPad"
    },
    {
     "enum_field_value" : 65,
     "name" : "llvm::Instruction::OtherOpsEnd"
    }
   ],
   "linker_set_key" : "_ZTIN4llvm11Instruction8OtherOpsE",
   "name" : "llvm::Instruction::OtherOps",
   "referenced_type" : "_ZTIN4llvm11Instruction8OtherOpsE",
   "self_type" : "_ZTIN4llvm11Instruction8OtherOpsE",
   "size" : 4,
   "source_file" : "external/llvm/include/llvm/IR/Instruction.h",
   "underlying_type" : "_ZTIj"
  },
  {
   "alignment" : 4,
   "enum_fields" :
   [
    {
     "enum_field_value" : 11,
     "name" : "llvm::Instruction::BinaryOpsBegin"
    },
    {
     "enum_field_value" : 11,
     "name" : "llvm::Instruction::Add"
    },
    {
     "enum_field_value" : 12,
     "name" : "llvm::Instruction::FAdd"
    },
    {
     "enum_field_value" : 13,
     "name" : "llvm::Instruction::Sub"
    },
    {
     "enum_field_value" : 14,
     "name" : "llvm::Instruction::FSub"
    },
    {
     "enum_field_value" : 15,
     "name" : "llvm::Instruction::Mul"
    },
    {
     "enum_field_value" : 16,
     "name" : "llvm::Instruction::FMul"
    },
    {
     "enum_field_value" : 17,
     "name" : "llvm::Instruction::UDiv"
    },
    {
     "enum_field_value" : 18,
     "name" : "llvm::Instruction::SDiv"
    },
    {
     "enum_field_value" : 19,
     "name" : "llvm::Instruction::FDiv"
    },
    {
     "enum_field_value" : 20,
     "name" : "llvm::Instruction::URem"
    },
    {
     "enum_field_value" : 21,
     "name" : "llvm::Instruction::SRem"
    },
    {
     "enum_field_value" : 22,
     "name" : "llvm::Instruction::FRem"
    },
    {
     "enum_field_value" : 23,
     "name" : "llvm::Instruction::Shl"
    },
    {
     "enum_field_value" : 24,
     "name" : "llvm::Instruction::LShr"
    },
    {
     "enum_field_value" : 25,
     "name" : "llvm::Instruction::AShr"
    },
    {
     "enum_field_value" : 26,
     "name" : "llvm::Instruction::And"
    },
    {
     "enum_field_value" : 27,
     "name" : "llvm::Instruction::Or"
    },
    {
     "enum_field_value" : 28,
     "name" : "llvm::Instruction::Xor"
    },
    {
     "enum_field_value" : 29,
     "name" : "llvm::Instruction::BinaryOpsEnd"
    }
   ],
   "linker_set_key" : "_ZTIN4llvm11Instruction9BinaryOpsE",
   "name" : "llvm::Instruction::BinaryOps",
   "referenced_type" : "_ZTIN4llvm11Instruction9BinaryOpsE",
   "self_type" : "_ZTIN4llvm11Instruction9BinaryOpsE",
   "size" : 4,
   "source_file" : "external/llvm/include/llvm/IR/Instruction.h",
   "underlying_type" : "_ZTIj"
  },
  {
   "alignment" : 4,
   "enum_fields" :
   [
    {
     "enum_field_value" : 29,
     "name" : "llvm::Instruction::MemoryOpsBegin"
    },
    {
     "enum_field_value" : 29,
     "name" : "llvm::Instruction::Alloca"
    },
    {
     "enum_field_value" : 30,
     "name" : "llvm::Instruction::Load"
    },
    {
     "enum_field_value" : 31,
     "name" : "llvm::Instruction::Store"
    },
    {
     "enum_field_value" : 32,
     "name" : "llvm::Instruction::GetElementPtr"
    },
    {
     "enum_field_value" : 33,
     "name" : "llvm::Instruction::Fence"
    },
    {
     "enum_field_value" : 34,
     "name" : "llvm::Instruction::AtomicCmpXchg"
    },
    {
     "enum_field_value" : 35,
     "name" : "llvm::Instruction::AtomicRMW"
    },
    {
     "enum_field_value" : 36,
     "name" : "llvm::Instruction::MemoryOpsEnd"
    }
   ],
   "linker_set_key" : "_ZTIN4llvm11Instruction9MemoryOpsE",
   "name" : "llvm::Instruction::MemoryOps",
   "referenced_type" : "_ZTIN4llvm11Instruction9MemoryOpsE",
   "self_type" : "_ZTIN4llvm11Instruction9MemoryOpsE",
   "size" : 4,
   "source_file" : "external/llvm/include/llvm/IR/Instruction.h",
   "underlying_type" : "_ZTIj"
  },
  {
   "alignment" : 4,
   "enum_fields" :
   [
    {
     "enum_field_value" : 1,
     "name" : "llvm::IntegerType::MIN_INT_BITS"
    },
    {
     "enum_field_value" : 8388607,
     "name" : "llvm::IntegerType::MAX_INT_BITS"
    }
   ],
   "linker_set_key" : "_ZTIN4llvm11IntegerType13$MAX_INT_BITSE",
   "name" : "llvm::IntegerType::(anonymous enum at external/llvm/include/llvm/IR/DerivedTypes.h:47:3)",
   "referenced_type" : "_ZTIN4llvm11IntegerType13$MAX_INT_BITSE",
   "self_type" : "_ZTIN4llvm11IntegerType13$MAX_INT_BITSE",
   "size" : 4,
   "source_file" : "external/llvm/include/llvm/IR/DerivedTypes.h",
   "underlying_type" : "_ZTIj"
  },
  {
   "alignment" : 4,
   "enum_fields" :
   [
    {
     "enum_field_value" : 0,
     "name" : "llvm::LLVMContext::MD_dbg"
    },
    {
     "enum_field_value" : 1,
     "name" : "llvm::LLVMContext::MD_tbaa"
    },
    {
     "enum_field_value" : 2,
     "name" : "llvm::LLVMContext::MD_prof"
    },
    {
     "enum_field_value" : 3,
     "name" : "llvm::LLVMContext::MD_fpmath"
    },
    {
     "enum_field_value" : 4,
     "name" : "llvm::LLVMContext::MD_range"
    },
    {
     "enum_field_value" : 5,
     "name" : "llvm::LLVMContext::MD_tbaa_struct"
    },
    {
     "enum_field_value" : 6,
     "name" : "llvm::LLVMContext::MD_invariant_load"
    },
    {
     "enum_field_value" : 7,
     "name" : "llvm::LLVMContext::MD_alias_scope"
    },
    {
     "enum_field_value" : 8,
     "name" : "llvm::LLVMContext::MD_noalias"
    },
    {
     "enum_field_value" : 9,
     "name" : "llvm::LLVMContext::MD_nontemporal"
    },
    {
     "enum_field_value" : 10,
     "name" : "llvm::LLVMContext::MD_mem_parallel_loop_access"
    },
    {
     "enum_field_value" : 11,
     "name" : "llvm::LLVMContext::MD_nonnull"
    },
    {
     "enum_field_value" : 12,
     "name" : "llvm::LLVMContext::MD_dereferenceable"
    },
    {
     "enum_field_value" : 13,
     "name" : "llvm::LLVMContext::MD_dereferenceable_or_null"
    },
    {
     "enum_field_value" : 14,
     "name" : "llvm::LLVMContext::MD_make_implicit"
    },
    {
     "enum_field_value" : 15,
     "name" : "llvm::LLVMContext::MD_unpredictable"
    },
    {
     "enum_field_value" : 16,
     "name" : "llvm::LLVMContext::MD_invariant_group"
    },
    {
     "enum_field_value" : 17,
     "name" : "llvm::LLVMContext::MD_align"
    },
    {
     "enum_field_value" : 18,
     "name" : "llvm::LLVMContext::MD_loop"
    },
    {
     "enum_field_value" : 19,
     "name" : "llvm::LLVMContext::MD_type"
    }
   ],
   "linker_set_key" : "_ZTIN4llvm11LLVMContext15$MD_alias_scopeE",
   "name" : "llvm::LLVMContext::(anonymous enum at external/llvm/include/llvm/IR/LLVMContext.h:51:3)",
   "referenced_type" : "_ZTIN4llvm11LLVMContext15$MD_alias_scopeE",
   "self_type" : "_ZTIN4llvm11LLVMContext15$MD_alias_scopeE",
   "size" : 4,
   "source_file" : "external/llvm/include/llvm/IR/LLVMContext.h",
   "underlying_type" : "_ZTIj"
  },
  {
   "alignment" : 4,
   "enum_fields" :
   [
    {
     "enum_field_value" : 0,
     "name" : "llvm::LLVMContext::OB_deopt"
    },
    {
     "enum_field_value" : 1,
     "name" : "llvm::LLVMContext::OB_funclet"
    },
    {
     "enum_field_value" : 2,
     "name" : "llvm::LLVMContext::OB_gc_transition"
    }
   ],
   "linker_set_key" : "_ZTIN4llvm11LLVMContext9$OB_deoptE",
   "name" : "llvm::LLVMContext::(anonymous enum at external/llvm/include/llvm/IR/LLVMContext.h:78:3)",
   "referenced_type" : "_ZTIN4llvm11LLVMContext9$OB_deoptE",
   "self_type" : "_ZTIN4llvm11LLVMContext9$OB_deoptE",
   "size" : 4,
   "source_file" : "external/llvm/include/llvm/IR/LLVMContext.h",
   "underlying_type" : "_ZTIj"
  },
  {
   "access" : "private",
   "alignment" : 4,
   "enum_fields" :
   [
    {
     "enum_field_value" : 4,
     "name" : "llvm::SmallPtrSet<llvm::cl::SubCommand *, 4>::SmallSizePowTwo"
    }
   ],
   "linker_set_key" : "_ZTIN4llvm11SmallPtrSetIPNS_2cl10SubCommandELj4EE16$SmallSizePowTwoE",
   "name" : "llvm::SmallPtrSet<SubCommand *, 4>::(anonymous enum at external/llvm/include/llvm/ADT/SmallPtrSet.h:362:3)",
   "referenced_type" : "_ZTIN4llvm11SmallPtrSetIPNS_2cl10SubCommandELj4EE16$SmallSizePowTwoE",
   "self_type" : "_ZTIN4llvm11SmallPtrSetIPNS_2cl10SubCommandELj4EE16$SmallSizePowTwoE",
   "size" : 4,
   "source_file" : "external/llvm/include/llvm/ADT/SmallPtrSet.h",
   "underlying_type" : "_ZTIj"
  },
  {
   "alignment" : 4,
   "enum_fields" :
   [
    {
     "enum_field_value" : 0,
     "name" : "llvm::AttributeSet::ReturnIndex"
    },
    {
     "enum_field_value" : -1,
     "name" : "llvm::AttributeSet::FunctionIndex"
    }
   ],
   "linker_set_key" : "_ZTIN4llvm12AttributeSet9AttrIndexE",
   "name" : "llvm::AttributeSet::AttrIndex",
   "referenced_type" : "_ZTIN4llvm12AttributeSet9AttrIndexE",
   "self_type" : "_ZTIN4llvm12AttributeSet9AttrIndexE",
   "size" : 4,
   "source_file" : "external/llvm/include/llvm/IR/Attributes.h",
   "underlying_type" : "_ZTIj"
  },
  {
   "access" : "protected",
   "alignment" : 4,
   "enum_fields" :
   [
    {
     "enum_field_value" : 4,
     "name" : "llvm::GlobalObject::LastAlignmentBit"
    },
    {
     "enum_field_value" : 5,
     "name" : "llvm::GlobalObject::HasMetadataHashEntryBit"
    },
    {
     "enum_field_value" : 6,
     "name" : "llvm::GlobalObject::GlobalObjectBits"
    }
   ],
   "linker_set_key" : "_ZTIN4llvm12GlobalObject17$GlobalObjectBitsE",
   "name" : "llvm::GlobalObject::(anonymous enum at external/llvm/include/llvm/IR/GlobalObject.h:41:3)",
   "referenced_type" : "_ZTIN4llvm12GlobalObject17$GlobalObjectBitsE",
   "self_type" : "_ZTIN4llvm12GlobalObject17$GlobalObjectBitsE",
   "size" : 4,
   "source_file" : "external/llvm/include/llvm/IR/GlobalObject.h",
   "underlying_type" : "_ZTIj"
  },
  {
   "alignment" : 4,
   "enum_fields" :
   [
    {
     "enum_field_value" : 0,
     "name" : "llvm::ZB_Undefined"
    },
    {
     "enum_field_value" : 1,
     "name" : "llvm::ZB_Max"
    },
    {
     "enum_field_value" : 2,
     "name" : "llvm::ZB_Width"
    }
   ],
   "linker_set_key" : "_ZTIN4llvm12ZeroBehaviorE",
   "name" : "llvm::ZeroBehavior",
   "referenced_type" : "_ZTIN4llvm12ZeroBehaviorE",
   "self_type" : "_ZTIN4llvm12ZeroBehaviorE",
   "size" : 4,
   "source_file" : "external/llvm/include/llvm/Support/MathExtras.h",
   "underlying_type" : "_ZTIj"
  },
  {
   "alignment" : 4,
   "enum_fields" :
   [
    {
     "enum_field_value" : 0,
     "name" : "llvm::lfExactlyZero"
    },
    {
     "enum_field_value" : 1,
     "name" : "llvm::lfLessThanHalf"
    },
    {
     "enum_field_value" : 2,
     "name" : "llvm::lfExactlyHalf"
    },
    {
     "enum_field_value" : 3,
     "name" : "llvm::lfMoreThanHalf"
    }
   ],
   "linker_set_key" : "_ZTIN4llvm12lostFractionE",
   "name" : "llvm::lostFraction",
   "referenced_type" : "_ZTIN4llvm12lostFractionE",
   "self_type" : "_ZTIN4llvm12lostFractionE",
   "size" : 4,
   "source_file" : "external/llvm/include/llvm/ADT/APFloat.h",
   "underlying_type" : "_ZTIj"
  },
  {
   "alignment" : 4,
   "enum_fields" :
   [
    {
     "enum_field_value" : 0,
     "name" : "llvm::INVALID_ALIGN"
    },
    {
     "enum_field_value" : 105,
     "name" : "llvm::INTEGER_ALIGN"
    },
    {
     "enum_field_value" : 118,
     "name" : "llvm::VECTOR_ALIGN"
    },
    {
     "enum_field_value" : 102,
     "name" : "llvm::FLOAT_ALIGN"
    },
    {
     "enum_field_value" : 97,
     "name" : "llvm::AGGREGATE_ALIGN"
    }
   ],
   "linker_set_key" : "_ZTIN4llvm13AlignTypeEnumE",
   "name" : "llvm::AlignTypeEnum",
   "referenced_type" : "_ZTIN4llvm13AlignTypeEnumE",
   "self_type" : "_ZTIN4llvm13AlignTypeEnumE",
   "size" : 4,
   "source_file" : "external/llvm/include/llvm/IR/DataLayout.h",
   "underlying_type" : "_ZTIj"
  },
  {
   "alignment" : 4,
   "enum_fields" :
   [
    {
     "enum_field_value" : 1,
     "name" : "llvm::FastMathFlags::UnsafeAlgebra"
    },
    {
     "enum_field_value" : 2,
     "name" : "llvm::FastMathFlags::NoNaNs"
    },
    {
     "enum_field_value" : 4,
     "name" : "llvm::FastMathFlags::NoInfs"
    },
    {
     "enum_field_value" : 8,
     "name" : "llvm::FastMathFlags::NoSignedZeros"
    },
    {
     "enum_field_value" : 16,
     "name" : "llvm::FastMathFlags::AllowReciprocal"
    }
   ],
   "linker_set_key" : "_ZTIN4llvm13FastMathFlags16$AllowReciprocalE",
   "name" : "llvm::FastMathFlags::(anonymous enum at external/llvm/include/llvm/IR/Operator.h:171:3)",
   "referenced_type" : "_ZTIN4llvm13FastMathFlags16$AllowReciprocalE",
   "self_type" : "_ZTIN4llvm13FastMathFlags16$AllowReciprocalE",
   "size" : 4,
   "source_file" : "external/llvm/include/llvm/IR/Operator.h",
   "underlying_type" : "_ZTIj"
  },
  {
   "alignment" : 4,
   "enum_fields" :
   [
    {
     "enum_field_value" : 3,
     "name" : "llvm::DEBUG_METADATA_VERSION"
    }
   ],
   "linker_set_key" : "_ZTIN4llvm13LLVMConstantsE",
   "name" : "llvm::LLVMConstants",
   "referenced_type" : "_ZTIN4llvm13LLVMConstantsE",
   "self_type" : "_ZTIN4llvm13LLVMConstantsE",
   "size" : 4,
   "source_file" : "external/llvm/include/llvm/IR/Metadata.h",
   "underlying_type" : "_ZTIj"
  },
  {
   "alignment" : 4,
   "enum_fields" :
   [
    {
     "enum_field_value" : 0,
     "name" : "llvm::PMT_Unknown"
    },
    {
     "enum_field_value" : 1,
     "name" : "llvm::PMT_ModulePassManager"
    },
    {
     "enum_field_value" : 2,
     "name" : "llvm::PMT_CallGraphPassManager"
    },
    {
     "enum_field_value" : 3,
     "name" : "llvm::PMT_FunctionPassManager"
    },
    {
     "enum_field_value" : 4,
     "name" : "llvm::PMT_LoopPassManager"
    },
    {
     "enum_field_value" : 5,
     "name" : "llvm::PMT_RegionPassManager"
    },
    {
     "enum_field_value" : 6,
     "name" : "llvm::PMT_BasicBlockPassManager"
    },
    {
     "enum_field_value" : 7,
     "name" : "llvm::PMT_Last"
    }
   ],
   "linker_set_key" : "_ZTIN4llvm15PassManagerTypeE",
   "name" : "llvm::PassManagerType",
   "referenced_type" : "_ZTIN4llvm15PassManagerTypeE",
   "self_type" : "_ZTIN4llvm15PassManagerTypeE",
   "size" : 4,
   "source_file" : "external/llvm/include/llvm/Pass.h",
   "underlying_type" : "_ZTIj"
  },
  {
   "alignment" : 4,
   "enum_fields" :
   [
    {
     "enum_field_value" : -4,
     "name" : "llvm::PointerIntPairInfo<llvm::Use **, 2, llvm::PointerLikeTypeTraits<llvm::Use **>>::PointerBitMask"
    },
    {
     "enum_field_value" : 0,
     "name" : "llvm::PointerIntPairInfo<llvm::Use **, 2, llvm::PointerLikeTypeTraits<llvm::Use **>>::IntShift"
    },
    {
     "enum_field_value" : 3,
     "name" : "llvm::PointerIntPairInfo<llvm::Use **, 2, llvm::PointerLikeTypeTraits<llvm::Use **>>::IntMask"
    },
    {
     "enum_field_value" : 3,
     "name" : "llvm::PointerIntPairInfo<llvm::Use **, 2, llvm::PointerLikeTypeTraits<llvm::Use **>>::ShiftedIntMask"
    }
   ],
   "linker_set_key" : "_ZTIN4llvm18PointerIntPairInfoIPPNS_3UseELj2ENS_21PointerLikeTypeTraitsIS3_EEE8$IntMaskE",
   "name" : "llvm::PointerIntPairInfo<Use **, 2, PointerLikeTypeTraits<Use **>>::(anonymous enum at external/llvm/include/llvm/ADT/PointerIntPair.h:131:3)",
   "referenced_type" : "_ZTIN4llvm18PointerIntPairInfoIPPNS_3UseELj2ENS_21PointerLikeTypeTraitsIS3_EEE8$IntMaskE",
   "self_type" : "_ZTIN4llvm18PointerIntPairInfoIPPNS_3UseELj2ENS_21PointerLikeTypeTraitsIS3_EEE8$IntMaskE",
   "size" : 4,
   "source_file" : "external/llvm/include/llvm/ADT/PointerIntPair.h",
   "underlying_type" : "_ZTIj"
  },
  {
   "alignment" : 4,
   "enum_fields" :
   [
    {
     "enum_field_value" : -4,
     "name" : "llvm::PointerIntPairInfo<void *, 1, llvm::PointerUnionUIntTraits<llvm::LLVMContext *, llvm::ReplaceableMetadataImpl *>>::PointerBitMask"
    },
    {
     "enum_field_value" : 1,
     "name" : "llvm::PointerIntPairInfo<void *, 1, llvm::PointerUnionUIntTraits<llvm::LLVMContext *, llvm::ReplaceableMetadataImpl *>>::IntShift"
    },
    {
     "enum_field_value" : 1,
     "name" : "llvm::PointerIntPairInfo<void *, 1, llvm::PointerUnionUIntTraits<llvm::LLVMContext *, llvm::ReplaceableMetadataImpl *>>::IntMask"
    },
    {
     "enum_field_value" : 2,
     "name" : "llvm::PointerIntPairInfo<void *, 1, llvm::PointerUnionUIntTraits<llvm::LLVMContext *, llvm::ReplaceableMetadataImpl *>>::ShiftedIntMask"
    }
   ],
   "linker_set_key" : "_ZTIN4llvm18PointerIntPairInfoIPvLj1ENS_22PointerUnionUIntTraitsIPNS_11LLVMContextEPNS_23ReplaceableMetadataImplEEEE8$IntMaskE",
   "name" : "llvm::PointerIntPairInfo<void *, 1, PointerUnionUIntTraits<LLVMContext *, ReplaceableMetadataImpl *>>::(anonymous enum at external/llvm/include/llvm/ADT/PointerIntPair.h:131:3)",
   "referenced_type" : "_ZTIN4llvm18PointerIntPairInfoIPvLj1ENS_22PointerUnionUIntTraitsIPNS_11LLVMContextEPNS_23ReplaceableMetadataImplEEEE8$IntMaskE",
   "self_type" : "_ZTIN4llvm18PointerIntPairInfoIPvLj1ENS_22PointerUnionUIntTraitsIPNS_11LLVMContextEPNS_23ReplaceableMetadataImplEEEE8$IntMaskE",
   "size" : 4,
   "source_file" : "external/llvm/include/llvm/ADT/PointerIntPair.h",
   "underlying_type" : "_ZTIj"
  },
  {
   "alignment" : 4,
   "enum_fields" :
   [
    {
     "enum_field_value" : -4,
     "name" : "llvm::PointerIntPairInfo<void *, 1, llvm::PointerUnionUIntTraits<llvm::MetadataAsValue *, llvm::Metadata *>>::PointerBitMask"
    },
    {
     "enum_field_value" : 1,
     "name" : "llvm::PointerIntPairInfo<void *, 1, llvm::PointerUnionUIntTraits<llvm::MetadataAsValue *, llvm::Metadata *>>::IntShift"
    },
    {
     "enum_field_value" : 1,
     "name" : "llvm::PointerIntPairInfo<void *, 1, llvm::PointerUnionUIntTraits<llvm::MetadataAsValue *, llvm::Metadata *>>::IntMask"
    },
    {
     "enum_field_value" : 2,
     "name" : "llvm::PointerIntPairInfo<void *, 1, llvm::PointerUnionUIntTraits<llvm::MetadataAsValue *, llvm::Metadata *>>::ShiftedIntMask"
    }
   ],
   "linker_set_key" : "_ZTIN4llvm18PointerIntPairInfoIPvLj1ENS_22PointerUnionUIntTraitsIPNS_15MetadataAsValueEPNS_8MetadataEEEE8$IntMaskE",
   "name" : "llvm::PointerIntPairInfo<void *, 1, PointerUnionUIntTraits<MetadataAsValue *, Metadata *>>::(anonymous enum at external/llvm/include/llvm/ADT/PointerIntPair.h:131:3)",
   "referenced_type" : "_ZTIN4llvm18PointerIntPairInfoIPvLj1ENS_22PointerUnionUIntTraitsIPNS_15MetadataAsValueEPNS_8MetadataEEEE8$IntMaskE",
   "self_type" : "_ZTIN4llvm18PointerIntPairInfoIPvLj1ENS_22PointerUnionUIntTraitsIPNS_15MetadataAsValueEPNS_8MetadataEEEE8$IntMaskE",
   "size" : 4,
   "source_file" : "external/llvm/include/llvm/ADT/PointerIntPair.h",
   "underlying_type" : "_ZTIj"
  },
  {
   "alignment" : 4,
   "enum_fields" :
   [
    {
     "enum_field_value" : 4,
     "name" : "llvm::RoundUpToPowerOfTwo<4>::Val"
    }
   ],
   "linker_set_key" : "_ZTIN4llvm19RoundUpToPowerOfTwoILj4EE4$ValE",
   "name" : "llvm::RoundUpToPowerOfTwo<4>::(anonymous enum at external/llvm/include/llvm/ADT/SmallPtrSet.h:285:3)",
   "referenced_type" : "_ZTIN4llvm19RoundUpToPowerOfTwoILj4EE4$ValE",
   "self_type" : "_ZTIN4llvm19RoundUpToPowerOfTwoILj4EE4$ValE",
   "size" : 4,
   "source_file" : "external/llvm/include/llvm/ADT/SmallPtrSet.h",
   "underlying_type" : "_ZTIj"
  },
  {
   "alignment" : 4,
   "enum_fields" :
   [
    {
     "enum_field_value" : 4,
     "name" : "llvm::RoundUpToPowerOfTwoH<4, true>::Val"
    }
   ],
   "linker_set_key" : "_ZTIN4llvm20RoundUpToPowerOfTwoHILj4ELb1EE4$ValE",
   "name" : "llvm::RoundUpToPowerOfTwoH<4, true>::(anonymous enum at external/llvm/include/llvm/ADT/SmallPtrSet.h:272:3)",
   "referenced_type" : "_ZTIN4llvm20RoundUpToPowerOfTwoHILj4ELb1EE4$ValE",
   "self_type" : "_ZTIN4llvm20RoundUpToPowerOfTwoHILj4ELb1EE4$ValE",
   "size" : 4,
   "source_file" : "external/llvm/include/llvm/ADT/SmallPtrSet.h",
   "underlying_type" : "_ZTIj"
  },
  {
   "access" : "protected",
   "alignment" : 4,
   "enum_fields" :
   [
    {
     "enum_field_value" : 1,
     "name" : "llvm::iterator_facade_base<llvm::User::value_op_iterator, std::__1::random_access_iterator_tag, llvm::Value *, int, llvm::Value *, llvm::Value *>::IsRandomAccess"
    },
    {
     "enum_field_value" : 1,
     "name" : "llvm::iterator_facade_base<llvm::User::value_op_iterator, std::__1::random_access_iterator_tag, llvm::Value *, int, llvm::Value *, llvm::Value *>::IsBidirectional"
    }
   ],
   "linker_set_key" : "_ZTIN4llvm20iterator_facade_baseINS_4User17value_op_iteratorENSt3__126random_access_iterator_tagEPNS_5ValueEiS6_S6_E16$IsBidirectionalE",
   "name" : "llvm::iterator_facade_base<value_op_iterator, random_access_iterator_tag, Value *, int, Value *, Value *>::(anonymous enum at external/llvm/include/llvm/ADT/iterator.h:42:3)",
   "referenced_type" : "_ZTIN4llvm20iterator_facade_baseINS_4User17value_op_iteratorENSt3__126random_access_iterator_tagEPNS_5ValueEiS6_S6_E16$IsBidirectionalE",
   "self_type" : "_ZTIN4llvm20iterator_facade_baseINS_4User17value_op_iteratorENSt3__126random_access_iterator_tagEPNS_5ValueEiS6_S6_E16$IsBidirectionalE",
   "size" : 4,
   "source_file" : "external/llvm/include/llvm/ADT/iterator.h",
   "underlying_type" : "_ZTIj"
  },
  {
   "alignment" : 4,
   "enum_fields" :
   [
    {
     "enum_field_value" : 2,
     "name" : "llvm::PointerLikeTypeTraits<const void *>::NumLowBitsAvailable"
    }
   ],
   "linker_set_key" : "_ZTIN4llvm21PointerLikeTypeTraitsIPKvE20$NumLowBitsAvailableE",
   "name" : "llvm::PointerLikeTypeTraits<const void *>::(anonymous enum at external/llvm/include/llvm/Support/PointerLikeTypeTraits.h:76:3)",
   "referenced_type" : "_ZTIN4llvm21PointerLikeTypeTraitsIPKvE20$NumLowBitsAvailableE",
   "self_type" : "_ZTIN4llvm21PointerLikeTypeTraitsIPKvE20$NumLowBitsAvailableE",
   "size" : 4,
   "source_file" : "external/llvm/include/llvm/Support/PointerLikeTypeTraits.h",
   "underlying_type" : "_ZTIj"
  },
  {
   "alignment" : 4,
   "enum_fields" :
   [
    {
     "enum_field_value" : 2,
     "name" : "llvm::PointerLikeTypeTraits<llvm::Instruction *>::NumLowBitsAvailable"
    }
   ],
   "linker_set_key" : "_ZTIN4llvm21PointerLikeTypeTraitsIPNS_11InstructionEE20$NumLowBitsAvailableE",
   "name" : "llvm::PointerLikeTypeTraits<Instruction *>::(anonymous enum at external/llvm/include/llvm/IR/Instruction.h:565:3)",
   "referenced_type" : "_ZTIN4llvm21PointerLikeTypeTraitsIPNS_11InstructionEE20$NumLowBitsAvailableE",
   "self_type" : "_ZTIN4llvm21PointerLikeTypeTraitsIPNS_11InstructionEE20$NumLowBitsAvailableE",
   "size" : 4,
   "source_file" : "external/llvm/include/llvm/IR/Instruction.h",
   "underlying_type" : "_ZTIj"
  },
  {
   "alignment" : 4,
   "enum_fields" :
   [
    {
     "enum_field_value" : 2,
     "name" : "llvm::PointerLikeTypeTraits<llvm::LLVMContext *>::NumLowBitsAvailable"
    }
   ],
   "linker_set_key" : "_ZTIN4llvm21PointerLikeTypeTraitsIPNS_11LLVMContextEE20$NumLowBitsAvailableE",
   "name" : "llvm::PointerLikeTypeTraits<LLVMContext *>::(anonymous enum at external/llvm/include/llvm/Support/PointerLikeTypeTraits.h:45:3)",
   "referenced_type" : "_ZTIN4llvm21PointerLikeTypeTraitsIPNS_11LLVMContextEE20$NumLowBitsAvailableE",
   "self_type" : "_ZTIN4llvm21PointerLikeTypeTraitsIPNS_11LLVMContextEE20$NumLowBitsAvailableE",
   "size" : 4,
   "source_file" : "external/llvm/include/llvm/Support/PointerLikeTypeTraits.h",
   "underlying_type" : "_ZTIj"
  },
  {
   "alignment" : 4,
   "enum_fields" :
   [
    {
     "enum_field_value" : 2,
     "name" : "llvm::PointerLikeTypeTraits<llvm::MetadataAsValue *>::NumLowBitsAvailable"
    }
   ],
   "linker_set_key" : "_ZTIN4llvm21PointerLikeTypeTraitsIPNS_15MetadataAsValueEE20$NumLowBitsAvailableE",
   "name" : "llvm::PointerLikeTypeTraits<MetadataAsValue *>::(anonymous enum at external/llvm/include/llvm/Support/PointerLikeTypeTraits.h:45:3)",
   "referenced_type" : "_ZTIN4llvm21PointerLikeTypeTraitsIPNS_15MetadataAsValueEE20$NumLowBitsAvailableE",
   "self_type" : "_ZTIN4llvm21PointerLikeTypeTraitsIPNS_15MetadataAsValueEE20$NumLowBitsAvailableE",
   "size" : 4,
   "source_file" : "external/llvm/include/llvm/Support/PointerLikeTypeTraits.h",
   "underlying_type" : "_ZTIj"
  },
  {
   "alignment" : 4,
   "enum_fields" :
   [
    {
     "enum_field_value" : 2,
     "name" : "llvm::PointerLikeTypeTraits<llvm::StringMapEntryBase *>::NumLowBitsAvailable"
    }
   ],
   "linker_set_key" : "_ZTIN4llvm21PointerLikeTypeTraitsIPNS_18StringMapEntryBaseEE20$NumLowBitsAvailableE",
   "name" : "llvm::PointerLikeTypeTraits<StringMapEntryBase *>::(anonymous enum at external/llvm/include/llvm/Support/PointerLikeTypeTraits.h:45:3)",
   "referenced_type" : "_ZTIN4llvm21PointerLikeTypeTraitsIPNS_18StringMapEntryBaseEE20$NumLowBitsAvailableE",
   "self_type" : "_ZTIN4llvm21PointerLikeTypeTraitsIPNS_18StringMapEntryBaseEE20$NumLowBitsAvailableE",
   "size" : 4,
   "source_file" : "external/llvm/include/llvm/Support/PointerLikeTypeTraits.h",
   "underlying_type" : "_ZTIj"
  },
  {
   "alignment" : 4,
   "enum_fields" :
   [
    {
     "enum_field_value" : 3,
     "name" : "llvm::PointerLikeTypeTraits<llvm::ReplaceableMetadataImpl *>::NumLowBitsAvailable"
    }
   ],
   "linker_set_key" : "_ZTIN4llvm21PointerLikeTypeTraitsIPNS_23ReplaceableMetadataImplEE20$NumLowBitsAvailableE",
   "name" : "llvm::PointerLikeTypeTraits<ReplaceableMetadataImpl *>::(anonymous enum at external/llvm/include/llvm/Support/PointerLikeTypeTraits.h:45:3)",
   "referenced_type" : "_ZTIN4llvm21PointerLikeTypeTraitsIPNS_23ReplaceableMetadataImplEE20$NumLowBitsAvailableE",
   "self_type" : "_ZTIN4llvm21PointerLikeTypeTraitsIPNS_23ReplaceableMetadataImplEE20$NumLowBitsAvailableE",
   "size" : 4,
   "source_file" : "external/llvm/include/llvm/Support/PointerLikeTypeTraits.h",
   "underlying_type" : "_ZTIj"
  },
  {
   "alignment" : 4,
   "enum_fields" :
   [
    {
     "enum_field_value" : 2,
     "name" : "llvm::PointerLikeTypeTraits<llvm::cl::SubCommand *>::NumLowBitsAvailable"
    }
   ],
   "linker_set_key" : "_ZTIN4llvm21PointerLikeTypeTraitsIPNS_2cl10SubCommandEE20$NumLowBitsAvailableE",
   "name" : "llvm::PointerLikeTypeTraits<SubCommand *>::(anonymous enum at external/llvm/include/llvm/Support/PointerLikeTypeTraits.h:45:3)",
   "referenced_type" : "_ZTIN4llvm21PointerLikeTypeTraitsIPNS_2cl10SubCommandEE20$NumLowBitsAvailableE",
   "self_type" : "_ZTIN4llvm21PointerLikeTypeTraitsIPNS_2cl10SubCommandEE20$NumLowBitsAvailableE",
   "size" : 4,
   "source_file" : "external/llvm/include/llvm/Support/PointerLikeTypeTraits.h",
   "underlying_type" : "_ZTIj"
  },
  {
   "alignment" : 4,
   "enum_fields" :
   [
    {
     "enum_field_value" : 2,
     "name" : "llvm::PointerLikeTypeTraits<llvm::Value *>::NumLowBitsAvailable"
    }
   ],
   "linker_set_key" : "_ZTIN4llvm21PointerLikeTypeTraitsIPNS_5ValueEE20$NumLowBitsAvailableE",
   "name" : "llvm::PointerLikeTypeTraits<Value *>::(anonymous enum at external/llvm/include/llvm/IR/Value.h:795:3)",
   "referenced_type" : "_ZTIN4llvm21PointerLikeTypeTraitsIPNS_5ValueEE20$NumLowBitsAvailableE",
   "self_type" : "_ZTIN4llvm21PointerLikeTypeTraitsIPNS_5ValueEE20$NumLowBitsAvailableE",
   "size" : 4,
   "source_file" : "external/llvm/include/llvm/IR/Value.h",
   "underlying_type" : "_ZTIj"
  },
  {
   "alignment" : 4,
   "enum_fields" :
   [
    {
     "enum_field_value" : 2,
     "name" : "llvm::PointerLikeTypeTraits<llvm::MDNode *>::NumLowBitsAvailable"
    }
   ],
   "linker_set_key" : "_ZTIN4llvm21PointerLikeTypeTraitsIPNS_6MDNodeEE20$NumLowBitsAvailableE",
   "name" : "llvm::PointerLikeTypeTraits<MDNode *>::(anonymous enum at external/llvm/include/llvm/Support/PointerLikeTypeTraits.h:45:3)",
   "referenced_type" : "_ZTIN4llvm21PointerLikeTypeTraitsIPNS_6MDNodeEE20$NumLowBitsAvailableE",
   "self_type" : "_ZTIN4llvm21PointerLikeTypeTraitsIPNS_6MDNodeEE20$NumLowBitsAvailableE",
   "size" : 4,
   "source_file" : "external/llvm/include/llvm/Support/PointerLikeTypeTraits.h",
   "underlying_type" : "_ZTIj"
  },
  {
   "alignment" : 4,
   "enum_fields" :
   [
    {
     "enum_field_value" : 2,
     "name" : "llvm::PointerLikeTypeTraits<llvm::Metadata *>::NumLowBitsAvailable"
    }
   ],
   "linker_set_key" : "_ZTIN4llvm21PointerLikeTypeTraitsIPNS_8MetadataEE20$NumLowBitsAvailableE",
   "name" : "llvm::PointerLikeTypeTraits<Metadata *>::(anonymous enum at external/llvm/include/llvm/Support/PointerLikeTypeTraits.h:45:3)",
   "referenced_type" : "_ZTIN4llvm21PointerLikeTypeTraitsIPNS_8MetadataEE20$NumLowBitsAvailableE",
   "self_type" : "_ZTIN4llvm21PointerLikeTypeTraitsIPNS_8MetadataEE20$NumLowBitsAvailableE",
   "size" : 4,
   "source_file" : "external/llvm/include/llvm/Support/PointerLikeTypeTraits.h",
   "underlying_type" : "_ZTIj"
  },
  {
   "alignment" : 4,
   "enum_fields" :
   [
    {
     "enum_field_value" : 2,
     "name" : "llvm::PointerLikeTypeTraits<llvm::Use **>::NumLowBitsAvailable"
    }
   ],
   "linker_set_key" : "_ZTIN4llvm21PointerLikeTypeTraitsIPPNS_3UseEE20$NumLowBitsAvailableE",
   "name" : "llvm::PointerLikeTypeTraits<Use **>::(anonymous enum at external/llvm/include/llvm/IR/Use.h:46:3)",
   "referenced_type" : "_ZTIN4llvm21PointerLikeTypeTraitsIPPNS_3UseEE20$NumLowBitsAvailableE",
   "self_type" : "_ZTIN4llvm21PointerLikeTypeTraitsIPPNS_3UseEE20$NumLowBitsAvailableE",
   "size" : 4,
   "source_file" : "external/llvm/include/llvm/IR/Use.h",
   "underlying_type" : "_ZTIj"
  },
  {
   "alignment" : 4,
   "enum_fields" :
   [
    {
     "enum_field_value" : 2,
     "name" : "llvm::PointerLikeTypeTraits<void *>::NumLowBitsAvailable"
    }
   ],
   "linker_set_key" : "_ZTIN4llvm21PointerLikeTypeTraitsIPvE20$NumLowBitsAvailableE",
   "name" : "llvm::PointerLikeTypeTraits<void *>::(anonymous enum at external/llvm/include/llvm/Support/PointerLikeTypeTraits.h:62:3)",
   "referenced_type" : "_ZTIN4llvm21PointerLikeTypeTraitsIPvE20$NumLowBitsAvailableE",
   "self_type" : "_ZTIN4llvm21PointerLikeTypeTraitsIPvE20$NumLowBitsAvailableE",
   "size" : 4,
   "source_file" : "external/llvm/include/llvm/Support/PointerLikeTypeTraits.h",
   "underlying_type" : "_ZTIj"
  },
  {
   "alignment" : 4,
   "enum_fields" :
   [
    {
     "enum_field_value" : 0,
     "name" : "llvm::PointerLikeTypeTraits<unsigned int>::NumLowBitsAvailable"
    }
   ],
   "linker_set_key" : "_ZTIN4llvm21PointerLikeTypeTraitsIjE20$NumLowBitsAvailableE",
   "name" : "llvm::PointerLikeTypeTraits<uintptr_t>::(anonymous enum at external/llvm/include/llvm/Support/PointerLikeTypeTraits.h:89:3)",
   "referenced_type" : "_ZTIN4llvm21PointerLikeTypeTraitsIjE20$NumLowBitsAvailableE",
   "self_type" : "_ZTIN4llvm21PointerLikeTypeTraitsIjE20$NumLowBitsAvailableE",
   "size" : 4,
   "source_file" : "external/llvm/include/llvm/Support/PointerLikeTypeTraits.h",
   "underlying_type" : "_ZTIj"
  },
  {
   "alignment" : 4,
   "enum_fields" :
   [
    {
     "enum_field_value" : 1,
     "name" : "llvm::PossiblyExactOperator::IsExact"
    }
   ],
   "linker_set_key" : "_ZTIN4llvm21PossiblyExactOperator8$IsExactE",
   "name" : "llvm::PossiblyExactOperator::(anonymous enum at external/llvm/include/llvm/IR/Operator.h:128:3)",
   "referenced_type" : "_ZTIN4llvm21PossiblyExactOperator8$IsExactE",
   "self_type" : "_ZTIN4llvm21PossiblyExactOperator8$IsExactE",
   "size" : 4,
   "source_file" : "external/llvm/include/llvm/IR/Operator.h",
   "underlying_type" : "_ZTIj"
  },
  {
   "alignment" : 4,
   "enum_fields" :
   [
    {
     "enum_field_value" : 2,
     "name" : "llvm::PointerUnionUIntTraits<llvm::LLVMContext *, llvm::ReplaceableMetadataImpl *>::PT1BitsAv"
    },
    {
     "enum_field_value" : 3,
     "name" : "llvm::PointerUnionUIntTraits<llvm::LLVMContext *, llvm::ReplaceableMetadataImpl *>::PT2BitsAv"
    },
    {
     "enum_field_value" : 2,
     "name" : "llvm::PointerUnionUIntTraits<llvm::LLVMContext *, llvm::ReplaceableMetadataImpl *>::NumLowBitsAvailable"
    }
   ],
   "linker_set_key" : "_ZTIN4llvm22PointerUnionUIntTraitsIPNS_11LLVMContextEPNS_23ReplaceableMetadataImplEE20$NumLowBitsAvailableE",
   "name" : "llvm::PointerUnionUIntTraits<LLVMContext *, ReplaceableMetadataImpl *>::(anonymous enum at external/llvm/include/llvm/ADT/PointerUnion.h:60:3)",
   "referenced_type" : "_ZTIN4llvm22PointerUnionUIntTraitsIPNS_11LLVMContextEPNS_23ReplaceableMetadataImplEE20$NumLowBitsAvailableE",
   "self_type" : "_ZTIN4llvm22PointerUnionUIntTraitsIPNS_11LLVMContextEPNS_23ReplaceableMetadataImplEE20$NumLowBitsAvailableE",
   "size" : 4,
   "source_file" : "external/llvm/include/llvm/ADT/PointerUnion.h",
   "underlying_type" : "_ZTIj"
  },
  {
   "alignment" : 4,
   "enum_fields" :
   [
    {
     "enum_field_value" : 2,
     "name" : "llvm::PointerUnionUIntTraits<llvm::MetadataAsValue *, llvm::Metadata *>::PT1BitsAv"
    },
    {
     "enum_field_value" : 2,
     "name" : "llvm::PointerUnionUIntTraits<llvm::MetadataAsValue *, llvm::Metadata *>::PT2BitsAv"
    },
    {
     "enum_field_value" : 2,
     "name" : "llvm::PointerUnionUIntTraits<llvm::MetadataAsValue *, llvm::Metadata *>::NumLowBitsAvailable"
    }
   ],
   "linker_set_key" : "_ZTIN4llvm22PointerUnionUIntTraitsIPNS_15MetadataAsValueEPNS_8MetadataEE20$NumLowBitsAvailableE",
   "name" : "llvm::PointerUnionUIntTraits<MetadataAsValue *, Metadata *>::(anonymous enum at external/llvm/include/llvm/ADT/PointerUnion.h:60:3)",
   "referenced_type" : "_ZTIN4llvm22PointerUnionUIntTraitsIPNS_15MetadataAsValueEPNS_8MetadataEE20$NumLowBitsAvailableE",
   "self_type" : "_ZTIN4llvm22PointerUnionUIntTraitsIPNS_15MetadataAsValueEPNS_8MetadataEE20$NumLowBitsAvailableE",
   "size" : 4,
   "source_file" : "external/llvm/include/llvm/ADT/PointerUnion.h",
   "underlying_type" : "_ZTIj"
  },
  {
   "alignment" : 4,
   "enum_fields" :
   [
    {
     "enum_field_value" : 1,
     "name" : "llvm::OverflowingBinaryOperator::NoUnsignedWrap"
    },
    {
     "enum_field_value" : 2,
     "name" : "llvm::OverflowingBinaryOperator::NoSignedWrap"
    }
   ],
   "linker_set_key" : "_ZTIN4llvm25OverflowingBinaryOperator13$NoSignedWrapE",
   "name" : "llvm::OverflowingBinaryOperator::(anonymous enum at external/llvm/include/llvm/IR/Operator.h:76:3)",
   "referenced_type" : "_ZTIN4llvm25OverflowingBinaryOperator13$NoSignedWrapE",
   "self_type" : "_ZTIN4llvm25OverflowingBinaryOperator13$NoSignedWrapE",
   "size" : 4,
   "source_file" : "external/llvm/include/llvm/IR/Operator.h",
   "underlying_type" : "_ZTIj"
  },
  {
   "alignment" : 4,
   "enum_fields" :
   [
    {
     "enum_field_value" : 0,
     "name" : "llvm::cl::NotHidden"
    },
    {
     "enum_field_value" : 1,
     "name" : "llvm::cl::Hidden"
    },
    {
     "enum_field_value" : 2,
     "name" : "llvm::cl::ReallyHidden"
    }
   ],
   "linker_set_key" : "_ZTIN4llvm2cl12OptionHiddenE",
   "name" : "llvm::cl::OptionHidden",
   "referenced_type" : "_ZTIN4llvm2cl12OptionHiddenE",
   "self_type" : "_ZTIN4llvm2cl12OptionHiddenE",
   "size" : 4,
   "source_file" : "external/llvm/include/llvm/Support/CommandLine.h",
   "underlying_type" : "_ZTIj"
  },
  {
   "alignment" : 4,
   "enum_fields" :
   [
    {
     "enum_field_value" : 1,
     "name" : "llvm::cl::ValueOptional"
    },
    {
     "enum_field_value" : 2,
     "name" : "llvm::cl::ValueRequired"
    },
    {
     "enum_field_value" : 3,
     "name" : "llvm::cl::ValueDisallowed"
    }
   ],
   "linker_set_key" : "_ZTIN4llvm2cl13ValueExpectedE",
   "name" : "llvm::cl::ValueExpected",
   "referenced_type" : "_ZTIN4llvm2cl13ValueExpectedE",
   "self_type" : "_ZTIN4llvm2cl13ValueExpectedE",
   "size" : 4,
   "source_file" : "external/llvm/include/llvm/Support/CommandLine.h",
   "underlying_type" : "_ZTIj"
  },
  {
   "alignment" : 4,
   "enum_fields" :
   [
    {
     "enum_field_value" : 0,
     "name" : "llvm::cl::BOU_UNSET"
    },
    {
     "enum_field_value" : 1,
     "name" : "llvm::cl::BOU_TRUE"
    },
    {
     "enum_field_value" : 2,
     "name" : "llvm::cl::BOU_FALSE"
    }
   ],
   "linker_set_key" : "_ZTIN4llvm2cl13boolOrDefaultE",
   "name" : "llvm::cl::boolOrDefault",
   "referenced_type" : "_ZTIN4llvm2cl13boolOrDefaultE",
   "self_type" : "_ZTIN4llvm2cl13boolOrDefaultE",
   "size" : 4,
   "source_file" : "external/llvm/include/llvm/Support/CommandLine.h",
   "underlying_type" : "_ZTIj"
  },
  {
   "alignment" : 4,
   "enum_fields" :
   [
    {
     "enum_field_value" : 0,
     "name" : "llvm::cl::NormalFormatting"
    },
    {
     "enum_field_value" : 1,
     "name" : "llvm::cl::Positional"
    },
    {
     "enum_field_value" : 2,
     "name" : "llvm::cl::Prefix"
    },
    {
     "enum_field_value" : 3,
     "name" : "llvm::cl::Grouping"
    }
   ],
   "linker_set_key" : "_ZTIN4llvm2cl15FormattingFlagsE",
   "name" : "llvm::cl::FormattingFlags",
   "referenced_type" : "_ZTIN4llvm2cl15FormattingFlagsE",
   "self_type" : "_ZTIN4llvm2cl15FormattingFlagsE",
   "size" : 4,
   "source_file" : "external/llvm/include/llvm/Support/CommandLine.h",
   "underlying_type" : "_ZTIj"
  },
  {
   "alignment" : 4,
   "enum_fields" :
   [
    {
     "enum_field_value" : 0,
     "name" : "llvm::cl::Optional"
    },
    {
     "enum_field_value" : 1,
     "name" : "llvm::cl::ZeroOrMore"
    },
    {
     "enum_field_value" : 2,
     "name" : "llvm::cl::Required"
    },
    {
     "enum_field_value" : 3,
     "name" : "llvm::cl::OneOrMore"
    },
    {
     "enum_field_value" : 4,
     "name" : "llvm::cl::ConsumeAfter"
    }
   ],
   "linker_set_key" : "_ZTIN4llvm2cl18NumOccurrencesFlagE",
   "name" : "llvm::cl::NumOccurrencesFlag",
   "referenced_type" : "_ZTIN4llvm2cl18NumOccurrencesFlagE",
   "self_type" : "_ZTIN4llvm2cl18NumOccurrencesFlagE",
   "size" : 4,
   "source_file" : "external/llvm/include/llvm/Support/CommandLine.h",
   "underlying_type" : "_ZTIj"
  },
  {
   "alignment" : 4,
   "enum_fields" :
   [
    {
     "enum_field_value" : 1,
     "name" : "llvm::cl::CommaSeparated"
    },
    {
     "enum_field_value" : 2,
     "name" : "llvm::cl::PositionalEatsArgs"
    },
    {
     "enum_field_value" : 4,
     "name" : "llvm::cl::Sink"
    }
   ],
   "linker_set_key" : "_ZTIN4llvm2cl9MiscFlagsE",
   "name" : "llvm::cl::MiscFlags",
   "referenced_type" : "_ZTIN4llvm2cl9MiscFlagsE",
   "self_type" : "_ZTIN4llvm2cl9MiscFlagsE",
   "size" : 4,
   "source_file" : "external/llvm/include/llvm/Support/CommandLine.h",
   "underlying_type" : "_ZTIj"
  },
  {
   "access" : "private",
   "alignment" : 4,
   "enum_fields" :
   [
    {
     "enum_field_value" : 0,
     "name" : "llvm::Use::zeroDigitTag"
    },
    {
     "enum_field_value" : 1,
     "name" : "llvm::Use::oneDigitTag"
    },
    {
     "enum_field_value" : 2,
     "name" : "llvm::Use::stopTag"
    },
    {
     "enum_field_value" : 3,
     "name" : "llvm::Use::fullStopTag"
    }
   ],
   "linker_set_key" : "_ZTIN4llvm3Use10PrevPtrTagE",
   "name" : "llvm::Use::PrevPtrTag",
   "referenced_type" : "_ZTIN4llvm3Use10PrevPtrTagE",
   "self_type" : "_ZTIN4llvm3Use10PrevPtrTagE",
   "size" : 4,
   "source_file" : "external/llvm/include/llvm/IR/Use.h",
   "underlying_type" : "_ZTIj"
  },
  {
   "alignment" : 4,
   "enum_fields" :
   [
    {
     "enum_field_value" : 16777216,
     "name" : "llvm::sys::Memory::MF_READ"
    },
    {
     "enum_field_value" : 33554432,
     "name" : "llvm::sys::Memory::MF_WRITE"
    },
    {
     "enum_field_value" : 67108864,
     "name" : "llvm::sys::Memory::MF_EXEC"
    }
   ],
   "linker_set_key" : "_ZTIN4llvm3sys6Memory15ProtectionFlagsE",
   "name" : "llvm::sys::Memory::ProtectionFlags",
   "referenced_type" : "_ZTIN4llvm3sys6Memory15ProtectionFlagsE",
   "self_type" : "_ZTIN4llvm3sys6Memory15ProtectionFlagsE",
   "size" : 4,
   "source_file" : "external/llvm/include/llvm/Support/Memory.h",
   "underlying_type" : "_ZTIj"
  },
  {
   "alignment" : 4,
   "enum_fields" :
   [
    {
     "enum_field_value" : 0,
     "name" : "llvm::Type::VoidTyID"
    },
    {
     "enum_field_value" : 1,
     "name" : "llvm::Type::HalfTyID"
    },
    {
     "enum_field_value" : 2,
     "name" : "llvm::Type::FloatTyID"
    },
    {
     "enum_field_value" : 3,
     "name" : "llvm::Type::DoubleTyID"
    },
    {
     "enum_field_value" : 4,
     "name" : "llvm::Type::X86_FP80TyID"
    },
    {
     "enum_field_value" : 5,
     "name" : "llvm::Type::FP128TyID"
    },
    {
     "enum_field_value" : 6,
     "name" : "llvm::Type::PPC_FP128TyID"
    },
    {
     "enum_field_value" : 7,
     "name" : "llvm::Type::LabelTyID"
    },
    {
     "enum_field_value" : 8,
     "name" : "llvm::Type::MetadataTyID"
    },
    {
     "enum_field_value" : 9,
     "name" : "llvm::Type::X86_MMXTyID"
    },
    {
     "enum_field_value" : 10,
     "name" : "llvm::Type::TokenTyID"
    },
    {
     "enum_field_value" : 11,
     "name" : "llvm::Type::IntegerTyID"
    },
    {
     "enum_field_value" : 12,
     "name" : "llvm::Type::FunctionTyID"
    },
    {
     "enum_field_value" : 13,
     "name" : "llvm::Type::StructTyID"
    },
    {
     "enum_field_value" : 14,
     "name" : "llvm::Type::ArrayTyID"
    },
    {
     "enum_field_value" : 15,
     "name" : "llvm::Type::PointerTyID"
    },
    {
     "enum_field_value" : 16,
     "name" : "llvm::Type::VectorTyID"
    }
   ],
   "linker_set_key" : "_ZTIN4llvm4Type6TypeIDE",
   "name" : "llvm::Type::TypeID",
   "referenced_type" : "_ZTIN4llvm4Type6TypeIDE",
   "self_type" : "_ZTIN4llvm4Type6TypeIDE",
   "size" : 4,
   "source_file" : "external/llvm/include/llvm/IR/Type.h",
   "underlying_type" : "_ZTIj"
  },
  {
   "access" : "private",
   "alignment" : 4,
   "enum_fields" :
   [
    {
     "enum_field_value" : 64,
     "name" : "llvm::APInt::APINT_BITS_PER_WORD"
    },
    {
     "enum_field_value" : 8,
     "name" : "llvm::APInt::APINT_WORD_SIZE"
    }
   ],
   "linker_set_key" : "_ZTIN4llvm5APInt20$APINT_BITS_PER_WORDE",
   "name" : "llvm::APInt::(anonymous enum at external/llvm/include/llvm/ADT/APInt.h:84:3)",
   "referenced_type" : "_ZTIN4llvm5APInt20$APINT_BITS_PER_WORDE",
   "self_type" : "_ZTIN4llvm5APInt20$APINT_BITS_PER_WORDE",
   "size" : 4,
   "source_file" : "external/llvm/include/llvm/ADT/APInt.h",
   "underlying_type" : "_ZTIj"
  },
  {
   "alignment" : 4,
   "enum_fields" :
   [
    {
     "enum_field_value" : 0,
     "name" : "llvm::Reloc::Static"
    },
    {
     "enum_field_value" : 1,
     "name" : "llvm::Reloc::PIC_"
    },
    {
     "enum_field_value" : 2,
     "name" : "llvm::Reloc::DynamicNoPIC"
    }
   ],
   "linker_set_key" : "_ZTIN4llvm5Reloc5ModelE",
   "name" : "llvm::Reloc::Model",
   "referenced_type" : "_ZTIN4llvm5Reloc5ModelE",
   "self_type" : "_ZTIN4llvm5Reloc5ModelE",
   "size" : 4,
   "source_file" : "external/llvm/include/llvm/Support/CodeGen.h",
   "underlying_type" : "_ZTIj"
  },
  {
   "access" : "private",
   "alignment" : 1,
   "enum_fields" :
   [
    {
     "enum_field_value" : 0,
     "name" : "llvm::Twine::NullKind"
    },
    {
     "enum_field_value" : 1,
     "name" : "llvm::Twine::EmptyKind"
    },
    {
     "enum_field_value" : 2,
     "name" : "llvm::Twine::TwineKind"
    },
    {
     "enum_field_value" : 3,
     "name" : "llvm::Twine::CStringKind"
    },
    {
     "enum_field_value" : 4,
     "name" : "llvm::Twine::StdStringKind"
    },
    {
     "enum_field_value" : 5,
     "name" : "llvm::Twine::StringRefKind"
    },
    {
     "enum_field_value" : 6,
     "name" : "llvm::Twine::SmallStringKind"
    },
    {
     "enum_field_value" : 7,
     "name" : "llvm::Twine::CharKind"
    },
    {
     "enum_field_value" : 8,
     "name" : "llvm::Twine::DecUIKind"
    },
    {
     "enum_field_value" : 9,
     "name" : "llvm::Twine::DecIKind"
    },
    {
     "enum_field_value" : 10,
     "name" : "llvm::Twine::DecULKind"
    },
    {
     "enum_field_value" : 11,
     "name" : "llvm::Twine::DecLKind"
    },
    {
     "enum_field_value" : 12,
     "name" : "llvm::Twine::DecULLKind"
    },
    {
     "enum_field_value" : 13,
     "name" : "llvm::Twine::DecLLKind"
    },
    {
     "enum_field_value" : 14,
     "name" : "llvm::Twine::UHexKind"
    }
   ],
   "linker_set_key" : "_ZTIN4llvm5Twine8NodeKindE",
   "name" : "llvm::Twine::NodeKind",
   "referenced_type" : "_ZTIN4llvm5Twine8NodeKindE",
   "self_type" : "_ZTIN4llvm5Twine8NodeKindE",
   "size" : 1,
   "source_file" : "external/llvm/include/llvm/ADT/Twine.h",
   "underlying_type" : "_ZTIh"
  },
  {
   "access" : "protected",
   "alignment" : 4,
   "enum_fields" :
   [
    {
     "enum_field_value" : 28,
     "name" : "llvm::Value::NumUserOperandsBits"
    }
   ],
   "linker_set_key" : "_ZTIN4llvm5Value20$NumUserOperandsBitsE",
   "name" : "llvm::Value::(anonymous enum at external/llvm/include/llvm/IR/Value.h:109:3)",
   "referenced_type" : "_ZTIN4llvm5Value20$NumUserOperandsBitsE",
   "self_type" : "_ZTIN4llvm5Value20$NumUserOperandsBitsE",
   "size" : 4,
   "source_file" : "external/llvm/include/llvm/IR/Value.h",
   "underlying_type" : "_ZTIj"
  },
  {
   "alignment" : 4,
   "enum_fields" :
   [
    {
     "enum_field_value" : 0,
     "name" : "llvm::Value::ArgumentVal"
    },
    {
     "enum_field_value" : 1,
     "name" : "llvm::Value::BasicBlockVal"
    },
    {
     "enum_field_value" : 2,
     "name" : "llvm::Value::MemoryUseVal"
    },
    {
     "enum_field_value" : 3,
     "name" : "llvm::Value::MemoryDefVal"
    },
    {
     "enum_field_value" : 4,
     "name" : "llvm::Value::MemoryPhiVal"
    },
    {
     "enum_field_value" : 5,
     "name" : "llvm::Value::FunctionVal"
    },
    {
     "enum_field_value" : 6,
     "name" : "llvm::Value::GlobalAliasVal"
    },
    {
     "enum_field_value" : 7,
     "name" : "llvm::Value::GlobalIFuncVal"
    },
    {
     "enum_field_value" : 8,
     "name" : "llvm::Value::GlobalVariableVal"
    },
    {
     "enum_field_value" : 9,
     "name" : "llvm::Value::BlockAddressVal"
    },
    {
     "enum_field_value" : 10,
     "name" : "llvm::Value::ConstantExprVal"
    },
    {
     "enum_field_value" : 11,
     "name" : "llvm::Value::ConstantArrayVal"
    },
    {
     "enum_field_value" : 12,
     "name" : "llvm::Value::ConstantStructVal"
    },
    {
     "enum_field_value" : 13,
     "name" : "llvm::Value::ConstantVectorVal"
    },
    {
     "enum_field_value" : 14,
     "name" : "llvm::Value::UndefValueVal"
    },
    {
     "enum_field_value" : 15,
     "name" : "llvm::Value::ConstantAggregateZeroVal"
    },
    {
     "enum_field_value" : 16,
     "name" : "llvm::Value::ConstantDataArrayVal"
    },
    {
     "enum_field_value" : 17,
     "name" : "llvm::Value::ConstantDataVectorVal"
    },
    {
     "enum_field_value" : 18,
     "name" : "llvm::Value::ConstantIntVal"
    },
    {
     "enum_field_value" : 19,
     "name" : "llvm::Value::ConstantFPVal"
    },
    {
     "enum_field_value" : 20,
     "name" : "llvm::Value::ConstantPointerNullVal"
    },
    {
     "enum_field_value" : 21,
     "name" : "llvm::Value::ConstantTokenNoneVal"
    },
    {
     "enum_field_value" : 22,
     "name" : "llvm::Value::MetadataAsValueVal"
    },
    {
     "enum_field_value" : 23,
     "name" : "llvm::Value::InlineAsmVal"
    },
    {
     "enum_field_value" : 24,
     "name" : "llvm::Value::InstructionVal"
    },
    {
     "enum_field_value" : 5,
     "name" : "llvm::Value::ConstantFirstVal"
    },
    {
     "enum_field_value" : 21,
     "name" : "llvm::Value::ConstantLastVal"
    },
    {
     "enum_field_value" : 14,
     "name" : "llvm::Value::ConstantDataFirstVal"
    },
    {
     "enum_field_value" : 21,
     "name" : "llvm::Value::ConstantDataLastVal"
    },
    {
     "enum_field_value" : 11,
     "name" : "llvm::Value::ConstantAggregateFirstVal"
    },
    {
     "enum_field_value" : 13,
     "name" : "llvm::Value::ConstantAggregateLastVal"
    }
   ],
   "linker_set_key" : "_ZTIN4llvm5Value7ValueTyE",
   "name" : "llvm::Value::ValueTy",
   "referenced_type" : "_ZTIN4llvm5Value7ValueTyE",
   "self_type" : "_ZTIN4llvm5Value7ValueTyE",
   "size" : 4,
   "source_file" : "external/llvm/include/llvm/IR/Value.h",
   "underlying_type" : "_ZTIj"
  },
  {
   "alignment" : 4,
   "enum_fields" :
   [
    {
     "enum_field_value" : 0,
     "name" : "llvm::Comdat::Any"
    },
    {
     "enum_field_value" : 1,
     "name" : "llvm::Comdat::ExactMatch"
    },
    {
     "enum_field_value" : 2,
     "name" : "llvm::Comdat::Largest"
    },
    {
     "enum_field_value" : 3,
     "name" : "llvm::Comdat::NoDuplicates"
    },
    {
     "enum_field_value" : 4,
     "name" : "llvm::Comdat::SameSize"
    }
   ],
   "linker_set_key" : "_ZTIN4llvm6Comdat13SelectionKindE",
   "name" : "llvm::Comdat::SelectionKind",
   "referenced_type" : "_ZTIN4llvm6Comdat13SelectionKindE",
   "self_type" : "_ZTIN4llvm6Comdat13SelectionKindE",
   "size" : 4,
   "source_file" : "external/llvm/include/llvm/IR/Comdat.h",
   "underlying_type" : "_ZTIj"
  },
  {
   "alignment" : 4,
   "enum_fields" :
   [
    {
     "enum_field_value" : 1,
     "name" : "llvm::Module::Error"
    },
    {
     "enum_field_value" : 2,
     "name" : "llvm::Module::Warning"
    },
    {
     "enum_field_value" : 3,
     "name" : "llvm::Module::Require"
    },
    {
     "enum_field_value" : 4,
     "name" : "llvm::Module::Override"
    },
    {
     "enum_field_value" : 5,
     "name" : "llvm::Module::Append"
    },
    {
     "enum_field_value" : 6,
     "name" : "llvm::Module::AppendUnique"
    },
    {
     "enum_field_value" : 1,
     "name" : "llvm::Module::ModFlagBehaviorFirstVal"
    },
    {
     "enum_field_value" : 6,
     "name" : "llvm::Module::ModFlagBehaviorLastVal"
    }
   ],
   "linker_set_key" : "_ZTIN4llvm6Module15ModFlagBehaviorE",
   "name" : "llvm::Module::ModFlagBehavior",
   "referenced_type" : "_ZTIN4llvm6Module15ModFlagBehaviorE",
   "self_type" : "_ZTIN4llvm6Module15ModFlagBehaviorE",
   "size" : 4,
   "source_file" : "external/llvm/include/llvm/IR/Module.h",
   "underlying_type" : "_ZTIj"
  },
  {
   "alignment" : 4,
   "enum_fields" :
   [
    {
     "enum_field_value" : 0,
     "name" : "llvm::Triple::UnknownVendor"
    },
    {
     "enum_field_value" : 1,
     "name" : "llvm::Triple::Apple"
    },
    {
     "enum_field_value" : 2,
     "name" : "llvm::Triple::PC"
    },
    {
     "enum_field_value" : 3,
     "name" : "llvm::Triple::SCEI"
    },
    {
     "enum_field_value" : 4,
     "name" : "llvm::Triple::BGP"
    },
    {
     "enum_field_value" : 5,
     "name" : "llvm::Triple::BGQ"
    },
    {
     "enum_field_value" : 6,
     "name" : "llvm::Triple::Freescale"
    },
    {
     "enum_field_value" : 7,
     "name" : "llvm::Triple::IBM"
    },
    {
     "enum_field_value" : 8,
     "name" : "llvm::Triple::ImaginationTechnologies"
    },
    {
     "enum_field_value" : 9,
     "name" : "llvm::Triple::MipsTechnologies"
    },
    {
     "enum_field_value" : 10,
     "name" : "llvm::Triple::NVIDIA"
    },
    {
     "enum_field_value" : 11,
     "name" : "llvm::Triple::CSR"
    },
    {
     "enum_field_value" : 12,
     "name" : "llvm::Triple::Myriad"
    },
    {
     "enum_field_value" : 13,
     "name" : "llvm::Triple::AMD"
    },
    {
     "enum_field_value" : 14,
     "name" : "llvm::Triple::Mesa"
    },
    {
     "enum_field_value" : 14,
     "name" : "llvm::Triple::LastVendorType"
    }
   ],
   "linker_set_key" : "_ZTIN4llvm6Triple10VendorTypeE",
   "name" : "llvm::Triple::VendorType",
   "referenced_type" : "_ZTIN4llvm6Triple10VendorTypeE",
   "self_type" : "_ZTIN4llvm6Triple10VendorTypeE",
   "size" : 4,
   "source_file" : "external/llvm/include/llvm/ADT/Triple.h",
   "underlying_type" : "_ZTIj"
  },
  {
   "alignment" : 4,
   "enum_fields" :
   [
    {
     "enum_field_value" : 0,
     "name" : "llvm::Triple::NoSubArch"
    },
    {
     "enum_field_value" : 1,
     "name" : "llvm::Triple::ARMSubArch_v8_2a"
    },
    {
     "enum_field_value" : 2,
     "name" : "llvm::Triple::ARMSubArch_v8_1a"
    },
    {
     "enum_field_value" : 3,
     "name" : "llvm::Triple::ARMSubArch_v8"
    },
    {
     "enum_field_value" : 4,
     "name" : "llvm::Triple::ARMSubArch_v8m_baseline"
    },
    {
     "enum_field_value" : 5,
     "name" : "llvm::Triple::ARMSubArch_v8m_mainline"
    },
    {
     "enum_field_value" : 6,
     "name" : "llvm::Triple::ARMSubArch_v7"
    },
    {
     "enum_field_value" : 7,
     "name" : "llvm::Triple::ARMSubArch_v7em"
    },
    {
     "enum_field_value" : 8,
     "name" : "llvm::Triple::ARMSubArch_v7m"
    },
    {
     "enum_field_value" : 9,
     "name" : "llvm::Triple::ARMSubArch_v7s"
    },
    {
     "enum_field_value" : 10,
     "name" : "llvm::Triple::ARMSubArch_v7k"
    },
    {
     "enum_field_value" : 11,
     "name" : "llvm::Triple::ARMSubArch_v6"
    },
    {
     "enum_field_value" : 12,
     "name" : "llvm::Triple::ARMSubArch_v6m"
    },
    {
     "enum_field_value" : 13,
     "name" : "llvm::Triple::ARMSubArch_v6k"
    },
    {
     "enum_field_value" : 14,
     "name" : "llvm::Triple::ARMSubArch_v6t2"
    },
    {
     "enum_field_value" : 15,
     "name" : "llvm::Triple::ARMSubArch_v5"
    },
    {
     "enum_field_value" : 16,
     "name" : "llvm::Triple::ARMSubArch_v5te"
    },
    {
     "enum_field_value" : 17,
     "name" : "llvm::Triple::ARMSubArch_v4t"
    },
    {
     "enum_field_value" : 18,
     "name" : "llvm::Triple::KalimbaSubArch_v3"
    },
    {
     "enum_field_value" : 19,
     "name" : "llvm::Triple::KalimbaSubArch_v4"
    },
    {
     "enum_field_value" : 20,
     "name" : "llvm::Triple::KalimbaSubArch_v5"
    }
   ],
   "linker_set_key" : "_ZTIN4llvm6Triple11SubArchTypeE",
   "name" : "llvm::Triple::SubArchType",
   "referenced_type" : "_ZTIN4llvm6Triple11SubArchTypeE",
   "self_type" : "_ZTIN4llvm6Triple11SubArchTypeE",
   "size" : 4,
   "source_file" : "external/llvm/include/llvm/ADT/Triple.h",
   "underlying_type" : "_ZTIj"
  },
  {
   "alignment" : 4,
   "enum_fields" :
   [
    {
     "enum_field_value" : 0,
     "name" : "llvm::Triple::UnknownEnvironment"
    },
    {
     "enum_field_value" : 1,
     "name" : "llvm::Triple::GNU"
    },
    {
     "enum_field_value" : 2,
     "name" : "llvm::Triple::GNUEABI"
    },
    {
     "enum_field_value" : 3,
     "name" : "llvm::Triple::GNUEABIHF"
    },
    {
     "enum_field_value" : 4,
     "name" : "llvm::Triple::GNUX32"
    },
    {
     "enum_field_value" : 5,
     "name" : "llvm::Triple::CODE16"
    },
    {
     "enum_field_value" : 6,
     "name" : "llvm::Triple::EABI"
    },
    {
     "enum_field_value" : 7,
     "name" : "llvm::Triple::EABIHF"
    },
    {
     "enum_field_value" : 8,
     "name" : "llvm::Triple::Android"
    },
    {
     "enum_field_value" : 9,
     "name" : "llvm::Triple::Musl"
    },
    {
     "enum_field_value" : 10,
     "name" : "llvm::Triple::MuslEABI"
    },
    {
     "enum_field_value" : 11,
     "name" : "llvm::Triple::MuslEABIHF"
    },
    {
     "enum_field_value" : 12,
     "name" : "llvm::Triple::MSVC"
    },
    {
     "enum_field_value" : 13,
     "name" : "llvm::Triple::Itanium"
    },
    {
     "enum_field_value" : 14,
     "name" : "llvm::Triple::Cygnus"
    },
    {
     "enum_field_value" : 15,
     "name" : "llvm::Triple::AMDOpenCL"
    },
    {
     "enum_field_value" : 16,
     "name" : "llvm::Triple::CoreCLR"
    },
    {
     "enum_field_value" : 16,
     "name" : "llvm::Triple::LastEnvironmentType"
    }
   ],
   "linker_set_key" : "_ZTIN4llvm6Triple15EnvironmentTypeE",
   "name" : "llvm::Triple::EnvironmentType",
   "referenced_type" : "_ZTIN4llvm6Triple15EnvironmentTypeE",
   "self_type" : "_ZTIN4llvm6Triple15EnvironmentTypeE",
   "size" : 4,
   "source_file" : "external/llvm/include/llvm/ADT/Triple.h",
   "underlying_type" : "_ZTIj"
  },
  {
   "alignment" : 4,
   "enum_fields" :
   [
    {
     "enum_field_value" : 0,
     "name" : "llvm::Triple::UnknownObjectFormat"
    },
    {
     "enum_field_value" : 1,
     "name" : "llvm::Triple::COFF"
    },
    {
     "enum_field_value" : 2,
     "name" : "llvm::Triple::ELF"
    },
    {
     "enum_field_value" : 3,
     "name" : "llvm::Triple::MachO"
    }
   ],
   "linker_set_key" : "_ZTIN4llvm6Triple16ObjectFormatTypeE",
   "name" : "llvm::Triple::ObjectFormatType",
   "referenced_type" : "_ZTIN4llvm6Triple16ObjectFormatTypeE",
   "self_type" : "_ZTIN4llvm6Triple16ObjectFormatTypeE",
   "size" : 4,
   "source_file" : "external/llvm/include/llvm/ADT/Triple.h",
   "underlying_type" : "_ZTIj"
  },
  {
   "alignment" : 4,
   "enum_fields" :
   [
    {
     "enum_field_value" : 0,
     "name" : "llvm::Triple::UnknownOS"
    },
    {
     "enum_field_value" : 1,
     "name" : "llvm::Triple::CloudABI"
    },
    {
     "enum_field_value" : 2,
     "name" : "llvm::Triple::Darwin"
    },
    {
     "enum_field_value" : 3,
     "name" : "llvm::Triple::DragonFly"
    },
    {
     "enum_field_value" : 4,
     "name" : "llvm::Triple::FreeBSD"
    },
    {
     "enum_field_value" : 5,
     "name" : "llvm::Triple::IOS"
    },
    {
     "enum_field_value" : 6,
     "name" : "llvm::Triple::KFreeBSD"
    },
    {
     "enum_field_value" : 7,
     "name" : "llvm::Triple::Linux"
    },
    {
     "enum_field_value" : 8,
     "name" : "llvm::Triple::Lv2"
    },
    {
     "enum_field_value" : 9,
     "name" : "llvm::Triple::MacOSX"
    },
    {
     "enum_field_value" : 10,
     "name" : "llvm::Triple::NetBSD"
    },
    {
     "enum_field_value" : 11,
     "name" : "llvm::Triple::OpenBSD"
    },
    {
     "enum_field_value" : 12,
     "name" : "llvm::Triple::Solaris"
    },
    {
     "enum_field_value" : 13,
     "name" : "llvm::Triple::Win32"
    },
    {
     "enum_field_value" : 14,
     "name" : "llvm::Triple::Haiku"
    },
    {
     "enum_field_value" : 15,
     "name" : "llvm::Triple::Minix"
    },
    {
     "enum_field_value" : 16,
     "name" : "llvm::Triple::RTEMS"
    },
    {
     "enum_field_value" : 17,
     "name" : "llvm::Triple::NaCl"
    },
    {
     "enum_field_value" : 18,
     "name" : "llvm::Triple::CNK"
    },
    {
     "enum_field_value" : 19,
     "name" : "llvm::Triple::Bitrig"
    },
    {
     "enum_field_value" : 20,
     "name" : "llvm::Triple::AIX"
    },
    {
     "enum_field_value" : 21,
     "name" : "llvm::Triple::CUDA"
    },
    {
     "enum_field_value" : 22,
     "name" : "llvm::Triple::NVCL"
    },
    {
     "enum_field_value" : 23,
     "name" : "llvm::Triple::AMDHSA"
    },
    {
     "enum_field_value" : 24,
     "name" : "llvm::Triple::PS4"
    },
    {
     "enum_field_value" : 25,
     "name" : "llvm::Triple::ELFIAMCU"
    },
    {
     "enum_field_value" : 26,
     "name" : "llvm::Triple::TvOS"
    },
    {
     "enum_field_value" : 27,
     "name" : "llvm::Triple::WatchOS"
    },
    {
     "enum_field_value" : 28,
     "name" : "llvm::Triple::Mesa3D"
    },
    {
     "enum_field_value" : 28,
     "name" : "llvm::Triple::LastOSType"
    }
   ],
   "linker_set_key" : "_ZTIN4llvm6Triple6OSTypeE",
   "name" : "llvm::Triple::OSType",
   "referenced_type" : "_ZTIN4llvm6Triple6OSTypeE",
   "self_type" : "_ZTIN4llvm6Triple6OSTypeE",
   "size" : 4,
   "source_file" : "external/llvm/include/llvm/ADT/Triple.h",
   "underlying_type" : "_ZTIj"
  },
  {
   "alignment" : 4,
   "enum_fields" :
   [
    {
     "enum_field_value" : 0,
     "name" : "llvm::Triple::UnknownArch"
    },
    {
     "enum_field_value" : 1,
     "name" : "llvm::Triple::arm"
    },
    {
     "enum_field_value" : 2,
     "name" : "llvm::Triple::armeb"
    },
    {
     "enum_field_value" : 3,
     "name" : "llvm::Triple::aarch64"
    },
    {
     "enum_field_value" : 4,
     "name" : "llvm::Triple::aarch64_be"
    },
    {
     "enum_field_value" : 5,
     "name" : "llvm::Triple::avr"
    },
    {
     "enum_field_value" : 6,
     "name" : "llvm::Triple::bpfel"
    },
    {
     "enum_field_value" : 7,
     "name" : "llvm::Triple::bpfeb"
    },
    {
     "enum_field_value" : 8,
     "name" : "llvm::Triple::hexagon"
    },
    {
     "enum_field_value" : 9,
     "name" : "llvm::Triple::mips"
    },
    {
     "enum_field_value" : 10,
     "name" : "llvm::Triple::mipsel"
    },
    {
     "enum_field_value" : 11,
     "name" : "llvm::Triple::mips64"
    },
    {
     "enum_field_value" : 12,
     "name" : "llvm::Triple::mips64el"
    },
    {
     "enum_field_value" : 13,
     "name" : "llvm::Triple::msp430"
    },
    {
     "enum_field_value" : 14,
     "name" : "llvm::Triple::ppc"
    },
    {
     "enum_field_value" : 15,
     "name" : "llvm::Triple::ppc64"
    },
    {
     "enum_field_value" : 16,
     "name" : "llvm::Triple::ppc64le"
    },
    {
     "enum_field_value" : 17,
     "name" : "llvm::Triple::r600"
    },
    {
     "enum_field_value" : 18,
     "name" : "llvm::Triple::amdgcn"
    },
    {
     "enum_field_value" : 19,
     "name" : "llvm::Triple::sparc"
    },
    {
     "enum_field_value" : 20,
     "name" : "llvm::Triple::sparcv9"
    },
    {
     "enum_field_value" : 21,
     "name" : "llvm::Triple::sparcel"
    },
    {
     "enum_field_value" : 22,
     "name" : "llvm::Triple::systemz"
    },
    {
     "enum_field_value" : 23,
     "name" : "llvm::Triple::tce"
    },
    {
     "enum_field_value" : 24,
     "name" : "llvm::Triple::thumb"
    },
    {
     "enum_field_value" : 25,
     "name" : "llvm::Triple::thumbeb"
    },
    {
     "enum_field_value" : 26,
     "name" : "llvm::Triple::x86"
    },
    {
     "enum_field_value" : 27,
     "name" : "llvm::Triple::x86_64"
    },
    {
     "enum_field_value" : 28,
     "name" : "llvm::Triple::xcore"
    },
    {
     "enum_field_value" : 29,
     "name" : "llvm::Triple::nvptx"
    },
    {
     "enum_field_value" : 30,
     "name" : "llvm::Triple::nvptx64"
    },
    {
     "enum_field_value" : 31,
     "name" : "llvm::Triple::le32"
    },
    {
     "enum_field_value" : 32,
     "name" : "llvm::Triple::le64"
    },
    {
     "enum_field_value" : 33,
     "name" : "llvm::Triple::amdil"
    },
    {
     "enum_field_value" : 34,
     "name" : "llvm::Triple::amdil64"
    },
    {
     "enum_field_value" : 35,
     "name" : "llvm::Triple::hsail"
    },
    {
     "enum_field_value" : 36,
     "name" : "llvm::Triple::hsail64"
    },
    {
     "enum_field_value" : 37,
     "name" : "llvm::Triple::spir"
    },
    {
     "enum_field_value" : 38,
     "name" : "llvm::Triple::spir64"
    },
    {
     "enum_field_value" : 39,
     "name" : "llvm::Triple::kalimba"
    },
    {
     "enum_field_value" : 40,
     "name" : "llvm::Triple::shave"
    },
    {
     "enum_field_value" : 41,
     "name" : "llvm::Triple::lanai"
    },
    {
     "enum_field_value" : 42,
     "name" : "llvm::Triple::wasm32"
    },
    {
     "enum_field_value" : 43,
     "name" : "llvm::Triple::wasm64"
    },
    {
     "enum_field_value" : 44,
     "name" : "llvm::Triple::renderscript32"
    },
    {
     "enum_field_value" : 45,
     "name" : "llvm::Triple::renderscript64"
    },
    {
     "enum_field_value" : 45,
     "name" : "llvm::Triple::LastArchType"
    }
   ],
   "linker_set_key" : "_ZTIN4llvm6Triple8ArchTypeE",
   "name" : "llvm::Triple::ArchType",
   "referenced_type" : "_ZTIN4llvm6Triple8ArchTypeE",
   "self_type" : "_ZTIN4llvm6Triple8ArchTypeE",
   "size" : 4,
   "source_file" : "external/llvm/include/llvm/ADT/Triple.h",
   "underlying_type" : "_ZTIj"
  },
  {
   "alignment" : 4,
   "enum_fields" :
   [
    {
     "enum_field_value" : 0,
     "name" : "llvm::APFloat::fcInfinity"
    },
    {
     "enum_field_value" : 1,
     "name" : "llvm::APFloat::fcNaN"
    },
    {
     "enum_field_value" : 2,
     "name" : "llvm::APFloat::fcNormal"
    },
    {
     "enum_field_value" : 3,
     "name" : "llvm::APFloat::fcZero"
    }
   ],
   "linker_set_key" : "_ZTIN4llvm7APFloat11fltCategoryE",
   "name" : "llvm::APFloat::fltCategory",
   "referenced_type" : "_ZTIN4llvm7APFloat11fltCategoryE",
   "self_type" : "_ZTIN4llvm7APFloat11fltCategoryE",
   "size" : 4,
   "source_file" : "external/llvm/include/llvm/ADT/APFloat.h",
   "underlying_type" : "_ZTIj"
  },
  {
   "alignment" : 4,
   "enum_fields" :
   [
    {
     "enum_field_value" : 0,
     "name" : "llvm::APFloat::rmNearestTiesToEven"
    },
    {
     "enum_field_value" : 1,
     "name" : "llvm::APFloat::rmTowardPositive"
    },
    {
     "enum_field_value" : 2,
     "name" : "llvm::APFloat::rmTowardNegative"
    },
    {
     "enum_field_value" : 3,
     "name" : "llvm::APFloat::rmTowardZero"
    },
    {
     "enum_field_value" : 4,
     "name" : "llvm::APFloat::rmNearestTiesToAway"
    }
   ],
   "linker_set_key" : "_ZTIN4llvm7APFloat12roundingModeE",
   "name" : "llvm::APFloat::roundingMode",
   "referenced_type" : "_ZTIN4llvm7APFloat12roundingModeE",
   "self_type" : "_ZTIN4llvm7APFloat12roundingModeE",
   "size" : 4,
   "source_file" : "external/llvm/include/llvm/ADT/APFloat.h",
   "underlying_type" : "_ZTIj"
  },
  {
   "alignment" : 4,
   "enum_fields" :
   [
    {
     "enum_field_value" : -2147483647,
     "name" : "llvm::APFloat::IEK_Zero"
    },
    {
     "enum_field_value" : -2147483648,
     "name" : "llvm::APFloat::IEK_NaN"
    },
    {
     "enum_field_value" : 2147483647,
     "name" : "llvm::APFloat::IEK_Inf"
    }
   ],
   "linker_set_key" : "_ZTIN4llvm7APFloat15IlogbErrorKindsE",
   "name" : "llvm::APFloat::IlogbErrorKinds",
   "referenced_type" : "_ZTIN4llvm7APFloat15IlogbErrorKindsE",
   "self_type" : "_ZTIN4llvm7APFloat15IlogbErrorKindsE",
   "size" : 4,
   "source_file" : "external/llvm/include/llvm/ADT/APFloat.h",
   "underlying_type" : "_ZTIi"
  },
  {
   "alignment" : 4,
   "enum_fields" :
   [
    {
     "enum_field_value" : 0,
     "name" : "llvm::APFloat::uninitialized"
    }
   ],
   "linker_set_key" : "_ZTIN4llvm7APFloat16uninitializedTagE",
   "name" : "llvm::APFloat::uninitializedTag",
   "referenced_type" : "_ZTIN4llvm7APFloat16uninitializedTagE",
   "self_type" : "_ZTIN4llvm7APFloat16uninitializedTagE",
   "size" : 4,
   "source_file" : "external/llvm/include/llvm/ADT/APFloat.h",
   "underlying_type" : "_ZTIj"
  },
  {
   "alignment" : 4,
   "enum_fields" :
   [
    {
     "enum_field_value" : 0,
     "name" : "llvm::APFloat::opOK"
    },
    {
     "enum_field_value" : 1,
     "name" : "llvm::APFloat::opInvalidOp"
    },
    {
     "enum_field_value" : 2,
     "name" : "llvm::APFloat::opDivByZero"
    },
    {
     "enum_field_value" : 4,
     "name" : "llvm::APFloat::opOverflow"
    },
    {
     "enum_field_value" : 8,
     "name" : "llvm::APFloat::opUnderflow"
    },
    {
     "enum_field_value" : 16,
     "name" : "llvm::APFloat::opInexact"
    }
   ],
   "linker_set_key" : "_ZTIN4llvm7APFloat8opStatusE",
   "name" : "llvm::APFloat::opStatus",
   "referenced_type" : "_ZTIN4llvm7APFloat8opStatusE",
   "self_type" : "_ZTIN4llvm7APFloat8opStatusE",
   "size" : 4,
   "source_file" : "external/llvm/include/llvm/ADT/APFloat.h",
   "underlying_type" : "_ZTIj"
  },
  {
   "alignment" : 4,
   "enum_fields" :
   [
    {
     "enum_field_value" : 0,
     "name" : "llvm::APFloat::cmpLessThan"
    },
    {
     "enum_field_value" : 1,
     "name" : "llvm::APFloat::cmpEqual"
    },
    {
     "enum_field_value" : 2,
     "name" : "llvm::APFloat::cmpGreaterThan"
    },
    {
     "enum_field_value" : 3,
     "name" : "llvm::APFloat::cmpUnordered"
    }
   ],
   "linker_set_key" : "_ZTIN4llvm7APFloat9cmpResultE",
   "name" : "llvm::APFloat::cmpResult",
   "referenced_type" : "_ZTIN4llvm7APFloat9cmpResultE",
   "self_type" : "_ZTIN4llvm7APFloat9cmpResultE",
   "size" : 4,
   "source_file" : "external/llvm/include/llvm/ADT/APFloat.h",
   "underlying_type" : "_ZTIj"
  },
  {
   "alignment" : 4,
   "enum_fields" :
   [
    {
     "enum_field_value" : 0,
     "name" : "llvm::AlignOf<llvm::LLVMContext>::Alignment_LessEqual_2Bytes"
    }
   ],
   "linker_set_key" : "_ZTIN4llvm7AlignOfINS_11LLVMContextEE27$Alignment_LessEqual_2BytesE",
   "name" : "llvm::AlignOf<LLVMContext>::(anonymous enum at external/llvm/include/llvm/Support/AlignOf.h:91:3)",
   "referenced_type" : "_ZTIN4llvm7AlignOfINS_11LLVMContextEE27$Alignment_LessEqual_2BytesE",
   "self_type" : "_ZTIN4llvm7AlignOfINS_11LLVMContextEE27$Alignment_LessEqual_2BytesE",
   "size" : 4,
   "source_file" : "external/llvm/include/llvm/Support/AlignOf.h",
   "underlying_type" : "_ZTIj"
  },
  {
   "alignment" : 4,
   "enum_fields" :
   [
    {
     "enum_field_value" : 1,
     "name" : "llvm::AlignOf<llvm::LLVMContext>::Alignment_LessEqual_4Bytes"
    }
   ],
   "linker_set_key" : "_ZTIN4llvm7AlignOfINS_11LLVMContextEE27$Alignment_LessEqual_4BytesE",
   "name" : "llvm::AlignOf<LLVMContext>::(anonymous enum at external/llvm/include/llvm/Support/AlignOf.h:92:3)",
   "referenced_type" : "_ZTIN4llvm7AlignOfINS_11LLVMContextEE27$Alignment_LessEqual_4BytesE",
   "self_type" : "_ZTIN4llvm7AlignOfINS_11LLVMContextEE27$Alignment_LessEqual_4BytesE",
   "size" : 4,
   "source_file" : "external/llvm/include/llvm/Support/AlignOf.h",
   "underlying_type" : "_ZTIj"
  },
  {
   "alignment" : 4,
   "enum_fields" :
   [
    {
     "enum_field_value" : 1,
     "name" : "llvm::AlignOf<llvm::LLVMContext>::Alignment_LessEqual_8Bytes"
    }
   ],
   "linker_set_key" : "_ZTIN4llvm7AlignOfINS_11LLVMContextEE27$Alignment_LessEqual_8BytesE",
   "name" : "llvm::AlignOf<LLVMContext>::(anonymous enum at external/llvm/include/llvm/Support/AlignOf.h:93:3)",
   "referenced_type" : "_ZTIN4llvm7AlignOfINS_11LLVMContextEE27$Alignment_LessEqual_8BytesE",
   "self_type" : "_ZTIN4llvm7AlignOfINS_11LLVMContextEE27$Alignment_LessEqual_8BytesE",
   "size" : 4,
   "source_file" : "external/llvm/include/llvm/Support/AlignOf.h",
   "underlying_type" : "_ZTIj"
  },
  {
   "alignment" : 4,
   "enum_fields" :
   [
    {
     "enum_field_value" : 1,
     "name" : "llvm::AlignOf<llvm::LLVMContext>::Alignment_LessEqual_16Bytes"
    }
   ],
   "linker_set_key" : "_ZTIN4llvm7AlignOfINS_11LLVMContextEE28$Alignment_LessEqual_16BytesE",
   "name" : "llvm::AlignOf<LLVMContext>::(anonymous enum at external/llvm/include/llvm/Support/AlignOf.h:94:3)",
   "referenced_type" : "_ZTIN4llvm7AlignOfINS_11LLVMContextEE28$Alignment_LessEqual_16BytesE",
   "self_type" : "_ZTIN4llvm7AlignOfINS_11LLVMContextEE28$Alignment_LessEqual_16BytesE",
   "size" : 4,
   "source_file" : "external/llvm/include/llvm/Support/AlignOf.h",
   "underlying_type" : "_ZTIj"
  },
  {
   "alignment" : 4,
   "enum_fields" :
   [
    {
     "enum_field_value" : 1,
     "name" : "llvm::AlignOf<llvm::LLVMContext>::Alignment_GreaterEqual_2Bytes"
    }
   ],
   "linker_set_key" : "_ZTIN4llvm7AlignOfINS_11LLVMContextEE30$Alignment_GreaterEqual_2BytesE",
   "name" : "llvm::AlignOf<LLVMContext>::(anonymous enum at external/llvm/include/llvm/Support/AlignOf.h:86:3)",
   "referenced_type" : "_ZTIN4llvm7AlignOfINS_11LLVMContextEE30$Alignment_GreaterEqual_2BytesE",
   "self_type" : "_ZTIN4llvm7AlignOfINS_11LLVMContextEE30$Alignment_GreaterEqual_2BytesE",
   "size" : 4,
   "source_file" : "external/llvm/include/llvm/Support/AlignOf.h",
   "underlying_type" : "_ZTIj"
  },
  {
   "alignment" : 4,
   "enum_fields" :
   [
    {
     "enum_field_value" : 1,
     "name" : "llvm::AlignOf<llvm::LLVMContext>::Alignment_GreaterEqual_4Bytes"
    }
   ],
   "linker_set_key" : "_ZTIN4llvm7AlignOfINS_11LLVMContextEE30$Alignment_GreaterEqual_4BytesE",
   "name" : "llvm::AlignOf<LLVMContext>::(anonymous enum at external/llvm/include/llvm/Support/AlignOf.h:87:3)",
   "referenced_type" : "_ZTIN4llvm7AlignOfINS_11LLVMContextEE30$Alignment_GreaterEqual_4BytesE",
   "self_type" : "_ZTIN4llvm7AlignOfINS_11LLVMContextEE30$Alignment_GreaterEqual_4BytesE",
   "size" : 4,
   "source_file" : "external/llvm/include/llvm/Support/AlignOf.h",
   "underlying_type" : "_ZTIj"
  },
  {
   "alignment" : 4,
   "enum_fields" :
   [
    {
     "enum_field_value" : 0,
     "name" : "llvm::AlignOf<llvm::LLVMContext>::Alignment_GreaterEqual_8Bytes"
    }
   ],
   "linker_set_key" : "_ZTIN4llvm7AlignOfINS_11LLVMContextEE30$Alignment_GreaterEqual_8BytesE",
   "name" : "llvm::AlignOf<LLVMContext>::(anonymous enum at external/llvm/include/llvm/Support/AlignOf.h:88:3)",
   "referenced_type" : "_ZTIN4llvm7AlignOfINS_11LLVMContextEE30$Alignment_GreaterEqual_8BytesE",
   "self_type" : "_ZTIN4llvm7AlignOfINS_11LLVMContextEE30$Alignment_GreaterEqual_8BytesE",
   "size" : 4,
   "source_file" : "external/llvm/include/llvm/Support/AlignOf.h",
   "underlying_type" : "_ZTIj"
  },
  {
   "alignment" : 4,
   "enum_fields" :
   [
    {
     "enum_field_value" : 0,
     "name" : "llvm::AlignOf<llvm::LLVMContext>::Alignment_GreaterEqual_16Bytes"
    }
   ],
   "linker_set_key" : "_ZTIN4llvm7AlignOfINS_11LLVMContextEE31$Alignment_GreaterEqual_16BytesE",
   "name" : "llvm::AlignOf<LLVMContext>::(anonymous enum at external/llvm/include/llvm/Support/AlignOf.h:89:3)",
   "referenced_type" : "_ZTIN4llvm7AlignOfINS_11LLVMContextEE31$Alignment_GreaterEqual_16BytesE",
   "self_type" : "_ZTIN4llvm7AlignOfINS_11LLVMContextEE31$Alignment_GreaterEqual_16BytesE",
   "size" : 4,
   "source_file" : "external/llvm/include/llvm/Support/AlignOf.h",
   "underlying_type" : "_ZTIj"
  },
  {
   "alignment" : 4,
   "enum_fields" :
   [
    {
     "enum_field_value" : 0,
     "name" : "llvm::AlignOf<llvm::FunctionType>::Alignment_LessEqual_2Bytes"
    }
   ],
   "linker_set_key" : "_ZTIN4llvm7AlignOfINS_12FunctionTypeEE27$Alignment_LessEqual_2BytesE",
   "name" : "llvm::AlignOf<FunctionType>::(anonymous enum at external/llvm/include/llvm/Support/AlignOf.h:91:3)",
   "referenced_type" : "_ZTIN4llvm7AlignOfINS_12FunctionTypeEE27$Alignment_LessEqual_2BytesE",
   "self_type" : "_ZTIN4llvm7AlignOfINS_12FunctionTypeEE27$Alignment_LessEqual_2BytesE",
   "size" : 4,
   "source_file" : "external/llvm/include/llvm/Support/AlignOf.h",
   "underlying_type" : "_ZTIj"
  },
  {
   "alignment" : 4,
   "enum_fields" :
   [
    {
     "enum_field_value" : 1,
     "name" : "llvm::AlignOf<llvm::FunctionType>::Alignment_LessEqual_4Bytes"
    }
   ],
   "linker_set_key" : "_ZTIN4llvm7AlignOfINS_12FunctionTypeEE27$Alignment_LessEqual_4BytesE",
   "name" : "llvm::AlignOf<FunctionType>::(anonymous enum at external/llvm/include/llvm/Support/AlignOf.h:92:3)",
   "referenced_type" : "_ZTIN4llvm7AlignOfINS_12FunctionTypeEE27$Alignment_LessEqual_4BytesE",
   "self_type" : "_ZTIN4llvm7AlignOfINS_12FunctionTypeEE27$Alignment_LessEqual_4BytesE",
   "size" : 4,
   "source_file" : "external/llvm/include/llvm/Support/AlignOf.h",
   "underlying_type" : "_ZTIj"
  },
  {
   "alignment" : 4,
   "enum_fields" :
   [
    {
     "enum_field_value" : 1,
     "name" : "llvm::AlignOf<llvm::FunctionType>::Alignment_LessEqual_8Bytes"
    }
   ],
   "linker_set_key" : "_ZTIN4llvm7AlignOfINS_12FunctionTypeEE27$Alignment_LessEqual_8BytesE",
   "name" : "llvm::AlignOf<FunctionType>::(anonymous enum at external/llvm/include/llvm/Support/AlignOf.h:93:3)",
   "referenced_type" : "_ZTIN4llvm7AlignOfINS_12FunctionTypeEE27$Alignment_LessEqual_8BytesE",
   "self_type" : "_ZTIN4llvm7AlignOfINS_12FunctionTypeEE27$Alignment_LessEqual_8BytesE",
   "size" : 4,
   "source_file" : "external/llvm/include/llvm/Support/AlignOf.h",
   "underlying_type" : "_ZTIj"
  },
  {
   "alignment" : 4,
   "enum_fields" :
   [
    {
     "enum_field_value" : 1,
     "name" : "llvm::AlignOf<llvm::FunctionType>::Alignment_LessEqual_16Bytes"
    }
   ],
   "linker_set_key" : "_ZTIN4llvm7AlignOfINS_12FunctionTypeEE28$Alignment_LessEqual_16BytesE",
   "name" : "llvm::AlignOf<FunctionType>::(anonymous enum at external/llvm/include/llvm/Support/AlignOf.h:94:3)",
   "referenced_type" : "_ZTIN4llvm7AlignOfINS_12FunctionTypeEE28$Alignment_LessEqual_16BytesE",
   "self_type" : "_ZTIN4llvm7AlignOfINS_12FunctionTypeEE28$Alignment_LessEqual_16BytesE",
   "size" : 4,
   "source_file" : "external/llvm/include/llvm/Support/AlignOf.h",
   "underlying_type" : "_ZTIj"
  },
  {
   "alignment" : 4,
   "enum_fields" :
   [
    {
     "enum_field_value" : 1,
     "name" : "llvm::AlignOf<llvm::FunctionType>::Alignment_GreaterEqual_2Bytes"
    }
   ],
   "linker_set_key" : "_ZTIN4llvm7AlignOfINS_12FunctionTypeEE30$Alignment_GreaterEqual_2BytesE",
   "name" : "llvm::AlignOf<FunctionType>::(anonymous enum at external/llvm/include/llvm/Support/AlignOf.h:86:3)",
   "referenced_type" : "_ZTIN4llvm7AlignOfINS_12FunctionTypeEE30$Alignment_GreaterEqual_2BytesE",
   "self_type" : "_ZTIN4llvm7AlignOfINS_12FunctionTypeEE30$Alignment_GreaterEqual_2BytesE",
   "size" : 4,
   "source_file" : "external/llvm/include/llvm/Support/AlignOf.h",
   "underlying_type" : "_ZTIj"
  },
  {
   "alignment" : 4,
   "enum_fields" :
   [
    {
     "enum_field_value" : 1,
     "name" : "llvm::AlignOf<llvm::FunctionType>::Alignment_GreaterEqual_4Bytes"
    }
   ],
   "linker_set_key" : "_ZTIN4llvm7AlignOfINS_12FunctionTypeEE30$Alignment_GreaterEqual_4BytesE",
   "name" : "llvm::AlignOf<FunctionType>::(anonymous enum at external/llvm/include/llvm/Support/AlignOf.h:87:3)",
   "referenced_type" : "_ZTIN4llvm7AlignOfINS_12FunctionTypeEE30$Alignment_GreaterEqual_4BytesE",
   "self_type" : "_ZTIN4llvm7AlignOfINS_12FunctionTypeEE30$Alignment_GreaterEqual_4BytesE",
   "size" : 4,
   "source_file" : "external/llvm/include/llvm/Support/AlignOf.h",
   "underlying_type" : "_ZTIj"
  },
  {
   "alignment" : 4,
   "enum_fields" :
   [
    {
     "enum_field_value" : 0,
     "name" : "llvm::AlignOf<llvm::FunctionType>::Alignment_GreaterEqual_8Bytes"
    }
   ],
   "linker_set_key" : "_ZTIN4llvm7AlignOfINS_12FunctionTypeEE30$Alignment_GreaterEqual_8BytesE",
   "name" : "llvm::AlignOf<FunctionType>::(anonymous enum at external/llvm/include/llvm/Support/AlignOf.h:88:3)",
   "referenced_type" : "_ZTIN4llvm7AlignOfINS_12FunctionTypeEE30$Alignment_GreaterEqual_8BytesE",
   "self_type" : "_ZTIN4llvm7AlignOfINS_12FunctionTypeEE30$Alignment_GreaterEqual_8BytesE",
   "size" : 4,
   "source_file" : "external/llvm/include/llvm/Support/AlignOf.h",
   "underlying_type" : "_ZTIj"
  },
  {
   "alignment" : 4,
   "enum_fields" :
   [
    {
     "enum_field_value" : 0,
     "name" : "llvm::AlignOf<llvm::FunctionType>::Alignment_GreaterEqual_16Bytes"
    }
   ],
   "linker_set_key" : "_ZTIN4llvm7AlignOfINS_12FunctionTypeEE31$Alignment_GreaterEqual_16BytesE",
   "name" : "llvm::AlignOf<FunctionType>::(anonymous enum at external/llvm/include/llvm/Support/AlignOf.h:89:3)",
   "referenced_type" : "_ZTIN4llvm7AlignOfINS_12FunctionTypeEE31$Alignment_GreaterEqual_16BytesE",
   "self_type" : "_ZTIN4llvm7AlignOfINS_12FunctionTypeEE31$Alignment_GreaterEqual_16BytesE",
   "size" : 4,
   "source_file" : "external/llvm/include/llvm/Support/AlignOf.h",
   "underlying_type" : "_ZTIj"
  },
  {
   "alignment" : 4,
   "enum_fields" :
   [
    {
     "enum_field_value" : 0,
     "name" : "llvm::AlignOf<llvm::MetadataAsValue>::Alignment_LessEqual_2Bytes"
    }
   ],
   "linker_set_key" : "_ZTIN4llvm7AlignOfINS_15MetadataAsValueEE27$Alignment_LessEqual_2BytesE",
   "name" : "llvm::AlignOf<MetadataAsValue>::(anonymous enum at external/llvm/include/llvm/Support/AlignOf.h:91:3)",
   "referenced_type" : "_ZTIN4llvm7AlignOfINS_15MetadataAsValueEE27$Alignment_LessEqual_2BytesE",
   "self_type" : "_ZTIN4llvm7AlignOfINS_15MetadataAsValueEE27$Alignment_LessEqual_2BytesE",
   "size" : 4,
   "source_file" : "external/llvm/include/llvm/Support/AlignOf.h",
   "underlying_type" : "_ZTIj"
  },
  {
   "alignment" : 4,
   "enum_fields" :
   [
    {
     "enum_field_value" : 1,
     "name" : "llvm::AlignOf<llvm::MetadataAsValue>::Alignment_LessEqual_4Bytes"
    }
   ],
   "linker_set_key" : "_ZTIN4llvm7AlignOfINS_15MetadataAsValueEE27$Alignment_LessEqual_4BytesE",
   "name" : "llvm::AlignOf<MetadataAsValue>::(anonymous enum at external/llvm/include/llvm/Support/AlignOf.h:92:3)",
   "referenced_type" : "_ZTIN4llvm7AlignOfINS_15MetadataAsValueEE27$Alignment_LessEqual_4BytesE",
   "self_type" : "_ZTIN4llvm7AlignOfINS_15MetadataAsValueEE27$Alignment_LessEqual_4BytesE",
   "size" : 4,
   "source_file" : "external/llvm/include/llvm/Support/AlignOf.h",
   "underlying_type" : "_ZTIj"
  },
  {
   "alignment" : 4,
   "enum_fields" :
   [
    {
     "enum_field_value" : 1,
     "name" : "llvm::AlignOf<llvm::MetadataAsValue>::Alignment_LessEqual_8Bytes"
    }
   ],
   "linker_set_key" : "_ZTIN4llvm7AlignOfINS_15MetadataAsValueEE27$Alignment_LessEqual_8BytesE",
   "name" : "llvm::AlignOf<MetadataAsValue>::(anonymous enum at external/llvm/include/llvm/Support/AlignOf.h:93:3)",
   "referenced_type" : "_ZTIN4llvm7AlignOfINS_15MetadataAsValueEE27$Alignment_LessEqual_8BytesE",
   "self_type" : "_ZTIN4llvm7AlignOfINS_15MetadataAsValueEE27$Alignment_LessEqual_8BytesE",
   "size" : 4,
   "source_file" : "external/llvm/include/llvm/Support/AlignOf.h",
   "underlying_type" : "_ZTIj"
  },
  {
   "alignment" : 4,
   "enum_fields" :
   [
    {
     "enum_field_value" : 1,
     "name" : "llvm::AlignOf<llvm::MetadataAsValue>::Alignment_LessEqual_16Bytes"
    }
   ],
   "linker_set_key" : "_ZTIN4llvm7AlignOfINS_15MetadataAsValueEE28$Alignment_LessEqual_16BytesE",
   "name" : "llvm::AlignOf<MetadataAsValue>::(anonymous enum at external/llvm/include/llvm/Support/AlignOf.h:94:3)",
   "referenced_type" : "_ZTIN4llvm7AlignOfINS_15MetadataAsValueEE28$Alignment_LessEqual_16BytesE",
   "self_type" : "_ZTIN4llvm7AlignOfINS_15MetadataAsValueEE28$Alignment_LessEqual_16BytesE",
   "size" : 4,
   "source_file" : "external/llvm/include/llvm/Support/AlignOf.h",
   "underlying_type" : "_ZTIj"
  },
  {
   "alignment" : 4,
   "enum_fields" :
   [
    {
     "enum_field_value" : 1,
     "name" : "llvm::AlignOf<llvm::MetadataAsValue>::Alignment_GreaterEqual_2Bytes"
    }
   ],
   "linker_set_key" : "_ZTIN4llvm7AlignOfINS_15MetadataAsValueEE30$Alignment_GreaterEqual_2BytesE",
   "name" : "llvm::AlignOf<MetadataAsValue>::(anonymous enum at external/llvm/include/llvm/Support/AlignOf.h:86:3)",
   "referenced_type" : "_ZTIN4llvm7AlignOfINS_15MetadataAsValueEE30$Alignment_GreaterEqual_2BytesE",
   "self_type" : "_ZTIN4llvm7AlignOfINS_15MetadataAsValueEE30$Alignment_GreaterEqual_2BytesE",
   "size" : 4,
   "source_file" : "external/llvm/include/llvm/Support/AlignOf.h",
   "underlying_type" : "_ZTIj"
  },
  {
   "alignment" : 4,
   "enum_fields" :
   [
    {
     "enum_field_value" : 1,
     "name" : "llvm::AlignOf<llvm::MetadataAsValue>::Alignment_GreaterEqual_4Bytes"
    }
   ],
   "linker_set_key" : "_ZTIN4llvm7AlignOfINS_15MetadataAsValueEE30$Alignment_GreaterEqual_4BytesE",
   "name" : "llvm::AlignOf<MetadataAsValue>::(anonymous enum at external/llvm/include/llvm/Support/AlignOf.h:87:3)",
   "referenced_type" : "_ZTIN4llvm7AlignOfINS_15MetadataAsValueEE30$Alignment_GreaterEqual_4BytesE",
   "self_type" : "_ZTIN4llvm7AlignOfINS_15MetadataAsValueEE30$Alignment_GreaterEqual_4BytesE",
   "size" : 4,
   "source_file" : "external/llvm/include/llvm/Support/AlignOf.h",
   "underlying_type" : "_ZTIj"
  },
  {
   "alignment" : 4,
   "enum_fields" :
   [
    {
     "enum_field_value" : 0,
     "name" : "llvm::AlignOf<llvm::MetadataAsValue>::Alignment_GreaterEqual_8Bytes"
    }
   ],
   "linker_set_key" : "_ZTIN4llvm7AlignOfINS_15MetadataAsValueEE30$Alignment_GreaterEqual_8BytesE",
   "name" : "llvm::AlignOf<MetadataAsValue>::(anonymous enum at external/llvm/include/llvm/Support/AlignOf.h:88:3)",
   "referenced_type" : "_ZTIN4llvm7AlignOfINS_15MetadataAsValueEE30$Alignment_GreaterEqual_8BytesE",
   "self_type" : "_ZTIN4llvm7AlignOfINS_15MetadataAsValueEE30$Alignment_GreaterEqual_8BytesE",
   "size" : 4,
   "source_file" : "external/llvm/include/llvm/Support/AlignOf.h",
   "underlying_type" : "_ZTIj"
  },
  {
   "alignment" : 4,
   "enum_fields" :
   [
    {
     "enum_field_value" : 0,
     "name" : "llvm::AlignOf<llvm::MetadataAsValue>::Alignment_GreaterEqual_16Bytes"
    }
   ],
   "linker_set_key" : "_ZTIN4llvm7AlignOfINS_15MetadataAsValueEE31$Alignment_GreaterEqual_16BytesE",
   "name" : "llvm::AlignOf<MetadataAsValue>::(anonymous enum at external/llvm/include/llvm/Support/AlignOf.h:89:3)",
   "referenced_type" : "_ZTIN4llvm7AlignOfINS_15MetadataAsValueEE31$Alignment_GreaterEqual_16BytesE",
   "self_type" : "_ZTIN4llvm7AlignOfINS_15MetadataAsValueEE31$Alignment_GreaterEqual_16BytesE",
   "size" : 4,
   "source_file" : "external/llvm/include/llvm/Support/AlignOf.h",
   "underlying_type" : "_ZTIj"
  },
  {
   "alignment" : 4,
   "enum_fields" :
   [
    {
     "enum_field_value" : 0,
     "name" : "llvm::AlignOf<llvm::StringMapEntryBase>::Alignment_LessEqual_2Bytes"
    }
   ],
   "linker_set_key" : "_ZTIN4llvm7AlignOfINS_18StringMapEntryBaseEE27$Alignment_LessEqual_2BytesE",
   "name" : "llvm::AlignOf<StringMapEntryBase>::(anonymous enum at external/llvm/include/llvm/Support/AlignOf.h:91:3)",
   "referenced_type" : "_ZTIN4llvm7AlignOfINS_18StringMapEntryBaseEE27$Alignment_LessEqual_2BytesE",
   "self_type" : "_ZTIN4llvm7AlignOfINS_18StringMapEntryBaseEE27$Alignment_LessEqual_2BytesE",
   "size" : 4,
   "source_file" : "external/llvm/include/llvm/Support/AlignOf.h",
   "underlying_type" : "_ZTIj"
  },
  {
   "alignment" : 4,
   "enum_fields" :
   [
    {
     "enum_field_value" : 1,
     "name" : "llvm::AlignOf<llvm::StringMapEntryBase>::Alignment_LessEqual_4Bytes"
    }
   ],
   "linker_set_key" : "_ZTIN4llvm7AlignOfINS_18StringMapEntryBaseEE27$Alignment_LessEqual_4BytesE",
   "name" : "llvm::AlignOf<StringMapEntryBase>::(anonymous enum at external/llvm/include/llvm/Support/AlignOf.h:92:3)",
   "referenced_type" : "_ZTIN4llvm7AlignOfINS_18StringMapEntryBaseEE27$Alignment_LessEqual_4BytesE",
   "self_type" : "_ZTIN4llvm7AlignOfINS_18StringMapEntryBaseEE27$Alignment_LessEqual_4BytesE",
   "size" : 4,
   "source_file" : "external/llvm/include/llvm/Support/AlignOf.h",
   "underlying_type" : "_ZTIj"
  },
  {
   "alignment" : 4,
   "enum_fields" :
   [
    {
     "enum_field_value" : 1,
     "name" : "llvm::AlignOf<llvm::StringMapEntryBase>::Alignment_LessEqual_8Bytes"
    }
   ],
   "linker_set_key" : "_ZTIN4llvm7AlignOfINS_18StringMapEntryBaseEE27$Alignment_LessEqual_8BytesE",
   "name" : "llvm::AlignOf<StringMapEntryBase>::(anonymous enum at external/llvm/include/llvm/Support/AlignOf.h:93:3)",
   "referenced_type" : "_ZTIN4llvm7AlignOfINS_18StringMapEntryBaseEE27$Alignment_LessEqual_8BytesE",
   "self_type" : "_ZTIN4llvm7AlignOfINS_18StringMapEntryBaseEE27$Alignment_LessEqual_8BytesE",
   "size" : 4,
   "source_file" : "external/llvm/include/llvm/Support/AlignOf.h",
   "underlying_type" : "_ZTIj"
  },
  {
   "alignment" : 4,
   "enum_fields" :
   [
    {
     "enum_field_value" : 1,
     "name" : "llvm::AlignOf<llvm::StringMapEntryBase>::Alignment_LessEqual_16Bytes"
    }
   ],
   "linker_set_key" : "_ZTIN4llvm7AlignOfINS_18StringMapEntryBaseEE28$Alignment_LessEqual_16BytesE",
   "name" : "llvm::AlignOf<StringMapEntryBase>::(anonymous enum at external/llvm/include/llvm/Support/AlignOf.h:94:3)",
   "referenced_type" : "_ZTIN4llvm7AlignOfINS_18StringMapEntryBaseEE28$Alignment_LessEqual_16BytesE",
   "self_type" : "_ZTIN4llvm7AlignOfINS_18StringMapEntryBaseEE28$Alignment_LessEqual_16BytesE",
   "size" : 4,
   "source_file" : "external/llvm/include/llvm/Support/AlignOf.h",
   "underlying_type" : "_ZTIj"
  },
  {
   "alignment" : 4,
   "enum_fields" :
   [
    {
     "enum_field_value" : 1,
     "name" : "llvm::AlignOf<llvm::StringMapEntryBase>::Alignment_GreaterEqual_2Bytes"
    }
   ],
   "linker_set_key" : "_ZTIN4llvm7AlignOfINS_18StringMapEntryBaseEE30$Alignment_GreaterEqual_2BytesE",
   "name" : "llvm::AlignOf<StringMapEntryBase>::(anonymous enum at external/llvm/include/llvm/Support/AlignOf.h:86:3)",
   "referenced_type" : "_ZTIN4llvm7AlignOfINS_18StringMapEntryBaseEE30$Alignment_GreaterEqual_2BytesE",
   "self_type" : "_ZTIN4llvm7AlignOfINS_18StringMapEntryBaseEE30$Alignment_GreaterEqual_2BytesE",
   "size" : 4,
   "source_file" : "external/llvm/include/llvm/Support/AlignOf.h",
   "underlying_type" : "_ZTIj"
  },
  {
   "alignment" : 4,
   "enum_fields" :
   [
    {
     "enum_field_value" : 1,
     "name" : "llvm::AlignOf<llvm::StringMapEntryBase>::Alignment_GreaterEqual_4Bytes"
    }
   ],
   "linker_set_key" : "_ZTIN4llvm7AlignOfINS_18StringMapEntryBaseEE30$Alignment_GreaterEqual_4BytesE",
   "name" : "llvm::AlignOf<StringMapEntryBase>::(anonymous enum at external/llvm/include/llvm/Support/AlignOf.h:87:3)",
   "referenced_type" : "_ZTIN4llvm7AlignOfINS_18StringMapEntryBaseEE30$Alignment_GreaterEqual_4BytesE",
   "self_type" : "_ZTIN4llvm7AlignOfINS_18StringMapEntryBaseEE30$Alignment_GreaterEqual_4BytesE",
   "size" : 4,
   "source_file" : "external/llvm/include/llvm/Support/AlignOf.h",
   "underlying_type" : "_ZTIj"
  },
  {
   "alignment" : 4,
   "enum_fields" :
   [
    {
     "enum_field_value" : 0,
     "name" : "llvm::AlignOf<llvm::StringMapEntryBase>::Alignment_GreaterEqual_8Bytes"
    }
   ],
   "linker_set_key" : "_ZTIN4llvm7AlignOfINS_18StringMapEntryBaseEE30$Alignment_GreaterEqual_8BytesE",
   "name" : "llvm::AlignOf<StringMapEntryBase>::(anonymous enum at external/llvm/include/llvm/Support/AlignOf.h:88:3)",
   "referenced_type" : "_ZTIN4llvm7AlignOfINS_18StringMapEntryBaseEE30$Alignment_GreaterEqual_8BytesE",
   "self_type" : "_ZTIN4llvm7AlignOfINS_18StringMapEntryBaseEE30$Alignment_GreaterEqual_8BytesE",
   "size" : 4,
   "source_file" : "external/llvm/include/llvm/Support/AlignOf.h",
   "underlying_type" : "_ZTIj"
  },
  {
   "alignment" : 4,
   "enum_fields" :
   [
    {
     "enum_field_value" : 0,
     "name" : "llvm::AlignOf<llvm::StringMapEntryBase>::Alignment_GreaterEqual_16Bytes"
    }
   ],
   "linker_set_key" : "_ZTIN4llvm7AlignOfINS_18StringMapEntryBaseEE31$Alignment_GreaterEqual_16BytesE",
   "name" : "llvm::AlignOf<StringMapEntryBase>::(anonymous enum at external/llvm/include/llvm/Support/AlignOf.h:89:3)",
   "referenced_type" : "_ZTIN4llvm7AlignOfINS_18StringMapEntryBaseEE31$Alignment_GreaterEqual_16BytesE",
   "self_type" : "_ZTIN4llvm7AlignOfINS_18StringMapEntryBaseEE31$Alignment_GreaterEqual_16BytesE",
   "size" : 4,
   "source_file" : "external/llvm/include/llvm/Support/AlignOf.h",
   "underlying_type" : "_ZTIj"
  },
  {
   "alignment" : 4,
   "enum_fields" :
   [
    {
     "enum_field_value" : 0,
     "name" : "llvm::AlignOf<llvm::ReplaceableMetadataImpl>::Alignment_LessEqual_2Bytes"
    }
   ],
   "linker_set_key" : "_ZTIN4llvm7AlignOfINS_23ReplaceableMetadataImplEE27$Alignment_LessEqual_2BytesE",
   "name" : "llvm::AlignOf<ReplaceableMetadataImpl>::(anonymous enum at external/llvm/include/llvm/Support/AlignOf.h:91:3)",
   "referenced_type" : "_ZTIN4llvm7AlignOfINS_23ReplaceableMetadataImplEE27$Alignment_LessEqual_2BytesE",
   "self_type" : "_ZTIN4llvm7AlignOfINS_23ReplaceableMetadataImplEE27$Alignment_LessEqual_2BytesE",
   "size" : 4,
   "source_file" : "external/llvm/include/llvm/Support/AlignOf.h",
   "underlying_type" : "_ZTIj"
  },
  {
   "alignment" : 4,
   "enum_fields" :
   [
    {
     "enum_field_value" : 0,
     "name" : "llvm::AlignOf<llvm::ReplaceableMetadataImpl>::Alignment_LessEqual_4Bytes"
    }
   ],
   "linker_set_key" : "_ZTIN4llvm7AlignOfINS_23ReplaceableMetadataImplEE27$Alignment_LessEqual_4BytesE",
   "name" : "llvm::AlignOf<ReplaceableMetadataImpl>::(anonymous enum at external/llvm/include/llvm/Support/AlignOf.h:92:3)",
   "referenced_type" : "_ZTIN4llvm7AlignOfINS_23ReplaceableMetadataImplEE27$Alignment_LessEqual_4BytesE",
   "self_type" : "_ZTIN4llvm7AlignOfINS_23ReplaceableMetadataImplEE27$Alignment_LessEqual_4BytesE",
   "size" : 4,
   "source_file" : "external/llvm/include/llvm/Support/AlignOf.h",
   "underlying_type" : "_ZTIj"
  },
  {
   "alignment" : 4,
   "enum_fields" :
   [
    {
     "enum_field_value" : 1,
     "name" : "llvm::AlignOf<llvm::ReplaceableMetadataImpl>::Alignment_LessEqual_8Bytes"
    }
   ],
   "linker_set_key" : "_ZTIN4llvm7AlignOfINS_23ReplaceableMetadataImplEE27$Alignment_LessEqual_8BytesE",
   "name" : "llvm::AlignOf<ReplaceableMetadataImpl>::(anonymous enum at external/llvm/include/llvm/Support/AlignOf.h:93:3)",
   "referenced_type" : "_ZTIN4llvm7AlignOfINS_23ReplaceableMetadataImplEE27$Alignment_LessEqual_8BytesE",
   "self_type" : "_ZTIN4llvm7AlignOfINS_23ReplaceableMetadataImplEE27$Alignment_LessEqual_8BytesE",
   "size" : 4,
   "source_file" : "external/llvm/include/llvm/Support/AlignOf.h",
   "underlying_type" : "_ZTIj"
  },
  {
   "alignment" : 4,
   "enum_fields" :
   [
    {
     "enum_field_value" : 1,
     "name" : "llvm::AlignOf<llvm::ReplaceableMetadataImpl>::Alignment_LessEqual_16Bytes"
    }
   ],
   "linker_set_key" : "_ZTIN4llvm7AlignOfINS_23ReplaceableMetadataImplEE28$Alignment_LessEqual_16BytesE",
   "name" : "llvm::AlignOf<ReplaceableMetadataImpl>::(anonymous enum at external/llvm/include/llvm/Support/AlignOf.h:94:3)",
   "referenced_type" : "_ZTIN4llvm7AlignOfINS_23ReplaceableMetadataImplEE28$Alignment_LessEqual_16BytesE",
   "self_type" : "_ZTIN4llvm7AlignOfINS_23ReplaceableMetadataImplEE28$Alignment_LessEqual_16BytesE",
   "size" : 4,
   "source_file" : "external/llvm/include/llvm/Support/AlignOf.h",
   "underlying_type" : "_ZTIj"
  },
  {
   "alignment" : 4,
   "enum_fields" :
   [
    {
     "enum_field_value" : 1,
     "name" : "llvm::AlignOf<llvm::ReplaceableMetadataImpl>::Alignment_GreaterEqual_2Bytes"
    }
   ],
   "linker_set_key" : "_ZTIN4llvm7AlignOfINS_23ReplaceableMetadataImplEE30$Alignment_GreaterEqual_2BytesE",
   "name" : "llvm::AlignOf<ReplaceableMetadataImpl>::(anonymous enum at external/llvm/include/llvm/Support/AlignOf.h:86:3)",
   "referenced_type" : "_ZTIN4llvm7AlignOfINS_23ReplaceableMetadataImplEE30$Alignment_GreaterEqual_2BytesE",
   "self_type" : "_ZTIN4llvm7AlignOfINS_23ReplaceableMetadataImplEE30$Alignment_GreaterEqual_2BytesE",
   "size" : 4,
   "source_file" : "external/llvm/include/llvm/Support/AlignOf.h",
   "underlying_type" : "_ZTIj"
  },
  {
   "alignment" : 4,
   "enum_fields" :
   [
    {
     "enum_field_value" : 1,
     "name" : "llvm::AlignOf<llvm::ReplaceableMetadataImpl>::Alignment_GreaterEqual_4Bytes"
    }
   ],
   "linker_set_key" : "_ZTIN4llvm7AlignOfINS_23ReplaceableMetadataImplEE30$Alignment_GreaterEqual_4BytesE",
   "name" : "llvm::AlignOf<ReplaceableMetadataImpl>::(anonymous enum at external/llvm/include/llvm/Support/AlignOf.h:87:3)",
   "referenced_type" : "_ZTIN4llvm7AlignOfINS_23ReplaceableMetadataImplEE30$Alignment_GreaterEqual_4BytesE",
   "self_type" : "_ZTIN4llvm7AlignOfINS_23ReplaceableMetadataImplEE30$Alignment_GreaterEqual_4BytesE",
   "size" : 4,
   "source_file" : "external/llvm/include/llvm/Support/AlignOf.h",
   "underlying_type" : "_ZTIj"
  },
  {
   "alignment" : 4,
   "enum_fields" :
   [
    {
     "enum_field_value" : 1,
     "name" : "llvm::AlignOf<llvm::ReplaceableMetadataImpl>::Alignment_GreaterEqual_8Bytes"
    }
   ],
   "linker_set_key" : "_ZTIN4llvm7AlignOfINS_23ReplaceableMetadataImplEE30$Alignment_GreaterEqual_8BytesE",
   "name" : "llvm::AlignOf<ReplaceableMetadataImpl>::(anonymous enum at external/llvm/include/llvm/Support/AlignOf.h:88:3)",
   "referenced_type" : "_ZTIN4llvm7AlignOfINS_23ReplaceableMetadataImplEE30$Alignment_GreaterEqual_8BytesE",
   "self_type" : "_ZTIN4llvm7AlignOfINS_23ReplaceableMetadataImplEE30$Alignment_GreaterEqual_8BytesE",
   "size" : 4,
   "source_file" : "external/llvm/include/llvm/Support/AlignOf.h",
   "underlying_type" : "_ZTIj"
  },
  {
   "alignment" : 4,
   "enum_fields" :
   [
    {
     "enum_field_value" : 0,
     "name" : "llvm::AlignOf<llvm::ReplaceableMetadataImpl>::Alignment_GreaterEqual_16Bytes"
    }
   ],
   "linker_set_key" : "_ZTIN4llvm7AlignOfINS_23ReplaceableMetadataImplEE31$Alignment_GreaterEqual_16BytesE",
   "name" : "llvm::AlignOf<ReplaceableMetadataImpl>::(anonymous enum at external/llvm/include/llvm/Support/AlignOf.h:89:3)",
   "referenced_type" : "_ZTIN4llvm7AlignOfINS_23ReplaceableMetadataImplEE31$Alignment_GreaterEqual_16BytesE",
   "self_type" : "_ZTIN4llvm7AlignOfINS_23ReplaceableMetadataImplEE31$Alignment_GreaterEqual_16BytesE",
   "size" : 4,
   "source_file" : "external/llvm/include/llvm/Support/AlignOf.h",
   "underlying_type" : "_ZTIj"
  },
  {
   "alignment" : 4,
   "enum_fields" :
   [
    {
     "enum_field_value" : 0,
     "name" : "llvm::AlignOf<llvm::cl::SubCommand>::Alignment_LessEqual_2Bytes"
    }
   ],
   "linker_set_key" : "_ZTIN4llvm7AlignOfINS_2cl10SubCommandEE27$Alignment_LessEqual_2BytesE",
   "name" : "llvm::AlignOf<SubCommand>::(anonymous enum at external/llvm/include/llvm/Support/AlignOf.h:91:3)",
   "referenced_type" : "_ZTIN4llvm7AlignOfINS_2cl10SubCommandEE27$Alignment_LessEqual_2BytesE",
   "self_type" : "_ZTIN4llvm7AlignOfINS_2cl10SubCommandEE27$Alignment_LessEqual_2BytesE",
   "size" : 4,
   "source_file" : "external/llvm/include/llvm/Support/AlignOf.h",
   "underlying_type" : "_ZTIj"
  },
  {
   "alignment" : 4,
   "enum_fields" :
   [
    {
     "enum_field_value" : 1,
     "name" : "llvm::AlignOf<llvm::cl::SubCommand>::Alignment_LessEqual_4Bytes"
    }
   ],
   "linker_set_key" : "_ZTIN4llvm7AlignOfINS_2cl10SubCommandEE27$Alignment_LessEqual_4BytesE",
   "name" : "llvm::AlignOf<SubCommand>::(anonymous enum at external/llvm/include/llvm/Support/AlignOf.h:92:3)",
   "referenced_type" : "_ZTIN4llvm7AlignOfINS_2cl10SubCommandEE27$Alignment_LessEqual_4BytesE",
   "self_type" : "_ZTIN4llvm7AlignOfINS_2cl10SubCommandEE27$Alignment_LessEqual_4BytesE",
   "size" : 4,
   "source_file" : "external/llvm/include/llvm/Support/AlignOf.h",
   "underlying_type" : "_ZTIj"
  },
  {
   "alignment" : 4,
   "enum_fields" :
   [
    {
     "enum_field_value" : 1,
     "name" : "llvm::AlignOf<llvm::cl::SubCommand>::Alignment_LessEqual_8Bytes"
    }
   ],
   "linker_set_key" : "_ZTIN4llvm7AlignOfINS_2cl10SubCommandEE27$Alignment_LessEqual_8BytesE",
   "name" : "llvm::AlignOf<SubCommand>::(anonymous enum at external/llvm/include/llvm/Support/AlignOf.h:93:3)",
   "referenced_type" : "_ZTIN4llvm7AlignOfINS_2cl10SubCommandEE27$Alignment_LessEqual_8BytesE",
   "self_type" : "_ZTIN4llvm7AlignOfINS_2cl10SubCommandEE27$Alignment_LessEqual_8BytesE",
   "size" : 4,
   "source_file" : "external/llvm/include/llvm/Support/AlignOf.h",
   "underlying_type" : "_ZTIj"
  },
  {
   "alignment" : 4,
   "enum_fields" :
   [
    {
     "enum_field_value" : 1,
     "name" : "llvm::AlignOf<llvm::cl::SubCommand>::Alignment_LessEqual_16Bytes"
    }
   ],
   "linker_set_key" : "_ZTIN4llvm7AlignOfINS_2cl10SubCommandEE28$Alignment_LessEqual_16BytesE",
   "name" : "llvm::AlignOf<SubCommand>::(anonymous enum at external/llvm/include/llvm/Support/AlignOf.h:94:3)",
   "referenced_type" : "_ZTIN4llvm7AlignOfINS_2cl10SubCommandEE28$Alignment_LessEqual_16BytesE",
   "self_type" : "_ZTIN4llvm7AlignOfINS_2cl10SubCommandEE28$Alignment_LessEqual_16BytesE",
   "size" : 4,
   "source_file" : "external/llvm/include/llvm/Support/AlignOf.h",
   "underlying_type" : "_ZTIj"
  },
  {
   "alignment" : 4,
   "enum_fields" :
   [
    {
     "enum_field_value" : 1,
     "name" : "llvm::AlignOf<llvm::cl::SubCommand>::Alignment_GreaterEqual_2Bytes"
    }
   ],
   "linker_set_key" : "_ZTIN4llvm7AlignOfINS_2cl10SubCommandEE30$Alignment_GreaterEqual_2BytesE",
   "name" : "llvm::AlignOf<SubCommand>::(anonymous enum at external/llvm/include/llvm/Support/AlignOf.h:86:3)",
   "referenced_type" : "_ZTIN4llvm7AlignOfINS_2cl10SubCommandEE30$Alignment_GreaterEqual_2BytesE",
   "self_type" : "_ZTIN4llvm7AlignOfINS_2cl10SubCommandEE30$Alignment_GreaterEqual_2BytesE",
   "size" : 4,
   "source_file" : "external/llvm/include/llvm/Support/AlignOf.h",
   "underlying_type" : "_ZTIj"
  },
  {
   "alignment" : 4,
   "enum_fields" :
   [
    {
     "enum_field_value" : 1,
     "name" : "llvm::AlignOf<llvm::cl::SubCommand>::Alignment_GreaterEqual_4Bytes"
    }
   ],
   "linker_set_key" : "_ZTIN4llvm7AlignOfINS_2cl10SubCommandEE30$Alignment_GreaterEqual_4BytesE",
   "name" : "llvm::AlignOf<SubCommand>::(anonymous enum at external/llvm/include/llvm/Support/AlignOf.h:87:3)",
   "referenced_type" : "_ZTIN4llvm7AlignOfINS_2cl10SubCommandEE30$Alignment_GreaterEqual_4BytesE",
   "self_type" : "_ZTIN4llvm7AlignOfINS_2cl10SubCommandEE30$Alignment_GreaterEqual_4BytesE",
   "size" : 4,
   "source_file" : "external/llvm/include/llvm/Support/AlignOf.h",
   "underlying_type" : "_ZTIj"
  },
  {
   "alignment" : 4,
   "enum_fields" :
   [
    {
     "enum_field_value" : 0,
     "name" : "llvm::AlignOf<llvm::cl::SubCommand>::Alignment_GreaterEqual_8Bytes"
    }
   ],
   "linker_set_key" : "_ZTIN4llvm7AlignOfINS_2cl10SubCommandEE30$Alignment_GreaterEqual_8BytesE",
   "name" : "llvm::AlignOf<SubCommand>::(anonymous enum at external/llvm/include/llvm/Support/AlignOf.h:88:3)",
   "referenced_type" : "_ZTIN4llvm7AlignOfINS_2cl10SubCommandEE30$Alignment_GreaterEqual_8BytesE",
   "self_type" : "_ZTIN4llvm7AlignOfINS_2cl10SubCommandEE30$Alignment_GreaterEqual_8BytesE",
   "size" : 4,
   "source_file" : "external/llvm/include/llvm/Support/AlignOf.h",
   "underlying_type" : "_ZTIj"
  },
  {
   "alignment" : 4,
   "enum_fields" :
   [
    {
     "enum_field_value" : 0,
     "name" : "llvm::AlignOf<llvm::cl::SubCommand>::Alignment_GreaterEqual_16Bytes"
    }
   ],
   "linker_set_key" : "_ZTIN4llvm7AlignOfINS_2cl10SubCommandEE31$Alignment_GreaterEqual_16BytesE",
   "name" : "llvm::AlignOf<SubCommand>::(anonymous enum at external/llvm/include/llvm/Support/AlignOf.h:89:3)",
   "referenced_type" : "_ZTIN4llvm7AlignOfINS_2cl10SubCommandEE31$Alignment_GreaterEqual_16BytesE",
   "self_type" : "_ZTIN4llvm7AlignOfINS_2cl10SubCommandEE31$Alignment_GreaterEqual_16BytesE",
   "size" : 4,
   "source_file" : "external/llvm/include/llvm/Support/AlignOf.h",
   "underlying_type" : "_ZTIj"
  },
  {
   "alignment" : 4,
   "enum_fields" :
   [
    {
     "enum_field_value" : 0,
     "name" : "llvm::AlignOf<llvm::Use>::Alignment_LessEqual_2Bytes"
    }
   ],
   "linker_set_key" : "_ZTIN4llvm7AlignOfINS_3UseEE27$Alignment_LessEqual_2BytesE",
   "name" : "llvm::AlignOf<Use>::(anonymous enum at external/llvm/include/llvm/Support/AlignOf.h:91:3)",
   "referenced_type" : "_ZTIN4llvm7AlignOfINS_3UseEE27$Alignment_LessEqual_2BytesE",
   "self_type" : "_ZTIN4llvm7AlignOfINS_3UseEE27$Alignment_LessEqual_2BytesE",
   "size" : 4,
   "source_file" : "external/llvm/include/llvm/Support/AlignOf.h",
   "underlying_type" : "_ZTIj"
  },
  {
   "alignment" : 4,
   "enum_fields" :
   [
    {
     "enum_field_value" : 1,
     "name" : "llvm::AlignOf<llvm::Use>::Alignment_LessEqual_4Bytes"
    }
   ],
   "linker_set_key" : "_ZTIN4llvm7AlignOfINS_3UseEE27$Alignment_LessEqual_4BytesE",
   "name" : "llvm::AlignOf<Use>::(anonymous enum at external/llvm/include/llvm/Support/AlignOf.h:92:3)",
   "referenced_type" : "_ZTIN4llvm7AlignOfINS_3UseEE27$Alignment_LessEqual_4BytesE",
   "self_type" : "_ZTIN4llvm7AlignOfINS_3UseEE27$Alignment_LessEqual_4BytesE",
   "size" : 4,
   "source_file" : "external/llvm/include/llvm/Support/AlignOf.h",
   "underlying_type" : "_ZTIj"
  },
  {
   "alignment" : 4,
   "enum_fields" :
   [
    {
     "enum_field_value" : 1,
     "name" : "llvm::AlignOf<llvm::Use>::Alignment_LessEqual_8Bytes"
    }
   ],
   "linker_set_key" : "_ZTIN4llvm7AlignOfINS_3UseEE27$Alignment_LessEqual_8BytesE",
   "name" : "llvm::AlignOf<Use>::(anonymous enum at external/llvm/include/llvm/Support/AlignOf.h:93:3)",
   "referenced_type" : "_ZTIN4llvm7AlignOfINS_3UseEE27$Alignment_LessEqual_8BytesE",
   "self_type" : "_ZTIN4llvm7AlignOfINS_3UseEE27$Alignment_LessEqual_8BytesE",
   "size" : 4,
   "source_file" : "external/llvm/include/llvm/Support/AlignOf.h",
   "underlying_type" : "_ZTIj"
  },
  {
   "alignment" : 4,
   "enum_fields" :
   [
    {
     "enum_field_value" : 1,
     "name" : "llvm::AlignOf<llvm::Use>::Alignment_LessEqual_16Bytes"
    }
   ],
   "linker_set_key" : "_ZTIN4llvm7AlignOfINS_3UseEE28$Alignment_LessEqual_16BytesE",
   "name" : "llvm::AlignOf<Use>::(anonymous enum at external/llvm/include/llvm/Support/AlignOf.h:94:3)",
   "referenced_type" : "_ZTIN4llvm7AlignOfINS_3UseEE28$Alignment_LessEqual_16BytesE",
   "self_type" : "_ZTIN4llvm7AlignOfINS_3UseEE28$Alignment_LessEqual_16BytesE",
   "size" : 4,
   "source_file" : "external/llvm/include/llvm/Support/AlignOf.h",
   "underlying_type" : "_ZTIj"
  },
  {
   "alignment" : 4,
   "enum_fields" :
   [
    {
     "enum_field_value" : 1,
     "name" : "llvm::AlignOf<llvm::Use>::Alignment_GreaterEqual_2Bytes"
    }
   ],
   "linker_set_key" : "_ZTIN4llvm7AlignOfINS_3UseEE30$Alignment_GreaterEqual_2BytesE",
   "name" : "llvm::AlignOf<Use>::(anonymous enum at external/llvm/include/llvm/Support/AlignOf.h:86:3)",
   "referenced_type" : "_ZTIN4llvm7AlignOfINS_3UseEE30$Alignment_GreaterEqual_2BytesE",
   "self_type" : "_ZTIN4llvm7AlignOfINS_3UseEE30$Alignment_GreaterEqual_2BytesE",
   "size" : 4,
   "source_file" : "external/llvm/include/llvm/Support/AlignOf.h",
   "underlying_type" : "_ZTIj"
  },
  {
   "alignment" : 4,
   "enum_fields" :
   [
    {
     "enum_field_value" : 1,
     "name" : "llvm::AlignOf<llvm::Use>::Alignment_GreaterEqual_4Bytes"
    }
   ],
   "linker_set_key" : "_ZTIN4llvm7AlignOfINS_3UseEE30$Alignment_GreaterEqual_4BytesE",
   "name" : "llvm::AlignOf<Use>::(anonymous enum at external/llvm/include/llvm/Support/AlignOf.h:87:3)",
   "referenced_type" : "_ZTIN4llvm7AlignOfINS_3UseEE30$Alignment_GreaterEqual_4BytesE",
   "self_type" : "_ZTIN4llvm7AlignOfINS_3UseEE30$Alignment_GreaterEqual_4BytesE",
   "size" : 4,
   "source_file" : "external/llvm/include/llvm/Support/AlignOf.h",
   "underlying_type" : "_ZTIj"
  },
  {
   "alignment" : 4,
   "enum_fields" :
   [
    {
     "enum_field_value" : 0,
     "name" : "llvm::AlignOf<llvm::Use>::Alignment_GreaterEqual_8Bytes"
    }
   ],
   "linker_set_key" : "_ZTIN4llvm7AlignOfINS_3UseEE30$Alignment_GreaterEqual_8BytesE",
   "name" : "llvm::AlignOf<Use>::(anonymous enum at external/llvm/include/llvm/Support/AlignOf.h:88:3)",
   "referenced_type" : "_ZTIN4llvm7AlignOfINS_3UseEE30$Alignment_GreaterEqual_8BytesE",
   "self_type" : "_ZTIN4llvm7AlignOfINS_3UseEE30$Alignment_GreaterEqual_8BytesE",
   "size" : 4,
   "source_file" : "external/llvm/include/llvm/Support/AlignOf.h",
   "underlying_type" : "_ZTIj"
  },
  {
   "alignment" : 4,
   "enum_fields" :
   [
    {
     "enum_field_value" : 0,
     "name" : "llvm::AlignOf<llvm::Use>::Alignment_GreaterEqual_16Bytes"
    }
   ],
   "linker_set_key" : "_ZTIN4llvm7AlignOfINS_3UseEE31$Alignment_GreaterEqual_16BytesE",
   "name" : "llvm::AlignOf<Use>::(anonymous enum at external/llvm/include/llvm/Support/AlignOf.h:89:3)",
   "referenced_type" : "_ZTIN4llvm7AlignOfINS_3UseEE31$Alignment_GreaterEqual_16BytesE",
   "self_type" : "_ZTIN4llvm7AlignOfINS_3UseEE31$Alignment_GreaterEqual_16BytesE",
   "size" : 4,
   "source_file" : "external/llvm/include/llvm/Support/AlignOf.h",
   "underlying_type" : "_ZTIj"
  },
  {
   "alignment" : 4,
   "enum_fields" :
   [
    {
     "enum_field_value" : 0,
     "name" : "llvm::AlignOf<llvm::User>::Alignment_LessEqual_2Bytes"
    }
   ],
   "linker_set_key" : "_ZTIN4llvm7AlignOfINS_4UserEE27$Alignment_LessEqual_2BytesE",
   "name" : "llvm::AlignOf<User>::(anonymous enum at external/llvm/include/llvm/Support/AlignOf.h:91:3)",
   "referenced_type" : "_ZTIN4llvm7AlignOfINS_4UserEE27$Alignment_LessEqual_2BytesE",
   "self_type" : "_ZTIN4llvm7AlignOfINS_4UserEE27$Alignment_LessEqual_2BytesE",
   "size" : 4,
   "source_file" : "external/llvm/include/llvm/Support/AlignOf.h",
   "underlying_type" : "_ZTIj"
  },
  {
   "alignment" : 4,
   "enum_fields" :
   [
    {
     "enum_field_value" : 1,
     "name" : "llvm::AlignOf<llvm::User>::Alignment_LessEqual_4Bytes"
    }
   ],
   "linker_set_key" : "_ZTIN4llvm7AlignOfINS_4UserEE27$Alignment_LessEqual_4BytesE",
   "name" : "llvm::AlignOf<User>::(anonymous enum at external/llvm/include/llvm/Support/AlignOf.h:92:3)",
   "referenced_type" : "_ZTIN4llvm7AlignOfINS_4UserEE27$Alignment_LessEqual_4BytesE",
   "self_type" : "_ZTIN4llvm7AlignOfINS_4UserEE27$Alignment_LessEqual_4BytesE",
   "size" : 4,
   "source_file" : "external/llvm/include/llvm/Support/AlignOf.h",
   "underlying_type" : "_ZTIj"
  },
  {
   "alignment" : 4,
   "enum_fields" :
   [
    {
     "enum_field_value" : 1,
     "name" : "llvm::AlignOf<llvm::User>::Alignment_LessEqual_8Bytes"
    }
   ],
   "linker_set_key" : "_ZTIN4llvm7AlignOfINS_4UserEE27$Alignment_LessEqual_8BytesE",
   "name" : "llvm::AlignOf<User>::(anonymous enum at external/llvm/include/llvm/Support/AlignOf.h:93:3)",
   "referenced_type" : "_ZTIN4llvm7AlignOfINS_4UserEE27$Alignment_LessEqual_8BytesE",
   "self_type" : "_ZTIN4llvm7AlignOfINS_4UserEE27$Alignment_LessEqual_8BytesE",
   "size" : 4,
   "source_file" : "external/llvm/include/llvm/Support/AlignOf.h",
   "underlying_type" : "_ZTIj"
  },
  {
   "alignment" : 4,
   "enum_fields" :
   [
    {
     "enum_field_value" : 1,
     "name" : "llvm::AlignOf<llvm::User>::Alignment_LessEqual_16Bytes"
    }
   ],
   "linker_set_key" : "_ZTIN4llvm7AlignOfINS_4UserEE28$Alignment_LessEqual_16BytesE",
   "name" : "llvm::AlignOf<User>::(anonymous enum at external/llvm/include/llvm/Support/AlignOf.h:94:3)",
   "referenced_type" : "_ZTIN4llvm7AlignOfINS_4UserEE28$Alignment_LessEqual_16BytesE",
   "self_type" : "_ZTIN4llvm7AlignOfINS_4UserEE28$Alignment_LessEqual_16BytesE",
   "size" : 4,
   "source_file" : "external/llvm/include/llvm/Support/AlignOf.h",
   "underlying_type" : "_ZTIj"
  },
  {
   "alignment" : 4,
   "enum_fields" :
   [
    {
     "enum_field_value" : 1,
     "name" : "llvm::AlignOf<llvm::User>::Alignment_GreaterEqual_2Bytes"
    }
   ],
   "linker_set_key" : "_ZTIN4llvm7AlignOfINS_4UserEE30$Alignment_GreaterEqual_2BytesE",
   "name" : "llvm::AlignOf<User>::(anonymous enum at external/llvm/include/llvm/Support/AlignOf.h:86:3)",
   "referenced_type" : "_ZTIN4llvm7AlignOfINS_4UserEE30$Alignment_GreaterEqual_2BytesE",
   "self_type" : "_ZTIN4llvm7AlignOfINS_4UserEE30$Alignment_GreaterEqual_2BytesE",
   "size" : 4,
   "source_file" : "external/llvm/include/llvm/Support/AlignOf.h",
   "underlying_type" : "_ZTIj"
  },
  {
   "alignment" : 4,
   "enum_fields" :
   [
    {
     "enum_field_value" : 1,
     "name" : "llvm::AlignOf<llvm::User>::Alignment_GreaterEqual_4Bytes"
    }
   ],
   "linker_set_key" : "_ZTIN4llvm7AlignOfINS_4UserEE30$Alignment_GreaterEqual_4BytesE",
   "name" : "llvm::AlignOf<User>::(anonymous enum at external/llvm/include/llvm/Support/AlignOf.h:87:3)",
   "referenced_type" : "_ZTIN4llvm7AlignOfINS_4UserEE30$Alignment_GreaterEqual_4BytesE",
   "self_type" : "_ZTIN4llvm7AlignOfINS_4UserEE30$Alignment_GreaterEqual_4BytesE",
   "size" : 4,
   "source_file" : "external/llvm/include/llvm/Support/AlignOf.h",
   "underlying_type" : "_ZTIj"
  },
  {
   "alignment" : 4,
   "enum_fields" :
   [
    {
     "enum_field_value" : 0,
     "name" : "llvm::AlignOf<llvm::User>::Alignment_GreaterEqual_8Bytes"
    }
   ],
   "linker_set_key" : "_ZTIN4llvm7AlignOfINS_4UserEE30$Alignment_GreaterEqual_8BytesE",
   "name" : "llvm::AlignOf<User>::(anonymous enum at external/llvm/include/llvm/Support/AlignOf.h:88:3)",
   "referenced_type" : "_ZTIN4llvm7AlignOfINS_4UserEE30$Alignment_GreaterEqual_8BytesE",
   "self_type" : "_ZTIN4llvm7AlignOfINS_4UserEE30$Alignment_GreaterEqual_8BytesE",
   "size" : 4,
   "source_file" : "external/llvm/include/llvm/Support/AlignOf.h",
   "underlying_type" : "_ZTIj"
  },
  {
   "alignment" : 4,
   "enum_fields" :
   [
    {
     "enum_field_value" : 0,
     "name" : "llvm::AlignOf<llvm::User>::Alignment_GreaterEqual_16Bytes"
    }
   ],
   "linker_set_key" : "_ZTIN4llvm7AlignOfINS_4UserEE31$Alignment_GreaterEqual_16BytesE",
   "name" : "llvm::AlignOf<User>::(anonymous enum at external/llvm/include/llvm/Support/AlignOf.h:89:3)",
   "referenced_type" : "_ZTIN4llvm7AlignOfINS_4UserEE31$Alignment_GreaterEqual_16BytesE",
   "self_type" : "_ZTIN4llvm7AlignOfINS_4UserEE31$Alignment_GreaterEqual_16BytesE",
   "size" : 4,
   "source_file" : "external/llvm/include/llvm/Support/AlignOf.h",
   "underlying_type" : "_ZTIj"
  },
  {
   "alignment" : 4,
   "enum_fields" :
   [
    {
     "enum_field_value" : 0,
     "name" : "llvm::AlignOf<llvm::MDNode>::Alignment_LessEqual_2Bytes"
    }
   ],
   "linker_set_key" : "_ZTIN4llvm7AlignOfINS_6MDNodeEE27$Alignment_LessEqual_2BytesE",
   "name" : "llvm::AlignOf<MDNode>::(anonymous enum at external/llvm/include/llvm/Support/AlignOf.h:91:3)",
   "referenced_type" : "_ZTIN4llvm7AlignOfINS_6MDNodeEE27$Alignment_LessEqual_2BytesE",
   "self_type" : "_ZTIN4llvm7AlignOfINS_6MDNodeEE27$Alignment_LessEqual_2BytesE",
   "size" : 4,
   "source_file" : "external/llvm/include/llvm/Support/AlignOf.h",
   "underlying_type" : "_ZTIj"
  },
  {
   "alignment" : 4,
   "enum_fields" :
   [
    {
     "enum_field_value" : 1,
     "name" : "llvm::AlignOf<llvm::MDNode>::Alignment_LessEqual_4Bytes"
    }
   ],
   "linker_set_key" : "_ZTIN4llvm7AlignOfINS_6MDNodeEE27$Alignment_LessEqual_4BytesE",
   "name" : "llvm::AlignOf<MDNode>::(anonymous enum at external/llvm/include/llvm/Support/AlignOf.h:92:3)",
   "referenced_type" : "_ZTIN4llvm7AlignOfINS_6MDNodeEE27$Alignment_LessEqual_4BytesE",
   "self_type" : "_ZTIN4llvm7AlignOfINS_6MDNodeEE27$Alignment_LessEqual_4BytesE",
   "size" : 4,
   "source_file" : "external/llvm/include/llvm/Support/AlignOf.h",
   "underlying_type" : "_ZTIj"
  },
  {
   "alignment" : 4,
   "enum_fields" :
   [
    {
     "enum_field_value" : 1,
     "name" : "llvm::AlignOf<llvm::MDNode>::Alignment_LessEqual_8Bytes"
    }
   ],
   "linker_set_key" : "_ZTIN4llvm7AlignOfINS_6MDNodeEE27$Alignment_LessEqual_8BytesE",
   "name" : "llvm::AlignOf<MDNode>::(anonymous enum at external/llvm/include/llvm/Support/AlignOf.h:93:3)",
   "referenced_type" : "_ZTIN4llvm7AlignOfINS_6MDNodeEE27$Alignment_LessEqual_8BytesE",
   "self_type" : "_ZTIN4llvm7AlignOfINS_6MDNodeEE27$Alignment_LessEqual_8BytesE",
   "size" : 4,
   "source_file" : "external/llvm/include/llvm/Support/AlignOf.h",
   "underlying_type" : "_ZTIj"
  },
  {
   "alignment" : 4,
   "enum_fields" :
   [
    {
     "enum_field_value" : 1,
     "name" : "llvm::AlignOf<llvm::MDNode>::Alignment_LessEqual_16Bytes"
    }
   ],
   "linker_set_key" : "_ZTIN4llvm7AlignOfINS_6MDNodeEE28$Alignment_LessEqual_16BytesE",
   "name" : "llvm::AlignOf<MDNode>::(anonymous enum at external/llvm/include/llvm/Support/AlignOf.h:94:3)",
   "referenced_type" : "_ZTIN4llvm7AlignOfINS_6MDNodeEE28$Alignment_LessEqual_16BytesE",
   "self_type" : "_ZTIN4llvm7AlignOfINS_6MDNodeEE28$Alignment_LessEqual_16BytesE",
   "size" : 4,
   "source_file" : "external/llvm/include/llvm/Support/AlignOf.h",
   "underlying_type" : "_ZTIj"
  },
  {
   "alignment" : 4,
   "enum_fields" :
   [
    {
     "enum_field_value" : 1,
     "name" : "llvm::AlignOf<llvm::MDNode>::Alignment_GreaterEqual_2Bytes"
    }
   ],
   "linker_set_key" : "_ZTIN4llvm7AlignOfINS_6MDNodeEE30$Alignment_GreaterEqual_2BytesE",
   "name" : "llvm::AlignOf<MDNode>::(anonymous enum at external/llvm/include/llvm/Support/AlignOf.h:86:3)",
   "referenced_type" : "_ZTIN4llvm7AlignOfINS_6MDNodeEE30$Alignment_GreaterEqual_2BytesE",
   "self_type" : "_ZTIN4llvm7AlignOfINS_6MDNodeEE30$Alignment_GreaterEqual_2BytesE",
   "size" : 4,
   "source_file" : "external/llvm/include/llvm/Support/AlignOf.h",
   "underlying_type" : "_ZTIj"
  },
  {
   "alignment" : 4,
   "enum_fields" :
   [
    {
     "enum_field_value" : 1,
     "name" : "llvm::AlignOf<llvm::MDNode>::Alignment_GreaterEqual_4Bytes"
    }
   ],
   "linker_set_key" : "_ZTIN4llvm7AlignOfINS_6MDNodeEE30$Alignment_GreaterEqual_4BytesE",
   "name" : "llvm::AlignOf<MDNode>::(anonymous enum at external/llvm/include/llvm/Support/AlignOf.h:87:3)",
   "referenced_type" : "_ZTIN4llvm7AlignOfINS_6MDNodeEE30$Alignment_GreaterEqual_4BytesE",
   "self_type" : "_ZTIN4llvm7AlignOfINS_6MDNodeEE30$Alignment_GreaterEqual_4BytesE",
   "size" : 4,
   "source_file" : "external/llvm/include/llvm/Support/AlignOf.h",
   "underlying_type" : "_ZTIj"
  },
  {
   "alignment" : 4,
   "enum_fields" :
   [
    {
     "enum_field_value" : 0,
     "name" : "llvm::AlignOf<llvm::MDNode>::Alignment_GreaterEqual_8Bytes"
    }
   ],
   "linker_set_key" : "_ZTIN4llvm7AlignOfINS_6MDNodeEE30$Alignment_GreaterEqual_8BytesE",
   "name" : "llvm::AlignOf<MDNode>::(anonymous enum at external/llvm/include/llvm/Support/AlignOf.h:88:3)",
   "referenced_type" : "_ZTIN4llvm7AlignOfINS_6MDNodeEE30$Alignment_GreaterEqual_8BytesE",
   "self_type" : "_ZTIN4llvm7AlignOfINS_6MDNodeEE30$Alignment_GreaterEqual_8BytesE",
   "size" : 4,
   "source_file" : "external/llvm/include/llvm/Support/AlignOf.h",
   "underlying_type" : "_ZTIj"
  },
  {
   "alignment" : 4,
   "enum_fields" :
   [
    {
     "enum_field_value" : 0,
     "name" : "llvm::AlignOf<llvm::MDNode>::Alignment_GreaterEqual_16Bytes"
    }
   ],
   "linker_set_key" : "_ZTIN4llvm7AlignOfINS_6MDNodeEE31$Alignment_GreaterEqual_16BytesE",
   "name" : "llvm::AlignOf<MDNode>::(anonymous enum at external/llvm/include/llvm/Support/AlignOf.h:89:3)",
   "referenced_type" : "_ZTIN4llvm7AlignOfINS_6MDNodeEE31$Alignment_GreaterEqual_16BytesE",
   "self_type" : "_ZTIN4llvm7AlignOfINS_6MDNodeEE31$Alignment_GreaterEqual_16BytesE",
   "size" : 4,
   "source_file" : "external/llvm/include/llvm/Support/AlignOf.h",
   "underlying_type" : "_ZTIj"
  },
  {
   "alignment" : 4,
   "enum_fields" :
   [
    {
     "enum_field_value" : 0,
     "name" : "llvm::AlignOf<llvm::detail::AlignerImpl<llvm::detail::DenseMapPair<void *, std::__1::pair<llvm::PointerUnion<llvm::MetadataAsValue *, llvm::Metadata *>, unsigned long long>> [4], llvm::SmallDenseMap<void *, std::__1::pair<llvm::PointerUnion<llvm::MetadataAsValue *, llvm::Metadata *>, unsigned long long>, 4, llvm::DenseMapInfo<void *>, llvm::detail::DenseMapPair<void *, std::__1::pair<llvm::PointerUnion<llvm::MetadataAsValue *, llvm::Metadata *>, unsigned long long>>>::LargeRep, char, char, char, char, char, char, char, char>>::Alignment_LessEqual_2Bytes"
    }
   ],
   "linker_set_key" : "_ZTIN4llvm7AlignOfINS_6detail11AlignerImplIA4_NS1_12DenseMapPairIPvNSt3__14pairINS_12PointerUnionIPNS_15MetadataAsValueEPNS_8MetadataEEEyEEEENS_13SmallDenseMapIS4_SD_Lj4ENS_12DenseMapInfoIS4_EESE_E8LargeRepEccccccccEEE27$Alignment_LessEqual_2BytesE",
   "name" : "llvm::AlignOf<AlignerImpl<DenseMapPair<void *, pair<PointerUnion<MetadataAsValue *, Metadata *>, unsigned long long>> [4], LargeRep, char, char, char, char, char, char, char, char>>::(anonymous enum at external/llvm/include/llvm/Support/AlignOf.h:91:3)",
   "referenced_type" : "_ZTIN4llvm7AlignOfINS_6detail11AlignerImplIA4_NS1_12DenseMapPairIPvNSt3__14pairINS_12PointerUnionIPNS_15MetadataAsValueEPNS_8MetadataEEEyEEEENS_13SmallDenseMapIS4_SD_Lj4ENS_12DenseMapInfoIS4_EESE_E8LargeRepEccccccccEEE27$Alignment_LessEqual_2BytesE",
   "self_type" : "_ZTIN4llvm7AlignOfINS_6detail11AlignerImplIA4_NS1_12DenseMapPairIPvNSt3__14pairINS_12PointerUnionIPNS_15MetadataAsValueEPNS_8MetadataEEEyEEEENS_13SmallDenseMapIS4_SD_Lj4ENS_12DenseMapInfoIS4_EESE_E8LargeRepEccccccccEEE27$Alignment_LessEqual_2BytesE",
   "size" : 4,
   "source_file" : "external/llvm/include/llvm/Support/AlignOf.h",
   "underlying_type" : "_ZTIj"
  },
  {
   "alignment" : 4,
   "enum_fields" :
   [
    {
     "enum_field_value" : 0,
     "name" : "llvm::AlignOf<llvm::detail::AlignerImpl<llvm::detail::DenseMapPair<void *, std::__1::pair<llvm::PointerUnion<llvm::MetadataAsValue *, llvm::Metadata *>, unsigned long long>> [4], llvm::SmallDenseMap<void *, std::__1::pair<llvm::PointerUnion<llvm::MetadataAsValue *, llvm::Metadata *>, unsigned long long>, 4, llvm::DenseMapInfo<void *>, llvm::detail::DenseMapPair<void *, std::__1::pair<llvm::PointerUnion<llvm::MetadataAsValue *, llvm::Metadata *>, unsigned long long>>>::LargeRep, char, char, char, char, char, char, char, char>>::Alignment_LessEqual_4Bytes"
    }
   ],
   "linker_set_key" : "_ZTIN4llvm7AlignOfINS_6detail11AlignerImplIA4_NS1_12DenseMapPairIPvNSt3__14pairINS_12PointerUnionIPNS_15MetadataAsValueEPNS_8MetadataEEEyEEEENS_13SmallDenseMapIS4_SD_Lj4ENS_12DenseMapInfoIS4_EESE_E8LargeRepEccccccccEEE27$Alignment_LessEqual_4BytesE",
   "name" : "llvm::AlignOf<AlignerImpl<DenseMapPair<void *, pair<PointerUnion<MetadataAsValue *, Metadata *>, unsigned long long>> [4], LargeRep, char, char, char, char, char, char, char, char>>::(anonymous enum at external/llvm/include/llvm/Support/AlignOf.h:92:3)",
   "referenced_type" : "_ZTIN4llvm7AlignOfINS_6detail11AlignerImplIA4_NS1_12DenseMapPairIPvNSt3__14pairINS_12PointerUnionIPNS_15MetadataAsValueEPNS_8MetadataEEEyEEEENS_13SmallDenseMapIS4_SD_Lj4ENS_12DenseMapInfoIS4_EESE_E8LargeRepEccccccccEEE27$Alignment_LessEqual_4BytesE",
   "self_type" : "_ZTIN4llvm7AlignOfINS_6detail11AlignerImplIA4_NS1_12DenseMapPairIPvNSt3__14pairINS_12PointerUnionIPNS_15MetadataAsValueEPNS_8MetadataEEEyEEEENS_13SmallDenseMapIS4_SD_Lj4ENS_12DenseMapInfoIS4_EESE_E8LargeRepEccccccccEEE27$Alignment_LessEqual_4BytesE",
   "size" : 4,
   "source_file" : "external/llvm/include/llvm/Support/AlignOf.h",
   "underlying_type" : "_ZTIj"
  },
  {
   "alignment" : 4,
   "enum_fields" :
   [
    {
     "enum_field_value" : 1,
     "name" : "llvm::AlignOf<llvm::detail::AlignerImpl<llvm::detail::DenseMapPair<void *, std::__1::pair<llvm::PointerUnion<llvm::MetadataAsValue *, llvm::Metadata *>, unsigned long long>> [4], llvm::SmallDenseMap<void *, std::__1::pair<llvm::PointerUnion<llvm::MetadataAsValue *, llvm::Metadata *>, unsigned long long>, 4, llvm::DenseMapInfo<void *>, llvm::detail::DenseMapPair<void *, std::__1::pair<llvm::PointerUnion<llvm::MetadataAsValue *, llvm::Metadata *>, unsigned long long>>>::LargeRep, char, char, char, char, char, char, char, char>>::Alignment_LessEqual_8Bytes"
    }
   ],
   "linker_set_key" : "_ZTIN4llvm7AlignOfINS_6detail11AlignerImplIA4_NS1_12DenseMapPairIPvNSt3__14pairINS_12PointerUnionIPNS_15MetadataAsValueEPNS_8MetadataEEEyEEEENS_13SmallDenseMapIS4_SD_Lj4ENS_12DenseMapInfoIS4_EESE_E8LargeRepEccccccccEEE27$Alignment_LessEqual_8BytesE",
   "name" : "llvm::AlignOf<AlignerImpl<DenseMapPair<void *, pair<PointerUnion<MetadataAsValue *, Metadata *>, unsigned long long>> [4], LargeRep, char, char, char, char, char, char, char, char>>::(anonymous enum at external/llvm/include/llvm/Support/AlignOf.h:93:3)",
   "referenced_type" : "_ZTIN4llvm7AlignOfINS_6detail11AlignerImplIA4_NS1_12DenseMapPairIPvNSt3__14pairINS_12PointerUnionIPNS_15MetadataAsValueEPNS_8MetadataEEEyEEEENS_13SmallDenseMapIS4_SD_Lj4ENS_12DenseMapInfoIS4_EESE_E8LargeRepEccccccccEEE27$Alignment_LessEqual_8BytesE",
   "self_type" : "_ZTIN4llvm7AlignOfINS_6detail11AlignerImplIA4_NS1_12DenseMapPairIPvNSt3__14pairINS_12PointerUnionIPNS_15MetadataAsValueEPNS_8MetadataEEEyEEEENS_13SmallDenseMapIS4_SD_Lj4ENS_12DenseMapInfoIS4_EESE_E8LargeRepEccccccccEEE27$Alignment_LessEqual_8BytesE",
   "size" : 4,
   "source_file" : "external/llvm/include/llvm/Support/AlignOf.h",
   "underlying_type" : "_ZTIj"
  },
  {
   "alignment" : 4,
   "enum_fields" :
   [
    {
     "enum_field_value" : 1,
     "name" : "llvm::AlignOf<llvm::detail::AlignerImpl<llvm::detail::DenseMapPair<void *, std::__1::pair<llvm::PointerUnion<llvm::MetadataAsValue *, llvm::Metadata *>, unsigned long long>> [4], llvm::SmallDenseMap<void *, std::__1::pair<llvm::PointerUnion<llvm::MetadataAsValue *, llvm::Metadata *>, unsigned long long>, 4, llvm::DenseMapInfo<void *>, llvm::detail::DenseMapPair<void *, std::__1::pair<llvm::PointerUnion<llvm::MetadataAsValue *, llvm::Metadata *>, unsigned long long>>>::LargeRep, char, char, char, char, char, char, char, char>>::Alignment_LessEqual_16Bytes"
    }
   ],
   "linker_set_key" : "_ZTIN4llvm7AlignOfINS_6detail11AlignerImplIA4_NS1_12DenseMapPairIPvNSt3__14pairINS_12PointerUnionIPNS_15MetadataAsValueEPNS_8MetadataEEEyEEEENS_13SmallDenseMapIS4_SD_Lj4ENS_12DenseMapInfoIS4_EESE_E8LargeRepEccccccccEEE28$Alignment_LessEqual_16BytesE",
   "name" : "llvm::AlignOf<AlignerImpl<DenseMapPair<void *, pair<PointerUnion<MetadataAsValue *, Metadata *>, unsigned long long>> [4], LargeRep, char, char, char, char, char, char, char, char>>::(anonymous enum at external/llvm/include/llvm/Support/AlignOf.h:94:3)",
   "referenced_type" : "_ZTIN4llvm7AlignOfINS_6detail11AlignerImplIA4_NS1_12DenseMapPairIPvNSt3__14pairINS_12PointerUnionIPNS_15MetadataAsValueEPNS_8MetadataEEEyEEEENS_13SmallDenseMapIS4_SD_Lj4ENS_12DenseMapInfoIS4_EESE_E8LargeRepEccccccccEEE28$Alignment_LessEqual_16BytesE",
   "self_type" : "_ZTIN4llvm7AlignOfINS_6detail11AlignerImplIA4_NS1_12DenseMapPairIPvNSt3__14pairINS_12PointerUnionIPNS_15MetadataAsValueEPNS_8MetadataEEEyEEEENS_13SmallDenseMapIS4_SD_Lj4ENS_12DenseMapInfoIS4_EESE_E8LargeRepEccccccccEEE28$Alignment_LessEqual_16BytesE",
   "size" : 4,
   "source_file" : "external/llvm/include/llvm/Support/AlignOf.h",
   "underlying_type" : "_ZTIj"
  },
  {
   "alignment" : 4,
   "enum_fields" :
   [
    {
     "enum_field_value" : 1,
     "name" : "llvm::AlignOf<llvm::detail::AlignerImpl<llvm::detail::DenseMapPair<void *, std::__1::pair<llvm::PointerUnion<llvm::MetadataAsValue *, llvm::Metadata *>, unsigned long long>> [4], llvm::SmallDenseMap<void *, std::__1::pair<llvm::PointerUnion<llvm::MetadataAsValue *, llvm::Metadata *>, unsigned long long>, 4, llvm::DenseMapInfo<void *>, llvm::detail::DenseMapPair<void *, std::__1::pair<llvm::PointerUnion<llvm::MetadataAsValue *, llvm::Metadata *>, unsigned long long>>>::LargeRep, char, char, char, char, char, char, char, char>>::Alignment_GreaterEqual_2Bytes"
    }
   ],
   "linker_set_key" : "_ZTIN4llvm7AlignOfINS_6detail11AlignerImplIA4_NS1_12DenseMapPairIPvNSt3__14pairINS_12PointerUnionIPNS_15MetadataAsValueEPNS_8MetadataEEEyEEEENS_13SmallDenseMapIS4_SD_Lj4ENS_12DenseMapInfoIS4_EESE_E8LargeRepEccccccccEEE30$Alignment_GreaterEqual_2BytesE",
   "name" : "llvm::AlignOf<AlignerImpl<DenseMapPair<void *, pair<PointerUnion<MetadataAsValue *, Metadata *>, unsigned long long>> [4], LargeRep, char, char, char, char, char, char, char, char>>::(anonymous enum at external/llvm/include/llvm/Support/AlignOf.h:86:3)",
   "referenced_type" : "_ZTIN4llvm7AlignOfINS_6detail11AlignerImplIA4_NS1_12DenseMapPairIPvNSt3__14pairINS_12PointerUnionIPNS_15MetadataAsValueEPNS_8MetadataEEEyEEEENS_13SmallDenseMapIS4_SD_Lj4ENS_12DenseMapInfoIS4_EESE_E8LargeRepEccccccccEEE30$Alignment_GreaterEqual_2BytesE",
   "self_type" : "_ZTIN4llvm7AlignOfINS_6detail11AlignerImplIA4_NS1_12DenseMapPairIPvNSt3__14pairINS_12PointerUnionIPNS_15MetadataAsValueEPNS_8MetadataEEEyEEEENS_13SmallDenseMapIS4_SD_Lj4ENS_12DenseMapInfoIS4_EESE_E8LargeRepEccccccccEEE30$Alignment_GreaterEqual_2BytesE",
   "size" : 4,
   "source_file" : "external/llvm/include/llvm/Support/AlignOf.h",
   "underlying_type" : "_ZTIj"
  },
  {
   "alignment" : 4,
   "enum_fields" :
   [
    {
     "enum_field_value" : 1,
     "name" : "llvm::AlignOf<llvm::detail::AlignerImpl<llvm::detail::DenseMapPair<void *, std::__1::pair<llvm::PointerUnion<llvm::MetadataAsValue *, llvm::Metadata *>, unsigned long long>> [4], llvm::SmallDenseMap<void *, std::__1::pair<llvm::PointerUnion<llvm::MetadataAsValue *, llvm::Metadata *>, unsigned long long>, 4, llvm::DenseMapInfo<void *>, llvm::detail::DenseMapPair<void *, std::__1::pair<llvm::PointerUnion<llvm::MetadataAsValue *, llvm::Metadata *>, unsigned long long>>>::LargeRep, char, char, char, char, char, char, char, char>>::Alignment_GreaterEqual_4Bytes"
    }
   ],
   "linker_set_key" : "_ZTIN4llvm7AlignOfINS_6detail11AlignerImplIA4_NS1_12DenseMapPairIPvNSt3__14pairINS_12PointerUnionIPNS_15MetadataAsValueEPNS_8MetadataEEEyEEEENS_13SmallDenseMapIS4_SD_Lj4ENS_12DenseMapInfoIS4_EESE_E8LargeRepEccccccccEEE30$Alignment_GreaterEqual_4BytesE",
   "name" : "llvm::AlignOf<AlignerImpl<DenseMapPair<void *, pair<PointerUnion<MetadataAsValue *, Metadata *>, unsigned long long>> [4], LargeRep, char, char, char, char, char, char, char, char>>::(anonymous enum at external/llvm/include/llvm/Support/AlignOf.h:87:3)",
   "referenced_type" : "_ZTIN4llvm7AlignOfINS_6detail11AlignerImplIA4_NS1_12DenseMapPairIPvNSt3__14pairINS_12PointerUnionIPNS_15MetadataAsValueEPNS_8MetadataEEEyEEEENS_13SmallDenseMapIS4_SD_Lj4ENS_12DenseMapInfoIS4_EESE_E8LargeRepEccccccccEEE30$Alignment_GreaterEqual_4BytesE",
   "self_type" : "_ZTIN4llvm7AlignOfINS_6detail11AlignerImplIA4_NS1_12DenseMapPairIPvNSt3__14pairINS_12PointerUnionIPNS_15MetadataAsValueEPNS_8MetadataEEEyEEEENS_13SmallDenseMapIS4_SD_Lj4ENS_12DenseMapInfoIS4_EESE_E8LargeRepEccccccccEEE30$Alignment_GreaterEqual_4BytesE",
   "size" : 4,
   "source_file" : "external/llvm/include/llvm/Support/AlignOf.h",
   "underlying_type" : "_ZTIj"
  },
  {
   "alignment" : 4,
   "enum_fields" :
   [
    {
     "enum_field_value" : 1,
     "name" : "llvm::AlignOf<llvm::detail::AlignerImpl<llvm::detail::DenseMapPair<void *, std::__1::pair<llvm::PointerUnion<llvm::MetadataAsValue *, llvm::Metadata *>, unsigned long long>> [4], llvm::SmallDenseMap<void *, std::__1::pair<llvm::PointerUnion<llvm::MetadataAsValue *, llvm::Metadata *>, unsigned long long>, 4, llvm::DenseMapInfo<void *>, llvm::detail::DenseMapPair<void *, std::__1::pair<llvm::PointerUnion<llvm::MetadataAsValue *, llvm::Metadata *>, unsigned long long>>>::LargeRep, char, char, char, char, char, char, char, char>>::Alignment_GreaterEqual_8Bytes"
    }
   ],
   "linker_set_key" : "_ZTIN4llvm7AlignOfINS_6detail11AlignerImplIA4_NS1_12DenseMapPairIPvNSt3__14pairINS_12PointerUnionIPNS_15MetadataAsValueEPNS_8MetadataEEEyEEEENS_13SmallDenseMapIS4_SD_Lj4ENS_12DenseMapInfoIS4_EESE_E8LargeRepEccccccccEEE30$Alignment_GreaterEqual_8BytesE",
   "name" : "llvm::AlignOf<AlignerImpl<DenseMapPair<void *, pair<PointerUnion<MetadataAsValue *, Metadata *>, unsigned long long>> [4], LargeRep, char, char, char, char, char, char, char, char>>::(anonymous enum at external/llvm/include/llvm/Support/AlignOf.h:88:3)",
   "referenced_type" : "_ZTIN4llvm7AlignOfINS_6detail11AlignerImplIA4_NS1_12DenseMapPairIPvNSt3__14pairINS_12PointerUnionIPNS_15MetadataAsValueEPNS_8MetadataEEEyEEEENS_13SmallDenseMapIS4_SD_Lj4ENS_12DenseMapInfoIS4_EESE_E8LargeRepEccccccccEEE30$Alignment_GreaterEqual_8BytesE",
   "self_type" : "_ZTIN4llvm7AlignOfINS_6detail11AlignerImplIA4_NS1_12DenseMapPairIPvNSt3__14pairINS_12PointerUnionIPNS_15MetadataAsValueEPNS_8MetadataEEEyEEEENS_13SmallDenseMapIS4_SD_Lj4ENS_12DenseMapInfoIS4_EESE_E8LargeRepEccccccccEEE30$Alignment_GreaterEqual_8BytesE",
   "size" : 4,
   "source_file" : "external/llvm/include/llvm/Support/AlignOf.h",
   "underlying_type" : "_ZTIj"
  },
  {
   "alignment" : 4,
   "enum_fields" :
   [
    {
     "enum_field_value" : 0,
     "name" : "llvm::AlignOf<llvm::detail::AlignerImpl<llvm::detail::DenseMapPair<void *, std::__1::pair<llvm::PointerUnion<llvm::MetadataAsValue *, llvm::Metadata *>, unsigned long long>> [4], llvm::SmallDenseMap<void *, std::__1::pair<llvm::PointerUnion<llvm::MetadataAsValue *, llvm::Metadata *>, unsigned long long>, 4, llvm::DenseMapInfo<void *>, llvm::detail::DenseMapPair<void *, std::__1::pair<llvm::PointerUnion<llvm::MetadataAsValue *, llvm::Metadata *>, unsigned long long>>>::LargeRep, char, char, char, char, char, char, char, char>>::Alignment_GreaterEqual_16Bytes"
    }
   ],
   "linker_set_key" : "_ZTIN4llvm7AlignOfINS_6detail11AlignerImplIA4_NS1_12DenseMapPairIPvNSt3__14pairINS_12PointerUnionIPNS_15MetadataAsValueEPNS_8MetadataEEEyEEEENS_13SmallDenseMapIS4_SD_Lj4ENS_12DenseMapInfoIS4_EESE_E8LargeRepEccccccccEEE31$Alignment_GreaterEqual_16BytesE",
   "name" : "llvm::AlignOf<AlignerImpl<DenseMapPair<void *, pair<PointerUnion<MetadataAsValue *, Metadata *>, unsigned long long>> [4], LargeRep, char, char, char, char, char, char, char, char>>::(anonymous enum at external/llvm/include/llvm/Support/AlignOf.h:89:3)",
   "referenced_type" : "_ZTIN4llvm7AlignOfINS_6detail11AlignerImplIA4_NS1_12DenseMapPairIPvNSt3__14pairINS_12PointerUnionIPNS_15MetadataAsValueEPNS_8MetadataEEEyEEEENS_13SmallDenseMapIS4_SD_Lj4ENS_12DenseMapInfoIS4_EESE_E8LargeRepEccccccccEEE31$Alignment_GreaterEqual_16BytesE",
   "self_type" : "_ZTIN4llvm7AlignOfINS_6detail11AlignerImplIA4_NS1_12DenseMapPairIPvNSt3__14pairINS_12PointerUnionIPNS_15MetadataAsValueEPNS_8MetadataEEEyEEEENS_13SmallDenseMapIS4_SD_Lj4ENS_12DenseMapInfoIS4_EESE_E8LargeRepEccccccccEEE31$Alignment_GreaterEqual_16BytesE",
   "size" : 4,
   "source_file" : "external/llvm/include/llvm/Support/AlignOf.h",
   "underlying_type" : "_ZTIj"
  },
  {
   "alignment" : 4,
   "enum_fields" :
   [
    {
     "enum_field_value" : 0,
     "name" : "llvm::AlignOf<llvm::detail::AlignerImpl<llvm::LayoutAlignElem, char, char, char, char, char, char, char, char, char>>::Alignment_LessEqual_2Bytes"
    }
   ],
   "linker_set_key" : "_ZTIN4llvm7AlignOfINS_6detail11AlignerImplINS_15LayoutAlignElemEcccccccccEEE27$Alignment_LessEqual_2BytesE",
   "name" : "llvm::AlignOf<AlignerImpl<LayoutAlignElem, char, char, char, char, char, char, char, char, char>>::(anonymous enum at external/llvm/include/llvm/Support/AlignOf.h:91:3)",
   "referenced_type" : "_ZTIN4llvm7AlignOfINS_6detail11AlignerImplINS_15LayoutAlignElemEcccccccccEEE27$Alignment_LessEqual_2BytesE",
   "self_type" : "_ZTIN4llvm7AlignOfINS_6detail11AlignerImplINS_15LayoutAlignElemEcccccccccEEE27$Alignment_LessEqual_2BytesE",
   "size" : 4,
   "source_file" : "external/llvm/include/llvm/Support/AlignOf.h",
   "underlying_type" : "_ZTIj"
  },
  {
   "alignment" : 4,
   "enum_fields" :
   [
    {
     "enum_field_value" : 1,
     "name" : "llvm::AlignOf<llvm::detail::AlignerImpl<llvm::LayoutAlignElem, char, char, char, char, char, char, char, char, char>>::Alignment_LessEqual_4Bytes"
    }
   ],
   "linker_set_key" : "_ZTIN4llvm7AlignOfINS_6detail11AlignerImplINS_15LayoutAlignElemEcccccccccEEE27$Alignment_LessEqual_4BytesE",
   "name" : "llvm::AlignOf<AlignerImpl<LayoutAlignElem, char, char, char, char, char, char, char, char, char>>::(anonymous enum at external/llvm/include/llvm/Support/AlignOf.h:92:3)",
   "referenced_type" : "_ZTIN4llvm7AlignOfINS_6detail11AlignerImplINS_15LayoutAlignElemEcccccccccEEE27$Alignment_LessEqual_4BytesE",
   "self_type" : "_ZTIN4llvm7AlignOfINS_6detail11AlignerImplINS_15LayoutAlignElemEcccccccccEEE27$Alignment_LessEqual_4BytesE",
   "size" : 4,
   "source_file" : "external/llvm/include/llvm/Support/AlignOf.h",
   "underlying_type" : "_ZTIj"
  },
  {
   "alignment" : 4,
   "enum_fields" :
   [
    {
     "enum_field_value" : 1,
     "name" : "llvm::AlignOf<llvm::detail::AlignerImpl<llvm::LayoutAlignElem, char, char, char, char, char, char, char, char, char>>::Alignment_LessEqual_8Bytes"
    }
   ],
   "linker_set_key" : "_ZTIN4llvm7AlignOfINS_6detail11AlignerImplINS_15LayoutAlignElemEcccccccccEEE27$Alignment_LessEqual_8BytesE",
   "name" : "llvm::AlignOf<AlignerImpl<LayoutAlignElem, char, char, char, char, char, char, char, char, char>>::(anonymous enum at external/llvm/include/llvm/Support/AlignOf.h:93:3)",
   "referenced_type" : "_ZTIN4llvm7AlignOfINS_6detail11AlignerImplINS_15LayoutAlignElemEcccccccccEEE27$Alignment_LessEqual_8BytesE",
   "self_type" : "_ZTIN4llvm7AlignOfINS_6detail11AlignerImplINS_15LayoutAlignElemEcccccccccEEE27$Alignment_LessEqual_8BytesE",
   "size" : 4,
   "source_file" : "external/llvm/include/llvm/Support/AlignOf.h",
   "underlying_type" : "_ZTIj"
  },
  {
   "alignment" : 4,
   "enum_fields" :
   [
    {
     "enum_field_value" : 1,
     "name" : "llvm::AlignOf<llvm::detail::AlignerImpl<llvm::LayoutAlignElem, char, char, char, char, char, char, char, char, char>>::Alignment_LessEqual_16Bytes"
    }
   ],
   "linker_set_key" : "_ZTIN4llvm7AlignOfINS_6detail11AlignerImplINS_15LayoutAlignElemEcccccccccEEE28$Alignment_LessEqual_16BytesE",
   "name" : "llvm::AlignOf<AlignerImpl<LayoutAlignElem, char, char, char, char, char, char, char, char, char>>::(anonymous enum at external/llvm/include/llvm/Support/AlignOf.h:94:3)",
   "referenced_type" : "_ZTIN4llvm7AlignOfINS_6detail11AlignerImplINS_15LayoutAlignElemEcccccccccEEE28$Alignment_LessEqual_16BytesE",
   "self_type" : "_ZTIN4llvm7AlignOfINS_6detail11AlignerImplINS_15LayoutAlignElemEcccccccccEEE28$Alignment_LessEqual_16BytesE",
   "size" : 4,
   "source_file" : "external/llvm/include/llvm/Support/AlignOf.h",
   "underlying_type" : "_ZTIj"
  },
  {
   "alignment" : 4,
   "enum_fields" :
   [
    {
     "enum_field_value" : 1,
     "name" : "llvm::AlignOf<llvm::detail::AlignerImpl<llvm::LayoutAlignElem, char, char, char, char, char, char, char, char, char>>::Alignment_GreaterEqual_2Bytes"
    }
   ],
   "linker_set_key" : "_ZTIN4llvm7AlignOfINS_6detail11AlignerImplINS_15LayoutAlignElemEcccccccccEEE30$Alignment_GreaterEqual_2BytesE",
   "name" : "llvm::AlignOf<AlignerImpl<LayoutAlignElem, char, char, char, char, char, char, char, char, char>>::(anonymous enum at external/llvm/include/llvm/Support/AlignOf.h:86:3)",
   "referenced_type" : "_ZTIN4llvm7AlignOfINS_6detail11AlignerImplINS_15LayoutAlignElemEcccccccccEEE30$Alignment_GreaterEqual_2BytesE",
   "self_type" : "_ZTIN4llvm7AlignOfINS_6detail11AlignerImplINS_15LayoutAlignElemEcccccccccEEE30$Alignment_GreaterEqual_2BytesE",
   "size" : 4,
   "source_file" : "external/llvm/include/llvm/Support/AlignOf.h",
   "underlying_type" : "_ZTIj"
  },
  {
   "alignment" : 4,
   "enum_fields" :
   [
    {
     "enum_field_value" : 1,
     "name" : "llvm::AlignOf<llvm::detail::AlignerImpl<llvm::LayoutAlignElem, char, char, char, char, char, char, char, char, char>>::Alignment_GreaterEqual_4Bytes"
    }
   ],
   "linker_set_key" : "_ZTIN4llvm7AlignOfINS_6detail11AlignerImplINS_15LayoutAlignElemEcccccccccEEE30$Alignment_GreaterEqual_4BytesE",
   "name" : "llvm::AlignOf<AlignerImpl<LayoutAlignElem, char, char, char, char, char, char, char, char, char>>::(anonymous enum at external/llvm/include/llvm/Support/AlignOf.h:87:3)",
   "referenced_type" : "_ZTIN4llvm7AlignOfINS_6detail11AlignerImplINS_15LayoutAlignElemEcccccccccEEE30$Alignment_GreaterEqual_4BytesE",
   "self_type" : "_ZTIN4llvm7AlignOfINS_6detail11AlignerImplINS_15LayoutAlignElemEcccccccccEEE30$Alignment_GreaterEqual_4BytesE",
   "size" : 4,
   "source_file" : "external/llvm/include/llvm/Support/AlignOf.h",
   "underlying_type" : "_ZTIj"
  },
  {
   "alignment" : 4,
   "enum_fields" :
   [
    {
     "enum_field_value" : 0,
     "name" : "llvm::AlignOf<llvm::detail::AlignerImpl<llvm::LayoutAlignElem, char, char, char, char, char, char, char, char, char>>::Alignment_GreaterEqual_8Bytes"
    }
   ],
   "linker_set_key" : "_ZTIN4llvm7AlignOfINS_6detail11AlignerImplINS_15LayoutAlignElemEcccccccccEEE30$Alignment_GreaterEqual_8BytesE",
   "name" : "llvm::AlignOf<AlignerImpl<LayoutAlignElem, char, char, char, char, char, char, char, char, char>>::(anonymous enum at external/llvm/include/llvm/Support/AlignOf.h:88:3)",
   "referenced_type" : "_ZTIN4llvm7AlignOfINS_6detail11AlignerImplINS_15LayoutAlignElemEcccccccccEEE30$Alignment_GreaterEqual_8BytesE",
   "self_type" : "_ZTIN4llvm7AlignOfINS_6detail11AlignerImplINS_15LayoutAlignElemEcccccccccEEE30$Alignment_GreaterEqual_8BytesE",
   "size" : 4,
   "source_file" : "external/llvm/include/llvm/Support/AlignOf.h",
   "underlying_type" : "_ZTIj"
  },
  {
   "alignment" : 4,
   "enum_fields" :
   [
    {
     "enum_field_value" : 0,
     "name" : "llvm::AlignOf<llvm::detail::AlignerImpl<llvm::LayoutAlignElem, char, char, char, char, char, char, char, char, char>>::Alignment_GreaterEqual_16Bytes"
    }
   ],
   "linker_set_key" : "_ZTIN4llvm7AlignOfINS_6detail11AlignerImplINS_15LayoutAlignElemEcccccccccEEE31$Alignment_GreaterEqual_16BytesE",
   "name" : "llvm::AlignOf<AlignerImpl<LayoutAlignElem, char, char, char, char, char, char, char, char, char>>::(anonymous enum at external/llvm/include/llvm/Support/AlignOf.h:89:3)",
   "referenced_type" : "_ZTIN4llvm7AlignOfINS_6detail11AlignerImplINS_15LayoutAlignElemEcccccccccEEE31$Alignment_GreaterEqual_16BytesE",
   "self_type" : "_ZTIN4llvm7AlignOfINS_6detail11AlignerImplINS_15LayoutAlignElemEcccccccccEEE31$Alignment_GreaterEqual_16BytesE",
   "size" : 4,
   "source_file" : "external/llvm/include/llvm/Support/AlignOf.h",
   "underlying_type" : "_ZTIj"
  },
  {
   "alignment" : 4,
   "enum_fields" :
   [
    {
     "enum_field_value" : 0,
     "name" : "llvm::AlignOf<llvm::detail::AlignerImpl<llvm::PointerAlignElem, char, char, char, char, char, char, char, char, char>>::Alignment_LessEqual_2Bytes"
    }
   ],
   "linker_set_key" : "_ZTIN4llvm7AlignOfINS_6detail11AlignerImplINS_16PointerAlignElemEcccccccccEEE27$Alignment_LessEqual_2BytesE",
   "name" : "llvm::AlignOf<AlignerImpl<PointerAlignElem, char, char, char, char, char, char, char, char, char>>::(anonymous enum at external/llvm/include/llvm/Support/AlignOf.h:91:3)",
   "referenced_type" : "_ZTIN4llvm7AlignOfINS_6detail11AlignerImplINS_16PointerAlignElemEcccccccccEEE27$Alignment_LessEqual_2BytesE",
   "self_type" : "_ZTIN4llvm7AlignOfINS_6detail11AlignerImplINS_16PointerAlignElemEcccccccccEEE27$Alignment_LessEqual_2BytesE",
   "size" : 4,
   "source_file" : "external/llvm/include/llvm/Support/AlignOf.h",
   "underlying_type" : "_ZTIj"
  },
  {
   "alignment" : 4,
   "enum_fields" :
   [
    {
     "enum_field_value" : 1,
     "name" : "llvm::AlignOf<llvm::detail::AlignerImpl<llvm::PointerAlignElem, char, char, char, char, char, char, char, char, char>>::Alignment_LessEqual_4Bytes"
    }
   ],
   "linker_set_key" : "_ZTIN4llvm7AlignOfINS_6detail11AlignerImplINS_16PointerAlignElemEcccccccccEEE27$Alignment_LessEqual_4BytesE",
   "name" : "llvm::AlignOf<AlignerImpl<PointerAlignElem, char, char, char, char, char, char, char, char, char>>::(anonymous enum at external/llvm/include/llvm/Support/AlignOf.h:92:3)",
   "referenced_type" : "_ZTIN4llvm7AlignOfINS_6detail11AlignerImplINS_16PointerAlignElemEcccccccccEEE27$Alignment_LessEqual_4BytesE",
   "self_type" : "_ZTIN4llvm7AlignOfINS_6detail11AlignerImplINS_16PointerAlignElemEcccccccccEEE27$Alignment_LessEqual_4BytesE",
   "size" : 4,
   "source_file" : "external/llvm/include/llvm/Support/AlignOf.h",
   "underlying_type" : "_ZTIj"
  },
  {
   "alignment" : 4,
   "enum_fields" :
   [
    {
     "enum_field_value" : 1,
     "name" : "llvm::AlignOf<llvm::detail::AlignerImpl<llvm::PointerAlignElem, char, char, char, char, char, char, char, char, char>>::Alignment_LessEqual_8Bytes"
    }
   ],
   "linker_set_key" : "_ZTIN4llvm7AlignOfINS_6detail11AlignerImplINS_16PointerAlignElemEcccccccccEEE27$Alignment_LessEqual_8BytesE",
   "name" : "llvm::AlignOf<AlignerImpl<PointerAlignElem, char, char, char, char, char, char, char, char, char>>::(anonymous enum at external/llvm/include/llvm/Support/AlignOf.h:93:3)",
   "referenced_type" : "_ZTIN4llvm7AlignOfINS_6detail11AlignerImplINS_16PointerAlignElemEcccccccccEEE27$Alignment_LessEqual_8BytesE",
   "self_type" : "_ZTIN4llvm7AlignOfINS_6detail11AlignerImplINS_16PointerAlignElemEcccccccccEEE27$Alignment_LessEqual_8BytesE",
   "size" : 4,
   "source_file" : "external/llvm/include/llvm/Support/AlignOf.h",
   "underlying_type" : "_ZTIj"
  },
  {
   "alignment" : 4,
   "enum_fields" :
   [
    {
     "enum_field_value" : 1,
     "name" : "llvm::AlignOf<llvm::detail::AlignerImpl<llvm::PointerAlignElem, char, char, char, char, char, char, char, char, char>>::Alignment_LessEqual_16Bytes"
    }
   ],
   "linker_set_key" : "_ZTIN4llvm7AlignOfINS_6detail11AlignerImplINS_16PointerAlignElemEcccccccccEEE28$Alignment_LessEqual_16BytesE",
   "name" : "llvm::AlignOf<AlignerImpl<PointerAlignElem, char, char, char, char, char, char, char, char, char>>::(anonymous enum at external/llvm/include/llvm/Support/AlignOf.h:94:3)",
   "referenced_type" : "_ZTIN4llvm7AlignOfINS_6detail11AlignerImplINS_16PointerAlignElemEcccccccccEEE28$Alignment_LessEqual_16BytesE",
   "self_type" : "_ZTIN4llvm7AlignOfINS_6detail11AlignerImplINS_16PointerAlignElemEcccccccccEEE28$Alignment_LessEqual_16BytesE",
   "size" : 4,
   "source_file" : "external/llvm/include/llvm/Support/AlignOf.h",
   "underlying_type" : "_ZTIj"
  },
  {
   "alignment" : 4,
   "enum_fields" :
   [
    {
     "enum_field_value" : 1,
     "name" : "llvm::AlignOf<llvm::detail::AlignerImpl<llvm::PointerAlignElem, char, char, char, char, char, char, char, char, char>>::Alignment_GreaterEqual_2Bytes"
    }
   ],
   "linker_set_key" : "_ZTIN4llvm7AlignOfINS_6detail11AlignerImplINS_16PointerAlignElemEcccccccccEEE30$Alignment_GreaterEqual_2BytesE",
   "name" : "llvm::AlignOf<AlignerImpl<PointerAlignElem, char, char, char, char, char, char, char, char, char>>::(anonymous enum at external/llvm/include/llvm/Support/AlignOf.h:86:3)",
   "referenced_type" : "_ZTIN4llvm7AlignOfINS_6detail11AlignerImplINS_16PointerAlignElemEcccccccccEEE30$Alignment_GreaterEqual_2BytesE",
   "self_type" : "_ZTIN4llvm7AlignOfINS_6detail11AlignerImplINS_16PointerAlignElemEcccccccccEEE30$Alignment_GreaterEqual_2BytesE",
   "size" : 4,
   "source_file" : "external/llvm/include/llvm/Support/AlignOf.h",
   "underlying_type" : "_ZTIj"
  },
  {
   "alignment" : 4,
   "enum_fields" :
   [
    {
     "enum_field_value" : 1,
     "name" : "llvm::AlignOf<llvm::detail::AlignerImpl<llvm::PointerAlignElem, char, char, char, char, char, char, char, char, char>>::Alignment_GreaterEqual_4Bytes"
    }
   ],
   "linker_set_key" : "_ZTIN4llvm7AlignOfINS_6detail11AlignerImplINS_16PointerAlignElemEcccccccccEEE30$Alignment_GreaterEqual_4BytesE",
   "name" : "llvm::AlignOf<AlignerImpl<PointerAlignElem, char, char, char, char, char, char, char, char, char>>::(anonymous enum at external/llvm/include/llvm/Support/AlignOf.h:87:3)",
   "referenced_type" : "_ZTIN4llvm7AlignOfINS_6detail11AlignerImplINS_16PointerAlignElemEcccccccccEEE30$Alignment_GreaterEqual_4BytesE",
   "self_type" : "_ZTIN4llvm7AlignOfINS_6detail11AlignerImplINS_16PointerAlignElemEcccccccccEEE30$Alignment_GreaterEqual_4BytesE",
   "size" : 4,
   "source_file" : "external/llvm/include/llvm/Support/AlignOf.h",
   "underlying_type" : "_ZTIj"
  },
  {
   "alignment" : 4,
   "enum_fields" :
   [
    {
     "enum_field_value" : 0,
     "name" : "llvm::AlignOf<llvm::detail::AlignerImpl<llvm::PointerAlignElem, char, char, char, char, char, char, char, char, char>>::Alignment_GreaterEqual_8Bytes"
    }
   ],
   "linker_set_key" : "_ZTIN4llvm7AlignOfINS_6detail11AlignerImplINS_16PointerAlignElemEcccccccccEEE30$Alignment_GreaterEqual_8BytesE",
   "name" : "llvm::AlignOf<AlignerImpl<PointerAlignElem, char, char, char, char, char, char, char, char, char>>::(anonymous enum at external/llvm/include/llvm/Support/AlignOf.h:88:3)",
   "referenced_type" : "_ZTIN4llvm7AlignOfINS_6detail11AlignerImplINS_16PointerAlignElemEcccccccccEEE30$Alignment_GreaterEqual_8BytesE",
   "self_type" : "_ZTIN4llvm7AlignOfINS_6detail11AlignerImplINS_16PointerAlignElemEcccccccccEEE30$Alignment_GreaterEqual_8BytesE",
   "size" : 4,
   "source_file" : "external/llvm/include/llvm/Support/AlignOf.h",
   "underlying_type" : "_ZTIj"
  },
  {
   "alignment" : 4,
   "enum_fields" :
   [
    {
     "enum_field_value" : 0,
     "name" : "llvm::AlignOf<llvm::detail::AlignerImpl<llvm::PointerAlignElem, char, char, char, char, char, char, char, char, char>>::Alignment_GreaterEqual_16Bytes"
    }
   ],
   "linker_set_key" : "_ZTIN4llvm7AlignOfINS_6detail11AlignerImplINS_16PointerAlignElemEcccccccccEEE31$Alignment_GreaterEqual_16BytesE",
   "name" : "llvm::AlignOf<AlignerImpl<PointerAlignElem, char, char, char, char, char, char, char, char, char>>::(anonymous enum at external/llvm/include/llvm/Support/AlignOf.h:89:3)",
   "referenced_type" : "_ZTIN4llvm7AlignOfINS_6detail11AlignerImplINS_16PointerAlignElemEcccccccccEEE31$Alignment_GreaterEqual_16BytesE",
   "self_type" : "_ZTIN4llvm7AlignOfINS_6detail11AlignerImplINS_16PointerAlignElemEcccccccccEEE31$Alignment_GreaterEqual_16BytesE",
   "size" : 4,
   "source_file" : "external/llvm/include/llvm/Support/AlignOf.h",
   "underlying_type" : "_ZTIj"
  },
  {
   "alignment" : 4,
   "enum_fields" :
   [
    {
     "enum_field_value" : 0,
     "name" : "llvm::AlignOf<llvm::detail::AlignerImpl<llvm::StringRef, char, char, char, char, char, char, char, char, char>>::Alignment_LessEqual_2Bytes"
    }
   ],
   "linker_set_key" : "_ZTIN4llvm7AlignOfINS_6detail11AlignerImplINS_9StringRefEcccccccccEEE27$Alignment_LessEqual_2BytesE",
   "name" : "llvm::AlignOf<AlignerImpl<StringRef, char, char, char, char, char, char, char, char, char>>::(anonymous enum at external/llvm/include/llvm/Support/AlignOf.h:91:3)",
   "referenced_type" : "_ZTIN4llvm7AlignOfINS_6detail11AlignerImplINS_9StringRefEcccccccccEEE27$Alignment_LessEqual_2BytesE",
   "self_type" : "_ZTIN4llvm7AlignOfINS_6detail11AlignerImplINS_9StringRefEcccccccccEEE27$Alignment_LessEqual_2BytesE",
   "size" : 4,
   "source_file" : "external/llvm/include/llvm/Support/AlignOf.h",
   "underlying_type" : "_ZTIj"
  },
  {
   "alignment" : 4,
   "enum_fields" :
   [
    {
     "enum_field_value" : 1,
     "name" : "llvm::AlignOf<llvm::detail::AlignerImpl<llvm::StringRef, char, char, char, char, char, char, char, char, char>>::Alignment_LessEqual_4Bytes"
    }
   ],
   "linker_set_key" : "_ZTIN4llvm7AlignOfINS_6detail11AlignerImplINS_9StringRefEcccccccccEEE27$Alignment_LessEqual_4BytesE",
   "name" : "llvm::AlignOf<AlignerImpl<StringRef, char, char, char, char, char, char, char, char, char>>::(anonymous enum at external/llvm/include/llvm/Support/AlignOf.h:92:3)",
   "referenced_type" : "_ZTIN4llvm7AlignOfINS_6detail11AlignerImplINS_9StringRefEcccccccccEEE27$Alignment_LessEqual_4BytesE",
   "self_type" : "_ZTIN4llvm7AlignOfINS_6detail11AlignerImplINS_9StringRefEcccccccccEEE27$Alignment_LessEqual_4BytesE",
   "size" : 4,
   "source_file" : "external/llvm/include/llvm/Support/AlignOf.h",
   "underlying_type" : "_ZTIj"
  },
  {
   "alignment" : 4,
   "enum_fields" :
   [
    {
     "enum_field_value" : 1,
     "name" : "llvm::AlignOf<llvm::detail::AlignerImpl<llvm::StringRef, char, char, char, char, char, char, char, char, char>>::Alignment_LessEqual_8Bytes"
    }
   ],
   "linker_set_key" : "_ZTIN4llvm7AlignOfINS_6detail11AlignerImplINS_9StringRefEcccccccccEEE27$Alignment_LessEqual_8BytesE",
   "name" : "llvm::AlignOf<AlignerImpl<StringRef, char, char, char, char, char, char, char, char, char>>::(anonymous enum at external/llvm/include/llvm/Support/AlignOf.h:93:3)",
   "referenced_type" : "_ZTIN4llvm7AlignOfINS_6detail11AlignerImplINS_9StringRefEcccccccccEEE27$Alignment_LessEqual_8BytesE",
   "self_type" : "_ZTIN4llvm7AlignOfINS_6detail11AlignerImplINS_9StringRefEcccccccccEEE27$Alignment_LessEqual_8BytesE",
   "size" : 4,
   "source_file" : "external/llvm/include/llvm/Support/AlignOf.h",
   "underlying_type" : "_ZTIj"
  },
  {
   "alignment" : 4,
   "enum_fields" :
   [
    {
     "enum_field_value" : 1,
     "name" : "llvm::AlignOf<llvm::detail::AlignerImpl<llvm::StringRef, char, char, char, char, char, char, char, char, char>>::Alignment_LessEqual_16Bytes"
    }
   ],
   "linker_set_key" : "_ZTIN4llvm7AlignOfINS_6detail11AlignerImplINS_9StringRefEcccccccccEEE28$Alignment_LessEqual_16BytesE",
   "name" : "llvm::AlignOf<AlignerImpl<StringRef, char, char, char, char, char, char, char, char, char>>::(anonymous enum at external/llvm/include/llvm/Support/AlignOf.h:94:3)",
   "referenced_type" : "_ZTIN4llvm7AlignOfINS_6detail11AlignerImplINS_9StringRefEcccccccccEEE28$Alignment_LessEqual_16BytesE",
   "self_type" : "_ZTIN4llvm7AlignOfINS_6detail11AlignerImplINS_9StringRefEcccccccccEEE28$Alignment_LessEqual_16BytesE",
   "size" : 4,
   "source_file" : "external/llvm/include/llvm/Support/AlignOf.h",
   "underlying_type" : "_ZTIj"
  },
  {
   "alignment" : 4,
   "enum_fields" :
   [
    {
     "enum_field_value" : 1,
     "name" : "llvm::AlignOf<llvm::detail::AlignerImpl<llvm::StringRef, char, char, char, char, char, char, char, char, char>>::Alignment_GreaterEqual_2Bytes"
    }
   ],
   "linker_set_key" : "_ZTIN4llvm7AlignOfINS_6detail11AlignerImplINS_9StringRefEcccccccccEEE30$Alignment_GreaterEqual_2BytesE",
   "name" : "llvm::AlignOf<AlignerImpl<StringRef, char, char, char, char, char, char, char, char, char>>::(anonymous enum at external/llvm/include/llvm/Support/AlignOf.h:86:3)",
   "referenced_type" : "_ZTIN4llvm7AlignOfINS_6detail11AlignerImplINS_9StringRefEcccccccccEEE30$Alignment_GreaterEqual_2BytesE",
   "self_type" : "_ZTIN4llvm7AlignOfINS_6detail11AlignerImplINS_9StringRefEcccccccccEEE30$Alignment_GreaterEqual_2BytesE",
   "size" : 4,
   "source_file" : "external/llvm/include/llvm/Support/AlignOf.h",
   "underlying_type" : "_ZTIj"
  },
  {
   "alignment" : 4,
   "enum_fields" :
   [
    {
     "enum_field_value" : 1,
     "name" : "llvm::AlignOf<llvm::detail::AlignerImpl<llvm::StringRef, char, char, char, char, char, char, char, char, char>>::Alignment_GreaterEqual_4Bytes"
    }
   ],
   "linker_set_key" : "_ZTIN4llvm7AlignOfINS_6detail11AlignerImplINS_9StringRefEcccccccccEEE30$Alignment_GreaterEqual_4BytesE",
   "name" : "llvm::AlignOf<AlignerImpl<StringRef, char, char, char, char, char, char, char, char, char>>::(anonymous enum at external/llvm/include/llvm/Support/AlignOf.h:87:3)",
   "referenced_type" : "_ZTIN4llvm7AlignOfINS_6detail11AlignerImplINS_9StringRefEcccccccccEEE30$Alignment_GreaterEqual_4BytesE",
   "self_type" : "_ZTIN4llvm7AlignOfINS_6detail11AlignerImplINS_9StringRefEcccccccccEEE30$Alignment_GreaterEqual_4BytesE",
   "size" : 4,
   "source_file" : "external/llvm/include/llvm/Support/AlignOf.h",
   "underlying_type" : "_ZTIj"
  },
  {
   "alignment" : 4,
   "enum_fields" :
   [
    {
     "enum_field_value" : 0,
     "name" : "llvm::AlignOf<llvm::detail::AlignerImpl<llvm::StringRef, char, char, char, char, char, char, char, char, char>>::Alignment_GreaterEqual_8Bytes"
    }
   ],
   "linker_set_key" : "_ZTIN4llvm7AlignOfINS_6detail11AlignerImplINS_9StringRefEcccccccccEEE30$Alignment_GreaterEqual_8BytesE",
   "name" : "llvm::AlignOf<AlignerImpl<StringRef, char, char, char, char, char, char, char, char, char>>::(anonymous enum at external/llvm/include/llvm/Support/AlignOf.h:88:3)",
   "referenced_type" : "_ZTIN4llvm7AlignOfINS_6detail11AlignerImplINS_9StringRefEcccccccccEEE30$Alignment_GreaterEqual_8BytesE",
   "self_type" : "_ZTIN4llvm7AlignOfINS_6detail11AlignerImplINS_9StringRefEcccccccccEEE30$Alignment_GreaterEqual_8BytesE",
   "size" : 4,
   "source_file" : "external/llvm/include/llvm/Support/AlignOf.h",
   "underlying_type" : "_ZTIj"
  },
  {
   "alignment" : 4,
   "enum_fields" :
   [
    {
     "enum_field_value" : 0,
     "name" : "llvm::AlignOf<llvm::detail::AlignerImpl<llvm::StringRef, char, char, char, char, char, char, char, char, char>>::Alignment_GreaterEqual_16Bytes"
    }
   ],
   "linker_set_key" : "_ZTIN4llvm7AlignOfINS_6detail11AlignerImplINS_9StringRefEcccccccccEEE31$Alignment_GreaterEqual_16BytesE",
   "name" : "llvm::AlignOf<AlignerImpl<StringRef, char, char, char, char, char, char, char, char, char>>::(anonymous enum at external/llvm/include/llvm/Support/AlignOf.h:89:3)",
   "referenced_type" : "_ZTIN4llvm7AlignOfINS_6detail11AlignerImplINS_9StringRefEcccccccccEEE31$Alignment_GreaterEqual_16BytesE",
   "self_type" : "_ZTIN4llvm7AlignOfINS_6detail11AlignerImplINS_9StringRefEcccccccccEEE31$Alignment_GreaterEqual_16BytesE",
   "size" : 4,
   "source_file" : "external/llvm/include/llvm/Support/AlignOf.h",
   "underlying_type" : "_ZTIj"
  },
  {
   "alignment" : 4,
   "enum_fields" :
   [
    {
     "enum_field_value" : 0,
     "name" : "llvm::AlignOf<llvm::detail::AlignerImpl<std::__1::pair<const char *, std::__1::pair<int, const char *>>, char, char, char, char, char, char, char, char, char>>::Alignment_LessEqual_2Bytes"
    }
   ],
   "linker_set_key" : "_ZTIN4llvm7AlignOfINS_6detail11AlignerImplINSt3__14pairIPKcNS4_IiS6_EEEEcccccccccEEE27$Alignment_LessEqual_2BytesE",
   "name" : "llvm::AlignOf<AlignerImpl<pair<const char *, pair<int, const char *>>, char, char, char, char, char, char, char, char, char>>::(anonymous enum at external/llvm/include/llvm/Support/AlignOf.h:91:3)",
   "referenced_type" : "_ZTIN4llvm7AlignOfINS_6detail11AlignerImplINSt3__14pairIPKcNS4_IiS6_EEEEcccccccccEEE27$Alignment_LessEqual_2BytesE",
   "self_type" : "_ZTIN4llvm7AlignOfINS_6detail11AlignerImplINSt3__14pairIPKcNS4_IiS6_EEEEcccccccccEEE27$Alignment_LessEqual_2BytesE",
   "size" : 4,
   "source_file" : "external/llvm/include/llvm/Support/AlignOf.h",
   "underlying_type" : "_ZTIj"
  },
  {
   "alignment" : 4,
   "enum_fields" :
   [
    {
     "enum_field_value" : 1,
     "name" : "llvm::AlignOf<llvm::detail::AlignerImpl<std::__1::pair<const char *, std::__1::pair<int, const char *>>, char, char, char, char, char, char, char, char, char>>::Alignment_LessEqual_4Bytes"
    }
   ],
   "linker_set_key" : "_ZTIN4llvm7AlignOfINS_6detail11AlignerImplINSt3__14pairIPKcNS4_IiS6_EEEEcccccccccEEE27$Alignment_LessEqual_4BytesE",
   "name" : "llvm::AlignOf<AlignerImpl<pair<const char *, pair<int, const char *>>, char, char, char, char, char, char, char, char, char>>::(anonymous enum at external/llvm/include/llvm/Support/AlignOf.h:92:3)",
   "referenced_type" : "_ZTIN4llvm7AlignOfINS_6detail11AlignerImplINSt3__14pairIPKcNS4_IiS6_EEEEcccccccccEEE27$Alignment_LessEqual_4BytesE",
   "self_type" : "_ZTIN4llvm7AlignOfINS_6detail11AlignerImplINSt3__14pairIPKcNS4_IiS6_EEEEcccccccccEEE27$Alignment_LessEqual_4BytesE",
   "size" : 4,
   "source_file" : "external/llvm/include/llvm/Support/AlignOf.h",
   "underlying_type" : "_ZTIj"
  },
  {
   "alignment" : 4,
   "enum_fields" :
   [
    {
     "enum_field_value" : 1,
     "name" : "llvm::AlignOf<llvm::detail::AlignerImpl<std::__1::pair<const char *, std::__1::pair<int, const char *>>, char, char, char, char, char, char, char, char, char>>::Alignment_LessEqual_8Bytes"
    }
   ],
   "linker_set_key" : "_ZTIN4llvm7AlignOfINS_6detail11AlignerImplINSt3__14pairIPKcNS4_IiS6_EEEEcccccccccEEE27$Alignment_LessEqual_8BytesE",
   "name" : "llvm::AlignOf<AlignerImpl<pair<const char *, pair<int, const char *>>, char, char, char, char, char, char, char, char, char>>::(anonymous enum at external/llvm/include/llvm/Support/AlignOf.h:93:3)",
   "referenced_type" : "_ZTIN4llvm7AlignOfINS_6detail11AlignerImplINSt3__14pairIPKcNS4_IiS6_EEEEcccccccccEEE27$Alignment_LessEqual_8BytesE",
   "self_type" : "_ZTIN4llvm7AlignOfINS_6detail11AlignerImplINSt3__14pairIPKcNS4_IiS6_EEEEcccccccccEEE27$Alignment_LessEqual_8BytesE",
   "size" : 4,
   "source_file" : "external/llvm/include/llvm/Support/AlignOf.h",
   "underlying_type" : "_ZTIj"
  },
  {
   "alignment" : 4,
   "enum_fields" :
   [
    {
     "enum_field_value" : 1,
     "name" : "llvm::AlignOf<llvm::detail::AlignerImpl<std::__1::pair<const char *, std::__1::pair<int, const char *>>, char, char, char, char, char, char, char, char, char>>::Alignment_LessEqual_16Bytes"
    }
   ],
   "linker_set_key" : "_ZTIN4llvm7AlignOfINS_6detail11AlignerImplINSt3__14pairIPKcNS4_IiS6_EEEEcccccccccEEE28$Alignment_LessEqual_16BytesE",
   "name" : "llvm::AlignOf<AlignerImpl<pair<const char *, pair<int, const char *>>, char, char, char, char, char, char, char, char, char>>::(anonymous enum at external/llvm/include/llvm/Support/AlignOf.h:94:3)",
   "referenced_type" : "_ZTIN4llvm7AlignOfINS_6detail11AlignerImplINSt3__14pairIPKcNS4_IiS6_EEEEcccccccccEEE28$Alignment_LessEqual_16BytesE",
   "self_type" : "_ZTIN4llvm7AlignOfINS_6detail11AlignerImplINSt3__14pairIPKcNS4_IiS6_EEEEcccccccccEEE28$Alignment_LessEqual_16BytesE",
   "size" : 4,
   "source_file" : "external/llvm/include/llvm/Support/AlignOf.h",
   "underlying_type" : "_ZTIj"
  },
  {
   "alignment" : 4,
   "enum_fields" :
   [
    {
     "enum_field_value" : 1,
     "name" : "llvm::AlignOf<llvm::detail::AlignerImpl<std::__1::pair<const char *, std::__1::pair<int, const char *>>, char, char, char, char, char, char, char, char, char>>::Alignment_GreaterEqual_2Bytes"
    }
   ],
   "linker_set_key" : "_ZTIN4llvm7AlignOfINS_6detail11AlignerImplINSt3__14pairIPKcNS4_IiS6_EEEEcccccccccEEE30$Alignment_GreaterEqual_2BytesE",
   "name" : "llvm::AlignOf<AlignerImpl<pair<const char *, pair<int, const char *>>, char, char, char, char, char, char, char, char, char>>::(anonymous enum at external/llvm/include/llvm/Support/AlignOf.h:86:3)",
   "referenced_type" : "_ZTIN4llvm7AlignOfINS_6detail11AlignerImplINSt3__14pairIPKcNS4_IiS6_EEEEcccccccccEEE30$Alignment_GreaterEqual_2BytesE",
   "self_type" : "_ZTIN4llvm7AlignOfINS_6detail11AlignerImplINSt3__14pairIPKcNS4_IiS6_EEEEcccccccccEEE30$Alignment_GreaterEqual_2BytesE",
   "size" : 4,
   "source_file" : "external/llvm/include/llvm/Support/AlignOf.h",
   "underlying_type" : "_ZTIj"
  },
  {
   "alignment" : 4,
   "enum_fields" :
   [
    {
     "enum_field_value" : 1,
     "name" : "llvm::AlignOf<llvm::detail::AlignerImpl<std::__1::pair<const char *, std::__1::pair<int, const char *>>, char, char, char, char, char, char, char, char, char>>::Alignment_GreaterEqual_4Bytes"
    }
   ],
   "linker_set_key" : "_ZTIN4llvm7AlignOfINS_6detail11AlignerImplINSt3__14pairIPKcNS4_IiS6_EEEEcccccccccEEE30$Alignment_GreaterEqual_4BytesE",
   "name" : "llvm::AlignOf<AlignerImpl<pair<const char *, pair<int, const char *>>, char, char, char, char, char, char, char, char, char>>::(anonymous enum at external/llvm/include/llvm/Support/AlignOf.h:87:3)",
   "referenced_type" : "_ZTIN4llvm7AlignOfINS_6detail11AlignerImplINSt3__14pairIPKcNS4_IiS6_EEEEcccccccccEEE30$Alignment_GreaterEqual_4BytesE",
   "self_type" : "_ZTIN4llvm7AlignOfINS_6detail11AlignerImplINSt3__14pairIPKcNS4_IiS6_EEEEcccccccccEEE30$Alignment_GreaterEqual_4BytesE",
   "size" : 4,
   "source_file" : "external/llvm/include/llvm/Support/AlignOf.h",
   "underlying_type" : "_ZTIj"
  },
  {
   "alignment" : 4,
   "enum_fields" :
   [
    {
     "enum_field_value" : 0,
     "name" : "llvm::AlignOf<llvm::detail::AlignerImpl<std::__1::pair<const char *, std::__1::pair<int, const char *>>, char, char, char, char, char, char, char, char, char>>::Alignment_GreaterEqual_8Bytes"
    }
   ],
   "linker_set_key" : "_ZTIN4llvm7AlignOfINS_6detail11AlignerImplINSt3__14pairIPKcNS4_IiS6_EEEEcccccccccEEE30$Alignment_GreaterEqual_8BytesE",
   "name" : "llvm::AlignOf<AlignerImpl<pair<const char *, pair<int, const char *>>, char, char, char, char, char, char, char, char, char>>::(anonymous enum at external/llvm/include/llvm/Support/AlignOf.h:88:3)",
   "referenced_type" : "_ZTIN4llvm7AlignOfINS_6detail11AlignerImplINSt3__14pairIPKcNS4_IiS6_EEEEcccccccccEEE30$Alignment_GreaterEqual_8BytesE",
   "self_type" : "_ZTIN4llvm7AlignOfINS_6detail11AlignerImplINSt3__14pairIPKcNS4_IiS6_EEEEcccccccccEEE30$Alignment_GreaterEqual_8BytesE",
   "size" : 4,
   "source_file" : "external/llvm/include/llvm/Support/AlignOf.h",
   "underlying_type" : "_ZTIj"
  },
  {
   "alignment" : 4,
   "enum_fields" :
   [
    {
     "enum_field_value" : 0,
     "name" : "llvm::AlignOf<llvm::detail::AlignerImpl<std::__1::pair<const char *, std::__1::pair<int, const char *>>, char, char, char, char, char, char, char, char, char>>::Alignment_GreaterEqual_16Bytes"
    }
   ],
   "linker_set_key" : "_ZTIN4llvm7AlignOfINS_6detail11AlignerImplINSt3__14pairIPKcNS4_IiS6_EEEEcccccccccEEE31$Alignment_GreaterEqual_16BytesE",
   "name" : "llvm::AlignOf<AlignerImpl<pair<const char *, pair<int, const char *>>, char, char, char, char, char, char, char, char, char>>::(anonymous enum at external/llvm/include/llvm/Support/AlignOf.h:89:3)",
   "referenced_type" : "_ZTIN4llvm7AlignOfINS_6detail11AlignerImplINSt3__14pairIPKcNS4_IiS6_EEEEcccccccccEEE31$Alignment_GreaterEqual_16BytesE",
   "self_type" : "_ZTIN4llvm7AlignOfINS_6detail11AlignerImplINSt3__14pairIPKcNS4_IiS6_EEEEcccccccccEEE31$Alignment_GreaterEqual_16BytesE",
   "size" : 4,
   "source_file" : "external/llvm/include/llvm/Support/AlignOf.h",
   "underlying_type" : "_ZTIj"
  },
  {
   "alignment" : 4,
   "enum_fields" :
   [
    {
     "enum_field_value" : 0,
     "name" : "llvm::AlignOf<llvm::detail::AlignerImpl<std::__1::pair<void *, unsigned int>, char, char, char, char, char, char, char, char, char>>::Alignment_LessEqual_2Bytes"
    }
   ],
   "linker_set_key" : "_ZTIN4llvm7AlignOfINS_6detail11AlignerImplINSt3__14pairIPvjEEcccccccccEEE27$Alignment_LessEqual_2BytesE",
   "name" : "llvm::AlignOf<AlignerImpl<pair<void *, unsigned int>, char, char, char, char, char, char, char, char, char>>::(anonymous enum at external/llvm/include/llvm/Support/AlignOf.h:91:3)",
   "referenced_type" : "_ZTIN4llvm7AlignOfINS_6detail11AlignerImplINSt3__14pairIPvjEEcccccccccEEE27$Alignment_LessEqual_2BytesE",
   "self_type" : "_ZTIN4llvm7AlignOfINS_6detail11AlignerImplINSt3__14pairIPvjEEcccccccccEEE27$Alignment_LessEqual_2BytesE",
   "size" : 4,
   "source_file" : "external/llvm/include/llvm/Support/AlignOf.h",
   "underlying_type" : "_ZTIj"
  },
  {
   "alignment" : 4,
   "enum_fields" :
   [
    {
     "enum_field_value" : 1,
     "name" : "llvm::AlignOf<llvm::detail::AlignerImpl<std::__1::pair<void *, unsigned int>, char, char, char, char, char, char, char, char, char>>::Alignment_LessEqual_4Bytes"
    }
   ],
   "linker_set_key" : "_ZTIN4llvm7AlignOfINS_6detail11AlignerImplINSt3__14pairIPvjEEcccccccccEEE27$Alignment_LessEqual_4BytesE",
   "name" : "llvm::AlignOf<AlignerImpl<pair<void *, unsigned int>, char, char, char, char, char, char, char, char, char>>::(anonymous enum at external/llvm/include/llvm/Support/AlignOf.h:92:3)",
   "referenced_type" : "_ZTIN4llvm7AlignOfINS_6detail11AlignerImplINSt3__14pairIPvjEEcccccccccEEE27$Alignment_LessEqual_4BytesE",
   "self_type" : "_ZTIN4llvm7AlignOfINS_6detail11AlignerImplINSt3__14pairIPvjEEcccccccccEEE27$Alignment_LessEqual_4BytesE",
   "size" : 4,
   "source_file" : "external/llvm/include/llvm/Support/AlignOf.h",
   "underlying_type" : "_ZTIj"
  },
  {
   "alignment" : 4,
   "enum_fields" :
   [
    {
     "enum_field_value" : 1,
     "name" : "llvm::AlignOf<llvm::detail::AlignerImpl<std::__1::pair<void *, unsigned int>, char, char, char, char, char, char, char, char, char>>::Alignment_LessEqual_8Bytes"
    }
   ],
   "linker_set_key" : "_ZTIN4llvm7AlignOfINS_6detail11AlignerImplINSt3__14pairIPvjEEcccccccccEEE27$Alignment_LessEqual_8BytesE",
   "name" : "llvm::AlignOf<AlignerImpl<pair<void *, unsigned int>, char, char, char, char, char, char, char, char, char>>::(anonymous enum at external/llvm/include/llvm/Support/AlignOf.h:93:3)",
   "referenced_type" : "_ZTIN4llvm7AlignOfINS_6detail11AlignerImplINSt3__14pairIPvjEEcccccccccEEE27$Alignment_LessEqual_8BytesE",
   "self_type" : "_ZTIN4llvm7AlignOfINS_6detail11AlignerImplINSt3__14pairIPvjEEcccccccccEEE27$Alignment_LessEqual_8BytesE",
   "size" : 4,
   "source_file" : "external/llvm/include/llvm/Support/AlignOf.h",
   "underlying_type" : "_ZTIj"
  },
  {
   "alignment" : 4,
   "enum_fields" :
   [
    {
     "enum_field_value" : 1,
     "name" : "llvm::AlignOf<llvm::detail::AlignerImpl<std::__1::pair<void *, unsigned int>, char, char, char, char, char, char, char, char, char>>::Alignment_LessEqual_16Bytes"
    }
   ],
   "linker_set_key" : "_ZTIN4llvm7AlignOfINS_6detail11AlignerImplINSt3__14pairIPvjEEcccccccccEEE28$Alignment_LessEqual_16BytesE",
   "name" : "llvm::AlignOf<AlignerImpl<pair<void *, unsigned int>, char, char, char, char, char, char, char, char, char>>::(anonymous enum at external/llvm/include/llvm/Support/AlignOf.h:94:3)",
   "referenced_type" : "_ZTIN4llvm7AlignOfINS_6detail11AlignerImplINSt3__14pairIPvjEEcccccccccEEE28$Alignment_LessEqual_16BytesE",
   "self_type" : "_ZTIN4llvm7AlignOfINS_6detail11AlignerImplINSt3__14pairIPvjEEcccccccccEEE28$Alignment_LessEqual_16BytesE",
   "size" : 4,
   "source_file" : "external/llvm/include/llvm/Support/AlignOf.h",
   "underlying_type" : "_ZTIj"
  },
  {
   "alignment" : 4,
   "enum_fields" :
   [
    {
     "enum_field_value" : 1,
     "name" : "llvm::AlignOf<llvm::detail::AlignerImpl<std::__1::pair<void *, unsigned int>, char, char, char, char, char, char, char, char, char>>::Alignment_GreaterEqual_2Bytes"
    }
   ],
   "linker_set_key" : "_ZTIN4llvm7AlignOfINS_6detail11AlignerImplINSt3__14pairIPvjEEcccccccccEEE30$Alignment_GreaterEqual_2BytesE",
   "name" : "llvm::AlignOf<AlignerImpl<pair<void *, unsigned int>, char, char, char, char, char, char, char, char, char>>::(anonymous enum at external/llvm/include/llvm/Support/AlignOf.h:86:3)",
   "referenced_type" : "_ZTIN4llvm7AlignOfINS_6detail11AlignerImplINSt3__14pairIPvjEEcccccccccEEE30$Alignment_GreaterEqual_2BytesE",
   "self_type" : "_ZTIN4llvm7AlignOfINS_6detail11AlignerImplINSt3__14pairIPvjEEcccccccccEEE30$Alignment_GreaterEqual_2BytesE",
   "size" : 4,
   "source_file" : "external/llvm/include/llvm/Support/AlignOf.h",
   "underlying_type" : "_ZTIj"
  },
  {
   "alignment" : 4,
   "enum_fields" :
   [
    {
     "enum_field_value" : 1,
     "name" : "llvm::AlignOf<llvm::detail::AlignerImpl<std::__1::pair<void *, unsigned int>, char, char, char, char, char, char, char, char, char>>::Alignment_GreaterEqual_4Bytes"
    }
   ],
   "linker_set_key" : "_ZTIN4llvm7AlignOfINS_6detail11AlignerImplINSt3__14pairIPvjEEcccccccccEEE30$Alignment_GreaterEqual_4BytesE",
   "name" : "llvm::AlignOf<AlignerImpl<pair<void *, unsigned int>, char, char, char, char, char, char, char, char, char>>::(anonymous enum at external/llvm/include/llvm/Support/AlignOf.h:87:3)",
   "referenced_type" : "_ZTIN4llvm7AlignOfINS_6detail11AlignerImplINSt3__14pairIPvjEEcccccccccEEE30$Alignment_GreaterEqual_4BytesE",
   "self_type" : "_ZTIN4llvm7AlignOfINS_6detail11AlignerImplINSt3__14pairIPvjEEcccccccccEEE30$Alignment_GreaterEqual_4BytesE",
   "size" : 4,
   "source_file" : "external/llvm/include/llvm/Support/AlignOf.h",
   "underlying_type" : "_ZTIj"
  },
  {
   "alignment" : 4,
   "enum_fields" :
   [
    {
     "enum_field_value" : 0,
     "name" : "llvm::AlignOf<llvm::detail::AlignerImpl<std::__1::pair<void *, unsigned int>, char, char, char, char, char, char, char, char, char>>::Alignment_GreaterEqual_8Bytes"
    }
   ],
   "linker_set_key" : "_ZTIN4llvm7AlignOfINS_6detail11AlignerImplINSt3__14pairIPvjEEcccccccccEEE30$Alignment_GreaterEqual_8BytesE",
   "name" : "llvm::AlignOf<AlignerImpl<pair<void *, unsigned int>, char, char, char, char, char, char, char, char, char>>::(anonymous enum at external/llvm/include/llvm/Support/AlignOf.h:88:3)",
   "referenced_type" : "_ZTIN4llvm7AlignOfINS_6detail11AlignerImplINSt3__14pairIPvjEEcccccccccEEE30$Alignment_GreaterEqual_8BytesE",
   "self_type" : "_ZTIN4llvm7AlignOfINS_6detail11AlignerImplINSt3__14pairIPvjEEcccccccccEEE30$Alignment_GreaterEqual_8BytesE",
   "size" : 4,
   "source_file" : "external/llvm/include/llvm/Support/AlignOf.h",
   "underlying_type" : "_ZTIj"
  },
  {
   "alignment" : 4,
   "enum_fields" :
   [
    {
     "enum_field_value" : 0,
     "name" : "llvm::AlignOf<llvm::detail::AlignerImpl<std::__1::pair<void *, unsigned int>, char, char, char, char, char, char, char, char, char>>::Alignment_GreaterEqual_16Bytes"
    }
   ],
   "linker_set_key" : "_ZTIN4llvm7AlignOfINS_6detail11AlignerImplINSt3__14pairIPvjEEcccccccccEEE31$Alignment_GreaterEqual_16BytesE",
   "name" : "llvm::AlignOf<AlignerImpl<pair<void *, unsigned int>, char, char, char, char, char, char, char, char, char>>::(anonymous enum at external/llvm/include/llvm/Support/AlignOf.h:89:3)",
   "referenced_type" : "_ZTIN4llvm7AlignOfINS_6detail11AlignerImplINSt3__14pairIPvjEEcccccccccEEE31$Alignment_GreaterEqual_16BytesE",
   "self_type" : "_ZTIN4llvm7AlignOfINS_6detail11AlignerImplINSt3__14pairIPvjEEcccccccccEEE31$Alignment_GreaterEqual_16BytesE",
   "size" : 4,
   "source_file" : "external/llvm/include/llvm/Support/AlignOf.h",
   "underlying_type" : "_ZTIj"
  },
  {
   "alignment" : 4,
   "enum_fields" :
   [
    {
     "enum_field_value" : 0,
     "name" : "llvm::AlignOf<llvm::detail::AlignerImpl<const void *, char, char, char, char, char, char, char, char, char>>::Alignment_LessEqual_2Bytes"
    }
   ],
   "linker_set_key" : "_ZTIN4llvm7AlignOfINS_6detail11AlignerImplIPKvcccccccccEEE27$Alignment_LessEqual_2BytesE",
   "name" : "llvm::AlignOf<AlignerImpl<const void *, char, char, char, char, char, char, char, char, char>>::(anonymous enum at external/llvm/include/llvm/Support/AlignOf.h:91:3)",
   "referenced_type" : "_ZTIN4llvm7AlignOfINS_6detail11AlignerImplIPKvcccccccccEEE27$Alignment_LessEqual_2BytesE",
   "self_type" : "_ZTIN4llvm7AlignOfINS_6detail11AlignerImplIPKvcccccccccEEE27$Alignment_LessEqual_2BytesE",
   "size" : 4,
   "source_file" : "external/llvm/include/llvm/Support/AlignOf.h",
   "underlying_type" : "_ZTIj"
  },
  {
   "alignment" : 4,
   "enum_fields" :
   [
    {
     "enum_field_value" : 1,
     "name" : "llvm::AlignOf<llvm::detail::AlignerImpl<const void *, char, char, char, char, char, char, char, char, char>>::Alignment_LessEqual_4Bytes"
    }
   ],
   "linker_set_key" : "_ZTIN4llvm7AlignOfINS_6detail11AlignerImplIPKvcccccccccEEE27$Alignment_LessEqual_4BytesE",
   "name" : "llvm::AlignOf<AlignerImpl<const void *, char, char, char, char, char, char, char, char, char>>::(anonymous enum at external/llvm/include/llvm/Support/AlignOf.h:92:3)",
   "referenced_type" : "_ZTIN4llvm7AlignOfINS_6detail11AlignerImplIPKvcccccccccEEE27$Alignment_LessEqual_4BytesE",
   "self_type" : "_ZTIN4llvm7AlignOfINS_6detail11AlignerImplIPKvcccccccccEEE27$Alignment_LessEqual_4BytesE",
   "size" : 4,
   "source_file" : "external/llvm/include/llvm/Support/AlignOf.h",
   "underlying_type" : "_ZTIj"
  },
  {
   "alignment" : 4,
   "enum_fields" :
   [
    {
     "enum_field_value" : 1,
     "name" : "llvm::AlignOf<llvm::detail::AlignerImpl<const void *, char, char, char, char, char, char, char, char, char>>::Alignment_LessEqual_8Bytes"
    }
   ],
   "linker_set_key" : "_ZTIN4llvm7AlignOfINS_6detail11AlignerImplIPKvcccccccccEEE27$Alignment_LessEqual_8BytesE",
   "name" : "llvm::AlignOf<AlignerImpl<const void *, char, char, char, char, char, char, char, char, char>>::(anonymous enum at external/llvm/include/llvm/Support/AlignOf.h:93:3)",
   "referenced_type" : "_ZTIN4llvm7AlignOfINS_6detail11AlignerImplIPKvcccccccccEEE27$Alignment_LessEqual_8BytesE",
   "self_type" : "_ZTIN4llvm7AlignOfINS_6detail11AlignerImplIPKvcccccccccEEE27$Alignment_LessEqual_8BytesE",
   "size" : 4,
   "source_file" : "external/llvm/include/llvm/Support/AlignOf.h",
   "underlying_type" : "_ZTIj"
  },
  {
   "alignment" : 4,
   "enum_fields" :
   [
    {
     "enum_field_value" : 1,
     "name" : "llvm::AlignOf<llvm::detail::AlignerImpl<const void *, char, char, char, char, char, char, char, char, char>>::Alignment_LessEqual_16Bytes"
    }
   ],
   "linker_set_key" : "_ZTIN4llvm7AlignOfINS_6detail11AlignerImplIPKvcccccccccEEE28$Alignment_LessEqual_16BytesE",
   "name" : "llvm::AlignOf<AlignerImpl<const void *, char, char, char, char, char, char, char, char, char>>::(anonymous enum at external/llvm/include/llvm/Support/AlignOf.h:94:3)",
   "referenced_type" : "_ZTIN4llvm7AlignOfINS_6detail11AlignerImplIPKvcccccccccEEE28$Alignment_LessEqual_16BytesE",
   "self_type" : "_ZTIN4llvm7AlignOfINS_6detail11AlignerImplIPKvcccccccccEEE28$Alignment_LessEqual_16BytesE",
   "size" : 4,
   "source_file" : "external/llvm/include/llvm/Support/AlignOf.h",
   "underlying_type" : "_ZTIj"
  },
  {
   "alignment" : 4,
   "enum_fields" :
   [
    {
     "enum_field_value" : 1,
     "name" : "llvm::AlignOf<llvm::detail::AlignerImpl<const void *, char, char, char, char, char, char, char, char, char>>::Alignment_GreaterEqual_2Bytes"
    }
   ],
   "linker_set_key" : "_ZTIN4llvm7AlignOfINS_6detail11AlignerImplIPKvcccccccccEEE30$Alignment_GreaterEqual_2BytesE",
   "name" : "llvm::AlignOf<AlignerImpl<const void *, char, char, char, char, char, char, char, char, char>>::(anonymous enum at external/llvm/include/llvm/Support/AlignOf.h:86:3)",
   "referenced_type" : "_ZTIN4llvm7AlignOfINS_6detail11AlignerImplIPKvcccccccccEEE30$Alignment_GreaterEqual_2BytesE",
   "self_type" : "_ZTIN4llvm7AlignOfINS_6detail11AlignerImplIPKvcccccccccEEE30$Alignment_GreaterEqual_2BytesE",
   "size" : 4,
   "source_file" : "external/llvm/include/llvm/Support/AlignOf.h",
   "underlying_type" : "_ZTIj"
  },
  {
   "alignment" : 4,
   "enum_fields" :
   [
    {
     "enum_field_value" : 1,
     "name" : "llvm::AlignOf<llvm::detail::AlignerImpl<const void *, char, char, char, char, char, char, char, char, char>>::Alignment_GreaterEqual_4Bytes"
    }
   ],
   "linker_set_key" : "_ZTIN4llvm7AlignOfINS_6detail11AlignerImplIPKvcccccccccEEE30$Alignment_GreaterEqual_4BytesE",
   "name" : "llvm::AlignOf<AlignerImpl<const void *, char, char, char, char, char, char, char, char, char>>::(anonymous enum at external/llvm/include/llvm/Support/AlignOf.h:87:3)",
   "referenced_type" : "_ZTIN4llvm7AlignOfINS_6detail11AlignerImplIPKvcccccccccEEE30$Alignment_GreaterEqual_4BytesE",
   "self_type" : "_ZTIN4llvm7AlignOfINS_6detail11AlignerImplIPKvcccccccccEEE30$Alignment_GreaterEqual_4BytesE",
   "size" : 4,
   "source_file" : "external/llvm/include/llvm/Support/AlignOf.h",
   "underlying_type" : "_ZTIj"
  },
  {
   "alignment" : 4,
   "enum_fields" :
   [
    {
     "enum_field_value" : 0,
     "name" : "llvm::AlignOf<llvm::detail::AlignerImpl<const void *, char, char, char, char, char, char, char, char, char>>::Alignment_GreaterEqual_8Bytes"
    }
   ],
   "linker_set_key" : "_ZTIN4llvm7AlignOfINS_6detail11AlignerImplIPKvcccccccccEEE30$Alignment_GreaterEqual_8BytesE",
   "name" : "llvm::AlignOf<AlignerImpl<const void *, char, char, char, char, char, char, char, char, char>>::(anonymous enum at external/llvm/include/llvm/Support/AlignOf.h:88:3)",
   "referenced_type" : "_ZTIN4llvm7AlignOfINS_6detail11AlignerImplIPKvcccccccccEEE30$Alignment_GreaterEqual_8BytesE",
   "self_type" : "_ZTIN4llvm7AlignOfINS_6detail11AlignerImplIPKvcccccccccEEE30$Alignment_GreaterEqual_8BytesE",
   "size" : 4,
   "source_file" : "external/llvm/include/llvm/Support/AlignOf.h",
   "underlying_type" : "_ZTIj"
  },
  {
   "alignment" : 4,
   "enum_fields" :
   [
    {
     "enum_field_value" : 0,
     "name" : "llvm::AlignOf<llvm::detail::AlignerImpl<const void *, char, char, char, char, char, char, char, char, char>>::Alignment_GreaterEqual_16Bytes"
    }
   ],
   "linker_set_key" : "_ZTIN4llvm7AlignOfINS_6detail11AlignerImplIPKvcccccccccEEE31$Alignment_GreaterEqual_16BytesE",
   "name" : "llvm::AlignOf<AlignerImpl<const void *, char, char, char, char, char, char, char, char, char>>::(anonymous enum at external/llvm/include/llvm/Support/AlignOf.h:89:3)",
   "referenced_type" : "_ZTIN4llvm7AlignOfINS_6detail11AlignerImplIPKvcccccccccEEE31$Alignment_GreaterEqual_16BytesE",
   "self_type" : "_ZTIN4llvm7AlignOfINS_6detail11AlignerImplIPKvcccccccccEEE31$Alignment_GreaterEqual_16BytesE",
   "size" : 4,
   "source_file" : "external/llvm/include/llvm/Support/AlignOf.h",
   "underlying_type" : "_ZTIj"
  },
  {
   "alignment" : 4,
   "enum_fields" :
   [
    {
     "enum_field_value" : 0,
     "name" : "llvm::AlignOf<llvm::detail::AlignerImpl<llvm::cl::Option *, char, char, char, char, char, char, char, char, char>>::Alignment_LessEqual_2Bytes"
    }
   ],
   "linker_set_key" : "_ZTIN4llvm7AlignOfINS_6detail11AlignerImplIPNS_2cl6OptionEcccccccccEEE27$Alignment_LessEqual_2BytesE",
   "name" : "llvm::AlignOf<AlignerImpl<Option *, char, char, char, char, char, char, char, char, char>>::(anonymous enum at external/llvm/include/llvm/Support/AlignOf.h:91:3)",
   "referenced_type" : "_ZTIN4llvm7AlignOfINS_6detail11AlignerImplIPNS_2cl6OptionEcccccccccEEE27$Alignment_LessEqual_2BytesE",
   "self_type" : "_ZTIN4llvm7AlignOfINS_6detail11AlignerImplIPNS_2cl6OptionEcccccccccEEE27$Alignment_LessEqual_2BytesE",
   "size" : 4,
   "source_file" : "external/llvm/include/llvm/Support/AlignOf.h",
   "underlying_type" : "_ZTIj"
  },
  {
   "alignment" : 4,
   "enum_fields" :
   [
    {
     "enum_field_value" : 1,
     "name" : "llvm::AlignOf<llvm::detail::AlignerImpl<llvm::cl::Option *, char, char, char, char, char, char, char, char, char>>::Alignment_LessEqual_4Bytes"
    }
   ],
   "linker_set_key" : "_ZTIN4llvm7AlignOfINS_6detail11AlignerImplIPNS_2cl6OptionEcccccccccEEE27$Alignment_LessEqual_4BytesE",
   "name" : "llvm::AlignOf<AlignerImpl<Option *, char, char, char, char, char, char, char, char, char>>::(anonymous enum at external/llvm/include/llvm/Support/AlignOf.h:92:3)",
   "referenced_type" : "_ZTIN4llvm7AlignOfINS_6detail11AlignerImplIPNS_2cl6OptionEcccccccccEEE27$Alignment_LessEqual_4BytesE",
   "self_type" : "_ZTIN4llvm7AlignOfINS_6detail11AlignerImplIPNS_2cl6OptionEcccccccccEEE27$Alignment_LessEqual_4BytesE",
   "size" : 4,
   "source_file" : "external/llvm/include/llvm/Support/AlignOf.h",
   "underlying_type" : "_ZTIj"
  },
  {
   "alignment" : 4,
   "enum_fields" :
   [
    {
     "enum_field_value" : 1,
     "name" : "llvm::AlignOf<llvm::detail::AlignerImpl<llvm::cl::Option *, char, char, char, char, char, char, char, char, char>>::Alignment_LessEqual_8Bytes"
    }
   ],
   "linker_set_key" : "_ZTIN4llvm7AlignOfINS_6detail11AlignerImplIPNS_2cl6OptionEcccccccccEEE27$Alignment_LessEqual_8BytesE",
   "name" : "llvm::AlignOf<AlignerImpl<Option *, char, char, char, char, char, char, char, char, char>>::(anonymous enum at external/llvm/include/llvm/Support/AlignOf.h:93:3)",
   "referenced_type" : "_ZTIN4llvm7AlignOfINS_6detail11AlignerImplIPNS_2cl6OptionEcccccccccEEE27$Alignment_LessEqual_8BytesE",
   "self_type" : "_ZTIN4llvm7AlignOfINS_6detail11AlignerImplIPNS_2cl6OptionEcccccccccEEE27$Alignment_LessEqual_8BytesE",
   "size" : 4,
   "source_file" : "external/llvm/include/llvm/Support/AlignOf.h",
   "underlying_type" : "_ZTIj"
  },
  {
   "alignment" : 4,
   "enum_fields" :
   [
    {
     "enum_field_value" : 1,
     "name" : "llvm::AlignOf<llvm::detail::AlignerImpl<llvm::cl::Option *, char, char, char, char, char, char, char, char, char>>::Alignment_LessEqual_16Bytes"
    }
   ],
   "linker_set_key" : "_ZTIN4llvm7AlignOfINS_6detail11AlignerImplIPNS_2cl6OptionEcccccccccEEE28$Alignment_LessEqual_16BytesE",
   "name" : "llvm::AlignOf<AlignerImpl<Option *, char, char, char, char, char, char, char, char, char>>::(anonymous enum at external/llvm/include/llvm/Support/AlignOf.h:94:3)",
   "referenced_type" : "_ZTIN4llvm7AlignOfINS_6detail11AlignerImplIPNS_2cl6OptionEcccccccccEEE28$Alignment_LessEqual_16BytesE",
   "self_type" : "_ZTIN4llvm7AlignOfINS_6detail11AlignerImplIPNS_2cl6OptionEcccccccccEEE28$Alignment_LessEqual_16BytesE",
   "size" : 4,
   "source_file" : "external/llvm/include/llvm/Support/AlignOf.h",
   "underlying_type" : "_ZTIj"
  },
  {
   "alignment" : 4,
   "enum_fields" :
   [
    {
     "enum_field_value" : 1,
     "name" : "llvm::AlignOf<llvm::detail::AlignerImpl<llvm::cl::Option *, char, char, char, char, char, char, char, char, char>>::Alignment_GreaterEqual_2Bytes"
    }
   ],
   "linker_set_key" : "_ZTIN4llvm7AlignOfINS_6detail11AlignerImplIPNS_2cl6OptionEcccccccccEEE30$Alignment_GreaterEqual_2BytesE",
   "name" : "llvm::AlignOf<AlignerImpl<Option *, char, char, char, char, char, char, char, char, char>>::(anonymous enum at external/llvm/include/llvm/Support/AlignOf.h:86:3)",
   "referenced_type" : "_ZTIN4llvm7AlignOfINS_6detail11AlignerImplIPNS_2cl6OptionEcccccccccEEE30$Alignment_GreaterEqual_2BytesE",
   "self_type" : "_ZTIN4llvm7AlignOfINS_6detail11AlignerImplIPNS_2cl6OptionEcccccccccEEE30$Alignment_GreaterEqual_2BytesE",
   "size" : 4,
   "source_file" : "external/llvm/include/llvm/Support/AlignOf.h",
   "underlying_type" : "_ZTIj"
  },
  {
   "alignment" : 4,
   "enum_fields" :
   [
    {
     "enum_field_value" : 1,
     "name" : "llvm::AlignOf<llvm::detail::AlignerImpl<llvm::cl::Option *, char, char, char, char, char, char, char, char, char>>::Alignment_GreaterEqual_4Bytes"
    }
   ],
   "linker_set_key" : "_ZTIN4llvm7AlignOfINS_6detail11AlignerImplIPNS_2cl6OptionEcccccccccEEE30$Alignment_GreaterEqual_4BytesE",
   "name" : "llvm::AlignOf<AlignerImpl<Option *, char, char, char, char, char, char, char, char, char>>::(anonymous enum at external/llvm/include/llvm/Support/AlignOf.h:87:3)",
   "referenced_type" : "_ZTIN4llvm7AlignOfINS_6detail11AlignerImplIPNS_2cl6OptionEcccccccccEEE30$Alignment_GreaterEqual_4BytesE",
   "self_type" : "_ZTIN4llvm7AlignOfINS_6detail11AlignerImplIPNS_2cl6OptionEcccccccccEEE30$Alignment_GreaterEqual_4BytesE",
   "size" : 4,
   "source_file" : "external/llvm/include/llvm/Support/AlignOf.h",
   "underlying_type" : "_ZTIj"
  },
  {
   "alignment" : 4,
   "enum_fields" :
   [
    {
     "enum_field_value" : 0,
     "name" : "llvm::AlignOf<llvm::detail::AlignerImpl<llvm::cl::Option *, char, char, char, char, char, char, char, char, char>>::Alignment_GreaterEqual_8Bytes"
    }
   ],
   "linker_set_key" : "_ZTIN4llvm7AlignOfINS_6detail11AlignerImplIPNS_2cl6OptionEcccccccccEEE30$Alignment_GreaterEqual_8BytesE",
   "name" : "llvm::AlignOf<AlignerImpl<Option *, char, char, char, char, char, char, char, char, char>>::(anonymous enum at external/llvm/include/llvm/Support/AlignOf.h:88:3)",
   "referenced_type" : "_ZTIN4llvm7AlignOfINS_6detail11AlignerImplIPNS_2cl6OptionEcccccccccEEE30$Alignment_GreaterEqual_8BytesE",
   "self_type" : "_ZTIN4llvm7AlignOfINS_6detail11AlignerImplIPNS_2cl6OptionEcccccccccEEE30$Alignment_GreaterEqual_8BytesE",
   "size" : 4,
   "source_file" : "external/llvm/include/llvm/Support/AlignOf.h",
   "underlying_type" : "_ZTIj"
  },
  {
   "alignment" : 4,
   "enum_fields" :
   [
    {
     "enum_field_value" : 0,
     "name" : "llvm::AlignOf<llvm::detail::AlignerImpl<llvm::cl::Option *, char, char, char, char, char, char, char, char, char>>::Alignment_GreaterEqual_16Bytes"
    }
   ],
   "linker_set_key" : "_ZTIN4llvm7AlignOfINS_6detail11AlignerImplIPNS_2cl6OptionEcccccccccEEE31$Alignment_GreaterEqual_16BytesE",
   "name" : "llvm::AlignOf<AlignerImpl<Option *, char, char, char, char, char, char, char, char, char>>::(anonymous enum at external/llvm/include/llvm/Support/AlignOf.h:89:3)",
   "referenced_type" : "_ZTIN4llvm7AlignOfINS_6detail11AlignerImplIPNS_2cl6OptionEcccccccccEEE31$Alignment_GreaterEqual_16BytesE",
   "self_type" : "_ZTIN4llvm7AlignOfINS_6detail11AlignerImplIPNS_2cl6OptionEcccccccccEEE31$Alignment_GreaterEqual_16BytesE",
   "size" : 4,
   "source_file" : "external/llvm/include/llvm/Support/AlignOf.h",
   "underlying_type" : "_ZTIj"
  },
  {
   "alignment" : 4,
   "enum_fields" :
   [
    {
     "enum_field_value" : 0,
     "name" : "llvm::AlignOf<llvm::detail::AlignerImpl<llvm::Metadata *, char, char, char, char, char, char, char, char, char>>::Alignment_LessEqual_2Bytes"
    }
   ],
   "linker_set_key" : "_ZTIN4llvm7AlignOfINS_6detail11AlignerImplIPNS_8MetadataEcccccccccEEE27$Alignment_LessEqual_2BytesE",
   "name" : "llvm::AlignOf<AlignerImpl<Metadata *, char, char, char, char, char, char, char, char, char>>::(anonymous enum at external/llvm/include/llvm/Support/AlignOf.h:91:3)",
   "referenced_type" : "_ZTIN4llvm7AlignOfINS_6detail11AlignerImplIPNS_8MetadataEcccccccccEEE27$Alignment_LessEqual_2BytesE",
   "self_type" : "_ZTIN4llvm7AlignOfINS_6detail11AlignerImplIPNS_8MetadataEcccccccccEEE27$Alignment_LessEqual_2BytesE",
   "size" : 4,
   "source_file" : "external/llvm/include/llvm/Support/AlignOf.h",
   "underlying_type" : "_ZTIj"
  },
  {
   "alignment" : 4,
   "enum_fields" :
   [
    {
     "enum_field_value" : 1,
     "name" : "llvm::AlignOf<llvm::detail::AlignerImpl<llvm::Metadata *, char, char, char, char, char, char, char, char, char>>::Alignment_LessEqual_4Bytes"
    }
   ],
   "linker_set_key" : "_ZTIN4llvm7AlignOfINS_6detail11AlignerImplIPNS_8MetadataEcccccccccEEE27$Alignment_LessEqual_4BytesE",
   "name" : "llvm::AlignOf<AlignerImpl<Metadata *, char, char, char, char, char, char, char, char, char>>::(anonymous enum at external/llvm/include/llvm/Support/AlignOf.h:92:3)",
   "referenced_type" : "_ZTIN4llvm7AlignOfINS_6detail11AlignerImplIPNS_8MetadataEcccccccccEEE27$Alignment_LessEqual_4BytesE",
   "self_type" : "_ZTIN4llvm7AlignOfINS_6detail11AlignerImplIPNS_8MetadataEcccccccccEEE27$Alignment_LessEqual_4BytesE",
   "size" : 4,
   "source_file" : "external/llvm/include/llvm/Support/AlignOf.h",
   "underlying_type" : "_ZTIj"
  },
  {
   "alignment" : 4,
   "enum_fields" :
   [
    {
     "enum_field_value" : 1,
     "name" : "llvm::AlignOf<llvm::detail::AlignerImpl<llvm::Metadata *, char, char, char, char, char, char, char, char, char>>::Alignment_LessEqual_8Bytes"
    }
   ],
   "linker_set_key" : "_ZTIN4llvm7AlignOfINS_6detail11AlignerImplIPNS_8MetadataEcccccccccEEE27$Alignment_LessEqual_8BytesE",
   "name" : "llvm::AlignOf<AlignerImpl<Metadata *, char, char, char, char, char, char, char, char, char>>::(anonymous enum at external/llvm/include/llvm/Support/AlignOf.h:93:3)",
   "referenced_type" : "_ZTIN4llvm7AlignOfINS_6detail11AlignerImplIPNS_8MetadataEcccccccccEEE27$Alignment_LessEqual_8BytesE",
   "self_type" : "_ZTIN4llvm7AlignOfINS_6detail11AlignerImplIPNS_8MetadataEcccccccccEEE27$Alignment_LessEqual_8BytesE",
   "size" : 4,
   "source_file" : "external/llvm/include/llvm/Support/AlignOf.h",
   "underlying_type" : "_ZTIj"
  },
  {
   "alignment" : 4,
   "enum_fields" :
   [
    {
     "enum_field_value" : 1,
     "name" : "llvm::AlignOf<llvm::detail::AlignerImpl<llvm::Metadata *, char, char, char, char, char, char, char, char, char>>::Alignment_LessEqual_16Bytes"
    }
   ],
   "linker_set_key" : "_ZTIN4llvm7AlignOfINS_6detail11AlignerImplIPNS_8MetadataEcccccccccEEE28$Alignment_LessEqual_16BytesE",
   "name" : "llvm::AlignOf<AlignerImpl<Metadata *, char, char, char, char, char, char, char, char, char>>::(anonymous enum at external/llvm/include/llvm/Support/AlignOf.h:94:3)",
   "referenced_type" : "_ZTIN4llvm7AlignOfINS_6detail11AlignerImplIPNS_8MetadataEcccccccccEEE28$Alignment_LessEqual_16BytesE",
   "self_type" : "_ZTIN4llvm7AlignOfINS_6detail11AlignerImplIPNS_8MetadataEcccccccccEEE28$Alignment_LessEqual_16BytesE",
   "size" : 4,
   "source_file" : "external/llvm/include/llvm/Support/AlignOf.h",
   "underlying_type" : "_ZTIj"
  },
  {
   "alignment" : 4,
   "enum_fields" :
   [
    {
     "enum_field_value" : 1,
     "name" : "llvm::AlignOf<llvm::detail::AlignerImpl<llvm::Metadata *, char, char, char, char, char, char, char, char, char>>::Alignment_GreaterEqual_2Bytes"
    }
   ],
   "linker_set_key" : "_ZTIN4llvm7AlignOfINS_6detail11AlignerImplIPNS_8MetadataEcccccccccEEE30$Alignment_GreaterEqual_2BytesE",
   "name" : "llvm::AlignOf<AlignerImpl<Metadata *, char, char, char, char, char, char, char, char, char>>::(anonymous enum at external/llvm/include/llvm/Support/AlignOf.h:86:3)",
   "referenced_type" : "_ZTIN4llvm7AlignOfINS_6detail11AlignerImplIPNS_8MetadataEcccccccccEEE30$Alignment_GreaterEqual_2BytesE",
   "self_type" : "_ZTIN4llvm7AlignOfINS_6detail11AlignerImplIPNS_8MetadataEcccccccccEEE30$Alignment_GreaterEqual_2BytesE",
   "size" : 4,
   "source_file" : "external/llvm/include/llvm/Support/AlignOf.h",
   "underlying_type" : "_ZTIj"
  },
  {
   "alignment" : 4,
   "enum_fields" :
   [
    {
     "enum_field_value" : 1,
     "name" : "llvm::AlignOf<llvm::detail::AlignerImpl<llvm::Metadata *, char, char, char, char, char, char, char, char, char>>::Alignment_GreaterEqual_4Bytes"
    }
   ],
   "linker_set_key" : "_ZTIN4llvm7AlignOfINS_6detail11AlignerImplIPNS_8MetadataEcccccccccEEE30$Alignment_GreaterEqual_4BytesE",
   "name" : "llvm::AlignOf<AlignerImpl<Metadata *, char, char, char, char, char, char, char, char, char>>::(anonymous enum at external/llvm/include/llvm/Support/AlignOf.h:87:3)",
   "referenced_type" : "_ZTIN4llvm7AlignOfINS_6detail11AlignerImplIPNS_8MetadataEcccccccccEEE30$Alignment_GreaterEqual_4BytesE",
   "self_type" : "_ZTIN4llvm7AlignOfINS_6detail11AlignerImplIPNS_8MetadataEcccccccccEEE30$Alignment_GreaterEqual_4BytesE",
   "size" : 4,
   "source_file" : "external/llvm/include/llvm/Support/AlignOf.h",
   "underlying_type" : "_ZTIj"
  },
  {
   "alignment" : 4,
   "enum_fields" :
   [
    {
     "enum_field_value" : 0,
     "name" : "llvm::AlignOf<llvm::detail::AlignerImpl<llvm::Metadata *, char, char, char, char, char, char, char, char, char>>::Alignment_GreaterEqual_8Bytes"
    }
   ],
   "linker_set_key" : "_ZTIN4llvm7AlignOfINS_6detail11AlignerImplIPNS_8MetadataEcccccccccEEE30$Alignment_GreaterEqual_8BytesE",
   "name" : "llvm::AlignOf<AlignerImpl<Metadata *, char, char, char, char, char, char, char, char, char>>::(anonymous enum at external/llvm/include/llvm/Support/AlignOf.h:88:3)",
   "referenced_type" : "_ZTIN4llvm7AlignOfINS_6detail11AlignerImplIPNS_8MetadataEcccccccccEEE30$Alignment_GreaterEqual_8BytesE",
   "self_type" : "_ZTIN4llvm7AlignOfINS_6detail11AlignerImplIPNS_8MetadataEcccccccccEEE30$Alignment_GreaterEqual_8BytesE",
   "size" : 4,
   "source_file" : "external/llvm/include/llvm/Support/AlignOf.h",
   "underlying_type" : "_ZTIj"
  },
  {
   "alignment" : 4,
   "enum_fields" :
   [
    {
     "enum_field_value" : 0,
     "name" : "llvm::AlignOf<llvm::detail::AlignerImpl<llvm::Metadata *, char, char, char, char, char, char, char, char, char>>::Alignment_GreaterEqual_16Bytes"
    }
   ],
   "linker_set_key" : "_ZTIN4llvm7AlignOfINS_6detail11AlignerImplIPNS_8MetadataEcccccccccEEE31$Alignment_GreaterEqual_16BytesE",
   "name" : "llvm::AlignOf<AlignerImpl<Metadata *, char, char, char, char, char, char, char, char, char>>::(anonymous enum at external/llvm/include/llvm/Support/AlignOf.h:89:3)",
   "referenced_type" : "_ZTIN4llvm7AlignOfINS_6detail11AlignerImplIPNS_8MetadataEcccccccccEEE31$Alignment_GreaterEqual_16BytesE",
   "self_type" : "_ZTIN4llvm7AlignOfINS_6detail11AlignerImplIPNS_8MetadataEcccccccccEEE31$Alignment_GreaterEqual_16BytesE",
   "size" : 4,
   "source_file" : "external/llvm/include/llvm/Support/AlignOf.h",
   "underlying_type" : "_ZTIj"
  },
  {
   "alignment" : 4,
   "enum_fields" :
   [
    {
     "enum_field_value" : 0,
     "name" : "llvm::AlignOf<llvm::detail::AlignerImpl<void *, char, char, char, char, char, char, char, char, char>>::Alignment_LessEqual_2Bytes"
    }
   ],
   "linker_set_key" : "_ZTIN4llvm7AlignOfINS_6detail11AlignerImplIPvcccccccccEEE27$Alignment_LessEqual_2BytesE",
   "name" : "llvm::AlignOf<AlignerImpl<void *, char, char, char, char, char, char, char, char, char>>::(anonymous enum at external/llvm/include/llvm/Support/AlignOf.h:91:3)",
   "referenced_type" : "_ZTIN4llvm7AlignOfINS_6detail11AlignerImplIPvcccccccccEEE27$Alignment_LessEqual_2BytesE",
   "self_type" : "_ZTIN4llvm7AlignOfINS_6detail11AlignerImplIPvcccccccccEEE27$Alignment_LessEqual_2BytesE",
   "size" : 4,
   "source_file" : "external/llvm/include/llvm/Support/AlignOf.h",
   "underlying_type" : "_ZTIj"
  },
  {
   "alignment" : 4,
   "enum_fields" :
   [
    {
     "enum_field_value" : 1,
     "name" : "llvm::AlignOf<llvm::detail::AlignerImpl<void *, char, char, char, char, char, char, char, char, char>>::Alignment_LessEqual_4Bytes"
    }
   ],
   "linker_set_key" : "_ZTIN4llvm7AlignOfINS_6detail11AlignerImplIPvcccccccccEEE27$Alignment_LessEqual_4BytesE",
   "name" : "llvm::AlignOf<AlignerImpl<void *, char, char, char, char, char, char, char, char, char>>::(anonymous enum at external/llvm/include/llvm/Support/AlignOf.h:92:3)",
   "referenced_type" : "_ZTIN4llvm7AlignOfINS_6detail11AlignerImplIPvcccccccccEEE27$Alignment_LessEqual_4BytesE",
   "self_type" : "_ZTIN4llvm7AlignOfINS_6detail11AlignerImplIPvcccccccccEEE27$Alignment_LessEqual_4BytesE",
   "size" : 4,
   "source_file" : "external/llvm/include/llvm/Support/AlignOf.h",
   "underlying_type" : "_ZTIj"
  },
  {
   "alignment" : 4,
   "enum_fields" :
   [
    {
     "enum_field_value" : 1,
     "name" : "llvm::AlignOf<llvm::detail::AlignerImpl<void *, char, char, char, char, char, char, char, char, char>>::Alignment_LessEqual_8Bytes"
    }
   ],
   "linker_set_key" : "_ZTIN4llvm7AlignOfINS_6detail11AlignerImplIPvcccccccccEEE27$Alignment_LessEqual_8BytesE",
   "name" : "llvm::AlignOf<AlignerImpl<void *, char, char, char, char, char, char, char, char, char>>::(anonymous enum at external/llvm/include/llvm/Support/AlignOf.h:93:3)",
   "referenced_type" : "_ZTIN4llvm7AlignOfINS_6detail11AlignerImplIPvcccccccccEEE27$Alignment_LessEqual_8BytesE",
   "self_type" : "_ZTIN4llvm7AlignOfINS_6detail11AlignerImplIPvcccccccccEEE27$Alignment_LessEqual_8BytesE",
   "size" : 4,
   "source_file" : "external/llvm/include/llvm/Support/AlignOf.h",
   "underlying_type" : "_ZTIj"
  },
  {
   "alignment" : 4,
   "enum_fields" :
   [
    {
     "enum_field_value" : 1,
     "name" : "llvm::AlignOf<llvm::detail::AlignerImpl<void *, char, char, char, char, char, char, char, char, char>>::Alignment_LessEqual_16Bytes"
    }
   ],
   "linker_set_key" : "_ZTIN4llvm7AlignOfINS_6detail11AlignerImplIPvcccccccccEEE28$Alignment_LessEqual_16BytesE",
   "name" : "llvm::AlignOf<AlignerImpl<void *, char, char, char, char, char, char, char, char, char>>::(anonymous enum at external/llvm/include/llvm/Support/AlignOf.h:94:3)",
   "referenced_type" : "_ZTIN4llvm7AlignOfINS_6detail11AlignerImplIPvcccccccccEEE28$Alignment_LessEqual_16BytesE",
   "self_type" : "_ZTIN4llvm7AlignOfINS_6detail11AlignerImplIPvcccccccccEEE28$Alignment_LessEqual_16BytesE",
   "size" : 4,
   "source_file" : "external/llvm/include/llvm/Support/AlignOf.h",
   "underlying_type" : "_ZTIj"
  },
  {
   "alignment" : 4,
   "enum_fields" :
   [
    {
     "enum_field_value" : 1,
     "name" : "llvm::AlignOf<llvm::detail::AlignerImpl<void *, char, char, char, char, char, char, char, char, char>>::Alignment_GreaterEqual_2Bytes"
    }
   ],
   "linker_set_key" : "_ZTIN4llvm7AlignOfINS_6detail11AlignerImplIPvcccccccccEEE30$Alignment_GreaterEqual_2BytesE",
   "name" : "llvm::AlignOf<AlignerImpl<void *, char, char, char, char, char, char, char, char, char>>::(anonymous enum at external/llvm/include/llvm/Support/AlignOf.h:86:3)",
   "referenced_type" : "_ZTIN4llvm7AlignOfINS_6detail11AlignerImplIPvcccccccccEEE30$Alignment_GreaterEqual_2BytesE",
   "self_type" : "_ZTIN4llvm7AlignOfINS_6detail11AlignerImplIPvcccccccccEEE30$Alignment_GreaterEqual_2BytesE",
   "size" : 4,
   "source_file" : "external/llvm/include/llvm/Support/AlignOf.h",
   "underlying_type" : "_ZTIj"
  },
  {
   "alignment" : 4,
   "enum_fields" :
   [
    {
     "enum_field_value" : 1,
     "name" : "llvm::AlignOf<llvm::detail::AlignerImpl<void *, char, char, char, char, char, char, char, char, char>>::Alignment_GreaterEqual_4Bytes"
    }
   ],
   "linker_set_key" : "_ZTIN4llvm7AlignOfINS_6detail11AlignerImplIPvcccccccccEEE30$Alignment_GreaterEqual_4BytesE",
   "name" : "llvm::AlignOf<AlignerImpl<void *, char, char, char, char, char, char, char, char, char>>::(anonymous enum at external/llvm/include/llvm/Support/AlignOf.h:87:3)",
   "referenced_type" : "_ZTIN4llvm7AlignOfINS_6detail11AlignerImplIPvcccccccccEEE30$Alignment_GreaterEqual_4BytesE",
   "self_type" : "_ZTIN4llvm7AlignOfINS_6detail11AlignerImplIPvcccccccccEEE30$Alignment_GreaterEqual_4BytesE",
   "size" : 4,
   "source_file" : "external/llvm/include/llvm/Support/AlignOf.h",
   "underlying_type" : "_ZTIj"
  },
  {
   "alignment" : 4,
   "enum_fields" :
   [
    {
     "enum_field_value" : 0,
     "name" : "llvm::AlignOf<llvm::detail::AlignerImpl<void *, char, char, char, char, char, char, char, char, char>>::Alignment_GreaterEqual_8Bytes"
    }
   ],
   "linker_set_key" : "_ZTIN4llvm7AlignOfINS_6detail11AlignerImplIPvcccccccccEEE30$Alignment_GreaterEqual_8BytesE",
   "name" : "llvm::AlignOf<AlignerImpl<void *, char, char, char, char, char, char, char, char, char>>::(anonymous enum at external/llvm/include/llvm/Support/AlignOf.h:88:3)",
   "referenced_type" : "_ZTIN4llvm7AlignOfINS_6detail11AlignerImplIPvcccccccccEEE30$Alignment_GreaterEqual_8BytesE",
   "self_type" : "_ZTIN4llvm7AlignOfINS_6detail11AlignerImplIPvcccccccccEEE30$Alignment_GreaterEqual_8BytesE",
   "size" : 4,
   "source_file" : "external/llvm/include/llvm/Support/AlignOf.h",
   "underlying_type" : "_ZTIj"
  },
  {
   "alignment" : 4,
   "enum_fields" :
   [
    {
     "enum_field_value" : 0,
     "name" : "llvm::AlignOf<llvm::detail::AlignerImpl<void *, char, char, char, char, char, char, char, char, char>>::Alignment_GreaterEqual_16Bytes"
    }
   ],
   "linker_set_key" : "_ZTIN4llvm7AlignOfINS_6detail11AlignerImplIPvcccccccccEEE31$Alignment_GreaterEqual_16BytesE",
   "name" : "llvm::AlignOf<AlignerImpl<void *, char, char, char, char, char, char, char, char, char>>::(anonymous enum at external/llvm/include/llvm/Support/AlignOf.h:89:3)",
   "referenced_type" : "_ZTIN4llvm7AlignOfINS_6detail11AlignerImplIPvcccccccccEEE31$Alignment_GreaterEqual_16BytesE",
   "self_type" : "_ZTIN4llvm7AlignOfINS_6detail11AlignerImplIPvcccccccccEEE31$Alignment_GreaterEqual_16BytesE",
   "size" : 4,
   "source_file" : "external/llvm/include/llvm/Support/AlignOf.h",
   "underlying_type" : "_ZTIj"
  },
  {
   "alignment" : 4,
   "enum_fields" :
   [
    {
     "enum_field_value" : 1,
     "name" : "llvm::AlignOf<llvm::detail::AlignerImpl<char, char, char, char, char, char, char, char, char, char>>::Alignment_LessEqual_2Bytes"
    }
   ],
   "linker_set_key" : "_ZTIN4llvm7AlignOfINS_6detail11AlignerImplIccccccccccEEE27$Alignment_LessEqual_2BytesE",
   "name" : "llvm::AlignOf<AlignerImpl<char, char, char, char, char, char, char, char, char, char>>::(anonymous enum at external/llvm/include/llvm/Support/AlignOf.h:91:3)",
   "referenced_type" : "_ZTIN4llvm7AlignOfINS_6detail11AlignerImplIccccccccccEEE27$Alignment_LessEqual_2BytesE",
   "self_type" : "_ZTIN4llvm7AlignOfINS_6detail11AlignerImplIccccccccccEEE27$Alignment_LessEqual_2BytesE",
   "size" : 4,
   "source_file" : "external/llvm/include/llvm/Support/AlignOf.h",
   "underlying_type" : "_ZTIj"
  },
  {
   "alignment" : 4,
   "enum_fields" :
   [
    {
     "enum_field_value" : 1,
     "name" : "llvm::AlignOf<llvm::detail::AlignerImpl<char, char, char, char, char, char, char, char, char, char>>::Alignment_LessEqual_4Bytes"
    }
   ],
   "linker_set_key" : "_ZTIN4llvm7AlignOfINS_6detail11AlignerImplIccccccccccEEE27$Alignment_LessEqual_4BytesE",
   "name" : "llvm::AlignOf<AlignerImpl<char, char, char, char, char, char, char, char, char, char>>::(anonymous enum at external/llvm/include/llvm/Support/AlignOf.h:92:3)",
   "referenced_type" : "_ZTIN4llvm7AlignOfINS_6detail11AlignerImplIccccccccccEEE27$Alignment_LessEqual_4BytesE",
   "self_type" : "_ZTIN4llvm7AlignOfINS_6detail11AlignerImplIccccccccccEEE27$Alignment_LessEqual_4BytesE",
   "size" : 4,
   "source_file" : "external/llvm/include/llvm/Support/AlignOf.h",
   "underlying_type" : "_ZTIj"
  },
  {
   "alignment" : 4,
   "enum_fields" :
   [
    {
     "enum_field_value" : 1,
     "name" : "llvm::AlignOf<llvm::detail::AlignerImpl<char, char, char, char, char, char, char, char, char, char>>::Alignment_LessEqual_8Bytes"
    }
   ],
   "linker_set_key" : "_ZTIN4llvm7AlignOfINS_6detail11AlignerImplIccccccccccEEE27$Alignment_LessEqual_8BytesE",
   "name" : "llvm::AlignOf<AlignerImpl<char, char, char, char, char, char, char, char, char, char>>::(anonymous enum at external/llvm/include/llvm/Support/AlignOf.h:93:3)",
   "referenced_type" : "_ZTIN4llvm7AlignOfINS_6detail11AlignerImplIccccccccccEEE27$Alignment_LessEqual_8BytesE",
   "self_type" : "_ZTIN4llvm7AlignOfINS_6detail11AlignerImplIccccccccccEEE27$Alignment_LessEqual_8BytesE",
   "size" : 4,
   "source_file" : "external/llvm/include/llvm/Support/AlignOf.h",
   "underlying_type" : "_ZTIj"
  },
  {
   "alignment" : 4,
   "enum_fields" :
   [
    {
     "enum_field_value" : 1,
     "name" : "llvm::AlignOf<llvm::detail::AlignerImpl<char, char, char, char, char, char, char, char, char, char>>::Alignment_LessEqual_16Bytes"
    }
   ],
   "linker_set_key" : "_ZTIN4llvm7AlignOfINS_6detail11AlignerImplIccccccccccEEE28$Alignment_LessEqual_16BytesE",
   "name" : "llvm::AlignOf<AlignerImpl<char, char, char, char, char, char, char, char, char, char>>::(anonymous enum at external/llvm/include/llvm/Support/AlignOf.h:94:3)",
   "referenced_type" : "_ZTIN4llvm7AlignOfINS_6detail11AlignerImplIccccccccccEEE28$Alignment_LessEqual_16BytesE",
   "self_type" : "_ZTIN4llvm7AlignOfINS_6detail11AlignerImplIccccccccccEEE28$Alignment_LessEqual_16BytesE",
   "size" : 4,
   "source_file" : "external/llvm/include/llvm/Support/AlignOf.h",
   "underlying_type" : "_ZTIj"
  },
  {
   "alignment" : 4,
   "enum_fields" :
   [
    {
     "enum_field_value" : 0,
     "name" : "llvm::AlignOf<llvm::detail::AlignerImpl<char, char, char, char, char, char, char, char, char, char>>::Alignment_GreaterEqual_2Bytes"
    }
   ],
   "linker_set_key" : "_ZTIN4llvm7AlignOfINS_6detail11AlignerImplIccccccccccEEE30$Alignment_GreaterEqual_2BytesE",
   "name" : "llvm::AlignOf<AlignerImpl<char, char, char, char, char, char, char, char, char, char>>::(anonymous enum at external/llvm/include/llvm/Support/AlignOf.h:86:3)",
   "referenced_type" : "_ZTIN4llvm7AlignOfINS_6detail11AlignerImplIccccccccccEEE30$Alignment_GreaterEqual_2BytesE",
   "self_type" : "_ZTIN4llvm7AlignOfINS_6detail11AlignerImplIccccccccccEEE30$Alignment_GreaterEqual_2BytesE",
   "size" : 4,
   "source_file" : "external/llvm/include/llvm/Support/AlignOf.h",
   "underlying_type" : "_ZTIj"
  },
  {
   "alignment" : 4,
   "enum_fields" :
   [
    {
     "enum_field_value" : 0,
     "name" : "llvm::AlignOf<llvm::detail::AlignerImpl<char, char, char, char, char, char, char, char, char, char>>::Alignment_GreaterEqual_4Bytes"
    }
   ],
   "linker_set_key" : "_ZTIN4llvm7AlignOfINS_6detail11AlignerImplIccccccccccEEE30$Alignment_GreaterEqual_4BytesE",
   "name" : "llvm::AlignOf<AlignerImpl<char, char, char, char, char, char, char, char, char, char>>::(anonymous enum at external/llvm/include/llvm/Support/AlignOf.h:87:3)",
   "referenced_type" : "_ZTIN4llvm7AlignOfINS_6detail11AlignerImplIccccccccccEEE30$Alignment_GreaterEqual_4BytesE",
   "self_type" : "_ZTIN4llvm7AlignOfINS_6detail11AlignerImplIccccccccccEEE30$Alignment_GreaterEqual_4BytesE",
   "size" : 4,
   "source_file" : "external/llvm/include/llvm/Support/AlignOf.h",
   "underlying_type" : "_ZTIj"
  },
  {
   "alignment" : 4,
   "enum_fields" :
   [
    {
     "enum_field_value" : 0,
     "name" : "llvm::AlignOf<llvm::detail::AlignerImpl<char, char, char, char, char, char, char, char, char, char>>::Alignment_GreaterEqual_8Bytes"
    }
   ],
   "linker_set_key" : "_ZTIN4llvm7AlignOfINS_6detail11AlignerImplIccccccccccEEE30$Alignment_GreaterEqual_8BytesE",
   "name" : "llvm::AlignOf<AlignerImpl<char, char, char, char, char, char, char, char, char, char>>::(anonymous enum at external/llvm/include/llvm/Support/AlignOf.h:88:3)",
   "referenced_type" : "_ZTIN4llvm7AlignOfINS_6detail11AlignerImplIccccccccccEEE30$Alignment_GreaterEqual_8BytesE",
   "self_type" : "_ZTIN4llvm7AlignOfINS_6detail11AlignerImplIccccccccccEEE30$Alignment_GreaterEqual_8BytesE",
   "size" : 4,
   "source_file" : "external/llvm/include/llvm/Support/AlignOf.h",
   "underlying_type" : "_ZTIj"
  },
  {
   "alignment" : 4,
   "enum_fields" :
   [
    {
     "enum_field_value" : 0,
     "name" : "llvm::AlignOf<llvm::detail::AlignerImpl<char, char, char, char, char, char, char, char, char, char>>::Alignment_GreaterEqual_16Bytes"
    }
   ],
   "linker_set_key" : "_ZTIN4llvm7AlignOfINS_6detail11AlignerImplIccccccccccEEE31$Alignment_GreaterEqual_16BytesE",
   "name" : "llvm::AlignOf<AlignerImpl<char, char, char, char, char, char, char, char, char, char>>::(anonymous enum at external/llvm/include/llvm/Support/AlignOf.h:89:3)",
   "referenced_type" : "_ZTIN4llvm7AlignOfINS_6detail11AlignerImplIccccccccccEEE31$Alignment_GreaterEqual_16BytesE",
   "self_type" : "_ZTIN4llvm7AlignOfINS_6detail11AlignerImplIccccccccccEEE31$Alignment_GreaterEqual_16BytesE",
   "size" : 4,
   "source_file" : "external/llvm/include/llvm/Support/AlignOf.h",
   "underlying_type" : "_ZTIj"
  },
  {
   "alignment" : 4,
   "enum_fields" :
   [
    {
     "enum_field_value" : 1,
     "name" : "llvm::AlignOf<llvm::detail::AlignerImpl<unsigned char, char, char, char, char, char, char, char, char, char>>::Alignment_LessEqual_2Bytes"
    }
   ],
   "linker_set_key" : "_ZTIN4llvm7AlignOfINS_6detail11AlignerImplIhcccccccccEEE27$Alignment_LessEqual_2BytesE",
   "name" : "llvm::AlignOf<AlignerImpl<unsigned char, char, char, char, char, char, char, char, char, char>>::(anonymous enum at external/llvm/include/llvm/Support/AlignOf.h:91:3)",
   "referenced_type" : "_ZTIN4llvm7AlignOfINS_6detail11AlignerImplIhcccccccccEEE27$Alignment_LessEqual_2BytesE",
   "self_type" : "_ZTIN4llvm7AlignOfINS_6detail11AlignerImplIhcccccccccEEE27$Alignment_LessEqual_2BytesE",
   "size" : 4,
   "source_file" : "external/llvm/include/llvm/Support/AlignOf.h",
   "underlying_type" : "_ZTIj"
  },
  {
   "alignment" : 4,
   "enum_fields" :
   [
    {
     "enum_field_value" : 1,
     "name" : "llvm::AlignOf<llvm::detail::AlignerImpl<unsigned char, char, char, char, char, char, char, char, char, char>>::Alignment_LessEqual_4Bytes"
    }
   ],
   "linker_set_key" : "_ZTIN4llvm7AlignOfINS_6detail11AlignerImplIhcccccccccEEE27$Alignment_LessEqual_4BytesE",
   "name" : "llvm::AlignOf<AlignerImpl<unsigned char, char, char, char, char, char, char, char, char, char>>::(anonymous enum at external/llvm/include/llvm/Support/AlignOf.h:92:3)",
   "referenced_type" : "_ZTIN4llvm7AlignOfINS_6detail11AlignerImplIhcccccccccEEE27$Alignment_LessEqual_4BytesE",
   "self_type" : "_ZTIN4llvm7AlignOfINS_6detail11AlignerImplIhcccccccccEEE27$Alignment_LessEqual_4BytesE",
   "size" : 4,
   "source_file" : "external/llvm/include/llvm/Support/AlignOf.h",
   "underlying_type" : "_ZTIj"
  },
  {
   "alignment" : 4,
   "enum_fields" :
   [
    {
     "enum_field_value" : 1,
     "name" : "llvm::AlignOf<llvm::detail::AlignerImpl<unsigned char, char, char, char, char, char, char, char, char, char>>::Alignment_LessEqual_8Bytes"
    }
   ],
   "linker_set_key" : "_ZTIN4llvm7AlignOfINS_6detail11AlignerImplIhcccccccccEEE27$Alignment_LessEqual_8BytesE",
   "name" : "llvm::AlignOf<AlignerImpl<unsigned char, char, char, char, char, char, char, char, char, char>>::(anonymous enum at external/llvm/include/llvm/Support/AlignOf.h:93:3)",
   "referenced_type" : "_ZTIN4llvm7AlignOfINS_6detail11AlignerImplIhcccccccccEEE27$Alignment_LessEqual_8BytesE",
   "self_type" : "_ZTIN4llvm7AlignOfINS_6detail11AlignerImplIhcccccccccEEE27$Alignment_LessEqual_8BytesE",
   "size" : 4,
   "source_file" : "external/llvm/include/llvm/Support/AlignOf.h",
   "underlying_type" : "_ZTIj"
  },
  {
   "alignment" : 4,
   "enum_fields" :
   [
    {
     "enum_field_value" : 1,
     "name" : "llvm::AlignOf<llvm::detail::AlignerImpl<unsigned char, char, char, char, char, char, char, char, char, char>>::Alignment_LessEqual_16Bytes"
    }
   ],
   "linker_set_key" : "_ZTIN4llvm7AlignOfINS_6detail11AlignerImplIhcccccccccEEE28$Alignment_LessEqual_16BytesE",
   "name" : "llvm::AlignOf<AlignerImpl<unsigned char, char, char, char, char, char, char, char, char, char>>::(anonymous enum at external/llvm/include/llvm/Support/AlignOf.h:94:3)",
   "referenced_type" : "_ZTIN4llvm7AlignOfINS_6detail11AlignerImplIhcccccccccEEE28$Alignment_LessEqual_16BytesE",
   "self_type" : "_ZTIN4llvm7AlignOfINS_6detail11AlignerImplIhcccccccccEEE28$Alignment_LessEqual_16BytesE",
   "size" : 4,
   "source_file" : "external/llvm/include/llvm/Support/AlignOf.h",
   "underlying_type" : "_ZTIj"
  },
  {
   "alignment" : 4,
   "enum_fields" :
   [
    {
     "enum_field_value" : 0,
     "name" : "llvm::AlignOf<llvm::detail::AlignerImpl<unsigned char, char, char, char, char, char, char, char, char, char>>::Alignment_GreaterEqual_2Bytes"
    }
   ],
   "linker_set_key" : "_ZTIN4llvm7AlignOfINS_6detail11AlignerImplIhcccccccccEEE30$Alignment_GreaterEqual_2BytesE",
   "name" : "llvm::AlignOf<AlignerImpl<unsigned char, char, char, char, char, char, char, char, char, char>>::(anonymous enum at external/llvm/include/llvm/Support/AlignOf.h:86:3)",
   "referenced_type" : "_ZTIN4llvm7AlignOfINS_6detail11AlignerImplIhcccccccccEEE30$Alignment_GreaterEqual_2BytesE",
   "self_type" : "_ZTIN4llvm7AlignOfINS_6detail11AlignerImplIhcccccccccEEE30$Alignment_GreaterEqual_2BytesE",
   "size" : 4,
   "source_file" : "external/llvm/include/llvm/Support/AlignOf.h",
   "underlying_type" : "_ZTIj"
  },
  {
   "alignment" : 4,
   "enum_fields" :
   [
    {
     "enum_field_value" : 0,
     "name" : "llvm::AlignOf<llvm::detail::AlignerImpl<unsigned char, char, char, char, char, char, char, char, char, char>>::Alignment_GreaterEqual_4Bytes"
    }
   ],
   "linker_set_key" : "_ZTIN4llvm7AlignOfINS_6detail11AlignerImplIhcccccccccEEE30$Alignment_GreaterEqual_4BytesE",
   "name" : "llvm::AlignOf<AlignerImpl<unsigned char, char, char, char, char, char, char, char, char, char>>::(anonymous enum at external/llvm/include/llvm/Support/AlignOf.h:87:3)",
   "referenced_type" : "_ZTIN4llvm7AlignOfINS_6detail11AlignerImplIhcccccccccEEE30$Alignment_GreaterEqual_4BytesE",
   "self_type" : "_ZTIN4llvm7AlignOfINS_6detail11AlignerImplIhcccccccccEEE30$Alignment_GreaterEqual_4BytesE",
   "size" : 4,
   "source_file" : "external/llvm/include/llvm/Support/AlignOf.h",
   "underlying_type" : "_ZTIj"
  },
  {
   "alignment" : 4,
   "enum_fields" :
   [
    {
     "enum_field_value" : 0,
     "name" : "llvm::AlignOf<llvm::detail::AlignerImpl<unsigned char, char, char, char, char, char, char, char, char, char>>::Alignment_GreaterEqual_8Bytes"
    }
   ],
   "linker_set_key" : "_ZTIN4llvm7AlignOfINS_6detail11AlignerImplIhcccccccccEEE30$Alignment_GreaterEqual_8BytesE",
   "name" : "llvm::AlignOf<AlignerImpl<unsigned char, char, char, char, char, char, char, char, char, char>>::(anonymous enum at external/llvm/include/llvm/Support/AlignOf.h:88:3)",
   "referenced_type" : "_ZTIN4llvm7AlignOfINS_6detail11AlignerImplIhcccccccccEEE30$Alignment_GreaterEqual_8BytesE",
   "self_type" : "_ZTIN4llvm7AlignOfINS_6detail11AlignerImplIhcccccccccEEE30$Alignment_GreaterEqual_8BytesE",
   "size" : 4,
   "source_file" : "external/llvm/include/llvm/Support/AlignOf.h",
   "underlying_type" : "_ZTIj"
  },
  {
   "alignment" : 4,
   "enum_fields" :
   [
    {
     "enum_field_value" : 0,
     "name" : "llvm::AlignOf<llvm::detail::AlignerImpl<unsigned char, char, char, char, char, char, char, char, char, char>>::Alignment_GreaterEqual_16Bytes"
    }
   ],
   "linker_set_key" : "_ZTIN4llvm7AlignOfINS_6detail11AlignerImplIhcccccccccEEE31$Alignment_GreaterEqual_16BytesE",
   "name" : "llvm::AlignOf<AlignerImpl<unsigned char, char, char, char, char, char, char, char, char, char>>::(anonymous enum at external/llvm/include/llvm/Support/AlignOf.h:89:3)",
   "referenced_type" : "_ZTIN4llvm7AlignOfINS_6detail11AlignerImplIhcccccccccEEE31$Alignment_GreaterEqual_16BytesE",
   "self_type" : "_ZTIN4llvm7AlignOfINS_6detail11AlignerImplIhcccccccccEEE31$Alignment_GreaterEqual_16BytesE",
   "size" : 4,
   "source_file" : "external/llvm/include/llvm/Support/AlignOf.h",
   "underlying_type" : "_ZTIj"
  },
  {
   "alignment" : 4,
   "enum_fields" :
   [
    {
     "enum_field_value" : 0,
     "name" : "llvm::AlignOf<llvm::detail::AlignerImpl<unsigned int, char, char, char, char, char, char, char, char, char>>::Alignment_LessEqual_2Bytes"
    }
   ],
   "linker_set_key" : "_ZTIN4llvm7AlignOfINS_6detail11AlignerImplIjcccccccccEEE27$Alignment_LessEqual_2BytesE",
   "name" : "llvm::AlignOf<AlignerImpl<unsigned int, char, char, char, char, char, char, char, char, char>>::(anonymous enum at external/llvm/include/llvm/Support/AlignOf.h:91:3)",
   "referenced_type" : "_ZTIN4llvm7AlignOfINS_6detail11AlignerImplIjcccccccccEEE27$Alignment_LessEqual_2BytesE",
   "self_type" : "_ZTIN4llvm7AlignOfINS_6detail11AlignerImplIjcccccccccEEE27$Alignment_LessEqual_2BytesE",
   "size" : 4,
   "source_file" : "external/llvm/include/llvm/Support/AlignOf.h",
   "underlying_type" : "_ZTIj"
  },
  {
   "alignment" : 4,
   "enum_fields" :
   [
    {
     "enum_field_value" : 1,
     "name" : "llvm::AlignOf<llvm::detail::AlignerImpl<unsigned int, char, char, char, char, char, char, char, char, char>>::Alignment_LessEqual_4Bytes"
    }
   ],
   "linker_set_key" : "_ZTIN4llvm7AlignOfINS_6detail11AlignerImplIjcccccccccEEE27$Alignment_LessEqual_4BytesE",
   "name" : "llvm::AlignOf<AlignerImpl<unsigned int, char, char, char, char, char, char, char, char, char>>::(anonymous enum at external/llvm/include/llvm/Support/AlignOf.h:92:3)",
   "referenced_type" : "_ZTIN4llvm7AlignOfINS_6detail11AlignerImplIjcccccccccEEE27$Alignment_LessEqual_4BytesE",
   "self_type" : "_ZTIN4llvm7AlignOfINS_6detail11AlignerImplIjcccccccccEEE27$Alignment_LessEqual_4BytesE",
   "size" : 4,
   "source_file" : "external/llvm/include/llvm/Support/AlignOf.h",
   "underlying_type" : "_ZTIj"
  },
  {
   "alignment" : 4,
   "enum_fields" :
   [
    {
     "enum_field_value" : 1,
     "name" : "llvm::AlignOf<llvm::detail::AlignerImpl<unsigned int, char, char, char, char, char, char, char, char, char>>::Alignment_LessEqual_8Bytes"
    }
   ],
   "linker_set_key" : "_ZTIN4llvm7AlignOfINS_6detail11AlignerImplIjcccccccccEEE27$Alignment_LessEqual_8BytesE",
   "name" : "llvm::AlignOf<AlignerImpl<unsigned int, char, char, char, char, char, char, char, char, char>>::(anonymous enum at external/llvm/include/llvm/Support/AlignOf.h:93:3)",
   "referenced_type" : "_ZTIN4llvm7AlignOfINS_6detail11AlignerImplIjcccccccccEEE27$Alignment_LessEqual_8BytesE",
   "self_type" : "_ZTIN4llvm7AlignOfINS_6detail11AlignerImplIjcccccccccEEE27$Alignment_LessEqual_8BytesE",
   "size" : 4,
   "source_file" : "external/llvm/include/llvm/Support/AlignOf.h",
   "underlying_type" : "_ZTIj"
  },
  {
   "alignment" : 4,
   "enum_fields" :
   [
    {
     "enum_field_value" : 1,
     "name" : "llvm::AlignOf<llvm::detail::AlignerImpl<unsigned int, char, char, char, char, char, char, char, char, char>>::Alignment_LessEqual_16Bytes"
    }
   ],
   "linker_set_key" : "_ZTIN4llvm7AlignOfINS_6detail11AlignerImplIjcccccccccEEE28$Alignment_LessEqual_16BytesE",
   "name" : "llvm::AlignOf<AlignerImpl<unsigned int, char, char, char, char, char, char, char, char, char>>::(anonymous enum at external/llvm/include/llvm/Support/AlignOf.h:94:3)",
   "referenced_type" : "_ZTIN4llvm7AlignOfINS_6detail11AlignerImplIjcccccccccEEE28$Alignment_LessEqual_16BytesE",
   "self_type" : "_ZTIN4llvm7AlignOfINS_6detail11AlignerImplIjcccccccccEEE28$Alignment_LessEqual_16BytesE",
   "size" : 4,
   "source_file" : "external/llvm/include/llvm/Support/AlignOf.h",
   "underlying_type" : "_ZTIj"
  },
  {
   "alignment" : 4,
   "enum_fields" :
   [
    {
     "enum_field_value" : 1,
     "name" : "llvm::AlignOf<llvm::detail::AlignerImpl<unsigned int, char, char, char, char, char, char, char, char, char>>::Alignment_GreaterEqual_2Bytes"
    }
   ],
   "linker_set_key" : "_ZTIN4llvm7AlignOfINS_6detail11AlignerImplIjcccccccccEEE30$Alignment_GreaterEqual_2BytesE",
   "name" : "llvm::AlignOf<AlignerImpl<unsigned int, char, char, char, char, char, char, char, char, char>>::(anonymous enum at external/llvm/include/llvm/Support/AlignOf.h:86:3)",
   "referenced_type" : "_ZTIN4llvm7AlignOfINS_6detail11AlignerImplIjcccccccccEEE30$Alignment_GreaterEqual_2BytesE",
   "self_type" : "_ZTIN4llvm7AlignOfINS_6detail11AlignerImplIjcccccccccEEE30$Alignment_GreaterEqual_2BytesE",
   "size" : 4,
   "source_file" : "external/llvm/include/llvm/Support/AlignOf.h",
   "underlying_type" : "_ZTIj"
  },
  {
   "alignment" : 4,
   "enum_fields" :
   [
    {
     "enum_field_value" : 1,
     "name" : "llvm::AlignOf<llvm::detail::AlignerImpl<unsigned int, char, char, char, char, char, char, char, char, char>>::Alignment_GreaterEqual_4Bytes"
    }
   ],
   "linker_set_key" : "_ZTIN4llvm7AlignOfINS_6detail11AlignerImplIjcccccccccEEE30$Alignment_GreaterEqual_4BytesE",
   "name" : "llvm::AlignOf<AlignerImpl<unsigned int, char, char, char, char, char, char, char, char, char>>::(anonymous enum at external/llvm/include/llvm/Support/AlignOf.h:87:3)",
   "referenced_type" : "_ZTIN4llvm7AlignOfINS_6detail11AlignerImplIjcccccccccEEE30$Alignment_GreaterEqual_4BytesE",
   "self_type" : "_ZTIN4llvm7AlignOfINS_6detail11AlignerImplIjcccccccccEEE30$Alignment_GreaterEqual_4BytesE",
   "size" : 4,
   "source_file" : "external/llvm/include/llvm/Support/AlignOf.h",
   "underlying_type" : "_ZTIj"
  },
  {
   "alignment" : 4,
   "enum_fields" :
   [
    {
     "enum_field_value" : 0,
     "name" : "llvm::AlignOf<llvm::detail::AlignerImpl<unsigned int, char, char, char, char, char, char, char, char, char>>::Alignment_GreaterEqual_8Bytes"
    }
   ],
   "linker_set_key" : "_ZTIN4llvm7AlignOfINS_6detail11AlignerImplIjcccccccccEEE30$Alignment_GreaterEqual_8BytesE",
   "name" : "llvm::AlignOf<AlignerImpl<unsigned int, char, char, char, char, char, char, char, char, char>>::(anonymous enum at external/llvm/include/llvm/Support/AlignOf.h:88:3)",
   "referenced_type" : "_ZTIN4llvm7AlignOfINS_6detail11AlignerImplIjcccccccccEEE30$Alignment_GreaterEqual_8BytesE",
   "self_type" : "_ZTIN4llvm7AlignOfINS_6detail11AlignerImplIjcccccccccEEE30$Alignment_GreaterEqual_8BytesE",
   "size" : 4,
   "source_file" : "external/llvm/include/llvm/Support/AlignOf.h",
   "underlying_type" : "_ZTIj"
  },
  {
   "alignment" : 4,
   "enum_fields" :
   [
    {
     "enum_field_value" : 0,
     "name" : "llvm::AlignOf<llvm::detail::AlignerImpl<unsigned int, char, char, char, char, char, char, char, char, char>>::Alignment_GreaterEqual_16Bytes"
    }
   ],
   "linker_set_key" : "_ZTIN4llvm7AlignOfINS_6detail11AlignerImplIjcccccccccEEE31$Alignment_GreaterEqual_16BytesE",
   "name" : "llvm::AlignOf<AlignerImpl<unsigned int, char, char, char, char, char, char, char, char, char>>::(anonymous enum at external/llvm/include/llvm/Support/AlignOf.h:89:3)",
   "referenced_type" : "_ZTIN4llvm7AlignOfINS_6detail11AlignerImplIjcccccccccEEE31$Alignment_GreaterEqual_16BytesE",
   "self_type" : "_ZTIN4llvm7AlignOfINS_6detail11AlignerImplIjcccccccccEEE31$Alignment_GreaterEqual_16BytesE",
   "size" : 4,
   "source_file" : "external/llvm/include/llvm/Support/AlignOf.h",
   "underlying_type" : "_ZTIj"
  },
  {
   "alignment" : 4,
   "enum_fields" :
   [
    {
     "enum_field_value" : 0,
     "name" : "llvm::AlignOf<llvm::Metadata>::Alignment_LessEqual_2Bytes"
    }
   ],
   "linker_set_key" : "_ZTIN4llvm7AlignOfINS_8MetadataEE27$Alignment_LessEqual_2BytesE",
   "name" : "llvm::AlignOf<Metadata>::(anonymous enum at external/llvm/include/llvm/Support/AlignOf.h:91:3)",
   "referenced_type" : "_ZTIN4llvm7AlignOfINS_8MetadataEE27$Alignment_LessEqual_2BytesE",
   "self_type" : "_ZTIN4llvm7AlignOfINS_8MetadataEE27$Alignment_LessEqual_2BytesE",
   "size" : 4,
   "source_file" : "external/llvm/include/llvm/Support/AlignOf.h",
   "underlying_type" : "_ZTIj"
  },
  {
   "alignment" : 4,
   "enum_fields" :
   [
    {
     "enum_field_value" : 1,
     "name" : "llvm::AlignOf<llvm::Metadata>::Alignment_LessEqual_4Bytes"
    }
   ],
   "linker_set_key" : "_ZTIN4llvm7AlignOfINS_8MetadataEE27$Alignment_LessEqual_4BytesE",
   "name" : "llvm::AlignOf<Metadata>::(anonymous enum at external/llvm/include/llvm/Support/AlignOf.h:92:3)",
   "referenced_type" : "_ZTIN4llvm7AlignOfINS_8MetadataEE27$Alignment_LessEqual_4BytesE",
   "self_type" : "_ZTIN4llvm7AlignOfINS_8MetadataEE27$Alignment_LessEqual_4BytesE",
   "size" : 4,
   "source_file" : "external/llvm/include/llvm/Support/AlignOf.h",
   "underlying_type" : "_ZTIj"
  },
  {
   "alignment" : 4,
   "enum_fields" :
   [
    {
     "enum_field_value" : 1,
     "name" : "llvm::AlignOf<llvm::Metadata>::Alignment_LessEqual_8Bytes"
    }
   ],
   "linker_set_key" : "_ZTIN4llvm7AlignOfINS_8MetadataEE27$Alignment_LessEqual_8BytesE",
   "name" : "llvm::AlignOf<Metadata>::(anonymous enum at external/llvm/include/llvm/Support/AlignOf.h:93:3)",
   "referenced_type" : "_ZTIN4llvm7AlignOfINS_8MetadataEE27$Alignment_LessEqual_8BytesE",
   "self_type" : "_ZTIN4llvm7AlignOfINS_8MetadataEE27$Alignment_LessEqual_8BytesE",
   "size" : 4,
   "source_file" : "external/llvm/include/llvm/Support/AlignOf.h",
   "underlying_type" : "_ZTIj"
  },
  {
   "alignment" : 4,
   "enum_fields" :
   [
    {
     "enum_field_value" : 1,
     "name" : "llvm::AlignOf<llvm::Metadata>::Alignment_LessEqual_16Bytes"
    }
   ],
   "linker_set_key" : "_ZTIN4llvm7AlignOfINS_8MetadataEE28$Alignment_LessEqual_16BytesE",
   "name" : "llvm::AlignOf<Metadata>::(anonymous enum at external/llvm/include/llvm/Support/AlignOf.h:94:3)",
   "referenced_type" : "_ZTIN4llvm7AlignOfINS_8MetadataEE28$Alignment_LessEqual_16BytesE",
   "self_type" : "_ZTIN4llvm7AlignOfINS_8MetadataEE28$Alignment_LessEqual_16BytesE",
   "size" : 4,
   "source_file" : "external/llvm/include/llvm/Support/AlignOf.h",
   "underlying_type" : "_ZTIj"
  },
  {
   "alignment" : 4,
   "enum_fields" :
   [
    {
     "enum_field_value" : 1,
     "name" : "llvm::AlignOf<llvm::Metadata>::Alignment_GreaterEqual_2Bytes"
    }
   ],
   "linker_set_key" : "_ZTIN4llvm7AlignOfINS_8MetadataEE30$Alignment_GreaterEqual_2BytesE",
   "name" : "llvm::AlignOf<Metadata>::(anonymous enum at external/llvm/include/llvm/Support/AlignOf.h:86:3)",
   "referenced_type" : "_ZTIN4llvm7AlignOfINS_8MetadataEE30$Alignment_GreaterEqual_2BytesE",
   "self_type" : "_ZTIN4llvm7AlignOfINS_8MetadataEE30$Alignment_GreaterEqual_2BytesE",
   "size" : 4,
   "source_file" : "external/llvm/include/llvm/Support/AlignOf.h",
   "underlying_type" : "_ZTIj"
  },
  {
   "alignment" : 4,
   "enum_fields" :
   [
    {
     "enum_field_value" : 1,
     "name" : "llvm::AlignOf<llvm::Metadata>::Alignment_GreaterEqual_4Bytes"
    }
   ],
   "linker_set_key" : "_ZTIN4llvm7AlignOfINS_8MetadataEE30$Alignment_GreaterEqual_4BytesE",
   "name" : "llvm::AlignOf<Metadata>::(anonymous enum at external/llvm/include/llvm/Support/AlignOf.h:87:3)",
   "referenced_type" : "_ZTIN4llvm7AlignOfINS_8MetadataEE30$Alignment_GreaterEqual_4BytesE",
   "self_type" : "_ZTIN4llvm7AlignOfINS_8MetadataEE30$Alignment_GreaterEqual_4BytesE",
   "size" : 4,
   "source_file" : "external/llvm/include/llvm/Support/AlignOf.h",
   "underlying_type" : "_ZTIj"
  },
  {
   "alignment" : 4,
   "enum_fields" :
   [
    {
     "enum_field_value" : 0,
     "name" : "llvm::AlignOf<llvm::Metadata>::Alignment_GreaterEqual_8Bytes"
    }
   ],
   "linker_set_key" : "_ZTIN4llvm7AlignOfINS_8MetadataEE30$Alignment_GreaterEqual_8BytesE",
   "name" : "llvm::AlignOf<Metadata>::(anonymous enum at external/llvm/include/llvm/Support/AlignOf.h:88:3)",
   "referenced_type" : "_ZTIN4llvm7AlignOfINS_8MetadataEE30$Alignment_GreaterEqual_8BytesE",
   "self_type" : "_ZTIN4llvm7AlignOfINS_8MetadataEE30$Alignment_GreaterEqual_8BytesE",
   "size" : 4,
   "source_file" : "external/llvm/include/llvm/Support/AlignOf.h",
   "underlying_type" : "_ZTIj"
  },
  {
   "alignment" : 4,
   "enum_fields" :
   [
    {
     "enum_field_value" : 0,
     "name" : "llvm::AlignOf<llvm::Metadata>::Alignment_GreaterEqual_16Bytes"
    }
   ],
   "linker_set_key" : "_ZTIN4llvm7AlignOfINS_8MetadataEE31$Alignment_GreaterEqual_16BytesE",
   "name" : "llvm::AlignOf<Metadata>::(anonymous enum at external/llvm/include/llvm/Support/AlignOf.h:89:3)",
   "referenced_type" : "_ZTIN4llvm7AlignOfINS_8MetadataEE31$Alignment_GreaterEqual_16BytesE",
   "self_type" : "_ZTIN4llvm7AlignOfINS_8MetadataEE31$Alignment_GreaterEqual_16BytesE",
   "size" : 4,
   "source_file" : "external/llvm/include/llvm/Support/AlignOf.h",
   "underlying_type" : "_ZTIj"
  },
  {
   "alignment" : 4,
   "enum_fields" :
   [
    {
     "enum_field_value" : 0,
     "name" : "llvm::AlignOf<llvm::Use *>::Alignment_LessEqual_2Bytes"
    }
   ],
   "linker_set_key" : "_ZTIN4llvm7AlignOfIPNS_3UseEE27$Alignment_LessEqual_2BytesE",
   "name" : "llvm::AlignOf<Use *>::(anonymous enum at external/llvm/include/llvm/Support/AlignOf.h:91:3)",
   "referenced_type" : "_ZTIN4llvm7AlignOfIPNS_3UseEE27$Alignment_LessEqual_2BytesE",
   "self_type" : "_ZTIN4llvm7AlignOfIPNS_3UseEE27$Alignment_LessEqual_2BytesE",
   "size" : 4,
   "source_file" : "external/llvm/include/llvm/Support/AlignOf.h",
   "underlying_type" : "_ZTIj"
  },
  {
   "alignment" : 4,
   "enum_fields" :
   [
    {
     "enum_field_value" : 1,
     "name" : "llvm::AlignOf<llvm::Use *>::Alignment_LessEqual_4Bytes"
    }
   ],
   "linker_set_key" : "_ZTIN4llvm7AlignOfIPNS_3UseEE27$Alignment_LessEqual_4BytesE",
   "name" : "llvm::AlignOf<Use *>::(anonymous enum at external/llvm/include/llvm/Support/AlignOf.h:92:3)",
   "referenced_type" : "_ZTIN4llvm7AlignOfIPNS_3UseEE27$Alignment_LessEqual_4BytesE",
   "self_type" : "_ZTIN4llvm7AlignOfIPNS_3UseEE27$Alignment_LessEqual_4BytesE",
   "size" : 4,
   "source_file" : "external/llvm/include/llvm/Support/AlignOf.h",
   "underlying_type" : "_ZTIj"
  },
  {
   "alignment" : 4,
   "enum_fields" :
   [
    {
     "enum_field_value" : 1,
     "name" : "llvm::AlignOf<llvm::Use *>::Alignment_LessEqual_8Bytes"
    }
   ],
   "linker_set_key" : "_ZTIN4llvm7AlignOfIPNS_3UseEE27$Alignment_LessEqual_8BytesE",
   "name" : "llvm::AlignOf<Use *>::(anonymous enum at external/llvm/include/llvm/Support/AlignOf.h:93:3)",
   "referenced_type" : "_ZTIN4llvm7AlignOfIPNS_3UseEE27$Alignment_LessEqual_8BytesE",
   "self_type" : "_ZTIN4llvm7AlignOfIPNS_3UseEE27$Alignment_LessEqual_8BytesE",
   "size" : 4,
   "source_file" : "external/llvm/include/llvm/Support/AlignOf.h",
   "underlying_type" : "_ZTIj"
  },
  {
   "alignment" : 4,
   "enum_fields" :
   [
    {
     "enum_field_value" : 1,
     "name" : "llvm::AlignOf<llvm::Use *>::Alignment_LessEqual_16Bytes"
    }
   ],
   "linker_set_key" : "_ZTIN4llvm7AlignOfIPNS_3UseEE28$Alignment_LessEqual_16BytesE",
   "name" : "llvm::AlignOf<Use *>::(anonymous enum at external/llvm/include/llvm/Support/AlignOf.h:94:3)",
   "referenced_type" : "_ZTIN4llvm7AlignOfIPNS_3UseEE28$Alignment_LessEqual_16BytesE",
   "self_type" : "_ZTIN4llvm7AlignOfIPNS_3UseEE28$Alignment_LessEqual_16BytesE",
   "size" : 4,
   "source_file" : "external/llvm/include/llvm/Support/AlignOf.h",
   "underlying_type" : "_ZTIj"
  },
  {
   "alignment" : 4,
   "enum_fields" :
   [
    {
     "enum_field_value" : 1,
     "name" : "llvm::AlignOf<llvm::Use *>::Alignment_GreaterEqual_2Bytes"
    }
   ],
   "linker_set_key" : "_ZTIN4llvm7AlignOfIPNS_3UseEE30$Alignment_GreaterEqual_2BytesE",
   "name" : "llvm::AlignOf<Use *>::(anonymous enum at external/llvm/include/llvm/Support/AlignOf.h:86:3)",
   "referenced_type" : "_ZTIN4llvm7AlignOfIPNS_3UseEE30$Alignment_GreaterEqual_2BytesE",
   "self_type" : "_ZTIN4llvm7AlignOfIPNS_3UseEE30$Alignment_GreaterEqual_2BytesE",
   "size" : 4,
   "source_file" : "external/llvm/include/llvm/Support/AlignOf.h",
   "underlying_type" : "_ZTIj"
  },
  {
   "alignment" : 4,
   "enum_fields" :
   [
    {
     "enum_field_value" : 1,
     "name" : "llvm::AlignOf<llvm::Use *>::Alignment_GreaterEqual_4Bytes"
    }
   ],
   "linker_set_key" : "_ZTIN4llvm7AlignOfIPNS_3UseEE30$Alignment_GreaterEqual_4BytesE",
   "name" : "llvm::AlignOf<Use *>::(anonymous enum at external/llvm/include/llvm/Support/AlignOf.h:87:3)",
   "referenced_type" : "_ZTIN4llvm7AlignOfIPNS_3UseEE30$Alignment_GreaterEqual_4BytesE",
   "self_type" : "_ZTIN4llvm7AlignOfIPNS_3UseEE30$Alignment_GreaterEqual_4BytesE",
   "size" : 4,
   "source_file" : "external/llvm/include/llvm/Support/AlignOf.h",
   "underlying_type" : "_ZTIj"
  },
  {
   "alignment" : 4,
   "enum_fields" :
   [
    {
     "enum_field_value" : 0,
     "name" : "llvm::AlignOf<llvm::Use *>::Alignment_GreaterEqual_8Bytes"
    }
   ],
   "linker_set_key" : "_ZTIN4llvm7AlignOfIPNS_3UseEE30$Alignment_GreaterEqual_8BytesE",
   "name" : "llvm::AlignOf<Use *>::(anonymous enum at external/llvm/include/llvm/Support/AlignOf.h:88:3)",
   "referenced_type" : "_ZTIN4llvm7AlignOfIPNS_3UseEE30$Alignment_GreaterEqual_8BytesE",
   "self_type" : "_ZTIN4llvm7AlignOfIPNS_3UseEE30$Alignment_GreaterEqual_8BytesE",
   "size" : 4,
   "source_file" : "external/llvm/include/llvm/Support/AlignOf.h",
   "underlying_type" : "_ZTIj"
  },
  {
   "alignment" : 4,
   "enum_fields" :
   [
    {
     "enum_field_value" : 0,
     "name" : "llvm::AlignOf<llvm::Use *>::Alignment_GreaterEqual_16Bytes"
    }
   ],
   "linker_set_key" : "_ZTIN4llvm7AlignOfIPNS_3UseEE31$Alignment_GreaterEqual_16BytesE",
   "name" : "llvm::AlignOf<Use *>::(anonymous enum at external/llvm/include/llvm/Support/AlignOf.h:89:3)",
   "referenced_type" : "_ZTIN4llvm7AlignOfIPNS_3UseEE31$Alignment_GreaterEqual_16BytesE",
   "self_type" : "_ZTIN4llvm7AlignOfIPNS_3UseEE31$Alignment_GreaterEqual_16BytesE",
   "size" : 4,
   "source_file" : "external/llvm/include/llvm/Support/AlignOf.h",
   "underlying_type" : "_ZTIj"
  },
  {
   "alignment" : 4,
   "enum_fields" :
   [
    {
     "enum_field_value" : 0,
     "name" : "llvm::AlignOf<llvm::Type *>::Alignment_LessEqual_2Bytes"
    }
   ],
   "linker_set_key" : "_ZTIN4llvm7AlignOfIPNS_4TypeEE27$Alignment_LessEqual_2BytesE",
   "name" : "llvm::AlignOf<Type *>::(anonymous enum at external/llvm/include/llvm/Support/AlignOf.h:91:3)",
   "referenced_type" : "_ZTIN4llvm7AlignOfIPNS_4TypeEE27$Alignment_LessEqual_2BytesE",
   "self_type" : "_ZTIN4llvm7AlignOfIPNS_4TypeEE27$Alignment_LessEqual_2BytesE",
   "size" : 4,
   "source_file" : "external/llvm/include/llvm/Support/AlignOf.h",
   "underlying_type" : "_ZTIj"
  },
  {
   "alignment" : 4,
   "enum_fields" :
   [
    {
     "enum_field_value" : 1,
     "name" : "llvm::AlignOf<llvm::Type *>::Alignment_LessEqual_4Bytes"
    }
   ],
   "linker_set_key" : "_ZTIN4llvm7AlignOfIPNS_4TypeEE27$Alignment_LessEqual_4BytesE",
   "name" : "llvm::AlignOf<Type *>::(anonymous enum at external/llvm/include/llvm/Support/AlignOf.h:92:3)",
   "referenced_type" : "_ZTIN4llvm7AlignOfIPNS_4TypeEE27$Alignment_LessEqual_4BytesE",
   "self_type" : "_ZTIN4llvm7AlignOfIPNS_4TypeEE27$Alignment_LessEqual_4BytesE",
   "size" : 4,
   "source_file" : "external/llvm/include/llvm/Support/AlignOf.h",
   "underlying_type" : "_ZTIj"
  },
  {
   "alignment" : 4,
   "enum_fields" :
   [
    {
     "enum_field_value" : 1,
     "name" : "llvm::AlignOf<llvm::Type *>::Alignment_LessEqual_8Bytes"
    }
   ],
   "linker_set_key" : "_ZTIN4llvm7AlignOfIPNS_4TypeEE27$Alignment_LessEqual_8BytesE",
   "name" : "llvm::AlignOf<Type *>::(anonymous enum at external/llvm/include/llvm/Support/AlignOf.h:93:3)",
   "referenced_type" : "_ZTIN4llvm7AlignOfIPNS_4TypeEE27$Alignment_LessEqual_8BytesE",
   "self_type" : "_ZTIN4llvm7AlignOfIPNS_4TypeEE27$Alignment_LessEqual_8BytesE",
   "size" : 4,
   "source_file" : "external/llvm/include/llvm/Support/AlignOf.h",
   "underlying_type" : "_ZTIj"
  },
  {
   "alignment" : 4,
   "enum_fields" :
   [
    {
     "enum_field_value" : 1,
     "name" : "llvm::AlignOf<llvm::Type *>::Alignment_LessEqual_16Bytes"
    }
   ],
   "linker_set_key" : "_ZTIN4llvm7AlignOfIPNS_4TypeEE28$Alignment_LessEqual_16BytesE",
   "name" : "llvm::AlignOf<Type *>::(anonymous enum at external/llvm/include/llvm/Support/AlignOf.h:94:3)",
   "referenced_type" : "_ZTIN4llvm7AlignOfIPNS_4TypeEE28$Alignment_LessEqual_16BytesE",
   "self_type" : "_ZTIN4llvm7AlignOfIPNS_4TypeEE28$Alignment_LessEqual_16BytesE",
   "size" : 4,
   "source_file" : "external/llvm/include/llvm/Support/AlignOf.h",
   "underlying_type" : "_ZTIj"
  },
  {
   "alignment" : 4,
   "enum_fields" :
   [
    {
     "enum_field_value" : 1,
     "name" : "llvm::AlignOf<llvm::Type *>::Alignment_GreaterEqual_2Bytes"
    }
   ],
   "linker_set_key" : "_ZTIN4llvm7AlignOfIPNS_4TypeEE30$Alignment_GreaterEqual_2BytesE",
   "name" : "llvm::AlignOf<Type *>::(anonymous enum at external/llvm/include/llvm/Support/AlignOf.h:86:3)",
   "referenced_type" : "_ZTIN4llvm7AlignOfIPNS_4TypeEE30$Alignment_GreaterEqual_2BytesE",
   "self_type" : "_ZTIN4llvm7AlignOfIPNS_4TypeEE30$Alignment_GreaterEqual_2BytesE",
   "size" : 4,
   "source_file" : "external/llvm/include/llvm/Support/AlignOf.h",
   "underlying_type" : "_ZTIj"
  },
  {
   "alignment" : 4,
   "enum_fields" :
   [
    {
     "enum_field_value" : 1,
     "name" : "llvm::AlignOf<llvm::Type *>::Alignment_GreaterEqual_4Bytes"
    }
   ],
   "linker_set_key" : "_ZTIN4llvm7AlignOfIPNS_4TypeEE30$Alignment_GreaterEqual_4BytesE",
   "name" : "llvm::AlignOf<Type *>::(anonymous enum at external/llvm/include/llvm/Support/AlignOf.h:87:3)",
   "referenced_type" : "_ZTIN4llvm7AlignOfIPNS_4TypeEE30$Alignment_GreaterEqual_4BytesE",
   "self_type" : "_ZTIN4llvm7AlignOfIPNS_4TypeEE30$Alignment_GreaterEqual_4BytesE",
   "size" : 4,
   "source_file" : "external/llvm/include/llvm/Support/AlignOf.h",
   "underlying_type" : "_ZTIj"
  },
  {
   "alignment" : 4,
   "enum_fields" :
   [
    {
     "enum_field_value" : 0,
     "name" : "llvm::AlignOf<llvm::Type *>::Alignment_GreaterEqual_8Bytes"
    }
   ],
   "linker_set_key" : "_ZTIN4llvm7AlignOfIPNS_4TypeEE30$Alignment_GreaterEqual_8BytesE",
   "name" : "llvm::AlignOf<Type *>::(anonymous enum at external/llvm/include/llvm/Support/AlignOf.h:88:3)",
   "referenced_type" : "_ZTIN4llvm7AlignOfIPNS_4TypeEE30$Alignment_GreaterEqual_8BytesE",
   "self_type" : "_ZTIN4llvm7AlignOfIPNS_4TypeEE30$Alignment_GreaterEqual_8BytesE",
   "size" : 4,
   "source_file" : "external/llvm/include/llvm/Support/AlignOf.h",
   "underlying_type" : "_ZTIj"
  },
  {
   "alignment" : 4,
   "enum_fields" :
   [
    {
     "enum_field_value" : 0,
     "name" : "llvm::AlignOf<llvm::Type *>::Alignment_GreaterEqual_16Bytes"
    }
   ],
   "linker_set_key" : "_ZTIN4llvm7AlignOfIPNS_4TypeEE31$Alignment_GreaterEqual_16BytesE",
   "name" : "llvm::AlignOf<Type *>::(anonymous enum at external/llvm/include/llvm/Support/AlignOf.h:89:3)",
   "referenced_type" : "_ZTIN4llvm7AlignOfIPNS_4TypeEE31$Alignment_GreaterEqual_16BytesE",
   "self_type" : "_ZTIN4llvm7AlignOfIPNS_4TypeEE31$Alignment_GreaterEqual_16BytesE",
   "size" : 4,
   "source_file" : "external/llvm/include/llvm/Support/AlignOf.h",
   "underlying_type" : "_ZTIj"
  },
  {
   "alignment" : 4,
   "enum_fields" :
   [
    {
     "enum_field_value" : 0,
     "name" : "llvm::AlignOf<unsigned int>::Alignment_LessEqual_2Bytes"
    }
   ],
   "linker_set_key" : "_ZTIN4llvm7AlignOfIjE27$Alignment_LessEqual_2BytesE",
   "name" : "llvm::AlignOf<unsigned int>::(anonymous enum at external/llvm/include/llvm/Support/AlignOf.h:91:3)",
   "referenced_type" : "_ZTIN4llvm7AlignOfIjE27$Alignment_LessEqual_2BytesE",
   "self_type" : "_ZTIN4llvm7AlignOfIjE27$Alignment_LessEqual_2BytesE",
   "size" : 4,
   "source_file" : "external/llvm/include/llvm/Support/AlignOf.h",
   "underlying_type" : "_ZTIj"
  },
  {
   "alignment" : 4,
   "enum_fields" :
   [
    {
     "enum_field_value" : 1,
     "name" : "llvm::AlignOf<unsigned int>::Alignment_LessEqual_4Bytes"
    }
   ],
   "linker_set_key" : "_ZTIN4llvm7AlignOfIjE27$Alignment_LessEqual_4BytesE",
   "name" : "llvm::AlignOf<unsigned int>::(anonymous enum at external/llvm/include/llvm/Support/AlignOf.h:92:3)",
   "referenced_type" : "_ZTIN4llvm7AlignOfIjE27$Alignment_LessEqual_4BytesE",
   "self_type" : "_ZTIN4llvm7AlignOfIjE27$Alignment_LessEqual_4BytesE",
   "size" : 4,
   "source_file" : "external/llvm/include/llvm/Support/AlignOf.h",
   "underlying_type" : "_ZTIj"
  },
  {
   "alignment" : 4,
   "enum_fields" :
   [
    {
     "enum_field_value" : 1,
     "name" : "llvm::AlignOf<unsigned int>::Alignment_LessEqual_8Bytes"
    }
   ],
   "linker_set_key" : "_ZTIN4llvm7AlignOfIjE27$Alignment_LessEqual_8BytesE",
   "name" : "llvm::AlignOf<unsigned int>::(anonymous enum at external/llvm/include/llvm/Support/AlignOf.h:93:3)",
   "referenced_type" : "_ZTIN4llvm7AlignOfIjE27$Alignment_LessEqual_8BytesE",
   "self_type" : "_ZTIN4llvm7AlignOfIjE27$Alignment_LessEqual_8BytesE",
   "size" : 4,
   "source_file" : "external/llvm/include/llvm/Support/AlignOf.h",
   "underlying_type" : "_ZTIj"
  },
  {
   "alignment" : 4,
   "enum_fields" :
   [
    {
     "enum_field_value" : 1,
     "name" : "llvm::AlignOf<unsigned int>::Alignment_LessEqual_16Bytes"
    }
   ],
   "linker_set_key" : "_ZTIN4llvm7AlignOfIjE28$Alignment_LessEqual_16BytesE",
   "name" : "llvm::AlignOf<unsigned int>::(anonymous enum at external/llvm/include/llvm/Support/AlignOf.h:94:3)",
   "referenced_type" : "_ZTIN4llvm7AlignOfIjE28$Alignment_LessEqual_16BytesE",
   "self_type" : "_ZTIN4llvm7AlignOfIjE28$Alignment_LessEqual_16BytesE",
   "size" : 4,
   "source_file" : "external/llvm/include/llvm/Support/AlignOf.h",
   "underlying_type" : "_ZTIj"
  },
  {
   "alignment" : 4,
   "enum_fields" :
   [
    {
     "enum_field_value" : 1,
     "name" : "llvm::AlignOf<unsigned int>::Alignment_GreaterEqual_2Bytes"
    }
   ],
   "linker_set_key" : "_ZTIN4llvm7AlignOfIjE30$Alignment_GreaterEqual_2BytesE",
   "name" : "llvm::AlignOf<unsigned int>::(anonymous enum at external/llvm/include/llvm/Support/AlignOf.h:86:3)",
   "referenced_type" : "_ZTIN4llvm7AlignOfIjE30$Alignment_GreaterEqual_2BytesE",
   "self_type" : "_ZTIN4llvm7AlignOfIjE30$Alignment_GreaterEqual_2BytesE",
   "size" : 4,
   "source_file" : "external/llvm/include/llvm/Support/AlignOf.h",
   "underlying_type" : "_ZTIj"
  },
  {
   "alignment" : 4,
   "enum_fields" :
   [
    {
     "enum_field_value" : 1,
     "name" : "llvm::AlignOf<unsigned int>::Alignment_GreaterEqual_4Bytes"
    }
   ],
   "linker_set_key" : "_ZTIN4llvm7AlignOfIjE30$Alignment_GreaterEqual_4BytesE",
   "name" : "llvm::AlignOf<unsigned int>::(anonymous enum at external/llvm/include/llvm/Support/AlignOf.h:87:3)",
   "referenced_type" : "_ZTIN4llvm7AlignOfIjE30$Alignment_GreaterEqual_4BytesE",
   "self_type" : "_ZTIN4llvm7AlignOfIjE30$Alignment_GreaterEqual_4BytesE",
   "size" : 4,
   "source_file" : "external/llvm/include/llvm/Support/AlignOf.h",
   "underlying_type" : "_ZTIj"
  },
  {
   "alignment" : 4,
   "enum_fields" :
   [
    {
     "enum_field_value" : 0,
     "name" : "llvm::AlignOf<unsigned int>::Alignment_GreaterEqual_8Bytes"
    }
   ],
   "linker_set_key" : "_ZTIN4llvm7AlignOfIjE30$Alignment_GreaterEqual_8BytesE",
   "name" : "llvm::AlignOf<unsigned int>::(anonymous enum at external/llvm/include/llvm/Support/AlignOf.h:88:3)",
   "referenced_type" : "_ZTIN4llvm7AlignOfIjE30$Alignment_GreaterEqual_8BytesE",
   "self_type" : "_ZTIN4llvm7AlignOfIjE30$Alignment_GreaterEqual_8BytesE",
   "size" : 4,
   "source_file" : "external/llvm/include/llvm/Support/AlignOf.h",
   "underlying_type" : "_ZTIj"
  },
  {
   "alignment" : 4,
   "enum_fields" :
   [
    {
     "enum_field_value" : 0,
     "name" : "llvm::AlignOf<unsigned int>::Alignment_GreaterEqual_16Bytes"
    }
   ],
   "linker_set_key" : "_ZTIN4llvm7AlignOfIjE31$Alignment_GreaterEqual_16BytesE",
   "name" : "llvm::AlignOf<unsigned int>::(anonymous enum at external/llvm/include/llvm/Support/AlignOf.h:89:3)",
   "referenced_type" : "_ZTIN4llvm7AlignOfIjE31$Alignment_GreaterEqual_16BytesE",
   "self_type" : "_ZTIN4llvm7AlignOfIjE31$Alignment_GreaterEqual_16BytesE",
   "size" : 4,
   "source_file" : "external/llvm/include/llvm/Support/AlignOf.h",
   "underlying_type" : "_ZTIj"
  },
  {
   "alignment" : 4,
   "enum_fields" :
   [
    {
     "enum_field_value" : 1,
     "name" : "llvm::AlignOf<unsigned short>::Alignment_LessEqual_2Bytes"
    }
   ],
   "linker_set_key" : "_ZTIN4llvm7AlignOfItE27$Alignment_LessEqual_2BytesE",
   "name" : "llvm::AlignOf<unsigned short>::(anonymous enum at external/llvm/include/llvm/Support/AlignOf.h:91:3)",
   "referenced_type" : "_ZTIN4llvm7AlignOfItE27$Alignment_LessEqual_2BytesE",
   "self_type" : "_ZTIN4llvm7AlignOfItE27$Alignment_LessEqual_2BytesE",
   "size" : 4,
   "source_file" : "external/llvm/include/llvm/Support/AlignOf.h",
   "underlying_type" : "_ZTIj"
  },
  {
   "alignment" : 4,
   "enum_fields" :
   [
    {
     "enum_field_value" : 1,
     "name" : "llvm::AlignOf<unsigned short>::Alignment_LessEqual_4Bytes"
    }
   ],
   "linker_set_key" : "_ZTIN4llvm7AlignOfItE27$Alignment_LessEqual_4BytesE",
   "name" : "llvm::AlignOf<unsigned short>::(anonymous enum at external/llvm/include/llvm/Support/AlignOf.h:92:3)",
   "referenced_type" : "_ZTIN4llvm7AlignOfItE27$Alignment_LessEqual_4BytesE",
   "self_type" : "_ZTIN4llvm7AlignOfItE27$Alignment_LessEqual_4BytesE",
   "size" : 4,
   "source_file" : "external/llvm/include/llvm/Support/AlignOf.h",
   "underlying_type" : "_ZTIj"
  },
  {
   "alignment" : 4,
   "enum_fields" :
   [
    {
     "enum_field_value" : 1,
     "name" : "llvm::AlignOf<unsigned short>::Alignment_LessEqual_8Bytes"
    }
   ],
   "linker_set_key" : "_ZTIN4llvm7AlignOfItE27$Alignment_LessEqual_8BytesE",
   "name" : "llvm::AlignOf<unsigned short>::(anonymous enum at external/llvm/include/llvm/Support/AlignOf.h:93:3)",
   "referenced_type" : "_ZTIN4llvm7AlignOfItE27$Alignment_LessEqual_8BytesE",
   "self_type" : "_ZTIN4llvm7AlignOfItE27$Alignment_LessEqual_8BytesE",
   "size" : 4,
   "source_file" : "external/llvm/include/llvm/Support/AlignOf.h",
   "underlying_type" : "_ZTIj"
  },
  {
   "alignment" : 4,
   "enum_fields" :
   [
    {
     "enum_field_value" : 1,
     "name" : "llvm::AlignOf<unsigned short>::Alignment_LessEqual_16Bytes"
    }
   ],
   "linker_set_key" : "_ZTIN4llvm7AlignOfItE28$Alignment_LessEqual_16BytesE",
   "name" : "llvm::AlignOf<unsigned short>::(anonymous enum at external/llvm/include/llvm/Support/AlignOf.h:94:3)",
   "referenced_type" : "_ZTIN4llvm7AlignOfItE28$Alignment_LessEqual_16BytesE",
   "self_type" : "_ZTIN4llvm7AlignOfItE28$Alignment_LessEqual_16BytesE",
   "size" : 4,
   "source_file" : "external/llvm/include/llvm/Support/AlignOf.h",
   "underlying_type" : "_ZTIj"
  },
  {
   "alignment" : 4,
   "enum_fields" :
   [
    {
     "enum_field_value" : 1,
     "name" : "llvm::AlignOf<unsigned short>::Alignment_GreaterEqual_2Bytes"
    }
   ],
   "linker_set_key" : "_ZTIN4llvm7AlignOfItE30$Alignment_GreaterEqual_2BytesE",
   "name" : "llvm::AlignOf<unsigned short>::(anonymous enum at external/llvm/include/llvm/Support/AlignOf.h:86:3)",
   "referenced_type" : "_ZTIN4llvm7AlignOfItE30$Alignment_GreaterEqual_2BytesE",
   "self_type" : "_ZTIN4llvm7AlignOfItE30$Alignment_GreaterEqual_2BytesE",
   "size" : 4,
   "source_file" : "external/llvm/include/llvm/Support/AlignOf.h",
   "underlying_type" : "_ZTIj"
  },
  {
   "alignment" : 4,
   "enum_fields" :
   [
    {
     "enum_field_value" : 0,
     "name" : "llvm::AlignOf<unsigned short>::Alignment_GreaterEqual_4Bytes"
    }
   ],
   "linker_set_key" : "_ZTIN4llvm7AlignOfItE30$Alignment_GreaterEqual_4BytesE",
   "name" : "llvm::AlignOf<unsigned short>::(anonymous enum at external/llvm/include/llvm/Support/AlignOf.h:87:3)",
   "referenced_type" : "_ZTIN4llvm7AlignOfItE30$Alignment_GreaterEqual_4BytesE",
   "self_type" : "_ZTIN4llvm7AlignOfItE30$Alignment_GreaterEqual_4BytesE",
   "size" : 4,
   "source_file" : "external/llvm/include/llvm/Support/AlignOf.h",
   "underlying_type" : "_ZTIj"
  },
  {
   "alignment" : 4,
   "enum_fields" :
   [
    {
     "enum_field_value" : 0,
     "name" : "llvm::AlignOf<unsigned short>::Alignment_GreaterEqual_8Bytes"
    }
   ],
   "linker_set_key" : "_ZTIN4llvm7AlignOfItE30$Alignment_GreaterEqual_8BytesE",
   "name" : "llvm::AlignOf<unsigned short>::(anonymous enum at external/llvm/include/llvm/Support/AlignOf.h:88:3)",
   "referenced_type" : "_ZTIN4llvm7AlignOfItE30$Alignment_GreaterEqual_8BytesE",
   "self_type" : "_ZTIN4llvm7AlignOfItE30$Alignment_GreaterEqual_8BytesE",
   "size" : 4,
   "source_file" : "external/llvm/include/llvm/Support/AlignOf.h",
   "underlying_type" : "_ZTIj"
  },
  {
   "alignment" : 4,
   "enum_fields" :
   [
    {
     "enum_field_value" : 0,
     "name" : "llvm::AlignOf<unsigned short>::Alignment_GreaterEqual_16Bytes"
    }
   ],
   "linker_set_key" : "_ZTIN4llvm7AlignOfItE31$Alignment_GreaterEqual_16BytesE",
   "name" : "llvm::AlignOf<unsigned short>::(anonymous enum at external/llvm/include/llvm/Support/AlignOf.h:89:3)",
   "referenced_type" : "_ZTIN4llvm7AlignOfItE31$Alignment_GreaterEqual_16BytesE",
   "self_type" : "_ZTIN4llvm7AlignOfItE31$Alignment_GreaterEqual_16BytesE",
   "size" : 4,
   "source_file" : "external/llvm/include/llvm/Support/AlignOf.h",
   "underlying_type" : "_ZTIj"
  },
  {
   "alignment" : 4,
   "enum_fields" :
   [
    {
     "enum_field_value" : 0,
     "name" : "llvm::AlignOf<unsigned long long>::Alignment_LessEqual_2Bytes"
    }
   ],
   "linker_set_key" : "_ZTIN4llvm7AlignOfIyE27$Alignment_LessEqual_2BytesE",
   "name" : "llvm::AlignOf<unsigned long long>::(anonymous enum at external/llvm/include/llvm/Support/AlignOf.h:91:3)",
   "referenced_type" : "_ZTIN4llvm7AlignOfIyE27$Alignment_LessEqual_2BytesE",
   "self_type" : "_ZTIN4llvm7AlignOfIyE27$Alignment_LessEqual_2BytesE",
   "size" : 4,
   "source_file" : "external/llvm/include/llvm/Support/AlignOf.h",
   "underlying_type" : "_ZTIj"
  },
  {
   "alignment" : 4,
   "enum_fields" :
   [
    {
     "enum_field_value" : 0,
     "name" : "llvm::AlignOf<unsigned long long>::Alignment_LessEqual_4Bytes"
    }
   ],
   "linker_set_key" : "_ZTIN4llvm7AlignOfIyE27$Alignment_LessEqual_4BytesE",
   "name" : "llvm::AlignOf<unsigned long long>::(anonymous enum at external/llvm/include/llvm/Support/AlignOf.h:92:3)",
   "referenced_type" : "_ZTIN4llvm7AlignOfIyE27$Alignment_LessEqual_4BytesE",
   "self_type" : "_ZTIN4llvm7AlignOfIyE27$Alignment_LessEqual_4BytesE",
   "size" : 4,
   "source_file" : "external/llvm/include/llvm/Support/AlignOf.h",
   "underlying_type" : "_ZTIj"
  },
  {
   "alignment" : 4,
   "enum_fields" :
   [
    {
     "enum_field_value" : 1,
     "name" : "llvm::AlignOf<unsigned long long>::Alignment_LessEqual_8Bytes"
    }
   ],
   "linker_set_key" : "_ZTIN4llvm7AlignOfIyE27$Alignment_LessEqual_8BytesE",
   "name" : "llvm::AlignOf<unsigned long long>::(anonymous enum at external/llvm/include/llvm/Support/AlignOf.h:93:3)",
   "referenced_type" : "_ZTIN4llvm7AlignOfIyE27$Alignment_LessEqual_8BytesE",
   "self_type" : "_ZTIN4llvm7AlignOfIyE27$Alignment_LessEqual_8BytesE",
   "size" : 4,
   "source_file" : "external/llvm/include/llvm/Support/AlignOf.h",
   "underlying_type" : "_ZTIj"
  },
  {
   "alignment" : 4,
   "enum_fields" :
   [
    {
     "enum_field_value" : 1,
     "name" : "llvm::AlignOf<unsigned long long>::Alignment_LessEqual_16Bytes"
    }
   ],
   "linker_set_key" : "_ZTIN4llvm7AlignOfIyE28$Alignment_LessEqual_16BytesE",
   "name" : "llvm::AlignOf<unsigned long long>::(anonymous enum at external/llvm/include/llvm/Support/AlignOf.h:94:3)",
   "referenced_type" : "_ZTIN4llvm7AlignOfIyE28$Alignment_LessEqual_16BytesE",
   "self_type" : "_ZTIN4llvm7AlignOfIyE28$Alignment_LessEqual_16BytesE",
   "size" : 4,
   "source_file" : "external/llvm/include/llvm/Support/AlignOf.h",
   "underlying_type" : "_ZTIj"
  },
  {
   "alignment" : 4,
   "enum_fields" :
   [
    {
     "enum_field_value" : 1,
     "name" : "llvm::AlignOf<unsigned long long>::Alignment_GreaterEqual_2Bytes"
    }
   ],
   "linker_set_key" : "_ZTIN4llvm7AlignOfIyE30$Alignment_GreaterEqual_2BytesE",
   "name" : "llvm::AlignOf<unsigned long long>::(anonymous enum at external/llvm/include/llvm/Support/AlignOf.h:86:3)",
   "referenced_type" : "_ZTIN4llvm7AlignOfIyE30$Alignment_GreaterEqual_2BytesE",
   "self_type" : "_ZTIN4llvm7AlignOfIyE30$Alignment_GreaterEqual_2BytesE",
   "size" : 4,
   "source_file" : "external/llvm/include/llvm/Support/AlignOf.h",
   "underlying_type" : "_ZTIj"
  },
  {
   "alignment" : 4,
   "enum_fields" :
   [
    {
     "enum_field_value" : 1,
     "name" : "llvm::AlignOf<unsigned long long>::Alignment_GreaterEqual_4Bytes"
    }
   ],
   "linker_set_key" : "_ZTIN4llvm7AlignOfIyE30$Alignment_GreaterEqual_4BytesE",
   "name" : "llvm::AlignOf<unsigned long long>::(anonymous enum at external/llvm/include/llvm/Support/AlignOf.h:87:3)",
   "referenced_type" : "_ZTIN4llvm7AlignOfIyE30$Alignment_GreaterEqual_4BytesE",
   "self_type" : "_ZTIN4llvm7AlignOfIyE30$Alignment_GreaterEqual_4BytesE",
   "size" : 4,
   "source_file" : "external/llvm/include/llvm/Support/AlignOf.h",
   "underlying_type" : "_ZTIj"
  },
  {
   "alignment" : 4,
   "enum_fields" :
   [
    {
     "enum_field_value" : 1,
     "name" : "llvm::AlignOf<unsigned long long>::Alignment_GreaterEqual_8Bytes"
    }
   ],
   "linker_set_key" : "_ZTIN4llvm7AlignOfIyE30$Alignment_GreaterEqual_8BytesE",
   "name" : "llvm::AlignOf<unsigned long long>::(anonymous enum at external/llvm/include/llvm/Support/AlignOf.h:88:3)",
   "referenced_type" : "_ZTIN4llvm7AlignOfIyE30$Alignment_GreaterEqual_8BytesE",
   "self_type" : "_ZTIN4llvm7AlignOfIyE30$Alignment_GreaterEqual_8BytesE",
   "size" : 4,
   "source_file" : "external/llvm/include/llvm/Support/AlignOf.h",
   "underlying_type" : "_ZTIj"
  },
  {
   "alignment" : 4,
   "enum_fields" :
   [
    {
     "enum_field_value" : 0,
     "name" : "llvm::AlignOf<unsigned long long>::Alignment_GreaterEqual_16Bytes"
    }
   ],
   "linker_set_key" : "_ZTIN4llvm7AlignOfIyE31$Alignment_GreaterEqual_16BytesE",
   "name" : "llvm::AlignOf<unsigned long long>::(anonymous enum at external/llvm/include/llvm/Support/AlignOf.h:89:3)",
   "referenced_type" : "_ZTIN4llvm7AlignOfIyE31$Alignment_GreaterEqual_16BytesE",
   "self_type" : "_ZTIN4llvm7AlignOfIyE31$Alignment_GreaterEqual_16BytesE",
   "size" : 4,
   "source_file" : "external/llvm/include/llvm/Support/AlignOf.h",
   "underlying_type" : "_ZTIj"
  },
  {
   "alignment" : 4,
   "enum_fields" :
   [
    {
     "enum_field_value" : 0,
     "name" : "llvm::support::big"
    },
    {
     "enum_field_value" : 1,
     "name" : "llvm::support::little"
    },
    {
     "enum_field_value" : 2,
     "name" : "llvm::support::native"
    }
   ],
   "linker_set_key" : "_ZTIN4llvm7support10endiannessE",
   "name" : "llvm::support::endianness",
   "referenced_type" : "_ZTIN4llvm7support10endiannessE",
   "self_type" : "_ZTIN4llvm7support10endiannessE",
   "size" : 4,
   "source_file" : "external/llvm/include/llvm/Support/Endian.h",
   "underlying_type" : "_ZTIj"
  },
  {
   "alignment" : 4,
   "enum_fields" :
   [
    {
     "enum_field_value" : 1,
     "name" : "llvm::support::detail::PickAlignment<unsigned int, 1>::value"
    }
   ],
   "linker_set_key" : "_ZTIN4llvm7support6detail13PickAlignmentIjLi1EE6$valueE",
   "name" : "llvm::support::detail::PickAlignment<unsigned int, 1>::(anonymous enum at external/llvm/include/llvm/Support/Endian.h:32:5)",
   "referenced_type" : "_ZTIN4llvm7support6detail13PickAlignmentIjLi1EE6$valueE",
   "self_type" : "_ZTIN4llvm7support6detail13PickAlignmentIjLi1EE6$valueE",
   "size" : 4,
   "source_file" : "external/llvm/include/llvm/Support/Endian.h",
   "underlying_type" : "_ZTIj"
  },
  {
   "alignment" : 4,
   "enum_fields" :
   [
    {
     "enum_field_value" : 1,
     "name" : "llvm::support::detail::PickAlignment<unsigned short, 1>::value"
    }
   ],
   "linker_set_key" : "_ZTIN4llvm7support6detail13PickAlignmentItLi1EE6$valueE",
   "name" : "llvm::support::detail::PickAlignment<unsigned short, 1>::(anonymous enum at external/llvm/include/llvm/Support/Endian.h:32:5)",
   "referenced_type" : "_ZTIN4llvm7support6detail13PickAlignmentItLi1EE6$valueE",
   "self_type" : "_ZTIN4llvm7support6detail13PickAlignmentItLi1EE6$valueE",
   "size" : 4,
   "source_file" : "external/llvm/include/llvm/Support/Endian.h",
   "underlying_type" : "_ZTIj"
  },
  {
   "alignment" : 4,
   "enum_fields" :
   [
    {
     "enum_field_value" : 1,
     "name" : "llvm::support::detail::PickAlignment<unsigned long long, 1>::value"
    }
   ],
   "linker_set_key" : "_ZTIN4llvm7support6detail13PickAlignmentIyLi1EE6$valueE",
   "name" : "llvm::support::detail::PickAlignment<unsigned long long, 1>::(anonymous enum at external/llvm/include/llvm/Support/Endian.h:32:5)",
   "referenced_type" : "_ZTIN4llvm7support6detail13PickAlignmentIyLi1EE6$valueE",
   "self_type" : "_ZTIN4llvm7support6detail13PickAlignmentIyLi1EE6$valueE",
   "size" : 4,
   "source_file" : "external/llvm/include/llvm/Support/Endian.h",
   "underlying_type" : "_ZTIj"
  },
  {
   "alignment" : 4,
   "enum_fields" :
   [
    {
     "enum_field_value" : 0,
     "name" : "llvm::support::aligned"
    },
    {
     "enum_field_value" : 1,
     "name" : "llvm::support::unaligned"
    }
   ],
   "linker_set_key" : "_ZTIN4llvm7support8$alignedE",
   "name" : "llvm::support::(anonymous enum at external/llvm/include/llvm/Support/Endian.h:26:1)",
   "referenced_type" : "_ZTIN4llvm7support8$alignedE",
   "self_type" : "_ZTIN4llvm7support8$alignedE",
   "size" : 4,
   "source_file" : "external/llvm/include/llvm/Support/Endian.h",
   "underlying_type" : "_ZTIj"
  },
  {
   "access" : "private",
   "alignment" : 4,
   "enum_fields" :
   [
    {
     "enum_field_value" : 0,
     "name" : "llvm::Function::IsMaterializableBit"
    }
   ],
   "linker_set_key" : "_ZTIN4llvm8Function20$IsMaterializableBitE",
   "name" : "llvm::Function::(anonymous enum at external/llvm/include/llvm/IR/Function.h:73:3)",
   "referenced_type" : "_ZTIN4llvm8Function20$IsMaterializableBitE",
   "self_type" : "_ZTIN4llvm8Function20$IsMaterializableBitE",
   "size" : 4,
   "source_file" : "external/llvm/include/llvm/IR/Function.h",
   "underlying_type" : "_ZTIj"
  },
  {
   "access" : "protected",
   "alignment" : 4,
   "enum_fields" :
   [
    {
     "enum_field_value" : 0,
     "name" : "llvm::Metadata::Uniqued"
    },
    {
     "enum_field_value" : 1,
     "name" : "llvm::Metadata::Distinct"
    },
    {
     "enum_field_value" : 2,
     "name" : "llvm::Metadata::Temporary"
    }
   ],
   "linker_set_key" : "_ZTIN4llvm8Metadata11StorageTypeE",
   "name" : "llvm::Metadata::StorageType",
   "referenced_type" : "_ZTIN4llvm8Metadata11StorageTypeE",
   "self_type" : "_ZTIN4llvm8Metadata11StorageTypeE",
   "size" : 4,
   "source_file" : "external/llvm/include/llvm/IR/Metadata.h",
   "underlying_type" : "_ZTIj"
  },
  {
   "alignment" : 4,
   "enum_fields" :
   [
    {
     "enum_field_value" : 0,
     "name" : "llvm::Metadata::MDStringKind"
    },
    {
     "enum_field_value" : 1,
     "name" : "llvm::Metadata::ConstantAsMetadataKind"
    },
    {
     "enum_field_value" : 2,
     "name" : "llvm::Metadata::LocalAsMetadataKind"
    },
    {
     "enum_field_value" : 3,
     "name" : "llvm::Metadata::DistinctMDOperandPlaceholderKind"
    },
    {
     "enum_field_value" : 4,
     "name" : "llvm::Metadata::MDTupleKind"
    },
    {
     "enum_field_value" : 5,
     "name" : "llvm::Metadata::DILocationKind"
    },
    {
     "enum_field_value" : 6,
     "name" : "llvm::Metadata::DIExpressionKind"
    },
    {
     "enum_field_value" : 7,
     "name" : "llvm::Metadata::GenericDINodeKind"
    },
    {
     "enum_field_value" : 8,
     "name" : "llvm::Metadata::DISubrangeKind"
    },
    {
     "enum_field_value" : 9,
     "name" : "llvm::Metadata::DIEnumeratorKind"
    },
    {
     "enum_field_value" : 10,
     "name" : "llvm::Metadata::DIBasicTypeKind"
    },
    {
     "enum_field_value" : 11,
     "name" : "llvm::Metadata::DIDerivedTypeKind"
    },
    {
     "enum_field_value" : 12,
     "name" : "llvm::Metadata::DICompositeTypeKind"
    },
    {
     "enum_field_value" : 13,
     "name" : "llvm::Metadata::DISubroutineTypeKind"
    },
    {
     "enum_field_value" : 14,
     "name" : "llvm::Metadata::DIFileKind"
    },
    {
     "enum_field_value" : 15,
     "name" : "llvm::Metadata::DICompileUnitKind"
    },
    {
     "enum_field_value" : 16,
     "name" : "llvm::Metadata::DISubprogramKind"
    },
    {
     "enum_field_value" : 17,
     "name" : "llvm::Metadata::DILexicalBlockKind"
    },
    {
     "enum_field_value" : 18,
     "name" : "llvm::Metadata::DILexicalBlockFileKind"
    },
    {
     "enum_field_value" : 19,
     "name" : "llvm::Metadata::DINamespaceKind"
    },
    {
     "enum_field_value" : 20,
     "name" : "llvm::Metadata::DIModuleKind"
    },
    {
     "enum_field_value" : 21,
     "name" : "llvm::Metadata::DITemplateTypeParameterKind"
    },
    {
     "enum_field_value" : 22,
     "name" : "llvm::Metadata::DITemplateValueParameterKind"
    },
    {
     "enum_field_value" : 23,
     "name" : "llvm::Metadata::DIGlobalVariableKind"
    },
    {
     "enum_field_value" : 24,
     "name" : "llvm::Metadata::DILocalVariableKind"
    },
    {
     "enum_field_value" : 25,
     "name" : "llvm::Metadata::DIObjCPropertyKind"
    },
    {
     "enum_field_value" : 26,
     "name" : "llvm::Metadata::DIImportedEntityKind"
    },
    {
     "enum_field_value" : 27,
     "name" : "llvm::Metadata::DIMacroKind"
    },
    {
     "enum_field_value" : 28,
     "name" : "llvm::Metadata::DIMacroFileKind"
    }
   ],
   "linker_set_key" : "_ZTIN4llvm8Metadata12MetadataKindE",
   "name" : "llvm::Metadata::MetadataKind",
   "referenced_type" : "_ZTIN4llvm8Metadata12MetadataKindE",
   "self_type" : "_ZTIN4llvm8Metadata12MetadataKindE",
   "size" : 4,
   "source_file" : "external/llvm/include/llvm/IR/Metadata.h",
   "underlying_type" : "_ZTIj"
  },
  {
   "alignment" : 4,
   "enum_fields" :
   [
    {
     "enum_field_value" : 0,
     "name" : "llvm::NoneType::None"
    }
   ],
   "linker_set_key" : "_ZTIN4llvm8NoneTypeE",
   "name" : "llvm::NoneType",
   "referenced_type" : "_ZTIN4llvm8NoneTypeE",
   "self_type" : "_ZTIN4llvm8NoneTypeE",
   "size" : 4,
   "source_file" : "external/llvm/include/llvm/ADT/None.h",
   "underlying_type" : "_ZTIi"
  },
  {
   "alignment" : 4,
   "enum_fields" :
   [
    {
     "enum_field_value" : 0,
     "name" : "llvm::PICLevel::NotPIC"
    },
    {
     "enum_field_value" : 1,
     "name" : "llvm::PICLevel::SmallPIC"
    },
    {
     "enum_field_value" : 2,
     "name" : "llvm::PICLevel::BigPIC"
    }
   ],
   "linker_set_key" : "_ZTIN4llvm8PICLevel5LevelE",
   "name" : "llvm::PICLevel::Level",
   "referenced_type" : "_ZTIN4llvm8PICLevel5LevelE",
   "self_type" : "_ZTIN4llvm8PICLevel5LevelE",
   "size" : 4,
   "source_file" : "external/llvm/include/llvm/Support/CodeGen.h",
   "underlying_type" : "_ZTIj"
  },
  {
   "alignment" : 4,
   "enum_fields" :
   [
    {
     "enum_field_value" : 0,
     "name" : "llvm::PIELevel::Default"
    },
    {
     "enum_field_value" : 1,
     "name" : "llvm::PIELevel::Small"
    },
    {
     "enum_field_value" : 2,
     "name" : "llvm::PIELevel::Large"
    }
   ],
   "linker_set_key" : "_ZTIN4llvm8PIELevel5LevelE",
   "name" : "llvm::PIELevel::Level",
   "referenced_type" : "_ZTIN4llvm8PIELevel5LevelE",
   "self_type" : "_ZTIN4llvm8PIELevel5LevelE",
   "size" : 4,
   "source_file" : "external/llvm/include/llvm/Support/CodeGen.h",
   "underlying_type" : "_ZTIj"
  },
  {
   "alignment" : 4,
   "enum_fields" :
   [
    {
     "enum_field_value" : 0,
     "name" : "llvm::PT_BasicBlock"
    },
    {
     "enum_field_value" : 1,
     "name" : "llvm::PT_Region"
    },
    {
     "enum_field_value" : 2,
     "name" : "llvm::PT_Loop"
    },
    {
     "enum_field_value" : 3,
     "name" : "llvm::PT_Function"
    },
    {
     "enum_field_value" : 4,
     "name" : "llvm::PT_CallGraphSCC"
    },
    {
     "enum_field_value" : 5,
     "name" : "llvm::PT_Module"
    },
    {
     "enum_field_value" : 6,
     "name" : "llvm::PT_PassManager"
    }
   ],
   "linker_set_key" : "_ZTIN4llvm8PassKindE",
   "name" : "llvm::PassKind",
   "referenced_type" : "_ZTIN4llvm8PassKindE",
   "self_type" : "_ZTIN4llvm8PassKindE",
   "size" : 4,
   "source_file" : "external/llvm/include/llvm/Pass.h",
   "underlying_type" : "_ZTIj"
  },
  {
   "alignment" : 4,
   "enum_fields" :
   [
    {
     "enum_field_value" : 0,
     "name" : "llvm::TLSModel::GeneralDynamic"
    },
    {
     "enum_field_value" : 1,
     "name" : "llvm::TLSModel::LocalDynamic"
    },
    {
     "enum_field_value" : 2,
     "name" : "llvm::TLSModel::InitialExec"
    },
    {
     "enum_field_value" : 3,
     "name" : "llvm::TLSModel::LocalExec"
    }
   ],
   "linker_set_key" : "_ZTIN4llvm8TLSModel5ModelE",
   "name" : "llvm::TLSModel::Model",
   "referenced_type" : "_ZTIN4llvm8TLSModel5ModelE",
   "self_type" : "_ZTIN4llvm8TLSModel5ModelE",
   "size" : 4,
   "source_file" : "external/llvm/include/llvm/Support/CodeGen.h",
   "underlying_type" : "_ZTIj"
  },
  {
   "alignment" : 4,
   "enum_fields" :
   [
    {
     "enum_field_value" : 0,
     "name" : "llvm::Attribute::None"
    },
    {
     "enum_field_value" : 1,
     "name" : "llvm::Attribute::Alignment"
    },
    {
     "enum_field_value" : 2,
     "name" : "llvm::Attribute::AllocSize"
    },
    {
     "enum_field_value" : 3,
     "name" : "llvm::Attribute::AlwaysInline"
    },
    {
     "enum_field_value" : 4,
     "name" : "llvm::Attribute::ArgMemOnly"
    },
    {
     "enum_field_value" : 5,
     "name" : "llvm::Attribute::Builtin"
    },
    {
     "enum_field_value" : 6,
     "name" : "llvm::Attribute::ByVal"
    },
    {
     "enum_field_value" : 7,
     "name" : "llvm::Attribute::Cold"
    },
    {
     "enum_field_value" : 8,
     "name" : "llvm::Attribute::Convergent"
    },
    {
     "enum_field_value" : 9,
     "name" : "llvm::Attribute::Dereferenceable"
    },
    {
     "enum_field_value" : 10,
     "name" : "llvm::Attribute::DereferenceableOrNull"
    },
    {
     "enum_field_value" : 11,
     "name" : "llvm::Attribute::InAlloca"
    },
    {
     "enum_field_value" : 12,
     "name" : "llvm::Attribute::InReg"
    },
    {
     "enum_field_value" : 13,
     "name" : "llvm::Attribute::InaccessibleMemOnly"
    },
    {
     "enum_field_value" : 14,
     "name" : "llvm::Attribute::InaccessibleMemOrArgMemOnly"
    },
    {
     "enum_field_value" : 15,
     "name" : "llvm::Attribute::InlineHint"
    },
    {
     "enum_field_value" : 16,
     "name" : "llvm::Attribute::JumpTable"
    },
    {
     "enum_field_value" : 17,
     "name" : "llvm::Attribute::MinSize"
    },
    {
     "enum_field_value" : 18,
     "name" : "llvm::Attribute::Naked"
    },
    {
     "enum_field_value" : 19,
     "name" : "llvm::Attribute::Nest"
    },
    {
     "enum_field_value" : 20,
     "name" : "llvm::Attribute::NoAlias"
    },
    {
     "enum_field_value" : 21,
     "name" : "llvm::Attribute::NoBuiltin"
    },
    {
     "enum_field_value" : 22,
     "name" : "llvm::Attribute::NoCapture"
    },
    {
     "enum_field_value" : 23,
     "name" : "llvm::Attribute::NoDuplicate"
    },
    {
     "enum_field_value" : 24,
     "name" : "llvm::Attribute::NoImplicitFloat"
    },
    {
     "enum_field_value" : 25,
     "name" : "llvm::Attribute::NoInline"
    },
    {
     "enum_field_value" : 26,
     "name" : "llvm::Attribute::NoRecurse"
    },
    {
     "enum_field_value" : 27,
     "name" : "llvm::Attribute::NoRedZone"
    },
    {
     "enum_field_value" : 28,
     "name" : "llvm::Attribute::NoReturn"
    },
    {
     "enum_field_value" : 29,
     "name" : "llvm::Attribute::NoUnwind"
    },
    {
     "enum_field_value" : 30,
     "name" : "llvm::Attribute::NonLazyBind"
    },
    {
     "enum_field_value" : 31,
     "name" : "llvm::Attribute::NonNull"
    },
    {
     "enum_field_value" : 32,
     "name" : "llvm::Attribute::OptimizeForSize"
    },
    {
     "enum_field_value" : 33,
     "name" : "llvm::Attribute::OptimizeNone"
    },
    {
     "enum_field_value" : 34,
     "name" : "llvm::Attribute::ReadNone"
    },
    {
     "enum_field_value" : 35,
     "name" : "llvm::Attribute::ReadOnly"
    },
    {
     "enum_field_value" : 36,
     "name" : "llvm::Attribute::Returned"
    },
    {
     "enum_field_value" : 37,
     "name" : "llvm::Attribute::ReturnsTwice"
    },
    {
     "enum_field_value" : 38,
     "name" : "llvm::Attribute::SExt"
    },
    {
     "enum_field_value" : 39,
     "name" : "llvm::Attribute::SafeStack"
    },
    {
     "enum_field_value" : 40,
     "name" : "llvm::Attribute::SanitizeAddress"
    },
    {
     "enum_field_value" : 41,
     "name" : "llvm::Attribute::SanitizeMemory"
    },
    {
     "enum_field_value" : 42,
     "name" : "llvm::Attribute::SanitizeThread"
    },
    {
     "enum_field_value" : 43,
     "name" : "llvm::Attribute::StackAlignment"
    },
    {
     "enum_field_value" : 44,
     "name" : "llvm::Attribute::StackProtect"
    },
    {
     "enum_field_value" : 45,
     "name" : "llvm::Attribute::StackProtectReq"
    },
    {
     "enum_field_value" : 46,
     "name" : "llvm::Attribute::StackProtectStrong"
    },
    {
     "enum_field_value" : 47,
     "name" : "llvm::Attribute::StructRet"
    },
    {
     "enum_field_value" : 48,
     "name" : "llvm::Attribute::SwiftError"
    },
    {
     "enum_field_value" : 49,
     "name" : "llvm::Attribute::SwiftSelf"
    },
    {
     "enum_field_value" : 50,
     "name" : "llvm::Attribute::UWTable"
    },
    {
     "enum_field_value" : 51,
     "name" : "llvm::Attribute::WriteOnly"
    },
    {
     "enum_field_value" : 52,
     "name" : "llvm::Attribute::ZExt"
    },
    {
     "enum_field_value" : 53,
     "name" : "llvm::Attribute::EndAttrKinds"
    }
   ],
   "linker_set_key" : "_ZTIN4llvm9Attribute8AttrKindE",
   "name" : "llvm::Attribute::AttrKind",
   "referenced_type" : "_ZTIN4llvm9Attribute8AttrKindE",
   "self_type" : "_ZTIN4llvm9Attribute8AttrKindE",
   "size" : 4,
   "source_file" : "external/llvm/include/llvm/IR/Attributes.h",
   "underlying_type" : "_ZTIj"
  },
  {
   "alignment" : 4,
   "enum_fields" :
   [
    {
     "enum_field_value" : 0,
     "name" : "llvm::CodeModel::Default"
    },
    {
     "enum_field_value" : 1,
     "name" : "llvm::CodeModel::JITDefault"
    },
    {
     "enum_field_value" : 2,
     "name" : "llvm::CodeModel::Small"
    },
    {
     "enum_field_value" : 3,
     "name" : "llvm::CodeModel::Kernel"
    },
    {
     "enum_field_value" : 4,
     "name" : "llvm::CodeModel::Medium"
    },
    {
     "enum_field_value" : 5,
     "name" : "llvm::CodeModel::Large"
    }
   ],
   "linker_set_key" : "_ZTIN4llvm9CodeModel5ModelE",
   "name" : "llvm::CodeModel::Model",
   "referenced_type" : "_ZTIN4llvm9CodeModel5ModelE",
   "self_type" : "_ZTIN4llvm9CodeModel5ModelE",
   "size" : 4,
   "source_file" : "external/llvm/include/llvm/Support/CodeGen.h",
   "underlying_type" : "_ZTIj"
  }
 ],
 "function_types" :
 [
  {
   "alignment" : 4,
   "linker_set_key" : "_ZTIFPN4llvm4PassEPNS_13TargetMachineEE",
   "name" : "llvm::Pass *(llvm::TargetMachine *)",
   "parameters" :
   [
    {
     "referenced_type" : "_ZTIPN4llvm13TargetMachineE"
    }
   ],
   "referenced_type" : "_ZTIFPN4llvm4PassEPNS_13TargetMachineEE",
   "return_type" : "_ZTIPN4llvm4PassE",
   "self_type" : "_ZTIFPN4llvm4PassEPNS_13TargetMachineEE",
   "source_file" : "external/llvm/include/llvm/PassInfo.h"
  },
  {
   "alignment" : 4,
   "linker_set_key" : "_ZTIFPN4llvm4PassEvE",
   "name" : "llvm::Pass *()",
   "referenced_type" : "_ZTIFPN4llvm4PassEvE",
   "return_type" : "_ZTIPN4llvm4PassE",
   "self_type" : "_ZTIFPN4llvm4PassEvE",
   "source_file" : "external/llvm/include/llvm/PassInfo.h"
  },
  {
   "alignment" : 4,
   "linker_set_key" : "_ZTIFvPvE",
   "name" : "void (void *)",
   "parameters" :
   [
    {
     "referenced_type" : "_ZTIPv"
    }
   ],
   "referenced_type" : "_ZTIFvPvE",
   "return_type" : "_ZTIv",
   "self_type" : "_ZTIFvPvE",
   "source_file" : "external/llvm/include/llvm/Support/ManagedStatic.h"
  },
  {
   "alignment" : 4,
   "linker_set_key" : "_ZTIFvPvRKNSt3__112basic_stringIcNS0_11char_traitsIcEENS0_9allocatorIcEEEEbE",
   "name" : "void (void *, const std::__1::basic_string<char> &, bool)",
   "parameters" :
   [
    {
     "referenced_type" : "_ZTIPv"
    },
    {
     "referenced_type" : "_ZTIRKNSt3__112basic_stringIcNS_11char_traitsIcEENS_9allocatorIcEEEE"
    },
    {
     "referenced_type" : "_ZTIb"
    }
   ],
   "referenced_type" : "_ZTIFvPvRKNSt3__112basic_stringIcNS0_11char_traitsIcEENS0_9allocatorIcEEEEbE",
   "return_type" : "_ZTIv",
   "self_type" : "_ZTIFvPvRKNSt3__112basic_stringIcNS0_11char_traitsIcEENS0_9allocatorIcEEEEbE",
   "source_file" : "external/llvm/include/llvm/Support/ErrorHandling.h"
  }
 ],
 "functions" :
 [
  {
   "function_name" : "llvm::BasicBlock::getInstList",
   "linker_set_key" : "_ZN4llvm10BasicBlock11getInstListEv",
   "parameters" :
   [
    {
     "is_this_ptr" : true,
     "referenced_type" : "_ZTIPN4llvm10BasicBlockE"
    }
   ],
   "return_type" : "_ZTIRN4llvm15SymbolTableListINS_11InstructionEEE",
   "source_file" : "external/llvm/include/llvm/IR/BasicBlock.h"
  },
  {
   "function_name" : "llvm::BasicBlock::splitBasicBlock",
   "linker_set_key" : "_ZN4llvm10BasicBlock15splitBasicBlockEPNS_11InstructionERKNS_5TwineE",
   "parameters" :
   [
    {
     "is_this_ptr" : true,
     "referenced_type" : "_ZTIPN4llvm10BasicBlockE"
    },
    {
     "referenced_type" : "_ZTIPN4llvm11InstructionE"
    },
    {
     "default_arg" : true,
     "referenced_type" : "_ZTIRKN4llvm5TwineE"
    }
   ],
   "return_type" : "_ZTIPN4llvm10BasicBlockE",
   "source_file" : "external/llvm/include/llvm/IR/BasicBlock.h"
  },
  {
   "function_name" : "llvm::BasicBlock::getSublistAccess",
   "linker_set_key" : "_ZN4llvm10BasicBlock16getSublistAccessEPNS_11InstructionE",
   "parameters" :
   [
    {
     "referenced_type" : "_ZTIPN4llvm11InstructionE"
    }
   ],
   "return_type" : "_ZTIMN4llvm10BasicBlockENS_15SymbolTableListINS_11InstructionEEE",
   "source_file" : "external/llvm/include/llvm/IR/BasicBlock.h"
  },
  {
   "access" : "private",
   "function_name" : "llvm::BasicBlock::setValueSubclassData",
   "linker_set_key" : "_ZN4llvm10BasicBlock20setValueSubclassDataEt",
   "parameters" :
   [
    {
     "is_this_ptr" : true,
     "referenced_type" : "_ZTIPN4llvm10BasicBlockE"
    },
    {
     "referenced_type" : "_ZTIt"
    }
   ],
   "return_type" : "_ZTIv",
   "source_file" : "external/llvm/include/llvm/IR/BasicBlock.h"
  },
  {
   "access" : "private",
   "function_name" : "llvm::BasicBlock::AdjustBlockAddressRefCount",
   "linker_set_key" : "_ZN4llvm10BasicBlock26AdjustBlockAddressRefCountEi",
   "parameters" :
   [
    {
     "is_this_ptr" : true,
     "referenced_type" : "_ZTIPN4llvm10BasicBlockE"
    },
    {
     "referenced_type" : "_ZTIi"
    }
   ],
   "return_type" : "_ZTIv",
   "source_file" : "external/llvm/include/llvm/IR/BasicBlock.h"
  },
  {
   "function_name" : "llvm::BasicBlock::end",
   "linker_set_key" : "_ZN4llvm10BasicBlock3endEv",
   "parameters" :
   [
    {
     "is_this_ptr" : true,
     "referenced_type" : "_ZTIPN4llvm10BasicBlockE"
    }
   ],
   "return_type" : "_ZTIN4llvm14ilist_iteratorINS_11InstructionEEE",
   "source_file" : "external/llvm/include/llvm/IR/BasicBlock.h"
  },
  {
   "function_name" : "llvm::BasicBlock::back",
   "linker_set_key" : "_ZN4llvm10BasicBlock4backEv",
   "parameters" :
   [
    {
     "is_this_ptr" : true,
     "referenced_type" : "_ZTIPN4llvm10BasicBlockE"
    }
   ],
   "return_type" : "_ZTIRN4llvm11InstructionE",
   "source_file" : "external/llvm/include/llvm/IR/BasicBlock.h"
  },
  {
   "function_name" : "llvm::BasicBlock::rend",
   "linker_set_key" : "_ZN4llvm10BasicBlock4rendEv",
   "parameters" :
   [
    {
     "is_this_ptr" : true,
     "referenced_type" : "_ZTIPN4llvm10BasicBlockE"
    }
   ],
   "return_type" : "_ZTINSt3__116reverse_iteratorIN4llvm14ilist_iteratorINS1_11InstructionEEEEE",
   "source_file" : "external/llvm/include/llvm/IR/BasicBlock.h"
  },
  {
   "function_name" : "llvm::BasicBlock::begin",
   "linker_set_key" : "_ZN4llvm10BasicBlock5beginEv",
   "parameters" :
   [
    {
     "is_this_ptr" : true,
     "referenced_type" : "_ZTIPN4llvm10BasicBlockE"
    }
   ],
   "return_type" : "_ZTIN4llvm14ilist_iteratorINS_11InstructionEEE",
   "source_file" : "external/llvm/include/llvm/IR/BasicBlock.h"
  },
  {
   "function_name" : "llvm::BasicBlock::front",
   "linker_set_key" : "_ZN4llvm10BasicBlock5frontEv",
   "parameters" :
   [
    {
     "is_this_ptr" : true,
     "referenced_type" : "_ZTIPN4llvm10BasicBlockE"
    }
   ],
   "return_type" : "_ZTIRN4llvm11InstructionE",
   "source_file" : "external/llvm/include/llvm/IR/BasicBlock.h"
  },
  {
   "function_name" : "llvm::BasicBlock::Create",
   "linker_set_key" : "_ZN4llvm10BasicBlock6CreateERNS_11LLVMContextERKNS_5TwineEPNS_8FunctionEPS0_",
   "parameters" :
   [
    {
     "referenced_type" : "_ZTIRN4llvm11LLVMContextE"
    },
    {
     "default_arg" : true,
     "referenced_type" : "_ZTIRKN4llvm5TwineE"
    },
    {
     "default_arg" : true,
     "referenced_type" : "_ZTIPN4llvm8FunctionE"
    },
    {
     "default_arg" : true,
     "referenced_type" : "_ZTIPN4llvm10BasicBlockE"
    }
   ],
   "return_type" : "_ZTIPN4llvm10BasicBlockE",
   "source_file" : "external/llvm/include/llvm/IR/BasicBlock.h"
  },
  {
   "function_name" : "llvm::BasicBlock::rbegin",
   "linker_set_key" : "_ZN4llvm10BasicBlock6rbeginEv",
   "parameters" :
   [
    {
     "is_this_ptr" : true,
     "referenced_type" : "_ZTIPN4llvm10BasicBlockE"
    }
   ],
   "return_type" : "_ZTINSt3__116reverse_iteratorIN4llvm14ilist_iteratorINS1_11InstructionEEEEE",
   "source_file" : "external/llvm/include/llvm/IR/BasicBlock.h"
  },
  {
   "function_name" : "llvm::BasicBlock::classof",
   "linker_set_key" : "_ZN4llvm10BasicBlock7classofEPKNS_5ValueE",
   "parameters" :
   [
    {
     "referenced_type" : "_ZTIPKN4llvm5ValueE"
    }
   ],
   "return_type" : "_ZTIb",
   "source_file" : "external/llvm/include/llvm/IR/BasicBlock.h"
  },
  {
   "function_name" : "llvm::BasicBlock::getParent",
   "linker_set_key" : "_ZN4llvm10BasicBlock9getParentEv",
   "parameters" :
   [
    {
     "is_this_ptr" : true,
     "referenced_type" : "_ZTIPN4llvm10BasicBlockE"
    }
   ],
   "return_type" : "_ZTIPN4llvm8FunctionE",
   "source_file" : "external/llvm/include/llvm/IR/BasicBlock.h"
  },
  {
   "function_name" : "llvm::ConstantFP::classof",
   "linker_set_key" : "_ZN4llvm10ConstantFP7classofEPKNS_5ValueE",
   "parameters" :
   [
    {
     "referenced_type" : "_ZTIPKN4llvm5ValueE"
    }
   ],
   "return_type" : "_ZTIb",
   "source_file" : "external/llvm/include/llvm/IR/Constants.h"
  },
  {
   "function_name" : "llvm::DataLayout::DataLayout",
   "linker_set_key" : "_ZN4llvm10DataLayoutC1ENS_9StringRefE",
   "parameters" :
   [
    {
     "is_this_ptr" : true,
     "referenced_type" : "_ZTIPN4llvm10DataLayoutE"
    },
    {
     "referenced_type" : "_ZTIN4llvm9StringRefE"
    }
   ],
   "return_type" : "_ZTIv",
   "source_file" : "external/llvm/include/llvm/IR/DataLayout.h"
  },
  {
   "function_name" : "llvm::DataLayout::DataLayout",
   "linker_set_key" : "_ZN4llvm10DataLayoutC1ERKS0_",
   "parameters" :
   [
    {
     "is_this_ptr" : true,
     "referenced_type" : "_ZTIPN4llvm10DataLayoutE"
    },
    {
     "referenced_type" : "_ZTIRKN4llvm10DataLayoutE"
    }
   ],
   "return_type" : "_ZTIv",
   "source_file" : "external/llvm/include/llvm/IR/DataLayout.h"
  },
  {
   "function_name" : "llvm::DataLayout::DataLayout",
   "linker_set_key" : "_ZN4llvm10DataLayoutC2ENS_9StringRefE",
   "parameters" :
   [
    {
     "is_this_ptr" : true,
     "referenced_type" : "_ZTIPN4llvm10DataLayoutE"
    },
    {
     "referenced_type" : "_ZTIN4llvm9StringRefE"
    }
   ],
   "return_type" : "_ZTIv",
   "source_file" : "external/llvm/include/llvm/IR/DataLayout.h"
  },
  {
   "function_name" : "llvm::DataLayout::DataLayout",
   "linker_set_key" : "_ZN4llvm10DataLayoutC2ERKS0_",
   "parameters" :
   [
    {
     "is_this_ptr" : true,
     "referenced_type" : "_ZTIPN4llvm10DataLayoutE"
    },
    {
     "referenced_type" : "_ZTIRKN4llvm10DataLayoutE"
    }
   ],
   "return_type" : "_ZTIv",
   "source_file" : "external/llvm/include/llvm/IR/DataLayout.h"
  },
  {
   "function_name" : "llvm::DataLayout::operator=",
   "linker_set_key" : "_ZN4llvm10DataLayoutaSERKS0_",
   "parameters" :
   [
    {
     "is_this_ptr" : true,
     "referenced_type" : "_ZTIPN4llvm10DataLayoutE"
    },
    {
     "referenced_type" : "_ZTIRKN4llvm10DataLayoutE"
    }
   ],
   "return_type" : "_ZTIRN4llvm10DataLayoutE",
   "source_file" : "external/llvm/include/llvm/IR/DataLayout.h"
  },
  {
   "function_name" : "llvm::ModulePass::ModulePass",
   "linker_set_key" : "_ZN4llvm10ModulePassC2ERc",
   "parameters" :
   [
    {
     "is_this_ptr" : true,
     "referenced_type" : "_ZTIPN4llvm10ModulePassE"
    },
    {
     "referenced_type" : "_ZTIRc"
    }
   ],
   "return_type" : "_ZTIv",
   "source_file" : "external/llvm/include/llvm/Pass.h"
  },
  {
   "function_name" : "llvm::StructType::classof",
   "linker_set_key" : "_ZN4llvm10StructType7classofEPKNS_4TypeE",
   "parameters" :
   [
    {
     "referenced_type" : "_ZTIPKN4llvm4TypeE"
    }
   ],
   "return_type" : "_ZTIb",
   "source_file" : "external/llvm/include/llvm/IR/DerivedTypes.h"
  },
  {
   "access" : "private",
   "function_name" : "llvm::StructType::StructType",
   "linker_set_key" : "_ZN4llvm10StructTypeC1ERNS_11LLVMContextE",
   "parameters" :
   [
    {
     "is_this_ptr" : true,
     "referenced_type" : "_ZTIPN4llvm10StructTypeE"
    },
    {
     "referenced_type" : "_ZTIRN4llvm11LLVMContextE"
    }
   ],
   "return_type" : "_ZTIv",
   "source_file" : "external/llvm/include/llvm/IR/DerivedTypes.h"
  },
  {
   "access" : "private",
   "function_name" : "llvm::StructType::StructType",
   "linker_set_key" : "_ZN4llvm10StructTypeC2ERNS_11LLVMContextE",
   "parameters" :
   [
    {
     "is_this_ptr" : true,
     "referenced_type" : "_ZTIPN4llvm10StructTypeE"
    },
    {
     "referenced_type" : "_ZTIRN4llvm11LLVMContextE"
    }
   ],
   "return_type" : "_ZTIv",
   "source_file" : "external/llvm/include/llvm/IR/DerivedTypes.h"
  },
  {
   "function_name" : "llvm::UndefValue::classof",
   "linker_set_key" : "_ZN4llvm10UndefValue7classofEPKNS_5ValueE",
   "parameters" :
   [
    {
     "referenced_type" : "_ZTIPKN4llvm5ValueE"
    }
   ],
   "return_type" : "_ZTIb",
   "source_file" : "external/llvm/include/llvm/IR/Constants.h"
  },
  {
   "access" : "private",
   "function_name" : "llvm::UndefValue::UndefValue",
   "linker_set_key" : "_ZN4llvm10UndefValueC1EPNS_4TypeE",
   "parameters" :
   [
    {
     "is_this_ptr" : true,
     "referenced_type" : "_ZTIPN4llvm10UndefValueE"
    },
    {
     "referenced_type" : "_ZTIPN4llvm4TypeE"
    }
   ],
   "return_type" : "_ZTIv",
   "source_file" : "external/llvm/include/llvm/IR/Constants.h"
  },
  {
   "access" : "private",
   "function_name" : "llvm::UndefValue::UndefValue",
   "linker_set_key" : "_ZN4llvm10UndefValueC2EPNS_4TypeE",
   "parameters" :
   [
    {
     "is_this_ptr" : true,
     "referenced_type" : "_ZTIPN4llvm10UndefValueE"
    },
    {
     "referenced_type" : "_ZTIPN4llvm4TypeE"
    }
   ],
   "return_type" : "_ZTIv",
   "source_file" : "external/llvm/include/llvm/IR/Constants.h"
  },
  {
   "function_name" : "llvm::VectorType::getInteger",
   "linker_set_key" : "_ZN4llvm10VectorType10getIntegerEPS0_",
   "parameters" :
   [
    {
     "referenced_type" : "_ZTIPN4llvm10VectorTypeE"
    }
   ],
   "return_type" : "_ZTIPN4llvm10VectorTypeE",
   "source_file" : "external/llvm/include/llvm/IR/DerivedTypes.h"
  },
  {
   "function_name" : "llvm::VectorType::getHalfElementsVectorType",
   "linker_set_key" : "_ZN4llvm10VectorType25getHalfElementsVectorTypeEPS0_",
   "parameters" :
   [
    {
     "referenced_type" : "_ZTIPN4llvm10VectorTypeE"
    }
   ],
   "return_type" : "_ZTIPN4llvm10VectorTypeE",
   "source_file" : "external/llvm/include/llvm/IR/DerivedTypes.h"
  },
  {
   "function_name" : "llvm::VectorType::getDoubleElementsVectorType",
   "linker_set_key" : "_ZN4llvm10VectorType27getDoubleElementsVectorTypeEPS0_",
   "parameters" :
   [
    {
     "referenced_type" : "_ZTIPN4llvm10VectorTypeE"
    }
   ],
   "return_type" : "_ZTIPN4llvm10VectorTypeE",
   "source_file" : "external/llvm/include/llvm/IR/DerivedTypes.h"
  },
  {
   "function_name" : "llvm::VectorType::getExtendedElementVectorType",
   "linker_set_key" : "_ZN4llvm10VectorType28getExtendedElementVectorTypeEPS0_",
   "parameters" :
   [
    {
     "referenced_type" : "_ZTIPN4llvm10VectorTypeE"
    }
   ],
   "return_type" : "_ZTIPN4llvm10VectorTypeE",
   "source_file" : "external/llvm/include/llvm/IR/DerivedTypes.h"
  },
  {
   "function_name" : "llvm::VectorType::getTruncatedElementVectorType",
   "linker_set_key" : "_ZN4llvm10VectorType29getTruncatedElementVectorTypeEPS0_",
   "parameters" :
   [
    {
     "referenced_type" : "_ZTIPN4llvm10VectorTypeE"
    }
   ],
   "return_type" : "_ZTIPN4llvm10VectorTypeE",
   "source_file" : "external/llvm/include/llvm/IR/DerivedTypes.h"
  },
  {
   "function_name" : "llvm::VectorType::classof",
   "linker_set_key" : "_ZN4llvm10VectorType7classofEPKNS_4TypeE",
   "parameters" :
   [
    {
     "referenced_type" : "_ZTIPKN4llvm4TypeE"
    }
   ],
   "return_type" : "_ZTIb",
   "source_file" : "external/llvm/include/llvm/IR/DerivedTypes.h"
  },
  {
   "function_name" : "llvm::hash_value",
   "linker_set_key" : "_ZN4llvm10hash_valueERKNS_9hash_codeE",
   "parameters" :
   [
    {
     "referenced_type" : "_ZTIRKN4llvm9hash_codeE"
    }
   ],
   "return_type" : "_ZTIj",
   "source_file" : "external/llvm/include/llvm/ADT/Hashing.h"
  },
  {
   "function_name" : "llvm::ilist_node<llvm::GlobalAlias>::getIterator",
   "linker_set_key" : "_ZN4llvm10ilist_nodeINS_11GlobalAliasEE11getIteratorEv",
   "parameters" :
   [
    {
     "is_this_ptr" : true,
     "referenced_type" : "_ZTIPN4llvm10ilist_nodeINS_11GlobalAliasEEE"
    }
   ],
   "return_type" : "_ZTIN4llvm14ilist_iteratorINS_11GlobalAliasEEE",
   "source_file" : "external/llvm/include/llvm/ADT/ilist_node.h"
  },
  {
   "access" : "private",
   "function_name" : "llvm::ilist_node<llvm::GlobalAlias>::getNext",
   "linker_set_key" : "_ZN4llvm10ilist_nodeINS_11GlobalAliasEE7getNextEv",
   "parameters" :
   [
    {
     "is_this_ptr" : true,
     "referenced_type" : "_ZTIPN4llvm10ilist_nodeINS_11GlobalAliasEEE"
    }
   ],
   "return_type" : "_ZTIPN4llvm11GlobalAliasE",
   "source_file" : "external/llvm/include/llvm/ADT/ilist_node.h"
  },
  {
   "access" : "private",
   "function_name" : "llvm::ilist_node<llvm::GlobalAlias>::setNext",
   "linker_set_key" : "_ZN4llvm10ilist_nodeINS_11GlobalAliasEE7setNextEPS1_",
   "parameters" :
   [
    {
     "is_this_ptr" : true,
     "referenced_type" : "_ZTIPN4llvm10ilist_nodeINS_11GlobalAliasEEE"
    },
    {
     "referenced_type" : "_ZTIPN4llvm11GlobalAliasE"
    }
   ],
   "return_type" : "_ZTIv",
   "source_file" : "external/llvm/include/llvm/ADT/ilist_node.h"
  },
  {
   "access" : "protected",
   "function_name" : "llvm::ilist_node<llvm::GlobalAlias>::ilist_node",
   "linker_set_key" : "_ZN4llvm10ilist_nodeINS_11GlobalAliasEEC1Ev",
   "parameters" :
   [
    {
     "is_this_ptr" : true,
     "referenced_type" : "_ZTIPN4llvm10ilist_nodeINS_11GlobalAliasEEE"
    }
   ],
   "return_type" : "_ZTIv",
   "source_file" : "external/llvm/include/llvm/ADT/ilist_node.h"
  },
  {
   "access" : "protected",
   "function_name" : "llvm::ilist_node<llvm::GlobalAlias>::ilist_node",
   "linker_set_key" : "_ZN4llvm10ilist_nodeINS_11GlobalAliasEEC2Ev",
   "parameters" :
   [
    {
     "is_this_ptr" : true,
     "referenced_type" : "_ZTIPN4llvm10ilist_nodeINS_11GlobalAliasEEE"
    }
   ],
   "return_type" : "_ZTIv",
   "source_file" : "external/llvm/include/llvm/ADT/ilist_node.h"
  },
  {
   "function_name" : "llvm::ilist_node<llvm::GlobalIFunc>::getIterator",
   "linker_set_key" : "_ZN4llvm10ilist_nodeINS_11GlobalIFuncEE11getIteratorEv",
   "parameters" :
   [
    {
     "is_this_ptr" : true,
     "referenced_type" : "_ZTIPN4llvm10ilist_nodeINS_11GlobalIFuncEEE"
    }
   ],
   "return_type" : "_ZTIN4llvm14ilist_iteratorINS_11GlobalIFuncEEE",
   "source_file" : "external/llvm/include/llvm/ADT/ilist_node.h"
  },
  {
   "access" : "private",
   "function_name" : "llvm::ilist_node<llvm::GlobalIFunc>::getNext",
   "linker_set_key" : "_ZN4llvm10ilist_nodeINS_11GlobalIFuncEE7getNextEv",
   "parameters" :
   [
    {
     "is_this_ptr" : true,
     "referenced_type" : "_ZTIPN4llvm10ilist_nodeINS_11GlobalIFuncEEE"
    }
   ],
   "return_type" : "_ZTIPN4llvm11GlobalIFuncE",
   "source_file" : "external/llvm/include/llvm/ADT/ilist_node.h"
  },
  {
   "access" : "private",
   "function_name" : "llvm::ilist_node<llvm::GlobalIFunc>::setNext",
   "linker_set_key" : "_ZN4llvm10ilist_nodeINS_11GlobalIFuncEE7setNextEPS1_",
   "parameters" :
   [
    {
     "is_this_ptr" : true,
     "referenced_type" : "_ZTIPN4llvm10ilist_nodeINS_11GlobalIFuncEEE"
    },
    {
     "referenced_type" : "_ZTIPN4llvm11GlobalIFuncE"
    }
   ],
   "return_type" : "_ZTIv",
   "source_file" : "external/llvm/include/llvm/ADT/ilist_node.h"
  },
  {
   "access" : "protected",
   "function_name" : "llvm::ilist_node<llvm::GlobalIFunc>::ilist_node",
   "linker_set_key" : "_ZN4llvm10ilist_nodeINS_11GlobalIFuncEEC1Ev",
   "parameters" :
   [
    {
     "is_this_ptr" : true,
     "referenced_type" : "_ZTIPN4llvm10ilist_nodeINS_11GlobalIFuncEEE"
    }
   ],
   "return_type" : "_ZTIv",
   "source_file" : "external/llvm/include/llvm/ADT/ilist_node.h"
  },
  {
   "access" : "protected",
   "function_name" : "llvm::ilist_node<llvm::GlobalIFunc>::ilist_node",
   "linker_set_key" : "_ZN4llvm10ilist_nodeINS_11GlobalIFuncEEC2Ev",
   "parameters" :
   [
    {
     "is_this_ptr" : true,
     "referenced_type" : "_ZTIPN4llvm10ilist_nodeINS_11GlobalIFuncEEE"
    }
   ],
   "return_type" : "_ZTIv",
   "source_file" : "external/llvm/include/llvm/ADT/ilist_node.h"
  },
  {
   "function_name" : "llvm::ilist_node<llvm::Instruction>::getIterator",
   "linker_set_key" : "_ZN4llvm10ilist_nodeINS_11InstructionEE11getIteratorEv",
   "parameters" :
   [
    {
     "is_this_ptr" : true,
     "referenced_type" : "_ZTIPN4llvm10ilist_nodeINS_11InstructionEEE"
    }
   ],
   "return_type" : "_ZTIN4llvm14ilist_iteratorINS_11InstructionEEE",
   "source_file" : "external/llvm/include/llvm/ADT/ilist_node.h"
  },
  {
   "function_name" : "llvm::ilist_node<llvm::GlobalVariable>::getIterator",
   "linker_set_key" : "_ZN4llvm10ilist_nodeINS_14GlobalVariableEE11getIteratorEv",
   "parameters" :
   [
    {
     "is_this_ptr" : true,
     "referenced_type" : "_ZTIPN4llvm10ilist_nodeINS_14GlobalVariableEEE"
    }
   ],
   "return_type" : "_ZTIN4llvm14ilist_iteratorINS_14GlobalVariableEEE",
   "source_file" : "external/llvm/include/llvm/ADT/ilist_node.h"
  },
  {
   "access" : "private",
   "function_name" : "llvm::ilist_node<llvm::GlobalVariable>::getNext",
   "linker_set_key" : "_ZN4llvm10ilist_nodeINS_14GlobalVariableEE7getNextEv",
   "parameters" :
   [
    {
     "is_this_ptr" : true,
     "referenced_type" : "_ZTIPN4llvm10ilist_nodeINS_14GlobalVariableEEE"
    }
   ],
   "return_type" : "_ZTIPN4llvm14GlobalVariableE",
   "source_file" : "external/llvm/include/llvm/ADT/ilist_node.h"
  },
  {
   "access" : "private",
   "function_name" : "llvm::ilist_node<llvm::GlobalVariable>::setNext",
   "linker_set_key" : "_ZN4llvm10ilist_nodeINS_14GlobalVariableEE7setNextEPS1_",
   "parameters" :
   [
    {
     "is_this_ptr" : true,
     "referenced_type" : "_ZTIPN4llvm10ilist_nodeINS_14GlobalVariableEEE"
    },
    {
     "referenced_type" : "_ZTIPN4llvm14GlobalVariableE"
    }
   ],
   "return_type" : "_ZTIv",
   "source_file" : "external/llvm/include/llvm/ADT/ilist_node.h"
  },
  {
   "access" : "protected",
   "function_name" : "llvm::ilist_node<llvm::GlobalVariable>::ilist_node",
   "linker_set_key" : "_ZN4llvm10ilist_nodeINS_14GlobalVariableEEC1Ev",
   "parameters" :
   [
    {
     "is_this_ptr" : true,
     "referenced_type" : "_ZTIPN4llvm10ilist_nodeINS_14GlobalVariableEEE"
    }
   ],
   "return_type" : "_ZTIv",
   "source_file" : "external/llvm/include/llvm/ADT/ilist_node.h"
  },
  {
   "access" : "protected",
   "function_name" : "llvm::ilist_node<llvm::GlobalVariable>::ilist_node",
   "linker_set_key" : "_ZN4llvm10ilist_nodeINS_14GlobalVariableEEC2Ev",
   "parameters" :
   [
    {
     "is_this_ptr" : true,
     "referenced_type" : "_ZTIPN4llvm10ilist_nodeINS_14GlobalVariableEEE"
    }
   ],
   "return_type" : "_ZTIv",
   "source_file" : "external/llvm/include/llvm/ADT/ilist_node.h"
  },
  {
   "function_name" : "llvm::make_range",
   "linker_set_key" : "_ZN4llvm10make_rangeINS_11NamedMDNode16op_iterator_implIPKNS_6MDNodeES3_EEEENS_14iterator_rangeIT_EES8_S8_",
   "parameters" :
   [
    {
     "referenced_type" : "_ZTIN4llvm11NamedMDNode16op_iterator_implIPKNS_6MDNodeES2_EE"
    },
    {
     "referenced_type" : "_ZTIN4llvm11NamedMDNode16op_iterator_implIPKNS_6MDNodeES2_EE"
    }
   ],
   "return_type" : "_ZTIN4llvm14iterator_rangeINS_11NamedMDNode16op_iterator_implIPKNS_6MDNodeES3_EEEE",
   "source_file" : "external/llvm/include/llvm/ADT/iterator_range.h",
   "template_args" : [ "_ZTIN4llvm11NamedMDNode16op_iterator_implIPKNS_6MDNodeES2_EE" ]
  },
  {
   "function_name" : "llvm::make_range",
   "linker_set_key" : "_ZN4llvm10make_rangeINS_11NamedMDNode16op_iterator_implIPNS_6MDNodeES3_EEEENS_14iterator_rangeIT_EES7_S7_",
   "parameters" :
   [
    {
     "referenced_type" : "_ZTIN4llvm11NamedMDNode16op_iterator_implIPNS_6MDNodeES2_EE"
    },
    {
     "referenced_type" : "_ZTIN4llvm11NamedMDNode16op_iterator_implIPNS_6MDNodeES2_EE"
    }
   ],
   "return_type" : "_ZTIN4llvm14iterator_rangeINS_11NamedMDNode16op_iterator_implIPNS_6MDNodeES3_EEEE",
   "source_file" : "external/llvm/include/llvm/ADT/iterator_range.h",
   "template_args" : [ "_ZTIN4llvm11NamedMDNode16op_iterator_implIPNS_6MDNodeES2_EE" ]
  },
  {
   "function_name" : "llvm::make_range",
   "linker_set_key" : "_ZN4llvm10make_rangeINS_14ilist_iteratorIKNS_11GlobalAliasEEEEENS_14iterator_rangeIT_EES6_S6_",
   "parameters" :
   [
    {
     "referenced_type" : "_ZTIN4llvm14ilist_iteratorIKNS_11GlobalAliasEEE"
    },
    {
     "referenced_type" : "_ZTIN4llvm14ilist_iteratorIKNS_11GlobalAliasEEE"
    }
   ],
   "return_type" : "_ZTIN4llvm14iterator_rangeINS_14ilist_iteratorIKNS_11GlobalAliasEEEEE",
   "source_file" : "external/llvm/include/llvm/ADT/iterator_range.h",
   "template_args" : [ "_ZTIN4llvm14ilist_iteratorIKNS_11GlobalAliasEEE" ]
  },
  {
   "function_name" : "llvm::make_range",
   "linker_set_key" : "_ZN4llvm10make_rangeINS_14ilist_iteratorIKNS_11GlobalIFuncEEEEENS_14iterator_rangeIT_EES6_S6_",
   "parameters" :
   [
    {
     "referenced_type" : "_ZTIN4llvm14ilist_iteratorIKNS_11GlobalIFuncEEE"
    },
    {
     "referenced_type" : "_ZTIN4llvm14ilist_iteratorIKNS_11GlobalIFuncEEE"
    }
   ],
   "return_type" : "_ZTIN4llvm14iterator_rangeINS_14ilist_iteratorIKNS_11GlobalIFuncEEEEE",
   "source_file" : "external/llvm/include/llvm/ADT/iterator_range.h",
   "template_args" : [ "_ZTIN4llvm14ilist_iteratorIKNS_11GlobalIFuncEEE" ]
  },
  {
   "function_name" : "llvm::make_range",
   "linker_set_key" : "_ZN4llvm10make_rangeINS_14ilist_iteratorIKNS_11NamedMDNodeEEEEENS_14iterator_rangeIT_EES6_S6_",
   "parameters" :
   [
    {
     "referenced_type" : "_ZTIN4llvm14ilist_iteratorIKNS_11NamedMDNodeEEE"
    },
    {
     "referenced_type" : "_ZTIN4llvm14ilist_iteratorIKNS_11NamedMDNodeEEE"
    }
   ],
   "return_type" : "_ZTIN4llvm14iterator_rangeINS_14ilist_iteratorIKNS_11NamedMDNodeEEEEE",
   "source_file" : "external/llvm/include/llvm/ADT/iterator_range.h",
   "template_args" : [ "_ZTIN4llvm14ilist_iteratorIKNS_11NamedMDNodeEEE" ]
  },
  {
   "function_name" : "llvm::make_range",
   "linker_set_key" : "_ZN4llvm10make_rangeINS_14ilist_iteratorIKNS_14GlobalVariableEEEEENS_14iterator_rangeIT_EES6_S6_",
   "parameters" :
   [
    {
     "referenced_type" : "_ZTIN4llvm14ilist_iteratorIKNS_14GlobalVariableEEE"
    },
    {
     "referenced_type" : "_ZTIN4llvm14ilist_iteratorIKNS_14GlobalVariableEEE"
    }
   ],
   "return_type" : "_ZTIN4llvm14iterator_rangeINS_14ilist_iteratorIKNS_14GlobalVariableEEEEE",
   "source_file" : "external/llvm/include/llvm/ADT/iterator_range.h",
   "template_args" : [ "_ZTIN4llvm14ilist_iteratorIKNS_14GlobalVariableEEE" ]
  },
  {
   "function_name" : "llvm::make_range",
   "linker_set_key" : "_ZN4llvm10make_rangeINS_14ilist_iteratorIKNS_8ArgumentEEEEENS_14iterator_rangeIT_EES6_S6_",
   "parameters" :
   [
    {
     "referenced_type" : "_ZTIN4llvm14ilist_iteratorIKNS_8ArgumentEEE"
    },
    {
     "referenced_type" : "_ZTIN4llvm14ilist_iteratorIKNS_8ArgumentEEE"
    }
   ],
   "return_type" : "_ZTIN4llvm14iterator_rangeINS_14ilist_iteratorIKNS_8ArgumentEEEEE",
   "source_file" : "external/llvm/include/llvm/ADT/iterator_range.h",
   "template_args" : [ "_ZTIN4llvm14ilist_iteratorIKNS_8ArgumentEEE" ]
  },
  {
   "function_name" : "llvm::make_range",
   "linker_set_key" : "_ZN4llvm10make_rangeINS_14ilist_iteratorIKNS_8FunctionEEEEENS_14iterator_rangeIT_EES6_S6_",
   "parameters" :
   [
    {
     "referenced_type" : "_ZTIN4llvm14ilist_iteratorIKNS_8FunctionEEE"
    },
    {
     "referenced_type" : "_ZTIN4llvm14ilist_iteratorIKNS_8FunctionEEE"
    }
   ],
   "return_type" : "_ZTIN4llvm14iterator_rangeINS_14ilist_iteratorIKNS_8FunctionEEEEE",
   "source_file" : "external/llvm/include/llvm/ADT/iterator_range.h",
   "template_args" : [ "_ZTIN4llvm14ilist_iteratorIKNS_8FunctionEEE" ]
  },
  {
   "function_name" : "llvm::make_range",
   "linker_set_key" : "_ZN4llvm10make_rangeINS_14ilist_iteratorINS_11GlobalAliasEEEEENS_14iterator_rangeIT_EES5_S5_",
   "parameters" :
   [
    {
     "referenced_type" : "_ZTIN4llvm14ilist_iteratorINS_11GlobalAliasEEE"
    },
    {
     "referenced_type" : "_ZTIN4llvm14ilist_iteratorINS_11GlobalAliasEEE"
    }
   ],
   "return_type" : "_ZTIN4llvm14iterator_rangeINS_14ilist_iteratorINS_11GlobalAliasEEEEE",
   "source_file" : "external/llvm/include/llvm/ADT/iterator_range.h",
   "template_args" : [ "_ZTIN4llvm14ilist_iteratorINS_11GlobalAliasEEE" ]
  },
  {
   "function_name" : "llvm::make_range",
   "linker_set_key" : "_ZN4llvm10make_rangeINS_14ilist_iteratorINS_11GlobalIFuncEEEEENS_14iterator_rangeIT_EES5_S5_",
   "parameters" :
   [
    {
     "referenced_type" : "_ZTIN4llvm14ilist_iteratorINS_11GlobalIFuncEEE"
    },
    {
     "referenced_type" : "_ZTIN4llvm14ilist_iteratorINS_11GlobalIFuncEEE"
    }
   ],
   "return_type" : "_ZTIN4llvm14iterator_rangeINS_14ilist_iteratorINS_11GlobalIFuncEEEEE",
   "source_file" : "external/llvm/include/llvm/ADT/iterator_range.h",
   "template_args" : [ "_ZTIN4llvm14ilist_iteratorINS_11GlobalIFuncEEE" ]
  },
  {
   "function_name" : "llvm::make_range",
   "linker_set_key" : "_ZN4llvm10make_rangeINS_14ilist_iteratorINS_11NamedMDNodeEEEEENS_14iterator_rangeIT_EES5_S5_",
   "parameters" :
   [
    {
     "referenced_type" : "_ZTIN4llvm14ilist_iteratorINS_11NamedMDNodeEEE"
    },
    {
     "referenced_type" : "_ZTIN4llvm14ilist_iteratorINS_11NamedMDNodeEEE"
    }
   ],
   "return_type" : "_ZTIN4llvm14iterator_rangeINS_14ilist_iteratorINS_11NamedMDNodeEEEEE",
   "source_file" : "external/llvm/include/llvm/ADT/iterator_range.h",
   "template_args" : [ "_ZTIN4llvm14ilist_iteratorINS_11NamedMDNodeEEE" ]
  },
  {
   "function_name" : "llvm::make_range",
   "linker_set_key" : "_ZN4llvm10make_rangeINS_14ilist_iteratorINS_14GlobalVariableEEEEENS_14iterator_rangeIT_EES5_S5_",
   "parameters" :
   [
    {
     "referenced_type" : "_ZTIN4llvm14ilist_iteratorINS_14GlobalVariableEEE"
    },
    {
     "referenced_type" : "_ZTIN4llvm14ilist_iteratorINS_14GlobalVariableEEE"
    }
   ],
   "return_type" : "_ZTIN4llvm14iterator_rangeINS_14ilist_iteratorINS_14GlobalVariableEEEEE",
   "source_file" : "external/llvm/include/llvm/ADT/iterator_range.h",
   "template_args" : [ "_ZTIN4llvm14ilist_iteratorINS_14GlobalVariableEEE" ]
  },
  {
   "function_name" : "llvm::make_range",
   "linker_set_key" : "_ZN4llvm10make_rangeINS_14ilist_iteratorINS_8ArgumentEEEEENS_14iterator_rangeIT_EES5_S5_",
   "parameters" :
   [
    {
     "referenced_type" : "_ZTIN4llvm14ilist_iteratorINS_8ArgumentEEE"
    },
    {
     "referenced_type" : "_ZTIN4llvm14ilist_iteratorINS_8ArgumentEEE"
    }
   ],
   "return_type" : "_ZTIN4llvm14iterator_rangeINS_14ilist_iteratorINS_8ArgumentEEEEE",
   "source_file" : "external/llvm/include/llvm/ADT/iterator_range.h",
   "template_args" : [ "_ZTIN4llvm14ilist_iteratorINS_8ArgumentEEE" ]
  },
  {
   "function_name" : "llvm::make_range",
   "linker_set_key" : "_ZN4llvm10make_rangeINS_14ilist_iteratorINS_8FunctionEEEEENS_14iterator_rangeIT_EES5_S5_",
   "parameters" :
   [
    {
     "referenced_type" : "_ZTIN4llvm14ilist_iteratorINS_8FunctionEEE"
    },
    {
     "referenced_type" : "_ZTIN4llvm14ilist_iteratorINS_8FunctionEEE"
    }
   ],
   "return_type" : "_ZTIN4llvm14iterator_rangeINS_14ilist_iteratorINS_8FunctionEEEEE",
   "source_file" : "external/llvm/include/llvm/ADT/iterator_range.h",
   "template_args" : [ "_ZTIN4llvm14ilist_iteratorINS_8FunctionEEE" ]
  },
  {
   "function_name" : "llvm::make_range",
   "linker_set_key" : "_ZN4llvm10make_rangeINS_4User17value_op_iteratorEEENS_14iterator_rangeIT_EES4_S4_",
   "parameters" :
   [
    {
     "referenced_type" : "_ZTIN4llvm4User17value_op_iteratorE"
    },
    {
     "referenced_type" : "_ZTIN4llvm4User17value_op_iteratorE"
    }
   ],
   "return_type" : "_ZTIN4llvm14iterator_rangeINS_4User17value_op_iteratorEEE",
   "source_file" : "external/llvm/include/llvm/ADT/iterator_range.h",
   "template_args" : [ "_ZTIN4llvm4User17value_op_iteratorE" ]
  },
  {
   "function_name" : "llvm::make_range",
   "linker_set_key" : "_ZN4llvm10make_rangeINS_5Value17use_iterator_implIKNS_3UseEEEEENS_14iterator_rangeIT_EES7_S7_",
   "parameters" :
   [
    {
     "referenced_type" : "_ZTIN4llvm5Value17use_iterator_implIKNS_3UseEEE"
    },
    {
     "referenced_type" : "_ZTIN4llvm5Value17use_iterator_implIKNS_3UseEEE"
    }
   ],
   "return_type" : "_ZTIN4llvm14iterator_rangeINS_5Value17use_iterator_implIKNS_3UseEEEEE",
   "source_file" : "external/llvm/include/llvm/ADT/iterator_range.h",
   "template_args" : [ "_ZTIN4llvm5Value17use_iterator_implIKNS_3UseEEE" ]
  },
  {
   "function_name" : "llvm::make_range",
   "linker_set_key" : "_ZN4llvm10make_rangeINS_5Value17use_iterator_implINS_3UseEEEEENS_14iterator_rangeIT_EES6_S6_",
   "parameters" :
   [
    {
     "referenced_type" : "_ZTIN4llvm5Value17use_iterator_implINS_3UseEEE"
    },
    {
     "referenced_type" : "_ZTIN4llvm5Value17use_iterator_implINS_3UseEEE"
    }
   ],
   "return_type" : "_ZTIN4llvm14iterator_rangeINS_5Value17use_iterator_implINS_3UseEEEEE",
   "source_file" : "external/llvm/include/llvm/ADT/iterator_range.h",
   "template_args" : [ "_ZTIN4llvm5Value17use_iterator_implINS_3UseEEE" ]
  },
  {
   "function_name" : "llvm::make_range",
   "linker_set_key" : "_ZN4llvm10make_rangeINS_5Value18user_iterator_implIKNS_4UserEEEEENS_14iterator_rangeIT_EES7_S7_",
   "parameters" :
   [
    {
     "referenced_type" : "_ZTIN4llvm5Value18user_iterator_implIKNS_4UserEEE"
    },
    {
     "referenced_type" : "_ZTIN4llvm5Value18user_iterator_implIKNS_4UserEEE"
    }
   ],
   "return_type" : "_ZTIN4llvm14iterator_rangeINS_5Value18user_iterator_implIKNS_4UserEEEEE",
   "source_file" : "external/llvm/include/llvm/ADT/iterator_range.h",
   "template_args" : [ "_ZTIN4llvm5Value18user_iterator_implIKNS_4UserEEE" ]
  },
  {
   "function_name" : "llvm::make_range",
   "linker_set_key" : "_ZN4llvm10make_rangeINS_5Value18user_iterator_implINS_4UserEEEEENS_14iterator_rangeIT_EES6_S6_",
   "parameters" :
   [
    {
     "referenced_type" : "_ZTIN4llvm5Value18user_iterator_implINS_4UserEEE"
    },
    {
     "referenced_type" : "_ZTIN4llvm5Value18user_iterator_implINS_4UserEEE"
    }
   ],
   "return_type" : "_ZTIN4llvm14iterator_rangeINS_5Value18user_iterator_implINS_4UserEEEEE",
   "source_file" : "external/llvm/include/llvm/ADT/iterator_range.h",
   "template_args" : [ "_ZTIN4llvm5Value18user_iterator_implINS_4UserEEE" ]
  },
  {
   "function_name" : "llvm::make_range",
   "linker_set_key" : "_ZN4llvm10make_rangeINS_6Module24global_object_iterator_tILb0EEEEENS_14iterator_rangeIT_EES5_S5_",
   "parameters" :
   [
    {
     "referenced_type" : "_ZTIN4llvm6Module24global_object_iterator_tILb0EEE"
    },
    {
     "referenced_type" : "_ZTIN4llvm6Module24global_object_iterator_tILb0EEE"
    }
   ],
   "return_type" : "_ZTIN4llvm14iterator_rangeINS_6Module24global_object_iterator_tILb0EEEEE",
   "source_file" : "external/llvm/include/llvm/ADT/iterator_range.h",
   "template_args" : [ "_ZTIN4llvm6Module24global_object_iterator_tILb0EEE" ]
  },
  {
   "function_name" : "llvm::make_range",
   "linker_set_key" : "_ZN4llvm10make_rangeINS_6Module24global_object_iterator_tILb1EEEEENS_14iterator_rangeIT_EES5_S5_",
   "parameters" :
   [
    {
     "referenced_type" : "_ZTIN4llvm6Module24global_object_iterator_tILb1EEE"
    },
    {
     "referenced_type" : "_ZTIN4llvm6Module24global_object_iterator_tILb1EEE"
    }
   ],
   "return_type" : "_ZTIN4llvm14iterator_rangeINS_6Module24global_object_iterator_tILb1EEEEE",
   "source_file" : "external/llvm/include/llvm/ADT/iterator_range.h",
   "template_args" : [ "_ZTIN4llvm6Module24global_object_iterator_tILb1EEE" ]
  },
  {
   "function_name" : "llvm::make_range",
   "linker_set_key" : "_ZN4llvm10make_rangeINS_6Module28debug_compile_units_iteratorEEENS_14iterator_rangeIT_EES4_S4_",
   "parameters" :
   [
    {
     "referenced_type" : "_ZTIN4llvm6Module28debug_compile_units_iteratorE"
    },
    {
     "referenced_type" : "_ZTIN4llvm6Module28debug_compile_units_iteratorE"
    }
   ],
   "return_type" : "_ZTIN4llvm14iterator_rangeINS_6Module28debug_compile_units_iteratorEEE",
   "source_file" : "external/llvm/include/llvm/ADT/iterator_range.h",
   "template_args" : [ "_ZTIN4llvm6Module28debug_compile_units_iteratorE" ]
  },
  {
   "function_name" : "llvm::make_range",
   "linker_set_key" : "_ZN4llvm10make_rangeIPKhEENS_14iterator_rangeIT_EES4_S4_",
   "parameters" :
   [
    {
     "referenced_type" : "_ZTIPKh"
    },
    {
     "referenced_type" : "_ZTIPKh"
    }
   ],
   "return_type" : "_ZTIN4llvm14iterator_rangeIPKhEE",
   "source_file" : "external/llvm/include/llvm/ADT/iterator_range.h",
   "template_args" : [ "_ZTIPKh" ]
  },
  {
   "function_name" : "llvm::AttrBuilder::td_end",
   "linker_set_key" : "_ZN4llvm11AttrBuilder6td_endEv",
   "parameters" :
   [
    {
     "is_this_ptr" : true,
     "referenced_type" : "_ZTIPN4llvm11AttrBuilderE"
    }
   ],
   "return_type" : "_ZTINSt3__114__map_iteratorINS_15__tree_iteratorINS_12__value_typeINS_12basic_stringIcNS_11char_traitsIcEENS_9allocatorIcEEEES8_EEPNS_11__tree_nodeIS9_PvEEiEEEE",
   "source_file" : "external/llvm/include/llvm/IR/Attributes.h"
  },
  {
   "function_name" : "llvm::AttrBuilder::td_attrs",
   "linker_set_key" : "_ZN4llvm11AttrBuilder8td_attrsEv",
   "parameters" :
   [
    {
     "is_this_ptr" : true,
     "referenced_type" : "_ZTIPN4llvm11AttrBuilderE"
    }
   ],
   "return_type" : "_ZTIN4llvm14iterator_rangeINSt3__114__map_iteratorINS1_15__tree_iteratorINS1_12__value_typeINS1_12basic_stringIcNS1_11char_traitsIcEENS1_9allocatorIcEEEESA_EEPNS1_11__tree_nodeISB_PvEEiEEEEEE",
   "source_file" : "external/llvm/include/llvm/IR/Attributes.h"
  },
  {
   "function_name" : "llvm::AttrBuilder::td_begin",
   "linker_set_key" : "_ZN4llvm11AttrBuilder8td_beginEv",
   "parameters" :
   [
    {
     "is_this_ptr" : true,
     "referenced_type" : "_ZTIPN4llvm11AttrBuilderE"
    }
   ],
   "return_type" : "_ZTINSt3__114__map_iteratorINS_15__tree_iteratorINS_12__value_typeINS_12basic_stringIcNS_11char_traitsIcEENS_9allocatorIcEEEES8_EEPNS_11__tree_nodeIS9_PvEEiEEEE",
   "source_file" : "external/llvm/include/llvm/IR/Attributes.h"
  },
  {
   "function_name" : "llvm::AttrBuilder::AttrBuilder",
   "linker_set_key" : "_ZN4llvm11AttrBuilderC1ERKNS_9AttributeE",
   "parameters" :
   [
    {
     "is_this_ptr" : true,
     "referenced_type" : "_ZTIPN4llvm11AttrBuilderE"
    },
    {
     "referenced_type" : "_ZTIRKN4llvm9AttributeE"
    }
   ],
   "return_type" : "_ZTIv",
   "source_file" : "external/llvm/include/llvm/IR/Attributes.h"
  },
  {
   "function_name" : "llvm::AttrBuilder::AttrBuilder",
   "linker_set_key" : "_ZN4llvm11AttrBuilderC1Ev",
   "parameters" :
   [
    {
     "is_this_ptr" : true,
     "referenced_type" : "_ZTIPN4llvm11AttrBuilderE"
    }
   ],
   "return_type" : "_ZTIv",
   "source_file" : "external/llvm/include/llvm/IR/Attributes.h"
  },
  {
   "function_name" : "llvm::AttrBuilder::AttrBuilder",
   "linker_set_key" : "_ZN4llvm11AttrBuilderC1Ey",
   "parameters" :
   [
    {
     "is_this_ptr" : true,
     "referenced_type" : "_ZTIPN4llvm11AttrBuilderE"
    },
    {
     "referenced_type" : "_ZTIy"
    }
   ],
   "return_type" : "_ZTIv",
   "source_file" : "external/llvm/include/llvm/IR/Attributes.h"
  },
  {
   "function_name" : "llvm::AttrBuilder::AttrBuilder",
   "linker_set_key" : "_ZN4llvm11AttrBuilderC2ERKNS_9AttributeE",
   "parameters" :
   [
    {
     "is_this_ptr" : true,
     "referenced_type" : "_ZTIPN4llvm11AttrBuilderE"
    },
    {
     "referenced_type" : "_ZTIRKN4llvm9AttributeE"
    }
   ],
   "return_type" : "_ZTIv",
   "source_file" : "external/llvm/include/llvm/IR/Attributes.h"
  },
  {
   "function_name" : "llvm::AttrBuilder::AttrBuilder",
   "linker_set_key" : "_ZN4llvm11AttrBuilderC2Ev",
   "parameters" :
   [
    {
     "is_this_ptr" : true,
     "referenced_type" : "_ZTIPN4llvm11AttrBuilderE"
    }
   ],
   "return_type" : "_ZTIv",
   "source_file" : "external/llvm/include/llvm/IR/Attributes.h"
  },
  {
   "function_name" : "llvm::AttrBuilder::AttrBuilder",
   "linker_set_key" : "_ZN4llvm11AttrBuilderC2Ey",
   "parameters" :
   [
    {
     "is_this_ptr" : true,
     "referenced_type" : "_ZTIPN4llvm11AttrBuilderE"
    },
    {
     "referenced_type" : "_ZTIy"
    }
   ],
   "return_type" : "_ZTIv",
   "source_file" : "external/llvm/include/llvm/IR/Attributes.h"
  },
  {
   "function_name" : "llvm::AttrBuilder::operator!=",
   "linker_set_key" : "_ZN4llvm11AttrBuilderneERKS0_",
   "parameters" :
   [
    {
     "is_this_ptr" : true,
     "referenced_type" : "_ZTIPN4llvm11AttrBuilderE"
    },
    {
     "referenced_type" : "_ZTIRKN4llvm11AttrBuilderE"
    }
   ],
   "return_type" : "_ZTIb",
   "source_file" : "external/llvm/include/llvm/IR/Attributes.h"
  },
  {
   "function_name" : "llvm::BitsToFloat",
   "linker_set_key" : "_ZN4llvm11BitsToFloatEj",
   "parameters" :
   [
    {
     "referenced_type" : "_ZTIj"
    }
   ],
   "return_type" : "_ZTIf",
   "source_file" : "external/llvm/include/llvm/Support/MathExtras.h"
  },
  {
   "function_name" : "llvm::ByteSwap_16",
   "linker_set_key" : "_ZN4llvm11ByteSwap_16Et",
   "parameters" :
   [
    {
     "referenced_type" : "_ZTIt"
    }
   ],
   "return_type" : "_ZTIt",
   "source_file" : "external/llvm/include/llvm/Support/MathExtras.h"
  },
  {
   "function_name" : "llvm::ByteSwap_32",
   "linker_set_key" : "_ZN4llvm11ByteSwap_32Ej",
   "parameters" :
   [
    {
     "referenced_type" : "_ZTIj"
    }
   ],
   "return_type" : "_ZTIj",
   "source_file" : "external/llvm/include/llvm/Support/MathExtras.h"
  },
  {
   "function_name" : "llvm::ByteSwap_64",
   "linker_set_key" : "_ZN4llvm11ByteSwap_64Ey",
   "parameters" :
   [
    {
     "referenced_type" : "_ZTIy"
    }
   ],
   "return_type" : "_ZTIy",
   "source_file" : "external/llvm/include/llvm/Support/MathExtras.h"
  },
  {
   "function_name" : "llvm::ConstantInt::classof",
   "linker_set_key" : "_ZN4llvm11ConstantInt7classofEPKNS_5ValueE",
   "parameters" :
   [
    {
     "referenced_type" : "_ZTIPKN4llvm5ValueE"
    }
   ],
   "return_type" : "_ZTIb",
   "source_file" : "external/llvm/include/llvm/IR/Constants.h"
  },
  {
   "function_name" : "llvm::FloatToBits",
   "linker_set_key" : "_ZN4llvm11FloatToBitsEf",
   "parameters" :
   [
    {
     "referenced_type" : "_ZTIf"
    }
   ],
   "return_type" : "_ZTIj",
   "source_file" : "external/llvm/include/llvm/Support/MathExtras.h"
  },
  {
   "function_name" : "llvm::FreeDeleter::operator()",
   "linker_set_key" : "_ZN4llvm11FreeDeleterclEPv",
   "parameters" :
   [
    {
     "is_this_ptr" : true,
     "referenced_type" : "_ZTIPN4llvm11FreeDeleterE"
    },
    {
     "referenced_type" : "_ZTIPv"
    }
   ],
   "return_type" : "_ZTIv",
   "source_file" : "external/llvm/include/llvm/ADT/STLExtras.h"
  },
  {
   "access" : "private",
   "function_name" : "llvm::GEPOperator::setIsInBounds",
   "linker_set_key" : "_ZN4llvm11GEPOperator13setIsInBoundsEb",
   "parameters" :
   [
    {
     "is_this_ptr" : true,
     "referenced_type" : "_ZTIPN4llvm11GEPOperatorE"
    },
    {
     "referenced_type" : "_ZTIb"
    }
   ],
   "return_type" : "_ZTIv",
   "source_file" : "external/llvm/include/llvm/IR/Operator.h"
  },
  {
   "function_name" : "llvm::GEPOperator::getPointerOperand",
   "linker_set_key" : "_ZN4llvm11GEPOperator17getPointerOperandEv",
   "parameters" :
   [
    {
     "is_this_ptr" : true,
     "referenced_type" : "_ZTIPN4llvm11GEPOperatorE"
    }
   ],
   "return_type" : "_ZTIPN4llvm5ValueE",
   "source_file" : "external/llvm/include/llvm/IR/Operator.h"
  },
  {
   "function_name" : "llvm::GEPOperator::getPointerOperandIndex",
   "linker_set_key" : "_ZN4llvm11GEPOperator22getPointerOperandIndexEv",
   "return_type" : "_ZTIj",
   "source_file" : "external/llvm/include/llvm/IR/Operator.h"
  },
  {
   "function_name" : "llvm::GEPOperator::idx_end",
   "linker_set_key" : "_ZN4llvm11GEPOperator7idx_endEv",
   "parameters" :
   [
    {
     "is_this_ptr" : true,
     "referenced_type" : "_ZTIPN4llvm11GEPOperatorE"
    }
   ],
   "return_type" : "_ZTIPN4llvm3UseE",
   "source_file" : "external/llvm/include/llvm/IR/Operator.h"
  },
  {
   "function_name" : "llvm::GEPOperator::idx_begin",
   "linker_set_key" : "_ZN4llvm11GEPOperator9idx_beginEv",
   "parameters" :
   [
    {
     "is_this_ptr" : true,
     "referenced_type" : "_ZTIPN4llvm11GEPOperatorE"
    }
   ],
   "return_type" : "_ZTIPN4llvm3UseE",
   "source_file" : "external/llvm/include/llvm/IR/Operator.h"
  },
  {
   "function_name" : "llvm::GlobalAlias::getAliasee",
   "linker_set_key" : "_ZN4llvm11GlobalAlias10getAliaseeEv",
   "parameters" :
   [
    {
     "is_this_ptr" : true,
     "referenced_type" : "_ZTIPN4llvm11GlobalAliasE"
    }
   ],
   "return_type" : "_ZTIPN4llvm8ConstantE",
   "source_file" : "external/llvm/include/llvm/IR/GlobalAlias.h"
  },
  {
   "function_name" : "llvm::GlobalAlias::setAliasee",
   "linker_set_key" : "_ZN4llvm11GlobalAlias10setAliaseeEPNS_8ConstantE",
   "parameters" :
   [
    {
     "is_this_ptr" : true,
     "referenced_type" : "_ZTIPN4llvm11GlobalAliasE"
    },
    {
     "referenced_type" : "_ZTIPN4llvm8ConstantE"
    }
   ],
   "return_type" : "_ZTIv",
   "source_file" : "external/llvm/include/llvm/IR/GlobalAlias.h"
  },
  {
   "function_name" : "llvm::GlobalAlias::isValidLinkage",
   "linker_set_key" : "_ZN4llvm11GlobalAlias14isValidLinkageENS_11GlobalValue12LinkageTypesE",
   "parameters" :
   [
    {
     "referenced_type" : "_ZTIN4llvm11GlobalValue12LinkageTypesE"
    }
   ],
   "return_type" : "_ZTIb",
   "source_file" : "external/llvm/include/llvm/IR/GlobalAlias.h"
  },
  {
   "function_name" : "llvm::GlobalAlias::eraseFromParent",
   "linker_set_key" : "_ZN4llvm11GlobalAlias15eraseFromParentEv",
   "parameters" :
   [
    {
     "is_this_ptr" : true,
     "referenced_type" : "_ZTIPN4llvm11GlobalAliasE"
    }
   ],
   "return_type" : "_ZTIv",
   "source_file" : "external/llvm/include/llvm/IR/GlobalAlias.h"
  },
  {
   "function_name" : "llvm::GlobalAlias::removeFromParent",
   "linker_set_key" : "_ZN4llvm11GlobalAlias16removeFromParentEv",
   "parameters" :
   [
    {
     "is_this_ptr" : true,
     "referenced_type" : "_ZTIPN4llvm11GlobalAliasE"
    }
   ],
   "return_type" : "_ZTIv",
   "source_file" : "external/llvm/include/llvm/IR/GlobalAlias.h"
  },
  {
   "function_name" : "llvm::GlobalAlias::create",
   "linker_set_key" : "_ZN4llvm11GlobalAlias6createENS_11GlobalValue12LinkageTypesERKNS_5TwineEPS1_",
   "parameters" :
   [
    {
     "referenced_type" : "_ZTIN4llvm11GlobalValue12LinkageTypesE"
    },
    {
     "referenced_type" : "_ZTIRKN4llvm5TwineE"
    },
    {
     "referenced_type" : "_ZTIPN4llvm11GlobalValueE"
    }
   ],
   "return_type" : "_ZTIPN4llvm11GlobalAliasE",
   "source_file" : "external/llvm/include/llvm/IR/GlobalAlias.h"
  },
  {
   "function_name" : "llvm::GlobalAlias::create",
   "linker_set_key" : "_ZN4llvm11GlobalAlias6createEPNS_4TypeEjNS_11GlobalValue12LinkageTypesERKNS_5TwineEPNS_6ModuleE",
   "parameters" :
   [
    {
     "referenced_type" : "_ZTIPN4llvm4TypeE"
    },
    {
     "referenced_type" : "_ZTIj"
    },
    {
     "referenced_type" : "_ZTIN4llvm11GlobalValue12LinkageTypesE"
    },
    {
     "referenced_type" : "_ZTIRKN4llvm5TwineE"
    },
    {
     "referenced_type" : "_ZTIPN4llvm6ModuleE"
    }
   ],
   "return_type" : "_ZTIPN4llvm11GlobalAliasE",
   "source_file" : "external/llvm/include/llvm/IR/GlobalAlias.h"
  },
  {
   "function_name" : "llvm::GlobalAlias::create",
   "linker_set_key" : "_ZN4llvm11GlobalAlias6createEPNS_4TypeEjNS_11GlobalValue12LinkageTypesERKNS_5TwineEPNS_8ConstantEPNS_6ModuleE",
   "parameters" :
   [
    {
     "referenced_type" : "_ZTIPN4llvm4TypeE"
    },
    {
     "referenced_type" : "_ZTIj"
    },
    {
     "referenced_type" : "_ZTIN4llvm11GlobalValue12LinkageTypesE"
    },
    {
     "referenced_type" : "_ZTIRKN4llvm5TwineE"
    },
    {
     "referenced_type" : "_ZTIPN4llvm8ConstantE"
    },
    {
     "referenced_type" : "_ZTIPN4llvm6ModuleE"
    }
   ],
   "return_type" : "_ZTIPN4llvm11GlobalAliasE",
   "source_file" : "external/llvm/include/llvm/IR/GlobalAlias.h"
  },
  {
   "function_name" : "llvm::GlobalAlias::create",
   "linker_set_key" : "_ZN4llvm11GlobalAlias6createEPNS_4TypeEjNS_11GlobalValue12LinkageTypesERKNS_5TwineEPS3_",
   "parameters" :
   [
    {
     "referenced_type" : "_ZTIPN4llvm4TypeE"
    },
    {
     "referenced_type" : "_ZTIj"
    },
    {
     "referenced_type" : "_ZTIN4llvm11GlobalValue12LinkageTypesE"
    },
    {
     "referenced_type" : "_ZTIRKN4llvm5TwineE"
    },
    {
     "referenced_type" : "_ZTIPN4llvm11GlobalValueE"
    }
   ],
   "return_type" : "_ZTIPN4llvm11GlobalAliasE",
   "source_file" : "external/llvm/include/llvm/IR/GlobalAlias.h"
  },
  {
   "function_name" : "llvm::GlobalAlias::create",
   "linker_set_key" : "_ZN4llvm11GlobalAlias6createERKNS_5TwineEPNS_11GlobalValueE",
   "parameters" :
   [
    {
     "referenced_type" : "_ZTIRKN4llvm5TwineE"
    },
    {
     "referenced_type" : "_ZTIPN4llvm11GlobalValueE"
    }
   ],
   "return_type" : "_ZTIPN4llvm11GlobalAliasE",
   "source_file" : "external/llvm/include/llvm/IR/GlobalAlias.h"
  },
  {
   "function_name" : "llvm::GlobalAlias::classof",
   "linker_set_key" : "_ZN4llvm11GlobalAlias7classofEPKNS_5ValueE",
   "parameters" :
   [
    {
     "referenced_type" : "_ZTIPKN4llvm5ValueE"
    }
   ],
   "return_type" : "_ZTIb",
   "source_file" : "external/llvm/include/llvm/IR/GlobalAlias.h"
  },
  {
   "access" : "private",
   "function_name" : "llvm::GlobalAlias::setParent",
   "linker_set_key" : "_ZN4llvm11GlobalAlias9setParentEPNS_6ModuleE",
   "parameters" :
   [
    {
     "is_this_ptr" : true,
     "referenced_type" : "_ZTIPN4llvm11GlobalAliasE"
    },
    {
     "referenced_type" : "_ZTIPN4llvm6ModuleE"
    }
   ],
   "return_type" : "_ZTIv",
   "source_file" : "external/llvm/include/llvm/IR/GlobalAlias.h"
  },
  {
   "access" : "private",
   "function_name" : "llvm::GlobalAlias::GlobalAlias",
   "linker_set_key" : "_ZN4llvm11GlobalAliasC1EPNS_4TypeEjNS_11GlobalValue12LinkageTypesERKNS_5TwineEPNS_8ConstantEPNS_6ModuleE",
   "parameters" :
   [
    {
     "is_this_ptr" : true,
     "referenced_type" : "_ZTIPN4llvm11GlobalAliasE"
    },
    {
     "referenced_type" : "_ZTIPN4llvm4TypeE"
    },
    {
     "referenced_type" : "_ZTIj"
    },
    {
     "referenced_type" : "_ZTIN4llvm11GlobalValue12LinkageTypesE"
    },
    {
     "referenced_type" : "_ZTIRKN4llvm5TwineE"
    },
    {
     "referenced_type" : "_ZTIPN4llvm8ConstantE"
    },
    {
     "referenced_type" : "_ZTIPN4llvm6ModuleE"
    }
   ],
   "return_type" : "_ZTIv",
   "source_file" : "external/llvm/include/llvm/IR/GlobalAlias.h"
  },
  {
   "access" : "private",
   "function_name" : "llvm::GlobalAlias::GlobalAlias",
   "linker_set_key" : "_ZN4llvm11GlobalAliasC2EPNS_4TypeEjNS_11GlobalValue12LinkageTypesERKNS_5TwineEPNS_8ConstantEPNS_6ModuleE",
   "parameters" :
   [
    {
     "is_this_ptr" : true,
     "referenced_type" : "_ZTIPN4llvm11GlobalAliasE"
    },
    {
     "referenced_type" : "_ZTIPN4llvm4TypeE"
    },
    {
     "referenced_type" : "_ZTIj"
    },
    {
     "referenced_type" : "_ZTIN4llvm11GlobalValue12LinkageTypesE"
    },
    {
     "referenced_type" : "_ZTIRKN4llvm5TwineE"
    },
    {
     "referenced_type" : "_ZTIPN4llvm8ConstantE"
    },
    {
     "referenced_type" : "_ZTIPN4llvm6ModuleE"
    }
   ],
   "return_type" : "_ZTIv",
   "source_file" : "external/llvm/include/llvm/IR/GlobalAlias.h"
  },
  {
   "function_name" : "llvm::GlobalIFunc::getResolver",
   "linker_set_key" : "_ZN4llvm11GlobalIFunc11getResolverEv",
   "parameters" :
   [
    {
     "is_this_ptr" : true,
     "referenced_type" : "_ZTIPN4llvm11GlobalIFuncE"
    }
   ],
   "return_type" : "_ZTIPN4llvm8ConstantE",
   "source_file" : "external/llvm/include/llvm/IR/GlobalIFunc.h"
  },
  {
   "function_name" : "llvm::GlobalIFunc::setResolver",
   "linker_set_key" : "_ZN4llvm11GlobalIFunc11setResolverEPNS_8ConstantE",
   "parameters" :
   [
    {
     "is_this_ptr" : true,
     "referenced_type" : "_ZTIPN4llvm11GlobalIFuncE"
    },
    {
     "referenced_type" : "_ZTIPN4llvm8ConstantE"
    }
   ],
   "return_type" : "_ZTIv",
   "source_file" : "external/llvm/include/llvm/IR/GlobalIFunc.h"
  },
  {
   "function_name" : "llvm::GlobalIFunc::eraseFromParent",
   "linker_set_key" : "_ZN4llvm11GlobalIFunc15eraseFromParentEv",
   "parameters" :
   [
    {
     "is_this_ptr" : true,
     "referenced_type" : "_ZTIPN4llvm11GlobalIFuncE"
    }
   ],
   "return_type" : "_ZTIv",
   "source_file" : "external/llvm/include/llvm/IR/GlobalIFunc.h"
  },
  {
   "function_name" : "llvm::GlobalIFunc::removeFromParent",
   "linker_set_key" : "_ZN4llvm11GlobalIFunc16removeFromParentEv",
   "parameters" :
   [
    {
     "is_this_ptr" : true,
     "referenced_type" : "_ZTIPN4llvm11GlobalIFuncE"
    }
   ],
   "return_type" : "_ZTIv",
   "source_file" : "external/llvm/include/llvm/IR/GlobalIFunc.h"
  },
  {
   "function_name" : "llvm::GlobalIFunc::create",
   "linker_set_key" : "_ZN4llvm11GlobalIFunc6createEPNS_4TypeEjNS_11GlobalValue12LinkageTypesERKNS_5TwineEPNS_8ConstantEPNS_6ModuleE",
   "parameters" :
   [
    {
     "referenced_type" : "_ZTIPN4llvm4TypeE"
    },
    {
     "referenced_type" : "_ZTIj"
    },
    {
     "referenced_type" : "_ZTIN4llvm11GlobalValue12LinkageTypesE"
    },
    {
     "referenced_type" : "_ZTIRKN4llvm5TwineE"
    },
    {
     "referenced_type" : "_ZTIPN4llvm8ConstantE"
    },
    {
     "referenced_type" : "_ZTIPN4llvm6ModuleE"
    }
   ],
   "return_type" : "_ZTIPN4llvm11GlobalIFuncE",
   "source_file" : "external/llvm/include/llvm/IR/GlobalIFunc.h"
  },
  {
   "function_name" : "llvm::GlobalIFunc::classof",
   "linker_set_key" : "_ZN4llvm11GlobalIFunc7classofEPKNS_5ValueE",
   "parameters" :
   [
    {
     "referenced_type" : "_ZTIPKN4llvm5ValueE"
    }
   ],
   "return_type" : "_ZTIb",
   "source_file" : "external/llvm/include/llvm/IR/GlobalIFunc.h"
  },
  {
   "access" : "private",
   "function_name" : "llvm::GlobalIFunc::setParent",
   "linker_set_key" : "_ZN4llvm11GlobalIFunc9setParentEPNS_6ModuleE",
   "parameters" :
   [
    {
     "is_this_ptr" : true,
     "referenced_type" : "_ZTIPN4llvm11GlobalIFuncE"
    },
    {
     "referenced_type" : "_ZTIPN4llvm6ModuleE"
    }
   ],
   "return_type" : "_ZTIv",
   "source_file" : "external/llvm/include/llvm/IR/GlobalIFunc.h"
  },
  {
   "access" : "private",
   "function_name" : "llvm::GlobalIFunc::GlobalIFunc",
   "linker_set_key" : "_ZN4llvm11GlobalIFuncC1EPNS_4TypeEjNS_11GlobalValue12LinkageTypesERKNS_5TwineEPNS_8ConstantEPNS_6ModuleE",
   "parameters" :
   [
    {
     "is_this_ptr" : true,
     "referenced_type" : "_ZTIPN4llvm11GlobalIFuncE"
    },
    {
     "referenced_type" : "_ZTIPN4llvm4TypeE"
    },
    {
     "referenced_type" : "_ZTIj"
    },
    {
     "referenced_type" : "_ZTIN4llvm11GlobalValue12LinkageTypesE"
    },
    {
     "referenced_type" : "_ZTIRKN4llvm5TwineE"
    },
    {
     "referenced_type" : "_ZTIPN4llvm8ConstantE"
    },
    {
     "referenced_type" : "_ZTIPN4llvm6ModuleE"
    }
   ],
   "return_type" : "_ZTIv",
   "source_file" : "external/llvm/include/llvm/IR/GlobalIFunc.h"
  },
  {
   "access" : "private",
   "function_name" : "llvm::GlobalIFunc::GlobalIFunc",
   "linker_set_key" : "_ZN4llvm11GlobalIFuncC2EPNS_4TypeEjNS_11GlobalValue12LinkageTypesERKNS_5TwineEPNS_8ConstantEPNS_6ModuleE",
   "parameters" :
   [
    {
     "is_this_ptr" : true,
     "referenced_type" : "_ZTIPN4llvm11GlobalIFuncE"
    },
    {
     "referenced_type" : "_ZTIPN4llvm4TypeE"
    },
    {
     "referenced_type" : "_ZTIj"
    },
    {
     "referenced_type" : "_ZTIN4llvm11GlobalValue12LinkageTypesE"
    },
    {
     "referenced_type" : "_ZTIRKN4llvm5TwineE"
    },
    {
     "referenced_type" : "_ZTIPN4llvm8ConstantE"
    },
    {
     "referenced_type" : "_ZTIPN4llvm6ModuleE"
    }
   ],
   "return_type" : "_ZTIv",
   "source_file" : "external/llvm/include/llvm/IR/GlobalIFunc.h"
  },
  {
   "function_name" : "llvm::GlobalValue::setLinkage",
   "linker_set_key" : "_ZN4llvm11GlobalValue10setLinkageENS0_12LinkageTypesE",
   "parameters" :
   [
    {
     "is_this_ptr" : true,
     "referenced_type" : "_ZTIPN4llvm11GlobalValueE"
    },
    {
     "referenced_type" : "_ZTIN4llvm11GlobalValue12LinkageTypesE"
    }
   ],
   "return_type" : "_ZTIv",
   "source_file" : "external/llvm/include/llvm/IR/GlobalValue.h"
  },
  {
   "function_name" : "llvm::GlobalValue::materialize",
   "linker_set_key" : "_ZN4llvm11GlobalValue11materializeEv",
   "parameters" :
   [
    {
     "is_this_ptr" : true,
     "referenced_type" : "_ZTIPN4llvm11GlobalValueE"
    }
   ],
   "return_type" : "_ZTINSt3__110error_codeE",
   "source_file" : "external/llvm/include/llvm/IR/GlobalValue.h"
  },
  {
   "function_name" : "llvm::GlobalValue::isWeakLinkage",
   "linker_set_key" : "_ZN4llvm11GlobalValue13isWeakLinkageENS0_12LinkageTypesE",
   "parameters" :
   [
    {
     "referenced_type" : "_ZTIN4llvm11GlobalValue12LinkageTypesE"
    }
   ],
   "return_type" : "_ZTIb",
   "source_file" : "external/llvm/include/llvm/IR/GlobalValue.h"
  },
  {
   "function_name" : "llvm::GlobalValue::setVisibility",
   "linker_set_key" : "_ZN4llvm11GlobalValue13setVisibilityENS0_15VisibilityTypesE",
   "parameters" :
   [
    {
     "is_this_ptr" : true,
     "referenced_type" : "_ZTIPN4llvm11GlobalValueE"
    },
    {
     "referenced_type" : "_ZTIN4llvm11GlobalValue15VisibilityTypesE"
    }
   ],
   "return_type" : "_ZTIv",
   "source_file" : "external/llvm/include/llvm/IR/GlobalValue.h"
  },
  {
   "function_name" : "llvm::GlobalValue::getWeakLinkage",
   "linker_set_key" : "_ZN4llvm11GlobalValue14getWeakLinkageEb",
   "parameters" :
   [
    {
     "referenced_type" : "_ZTIb"
    }
   ],
   "return_type" : "_ZTIN4llvm11GlobalValue12LinkageTypesE",
   "source_file" : "external/llvm/include/llvm/IR/GlobalValue.h"
  },
  {
   "function_name" : "llvm::GlobalValue::isLocalLinkage",
   "linker_set_key" : "_ZN4llvm11GlobalValue14isLocalLinkageENS0_12LinkageTypesE",
   "parameters" :
   [
    {
     "referenced_type" : "_ZTIN4llvm11GlobalValue12LinkageTypesE"
    }
   ],
   "return_type" : "_ZTIb",
   "source_file" : "external/llvm/include/llvm/IR/GlobalValue.h"
  },
  {
   "function_name" : "llvm::GlobalValue::setThreadLocal",
   "linker_set_key" : "_ZN4llvm11GlobalValue14setThreadLocalEb",
   "parameters" :
   [
    {
     "is_this_ptr" : true,
     "referenced_type" : "_ZTIPN4llvm11GlobalValueE"
    },
    {
     "referenced_type" : "_ZTIb"
    }
   ],
   "return_type" : "_ZTIv",
   "source_file" : "external/llvm/include/llvm/IR/GlobalValue.h"
  },
  {
   "function_name" : "llvm::GlobalValue::setUnnamedAddr",
   "linker_set_key" : "_ZN4llvm11GlobalValue14setUnnamedAddrENS0_11UnnamedAddrE",
   "parameters" :
   [
    {
     "is_this_ptr" : true,
     "referenced_type" : "_ZTIPN4llvm11GlobalValueE"
    },
    {
     "referenced_type" : "_ZTIN4llvm11GlobalValue11UnnamedAddrE"
    }
   ],
   "return_type" : "_ZTIv",
   "source_file" : "external/llvm/include/llvm/IR/GlobalValue.h"
  },
  {
   "function_name" : "llvm::GlobalValue::isCommonLinkage",
   "linker_set_key" : "_ZN4llvm11GlobalValue15isCommonLinkageENS0_12LinkageTypesE",
   "parameters" :
   [
    {
     "referenced_type" : "_ZTIN4llvm11GlobalValue12LinkageTypesE"
    }
   ],
   "return_type" : "_ZTIb",
   "source_file" : "external/llvm/include/llvm/IR/GlobalValue.h"
  },
  {
   "function_name" : "llvm::GlobalValue::isWeakForLinker",
   "linker_set_key" : "_ZN4llvm11GlobalValue15isWeakForLinkerENS0_12LinkageTypesE",
   "parameters" :
   [
    {
     "referenced_type" : "_ZTIN4llvm11GlobalValue12LinkageTypesE"
    }
   ],
   "return_type" : "_ZTIb",
   "source_file" : "external/llvm/include/llvm/IR/GlobalValue.h"
  },
  {
   "function_name" : "llvm::GlobalValue::isPrivateLinkage",
   "linker_set_key" : "_ZN4llvm11GlobalValue16isPrivateLinkageENS0_12LinkageTypesE",
   "parameters" :
   [
    {
     "referenced_type" : "_ZTIN4llvm11GlobalValue12LinkageTypesE"
    }
   ],
   "return_type" : "_ZTIb",
   "source_file" : "external/llvm/include/llvm/IR/GlobalValue.h"
  },
  {
   "function_name" : "llvm::GlobalValue::isWeakAnyLinkage",
   "linker_set_key" : "_ZN4llvm11GlobalValue16isWeakAnyLinkageENS0_12LinkageTypesE",
   "parameters" :
   [
    {
     "referenced_type" : "_ZTIN4llvm11GlobalValue12LinkageTypesE"
    }
   ],
   "return_type" : "_ZTIb",
   "source_file" : "external/llvm/include/llvm/IR/GlobalValue.h"
  },
  {
   "function_name" : "llvm::GlobalValue::isWeakODRLinkage",
   "linker_set_key" : "_ZN4llvm11GlobalValue16isWeakODRLinkageENS0_12LinkageTypesE",
   "parameters" :
   [
    {
     "referenced_type" : "_ZTIN4llvm11GlobalValue12LinkageTypesE"
    }
   ],
   "return_type" : "_ZTIb",
   "source_file" : "external/llvm/include/llvm/IR/GlobalValue.h"
  },
  {
   "function_name" : "llvm::GlobalValue::getMinUnnamedAddr",
   "linker_set_key" : "_ZN4llvm11GlobalValue17getMinUnnamedAddrENS0_11UnnamedAddrES1_",
   "parameters" :
   [
    {
     "referenced_type" : "_ZTIN4llvm11GlobalValue11UnnamedAddrE"
    },
    {
     "referenced_type" : "_ZTIN4llvm11GlobalValue11UnnamedAddrE"
    }
   ],
   "return_type" : "_ZTIN4llvm11GlobalValue11UnnamedAddrE",
   "source_file" : "external/llvm/include/llvm/IR/GlobalValue.h"
  },
  {
   "function_name" : "llvm::GlobalValue::isExternalLinkage",
   "linker_set_key" : "_ZN4llvm11GlobalValue17isExternalLinkageENS0_12LinkageTypesE",
   "parameters" :
   [
    {
     "referenced_type" : "_ZTIN4llvm11GlobalValue12LinkageTypesE"
    }
   ],
   "return_type" : "_ZTIb",
   "source_file" : "external/llvm/include/llvm/IR/GlobalValue.h"
  },
  {
   "function_name" : "llvm::GlobalValue::isInternalLinkage",
   "linker_set_key" : "_ZN4llvm11GlobalValue17isInternalLinkageENS0_12LinkageTypesE",
   "parameters" :
   [
    {
     "referenced_type" : "_ZTIN4llvm11GlobalValue12LinkageTypesE"
    }
   ],
   "return_type" : "_ZTIb",
   "source_file" : "external/llvm/include/llvm/IR/GlobalValue.h"
  },
  {
   "function_name" : "llvm::GlobalValue::isLinkOnceLinkage",
   "linker_set_key" : "_ZN4llvm11GlobalValue17isLinkOnceLinkageENS0_12LinkageTypesE",
   "parameters" :
   [
    {
     "referenced_type" : "_ZTIN4llvm11GlobalValue12LinkageTypesE"
    }
   ],
   "return_type" : "_ZTIb",
   "source_file" : "external/llvm/include/llvm/IR/GlobalValue.h"
  },
  {
   "function_name" : "llvm::GlobalValue::copyAttributesFrom",
   "linker_set_key" : "_ZN4llvm11GlobalValue18copyAttributesFromEPKS0_",
   "parameters" :
   [
    {
     "is_this_ptr" : true,
     "referenced_type" : "_ZTIPN4llvm11GlobalValueE"
    },
    {
     "referenced_type" : "_ZTIPKN4llvm11GlobalValueE"
    }
   ],
   "return_type" : "_ZTIv",
   "source_file" : "external/llvm/include/llvm/IR/GlobalValue.h"
  },
  {
   "function_name" : "llvm::GlobalValue::getLinkOnceLinkage",
   "linker_set_key" : "_ZN4llvm11GlobalValue18getLinkOnceLinkageEb",
   "parameters" :
   [
    {
     "referenced_type" : "_ZTIb"
    }
   ],
   "return_type" : "_ZTIN4llvm11GlobalValue12LinkageTypesE",
   "source_file" : "external/llvm/include/llvm/IR/GlobalValue.h"
  },
  {
   "function_name" : "llvm::GlobalValue::getRealLinkageName",
   "linker_set_key" : "_ZN4llvm11GlobalValue18getRealLinkageNameENS_9StringRefE",
   "parameters" :
   [
    {
     "referenced_type" : "_ZTIN4llvm9StringRefE"
    }
   ],
   "return_type" : "_ZTIN4llvm9StringRefE",
   "source_file" : "external/llvm/include/llvm/IR/GlobalValue.h"
  },
  {
   "function_name" : "llvm::GlobalValue::isAppendingLinkage",
   "linker_set_key" : "_ZN4llvm11GlobalValue18isAppendingLinkageENS0_12LinkageTypesE",
   "parameters" :
   [
    {
     "referenced_type" : "_ZTIN4llvm11GlobalValue12LinkageTypesE"
    }
   ],
   "return_type" : "_ZTIb",
   "source_file" : "external/llvm/include/llvm/IR/GlobalValue.h"
  },
  {
   "function_name" : "llvm::GlobalValue::setDLLStorageClass",
   "linker_set_key" : "_ZN4llvm11GlobalValue18setDLLStorageClassENS0_20DLLStorageClassTypesE",
   "parameters" :
   [
    {
     "is_this_ptr" : true,
     "referenced_type" : "_ZTIPN4llvm11GlobalValueE"
    },
    {
     "referenced_type" : "_ZTIN4llvm11GlobalValue20DLLStorageClassTypesE"
    }
   ],
   "return_type" : "_ZTIv",
   "source_file" : "external/llvm/include/llvm/IR/GlobalValue.h"
  },
  {
   "function_name" : "llvm::GlobalValue::setThreadLocalMode",
   "linker_set_key" : "_ZN4llvm11GlobalValue18setThreadLocalModeENS0_15ThreadLocalModeE",
   "parameters" :
   [
    {
     "is_this_ptr" : true,
     "referenced_type" : "_ZTIPN4llvm11GlobalValueE"
    },
    {
     "referenced_type" : "_ZTIN4llvm11GlobalValue15ThreadLocalModeE"
    }
   ],
   "return_type" : "_ZTIv",
   "source_file" : "external/llvm/include/llvm/IR/GlobalValue.h"
  },
  {
   "access" : "private",
   "function_name" : "llvm::GlobalValue::destroyConstantImpl",
   "linker_set_key" : "_ZN4llvm11GlobalValue19destroyConstantImplEv",
   "parameters" :
   [
    {
     "is_this_ptr" : true,
     "referenced_type" : "_ZTIPN4llvm11GlobalValueE"
    }
   ],
   "return_type" : "_ZTIv",
   "source_file" : "external/llvm/include/llvm/IR/GlobalValue.h"
  },
  {
   "function_name" : "llvm::GlobalValue::getGlobalIdentifier",
   "linker_set_key" : "_ZN4llvm11GlobalValue19getGlobalIdentifierENS_9StringRefENS0_12LinkageTypesES1_",
   "parameters" :
   [
    {
     "referenced_type" : "_ZTIN4llvm9StringRefE"
    },
    {
     "referenced_type" : "_ZTIN4llvm11GlobalValue12LinkageTypesE"
    },
    {
     "referenced_type" : "_ZTIN4llvm9StringRefE"
    }
   ],
   "return_type" : "_ZTINSt3__112basic_stringIcNS_11char_traitsIcEENS_9allocatorIcEEEE",
   "source_file" : "external/llvm/include/llvm/IR/GlobalValue.h"
  },
  {
   "function_name" : "llvm::GlobalValue::isLinkOnceODRLinkage",
   "linker_set_key" : "_ZN4llvm11GlobalValue20isLinkOnceODRLinkageENS0_12LinkageTypesE",
   "parameters" :
   [
    {
     "referenced_type" : "_ZTIN4llvm11GlobalValue12LinkageTypesE"
    }
   ],
   "return_type" : "_ZTIb",
   "source_file" : "external/llvm/include/llvm/IR/GlobalValue.h"
  },
  {
   "function_name" : "llvm::GlobalValue::isDiscardableIfUnused",
   "linker_set_key" : "_ZN4llvm11GlobalValue21isDiscardableIfUnusedENS0_12LinkageTypesE",
   "parameters" :
   [
    {
     "referenced_type" : "_ZTIN4llvm11GlobalValue12LinkageTypesE"
    }
   ],
   "return_type" : "_ZTIb",
   "source_file" : "external/llvm/include/llvm/IR/GlobalValue.h"
  },
  {
   "function_name" : "llvm::GlobalValue::isExternalWeakLinkage",
   "linker_set_key" : "_ZN4llvm11GlobalValue21isExternalWeakLinkageENS0_12LinkageTypesE",
   "parameters" :
   [
    {
     "referenced_type" : "_ZTIN4llvm11GlobalValue12LinkageTypesE"
    }
   ],
   "return_type" : "_ZTIb",
   "source_file" : "external/llvm/include/llvm/IR/GlobalValue.h"
  },
  {
   "function_name" : "llvm::GlobalValue::isInterposableLinkage",
   "linker_set_key" : "_ZN4llvm11GlobalValue21isInterposableLinkageENS0_12LinkageTypesE",
   "parameters" :
   [
    {
     "referenced_type" : "_ZTIN4llvm11GlobalValue12LinkageTypesE"
    }
   ],
   "return_type" : "_ZTIb",
   "source_file" : "external/llvm/include/llvm/IR/GlobalValue.h"
  },
  {
   "access" : "private",
   "function_name" : "llvm::GlobalValue::handleOperandChangeImpl",
   "linker_set_key" : "_ZN4llvm11GlobalValue23handleOperandChangeImplEPNS_5ValueES2_",
   "parameters" :
   [
    {
     "is_this_ptr" : true,
     "referenced_type" : "_ZTIPN4llvm11GlobalValueE"
    },
    {
     "referenced_type" : "_ZTIPN4llvm5ValueE"
    },
    {
     "referenced_type" : "_ZTIPN4llvm5ValueE"
    }
   ],
   "return_type" : "_ZTIPN4llvm5ValueE",
   "source_file" : "external/llvm/include/llvm/IR/GlobalValue.h"
  },
  {
   "function_name" : "llvm::GlobalValue::isValidDeclarationLinkage",
   "linker_set_key" : "_ZN4llvm11GlobalValue25isValidDeclarationLinkageENS0_12LinkageTypesE",
   "parameters" :
   [
    {
     "referenced_type" : "_ZTIN4llvm11GlobalValue12LinkageTypesE"
    }
   ],
   "return_type" : "_ZTIb",
   "source_file" : "external/llvm/include/llvm/IR/GlobalValue.h"
  },
  {
   "access" : "protected",
   "function_name" : "llvm::GlobalValue::setGlobalValueSubClassData",
   "linker_set_key" : "_ZN4llvm11GlobalValue26setGlobalValueSubClassDataEj",
   "parameters" :
   [
    {
     "is_this_ptr" : true,
     "referenced_type" : "_ZTIPN4llvm11GlobalValueE"
    },
    {
     "referenced_type" : "_ZTIj"
    }
   ],
   "return_type" : "_ZTIv",
   "source_file" : "external/llvm/include/llvm/IR/GlobalValue.h"
  },
  {
   "function_name" : "llvm::GlobalValue::isAvailableExternallyLinkage",
   "linker_set_key" : "_ZN4llvm11GlobalValue28isAvailableExternallyLinkageENS0_12LinkageTypesE",
   "parameters" :
   [
    {
     "referenced_type" : "_ZTIN4llvm11GlobalValue12LinkageTypesE"
    }
   ],
   "return_type" : "_ZTIb",
   "source_file" : "external/llvm/include/llvm/IR/GlobalValue.h"
  },
  {
   "function_name" : "llvm::GlobalValue::classof",
   "linker_set_key" : "_ZN4llvm11GlobalValue7classofEPKNS_5ValueE",
   "parameters" :
   [
    {
     "referenced_type" : "_ZTIPKN4llvm5ValueE"
    }
   ],
   "return_type" : "_ZTIb",
   "source_file" : "external/llvm/include/llvm/IR/GlobalValue.h"
  },
  {
   "function_name" : "llvm::GlobalValue::getGUID",
   "linker_set_key" : "_ZN4llvm11GlobalValue7getGUIDENS_9StringRefE",
   "parameters" :
   [
    {
     "referenced_type" : "_ZTIN4llvm9StringRefE"
    }
   ],
   "return_type" : "_ZTIy",
   "source_file" : "external/llvm/include/llvm/IR/GlobalValue.h"
  },
  {
   "function_name" : "llvm::GlobalValue::getComdat",
   "linker_set_key" : "_ZN4llvm11GlobalValue9getComdatEv",
   "parameters" :
   [
    {
     "is_this_ptr" : true,
     "referenced_type" : "_ZTIPN4llvm11GlobalValueE"
    }
   ],
   "return_type" : "_ZTIPN4llvm6ComdatE",
   "source_file" : "external/llvm/include/llvm/IR/GlobalValue.h"
  },
  {
   "function_name" : "llvm::GlobalValue::getParent",
   "linker_set_key" : "_ZN4llvm11GlobalValue9getParentEv",
   "parameters" :
   [
    {
     "is_this_ptr" : true,
     "referenced_type" : "_ZTIPN4llvm11GlobalValueE"
    }
   ],
   "return_type" : "_ZTIPN4llvm6ModuleE",
   "source_file" : "external/llvm/include/llvm/IR/GlobalValue.h"
  },
  {
   "access" : "protected",
   "function_name" : "llvm::GlobalValue::GlobalValue",
   "linker_set_key" : "_ZN4llvm11GlobalValueC2EPNS_4TypeENS_5Value7ValueTyEPNS_3UseEjNS0_12LinkageTypesERKNS_5TwineEj",
   "parameters" :
   [
    {
     "is_this_ptr" : true,
     "referenced_type" : "_ZTIPN4llvm11GlobalValueE"
    },
    {
     "referenced_type" : "_ZTIPN4llvm4TypeE"
    },
    {
     "referenced_type" : "_ZTIN4llvm5Value7ValueTyE"
    },
    {
     "referenced_type" : "_ZTIPN4llvm3UseE"
    },
    {
     "referenced_type" : "_ZTIj"
    },
    {
     "referenced_type" : "_ZTIN4llvm11GlobalValue12LinkageTypesE"
    },
    {
     "referenced_type" : "_ZTIRKN4llvm5TwineE"
    },
    {
     "referenced_type" : "_ZTIj"
    }
   ],
   "return_type" : "_ZTIv",
   "source_file" : "external/llvm/include/llvm/IR/GlobalValue.h"
  },
  {
   "function_name" : "llvm::GlobalValue::~GlobalValue",
   "linker_set_key" : "_ZN4llvm11GlobalValueD0Ev",
   "parameters" :
   [
    {
     "is_this_ptr" : true,
     "referenced_type" : "_ZTIPN4llvm11GlobalValueE"
    }
   ],
   "return_type" : "_ZTIv",
   "source_file" : "external/llvm/include/llvm/IR/GlobalValue.h"
  },
  {
   "function_name" : "llvm::GlobalValue::~GlobalValue",
   "linker_set_key" : "_ZN4llvm11GlobalValueD1Ev",
   "parameters" :
   [
    {
     "is_this_ptr" : true,
     "referenced_type" : "_ZTIPN4llvm11GlobalValueE"
    }
   ],
   "return_type" : "_ZTIv",
   "source_file" : "external/llvm/include/llvm/IR/GlobalValue.h"
  },
  {
   "function_name" : "llvm::GlobalValue::~GlobalValue",
   "linker_set_key" : "_ZN4llvm11GlobalValueD2Ev",
   "parameters" :
   [
    {
     "is_this_ptr" : true,
     "referenced_type" : "_ZTIPN4llvm11GlobalValueE"
    }
   ],
   "return_type" : "_ZTIv",
   "source_file" : "external/llvm/include/llvm/IR/GlobalValue.h"
  },
  {
   "function_name" : "llvm::GraphTraits<const llvm::Type *>::child_begin",
   "linker_set_key" : "_ZN4llvm11GraphTraitsIPKNS_4TypeEE11child_beginES3_",
   "parameters" :
   [
    {
     "referenced_type" : "_ZTIPKN4llvm4TypeE"
    }
   ],
   "return_type" : "_ZTIPKPN4llvm4TypeE",
   "source_file" : "external/llvm/include/llvm/IR/Type.h"
  },
  {
   "function_name" : "llvm::GraphTraits<const llvm::Type *>::getEntryNode",
   "linker_set_key" : "_ZN4llvm11GraphTraitsIPKNS_4TypeEE12getEntryNodeES3_",
   "parameters" :
   [
    {
     "referenced_type" : "_ZTIPKN4llvm4TypeE"
    }
   ],
   "return_type" : "_ZTIPKN4llvm4TypeE",
   "source_file" : "external/llvm/include/llvm/IR/Type.h"
  },
  {
   "function_name" : "llvm::GraphTraits<const llvm::Type *>::child_end",
   "linker_set_key" : "_ZN4llvm11GraphTraitsIPKNS_4TypeEE9child_endES3_",
   "parameters" :
   [
    {
     "referenced_type" : "_ZTIPKN4llvm4TypeE"
    }
   ],
   "return_type" : "_ZTIPKPN4llvm4TypeE",
   "source_file" : "external/llvm/include/llvm/IR/Type.h"
  },
  {
   "function_name" : "llvm::GraphTraits<llvm::Type *>::child_begin",
   "linker_set_key" : "_ZN4llvm11GraphTraitsIPNS_4TypeEE11child_beginES2_",
   "parameters" :
   [
    {
     "referenced_type" : "_ZTIPN4llvm4TypeE"
    }
   ],
   "return_type" : "_ZTIPKPN4llvm4TypeE",
   "source_file" : "external/llvm/include/llvm/IR/Type.h"
  },
  {
   "function_name" : "llvm::GraphTraits<llvm::Type *>::getEntryNode",
   "linker_set_key" : "_ZN4llvm11GraphTraitsIPNS_4TypeEE12getEntryNodeES2_",
   "parameters" :
   [
    {
     "referenced_type" : "_ZTIPN4llvm4TypeE"
    }
   ],
   "return_type" : "_ZTIPN4llvm4TypeE",
   "source_file" : "external/llvm/include/llvm/IR/Type.h"
  },
  {
   "function_name" : "llvm::GraphTraits<llvm::Type *>::child_end",
   "linker_set_key" : "_ZN4llvm11GraphTraitsIPNS_4TypeEE9child_endES2_",
   "parameters" :
   [
    {
     "referenced_type" : "_ZTIPN4llvm4TypeE"
    }
   ],
   "return_type" : "_ZTIPKPN4llvm4TypeE",
   "source_file" : "external/llvm/include/llvm/IR/Type.h"
  },
  {
   "function_name" : "llvm::Instruction::isBinaryOp",
   "linker_set_key" : "_ZN4llvm11Instruction10isBinaryOpEj",
   "parameters" :
   [
    {
     "referenced_type" : "_ZTIj"
    }
   ],
   "return_type" : "_ZTIb",
   "source_file" : "external/llvm/include/llvm/IR/Instruction.h"
  },
  {
   "function_name" : "llvm::Instruction::setDebugLoc",
   "linker_set_key" : "_ZN4llvm11Instruction11setDebugLocENS_8DebugLocE",
   "parameters" :
   [
    {
     "is_this_ptr" : true,
     "referenced_type" : "_ZTIPN4llvm11InstructionE"
    },
    {
     "referenced_type" : "_ZTIN4llvm8DebugLocE"
    }
   ],
   "return_type" : "_ZTIv",
   "source_file" : "external/llvm/include/llvm/IR/Instruction.h"
  },
  {
   "function_name" : "llvm::Instruction::isFuncletPad",
   "linker_set_key" : "_ZN4llvm11Instruction12isFuncletPadEj",
   "parameters" :
   [
    {
     "referenced_type" : "_ZTIj"
    }
   ],
   "return_type" : "_ZTIb",
   "source_file" : "external/llvm/include/llvm/IR/Instruction.h"
  },
  {
   "function_name" : "llvm::Instruction::isTerminator",
   "linker_set_key" : "_ZN4llvm11Instruction12isTerminatorEj",
   "parameters" :
   [
    {
     "referenced_type" : "_ZTIj"
    }
   ],
   "return_type" : "_ZTIb",
   "source_file" : "external/llvm/include/llvm/IR/Instruction.h"
  },
  {
   "access" : "private",
   "function_name" : "llvm::Instruction::setValueSubclassData",
   "linker_set_key" : "_ZN4llvm11Instruction20setValueSubclassDataEt",
   "parameters" :
   [
    {
     "is_this_ptr" : true,
     "referenced_type" : "_ZTIPN4llvm11InstructionE"
    },
    {
     "referenced_type" : "_ZTIt"
    }
   ],
   "return_type" : "_ZTIv",
   "source_file" : "external/llvm/include/llvm/IR/Instruction.h"
  },
  {
   "access" : "private",
   "function_name" : "llvm::Instruction::setHasMetadataHashEntry",
   "linker_set_key" : "_ZN4llvm11Instruction23setHasMetadataHashEntryEb",
   "parameters" :
   [
    {
     "is_this_ptr" : true,
     "referenced_type" : "_ZTIPN4llvm11InstructionE"
    },
    {
     "referenced_type" : "_ZTIb"
    }
   ],
   "return_type" : "_ZTIv",
   "source_file" : "external/llvm/include/llvm/IR/Instruction.h"
  },
  {
   "access" : "protected",
   "function_name" : "llvm::Instruction::setInstructionSubclassData",
   "linker_set_key" : "_ZN4llvm11Instruction26setInstructionSubclassDataEt",
   "parameters" :
   [
    {
     "is_this_ptr" : true,
     "referenced_type" : "_ZTIPN4llvm11InstructionE"
    },
    {
     "referenced_type" : "_ZTIt"
    }
   ],
   "return_type" : "_ZTIv",
   "source_file" : "external/llvm/include/llvm/IR/Instruction.h"
  },
  {
   "function_name" : "llvm::Instruction::dropUnknownNonDebugMetadata",
   "linker_set_key" : "_ZN4llvm11Instruction27dropUnknownNonDebugMetadataEj",
   "parameters" :
   [
    {
     "is_this_ptr" : true,
     "referenced_type" : "_ZTIPN4llvm11InstructionE"
    },
    {
     "referenced_type" : "_ZTIj"
    }
   ],
   "return_type" : "_ZTIv",
   "source_file" : "external/llvm/include/llvm/IR/Instruction.h"
  },
  {
   "function_name" : "llvm::Instruction::dropUnknownNonDebugMetadata",
   "linker_set_key" : "_ZN4llvm11Instruction27dropUnknownNonDebugMetadataEjj",
   "parameters" :
   [
    {
     "is_this_ptr" : true,
     "referenced_type" : "_ZTIPN4llvm11InstructionE"
    },
    {
     "referenced_type" : "_ZTIj"
    },
    {
     "referenced_type" : "_ZTIj"
    }
   ],
   "return_type" : "_ZTIv",
   "source_file" : "external/llvm/include/llvm/IR/Instruction.h"
  },
  {
   "function_name" : "llvm::Instruction::dropUnknownNonDebugMetadata",
   "linker_set_key" : "_ZN4llvm11Instruction27dropUnknownNonDebugMetadataEv",
   "parameters" :
   [
    {
     "is_this_ptr" : true,
     "referenced_type" : "_ZTIPN4llvm11InstructionE"
    }
   ],
   "return_type" : "_ZTIv",
   "source_file" : "external/llvm/include/llvm/IR/Instruction.h"
  },
  {
   "function_name" : "llvm::Instruction::isCast",
   "linker_set_key" : "_ZN4llvm11Instruction6isCastEj",
   "parameters" :
   [
    {
     "referenced_type" : "_ZTIj"
    }
   ],
   "return_type" : "_ZTIb",
   "source_file" : "external/llvm/include/llvm/IR/Instruction.h"
  },
  {
   "function_name" : "llvm::Instruction::classof",
   "linker_set_key" : "_ZN4llvm11Instruction7classofEPKNS_5ValueE",
   "parameters" :
   [
    {
     "referenced_type" : "_ZTIPKN4llvm5ValueE"
    }
   ],
   "return_type" : "_ZTIb",
   "source_file" : "external/llvm/include/llvm/IR/Instruction.h"
  },
  {
   "function_name" : "llvm::Instruction::isShift",
   "linker_set_key" : "_ZN4llvm11Instruction7isShiftEj",
   "parameters" :
   [
    {
     "referenced_type" : "_ZTIj"
    }
   ],
   "return_type" : "_ZTIb",
   "source_file" : "external/llvm/include/llvm/IR/Instruction.h"
  },
  {
   "function_name" : "llvm::Instruction::isShift",
   "linker_set_key" : "_ZN4llvm11Instruction7isShiftEv",
   "parameters" :
   [
    {
     "is_this_ptr" : true,
     "referenced_type" : "_ZTIPN4llvm11InstructionE"
    }
   ],
   "return_type" : "_ZTIb",
   "source_file" : "external/llvm/include/llvm/IR/Instruction.h"
  },
  {
   "function_name" : "llvm::Instruction::getParent",
   "linker_set_key" : "_ZN4llvm11Instruction9getParentEv",
   "parameters" :
   [
    {
     "is_this_ptr" : true,
     "referenced_type" : "_ZTIPN4llvm11InstructionE"
    }
   ],
   "return_type" : "_ZTIPN4llvm10BasicBlockE",
   "source_file" : "external/llvm/include/llvm/IR/Instruction.h"
  },
  {
   "function_name" : "llvm::Instruction::user_back",
   "linker_set_key" : "_ZN4llvm11Instruction9user_backEv",
   "parameters" :
   [
    {
     "is_this_ptr" : true,
     "referenced_type" : "_ZTIPN4llvm11InstructionE"
    }
   ],
   "return_type" : "_ZTIPN4llvm11InstructionE",
   "source_file" : "external/llvm/include/llvm/IR/Instruction.h"
  },
  {
   "function_name" : "llvm::IntegerType::classof",
   "linker_set_key" : "_ZN4llvm11IntegerType7classofEPKNS_4TypeE",
   "parameters" :
   [
    {
     "referenced_type" : "_ZTIPKN4llvm4TypeE"
    }
   ],
   "return_type" : "_ZTIb",
   "source_file" : "external/llvm/include/llvm/IR/DerivedTypes.h"
  },
  {
   "access" : "protected",
   "function_name" : "llvm::IntegerType::IntegerType",
   "linker_set_key" : "_ZN4llvm11IntegerTypeC1ERNS_11LLVMContextEj",
   "parameters" :
   [
    {
     "is_this_ptr" : true,
     "referenced_type" : "_ZTIPN4llvm11IntegerTypeE"
    },
    {
     "referenced_type" : "_ZTIRN4llvm11LLVMContextE"
    },
    {
     "referenced_type" : "_ZTIj"
    }
   ],
   "return_type" : "_ZTIv",
   "source_file" : "external/llvm/include/llvm/IR/DerivedTypes.h"
  },
  {
   "access" : "protected",
   "function_name" : "llvm::IntegerType::IntegerType",
   "linker_set_key" : "_ZN4llvm11IntegerTypeC2ERNS_11LLVMContextEj",
   "parameters" :
   [
    {
     "is_this_ptr" : true,
     "referenced_type" : "_ZTIPN4llvm11IntegerTypeE"
    },
    {
     "referenced_type" : "_ZTIRN4llvm11LLVMContextE"
    },
    {
     "referenced_type" : "_ZTIj"
    }
   ],
   "return_type" : "_ZTIv",
   "source_file" : "external/llvm/include/llvm/IR/DerivedTypes.h"
  },
  {
   "access" : "private",
   "function_name" : "llvm::NamedMDNode::op_iterator_impl<const llvm::MDNode *, llvm::MDNode>::op_iterator_impl",
   "linker_set_key" : "_ZN4llvm11NamedMDNode16op_iterator_implIPKNS_6MDNodeES2_EC1EPKS0_j",
   "parameters" :
   [
    {
     "is_this_ptr" : true,
     "referenced_type" : "_ZTIPN4llvm11NamedMDNode16op_iterator_implIPKNS_6MDNodeES2_EE"
    },
    {
     "referenced_type" : "_ZTIPKN4llvm11NamedMDNodeE"
    },
    {
     "referenced_type" : "_ZTIj"
    }
   ],
   "return_type" : "_ZTIv",
   "source_file" : "external/llvm/include/llvm/IR/Metadata.h"
  },
  {
   "access" : "private",
   "function_name" : "llvm::NamedMDNode::op_iterator_impl<const llvm::MDNode *, llvm::MDNode>::op_iterator_impl",
   "linker_set_key" : "_ZN4llvm11NamedMDNode16op_iterator_implIPKNS_6MDNodeES2_EC2EPKS0_j",
   "parameters" :
   [
    {
     "is_this_ptr" : true,
     "referenced_type" : "_ZTIPN4llvm11NamedMDNode16op_iterator_implIPKNS_6MDNodeES2_EE"
    },
    {
     "referenced_type" : "_ZTIPKN4llvm11NamedMDNodeE"
    },
    {
     "referenced_type" : "_ZTIj"
    }
   ],
   "return_type" : "_ZTIv",
   "source_file" : "external/llvm/include/llvm/IR/Metadata.h"
  },
  {
   "access" : "private",
   "function_name" : "llvm::NamedMDNode::op_iterator_impl<llvm::MDNode *, llvm::MDNode>::op_iterator_impl",
   "linker_set_key" : "_ZN4llvm11NamedMDNode16op_iterator_implIPNS_6MDNodeES2_EC1EPKS0_j",
   "parameters" :
   [
    {
     "is_this_ptr" : true,
     "referenced_type" : "_ZTIPN4llvm11NamedMDNode16op_iterator_implIPNS_6MDNodeES2_EE"
    },
    {
     "referenced_type" : "_ZTIPKN4llvm11NamedMDNodeE"
    },
    {
     "referenced_type" : "_ZTIj"
    }
   ],
   "return_type" : "_ZTIv",
   "source_file" : "external/llvm/include/llvm/IR/Metadata.h"
  },
  {
   "access" : "private",
   "function_name" : "llvm::NamedMDNode::op_iterator_impl<llvm::MDNode *, llvm::MDNode>::op_iterator_impl",
   "linker_set_key" : "_ZN4llvm11NamedMDNode16op_iterator_implIPNS_6MDNodeES2_EC2EPKS0_j",
   "parameters" :
   [
    {
     "is_this_ptr" : true,
     "referenced_type" : "_ZTIPN4llvm11NamedMDNode16op_iterator_implIPNS_6MDNodeES2_EE"
    },
    {
     "referenced_type" : "_ZTIPKN4llvm11NamedMDNodeE"
    },
    {
     "referenced_type" : "_ZTIj"
    }
   ],
   "return_type" : "_ZTIv",
   "source_file" : "external/llvm/include/llvm/IR/Metadata.h"
  },
  {
   "function_name" : "llvm::NamedMDNode::op_end",
   "linker_set_key" : "_ZN4llvm11NamedMDNode6op_endEv",
   "parameters" :
   [
    {
     "is_this_ptr" : true,
     "referenced_type" : "_ZTIPN4llvm11NamedMDNodeE"
    }
   ],
   "return_type" : "_ZTIN4llvm11NamedMDNode16op_iterator_implIPNS_6MDNodeES2_EE",
   "source_file" : "external/llvm/include/llvm/IR/Metadata.h"
  },
  {
   "function_name" : "llvm::NamedMDNode::op_begin",
   "linker_set_key" : "_ZN4llvm11NamedMDNode8op_beginEv",
   "parameters" :
   [
    {
     "is_this_ptr" : true,
     "referenced_type" : "_ZTIPN4llvm11NamedMDNodeE"
    }
   ],
   "return_type" : "_ZTIN4llvm11NamedMDNode16op_iterator_implIPNS_6MDNodeES2_EE",
   "source_file" : "external/llvm/include/llvm/IR/Metadata.h"
  },
  {
   "function_name" : "llvm::NamedMDNode::operands",
   "linker_set_key" : "_ZN4llvm11NamedMDNode8operandsEv",
   "parameters" :
   [
    {
     "is_this_ptr" : true,
     "referenced_type" : "_ZTIPN4llvm11NamedMDNodeE"
    }
   ],
   "return_type" : "_ZTIN4llvm14iterator_rangeINS_11NamedMDNode16op_iterator_implIPNS_6MDNodeES3_EEEE",
   "source_file" : "external/llvm/include/llvm/IR/Metadata.h"
  },
  {
   "function_name" : "llvm::NamedMDNode::getParent",
   "linker_set_key" : "_ZN4llvm11NamedMDNode9getParentEv",
   "parameters" :
   [
    {
     "is_this_ptr" : true,
     "referenced_type" : "_ZTIPN4llvm11NamedMDNodeE"
    }
   ],
   "return_type" : "_ZTIPN4llvm6ModuleE",
   "source_file" : "external/llvm/include/llvm/IR/Metadata.h"
  },
  {
   "access" : "private",
   "function_name" : "llvm::NamedMDNode::setParent",
   "linker_set_key" : "_ZN4llvm11NamedMDNode9setParentEPNS_6ModuleE",
   "parameters" :
   [
    {
     "is_this_ptr" : true,
     "referenced_type" : "_ZTIPN4llvm11NamedMDNodeE"
    },
    {
     "referenced_type" : "_ZTIPN4llvm6ModuleE"
    }
   ],
   "return_type" : "_ZTIv",
   "source_file" : "external/llvm/include/llvm/IR/Metadata.h"
  },
  {
   "function_name" : "llvm::PointerType::classof",
   "linker_set_key" : "_ZN4llvm11PointerType7classofEPKNS_4TypeE",
   "parameters" :
   [
    {
     "referenced_type" : "_ZTIPKN4llvm4TypeE"
    }
   ],
   "return_type" : "_ZTIb",
   "source_file" : "external/llvm/include/llvm/IR/DerivedTypes.h"
  },
  {
   "function_name" : "llvm::PointerType::getUnqual",
   "linker_set_key" : "_ZN4llvm11PointerType9getUnqualEPNS_4TypeE",
   "parameters" :
   [
    {
     "referenced_type" : "_ZTIPN4llvm4TypeE"
    }
   ],
   "return_type" : "_ZTIPN4llvm11PointerTypeE",
   "source_file" : "external/llvm/include/llvm/IR/DerivedTypes.h"
  },
  {
   "function_name" : "llvm::SmallPtrSet<llvm::cl::SubCommand *, 4>::SmallPtrSet",
   "linker_set_key" : "_ZN4llvm11SmallPtrSetIPNS_2cl10SubCommandELj4EEC1Ev",
   "parameters" :
   [
    {
     "is_this_ptr" : true,
     "referenced_type" : "_ZTIPN4llvm11SmallPtrSetIPNS_2cl10SubCommandELj4EEE"
    }
   ],
   "return_type" : "_ZTIv",
   "source_file" : "external/llvm/include/llvm/ADT/SmallPtrSet.h"
  },
  {
   "function_name" : "llvm::SmallPtrSet<llvm::cl::SubCommand *, 4>::SmallPtrSet",
   "linker_set_key" : "_ZN4llvm11SmallPtrSetIPNS_2cl10SubCommandELj4EEC2Ev",
   "parameters" :
   [
    {
     "is_this_ptr" : true,
     "referenced_type" : "_ZTIPN4llvm11SmallPtrSetIPNS_2cl10SubCommandELj4EEE"
    }
   ],
   "return_type" : "_ZTIv",
   "source_file" : "external/llvm/include/llvm/ADT/SmallPtrSet.h"
  },
  {
   "function_name" : "llvm::SmallPtrSet<llvm::cl::SubCommand *, 4>::operator=",
   "linker_set_key" : "_ZN4llvm11SmallPtrSetIPNS_2cl10SubCommandELj4EEaSERKS4_",
   "parameters" :
   [
    {
     "is_this_ptr" : true,
     "referenced_type" : "_ZTIPN4llvm11SmallPtrSetIPNS_2cl10SubCommandELj4EEE"
    },
    {
     "referenced_type" : "_ZTIRKN4llvm11SmallPtrSetIPNS_2cl10SubCommandELj4EEE"
    }
   ],
   "return_type" : "_ZTIRN4llvm11SmallPtrSetIPNS_2cl10SubCommandELj4EEE",
   "source_file" : "external/llvm/include/llvm/ADT/SmallPtrSet.h"
  },
  {
   "function_name" : "llvm::SmallVector<llvm::LayoutAlignElem, 16>::SmallVector",
   "linker_set_key" : "_ZN4llvm11SmallVectorINS_15LayoutAlignElemELj16EEC1Ev",
   "parameters" :
   [
    {
     "is_this_ptr" : true,
     "referenced_type" : "_ZTIPN4llvm11SmallVectorINS_15LayoutAlignElemELj16EEE"
    }
   ],
   "return_type" : "_ZTIv",
   "source_file" : "external/llvm/include/llvm/ADT/SmallVector.h"
  },
  {
   "function_name" : "llvm::SmallVector<llvm::LayoutAlignElem, 16>::SmallVector",
   "linker_set_key" : "_ZN4llvm11SmallVectorINS_15LayoutAlignElemELj16EEC2Ev",
   "parameters" :
   [
    {
     "is_this_ptr" : true,
     "referenced_type" : "_ZTIPN4llvm11SmallVectorINS_15LayoutAlignElemELj16EEE"
    }
   ],
   "return_type" : "_ZTIv",
   "source_file" : "external/llvm/include/llvm/ADT/SmallVector.h"
  },
  {
   "function_name" : "llvm::SmallVector<llvm::LayoutAlignElem, 16>::operator=",
   "linker_set_key" : "_ZN4llvm11SmallVectorINS_15LayoutAlignElemELj16EEaSERKS2_",
   "parameters" :
   [
    {
     "is_this_ptr" : true,
     "referenced_type" : "_ZTIPN4llvm11SmallVectorINS_15LayoutAlignElemELj16EEE"
    },
    {
     "referenced_type" : "_ZTIRKN4llvm11SmallVectorINS_15LayoutAlignElemELj16EEE"
    }
   ],
   "return_type" : "_ZTIRKN4llvm11SmallVectorINS_15LayoutAlignElemELj16EEE",
   "source_file" : "external/llvm/include/llvm/ADT/SmallVector.h"
  },
  {
   "function_name" : "llvm::SmallVector<llvm::PointerAlignElem, 8>::SmallVector",
   "linker_set_key" : "_ZN4llvm11SmallVectorINS_16PointerAlignElemELj8EEC1Ev",
   "parameters" :
   [
    {
     "is_this_ptr" : true,
     "referenced_type" : "_ZTIPN4llvm11SmallVectorINS_16PointerAlignElemELj8EEE"
    }
   ],
   "return_type" : "_ZTIv",
   "source_file" : "external/llvm/include/llvm/ADT/SmallVector.h"
  },
  {
   "function_name" : "llvm::SmallVector<llvm::PointerAlignElem, 8>::SmallVector",
   "linker_set_key" : "_ZN4llvm11SmallVectorINS_16PointerAlignElemELj8EEC2Ev",
   "parameters" :
   [
    {
     "is_this_ptr" : true,
     "referenced_type" : "_ZTIPN4llvm11SmallVectorINS_16PointerAlignElemELj8EEE"
    }
   ],
   "return_type" : "_ZTIv",
   "source_file" : "external/llvm/include/llvm/ADT/SmallVector.h"
  },
  {
   "function_name" : "llvm::SmallVector<llvm::PointerAlignElem, 8>::operator=",
   "linker_set_key" : "_ZN4llvm11SmallVectorINS_16PointerAlignElemELj8EEaSERKS2_",
   "parameters" :
   [
    {
     "is_this_ptr" : true,
     "referenced_type" : "_ZTIPN4llvm11SmallVectorINS_16PointerAlignElemELj8EEE"
    },
    {
     "referenced_type" : "_ZTIRKN4llvm11SmallVectorINS_16PointerAlignElemELj8EEE"
    }
   ],
   "return_type" : "_ZTIRKN4llvm11SmallVectorINS_16PointerAlignElemELj8EEE",
   "source_file" : "external/llvm/include/llvm/ADT/SmallVector.h"
  },
  {
   "function_name" : "llvm::SmallVector<const void *, 0>::SmallVector",
   "linker_set_key" : "_ZN4llvm11SmallVectorIPKvLj0EEC1Ev",
   "parameters" :
   [
    {
     "is_this_ptr" : true,
     "referenced_type" : "_ZTIPN4llvm11SmallVectorIPKvLj0EEE"
    }
   ],
   "return_type" : "_ZTIv",
   "source_file" : "external/llvm/include/llvm/ADT/SmallVector.h"
  },
  {
   "function_name" : "llvm::SmallVector<const void *, 0>::SmallVector",
   "linker_set_key" : "_ZN4llvm11SmallVectorIPKvLj0EEC2Ev",
   "parameters" :
   [
    {
     "is_this_ptr" : true,
     "referenced_type" : "_ZTIPN4llvm11SmallVectorIPKvLj0EEE"
    }
   ],
   "return_type" : "_ZTIv",
   "source_file" : "external/llvm/include/llvm/ADT/SmallVector.h"
  },
  {
   "function_name" : "llvm::SmallVector<const void *, 2>::SmallVector",
   "linker_set_key" : "_ZN4llvm11SmallVectorIPKvLj2EEC1Ev",
   "parameters" :
   [
    {
     "is_this_ptr" : true,
     "referenced_type" : "_ZTIPN4llvm11SmallVectorIPKvLj2EEE"
    }
   ],
   "return_type" : "_ZTIv",
   "source_file" : "external/llvm/include/llvm/ADT/SmallVector.h"
  },
  {
   "function_name" : "llvm::SmallVector<const void *, 2>::SmallVector",
   "linker_set_key" : "_ZN4llvm11SmallVectorIPKvLj2EEC2Ev",
   "parameters" :
   [
    {
     "is_this_ptr" : true,
     "referenced_type" : "_ZTIPN4llvm11SmallVectorIPKvLj2EEE"
    }
   ],
   "return_type" : "_ZTIv",
   "source_file" : "external/llvm/include/llvm/ADT/SmallVector.h"
  },
  {
   "function_name" : "llvm::SmallVector<const void *, 8>::SmallVector",
   "linker_set_key" : "_ZN4llvm11SmallVectorIPKvLj8EEC1Ev",
   "parameters" :
   [
    {
     "is_this_ptr" : true,
     "referenced_type" : "_ZTIPN4llvm11SmallVectorIPKvLj8EEE"
    }
   ],
   "return_type" : "_ZTIv",
   "source_file" : "external/llvm/include/llvm/ADT/SmallVector.h"
  },
  {
   "function_name" : "llvm::SmallVector<const void *, 8>::SmallVector",
   "linker_set_key" : "_ZN4llvm11SmallVectorIPKvLj8EEC2Ev",
   "parameters" :
   [
    {
     "is_this_ptr" : true,
     "referenced_type" : "_ZTIPN4llvm11SmallVectorIPKvLj8EEE"
    }
   ],
   "return_type" : "_ZTIv",
   "source_file" : "external/llvm/include/llvm/ADT/SmallVector.h"
  },
  {
   "function_name" : "llvm::SmallVector<llvm::cl::Option *, 4>::SmallVector",
   "linker_set_key" : "_ZN4llvm11SmallVectorIPNS_2cl6OptionELj4EEC1Ev",
   "parameters" :
   [
    {
     "is_this_ptr" : true,
     "referenced_type" : "_ZTIPN4llvm11SmallVectorIPNS_2cl6OptionELj4EEE"
    }
   ],
   "return_type" : "_ZTIv",
   "source_file" : "external/llvm/include/llvm/ADT/SmallVector.h"
  },
  {
   "function_name" : "llvm::SmallVector<llvm::cl::Option *, 4>::SmallVector",
   "linker_set_key" : "_ZN4llvm11SmallVectorIPNS_2cl6OptionELj4EEC2Ev",
   "parameters" :
   [
    {
     "is_this_ptr" : true,
     "referenced_type" : "_ZTIPN4llvm11SmallVectorIPNS_2cl6OptionELj4EEE"
    }
   ],
   "return_type" : "_ZTIv",
   "source_file" : "external/llvm/include/llvm/ADT/SmallVector.h"
  },
  {
   "function_name" : "llvm::SmallVector<llvm::Metadata *, 4>::SmallVector",
   "linker_set_key" : "_ZN4llvm11SmallVectorIPNS_8MetadataELj4EEC1IPKNS_9MDOperandEEET_S8_",
   "parameters" :
   [
    {
     "is_this_ptr" : true,
     "referenced_type" : "_ZTIPN4llvm11SmallVectorIPNS_8MetadataELj4EEE"
    },
    {
     "referenced_type" : "_ZTIPKN4llvm9MDOperandE"
    },
    {
     "referenced_type" : "_ZTIPKN4llvm9MDOperandE"
    }
   ],
   "return_type" : "_ZTIv",
   "source_file" : "external/llvm/include/llvm/ADT/SmallVector.h",
   "template_args" : [ "_ZTIPKN4llvm9MDOperandE" ]
  },
  {
   "function_name" : "llvm::SmallVector<llvm::Metadata *, 4>::SmallVector",
   "linker_set_key" : "_ZN4llvm11SmallVectorIPNS_8MetadataELj4EEC2IPKNS_9MDOperandEEET_S8_",
   "parameters" :
   [
    {
     "is_this_ptr" : true,
     "referenced_type" : "_ZTIPN4llvm11SmallVectorIPNS_8MetadataELj4EEE"
    },
    {
     "referenced_type" : "_ZTIPKN4llvm9MDOperandE"
    },
    {
     "referenced_type" : "_ZTIPKN4llvm9MDOperandE"
    }
   ],
   "return_type" : "_ZTIv",
   "source_file" : "external/llvm/include/llvm/ADT/SmallVector.h",
   "template_args" : [ "_ZTIPKN4llvm9MDOperandE" ]
  },
  {
   "function_name" : "llvm::SmallVector<unsigned char, 8>::SmallVector",
   "linker_set_key" : "_ZN4llvm11SmallVectorIhLj8EEC1Ev",
   "parameters" :
   [
    {
     "is_this_ptr" : true,
     "referenced_type" : "_ZTIPN4llvm11SmallVectorIhLj8EEE"
    }
   ],
   "return_type" : "_ZTIv",
   "source_file" : "external/llvm/include/llvm/ADT/SmallVector.h"
  },
  {
   "function_name" : "llvm::SmallVector<unsigned char, 8>::SmallVector",
   "linker_set_key" : "_ZN4llvm11SmallVectorIhLj8EEC2Ev",
   "parameters" :
   [
    {
     "is_this_ptr" : true,
     "referenced_type" : "_ZTIPN4llvm11SmallVectorIhLj8EEE"
    }
   ],
   "return_type" : "_ZTIv",
   "source_file" : "external/llvm/include/llvm/ADT/SmallVector.h"
  },
  {
   "function_name" : "llvm::SmallVector<unsigned char, 8>::operator=",
   "linker_set_key" : "_ZN4llvm11SmallVectorIhLj8EEaSERKS1_",
   "parameters" :
   [
    {
     "is_this_ptr" : true,
     "referenced_type" : "_ZTIPN4llvm11SmallVectorIhLj8EEE"
    },
    {
     "referenced_type" : "_ZTIRKN4llvm11SmallVectorIhLj8EEE"
    }
   ],
   "return_type" : "_ZTIRKN4llvm11SmallVectorIhLj8EEE",
   "source_file" : "external/llvm/include/llvm/ADT/SmallVector.h"
  },
  {
   "function_name" : "llvm::SmallVector<unsigned int, 32>::SmallVector",
   "linker_set_key" : "_ZN4llvm11SmallVectorIjLj32EEC1ERKS1_",
   "parameters" :
   [
    {
     "is_this_ptr" : true,
     "referenced_type" : "_ZTIPN4llvm11SmallVectorIjLj32EEE"
    },
    {
     "referenced_type" : "_ZTIRKN4llvm11SmallVectorIjLj32EEE"
    }
   ],
   "return_type" : "_ZTIv",
   "source_file" : "external/llvm/include/llvm/ADT/SmallVector.h"
  },
  {
   "function_name" : "llvm::SmallVector<unsigned int, 32>::SmallVector",
   "linker_set_key" : "_ZN4llvm11SmallVectorIjLj32EEC1Ev",
   "parameters" :
   [
    {
     "is_this_ptr" : true,
     "referenced_type" : "_ZTIPN4llvm11SmallVectorIjLj32EEE"
    }
   ],
   "return_type" : "_ZTIv",
   "source_file" : "external/llvm/include/llvm/ADT/SmallVector.h"
  },
  {
   "function_name" : "llvm::SmallVector<unsigned int, 32>::SmallVector",
   "linker_set_key" : "_ZN4llvm11SmallVectorIjLj32EEC1IPKjEET_S5_",
   "parameters" :
   [
    {
     "is_this_ptr" : true,
     "referenced_type" : "_ZTIPN4llvm11SmallVectorIjLj32EEE"
    },
    {
     "referenced_type" : "_ZTIPKj"
    },
    {
     "referenced_type" : "_ZTIPKj"
    }
   ],
   "return_type" : "_ZTIv",
   "source_file" : "external/llvm/include/llvm/ADT/SmallVector.h",
   "template_args" : [ "_ZTIPKj" ]
  },
  {
   "function_name" : "llvm::SmallVector<unsigned int, 32>::SmallVector",
   "linker_set_key" : "_ZN4llvm11SmallVectorIjLj32EEC2ERKS1_",
   "parameters" :
   [
    {
     "is_this_ptr" : true,
     "referenced_type" : "_ZTIPN4llvm11SmallVectorIjLj32EEE"
    },
    {
     "referenced_type" : "_ZTIRKN4llvm11SmallVectorIjLj32EEE"
    }
   ],
   "return_type" : "_ZTIv",
   "source_file" : "external/llvm/include/llvm/ADT/SmallVector.h"
  },
  {
   "function_name" : "llvm::SmallVector<unsigned int, 32>::SmallVector",
   "linker_set_key" : "_ZN4llvm11SmallVectorIjLj32EEC2Ev",
   "parameters" :
   [
    {
     "is_this_ptr" : true,
     "referenced_type" : "_ZTIPN4llvm11SmallVectorIjLj32EEE"
    }
   ],
   "return_type" : "_ZTIv",
   "source_file" : "external/llvm/include/llvm/ADT/SmallVector.h"
  },
  {
   "function_name" : "llvm::SmallVector<unsigned int, 32>::SmallVector",
   "linker_set_key" : "_ZN4llvm11SmallVectorIjLj32EEC2IPKjEET_S5_",
   "parameters" :
   [
    {
     "is_this_ptr" : true,
     "referenced_type" : "_ZTIPN4llvm11SmallVectorIjLj32EEE"
    },
    {
     "referenced_type" : "_ZTIPKj"
    },
    {
     "referenced_type" : "_ZTIPKj"
    }
   ],
   "return_type" : "_ZTIv",
   "source_file" : "external/llvm/include/llvm/ADT/SmallVector.h",
   "template_args" : [ "_ZTIPKj" ]
  },
  {
   "function_name" : "llvm::isa_impl_cl<llvm::ConstantInt, const llvm::Value *>::doit",
   "linker_set_key" : "_ZN4llvm11isa_impl_clINS_11ConstantIntEPKNS_5ValueEE4doitES4_",
   "parameters" :
   [
    {
     "referenced_type" : "_ZTIPKN4llvm5ValueE"
    }
   ],
   "return_type" : "_ZTIb",
   "source_file" : "external/llvm/include/llvm/Support/Casting.h"
  },
  {
   "function_name" : "llvm::isa_impl_cl<llvm::GlobalAlias, const llvm::Value>::doit",
   "linker_set_key" : "_ZN4llvm11isa_impl_clINS_11GlobalAliasEKNS_5ValueEE4doitERS3_",
   "parameters" :
   [
    {
     "referenced_type" : "_ZTIRKN4llvm5ValueE"
    }
   ],
   "return_type" : "_ZTIb",
   "source_file" : "external/llvm/include/llvm/Support/Casting.h"
  },
  {
   "function_name" : "llvm::isa_impl_cl<llvm::GlobalAlias, const llvm::GlobalValue *>::doit",
   "linker_set_key" : "_ZN4llvm11isa_impl_clINS_11GlobalAliasEPKNS_11GlobalValueEE4doitES4_",
   "parameters" :
   [
    {
     "referenced_type" : "_ZTIPKN4llvm11GlobalValueE"
    }
   ],
   "return_type" : "_ZTIb",
   "source_file" : "external/llvm/include/llvm/Support/Casting.h"
  },
  {
   "function_name" : "llvm::isa_impl_cl<llvm::GlobalIFunc, const llvm::Value>::doit",
   "linker_set_key" : "_ZN4llvm11isa_impl_clINS_11GlobalIFuncEKNS_5ValueEE4doitERS3_",
   "parameters" :
   [
    {
     "referenced_type" : "_ZTIRKN4llvm5ValueE"
    }
   ],
   "return_type" : "_ZTIb",
   "source_file" : "external/llvm/include/llvm/Support/Casting.h"
  },
  {
   "function_name" : "llvm::isa_impl_cl<llvm::GlobalIFunc, const llvm::GlobalValue *>::doit",
   "linker_set_key" : "_ZN4llvm11isa_impl_clINS_11GlobalIFuncEPKNS_11GlobalValueEE4doitES4_",
   "parameters" :
   [
    {
     "referenced_type" : "_ZTIPKN4llvm11GlobalValueE"
    }
   ],
   "return_type" : "_ZTIb",
   "source_file" : "external/llvm/include/llvm/Support/Casting.h"
  },
  {
   "function_name" : "llvm::isa_impl_cl<llvm::Instruction, const llvm::Value *>::doit",
   "linker_set_key" : "_ZN4llvm11isa_impl_clINS_11InstructionEPKNS_5ValueEE4doitES4_",
   "parameters" :
   [
    {
     "referenced_type" : "_ZTIPKN4llvm5ValueE"
    }
   ],
   "return_type" : "_ZTIb",
   "source_file" : "external/llvm/include/llvm/Support/Casting.h"
  },
  {
   "function_name" : "llvm::isa_impl_cl<llvm::Instruction, const llvm::Operator *>::doit",
   "linker_set_key" : "_ZN4llvm11isa_impl_clINS_11InstructionEPKNS_8OperatorEE4doitES4_",
   "parameters" :
   [
    {
     "referenced_type" : "_ZTIPKN4llvm8OperatorE"
    }
   ],
   "return_type" : "_ZTIb",
   "source_file" : "external/llvm/include/llvm/Support/Casting.h"
  },
  {
   "function_name" : "llvm::isa_impl_cl<llvm::ConstantExpr, const llvm::Value *>::doit",
   "linker_set_key" : "_ZN4llvm11isa_impl_clINS_12ConstantExprEPKNS_5ValueEE4doitES4_",
   "parameters" :
   [
    {
     "referenced_type" : "_ZTIPKN4llvm5ValueE"
    }
   ],
   "return_type" : "_ZTIb",
   "source_file" : "external/llvm/include/llvm/Support/Casting.h"
  },
  {
   "function_name" : "llvm::isa_impl_cl<llvm::GlobalObject, const llvm::Value>::doit",
   "linker_set_key" : "_ZN4llvm11isa_impl_clINS_12GlobalObjectEKNS_5ValueEE4doitERS3_",
   "parameters" :
   [
    {
     "referenced_type" : "_ZTIRKN4llvm5ValueE"
    }
   ],
   "return_type" : "_ZTIb",
   "source_file" : "external/llvm/include/llvm/Support/Casting.h"
  },
  {
   "function_name" : "llvm::isa_impl_cl<llvm::GlobalObject, const llvm::GlobalValue *>::doit",
   "linker_set_key" : "_ZN4llvm11isa_impl_clINS_12GlobalObjectEPKNS_11GlobalValueEE4doitES4_",
   "parameters" :
   [
    {
     "referenced_type" : "_ZTIPKN4llvm11GlobalValueE"
    }
   ],
   "return_type" : "_ZTIb",
   "source_file" : "external/llvm/include/llvm/Support/Casting.h"
  },
  {
   "function_name" : "llvm::isa_impl_cl<llvm::GlobalObject, const llvm::Value *>::doit",
   "linker_set_key" : "_ZN4llvm11isa_impl_clINS_12GlobalObjectEPKNS_5ValueEE4doitES4_",
   "parameters" :
   [
    {
     "referenced_type" : "_ZTIPKN4llvm5ValueE"
    }
   ],
   "return_type" : "_ZTIb",
   "source_file" : "external/llvm/include/llvm/Support/Casting.h"
  },
  {
   "function_name" : "llvm::isa_impl_cl<llvm::GlobalVariable, const llvm::Value>::doit",
   "linker_set_key" : "_ZN4llvm11isa_impl_clINS_14GlobalVariableEKNS_5ValueEE4doitERS3_",
   "parameters" :
   [
    {
     "referenced_type" : "_ZTIRKN4llvm5ValueE"
    }
   ],
   "return_type" : "_ZTIb",
   "source_file" : "external/llvm/include/llvm/Support/Casting.h"
  },
  {
   "function_name" : "llvm::isa_impl_cl<llvm::GlobalVariable, const llvm::GlobalValue *>::doit",
   "linker_set_key" : "_ZN4llvm11isa_impl_clINS_14GlobalVariableEPKNS_11GlobalValueEE4doitES4_",
   "parameters" :
   [
    {
     "referenced_type" : "_ZTIPKN4llvm11GlobalValueE"
    }
   ],
   "return_type" : "_ZTIb",
   "source_file" : "external/llvm/include/llvm/Support/Casting.h"
  },
  {
   "function_name" : "llvm::isa_impl_cl<llvm::GlobalIndirectSymbol, const llvm::Value>::doit",
   "linker_set_key" : "_ZN4llvm11isa_impl_clINS_20GlobalIndirectSymbolEKNS_5ValueEE4doitERS3_",
   "parameters" :
   [
    {
     "referenced_type" : "_ZTIRKN4llvm5ValueE"
    }
   ],
   "return_type" : "_ZTIb",
   "source_file" : "external/llvm/include/llvm/Support/Casting.h"
  },
  {
   "function_name" : "llvm::isa_impl_cl<llvm::Constant, const llvm::Value *>::doit",
   "linker_set_key" : "_ZN4llvm11isa_impl_clINS_8ConstantEPKNS_5ValueEE4doitES4_",
   "parameters" :
   [
    {
     "referenced_type" : "_ZTIPKN4llvm5ValueE"
    }
   ],
   "return_type" : "_ZTIb",
   "source_file" : "external/llvm/include/llvm/Support/Casting.h"
  },
  {
   "function_name" : "llvm::isa_impl_cl<llvm::Function, const llvm::Value>::doit",
   "linker_set_key" : "_ZN4llvm11isa_impl_clINS_8FunctionEKNS_5ValueEE4doitERS3_",
   "parameters" :
   [
    {
     "referenced_type" : "_ZTIRKN4llvm5ValueE"
    }
   ],
   "return_type" : "_ZTIb",
   "source_file" : "external/llvm/include/llvm/Support/Casting.h"
  },
  {
   "function_name" : "llvm::isa_impl_cl<llvm::Function, const llvm::GlobalValue *>::doit",
   "linker_set_key" : "_ZN4llvm11isa_impl_clINS_8FunctionEPKNS_11GlobalValueEE4doitES4_",
   "parameters" :
   [
    {
     "referenced_type" : "_ZTIPKN4llvm11GlobalValueE"
    }
   ],
   "return_type" : "_ZTIb",
   "source_file" : "external/llvm/include/llvm/Support/Casting.h"
  },
  {
   "function_name" : "llvm::make_unique",
   "linker_set_key" : "_ZN4llvm11make_uniqueINS_23ReplaceableMetadataImplEJRNS_11LLVMContextEEEENSt3__19enable_ifIXntsr3std8is_arrayIT_EE5valueENS4_10unique_ptrIS6_NS4_14default_deleteIS6_EEEEE4typeEDpOT0_",
   "parameters" :
   [
    {
     "referenced_type" : "_ZTIRN4llvm11LLVMContextE"
    }
   ],
   "return_type" : "_ZTINSt3__110unique_ptrIN4llvm23ReplaceableMetadataImplENS_14default_deleteIS2_EEEE",
   "source_file" : "external/llvm/include/llvm/ADT/STLExtras.h",
   "template_args" : [ "_ZTIN4llvm23ReplaceableMetadataImplE" ]
  },
  {
   "access" : "private",
   "function_name" : "llvm::AttributeSet::AttributeSet",
   "linker_set_key" : "_ZN4llvm12AttributeSetC1EPNS_16AttributeSetImplE",
   "parameters" :
   [
    {
     "is_this_ptr" : true,
     "referenced_type" : "_ZTIPN4llvm12AttributeSetE"
    },
    {
     "referenced_type" : "_ZTIPN4llvm16AttributeSetImplE"
    }
   ],
   "return_type" : "_ZTIv",
   "source_file" : "external/llvm/include/llvm/IR/Attributes.h"
  },
  {
   "function_name" : "llvm::AttributeSet::AttributeSet",
   "linker_set_key" : "_ZN4llvm12AttributeSetC1Ev",
   "parameters" :
   [
    {
     "is_this_ptr" : true,
     "referenced_type" : "_ZTIPN4llvm12AttributeSetE"
    }
   ],
   "return_type" : "_ZTIv",
   "source_file" : "external/llvm/include/llvm/IR/Attributes.h"
  },
  {
   "access" : "private",
   "function_name" : "llvm::AttributeSet::AttributeSet",
   "linker_set_key" : "_ZN4llvm12AttributeSetC2EPNS_16AttributeSetImplE",
   "parameters" :
   [
    {
     "is_this_ptr" : true,
     "referenced_type" : "_ZTIPN4llvm12AttributeSetE"
    },
    {
     "referenced_type" : "_ZTIPN4llvm16AttributeSetImplE"
    }
   ],
   "return_type" : "_ZTIv",
   "source_file" : "external/llvm/include/llvm/IR/Attributes.h"
  },
  {
   "function_name" : "llvm::AttributeSet::AttributeSet",
   "linker_set_key" : "_ZN4llvm12AttributeSetC2Ev",
   "parameters" :
   [
    {
     "is_this_ptr" : true,
     "referenced_type" : "_ZTIPN4llvm12AttributeSetE"
    }
   ],
   "return_type" : "_ZTIv",
   "source_file" : "external/llvm/include/llvm/IR/Attributes.h"
  },
  {
   "function_name" : "llvm::BitsToDouble",
   "linker_set_key" : "_ZN4llvm12BitsToDoubleEy",
   "parameters" :
   [
    {
     "referenced_type" : "_ZTIy"
    }
   ],
   "return_type" : "_ZTId",
   "source_file" : "external/llvm/include/llvm/Support/MathExtras.h"
  },
  {
   "function_name" : "llvm::BlockAddress::setOperand",
   "linker_set_key" : "_ZN4llvm12BlockAddress10setOperandEjPNS_5ValueE",
   "parameters" :
   [
    {
     "is_this_ptr" : true,
     "referenced_type" : "_ZTIPN4llvm12BlockAddressE"
    },
    {
     "referenced_type" : "_ZTIj"
    },
    {
     "referenced_type" : "_ZTIPN4llvm5ValueE"
    }
   ],
   "return_type" : "_ZTIv",
   "source_file" : "external/llvm/include/llvm/IR/Constants.h"
  },
  {
   "function_name" : "llvm::BlockAddress::op_end",
   "linker_set_key" : "_ZN4llvm12BlockAddress6op_endEv",
   "parameters" :
   [
    {
     "is_this_ptr" : true,
     "referenced_type" : "_ZTIPN4llvm12BlockAddressE"
    }
   ],
   "return_type" : "_ZTIPN4llvm3UseE",
   "source_file" : "external/llvm/include/llvm/IR/Constants.h"
  },
  {
   "function_name" : "llvm::BlockAddress::classof",
   "linker_set_key" : "_ZN4llvm12BlockAddress7classofEPKNS_5ValueE",
   "parameters" :
   [
    {
     "referenced_type" : "_ZTIPKN4llvm5ValueE"
    }
   ],
   "return_type" : "_ZTIb",
   "source_file" : "external/llvm/include/llvm/IR/Constants.h"
  },
  {
   "function_name" : "llvm::BlockAddress::op_begin",
   "linker_set_key" : "_ZN4llvm12BlockAddress8op_beginEv",
   "parameters" :
   [
    {
     "is_this_ptr" : true,
     "referenced_type" : "_ZTIPN4llvm12BlockAddressE"
    }
   ],
   "return_type" : "_ZTIPN4llvm3UseE",
   "source_file" : "external/llvm/include/llvm/IR/Constants.h"
  },
  {
   "access" : "private",
   "function_name" : "llvm::BlockAddress::operator new",
   "linker_set_key" : "_ZN4llvm12BlockAddressnwEj",
   "parameters" :
   [
    {
     "referenced_type" : "_ZTIj"
    }
   ],
   "return_type" : "_ZTIPv",
   "source_file" : "external/llvm/include/llvm/IR/Constants.h"
  },
  {
   "access" : "private",
   "function_name" : "llvm::ConstantData::handleOperandChangeImpl",
   "linker_set_key" : "_ZN4llvm12ConstantData23handleOperandChangeImplEPNS_5ValueES2_",
   "parameters" :
   [
    {
     "is_this_ptr" : true,
     "referenced_type" : "_ZTIPN4llvm12ConstantDataE"
    },
    {
     "referenced_type" : "_ZTIPN4llvm5ValueE"
    },
    {
     "referenced_type" : "_ZTIPN4llvm5ValueE"
    }
   ],
   "return_type" : "_ZTIPN4llvm5ValueE",
   "source_file" : "external/llvm/include/llvm/IR/Constants.h"
  },
  {
   "function_name" : "llvm::ConstantData::classof",
   "linker_set_key" : "_ZN4llvm12ConstantData7classofEPKNS_5ValueE",
   "parameters" :
   [
    {
     "referenced_type" : "_ZTIPKN4llvm5ValueE"
    }
   ],
   "return_type" : "_ZTIb",
   "source_file" : "external/llvm/include/llvm/IR/Constants.h"
  },
  {
   "access" : "protected",
   "function_name" : "llvm::ConstantData::ConstantData",
   "linker_set_key" : "_ZN4llvm12ConstantDataC1EPNS_4TypeENS_5Value7ValueTyE",
   "parameters" :
   [
    {
     "is_this_ptr" : true,
     "referenced_type" : "_ZTIPN4llvm12ConstantDataE"
    },
    {
     "referenced_type" : "_ZTIPN4llvm4TypeE"
    },
    {
     "referenced_type" : "_ZTIN4llvm5Value7ValueTyE"
    }
   ],
   "return_type" : "_ZTIv",
   "source_file" : "external/llvm/include/llvm/IR/Constants.h"
  },
  {
   "access" : "protected",
   "function_name" : "llvm::ConstantData::ConstantData",
   "linker_set_key" : "_ZN4llvm12ConstantDataC2EPNS_4TypeENS_5Value7ValueTyE",
   "parameters" :
   [
    {
     "is_this_ptr" : true,
     "referenced_type" : "_ZTIPN4llvm12ConstantDataE"
    },
    {
     "referenced_type" : "_ZTIPN4llvm4TypeE"
    },
    {
     "referenced_type" : "_ZTIN4llvm5Value7ValueTyE"
    }
   ],
   "return_type" : "_ZTIv",
   "source_file" : "external/llvm/include/llvm/IR/Constants.h"
  },
  {
   "access" : "protected",
   "function_name" : "llvm::ConstantData::operator new",
   "linker_set_key" : "_ZN4llvm12ConstantDatanwEj",
   "parameters" :
   [
    {
     "referenced_type" : "_ZTIj"
    }
   ],
   "return_type" : "_ZTIPv",
   "source_file" : "external/llvm/include/llvm/IR/Constants.h"
  },
  {
   "function_name" : "llvm::ConstantExpr::setOperand",
   "linker_set_key" : "_ZN4llvm12ConstantExpr10setOperandEjPNS_8ConstantE",
   "parameters" :
   [
    {
     "is_this_ptr" : true,
     "referenced_type" : "_ZTIPN4llvm12ConstantExprE"
    },
    {
     "referenced_type" : "_ZTIj"
    },
    {
     "referenced_type" : "_ZTIPN4llvm8ConstantE"
    }
   ],
   "return_type" : "_ZTIv",
   "source_file" : "external/llvm/include/llvm/IR/Constants.h"
  },
  {
   "function_name" : "llvm::ConstantExpr::getExactAShr",
   "linker_set_key" : "_ZN4llvm12ConstantExpr12getExactAShrEPNS_8ConstantES2_",
   "parameters" :
   [
    {
     "referenced_type" : "_ZTIPN4llvm8ConstantE"
    },
    {
     "referenced_type" : "_ZTIPN4llvm8ConstantE"
    }
   ],
   "return_type" : "_ZTIPN4llvm8ConstantE",
   "source_file" : "external/llvm/include/llvm/IR/Constants.h"
  },
  {
   "function_name" : "llvm::ConstantExpr::getExactLShr",
   "linker_set_key" : "_ZN4llvm12ConstantExpr12getExactLShrEPNS_8ConstantES2_",
   "parameters" :
   [
    {
     "referenced_type" : "_ZTIPN4llvm8ConstantE"
    },
    {
     "referenced_type" : "_ZTIPN4llvm8ConstantE"
    }
   ],
   "return_type" : "_ZTIPN4llvm8ConstantE",
   "source_file" : "external/llvm/include/llvm/IR/Constants.h"
  },
  {
   "function_name" : "llvm::ConstantExpr::getExactSDiv",
   "linker_set_key" : "_ZN4llvm12ConstantExpr12getExactSDivEPNS_8ConstantES2_",
   "parameters" :
   [
    {
     "referenced_type" : "_ZTIPN4llvm8ConstantE"
    },
    {
     "referenced_type" : "_ZTIPN4llvm8ConstantE"
    }
   ],
   "return_type" : "_ZTIPN4llvm8ConstantE",
   "source_file" : "external/llvm/include/llvm/IR/Constants.h"
  },
  {
   "function_name" : "llvm::ConstantExpr::getExactUDiv",
   "linker_set_key" : "_ZN4llvm12ConstantExpr12getExactUDivEPNS_8ConstantES2_",
   "parameters" :
   [
    {
     "referenced_type" : "_ZTIPN4llvm8ConstantE"
    },
    {
     "referenced_type" : "_ZTIPN4llvm8ConstantE"
    }
   ],
   "return_type" : "_ZTIPN4llvm8ConstantE",
   "source_file" : "external/llvm/include/llvm/IR/Constants.h"
  },
  {
   "function_name" : "llvm::ConstantExpr::getGetElementPtr",
   "linker_set_key" : "_ZN4llvm12ConstantExpr16getGetElementPtrEPNS_4TypeEPNS_8ConstantENS_8ArrayRefIS4_EEbS2_",
   "parameters" :
   [
    {
     "referenced_type" : "_ZTIPN4llvm4TypeE"
    },
    {
     "referenced_type" : "_ZTIPN4llvm8ConstantE"
    },
    {
     "referenced_type" : "_ZTIN4llvm8ArrayRefIPNS_8ConstantEEE"
    },
    {
     "default_arg" : true,
     "referenced_type" : "_ZTIb"
    },
    {
     "default_arg" : true,
     "referenced_type" : "_ZTIPN4llvm4TypeE"
    }
   ],
   "return_type" : "_ZTIPN4llvm8ConstantE",
   "source_file" : "external/llvm/include/llvm/IR/Constants.h"
  },
  {
   "function_name" : "llvm::ConstantExpr::getGetElementPtr",
   "linker_set_key" : "_ZN4llvm12ConstantExpr16getGetElementPtrEPNS_4TypeEPNS_8ConstantES4_bS2_",
   "parameters" :
   [
    {
     "referenced_type" : "_ZTIPN4llvm4TypeE"
    },
    {
     "referenced_type" : "_ZTIPN4llvm8ConstantE"
    },
    {
     "referenced_type" : "_ZTIPN4llvm8ConstantE"
    },
    {
     "default_arg" : true,
     "referenced_type" : "_ZTIb"
    },
    {
     "default_arg" : true,
     "referenced_type" : "_ZTIPN4llvm4TypeE"
    }
   ],
   "return_type" : "_ZTIPN4llvm8ConstantE",
   "source_file" : "external/llvm/include/llvm/IR/Constants.h"
  },
  {
   "access" : "private",
   "function_name" : "llvm::ConstantExpr::setValueSubclassData",
   "linker_set_key" : "_ZN4llvm12ConstantExpr20setValueSubclassDataEt",
   "parameters" :
   [
    {
     "is_this_ptr" : true,
     "referenced_type" : "_ZTIPN4llvm12ConstantExprE"
    },
    {
     "referenced_type" : "_ZTIt"
    }
   ],
   "return_type" : "_ZTIv",
   "source_file" : "external/llvm/include/llvm/IR/Constants.h"
  },
  {
   "function_name" : "llvm::ConstantExpr::getInBoundsGetElementPtr",
   "linker_set_key" : "_ZN4llvm12ConstantExpr24getInBoundsGetElementPtrEPNS_4TypeEPNS_8ConstantENS_8ArrayRefIPNS_5ValueEEE",
   "parameters" :
   [
    {
     "referenced_type" : "_ZTIPN4llvm4TypeE"
    },
    {
     "referenced_type" : "_ZTIPN4llvm8ConstantE"
    },
    {
     "referenced_type" : "_ZTIN4llvm8ArrayRefIPNS_5ValueEEE"
    }
   ],
   "return_type" : "_ZTIPN4llvm8ConstantE",
   "source_file" : "external/llvm/include/llvm/IR/Constants.h"
  },
  {
   "function_name" : "llvm::ConstantExpr::getInBoundsGetElementPtr",
   "linker_set_key" : "_ZN4llvm12ConstantExpr24getInBoundsGetElementPtrEPNS_4TypeEPNS_8ConstantENS_8ArrayRefIS4_EE",
   "parameters" :
   [
    {
     "referenced_type" : "_ZTIPN4llvm4TypeE"
    },
    {
     "referenced_type" : "_ZTIPN4llvm8ConstantE"
    },
    {
     "referenced_type" : "_ZTIN4llvm8ArrayRefIPNS_8ConstantEEE"
    }
   ],
   "return_type" : "_ZTIPN4llvm8ConstantE",
   "source_file" : "external/llvm/include/llvm/IR/Constants.h"
  },
  {
   "function_name" : "llvm::ConstantExpr::getInBoundsGetElementPtr",
   "linker_set_key" : "_ZN4llvm12ConstantExpr24getInBoundsGetElementPtrEPNS_4TypeEPNS_8ConstantES4_",
   "parameters" :
   [
    {
     "referenced_type" : "_ZTIPN4llvm4TypeE"
    },
    {
     "referenced_type" : "_ZTIPN4llvm8ConstantE"
    },
    {
     "referenced_type" : "_ZTIPN4llvm8ConstantE"
    }
   ],
   "return_type" : "_ZTIPN4llvm8ConstantE",
   "source_file" : "external/llvm/include/llvm/IR/Constants.h"
  },
  {
   "function_name" : "llvm::ConstantExpr::op_end",
   "linker_set_key" : "_ZN4llvm12ConstantExpr6op_endEv",
   "parameters" :
   [
    {
     "is_this_ptr" : true,
     "referenced_type" : "_ZTIPN4llvm12ConstantExprE"
    }
   ],
   "return_type" : "_ZTIPN4llvm3UseE",
   "source_file" : "external/llvm/include/llvm/IR/Constants.h"
  },
  {
   "function_name" : "llvm::ConstantExpr::classof",
   "linker_set_key" : "_ZN4llvm12ConstantExpr7classofEPKNS_5ValueE",
   "parameters" :
   [
    {
     "referenced_type" : "_ZTIPKN4llvm5ValueE"
    }
   ],
   "return_type" : "_ZTIb",
   "source_file" : "external/llvm/include/llvm/IR/Constants.h"
  },
  {
   "function_name" : "llvm::ConstantExpr::op_begin",
   "linker_set_key" : "_ZN4llvm12ConstantExpr8op_beginEv",
   "parameters" :
   [
    {
     "is_this_ptr" : true,
     "referenced_type" : "_ZTIPN4llvm12ConstantExprE"
    }
   ],
   "return_type" : "_ZTIPN4llvm3UseE",
   "source_file" : "external/llvm/include/llvm/IR/Constants.h"
  },
  {
   "function_name" : "llvm::ConstantExpr::getNSWAdd",
   "linker_set_key" : "_ZN4llvm12ConstantExpr9getNSWAddEPNS_8ConstantES2_",
   "parameters" :
   [
    {
     "referenced_type" : "_ZTIPN4llvm8ConstantE"
    },
    {
     "referenced_type" : "_ZTIPN4llvm8ConstantE"
    }
   ],
   "return_type" : "_ZTIPN4llvm8ConstantE",
   "source_file" : "external/llvm/include/llvm/IR/Constants.h"
  },
  {
   "function_name" : "llvm::ConstantExpr::getNSWMul",
   "linker_set_key" : "_ZN4llvm12ConstantExpr9getNSWMulEPNS_8ConstantES2_",
   "parameters" :
   [
    {
     "referenced_type" : "_ZTIPN4llvm8ConstantE"
    },
    {
     "referenced_type" : "_ZTIPN4llvm8ConstantE"
    }
   ],
   "return_type" : "_ZTIPN4llvm8ConstantE",
   "source_file" : "external/llvm/include/llvm/IR/Constants.h"
  },
  {
   "function_name" : "llvm::ConstantExpr::getNSWNeg",
   "linker_set_key" : "_ZN4llvm12ConstantExpr9getNSWNegEPNS_8ConstantE",
   "parameters" :
   [
    {
     "referenced_type" : "_ZTIPN4llvm8ConstantE"
    }
   ],
   "return_type" : "_ZTIPN4llvm8ConstantE",
   "source_file" : "external/llvm/include/llvm/IR/Constants.h"
  },
  {
   "function_name" : "llvm::ConstantExpr::getNSWShl",
   "linker_set_key" : "_ZN4llvm12ConstantExpr9getNSWShlEPNS_8ConstantES2_",
   "parameters" :
   [
    {
     "referenced_type" : "_ZTIPN4llvm8ConstantE"
    },
    {
     "referenced_type" : "_ZTIPN4llvm8ConstantE"
    }
   ],
   "return_type" : "_ZTIPN4llvm8ConstantE",
   "source_file" : "external/llvm/include/llvm/IR/Constants.h"
  },
  {
   "function_name" : "llvm::ConstantExpr::getNSWSub",
   "linker_set_key" : "_ZN4llvm12ConstantExpr9getNSWSubEPNS_8ConstantES2_",
   "parameters" :
   [
    {
     "referenced_type" : "_ZTIPN4llvm8ConstantE"
    },
    {
     "referenced_type" : "_ZTIPN4llvm8ConstantE"
    }
   ],
   "return_type" : "_ZTIPN4llvm8ConstantE",
   "source_file" : "external/llvm/include/llvm/IR/Constants.h"
  },
  {
   "function_name" : "llvm::ConstantExpr::getNUWAdd",
   "linker_set_key" : "_ZN4llvm12ConstantExpr9getNUWAddEPNS_8ConstantES2_",
   "parameters" :
   [
    {
     "referenced_type" : "_ZTIPN4llvm8ConstantE"
    },
    {
     "referenced_type" : "_ZTIPN4llvm8ConstantE"
    }
   ],
   "return_type" : "_ZTIPN4llvm8ConstantE",
   "source_file" : "external/llvm/include/llvm/IR/Constants.h"
  },
  {
   "function_name" : "llvm::ConstantExpr::getNUWMul",
   "linker_set_key" : "_ZN4llvm12ConstantExpr9getNUWMulEPNS_8ConstantES2_",
   "parameters" :
   [
    {
     "referenced_type" : "_ZTIPN4llvm8ConstantE"
    },
    {
     "referenced_type" : "_ZTIPN4llvm8ConstantE"
    }
   ],
   "return_type" : "_ZTIPN4llvm8ConstantE",
   "source_file" : "external/llvm/include/llvm/IR/Constants.h"
  },
  {
   "function_name" : "llvm::ConstantExpr::getNUWNeg",
   "linker_set_key" : "_ZN4llvm12ConstantExpr9getNUWNegEPNS_8ConstantE",
   "parameters" :
   [
    {
     "referenced_type" : "_ZTIPN4llvm8ConstantE"
    }
   ],
   "return_type" : "_ZTIPN4llvm8ConstantE",
   "source_file" : "external/llvm/include/llvm/IR/Constants.h"
  },
  {
   "function_name" : "llvm::ConstantExpr::getNUWShl",
   "linker_set_key" : "_ZN4llvm12ConstantExpr9getNUWShlEPNS_8ConstantES2_",
   "parameters" :
   [
    {
     "referenced_type" : "_ZTIPN4llvm8ConstantE"
    },
    {
     "referenced_type" : "_ZTIPN4llvm8ConstantE"
    }
   ],
   "return_type" : "_ZTIPN4llvm8ConstantE",
   "source_file" : "external/llvm/include/llvm/IR/Constants.h"
  },
  {
   "function_name" : "llvm::ConstantExpr::getNUWSub",
   "linker_set_key" : "_ZN4llvm12ConstantExpr9getNUWSubEPNS_8ConstantES2_",
   "parameters" :
   [
    {
     "referenced_type" : "_ZTIPN4llvm8ConstantE"
    },
    {
     "referenced_type" : "_ZTIPN4llvm8ConstantE"
    }
   ],
   "return_type" : "_ZTIPN4llvm8ConstantE",
   "source_file" : "external/llvm/include/llvm/IR/Constants.h"
  },
  {
   "access" : "protected",
   "function_name" : "llvm::ConstantExpr::ConstantExpr",
   "linker_set_key" : "_ZN4llvm12ConstantExprC1EPNS_4TypeEjPNS_3UseEj",
   "parameters" :
   [
    {
     "is_this_ptr" : true,
     "referenced_type" : "_ZTIPN4llvm12ConstantExprE"
    },
    {
     "referenced_type" : "_ZTIPN4llvm4TypeE"
    },
    {
     "referenced_type" : "_ZTIj"
    },
    {
     "referenced_type" : "_ZTIPN4llvm3UseE"
    },
    {
     "referenced_type" : "_ZTIj"
    }
   ],
   "return_type" : "_ZTIv",
   "source_file" : "external/llvm/include/llvm/IR/Constants.h"
  },
  {
   "access" : "protected",
   "function_name" : "llvm::ConstantExpr::ConstantExpr",
   "linker_set_key" : "_ZN4llvm12ConstantExprC2EPNS_4TypeEjPNS_3UseEj",
   "parameters" :
   [
    {
     "is_this_ptr" : true,
     "referenced_type" : "_ZTIPN4llvm12ConstantExprE"
    },
    {
     "referenced_type" : "_ZTIPN4llvm4TypeE"
    },
    {
     "referenced_type" : "_ZTIj"
    },
    {
     "referenced_type" : "_ZTIPN4llvm3UseE"
    },
    {
     "referenced_type" : "_ZTIj"
    }
   ],
   "return_type" : "_ZTIv",
   "source_file" : "external/llvm/include/llvm/IR/Constants.h"
  },
  {
   "access" : "protected",
   "function_name" : "llvm::DenseMapBase<llvm::SmallDenseMap<void *, std::__1::pair<llvm::PointerUnion<llvm::MetadataAsValue *, llvm::Metadata *>, unsigned long long>, 4, llvm::DenseMapInfo<void *>, llvm::detail::DenseMapPair<void *, std::__1::pair<llvm::PointerUnion<llvm::MetadataAsValue *, llvm::Metadata *>, unsigned long long>>>, void *, std::__1::pair<llvm::PointerUnion<llvm::MetadataAsValue *, llvm::Metadata *>, unsigned long long>, llvm::DenseMapInfo<void *>, llvm::detail::DenseMapPair<void *, std::__1::pair<llvm::PointerUnion<llvm::MetadataAsValue *, llvm::Metadata *>, unsigned long long>>>::destroyAll",
   "linker_set_key" : "_ZN4llvm12DenseMapBaseINS_13SmallDenseMapIPvNSt3__14pairINS_12PointerUnionIPNS_15MetadataAsValueEPNS_8MetadataEEEyEELj4ENS_12DenseMapInfoIS2_EENS_6detail12DenseMapPairIS2_SB_EEEES2_SB_SD_SG_E10destroyAllEv",
   "parameters" :
   [
    {
     "is_this_ptr" : true,
     "referenced_type" : "_ZTIPN4llvm12DenseMapBaseINS_13SmallDenseMapIPvNSt3__14pairINS_12PointerUnionIPNS_15MetadataAsValueEPNS_8MetadataEEEyEELj4ENS_12DenseMapInfoIS2_EENS_6detail12DenseMapPairIS2_SB_EEEES2_SB_SD_SG_EE"
    }
   ],
   "return_type" : "_ZTIv",
   "source_file" : "external/llvm/include/llvm/ADT/DenseMap.h"
  },
  {
   "access" : "private",
   "function_name" : "llvm::DenseMapBase<llvm::SmallDenseMap<void *, std::__1::pair<llvm::PointerUnion<llvm::MetadataAsValue *, llvm::Metadata *>, unsigned long long>, 4, llvm::DenseMapInfo<void *>, llvm::detail::DenseMapPair<void *, std::__1::pair<llvm::PointerUnion<llvm::MetadataAsValue *, llvm::Metadata *>, unsigned long long>>>, void *, std::__1::pair<llvm::PointerUnion<llvm::MetadataAsValue *, llvm::Metadata *>, unsigned long long>, llvm::DenseMapInfo<void *>, llvm::detail::DenseMapPair<void *, std::__1::pair<llvm::PointerUnion<llvm::MetadataAsValue *, llvm::Metadata *>, unsigned long long>>>::getBuckets",
   "linker_set_key" : "_ZN4llvm12DenseMapBaseINS_13SmallDenseMapIPvNSt3__14pairINS_12PointerUnionIPNS_15MetadataAsValueEPNS_8MetadataEEEyEELj4ENS_12DenseMapInfoIS2_EENS_6detail12DenseMapPairIS2_SB_EEEES2_SB_SD_SG_E10getBucketsEv",
   "parameters" :
   [
    {
     "is_this_ptr" : true,
     "referenced_type" : "_ZTIPN4llvm12DenseMapBaseINS_13SmallDenseMapIPvNSt3__14pairINS_12PointerUnionIPNS_15MetadataAsValueEPNS_8MetadataEEEyEELj4ENS_12DenseMapInfoIS2_EENS_6detail12DenseMapPairIS2_SB_EEEES2_SB_SD_SG_EE"
    }
   ],
   "return_type" : "_ZTIPN4llvm6detail12DenseMapPairIPvNSt3__14pairINS_12PointerUnionIPNS_15MetadataAsValueEPNS_8MetadataEEEyEEEE",
   "source_file" : "external/llvm/include/llvm/ADT/DenseMap.h"
  },
  {
   "access" : "protected",
   "function_name" : "llvm::DenseMapBase<llvm::SmallDenseMap<void *, std::__1::pair<llvm::PointerUnion<llvm::MetadataAsValue *, llvm::Metadata *>, unsigned long long>, 4, llvm::DenseMapInfo<void *>, llvm::detail::DenseMapPair<void *, std::__1::pair<llvm::PointerUnion<llvm::MetadataAsValue *, llvm::Metadata *>, unsigned long long>>>, void *, std::__1::pair<llvm::PointerUnion<llvm::MetadataAsValue *, llvm::Metadata *>, unsigned long long>, llvm::DenseMapInfo<void *>, llvm::detail::DenseMapPair<void *, std::__1::pair<llvm::PointerUnion<llvm::MetadataAsValue *, llvm::Metadata *>, unsigned long long>>>::getEmptyKey",
   "linker_set_key" : "_ZN4llvm12DenseMapBaseINS_13SmallDenseMapIPvNSt3__14pairINS_12PointerUnionIPNS_15MetadataAsValueEPNS_8MetadataEEEyEELj4ENS_12DenseMapInfoIS2_EENS_6detail12DenseMapPairIS2_SB_EEEES2_SB_SD_SG_E11getEmptyKeyEv",
   "return_type" : "_ZTIKPv",
   "source_file" : "external/llvm/include/llvm/ADT/DenseMap.h"
  },
  {
   "access" : "private",
   "function_name" : "llvm::DenseMapBase<llvm::SmallDenseMap<void *, std::__1::pair<llvm::PointerUnion<llvm::MetadataAsValue *, llvm::Metadata *>, unsigned long long>, 4, llvm::DenseMapInfo<void *>, llvm::detail::DenseMapPair<void *, std::__1::pair<llvm::PointerUnion<llvm::MetadataAsValue *, llvm::Metadata *>, unsigned long long>>>, void *, std::__1::pair<llvm::PointerUnion<llvm::MetadataAsValue *, llvm::Metadata *>, unsigned long long>, llvm::DenseMapInfo<void *>, llvm::detail::DenseMapPair<void *, std::__1::pair<llvm::PointerUnion<llvm::MetadataAsValue *, llvm::Metadata *>, unsigned long long>>>::getBucketsEnd",
   "linker_set_key" : "_ZN4llvm12DenseMapBaseINS_13SmallDenseMapIPvNSt3__14pairINS_12PointerUnionIPNS_15MetadataAsValueEPNS_8MetadataEEEyEELj4ENS_12DenseMapInfoIS2_EENS_6detail12DenseMapPairIS2_SB_EEEES2_SB_SD_SG_E13getBucketsEndEv",
   "parameters" :
   [
    {
     "is_this_ptr" : true,
     "referenced_type" : "_ZTIPN4llvm12DenseMapBaseINS_13SmallDenseMapIPvNSt3__14pairINS_12PointerUnionIPNS_15MetadataAsValueEPNS_8MetadataEEEyEELj4ENS_12DenseMapInfoIS2_EENS_6detail12DenseMapPairIS2_SB_EEEES2_SB_SD_SG_EE"
    }
   ],
   "return_type" : "_ZTIPN4llvm6detail12DenseMapPairIPvNSt3__14pairINS_12PointerUnionIPNS_15MetadataAsValueEPNS_8MetadataEEEyEEEE",
   "source_file" : "external/llvm/include/llvm/ADT/DenseMap.h"
  },
  {
   "access" : "private",
   "function_name" : "llvm::DenseMapBase<llvm::SmallDenseMap<void *, std::__1::pair<llvm::PointerUnion<llvm::MetadataAsValue *, llvm::Metadata *>, unsigned long long>, 4, llvm::DenseMapInfo<void *>, llvm::detail::DenseMapPair<void *, std::__1::pair<llvm::PointerUnion<llvm::MetadataAsValue *, llvm::Metadata *>, unsigned long long>>>, void *, std::__1::pair<llvm::PointerUnion<llvm::MetadataAsValue *, llvm::Metadata *>, unsigned long long>, llvm::DenseMapInfo<void *>, llvm::detail::DenseMapPair<void *, std::__1::pair<llvm::PointerUnion<llvm::MetadataAsValue *, llvm::Metadata *>, unsigned long long>>>::setNumEntries",
   "linker_set_key" : "_ZN4llvm12DenseMapBaseINS_13SmallDenseMapIPvNSt3__14pairINS_12PointerUnionIPNS_15MetadataAsValueEPNS_8MetadataEEEyEELj4ENS_12DenseMapInfoIS2_EENS_6detail12DenseMapPairIS2_SB_EEEES2_SB_SD_SG_E13setNumEntriesEj",
   "parameters" :
   [
    {
     "is_this_ptr" : true,
     "referenced_type" : "_ZTIPN4llvm12DenseMapBaseINS_13SmallDenseMapIPvNSt3__14pairINS_12PointerUnionIPNS_15MetadataAsValueEPNS_8MetadataEEEyEELj4ENS_12DenseMapInfoIS2_EENS_6detail12DenseMapPairIS2_SB_EEEES2_SB_SD_SG_EE"
    },
    {
     "referenced_type" : "_ZTIj"
    }
   ],
   "return_type" : "_ZTIv",
   "source_file" : "external/llvm/include/llvm/ADT/DenseMap.h"
  },
  {
   "access" : "protected",
   "function_name" : "llvm::DenseMapBase<llvm::SmallDenseMap<void *, std::__1::pair<llvm::PointerUnion<llvm::MetadataAsValue *, llvm::Metadata *>, unsigned long long>, 4, llvm::DenseMapInfo<void *>, llvm::detail::DenseMapPair<void *, std::__1::pair<llvm::PointerUnion<llvm::MetadataAsValue *, llvm::Metadata *>, unsigned long long>>>, void *, std::__1::pair<llvm::PointerUnion<llvm::MetadataAsValue *, llvm::Metadata *>, unsigned long long>, llvm::DenseMapInfo<void *>, llvm::detail::DenseMapPair<void *, std::__1::pair<llvm::PointerUnion<llvm::MetadataAsValue *, llvm::Metadata *>, unsigned long long>>>::getTombstoneKey",
   "linker_set_key" : "_ZN4llvm12DenseMapBaseINS_13SmallDenseMapIPvNSt3__14pairINS_12PointerUnionIPNS_15MetadataAsValueEPNS_8MetadataEEEyEELj4ENS_12DenseMapInfoIS2_EENS_6detail12DenseMapPairIS2_SB_EEEES2_SB_SD_SG_E15getTombstoneKeyEv",
   "return_type" : "_ZTIKPv",
   "source_file" : "external/llvm/include/llvm/ADT/DenseMap.h"
  },
  {
   "access" : "private",
   "function_name" : "llvm::DenseMapBase<llvm::SmallDenseMap<void *, std::__1::pair<llvm::PointerUnion<llvm::MetadataAsValue *, llvm::Metadata *>, unsigned long long>, 4, llvm::DenseMapInfo<void *>, llvm::detail::DenseMapPair<void *, std::__1::pair<llvm::PointerUnion<llvm::MetadataAsValue *, llvm::Metadata *>, unsigned long long>>>, void *, std::__1::pair<llvm::PointerUnion<llvm::MetadataAsValue *, llvm::Metadata *>, unsigned long long>, llvm::DenseMapInfo<void *>, llvm::detail::DenseMapPair<void *, std::__1::pair<llvm::PointerUnion<llvm::MetadataAsValue *, llvm::Metadata *>, unsigned long long>>>::setNumTombstones",
   "linker_set_key" : "_ZN4llvm12DenseMapBaseINS_13SmallDenseMapIPvNSt3__14pairINS_12PointerUnionIPNS_15MetadataAsValueEPNS_8MetadataEEEyEELj4ENS_12DenseMapInfoIS2_EENS_6detail12DenseMapPairIS2_SB_EEEES2_SB_SD_SG_E16setNumTombstonesEj",
   "parameters" :
   [
    {
     "is_this_ptr" : true,
     "referenced_type" : "_ZTIPN4llvm12DenseMapBaseINS_13SmallDenseMapIPvNSt3__14pairINS_12PointerUnionIPNS_15MetadataAsValueEPNS_8MetadataEEEyEELj4ENS_12DenseMapInfoIS2_EENS_6detail12DenseMapPairIS2_SB_EEEES2_SB_SD_SG_EE"
    },
    {
     "referenced_type" : "_ZTIj"
    }
   ],
   "return_type" : "_ZTIv",
   "source_file" : "external/llvm/include/llvm/ADT/DenseMap.h"
  },
  {
   "access" : "protected",
   "function_name" : "llvm::DenseMapBase<llvm::SmallDenseMap<void *, std::__1::pair<llvm::PointerUnion<llvm::MetadataAsValue *, llvm::Metadata *>, unsigned long long>, 4, llvm::DenseMapInfo<void *>, llvm::detail::DenseMapPair<void *, std::__1::pair<llvm::PointerUnion<llvm::MetadataAsValue *, llvm::Metadata *>, unsigned long long>>>, void *, std::__1::pair<llvm::PointerUnion<llvm::MetadataAsValue *, llvm::Metadata *>, unsigned long long>, llvm::DenseMapInfo<void *>, llvm::detail::DenseMapPair<void *, std::__1::pair<llvm::PointerUnion<llvm::MetadataAsValue *, llvm::Metadata *>, unsigned long long>>>::initEmpty",
   "linker_set_key" : "_ZN4llvm12DenseMapBaseINS_13SmallDenseMapIPvNSt3__14pairINS_12PointerUnionIPNS_15MetadataAsValueEPNS_8MetadataEEEyEELj4ENS_12DenseMapInfoIS2_EENS_6detail12DenseMapPairIS2_SB_EEEES2_SB_SD_SG_E9initEmptyEv",
   "parameters" :
   [
    {
     "is_this_ptr" : true,
     "referenced_type" : "_ZTIPN4llvm12DenseMapBaseINS_13SmallDenseMapIPvNSt3__14pairINS_12PointerUnionIPNS_15MetadataAsValueEPNS_8MetadataEEEyEELj4ENS_12DenseMapInfoIS2_EENS_6detail12DenseMapPairIS2_SB_EEEES2_SB_SD_SG_EE"
    }
   ],
   "return_type" : "_ZTIv",
   "source_file" : "external/llvm/include/llvm/ADT/DenseMap.h"
  },
  {
   "access" : "protected",
   "function_name" : "llvm::DenseMapBase<llvm::SmallDenseMap<void *, std::__1::pair<llvm::PointerUnion<llvm::MetadataAsValue *, llvm::Metadata *>, unsigned long long>, 4, llvm::DenseMapInfo<void *>, llvm::detail::DenseMapPair<void *, std::__1::pair<llvm::PointerUnion<llvm::MetadataAsValue *, llvm::Metadata *>, unsigned long long>>>, void *, std::__1::pair<llvm::PointerUnion<llvm::MetadataAsValue *, llvm::Metadata *>, unsigned long long>, llvm::DenseMapInfo<void *>, llvm::detail::DenseMapPair<void *, std::__1::pair<llvm::PointerUnion<llvm::MetadataAsValue *, llvm::Metadata *>, unsigned long long>>>::DenseMapBase",
   "linker_set_key" : "_ZN4llvm12DenseMapBaseINS_13SmallDenseMapIPvNSt3__14pairINS_12PointerUnionIPNS_15MetadataAsValueEPNS_8MetadataEEEyEELj4ENS_12DenseMapInfoIS2_EENS_6detail12DenseMapPairIS2_SB_EEEES2_SB_SD_SG_EC1Ev",
   "parameters" :
   [
    {
     "is_this_ptr" : true,
     "referenced_type" : "_ZTIPN4llvm12DenseMapBaseINS_13SmallDenseMapIPvNSt3__14pairINS_12PointerUnionIPNS_15MetadataAsValueEPNS_8MetadataEEEyEELj4ENS_12DenseMapInfoIS2_EENS_6detail12DenseMapPairIS2_SB_EEEES2_SB_SD_SG_EE"
    }
   ],
   "return_type" : "_ZTIv",
   "source_file" : "external/llvm/include/llvm/ADT/DenseMap.h"
  },
  {
   "access" : "protected",
   "function_name" : "llvm::DenseMapBase<llvm::SmallDenseMap<void *, std::__1::pair<llvm::PointerUnion<llvm::MetadataAsValue *, llvm::Metadata *>, unsigned long long>, 4, llvm::DenseMapInfo<void *>, llvm::detail::DenseMapPair<void *, std::__1::pair<llvm::PointerUnion<llvm::MetadataAsValue *, llvm::Metadata *>, unsigned long long>>>, void *, std::__1::pair<llvm::PointerUnion<llvm::MetadataAsValue *, llvm::Metadata *>, unsigned long long>, llvm::DenseMapInfo<void *>, llvm::detail::DenseMapPair<void *, std::__1::pair<llvm::PointerUnion<llvm::MetadataAsValue *, llvm::Metadata *>, unsigned long long>>>::DenseMapBase",
   "linker_set_key" : "_ZN4llvm12DenseMapBaseINS_13SmallDenseMapIPvNSt3__14pairINS_12PointerUnionIPNS_15MetadataAsValueEPNS_8MetadataEEEyEELj4ENS_12DenseMapInfoIS2_EENS_6detail12DenseMapPairIS2_SB_EEEES2_SB_SD_SG_EC2Ev",
   "parameters" :
   [
    {
     "is_this_ptr" : true,
     "referenced_type" : "_ZTIPN4llvm12DenseMapBaseINS_13SmallDenseMapIPvNSt3__14pairINS_12PointerUnionIPNS_15MetadataAsValueEPNS_8MetadataEEEyEELj4ENS_12DenseMapInfoIS2_EENS_6detail12DenseMapPairIS2_SB_EEEES2_SB_SD_SG_EE"
    }
   ],
   "return_type" : "_ZTIv",
   "source_file" : "external/llvm/include/llvm/ADT/DenseMap.h"
  },
  {
   "access" : "protected",
   "function_name" : "llvm::DenseMapBase<llvm::DenseMap<const void *, const llvm::PassInfo *, llvm::DenseMapInfo<const void *>, llvm::detail::DenseMapPair<const void *, const llvm::PassInfo *>>, const void *, const llvm::PassInfo *, llvm::DenseMapInfo<const void *>, llvm::detail::DenseMapPair<const void *, const llvm::PassInfo *>>::destroyAll",
   "linker_set_key" : "_ZN4llvm12DenseMapBaseINS_8DenseMapIPKvPKNS_8PassInfoENS_12DenseMapInfoIS3_EENS_6detail12DenseMapPairIS3_S6_EEEES3_S6_S8_SB_E10destroyAllEv",
   "parameters" :
   [
    {
     "is_this_ptr" : true,
     "referenced_type" : "_ZTIPN4llvm12DenseMapBaseINS_8DenseMapIPKvPKNS_8PassInfoENS_12DenseMapInfoIS3_EENS_6detail12DenseMapPairIS3_S6_EEEES3_S6_S8_SB_EE"
    }
   ],
   "return_type" : "_ZTIv",
   "source_file" : "external/llvm/include/llvm/ADT/DenseMap.h"
  },
  {
   "access" : "private",
   "function_name" : "llvm::DenseMapBase<llvm::DenseMap<const void *, const llvm::PassInfo *, llvm::DenseMapInfo<const void *>, llvm::detail::DenseMapPair<const void *, const llvm::PassInfo *>>, const void *, const llvm::PassInfo *, llvm::DenseMapInfo<const void *>, llvm::detail::DenseMapPair<const void *, const llvm::PassInfo *>>::getBuckets",
   "linker_set_key" : "_ZN4llvm12DenseMapBaseINS_8DenseMapIPKvPKNS_8PassInfoENS_12DenseMapInfoIS3_EENS_6detail12DenseMapPairIS3_S6_EEEES3_S6_S8_SB_E10getBucketsEv",
   "parameters" :
   [
    {
     "is_this_ptr" : true,
     "referenced_type" : "_ZTIPN4llvm12DenseMapBaseINS_8DenseMapIPKvPKNS_8PassInfoENS_12DenseMapInfoIS3_EENS_6detail12DenseMapPairIS3_S6_EEEES3_S6_S8_SB_EE"
    }
   ],
   "return_type" : "_ZTIPN4llvm6detail12DenseMapPairIPKvPKNS_8PassInfoEEE",
   "source_file" : "external/llvm/include/llvm/ADT/DenseMap.h"
  },
  {
   "access" : "protected",
   "function_name" : "llvm::DenseMapBase<llvm::DenseMap<const void *, const llvm::PassInfo *, llvm::DenseMapInfo<const void *>, llvm::detail::DenseMapPair<const void *, const llvm::PassInfo *>>, const void *, const llvm::PassInfo *, llvm::DenseMapInfo<const void *>, llvm::detail::DenseMapPair<const void *, const llvm::PassInfo *>>::getEmptyKey",
   "linker_set_key" : "_ZN4llvm12DenseMapBaseINS_8DenseMapIPKvPKNS_8PassInfoENS_12DenseMapInfoIS3_EENS_6detail12DenseMapPairIS3_S6_EEEES3_S6_S8_SB_E11getEmptyKeyEv",
   "return_type" : "_ZTIKPKv",
   "source_file" : "external/llvm/include/llvm/ADT/DenseMap.h"
  },
  {
   "access" : "private",
   "function_name" : "llvm::DenseMapBase<llvm::DenseMap<const void *, const llvm::PassInfo *, llvm::DenseMapInfo<const void *>, llvm::detail::DenseMapPair<const void *, const llvm::PassInfo *>>, const void *, const llvm::PassInfo *, llvm::DenseMapInfo<const void *>, llvm::detail::DenseMapPair<const void *, const llvm::PassInfo *>>::getBucketsEnd",
   "linker_set_key" : "_ZN4llvm12DenseMapBaseINS_8DenseMapIPKvPKNS_8PassInfoENS_12DenseMapInfoIS3_EENS_6detail12DenseMapPairIS3_S6_EEEES3_S6_S8_SB_E13getBucketsEndEv",
   "parameters" :
   [
    {
     "is_this_ptr" : true,
     "referenced_type" : "_ZTIPN4llvm12DenseMapBaseINS_8DenseMapIPKvPKNS_8PassInfoENS_12DenseMapInfoIS3_EENS_6detail12DenseMapPairIS3_S6_EEEES3_S6_S8_SB_EE"
    }
   ],
   "return_type" : "_ZTIPN4llvm6detail12DenseMapPairIPKvPKNS_8PassInfoEEE",
   "source_file" : "external/llvm/include/llvm/ADT/DenseMap.h"
  },
  {
   "access" : "private",
   "function_name" : "llvm::DenseMapBase<llvm::DenseMap<const void *, const llvm::PassInfo *, llvm::DenseMapInfo<const void *>, llvm::detail::DenseMapPair<const void *, const llvm::PassInfo *>>, const void *, const llvm::PassInfo *, llvm::DenseMapInfo<const void *>, llvm::detail::DenseMapPair<const void *, const llvm::PassInfo *>>::setNumEntries",
   "linker_set_key" : "_ZN4llvm12DenseMapBaseINS_8DenseMapIPKvPKNS_8PassInfoENS_12DenseMapInfoIS3_EENS_6detail12DenseMapPairIS3_S6_EEEES3_S6_S8_SB_E13setNumEntriesEj",
   "parameters" :
   [
    {
     "is_this_ptr" : true,
     "referenced_type" : "_ZTIPN4llvm12DenseMapBaseINS_8DenseMapIPKvPKNS_8PassInfoENS_12DenseMapInfoIS3_EENS_6detail12DenseMapPairIS3_S6_EEEES3_S6_S8_SB_EE"
    },
    {
     "referenced_type" : "_ZTIj"
    }
   ],
   "return_type" : "_ZTIv",
   "source_file" : "external/llvm/include/llvm/ADT/DenseMap.h"
  },
  {
   "access" : "protected",
   "function_name" : "llvm::DenseMapBase<llvm::DenseMap<const void *, const llvm::PassInfo *, llvm::DenseMapInfo<const void *>, llvm::detail::DenseMapPair<const void *, const llvm::PassInfo *>>, const void *, const llvm::PassInfo *, llvm::DenseMapInfo<const void *>, llvm::detail::DenseMapPair<const void *, const llvm::PassInfo *>>::getTombstoneKey",
   "linker_set_key" : "_ZN4llvm12DenseMapBaseINS_8DenseMapIPKvPKNS_8PassInfoENS_12DenseMapInfoIS3_EENS_6detail12DenseMapPairIS3_S6_EEEES3_S6_S8_SB_E15getTombstoneKeyEv",
   "return_type" : "_ZTIKPKv",
   "source_file" : "external/llvm/include/llvm/ADT/DenseMap.h"
  },
  {
   "access" : "private",
   "function_name" : "llvm::DenseMapBase<llvm::DenseMap<const void *, const llvm::PassInfo *, llvm::DenseMapInfo<const void *>, llvm::detail::DenseMapPair<const void *, const llvm::PassInfo *>>, const void *, const llvm::PassInfo *, llvm::DenseMapInfo<const void *>, llvm::detail::DenseMapPair<const void *, const llvm::PassInfo *>>::setNumTombstones",
   "linker_set_key" : "_ZN4llvm12DenseMapBaseINS_8DenseMapIPKvPKNS_8PassInfoENS_12DenseMapInfoIS3_EENS_6detail12DenseMapPairIS3_S6_EEEES3_S6_S8_SB_E16setNumTombstonesEj",
   "parameters" :
   [
    {
     "is_this_ptr" : true,
     "referenced_type" : "_ZTIPN4llvm12DenseMapBaseINS_8DenseMapIPKvPKNS_8PassInfoENS_12DenseMapInfoIS3_EENS_6detail12DenseMapPairIS3_S6_EEEES3_S6_S8_SB_EE"
    },
    {
     "referenced_type" : "_ZTIj"
    }
   ],
   "return_type" : "_ZTIv",
   "source_file" : "external/llvm/include/llvm/ADT/DenseMap.h"
  },
  {
   "access" : "protected",
   "function_name" : "llvm::DenseMapBase<llvm::DenseMap<const void *, const llvm::PassInfo *, llvm::DenseMapInfo<const void *>, llvm::detail::DenseMapPair<const void *, const llvm::PassInfo *>>, const void *, const llvm::PassInfo *, llvm::DenseMapInfo<const void *>, llvm::detail::DenseMapPair<const void *, const llvm::PassInfo *>>::getMinBucketToReserveForEntries",
   "linker_set_key" : "_ZN4llvm12DenseMapBaseINS_8DenseMapIPKvPKNS_8PassInfoENS_12DenseMapInfoIS3_EENS_6detail12DenseMapPairIS3_S6_EEEES3_S6_S8_SB_E31getMinBucketToReserveForEntriesEj",
   "parameters" :
   [
    {
     "is_this_ptr" : true,
     "referenced_type" : "_ZTIPN4llvm12DenseMapBaseINS_8DenseMapIPKvPKNS_8PassInfoENS_12DenseMapInfoIS3_EENS_6detail12DenseMapPairIS3_S6_EEEES3_S6_S8_SB_EE"
    },
    {
     "referenced_type" : "_ZTIj"
    }
   ],
   "return_type" : "_ZTIj",
   "source_file" : "external/llvm/include/llvm/ADT/DenseMap.h"
  },
  {
   "access" : "protected",
   "function_name" : "llvm::DenseMapBase<llvm::DenseMap<const void *, const llvm::PassInfo *, llvm::DenseMapInfo<const void *>, llvm::detail::DenseMapPair<const void *, const llvm::PassInfo *>>, const void *, const llvm::PassInfo *, llvm::DenseMapInfo<const void *>, llvm::detail::DenseMapPair<const void *, const llvm::PassInfo *>>::initEmpty",
   "linker_set_key" : "_ZN4llvm12DenseMapBaseINS_8DenseMapIPKvPKNS_8PassInfoENS_12DenseMapInfoIS3_EENS_6detail12DenseMapPairIS3_S6_EEEES3_S6_S8_SB_E9initEmptyEv",
   "parameters" :
   [
    {
     "is_this_ptr" : true,
     "referenced_type" : "_ZTIPN4llvm12DenseMapBaseINS_8DenseMapIPKvPKNS_8PassInfoENS_12DenseMapInfoIS3_EENS_6detail12DenseMapPairIS3_S6_EEEES3_S6_S8_SB_EE"
    }
   ],
   "return_type" : "_ZTIv",
   "source_file" : "external/llvm/include/llvm/ADT/DenseMap.h"
  },
  {
   "access" : "protected",
   "function_name" : "llvm::DenseMapBase<llvm::DenseMap<const void *, const llvm::PassInfo *, llvm::DenseMapInfo<const void *>, llvm::detail::DenseMapPair<const void *, const llvm::PassInfo *>>, const void *, const llvm::PassInfo *, llvm::DenseMapInfo<const void *>, llvm::detail::DenseMapPair<const void *, const llvm::PassInfo *>>::DenseMapBase",
   "linker_set_key" : "_ZN4llvm12DenseMapBaseINS_8DenseMapIPKvPKNS_8PassInfoENS_12DenseMapInfoIS3_EENS_6detail12DenseMapPairIS3_S6_EEEES3_S6_S8_SB_EC1Ev",
   "parameters" :
   [
    {
     "is_this_ptr" : true,
     "referenced_type" : "_ZTIPN4llvm12DenseMapBaseINS_8DenseMapIPKvPKNS_8PassInfoENS_12DenseMapInfoIS3_EENS_6detail12DenseMapPairIS3_S6_EEEES3_S6_S8_SB_EE"
    }
   ],
   "return_type" : "_ZTIv",
   "source_file" : "external/llvm/include/llvm/ADT/DenseMap.h"
  },
  {
   "access" : "protected",
   "function_name" : "llvm::DenseMapBase<llvm::DenseMap<const void *, const llvm::PassInfo *, llvm::DenseMapInfo<const void *>, llvm::detail::DenseMapPair<const void *, const llvm::PassInfo *>>, const void *, const llvm::PassInfo *, llvm::DenseMapInfo<const void *>, llvm::detail::DenseMapPair<const void *, const llvm::PassInfo *>>::DenseMapBase",
   "linker_set_key" : "_ZN4llvm12DenseMapBaseINS_8DenseMapIPKvPKNS_8PassInfoENS_12DenseMapInfoIS3_EENS_6detail12DenseMapPairIS3_S6_EEEES3_S6_S8_SB_EC2Ev",
   "parameters" :
   [
    {
     "is_this_ptr" : true,
     "referenced_type" : "_ZTIPN4llvm12DenseMapBaseINS_8DenseMapIPKvPKNS_8PassInfoENS_12DenseMapInfoIS3_EENS_6detail12DenseMapPairIS3_S6_EEEES3_S6_S8_SB_EE"
    }
   ],
   "return_type" : "_ZTIv",
   "source_file" : "external/llvm/include/llvm/ADT/DenseMap.h"
  },
  {
   "access" : "protected",
   "function_name" : "llvm::DenseMapBase<llvm::DenseMap<void *, llvm::cl::Option *, llvm::DenseMapInfo<void *>, llvm::detail::DenseMapPair<void *, llvm::cl::Option *>>, void *, llvm::cl::Option *, llvm::DenseMapInfo<void *>, llvm::detail::DenseMapPair<void *, llvm::cl::Option *>>::destroyAll",
   "linker_set_key" : "_ZN4llvm12DenseMapBaseINS_8DenseMapIPvPNS_2cl6OptionENS_12DenseMapInfoIS2_EENS_6detail12DenseMapPairIS2_S5_EEEES2_S5_S7_SA_E10destroyAllEv",
   "parameters" :
   [
    {
     "is_this_ptr" : true,
     "referenced_type" : "_ZTIPN4llvm12DenseMapBaseINS_8DenseMapIPvPNS_2cl6OptionENS_12DenseMapInfoIS2_EENS_6detail12DenseMapPairIS2_S5_EEEES2_S5_S7_SA_EE"
    }
   ],
   "return_type" : "_ZTIv",
   "source_file" : "external/llvm/include/llvm/ADT/DenseMap.h"
  },
  {
   "access" : "private",
   "function_name" : "llvm::DenseMapBase<llvm::DenseMap<void *, llvm::cl::Option *, llvm::DenseMapInfo<void *>, llvm::detail::DenseMapPair<void *, llvm::cl::Option *>>, void *, llvm::cl::Option *, llvm::DenseMapInfo<void *>, llvm::detail::DenseMapPair<void *, llvm::cl::Option *>>::getBuckets",
   "linker_set_key" : "_ZN4llvm12DenseMapBaseINS_8DenseMapIPvPNS_2cl6OptionENS_12DenseMapInfoIS2_EENS_6detail12DenseMapPairIS2_S5_EEEES2_S5_S7_SA_E10getBucketsEv",
   "parameters" :
   [
    {
     "is_this_ptr" : true,
     "referenced_type" : "_ZTIPN4llvm12DenseMapBaseINS_8DenseMapIPvPNS_2cl6OptionENS_12DenseMapInfoIS2_EENS_6detail12DenseMapPairIS2_S5_EEEES2_S5_S7_SA_EE"
    }
   ],
   "return_type" : "_ZTIPN4llvm6detail12DenseMapPairIPvPNS_2cl6OptionEEE",
   "source_file" : "external/llvm/include/llvm/ADT/DenseMap.h"
  },
  {
   "access" : "protected",
   "function_name" : "llvm::DenseMapBase<llvm::DenseMap<void *, llvm::cl::Option *, llvm::DenseMapInfo<void *>, llvm::detail::DenseMapPair<void *, llvm::cl::Option *>>, void *, llvm::cl::Option *, llvm::DenseMapInfo<void *>, llvm::detail::DenseMapPair<void *, llvm::cl::Option *>>::getEmptyKey",
   "linker_set_key" : "_ZN4llvm12DenseMapBaseINS_8DenseMapIPvPNS_2cl6OptionENS_12DenseMapInfoIS2_EENS_6detail12DenseMapPairIS2_S5_EEEES2_S5_S7_SA_E11getEmptyKeyEv",
   "return_type" : "_ZTIKPv",
   "source_file" : "external/llvm/include/llvm/ADT/DenseMap.h"
  },
  {
   "access" : "private",
   "function_name" : "llvm::DenseMapBase<llvm::DenseMap<void *, llvm::cl::Option *, llvm::DenseMapInfo<void *>, llvm::detail::DenseMapPair<void *, llvm::cl::Option *>>, void *, llvm::cl::Option *, llvm::DenseMapInfo<void *>, llvm::detail::DenseMapPair<void *, llvm::cl::Option *>>::getBucketsEnd",
   "linker_set_key" : "_ZN4llvm12DenseMapBaseINS_8DenseMapIPvPNS_2cl6OptionENS_12DenseMapInfoIS2_EENS_6detail12DenseMapPairIS2_S5_EEEES2_S5_S7_SA_E13getBucketsEndEv",
   "parameters" :
   [
    {
     "is_this_ptr" : true,
     "referenced_type" : "_ZTIPN4llvm12DenseMapBaseINS_8DenseMapIPvPNS_2cl6OptionENS_12DenseMapInfoIS2_EENS_6detail12DenseMapPairIS2_S5_EEEES2_S5_S7_SA_EE"
    }
   ],
   "return_type" : "_ZTIPN4llvm6detail12DenseMapPairIPvPNS_2cl6OptionEEE",
   "source_file" : "external/llvm/include/llvm/ADT/DenseMap.h"
  },
  {
   "access" : "private",
   "function_name" : "llvm::DenseMapBase<llvm::DenseMap<void *, llvm::cl::Option *, llvm::DenseMapInfo<void *>, llvm::detail::DenseMapPair<void *, llvm::cl::Option *>>, void *, llvm::cl::Option *, llvm::DenseMapInfo<void *>, llvm::detail::DenseMapPair<void *, llvm::cl::Option *>>::setNumEntries",
   "linker_set_key" : "_ZN4llvm12DenseMapBaseINS_8DenseMapIPvPNS_2cl6OptionENS_12DenseMapInfoIS2_EENS_6detail12DenseMapPairIS2_S5_EEEES2_S5_S7_SA_E13setNumEntriesEj",
   "parameters" :
   [
    {
     "is_this_ptr" : true,
     "referenced_type" : "_ZTIPN4llvm12DenseMapBaseINS_8DenseMapIPvPNS_2cl6OptionENS_12DenseMapInfoIS2_EENS_6detail12DenseMapPairIS2_S5_EEEES2_S5_S7_SA_EE"
    },
    {
     "referenced_type" : "_ZTIj"
    }
   ],
   "return_type" : "_ZTIv",
   "source_file" : "external/llvm/include/llvm/ADT/DenseMap.h"
  },
  {
   "access" : "protected",
   "function_name" : "llvm::DenseMapBase<llvm::DenseMap<void *, llvm::cl::Option *, llvm::DenseMapInfo<void *>, llvm::detail::DenseMapPair<void *, llvm::cl::Option *>>, void *, llvm::cl::Option *, llvm::DenseMapInfo<void *>, llvm::detail::DenseMapPair<void *, llvm::cl::Option *>>::getTombstoneKey",
   "linker_set_key" : "_ZN4llvm12DenseMapBaseINS_8DenseMapIPvPNS_2cl6OptionENS_12DenseMapInfoIS2_EENS_6detail12DenseMapPairIS2_S5_EEEES2_S5_S7_SA_E15getTombstoneKeyEv",
   "return_type" : "_ZTIKPv",
   "source_file" : "external/llvm/include/llvm/ADT/DenseMap.h"
  },
  {
   "access" : "private",
   "function_name" : "llvm::DenseMapBase<llvm::DenseMap<void *, llvm::cl::Option *, llvm::DenseMapInfo<void *>, llvm::detail::DenseMapPair<void *, llvm::cl::Option *>>, void *, llvm::cl::Option *, llvm::DenseMapInfo<void *>, llvm::detail::DenseMapPair<void *, llvm::cl::Option *>>::setNumTombstones",
   "linker_set_key" : "_ZN4llvm12DenseMapBaseINS_8DenseMapIPvPNS_2cl6OptionENS_12DenseMapInfoIS2_EENS_6detail12DenseMapPairIS2_S5_EEEES2_S5_S7_SA_E16setNumTombstonesEj",
   "parameters" :
   [
    {
     "is_this_ptr" : true,
     "referenced_type" : "_ZTIPN4llvm12DenseMapBaseINS_8DenseMapIPvPNS_2cl6OptionENS_12DenseMapInfoIS2_EENS_6detail12DenseMapPairIS2_S5_EEEES2_S5_S7_SA_EE"
    },
    {
     "referenced_type" : "_ZTIj"
    }
   ],
   "return_type" : "_ZTIv",
   "source_file" : "external/llvm/include/llvm/ADT/DenseMap.h"
  },
  {
   "access" : "protected",
   "function_name" : "llvm::DenseMapBase<llvm::DenseMap<void *, llvm::cl::Option *, llvm::DenseMapInfo<void *>, llvm::detail::DenseMapPair<void *, llvm::cl::Option *>>, void *, llvm::cl::Option *, llvm::DenseMapInfo<void *>, llvm::detail::DenseMapPair<void *, llvm::cl::Option *>>::getMinBucketToReserveForEntries",
   "linker_set_key" : "_ZN4llvm12DenseMapBaseINS_8DenseMapIPvPNS_2cl6OptionENS_12DenseMapInfoIS2_EENS_6detail12DenseMapPairIS2_S5_EEEES2_S5_S7_SA_E31getMinBucketToReserveForEntriesEj",
   "parameters" :
   [
    {
     "is_this_ptr" : true,
     "referenced_type" : "_ZTIPN4llvm12DenseMapBaseINS_8DenseMapIPvPNS_2cl6OptionENS_12DenseMapInfoIS2_EENS_6detail12DenseMapPairIS2_S5_EEEES2_S5_S7_SA_EE"
    },
    {
     "referenced_type" : "_ZTIj"
    }
   ],
   "return_type" : "_ZTIj",
   "source_file" : "external/llvm/include/llvm/ADT/DenseMap.h"
  },
  {
   "access" : "protected",
   "function_name" : "llvm::DenseMapBase<llvm::DenseMap<void *, llvm::cl::Option *, llvm::DenseMapInfo<void *>, llvm::detail::DenseMapPair<void *, llvm::cl::Option *>>, void *, llvm::cl::Option *, llvm::DenseMapInfo<void *>, llvm::detail::DenseMapPair<void *, llvm::cl::Option *>>::initEmpty",
   "linker_set_key" : "_ZN4llvm12DenseMapBaseINS_8DenseMapIPvPNS_2cl6OptionENS_12DenseMapInfoIS2_EENS_6detail12DenseMapPairIS2_S5_EEEES2_S5_S7_SA_E9initEmptyEv",
   "parameters" :
   [
    {
     "is_this_ptr" : true,
     "referenced_type" : "_ZTIPN4llvm12DenseMapBaseINS_8DenseMapIPvPNS_2cl6OptionENS_12DenseMapInfoIS2_EENS_6detail12DenseMapPairIS2_S5_EEEES2_S5_S7_SA_EE"
    }
   ],
   "return_type" : "_ZTIv",
   "source_file" : "external/llvm/include/llvm/ADT/DenseMap.h"
  },
  {
   "access" : "protected",
   "function_name" : "llvm::DenseMapBase<llvm::DenseMap<void *, llvm::cl::Option *, llvm::DenseMapInfo<void *>, llvm::detail::DenseMapPair<void *, llvm::cl::Option *>>, void *, llvm::cl::Option *, llvm::DenseMapInfo<void *>, llvm::detail::DenseMapPair<void *, llvm::cl::Option *>>::DenseMapBase",
   "linker_set_key" : "_ZN4llvm12DenseMapBaseINS_8DenseMapIPvPNS_2cl6OptionENS_12DenseMapInfoIS2_EENS_6detail12DenseMapPairIS2_S5_EEEES2_S5_S7_SA_EC1Ev",
   "parameters" :
   [
    {
     "is_this_ptr" : true,
     "referenced_type" : "_ZTIPN4llvm12DenseMapBaseINS_8DenseMapIPvPNS_2cl6OptionENS_12DenseMapInfoIS2_EENS_6detail12DenseMapPairIS2_S5_EEEES2_S5_S7_SA_EE"
    }
   ],
   "return_type" : "_ZTIv",
   "source_file" : "external/llvm/include/llvm/ADT/DenseMap.h"
  },
  {
   "access" : "protected",
   "function_name" : "llvm::DenseMapBase<llvm::DenseMap<void *, llvm::cl::Option *, llvm::DenseMapInfo<void *>, llvm::detail::DenseMapPair<void *, llvm::cl::Option *>>, void *, llvm::cl::Option *, llvm::DenseMapInfo<void *>, llvm::detail::DenseMapPair<void *, llvm::cl::Option *>>::DenseMapBase",
   "linker_set_key" : "_ZN4llvm12DenseMapBaseINS_8DenseMapIPvPNS_2cl6OptionENS_12DenseMapInfoIS2_EENS_6detail12DenseMapPairIS2_S5_EEEES2_S5_S7_SA_EC2Ev",
   "parameters" :
   [
    {
     "is_this_ptr" : true,
     "referenced_type" : "_ZTIPN4llvm12DenseMapBaseINS_8DenseMapIPvPNS_2cl6OptionENS_12DenseMapInfoIS2_EENS_6detail12DenseMapPairIS2_S5_EEEES2_S5_S7_SA_EE"
    }
   ],
   "return_type" : "_ZTIv",
   "source_file" : "external/llvm/include/llvm/ADT/DenseMap.h"
  },
  {
   "function_name" : "llvm::DenseMapInfo<llvm::AttributeSet>::getEmptyKey",
   "linker_set_key" : "_ZN4llvm12DenseMapInfoINS_12AttributeSetEE11getEmptyKeyEv",
   "return_type" : "_ZTIN4llvm12AttributeSetE",
   "source_file" : "external/llvm/include/llvm/IR/Attributes.h"
  },
  {
   "function_name" : "llvm::DenseMapInfo<llvm::AttributeSet>::getHashValue",
   "linker_set_key" : "_ZN4llvm12DenseMapInfoINS_12AttributeSetEE12getHashValueES1_",
   "parameters" :
   [
    {
     "referenced_type" : "_ZTIN4llvm12AttributeSetE"
    }
   ],
   "return_type" : "_ZTIj",
   "source_file" : "external/llvm/include/llvm/IR/Attributes.h"
  },
  {
   "function_name" : "llvm::DenseMapInfo<llvm::AttributeSet>::getTombstoneKey",
   "linker_set_key" : "_ZN4llvm12DenseMapInfoINS_12AttributeSetEE15getTombstoneKeyEv",
   "return_type" : "_ZTIN4llvm12AttributeSetE",
   "source_file" : "external/llvm/include/llvm/IR/Attributes.h"
  },
  {
   "function_name" : "llvm::DenseMapInfo<llvm::AttributeSet>::isEqual",
   "linker_set_key" : "_ZN4llvm12DenseMapInfoINS_12AttributeSetEE7isEqualES1_S1_",
   "parameters" :
   [
    {
     "referenced_type" : "_ZTIN4llvm12AttributeSetE"
    },
    {
     "referenced_type" : "_ZTIN4llvm12AttributeSetE"
    }
   ],
   "return_type" : "_ZTIb",
   "source_file" : "external/llvm/include/llvm/IR/Attributes.h"
  },
  {
   "function_name" : "llvm::DenseMapInfo<llvm::AAMDNodes>::getEmptyKey",
   "linker_set_key" : "_ZN4llvm12DenseMapInfoINS_9AAMDNodesEE11getEmptyKeyEv",
   "return_type" : "_ZTIN4llvm9AAMDNodesE",
   "source_file" : "external/llvm/include/llvm/IR/Metadata.h"
  },
  {
   "function_name" : "llvm::DenseMapInfo<llvm::AAMDNodes>::getHashValue",
   "linker_set_key" : "_ZN4llvm12DenseMapInfoINS_9AAMDNodesEE12getHashValueERKS1_",
   "parameters" :
   [
    {
     "referenced_type" : "_ZTIRKN4llvm9AAMDNodesE"
    }
   ],
   "return_type" : "_ZTIj",
   "source_file" : "external/llvm/include/llvm/IR/Metadata.h"
  },
  {
   "function_name" : "llvm::DenseMapInfo<llvm::AAMDNodes>::getTombstoneKey",
   "linker_set_key" : "_ZN4llvm12DenseMapInfoINS_9AAMDNodesEE15getTombstoneKeyEv",
   "return_type" : "_ZTIN4llvm9AAMDNodesE",
   "source_file" : "external/llvm/include/llvm/IR/Metadata.h"
  },
  {
   "function_name" : "llvm::DenseMapInfo<llvm::AAMDNodes>::isEqual",
   "linker_set_key" : "_ZN4llvm12DenseMapInfoINS_9AAMDNodesEE7isEqualERKS1_S4_",
   "parameters" :
   [
    {
     "referenced_type" : "_ZTIRKN4llvm9AAMDNodesE"
    },
    {
     "referenced_type" : "_ZTIRKN4llvm9AAMDNodesE"
    }
   ],
   "return_type" : "_ZTIb",
   "source_file" : "external/llvm/include/llvm/IR/Metadata.h"
  },
  {
   "function_name" : "llvm::DenseMapInfo<llvm::StringRef>::getEmptyKey",
   "linker_set_key" : "_ZN4llvm12DenseMapInfoINS_9StringRefEE11getEmptyKeyEv",
   "return_type" : "_ZTIN4llvm9StringRefE",
   "source_file" : "external/llvm/include/llvm/ADT/DenseMapInfo.h"
  },
  {
   "function_name" : "llvm::DenseMapInfo<llvm::StringRef>::getHashValue",
   "linker_set_key" : "_ZN4llvm12DenseMapInfoINS_9StringRefEE12getHashValueES1_",
   "parameters" :
   [
    {
     "referenced_type" : "_ZTIN4llvm9StringRefE"
    }
   ],
   "return_type" : "_ZTIj",
   "source_file" : "external/llvm/include/llvm/ADT/DenseMapInfo.h"
  },
  {
   "function_name" : "llvm::DenseMapInfo<llvm::StringRef>::getTombstoneKey",
   "linker_set_key" : "_ZN4llvm12DenseMapInfoINS_9StringRefEE15getTombstoneKeyEv",
   "return_type" : "_ZTIN4llvm9StringRefE",
   "source_file" : "external/llvm/include/llvm/ADT/DenseMapInfo.h"
  },
  {
   "function_name" : "llvm::DenseMapInfo<llvm::StringRef>::isEqual",
   "linker_set_key" : "_ZN4llvm12DenseMapInfoINS_9StringRefEE7isEqualES1_S1_",
   "parameters" :
   [
    {
     "referenced_type" : "_ZTIN4llvm9StringRefE"
    },
    {
     "referenced_type" : "_ZTIN4llvm9StringRefE"
    }
   ],
   "return_type" : "_ZTIb",
   "source_file" : "external/llvm/include/llvm/ADT/DenseMapInfo.h"
  },
  {
   "function_name" : "llvm::DenseMapInfo<const void *>::getEmptyKey",
   "linker_set_key" : "_ZN4llvm12DenseMapInfoIPKvE11getEmptyKeyEv",
   "return_type" : "_ZTIPKv",
   "source_file" : "external/llvm/include/llvm/ADT/DenseMapInfo.h"
  },
  {
   "function_name" : "llvm::DenseMapInfo<const void *>::getTombstoneKey",
   "linker_set_key" : "_ZN4llvm12DenseMapInfoIPKvE15getTombstoneKeyEv",
   "return_type" : "_ZTIPKv",
   "source_file" : "external/llvm/include/llvm/ADT/DenseMapInfo.h"
  },
  {
   "function_name" : "llvm::DenseMapInfo<const void *>::isEqual",
   "linker_set_key" : "_ZN4llvm12DenseMapInfoIPKvE7isEqualES2_S2_",
   "parameters" :
   [
    {
     "referenced_type" : "_ZTIPKv"
    },
    {
     "referenced_type" : "_ZTIPKv"
    }
   ],
   "return_type" : "_ZTIb",
   "source_file" : "external/llvm/include/llvm/ADT/DenseMapInfo.h"
  },
  {
   "function_name" : "llvm::DenseMapInfo<llvm::MDNode *>::getEmptyKey",
   "linker_set_key" : "_ZN4llvm12DenseMapInfoIPNS_6MDNodeEE11getEmptyKeyEv",
   "return_type" : "_ZTIPN4llvm6MDNodeE",
   "source_file" : "external/llvm/include/llvm/ADT/DenseMapInfo.h"
  },
  {
   "function_name" : "llvm::DenseMapInfo<llvm::MDNode *>::getHashValue",
   "linker_set_key" : "_ZN4llvm12DenseMapInfoIPNS_6MDNodeEE12getHashValueEPKS1_",
   "parameters" :
   [
    {
     "referenced_type" : "_ZTIPKN4llvm6MDNodeE"
    }
   ],
   "return_type" : "_ZTIj",
   "source_file" : "external/llvm/include/llvm/ADT/DenseMapInfo.h"
  },
  {
   "function_name" : "llvm::DenseMapInfo<llvm::MDNode *>::getTombstoneKey",
   "linker_set_key" : "_ZN4llvm12DenseMapInfoIPNS_6MDNodeEE15getTombstoneKeyEv",
   "return_type" : "_ZTIPN4llvm6MDNodeE",
   "source_file" : "external/llvm/include/llvm/ADT/DenseMapInfo.h"
  },
  {
   "function_name" : "llvm::DenseMapInfo<void *>::getEmptyKey",
   "linker_set_key" : "_ZN4llvm12DenseMapInfoIPvE11getEmptyKeyEv",
   "return_type" : "_ZTIPv",
   "source_file" : "external/llvm/include/llvm/ADT/DenseMapInfo.h"
  },
  {
   "function_name" : "llvm::DenseMapInfo<void *>::getTombstoneKey",
   "linker_set_key" : "_ZN4llvm12DenseMapInfoIPvE15getTombstoneKeyEv",
   "return_type" : "_ZTIPv",
   "source_file" : "external/llvm/include/llvm/ADT/DenseMapInfo.h"
  },
  {
   "function_name" : "llvm::DenseMapInfo<void *>::isEqual",
   "linker_set_key" : "_ZN4llvm12DenseMapInfoIPvE7isEqualEPKvS4_",
   "parameters" :
   [
    {
     "referenced_type" : "_ZTIPKv"
    },
    {
     "referenced_type" : "_ZTIPKv"
    }
   ],
   "return_type" : "_ZTIb",
   "source_file" : "external/llvm/include/llvm/ADT/DenseMapInfo.h"
  },
  {
   "function_name" : "llvm::DenseMapInfo<char>::getEmptyKey",
   "linker_set_key" : "_ZN4llvm12DenseMapInfoIcE11getEmptyKeyEv",
   "return_type" : "_ZTIc",
   "source_file" : "external/llvm/include/llvm/ADT/DenseMapInfo.h"
  },
  {
   "function_name" : "llvm::DenseMapInfo<char>::getHashValue",
   "linker_set_key" : "_ZN4llvm12DenseMapInfoIcE12getHashValueERKc",
   "parameters" :
   [
    {
     "referenced_type" : "_ZTIRKc"
    }
   ],
   "return_type" : "_ZTIj",
   "source_file" : "external/llvm/include/llvm/ADT/DenseMapInfo.h"
  },
  {
   "function_name" : "llvm::DenseMapInfo<char>::getTombstoneKey",
   "linker_set_key" : "_ZN4llvm12DenseMapInfoIcE15getTombstoneKeyEv",
   "return_type" : "_ZTIc",
   "source_file" : "external/llvm/include/llvm/ADT/DenseMapInfo.h"
  },
  {
   "function_name" : "llvm::DenseMapInfo<char>::isEqual",
   "linker_set_key" : "_ZN4llvm12DenseMapInfoIcE7isEqualERKcS3_",
   "parameters" :
   [
    {
     "referenced_type" : "_ZTIRKc"
    },
    {
     "referenced_type" : "_ZTIRKc"
    }
   ],
   "return_type" : "_ZTIb",
   "source_file" : "external/llvm/include/llvm/ADT/DenseMapInfo.h"
  },
  {
   "function_name" : "llvm::DenseMapInfo<int>::getEmptyKey",
   "linker_set_key" : "_ZN4llvm12DenseMapInfoIiE11getEmptyKeyEv",
   "return_type" : "_ZTIi",
   "source_file" : "external/llvm/include/llvm/ADT/DenseMapInfo.h"
  },
  {
   "function_name" : "llvm::DenseMapInfo<int>::getHashValue",
   "linker_set_key" : "_ZN4llvm12DenseMapInfoIiE12getHashValueERKi",
   "parameters" :
   [
    {
     "referenced_type" : "_ZTIRKi"
    }
   ],
   "return_type" : "_ZTIj",
   "source_file" : "external/llvm/include/llvm/ADT/DenseMapInfo.h"
  },
  {
   "function_name" : "llvm::DenseMapInfo<int>::getTombstoneKey",
   "linker_set_key" : "_ZN4llvm12DenseMapInfoIiE15getTombstoneKeyEv",
   "return_type" : "_ZTIi",
   "source_file" : "external/llvm/include/llvm/ADT/DenseMapInfo.h"
  },
  {
   "function_name" : "llvm::DenseMapInfo<int>::isEqual",
   "linker_set_key" : "_ZN4llvm12DenseMapInfoIiE7isEqualERKiS3_",
   "parameters" :
   [
    {
     "referenced_type" : "_ZTIRKi"
    },
    {
     "referenced_type" : "_ZTIRKi"
    }
   ],
   "return_type" : "_ZTIb",
   "source_file" : "external/llvm/include/llvm/ADT/DenseMapInfo.h"
  },
  {
   "function_name" : "llvm::DenseMapInfo<unsigned int>::getEmptyKey",
   "linker_set_key" : "_ZN4llvm12DenseMapInfoIjE11getEmptyKeyEv",
   "return_type" : "_ZTIj",
   "source_file" : "external/llvm/include/llvm/ADT/DenseMapInfo.h"
  },
  {
   "function_name" : "llvm::DenseMapInfo<unsigned int>::getHashValue",
   "linker_set_key" : "_ZN4llvm12DenseMapInfoIjE12getHashValueERKj",
   "parameters" :
   [
    {
     "referenced_type" : "_ZTIRKj"
    }
   ],
   "return_type" : "_ZTIj",
   "source_file" : "external/llvm/include/llvm/ADT/DenseMapInfo.h"
  },
  {
   "function_name" : "llvm::DenseMapInfo<unsigned int>::getTombstoneKey",
   "linker_set_key" : "_ZN4llvm12DenseMapInfoIjE15getTombstoneKeyEv",
   "return_type" : "_ZTIj",
   "source_file" : "external/llvm/include/llvm/ADT/DenseMapInfo.h"
  },
  {
   "function_name" : "llvm::DenseMapInfo<unsigned int>::isEqual",
   "linker_set_key" : "_ZN4llvm12DenseMapInfoIjE7isEqualERKjS3_",
   "parameters" :
   [
    {
     "referenced_type" : "_ZTIRKj"
    },
    {
     "referenced_type" : "_ZTIRKj"
    }
   ],
   "return_type" : "_ZTIb",
   "source_file" : "external/llvm/include/llvm/ADT/DenseMapInfo.h"
  },
  {
   "function_name" : "llvm::DenseMapInfo<long>::getEmptyKey",
   "linker_set_key" : "_ZN4llvm12DenseMapInfoIlE11getEmptyKeyEv",
   "return_type" : "_ZTIl",
   "source_file" : "external/llvm/include/llvm/ADT/DenseMapInfo.h"
  },
  {
   "function_name" : "llvm::DenseMapInfo<long>::getHashValue",
   "linker_set_key" : "_ZN4llvm12DenseMapInfoIlE12getHashValueERKl",
   "parameters" :
   [
    {
     "referenced_type" : "_ZTIRKl"
    }
   ],
   "return_type" : "_ZTIj",
   "source_file" : "external/llvm/include/llvm/ADT/DenseMapInfo.h"
  },
  {
   "function_name" : "llvm::DenseMapInfo<long>::getTombstoneKey",
   "linker_set_key" : "_ZN4llvm12DenseMapInfoIlE15getTombstoneKeyEv",
   "return_type" : "_ZTIl",
   "source_file" : "external/llvm/include/llvm/ADT/DenseMapInfo.h"
  },
  {
   "function_name" : "llvm::DenseMapInfo<long>::isEqual",
   "linker_set_key" : "_ZN4llvm12DenseMapInfoIlE7isEqualERKlS3_",
   "parameters" :
   [
    {
     "referenced_type" : "_ZTIRKl"
    },
    {
     "referenced_type" : "_ZTIRKl"
    }
   ],
   "return_type" : "_ZTIb",
   "source_file" : "external/llvm/include/llvm/ADT/DenseMapInfo.h"
  },
  {
   "function_name" : "llvm::DenseMapInfo<unsigned long>::getEmptyKey",
   "linker_set_key" : "_ZN4llvm12DenseMapInfoImE11getEmptyKeyEv",
   "return_type" : "_ZTIm",
   "source_file" : "external/llvm/include/llvm/ADT/DenseMapInfo.h"
  },
  {
   "function_name" : "llvm::DenseMapInfo<unsigned long>::getHashValue",
   "linker_set_key" : "_ZN4llvm12DenseMapInfoImE12getHashValueERKm",
   "parameters" :
   [
    {
     "referenced_type" : "_ZTIRKm"
    }
   ],
   "return_type" : "_ZTIj",
   "source_file" : "external/llvm/include/llvm/ADT/DenseMapInfo.h"
  },
  {
   "function_name" : "llvm::DenseMapInfo<unsigned long>::getTombstoneKey",
   "linker_set_key" : "_ZN4llvm12DenseMapInfoImE15getTombstoneKeyEv",
   "return_type" : "_ZTIm",
   "source_file" : "external/llvm/include/llvm/ADT/DenseMapInfo.h"
  },
  {
   "function_name" : "llvm::DenseMapInfo<unsigned long>::isEqual",
   "linker_set_key" : "_ZN4llvm12DenseMapInfoImE7isEqualERKmS3_",
   "parameters" :
   [
    {
     "referenced_type" : "_ZTIRKm"
    },
    {
     "referenced_type" : "_ZTIRKm"
    }
   ],
   "return_type" : "_ZTIb",
   "source_file" : "external/llvm/include/llvm/ADT/DenseMapInfo.h"
  },
  {
   "function_name" : "llvm::DenseMapInfo<long long>::getEmptyKey",
   "linker_set_key" : "_ZN4llvm12DenseMapInfoIxE11getEmptyKeyEv",
   "return_type" : "_ZTIx",
   "source_file" : "external/llvm/include/llvm/ADT/DenseMapInfo.h"
  },
  {
   "function_name" : "llvm::DenseMapInfo<long long>::getHashValue",
   "linker_set_key" : "_ZN4llvm12DenseMapInfoIxE12getHashValueERKx",
   "parameters" :
   [
    {
     "referenced_type" : "_ZTIRKx"
    }
   ],
   "return_type" : "_ZTIj",
   "source_file" : "external/llvm/include/llvm/ADT/DenseMapInfo.h"
  },
  {
   "function_name" : "llvm::DenseMapInfo<long long>::getTombstoneKey",
   "linker_set_key" : "_ZN4llvm12DenseMapInfoIxE15getTombstoneKeyEv",
   "return_type" : "_ZTIx",
   "source_file" : "external/llvm/include/llvm/ADT/DenseMapInfo.h"
  },
  {
   "function_name" : "llvm::DenseMapInfo<long long>::isEqual",
   "linker_set_key" : "_ZN4llvm12DenseMapInfoIxE7isEqualERKxS3_",
   "parameters" :
   [
    {
     "referenced_type" : "_ZTIRKx"
    },
    {
     "referenced_type" : "_ZTIRKx"
    }
   ],
   "return_type" : "_ZTIb",
   "source_file" : "external/llvm/include/llvm/ADT/DenseMapInfo.h"
  },
  {
   "function_name" : "llvm::DenseMapInfo<unsigned long long>::getEmptyKey",
   "linker_set_key" : "_ZN4llvm12DenseMapInfoIyE11getEmptyKeyEv",
   "return_type" : "_ZTIy",
   "source_file" : "external/llvm/include/llvm/ADT/DenseMapInfo.h"
  },
  {
   "function_name" : "llvm::DenseMapInfo<unsigned long long>::getHashValue",
   "linker_set_key" : "_ZN4llvm12DenseMapInfoIyE12getHashValueERKy",
   "parameters" :
   [
    {
     "referenced_type" : "_ZTIRKy"
    }
   ],
   "return_type" : "_ZTIj",
   "source_file" : "external/llvm/include/llvm/ADT/DenseMapInfo.h"
  },
  {
   "function_name" : "llvm::DenseMapInfo<unsigned long long>::getTombstoneKey",
   "linker_set_key" : "_ZN4llvm12DenseMapInfoIyE15getTombstoneKeyEv",
   "return_type" : "_ZTIy",
   "source_file" : "external/llvm/include/llvm/ADT/DenseMapInfo.h"
  },
  {
   "function_name" : "llvm::DenseMapInfo<unsigned long long>::isEqual",
   "linker_set_key" : "_ZN4llvm12DenseMapInfoIyE7isEqualERKyS3_",
   "parameters" :
   [
    {
     "referenced_type" : "_ZTIRKy"
    },
    {
     "referenced_type" : "_ZTIRKy"
    }
   ],
   "return_type" : "_ZTIb",
   "source_file" : "external/llvm/include/llvm/ADT/DenseMapInfo.h"
  },
  {
   "function_name" : "llvm::DoubleToBits",
   "linker_set_key" : "_ZN4llvm12DoubleToBitsEd",
   "parameters" :
   [
    {
     "referenced_type" : "_ZTId"
    }
   ],
   "return_type" : "_ZTIy",
   "source_file" : "external/llvm/include/llvm/Support/MathExtras.h"
  },
  {
   "function_name" : "llvm::FunctionPass::FunctionPass",
   "linker_set_key" : "_ZN4llvm12FunctionPassC2ERc",
   "parameters" :
   [
    {
     "is_this_ptr" : true,
     "referenced_type" : "_ZTIPN4llvm12FunctionPassE"
    },
    {
     "referenced_type" : "_ZTIRc"
    }
   ],
   "return_type" : "_ZTIv",
   "source_file" : "external/llvm/include/llvm/Pass.h"
  },
  {
   "function_name" : "llvm::FunctionType::classof",
   "linker_set_key" : "_ZN4llvm12FunctionType7classofEPKNS_4TypeE",
   "parameters" :
   [
    {
     "referenced_type" : "_ZTIPKN4llvm4TypeE"
    }
   ],
   "return_type" : "_ZTIb",
   "source_file" : "external/llvm/include/llvm/IR/DerivedTypes.h"
  },
  {
   "function_name" : "llvm::GlobalObject::setSection",
   "linker_set_key" : "_ZN4llvm12GlobalObject10setSectionENS_9StringRefE",
   "parameters" :
   [
    {
     "is_this_ptr" : true,
     "referenced_type" : "_ZTIPN4llvm12GlobalObjectE"
    },
    {
     "referenced_type" : "_ZTIN4llvm9StringRefE"
    }
   ],
   "return_type" : "_ZTIv",
   "source_file" : "external/llvm/include/llvm/IR/GlobalObject.h"
  },
  {
   "function_name" : "llvm::GlobalObject::setAlignment",
   "linker_set_key" : "_ZN4llvm12GlobalObject12setAlignmentEj",
   "parameters" :
   [
    {
     "is_this_ptr" : true,
     "referenced_type" : "_ZTIPN4llvm12GlobalObjectE"
    },
    {
     "referenced_type" : "_ZTIj"
    }
   ],
   "return_type" : "_ZTIv",
   "source_file" : "external/llvm/include/llvm/IR/GlobalObject.h"
  },
  {
   "function_name" : "llvm::GlobalObject::copyAttributesFrom",
   "linker_set_key" : "_ZN4llvm12GlobalObject18copyAttributesFromEPKNS_11GlobalValueE",
   "parameters" :
   [
    {
     "is_this_ptr" : true,
     "referenced_type" : "_ZTIPN4llvm12GlobalObjectE"
    },
    {
     "referenced_type" : "_ZTIPKN4llvm11GlobalValueE"
    }
   ],
   "return_type" : "_ZTIv",
   "source_file" : "external/llvm/include/llvm/IR/GlobalObject.h"
  },
  {
   "access" : "private",
   "function_name" : "llvm::GlobalObject::setHasMetadataHashEntry",
   "linker_set_key" : "_ZN4llvm12GlobalObject23setHasMetadataHashEntryEb",
   "parameters" :
   [
    {
     "is_this_ptr" : true,
     "referenced_type" : "_ZTIPN4llvm12GlobalObjectE"
    },
    {
     "referenced_type" : "_ZTIb"
    }
   ],
   "return_type" : "_ZTIv",
   "source_file" : "external/llvm/include/llvm/IR/GlobalObject.h"
  },
  {
   "function_name" : "llvm::GlobalObject::setGlobalObjectSubClassData",
   "linker_set_key" : "_ZN4llvm12GlobalObject27setGlobalObjectSubClassDataEj",
   "parameters" :
   [
    {
     "is_this_ptr" : true,
     "referenced_type" : "_ZTIPN4llvm12GlobalObjectE"
    },
    {
     "referenced_type" : "_ZTIj"
    }
   ],
   "return_type" : "_ZTIv",
   "source_file" : "external/llvm/include/llvm/IR/GlobalObject.h"
  },
  {
   "function_name" : "llvm::GlobalObject::classof",
   "linker_set_key" : "_ZN4llvm12GlobalObject7classofEPKNS_5ValueE",
   "parameters" :
   [
    {
     "referenced_type" : "_ZTIPKN4llvm5ValueE"
    }
   ],
   "return_type" : "_ZTIb",
   "source_file" : "external/llvm/include/llvm/IR/GlobalObject.h"
  },
  {
   "function_name" : "llvm::GlobalObject::getComdat",
   "linker_set_key" : "_ZN4llvm12GlobalObject9getComdatEv",
   "parameters" :
   [
    {
     "is_this_ptr" : true,
     "referenced_type" : "_ZTIPN4llvm12GlobalObjectE"
    }
   ],
   "return_type" : "_ZTIPN4llvm6ComdatE",
   "source_file" : "external/llvm/include/llvm/IR/GlobalObject.h"
  },
  {
   "function_name" : "llvm::GlobalObject::setComdat",
   "linker_set_key" : "_ZN4llvm12GlobalObject9setComdatEPNS_6ComdatE",
   "parameters" :
   [
    {
     "is_this_ptr" : true,
     "referenced_type" : "_ZTIPN4llvm12GlobalObjectE"
    },
    {
     "referenced_type" : "_ZTIPN4llvm6ComdatE"
    }
   ],
   "return_type" : "_ZTIv",
   "source_file" : "external/llvm/include/llvm/IR/GlobalObject.h"
  },
  {
   "access" : "protected",
   "function_name" : "llvm::GlobalObject::GlobalObject",
   "linker_set_key" : "_ZN4llvm12GlobalObjectC2EPNS_4TypeENS_5Value7ValueTyEPNS_3UseEjNS_11GlobalValue12LinkageTypesERKNS_5TwineEj",
   "parameters" :
   [
    {
     "is_this_ptr" : true,
     "referenced_type" : "_ZTIPN4llvm12GlobalObjectE"
    },
    {
     "referenced_type" : "_ZTIPN4llvm4TypeE"
    },
    {
     "referenced_type" : "_ZTIN4llvm5Value7ValueTyE"
    },
    {
     "referenced_type" : "_ZTIPN4llvm3UseE"
    },
    {
     "referenced_type" : "_ZTIj"
    },
    {
     "referenced_type" : "_ZTIN4llvm11GlobalValue12LinkageTypesE"
    },
    {
     "referenced_type" : "_ZTIRKN4llvm5TwineE"
    },
    {
     "default_arg" : true,
     "referenced_type" : "_ZTIj"
    }
   ],
   "return_type" : "_ZTIv",
   "source_file" : "external/llvm/include/llvm/IR/GlobalObject.h"
  },
  {
   "function_name" : "llvm::Log2_32_Ceil",
   "linker_set_key" : "_ZN4llvm12Log2_32_CeilEj",
   "parameters" :
   [
    {
     "referenced_type" : "_ZTIj"
    }
   ],
   "return_type" : "_ZTIj",
   "source_file" : "external/llvm/include/llvm/Support/MathExtras.h"
  },
  {
   "function_name" : "llvm::Log2_64_Ceil",
   "linker_set_key" : "_ZN4llvm12Log2_64_CeilEy",
   "parameters" :
   [
    {
     "referenced_type" : "_ZTIy"
    }
   ],
   "return_type" : "_ZTIj",
   "source_file" : "external/llvm/include/llvm/Support/MathExtras.h"
  },
  {
   "function_name" : "llvm::NextPowerOf2",
   "linker_set_key" : "_ZN4llvm12NextPowerOf2Ey",
   "parameters" :
   [
    {
     "referenced_type" : "_ZTIy"
    }
   ],
   "return_type" : "_ZTIy",
   "source_file" : "external/llvm/include/llvm/Support/MathExtras.h"
  },
  {
   "function_name" : "llvm::PassRegistry::PassRegistry",
   "linker_set_key" : "_ZN4llvm12PassRegistryC1Ev",
   "parameters" :
   [
    {
     "is_this_ptr" : true,
     "referenced_type" : "_ZTIPN4llvm12PassRegistryE"
    }
   ],
   "return_type" : "_ZTIv",
   "source_file" : "external/llvm/include/llvm/PassRegistry.h"
  },
  {
   "function_name" : "llvm::PassRegistry::PassRegistry",
   "linker_set_key" : "_ZN4llvm12PassRegistryC2Ev",
   "parameters" :
   [
    {
     "is_this_ptr" : true,
     "referenced_type" : "_ZTIPN4llvm12PassRegistryE"
    }
   ],
   "return_type" : "_ZTIv",
   "source_file" : "external/llvm/include/llvm/PassRegistry.h"
  },
  {
   "function_name" : "llvm::PointerUnion<llvm::LLVMContext *, llvm::ReplaceableMetadataImpl *>::PointerUnion",
   "linker_set_key" : "_ZN4llvm12PointerUnionIPNS_11LLVMContextEPNS_23ReplaceableMetadataImplEEC1ES2_",
   "parameters" :
   [
    {
     "is_this_ptr" : true,
     "referenced_type" : "_ZTIPN4llvm12PointerUnionIPNS_11LLVMContextEPNS_23ReplaceableMetadataImplEEE"
    },
    {
     "referenced_type" : "_ZTIPN4llvm11LLVMContextE"
    }
   ],
   "return_type" : "_ZTIv",
   "source_file" : "external/llvm/include/llvm/ADT/PointerUnion.h"
  },
  {
   "function_name" : "llvm::PointerUnion<llvm::LLVMContext *, llvm::ReplaceableMetadataImpl *>::PointerUnion",
   "linker_set_key" : "_ZN4llvm12PointerUnionIPNS_11LLVMContextEPNS_23ReplaceableMetadataImplEEC1ES4_",
   "parameters" :
   [
    {
     "is_this_ptr" : true,
     "referenced_type" : "_ZTIPN4llvm12PointerUnionIPNS_11LLVMContextEPNS_23ReplaceableMetadataImplEEE"
    },
    {
     "referenced_type" : "_ZTIPN4llvm23ReplaceableMetadataImplE"
    }
   ],
   "return_type" : "_ZTIv",
   "source_file" : "external/llvm/include/llvm/ADT/PointerUnion.h"
  },
  {
   "function_name" : "llvm::PointerUnion<llvm::LLVMContext *, llvm::ReplaceableMetadataImpl *>::PointerUnion",
   "linker_set_key" : "_ZN4llvm12PointerUnionIPNS_11LLVMContextEPNS_23ReplaceableMetadataImplEEC2ES2_",
   "parameters" :
   [
    {
     "is_this_ptr" : true,
     "referenced_type" : "_ZTIPN4llvm12PointerUnionIPNS_11LLVMContextEPNS_23ReplaceableMetadataImplEEE"
    },
    {
     "referenced_type" : "_ZTIPN4llvm11LLVMContextE"
    }
   ],
   "return_type" : "_ZTIv",
   "source_file" : "external/llvm/include/llvm/ADT/PointerUnion.h"
  },
  {
   "function_name" : "llvm::PointerUnion<llvm::LLVMContext *, llvm::ReplaceableMetadataImpl *>::PointerUnion",
   "linker_set_key" : "_ZN4llvm12PointerUnionIPNS_11LLVMContextEPNS_23ReplaceableMetadataImplEEC2ES4_",
   "parameters" :
   [
    {
     "is_this_ptr" : true,
     "referenced_type" : "_ZTIPN4llvm12PointerUnionIPNS_11LLVMContextEPNS_23ReplaceableMetadataImplEEE"
    },
    {
     "referenced_type" : "_ZTIPN4llvm23ReplaceableMetadataImplE"
    }
   ],
   "return_type" : "_ZTIv",
   "source_file" : "external/llvm/include/llvm/ADT/PointerUnion.h"
  },
  {
   "function_name" : "llvm::PointerUnion<llvm::LLVMContext *, llvm::ReplaceableMetadataImpl *>::operator=",
   "linker_set_key" : "_ZN4llvm12PointerUnionIPNS_11LLVMContextEPNS_23ReplaceableMetadataImplEEaSERKS2_",
   "parameters" :
   [
    {
     "is_this_ptr" : true,
     "referenced_type" : "_ZTIPN4llvm12PointerUnionIPNS_11LLVMContextEPNS_23ReplaceableMetadataImplEEE"
    },
    {
     "referenced_type" : "_ZTIRKPN4llvm11LLVMContextE"
    }
   ],
   "return_type" : "_ZTIRKN4llvm12PointerUnionIPNS_11LLVMContextEPNS_23ReplaceableMetadataImplEEE",
   "source_file" : "external/llvm/include/llvm/ADT/PointerUnion.h"
  },
  {
   "function_name" : "llvm::PointerUnion<llvm::LLVMContext *, llvm::ReplaceableMetadataImpl *>::operator=",
   "linker_set_key" : "_ZN4llvm12PointerUnionIPNS_11LLVMContextEPNS_23ReplaceableMetadataImplEEaSERKS4_",
   "parameters" :
   [
    {
     "is_this_ptr" : true,
     "referenced_type" : "_ZTIPN4llvm12PointerUnionIPNS_11LLVMContextEPNS_23ReplaceableMetadataImplEEE"
    },
    {
     "referenced_type" : "_ZTIRKPN4llvm23ReplaceableMetadataImplE"
    }
   ],
   "return_type" : "_ZTIRKN4llvm12PointerUnionIPNS_11LLVMContextEPNS_23ReplaceableMetadataImplEEE",
   "source_file" : "external/llvm/include/llvm/ADT/PointerUnion.h"
  },
  {
   "function_name" : "llvm::PointerUnion<llvm::MetadataAsValue *, llvm::Metadata *>::PointerUnion",
   "linker_set_key" : "_ZN4llvm12PointerUnionIPNS_15MetadataAsValueEPNS_8MetadataEEC1ES2_",
   "parameters" :
   [
    {
     "is_this_ptr" : true,
     "referenced_type" : "_ZTIPN4llvm12PointerUnionIPNS_15MetadataAsValueEPNS_8MetadataEEE"
    },
    {
     "referenced_type" : "_ZTIPN4llvm15MetadataAsValueE"
    }
   ],
   "return_type" : "_ZTIv",
   "source_file" : "external/llvm/include/llvm/ADT/PointerUnion.h"
  },
  {
   "function_name" : "llvm::PointerUnion<llvm::MetadataAsValue *, llvm::Metadata *>::PointerUnion",
   "linker_set_key" : "_ZN4llvm12PointerUnionIPNS_15MetadataAsValueEPNS_8MetadataEEC1ES4_",
   "parameters" :
   [
    {
     "is_this_ptr" : true,
     "referenced_type" : "_ZTIPN4llvm12PointerUnionIPNS_15MetadataAsValueEPNS_8MetadataEEE"
    },
    {
     "referenced_type" : "_ZTIPN4llvm8MetadataE"
    }
   ],
   "return_type" : "_ZTIv",
   "source_file" : "external/llvm/include/llvm/ADT/PointerUnion.h"
  },
  {
   "function_name" : "llvm::PointerUnion<llvm::MetadataAsValue *, llvm::Metadata *>::PointerUnion",
   "linker_set_key" : "_ZN4llvm12PointerUnionIPNS_15MetadataAsValueEPNS_8MetadataEEC2ES2_",
   "parameters" :
   [
    {
     "is_this_ptr" : true,
     "referenced_type" : "_ZTIPN4llvm12PointerUnionIPNS_15MetadataAsValueEPNS_8MetadataEEE"
    },
    {
     "referenced_type" : "_ZTIPN4llvm15MetadataAsValueE"
    }
   ],
   "return_type" : "_ZTIv",
   "source_file" : "external/llvm/include/llvm/ADT/PointerUnion.h"
  },
  {
   "function_name" : "llvm::PointerUnion<llvm::MetadataAsValue *, llvm::Metadata *>::PointerUnion",
   "linker_set_key" : "_ZN4llvm12PointerUnionIPNS_15MetadataAsValueEPNS_8MetadataEEC2ES4_",
   "parameters" :
   [
    {
     "is_this_ptr" : true,
     "referenced_type" : "_ZTIPN4llvm12PointerUnionIPNS_15MetadataAsValueEPNS_8MetadataEEE"
    },
    {
     "referenced_type" : "_ZTIPN4llvm8MetadataE"
    }
   ],
   "return_type" : "_ZTIv",
   "source_file" : "external/llvm/include/llvm/ADT/PointerUnion.h"
  },
  {
   "function_name" : "llvm::SignExtend32",
   "linker_set_key" : "_ZN4llvm12SignExtend32Ejj",
   "parameters" :
   [
    {
     "referenced_type" : "_ZTIj"
    },
    {
     "referenced_type" : "_ZTIj"
    }
   ],
   "return_type" : "_ZTIi",
   "source_file" : "external/llvm/include/llvm/Support/MathExtras.h"
  },
  {
   "function_name" : "llvm::SignExtend64",
   "linker_set_key" : "_ZN4llvm12SignExtend64Eyj",
   "parameters" :
   [
    {
     "referenced_type" : "_ZTIy"
    },
    {
     "referenced_type" : "_ZTIj"
    }
   ],
   "return_type" : "_ZTIx",
   "source_file" : "external/llvm/include/llvm/Support/MathExtras.h"
  },
  {
   "function_name" : "llvm::cast_or_null",
   "linker_set_key" : "_ZN4llvm12cast_or_nullINS_15LocalAsMetadataENS_15ValueAsMetadataEEENS_10cast_rettyIT_PT0_E8ret_typeES6_",
   "parameters" :
   [
    {
     "referenced_type" : "_ZTIPN4llvm15ValueAsMetadataE"
    }
   ],
   "return_type" : "_ZTIPN4llvm15LocalAsMetadataE",
   "source_file" : "external/llvm/include/llvm/Support/Casting.h",
   "template_args" : [ "_ZTIN4llvm15LocalAsMetadataE", "_ZTIN4llvm15ValueAsMetadataE" ]
  },
  {
   "function_name" : "llvm::cast_or_null",
   "linker_set_key" : "_ZN4llvm12cast_or_nullINS_18ConstantAsMetadataENS_15ValueAsMetadataEEENS_10cast_rettyIT_PT0_E8ret_typeES6_",
   "parameters" :
   [
    {
     "referenced_type" : "_ZTIPN4llvm15ValueAsMetadataE"
    }
   ],
   "return_type" : "_ZTIPN4llvm18ConstantAsMetadataE",
   "source_file" : "external/llvm/include/llvm/Support/Casting.h",
   "template_args" : [ "_ZTIN4llvm18ConstantAsMetadataE", "_ZTIN4llvm15ValueAsMetadataE" ]
  },
  {
   "function_name" : "llvm::cast_or_null",
   "linker_set_key" : "_ZN4llvm12cast_or_nullINS_5ValueES1_EENS_10cast_rettyIT_PT0_E8ret_typeES5_",
   "parameters" :
   [
    {
     "referenced_type" : "_ZTIPN4llvm5ValueE"
    }
   ],
   "return_type" : "_ZTIPN4llvm5ValueE",
   "source_file" : "external/llvm/include/llvm/Support/Casting.h",
   "template_args" : [ "_ZTIN4llvm5ValueE", "_ZTIN4llvm5ValueE" ]
  },
  {
   "function_name" : "llvm::cast_or_null",
   "linker_set_key" : "_ZN4llvm12cast_or_nullINS_8ConstantENS_5ValueEEENS_10cast_rettyIT_PT0_E8ret_typeES6_",
   "parameters" :
   [
    {
     "referenced_type" : "_ZTIPN4llvm5ValueE"
    }
   ],
   "return_type" : "_ZTIPN4llvm8ConstantE",
   "source_file" : "external/llvm/include/llvm/Support/Casting.h",
   "template_args" : [ "_ZTIN4llvm8ConstantE", "_ZTIN4llvm5ValueE" ]
  },
  {
   "function_name" : "llvm::ilist_traits<llvm::NamedMDNode>::addNodeToList",
   "linker_set_key" : "_ZN4llvm12ilist_traitsINS_11NamedMDNodeEE13addNodeToListEPS1_",
   "parameters" :
   [
    {
     "is_this_ptr" : true,
     "referenced_type" : "_ZTIPN4llvm12ilist_traitsINS_11NamedMDNodeEEE"
    },
    {
     "referenced_type" : "_ZTIPN4llvm11NamedMDNodeE"
    }
   ],
   "return_type" : "_ZTIv",
   "source_file" : "external/llvm/include/llvm/IR/Module.h"
  },
  {
   "function_name" : "llvm::ilist_traits<llvm::NamedMDNode>::destroySentinel",
   "linker_set_key" : "_ZN4llvm12ilist_traitsINS_11NamedMDNodeEE15destroySentinelEPS1_",
   "parameters" :
   [
    {
     "referenced_type" : "_ZTIPN4llvm11NamedMDNodeE"
    }
   ],
   "return_type" : "_ZTIv",
   "source_file" : "external/llvm/include/llvm/IR/Module.h"
  },
  {
   "function_name" : "llvm::ilist_traits<llvm::NamedMDNode>::removeNodeFromList",
   "linker_set_key" : "_ZN4llvm12ilist_traitsINS_11NamedMDNodeEE18removeNodeFromListEPS1_",
   "parameters" :
   [
    {
     "is_this_ptr" : true,
     "referenced_type" : "_ZTIPN4llvm12ilist_traitsINS_11NamedMDNodeEEE"
    },
    {
     "referenced_type" : "_ZTIPN4llvm11NamedMDNodeE"
    }
   ],
   "return_type" : "_ZTIv",
   "source_file" : "external/llvm/include/llvm/IR/Module.h"
  },
  {
   "function_name" : "llvm::ilist_traits<llvm::NamedMDNode>::noteHead",
   "linker_set_key" : "_ZN4llvm12ilist_traitsINS_11NamedMDNodeEE8noteHeadEPS1_S3_",
   "parameters" :
   [
    {
     "referenced_type" : "_ZTIPN4llvm11NamedMDNodeE"
    },
    {
     "referenced_type" : "_ZTIPN4llvm11NamedMDNodeE"
    }
   ],
   "return_type" : "_ZTIv",
   "source_file" : "external/llvm/include/llvm/IR/Module.h"
  },
  {
   "function_name" : "llvm::makeArrayRef",
   "linker_set_key" : "_ZN4llvm12makeArrayRefIPNS_4TypeEEENS_8ArrayRefIT_EEPKS4_S7_",
   "parameters" :
   [
    {
     "referenced_type" : "_ZTIPKPN4llvm4TypeE"
    },
    {
     "referenced_type" : "_ZTIPKPN4llvm4TypeE"
    }
   ],
   "return_type" : "_ZTIN4llvm8ArrayRefIPNS_4TypeEEE",
   "source_file" : "external/llvm/include/llvm/ADT/ArrayRef.h",
   "template_args" : [ "_ZTIPN4llvm4TypeE" ]
  },
  {
   "function_name" : "llvm::makeArrayRef",
   "linker_set_key" : "_ZN4llvm12makeArrayRefIPNS_5ValueEEENS_8ArrayRefIT_EEPKS4_j",
   "parameters" :
   [
    {
     "referenced_type" : "_ZTIPKPN4llvm5ValueE"
    },
    {
     "referenced_type" : "_ZTIj"
    }
   ],
   "return_type" : "_ZTIN4llvm8ArrayRefIPNS_5ValueEEE",
   "source_file" : "external/llvm/include/llvm/ADT/ArrayRef.h",
   "template_args" : [ "_ZTIPN4llvm5ValueE" ]
  },
  {
   "function_name" : "llvm::makeArrayRef",
   "linker_set_key" : "_ZN4llvm12makeArrayRefIjEENS_8ArrayRefIT_EERKS2_",
   "parameters" :
   [
    {
     "referenced_type" : "_ZTIRKj"
    }
   ],
   "return_type" : "_ZTIN4llvm8ArrayRefIjEE",
   "source_file" : "external/llvm/include/llvm/ADT/ArrayRef.h",
   "template_args" : [ "_ZTIj" ]
  },
  {
   "function_name" : "llvm::AnalysisUsage::addPreservedID",
   "linker_set_key" : "_ZN4llvm13AnalysisUsage14addPreservedIDEPKv",
   "parameters" :
   [
    {
     "is_this_ptr" : true,
     "referenced_type" : "_ZTIPN4llvm13AnalysisUsageE"
    },
    {
     "referenced_type" : "_ZTIPKv"
    }
   ],
   "return_type" : "_ZTIRN4llvm13AnalysisUsageE",
   "source_file" : "external/llvm/include/llvm/PassAnalysisSupport.h"
  },
  {
   "function_name" : "llvm::AnalysisUsage::addPreservedID",
   "linker_set_key" : "_ZN4llvm13AnalysisUsage14addPreservedIDERc",
   "parameters" :
   [
    {
     "is_this_ptr" : true,
     "referenced_type" : "_ZTIPN4llvm13AnalysisUsageE"
    },
    {
     "referenced_type" : "_ZTIRc"
    }
   ],
   "return_type" : "_ZTIRN4llvm13AnalysisUsageE",
   "source_file" : "external/llvm/include/llvm/PassAnalysisSupport.h"
  },
  {
   "function_name" : "llvm::AnalysisUsage::setPreservesAll",
   "linker_set_key" : "_ZN4llvm13AnalysisUsage15setPreservesAllEv",
   "parameters" :
   [
    {
     "is_this_ptr" : true,
     "referenced_type" : "_ZTIPN4llvm13AnalysisUsageE"
    }
   ],
   "return_type" : "_ZTIv",
   "source_file" : "external/llvm/include/llvm/PassAnalysisSupport.h"
  },
  {
   "function_name" : "llvm::AnalysisUsage::addUsedIfAvailableID",
   "linker_set_key" : "_ZN4llvm13AnalysisUsage20addUsedIfAvailableIDEPKv",
   "parameters" :
   [
    {
     "is_this_ptr" : true,
     "referenced_type" : "_ZTIPN4llvm13AnalysisUsageE"
    },
    {
     "referenced_type" : "_ZTIPKv"
    }
   ],
   "return_type" : "_ZTIRN4llvm13AnalysisUsageE",
   "source_file" : "external/llvm/include/llvm/PassAnalysisSupport.h"
  },
  {
   "function_name" : "llvm::AnalysisUsage::addUsedIfAvailableID",
   "linker_set_key" : "_ZN4llvm13AnalysisUsage20addUsedIfAvailableIDERc",
   "parameters" :
   [
    {
     "is_this_ptr" : true,
     "referenced_type" : "_ZTIPN4llvm13AnalysisUsageE"
    },
    {
     "referenced_type" : "_ZTIRc"
    }
   ],
   "return_type" : "_ZTIRN4llvm13AnalysisUsageE",
   "source_file" : "external/llvm/include/llvm/PassAnalysisSupport.h"
  },
  {
   "function_name" : "llvm::AnalysisUsage::AnalysisUsage",
   "linker_set_key" : "_ZN4llvm13AnalysisUsageC1Ev",
   "parameters" :
   [
    {
     "is_this_ptr" : true,
     "referenced_type" : "_ZTIPN4llvm13AnalysisUsageE"
    }
   ],
   "return_type" : "_ZTIv",
   "source_file" : "external/llvm/include/llvm/PassAnalysisSupport.h"
  },
  {
   "function_name" : "llvm::AnalysisUsage::AnalysisUsage",
   "linker_set_key" : "_ZN4llvm13AnalysisUsageC2Ev",
   "parameters" :
   [
    {
     "is_this_ptr" : true,
     "referenced_type" : "_ZTIPN4llvm13AnalysisUsageE"
    }
   ],
   "return_type" : "_ZTIv",
   "source_file" : "external/llvm/include/llvm/PassAnalysisSupport.h"
  },
  {
   "function_name" : "llvm::CompositeType::classof",
   "linker_set_key" : "_ZN4llvm13CompositeType7classofEPKNS_4TypeE",
   "parameters" :
   [
    {
     "referenced_type" : "_ZTIPKN4llvm4TypeE"
    }
   ],
   "return_type" : "_ZTIb",
   "source_file" : "external/llvm/include/llvm/IR/DerivedTypes.h"
  },
  {
   "access" : "protected",
   "function_name" : "llvm::CompositeType::CompositeType",
   "linker_set_key" : "_ZN4llvm13CompositeTypeC1ERNS_11LLVMContextENS_4Type6TypeIDE",
   "parameters" :
   [
    {
     "is_this_ptr" : true,
     "referenced_type" : "_ZTIPN4llvm13CompositeTypeE"
    },
    {
     "referenced_type" : "_ZTIRN4llvm11LLVMContextE"
    },
    {
     "referenced_type" : "_ZTIN4llvm4Type6TypeIDE"
    }
   ],
   "return_type" : "_ZTIv",
   "source_file" : "external/llvm/include/llvm/IR/DerivedTypes.h"
  },
  {
   "access" : "protected",
   "function_name" : "llvm::CompositeType::CompositeType",
   "linker_set_key" : "_ZN4llvm13CompositeTypeC2ERNS_11LLVMContextENS_4Type6TypeIDE",
   "parameters" :
   [
    {
     "is_this_ptr" : true,
     "referenced_type" : "_ZTIPN4llvm13CompositeTypeE"
    },
    {
     "referenced_type" : "_ZTIRN4llvm11LLVMContextE"
    },
    {
     "referenced_type" : "_ZTIN4llvm4Type6TypeIDE"
    }
   ],
   "return_type" : "_ZTIv",
   "source_file" : "external/llvm/include/llvm/IR/DerivedTypes.h"
  },
  {
   "function_name" : "llvm::ConstantArray::classof",
   "linker_set_key" : "_ZN4llvm13ConstantArray7classofEPKNS_5ValueE",
   "parameters" :
   [
    {
     "referenced_type" : "_ZTIPKN4llvm5ValueE"
    }
   ],
   "return_type" : "_ZTIb",
   "source_file" : "external/llvm/include/llvm/IR/Constants.h"
  },
  {
   "function_name" : "llvm::FastMathFlags::setNoSignedZeros",
   "linker_set_key" : "_ZN4llvm13FastMathFlags16setNoSignedZerosEv",
   "parameters" :
   [
    {
     "is_this_ptr" : true,
     "referenced_type" : "_ZTIPN4llvm13FastMathFlagsE"
    }
   ],
   "return_type" : "_ZTIv",
   "source_file" : "external/llvm/include/llvm/IR/Operator.h"
  },
  {
   "function_name" : "llvm::FastMathFlags::setUnsafeAlgebra",
   "linker_set_key" : "_ZN4llvm13FastMathFlags16setUnsafeAlgebraEv",
   "parameters" :
   [
    {
     "is_this_ptr" : true,
     "referenced_type" : "_ZTIPN4llvm13FastMathFlagsE"
    }
   ],
   "return_type" : "_ZTIv",
   "source_file" : "external/llvm/include/llvm/IR/Operator.h"
  },
  {
   "function_name" : "llvm::FastMathFlags::setAllowReciprocal",
   "linker_set_key" : "_ZN4llvm13FastMathFlags18setAllowReciprocalEv",
   "parameters" :
   [
    {
     "is_this_ptr" : true,
     "referenced_type" : "_ZTIPN4llvm13FastMathFlagsE"
    }
   ],
   "return_type" : "_ZTIv",
   "source_file" : "external/llvm/include/llvm/IR/Operator.h"
  },
  {
   "function_name" : "llvm::FastMathFlags::clear",
   "linker_set_key" : "_ZN4llvm13FastMathFlags5clearEv",
   "parameters" :
   [
    {
     "is_this_ptr" : true,
     "referenced_type" : "_ZTIPN4llvm13FastMathFlagsE"
    }
   ],
   "return_type" : "_ZTIv",
   "source_file" : "external/llvm/include/llvm/IR/Operator.h"
  },
  {
   "function_name" : "llvm::FastMathFlags::setNoInfs",
   "linker_set_key" : "_ZN4llvm13FastMathFlags9setNoInfsEv",
   "parameters" :
   [
    {
     "is_this_ptr" : true,
     "referenced_type" : "_ZTIPN4llvm13FastMathFlagsE"
    }
   ],
   "return_type" : "_ZTIv",
   "source_file" : "external/llvm/include/llvm/IR/Operator.h"
  },
  {
   "function_name" : "llvm::FastMathFlags::setNoNaNs",
   "linker_set_key" : "_ZN4llvm13FastMathFlags9setNoNaNsEv",
   "parameters" :
   [
    {
     "is_this_ptr" : true,
     "referenced_type" : "_ZTIPN4llvm13FastMathFlagsE"
    }
   ],
   "return_type" : "_ZTIv",
   "source_file" : "external/llvm/include/llvm/IR/Operator.h"
  },
  {
   "access" : "private",
   "function_name" : "llvm::FastMathFlags::FastMathFlags",
   "linker_set_key" : "_ZN4llvm13FastMathFlagsC1Ej",
   "parameters" :
   [
    {
     "is_this_ptr" : true,
     "referenced_type" : "_ZTIPN4llvm13FastMathFlagsE"
    },
    {
     "referenced_type" : "_ZTIj"
    }
   ],
   "return_type" : "_ZTIv",
   "source_file" : "external/llvm/include/llvm/IR/Operator.h"
  },
  {
   "function_name" : "llvm::FastMathFlags::FastMathFlags",
   "linker_set_key" : "_ZN4llvm13FastMathFlagsC1Ev",
   "parameters" :
   [
    {
     "is_this_ptr" : true,
     "referenced_type" : "_ZTIPN4llvm13FastMathFlagsE"
    }
   ],
   "return_type" : "_ZTIv",
   "source_file" : "external/llvm/include/llvm/IR/Operator.h"
  },
  {
   "access" : "private",
   "function_name" : "llvm::FastMathFlags::FastMathFlags",
   "linker_set_key" : "_ZN4llvm13FastMathFlagsC2Ej",
   "parameters" :
   [
    {
     "is_this_ptr" : true,
     "referenced_type" : "_ZTIPN4llvm13FastMathFlagsE"
    },
    {
     "referenced_type" : "_ZTIj"
    }
   ],
   "return_type" : "_ZTIv",
   "source_file" : "external/llvm/include/llvm/IR/Operator.h"
  },
  {
   "function_name" : "llvm::FastMathFlags::FastMathFlags",
   "linker_set_key" : "_ZN4llvm13FastMathFlagsC2Ev",
   "parameters" :
   [
    {
     "is_this_ptr" : true,
     "referenced_type" : "_ZTIPN4llvm13FastMathFlagsE"
    }
   ],
   "return_type" : "_ZTIv",
   "source_file" : "external/llvm/include/llvm/IR/Operator.h"
  },
  {
   "function_name" : "llvm::FastMathFlags::operator&=",
   "linker_set_key" : "_ZN4llvm13FastMathFlagsaNERKS0_",
   "parameters" :
   [
    {
     "is_this_ptr" : true,
     "referenced_type" : "_ZTIPN4llvm13FastMathFlagsE"
    },
    {
     "referenced_type" : "_ZTIRKN4llvm13FastMathFlagsE"
    }
   ],
   "return_type" : "_ZTIv",
   "source_file" : "external/llvm/include/llvm/IR/Operator.h"
  },
  {
   "function_name" : "llvm::ImmutablePass::runOnModule",
   "linker_set_key" : "_ZN4llvm13ImmutablePass11runOnModuleERNS_6ModuleE",
   "parameters" :
   [
    {
     "is_this_ptr" : true,
     "referenced_type" : "_ZTIPN4llvm13ImmutablePassE"
    },
    {
     "referenced_type" : "_ZTIRN4llvm6ModuleE"
    }
   ],
   "return_type" : "_ZTIb",
   "source_file" : "external/llvm/include/llvm/Pass.h"
  },
  {
   "function_name" : "llvm::ImmutablePass::getAsImmutablePass",
   "linker_set_key" : "_ZN4llvm13ImmutablePass18getAsImmutablePassEv",
   "parameters" :
   [
    {
     "is_this_ptr" : true,
     "referenced_type" : "_ZTIPN4llvm13ImmutablePassE"
    }
   ],
   "return_type" : "_ZTIPN4llvm13ImmutablePassE",
   "source_file" : "external/llvm/include/llvm/Pass.h"
  },
  {
   "function_name" : "llvm::ImmutablePass::ImmutablePass",
   "linker_set_key" : "_ZN4llvm13ImmutablePassC1ERc",
   "parameters" :
   [
    {
     "is_this_ptr" : true,
     "referenced_type" : "_ZTIPN4llvm13ImmutablePassE"
    },
    {
     "referenced_type" : "_ZTIRc"
    }
   ],
   "return_type" : "_ZTIv",
   "source_file" : "external/llvm/include/llvm/Pass.h"
  },
  {
   "function_name" : "llvm::ImmutablePass::ImmutablePass",
   "linker_set_key" : "_ZN4llvm13ImmutablePassC2ERc",
   "parameters" :
   [
    {
     "is_this_ptr" : true,
     "referenced_type" : "_ZTIPN4llvm13ImmutablePassE"
    },
    {
     "referenced_type" : "_ZTIRc"
    }
   ],
   "return_type" : "_ZTIv",
   "source_file" : "external/llvm/include/llvm/Pass.h"
  },
  {
   "function_name" : "llvm::ManagedStatic<llvm::cl::SubCommand>::operator*",
   "linker_set_key" : "_ZN4llvm13ManagedStaticINS_2cl10SubCommandEEdeEv",
   "parameters" :
   [
    {
     "is_this_ptr" : true,
     "referenced_type" : "_ZTIPN4llvm13ManagedStaticINS_2cl10SubCommandEEE"
    }
   ],
   "return_type" : "_ZTIRN4llvm2cl10SubCommandE",
   "source_file" : "external/llvm/include/llvm/Support/ManagedStatic.h"
  },
  {
   "function_name" : "llvm::PowerOf2Floor",
   "linker_set_key" : "_ZN4llvm13PowerOf2FloorEy",
   "parameters" :
   [
    {
     "referenced_type" : "_ZTIy"
    }
   ],
   "return_type" : "_ZTIy",
   "source_file" : "external/llvm/include/llvm/Support/MathExtras.h"
  },
  {
   "access" : "private",
   "function_name" : "llvm::SmallDenseMap<void *, std::__1::pair<llvm::PointerUnion<llvm::MetadataAsValue *, llvm::Metadata *>, unsigned long long>, 4, llvm::DenseMapInfo<void *>, llvm::detail::DenseMapPair<void *, std::__1::pair<llvm::PointerUnion<llvm::MetadataAsValue *, llvm::Metadata *>, unsigned long long>>>::getBuckets",
   "linker_set_key" : "_ZN4llvm13SmallDenseMapIPvNSt3__14pairINS_12PointerUnionIPNS_15MetadataAsValueEPNS_8MetadataEEEyEELj4ENS_12DenseMapInfoIS1_EENS_6detail12DenseMapPairIS1_SA_EEE10getBucketsEv",
   "parameters" :
   [
    {
     "is_this_ptr" : true,
     "referenced_type" : "_ZTIPN4llvm13SmallDenseMapIPvNSt3__14pairINS_12PointerUnionIPNS_15MetadataAsValueEPNS_8MetadataEEEyEELj4ENS_12DenseMapInfoIS1_EENS_6detail12DenseMapPairIS1_SA_EEEE"
    }
   ],
   "return_type" : "_ZTIPN4llvm6detail12DenseMapPairIPvNSt3__14pairINS_12PointerUnionIPNS_15MetadataAsValueEPNS_8MetadataEEEyEEEE",
   "source_file" : "external/llvm/include/llvm/ADT/DenseMap.h"
  },
  {
   "access" : "private",
   "function_name" : "llvm::SmallDenseMap<void *, std::__1::pair<llvm::PointerUnion<llvm::MetadataAsValue *, llvm::Metadata *>, unsigned long long>, 4, llvm::DenseMapInfo<void *>, llvm::detail::DenseMapPair<void *, std::__1::pair<llvm::PointerUnion<llvm::MetadataAsValue *, llvm::Metadata *>, unsigned long long>>>::getLargeRep",
   "linker_set_key" : "_ZN4llvm13SmallDenseMapIPvNSt3__14pairINS_12PointerUnionIPNS_15MetadataAsValueEPNS_8MetadataEEEyEELj4ENS_12DenseMapInfoIS1_EENS_6detail12DenseMapPairIS1_SA_EEE11getLargeRepEv",
   "parameters" :
   [
    {
     "is_this_ptr" : true,
     "referenced_type" : "_ZTIPN4llvm13SmallDenseMapIPvNSt3__14pairINS_12PointerUnionIPNS_15MetadataAsValueEPNS_8MetadataEEEyEELj4ENS_12DenseMapInfoIS1_EENS_6detail12DenseMapPairIS1_SA_EEEE"
    }
   ],
   "return_type" : "_ZTIPN4llvm13SmallDenseMapIPvNSt3__14pairINS_12PointerUnionIPNS_15MetadataAsValueEPNS_8MetadataEEEyEELj4ENS_12DenseMapInfoIS1_EENS_6detail12DenseMapPairIS1_SA_EEE8LargeRepE",
   "source_file" : "external/llvm/include/llvm/ADT/DenseMap.h"
  },
  {
   "access" : "private",
   "function_name" : "llvm::SmallDenseMap<void *, std::__1::pair<llvm::PointerUnion<llvm::MetadataAsValue *, llvm::Metadata *>, unsigned long long>, 4, llvm::DenseMapInfo<void *>, llvm::detail::DenseMapPair<void *, std::__1::pair<llvm::PointerUnion<llvm::MetadataAsValue *, llvm::Metadata *>, unsigned long long>>>::setNumEntries",
   "linker_set_key" : "_ZN4llvm13SmallDenseMapIPvNSt3__14pairINS_12PointerUnionIPNS_15MetadataAsValueEPNS_8MetadataEEEyEELj4ENS_12DenseMapInfoIS1_EENS_6detail12DenseMapPairIS1_SA_EEE13setNumEntriesEj",
   "parameters" :
   [
    {
     "is_this_ptr" : true,
     "referenced_type" : "_ZTIPN4llvm13SmallDenseMapIPvNSt3__14pairINS_12PointerUnionIPNS_15MetadataAsValueEPNS_8MetadataEEEyEELj4ENS_12DenseMapInfoIS1_EENS_6detail12DenseMapPairIS1_SA_EEEE"
    },
    {
     "referenced_type" : "_ZTIj"
    }
   ],
   "return_type" : "_ZTIv",
   "source_file" : "external/llvm/include/llvm/ADT/DenseMap.h"
  },
  {
   "access" : "private",
   "function_name" : "llvm::SmallDenseMap<void *, std::__1::pair<llvm::PointerUnion<llvm::MetadataAsValue *, llvm::Metadata *>, unsigned long long>, 4, llvm::DenseMapInfo<void *>, llvm::detail::DenseMapPair<void *, std::__1::pair<llvm::PointerUnion<llvm::MetadataAsValue *, llvm::Metadata *>, unsigned long long>>>::allocateBuckets",
   "linker_set_key" : "_ZN4llvm13SmallDenseMapIPvNSt3__14pairINS_12PointerUnionIPNS_15MetadataAsValueEPNS_8MetadataEEEyEELj4ENS_12DenseMapInfoIS1_EENS_6detail12DenseMapPairIS1_SA_EEE15allocateBucketsEj",
   "parameters" :
   [
    {
     "is_this_ptr" : true,
     "referenced_type" : "_ZTIPN4llvm13SmallDenseMapIPvNSt3__14pairINS_12PointerUnionIPNS_15MetadataAsValueEPNS_8MetadataEEEyEELj4ENS_12DenseMapInfoIS1_EENS_6detail12DenseMapPairIS1_SA_EEEE"
    },
    {
     "referenced_type" : "_ZTIj"
    }
   ],
   "return_type" : "_ZTIN4llvm13SmallDenseMapIPvNSt3__14pairINS_12PointerUnionIPNS_15MetadataAsValueEPNS_8MetadataEEEyEELj4ENS_12DenseMapInfoIS1_EENS_6detail12DenseMapPairIS1_SA_EEE8LargeRepE",
   "source_file" : "external/llvm/include/llvm/ADT/DenseMap.h"
  },
  {
   "access" : "private",
   "function_name" : "llvm::SmallDenseMap<void *, std::__1::pair<llvm::PointerUnion<llvm::MetadataAsValue *, llvm::Metadata *>, unsigned long long>, 4, llvm::DenseMapInfo<void *>, llvm::detail::DenseMapPair<void *, std::__1::pair<llvm::PointerUnion<llvm::MetadataAsValue *, llvm::Metadata *>, unsigned long long>>>::setNumTombstones",
   "linker_set_key" : "_ZN4llvm13SmallDenseMapIPvNSt3__14pairINS_12PointerUnionIPNS_15MetadataAsValueEPNS_8MetadataEEEyEELj4ENS_12DenseMapInfoIS1_EENS_6detail12DenseMapPairIS1_SA_EEE16setNumTombstonesEj",
   "parameters" :
   [
    {
     "is_this_ptr" : true,
     "referenced_type" : "_ZTIPN4llvm13SmallDenseMapIPvNSt3__14pairINS_12PointerUnionIPNS_15MetadataAsValueEPNS_8MetadataEEEyEELj4ENS_12DenseMapInfoIS1_EENS_6detail12DenseMapPairIS1_SA_EEEE"
    },
    {
     "referenced_type" : "_ZTIj"
    }
   ],
   "return_type" : "_ZTIv",
   "source_file" : "external/llvm/include/llvm/ADT/DenseMap.h"
  },
  {
   "access" : "private",
   "function_name" : "llvm::SmallDenseMap<void *, std::__1::pair<llvm::PointerUnion<llvm::MetadataAsValue *, llvm::Metadata *>, unsigned long long>, 4, llvm::DenseMapInfo<void *>, llvm::detail::DenseMapPair<void *, std::__1::pair<llvm::PointerUnion<llvm::MetadataAsValue *, llvm::Metadata *>, unsigned long long>>>::deallocateBuckets",
   "linker_set_key" : "_ZN4llvm13SmallDenseMapIPvNSt3__14pairINS_12PointerUnionIPNS_15MetadataAsValueEPNS_8MetadataEEEyEELj4ENS_12DenseMapInfoIS1_EENS_6detail12DenseMapPairIS1_SA_EEE17deallocateBucketsEv",
   "parameters" :
   [
    {
     "is_this_ptr" : true,
     "referenced_type" : "_ZTIPN4llvm13SmallDenseMapIPvNSt3__14pairINS_12PointerUnionIPNS_15MetadataAsValueEPNS_8MetadataEEEyEELj4ENS_12DenseMapInfoIS1_EENS_6detail12DenseMapPairIS1_SA_EEEE"
    }
   ],
   "return_type" : "_ZTIv",
   "source_file" : "external/llvm/include/llvm/ADT/DenseMap.h"
  },
  {
   "function_name" : "llvm::SmallDenseMap<void *, std::__1::pair<llvm::PointerUnion<llvm::MetadataAsValue *, llvm::Metadata *>, unsigned long long>, 4, llvm::DenseMapInfo<void *>, llvm::detail::DenseMapPair<void *, std::__1::pair<llvm::PointerUnion<llvm::MetadataAsValue *, llvm::Metadata *>, unsigned long long>>>::init",
   "linker_set_key" : "_ZN4llvm13SmallDenseMapIPvNSt3__14pairINS_12PointerUnionIPNS_15MetadataAsValueEPNS_8MetadataEEEyEELj4ENS_12DenseMapInfoIS1_EENS_6detail12DenseMapPairIS1_SA_EEE4initEj",
   "parameters" :
   [
    {
     "is_this_ptr" : true,
     "referenced_type" : "_ZTIPN4llvm13SmallDenseMapIPvNSt3__14pairINS_12PointerUnionIPNS_15MetadataAsValueEPNS_8MetadataEEEyEELj4ENS_12DenseMapInfoIS1_EENS_6detail12DenseMapPairIS1_SA_EEEE"
    },
    {
     "referenced_type" : "_ZTIj"
    }
   ],
   "return_type" : "_ZTIv",
   "source_file" : "external/llvm/include/llvm/ADT/DenseMap.h"
  },
  {
   "function_name" : "llvm::SmallDenseMap<void *, std::__1::pair<llvm::PointerUnion<llvm::MetadataAsValue *, llvm::Metadata *>, unsigned long long>, 4, llvm::DenseMapInfo<void *>, llvm::detail::DenseMapPair<void *, std::__1::pair<llvm::PointerUnion<llvm::MetadataAsValue *, llvm::Metadata *>, unsigned long long>>>::SmallDenseMap",
