{
 "array_types" :
 [
  {
   "alignment" : 4,
   "linker_set_key" : "_ZTIA16_j",
   "name" : "unsigned int [16]",
   "referenced_type" : "_ZTIj",
   "self_type" : "_ZTIA16_j",
   "size" : 64,
   "source_file" : "external/llvm/include/llvm/Support/MD5.h"
  },
  {
   "alignment" : 1,
   "linker_set_key" : "_ZTIA1_c",
   "name" : "char [1]",
   "referenced_type" : "_ZTIc",
   "self_type" : "_ZTIA1_c",
   "size" : 1,
   "source_file" : "external/llvm/include/llvm/Support/AlignOf.h"
  },
  {
   "alignment" : 1,
   "linker_set_key" : "_ZTIA255_N4llvm21AlignedCharArrayUnionIccccccccccEE",
   "name" : "llvm::AlignedCharArrayUnion<char, char, char, char, char, char, char, char, char, char> [255]",
   "referenced_type" : "_ZTIN4llvm21AlignedCharArrayUnionIccccccccccEE",
   "self_type" : "_ZTIA255_N4llvm21AlignedCharArrayUnionIccccccccccEE",
   "size" : 255,
   "source_file" : "external/llvm/include/llvm/ADT/SmallVector.h"
  },
  {
   "alignment" : 1,
   "linker_set_key" : "_ZTIA256_h",
   "name" : "unsigned char [256]",
   "referenced_type" : "_ZTIh",
   "self_type" : "_ZTIA256_h",
   "size" : 256,
   "source_file" : "external/llvm/include/llvm/Support/MathExtras.h"
  },
  {
   "alignment" : 1,
   "linker_set_key" : "_ZTIA2_c",
   "name" : "char [2]",
   "referenced_type" : "_ZTIc",
   "self_type" : "_ZTIA2_c",
   "size" : 2,
   "source_file" : "external/llvm/include/llvm/Support/AlignOf.h"
  },
  {
   "alignment" : 4,
   "linker_set_key" : "_ZTIA3_N4llvm21AlignedCharArrayUnionIPvcccccccccEE",
   "name" : "llvm::AlignedCharArrayUnion<void *, char, char, char, char, char, char, char, char, char> [3]",
   "referenced_type" : "_ZTIN4llvm21AlignedCharArrayUnionIPvcccccccccEE",
   "self_type" : "_ZTIA3_N4llvm21AlignedCharArrayUnionIPvcccccccccEE",
   "size" : 12,
   "source_file" : "external/llvm/include/llvm/ADT/SmallVector.h"
  },
  {
   "alignment" : 1,
   "linker_set_key" : "_ZTIA4_c",
   "name" : "char [4]",
   "referenced_type" : "_ZTIc",
   "self_type" : "_ZTIA4_c",
   "size" : 4,
   "source_file" : "external/llvm/include/llvm/Support/AlignOf.h"
  },
  {
   "alignment" : 1,
   "linker_set_key" : "_ZTIA64_c",
   "name" : "char [64]",
   "referenced_type" : "_ZTIc",
   "self_type" : "_ZTIA64_c",
   "size" : 64,
   "source_file" : "external/llvm/include/llvm/ADT/Hashing.h"
  },
  {
   "alignment" : 1,
   "linker_set_key" : "_ZTIA64_h",
   "name" : "unsigned char [64]",
   "referenced_type" : "_ZTIh",
   "self_type" : "_ZTIA64_h",
   "size" : 64,
   "source_file" : "external/llvm/include/llvm/Support/MD5.h"
  },
  {
   "alignment" : 1,
   "linker_set_key" : "_ZTIA8_c",
   "name" : "char [8]",
   "referenced_type" : "_ZTIc",
   "self_type" : "_ZTIA8_c",
   "size" : 8,
   "source_file" : "external/llvm/include/llvm/Support/AlignOf.h"
  }
 ],
 "builtin_types" :
 [
  {
   "alignment" : 1,
   "is_integral" : true,
   "linker_set_key" : "_ZTIa",
   "name" : "signed char",
   "referenced_type" : "_ZTIa",
   "self_type" : "_ZTIa",
   "size" : 1
  },
  {
   "alignment" : 1,
   "is_integral" : true,
   "is_unsigned" : true,
   "linker_set_key" : "_ZTIb",
   "name" : "bool",
   "referenced_type" : "_ZTIb",
   "self_type" : "_ZTIb",
   "size" : 1
  },
  {
   "alignment" : 1,
   "is_integral" : true,
   "is_unsigned" : true,
   "linker_set_key" : "_ZTIc",
   "name" : "char",
   "referenced_type" : "_ZTIc",
   "self_type" : "_ZTIc",
   "size" : 1
  },
  {
   "alignment" : 8,
   "linker_set_key" : "_ZTId",
   "name" : "double",
   "referenced_type" : "_ZTId",
   "self_type" : "_ZTId",
   "size" : 8
  },
  {
   "alignment" : 4,
   "linker_set_key" : "_ZTIf",
   "name" : "float",
   "referenced_type" : "_ZTIf",
   "self_type" : "_ZTIf",
   "size" : 4
  },
  {
   "alignment" : 1,
   "is_integral" : true,
   "is_unsigned" : true,
   "linker_set_key" : "_ZTIh",
   "name" : "unsigned char",
   "referenced_type" : "_ZTIh",
   "self_type" : "_ZTIh",
   "size" : 1
  },
  {
   "alignment" : 4,
   "is_integral" : true,
   "linker_set_key" : "_ZTIi",
   "name" : "int",
   "referenced_type" : "_ZTIi",
   "self_type" : "_ZTIi",
   "size" : 4
  },
  {
   "alignment" : 4,
   "is_integral" : true,
   "is_unsigned" : true,
   "linker_set_key" : "_ZTIj",
   "name" : "unsigned int",
   "referenced_type" : "_ZTIj",
   "self_type" : "_ZTIj",
   "size" : 4
  },
  {
   "alignment" : 4,
   "is_integral" : true,
   "linker_set_key" : "_ZTIl",
   "name" : "long",
   "referenced_type" : "_ZTIl",
   "self_type" : "_ZTIl",
   "size" : 4
  },
  {
   "alignment" : 4,
   "is_integral" : true,
   "is_unsigned" : true,
   "linker_set_key" : "_ZTIm",
   "name" : "unsigned long",
   "referenced_type" : "_ZTIm",
   "self_type" : "_ZTIm",
   "size" : 4
  },
  {
   "alignment" : 2,
   "is_integral" : true,
   "linker_set_key" : "_ZTIs",
   "name" : "short",
   "referenced_type" : "_ZTIs",
   "self_type" : "_ZTIs",
   "size" : 2
  },
  {
   "alignment" : 2,
   "is_integral" : true,
   "is_unsigned" : true,
   "linker_set_key" : "_ZTIt",
   "name" : "unsigned short",
   "referenced_type" : "_ZTIt",
   "self_type" : "_ZTIt",
   "size" : 2
  },
  {
   "linker_set_key" : "_ZTIv",
   "name" : "void",
   "referenced_type" : "_ZTIv",
   "self_type" : "_ZTIv"
  },
  {
   "alignment" : 8,
   "is_integral" : true,
   "linker_set_key" : "_ZTIx",
   "name" : "long long",
   "referenced_type" : "_ZTIx",
   "self_type" : "_ZTIx",
   "size" : 8
  },
  {
   "alignment" : 8,
   "is_integral" : true,
   "is_unsigned" : true,
   "linker_set_key" : "_ZTIy",
   "name" : "unsigned long long",
   "referenced_type" : "_ZTIy",
   "self_type" : "_ZTIy",
   "size" : 8
  }
 ],
 "elf_functions" : [],
 "elf_objects" : [],
 "enum_types" :
 [
  {
   "access" : "private",
   "alignment" : 4,
   "enum_fields" :
   [
    {
     "enum_field_value" : 1,
     "name" : "llvm::StructType::SCDB_HasBody"
    },
    {
     "enum_field_value" : 2,
     "name" : "llvm::StructType::SCDB_Packed"
    },
    {
     "enum_field_value" : 4,
     "name" : "llvm::StructType::SCDB_IsLiteral"
    },
    {
     "enum_field_value" : 8,
     "name" : "llvm::StructType::SCDB_IsSized"
    }
   ],
   "linker_set_key" : "_ZTIN4llvm10StructType13$SCDB_HasBodyE",
   "name" : "llvm::StructType::(anonymous enum at external/llvm/include/llvm/IR/DerivedTypes.h:201:3)",
   "referenced_type" : "_ZTIN4llvm10StructType13$SCDB_HasBodyE",
   "self_type" : "_ZTIN4llvm10StructType13$SCDB_HasBodyE",
   "size" : 4,
   "source_file" : "external/llvm/include/llvm/IR/DerivedTypes.h",
   "underlying_type" : "_ZTIj"
  },
  {
   "alignment" : 4,
   "enum_fields" :
   [
    {
     "enum_field_value" : 0,
     "name" : "llvm::GlobalValue::UnnamedAddr::None"
    },
    {
     "enum_field_value" : 1,
     "name" : "llvm::GlobalValue::UnnamedAddr::Local"
    },
    {
     "enum_field_value" : 2,
     "name" : "llvm::GlobalValue::UnnamedAddr::Global"
    }
   ],
   "linker_set_key" : "_ZTIN4llvm11GlobalValue11UnnamedAddrE",
   "name" : "llvm::GlobalValue::UnnamedAddr",
   "referenced_type" : "_ZTIN4llvm11GlobalValue11UnnamedAddrE",
   "self_type" : "_ZTIN4llvm11GlobalValue11UnnamedAddrE",
   "size" : 4,
   "source_file" : "external/llvm/include/llvm/IR/GlobalValue.h",
   "underlying_type" : "_ZTIi"
  },
  {
   "alignment" : 4,
   "enum_fields" :
   [
    {
     "enum_field_value" : 0,
     "name" : "llvm::GlobalValue::ExternalLinkage"
    },
    {
     "enum_field_value" : 1,
     "name" : "llvm::GlobalValue::AvailableExternallyLinkage"
    },
    {
     "enum_field_value" : 2,
     "name" : "llvm::GlobalValue::LinkOnceAnyLinkage"
    },
    {
     "enum_field_value" : 3,
     "name" : "llvm::GlobalValue::LinkOnceODRLinkage"
    },
    {
     "enum_field_value" : 4,
     "name" : "llvm::GlobalValue::WeakAnyLinkage"
    },
    {
     "enum_field_value" : 5,
     "name" : "llvm::GlobalValue::WeakODRLinkage"
    },
    {
     "enum_field_value" : 6,
     "name" : "llvm::GlobalValue::AppendingLinkage"
    },
    {
     "enum_field_value" : 7,
     "name" : "llvm::GlobalValue::InternalLinkage"
    },
    {
     "enum_field_value" : 8,
     "name" : "llvm::GlobalValue::PrivateLinkage"
    },
    {
     "enum_field_value" : 9,
     "name" : "llvm::GlobalValue::ExternalWeakLinkage"
    },
    {
     "enum_field_value" : 10,
     "name" : "llvm::GlobalValue::CommonLinkage"
    }
   ],
   "linker_set_key" : "_ZTIN4llvm11GlobalValue12LinkageTypesE",
   "name" : "llvm::GlobalValue::LinkageTypes",
   "referenced_type" : "_ZTIN4llvm11GlobalValue12LinkageTypesE",
   "self_type" : "_ZTIN4llvm11GlobalValue12LinkageTypesE",
   "size" : 4,
   "source_file" : "external/llvm/include/llvm/IR/GlobalValue.h",
   "underlying_type" : "_ZTIj"
  },
  {
   "alignment" : 4,
   "enum_fields" :
   [
    {
     "enum_field_value" : 0,
     "name" : "llvm::GlobalValue::NotThreadLocal"
    },
    {
     "enum_field_value" : 1,
     "name" : "llvm::GlobalValue::GeneralDynamicTLSModel"
    },
    {
     "enum_field_value" : 2,
     "name" : "llvm::GlobalValue::LocalDynamicTLSModel"
    },
    {
     "enum_field_value" : 3,
     "name" : "llvm::GlobalValue::InitialExecTLSModel"
    },
    {
     "enum_field_value" : 4,
     "name" : "llvm::GlobalValue::LocalExecTLSModel"
    }
   ],
   "linker_set_key" : "_ZTIN4llvm11GlobalValue15ThreadLocalModeE",
   "name" : "llvm::GlobalValue::ThreadLocalMode",
   "referenced_type" : "_ZTIN4llvm11GlobalValue15ThreadLocalModeE",
   "self_type" : "_ZTIN4llvm11GlobalValue15ThreadLocalModeE",
   "size" : 4,
   "source_file" : "external/llvm/include/llvm/IR/GlobalValue.h",
   "underlying_type" : "_ZTIj"
  },
  {
   "alignment" : 4,
   "enum_fields" :
   [
    {
     "enum_field_value" : 0,
     "name" : "llvm::GlobalValue::DefaultVisibility"
    },
    {
     "enum_field_value" : 1,
     "name" : "llvm::GlobalValue::HiddenVisibility"
    },
    {
     "enum_field_value" : 2,
     "name" : "llvm::GlobalValue::ProtectedVisibility"
    }
   ],
   "linker_set_key" : "_ZTIN4llvm11GlobalValue15VisibilityTypesE",
   "name" : "llvm::GlobalValue::VisibilityTypes",
   "referenced_type" : "_ZTIN4llvm11GlobalValue15VisibilityTypesE",
   "self_type" : "_ZTIN4llvm11GlobalValue15VisibilityTypesE",
   "size" : 4,
   "source_file" : "external/llvm/include/llvm/IR/GlobalValue.h",
   "underlying_type" : "_ZTIj"
  },
  {
   "alignment" : 4,
   "enum_fields" :
   [
    {
     "enum_field_value" : 0,
     "name" : "llvm::GlobalValue::DefaultStorageClass"
    },
    {
     "enum_field_value" : 1,
     "name" : "llvm::GlobalValue::DLLImportStorageClass"
    },
    {
     "enum_field_value" : 2,
     "name" : "llvm::GlobalValue::DLLExportStorageClass"
    }
   ],
   "linker_set_key" : "_ZTIN4llvm11GlobalValue20DLLStorageClassTypesE",
   "name" : "llvm::GlobalValue::DLLStorageClassTypes",
   "referenced_type" : "_ZTIN4llvm11GlobalValue20DLLStorageClassTypesE",
   "self_type" : "_ZTIN4llvm11GlobalValue20DLLStorageClassTypesE",
   "size" : 4,
   "source_file" : "external/llvm/include/llvm/IR/GlobalValue.h",
   "underlying_type" : "_ZTIj"
  },
  {
   "alignment" : 4,
   "enum_fields" :
   [
    {
     "enum_field_value" : 1,
     "name" : "llvm::IntegerType::MIN_INT_BITS"
    },
    {
     "enum_field_value" : 8388607,
     "name" : "llvm::IntegerType::MAX_INT_BITS"
    }
   ],
   "linker_set_key" : "_ZTIN4llvm11IntegerType13$MAX_INT_BITSE",
   "name" : "llvm::IntegerType::(anonymous enum at external/llvm/include/llvm/IR/DerivedTypes.h:47:3)",
   "referenced_type" : "_ZTIN4llvm11IntegerType13$MAX_INT_BITSE",
   "self_type" : "_ZTIN4llvm11IntegerType13$MAX_INT_BITSE",
   "size" : 4,
   "source_file" : "external/llvm/include/llvm/IR/DerivedTypes.h",
   "underlying_type" : "_ZTIj"
  },
  {
   "access" : "private",
   "alignment" : 4,
   "enum_fields" :
   [
    {
     "enum_field_value" : 0,
     "name" : "llvm::raw_ostream::Unbuffered"
    },
    {
     "enum_field_value" : 1,
     "name" : "llvm::raw_ostream::InternalBuffer"
    },
    {
     "enum_field_value" : 2,
     "name" : "llvm::raw_ostream::ExternalBuffer"
    }
   ],
   "linker_set_key" : "_ZTIN4llvm11raw_ostream10BufferKindE",
   "name" : "llvm::raw_ostream::BufferKind",
   "referenced_type" : "_ZTIN4llvm11raw_ostream10BufferKindE",
   "self_type" : "_ZTIN4llvm11raw_ostream10BufferKindE",
   "size" : 4,
   "source_file" : "external/llvm/include/llvm/Support/raw_ostream.h",
   "underlying_type" : "_ZTIj"
  },
  {
   "alignment" : 4,
   "enum_fields" :
   [
    {
     "enum_field_value" : 0,
     "name" : "llvm::raw_ostream::BLACK"
    },
    {
     "enum_field_value" : 1,
     "name" : "llvm::raw_ostream::RED"
    },
    {
     "enum_field_value" : 2,
     "name" : "llvm::raw_ostream::GREEN"
    },
    {
     "enum_field_value" : 3,
     "name" : "llvm::raw_ostream::YELLOW"
    },
    {
     "enum_field_value" : 4,
     "name" : "llvm::raw_ostream::BLUE"
    },
    {
     "enum_field_value" : 5,
     "name" : "llvm::raw_ostream::MAGENTA"
    },
    {
     "enum_field_value" : 6,
     "name" : "llvm::raw_ostream::CYAN"
    },
    {
     "enum_field_value" : 7,
     "name" : "llvm::raw_ostream::WHITE"
    },
    {
     "enum_field_value" : 8,
     "name" : "llvm::raw_ostream::SAVEDCOLOR"
    }
   ],
   "linker_set_key" : "_ZTIN4llvm11raw_ostream6ColorsE",
   "name" : "llvm::raw_ostream::Colors",
   "referenced_type" : "_ZTIN4llvm11raw_ostream6ColorsE",
   "self_type" : "_ZTIN4llvm11raw_ostream6ColorsE",
   "size" : 4,
   "source_file" : "external/llvm/include/llvm/Support/raw_ostream.h",
   "underlying_type" : "_ZTIj"
  },
  {
   "alignment" : 4,
   "enum_fields" :
   [
    {
     "enum_field_value" : 0,
     "name" : "llvm::ZB_Undefined"
    },
    {
     "enum_field_value" : 1,
     "name" : "llvm::ZB_Max"
    },
    {
     "enum_field_value" : 2,
     "name" : "llvm::ZB_Width"
    }
   ],
   "linker_set_key" : "_ZTIN4llvm12ZeroBehaviorE",
   "name" : "llvm::ZeroBehavior",
   "referenced_type" : "_ZTIN4llvm12ZeroBehaviorE",
   "self_type" : "_ZTIN4llvm12ZeroBehaviorE",
   "size" : 4,
   "source_file" : "external/llvm/include/llvm/Support/MathExtras.h",
   "underlying_type" : "_ZTIj"
  },
  {
   "alignment" : 4,
   "enum_fields" :
   [
    {
     "enum_field_value" : 0,
     "name" : "llvm::lfExactlyZero"
    },
    {
     "enum_field_value" : 1,
     "name" : "llvm::lfLessThanHalf"
    },
    {
     "enum_field_value" : 2,
     "name" : "llvm::lfExactlyHalf"
    },
    {
     "enum_field_value" : 3,
     "name" : "llvm::lfMoreThanHalf"
    }
   ],
   "linker_set_key" : "_ZTIN4llvm12lostFractionE",
   "name" : "llvm::lostFraction",
   "referenced_type" : "_ZTIN4llvm12lostFractionE",
   "self_type" : "_ZTIN4llvm12lostFractionE",
   "size" : 4,
   "source_file" : "external/llvm/include/llvm/ADT/APFloat.h",
   "underlying_type" : "_ZTIj"
  },
  {
   "alignment" : 4,
   "enum_fields" :
   [
    {
     "enum_field_value" : -4,
     "name" : "llvm::PointerIntPairInfo<llvm::Use **, 2, llvm::PointerLikeTypeTraits<llvm::Use **>>::PointerBitMask"
    },
    {
     "enum_field_value" : 0,
     "name" : "llvm::PointerIntPairInfo<llvm::Use **, 2, llvm::PointerLikeTypeTraits<llvm::Use **>>::IntShift"
    },
    {
     "enum_field_value" : 3,
     "name" : "llvm::PointerIntPairInfo<llvm::Use **, 2, llvm::PointerLikeTypeTraits<llvm::Use **>>::IntMask"
    },
    {
     "enum_field_value" : 3,
     "name" : "llvm::PointerIntPairInfo<llvm::Use **, 2, llvm::PointerLikeTypeTraits<llvm::Use **>>::ShiftedIntMask"
    }
   ],
   "linker_set_key" : "_ZTIN4llvm18PointerIntPairInfoIPPNS_3UseELj2ENS_21PointerLikeTypeTraitsIS3_EEE8$IntMaskE",
   "name" : "llvm::PointerIntPairInfo<Use **, 2, PointerLikeTypeTraits<Use **>>::(anonymous enum at external/llvm/include/llvm/ADT/PointerIntPair.h:131:3)",
   "referenced_type" : "_ZTIN4llvm18PointerIntPairInfoIPPNS_3UseELj2ENS_21PointerLikeTypeTraitsIS3_EEE8$IntMaskE",
   "self_type" : "_ZTIN4llvm18PointerIntPairInfoIPPNS_3UseELj2ENS_21PointerLikeTypeTraitsIS3_EEE8$IntMaskE",
   "size" : 4,
   "source_file" : "external/llvm/include/llvm/ADT/PointerIntPair.h",
   "underlying_type" : "_ZTIj"
  },
  {
   "access" : "protected",
   "alignment" : 4,
   "enum_fields" :
   [
    {
     "enum_field_value" : 1,
     "name" : "llvm::iterator_facade_base<llvm::User::value_op_iterator, std::__1::random_access_iterator_tag, llvm::Value *, int, llvm::Value *, llvm::Value *>::IsRandomAccess"
    },
    {
     "enum_field_value" : 1,
     "name" : "llvm::iterator_facade_base<llvm::User::value_op_iterator, std::__1::random_access_iterator_tag, llvm::Value *, int, llvm::Value *, llvm::Value *>::IsBidirectional"
    }
   ],
   "linker_set_key" : "_ZTIN4llvm20iterator_facade_baseINS_4User17value_op_iteratorENSt3__126random_access_iterator_tagEPNS_5ValueEiS6_S6_E16$IsBidirectionalE",
   "name" : "llvm::iterator_facade_base<value_op_iterator, random_access_iterator_tag, Value *, int, Value *, Value *>::(anonymous enum at external/llvm/include/llvm/ADT/iterator.h:42:3)",
   "referenced_type" : "_ZTIN4llvm20iterator_facade_baseINS_4User17value_op_iteratorENSt3__126random_access_iterator_tagEPNS_5ValueEiS6_S6_E16$IsBidirectionalE",
   "self_type" : "_ZTIN4llvm20iterator_facade_baseINS_4User17value_op_iteratorENSt3__126random_access_iterator_tagEPNS_5ValueEiS6_S6_E16$IsBidirectionalE",
   "size" : 4,
   "source_file" : "external/llvm/include/llvm/ADT/iterator.h",
   "underlying_type" : "_ZTIj"
  },
  {
   "alignment" : 4,
   "enum_fields" :
   [
    {
     "enum_field_value" : 2,
     "name" : "llvm::PointerLikeTypeTraits<llvm::StringMapEntryBase *>::NumLowBitsAvailable"
    }
   ],
   "linker_set_key" : "_ZTIN4llvm21PointerLikeTypeTraitsIPNS_18StringMapEntryBaseEE20$NumLowBitsAvailableE",
   "name" : "llvm::PointerLikeTypeTraits<StringMapEntryBase *>::(anonymous enum at external/llvm/include/llvm/Support/PointerLikeTypeTraits.h:45:3)",
   "referenced_type" : "_ZTIN4llvm21PointerLikeTypeTraitsIPNS_18StringMapEntryBaseEE20$NumLowBitsAvailableE",
   "self_type" : "_ZTIN4llvm21PointerLikeTypeTraitsIPNS_18StringMapEntryBaseEE20$NumLowBitsAvailableE",
   "size" : 4,
   "source_file" : "external/llvm/include/llvm/Support/PointerLikeTypeTraits.h",
   "underlying_type" : "_ZTIj"
  },
  {
   "alignment" : 4,
   "enum_fields" :
   [
    {
     "enum_field_value" : 2,
     "name" : "llvm::PointerLikeTypeTraits<llvm::Value *>::NumLowBitsAvailable"
    }
   ],
   "linker_set_key" : "_ZTIN4llvm21PointerLikeTypeTraitsIPNS_5ValueEE20$NumLowBitsAvailableE",
   "name" : "llvm::PointerLikeTypeTraits<Value *>::(anonymous enum at external/llvm/include/llvm/IR/Value.h:795:3)",
   "referenced_type" : "_ZTIN4llvm21PointerLikeTypeTraitsIPNS_5ValueEE20$NumLowBitsAvailableE",
   "self_type" : "_ZTIN4llvm21PointerLikeTypeTraitsIPNS_5ValueEE20$NumLowBitsAvailableE",
   "size" : 4,
   "source_file" : "external/llvm/include/llvm/IR/Value.h",
   "underlying_type" : "_ZTIj"
  },
  {
   "alignment" : 4,
   "enum_fields" :
   [
    {
     "enum_field_value" : 2,
     "name" : "llvm::PointerLikeTypeTraits<llvm::Use **>::NumLowBitsAvailable"
    }
   ],
   "linker_set_key" : "_ZTIN4llvm21PointerLikeTypeTraitsIPPNS_3UseEE20$NumLowBitsAvailableE",
   "name" : "llvm::PointerLikeTypeTraits<Use **>::(anonymous enum at external/llvm/include/llvm/IR/Use.h:46:3)",
   "referenced_type" : "_ZTIN4llvm21PointerLikeTypeTraitsIPPNS_3UseEE20$NumLowBitsAvailableE",
   "self_type" : "_ZTIN4llvm21PointerLikeTypeTraitsIPPNS_3UseEE20$NumLowBitsAvailableE",
   "size" : 4,
   "source_file" : "external/llvm/include/llvm/IR/Use.h",
   "underlying_type" : "_ZTIj"
  },
  {
   "alignment" : 4,
   "enum_fields" :
   [
    {
     "enum_field_value" : 2,
     "name" : "llvm::PointerLikeTypeTraits<void *>::NumLowBitsAvailable"
    }
   ],
   "linker_set_key" : "_ZTIN4llvm21PointerLikeTypeTraitsIPvE20$NumLowBitsAvailableE",
   "name" : "llvm::PointerLikeTypeTraits<void *>::(anonymous enum at external/llvm/include/llvm/Support/PointerLikeTypeTraits.h:62:3)",
   "referenced_type" : "_ZTIN4llvm21PointerLikeTypeTraitsIPvE20$NumLowBitsAvailableE",
   "self_type" : "_ZTIN4llvm21PointerLikeTypeTraitsIPvE20$NumLowBitsAvailableE",
   "size" : 4,
   "source_file" : "external/llvm/include/llvm/Support/PointerLikeTypeTraits.h",
   "underlying_type" : "_ZTIj"
  },
  {
   "alignment" : 4,
   "enum_fields" :
   [
    {
     "enum_field_value" : 0,
     "name" : "llvm::PointerLikeTypeTraits<unsigned int>::NumLowBitsAvailable"
    }
   ],
   "linker_set_key" : "_ZTIN4llvm21PointerLikeTypeTraitsIjE20$NumLowBitsAvailableE",
   "name" : "llvm::PointerLikeTypeTraits<uintptr_t>::(anonymous enum at external/llvm/include/llvm/Support/PointerLikeTypeTraits.h:89:3)",
   "referenced_type" : "_ZTIN4llvm21PointerLikeTypeTraitsIjE20$NumLowBitsAvailableE",
   "self_type" : "_ZTIN4llvm21PointerLikeTypeTraitsIjE20$NumLowBitsAvailableE",
   "size" : 4,
   "source_file" : "external/llvm/include/llvm/Support/PointerLikeTypeTraits.h",
   "underlying_type" : "_ZTIj"
  },
  {
   "access" : "private",
   "alignment" : 4,
   "enum_fields" :
   [
    {
     "enum_field_value" : 0,
     "name" : "llvm::Use::zeroDigitTag"
    },
    {
     "enum_field_value" : 1,
     "name" : "llvm::Use::oneDigitTag"
    },
    {
     "enum_field_value" : 2,
     "name" : "llvm::Use::stopTag"
    },
    {
     "enum_field_value" : 3,
     "name" : "llvm::Use::fullStopTag"
    }
   ],
   "linker_set_key" : "_ZTIN4llvm3Use10PrevPtrTagE",
   "name" : "llvm::Use::PrevPtrTag",
   "referenced_type" : "_ZTIN4llvm3Use10PrevPtrTagE",
   "self_type" : "_ZTIN4llvm3Use10PrevPtrTagE",
   "size" : 4,
   "source_file" : "external/llvm/include/llvm/IR/Use.h",
   "underlying_type" : "_ZTIj"
  },
  {
   "alignment" : 4,
   "enum_fields" :
   [
    {
     "enum_field_value" : 16777216,
     "name" : "llvm::sys::Memory::MF_READ"
    },
    {
     "enum_field_value" : 33554432,
     "name" : "llvm::sys::Memory::MF_WRITE"
    },
    {
     "enum_field_value" : 67108864,
     "name" : "llvm::sys::Memory::MF_EXEC"
    }
   ],
   "linker_set_key" : "_ZTIN4llvm3sys6Memory15ProtectionFlagsE",
   "name" : "llvm::sys::Memory::ProtectionFlags",
   "referenced_type" : "_ZTIN4llvm3sys6Memory15ProtectionFlagsE",
   "self_type" : "_ZTIN4llvm3sys6Memory15ProtectionFlagsE",
   "size" : 4,
   "source_file" : "external/llvm/include/llvm/Support/Memory.h",
   "underlying_type" : "_ZTIj"
  },
  {
   "alignment" : 4,
   "enum_fields" :
   [
    {
     "enum_field_value" : 0,
     "name" : "llvm::Type::VoidTyID"
    },
    {
     "enum_field_value" : 1,
     "name" : "llvm::Type::HalfTyID"
    },
    {
     "enum_field_value" : 2,
     "name" : "llvm::Type::FloatTyID"
    },
    {
     "enum_field_value" : 3,
     "name" : "llvm::Type::DoubleTyID"
    },
    {
     "enum_field_value" : 4,
     "name" : "llvm::Type::X86_FP80TyID"
    },
    {
     "enum_field_value" : 5,
     "name" : "llvm::Type::FP128TyID"
    },
    {
     "enum_field_value" : 6,
     "name" : "llvm::Type::PPC_FP128TyID"
    },
    {
     "enum_field_value" : 7,
     "name" : "llvm::Type::LabelTyID"
    },
    {
     "enum_field_value" : 8,
     "name" : "llvm::Type::MetadataTyID"
    },
    {
     "enum_field_value" : 9,
     "name" : "llvm::Type::X86_MMXTyID"
    },
    {
     "enum_field_value" : 10,
     "name" : "llvm::Type::TokenTyID"
    },
    {
     "enum_field_value" : 11,
     "name" : "llvm::Type::IntegerTyID"
    },
    {
     "enum_field_value" : 12,
     "name" : "llvm::Type::FunctionTyID"
    },
    {
     "enum_field_value" : 13,
     "name" : "llvm::Type::StructTyID"
    },
    {
     "enum_field_value" : 14,
     "name" : "llvm::Type::ArrayTyID"
    },
    {
     "enum_field_value" : 15,
     "name" : "llvm::Type::PointerTyID"
    },
    {
     "enum_field_value" : 16,
     "name" : "llvm::Type::VectorTyID"
    }
   ],
   "linker_set_key" : "_ZTIN4llvm4Type6TypeIDE",
   "name" : "llvm::Type::TypeID",
   "referenced_type" : "_ZTIN4llvm4Type6TypeIDE",
   "self_type" : "_ZTIN4llvm4Type6TypeIDE",
   "size" : 4,
   "source_file" : "external/llvm/include/llvm/IR/Type.h",
   "underlying_type" : "_ZTIj"
  },
  {
   "access" : "private",
   "alignment" : 4,
   "enum_fields" :
   [
    {
     "enum_field_value" : 64,
     "name" : "llvm::APInt::APINT_BITS_PER_WORD"
    },
    {
     "enum_field_value" : 8,
     "name" : "llvm::APInt::APINT_WORD_SIZE"
    }
   ],
   "linker_set_key" : "_ZTIN4llvm5APInt20$APINT_BITS_PER_WORDE",
   "name" : "llvm::APInt::(anonymous enum at external/llvm/include/llvm/ADT/APInt.h:84:3)",
   "referenced_type" : "_ZTIN4llvm5APInt20$APINT_BITS_PER_WORDE",
   "self_type" : "_ZTIN4llvm5APInt20$APINT_BITS_PER_WORDE",
   "size" : 4,
   "source_file" : "external/llvm/include/llvm/ADT/APInt.h",
   "underlying_type" : "_ZTIj"
  },
  {
   "access" : "protected",
   "alignment" : 4,
   "enum_fields" :
   [
    {
     "enum_field_value" : 28,
     "name" : "llvm::Value::NumUserOperandsBits"
    }
   ],
   "linker_set_key" : "_ZTIN4llvm5Value20$NumUserOperandsBitsE",
   "name" : "llvm::Value::(anonymous enum at external/llvm/include/llvm/IR/Value.h:109:3)",
   "referenced_type" : "_ZTIN4llvm5Value20$NumUserOperandsBitsE",
   "self_type" : "_ZTIN4llvm5Value20$NumUserOperandsBitsE",
   "size" : 4,
   "source_file" : "external/llvm/include/llvm/IR/Value.h",
   "underlying_type" : "_ZTIj"
  },
  {
   "alignment" : 4,
   "enum_fields" :
   [
    {
     "enum_field_value" : 0,
     "name" : "llvm::Value::ArgumentVal"
    },
    {
     "enum_field_value" : 1,
     "name" : "llvm::Value::BasicBlockVal"
    },
    {
     "enum_field_value" : 2,
     "name" : "llvm::Value::MemoryUseVal"
    },
    {
     "enum_field_value" : 3,
     "name" : "llvm::Value::MemoryDefVal"
    },
    {
     "enum_field_value" : 4,
     "name" : "llvm::Value::MemoryPhiVal"
    },
    {
     "enum_field_value" : 5,
     "name" : "llvm::Value::FunctionVal"
    },
    {
     "enum_field_value" : 6,
     "name" : "llvm::Value::GlobalAliasVal"
    },
    {
     "enum_field_value" : 7,
     "name" : "llvm::Value::GlobalIFuncVal"
    },
    {
     "enum_field_value" : 8,
     "name" : "llvm::Value::GlobalVariableVal"
    },
    {
     "enum_field_value" : 9,
     "name" : "llvm::Value::BlockAddressVal"
    },
    {
     "enum_field_value" : 10,
     "name" : "llvm::Value::ConstantExprVal"
    },
    {
     "enum_field_value" : 11,
     "name" : "llvm::Value::ConstantArrayVal"
    },
    {
     "enum_field_value" : 12,
     "name" : "llvm::Value::ConstantStructVal"
    },
    {
     "enum_field_value" : 13,
     "name" : "llvm::Value::ConstantVectorVal"
    },
    {
     "enum_field_value" : 14,
     "name" : "llvm::Value::UndefValueVal"
    },
    {
     "enum_field_value" : 15,
     "name" : "llvm::Value::ConstantAggregateZeroVal"
    },
    {
     "enum_field_value" : 16,
     "name" : "llvm::Value::ConstantDataArrayVal"
    },
    {
     "enum_field_value" : 17,
     "name" : "llvm::Value::ConstantDataVectorVal"
    },
    {
     "enum_field_value" : 18,
     "name" : "llvm::Value::ConstantIntVal"
    },
    {
     "enum_field_value" : 19,
     "name" : "llvm::Value::ConstantFPVal"
    },
    {
     "enum_field_value" : 20,
     "name" : "llvm::Value::ConstantPointerNullVal"
    },
    {
     "enum_field_value" : 21,
     "name" : "llvm::Value::ConstantTokenNoneVal"
    },
    {
     "enum_field_value" : 22,
     "name" : "llvm::Value::MetadataAsValueVal"
    },
    {
     "enum_field_value" : 23,
     "name" : "llvm::Value::InlineAsmVal"
    },
    {
     "enum_field_value" : 24,
     "name" : "llvm::Value::InstructionVal"
    },
    {
     "enum_field_value" : 5,
     "name" : "llvm::Value::ConstantFirstVal"
    },
    {
     "enum_field_value" : 21,
     "name" : "llvm::Value::ConstantLastVal"
    },
    {
     "enum_field_value" : 14,
     "name" : "llvm::Value::ConstantDataFirstVal"
    },
    {
     "enum_field_value" : 21,
     "name" : "llvm::Value::ConstantDataLastVal"
    },
    {
     "enum_field_value" : 11,
     "name" : "llvm::Value::ConstantAggregateFirstVal"
    },
    {
     "enum_field_value" : 13,
     "name" : "llvm::Value::ConstantAggregateLastVal"
    }
   ],
   "linker_set_key" : "_ZTIN4llvm5Value7ValueTyE",
   "name" : "llvm::Value::ValueTy",
   "referenced_type" : "_ZTIN4llvm5Value7ValueTyE",
   "self_type" : "_ZTIN4llvm5Value7ValueTyE",
   "size" : 4,
   "source_file" : "external/llvm/include/llvm/IR/Value.h",
   "underlying_type" : "_ZTIj"
  },
  {
   "alignment" : 4,
   "enum_fields" :
   [
    {
     "enum_field_value" : 0,
     "name" : "llvm::APFloat::fcInfinity"
    },
    {
     "enum_field_value" : 1,
     "name" : "llvm::APFloat::fcNaN"
    },
    {
     "enum_field_value" : 2,
     "name" : "llvm::APFloat::fcNormal"
    },
    {
     "enum_field_value" : 3,
     "name" : "llvm::APFloat::fcZero"
    }
   ],
   "linker_set_key" : "_ZTIN4llvm7APFloat11fltCategoryE",
   "name" : "llvm::APFloat::fltCategory",
   "referenced_type" : "_ZTIN4llvm7APFloat11fltCategoryE",
   "self_type" : "_ZTIN4llvm7APFloat11fltCategoryE",
   "size" : 4,
   "source_file" : "external/llvm/include/llvm/ADT/APFloat.h",
   "underlying_type" : "_ZTIj"
  },
  {
   "alignment" : 4,
   "enum_fields" :
   [
    {
     "enum_field_value" : 0,
     "name" : "llvm::APFloat::rmNearestTiesToEven"
    },
    {
     "enum_field_value" : 1,
     "name" : "llvm::APFloat::rmTowardPositive"
    },
    {
     "enum_field_value" : 2,
     "name" : "llvm::APFloat::rmTowardNegative"
    },
    {
     "enum_field_value" : 3,
     "name" : "llvm::APFloat::rmTowardZero"
    },
    {
     "enum_field_value" : 4,
     "name" : "llvm::APFloat::rmNearestTiesToAway"
    }
   ],
   "linker_set_key" : "_ZTIN4llvm7APFloat12roundingModeE",
   "name" : "llvm::APFloat::roundingMode",
   "referenced_type" : "_ZTIN4llvm7APFloat12roundingModeE",
   "self_type" : "_ZTIN4llvm7APFloat12roundingModeE",
   "size" : 4,
   "source_file" : "external/llvm/include/llvm/ADT/APFloat.h",
   "underlying_type" : "_ZTIj"
  },
  {
   "alignment" : 4,
   "enum_fields" :
   [
    {
     "enum_field_value" : -2147483647,
     "name" : "llvm::APFloat::IEK_Zero"
    },
    {
     "enum_field_value" : -2147483648,
     "name" : "llvm::APFloat::IEK_NaN"
    },
    {
     "enum_field_value" : 2147483647,
     "name" : "llvm::APFloat::IEK_Inf"
    }
   ],
   "linker_set_key" : "_ZTIN4llvm7APFloat15IlogbErrorKindsE",
   "name" : "llvm::APFloat::IlogbErrorKinds",
   "referenced_type" : "_ZTIN4llvm7APFloat15IlogbErrorKindsE",
   "self_type" : "_ZTIN4llvm7APFloat15IlogbErrorKindsE",
   "size" : 4,
   "source_file" : "external/llvm/include/llvm/ADT/APFloat.h",
   "underlying_type" : "_ZTIi"
  },
  {
   "alignment" : 4,
   "enum_fields" :
   [
    {
     "enum_field_value" : 0,
     "name" : "llvm::APFloat::uninitialized"
    }
   ],
   "linker_set_key" : "_ZTIN4llvm7APFloat16uninitializedTagE",
   "name" : "llvm::APFloat::uninitializedTag",
   "referenced_type" : "_ZTIN4llvm7APFloat16uninitializedTagE",
   "self_type" : "_ZTIN4llvm7APFloat16uninitializedTagE",
   "size" : 4,
   "source_file" : "external/llvm/include/llvm/ADT/APFloat.h",
   "underlying_type" : "_ZTIj"
  },
  {
   "alignment" : 4,
   "enum_fields" :
   [
    {
     "enum_field_value" : 0,
     "name" : "llvm::APFloat::opOK"
    },
    {
     "enum_field_value" : 1,
     "name" : "llvm::APFloat::opInvalidOp"
    },
    {
     "enum_field_value" : 2,
     "name" : "llvm::APFloat::opDivByZero"
    },
    {
     "enum_field_value" : 4,
     "name" : "llvm::APFloat::opOverflow"
    },
    {
     "enum_field_value" : 8,
     "name" : "llvm::APFloat::opUnderflow"
    },
    {
     "enum_field_value" : 16,
     "name" : "llvm::APFloat::opInexact"
    }
   ],
   "linker_set_key" : "_ZTIN4llvm7APFloat8opStatusE",
   "name" : "llvm::APFloat::opStatus",
   "referenced_type" : "_ZTIN4llvm7APFloat8opStatusE",
   "self_type" : "_ZTIN4llvm7APFloat8opStatusE",
   "size" : 4,
   "source_file" : "external/llvm/include/llvm/ADT/APFloat.h",
   "underlying_type" : "_ZTIj"
  },
  {
   "alignment" : 4,
   "enum_fields" :
   [
    {
     "enum_field_value" : 0,
     "name" : "llvm::APFloat::cmpLessThan"
    },
    {
     "enum_field_value" : 1,
     "name" : "llvm::APFloat::cmpEqual"
    },
    {
     "enum_field_value" : 2,
     "name" : "llvm::APFloat::cmpGreaterThan"
    },
    {
     "enum_field_value" : 3,
     "name" : "llvm::APFloat::cmpUnordered"
    }
   ],
   "linker_set_key" : "_ZTIN4llvm7APFloat9cmpResultE",
   "name" : "llvm::APFloat::cmpResult",
   "referenced_type" : "_ZTIN4llvm7APFloat9cmpResultE",
   "self_type" : "_ZTIN4llvm7APFloat9cmpResultE",
   "size" : 4,
   "source_file" : "external/llvm/include/llvm/ADT/APFloat.h",
   "underlying_type" : "_ZTIj"
  },
  {
   "alignment" : 4,
   "enum_fields" :
   [
    {
     "enum_field_value" : 0,
     "name" : "llvm::AlignOf<llvm::FunctionType>::Alignment_LessEqual_2Bytes"
    }
   ],
   "linker_set_key" : "_ZTIN4llvm7AlignOfINS_12FunctionTypeEE27$Alignment_LessEqual_2BytesE",
   "name" : "llvm::AlignOf<FunctionType>::(anonymous enum at external/llvm/include/llvm/Support/AlignOf.h:91:3)",
   "referenced_type" : "_ZTIN4llvm7AlignOfINS_12FunctionTypeEE27$Alignment_LessEqual_2BytesE",
   "self_type" : "_ZTIN4llvm7AlignOfINS_12FunctionTypeEE27$Alignment_LessEqual_2BytesE",
   "size" : 4,
   "source_file" : "external/llvm/include/llvm/Support/AlignOf.h",
   "underlying_type" : "_ZTIj"
  },
  {
   "alignment" : 4,
   "enum_fields" :
   [
    {
     "enum_field_value" : 1,
     "name" : "llvm::AlignOf<llvm::FunctionType>::Alignment_LessEqual_4Bytes"
    }
   ],
   "linker_set_key" : "_ZTIN4llvm7AlignOfINS_12FunctionTypeEE27$Alignment_LessEqual_4BytesE",
   "name" : "llvm::AlignOf<FunctionType>::(anonymous enum at external/llvm/include/llvm/Support/AlignOf.h:92:3)",
   "referenced_type" : "_ZTIN4llvm7AlignOfINS_12FunctionTypeEE27$Alignment_LessEqual_4BytesE",
   "self_type" : "_ZTIN4llvm7AlignOfINS_12FunctionTypeEE27$Alignment_LessEqual_4BytesE",
   "size" : 4,
   "source_file" : "external/llvm/include/llvm/Support/AlignOf.h",
   "underlying_type" : "_ZTIj"
  },
  {
   "alignment" : 4,
   "enum_fields" :
   [
    {
     "enum_field_value" : 1,
     "name" : "llvm::AlignOf<llvm::FunctionType>::Alignment_LessEqual_8Bytes"
    }
   ],
   "linker_set_key" : "_ZTIN4llvm7AlignOfINS_12FunctionTypeEE27$Alignment_LessEqual_8BytesE",
   "name" : "llvm::AlignOf<FunctionType>::(anonymous enum at external/llvm/include/llvm/Support/AlignOf.h:93:3)",
   "referenced_type" : "_ZTIN4llvm7AlignOfINS_12FunctionTypeEE27$Alignment_LessEqual_8BytesE",
   "self_type" : "_ZTIN4llvm7AlignOfINS_12FunctionTypeEE27$Alignment_LessEqual_8BytesE",
   "size" : 4,
   "source_file" : "external/llvm/include/llvm/Support/AlignOf.h",
   "underlying_type" : "_ZTIj"
  },
  {
   "alignment" : 4,
   "enum_fields" :
   [
    {
     "enum_field_value" : 1,
     "name" : "llvm::AlignOf<llvm::FunctionType>::Alignment_LessEqual_16Bytes"
    }
   ],
   "linker_set_key" : "_ZTIN4llvm7AlignOfINS_12FunctionTypeEE28$Alignment_LessEqual_16BytesE",
   "name" : "llvm::AlignOf<FunctionType>::(anonymous enum at external/llvm/include/llvm/Support/AlignOf.h:94:3)",
   "referenced_type" : "_ZTIN4llvm7AlignOfINS_12FunctionTypeEE28$Alignment_LessEqual_16BytesE",
   "self_type" : "_ZTIN4llvm7AlignOfINS_12FunctionTypeEE28$Alignment_LessEqual_16BytesE",
   "size" : 4,
   "source_file" : "external/llvm/include/llvm/Support/AlignOf.h",
   "underlying_type" : "_ZTIj"
  },
  {
   "alignment" : 4,
   "enum_fields" :
   [
    {
     "enum_field_value" : 1,
     "name" : "llvm::AlignOf<llvm::FunctionType>::Alignment_GreaterEqual_2Bytes"
    }
   ],
   "linker_set_key" : "_ZTIN4llvm7AlignOfINS_12FunctionTypeEE30$Alignment_GreaterEqual_2BytesE",
   "name" : "llvm::AlignOf<FunctionType>::(anonymous enum at external/llvm/include/llvm/Support/AlignOf.h:86:3)",
   "referenced_type" : "_ZTIN4llvm7AlignOfINS_12FunctionTypeEE30$Alignment_GreaterEqual_2BytesE",
   "self_type" : "_ZTIN4llvm7AlignOfINS_12FunctionTypeEE30$Alignment_GreaterEqual_2BytesE",
   "size" : 4,
   "source_file" : "external/llvm/include/llvm/Support/AlignOf.h",
   "underlying_type" : "_ZTIj"
  },
  {
   "alignment" : 4,
   "enum_fields" :
   [
    {
     "enum_field_value" : 1,
     "name" : "llvm::AlignOf<llvm::FunctionType>::Alignment_GreaterEqual_4Bytes"
    }
   ],
   "linker_set_key" : "_ZTIN4llvm7AlignOfINS_12FunctionTypeEE30$Alignment_GreaterEqual_4BytesE",
   "name" : "llvm::AlignOf<FunctionType>::(anonymous enum at external/llvm/include/llvm/Support/AlignOf.h:87:3)",
   "referenced_type" : "_ZTIN4llvm7AlignOfINS_12FunctionTypeEE30$Alignment_GreaterEqual_4BytesE",
   "self_type" : "_ZTIN4llvm7AlignOfINS_12FunctionTypeEE30$Alignment_GreaterEqual_4BytesE",
   "size" : 4,
   "source_file" : "external/llvm/include/llvm/Support/AlignOf.h",
   "underlying_type" : "_ZTIj"
  },
  {
   "alignment" : 4,
   "enum_fields" :
   [
    {
     "enum_field_value" : 0,
     "name" : "llvm::AlignOf<llvm::FunctionType>::Alignment_GreaterEqual_8Bytes"
    }
   ],
   "linker_set_key" : "_ZTIN4llvm7AlignOfINS_12FunctionTypeEE30$Alignment_GreaterEqual_8BytesE",
   "name" : "llvm::AlignOf<FunctionType>::(anonymous enum at external/llvm/include/llvm/Support/AlignOf.h:88:3)",
   "referenced_type" : "_ZTIN4llvm7AlignOfINS_12FunctionTypeEE30$Alignment_GreaterEqual_8BytesE",
   "self_type" : "_ZTIN4llvm7AlignOfINS_12FunctionTypeEE30$Alignment_GreaterEqual_8BytesE",
   "size" : 4,
   "source_file" : "external/llvm/include/llvm/Support/AlignOf.h",
   "underlying_type" : "_ZTIj"
  },
  {
   "alignment" : 4,
   "enum_fields" :
   [
    {
     "enum_field_value" : 0,
     "name" : "llvm::AlignOf<llvm::FunctionType>::Alignment_GreaterEqual_16Bytes"
    }
   ],
   "linker_set_key" : "_ZTIN4llvm7AlignOfINS_12FunctionTypeEE31$Alignment_GreaterEqual_16BytesE",
   "name" : "llvm::AlignOf<FunctionType>::(anonymous enum at external/llvm/include/llvm/Support/AlignOf.h:89:3)",
   "referenced_type" : "_ZTIN4llvm7AlignOfINS_12FunctionTypeEE31$Alignment_GreaterEqual_16BytesE",
   "self_type" : "_ZTIN4llvm7AlignOfINS_12FunctionTypeEE31$Alignment_GreaterEqual_16BytesE",
   "size" : 4,
   "source_file" : "external/llvm/include/llvm/Support/AlignOf.h",
   "underlying_type" : "_ZTIj"
  },
  {
   "alignment" : 4,
   "enum_fields" :
   [
    {
     "enum_field_value" : 0,
     "name" : "llvm::AlignOf<llvm::StringMapEntry<llvm::Value *>>::Alignment_LessEqual_2Bytes"
    }
   ],
   "linker_set_key" : "_ZTIN4llvm7AlignOfINS_14StringMapEntryIPNS_5ValueEEEE27$Alignment_LessEqual_2BytesE",
   "name" : "llvm::AlignOf<StringMapEntry<Value *>>::(anonymous enum at external/llvm/include/llvm/Support/AlignOf.h:91:3)",
   "referenced_type" : "_ZTIN4llvm7AlignOfINS_14StringMapEntryIPNS_5ValueEEEE27$Alignment_LessEqual_2BytesE",
   "self_type" : "_ZTIN4llvm7AlignOfINS_14StringMapEntryIPNS_5ValueEEEE27$Alignment_LessEqual_2BytesE",
   "size" : 4,
   "source_file" : "external/llvm/include/llvm/Support/AlignOf.h",
   "underlying_type" : "_ZTIj"
  },
  {
   "alignment" : 4,
   "enum_fields" :
   [
    {
     "enum_field_value" : 1,
     "name" : "llvm::AlignOf<llvm::StringMapEntry<llvm::Value *>>::Alignment_LessEqual_4Bytes"
    }
   ],
   "linker_set_key" : "_ZTIN4llvm7AlignOfINS_14StringMapEntryIPNS_5ValueEEEE27$Alignment_LessEqual_4BytesE",
   "name" : "llvm::AlignOf<StringMapEntry<Value *>>::(anonymous enum at external/llvm/include/llvm/Support/AlignOf.h:92:3)",
   "referenced_type" : "_ZTIN4llvm7AlignOfINS_14StringMapEntryIPNS_5ValueEEEE27$Alignment_LessEqual_4BytesE",
   "self_type" : "_ZTIN4llvm7AlignOfINS_14StringMapEntryIPNS_5ValueEEEE27$Alignment_LessEqual_4BytesE",
   "size" : 4,
   "source_file" : "external/llvm/include/llvm/Support/AlignOf.h",
   "underlying_type" : "_ZTIj"
  },
  {
   "alignment" : 4,
   "enum_fields" :
   [
    {
     "enum_field_value" : 1,
     "name" : "llvm::AlignOf<llvm::StringMapEntry<llvm::Value *>>::Alignment_LessEqual_8Bytes"
    }
   ],
   "linker_set_key" : "_ZTIN4llvm7AlignOfINS_14StringMapEntryIPNS_5ValueEEEE27$Alignment_LessEqual_8BytesE",
   "name" : "llvm::AlignOf<StringMapEntry<Value *>>::(anonymous enum at external/llvm/include/llvm/Support/AlignOf.h:93:3)",
   "referenced_type" : "_ZTIN4llvm7AlignOfINS_14StringMapEntryIPNS_5ValueEEEE27$Alignment_LessEqual_8BytesE",
   "self_type" : "_ZTIN4llvm7AlignOfINS_14StringMapEntryIPNS_5ValueEEEE27$Alignment_LessEqual_8BytesE",
   "size" : 4,
   "source_file" : "external/llvm/include/llvm/Support/AlignOf.h",
   "underlying_type" : "_ZTIj"
  },
  {
   "alignment" : 4,
   "enum_fields" :
   [
    {
     "enum_field_value" : 1,
     "name" : "llvm::AlignOf<llvm::StringMapEntry<llvm::Value *>>::Alignment_LessEqual_16Bytes"
    }
   ],
   "linker_set_key" : "_ZTIN4llvm7AlignOfINS_14StringMapEntryIPNS_5ValueEEEE28$Alignment_LessEqual_16BytesE",
   "name" : "llvm::AlignOf<StringMapEntry<Value *>>::(anonymous enum at external/llvm/include/llvm/Support/AlignOf.h:94:3)",
   "referenced_type" : "_ZTIN4llvm7AlignOfINS_14StringMapEntryIPNS_5ValueEEEE28$Alignment_LessEqual_16BytesE",
   "self_type" : "_ZTIN4llvm7AlignOfINS_14StringMapEntryIPNS_5ValueEEEE28$Alignment_LessEqual_16BytesE",
   "size" : 4,
   "source_file" : "external/llvm/include/llvm/Support/AlignOf.h",
   "underlying_type" : "_ZTIj"
  },
  {
   "alignment" : 4,
   "enum_fields" :
   [
    {
     "enum_field_value" : 1,
     "name" : "llvm::AlignOf<llvm::StringMapEntry<llvm::Value *>>::Alignment_GreaterEqual_2Bytes"
    }
   ],
   "linker_set_key" : "_ZTIN4llvm7AlignOfINS_14StringMapEntryIPNS_5ValueEEEE30$Alignment_GreaterEqual_2BytesE",
   "name" : "llvm::AlignOf<StringMapEntry<Value *>>::(anonymous enum at external/llvm/include/llvm/Support/AlignOf.h:86:3)",
   "referenced_type" : "_ZTIN4llvm7AlignOfINS_14StringMapEntryIPNS_5ValueEEEE30$Alignment_GreaterEqual_2BytesE",
   "self_type" : "_ZTIN4llvm7AlignOfINS_14StringMapEntryIPNS_5ValueEEEE30$Alignment_GreaterEqual_2BytesE",
   "size" : 4,
   "source_file" : "external/llvm/include/llvm/Support/AlignOf.h",
   "underlying_type" : "_ZTIj"
  },
  {
   "alignment" : 4,
   "enum_fields" :
   [
    {
     "enum_field_value" : 1,
     "name" : "llvm::AlignOf<llvm::StringMapEntry<llvm::Value *>>::Alignment_GreaterEqual_4Bytes"
    }
   ],
   "linker_set_key" : "_ZTIN4llvm7AlignOfINS_14StringMapEntryIPNS_5ValueEEEE30$Alignment_GreaterEqual_4BytesE",
   "name" : "llvm::AlignOf<StringMapEntry<Value *>>::(anonymous enum at external/llvm/include/llvm/Support/AlignOf.h:87:3)",
   "referenced_type" : "_ZTIN4llvm7AlignOfINS_14StringMapEntryIPNS_5ValueEEEE30$Alignment_GreaterEqual_4BytesE",
   "self_type" : "_ZTIN4llvm7AlignOfINS_14StringMapEntryIPNS_5ValueEEEE30$Alignment_GreaterEqual_4BytesE",
   "size" : 4,
   "source_file" : "external/llvm/include/llvm/Support/AlignOf.h",
   "underlying_type" : "_ZTIj"
  },
  {
   "alignment" : 4,
   "enum_fields" :
   [
    {
     "enum_field_value" : 0,
     "name" : "llvm::AlignOf<llvm::StringMapEntry<llvm::Value *>>::Alignment_GreaterEqual_8Bytes"
    }
   ],
   "linker_set_key" : "_ZTIN4llvm7AlignOfINS_14StringMapEntryIPNS_5ValueEEEE30$Alignment_GreaterEqual_8BytesE",
   "name" : "llvm::AlignOf<StringMapEntry<Value *>>::(anonymous enum at external/llvm/include/llvm/Support/AlignOf.h:88:3)",
   "referenced_type" : "_ZTIN4llvm7AlignOfINS_14StringMapEntryIPNS_5ValueEEEE30$Alignment_GreaterEqual_8BytesE",
   "self_type" : "_ZTIN4llvm7AlignOfINS_14StringMapEntryIPNS_5ValueEEEE30$Alignment_GreaterEqual_8BytesE",
   "size" : 4,
   "source_file" : "external/llvm/include/llvm/Support/AlignOf.h",
   "underlying_type" : "_ZTIj"
  },
  {
   "alignment" : 4,
   "enum_fields" :
   [
    {
     "enum_field_value" : 0,
     "name" : "llvm::AlignOf<llvm::StringMapEntry<llvm::Value *>>::Alignment_GreaterEqual_16Bytes"
    }
   ],
   "linker_set_key" : "_ZTIN4llvm7AlignOfINS_14StringMapEntryIPNS_5ValueEEEE31$Alignment_GreaterEqual_16BytesE",
   "name" : "llvm::AlignOf<StringMapEntry<Value *>>::(anonymous enum at external/llvm/include/llvm/Support/AlignOf.h:89:3)",
   "referenced_type" : "_ZTIN4llvm7AlignOfINS_14StringMapEntryIPNS_5ValueEEEE31$Alignment_GreaterEqual_16BytesE",
   "self_type" : "_ZTIN4llvm7AlignOfINS_14StringMapEntryIPNS_5ValueEEEE31$Alignment_GreaterEqual_16BytesE",
   "size" : 4,
   "source_file" : "external/llvm/include/llvm/Support/AlignOf.h",
   "underlying_type" : "_ZTIj"
  },
  {
   "alignment" : 4,
   "enum_fields" :
   [
    {
     "enum_field_value" : 0,
     "name" : "llvm::AlignOf<llvm::StringMapEntryBase>::Alignment_LessEqual_2Bytes"
    }
   ],
   "linker_set_key" : "_ZTIN4llvm7AlignOfINS_18StringMapEntryBaseEE27$Alignment_LessEqual_2BytesE",
   "name" : "llvm::AlignOf<StringMapEntryBase>::(anonymous enum at external/llvm/include/llvm/Support/AlignOf.h:91:3)",
   "referenced_type" : "_ZTIN4llvm7AlignOfINS_18StringMapEntryBaseEE27$Alignment_LessEqual_2BytesE",
   "self_type" : "_ZTIN4llvm7AlignOfINS_18StringMapEntryBaseEE27$Alignment_LessEqual_2BytesE",
   "size" : 4,
   "source_file" : "external/llvm/include/llvm/Support/AlignOf.h",
   "underlying_type" : "_ZTIj"
  },
  {
   "alignment" : 4,
   "enum_fields" :
   [
    {
     "enum_field_value" : 1,
     "name" : "llvm::AlignOf<llvm::StringMapEntryBase>::Alignment_LessEqual_4Bytes"
    }
   ],
   "linker_set_key" : "_ZTIN4llvm7AlignOfINS_18StringMapEntryBaseEE27$Alignment_LessEqual_4BytesE",
   "name" : "llvm::AlignOf<StringMapEntryBase>::(anonymous enum at external/llvm/include/llvm/Support/AlignOf.h:92:3)",
   "referenced_type" : "_ZTIN4llvm7AlignOfINS_18StringMapEntryBaseEE27$Alignment_LessEqual_4BytesE",
   "self_type" : "_ZTIN4llvm7AlignOfINS_18StringMapEntryBaseEE27$Alignment_LessEqual_4BytesE",
   "size" : 4,
   "source_file" : "external/llvm/include/llvm/Support/AlignOf.h",
   "underlying_type" : "_ZTIj"
  },
  {
   "alignment" : 4,
   "enum_fields" :
   [
    {
     "enum_field_value" : 1,
     "name" : "llvm::AlignOf<llvm::StringMapEntryBase>::Alignment_LessEqual_8Bytes"
    }
   ],
   "linker_set_key" : "_ZTIN4llvm7AlignOfINS_18StringMapEntryBaseEE27$Alignment_LessEqual_8BytesE",
   "name" : "llvm::AlignOf<StringMapEntryBase>::(anonymous enum at external/llvm/include/llvm/Support/AlignOf.h:93:3)",
   "referenced_type" : "_ZTIN4llvm7AlignOfINS_18StringMapEntryBaseEE27$Alignment_LessEqual_8BytesE",
   "self_type" : "_ZTIN4llvm7AlignOfINS_18StringMapEntryBaseEE27$Alignment_LessEqual_8BytesE",
   "size" : 4,
   "source_file" : "external/llvm/include/llvm/Support/AlignOf.h",
   "underlying_type" : "_ZTIj"
  },
  {
   "alignment" : 4,
   "enum_fields" :
   [
    {
     "enum_field_value" : 1,
     "name" : "llvm::AlignOf<llvm::StringMapEntryBase>::Alignment_LessEqual_16Bytes"
    }
   ],
   "linker_set_key" : "_ZTIN4llvm7AlignOfINS_18StringMapEntryBaseEE28$Alignment_LessEqual_16BytesE",
   "name" : "llvm::AlignOf<StringMapEntryBase>::(anonymous enum at external/llvm/include/llvm/Support/AlignOf.h:94:3)",
   "referenced_type" : "_ZTIN4llvm7AlignOfINS_18StringMapEntryBaseEE28$Alignment_LessEqual_16BytesE",
   "self_type" : "_ZTIN4llvm7AlignOfINS_18StringMapEntryBaseEE28$Alignment_LessEqual_16BytesE",
   "size" : 4,
   "source_file" : "external/llvm/include/llvm/Support/AlignOf.h",
   "underlying_type" : "_ZTIj"
  },
  {
   "alignment" : 4,
   "enum_fields" :
   [
    {
     "enum_field_value" : 1,
     "name" : "llvm::AlignOf<llvm::StringMapEntryBase>::Alignment_GreaterEqual_2Bytes"
    }
   ],
   "linker_set_key" : "_ZTIN4llvm7AlignOfINS_18StringMapEntryBaseEE30$Alignment_GreaterEqual_2BytesE",
   "name" : "llvm::AlignOf<StringMapEntryBase>::(anonymous enum at external/llvm/include/llvm/Support/AlignOf.h:86:3)",
   "referenced_type" : "_ZTIN4llvm7AlignOfINS_18StringMapEntryBaseEE30$Alignment_GreaterEqual_2BytesE",
   "self_type" : "_ZTIN4llvm7AlignOfINS_18StringMapEntryBaseEE30$Alignment_GreaterEqual_2BytesE",
   "size" : 4,
   "source_file" : "external/llvm/include/llvm/Support/AlignOf.h",
   "underlying_type" : "_ZTIj"
  },
  {
   "alignment" : 4,
   "enum_fields" :
   [
    {
     "enum_field_value" : 1,
     "name" : "llvm::AlignOf<llvm::StringMapEntryBase>::Alignment_GreaterEqual_4Bytes"
    }
   ],
   "linker_set_key" : "_ZTIN4llvm7AlignOfINS_18StringMapEntryBaseEE30$Alignment_GreaterEqual_4BytesE",
   "name" : "llvm::AlignOf<StringMapEntryBase>::(anonymous enum at external/llvm/include/llvm/Support/AlignOf.h:87:3)",
   "referenced_type" : "_ZTIN4llvm7AlignOfINS_18StringMapEntryBaseEE30$Alignment_GreaterEqual_4BytesE",
   "self_type" : "_ZTIN4llvm7AlignOfINS_18StringMapEntryBaseEE30$Alignment_GreaterEqual_4BytesE",
   "size" : 4,
   "source_file" : "external/llvm/include/llvm/Support/AlignOf.h",
   "underlying_type" : "_ZTIj"
  },
  {
   "alignment" : 4,
   "enum_fields" :
   [
    {
     "enum_field_value" : 0,
     "name" : "llvm::AlignOf<llvm::StringMapEntryBase>::Alignment_GreaterEqual_8Bytes"
    }
   ],
   "linker_set_key" : "_ZTIN4llvm7AlignOfINS_18StringMapEntryBaseEE30$Alignment_GreaterEqual_8BytesE",
   "name" : "llvm::AlignOf<StringMapEntryBase>::(anonymous enum at external/llvm/include/llvm/Support/AlignOf.h:88:3)",
   "referenced_type" : "_ZTIN4llvm7AlignOfINS_18StringMapEntryBaseEE30$Alignment_GreaterEqual_8BytesE",
   "self_type" : "_ZTIN4llvm7AlignOfINS_18StringMapEntryBaseEE30$Alignment_GreaterEqual_8BytesE",
   "size" : 4,
   "source_file" : "external/llvm/include/llvm/Support/AlignOf.h",
   "underlying_type" : "_ZTIj"
  },
  {
   "alignment" : 4,
   "enum_fields" :
   [
    {
     "enum_field_value" : 0,
     "name" : "llvm::AlignOf<llvm::StringMapEntryBase>::Alignment_GreaterEqual_16Bytes"
    }
   ],
   "linker_set_key" : "_ZTIN4llvm7AlignOfINS_18StringMapEntryBaseEE31$Alignment_GreaterEqual_16BytesE",
   "name" : "llvm::AlignOf<StringMapEntryBase>::(anonymous enum at external/llvm/include/llvm/Support/AlignOf.h:89:3)",
   "referenced_type" : "_ZTIN4llvm7AlignOfINS_18StringMapEntryBaseEE31$Alignment_GreaterEqual_16BytesE",
   "self_type" : "_ZTIN4llvm7AlignOfINS_18StringMapEntryBaseEE31$Alignment_GreaterEqual_16BytesE",
   "size" : 4,
   "source_file" : "external/llvm/include/llvm/Support/AlignOf.h",
   "underlying_type" : "_ZTIj"
  },
  {
   "alignment" : 4,
   "enum_fields" :
   [
    {
     "enum_field_value" : 0,
     "name" : "llvm::AlignOf<llvm::Use>::Alignment_LessEqual_2Bytes"
    }
   ],
   "linker_set_key" : "_ZTIN4llvm7AlignOfINS_3UseEE27$Alignment_LessEqual_2BytesE",
   "name" : "llvm::AlignOf<Use>::(anonymous enum at external/llvm/include/llvm/Support/AlignOf.h:91:3)",
   "referenced_type" : "_ZTIN4llvm7AlignOfINS_3UseEE27$Alignment_LessEqual_2BytesE",
   "self_type" : "_ZTIN4llvm7AlignOfINS_3UseEE27$Alignment_LessEqual_2BytesE",
   "size" : 4,
   "source_file" : "external/llvm/include/llvm/Support/AlignOf.h",
   "underlying_type" : "_ZTIj"
  },
  {
   "alignment" : 4,
   "enum_fields" :
   [
    {
     "enum_field_value" : 1,
     "name" : "llvm::AlignOf<llvm::Use>::Alignment_LessEqual_4Bytes"
    }
   ],
   "linker_set_key" : "_ZTIN4llvm7AlignOfINS_3UseEE27$Alignment_LessEqual_4BytesE",
   "name" : "llvm::AlignOf<Use>::(anonymous enum at external/llvm/include/llvm/Support/AlignOf.h:92:3)",
   "referenced_type" : "_ZTIN4llvm7AlignOfINS_3UseEE27$Alignment_LessEqual_4BytesE",
   "self_type" : "_ZTIN4llvm7AlignOfINS_3UseEE27$Alignment_LessEqual_4BytesE",
   "size" : 4,
   "source_file" : "external/llvm/include/llvm/Support/AlignOf.h",
   "underlying_type" : "_ZTIj"
  },
  {
   "alignment" : 4,
   "enum_fields" :
   [
    {
     "enum_field_value" : 1,
     "name" : "llvm::AlignOf<llvm::Use>::Alignment_LessEqual_8Bytes"
    }
   ],
   "linker_set_key" : "_ZTIN4llvm7AlignOfINS_3UseEE27$Alignment_LessEqual_8BytesE",
   "name" : "llvm::AlignOf<Use>::(anonymous enum at external/llvm/include/llvm/Support/AlignOf.h:93:3)",
   "referenced_type" : "_ZTIN4llvm7AlignOfINS_3UseEE27$Alignment_LessEqual_8BytesE",
   "self_type" : "_ZTIN4llvm7AlignOfINS_3UseEE27$Alignment_LessEqual_8BytesE",
   "size" : 4,
   "source_file" : "external/llvm/include/llvm/Support/AlignOf.h",
   "underlying_type" : "_ZTIj"
  },
  {
   "alignment" : 4,
   "enum_fields" :
   [
    {
     "enum_field_value" : 1,
     "name" : "llvm::AlignOf<llvm::Use>::Alignment_LessEqual_16Bytes"
    }
   ],
   "linker_set_key" : "_ZTIN4llvm7AlignOfINS_3UseEE28$Alignment_LessEqual_16BytesE",
   "name" : "llvm::AlignOf<Use>::(anonymous enum at external/llvm/include/llvm/Support/AlignOf.h:94:3)",
   "referenced_type" : "_ZTIN4llvm7AlignOfINS_3UseEE28$Alignment_LessEqual_16BytesE",
   "self_type" : "_ZTIN4llvm7AlignOfINS_3UseEE28$Alignment_LessEqual_16BytesE",
   "size" : 4,
   "source_file" : "external/llvm/include/llvm/Support/AlignOf.h",
   "underlying_type" : "_ZTIj"
  },
  {
   "alignment" : 4,
   "enum_fields" :
   [
    {
     "enum_field_value" : 1,
     "name" : "llvm::AlignOf<llvm::Use>::Alignment_GreaterEqual_2Bytes"
    }
   ],
   "linker_set_key" : "_ZTIN4llvm7AlignOfINS_3UseEE30$Alignment_GreaterEqual_2BytesE",
   "name" : "llvm::AlignOf<Use>::(anonymous enum at external/llvm/include/llvm/Support/AlignOf.h:86:3)",
   "referenced_type" : "_ZTIN4llvm7AlignOfINS_3UseEE30$Alignment_GreaterEqual_2BytesE",
   "self_type" : "_ZTIN4llvm7AlignOfINS_3UseEE30$Alignment_GreaterEqual_2BytesE",
   "size" : 4,
   "source_file" : "external/llvm/include/llvm/Support/AlignOf.h",
   "underlying_type" : "_ZTIj"
  },
  {
   "alignment" : 4,
   "enum_fields" :
   [
    {
     "enum_field_value" : 1,
     "name" : "llvm::AlignOf<llvm::Use>::Alignment_GreaterEqual_4Bytes"
    }
   ],
   "linker_set_key" : "_ZTIN4llvm7AlignOfINS_3UseEE30$Alignment_GreaterEqual_4BytesE",
   "name" : "llvm::AlignOf<Use>::(anonymous enum at external/llvm/include/llvm/Support/AlignOf.h:87:3)",
   "referenced_type" : "_ZTIN4llvm7AlignOfINS_3UseEE30$Alignment_GreaterEqual_4BytesE",
   "self_type" : "_ZTIN4llvm7AlignOfINS_3UseEE30$Alignment_GreaterEqual_4BytesE",
   "size" : 4,
   "source_file" : "external/llvm/include/llvm/Support/AlignOf.h",
   "underlying_type" : "_ZTIj"
  },
  {
   "alignment" : 4,
   "enum_fields" :
   [
    {
     "enum_field_value" : 0,
     "name" : "llvm::AlignOf<llvm::Use>::Alignment_GreaterEqual_8Bytes"
    }
   ],
   "linker_set_key" : "_ZTIN4llvm7AlignOfINS_3UseEE30$Alignment_GreaterEqual_8BytesE",
   "name" : "llvm::AlignOf<Use>::(anonymous enum at external/llvm/include/llvm/Support/AlignOf.h:88:3)",
   "referenced_type" : "_ZTIN4llvm7AlignOfINS_3UseEE30$Alignment_GreaterEqual_8BytesE",
   "self_type" : "_ZTIN4llvm7AlignOfINS_3UseEE30$Alignment_GreaterEqual_8BytesE",
   "size" : 4,
   "source_file" : "external/llvm/include/llvm/Support/AlignOf.h",
   "underlying_type" : "_ZTIj"
  },
  {
   "alignment" : 4,
   "enum_fields" :
   [
    {
     "enum_field_value" : 0,
     "name" : "llvm::AlignOf<llvm::Use>::Alignment_GreaterEqual_16Bytes"
    }
   ],
   "linker_set_key" : "_ZTIN4llvm7AlignOfINS_3UseEE31$Alignment_GreaterEqual_16BytesE",
   "name" : "llvm::AlignOf<Use>::(anonymous enum at external/llvm/include/llvm/Support/AlignOf.h:89:3)",
   "referenced_type" : "_ZTIN4llvm7AlignOfINS_3UseEE31$Alignment_GreaterEqual_16BytesE",
   "self_type" : "_ZTIN4llvm7AlignOfINS_3UseEE31$Alignment_GreaterEqual_16BytesE",
   "size" : 4,
   "source_file" : "external/llvm/include/llvm/Support/AlignOf.h",
   "underlying_type" : "_ZTIj"
  },
  {
   "alignment" : 4,
   "enum_fields" :
   [
    {
     "enum_field_value" : 0,
     "name" : "llvm::AlignOf<llvm::User>::Alignment_LessEqual_2Bytes"
    }
   ],
   "linker_set_key" : "_ZTIN4llvm7AlignOfINS_4UserEE27$Alignment_LessEqual_2BytesE",
   "name" : "llvm::AlignOf<User>::(anonymous enum at external/llvm/include/llvm/Support/AlignOf.h:91:3)",
   "referenced_type" : "_ZTIN4llvm7AlignOfINS_4UserEE27$Alignment_LessEqual_2BytesE",
   "self_type" : "_ZTIN4llvm7AlignOfINS_4UserEE27$Alignment_LessEqual_2BytesE",
   "size" : 4,
   "source_file" : "external/llvm/include/llvm/Support/AlignOf.h",
   "underlying_type" : "_ZTIj"
  },
  {
   "alignment" : 4,
   "enum_fields" :
   [
    {
     "enum_field_value" : 1,
     "name" : "llvm::AlignOf<llvm::User>::Alignment_LessEqual_4Bytes"
    }
   ],
   "linker_set_key" : "_ZTIN4llvm7AlignOfINS_4UserEE27$Alignment_LessEqual_4BytesE",
   "name" : "llvm::AlignOf<User>::(anonymous enum at external/llvm/include/llvm/Support/AlignOf.h:92:3)",
   "referenced_type" : "_ZTIN4llvm7AlignOfINS_4UserEE27$Alignment_LessEqual_4BytesE",
   "self_type" : "_ZTIN4llvm7AlignOfINS_4UserEE27$Alignment_LessEqual_4BytesE",
   "size" : 4,
   "source_file" : "external/llvm/include/llvm/Support/AlignOf.h",
   "underlying_type" : "_ZTIj"
  },
  {
   "alignment" : 4,
   "enum_fields" :
   [
    {
     "enum_field_value" : 1,
     "name" : "llvm::AlignOf<llvm::User>::Alignment_LessEqual_8Bytes"
    }
   ],
   "linker_set_key" : "_ZTIN4llvm7AlignOfINS_4UserEE27$Alignment_LessEqual_8BytesE",
   "name" : "llvm::AlignOf<User>::(anonymous enum at external/llvm/include/llvm/Support/AlignOf.h:93:3)",
   "referenced_type" : "_ZTIN4llvm7AlignOfINS_4UserEE27$Alignment_LessEqual_8BytesE",
   "self_type" : "_ZTIN4llvm7AlignOfINS_4UserEE27$Alignment_LessEqual_8BytesE",
   "size" : 4,
   "source_file" : "external/llvm/include/llvm/Support/AlignOf.h",
   "underlying_type" : "_ZTIj"
  },
  {
   "alignment" : 4,
   "enum_fields" :
   [
    {
     "enum_field_value" : 1,
     "name" : "llvm::AlignOf<llvm::User>::Alignment_LessEqual_16Bytes"
    }
   ],
   "linker_set_key" : "_ZTIN4llvm7AlignOfINS_4UserEE28$Alignment_LessEqual_16BytesE",
   "name" : "llvm::AlignOf<User>::(anonymous enum at external/llvm/include/llvm/Support/AlignOf.h:94:3)",
   "referenced_type" : "_ZTIN4llvm7AlignOfINS_4UserEE28$Alignment_LessEqual_16BytesE",
   "self_type" : "_ZTIN4llvm7AlignOfINS_4UserEE28$Alignment_LessEqual_16BytesE",
   "size" : 4,
   "source_file" : "external/llvm/include/llvm/Support/AlignOf.h",
   "underlying_type" : "_ZTIj"
  },
  {
   "alignment" : 4,
   "enum_fields" :
   [
    {
     "enum_field_value" : 1,
     "name" : "llvm::AlignOf<llvm::User>::Alignment_GreaterEqual_2Bytes"
    }
   ],
   "linker_set_key" : "_ZTIN4llvm7AlignOfINS_4UserEE30$Alignment_GreaterEqual_2BytesE",
   "name" : "llvm::AlignOf<User>::(anonymous enum at external/llvm/include/llvm/Support/AlignOf.h:86:3)",
   "referenced_type" : "_ZTIN4llvm7AlignOfINS_4UserEE30$Alignment_GreaterEqual_2BytesE",
   "self_type" : "_ZTIN4llvm7AlignOfINS_4UserEE30$Alignment_GreaterEqual_2BytesE",
   "size" : 4,
   "source_file" : "external/llvm/include/llvm/Support/AlignOf.h",
   "underlying_type" : "_ZTIj"
  },
  {
   "alignment" : 4,
   "enum_fields" :
   [
    {
     "enum_field_value" : 1,
     "name" : "llvm::AlignOf<llvm::User>::Alignment_GreaterEqual_4Bytes"
    }
   ],
   "linker_set_key" : "_ZTIN4llvm7AlignOfINS_4UserEE30$Alignment_GreaterEqual_4BytesE",
   "name" : "llvm::AlignOf<User>::(anonymous enum at external/llvm/include/llvm/Support/AlignOf.h:87:3)",
   "referenced_type" : "_ZTIN4llvm7AlignOfINS_4UserEE30$Alignment_GreaterEqual_4BytesE",
   "self_type" : "_ZTIN4llvm7AlignOfINS_4UserEE30$Alignment_GreaterEqual_4BytesE",
   "size" : 4,
   "source_file" : "external/llvm/include/llvm/Support/AlignOf.h",
   "underlying_type" : "_ZTIj"
  },
  {
   "alignment" : 4,
   "enum_fields" :
   [
    {
     "enum_field_value" : 0,
     "name" : "llvm::AlignOf<llvm::User>::Alignment_GreaterEqual_8Bytes"
    }
   ],
   "linker_set_key" : "_ZTIN4llvm7AlignOfINS_4UserEE30$Alignment_GreaterEqual_8BytesE",
   "name" : "llvm::AlignOf<User>::(anonymous enum at external/llvm/include/llvm/Support/AlignOf.h:88:3)",
   "referenced_type" : "_ZTIN4llvm7AlignOfINS_4UserEE30$Alignment_GreaterEqual_8BytesE",
   "self_type" : "_ZTIN4llvm7AlignOfINS_4UserEE30$Alignment_GreaterEqual_8BytesE",
   "size" : 4,
   "source_file" : "external/llvm/include/llvm/Support/AlignOf.h",
   "underlying_type" : "_ZTIj"
  },
  {
   "alignment" : 4,
   "enum_fields" :
   [
    {
     "enum_field_value" : 0,
     "name" : "llvm::AlignOf<llvm::User>::Alignment_GreaterEqual_16Bytes"
    }
   ],
   "linker_set_key" : "_ZTIN4llvm7AlignOfINS_4UserEE31$Alignment_GreaterEqual_16BytesE",
   "name" : "llvm::AlignOf<User>::(anonymous enum at external/llvm/include/llvm/Support/AlignOf.h:89:3)",
   "referenced_type" : "_ZTIN4llvm7AlignOfINS_4UserEE31$Alignment_GreaterEqual_16BytesE",
   "self_type" : "_ZTIN4llvm7AlignOfINS_4UserEE31$Alignment_GreaterEqual_16BytesE",
   "size" : 4,
   "source_file" : "external/llvm/include/llvm/Support/AlignOf.h",
   "underlying_type" : "_ZTIj"
  },
  {
   "alignment" : 4,
   "enum_fields" :
   [
    {
     "enum_field_value" : 0,
     "name" : "llvm::AlignOf<llvm::detail::AlignerImpl<std::__1::pair<void *, unsigned int>, char, char, char, char, char, char, char, char, char>>::Alignment_LessEqual_2Bytes"
    }
   ],
   "linker_set_key" : "_ZTIN4llvm7AlignOfINS_6detail11AlignerImplINSt3__14pairIPvjEEcccccccccEEE27$Alignment_LessEqual_2BytesE",
   "name" : "llvm::AlignOf<AlignerImpl<pair<void *, unsigned int>, char, char, char, char, char, char, char, char, char>>::(anonymous enum at external/llvm/include/llvm/Support/AlignOf.h:91:3)",
   "referenced_type" : "_ZTIN4llvm7AlignOfINS_6detail11AlignerImplINSt3__14pairIPvjEEcccccccccEEE27$Alignment_LessEqual_2BytesE",
   "self_type" : "_ZTIN4llvm7AlignOfINS_6detail11AlignerImplINSt3__14pairIPvjEEcccccccccEEE27$Alignment_LessEqual_2BytesE",
   "size" : 4,
   "source_file" : "external/llvm/include/llvm/Support/AlignOf.h",
   "underlying_type" : "_ZTIj"
  },
  {
   "alignment" : 4,
   "enum_fields" :
   [
    {
     "enum_field_value" : 1,
     "name" : "llvm::AlignOf<llvm::detail::AlignerImpl<std::__1::pair<void *, unsigned int>, char, char, char, char, char, char, char, char, char>>::Alignment_LessEqual_4Bytes"
    }
   ],
   "linker_set_key" : "_ZTIN4llvm7AlignOfINS_6detail11AlignerImplINSt3__14pairIPvjEEcccccccccEEE27$Alignment_LessEqual_4BytesE",
   "name" : "llvm::AlignOf<AlignerImpl<pair<void *, unsigned int>, char, char, char, char, char, char, char, char, char>>::(anonymous enum at external/llvm/include/llvm/Support/AlignOf.h:92:3)",
   "referenced_type" : "_ZTIN4llvm7AlignOfINS_6detail11AlignerImplINSt3__14pairIPvjEEcccccccccEEE27$Alignment_LessEqual_4BytesE",
   "self_type" : "_ZTIN4llvm7AlignOfINS_6detail11AlignerImplINSt3__14pairIPvjEEcccccccccEEE27$Alignment_LessEqual_4BytesE",
   "size" : 4,
   "source_file" : "external/llvm/include/llvm/Support/AlignOf.h",
   "underlying_type" : "_ZTIj"
  },
  {
   "alignment" : 4,
   "enum_fields" :
   [
    {
     "enum_field_value" : 1,
     "name" : "llvm::AlignOf<llvm::detail::AlignerImpl<std::__1::pair<void *, unsigned int>, char, char, char, char, char, char, char, char, char>>::Alignment_LessEqual_8Bytes"
    }
   ],
   "linker_set_key" : "_ZTIN4llvm7AlignOfINS_6detail11AlignerImplINSt3__14pairIPvjEEcccccccccEEE27$Alignment_LessEqual_8BytesE",
   "name" : "llvm::AlignOf<AlignerImpl<pair<void *, unsigned int>, char, char, char, char, char, char, char, char, char>>::(anonymous enum at external/llvm/include/llvm/Support/AlignOf.h:93:3)",
   "referenced_type" : "_ZTIN4llvm7AlignOfINS_6detail11AlignerImplINSt3__14pairIPvjEEcccccccccEEE27$Alignment_LessEqual_8BytesE",
   "self_type" : "_ZTIN4llvm7AlignOfINS_6detail11AlignerImplINSt3__14pairIPvjEEcccccccccEEE27$Alignment_LessEqual_8BytesE",
   "size" : 4,
   "source_file" : "external/llvm/include/llvm/Support/AlignOf.h",
   "underlying_type" : "_ZTIj"
  },
  {
   "alignment" : 4,
   "enum_fields" :
   [
    {
     "enum_field_value" : 1,
     "name" : "llvm::AlignOf<llvm::detail::AlignerImpl<std::__1::pair<void *, unsigned int>, char, char, char, char, char, char, char, char, char>>::Alignment_LessEqual_16Bytes"
    }
   ],
   "linker_set_key" : "_ZTIN4llvm7AlignOfINS_6detail11AlignerImplINSt3__14pairIPvjEEcccccccccEEE28$Alignment_LessEqual_16BytesE",
   "name" : "llvm::AlignOf<AlignerImpl<pair<void *, unsigned int>, char, char, char, char, char, char, char, char, char>>::(anonymous enum at external/llvm/include/llvm/Support/AlignOf.h:94:3)",
   "referenced_type" : "_ZTIN4llvm7AlignOfINS_6detail11AlignerImplINSt3__14pairIPvjEEcccccccccEEE28$Alignment_LessEqual_16BytesE",
   "self_type" : "_ZTIN4llvm7AlignOfINS_6detail11AlignerImplINSt3__14pairIPvjEEcccccccccEEE28$Alignment_LessEqual_16BytesE",
   "size" : 4,
   "source_file" : "external/llvm/include/llvm/Support/AlignOf.h",
   "underlying_type" : "_ZTIj"
  },
  {
   "alignment" : 4,
   "enum_fields" :
   [
    {
     "enum_field_value" : 1,
     "name" : "llvm::AlignOf<llvm::detail::AlignerImpl<std::__1::pair<void *, unsigned int>, char, char, char, char, char, char, char, char, char>>::Alignment_GreaterEqual_2Bytes"
    }
   ],
   "linker_set_key" : "_ZTIN4llvm7AlignOfINS_6detail11AlignerImplINSt3__14pairIPvjEEcccccccccEEE30$Alignment_GreaterEqual_2BytesE",
   "name" : "llvm::AlignOf<AlignerImpl<pair<void *, unsigned int>, char, char, char, char, char, char, char, char, char>>::(anonymous enum at external/llvm/include/llvm/Support/AlignOf.h:86:3)",
   "referenced_type" : "_ZTIN4llvm7AlignOfINS_6detail11AlignerImplINSt3__14pairIPvjEEcccccccccEEE30$Alignment_GreaterEqual_2BytesE",
   "self_type" : "_ZTIN4llvm7AlignOfINS_6detail11AlignerImplINSt3__14pairIPvjEEcccccccccEEE30$Alignment_GreaterEqual_2BytesE",
   "size" : 4,
   "source_file" : "external/llvm/include/llvm/Support/AlignOf.h",
   "underlying_type" : "_ZTIj"
  },
  {
   "alignment" : 4,
   "enum_fields" :
   [
    {
     "enum_field_value" : 1,
     "name" : "llvm::AlignOf<llvm::detail::AlignerImpl<std::__1::pair<void *, unsigned int>, char, char, char, char, char, char, char, char, char>>::Alignment_GreaterEqual_4Bytes"
    }
   ],
   "linker_set_key" : "_ZTIN4llvm7AlignOfINS_6detail11AlignerImplINSt3__14pairIPvjEEcccccccccEEE30$Alignment_GreaterEqual_4BytesE",
   "name" : "llvm::AlignOf<AlignerImpl<pair<void *, unsigned int>, char, char, char, char, char, char, char, char, char>>::(anonymous enum at external/llvm/include/llvm/Support/AlignOf.h:87:3)",
   "referenced_type" : "_ZTIN4llvm7AlignOfINS_6detail11AlignerImplINSt3__14pairIPvjEEcccccccccEEE30$Alignment_GreaterEqual_4BytesE",
   "self_type" : "_ZTIN4llvm7AlignOfINS_6detail11AlignerImplINSt3__14pairIPvjEEcccccccccEEE30$Alignment_GreaterEqual_4BytesE",
   "size" : 4,
   "source_file" : "external/llvm/include/llvm/Support/AlignOf.h",
   "underlying_type" : "_ZTIj"
  },
  {
   "alignment" : 4,
   "enum_fields" :
   [
    {
     "enum_field_value" : 0,
     "name" : "llvm::AlignOf<llvm::detail::AlignerImpl<std::__1::pair<void *, unsigned int>, char, char, char, char, char, char, char, char, char>>::Alignment_GreaterEqual_8Bytes"
    }
   ],
   "linker_set_key" : "_ZTIN4llvm7AlignOfINS_6detail11AlignerImplINSt3__14pairIPvjEEcccccccccEEE30$Alignment_GreaterEqual_8BytesE",
   "name" : "llvm::AlignOf<AlignerImpl<pair<void *, unsigned int>, char, char, char, char, char, char, char, char, char>>::(anonymous enum at external/llvm/include/llvm/Support/AlignOf.h:88:3)",
   "referenced_type" : "_ZTIN4llvm7AlignOfINS_6detail11AlignerImplINSt3__14pairIPvjEEcccccccccEEE30$Alignment_GreaterEqual_8BytesE",
   "self_type" : "_ZTIN4llvm7AlignOfINS_6detail11AlignerImplINSt3__14pairIPvjEEcccccccccEEE30$Alignment_GreaterEqual_8BytesE",
   "size" : 4,
   "source_file" : "external/llvm/include/llvm/Support/AlignOf.h",
   "underlying_type" : "_ZTIj"
  },
  {
   "alignment" : 4,
   "enum_fields" :
   [
    {
     "enum_field_value" : 0,
     "name" : "llvm::AlignOf<llvm::detail::AlignerImpl<std::__1::pair<void *, unsigned int>, char, char, char, char, char, char, char, char, char>>::Alignment_GreaterEqual_16Bytes"
    }
   ],
   "linker_set_key" : "_ZTIN4llvm7AlignOfINS_6detail11AlignerImplINSt3__14pairIPvjEEcccccccccEEE31$Alignment_GreaterEqual_16BytesE",
   "name" : "llvm::AlignOf<AlignerImpl<pair<void *, unsigned int>, char, char, char, char, char, char, char, char, char>>::(anonymous enum at external/llvm/include/llvm/Support/AlignOf.h:89:3)",
   "referenced_type" : "_ZTIN4llvm7AlignOfINS_6detail11AlignerImplINSt3__14pairIPvjEEcccccccccEEE31$Alignment_GreaterEqual_16BytesE",
   "self_type" : "_ZTIN4llvm7AlignOfINS_6detail11AlignerImplINSt3__14pairIPvjEEcccccccccEEE31$Alignment_GreaterEqual_16BytesE",
   "size" : 4,
   "source_file" : "external/llvm/include/llvm/Support/AlignOf.h",
   "underlying_type" : "_ZTIj"
  },
  {
   "alignment" : 4,
   "enum_fields" :
   [
    {
     "enum_field_value" : 0,
     "name" : "llvm::AlignOf<llvm::detail::AlignerImpl<void *, char, char, char, char, char, char, char, char, char>>::Alignment_LessEqual_2Bytes"
    }
   ],
   "linker_set_key" : "_ZTIN4llvm7AlignOfINS_6detail11AlignerImplIPvcccccccccEEE27$Alignment_LessEqual_2BytesE",
   "name" : "llvm::AlignOf<AlignerImpl<void *, char, char, char, char, char, char, char, char, char>>::(anonymous enum at external/llvm/include/llvm/Support/AlignOf.h:91:3)",
   "referenced_type" : "_ZTIN4llvm7AlignOfINS_6detail11AlignerImplIPvcccccccccEEE27$Alignment_LessEqual_2BytesE",
   "self_type" : "_ZTIN4llvm7AlignOfINS_6detail11AlignerImplIPvcccccccccEEE27$Alignment_LessEqual_2BytesE",
   "size" : 4,
   "source_file" : "external/llvm/include/llvm/Support/AlignOf.h",
   "underlying_type" : "_ZTIj"
  },
  {
   "alignment" : 4,
   "enum_fields" :
   [
    {
     "enum_field_value" : 1,
     "name" : "llvm::AlignOf<llvm::detail::AlignerImpl<void *, char, char, char, char, char, char, char, char, char>>::Alignment_LessEqual_4Bytes"
    }
   ],
   "linker_set_key" : "_ZTIN4llvm7AlignOfINS_6detail11AlignerImplIPvcccccccccEEE27$Alignment_LessEqual_4BytesE",
   "name" : "llvm::AlignOf<AlignerImpl<void *, char, char, char, char, char, char, char, char, char>>::(anonymous enum at external/llvm/include/llvm/Support/AlignOf.h:92:3)",
   "referenced_type" : "_ZTIN4llvm7AlignOfINS_6detail11AlignerImplIPvcccccccccEEE27$Alignment_LessEqual_4BytesE",
   "self_type" : "_ZTIN4llvm7AlignOfINS_6detail11AlignerImplIPvcccccccccEEE27$Alignment_LessEqual_4BytesE",
   "size" : 4,
   "source_file" : "external/llvm/include/llvm/Support/AlignOf.h",
   "underlying_type" : "_ZTIj"
  },
  {
   "alignment" : 4,
   "enum_fields" :
   [
    {
     "enum_field_value" : 1,
     "name" : "llvm::AlignOf<llvm::detail::AlignerImpl<void *, char, char, char, char, char, char, char, char, char>>::Alignment_LessEqual_8Bytes"
    }
   ],
   "linker_set_key" : "_ZTIN4llvm7AlignOfINS_6detail11AlignerImplIPvcccccccccEEE27$Alignment_LessEqual_8BytesE",
   "name" : "llvm::AlignOf<AlignerImpl<void *, char, char, char, char, char, char, char, char, char>>::(anonymous enum at external/llvm/include/llvm/Support/AlignOf.h:93:3)",
   "referenced_type" : "_ZTIN4llvm7AlignOfINS_6detail11AlignerImplIPvcccccccccEEE27$Alignment_LessEqual_8BytesE",
   "self_type" : "_ZTIN4llvm7AlignOfINS_6detail11AlignerImplIPvcccccccccEEE27$Alignment_LessEqual_8BytesE",
   "size" : 4,
   "source_file" : "external/llvm/include/llvm/Support/AlignOf.h",
   "underlying_type" : "_ZTIj"
  },
  {
   "alignment" : 4,
   "enum_fields" :
   [
    {
     "enum_field_value" : 1,
     "name" : "llvm::AlignOf<llvm::detail::AlignerImpl<void *, char, char, char, char, char, char, char, char, char>>::Alignment_LessEqual_16Bytes"
    }
   ],
   "linker_set_key" : "_ZTIN4llvm7AlignOfINS_6detail11AlignerImplIPvcccccccccEEE28$Alignment_LessEqual_16BytesE",
   "name" : "llvm::AlignOf<AlignerImpl<void *, char, char, char, char, char, char, char, char, char>>::(anonymous enum at external/llvm/include/llvm/Support/AlignOf.h:94:3)",
   "referenced_type" : "_ZTIN4llvm7AlignOfINS_6detail11AlignerImplIPvcccccccccEEE28$Alignment_LessEqual_16BytesE",
   "self_type" : "_ZTIN4llvm7AlignOfINS_6detail11AlignerImplIPvcccccccccEEE28$Alignment_LessEqual_16BytesE",
   "size" : 4,
   "source_file" : "external/llvm/include/llvm/Support/AlignOf.h",
   "underlying_type" : "_ZTIj"
  },
  {
   "alignment" : 4,
   "enum_fields" :
   [
    {
     "enum_field_value" : 1,
     "name" : "llvm::AlignOf<llvm::detail::AlignerImpl<void *, char, char, char, char, char, char, char, char, char>>::Alignment_GreaterEqual_2Bytes"
    }
   ],
   "linker_set_key" : "_ZTIN4llvm7AlignOfINS_6detail11AlignerImplIPvcccccccccEEE30$Alignment_GreaterEqual_2BytesE",
   "name" : "llvm::AlignOf<AlignerImpl<void *, char, char, char, char, char, char, char, char, char>>::(anonymous enum at external/llvm/include/llvm/Support/AlignOf.h:86:3)",
   "referenced_type" : "_ZTIN4llvm7AlignOfINS_6detail11AlignerImplIPvcccccccccEEE30$Alignment_GreaterEqual_2BytesE",
   "self_type" : "_ZTIN4llvm7AlignOfINS_6detail11AlignerImplIPvcccccccccEEE30$Alignment_GreaterEqual_2BytesE",
   "size" : 4,
   "source_file" : "external/llvm/include/llvm/Support/AlignOf.h",
   "underlying_type" : "_ZTIj"
  },
  {
   "alignment" : 4,
   "enum_fields" :
   [
    {
     "enum_field_value" : 1,
     "name" : "llvm::AlignOf<llvm::detail::AlignerImpl<void *, char, char, char, char, char, char, char, char, char>>::Alignment_GreaterEqual_4Bytes"
    }
   ],
   "linker_set_key" : "_ZTIN4llvm7AlignOfINS_6detail11AlignerImplIPvcccccccccEEE30$Alignment_GreaterEqual_4BytesE",
   "name" : "llvm::AlignOf<AlignerImpl<void *, char, char, char, char, char, char, char, char, char>>::(anonymous enum at external/llvm/include/llvm/Support/AlignOf.h:87:3)",
   "referenced_type" : "_ZTIN4llvm7AlignOfINS_6detail11AlignerImplIPvcccccccccEEE30$Alignment_GreaterEqual_4BytesE",
   "self_type" : "_ZTIN4llvm7AlignOfINS_6detail11AlignerImplIPvcccccccccEEE30$Alignment_GreaterEqual_4BytesE",
   "size" : 4,
   "source_file" : "external/llvm/include/llvm/Support/AlignOf.h",
   "underlying_type" : "_ZTIj"
  },
  {
   "alignment" : 4,
   "enum_fields" :
   [
    {
     "enum_field_value" : 0,
     "name" : "llvm::AlignOf<llvm::detail::AlignerImpl<void *, char, char, char, char, char, char, char, char, char>>::Alignment_GreaterEqual_8Bytes"
    }
   ],
   "linker_set_key" : "_ZTIN4llvm7AlignOfINS_6detail11AlignerImplIPvcccccccccEEE30$Alignment_GreaterEqual_8BytesE",
   "name" : "llvm::AlignOf<AlignerImpl<void *, char, char, char, char, char, char, char, char, char>>::(anonymous enum at external/llvm/include/llvm/Support/AlignOf.h:88:3)",
   "referenced_type" : "_ZTIN4llvm7AlignOfINS_6detail11AlignerImplIPvcccccccccEEE30$Alignment_GreaterEqual_8BytesE",
   "self_type" : "_ZTIN4llvm7AlignOfINS_6detail11AlignerImplIPvcccccccccEEE30$Alignment_GreaterEqual_8BytesE",
   "size" : 4,
   "source_file" : "external/llvm/include/llvm/Support/AlignOf.h",
   "underlying_type" : "_ZTIj"
  },
  {
   "alignment" : 4,
   "enum_fields" :
   [
    {
     "enum_field_value" : 0,
     "name" : "llvm::AlignOf<llvm::detail::AlignerImpl<void *, char, char, char, char, char, char, char, char, char>>::Alignment_GreaterEqual_16Bytes"
    }
   ],
   "linker_set_key" : "_ZTIN4llvm7AlignOfINS_6detail11AlignerImplIPvcccccccccEEE31$Alignment_GreaterEqual_16BytesE",
   "name" : "llvm::AlignOf<AlignerImpl<void *, char, char, char, char, char, char, char, char, char>>::(anonymous enum at external/llvm/include/llvm/Support/AlignOf.h:89:3)",
   "referenced_type" : "_ZTIN4llvm7AlignOfINS_6detail11AlignerImplIPvcccccccccEEE31$Alignment_GreaterEqual_16BytesE",
   "self_type" : "_ZTIN4llvm7AlignOfINS_6detail11AlignerImplIPvcccccccccEEE31$Alignment_GreaterEqual_16BytesE",
   "size" : 4,
   "source_file" : "external/llvm/include/llvm/Support/AlignOf.h",
   "underlying_type" : "_ZTIj"
  },
  {
   "alignment" : 4,
   "enum_fields" :
   [
    {
     "enum_field_value" : 1,
     "name" : "llvm::AlignOf<llvm::detail::AlignerImpl<char, char, char, char, char, char, char, char, char, char>>::Alignment_LessEqual_2Bytes"
    }
   ],
   "linker_set_key" : "_ZTIN4llvm7AlignOfINS_6detail11AlignerImplIccccccccccEEE27$Alignment_LessEqual_2BytesE",
   "name" : "llvm::AlignOf<AlignerImpl<char, char, char, char, char, char, char, char, char, char>>::(anonymous enum at external/llvm/include/llvm/Support/AlignOf.h:91:3)",
   "referenced_type" : "_ZTIN4llvm7AlignOfINS_6detail11AlignerImplIccccccccccEEE27$Alignment_LessEqual_2BytesE",
   "self_type" : "_ZTIN4llvm7AlignOfINS_6detail11AlignerImplIccccccccccEEE27$Alignment_LessEqual_2BytesE",
   "size" : 4,
   "source_file" : "external/llvm/include/llvm/Support/AlignOf.h",
   "underlying_type" : "_ZTIj"
  },
  {
   "alignment" : 4,
   "enum_fields" :
   [
    {
     "enum_field_value" : 1,
     "name" : "llvm::AlignOf<llvm::detail::AlignerImpl<char, char, char, char, char, char, char, char, char, char>>::Alignment_LessEqual_4Bytes"
    }
   ],
   "linker_set_key" : "_ZTIN4llvm7AlignOfINS_6detail11AlignerImplIccccccccccEEE27$Alignment_LessEqual_4BytesE",
   "name" : "llvm::AlignOf<AlignerImpl<char, char, char, char, char, char, char, char, char, char>>::(anonymous enum at external/llvm/include/llvm/Support/AlignOf.h:92:3)",
   "referenced_type" : "_ZTIN4llvm7AlignOfINS_6detail11AlignerImplIccccccccccEEE27$Alignment_LessEqual_4BytesE",
   "self_type" : "_ZTIN4llvm7AlignOfINS_6detail11AlignerImplIccccccccccEEE27$Alignment_LessEqual_4BytesE",
   "size" : 4,
   "source_file" : "external/llvm/include/llvm/Support/AlignOf.h",
   "underlying_type" : "_ZTIj"
  },
  {
   "alignment" : 4,
   "enum_fields" :
   [
    {
     "enum_field_value" : 1,
     "name" : "llvm::AlignOf<llvm::detail::AlignerImpl<char, char, char, char, char, char, char, char, char, char>>::Alignment_LessEqual_8Bytes"
    }
   ],
   "linker_set_key" : "_ZTIN4llvm7AlignOfINS_6detail11AlignerImplIccccccccccEEE27$Alignment_LessEqual_8BytesE",
   "name" : "llvm::AlignOf<AlignerImpl<char, char, char, char, char, char, char, char, char, char>>::(anonymous enum at external/llvm/include/llvm/Support/AlignOf.h:93:3)",
   "referenced_type" : "_ZTIN4llvm7AlignOfINS_6detail11AlignerImplIccccccccccEEE27$Alignment_LessEqual_8BytesE",
   "self_type" : "_ZTIN4llvm7AlignOfINS_6detail11AlignerImplIccccccccccEEE27$Alignment_LessEqual_8BytesE",
   "size" : 4,
   "source_file" : "external/llvm/include/llvm/Support/AlignOf.h",
   "underlying_type" : "_ZTIj"
  },
  {
   "alignment" : 4,
   "enum_fields" :
   [
    {
     "enum_field_value" : 1,
     "name" : "llvm::AlignOf<llvm::detail::AlignerImpl<char, char, char, char, char, char, char, char, char, char>>::Alignment_LessEqual_16Bytes"
    }
   ],
   "linker_set_key" : "_ZTIN4llvm7AlignOfINS_6detail11AlignerImplIccccccccccEEE28$Alignment_LessEqual_16BytesE",
   "name" : "llvm::AlignOf<AlignerImpl<char, char, char, char, char, char, char, char, char, char>>::(anonymous enum at external/llvm/include/llvm/Support/AlignOf.h:94:3)",
   "referenced_type" : "_ZTIN4llvm7AlignOfINS_6detail11AlignerImplIccccccccccEEE28$Alignment_LessEqual_16BytesE",
   "self_type" : "_ZTIN4llvm7AlignOfINS_6detail11AlignerImplIccccccccccEEE28$Alignment_LessEqual_16BytesE",
   "size" : 4,
   "source_file" : "external/llvm/include/llvm/Support/AlignOf.h",
   "underlying_type" : "_ZTIj"
  },
  {
   "alignment" : 4,
   "enum_fields" :
   [
    {
     "enum_field_value" : 0,
     "name" : "llvm::AlignOf<llvm::detail::AlignerImpl<char, char, char, char, char, char, char, char, char, char>>::Alignment_GreaterEqual_2Bytes"
    }
   ],
   "linker_set_key" : "_ZTIN4llvm7AlignOfINS_6detail11AlignerImplIccccccccccEEE30$Alignment_GreaterEqual_2BytesE",
   "name" : "llvm::AlignOf<AlignerImpl<char, char, char, char, char, char, char, char, char, char>>::(anonymous enum at external/llvm/include/llvm/Support/AlignOf.h:86:3)",
   "referenced_type" : "_ZTIN4llvm7AlignOfINS_6detail11AlignerImplIccccccccccEEE30$Alignment_GreaterEqual_2BytesE",
   "self_type" : "_ZTIN4llvm7AlignOfINS_6detail11AlignerImplIccccccccccEEE30$Alignment_GreaterEqual_2BytesE",
   "size" : 4,
   "source_file" : "external/llvm/include/llvm/Support/AlignOf.h",
   "underlying_type" : "_ZTIj"
  },
  {
   "alignment" : 4,
   "enum_fields" :
   [
    {
     "enum_field_value" : 0,
     "name" : "llvm::AlignOf<llvm::detail::AlignerImpl<char, char, char, char, char, char, char, char, char, char>>::Alignment_GreaterEqual_4Bytes"
    }
   ],
   "linker_set_key" : "_ZTIN4llvm7AlignOfINS_6detail11AlignerImplIccccccccccEEE30$Alignment_GreaterEqual_4BytesE",
   "name" : "llvm::AlignOf<AlignerImpl<char, char, char, char, char, char, char, char, char, char>>::(anonymous enum at external/llvm/include/llvm/Support/AlignOf.h:87:3)",
   "referenced_type" : "_ZTIN4llvm7AlignOfINS_6detail11AlignerImplIccccccccccEEE30$Alignment_GreaterEqual_4BytesE",
   "self_type" : "_ZTIN4llvm7AlignOfINS_6detail11AlignerImplIccccccccccEEE30$Alignment_GreaterEqual_4BytesE",
   "size" : 4,
   "source_file" : "external/llvm/include/llvm/Support/AlignOf.h",
   "underlying_type" : "_ZTIj"
  },
  {
   "alignment" : 4,
   "enum_fields" :
   [
    {
     "enum_field_value" : 0,
     "name" : "llvm::AlignOf<llvm::detail::AlignerImpl<char, char, char, char, char, char, char, char, char, char>>::Alignment_GreaterEqual_8Bytes"
    }
   ],
   "linker_set_key" : "_ZTIN4llvm7AlignOfINS_6detail11AlignerImplIccccccccccEEE30$Alignment_GreaterEqual_8BytesE",
   "name" : "llvm::AlignOf<AlignerImpl<char, char, char, char, char, char, char, char, char, char>>::(anonymous enum at external/llvm/include/llvm/Support/AlignOf.h:88:3)",
   "referenced_type" : "_ZTIN4llvm7AlignOfINS_6detail11AlignerImplIccccccccccEEE30$Alignment_GreaterEqual_8BytesE",
   "self_type" : "_ZTIN4llvm7AlignOfINS_6detail11AlignerImplIccccccccccEEE30$Alignment_GreaterEqual_8BytesE",
   "size" : 4,
   "source_file" : "external/llvm/include/llvm/Support/AlignOf.h",
   "underlying_type" : "_ZTIj"
  },
  {
   "alignment" : 4,
   "enum_fields" :
   [
    {
     "enum_field_value" : 0,
     "name" : "llvm::AlignOf<llvm::detail::AlignerImpl<char, char, char, char, char, char, char, char, char, char>>::Alignment_GreaterEqual_16Bytes"
    }
   ],
   "linker_set_key" : "_ZTIN4llvm7AlignOfINS_6detail11AlignerImplIccccccccccEEE31$Alignment_GreaterEqual_16BytesE",
   "name" : "llvm::AlignOf<AlignerImpl<char, char, char, char, char, char, char, char, char, char>>::(anonymous enum at external/llvm/include/llvm/Support/AlignOf.h:89:3)",
   "referenced_type" : "_ZTIN4llvm7AlignOfINS_6detail11AlignerImplIccccccccccEEE31$Alignment_GreaterEqual_16BytesE",
   "self_type" : "_ZTIN4llvm7AlignOfINS_6detail11AlignerImplIccccccccccEEE31$Alignment_GreaterEqual_16BytesE",
   "size" : 4,
   "source_file" : "external/llvm/include/llvm/Support/AlignOf.h",
   "underlying_type" : "_ZTIj"
  },
  {
   "alignment" : 4,
   "enum_fields" :
   [
    {
     "enum_field_value" : 0,
     "name" : "llvm::AlignOf<llvm::Use *>::Alignment_LessEqual_2Bytes"
    }
   ],
   "linker_set_key" : "_ZTIN4llvm7AlignOfIPNS_3UseEE27$Alignment_LessEqual_2BytesE",
   "name" : "llvm::AlignOf<Use *>::(anonymous enum at external/llvm/include/llvm/Support/AlignOf.h:91:3)",
   "referenced_type" : "_ZTIN4llvm7AlignOfIPNS_3UseEE27$Alignment_LessEqual_2BytesE",
   "self_type" : "_ZTIN4llvm7AlignOfIPNS_3UseEE27$Alignment_LessEqual_2BytesE",
   "size" : 4,
   "source_file" : "external/llvm/include/llvm/Support/AlignOf.h",
   "underlying_type" : "_ZTIj"
  },
  {
   "alignment" : 4,
   "enum_fields" :
   [
    {
     "enum_field_value" : 1,
     "name" : "llvm::AlignOf<llvm::Use *>::Alignment_LessEqual_4Bytes"
    }
   ],
   "linker_set_key" : "_ZTIN4llvm7AlignOfIPNS_3UseEE27$Alignment_LessEqual_4BytesE",
   "name" : "llvm::AlignOf<Use *>::(anonymous enum at external/llvm/include/llvm/Support/AlignOf.h:92:3)",
   "referenced_type" : "_ZTIN4llvm7AlignOfIPNS_3UseEE27$Alignment_LessEqual_4BytesE",
   "self_type" : "_ZTIN4llvm7AlignOfIPNS_3UseEE27$Alignment_LessEqual_4BytesE",
   "size" : 4,
   "source_file" : "external/llvm/include/llvm/Support/AlignOf.h",
   "underlying_type" : "_ZTIj"
  },
  {
   "alignment" : 4,
   "enum_fields" :
   [
    {
     "enum_field_value" : 1,
     "name" : "llvm::AlignOf<llvm::Use *>::Alignment_LessEqual_8Bytes"
    }
   ],
   "linker_set_key" : "_ZTIN4llvm7AlignOfIPNS_3UseEE27$Alignment_LessEqual_8BytesE",
   "name" : "llvm::AlignOf<Use *>::(anonymous enum at external/llvm/include/llvm/Support/AlignOf.h:93:3)",
   "referenced_type" : "_ZTIN4llvm7AlignOfIPNS_3UseEE27$Alignment_LessEqual_8BytesE",
   "self_type" : "_ZTIN4llvm7AlignOfIPNS_3UseEE27$Alignment_LessEqual_8BytesE",
   "size" : 4,
   "source_file" : "external/llvm/include/llvm/Support/AlignOf.h",
   "underlying_type" : "_ZTIj"
  },
  {
   "alignment" : 4,
   "enum_fields" :
   [
    {
     "enum_field_value" : 1,
     "name" : "llvm::AlignOf<llvm::Use *>::Alignment_LessEqual_16Bytes"
    }
   ],
   "linker_set_key" : "_ZTIN4llvm7AlignOfIPNS_3UseEE28$Alignment_LessEqual_16BytesE",
   "name" : "llvm::AlignOf<Use *>::(anonymous enum at external/llvm/include/llvm/Support/AlignOf.h:94:3)",
   "referenced_type" : "_ZTIN4llvm7AlignOfIPNS_3UseEE28$Alignment_LessEqual_16BytesE",
   "self_type" : "_ZTIN4llvm7AlignOfIPNS_3UseEE28$Alignment_LessEqual_16BytesE",
   "size" : 4,
   "source_file" : "external/llvm/include/llvm/Support/AlignOf.h",
   "underlying_type" : "_ZTIj"
  },
  {
   "alignment" : 4,
   "enum_fields" :
   [
    {
     "enum_field_value" : 1,
     "name" : "llvm::AlignOf<llvm::Use *>::Alignment_GreaterEqual_2Bytes"
    }
   ],
   "linker_set_key" : "_ZTIN4llvm7AlignOfIPNS_3UseEE30$Alignment_GreaterEqual_2BytesE",
   "name" : "llvm::AlignOf<Use *>::(anonymous enum at external/llvm/include/llvm/Support/AlignOf.h:86:3)",
   "referenced_type" : "_ZTIN4llvm7AlignOfIPNS_3UseEE30$Alignment_GreaterEqual_2BytesE",
   "self_type" : "_ZTIN4llvm7AlignOfIPNS_3UseEE30$Alignment_GreaterEqual_2BytesE",
   "size" : 4,
   "source_file" : "external/llvm/include/llvm/Support/AlignOf.h",
   "underlying_type" : "_ZTIj"
  },
  {
   "alignment" : 4,
   "enum_fields" :
   [
    {
     "enum_field_value" : 1,
     "name" : "llvm::AlignOf<llvm::Use *>::Alignment_GreaterEqual_4Bytes"
    }
   ],
   "linker_set_key" : "_ZTIN4llvm7AlignOfIPNS_3UseEE30$Alignment_GreaterEqual_4BytesE",
   "name" : "llvm::AlignOf<Use *>::(anonymous enum at external/llvm/include/llvm/Support/AlignOf.h:87:3)",
   "referenced_type" : "_ZTIN4llvm7AlignOfIPNS_3UseEE30$Alignment_GreaterEqual_4BytesE",
   "self_type" : "_ZTIN4llvm7AlignOfIPNS_3UseEE30$Alignment_GreaterEqual_4BytesE",
   "size" : 4,
   "source_file" : "external/llvm/include/llvm/Support/AlignOf.h",
   "underlying_type" : "_ZTIj"
  },
  {
   "alignment" : 4,
   "enum_fields" :
   [
    {
     "enum_field_value" : 0,
     "name" : "llvm::AlignOf<llvm::Use *>::Alignment_GreaterEqual_8Bytes"
    }
   ],
   "linker_set_key" : "_ZTIN4llvm7AlignOfIPNS_3UseEE30$Alignment_GreaterEqual_8BytesE",
   "name" : "llvm::AlignOf<Use *>::(anonymous enum at external/llvm/include/llvm/Support/AlignOf.h:88:3)",
   "referenced_type" : "_ZTIN4llvm7AlignOfIPNS_3UseEE30$Alignment_GreaterEqual_8BytesE",
   "self_type" : "_ZTIN4llvm7AlignOfIPNS_3UseEE30$Alignment_GreaterEqual_8BytesE",
   "size" : 4,
   "source_file" : "external/llvm/include/llvm/Support/AlignOf.h",
   "underlying_type" : "_ZTIj"
  },
  {
   "alignment" : 4,
   "enum_fields" :
   [
    {
     "enum_field_value" : 0,
     "name" : "llvm::AlignOf<llvm::Use *>::Alignment_GreaterEqual_16Bytes"
    }
   ],
   "linker_set_key" : "_ZTIN4llvm7AlignOfIPNS_3UseEE31$Alignment_GreaterEqual_16BytesE",
   "name" : "llvm::AlignOf<Use *>::(anonymous enum at external/llvm/include/llvm/Support/AlignOf.h:89:3)",
   "referenced_type" : "_ZTIN4llvm7AlignOfIPNS_3UseEE31$Alignment_GreaterEqual_16BytesE",
   "self_type" : "_ZTIN4llvm7AlignOfIPNS_3UseEE31$Alignment_GreaterEqual_16BytesE",
   "size" : 4,
   "source_file" : "external/llvm/include/llvm/Support/AlignOf.h",
   "underlying_type" : "_ZTIj"
  },
  {
   "alignment" : 4,
   "enum_fields" :
   [
    {
     "enum_field_value" : 0,
     "name" : "llvm::AlignOf<llvm::Type *>::Alignment_LessEqual_2Bytes"
    }
   ],
   "linker_set_key" : "_ZTIN4llvm7AlignOfIPNS_4TypeEE27$Alignment_LessEqual_2BytesE",
   "name" : "llvm::AlignOf<Type *>::(anonymous enum at external/llvm/include/llvm/Support/AlignOf.h:91:3)",
   "referenced_type" : "_ZTIN4llvm7AlignOfIPNS_4TypeEE27$Alignment_LessEqual_2BytesE",
   "self_type" : "_ZTIN4llvm7AlignOfIPNS_4TypeEE27$Alignment_LessEqual_2BytesE",
   "size" : 4,
   "source_file" : "external/llvm/include/llvm/Support/AlignOf.h",
   "underlying_type" : "_ZTIj"
  },
  {
   "alignment" : 4,
   "enum_fields" :
   [
    {
     "enum_field_value" : 1,
     "name" : "llvm::AlignOf<llvm::Type *>::Alignment_LessEqual_4Bytes"
    }
   ],
   "linker_set_key" : "_ZTIN4llvm7AlignOfIPNS_4TypeEE27$Alignment_LessEqual_4BytesE",
   "name" : "llvm::AlignOf<Type *>::(anonymous enum at external/llvm/include/llvm/Support/AlignOf.h:92:3)",
   "referenced_type" : "_ZTIN4llvm7AlignOfIPNS_4TypeEE27$Alignment_LessEqual_4BytesE",
   "self_type" : "_ZTIN4llvm7AlignOfIPNS_4TypeEE27$Alignment_LessEqual_4BytesE",
   "size" : 4,
   "source_file" : "external/llvm/include/llvm/Support/AlignOf.h",
   "underlying_type" : "_ZTIj"
  },
  {
   "alignment" : 4,
   "enum_fields" :
   [
    {
     "enum_field_value" : 1,
     "name" : "llvm::AlignOf<llvm::Type *>::Alignment_LessEqual_8Bytes"
    }
   ],
   "linker_set_key" : "_ZTIN4llvm7AlignOfIPNS_4TypeEE27$Alignment_LessEqual_8BytesE",
   "name" : "llvm::AlignOf<Type *>::(anonymous enum at external/llvm/include/llvm/Support/AlignOf.h:93:3)",
   "referenced_type" : "_ZTIN4llvm7AlignOfIPNS_4TypeEE27$Alignment_LessEqual_8BytesE",
   "self_type" : "_ZTIN4llvm7AlignOfIPNS_4TypeEE27$Alignment_LessEqual_8BytesE",
   "size" : 4,
   "source_file" : "external/llvm/include/llvm/Support/AlignOf.h",
   "underlying_type" : "_ZTIj"
  },
  {
   "alignment" : 4,
   "enum_fields" :
   [
    {
     "enum_field_value" : 1,
     "name" : "llvm::AlignOf<llvm::Type *>::Alignment_LessEqual_16Bytes"
    }
   ],
   "linker_set_key" : "_ZTIN4llvm7AlignOfIPNS_4TypeEE28$Alignment_LessEqual_16BytesE",
   "name" : "llvm::AlignOf<Type *>::(anonymous enum at external/llvm/include/llvm/Support/AlignOf.h:94:3)",
   "referenced_type" : "_ZTIN4llvm7AlignOfIPNS_4TypeEE28$Alignment_LessEqual_16BytesE",
   "self_type" : "_ZTIN4llvm7AlignOfIPNS_4TypeEE28$Alignment_LessEqual_16BytesE",
   "size" : 4,
   "source_file" : "external/llvm/include/llvm/Support/AlignOf.h",
   "underlying_type" : "_ZTIj"
  },
  {
   "alignment" : 4,
   "enum_fields" :
   [
    {
     "enum_field_value" : 1,
     "name" : "llvm::AlignOf<llvm::Type *>::Alignment_GreaterEqual_2Bytes"
    }
   ],
   "linker_set_key" : "_ZTIN4llvm7AlignOfIPNS_4TypeEE30$Alignment_GreaterEqual_2BytesE",
   "name" : "llvm::AlignOf<Type *>::(anonymous enum at external/llvm/include/llvm/Support/AlignOf.h:86:3)",
   "referenced_type" : "_ZTIN4llvm7AlignOfIPNS_4TypeEE30$Alignment_GreaterEqual_2BytesE",
   "self_type" : "_ZTIN4llvm7AlignOfIPNS_4TypeEE30$Alignment_GreaterEqual_2BytesE",
   "size" : 4,
   "source_file" : "external/llvm/include/llvm/Support/AlignOf.h",
   "underlying_type" : "_ZTIj"
  },
  {
   "alignment" : 4,
   "enum_fields" :
   [
    {
     "enum_field_value" : 1,
     "name" : "llvm::AlignOf<llvm::Type *>::Alignment_GreaterEqual_4Bytes"
    }
   ],
   "linker_set_key" : "_ZTIN4llvm7AlignOfIPNS_4TypeEE30$Alignment_GreaterEqual_4BytesE",
   "name" : "llvm::AlignOf<Type *>::(anonymous enum at external/llvm/include/llvm/Support/AlignOf.h:87:3)",
   "referenced_type" : "_ZTIN4llvm7AlignOfIPNS_4TypeEE30$Alignment_GreaterEqual_4BytesE",
   "self_type" : "_ZTIN4llvm7AlignOfIPNS_4TypeEE30$Alignment_GreaterEqual_4BytesE",
   "size" : 4,
   "source_file" : "external/llvm/include/llvm/Support/AlignOf.h",
   "underlying_type" : "_ZTIj"
  },
  {
   "alignment" : 4,
   "enum_fields" :
   [
    {
     "enum_field_value" : 0,
     "name" : "llvm::AlignOf<llvm::Type *>::Alignment_GreaterEqual_8Bytes"
    }
   ],
   "linker_set_key" : "_ZTIN4llvm7AlignOfIPNS_4TypeEE30$Alignment_GreaterEqual_8BytesE",
   "name" : "llvm::AlignOf<Type *>::(anonymous enum at external/llvm/include/llvm/Support/AlignOf.h:88:3)",
   "referenced_type" : "_ZTIN4llvm7AlignOfIPNS_4TypeEE30$Alignment_GreaterEqual_8BytesE",
   "self_type" : "_ZTIN4llvm7AlignOfIPNS_4TypeEE30$Alignment_GreaterEqual_8BytesE",
   "size" : 4,
   "source_file" : "external/llvm/include/llvm/Support/AlignOf.h",
   "underlying_type" : "_ZTIj"
  },
  {
   "alignment" : 4,
   "enum_fields" :
   [
    {
     "enum_field_value" : 0,
     "name" : "llvm::AlignOf<llvm::Type *>::Alignment_GreaterEqual_16Bytes"
    }
   ],
   "linker_set_key" : "_ZTIN4llvm7AlignOfIPNS_4TypeEE31$Alignment_GreaterEqual_16BytesE",
   "name" : "llvm::AlignOf<Type *>::(anonymous enum at external/llvm/include/llvm/Support/AlignOf.h:89:3)",
   "referenced_type" : "_ZTIN4llvm7AlignOfIPNS_4TypeEE31$Alignment_GreaterEqual_16BytesE",
   "self_type" : "_ZTIN4llvm7AlignOfIPNS_4TypeEE31$Alignment_GreaterEqual_16BytesE",
   "size" : 4,
   "source_file" : "external/llvm/include/llvm/Support/AlignOf.h",
   "underlying_type" : "_ZTIj"
  },
  {
   "alignment" : 4,
   "enum_fields" :
   [
    {
     "enum_field_value" : 0,
     "name" : "llvm::AlignOf<unsigned int>::Alignment_LessEqual_2Bytes"
    }
   ],
   "linker_set_key" : "_ZTIN4llvm7AlignOfIjE27$Alignment_LessEqual_2BytesE",
   "name" : "llvm::AlignOf<unsigned int>::(anonymous enum at external/llvm/include/llvm/Support/AlignOf.h:91:3)",
   "referenced_type" : "_ZTIN4llvm7AlignOfIjE27$Alignment_LessEqual_2BytesE",
   "self_type" : "_ZTIN4llvm7AlignOfIjE27$Alignment_LessEqual_2BytesE",
   "size" : 4,
   "source_file" : "external/llvm/include/llvm/Support/AlignOf.h",
   "underlying_type" : "_ZTIj"
  },
  {
   "alignment" : 4,
   "enum_fields" :
   [
    {
     "enum_field_value" : 1,
     "name" : "llvm::AlignOf<unsigned int>::Alignment_LessEqual_4Bytes"
    }
   ],
   "linker_set_key" : "_ZTIN4llvm7AlignOfIjE27$Alignment_LessEqual_4BytesE",
   "name" : "llvm::AlignOf<unsigned int>::(anonymous enum at external/llvm/include/llvm/Support/AlignOf.h:92:3)",
   "referenced_type" : "_ZTIN4llvm7AlignOfIjE27$Alignment_LessEqual_4BytesE",
   "self_type" : "_ZTIN4llvm7AlignOfIjE27$Alignment_LessEqual_4BytesE",
   "size" : 4,
   "source_file" : "external/llvm/include/llvm/Support/AlignOf.h",
   "underlying_type" : "_ZTIj"
  },
  {
   "alignment" : 4,
   "enum_fields" :
   [
    {
     "enum_field_value" : 1,
     "name" : "llvm::AlignOf<unsigned int>::Alignment_LessEqual_8Bytes"
    }
   ],
   "linker_set_key" : "_ZTIN4llvm7AlignOfIjE27$Alignment_LessEqual_8BytesE",
   "name" : "llvm::AlignOf<unsigned int>::(anonymous enum at external/llvm/include/llvm/Support/AlignOf.h:93:3)",
   "referenced_type" : "_ZTIN4llvm7AlignOfIjE27$Alignment_LessEqual_8BytesE",
   "self_type" : "_ZTIN4llvm7AlignOfIjE27$Alignment_LessEqual_8BytesE",
   "size" : 4,
   "source_file" : "external/llvm/include/llvm/Support/AlignOf.h",
   "underlying_type" : "_ZTIj"
  },
  {
   "alignment" : 4,
   "enum_fields" :
   [
    {
     "enum_field_value" : 1,
     "name" : "llvm::AlignOf<unsigned int>::Alignment_LessEqual_16Bytes"
    }
   ],
   "linker_set_key" : "_ZTIN4llvm7AlignOfIjE28$Alignment_LessEqual_16BytesE",
   "name" : "llvm::AlignOf<unsigned int>::(anonymous enum at external/llvm/include/llvm/Support/AlignOf.h:94:3)",
   "referenced_type" : "_ZTIN4llvm7AlignOfIjE28$Alignment_LessEqual_16BytesE",
   "self_type" : "_ZTIN4llvm7AlignOfIjE28$Alignment_LessEqual_16BytesE",
   "size" : 4,
   "source_file" : "external/llvm/include/llvm/Support/AlignOf.h",
   "underlying_type" : "_ZTIj"
  },
  {
   "alignment" : 4,
   "enum_fields" :
   [
    {
     "enum_field_value" : 1,
     "name" : "llvm::AlignOf<unsigned int>::Alignment_GreaterEqual_2Bytes"
    }
   ],
   "linker_set_key" : "_ZTIN4llvm7AlignOfIjE30$Alignment_GreaterEqual_2BytesE",
   "name" : "llvm::AlignOf<unsigned int>::(anonymous enum at external/llvm/include/llvm/Support/AlignOf.h:86:3)",
   "referenced_type" : "_ZTIN4llvm7AlignOfIjE30$Alignment_GreaterEqual_2BytesE",
   "self_type" : "_ZTIN4llvm7AlignOfIjE30$Alignment_GreaterEqual_2BytesE",
   "size" : 4,
   "source_file" : "external/llvm/include/llvm/Support/AlignOf.h",
   "underlying_type" : "_ZTIj"
  },
  {
   "alignment" : 4,
   "enum_fields" :
   [
    {
     "enum_field_value" : 1,
     "name" : "llvm::AlignOf<unsigned int>::Alignment_GreaterEqual_4Bytes"
    }
   ],
   "linker_set_key" : "_ZTIN4llvm7AlignOfIjE30$Alignment_GreaterEqual_4BytesE",
   "name" : "llvm::AlignOf<unsigned int>::(anonymous enum at external/llvm/include/llvm/Support/AlignOf.h:87:3)",
   "referenced_type" : "_ZTIN4llvm7AlignOfIjE30$Alignment_GreaterEqual_4BytesE",
   "self_type" : "_ZTIN4llvm7AlignOfIjE30$Alignment_GreaterEqual_4BytesE",
   "size" : 4,
   "source_file" : "external/llvm/include/llvm/Support/AlignOf.h",
   "underlying_type" : "_ZTIj"
  },
  {
   "alignment" : 4,
   "enum_fields" :
   [
    {
     "enum_field_value" : 0,
     "name" : "llvm::AlignOf<unsigned int>::Alignment_GreaterEqual_8Bytes"
    }
   ],
   "linker_set_key" : "_ZTIN4llvm7AlignOfIjE30$Alignment_GreaterEqual_8BytesE",
   "name" : "llvm::AlignOf<unsigned int>::(anonymous enum at external/llvm/include/llvm/Support/AlignOf.h:88:3)",
   "referenced_type" : "_ZTIN4llvm7AlignOfIjE30$Alignment_GreaterEqual_8BytesE",
   "self_type" : "_ZTIN4llvm7AlignOfIjE30$Alignment_GreaterEqual_8BytesE",
   "size" : 4,
   "source_file" : "external/llvm/include/llvm/Support/AlignOf.h",
   "underlying_type" : "_ZTIj"
  },
  {
   "alignment" : 4,
   "enum_fields" :
   [
    {
     "enum_field_value" : 0,
     "name" : "llvm::AlignOf<unsigned int>::Alignment_GreaterEqual_16Bytes"
    }
   ],
   "linker_set_key" : "_ZTIN4llvm7AlignOfIjE31$Alignment_GreaterEqual_16BytesE",
   "name" : "llvm::AlignOf<unsigned int>::(anonymous enum at external/llvm/include/llvm/Support/AlignOf.h:89:3)",
   "referenced_type" : "_ZTIN4llvm7AlignOfIjE31$Alignment_GreaterEqual_16BytesE",
   "self_type" : "_ZTIN4llvm7AlignOfIjE31$Alignment_GreaterEqual_16BytesE",
   "size" : 4,
   "source_file" : "external/llvm/include/llvm/Support/AlignOf.h",
   "underlying_type" : "_ZTIj"
  },
  {
   "alignment" : 4,
   "enum_fields" :
   [
    {
     "enum_field_value" : 1,
     "name" : "llvm::AlignOf<unsigned short>::Alignment_LessEqual_2Bytes"
    }
   ],
   "linker_set_key" : "_ZTIN4llvm7AlignOfItE27$Alignment_LessEqual_2BytesE",
   "name" : "llvm::AlignOf<unsigned short>::(anonymous enum at external/llvm/include/llvm/Support/AlignOf.h:91:3)",
   "referenced_type" : "_ZTIN4llvm7AlignOfItE27$Alignment_LessEqual_2BytesE",
   "self_type" : "_ZTIN4llvm7AlignOfItE27$Alignment_LessEqual_2BytesE",
   "size" : 4,
   "source_file" : "external/llvm/include/llvm/Support/AlignOf.h",
   "underlying_type" : "_ZTIj"
  },
  {
   "alignment" : 4,
   "enum_fields" :
   [
    {
     "enum_field_value" : 1,
     "name" : "llvm::AlignOf<unsigned short>::Alignment_LessEqual_4Bytes"
    }
   ],
   "linker_set_key" : "_ZTIN4llvm7AlignOfItE27$Alignment_LessEqual_4BytesE",
   "name" : "llvm::AlignOf<unsigned short>::(anonymous enum at external/llvm/include/llvm/Support/AlignOf.h:92:3)",
   "referenced_type" : "_ZTIN4llvm7AlignOfItE27$Alignment_LessEqual_4BytesE",
   "self_type" : "_ZTIN4llvm7AlignOfItE27$Alignment_LessEqual_4BytesE",
   "size" : 4,
   "source_file" : "external/llvm/include/llvm/Support/AlignOf.h",
   "underlying_type" : "_ZTIj"
  },
  {
   "alignment" : 4,
   "enum_fields" :
   [
    {
     "enum_field_value" : 1,
     "name" : "llvm::AlignOf<unsigned short>::Alignment_LessEqual_8Bytes"
    }
   ],
   "linker_set_key" : "_ZTIN4llvm7AlignOfItE27$Alignment_LessEqual_8BytesE",
   "name" : "llvm::AlignOf<unsigned short>::(anonymous enum at external/llvm/include/llvm/Support/AlignOf.h:93:3)",
   "referenced_type" : "_ZTIN4llvm7AlignOfItE27$Alignment_LessEqual_8BytesE",
   "self_type" : "_ZTIN4llvm7AlignOfItE27$Alignment_LessEqual_8BytesE",
   "size" : 4,
   "source_file" : "external/llvm/include/llvm/Support/AlignOf.h",
   "underlying_type" : "_ZTIj"
  },
  {
   "alignment" : 4,
   "enum_fields" :
   [
    {
     "enum_field_value" : 1,
     "name" : "llvm::AlignOf<unsigned short>::Alignment_LessEqual_16Bytes"
    }
   ],
   "linker_set_key" : "_ZTIN4llvm7AlignOfItE28$Alignment_LessEqual_16BytesE",
   "name" : "llvm::AlignOf<unsigned short>::(anonymous enum at external/llvm/include/llvm/Support/AlignOf.h:94:3)",
   "referenced_type" : "_ZTIN4llvm7AlignOfItE28$Alignment_LessEqual_16BytesE",
   "self_type" : "_ZTIN4llvm7AlignOfItE28$Alignment_LessEqual_16BytesE",
   "size" : 4,
   "source_file" : "external/llvm/include/llvm/Support/AlignOf.h",
   "underlying_type" : "_ZTIj"
  },
  {
   "alignment" : 4,
   "enum_fields" :
   [
    {
     "enum_field_value" : 1,
     "name" : "llvm::AlignOf<unsigned short>::Alignment_GreaterEqual_2Bytes"
    }
   ],
   "linker_set_key" : "_ZTIN4llvm7AlignOfItE30$Alignment_GreaterEqual_2BytesE",
   "name" : "llvm::AlignOf<unsigned short>::(anonymous enum at external/llvm/include/llvm/Support/AlignOf.h:86:3)",
   "referenced_type" : "_ZTIN4llvm7AlignOfItE30$Alignment_GreaterEqual_2BytesE",
   "self_type" : "_ZTIN4llvm7AlignOfItE30$Alignment_GreaterEqual_2BytesE",
   "size" : 4,
   "source_file" : "external/llvm/include/llvm/Support/AlignOf.h",
   "underlying_type" : "_ZTIj"
  },
  {
   "alignment" : 4,
   "enum_fields" :
   [
    {
     "enum_field_value" : 0,
     "name" : "llvm::AlignOf<unsigned short>::Alignment_GreaterEqual_4Bytes"
    }
   ],
   "linker_set_key" : "_ZTIN4llvm7AlignOfItE30$Alignment_GreaterEqual_4BytesE",
   "name" : "llvm::AlignOf<unsigned short>::(anonymous enum at external/llvm/include/llvm/Support/AlignOf.h:87:3)",
   "referenced_type" : "_ZTIN4llvm7AlignOfItE30$Alignment_GreaterEqual_4BytesE",
   "self_type" : "_ZTIN4llvm7AlignOfItE30$Alignment_GreaterEqual_4BytesE",
   "size" : 4,
   "source_file" : "external/llvm/include/llvm/Support/AlignOf.h",
   "underlying_type" : "_ZTIj"
  },
  {
   "alignment" : 4,
   "enum_fields" :
   [
    {
     "enum_field_value" : 0,
     "name" : "llvm::AlignOf<unsigned short>::Alignment_GreaterEqual_8Bytes"
    }
   ],
   "linker_set_key" : "_ZTIN4llvm7AlignOfItE30$Alignment_GreaterEqual_8BytesE",
   "name" : "llvm::AlignOf<unsigned short>::(anonymous enum at external/llvm/include/llvm/Support/AlignOf.h:88:3)",
   "referenced_type" : "_ZTIN4llvm7AlignOfItE30$Alignment_GreaterEqual_8BytesE",
   "self_type" : "_ZTIN4llvm7AlignOfItE30$Alignment_GreaterEqual_8BytesE",
   "size" : 4,
   "source_file" : "external/llvm/include/llvm/Support/AlignOf.h",
   "underlying_type" : "_ZTIj"
  },
  {
   "alignment" : 4,
   "enum_fields" :
   [
    {
     "enum_field_value" : 0,
     "name" : "llvm::AlignOf<unsigned short>::Alignment_GreaterEqual_16Bytes"
    }
   ],
   "linker_set_key" : "_ZTIN4llvm7AlignOfItE31$Alignment_GreaterEqual_16BytesE",
   "name" : "llvm::AlignOf<unsigned short>::(anonymous enum at external/llvm/include/llvm/Support/AlignOf.h:89:3)",
   "referenced_type" : "_ZTIN4llvm7AlignOfItE31$Alignment_GreaterEqual_16BytesE",
   "self_type" : "_ZTIN4llvm7AlignOfItE31$Alignment_GreaterEqual_16BytesE",
   "size" : 4,
   "source_file" : "external/llvm/include/llvm/Support/AlignOf.h",
   "underlying_type" : "_ZTIj"
  },
  {
   "alignment" : 4,
   "enum_fields" :
   [
    {
     "enum_field_value" : 0,
     "name" : "llvm::AlignOf<unsigned long long>::Alignment_LessEqual_2Bytes"
    }
   ],
   "linker_set_key" : "_ZTIN4llvm7AlignOfIyE27$Alignment_LessEqual_2BytesE",
   "name" : "llvm::AlignOf<unsigned long long>::(anonymous enum at external/llvm/include/llvm/Support/AlignOf.h:91:3)",
   "referenced_type" : "_ZTIN4llvm7AlignOfIyE27$Alignment_LessEqual_2BytesE",
   "self_type" : "_ZTIN4llvm7AlignOfIyE27$Alignment_LessEqual_2BytesE",
   "size" : 4,
   "source_file" : "external/llvm/include/llvm/Support/AlignOf.h",
   "underlying_type" : "_ZTIj"
  },
  {
   "alignment" : 4,
   "enum_fields" :
   [
    {
     "enum_field_value" : 0,
     "name" : "llvm::AlignOf<unsigned long long>::Alignment_LessEqual_4Bytes"
    }
   ],
   "linker_set_key" : "_ZTIN4llvm7AlignOfIyE27$Alignment_LessEqual_4BytesE",
   "name" : "llvm::AlignOf<unsigned long long>::(anonymous enum at external/llvm/include/llvm/Support/AlignOf.h:92:3)",
   "referenced_type" : "_ZTIN4llvm7AlignOfIyE27$Alignment_LessEqual_4BytesE",
   "self_type" : "_ZTIN4llvm7AlignOfIyE27$Alignment_LessEqual_4BytesE",
   "size" : 4,
   "source_file" : "external/llvm/include/llvm/Support/AlignOf.h",
   "underlying_type" : "_ZTIj"
  },
  {
   "alignment" : 4,
   "enum_fields" :
   [
    {
     "enum_field_value" : 1,
     "name" : "llvm::AlignOf<unsigned long long>::Alignment_LessEqual_8Bytes"
    }
   ],
   "linker_set_key" : "_ZTIN4llvm7AlignOfIyE27$Alignment_LessEqual_8BytesE",
   "name" : "llvm::AlignOf<unsigned long long>::(anonymous enum at external/llvm/include/llvm/Support/AlignOf.h:93:3)",
   "referenced_type" : "_ZTIN4llvm7AlignOfIyE27$Alignment_LessEqual_8BytesE",
   "self_type" : "_ZTIN4llvm7AlignOfIyE27$Alignment_LessEqual_8BytesE",
   "size" : 4,
   "source_file" : "external/llvm/include/llvm/Support/AlignOf.h",
   "underlying_type" : "_ZTIj"
  },
  {
   "alignment" : 4,
   "enum_fields" :
   [
    {
     "enum_field_value" : 1,
     "name" : "llvm::AlignOf<unsigned long long>::Alignment_LessEqual_16Bytes"
    }
   ],
   "linker_set_key" : "_ZTIN4llvm7AlignOfIyE28$Alignment_LessEqual_16BytesE",
   "name" : "llvm::AlignOf<unsigned long long>::(anonymous enum at external/llvm/include/llvm/Support/AlignOf.h:94:3)",
   "referenced_type" : "_ZTIN4llvm7AlignOfIyE28$Alignment_LessEqual_16BytesE",
   "self_type" : "_ZTIN4llvm7AlignOfIyE28$Alignment_LessEqual_16BytesE",
   "size" : 4,
   "source_file" : "external/llvm/include/llvm/Support/AlignOf.h",
   "underlying_type" : "_ZTIj"
  },
  {
   "alignment" : 4,
   "enum_fields" :
   [
    {
     "enum_field_value" : 1,
     "name" : "llvm::AlignOf<unsigned long long>::Alignment_GreaterEqual_2Bytes"
    }
   ],
   "linker_set_key" : "_ZTIN4llvm7AlignOfIyE30$Alignment_GreaterEqual_2BytesE",
   "name" : "llvm::AlignOf<unsigned long long>::(anonymous enum at external/llvm/include/llvm/Support/AlignOf.h:86:3)",
   "referenced_type" : "_ZTIN4llvm7AlignOfIyE30$Alignment_GreaterEqual_2BytesE",
   "self_type" : "_ZTIN4llvm7AlignOfIyE30$Alignment_GreaterEqual_2BytesE",
   "size" : 4,
   "source_file" : "external/llvm/include/llvm/Support/AlignOf.h",
   "underlying_type" : "_ZTIj"
  },
  {
   "alignment" : 4,
   "enum_fields" :
   [
    {
     "enum_field_value" : 1,
     "name" : "llvm::AlignOf<unsigned long long>::Alignment_GreaterEqual_4Bytes"
    }
   ],
   "linker_set_key" : "_ZTIN4llvm7AlignOfIyE30$Alignment_GreaterEqual_4BytesE",
   "name" : "llvm::AlignOf<unsigned long long>::(anonymous enum at external/llvm/include/llvm/Support/AlignOf.h:87:3)",
   "referenced_type" : "_ZTIN4llvm7AlignOfIyE30$Alignment_GreaterEqual_4BytesE",
   "self_type" : "_ZTIN4llvm7AlignOfIyE30$Alignment_GreaterEqual_4BytesE",
   "size" : 4,
   "source_file" : "external/llvm/include/llvm/Support/AlignOf.h",
   "underlying_type" : "_ZTIj"
  },
  {
   "alignment" : 4,
   "enum_fields" :
   [
    {
     "enum_field_value" : 1,
     "name" : "llvm::AlignOf<unsigned long long>::Alignment_GreaterEqual_8Bytes"
    }
   ],
   "linker_set_key" : "_ZTIN4llvm7AlignOfIyE30$Alignment_GreaterEqual_8BytesE",
   "name" : "llvm::AlignOf<unsigned long long>::(anonymous enum at external/llvm/include/llvm/Support/AlignOf.h:88:3)",
   "referenced_type" : "_ZTIN4llvm7AlignOfIyE30$Alignment_GreaterEqual_8BytesE",
   "self_type" : "_ZTIN4llvm7AlignOfIyE30$Alignment_GreaterEqual_8BytesE",
   "size" : 4,
   "source_file" : "external/llvm/include/llvm/Support/AlignOf.h",
   "underlying_type" : "_ZTIj"
  },
  {
   "alignment" : 4,
   "enum_fields" :
   [
    {
     "enum_field_value" : 0,
     "name" : "llvm::AlignOf<unsigned long long>::Alignment_GreaterEqual_16Bytes"
    }
   ],
   "linker_set_key" : "_ZTIN4llvm7AlignOfIyE31$Alignment_GreaterEqual_16BytesE",
   "name" : "llvm::AlignOf<unsigned long long>::(anonymous enum at external/llvm/include/llvm/Support/AlignOf.h:89:3)",
   "referenced_type" : "_ZTIN4llvm7AlignOfIyE31$Alignment_GreaterEqual_16BytesE",
   "self_type" : "_ZTIN4llvm7AlignOfIyE31$Alignment_GreaterEqual_16BytesE",
   "size" : 4,
   "source_file" : "external/llvm/include/llvm/Support/AlignOf.h",
   "underlying_type" : "_ZTIj"
  },
  {
   "alignment" : 4,
   "enum_fields" :
   [
    {
     "enum_field_value" : 0,
     "name" : "llvm::support::big"
    },
    {
     "enum_field_value" : 1,
     "name" : "llvm::support::little"
    },
    {
     "enum_field_value" : 2,
     "name" : "llvm::support::native"
    }
   ],
   "linker_set_key" : "_ZTIN4llvm7support10endiannessE",
   "name" : "llvm::support::endianness",
   "referenced_type" : "_ZTIN4llvm7support10endiannessE",
   "self_type" : "_ZTIN4llvm7support10endiannessE",
   "size" : 4,
   "source_file" : "external/llvm/include/llvm/Support/Endian.h",
   "underlying_type" : "_ZTIj"
  },
  {
   "alignment" : 4,
   "enum_fields" :
   [
    {
     "enum_field_value" : 1,
     "name" : "llvm::support::detail::PickAlignment<unsigned int, 1>::value"
    }
   ],
   "linker_set_key" : "_ZTIN4llvm7support6detail13PickAlignmentIjLi1EE6$valueE",
   "name" : "llvm::support::detail::PickAlignment<unsigned int, 1>::(anonymous enum at external/llvm/include/llvm/Support/Endian.h:32:5)",
   "referenced_type" : "_ZTIN4llvm7support6detail13PickAlignmentIjLi1EE6$valueE",
   "self_type" : "_ZTIN4llvm7support6detail13PickAlignmentIjLi1EE6$valueE",
   "size" : 4,
   "source_file" : "external/llvm/include/llvm/Support/Endian.h",
   "underlying_type" : "_ZTIj"
  },
  {
   "alignment" : 4,
   "enum_fields" :
   [
    {
     "enum_field_value" : 1,
     "name" : "llvm::support::detail::PickAlignment<unsigned short, 1>::value"
    }
   ],
   "linker_set_key" : "_ZTIN4llvm7support6detail13PickAlignmentItLi1EE6$valueE",
   "name" : "llvm::support::detail::PickAlignment<unsigned short, 1>::(anonymous enum at external/llvm/include/llvm/Support/Endian.h:32:5)",
   "referenced_type" : "_ZTIN4llvm7support6detail13PickAlignmentItLi1EE6$valueE",
   "self_type" : "_ZTIN4llvm7support6detail13PickAlignmentItLi1EE6$valueE",
   "size" : 4,
   "source_file" : "external/llvm/include/llvm/Support/Endian.h",
   "underlying_type" : "_ZTIj"
  },
  {
   "alignment" : 4,
   "enum_fields" :
   [
    {
     "enum_field_value" : 1,
     "name" : "llvm::support::detail::PickAlignment<unsigned long long, 1>::value"
    }
   ],
   "linker_set_key" : "_ZTIN4llvm7support6detail13PickAlignmentIyLi1EE6$valueE",
   "name" : "llvm::support::detail::PickAlignment<unsigned long long, 1>::(anonymous enum at external/llvm/include/llvm/Support/Endian.h:32:5)",
   "referenced_type" : "_ZTIN4llvm7support6detail13PickAlignmentIyLi1EE6$valueE",
   "self_type" : "_ZTIN4llvm7support6detail13PickAlignmentIyLi1EE6$valueE",
   "size" : 4,
   "source_file" : "external/llvm/include/llvm/Support/Endian.h",
   "underlying_type" : "_ZTIj"
  },
  {
   "alignment" : 4,
   "enum_fields" :
   [
    {
     "enum_field_value" : 0,
     "name" : "llvm::support::aligned"
    },
    {
     "enum_field_value" : 1,
     "name" : "llvm::support::unaligned"
    }
   ],
   "linker_set_key" : "_ZTIN4llvm7support8$alignedE",
   "name" : "llvm::support::(anonymous enum at external/llvm/include/llvm/Support/Endian.h:26:1)",
   "referenced_type" : "_ZTIN4llvm7support8$alignedE",
   "self_type" : "_ZTIN4llvm7support8$alignedE",
   "size" : 4,
   "source_file" : "external/llvm/include/llvm/Support/Endian.h",
   "underlying_type" : "_ZTIj"
  },
  {
   "alignment" : 4,
   "enum_fields" :
   [
    {
     "enum_field_value" : 0,
     "name" : "llvm::NoneType::None"
    }
   ],
   "linker_set_key" : "_ZTIN4llvm8NoneTypeE",
   "name" : "llvm::NoneType",
   "referenced_type" : "_ZTIN4llvm8NoneTypeE",
   "self_type" : "_ZTIN4llvm8NoneTypeE",
   "size" : 4,
   "source_file" : "external/llvm/include/llvm/ADT/None.h",
   "underlying_type" : "_ZTIi"
  }
 ],
 "function_types" :
 [
  {
   "alignment" : 4,
   "linker_set_key" : "_ZTIFvPvRKNSt3__112basic_stringIcNS0_11char_traitsIcEENS0_9allocatorIcEEEEbE",
   "name" : "void (void *, const std::__1::basic_string<char> &, bool)",
   "parameters" :
   [
    {
     "referenced_type" : "_ZTIPv"
    },
    {
     "referenced_type" : "_ZTIRKNSt3__112basic_stringIcNS_11char_traitsIcEENS_9allocatorIcEEEE"
    },
    {
     "referenced_type" : "_ZTIb"
    }
   ],
   "referenced_type" : "_ZTIFvPvRKNSt3__112basic_stringIcNS0_11char_traitsIcEENS0_9allocatorIcEEEEbE",
   "return_type" : "_ZTIv",
   "self_type" : "_ZTIFvPvRKNSt3__112basic_stringIcNS0_11char_traitsIcEENS0_9allocatorIcEEEEbE",
   "source_file" : "external/llvm/include/llvm/Support/ErrorHandling.h"
  }
 ],
 "functions" :
 [
  {
   "function_name" : "llvm::StructType::classof",
   "linker_set_key" : "_ZN4llvm10StructType7classofEPKNS_4TypeE",
   "parameters" :
   [
    {
     "referenced_type" : "_ZTIPKN4llvm4TypeE"
    }
   ],
   "return_type" : "_ZTIb",
   "source_file" : "external/llvm/include/llvm/IR/DerivedTypes.h"
  },
  {
   "access" : "private",
   "function_name" : "llvm::StructType::StructType",
   "linker_set_key" : "_ZN4llvm10StructTypeC1ERNS_11LLVMContextE",
   "parameters" :
   [
    {
     "is_this_ptr" : true,
     "referenced_type" : "_ZTIPN4llvm10StructTypeE"
    },
    {
     "referenced_type" : "_ZTIRN4llvm11LLVMContextE"
    }
   ],
   "return_type" : "_ZTIv",
   "source_file" : "external/llvm/include/llvm/IR/DerivedTypes.h"
  },
  {
   "access" : "private",
   "function_name" : "llvm::StructType::StructType",
   "linker_set_key" : "_ZN4llvm10StructTypeC2ERNS_11LLVMContextE",
   "parameters" :
   [
    {
     "is_this_ptr" : true,
     "referenced_type" : "_ZTIPN4llvm10StructTypeE"
    },
    {
     "referenced_type" : "_ZTIRN4llvm11LLVMContextE"
    }
   ],
   "return_type" : "_ZTIv",
   "source_file" : "external/llvm/include/llvm/IR/DerivedTypes.h"
  },
  {
   "function_name" : "llvm::VectorType::getInteger",
   "linker_set_key" : "_ZN4llvm10VectorType10getIntegerEPS0_",
   "parameters" :
   [
    {
     "referenced_type" : "_ZTIPN4llvm10VectorTypeE"
    }
   ],
   "return_type" : "_ZTIPN4llvm10VectorTypeE",
   "source_file" : "external/llvm/include/llvm/IR/DerivedTypes.h"
  },
  {
   "function_name" : "llvm::VectorType::getHalfElementsVectorType",
   "linker_set_key" : "_ZN4llvm10VectorType25getHalfElementsVectorTypeEPS0_",
   "parameters" :
   [
    {
     "referenced_type" : "_ZTIPN4llvm10VectorTypeE"
    }
   ],
   "return_type" : "_ZTIPN4llvm10VectorTypeE",
   "source_file" : "external/llvm/include/llvm/IR/DerivedTypes.h"
  },
  {
   "function_name" : "llvm::VectorType::getDoubleElementsVectorType",
   "linker_set_key" : "_ZN4llvm10VectorType27getDoubleElementsVectorTypeEPS0_",
   "parameters" :
   [
    {
     "referenced_type" : "_ZTIPN4llvm10VectorTypeE"
    }
   ],
   "return_type" : "_ZTIPN4llvm10VectorTypeE",
   "source_file" : "external/llvm/include/llvm/IR/DerivedTypes.h"
  },
  {
   "function_name" : "llvm::VectorType::getExtendedElementVectorType",
   "linker_set_key" : "_ZN4llvm10VectorType28getExtendedElementVectorTypeEPS0_",
   "parameters" :
   [
    {
     "referenced_type" : "_ZTIPN4llvm10VectorTypeE"
    }
   ],
   "return_type" : "_ZTIPN4llvm10VectorTypeE",
   "source_file" : "external/llvm/include/llvm/IR/DerivedTypes.h"
  },
  {
   "function_name" : "llvm::VectorType::getTruncatedElementVectorType",
   "linker_set_key" : "_ZN4llvm10VectorType29getTruncatedElementVectorTypeEPS0_",
   "parameters" :
   [
    {
     "referenced_type" : "_ZTIPN4llvm10VectorTypeE"
    }
   ],
   "return_type" : "_ZTIPN4llvm10VectorTypeE",
   "source_file" : "external/llvm/include/llvm/IR/DerivedTypes.h"
  },
  {
   "function_name" : "llvm::VectorType::classof",
   "linker_set_key" : "_ZN4llvm10VectorType7classofEPKNS_4TypeE",
   "parameters" :
   [
    {
     "referenced_type" : "_ZTIPKN4llvm4TypeE"
    }
   ],
   "return_type" : "_ZTIb",
   "source_file" : "external/llvm/include/llvm/IR/DerivedTypes.h"
  },
  {
   "function_name" : "llvm::hash_value",
   "linker_set_key" : "_ZN4llvm10hash_valueERKNS_9hash_codeE",
   "parameters" :
   [
    {
     "referenced_type" : "_ZTIRKN4llvm9hash_codeE"
    }
   ],
   "return_type" : "_ZTIj",
   "source_file" : "external/llvm/include/llvm/ADT/Hashing.h"
  },
  {
   "function_name" : "llvm::make_range",
   "linker_set_key" : "_ZN4llvm10make_rangeINS_4User17value_op_iteratorEEENS_14iterator_rangeIT_EES4_S4_",
   "parameters" :
   [
    {
     "referenced_type" : "_ZTIN4llvm4User17value_op_iteratorE"
    },
    {
     "referenced_type" : "_ZTIN4llvm4User17value_op_iteratorE"
    }
   ],
   "return_type" : "_ZTIN4llvm14iterator_rangeINS_4User17value_op_iteratorEEE",
   "source_file" : "external/llvm/include/llvm/ADT/iterator_range.h",
   "template_args" : [ "_ZTIN4llvm4User17value_op_iteratorE" ]
  },
  {
   "function_name" : "llvm::make_range",
   "linker_set_key" : "_ZN4llvm10make_rangeINS_5Value17use_iterator_implIKNS_3UseEEEEENS_14iterator_rangeIT_EES7_S7_",
   "parameters" :
   [
    {
     "referenced_type" : "_ZTIN4llvm5Value17use_iterator_implIKNS_3UseEEE"
    },
    {
     "referenced_type" : "_ZTIN4llvm5Value17use_iterator_implIKNS_3UseEEE"
    }
   ],
   "return_type" : "_ZTIN4llvm14iterator_rangeINS_5Value17use_iterator_implIKNS_3UseEEEEE",
   "source_file" : "external/llvm/include/llvm/ADT/iterator_range.h",
   "template_args" : [ "_ZTIN4llvm5Value17use_iterator_implIKNS_3UseEEE" ]
  },
  {
   "function_name" : "llvm::make_range",
   "linker_set_key" : "_ZN4llvm10make_rangeINS_5Value17use_iterator_implINS_3UseEEEEENS_14iterator_rangeIT_EES6_S6_",
   "parameters" :
   [
    {
     "referenced_type" : "_ZTIN4llvm5Value17use_iterator_implINS_3UseEEE"
    },
    {
     "referenced_type" : "_ZTIN4llvm5Value17use_iterator_implINS_3UseEEE"
    }
   ],
   "return_type" : "_ZTIN4llvm14iterator_rangeINS_5Value17use_iterator_implINS_3UseEEEEE",
   "source_file" : "external/llvm/include/llvm/ADT/iterator_range.h",
   "template_args" : [ "_ZTIN4llvm5Value17use_iterator_implINS_3UseEEE" ]
  },
  {
   "function_name" : "llvm::make_range",
   "linker_set_key" : "_ZN4llvm10make_rangeINS_5Value18user_iterator_implIKNS_4UserEEEEENS_14iterator_rangeIT_EES7_S7_",
   "parameters" :
   [
    {
     "referenced_type" : "_ZTIN4llvm5Value18user_iterator_implIKNS_4UserEEE"
    },
    {
     "referenced_type" : "_ZTIN4llvm5Value18user_iterator_implIKNS_4UserEEE"
    }
   ],
   "return_type" : "_ZTIN4llvm14iterator_rangeINS_5Value18user_iterator_implIKNS_4UserEEEEE",
   "source_file" : "external/llvm/include/llvm/ADT/iterator_range.h",
   "template_args" : [ "_ZTIN4llvm5Value18user_iterator_implIKNS_4UserEEE" ]
  },
  {
   "function_name" : "llvm::make_range",
   "linker_set_key" : "_ZN4llvm10make_rangeINS_5Value18user_iterator_implINS_4UserEEEEENS_14iterator_rangeIT_EES6_S6_",
   "parameters" :
   [
    {
     "referenced_type" : "_ZTIN4llvm5Value18user_iterator_implINS_4UserEEE"
    },
    {
     "referenced_type" : "_ZTIN4llvm5Value18user_iterator_implINS_4UserEEE"
    }
   ],
   "return_type" : "_ZTIN4llvm14iterator_rangeINS_5Value18user_iterator_implINS_4UserEEEEE",
   "source_file" : "external/llvm/include/llvm/ADT/iterator_range.h",
   "template_args" : [ "_ZTIN4llvm5Value18user_iterator_implINS_4UserEEE" ]
  },
  {
   "function_name" : "llvm::make_range",
   "linker_set_key" : "_ZN4llvm10make_rangeIPKhEENS_14iterator_rangeIT_EES4_S4_",
   "parameters" :
   [
    {
     "referenced_type" : "_ZTIPKh"
    },
    {
     "referenced_type" : "_ZTIPKh"
    }
   ],
   "return_type" : "_ZTIN4llvm14iterator_rangeIPKhEE",
   "source_file" : "external/llvm/include/llvm/ADT/iterator_range.h",
   "template_args" : [ "_ZTIPKh" ]
  },
  {
   "function_name" : "llvm::BitsToFloat",
   "linker_set_key" : "_ZN4llvm11BitsToFloatEj",
   "parameters" :
   [
    {
     "referenced_type" : "_ZTIj"
    }
   ],
   "return_type" : "_ZTIf",
   "source_file" : "external/llvm/include/llvm/Support/MathExtras.h"
  },
  {
   "function_name" : "llvm::ByteSwap_16",
   "linker_set_key" : "_ZN4llvm11ByteSwap_16Et",
   "parameters" :
   [
    {
     "referenced_type" : "_ZTIt"
    }
   ],
   "return_type" : "_ZTIt",
   "source_file" : "external/llvm/include/llvm/Support/MathExtras.h"
  },
  {
   "function_name" : "llvm::ByteSwap_32",
   "linker_set_key" : "_ZN4llvm11ByteSwap_32Ej",
   "parameters" :
   [
    {
     "referenced_type" : "_ZTIj"
    }
   ],
   "return_type" : "_ZTIj",
   "source_file" : "external/llvm/include/llvm/Support/MathExtras.h"
  },
  {
   "function_name" : "llvm::ByteSwap_64",
   "linker_set_key" : "_ZN4llvm11ByteSwap_64Ey",
   "parameters" :
   [
    {
     "referenced_type" : "_ZTIy"
    }
   ],
   "return_type" : "_ZTIy",
   "source_file" : "external/llvm/include/llvm/Support/MathExtras.h"
  },
  {
   "function_name" : "llvm::FloatToBits",
   "linker_set_key" : "_ZN4llvm11FloatToBitsEf",
   "parameters" :
   [
    {
     "referenced_type" : "_ZTIf"
    }
   ],
   "return_type" : "_ZTIj",
   "source_file" : "external/llvm/include/llvm/Support/MathExtras.h"
  },
  {
   "function_name" : "llvm::GlobalValue::setLinkage",
   "linker_set_key" : "_ZN4llvm11GlobalValue10setLinkageENS0_12LinkageTypesE",
   "parameters" :
   [
    {
     "is_this_ptr" : true,
     "referenced_type" : "_ZTIPN4llvm11GlobalValueE"
    },
    {
     "referenced_type" : "_ZTIN4llvm11GlobalValue12LinkageTypesE"
    }
   ],
   "return_type" : "_ZTIv",
   "source_file" : "external/llvm/include/llvm/IR/GlobalValue.h"
  },
  {
   "function_name" : "llvm::GlobalValue::isWeakLinkage",
   "linker_set_key" : "_ZN4llvm11GlobalValue13isWeakLinkageENS0_12LinkageTypesE",
   "parameters" :
   [
    {
     "referenced_type" : "_ZTIN4llvm11GlobalValue12LinkageTypesE"
    }
   ],
   "return_type" : "_ZTIb",
   "source_file" : "external/llvm/include/llvm/IR/GlobalValue.h"
  },
  {
   "function_name" : "llvm::GlobalValue::setVisibility",
   "linker_set_key" : "_ZN4llvm11GlobalValue13setVisibilityENS0_15VisibilityTypesE",
   "parameters" :
   [
    {
     "is_this_ptr" : true,
     "referenced_type" : "_ZTIPN4llvm11GlobalValueE"
    },
    {
     "referenced_type" : "_ZTIN4llvm11GlobalValue15VisibilityTypesE"
    }
   ],
   "return_type" : "_ZTIv",
   "source_file" : "external/llvm/include/llvm/IR/GlobalValue.h"
  },
  {
   "function_name" : "llvm::GlobalValue::getWeakLinkage",
   "linker_set_key" : "_ZN4llvm11GlobalValue14getWeakLinkageEb",
   "parameters" :
   [
    {
     "referenced_type" : "_ZTIb"
    }
   ],
   "return_type" : "_ZTIN4llvm11GlobalValue12LinkageTypesE",
   "source_file" : "external/llvm/include/llvm/IR/GlobalValue.h"
  },
  {
   "function_name" : "llvm::GlobalValue::isLocalLinkage",
   "linker_set_key" : "_ZN4llvm11GlobalValue14isLocalLinkageENS0_12LinkageTypesE",
   "parameters" :
   [
    {
     "referenced_type" : "_ZTIN4llvm11GlobalValue12LinkageTypesE"
    }
   ],
   "return_type" : "_ZTIb",
   "source_file" : "external/llvm/include/llvm/IR/GlobalValue.h"
  },
  {
   "function_name" : "llvm::GlobalValue::setThreadLocal",
   "linker_set_key" : "_ZN4llvm11GlobalValue14setThreadLocalEb",
   "parameters" :
   [
    {
     "is_this_ptr" : true,
     "referenced_type" : "_ZTIPN4llvm11GlobalValueE"
    },
    {
     "referenced_type" : "_ZTIb"
    }
   ],
   "return_type" : "_ZTIv",
   "source_file" : "external/llvm/include/llvm/IR/GlobalValue.h"
  },
  {
   "function_name" : "llvm::GlobalValue::setUnnamedAddr",
   "linker_set_key" : "_ZN4llvm11GlobalValue14setUnnamedAddrENS0_11UnnamedAddrE",
   "parameters" :
   [
    {
     "is_this_ptr" : true,
     "referenced_type" : "_ZTIPN4llvm11GlobalValueE"
    },
    {
     "referenced_type" : "_ZTIN4llvm11GlobalValue11UnnamedAddrE"
    }
   ],
   "return_type" : "_ZTIv",
   "source_file" : "external/llvm/include/llvm/IR/GlobalValue.h"
  },
  {
   "function_name" : "llvm::GlobalValue::isCommonLinkage",
   "linker_set_key" : "_ZN4llvm11GlobalValue15isCommonLinkageENS0_12LinkageTypesE",
   "parameters" :
   [
    {
     "referenced_type" : "_ZTIN4llvm11GlobalValue12LinkageTypesE"
    }
   ],
   "return_type" : "_ZTIb",
   "source_file" : "external/llvm/include/llvm/IR/GlobalValue.h"
  },
  {
   "function_name" : "llvm::GlobalValue::isWeakForLinker",
   "linker_set_key" : "_ZN4llvm11GlobalValue15isWeakForLinkerENS0_12LinkageTypesE",
   "parameters" :
   [
    {
     "referenced_type" : "_ZTIN4llvm11GlobalValue12LinkageTypesE"
    }
   ],
   "return_type" : "_ZTIb",
   "source_file" : "external/llvm/include/llvm/IR/GlobalValue.h"
  },
  {
   "function_name" : "llvm::GlobalValue::isPrivateLinkage",
   "linker_set_key" : "_ZN4llvm11GlobalValue16isPrivateLinkageENS0_12LinkageTypesE",
   "parameters" :
   [
    {
     "referenced_type" : "_ZTIN4llvm11GlobalValue12LinkageTypesE"
    }
   ],
   "return_type" : "_ZTIb",
   "source_file" : "external/llvm/include/llvm/IR/GlobalValue.h"
  },
  {
   "function_name" : "llvm::GlobalValue::isWeakAnyLinkage",
   "linker_set_key" : "_ZN4llvm11GlobalValue16isWeakAnyLinkageENS0_12LinkageTypesE",
   "parameters" :
   [
    {
     "referenced_type" : "_ZTIN4llvm11GlobalValue12LinkageTypesE"
    }
   ],
   "return_type" : "_ZTIb",
   "source_file" : "external/llvm/include/llvm/IR/GlobalValue.h"
  },
  {
   "function_name" : "llvm::GlobalValue::isWeakODRLinkage",
   "linker_set_key" : "_ZN4llvm11GlobalValue16isWeakODRLinkageENS0_12LinkageTypesE",
   "parameters" :
   [
    {
     "referenced_type" : "_ZTIN4llvm11GlobalValue12LinkageTypesE"
    }
   ],
   "return_type" : "_ZTIb",
   "source_file" : "external/llvm/include/llvm/IR/GlobalValue.h"
  },
  {
   "function_name" : "llvm::GlobalValue::getMinUnnamedAddr",
   "linker_set_key" : "_ZN4llvm11GlobalValue17getMinUnnamedAddrENS0_11UnnamedAddrES1_",
   "parameters" :
   [
    {
     "referenced_type" : "_ZTIN4llvm11GlobalValue11UnnamedAddrE"
    },
    {
     "referenced_type" : "_ZTIN4llvm11GlobalValue11UnnamedAddrE"
    }
   ],
   "return_type" : "_ZTIN4llvm11GlobalValue11UnnamedAddrE",
   "source_file" : "external/llvm/include/llvm/IR/GlobalValue.h"
  },
  {
   "function_name" : "llvm::GlobalValue::isExternalLinkage",
   "linker_set_key" : "_ZN4llvm11GlobalValue17isExternalLinkageENS0_12LinkageTypesE",
   "parameters" :
   [
    {
     "referenced_type" : "_ZTIN4llvm11GlobalValue12LinkageTypesE"
    }
   ],
   "return_type" : "_ZTIb",
   "source_file" : "external/llvm/include/llvm/IR/GlobalValue.h"
  },
  {
   "function_name" : "llvm::GlobalValue::isInternalLinkage",
   "linker_set_key" : "_ZN4llvm11GlobalValue17isInternalLinkageENS0_12LinkageTypesE",
   "parameters" :
   [
    {
     "referenced_type" : "_ZTIN4llvm11GlobalValue12LinkageTypesE"
    }
   ],
   "return_type" : "_ZTIb",
   "source_file" : "external/llvm/include/llvm/IR/GlobalValue.h"
  },
  {
   "function_name" : "llvm::GlobalValue::isLinkOnceLinkage",
   "linker_set_key" : "_ZN4llvm11GlobalValue17isLinkOnceLinkageENS0_12LinkageTypesE",
   "parameters" :
   [
    {
     "referenced_type" : "_ZTIN4llvm11GlobalValue12LinkageTypesE"
    }
   ],
   "return_type" : "_ZTIb",
   "source_file" : "external/llvm/include/llvm/IR/GlobalValue.h"
  },
  {
   "function_name" : "llvm::GlobalValue::getLinkOnceLinkage",
   "linker_set_key" : "_ZN4llvm11GlobalValue18getLinkOnceLinkageEb",
   "parameters" :
   [
    {
     "referenced_type" : "_ZTIb"
    }
   ],
   "return_type" : "_ZTIN4llvm11GlobalValue12LinkageTypesE",
   "source_file" : "external/llvm/include/llvm/IR/GlobalValue.h"
  },
  {
   "function_name" : "llvm::GlobalValue::getRealLinkageName",
   "linker_set_key" : "_ZN4llvm11GlobalValue18getRealLinkageNameENS_9StringRefE",
   "parameters" :
   [
    {
     "referenced_type" : "_ZTIN4llvm9StringRefE"
    }
   ],
   "return_type" : "_ZTIN4llvm9StringRefE",
   "source_file" : "external/llvm/include/llvm/IR/GlobalValue.h"
  },
  {
   "function_name" : "llvm::GlobalValue::isAppendingLinkage",
   "linker_set_key" : "_ZN4llvm11GlobalValue18isAppendingLinkageENS0_12LinkageTypesE",
   "parameters" :
   [
    {
     "referenced_type" : "_ZTIN4llvm11GlobalValue12LinkageTypesE"
    }
   ],
   "return_type" : "_ZTIb",
   "source_file" : "external/llvm/include/llvm/IR/GlobalValue.h"
  },
  {
   "function_name" : "llvm::GlobalValue::setDLLStorageClass",
   "linker_set_key" : "_ZN4llvm11GlobalValue18setDLLStorageClassENS0_20DLLStorageClassTypesE",
   "parameters" :
   [
    {
     "is_this_ptr" : true,
     "referenced_type" : "_ZTIPN4llvm11GlobalValueE"
    },
    {
     "referenced_type" : "_ZTIN4llvm11GlobalValue20DLLStorageClassTypesE"
    }
   ],
   "return_type" : "_ZTIv",
   "source_file" : "external/llvm/include/llvm/IR/GlobalValue.h"
  },
  {
   "function_name" : "llvm::GlobalValue::setThreadLocalMode",
   "linker_set_key" : "_ZN4llvm11GlobalValue18setThreadLocalModeENS0_15ThreadLocalModeE",
   "parameters" :
   [
    {
     "is_this_ptr" : true,
     "referenced_type" : "_ZTIPN4llvm11GlobalValueE"
    },
    {
     "referenced_type" : "_ZTIN4llvm11GlobalValue15ThreadLocalModeE"
    }
   ],
   "return_type" : "_ZTIv",
   "source_file" : "external/llvm/include/llvm/IR/GlobalValue.h"
  },
  {
   "function_name" : "llvm::GlobalValue::isLinkOnceODRLinkage",
   "linker_set_key" : "_ZN4llvm11GlobalValue20isLinkOnceODRLinkageENS0_12LinkageTypesE",
   "parameters" :
   [
    {
     "referenced_type" : "_ZTIN4llvm11GlobalValue12LinkageTypesE"
    }
   ],
   "return_type" : "_ZTIb",
   "source_file" : "external/llvm/include/llvm/IR/GlobalValue.h"
  },
  {
   "function_name" : "llvm::GlobalValue::isDiscardableIfUnused",
   "linker_set_key" : "_ZN4llvm11GlobalValue21isDiscardableIfUnusedENS0_12LinkageTypesE",
   "parameters" :
   [
    {
     "referenced_type" : "_ZTIN4llvm11GlobalValue12LinkageTypesE"
    }
   ],
   "return_type" : "_ZTIb",
   "source_file" : "external/llvm/include/llvm/IR/GlobalValue.h"
  },
  {
   "function_name" : "llvm::GlobalValue::isExternalWeakLinkage",
   "linker_set_key" : "_ZN4llvm11GlobalValue21isExternalWeakLinkageENS0_12LinkageTypesE",
   "parameters" :
   [
    {
     "referenced_type" : "_ZTIN4llvm11GlobalValue12LinkageTypesE"
    }
   ],
   "return_type" : "_ZTIb",
   "source_file" : "external/llvm/include/llvm/IR/GlobalValue.h"
  },
  {
   "function_name" : "llvm::GlobalValue::isInterposableLinkage",
   "linker_set_key" : "_ZN4llvm11GlobalValue21isInterposableLinkageENS0_12LinkageTypesE",
   "parameters" :
   [
    {
     "referenced_type" : "_ZTIN4llvm11GlobalValue12LinkageTypesE"
    }
   ],
   "return_type" : "_ZTIb",
   "source_file" : "external/llvm/include/llvm/IR/GlobalValue.h"
  },
  {
   "function_name" : "llvm::GlobalValue::isValidDeclarationLinkage",
   "linker_set_key" : "_ZN4llvm11GlobalValue25isValidDeclarationLinkageENS0_12LinkageTypesE",
   "parameters" :
   [
    {
     "referenced_type" : "_ZTIN4llvm11GlobalValue12LinkageTypesE"
    }
   ],
   "return_type" : "_ZTIb",
   "source_file" : "external/llvm/include/llvm/IR/GlobalValue.h"
  },
  {
   "access" : "protected",
   "function_name" : "llvm::GlobalValue::setGlobalValueSubClassData",
   "linker_set_key" : "_ZN4llvm11GlobalValue26setGlobalValueSubClassDataEj",
   "parameters" :
   [
    {
     "is_this_ptr" : true,
     "referenced_type" : "_ZTIPN4llvm11GlobalValueE"
    },
    {
     "referenced_type" : "_ZTIj"
    }
   ],
   "return_type" : "_ZTIv",
   "source_file" : "external/llvm/include/llvm/IR/GlobalValue.h"
  },
  {
   "function_name" : "llvm::GlobalValue::isAvailableExternallyLinkage",
   "linker_set_key" : "_ZN4llvm11GlobalValue28isAvailableExternallyLinkageENS0_12LinkageTypesE",
   "parameters" :
   [
    {
     "referenced_type" : "_ZTIN4llvm11GlobalValue12LinkageTypesE"
    }
   ],
   "return_type" : "_ZTIb",
   "source_file" : "external/llvm/include/llvm/IR/GlobalValue.h"
  },
  {
   "function_name" : "llvm::GlobalValue::classof",
   "linker_set_key" : "_ZN4llvm11GlobalValue7classofEPKNS_5ValueE",
   "parameters" :
   [
    {
     "referenced_type" : "_ZTIPKN4llvm5ValueE"
    }
   ],
   "return_type" : "_ZTIb",
   "source_file" : "external/llvm/include/llvm/IR/GlobalValue.h"
  },
  {
   "function_name" : "llvm::GlobalValue::getGUID",
   "linker_set_key" : "_ZN4llvm11GlobalValue7getGUIDENS_9StringRefE",
   "parameters" :
   [
    {
     "referenced_type" : "_ZTIN4llvm9StringRefE"
    }
   ],
   "return_type" : "_ZTIy",
   "source_file" : "external/llvm/include/llvm/IR/GlobalValue.h"
  },
  {
   "function_name" : "llvm::GlobalValue::getParent",
   "linker_set_key" : "_ZN4llvm11GlobalValue9getParentEv",
   "parameters" :
   [
    {
     "is_this_ptr" : true,
     "referenced_type" : "_ZTIPN4llvm11GlobalValueE"
    }
   ],
   "return_type" : "_ZTIPN4llvm6ModuleE",
   "source_file" : "external/llvm/include/llvm/IR/GlobalValue.h"
  },
  {
   "access" : "protected",
   "function_name" : "llvm::GlobalValue::GlobalValue",
   "linker_set_key" : "_ZN4llvm11GlobalValueC2EPNS_4TypeENS_5Value7ValueTyEPNS_3UseEjNS0_12LinkageTypesERKNS_5TwineEj",
   "parameters" :
   [
    {
     "is_this_ptr" : true,
     "referenced_type" : "_ZTIPN4llvm11GlobalValueE"
    },
    {
     "referenced_type" : "_ZTIPN4llvm4TypeE"
    },
    {
     "referenced_type" : "_ZTIN4llvm5Value7ValueTyE"
    },
    {
     "referenced_type" : "_ZTIPN4llvm3UseE"
    },
    {
     "referenced_type" : "_ZTIj"
    },
    {
     "referenced_type" : "_ZTIN4llvm11GlobalValue12LinkageTypesE"
    },
    {
     "referenced_type" : "_ZTIRKN4llvm5TwineE"
    },
    {
     "referenced_type" : "_ZTIj"
    }
   ],
   "return_type" : "_ZTIv",
   "source_file" : "external/llvm/include/llvm/IR/GlobalValue.h"
  },
  {
   "function_name" : "llvm::GlobalValue::~GlobalValue",
   "linker_set_key" : "_ZN4llvm11GlobalValueD0Ev",
   "parameters" :
   [
    {
     "is_this_ptr" : true,
     "referenced_type" : "_ZTIPN4llvm11GlobalValueE"
    }
   ],
   "return_type" : "_ZTIv",
   "source_file" : "external/llvm/include/llvm/IR/GlobalValue.h"
  },
  {
   "function_name" : "llvm::GlobalValue::~GlobalValue",
   "linker_set_key" : "_ZN4llvm11GlobalValueD1Ev",
   "parameters" :
   [
    {
     "is_this_ptr" : true,
     "referenced_type" : "_ZTIPN4llvm11GlobalValueE"
    }
   ],
   "return_type" : "_ZTIv",
   "source_file" : "external/llvm/include/llvm/IR/GlobalValue.h"
  },
  {
   "function_name" : "llvm::GlobalValue::~GlobalValue",
   "linker_set_key" : "_ZN4llvm11GlobalValueD2Ev",
   "parameters" :
   [
    {
     "is_this_ptr" : true,
     "referenced_type" : "_ZTIPN4llvm11GlobalValueE"
    }
   ],
   "return_type" : "_ZTIv",
   "source_file" : "external/llvm/include/llvm/IR/GlobalValue.h"
  },
  {
   "function_name" : "llvm::GraphTraits<const llvm::Type *>::child_begin",
   "linker_set_key" : "_ZN4llvm11GraphTraitsIPKNS_4TypeEE11child_beginES3_",
   "parameters" :
   [
    {
     "referenced_type" : "_ZTIPKN4llvm4TypeE"
    }
   ],
   "return_type" : "_ZTIPKPN4llvm4TypeE",
   "source_file" : "external/llvm/include/llvm/IR/Type.h"
  },
  {
   "function_name" : "llvm::GraphTraits<const llvm::Type *>::getEntryNode",
   "linker_set_key" : "_ZN4llvm11GraphTraitsIPKNS_4TypeEE12getEntryNodeES3_",
   "parameters" :
   [
    {
     "referenced_type" : "_ZTIPKN4llvm4TypeE"
    }
   ],
   "return_type" : "_ZTIPKN4llvm4TypeE",
   "source_file" : "external/llvm/include/llvm/IR/Type.h"
  },
  {
   "function_name" : "llvm::GraphTraits<const llvm::Type *>::child_end",
   "linker_set_key" : "_ZN4llvm11GraphTraitsIPKNS_4TypeEE9child_endES3_",
   "parameters" :
   [
    {
     "referenced_type" : "_ZTIPKN4llvm4TypeE"
    }
   ],
   "return_type" : "_ZTIPKPN4llvm4TypeE",
   "source_file" : "external/llvm/include/llvm/IR/Type.h"
  },
  {
   "function_name" : "llvm::GraphTraits<llvm::Type *>::child_begin",
   "linker_set_key" : "_ZN4llvm11GraphTraitsIPNS_4TypeEE11child_beginES2_",
   "parameters" :
   [
    {
     "referenced_type" : "_ZTIPN4llvm4TypeE"
    }
   ],
   "return_type" : "_ZTIPKPN4llvm4TypeE",
   "source_file" : "external/llvm/include/llvm/IR/Type.h"
  },
  {
   "function_name" : "llvm::GraphTraits<llvm::Type *>::getEntryNode",
   "linker_set_key" : "_ZN4llvm11GraphTraitsIPNS_4TypeEE12getEntryNodeES2_",
   "parameters" :
   [
    {
     "referenced_type" : "_ZTIPN4llvm4TypeE"
    }
   ],
   "return_type" : "_ZTIPN4llvm4TypeE",
   "source_file" : "external/llvm/include/llvm/IR/Type.h"
  },
  {
   "function_name" : "llvm::GraphTraits<llvm::Type *>::child_end",
   "linker_set_key" : "_ZN4llvm11GraphTraitsIPNS_4TypeEE9child_endES2_",
   "parameters" :
   [
    {
     "referenced_type" : "_ZTIPN4llvm4TypeE"
    }
   ],
   "return_type" : "_ZTIPKPN4llvm4TypeE",
   "source_file" : "external/llvm/include/llvm/IR/Type.h"
  },
  {
   "function_name" : "llvm::IntegerType::classof",
   "linker_set_key" : "_ZN4llvm11IntegerType7classofEPKNS_4TypeE",
   "parameters" :
   [
    {
     "referenced_type" : "_ZTIPKN4llvm4TypeE"
    }
   ],
   "return_type" : "_ZTIb",
   "source_file" : "external/llvm/include/llvm/IR/DerivedTypes.h"
  },
  {
   "access" : "protected",
   "function_name" : "llvm::IntegerType::IntegerType",
   "linker_set_key" : "_ZN4llvm11IntegerTypeC1ERNS_11LLVMContextEj",
   "parameters" :
   [
    {
     "is_this_ptr" : true,
     "referenced_type" : "_ZTIPN4llvm11IntegerTypeE"
    },
    {
     "referenced_type" : "_ZTIRN4llvm11LLVMContextE"
    },
    {
     "referenced_type" : "_ZTIj"
    }
   ],
   "return_type" : "_ZTIv",
   "source_file" : "external/llvm/include/llvm/IR/DerivedTypes.h"
  },
  {
   "access" : "protected",
   "function_name" : "llvm::IntegerType::IntegerType",
   "linker_set_key" : "_ZN4llvm11IntegerTypeC2ERNS_11LLVMContextEj",
   "parameters" :
   [
    {
     "is_this_ptr" : true,
     "referenced_type" : "_ZTIPN4llvm11IntegerTypeE"
    },
    {
     "referenced_type" : "_ZTIRN4llvm11LLVMContextE"
    },
    {
     "referenced_type" : "_ZTIj"
    }
   ],
   "return_type" : "_ZTIv",
   "source_file" : "external/llvm/include/llvm/IR/DerivedTypes.h"
  },
  {
   "function_name" : "llvm::PointerType::classof",
   "linker_set_key" : "_ZN4llvm11PointerType7classofEPKNS_4TypeE",
   "parameters" :
   [
    {
     "referenced_type" : "_ZTIPKN4llvm4TypeE"
    }
   ],
   "return_type" : "_ZTIb",
   "source_file" : "external/llvm/include/llvm/IR/DerivedTypes.h"
  },
  {
   "function_name" : "llvm::PointerType::getUnqual",
   "linker_set_key" : "_ZN4llvm11PointerType9getUnqualEPNS_4TypeE",
   "parameters" :
   [
    {
     "referenced_type" : "_ZTIPN4llvm4TypeE"
    }
   ],
   "return_type" : "_ZTIPN4llvm11PointerTypeE",
   "source_file" : "external/llvm/include/llvm/IR/DerivedTypes.h"
  },
  {
   "function_name" : "llvm::SmallString<256>::SmallString",
   "linker_set_key" : "_ZN4llvm11SmallStringILj256EEC1IPKcEET_S5_",
   "parameters" :
   [
    {
     "is_this_ptr" : true,
     "referenced_type" : "_ZTIPN4llvm11SmallStringILj256EEE"
    },
    {
     "referenced_type" : "_ZTIPKc"
    },
    {
     "referenced_type" : "_ZTIPKc"
    }
   ],
   "return_type" : "_ZTIv",
   "source_file" : "external/llvm/include/llvm/ADT/SmallString.h",
   "template_args" : [ "_ZTIPKc" ]
  },
  {
   "function_name" : "llvm::SmallString<256>::SmallString",
   "linker_set_key" : "_ZN4llvm11SmallStringILj256EEC2IPKcEET_S5_",
   "parameters" :
   [
    {
     "is_this_ptr" : true,
     "referenced_type" : "_ZTIPN4llvm11SmallStringILj256EEE"
    },
    {
     "referenced_type" : "_ZTIPKc"
    },
    {
     "referenced_type" : "_ZTIPKc"
    }
   ],
   "return_type" : "_ZTIv",
   "source_file" : "external/llvm/include/llvm/ADT/SmallString.h",
   "template_args" : [ "_ZTIPKc" ]
  },
  {
   "function_name" : "llvm::SmallVector<char, 0>::SmallVector",
   "linker_set_key" : "_ZN4llvm11SmallVectorIcLj0EEC1Ev",
   "parameters" :
   [
    {
     "is_this_ptr" : true,
     "referenced_type" : "_ZTIPN4llvm11SmallVectorIcLj0EEE"
    }
   ],
   "return_type" : "_ZTIv",
   "source_file" : "external/llvm/include/llvm/ADT/SmallVector.h"
  },
  {
   "function_name" : "llvm::SmallVector<char, 0>::SmallVector",
   "linker_set_key" : "_ZN4llvm11SmallVectorIcLj0EEC2Ev",
   "parameters" :
   [
    {
     "is_this_ptr" : true,
     "referenced_type" : "_ZTIPN4llvm11SmallVectorIcLj0EEE"
    }
   ],
   "return_type" : "_ZTIv",
   "source_file" : "external/llvm/include/llvm/ADT/SmallVector.h"
  },
  {
   "function_name" : "llvm::SmallVector<char, 256>::SmallVector",
   "linker_set_key" : "_ZN4llvm11SmallVectorIcLj256EEC1EOS1_",
   "parameters" :
   [
    {
     "is_this_ptr" : true,
     "referenced_type" : "_ZTIPN4llvm11SmallVectorIcLj256EEE"
    },
    {
     "referenced_type" : "_ZTION4llvm11SmallVectorIcLj256EEE"
    }
   ],
   "return_type" : "_ZTIv",
   "source_file" : "external/llvm/include/llvm/ADT/SmallVector.h"
  },
  {
   "function_name" : "llvm::SmallVector<char, 256>::SmallVector",
   "linker_set_key" : "_ZN4llvm11SmallVectorIcLj256EEC1ERKS1_",
   "parameters" :
   [
    {
     "is_this_ptr" : true,
     "referenced_type" : "_ZTIPN4llvm11SmallVectorIcLj256EEE"
    },
    {
     "referenced_type" : "_ZTIRKN4llvm11SmallVectorIcLj256EEE"
    }
   ],
   "return_type" : "_ZTIv",
   "source_file" : "external/llvm/include/llvm/ADT/SmallVector.h"
  },
  {
   "function_name" : "llvm::SmallVector<char, 256>::SmallVector",
   "linker_set_key" : "_ZN4llvm11SmallVectorIcLj256EEC1IPKcEET_S5_",
   "parameters" :
   [
    {
     "is_this_ptr" : true,
     "referenced_type" : "_ZTIPN4llvm11SmallVectorIcLj256EEE"
    },
    {
     "referenced_type" : "_ZTIPKc"
    },
    {
     "referenced_type" : "_ZTIPKc"
    }
   ],
   "return_type" : "_ZTIv",
   "source_file" : "external/llvm/include/llvm/ADT/SmallVector.h",
   "template_args" : [ "_ZTIPKc" ]
  },
  {
   "function_name" : "llvm::SmallVector<char, 256>::SmallVector",
   "linker_set_key" : "_ZN4llvm11SmallVectorIcLj256EEC2EOS1_",
   "parameters" :
   [
    {
     "is_this_ptr" : true,
     "referenced_type" : "_ZTIPN4llvm11SmallVectorIcLj256EEE"
    },
    {
     "referenced_type" : "_ZTION4llvm11SmallVectorIcLj256EEE"
    }
   ],
   "return_type" : "_ZTIv",
   "source_file" : "external/llvm/include/llvm/ADT/SmallVector.h"
  },
  {
   "function_name" : "llvm::SmallVector<char, 256>::SmallVector",
   "linker_set_key" : "_ZN4llvm11SmallVectorIcLj256EEC2ERKS1_",
   "parameters" :
   [
    {
     "is_this_ptr" : true,
     "referenced_type" : "_ZTIPN4llvm11SmallVectorIcLj256EEE"
    },
    {
     "referenced_type" : "_ZTIRKN4llvm11SmallVectorIcLj256EEE"
    }
   ],
   "return_type" : "_ZTIv",
   "source_file" : "external/llvm/include/llvm/ADT/SmallVector.h"
  },
  {
   "function_name" : "llvm::SmallVector<char, 256>::SmallVector",
   "linker_set_key" : "_ZN4llvm11SmallVectorIcLj256EEC2IPKcEET_S5_",
   "parameters" :
   [
    {
     "is_this_ptr" : true,
     "referenced_type" : "_ZTIPN4llvm11SmallVectorIcLj256EEE"
    },
    {
     "referenced_type" : "_ZTIPKc"
    },
    {
     "referenced_type" : "_ZTIPKc"
    }
   ],
   "return_type" : "_ZTIv",
   "source_file" : "external/llvm/include/llvm/ADT/SmallVector.h",
   "template_args" : [ "_ZTIPKc" ]
  },
  {
   "function_name" : "llvm::isa_impl_cl<llvm::GlobalAlias, const llvm::Value>::doit",
   "linker_set_key" : "_ZN4llvm11isa_impl_clINS_11GlobalAliasEKNS_5ValueEE4doitERS3_",
   "parameters" :
   [
    {
     "referenced_type" : "_ZTIRKN4llvm5ValueE"
    }
   ],
   "return_type" : "_ZTIb",
   "source_file" : "external/llvm/include/llvm/Support/Casting.h"
  },
  {
   "function_name" : "llvm::isa_impl_cl<llvm::GlobalIFunc, const llvm::Value>::doit",
   "linker_set_key" : "_ZN4llvm11isa_impl_clINS_11GlobalIFuncEKNS_5ValueEE4doitERS3_",
   "parameters" :
   [
    {
     "referenced_type" : "_ZTIRKN4llvm5ValueE"
    }
   ],
   "return_type" : "_ZTIb",
   "source_file" : "external/llvm/include/llvm/Support/Casting.h"
  },
  {
   "function_name" : "llvm::isa_impl_cl<llvm::GlobalValue, const llvm::Value *>::doit",
   "linker_set_key" : "_ZN4llvm11isa_impl_clINS_11GlobalValueEPKNS_5ValueEE4doitES4_",
   "parameters" :
   [
    {
     "referenced_type" : "_ZTIPKN4llvm5ValueE"
    }
   ],
   "return_type" : "_ZTIb",
   "source_file" : "external/llvm/include/llvm/Support/Casting.h"
  },
  {
   "function_name" : "llvm::isa_impl_cl<llvm::Instruction, const llvm::Value *>::doit",
   "linker_set_key" : "_ZN4llvm11isa_impl_clINS_11InstructionEPKNS_5ValueEE4doitES4_",
   "parameters" :
   [
    {
     "referenced_type" : "_ZTIPKN4llvm5ValueE"
    }
   ],
   "return_type" : "_ZTIb",
   "source_file" : "external/llvm/include/llvm/Support/Casting.h"
  },
  {
   "function_name" : "llvm::isa_impl_cl<llvm::GlobalObject, const llvm::Value>::doit",
   "linker_set_key" : "_ZN4llvm11isa_impl_clINS_12GlobalObjectEKNS_5ValueEE4doitERS3_",
   "parameters" :
   [
    {
     "referenced_type" : "_ZTIRKN4llvm5ValueE"
    }
   ],
   "return_type" : "_ZTIb",
   "source_file" : "external/llvm/include/llvm/Support/Casting.h"
  },
  {
   "function_name" : "llvm::isa_impl_cl<llvm::GlobalVariable, const llvm::Value>::doit",
   "linker_set_key" : "_ZN4llvm11isa_impl_clINS_14GlobalVariableEKNS_5ValueEE4doitERS3_",
   "parameters" :
   [
    {
     "referenced_type" : "_ZTIRKN4llvm5ValueE"
    }
   ],
   "return_type" : "_ZTIb",
   "source_file" : "external/llvm/include/llvm/Support/Casting.h"
  },
  {
   "function_name" : "llvm::isa_impl_cl<llvm::GlobalIndirectSymbol, const llvm::Value>::doit",
   "linker_set_key" : "_ZN4llvm11isa_impl_clINS_20GlobalIndirectSymbolEKNS_5ValueEE4doitERS3_",
   "parameters" :
   [
    {
     "referenced_type" : "_ZTIRKN4llvm5ValueE"
    }
   ],
   "return_type" : "_ZTIb",
   "source_file" : "external/llvm/include/llvm/Support/Casting.h"
  },
  {
   "function_name" : "llvm::isa_impl_cl<llvm::Constant, const llvm::Value *>::doit",
   "linker_set_key" : "_ZN4llvm11isa_impl_clINS_8ConstantEPKNS_5ValueEE4doitES4_",
   "parameters" :
   [
    {
     "referenced_type" : "_ZTIPKN4llvm5ValueE"
    }
   ],
   "return_type" : "_ZTIb",
   "source_file" : "external/llvm/include/llvm/Support/Casting.h"
  },
  {
   "function_name" : "llvm::isa_impl_cl<llvm::Function, const llvm::Value>::doit",
   "linker_set_key" : "_ZN4llvm11isa_impl_clINS_8FunctionEKNS_5ValueEE4doitERS3_",
   "parameters" :
   [
    {
     "referenced_type" : "_ZTIRKN4llvm5ValueE"
    }
   ],
   "return_type" : "_ZTIb",
   "source_file" : "external/llvm/include/llvm/Support/Casting.h"
  },
  {
   "function_name" : "llvm::raw_ostream::resetColor",
   "linker_set_key" : "_ZN4llvm11raw_ostream10resetColorEv",
   "parameters" :
   [
    {
     "is_this_ptr" : true,
     "referenced_type" : "_ZTIPN4llvm11raw_ostreamE"
    }
   ],
   "return_type" : "_ZTIRN4llvm11raw_ostreamE",
   "source_file" : "external/llvm/include/llvm/Support/raw_ostream.h"
  },
  {
   "function_name" : "llvm::raw_ostream::changeColor",
   "linker_set_key" : "_ZN4llvm11raw_ostream11changeColorENS0_6ColorsEbb",
   "parameters" :
   [
    {
     "is_this_ptr" : true,
     "referenced_type" : "_ZTIPN4llvm11raw_ostreamE"
    },
    {
     "referenced_type" : "_ZTIN4llvm11raw_ostream6ColorsE"
    },
    {
     "default_arg" : true,
     "referenced_type" : "_ZTIb"
    },
    {
     "default_arg" : true,
     "referenced_type" : "_ZTIb"
    }
   ],
   "return_type" : "_ZTIRN4llvm11raw_ostreamE",
   "source_file" : "external/llvm/include/llvm/Support/raw_ostream.h"
  },
  {
   "function_name" : "llvm::raw_ostream::reverseColor",
   "linker_set_key" : "_ZN4llvm11raw_ostream12reverseColorEv",
   "parameters" :
   [
    {
     "is_this_ptr" : true,
     "referenced_type" : "_ZTIPN4llvm11raw_ostreamE"
    }
   ],
   "return_type" : "_ZTIRN4llvm11raw_ostreamE",
   "source_file" : "external/llvm/include/llvm/Support/raw_ostream.h"
  },
  {
   "function_name" : "llvm::raw_ostream::SetBufferSize",
   "linker_set_key" : "_ZN4llvm11raw_ostream13SetBufferSizeEj",
   "parameters" :
   [
    {
     "is_this_ptr" : true,
     "referenced_type" : "_ZTIPN4llvm11raw_ostreamE"
    },
    {
     "referenced_type" : "_ZTIj"
    }
   ],
   "return_type" : "_ZTIv",
   "source_file" : "external/llvm/include/llvm/Support/raw_ostream.h"
  },
  {
   "function_name" : "llvm::raw_ostream::SetUnbuffered",
   "linker_set_key" : "_ZN4llvm11raw_ostream13SetUnbufferedEv",
   "parameters" :
   [
    {
     "is_this_ptr" : true,
     "referenced_type" : "_ZTIPN4llvm11raw_ostreamE"
    }
   ],
   "return_type" : "_ZTIv",
   "source_file" : "external/llvm/include/llvm/Support/raw_ostream.h"
  },
  {
   "function_name" : "llvm::raw_ostream::flush",
   "linker_set_key" : "_ZN4llvm11raw_ostream5flushEv",
   "parameters" :
   [
    {
     "is_this_ptr" : true,
     "referenced_type" : "_ZTIPN4llvm11raw_ostreamE"
    }
   ],
   "return_type" : "_ZTIv",
   "source_file" : "external/llvm/include/llvm/Support/raw_ostream.h"
  },
  {
   "access" : "protected",
   "function_name" : "llvm::raw_ostream::SetBuffer",
   "linker_set_key" : "_ZN4llvm11raw_ostream9SetBufferEPcj",
   "parameters" :
   [
    {
     "is_this_ptr" : true,
     "referenced_type" : "_ZTIPN4llvm11raw_ostreamE"
    },
    {
     "referenced_type" : "_ZTIPc"
    },
    {
     "referenced_type" : "_ZTIj"
    }
   ],
   "return_type" : "_ZTIv",
   "source_file" : "external/llvm/include/llvm/Support/raw_ostream.h"
  },
  {
   "function_name" : "llvm::raw_ostream::raw_ostream",
   "linker_set_key" : "_ZN4llvm11raw_ostreamC2Eb",
   "parameters" :
   [
    {
     "is_this_ptr" : true,
     "referenced_type" : "_ZTIPN4llvm11raw_ostreamE"
    },
    {
     "default_arg" : true,
     "referenced_type" : "_ZTIb"
    }
   ],
   "return_type" : "_ZTIv",
   "source_file" : "external/llvm/include/llvm/Support/raw_ostream.h"
  },
  {
   "function_name" : "llvm::raw_ostream::operator<<",
   "linker_set_key" : "_ZN4llvm11raw_ostreamlsENS_9StringRefE",
   "parameters" :
   [
    {
     "is_this_ptr" : true,
     "referenced_type" : "_ZTIPN4llvm11raw_ostreamE"
    },
    {
     "referenced_type" : "_ZTIN4llvm9StringRefE"
    }
   ],
   "return_type" : "_ZTIRN4llvm11raw_ostreamE",
   "source_file" : "external/llvm/include/llvm/Support/raw_ostream.h"
  },
  {
   "function_name" : "llvm::raw_ostream::operator<<",
   "linker_set_key" : "_ZN4llvm11raw_ostreamlsEPKc",
   "parameters" :
   [
    {
     "is_this_ptr" : true,
     "referenced_type" : "_ZTIPN4llvm11raw_ostreamE"
    },
    {
     "referenced_type" : "_ZTIPKc"
    }
   ],
   "return_type" : "_ZTIRN4llvm11raw_ostreamE",
   "source_file" : "external/llvm/include/llvm/Support/raw_ostream.h"
  },
  {
   "function_name" : "llvm::raw_ostream::operator<<",
   "linker_set_key" : "_ZN4llvm11raw_ostreamlsERKNS_15SmallVectorImplIcEE",
   "parameters" :
   [
    {
     "is_this_ptr" : true,
     "referenced_type" : "_ZTIPN4llvm11raw_ostreamE"
    },
    {
     "referenced_type" : "_ZTIRKN4llvm15SmallVectorImplIcEE"
    }
   ],
   "return_type" : "_ZTIRN4llvm11raw_ostreamE",
   "source_file" : "external/llvm/include/llvm/Support/raw_ostream.h"
  },
  {
   "function_name" : "llvm::raw_ostream::operator<<",
   "linker_set_key" : "_ZN4llvm11raw_ostreamlsERKNSt3__112basic_stringIcNS1_11char_traitsIcEENS1_9allocatorIcEEEE",
   "parameters" :
   [
    {
     "is_this_ptr" : true,
     "referenced_type" : "_ZTIPN4llvm11raw_ostreamE"
    },
    {
     "referenced_type" : "_ZTIRKNSt3__112basic_stringIcNS_11char_traitsIcEENS_9allocatorIcEEEE"
    }
   ],
   "return_type" : "_ZTIRN4llvm11raw_ostreamE",
   "source_file" : "external/llvm/include/llvm/Support/raw_ostream.h"
  },
  {
   "function_name" : "llvm::raw_ostream::operator<<",
   "linker_set_key" : "_ZN4llvm11raw_ostreamlsEa",
   "parameters" :
   [
    {
     "is_this_ptr" : true,
     "referenced_type" : "_ZTIPN4llvm11raw_ostreamE"
    },
    {
     "referenced_type" : "_ZTIa"
    }
   ],
   "return_type" : "_ZTIRN4llvm11raw_ostreamE",
   "source_file" : "external/llvm/include/llvm/Support/raw_ostream.h"
  },
  {
   "function_name" : "llvm::raw_ostream::operator<<",
   "linker_set_key" : "_ZN4llvm11raw_ostreamlsEc",
   "parameters" :
   [
    {
     "is_this_ptr" : true,
     "referenced_type" : "_ZTIPN4llvm11raw_ostreamE"
    },
    {
     "referenced_type" : "_ZTIc"
    }
   ],
   "return_type" : "_ZTIRN4llvm11raw_ostreamE",
   "source_file" : "external/llvm/include/llvm/Support/raw_ostream.h"
  },
  {
   "function_name" : "llvm::raw_ostream::operator<<",
   "linker_set_key" : "_ZN4llvm11raw_ostreamlsEh",
   "parameters" :
   [
    {
     "is_this_ptr" : true,
     "referenced_type" : "_ZTIPN4llvm11raw_ostreamE"
    },
    {
     "referenced_type" : "_ZTIh"
    }
   ],
   "return_type" : "_ZTIRN4llvm11raw_ostreamE",
   "source_file" : "external/llvm/include/llvm/Support/raw_ostream.h"
  },
  {
   "function_name" : "llvm::raw_ostream::operator<<",
   "linker_set_key" : "_ZN4llvm11raw_ostreamlsEi",
   "parameters" :
   [
    {
     "is_this_ptr" : true,
     "referenced_type" : "_ZTIPN4llvm11raw_ostreamE"
    },
    {
     "referenced_type" : "_ZTIi"
    }
   ],
   "return_type" : "_ZTIRN4llvm11raw_ostreamE",
   "source_file" : "external/llvm/include/llvm/Support/raw_ostream.h"
  },
  {
   "function_name" : "llvm::raw_ostream::operator<<",
   "linker_set_key" : "_ZN4llvm11raw_ostreamlsEj",
   "parameters" :
   [
    {
     "is_this_ptr" : true,
     "referenced_type" : "_ZTIPN4llvm11raw_ostreamE"
    },
    {
     "referenced_type" : "_ZTIj"
    }
   ],
   "return_type" : "_ZTIRN4llvm11raw_ostreamE",
   "source_file" : "external/llvm/include/llvm/Support/raw_ostream.h"
  },
  {
   "function_name" : "llvm::BitsToDouble",
   "linker_set_key" : "_ZN4llvm12BitsToDoubleEy",
   "parameters" :
   [
    {
     "referenced_type" : "_ZTIy"
    }
   ],
   "return_type" : "_ZTId",
   "source_file" : "external/llvm/include/llvm/Support/MathExtras.h"
  },
  {
   "function_name" : "llvm::DoubleToBits",
   "linker_set_key" : "_ZN4llvm12DoubleToBitsEd",
   "parameters" :
   [
    {
     "referenced_type" : "_ZTId"
    }
   ],
   "return_type" : "_ZTIy",
   "source_file" : "external/llvm/include/llvm/Support/MathExtras.h"
  },
  {
   "function_name" : "llvm::FunctionType::classof",
   "linker_set_key" : "_ZN4llvm12FunctionType7classofEPKNS_4TypeE",
   "parameters" :
   [
    {
     "referenced_type" : "_ZTIPKN4llvm4TypeE"
    }
   ],
   "return_type" : "_ZTIb",
   "source_file" : "external/llvm/include/llvm/IR/DerivedTypes.h"
  },
  {
   "function_name" : "llvm::Log2_32_Ceil",
   "linker_set_key" : "_ZN4llvm12Log2_32_CeilEj",
   "parameters" :
   [
    {
     "referenced_type" : "_ZTIj"
    }
   ],
   "return_type" : "_ZTIj",
   "source_file" : "external/llvm/include/llvm/Support/MathExtras.h"
  },
  {
   "function_name" : "llvm::Log2_64_Ceil",
   "linker_set_key" : "_ZN4llvm12Log2_64_CeilEy",
   "parameters" :
   [
    {
     "referenced_type" : "_ZTIy"
    }
   ],
   "return_type" : "_ZTIj",
   "source_file" : "external/llvm/include/llvm/Support/MathExtras.h"
  },
  {
   "function_name" : "llvm::NextPowerOf2",
   "linker_set_key" : "_ZN4llvm12NextPowerOf2Ey",
   "parameters" :
   [
    {
     "referenced_type" : "_ZTIy"
    }
   ],
   "return_type" : "_ZTIy",
   "source_file" : "external/llvm/include/llvm/Support/MathExtras.h"
  },
  {
   "function_name" : "llvm::SignExtend32",
   "linker_set_key" : "_ZN4llvm12SignExtend32Ejj",
   "parameters" :
   [
    {
     "referenced_type" : "_ZTIj"
    },
    {
     "referenced_type" : "_ZTIj"
    }
   ],
   "return_type" : "_ZTIi",
   "source_file" : "external/llvm/include/llvm/Support/MathExtras.h"
  },
  {
   "function_name" : "llvm::SignExtend64",
   "linker_set_key" : "_ZN4llvm12SignExtend64Eyj",
   "parameters" :
   [
    {
     "referenced_type" : "_ZTIy"
    },
    {
     "referenced_type" : "_ZTIj"
    }
   ],
   "return_type" : "_ZTIx",
   "source_file" : "external/llvm/include/llvm/Support/MathExtras.h"
  },
  {
   "function_name" : "llvm::makeArrayRef",
   "linker_set_key" : "_ZN4llvm12makeArrayRefIPNS_4TypeEEENS_8ArrayRefIT_EEPKS4_S7_",
   "parameters" :
   [
    {
     "referenced_type" : "_ZTIPKPN4llvm4TypeE"
    },
    {
     "referenced_type" : "_ZTIPKPN4llvm4TypeE"
    }
   ],
   "return_type" : "_ZTIN4llvm8ArrayRefIPNS_4TypeEEE",
   "source_file" : "external/llvm/include/llvm/ADT/ArrayRef.h",
   "template_args" : [ "_ZTIPN4llvm4TypeE" ]
  },
  {
   "function_name" : "llvm::CompositeType::classof",
   "linker_set_key" : "_ZN4llvm13CompositeType7classofEPKNS_4TypeE",
   "parameters" :
   [
    {
     "referenced_type" : "_ZTIPKN4llvm4TypeE"
    }
   ],
   "return_type" : "_ZTIb",
   "source_file" : "external/llvm/include/llvm/IR/DerivedTypes.h"
  },
  {
   "access" : "protected",
   "function_name" : "llvm::CompositeType::CompositeType",
   "linker_set_key" : "_ZN4llvm13CompositeTypeC1ERNS_11LLVMContextENS_4Type6TypeIDE",
   "parameters" :
   [
    {
     "is_this_ptr" : true,
     "referenced_type" : "_ZTIPN4llvm13CompositeTypeE"
    },
    {
     "referenced_type" : "_ZTIRN4llvm11LLVMContextE"
    },
    {
     "referenced_type" : "_ZTIN4llvm4Type6TypeIDE"
    }
   ],
   "return_type" : "_ZTIv",
   "source_file" : "external/llvm/include/llvm/IR/DerivedTypes.h"
  },
  {
   "access" : "protected",
   "function_name" : "llvm::CompositeType::CompositeType",
   "linker_set_key" : "_ZN4llvm13CompositeTypeC2ERNS_11LLVMContextENS_4Type6TypeIDE",
   "parameters" :
   [
    {
     "is_this_ptr" : true,
     "referenced_type" : "_ZTIPN4llvm13CompositeTypeE"
    },
    {
     "referenced_type" : "_ZTIRN4llvm11LLVMContextE"
    },
    {
     "referenced_type" : "_ZTIN4llvm4Type6TypeIDE"
    }
   ],
   "return_type" : "_ZTIv",
   "source_file" : "external/llvm/include/llvm/IR/DerivedTypes.h"
  },
  {
   "function_name" : "llvm::PowerOf2Floor",
   "linker_set_key" : "_ZN4llvm13PowerOf2FloorEy",
   "parameters" :
   [
    {
     "referenced_type" : "_ZTIy"
    }
   ],
   "return_type" : "_ZTIy",
   "source_file" : "external/llvm/include/llvm/Support/MathExtras.h"
  },
  {
   "function_name" : "llvm::StringMapImpl::getTombstoneVal",
   "linker_set_key" : "_ZN4llvm13StringMapImpl15getTombstoneValEv",
   "return_type" : "_ZTIPN4llvm18StringMapEntryBaseE",
   "source_file" : "external/llvm/include/llvm/ADT/StringMap.h"
  },
  {
   "function_name" : "llvm::StringMapImpl::swap",
   "linker_set_key" : "_ZN4llvm13StringMapImpl4swapERS0_",
   "parameters" :
   [
    {
     "is_this_ptr" : true,
     "referenced_type" : "_ZTIPN4llvm13StringMapImplE"
    },
    {
     "referenced_type" : "_ZTIRN4llvm13StringMapImplE"
    }
   ],
   "return_type" : "_ZTIv",
   "source_file" : "external/llvm/include/llvm/ADT/StringMap.h"
  },
  {
   "access" : "protected",
   "function_name" : "llvm::StringMapImpl::StringMapImpl",
   "linker_set_key" : "_ZN4llvm13StringMapImplC1EOS0_",
   "parameters" :
   [
    {
     "is_this_ptr" : true,
     "referenced_type" : "_ZTIPN4llvm13StringMapImplE"
    },
    {
     "referenced_type" : "_ZTION4llvm13StringMapImplE"
    }
   ],
   "return_type" : "_ZTIv",
   "source_file" : "external/llvm/include/llvm/ADT/StringMap.h"
  },
  {
   "access" : "protected",
   "function_name" : "llvm::StringMapImpl::StringMapImpl",
   "linker_set_key" : "_ZN4llvm13StringMapImplC1Ej",
   "parameters" :
   [
    {
     "is_this_ptr" : true,
     "referenced_type" : "_ZTIPN4llvm13StringMapImplE"
    },
    {
     "referenced_type" : "_ZTIj"
    }
   ],
   "return_type" : "_ZTIv",
   "source_file" : "external/llvm/include/llvm/ADT/StringMap.h"
  },
  {
   "access" : "protected",
   "function_name" : "llvm::StringMapImpl::StringMapImpl",
   "linker_set_key" : "_ZN4llvm13StringMapImplC2EOS0_",
   "parameters" :
   [
    {
     "is_this_ptr" : true,
     "referenced_type" : "_ZTIPN4llvm13StringMapImplE"
    },
    {
     "referenced_type" : "_ZTION4llvm13StringMapImplE"
    }
   ],
   "return_type" : "_ZTIv",
   "source_file" : "external/llvm/include/llvm/ADT/StringMap.h"
  },
  {
   "access" : "protected",
   "function_name" : "llvm::StringMapImpl::StringMapImpl",
   "linker_set_key" : "_ZN4llvm13StringMapImplC2Ej",
   "parameters" :
   [
    {
     "is_this_ptr" : true,
     "referenced_type" : "_ZTIPN4llvm13StringMapImplE"
    },
    {
     "referenced_type" : "_ZTIj"
    }
   ],
   "return_type" : "_ZTIv",
   "source_file" : "external/llvm/include/llvm/ADT/StringMap.h"
  },
  {
   "function_name" : "llvm::isPowerOf2_32",
   "linker_set_key" : "_ZN4llvm13isPowerOf2_32Ej",
   "parameters" :
   [
    {
     "referenced_type" : "_ZTIj"
    }
   ],
   "return_type" : "_ZTIb",
   "source_file" : "external/llvm/include/llvm/Support/MathExtras.h"
  },
  {
   "function_name" : "llvm::isPowerOf2_64",
   "linker_set_key" : "_ZN4llvm13isPowerOf2_64Ey",
   "parameters" :
   [
    {
     "referenced_type" : "_ZTIy"
    }
   ],
   "return_type" : "_ZTIb",
   "source_file" : "external/llvm/include/llvm/Support/MathExtras.h"
  },
  {
   "function_name" : "llvm::isa_impl_wrap<llvm::GlobalAlias, const llvm::Value, const llvm::Value>::doit",
   "linker_set_key" : "_ZN4llvm13isa_impl_wrapINS_11GlobalAliasEKNS_5ValueES3_E4doitERS3_",
   "parameters" :
   [
    {
     "referenced_type" : "_ZTIRKN4llvm5ValueE"
    }
   ],
   "return_type" : "_ZTIb",
   "source_file" : "external/llvm/include/llvm/Support/Casting.h"
  },
  {
   "function_name" : "llvm::isa_impl_wrap<llvm::GlobalIFunc, const llvm::Value, const llvm::Value>::doit",
   "linker_set_key" : "_ZN4llvm13isa_impl_wrapINS_11GlobalIFuncEKNS_5ValueES3_E4doitERS3_",
   "parameters" :
   [
    {
     "referenced_type" : "_ZTIRKN4llvm5ValueE"
    }
   ],
   "return_type" : "_ZTIb",
   "source_file" : "external/llvm/include/llvm/Support/Casting.h"
  },
  {
   "function_name" : "llvm::isa_impl_wrap<llvm::GlobalValue, llvm::Value *const, const llvm::Value *>::doit",
   "linker_set_key" : "_ZN4llvm13isa_impl_wrapINS_11GlobalValueEKPNS_5ValueEPKS2_E4doitERS4_",
   "parameters" :
   [
    {
     "referenced_type" : "_ZTIRKPN4llvm5ValueE"
    }
   ],
   "return_type" : "_ZTIb",
   "source_file" : "external/llvm/include/llvm/Support/Casting.h"
  },
  {
   "function_name" : "llvm::isa_impl_wrap<llvm::GlobalValue, const llvm::Value *, const llvm::Value *>::doit",
   "linker_set_key" : "_ZN4llvm13isa_impl_wrapINS_11GlobalValueEPKNS_5ValueES4_E4doitERKS4_",
   "parameters" :
   [
    {
     "referenced_type" : "_ZTIRKPKN4llvm5ValueE"
    }
   ],
   "return_type" : "_ZTIb",
   "source_file" : "external/llvm/include/llvm/Support/Casting.h"
  },
  {
   "function_name" : "llvm::isa_impl_wrap<llvm::Instruction, const llvm::Value *const, const llvm::Value *>::doit",
   "linker_set_key" : "_ZN4llvm13isa_impl_wrapINS_11InstructionEKPKNS_5ValueES4_E4doitERS5_",
   "parameters" :
   [
    {
     "referenced_type" : "_ZTIRKPKN4llvm5ValueE"
    }
   ],
   "return_type" : "_ZTIb",
   "source_file" : "external/llvm/include/llvm/Support/Casting.h"
  },
  {
   "function_name" : "llvm::isa_impl_wrap<llvm::Instruction, const llvm::Value *, const llvm::Value *>::doit",
   "linker_set_key" : "_ZN4llvm13isa_impl_wrapINS_11InstructionEPKNS_5ValueES4_E4doitERKS4_",
   "parameters" :
   [
    {
     "referenced_type" : "_ZTIRKPKN4llvm5ValueE"
    }
   ],
   "return_type" : "_ZTIb",
   "source_file" : "external/llvm/include/llvm/Support/Casting.h"
  },
  {
   "function_name" : "llvm::isa_impl_wrap<llvm::GlobalObject, const llvm::Value, const llvm::Value>::doit",
   "linker_set_key" : "_ZN4llvm13isa_impl_wrapINS_12GlobalObjectEKNS_5ValueES3_E4doitERS3_",
   "parameters" :
   [
    {
     "referenced_type" : "_ZTIRKN4llvm5ValueE"
    }
   ],
   "return_type" : "_ZTIb",
   "source_file" : "external/llvm/include/llvm/Support/Casting.h"
  },
  {
   "function_name" : "llvm::isa_impl_wrap<llvm::GlobalVariable, const llvm::Value, const llvm::Value>::doit",
   "linker_set_key" : "_ZN4llvm13isa_impl_wrapINS_14GlobalVariableEKNS_5ValueES3_E4doitERS3_",
   "parameters" :
   [
    {
     "referenced_type" : "_ZTIRKN4llvm5ValueE"
    }
   ],
   "return_type" : "_ZTIb",
   "source_file" : "external/llvm/include/llvm/Support/Casting.h"
  },
  {
   "function_name" : "llvm::isa_impl_wrap<llvm::GlobalIndirectSymbol, const llvm::Value, const llvm::Value>::doit",
   "linker_set_key" : "_ZN4llvm13isa_impl_wrapINS_20GlobalIndirectSymbolEKNS_5ValueES3_E4doitERS3_",
   "parameters" :
   [
    {
     "referenced_type" : "_ZTIRKN4llvm5ValueE"
    }
   ],
   "return_type" : "_ZTIb",
   "source_file" : "external/llvm/include/llvm/Support/Casting.h"
  },
  {
   "function_name" : "llvm::isa_impl_wrap<llvm::Constant, const llvm::Value *const, const llvm::Value *>::doit",
   "linker_set_key" : "_ZN4llvm13isa_impl_wrapINS_8ConstantEKPKNS_5ValueES4_E4doitERS5_",
   "parameters" :
   [
    {
     "referenced_type" : "_ZTIRKPKN4llvm5ValueE"
    }
   ],
   "return_type" : "_ZTIb",
   "source_file" : "external/llvm/include/llvm/Support/Casting.h"
  },
  {
   "function_name" : "llvm::isa_impl_wrap<llvm::Constant, const llvm::Value *, const llvm::Value *>::doit",
   "linker_set_key" : "_ZN4llvm13isa_impl_wrapINS_8ConstantEPKNS_5ValueES4_E4doitERKS4_",
   "parameters" :
   [
    {
     "referenced_type" : "_ZTIRKPKN4llvm5ValueE"
    }
   ],
   "return_type" : "_ZTIb",
   "source_file" : "external/llvm/include/llvm/Support/Casting.h"
  },
  {
   "function_name" : "llvm::isa_impl_wrap<llvm::Function, const llvm::Value, const llvm::Value>::doit",
   "linker_set_key" : "_ZN4llvm13isa_impl_wrapINS_8FunctionEKNS_5ValueES3_E4doitERS3_",
   "parameters" :
   [
    {
     "referenced_type" : "_ZTIRKN4llvm5ValueE"
    }
   ],
   "return_type" : "_ZTIb",
   "source_file" : "external/llvm/include/llvm/Support/Casting.h"
  },
  {
   "function_name" : "llvm::simplify_type<const llvm::Use>::getSimplifiedValue",
   "linker_set_key" : "_ZN4llvm13simplify_typeIKNS_3UseEE18getSimplifiedValueERS2_",
   "parameters" :
   [
    {
     "referenced_type" : "_ZTIRKN4llvm3UseE"
    }
   ],
   "return_type" : "_ZTIPN4llvm5ValueE",
   "source_file" : "external/llvm/include/llvm/IR/Use.h"
  },
  {
   "function_name" : "llvm::simplify_type<const llvm::Value *const>::getSimplifiedValue",
   "linker_set_key" : "_ZN4llvm13simplify_typeIKPKNS_5ValueEE18getSimplifiedValueERS4_",
   "parameters" :
   [
    {
     "referenced_type" : "_ZTIRKPKN4llvm5ValueE"
    }
   ],
   "return_type" : "_ZTIPKN4llvm5ValueE",
   "source_file" : "external/llvm/include/llvm/Support/Casting.h"
  },
  {
   "function_name" : "llvm::simplify_type<llvm::Value *const>::getSimplifiedValue",
   "linker_set_key" : "_ZN4llvm13simplify_typeIKPNS_5ValueEE18getSimplifiedValueERS3_",
   "parameters" :
   [
    {
     "referenced_type" : "_ZTIRKPN4llvm5ValueE"
    }
   ],
   "return_type" : "_ZTIPKN4llvm5ValueE",
   "source_file" : "external/llvm/include/llvm/Support/Casting.h"
  },
  {
   "function_name" : "llvm::simplify_type<llvm::Use>::getSimplifiedValue",
   "linker_set_key" : "_ZN4llvm13simplify_typeINS_3UseEE18getSimplifiedValueERS1_",
   "parameters" :
   [
    {
     "referenced_type" : "_ZTIRN4llvm3UseE"
    }
   ],
   "return_type" : "_ZTIPN4llvm5ValueE",
   "source_file" : "external/llvm/include/llvm/IR/Use.h"
  },
  {
   "function_name" : "llvm::simplify_type<const llvm::Use *>::getSimplifiedValue",
   "linker_set_key" : "_ZN4llvm13simplify_typeIPKNS_3UseEE18getSimplifiedValueERS3_",
   "parameters" :
   [
    {
     "referenced_type" : "_ZTIRPKN4llvm3UseE"
    }
   ],
   "return_type" : "_ZTIPN4llvm5ValueE",
   "source_file" : "external/llvm/include/llvm/IR/User.h"
  },
  {
   "function_name" : "llvm::simplify_type<const llvm::Value *>::getSimplifiedValue",
   "linker_set_key" : "_ZN4llvm13simplify_typeIPKNS_5ValueEE18getSimplifiedValueERS3_",
   "parameters" :
   [
    {
     "referenced_type" : "_ZTIRPKN4llvm5ValueE"
    }
   ],
   "return_type" : "_ZTIRPKN4llvm5ValueE",
   "source_file" : "external/llvm/include/llvm/Support/Casting.h"
  },
  {
   "function_name" : "llvm::simplify_type<llvm::Use *>::getSimplifiedValue",
   "linker_set_key" : "_ZN4llvm13simplify_typeIPNS_3UseEE18getSimplifiedValueERS2_",
   "parameters" :
   [
    {
     "referenced_type" : "_ZTIRPN4llvm3UseE"
    }
   ],
   "return_type" : "_ZTIPN4llvm5ValueE",
   "source_file" : "external/llvm/include/llvm/IR/User.h"
  },
  {
   "function_name" : "llvm::simplify_type<llvm::Value *>::getSimplifiedValue",
   "linker_set_key" : "_ZN4llvm13simplify_typeIPNS_5ValueEE18getSimplifiedValueERS2_",
   "parameters" :
   [
    {
     "referenced_type" : "_ZTIRPN4llvm5ValueE"
    }
   ],
   "return_type" : "_ZTIRPN4llvm5ValueE",
   "source_file" : "external/llvm/include/llvm/Support/Casting.h"
  },
  {
   "function_name" : "llvm::PointerIntPair<llvm::Use **, 2, llvm::Use::PrevPtrTag, llvm::PointerLikeTypeTraits<llvm::Use **>, llvm::PointerIntPairInfo<llvm::Use **, 2, llvm::PointerLikeTypeTraits<llvm::Use **>>>::setPointer",
   "linker_set_key" : "_ZN4llvm14PointerIntPairIPPNS_3UseELj2ENS1_10PrevPtrTagENS_21PointerLikeTypeTraitsIS3_EENS_18PointerIntPairInfoIS3_Lj2ES6_EEE10setPointerES3_",
   "parameters" :
   [
    {
     "is_this_ptr" : true,
     "referenced_type" : "_ZTIPN4llvm14PointerIntPairIPPNS_3UseELj2ENS1_10PrevPtrTagENS_21PointerLikeTypeTraitsIS3_EENS_18PointerIntPairInfoIS3_Lj2ES6_EEEE"
    },
    {
     "referenced_type" : "_ZTIPPN4llvm3UseE"
    }
   ],
   "return_type" : "_ZTIv",
   "source_file" : "external/llvm/include/llvm/ADT/PointerIntPair.h"
  },
  {
   "function_name" : "llvm::PointerIntPair<llvm::Use **, 2, llvm::Use::PrevPtrTag, llvm::PointerLikeTypeTraits<llvm::Use **>, llvm::PointerIntPairInfo<llvm::Use **, 2, llvm::PointerLikeTypeTraits<llvm::Use **>>>::setInt",
   "linker_set_key" : "_ZN4llvm14PointerIntPairIPPNS_3UseELj2ENS1_10PrevPtrTagENS_21PointerLikeTypeTraitsIS3_EENS_18PointerIntPairInfoIS3_Lj2ES6_EEE6setIntES4_",
   "parameters" :
   [
    {
     "is_this_ptr" : true,
     "referenced_type" : "_ZTIPN4llvm14PointerIntPairIPPNS_3UseELj2ENS1_10PrevPtrTagENS_21PointerLikeTypeTraitsIS3_EENS_18PointerIntPairInfoIS3_Lj2ES6_EEEE"
    },
    {
     "referenced_type" : "_ZTIN4llvm3Use10PrevPtrTagE"
    }
   ],
   "return_type" : "_ZTIv",
   "source_file" : "external/llvm/include/llvm/ADT/PointerIntPair.h"
  },
  {
   "function_name" : "llvm::PointerIntPair<llvm::Use **, 2, llvm::Use::PrevPtrTag, llvm::PointerLikeTypeTraits<llvm::Use **>, llvm::PointerIntPairInfo<llvm::Use **, 2, llvm::PointerLikeTypeTraits<llvm::Use **>>>::PointerIntPair",
   "linker_set_key" : "_ZN4llvm14PointerIntPairIPPNS_3UseELj2ENS1_10PrevPtrTagENS_21PointerLikeTypeTraitsIS3_EENS_18PointerIntPairInfoIS3_Lj2ES6_EEEC1Ev",
   "parameters" :
   [
    {
     "is_this_ptr" : true,
     "referenced_type" : "_ZTIPN4llvm14PointerIntPairIPPNS_3UseELj2ENS1_10PrevPtrTagENS_21PointerLikeTypeTraitsIS3_EENS_18PointerIntPairInfoIS3_Lj2ES6_EEEE"
    }
   ],
   "return_type" : "_ZTIv",
   "source_file" : "external/llvm/include/llvm/ADT/PointerIntPair.h"
  },
  {
   "function_name" : "llvm::PointerIntPair<llvm::Use **, 2, llvm::Use::PrevPtrTag, llvm::PointerLikeTypeTraits<llvm::Use **>, llvm::PointerIntPairInfo<llvm::Use **, 2, llvm::PointerLikeTypeTraits<llvm::Use **>>>::PointerIntPair",
   "linker_set_key" : "_ZN4llvm14PointerIntPairIPPNS_3UseELj2ENS1_10PrevPtrTagENS_21PointerLikeTypeTraitsIS3_EENS_18PointerIntPairInfoIS3_Lj2ES6_EEEC2Ev",
   "parameters" :
   [
    {
     "is_this_ptr" : true,
     "referenced_type" : "_ZTIPN4llvm14PointerIntPairIPPNS_3UseELj2ENS1_10PrevPtrTagENS_21PointerLikeTypeTraitsIS3_EENS_18PointerIntPairInfoIS3_Lj2ES6_EEEE"
    }
   ],
   "return_type" : "_ZTIv",
   "source_file" : "external/llvm/include/llvm/ADT/PointerIntPair.h"
  },
  {
   "function_name" : "llvm::SequentialType::classof",
   "linker_set_key" : "_ZN4llvm14SequentialType7classofEPKNS_4TypeE",
   "parameters" :
   [
    {
     "referenced_type" : "_ZTIPKN4llvm4TypeE"
    }
   ],
   "return_type" : "_ZTIb",
   "source_file" : "external/llvm/include/llvm/IR/DerivedTypes.h"
  },
  {
   "access" : "protected",
   "function_name" : "llvm::SequentialType::SequentialType",
   "linker_set_key" : "_ZN4llvm14SequentialTypeC1ENS_4Type6TypeIDEPS1_",
   "parameters" :
   [
    {
     "is_this_ptr" : true,
     "referenced_type" : "_ZTIPN4llvm14SequentialTypeE"
    },
    {
     "referenced_type" : "_ZTIN4llvm4Type6TypeIDE"
    },
    {
     "referenced_type" : "_ZTIPN4llvm4TypeE"
    }
   ],
   "return_type" : "_ZTIv",
   "source_file" : "external/llvm/include/llvm/IR/DerivedTypes.h"
  },
  {
   "access" : "protected",
   "function_name" : "llvm::SequentialType::SequentialType",
   "linker_set_key" : "_ZN4llvm14SequentialTypeC2ENS_4Type6TypeIDEPS1_",
   "parameters" :
   [
    {
     "is_this_ptr" : true,
     "referenced_type" : "_ZTIPN4llvm14SequentialTypeE"
    },
    {
     "referenced_type" : "_ZTIN4llvm4Type6TypeIDE"
    },
    {
     "referenced_type" : "_ZTIPN4llvm4TypeE"
    }
   ],
   "return_type" : "_ZTIv",
   "source_file" : "external/llvm/include/llvm/IR/DerivedTypes.h"
  },
  {
   "function_name" : "llvm::StringMapEntry<llvm::Value *>::Create",
   "linker_set_key" : "_ZN4llvm14StringMapEntryIPNS_5ValueEE6CreateINS_15MallocAllocatorEJS2_EEEPS3_NS_9StringRefERT_DpOT0_",
   "parameters" :
   [
    {
     "referenced_type" : "_ZTIN4llvm9StringRefE"
    },
    {
     "referenced_type" : "_ZTIRN4llvm15MallocAllocatorE"
    },
    {
     "referenced_type" : "_ZTIOPN4llvm5ValueE"
    }
   ],
   "return_type" : "_ZTIPN4llvm14StringMapEntryIPNS_5ValueEEE",
   "source_file" : "external/llvm/include/llvm/ADT/StringMap.h",
   "template_args" : [ "_ZTIN4llvm15MallocAllocatorE" ]
  },
  {
   "function_name" : "llvm::StringMapEntry<llvm::Value *>::Destroy",
   "linker_set_key" : "_ZN4llvm14StringMapEntryIPNS_5ValueEE7DestroyEv",
   "parameters" :
   [
    {
     "is_this_ptr" : true,
     "referenced_type" : "_ZTIPN4llvm14StringMapEntryIPNS_5ValueEEE"
    }
   ],
   "return_type" : "_ZTIv",
   "source_file" : "external/llvm/include/llvm/ADT/StringMap.h"
  },
  {
   "function_name" : "llvm::StringMapEntry<llvm::Value *>::Destroy",
   "linker_set_key" : "_ZN4llvm14StringMapEntryIPNS_5ValueEE7DestroyINS_15MallocAllocatorEEEvRT_",
   "parameters" :
   [
    {
     "is_this_ptr" : true,
     "referenced_type" : "_ZTIPN4llvm14StringMapEntryIPNS_5ValueEEE"
    },
    {
     "referenced_type" : "_ZTIRN4llvm15MallocAllocatorE"
    }
   ],
   "return_type" : "_ZTIv",
   "source_file" : "external/llvm/include/llvm/ADT/StringMap.h",
   "template_args" : [ "_ZTIN4llvm15MallocAllocatorE" ]
  },
  {
   "function_name" : "llvm::StringMapEntry<llvm::Value *>::StringMapEntry",
   "linker_set_key" : "_ZN4llvm14StringMapEntryIPNS_5ValueEEC1IJS2_EEEjDpOT_",
   "parameters" :
   [
    {
     "is_this_ptr" : true,
     "referenced_type" : "_ZTIPN4llvm14StringMapEntryIPNS_5ValueEEE"
    },
    {
     "referenced_type" : "_ZTIj"
    },
    {
     "referenced_type" : "_ZTIOPN4llvm5ValueE"
    }
   ],
   "return_type" : "_ZTIv",
   "source_file" : "external/llvm/include/llvm/ADT/StringMap.h"
  },
  {
   "function_name" : "llvm::StringMapEntry<llvm::Value *>::StringMapEntry",
   "linker_set_key" : "_ZN4llvm14StringMapEntryIPNS_5ValueEEC2IJS2_EEEjDpOT_",
   "parameters" :
   [
    {
     "is_this_ptr" : true,
     "referenced_type" : "_ZTIPN4llvm14StringMapEntryIPNS_5ValueEEE"
    },
    {
     "referenced_type" : "_ZTIj"
    },
    {
     "referenced_type" : "_ZTIOPN4llvm5ValueE"
    }
   ],
   "return_type" : "_ZTIv",
   "source_file" : "external/llvm/include/llvm/ADT/StringMap.h"
  },
  {
   "function_name" : "llvm::buffer_ostream::buffer_ostream",
   "linker_set_key" : "_ZN4llvm14buffer_ostreamC1ERNS_11raw_ostreamE",
   "parameters" :
   [
    {
     "is_this_ptr" : true,
     "referenced_type" : "_ZTIPN4llvm14buffer_ostreamE"
    },
    {
     "referenced_type" : "_ZTIRN4llvm11raw_ostreamE"
    }
   ],
   "return_type" : "_ZTIv",
   "source_file" : "external/llvm/include/llvm/Support/raw_ostream.h"
  },
  {
   "function_name" : "llvm::buffer_ostream::buffer_ostream",
   "linker_set_key" : "_ZN4llvm14buffer_ostreamC2ERNS_11raw_ostreamE",
   "parameters" :
   [
    {
     "is_this_ptr" : true,
     "referenced_type" : "_ZTIPN4llvm14buffer_ostreamE"
    },
    {
     "referenced_type" : "_ZTIRN4llvm11raw_ostreamE"
    }
   ],
   "return_type" : "_ZTIv",
   "source_file" : "external/llvm/include/llvm/Support/raw_ostream.h"
  },
  {
   "function_name" : "llvm::buffer_ostream::~buffer_ostream",
   "linker_set_key" : "_ZN4llvm14buffer_ostreamD0Ev",
   "parameters" :
   [
    {
     "is_this_ptr" : true,
     "referenced_type" : "_ZTIPN4llvm14buffer_ostreamE"
    }
   ],
   "return_type" : "_ZTIv",
   "source_file" : "external/llvm/include/llvm/Support/raw_ostream.h"
  },
  {
   "function_name" : "llvm::buffer_ostream::~buffer_ostream",
   "linker_set_key" : "_ZN4llvm14buffer_ostreamD1Ev",
   "parameters" :
   [
    {
     "is_this_ptr" : true,
     "referenced_type" : "_ZTIPN4llvm14buffer_ostreamE"
    }
   ],
   "return_type" : "_ZTIv",
   "source_file" : "external/llvm/include/llvm/Support/raw_ostream.h"
  },
  {
   "function_name" : "llvm::buffer_ostream::~buffer_ostream",
   "linker_set_key" : "_ZN4llvm14buffer_ostreamD2Ev",
   "parameters" :
   [
    {
     "is_this_ptr" : true,
     "referenced_type" : "_ZTIPN4llvm14buffer_ostreamE"
    }
   ],
   "return_type" : "_ZTIv",
   "source_file" : "external/llvm/include/llvm/Support/raw_ostream.h"
  },
  {
   "function_name" : "llvm::iterator_range<llvm::User::value_op_iterator>::iterator_range",
   "linker_set_key" : "_ZN4llvm14iterator_rangeINS_4User17value_op_iteratorEEC1ES2_S2_",
   "parameters" :
   [
    {
     "is_this_ptr" : true,
     "referenced_type" : "_ZTIPN4llvm14iterator_rangeINS_4User17value_op_iteratorEEE"
    },
    {
     "referenced_type" : "_ZTIN4llvm4User17value_op_iteratorE"
    },
    {
     "referenced_type" : "_ZTIN4llvm4User17value_op_iteratorE"
    }
   ],
   "return_type" : "_ZTIv",
   "source_file" : "external/llvm/include/llvm/ADT/iterator_range.h"
  },
  {
   "function_name" : "llvm::iterator_range<llvm::User::value_op_iterator>::iterator_range",
   "linker_set_key" : "_ZN4llvm14iterator_rangeINS_4User17value_op_iteratorEEC2ES2_S2_",
   "parameters" :
   [
    {
     "is_this_ptr" : true,
     "referenced_type" : "_ZTIPN4llvm14iterator_rangeINS_4User17value_op_iteratorEEE"
    },
    {
     "referenced_type" : "_ZTIN4llvm4User17value_op_iteratorE"
    },
    {
     "referenced_type" : "_ZTIN4llvm4User17value_op_iteratorE"
    }
   ],
   "return_type" : "_ZTIv",
   "source_file" : "external/llvm/include/llvm/ADT/iterator_range.h"
  },
  {
   "function_name" : "llvm::iterator_range<llvm::Value::use_iterator_impl<const llvm::Use>>::iterator_range",
   "linker_set_key" : "_ZN4llvm14iterator_rangeINS_5Value17use_iterator_implIKNS_3UseEEEEC1ES5_S5_",
   "parameters" :
   [
    {
     "is_this_ptr" : true,
     "referenced_type" : "_ZTIPN4llvm14iterator_rangeINS_5Value17use_iterator_implIKNS_3UseEEEEE"
    },
    {
     "referenced_type" : "_ZTIN4llvm5Value17use_iterator_implIKNS_3UseEEE"
    },
    {
     "referenced_type" : "_ZTIN4llvm5Value17use_iterator_implIKNS_3UseEEE"
    }
   ],
   "return_type" : "_ZTIv",
   "source_file" : "external/llvm/include/llvm/ADT/iterator_range.h"
  },
  {
   "function_name" : "llvm::iterator_range<llvm::Value::use_iterator_impl<const llvm::Use>>::iterator_range",
   "linker_set_key" : "_ZN4llvm14iterator_rangeINS_5Value17use_iterator_implIKNS_3UseEEEEC2ES5_S5_",
   "parameters" :
   [
    {
     "is_this_ptr" : true,
     "referenced_type" : "_ZTIPN4llvm14iterator_rangeINS_5Value17use_iterator_implIKNS_3UseEEEEE"
    },
    {
     "referenced_type" : "_ZTIN4llvm5Value17use_iterator_implIKNS_3UseEEE"
    },
    {
     "referenced_type" : "_ZTIN4llvm5Value17use_iterator_implIKNS_3UseEEE"
    }
   ],
   "return_type" : "_ZTIv",
   "source_file" : "external/llvm/include/llvm/ADT/iterator_range.h"
  },
  {
   "function_name" : "llvm::iterator_range<llvm::Value::use_iterator_impl<llvm::Use>>::iterator_range",
   "linker_set_key" : "_ZN4llvm14iterator_rangeINS_5Value17use_iterator_implINS_3UseEEEEC1ES4_S4_",
   "parameters" :
   [
    {
     "is_this_ptr" : true,
     "referenced_type" : "_ZTIPN4llvm14iterator_rangeINS_5Value17use_iterator_implINS_3UseEEEEE"
    },
    {
     "referenced_type" : "_ZTIN4llvm5Value17use_iterator_implINS_3UseEEE"
    },
    {
     "referenced_type" : "_ZTIN4llvm5Value17use_iterator_implINS_3UseEEE"
    }
   ],
   "return_type" : "_ZTIv",
   "source_file" : "external/llvm/include/llvm/ADT/iterator_range.h"
  },
  {
   "function_name" : "llvm::iterator_range<llvm::Value::use_iterator_impl<llvm::Use>>::iterator_range",
   "linker_set_key" : "_ZN4llvm14iterator_rangeINS_5Value17use_iterator_implINS_3UseEEEEC2ES4_S4_",
   "parameters" :
   [
    {
     "is_this_ptr" : true,
     "referenced_type" : "_ZTIPN4llvm14iterator_rangeINS_5Value17use_iterator_implINS_3UseEEEEE"
    },
    {
     "referenced_type" : "_ZTIN4llvm5Value17use_iterator_implINS_3UseEEE"
    },
    {
     "referenced_type" : "_ZTIN4llvm5Value17use_iterator_implINS_3UseEEE"
    }
   ],
   "return_type" : "_ZTIv",
   "source_file" : "external/llvm/include/llvm/ADT/iterator_range.h"
  },
  {
   "function_name" : "llvm::iterator_range<llvm::Value::user_iterator_impl<const llvm::User>>::iterator_range",
   "linker_set_key" : "_ZN4llvm14iterator_rangeINS_5Value18user_iterator_implIKNS_4UserEEEEC1ES5_S5_",
   "parameters" :
   [
    {
     "is_this_ptr" : true,
     "referenced_type" : "_ZTIPN4llvm14iterator_rangeINS_5Value18user_iterator_implIKNS_4UserEEEEE"
    },
    {
     "referenced_type" : "_ZTIN4llvm5Value18user_iterator_implIKNS_4UserEEE"
    },
    {
     "referenced_type" : "_ZTIN4llvm5Value18user_iterator_implIKNS_4UserEEE"
    }
   ],
   "return_type" : "_ZTIv",
   "source_file" : "external/llvm/include/llvm/ADT/iterator_range.h"
  },
  {
   "function_name" : "llvm::iterator_range<llvm::Value::user_iterator_impl<const llvm::User>>::iterator_range",
   "linker_set_key" : "_ZN4llvm14iterator_rangeINS_5Value18user_iterator_implIKNS_4UserEEEEC2ES5_S5_",
   "parameters" :
   [
    {
     "is_this_ptr" : true,
     "referenced_type" : "_ZTIPN4llvm14iterator_rangeINS_5Value18user_iterator_implIKNS_4UserEEEEE"
    },
    {
     "referenced_type" : "_ZTIN4llvm5Value18user_iterator_implIKNS_4UserEEE"
    },
    {
     "referenced_type" : "_ZTIN4llvm5Value18user_iterator_implIKNS_4UserEEE"
    }
   ],
   "return_type" : "_ZTIv",
   "source_file" : "external/llvm/include/llvm/ADT/iterator_range.h"
  },
  {
   "function_name" : "llvm::iterator_range<llvm::Value::user_iterator_impl<llvm::User>>::iterator_range",
   "linker_set_key" : "_ZN4llvm14iterator_rangeINS_5Value18user_iterator_implINS_4UserEEEEC1ES4_S4_",
   "parameters" :
   [
    {
     "is_this_ptr" : true,
     "referenced_type" : "_ZTIPN4llvm14iterator_rangeINS_5Value18user_iterator_implINS_4UserEEEEE"
    },
    {
     "referenced_type" : "_ZTIN4llvm5Value18user_iterator_implINS_4UserEEE"
    },
    {
     "referenced_type" : "_ZTIN4llvm5Value18user_iterator_implINS_4UserEEE"
    }
   ],
   "return_type" : "_ZTIv",
   "source_file" : "external/llvm/include/llvm/ADT/iterator_range.h"
  },
  {
   "function_name" : "llvm::iterator_range<llvm::Value::user_iterator_impl<llvm::User>>::iterator_range",
   "linker_set_key" : "_ZN4llvm14iterator_rangeINS_5Value18user_iterator_implINS_4UserEEEEC2ES4_S4_",
   "parameters" :
   [
    {
     "is_this_ptr" : true,
     "referenced_type" : "_ZTIPN4llvm14iterator_rangeINS_5Value18user_iterator_implINS_4UserEEEEE"
    },
    {
     "referenced_type" : "_ZTIN4llvm5Value18user_iterator_implINS_4UserEEE"
    },
    {
     "referenced_type" : "_ZTIN4llvm5Value18user_iterator_implINS_4UserEEE"
    }
   ],
   "return_type" : "_ZTIv",
   "source_file" : "external/llvm/include/llvm/ADT/iterator_range.h"
  },
  {
   "function_name" : "llvm::iterator_range<const llvm::Use *>::iterator_range",
   "linker_set_key" : "_ZN4llvm14iterator_rangeIPKNS_3UseEEC1ES3_S3_",
   "parameters" :
   [
    {
     "is_this_ptr" : true,
     "referenced_type" : "_ZTIPN4llvm14iterator_rangeIPKNS_3UseEEE"
    },
    {
     "referenced_type" : "_ZTIPKN4llvm3UseE"
    },
    {
     "referenced_type" : "_ZTIPKN4llvm3UseE"
    }
   ],
   "return_type" : "_ZTIv",
   "source_file" : "external/llvm/include/llvm/ADT/iterator_range.h"
  },
  {
   "function_name" : "llvm::iterator_range<const llvm::Use *>::iterator_range",
   "linker_set_key" : "_ZN4llvm14iterator_rangeIPKNS_3UseEEC2ES3_S3_",
   "parameters" :
   [
    {
     "is_this_ptr" : true,
     "referenced_type" : "_ZTIPN4llvm14iterator_rangeIPKNS_3UseEEE"
    },
    {
     "referenced_type" : "_ZTIPKN4llvm3UseE"
    },
    {
     "referenced_type" : "_ZTIPKN4llvm3UseE"
    }
   ],
   "return_type" : "_ZTIv",
   "source_file" : "external/llvm/include/llvm/ADT/iterator_range.h"
  },
  {
   "function_name" : "llvm::iterator_range<const unsigned char *>::iterator_range",
   "linker_set_key" : "_ZN4llvm14iterator_rangeIPKhEC1ES2_S2_",
   "parameters" :
   [
    {
     "is_this_ptr" : true,
     "referenced_type" : "_ZTIPN4llvm14iterator_rangeIPKhEE"
    },
    {
     "referenced_type" : "_ZTIPKh"
    },
    {
     "referenced_type" : "_ZTIPKh"
    }
   ],
   "return_type" : "_ZTIv",
   "source_file" : "external/llvm/include/llvm/ADT/iterator_range.h"
  },
  {
   "function_name" : "llvm::iterator_range<const unsigned char *>::iterator_range",
   "linker_set_key" : "_ZN4llvm14iterator_rangeIPKhEC2ES2_S2_",
   "parameters" :
   [
    {
     "is_this_ptr" : true,
     "referenced_type" : "_ZTIPN4llvm14iterator_rangeIPKhEE"
    },
    {
     "referenced_type" : "_ZTIPKh"
    },
    {
     "referenced_type" : "_ZTIPKh"
    }
   ],
   "return_type" : "_ZTIv",
   "source_file" : "external/llvm/include/llvm/ADT/iterator_range.h"
  },
  {
   "function_name" : "llvm::iterator_range<llvm::Use *>::iterator_range",
   "linker_set_key" : "_ZN4llvm14iterator_rangeIPNS_3UseEEC1ES2_S2_",
   "parameters" :
   [
    {
     "is_this_ptr" : true,
     "referenced_type" : "_ZTIPN4llvm14iterator_rangeIPNS_3UseEEE"
    },
    {
     "referenced_type" : "_ZTIPN4llvm3UseE"
    },
    {
     "referenced_type" : "_ZTIPN4llvm3UseE"
    }
   ],
   "return_type" : "_ZTIv",
   "source_file" : "external/llvm/include/llvm/ADT/iterator_range.h"
  },
  {
   "function_name" : "llvm::iterator_range<llvm::Use *>::iterator_range",
   "linker_set_key" : "_ZN4llvm14iterator_rangeIPNS_3UseEEC2ES2_S2_",
   "parameters" :
   [
    {
     "is_this_ptr" : true,
     "referenced_type" : "_ZTIPN4llvm14iterator_rangeIPNS_3UseEEE"
    },
    {
     "referenced_type" : "_ZTIPN4llvm3UseE"
    },
    {
     "referenced_type" : "_ZTIPN4llvm3UseE"
    }
   ],
   "return_type" : "_ZTIv",
   "source_file" : "external/llvm/include/llvm/ADT/iterator_range.h"
  },
  {
   "function_name" : "llvm::raw_fd_ostream::clear_error",
   "linker_set_key" : "_ZN4llvm14raw_fd_ostream11clear_errorEv",
   "parameters" :
   [
    {
     "is_this_ptr" : true,
     "referenced_type" : "_ZTIPN4llvm14raw_fd_ostreamE"
    }
   ],
   "return_type" : "_ZTIv",
   "source_file" : "external/llvm/include/llvm/Support/raw_ostream.h"
  },
  {
   "access" : "private",
   "function_name" : "llvm::raw_fd_ostream::error_detected",
   "linker_set_key" : "_ZN4llvm14raw_fd_ostream14error_detectedEv",
   "parameters" :
   [
    {
     "is_this_ptr" : true,
     "referenced_type" : "_ZTIPN4llvm14raw_fd_ostreamE"
    }
   ],
   "return_type" : "_ZTIv",
   "source_file" : "external/llvm/include/llvm/Support/raw_ostream.h"
  },
  {
   "function_name" : "llvm::raw_fd_ostream::supportsSeeking",
   "linker_set_key" : "_ZN4llvm14raw_fd_ostream15supportsSeekingEv",
   "parameters" :
   [
    {
     "is_this_ptr" : true,
     "referenced_type" : "_ZTIPN4llvm14raw_fd_ostreamE"
    }
   ],
   "return_type" : "_ZTIb",
   "source_file" : "external/llvm/include/llvm/Support/raw_ostream.h"
  },
  {
   "function_name" : "llvm::MallocAllocator::Deallocate",
   "linker_set_key" : "_ZN4llvm15MallocAllocator10DeallocateEPKvj",
   "parameters" :
   [
    {
     "is_this_ptr" : true,
     "referenced_type" : "_ZTIPN4llvm15MallocAllocatorE"
    },
    {
     "referenced_type" : "_ZTIPKv"
    },
    {
     "referenced_type" : "_ZTIj"
    }
   ],
   "return_type" : "_ZTIv",
   "source_file" : "external/llvm/include/llvm/Support/Allocator.h"
  },
  {
   "function_name" : "llvm::MallocAllocator::Reset",
   "linker_set_key" : "_ZN4llvm15MallocAllocator5ResetEv",
   "parameters" :
   [
    {
     "is_this_ptr" : true,
     "referenced_type" : "_ZTIPN4llvm15MallocAllocatorE"
    }
   ],
   "return_type" : "_ZTIv",
   "source_file" : "external/llvm/include/llvm/Support/Allocator.h"
  },
  {
   "function_name" : "llvm::MallocAllocator::Allocate",
   "linker_set_key" : "_ZN4llvm15MallocAllocator8AllocateEjj",
   "parameters" :
   [
    {
     "is_this_ptr" : true,
     "referenced_type" : "_ZTIPN4llvm15MallocAllocatorE"
    },
    {
     "referenced_type" : "_ZTIj"
    },
    {
     "referenced_type" : "_ZTIj"
    }
   ],
   "return_type" : "_ZTIPv",
   "source_file" : "external/llvm/include/llvm/Support/Allocator.h"
  },
  {
   "access" : "protected",
   "function_name" : "llvm::SmallVectorBase::SmallVectorBase",
   "linker_set_key" : "_ZN4llvm15SmallVectorBaseC1EPvj",
   "parameters" :
   [
    {
     "is_this_ptr" : true,
     "referenced_type" : "_ZTIPN4llvm15SmallVectorBaseE"
    },
    {
     "referenced_type" : "_ZTIPv"
    },
    {
     "referenced_type" : "_ZTIj"
    }
   ],
   "return_type" : "_ZTIv",
   "source_file" : "external/llvm/include/llvm/ADT/SmallVector.h"
  },
  {
   "access" : "protected",
   "function_name" : "llvm::SmallVectorBase::SmallVectorBase",
   "linker_set_key" : "_ZN4llvm15SmallVectorBaseC2EPvj",
   "parameters" :
   [
    {
     "is_this_ptr" : true,
     "referenced_type" : "_ZTIPN4llvm15SmallVectorBaseE"
    },
    {
     "referenced_type" : "_ZTIPv"
    },
    {
     "referenced_type" : "_ZTIj"
    }
   ],
   "return_type" : "_ZTIv",
   "source_file" : "external/llvm/include/llvm/ADT/SmallVector.h"
  },
  {
   "function_name" : "llvm::SmallVectorImpl<char>::clear",
   "linker_set_key" : "_ZN4llvm15SmallVectorImplIcE5clearEv",
   "parameters" :
   [
    {
     "is_this_ptr" : true,
     "referenced_type" : "_ZTIPN4llvm15SmallVectorImplIcEE"
    }
   ],
   "return_type" : "_ZTIv",
   "source_file" : "external/llvm/include/llvm/ADT/SmallVector.h"
  },
  {
   "function_name" : "llvm::SmallVectorImpl<char>::append",
   "linker_set_key" : "_ZN4llvm15SmallVectorImplIcE6appendIPKcEEvT_S5_",
   "parameters" :
   [
    {
     "is_this_ptr" : true,
     "referenced_type" : "_ZTIPN4llvm15SmallVectorImplIcEE"
    },
    {
     "referenced_type" : "_ZTIPKc"
    },
    {
     "referenced_type" : "_ZTIPKc"
    }
   ],
   "return_type" : "_ZTIv",
   "source_file" : "external/llvm/include/llvm/ADT/SmallVector.h",
   "template_args" : [ "_ZTIPKc" ]
  },
  {
   "function_name" : "llvm::SmallVectorImpl<char>::resize",
   "linker_set_key" : "_ZN4llvm15SmallVectorImplIcE6resizeEj",
   "parameters" :
   [
    {
     "is_this_ptr" : true,
     "referenced_type" : "_ZTIPN4llvm15SmallVectorImplIcEE"
    },
    {
     "referenced_type" : "_ZTIj"
    }
   ],
   "return_type" : "_ZTIv",
   "source_file" : "external/llvm/include/llvm/ADT/SmallVector.h"
  },
  {
   "access" : "protected",
   "function_name" : "llvm::SmallVectorImpl<char>::SmallVectorImpl",
   "linker_set_key" : "_ZN4llvm15SmallVectorImplIcEC1Ej",
   "parameters" :
   [
    {
     "is_this_ptr" : true,
     "referenced_type" : "_ZTIPN4llvm15SmallVectorImplIcEE"
    },
    {
     "referenced_type" : "_ZTIj"
    }
   ],
   "return_type" : "_ZTIv",
   "source_file" : "external/llvm/include/llvm/ADT/SmallVector.h"
  },
  {
   "access" : "protected",
   "function_name" : "llvm::SmallVectorImpl<char>::SmallVectorImpl",
   "linker_set_key" : "_ZN4llvm15SmallVectorImplIcEC2Ej",
   "parameters" :
   [
    {
     "is_this_ptr" : true,
     "referenced_type" : "_ZTIPN4llvm15SmallVectorImplIcEE"
    },
    {
     "referenced_type" : "_ZTIj"
    }
   ],
   "return_type" : "_ZTIv",
   "source_file" : "external/llvm/include/llvm/ADT/SmallVector.h"
  },
  {
   "function_name" : "llvm::SmallVectorImpl<char>::~SmallVectorImpl",
   "linker_set_key" : "_ZN4llvm15SmallVectorImplIcED1Ev",
   "parameters" :
   [
    {
     "is_this_ptr" : true,
     "referenced_type" : "_ZTIPN4llvm15SmallVectorImplIcEE"
    }
   ],
   "return_type" : "_ZTIv",
   "source_file" : "external/llvm/include/llvm/ADT/SmallVector.h"
  },
  {
   "function_name" : "llvm::SmallVectorImpl<char>::~SmallVectorImpl",
   "linker_set_key" : "_ZN4llvm15SmallVectorImplIcED2Ev",
   "parameters" :
   [
    {
     "is_this_ptr" : true,
     "referenced_type" : "_ZTIPN4llvm15SmallVectorImplIcEE"
    }
   ],
   "return_type" : "_ZTIv",
   "source_file" : "external/llvm/include/llvm/ADT/SmallVector.h"
  },
  {
   "function_name" : "llvm::SmallVectorImpl<char>::operator=",
   "linker_set_key" : "_ZN4llvm15SmallVectorImplIcEaSEOS1_",
   "parameters" :
   [
    {
     "is_this_ptr" : true,
     "referenced_type" : "_ZTIPN4llvm15SmallVectorImplIcEE"
    },
    {
     "referenced_type" : "_ZTION4llvm15SmallVectorImplIcEE"
    }
   ],
   "return_type" : "_ZTIRN4llvm15SmallVectorImplIcEE",
   "source_file" : "external/llvm/include/llvm/ADT/SmallVector.h"
  },
  {
   "function_name" : "llvm::SmallVectorImpl<char>::operator=",
   "linker_set_key" : "_ZN4llvm15SmallVectorImplIcEaSERKS1_",
   "parameters" :
   [
    {
     "is_this_ptr" : true,
     "referenced_type" : "_ZTIPN4llvm15SmallVectorImplIcEE"
    },
    {
     "referenced_type" : "_ZTIRKN4llvm15SmallVectorImplIcEE"
    }
   ],
   "return_type" : "_ZTIRN4llvm15SmallVectorImplIcEE",
   "source_file" : "external/llvm/include/llvm/ADT/SmallVector.h"
  },
  {
   "function_name" : "llvm::countPopulation",
   "linker_set_key" : "_ZN4llvm15countPopulationIyEEjT_",
   "parameters" :
   [
    {
     "referenced_type" : "_ZTIy"
    }
   ],
   "return_type" : "_ZTIj",
   "source_file" : "external/llvm/include/llvm/Support/MathExtras.h",
   "template_args" : [ "_ZTIy" ]
  },
  {
   "access" : "private",
   "function_name" : "llvm::ValueSymbolTable::reinsertValue",
   "linker_set_key" : "_ZN4llvm16ValueSymbolTable13reinsertValueEPNS_5ValueE",
   "parameters" :
   [
    {
     "is_this_ptr" : true,
     "referenced_type" : "_ZTIPN4llvm16ValueSymbolTableE"
    },
    {
     "referenced_type" : "_ZTIPN4llvm5ValueE"
    }
   ],
   "return_type" : "_ZTIv",
   "source_file" : "external/llvm/include/llvm/IR/ValueSymbolTable.h"
  },
  {
   "access" : "private",
   "function_name" : "llvm::ValueSymbolTable::makeUniqueName",
   "linker_set_key" : "_ZN4llvm16ValueSymbolTable14makeUniqueNameEPNS_5ValueERNS_11SmallStringILj256EEE",
   "parameters" :
   [
    {
     "is_this_ptr" : true,
     "referenced_type" : "_ZTIPN4llvm16ValueSymbolTableE"
    },
    {
     "referenced_type" : "_ZTIPN4llvm5ValueE"
    },
    {
     "referenced_type" : "_ZTIRN4llvm11SmallStringILj256EEE"
    }
   ],
   "return_type" : "_ZTIPN4llvm14StringMapEntryIPNS_5ValueEEE",
   "source_file" : "external/llvm/include/llvm/IR/ValueSymbolTable.h"
  },
  {
   "access" : "private",
   "function_name" : "llvm::ValueSymbolTable::createValueName",
   "linker_set_key" : "_ZN4llvm16ValueSymbolTable15createValueNameENS_9StringRefEPNS_5ValueE",
   "parameters" :
   [
    {
     "is_this_ptr" : true,
     "referenced_type" : "_ZTIPN4llvm16ValueSymbolTableE"
    },
    {
     "referenced_type" : "_ZTIN4llvm9StringRefE"
    },
    {
     "referenced_type" : "_ZTIPN4llvm5ValueE"
    }
   ],
   "return_type" : "_ZTIPN4llvm14StringMapEntryIPNS_5ValueEEE",
   "source_file" : "external/llvm/include/llvm/IR/ValueSymbolTable.h"
  },
  {
   "access" : "private",
   "function_name" : "llvm::ValueSymbolTable::removeValueName",
   "linker_set_key" : "_ZN4llvm16ValueSymbolTable15removeValueNameEPNS_14StringMapEntryIPNS_5ValueEEE",
   "parameters" :
   [
    {
     "is_this_ptr" : true,
     "referenced_type" : "_ZTIPN4llvm16ValueSymbolTableE"
    },
    {
     "referenced_type" : "_ZTIPN4llvm14StringMapEntryIPNS_5ValueEEE"
    }
   ],
   "return_type" : "_ZTIv",
   "source_file" : "external/llvm/include/llvm/IR/ValueSymbolTable.h"
  },
  {
   "function_name" : "llvm::ValueSymbolTable::end",
   "linker_set_key" : "_ZN4llvm16ValueSymbolTable3endEv",
   "parameters" :
   [
    {
     "is_this_ptr" : true,
     "referenced_type" : "_ZTIPN4llvm16ValueSymbolTableE"
    }
   ],
   "return_type" : "_ZTIN4llvm17StringMapIteratorIPNS_5ValueEEE",
   "source_file" : "external/llvm/include/llvm/IR/ValueSymbolTable.h"
  },
  {
   "function_name" : "llvm::ValueSymbolTable::begin",
   "linker_set_key" : "_ZN4llvm16ValueSymbolTable5beginEv",
   "parameters" :
   [
    {
     "is_this_ptr" : true,
     "referenced_type" : "_ZTIPN4llvm16ValueSymbolTableE"
    }
   ],
   "return_type" : "_ZTIN4llvm17StringMapIteratorIPNS_5ValueEEE",
   "source_file" : "external/llvm/include/llvm/IR/ValueSymbolTable.h"
  },
  {
   "function_name" : "llvm::ValueSymbolTable::ValueSymbolTable",
   "linker_set_key" : "_ZN4llvm16ValueSymbolTableC1Ev",
   "parameters" :
   [
    {
     "is_this_ptr" : true,
     "referenced_type" : "_ZTIPN4llvm16ValueSymbolTableE"
    }
   ],
   "return_type" : "_ZTIv",
   "source_file" : "external/llvm/include/llvm/IR/ValueSymbolTable.h"
  },
  {
   "function_name" : "llvm::ValueSymbolTable::ValueSymbolTable",
   "linker_set_key" : "_ZN4llvm16ValueSymbolTableC2Ev",
   "parameters" :
   [
    {
     "is_this_ptr" : true,
     "referenced_type" : "_ZTIPN4llvm16ValueSymbolTableE"
    }
   ],
   "return_type" : "_ZTIv",
   "source_file" : "external/llvm/include/llvm/IR/ValueSymbolTable.h"
  },
  {
   "function_name" : "llvm::ValueSymbolTable::~ValueSymbolTable",
   "linker_set_key" : "_ZN4llvm16ValueSymbolTableD1Ev",
   "parameters" :
   [
    {
     "is_this_ptr" : true,
     "referenced_type" : "_ZTIPN4llvm16ValueSymbolTableE"
    }
   ],
   "return_type" : "_ZTIv",
   "source_file" : "external/llvm/include/llvm/IR/ValueSymbolTable.h"
  },
  {
   "function_name" : "llvm::ValueSymbolTable::~ValueSymbolTable",
   "linker_set_key" : "_ZN4llvm16ValueSymbolTableD2Ev",
   "parameters" :
   [
    {
     "is_this_ptr" : true,
     "referenced_type" : "_ZTIPN4llvm16ValueSymbolTableE"
    }
   ],
   "return_type" : "_ZTIv",
   "source_file" : "external/llvm/include/llvm/IR/ValueSymbolTable.h"
  },
  {
   "function_name" : "llvm::cast_convert_val<llvm::StructType, const llvm::Type *, const llvm::Type *>::doit",
   "linker_set_key" : "_ZN4llvm16cast_convert_valINS_10StructTypeEPKNS_4TypeES4_E4doitERKS4_",
   "parameters" :
   [
    {
     "referenced_type" : "_ZTIRKPKN4llvm4TypeE"
    }
   ],
   "return_type" : "_ZTIPKN4llvm10StructTypeE",
   "source_file" : "external/llvm/include/llvm/Support/Casting.h"
  },
  {
   "function_name" : "llvm::cast_convert_val<llvm::VectorType, const llvm::Type *, const llvm::Type *>::doit",
   "linker_set_key" : "_ZN4llvm16cast_convert_valINS_10VectorTypeEPKNS_4TypeES4_E4doitERKS4_",
   "parameters" :
   [
    {
     "referenced_type" : "_ZTIRKPKN4llvm4TypeE"
    }
   ],
   "return_type" : "_ZTIPKN4llvm10VectorTypeE",
   "source_file" : "external/llvm/include/llvm/Support/Casting.h"
  },
  {
   "function_name" : "llvm::cast_convert_val<llvm::IntegerType, const llvm::Type *, const llvm::Type *>::doit",
   "linker_set_key" : "_ZN4llvm16cast_convert_valINS_11IntegerTypeEPKNS_4TypeES4_E4doitERKS4_",
   "parameters" :
   [
    {
     "referenced_type" : "_ZTIRKPKN4llvm4TypeE"
    }
   ],
   "return_type" : "_ZTIPKN4llvm11IntegerTypeE",
   "source_file" : "external/llvm/include/llvm/Support/Casting.h"
  },
  {
   "function_name" : "llvm::cast_convert_val<llvm::PointerType, llvm::Type *, llvm::Type *>::doit",
   "linker_set_key" : "_ZN4llvm16cast_convert_valINS_11PointerTypeEPNS_4TypeES3_E4doitERKS3_",
   "parameters" :
   [
    {
     "referenced_type" : "_ZTIRKPN4llvm4TypeE"
    }
   ],
   "return_type" : "_ZTIPN4llvm11PointerTypeE",
   "source_file" : "external/llvm/include/llvm/Support/Casting.h"
  },
  {
   "function_name" : "llvm::cast_convert_val<llvm::FunctionType, const llvm::Type *, const llvm::Type *>::doit",
   "linker_set_key" : "_ZN4llvm16cast_convert_valINS_12FunctionTypeEPKNS_4TypeES4_E4doitERKS4_",
   "parameters" :
   [
    {
     "referenced_type" : "_ZTIRKPKN4llvm4TypeE"
    }
   ],
   "return_type" : "_ZTIPKN4llvm12FunctionTypeE",
   "source_file" : "external/llvm/include/llvm/Support/Casting.h"
  },
  {
   "function_name" : "llvm::cast_convert_val<llvm::Constant, llvm::Value *, llvm::Value *>::doit",
   "linker_set_key" : "_ZN4llvm16cast_convert_valINS_8ConstantEPNS_5ValueES3_E4doitERKS3_",
   "parameters" :
   [
    {
     "referenced_type" : "_ZTIRKPN4llvm5ValueE"
    }
   ],
   "return_type" : "_ZTIPN4llvm8ConstantE",
   "source_file" : "external/llvm/include/llvm/Support/Casting.h"
  },
  {
   "function_name" : "llvm::cast_convert_val<llvm::ArrayType, const llvm::Type *, const llvm::Type *>::doit",
   "linker_set_key" : "_ZN4llvm16cast_convert_valINS_9ArrayTypeEPKNS_4TypeES4_E4doitERKS4_",
   "parameters" :
   [
    {
     "referenced_type" : "_ZTIRKPKN4llvm4TypeE"
    }
   ],
   "return_type" : "_ZTIPKN4llvm9ArrayTypeE",
   "source_file" : "external/llvm/include/llvm/Support/Casting.h"
  },
  {
   "function_name" : "llvm::isShiftedMask_32",
   "linker_set_key" : "_ZN4llvm16isShiftedMask_32Ej",
   "parameters" :
   [
    {
     "referenced_type" : "_ZTIj"
    }
   ],
   "return_type" : "_ZTIb",
   "source_file" : "external/llvm/include/llvm/Support/MathExtras.h"
  },
  {
   "function_name" : "llvm::isShiftedMask_64",
   "linker_set_key" : "_ZN4llvm16isShiftedMask_64Ey",
   "parameters" :
   [
    {
     "referenced_type" : "_ZTIy"
    }
   ],
   "return_type" : "_ZTIb",
   "source_file" : "external/llvm/include/llvm/Support/MathExtras.h"
  },
  {
   "function_name" : "llvm::raw_null_ostream::raw_null_ostream",
   "linker_set_key" : "_ZN4llvm16raw_null_ostreamC1Ev",
   "parameters" :
   [
    {
     "is_this_ptr" : true,
     "referenced_type" : "_ZTIPN4llvm16raw_null_ostreamE"
    }
   ],
   "return_type" : "_ZTIv",
   "source_file" : "external/llvm/include/llvm/Support/raw_ostream.h"
  },
  {
   "function_name" : "llvm::raw_null_ostream::raw_null_ostream",
   "linker_set_key" : "_ZN4llvm16raw_null_ostreamC2Ev",
   "parameters" :
   [
    {
     "is_this_ptr" : true,
     "referenced_type" : "_ZTIPN4llvm16raw_null_ostreamE"
    }
   ],
   "return_type" : "_ZTIv",
   "source_file" : "external/llvm/include/llvm/Support/raw_ostream.h"
  },
  {
   "function_name" : "llvm::OffsetToAlignment",
   "linker_set_key" : "_ZN4llvm17OffsetToAlignmentEyy",
   "parameters" :
   [
    {
     "referenced_type" : "_ZTIy"
    },
    {
     "referenced_type" : "_ZTIy"
    }
   ],
   "return_type" : "_ZTIy",
   "source_file" : "external/llvm/include/llvm/Support/MathExtras.h"
  },
  {
   "function_name" : "llvm::StringMapIterator<llvm::Value *>::StringMapIterator",
   "linker_set_key" : "_ZN4llvm17StringMapIteratorIPNS_5ValueEEC1EPPNS_18StringMapEntryBaseEb",
   "parameters" :
   [
    {
     "is_this_ptr" : true,
     "referenced_type" : "_ZTIPN4llvm17StringMapIteratorIPNS_5ValueEEE"
    },
    {
     "referenced_type" : "_ZTIPPN4llvm18StringMapEntryBaseE"
    },
    {
     "default_arg" : true,
     "referenced_type" : "_ZTIb"
    }
   ],
   "return_type" : "_ZTIv",
   "source_file" : "external/llvm/include/llvm/ADT/StringMap.h"
  },
  {
   "function_name" : "llvm::StringMapIterator<llvm::Value *>::StringMapIterator",
   "linker_set_key" : "_ZN4llvm17StringMapIteratorIPNS_5ValueEEC2EPPNS_18StringMapEntryBaseEb",
   "parameters" :
   [
    {
     "is_this_ptr" : true,
     "referenced_type" : "_ZTIPN4llvm17StringMapIteratorIPNS_5ValueEEE"
    },
    {
     "referenced_type" : "_ZTIPPN4llvm18StringMapEntryBaseE"
    },
    {
     "default_arg" : true,
     "referenced_type" : "_ZTIb"
    }
   ],
   "return_type" : "_ZTIv",
   "source_file" : "external/llvm/include/llvm/ADT/StringMap.h"
  },
  {
   "function_name" : "llvm::countLeadingZeros",
   "linker_set_key" : "_ZN4llvm17countLeadingZerosIjEEjT_NS_12ZeroBehaviorE",
   "parameters" :
   [
    {
     "referenced_type" : "_ZTIj"
    },
    {
     "default_arg" : true,
     "referenced_type" : "_ZTIN4llvm12ZeroBehaviorE"
    }
   ],
   "return_type" : "_ZTIj",
   "source_file" : "external/llvm/include/llvm/Support/MathExtras.h",
   "template_args" : [ "_ZTIj" ]
  },
  {
   "function_name" : "llvm::countLeadingZeros",
   "linker_set_key" : "_ZN4llvm17countLeadingZerosIyEEjT_NS_12ZeroBehaviorE",
   "parameters" :
   [
    {
     "referenced_type" : "_ZTIy"
    },
    {
     "default_arg" : true,
     "referenced_type" : "_ZTIN4llvm12ZeroBehaviorE"
    }
   ],
   "return_type" : "_ZTIj",
   "source_file" : "external/llvm/include/llvm/Support/MathExtras.h",
   "template_args" : [ "_ZTIy" ]
  },
  {
   "function_name" : "llvm::countTrailingOnes",
   "linker_set_key" : "_ZN4llvm17countTrailingOnesIyEEjT_NS_12ZeroBehaviorE",
   "parameters" :
   [
    {
     "referenced_type" : "_ZTIy"
    },
    {
     "default_arg" : true,
     "referenced_type" : "_ZTIN4llvm12ZeroBehaviorE"
    }
   ],
   "return_type" : "_ZTIj",
   "source_file" : "external/llvm/include/llvm/Support/MathExtras.h",
   "template_args" : [ "_ZTIy" ]
  },
  {
   "function_name" : "llvm::raw_pwrite_stream::pwrite",
   "linker_set_key" : "_ZN4llvm17raw_pwrite_stream6pwriteEPKcjy",
   "parameters" :
   [
    {
     "is_this_ptr" : true,
     "referenced_type" : "_ZTIPN4llvm17raw_pwrite_streamE"
    },
    {
     "referenced_type" : "_ZTIPKc"
    },
    {
     "referenced_type" : "_ZTIj"
    },
    {
     "referenced_type" : "_ZTIy"
    }
   ],
   "return_type" : "_ZTIv",
   "source_file" : "external/llvm/include/llvm/Support/raw_ostream.h"
  },
  {
   "function_name" : "llvm::raw_pwrite_stream::raw_pwrite_stream",
   "linker_set_key" : "_ZN4llvm17raw_pwrite_streamC2Eb",
   "parameters" :
   [
    {
     "is_this_ptr" : true,
     "referenced_type" : "_ZTIPN4llvm17raw_pwrite_streamE"
    },
    {
     "default_arg" : true,
     "referenced_type" : "_ZTIb"
    }
   ],
   "return_type" : "_ZTIv",
   "source_file" : "external/llvm/include/llvm/Support/raw_ostream.h"
  },
  {
   "function_name" : "llvm::PointerIntPairInfo<llvm::Use **, 2, llvm::PointerLikeTypeTraits<llvm::Use **>>::getPointer",
   "linker_set_key" : "_ZN4llvm18PointerIntPairInfoIPPNS_3UseELj2ENS_21PointerLikeTypeTraitsIS3_EEE10getPointerEi",
   "parameters" :
   [
    {
     "referenced_type" : "_ZTIi"
    }
   ],
   "return_type" : "_ZTIPPN4llvm3UseE",
   "source_file" : "external/llvm/include/llvm/ADT/PointerIntPair.h"
  },
  {
   "function_name" : "llvm::PointerIntPairInfo<llvm::Use **, 2, llvm::PointerLikeTypeTraits<llvm::Use **>>::updatePointer",
   "linker_set_key" : "_ZN4llvm18PointerIntPairInfoIPPNS_3UseELj2ENS_21PointerLikeTypeTraitsIS3_EEE13updatePointerEiS3_",
   "parameters" :
   [
    {
     "referenced_type" : "_ZTIi"
    },
    {
     "referenced_type" : "_ZTIPPN4llvm3UseE"
    }
   ],
   "return_type" : "_ZTIi",
   "source_file" : "external/llvm/include/llvm/ADT/PointerIntPair.h"
  },
  {
   "function_name" : "llvm::PointerIntPairInfo<llvm::Use **, 2, llvm::PointerLikeTypeTraits<llvm::Use **>>::updateInt",
   "linker_set_key" : "_ZN4llvm18PointerIntPairInfoIPPNS_3UseELj2ENS_21PointerLikeTypeTraitsIS3_EEE9updateIntEii",
   "parameters" :
   [
    {
     "referenced_type" : "_ZTIi"
    },
    {
     "referenced_type" : "_ZTIi"
    }
   ],
   "return_type" : "_ZTIi",
   "source_file" : "external/llvm/include/llvm/ADT/PointerIntPair.h"
  },
  {
   "function_name" : "llvm::StringMapEntryBase::StringMapEntryBase",
   "linker_set_key" : "_ZN4llvm18StringMapEntryBaseC1Ej",
   "parameters" :
   [
    {
     "is_this_ptr" : true,
     "referenced_type" : "_ZTIPN4llvm18StringMapEntryBaseE"
    },
    {
     "referenced_type" : "_ZTIj"
    }
   ],
   "return_type" : "_ZTIv",
   "source_file" : "external/llvm/include/llvm/ADT/StringMap.h"
  },
  {
   "function_name" : "llvm::StringMapEntryBase::StringMapEntryBase",
   "linker_set_key" : "_ZN4llvm18StringMapEntryBaseC2Ej",
   "parameters" :
   [
    {
     "is_this_ptr" : true,
     "referenced_type" : "_ZTIPN4llvm18StringMapEntryBaseE"
    },
    {
     "referenced_type" : "_ZTIj"
    }
   ],
   "return_type" : "_ZTIv",
   "source_file" : "external/llvm/include/llvm/ADT/StringMap.h"
  },
  {
   "function_name" : "llvm::countTrailingZeros",
   "linker_set_key" : "_ZN4llvm18countTrailingZerosIyEEjT_NS_12ZeroBehaviorE",
   "parameters" :
   [
    {
     "referenced_type" : "_ZTIy"
    },
    {
     "default_arg" : true,
     "referenced_type" : "_ZTIN4llvm12ZeroBehaviorE"
    }
   ],
   "return_type" : "_ZTIj",
   "source_file" : "external/llvm/include/llvm/Support/MathExtras.h",
   "template_args" : [ "_ZTIy" ]
  },
  {
   "function_name" : "llvm::raw_string_ostream::str",
   "linker_set_key" : "_ZN4llvm18raw_string_ostream3strEv",
   "parameters" :
   [
    {
     "is_this_ptr" : true,
     "referenced_type" : "_ZTIPN4llvm18raw_string_ostreamE"
    }
   ],
   "return_type" : "_ZTIRNSt3__112basic_stringIcNS_11char_traitsIcEENS_9allocatorIcEEEE",
   "source_file" : "external/llvm/include/llvm/Support/raw_ostream.h"
  },
  {
   "function_name" : "llvm::raw_string_ostream::raw_string_ostream",
   "linker_set_key" : "_ZN4llvm18raw_string_ostreamC1ERNSt3__112basic_stringIcNS1_11char_traitsIcEENS1_9allocatorIcEEEE",
   "parameters" :
   [
    {
     "is_this_ptr" : true,
     "referenced_type" : "_ZTIPN4llvm18raw_string_ostreamE"
    },
    {
     "referenced_type" : "_ZTIRNSt3__112basic_stringIcNS_11char_traitsIcEENS_9allocatorIcEEEE"
    }
   ],
   "return_type" : "_ZTIv",
   "source_file" : "external/llvm/include/llvm/Support/raw_ostream.h"
  },
  {
   "function_name" : "llvm::raw_string_ostream::raw_string_ostream",
   "linker_set_key" : "_ZN4llvm18raw_string_ostreamC2ERNSt3__112basic_stringIcNS1_11char_traitsIcEENS1_9allocatorIcEEEE",
   "parameters" :
   [
    {
     "is_this_ptr" : true,
     "referenced_type" : "_ZTIPN4llvm18raw_string_ostreamE"
    },
    {
     "referenced_type" : "_ZTIRNSt3__112basic_stringIcNS_11char_traitsIcEENS_9allocatorIcEEEE"
    }
   ],
   "return_type" : "_ZTIv",
   "source_file" : "external/llvm/include/llvm/Support/raw_ostream.h"
  },
  {
   "access" : "protected",
   "function_name" : "llvm::SmallPtrSetImplBase::insert_imp",
   "linker_set_key" : "_ZN4llvm19SmallPtrSetImplBase10insert_impEPKv",
   "parameters" :
   [
    {
     "is_this_ptr" : true,
     "referenced_type" : "_ZTIPN4llvm19SmallPtrSetImplBaseE"
    },
    {
     "referenced_type" : "_ZTIPKv"
    }
   ],
   "return_type" : "_ZTINSt3__14pairIPKPKvbEE",
   "source_file" : "external/llvm/include/llvm/ADT/SmallPtrSet.h"
  },
  {
   "access" : "protected",
   "function_name" : "llvm::SmallPtrSetImplBase::getEmptyMarker",
   "linker_set_key" : "_ZN4llvm19SmallPtrSetImplBase14getEmptyMarkerEv",
   "return_type" : "_ZTIPv",
   "source_file" : "external/llvm/include/llvm/ADT/SmallPtrSet.h"
  },
  {
   "access" : "protected",
   "function_name" : "llvm::SmallPtrSetImplBase::getTombstoneMarker",
   "linker_set_key" : "_ZN4llvm19SmallPtrSetImplBase18getTombstoneMarkerEv",
   "return_type" : "_ZTIPv",
   "source_file" : "external/llvm/include/llvm/ADT/SmallPtrSet.h"
  },
  {
   "function_name" : "llvm::SmallPtrSetImplBase::clear",
   "linker_set_key" : "_ZN4llvm19SmallPtrSetImplBase5clearEv",
   "parameters" :
   [
    {
     "is_this_ptr" : true,
     "referenced_type" : "_ZTIPN4llvm19SmallPtrSetImplBaseE"
    }
   ],
   "return_type" : "_ZTIv",
   "source_file" : "external/llvm/include/llvm/ADT/SmallPtrSet.h"
  },
  {
   "access" : "protected",
   "function_name" : "llvm::SmallPtrSetImplBase::SmallPtrSetImplBase",
   "linker_set_key" : "_ZN4llvm19SmallPtrSetImplBaseC1EPPKvj",
   "parameters" :
   [
    {
     "is_this_ptr" : true,
     "referenced_type" : "_ZTIPN4llvm19SmallPtrSetImplBaseE"
    },
    {
     "referenced_type" : "_ZTIPPKv"
    },
    {
     "referenced_type" : "_ZTIj"
    }
   ],
   "return_type" : "_ZTIv",
   "source_file" : "external/llvm/include/llvm/ADT/SmallPtrSet.h"
  },
  {
   "access" : "protected",
   "function_name" : "llvm::SmallPtrSetImplBase::SmallPtrSetImplBase",
   "linker_set_key" : "_ZN4llvm19SmallPtrSetImplBaseC2EPPKvj",
   "parameters" :
   [
    {
     "is_this_ptr" : true,
     "referenced_type" : "_ZTIPN4llvm19SmallPtrSetImplBaseE"
    },
    {
     "referenced_type" : "_ZTIPPKv"
    },
    {
     "referenced_type" : "_ZTIj"
    }
   ],
   "return_type" : "_ZTIv",
   "source_file" : "external/llvm/include/llvm/ADT/SmallPtrSet.h"
  },
  {
   "access" : "protected",
   "function_name" : "llvm::SmallPtrSetImplBase::~SmallPtrSetImplBase",
   "linker_set_key" : "_ZN4llvm19SmallPtrSetImplBaseD1Ev",
   "parameters" :
   [
    {
     "is_this_ptr" : true,
     "referenced_type" : "_ZTIPN4llvm19SmallPtrSetImplBaseE"
    }
   ],
   "return_type" : "_ZTIv",
   "source_file" : "external/llvm/include/llvm/ADT/SmallPtrSet.h"
  },
  {
   "access" : "protected",
   "function_name" : "llvm::SmallPtrSetImplBase::~SmallPtrSetImplBase",
   "linker_set_key" : "_ZN4llvm19SmallPtrSetImplBaseD2Ev",
   "parameters" :
   [
    {
     "is_this_ptr" : true,
     "referenced_type" : "_ZTIPN4llvm19SmallPtrSetImplBaseE"
    }
   ],
   "return_type" : "_ZTIv",
   "source_file" : "external/llvm/include/llvm/ADT/SmallPtrSet.h"
  },
  {
   "function_name" : "llvm::alignmentAdjustment",
   "linker_set_key" : "_ZN4llvm19alignmentAdjustmentEPKvj",
   "parameters" :
   [
    {
     "referenced_type" : "_ZTIPKv"
    },
    {
     "referenced_type" : "_ZTIj"
    }
   ],
   "return_type" : "_ZTIj",
   "source_file" : "external/llvm/include/llvm/Support/MathExtras.h"
  },
  {
   "function_name" : "llvm::raw_svector_ostream::str",
   "linker_set_key" : "_ZN4llvm19raw_svector_ostream3strEv",
   "parameters" :
   [
    {
     "is_this_ptr" : true,
     "referenced_type" : "_ZTIPN4llvm19raw_svector_ostreamE"
    }
   ],
   "return_type" : "_ZTIN4llvm9StringRefE",
   "source_file" : "external/llvm/include/llvm/Support/raw_ostream.h"
  },
  {
   "function_name" : "llvm::raw_svector_ostream::raw_svector_ostream",
   "linker_set_key" : "_ZN4llvm19raw_svector_ostreamC1ERNS_15SmallVectorImplIcEE",
   "parameters" :
   [
    {
     "is_this_ptr" : true,
     "referenced_type" : "_ZTIPN4llvm19raw_svector_ostreamE"
    },
    {
     "referenced_type" : "_ZTIRN4llvm15SmallVectorImplIcEE"
    }
   ],
   "return_type" : "_ZTIv",
   "source_file" : "external/llvm/include/llvm/Support/raw_ostream.h"
  },
  {
   "function_name" : "llvm::raw_svector_ostream::raw_svector_ostream",
   "linker_set_key" : "_ZN4llvm19raw_svector_ostreamC2ERNS_15SmallVectorImplIcEE",
   "parameters" :
   [
    {
     "is_this_ptr" : true,
     "referenced_type" : "_ZTIPN4llvm19raw_svector_ostreamE"
    },
    {
     "referenced_type" : "_ZTIRN4llvm15SmallVectorImplIcEE"
    }
   ],
   "return_type" : "_ZTIv",
   "source_file" : "external/llvm/include/llvm/Support/raw_ostream.h"
  },
  {
   "function_name" : "llvm::raw_svector_ostream::~raw_svector_ostream",
   "linker_set_key" : "_ZN4llvm19raw_svector_ostreamD0Ev",
   "parameters" :
   [
    {
     "is_this_ptr" : true,
     "referenced_type" : "_ZTIPN4llvm19raw_svector_ostreamE"
    }
   ],
   "return_type" : "_ZTIv",
   "source_file" : "external/llvm/include/llvm/Support/raw_ostream.h"
  },
  {
   "function_name" : "llvm::raw_svector_ostream::~raw_svector_ostream",
   "linker_set_key" : "_ZN4llvm19raw_svector_ostreamD1Ev",
   "parameters" :
   [
    {
     "is_this_ptr" : true,
     "referenced_type" : "_ZTIPN4llvm19raw_svector_ostreamE"
    }
   ],
   "return_type" : "_ZTIv",
   "source_file" : "external/llvm/include/llvm/Support/raw_ostream.h"
  },
  {
   "function_name" : "llvm::raw_svector_ostream::~raw_svector_ostream",
   "linker_set_key" : "_ZN4llvm19raw_svector_ostreamD2Ev",
   "parameters" :
   [
    {
     "is_this_ptr" : true,
     "referenced_type" : "_ZTIPN4llvm19raw_svector_ostreamE"
    }
   ],
   "return_type" : "_ZTIv",
   "source_file" : "external/llvm/include/llvm/Support/raw_ostream.h"
  },
  {
   "function_name" : "llvm::PointerLikeTypeTraits<llvm::Value *>::getAsVoidPointer",
   "linker_set_key" : "_ZN4llvm21PointerLikeTypeTraitsIPNS_5ValueEE16getAsVoidPointerES2_",
   "parameters" :
   [
    {
     "referenced_type" : "_ZTIPN4llvm5ValueE"
    }
   ],
   "return_type" : "_ZTIPv",
   "source_file" : "external/llvm/include/llvm/IR/Value.h"
  },
  {
   "function_name" : "llvm::PointerLikeTypeTraits<llvm::Value *>::getFromVoidPointer",
   "linker_set_key" : "_ZN4llvm21PointerLikeTypeTraitsIPNS_5ValueEE18getFromVoidPointerEPv",
   "parameters" :
   [
    {
     "referenced_type" : "_ZTIPv"
    }
   ],
   "return_type" : "_ZTIPN4llvm5ValueE",
   "source_file" : "external/llvm/include/llvm/IR/Value.h"
  },
  {
   "function_name" : "llvm::PointerLikeTypeTraits<llvm::Use **>::getAsVoidPointer",
   "linker_set_key" : "_ZN4llvm21PointerLikeTypeTraitsIPPNS_3UseEE16getAsVoidPointerES3_",
   "parameters" :
   [
    {
     "referenced_type" : "_ZTIPPN4llvm3UseE"
    }
   ],
   "return_type" : "_ZTIPv",
   "source_file" : "external/llvm/include/llvm/IR/Use.h"
  },
  {
   "function_name" : "llvm::PointerLikeTypeTraits<llvm::Use **>::getFromVoidPointer",
   "linker_set_key" : "_ZN4llvm21PointerLikeTypeTraitsIPPNS_3UseEE18getFromVoidPointerEPv",
   "parameters" :
   [
    {
     "referenced_type" : "_ZTIPv"
    }
   ],
   "return_type" : "_ZTIPPN4llvm3UseE",
   "source_file" : "external/llvm/include/llvm/IR/Use.h"
  },
  {
   "function_name" : "llvm::PointerLikeTypeTraits<void *>::getAsVoidPointer",
   "linker_set_key" : "_ZN4llvm21PointerLikeTypeTraitsIPvE16getAsVoidPointerES1_",
   "parameters" :
   [
    {
     "referenced_type" : "_ZTIPv"
    }
   ],
   "return_type" : "_ZTIPv",
   "source_file" : "external/llvm/include/llvm/Support/PointerLikeTypeTraits.h"
  },
  {
   "function_name" : "llvm::PointerLikeTypeTraits<void *>::getFromVoidPointer",
   "linker_set_key" : "_ZN4llvm21PointerLikeTypeTraitsIPvE18getFromVoidPointerES1_",
   "parameters" :
   [
    {
     "referenced_type" : "_ZTIPv"
    }
   ],
   "return_type" : "_ZTIPv",
   "source_file" : "external/llvm/include/llvm/Support/PointerLikeTypeTraits.h"
  },
  {
   "function_name" : "llvm::PointerLikeTypeTraits<unsigned int>::getAsVoidPointer",
   "linker_set_key" : "_ZN4llvm21PointerLikeTypeTraitsIjE16getAsVoidPointerEj",
   "parameters" :
   [
    {
     "referenced_type" : "_ZTIj"
    }
   ],
   "return_type" : "_ZTIPv",
   "source_file" : "external/llvm/include/llvm/Support/PointerLikeTypeTraits.h"
  },
  {
   "function_name" : "llvm::PointerLikeTypeTraits<unsigned int>::getFromVoidPointer",
   "linker_set_key" : "_ZN4llvm21PointerLikeTypeTraitsIjE18getFromVoidPointerEPv",
   "parameters" :
   [
    {
     "referenced_type" : "_ZTIPv"
    }
   ],
   "return_type" : "_ZTIj",
   "source_file" : "external/llvm/include/llvm/Support/PointerLikeTypeTraits.h"
  },
  {
   "access" : "protected",
   "function_name" : "llvm::iterator_adaptor_base<llvm::User::value_op_iterator, llvm::Use *, std::__1::random_access_iterator_tag, llvm::Value *, int, llvm::Value *, llvm::Value *, std::__1::iterator_traits<llvm::Use *>>::iterator_adaptor_base",
   "linker_set_key" : "_ZN4llvm21iterator_adaptor_baseINS_4User17value_op_iteratorEPNS_3UseENSt3__126random_access_iterator_tagEPNS_5ValueEiS8_S8_NS5_15iterator_traitsIS4_EEEC1Ev",
   "parameters" :
   [
    {
     "is_this_ptr" : true,
     "referenced_type" : "_ZTIPN4llvm21iterator_adaptor_baseINS_4User17value_op_iteratorEPNS_3UseENSt3__126random_access_iterator_tagEPNS_5ValueEiS8_S8_NS5_15iterator_traitsIS4_EEEE"
    }
   ],
   "return_type" : "_ZTIv",
   "source_file" : "external/llvm/include/llvm/ADT/iterator.h"
  },
  {
   "access" : "protected",
   "function_name" : "llvm::iterator_adaptor_base<llvm::User::value_op_iterator, llvm::Use *, std::__1::random_access_iterator_tag, llvm::Value *, int, llvm::Value *, llvm::Value *, std::__1::iterator_traits<llvm::Use *>>::iterator_adaptor_base",
   "linker_set_key" : "_ZN4llvm21iterator_adaptor_baseINS_4User17value_op_iteratorEPNS_3UseENSt3__126random_access_iterator_tagEPNS_5ValueEiS8_S8_NS5_15iterator_traitsIS4_EEEC1IRS4_EEOT_NS5_9enable_ifIXntsr3std10is_base_ofINS5_9remove_cvINS5_16remove_referenceISE_E4typeEE4typeES2_EE5valueEiE4typeE",
   "parameters" :
   [
    {
     "is_this_ptr" : true,
     "referenced_type" : "_ZTIPN4llvm21iterator_adaptor_baseINS_4User17value_op_iteratorEPNS_3UseENSt3__126random_access_iterator_tagEPNS_5ValueEiS8_S8_NS5_15iterator_traitsIS4_EEEE"
    },
    {
     "referenced_type" : "_ZTIRPN4llvm3UseE"
    },
    {
     "default_arg" : true,
     "referenced_type" : "_ZTIi"
    }
   ],
   "return_type" : "_ZTIv",
   "source_file" : "external/llvm/include/llvm/ADT/iterator.h",
   "template_args" : [ "_ZTIRPN4llvm3UseE" ]
  },
  {
   "access" : "protected",
   "function_name" : "llvm::iterator_adaptor_base<llvm::User::value_op_iterator, llvm::Use *, std::__1::random_access_iterator_tag, llvm::Value *, int, llvm::Value *, llvm::Value *, std::__1::iterator_traits<llvm::Use *>>::iterator_adaptor_base",
   "linker_set_key" : "_ZN4llvm21iterator_adaptor_baseINS_4User17value_op_iteratorEPNS_3UseENSt3__126random_access_iterator_tagEPNS_5ValueEiS8_S8_NS5_15iterator_traitsIS4_EEEC2Ev",
   "parameters" :
   [
    {
     "is_this_ptr" : true,
     "referenced_type" : "_ZTIPN4llvm21iterator_adaptor_baseINS_4User17value_op_iteratorEPNS_3UseENSt3__126random_access_iterator_tagEPNS_5ValueEiS8_S8_NS5_15iterator_traitsIS4_EEEE"
    }
   ],
   "return_type" : "_ZTIv",
   "source_file" : "external/llvm/include/llvm/ADT/iterator.h"
  },
  {
   "access" : "protected",
   "function_name" : "llvm::iterator_adaptor_base<llvm::User::value_op_iterator, llvm::Use *, std::__1::random_access_iterator_tag, llvm::Value *, int, llvm::Value *, llvm::Value *, std::__1::iterator_traits<llvm::Use *>>::iterator_adaptor_base",
   "linker_set_key" : "_ZN4llvm21iterator_adaptor_baseINS_4User17value_op_iteratorEPNS_3UseENSt3__126random_access_iterator_tagEPNS_5ValueEiS8_S8_NS5_15iterator_traitsIS4_EEEC2IRS4_EEOT_NS5_9enable_ifIXntsr3std10is_base_ofINS5_9remove_cvINS5_16remove_referenceISE_E4typeEE4typeES2_EE5valueEiE4typeE",
   "parameters" :
   [
    {
     "is_this_ptr" : true,
     "referenced_type" : "_ZTIPN4llvm21iterator_adaptor_baseINS_4User17value_op_iteratorEPNS_3UseENSt3__126random_access_iterator_tagEPNS_5ValueEiS8_S8_NS5_15iterator_traitsIS4_EEEE"
    },
    {
     "referenced_type" : "_ZTIRPN4llvm3UseE"
    },
    {
     "default_arg" : true,
     "referenced_type" : "_ZTIi"
    }
   ],
   "return_type" : "_ZTIv",
   "source_file" : "external/llvm/include/llvm/ADT/iterator.h",
   "template_args" : [ "_ZTIRPN4llvm3UseE" ]
  },
  {
   "access" : "private",
   "function_name" : "llvm::StringMapConstIterator<llvm::Value *>::AdvancePastEmptyBuckets",
   "linker_set_key" : "_ZN4llvm22StringMapConstIteratorIPNS_5ValueEE23AdvancePastEmptyBucketsEv",
   "parameters" :
   [
    {
     "is_this_ptr" : true,
     "referenced_type" : "_ZTIPN4llvm22StringMapConstIteratorIPNS_5ValueEEE"
    }
   ],
   "return_type" : "_ZTIv",
   "source_file" : "external/llvm/include/llvm/ADT/StringMap.h"
  },
  {
   "function_name" : "llvm::StringMapConstIterator<llvm::Value *>::StringMapConstIterator",
   "linker_set_key" : "_ZN4llvm22StringMapConstIteratorIPNS_5ValueEEC1EPPNS_18StringMapEntryBaseEb",
   "parameters" :
   [
    {
     "is_this_ptr" : true,
     "referenced_type" : "_ZTIPN4llvm22StringMapConstIteratorIPNS_5ValueEEE"
    },
    {
     "referenced_type" : "_ZTIPPN4llvm18StringMapEntryBaseE"
    },
    {
     "default_arg" : true,
     "referenced_type" : "_ZTIb"
    }
   ],
   "return_type" : "_ZTIv",
   "source_file" : "external/llvm/include/llvm/ADT/StringMap.h"
  },
  {
   "function_name" : "llvm::StringMapConstIterator<llvm::Value *>::StringMapConstIterator",
   "linker_set_key" : "_ZN4llvm22StringMapConstIteratorIPNS_5ValueEEC2EPPNS_18StringMapEntryBaseEb",
   "parameters" :
   [
    {
     "is_this_ptr" : true,
     "referenced_type" : "_ZTIPN4llvm22StringMapConstIteratorIPNS_5ValueEEE"
    },
    {
     "referenced_type" : "_ZTIPPN4llvm18StringMapEntryBaseE"
    },
    {
     "default_arg" : true,
     "referenced_type" : "_ZTIb"
    }
   ],
   "return_type" : "_ZTIv",
   "source_file" : "external/llvm/include/llvm/ADT/StringMap.h"
  },
  {
   "function_name" : "llvm::StringMapConstIterator<llvm::Value *>::operator++",
   "linker_set_key" : "_ZN4llvm22StringMapConstIteratorIPNS_5ValueEEppEv",
   "parameters" :
   [
    {
     "is_this_ptr" : true,
     "referenced_type" : "_ZTIPN4llvm22StringMapConstIteratorIPNS_5ValueEEE"
    }
   ],
   "return_type" : "_ZTIRN4llvm22StringMapConstIteratorIPNS_5ValueEEE",
   "source_file" : "external/llvm/include/llvm/ADT/StringMap.h"
  },
  {
   "function_name" : "llvm::GreatestCommonDivisor64",
   "linker_set_key" : "_ZN4llvm23GreatestCommonDivisor64Eyy",
   "parameters" :
   [
    {
     "referenced_type" : "_ZTIy"
    },
    {
     "referenced_type" : "_ZTIy"
    }
   ],
   "return_type" : "_ZTIy",
   "source_file" : "external/llvm/include/llvm/Support/MathExtras.h"
  },
  {
   "function_name" : "llvm::ScopedFatalErrorHandler::ScopedFatalErrorHandler",
   "linker_set_key" : "_ZN4llvm23ScopedFatalErrorHandlerC1EPFvPvRKNSt3__112basic_stringIcNS2_11char_traitsIcEENS2_9allocatorIcEEEEbES1_",
   "parameters" :
   [
    {
     "is_this_ptr" : true,
     "referenced_type" : "_ZTIPN4llvm23ScopedFatalErrorHandlerE"
    },
    {
     "referenced_type" : "_ZTIPFvPvRKNSt3__112basic_stringIcNS0_11char_traitsIcEENS0_9allocatorIcEEEEbE"
    },
    {
     "default_arg" : true,
     "referenced_type" : "_ZTIPv"
    }
   ],
   "return_type" : "_ZTIv",
   "source_file" : "external/llvm/include/llvm/Support/ErrorHandling.h"
  },
  {
   "function_name" : "llvm::ScopedFatalErrorHandler::ScopedFatalErrorHandler",
   "linker_set_key" : "_ZN4llvm23ScopedFatalErrorHandlerC2EPFvPvRKNSt3__112basic_stringIcNS2_11char_traitsIcEENS2_9allocatorIcEEEEbES1_",
   "parameters" :
   [
    {
     "is_this_ptr" : true,
     "referenced_type" : "_ZTIPN4llvm23ScopedFatalErrorHandlerE"
    },
    {
     "referenced_type" : "_ZTIPFvPvRKNSt3__112basic_stringIcNS0_11char_traitsIcEENS0_9allocatorIcEEEEbE"
    },
    {
     "default_arg" : true,
     "referenced_type" : "_ZTIPv"
    }
   ],
   "return_type" : "_ZTIv",
   "source_file" : "external/llvm/include/llvm/Support/ErrorHandling.h"
  },
  {
   "function_name" : "llvm::ScopedFatalErrorHandler::~ScopedFatalErrorHandler",
   "linker_set_key" : "_ZN4llvm23ScopedFatalErrorHandlerD1Ev",
   "parameters" :
   [
    {
     "is_this_ptr" : true,
     "referenced_type" : "_ZTIPN4llvm23ScopedFatalErrorHandlerE"
    }
   ],
   "return_type" : "_ZTIv",
   "source_file" : "external/llvm/include/llvm/Support/ErrorHandling.h"
  },
  {
   "function_name" : "llvm::ScopedFatalErrorHandler::~ScopedFatalErrorHandler",
   "linker_set_key" : "_ZN4llvm23ScopedFatalErrorHandlerD2Ev",
   "parameters" :
   [
    {
     "is_this_ptr" : true,
     "referenced_type" : "_ZTIPN4llvm23ScopedFatalErrorHandlerE"
    }
   ],
   "return_type" : "_ZTIv",
   "source_file" : "external/llvm/include/llvm/Support/ErrorHandling.h"
  },
  {
   "access" : "protected",
   "function_name" : "llvm::SmallPtrSetIteratorImpl::AdvanceIfNotValid",
   "linker_set_key" : "_ZN4llvm23SmallPtrSetIteratorImpl17AdvanceIfNotValidEv",
   "parameters" :
   [
    {
     "is_this_ptr" : true,
     "referenced_type" : "_ZTIPN4llvm23SmallPtrSetIteratorImplE"
    }
   ],
   "return_type" : "_ZTIv",
   "source_file" : "external/llvm/include/llvm/ADT/SmallPtrSet.h"
  },
  {
   "function_name" : "llvm::SmallPtrSetIteratorImpl::SmallPtrSetIteratorImpl",
   "linker_set_key" : "_ZN4llvm23SmallPtrSetIteratorImplC1EPKPKvS4_",
   "parameters" :
   [
    {
     "is_this_ptr" : true,
     "referenced_type" : "_ZTIPN4llvm23SmallPtrSetIteratorImplE"
    },
    {
     "referenced_type" : "_ZTIPKPKv"
    },
    {
     "referenced_type" : "_ZTIPKPKv"
    }
   ],
   "return_type" : "_ZTIv",
   "source_file" : "external/llvm/include/llvm/ADT/SmallPtrSet.h"
  },
  {
   "function_name" : "llvm::SmallPtrSetIteratorImpl::SmallPtrSetIteratorImpl",
   "linker_set_key" : "_ZN4llvm23SmallPtrSetIteratorImplC2EPKPKvS4_",
   "parameters" :
   [
    {
     "is_this_ptr" : true,
     "referenced_type" : "_ZTIPN4llvm23SmallPtrSetIteratorImplE"
    },
    {
     "referenced_type" : "_ZTIPKPKv"
    },
    {
     "referenced_type" : "_ZTIPKPKv"
    }
   ],
   "return_type" : "_ZTIv",
   "source_file" : "external/llvm/include/llvm/ADT/SmallPtrSet.h"
  },
  {
   "access" : "protected",
   "function_name" : "llvm::SmallVectorTemplateBase<char, true>::destroy_range",
   "linker_set_key" : "_ZN4llvm23SmallVectorTemplateBaseIcLb1EE13destroy_rangeEPcS2_",
   "parameters" :
   [
    {
     "referenced_type" : "_ZTIPc"
    },
    {
     "referenced_type" : "_ZTIPc"
    }
   ],
   "return_type" : "_ZTIv",
   "source_file" : "external/llvm/include/llvm/ADT/SmallVector.h"
  },
  {
   "access" : "protected",
   "function_name" : "llvm::SmallVectorTemplateBase<char, true>::uninitialized_copy",
   "linker_set_key" : "_ZN4llvm23SmallVectorTemplateBaseIcLb1EE18uninitialized_copyIKccEEvPT_S5_PT0_PNSt3__19enable_ifIXsr3std7is_sameINS8_12remove_constIS4_E4typeES6_EE5valueEvE4typeE",
   "parameters" :
   [
    {
     "referenced_type" : "_ZTIPKc"
    },
    {
     "referenced_type" : "_ZTIPKc"
    },
    {
     "referenced_type" : "_ZTIPc"
    },
    {
     "default_arg" : true,
     "referenced_type" : "_ZTIPv"
    }
   ],
   "return_type" : "_ZTIv",
   "source_file" : "external/llvm/include/llvm/ADT/SmallVector.h",
   "template_args" : [ "_ZTIKc", "_ZTIc" ]
  },
  {
   "access" : "protected",
   "function_name" : "llvm::SmallVectorTemplateBase<char, true>::uninitialized_copy",
   "linker_set_key" : "_ZN4llvm23SmallVectorTemplateBaseIcLb1EE18uninitialized_copyIccEEvPT_S4_PT0_PNSt3__19enable_ifIXsr3std7is_sameINS7_12remove_constIS3_E4typeES5_EE5valueEvE4typeE",
   "parameters" :
   [
    {
     "referenced_type" : "_ZTIPc"
    },
    {
     "referenced_type" : "_ZTIPc"
    },
    {
     "referenced_type" : "_ZTIPc"
    },
    {
     "default_arg" : true,
     "referenced_type" : "_ZTIPv"
    }
   ],
   "return_type" : "_ZTIv",
   "source_file" : "external/llvm/include/llvm/ADT/SmallVector.h",
   "template_args" : [ "_ZTIc", "_ZTIc" ]
  },
  {
   "access" : "protected",
   "function_name" : "llvm::SmallVectorTemplateBase<char, true>::uninitialized_move",
   "linker_set_key" : "_ZN4llvm23SmallVectorTemplateBaseIcLb1EE18uninitialized_moveIPcS3_EEvT_S4_T0_",
   "parameters" :
   [
    {
     "referenced_type" : "_ZTIPc"
    },
    {
     "referenced_type" : "_ZTIPc"
    },
    {
     "referenced_type" : "_ZTIPc"
    }
   ],
   "return_type" : "_ZTIv",
   "source_file" : "external/llvm/include/llvm/ADT/SmallVector.h",
   "template_args" : [ "_ZTIPc", "_ZTIPc" ]
  },
  {
   "access" : "protected",
   "function_name" : "llvm::SmallVectorTemplateBase<char, true>::grow",
   "linker_set_key" : "_ZN4llvm23SmallVectorTemplateBaseIcLb1EE4growEj",
   "parameters" :
   [
    {
     "is_this_ptr" : true,
     "referenced_type" : "_ZTIPN4llvm23SmallVectorTemplateBaseIcLb1EEE"
    },
    {
     "default_arg" : true,
     "referenced_type" : "_ZTIj"
    }
   ],
   "return_type" : "_ZTIv",
   "source_file" : "external/llvm/include/llvm/ADT/SmallVector.h"
  },
  {
   "access" : "protected",
   "function_name" : "llvm::SmallVectorTemplateBase<char, true>::SmallVectorTemplateBase",
   "linker_set_key" : "_ZN4llvm23SmallVectorTemplateBaseIcLb1EEC1Ej",
   "parameters" :
   [
    {
     "is_this_ptr" : true,
     "referenced_type" : "_ZTIPN4llvm23SmallVectorTemplateBaseIcLb1EEE"
    },
    {
     "referenced_type" : "_ZTIj"
    }
   ],
   "return_type" : "_ZTIv",
   "source_file" : "external/llvm/include/llvm/ADT/SmallVector.h"
  },
  {
   "access" : "protected",
   "function_name" : "llvm::SmallVectorTemplateBase<char, true>::SmallVectorTemplateBase",
   "linker_set_key" : "_ZN4llvm23SmallVectorTemplateBaseIcLb1EEC2Ej",
   "parameters" :
   [
    {
     "is_this_ptr" : true,
     "referenced_type" : "_ZTIPN4llvm23SmallVectorTemplateBaseIcLb1EEE"
    },
    {
     "referenced_type" : "_ZTIj"
    }
   ],
   "return_type" : "_ZTIv",
   "source_file" : "external/llvm/include/llvm/ADT/SmallVector.h"
  },
  {
   "access" : "protected",
   "function_name" : "llvm::SmallVectorTemplateCommon<char, void>::capacity_ptr",
   "linker_set_key" : "_ZN4llvm25SmallVectorTemplateCommonIcvE12capacity_ptrEv",
   "parameters" :
   [
    {
     "is_this_ptr" : true,
     "referenced_type" : "_ZTIPN4llvm25SmallVectorTemplateCommonIcvEE"
    }
   ],
   "return_type" : "_ZTIPc",
   "source_file" : "external/llvm/include/llvm/ADT/SmallVector.h"
  },
  {
   "access" : "protected",
   "function_name" : "llvm::SmallVectorTemplateCommon<char, void>::resetToSmall",
   "linker_set_key" : "_ZN4llvm25SmallVectorTemplateCommonIcvE12resetToSmallEv",
   "parameters" :
   [
    {
     "is_this_ptr" : true,
     "referenced_type" : "_ZTIPN4llvm25SmallVectorTemplateCommonIcvEE"
    }
   ],
   "return_type" : "_ZTIv",
   "source_file" : "external/llvm/include/llvm/ADT/SmallVector.h"
  },
  {
   "function_name" : "llvm::SmallVectorTemplateCommon<char, void>::end",
   "linker_set_key" : "_ZN4llvm25SmallVectorTemplateCommonIcvE3endEv",
   "parameters" :
   [
    {
     "is_this_ptr" : true,
     "referenced_type" : "_ZTIPN4llvm25SmallVectorTemplateCommonIcvEE"
    }
   ],
   "return_type" : "_ZTIPc",
   "source_file" : "external/llvm/include/llvm/ADT/SmallVector.h"
  },
  {
   "function_name" : "llvm::SmallVectorTemplateCommon<char, void>::data",
   "linker_set_key" : "_ZN4llvm25SmallVectorTemplateCommonIcvE4dataEv",
   "parameters" :
   [
    {
     "is_this_ptr" : true,
     "referenced_type" : "_ZTIPN4llvm25SmallVectorTemplateCommonIcvEE"
    }
   ],
   "return_type" : "_ZTIPc",
   "source_file" : "external/llvm/include/llvm/ADT/SmallVector.h"
  },
  {
   "function_name" : "llvm::SmallVectorTemplateCommon<char, void>::begin",
   "linker_set_key" : "_ZN4llvm25SmallVectorTemplateCommonIcvE5beginEv",
   "parameters" :
   [
    {
     "is_this_ptr" : true,
     "referenced_type" : "_ZTIPN4llvm25SmallVectorTemplateCommonIcvEE"
    }
   ],
   "return_type" : "_ZTIPc",
   "source_file" : "external/llvm/include/llvm/ADT/SmallVector.h"
  },
  {
   "access" : "protected",
   "function_name" : "llvm::SmallVectorTemplateCommon<char, void>::setEnd",
   "linker_set_key" : "_ZN4llvm25SmallVectorTemplateCommonIcvE6setEndEPc",
   "parameters" :
   [
    {
     "is_this_ptr" : true,
     "referenced_type" : "_ZTIPN4llvm25SmallVectorTemplateCommonIcvEE"
    },
    {
     "referenced_type" : "_ZTIPc"
    }
   ],
   "return_type" : "_ZTIv",
   "source_file" : "external/llvm/include/llvm/ADT/SmallVector.h"
  },
  {
   "access" : "protected",
   "function_name" : "llvm::SmallVectorTemplateCommon<char, void>::grow_pod",
   "linker_set_key" : "_ZN4llvm25SmallVectorTemplateCommonIcvE8grow_podEjj",
   "parameters" :
   [
    {
     "is_this_ptr" : true,
     "referenced_type" : "_ZTIPN4llvm25SmallVectorTemplateCommonIcvEE"
    },
    {
     "referenced_type" : "_ZTIj"
    },
    {
     "referenced_type" : "_ZTIj"
    }
   ],
   "return_type" : "_ZTIv",
   "source_file" : "external/llvm/include/llvm/ADT/SmallVector.h"
  },
  {
   "access" : "protected",
   "function_name" : "llvm::SmallVectorTemplateCommon<char, void>::SmallVectorTemplateCommon",
   "linker_set_key" : "_ZN4llvm25SmallVectorTemplateCommonIcvEC1Ej",
   "parameters" :
   [
    {
     "is_this_ptr" : true,
     "referenced_type" : "_ZTIPN4llvm25SmallVectorTemplateCommonIcvEE"
    },
    {
     "referenced_type" : "_ZTIj"
    }
   ],
   "return_type" : "_ZTIv",
   "source_file" : "external/llvm/include/llvm/ADT/SmallVector.h"
  },
  {
   "access" : "protected",
   "function_name" : "llvm::SmallVectorTemplateCommon<char, void>::SmallVectorTemplateCommon",
   "linker_set_key" : "_ZN4llvm25SmallVectorTemplateCommonIcvEC2Ej",
   "parameters" :
   [
    {
     "is_this_ptr" : true,
     "referenced_type" : "_ZTIPN4llvm25SmallVectorTemplateCommonIcvEE"
    },
    {
     "referenced_type" : "_ZTIj"
    }
   ],
   "return_type" : "_ZTIv",
   "source_file" : "external/llvm/include/llvm/ADT/SmallVector.h"
  },
  {
   "access" : "private",
   "function_name" : "llvm::Use::removeFromList",
   "linker_set_key" : "_ZN4llvm3Use14removeFromListEv",
   "parameters" :
   [
    {
     "is_this_ptr" : true,
     "referenced_type" : "_ZTIPN4llvm3UseE"
    }
   ],
   "return_type" : "_ZTIv",
   "source_file" : "external/llvm/include/llvm/IR/Use.h"
  },
  {
   "function_name" : "llvm::Use::set",
   "linker_set_key" : "_ZN4llvm3Use3setEPNS_5ValueE",
   "parameters" :
   [
    {
     "is_this_ptr" : true,
     "referenced_type" : "_ZTIPN4llvm3UseE"
    },
    {
     "referenced_type" : "_ZTIPN4llvm5ValueE"
    }
   ],
   "return_type" : "_ZTIv",
   "source_file" : "external/llvm/include/llvm/IR/Use.h"
  },
  {
   "access" : "private",
   "function_name" : "llvm::Use::setPrev",
   "linker_set_key" : "_ZN4llvm3Use7setPrevEPPS0_",
   "parameters" :
   [
    {
     "is_this_ptr" : true,
     "referenced_type" : "_ZTIPN4llvm3UseE"
    },
    {
     "referenced_type" : "_ZTIPPN4llvm3UseE"
    }
   ],
   "return_type" : "_ZTIv",
   "source_file" : "external/llvm/include/llvm/IR/Use.h"
  },
  {
   "access" : "private",
   "function_name" : "llvm::Use::addToList",
   "linker_set_key" : "_ZN4llvm3Use9addToListEPPS0_",
   "parameters" :
   [
    {
     "is_this_ptr" : true,
     "referenced_type" : "_ZTIPN4llvm3UseE"
    },
    {
     "referenced_type" : "_ZTIPPN4llvm3UseE"
    }
   ],
   "return_type" : "_ZTIv",
   "source_file" : "external/llvm/include/llvm/IR/Use.h"
  },
  {
   "access" : "private",
   "function_name" : "llvm::Use::Use",
   "linker_set_key" : "_ZN4llvm3UseC1ENS0_10PrevPtrTagE",
   "parameters" :
   [
    {
     "is_this_ptr" : true,
     "referenced_type" : "_ZTIPN4llvm3UseE"
    },
    {
     "referenced_type" : "_ZTIN4llvm3Use10PrevPtrTagE"
    }
   ],
   "return_type" : "_ZTIv",
   "source_file" : "external/llvm/include/llvm/IR/Use.h"
  },
  {
   "access" : "private",
   "function_name" : "llvm::Use::Use",
   "linker_set_key" : "_ZN4llvm3UseC2ENS0_10PrevPtrTagE",
   "parameters" :
   [
    {
     "is_this_ptr" : true,
     "referenced_type" : "_ZTIPN4llvm3UseE"
    },
    {
     "referenced_type" : "_ZTIN4llvm3Use10PrevPtrTagE"
    }
   ],
   "return_type" : "_ZTIv",
   "source_file" : "external/llvm/include/llvm/IR/Use.h"
  },
  {
   "access" : "private",
   "function_name" : "llvm::Use::~Use",
   "linker_set_key" : "_ZN4llvm3UseD1Ev",
   "parameters" :
   [
    {
     "is_this_ptr" : true,
     "referenced_type" : "_ZTIPN4llvm3UseE"
    }
   ],
   "return_type" : "_ZTIv",
   "source_file" : "external/llvm/include/llvm/IR/Use.h"
  },
  {
   "access" : "private",
   "function_name" : "llvm::Use::~Use",
   "linker_set_key" : "_ZN4llvm3UseD2Ev",
   "parameters" :
   [
    {
     "is_this_ptr" : true,
     "referenced_type" : "_ZTIPN4llvm3UseE"
    }
   ],
   "return_type" : "_ZTIv",
   "source_file" : "external/llvm/include/llvm/IR/Use.h"
  },
  {
   "function_name" : "llvm::Use::operator=",
   "linker_set_key" : "_ZN4llvm3UseaSEPNS_5ValueE",
   "parameters" :
   [
    {
     "is_this_ptr" : true,
     "referenced_type" : "_ZTIPN4llvm3UseE"
    },
    {
     "referenced_type" : "_ZTIPN4llvm5ValueE"
    }
   ],
   "return_type" : "_ZTIPN4llvm5ValueE",
   "source_file" : "external/llvm/include/llvm/IR/Use.h"
  },
  {
   "function_name" : "llvm::Use::operator=",
   "linker_set_key" : "_ZN4llvm3UseaSERKS0_",
   "parameters" :
   [
    {
     "is_this_ptr" : true,
     "referenced_type" : "_ZTIPN4llvm3UseE"
    },
    {
     "referenced_type" : "_ZTIRKN4llvm3UseE"
    }
   ],
   "return_type" : "_ZTIRKN4llvm3UseE",
   "source_file" : "external/llvm/include/llvm/IR/Use.h"
  },
  {
   "function_name" : "llvm::Use::operator->",
   "linker_set_key" : "_ZN4llvm3UseptEv",
   "parameters" :
   [
    {
     "is_this_ptr" : true,
     "referenced_type" : "_ZTIPN4llvm3UseE"
    }
   ],
   "return_type" : "_ZTIPN4llvm5ValueE",
   "source_file" : "external/llvm/include/llvm/IR/Use.h"
  },
  {
   "function_name" : "llvm::abs",
   "linker_set_key" : "_ZN4llvm3absENS_7APFloatE",
   "parameters" :
   [
    {
     "referenced_type" : "_ZTIN4llvm7APFloatE"
    }
   ],
   "return_type" : "_ZTIN4llvm7APFloatE",
   "source_file" : "external/llvm/include/llvm/ADT/APFloat.h"
  },
  {
   "function_name" : "llvm::isa",
   "linker_set_key" : "_ZN4llvm3isaINS_11GlobalAliasENS_5ValueEEEbRKT0_",
   "parameters" :
   [
    {
     "referenced_type" : "_ZTIRKN4llvm5ValueE"
    }
   ],
   "return_type" : "_ZTIb",
   "source_file" : "external/llvm/include/llvm/Support/Casting.h",
   "template_args" : [ "_ZTIN4llvm11GlobalAliasE", "_ZTIN4llvm5ValueE" ]
  },
  {
   "function_name" : "llvm::isa",
   "linker_set_key" : "_ZN4llvm3isaINS_11GlobalIFuncENS_5ValueEEEbRKT0_",
   "parameters" :
   [
    {
     "referenced_type" : "_ZTIRKN4llvm5ValueE"
    }
   ],
   "return_type" : "_ZTIb",
   "source_file" : "external/llvm/include/llvm/Support/Casting.h",
   "template_args" : [ "_ZTIN4llvm11GlobalIFuncE", "_ZTIN4llvm5ValueE" ]
  },
  {
   "function_name" : "llvm::isa",
   "linker_set_key" : "_ZN4llvm3isaINS_11GlobalValueEPNS_5ValueEEEbRKT0_",
   "parameters" :
   [
    {
     "referenced_type" : "_ZTIRKPN4llvm5ValueE"
    }
   ],
   "return_type" : "_ZTIb",
   "source_file" : "external/llvm/include/llvm/Support/Casting.h",
   "template_args" : [ "_ZTIN4llvm11GlobalValueE", "_ZTIPN4llvm5ValueE" ]
  },
  {
   "function_name" : "llvm::isa",
   "linker_set_key" : "_ZN4llvm3isaINS_11InstructionEPKNS_5ValueEEEbRKT0_",
   "parameters" :
   [
    {
     "referenced_type" : "_ZTIRKPKN4llvm5ValueE"
    }
   ],
   "return_type" : "_ZTIb",
   "source_file" : "external/llvm/include/llvm/Support/Casting.h",
   "template_args" : [ "_ZTIN4llvm11InstructionE", "_ZTIPKN4llvm5ValueE" ]
  },
  {
   "function_name" : "llvm::isa",
   "linker_set_key" : "_ZN4llvm3isaINS_12GlobalObjectENS_5ValueEEEbRKT0_",
   "parameters" :
   [
    {
     "referenced_type" : "_ZTIRKN4llvm5ValueE"
    }
   ],
   "return_type" : "_ZTIb",
   "source_file" : "external/llvm/include/llvm/Support/Casting.h",
   "template_args" : [ "_ZTIN4llvm12GlobalObjectE", "_ZTIN4llvm5ValueE" ]
  },
  {
   "function_name" : "llvm::isa",
   "linker_set_key" : "_ZN4llvm3isaINS_14GlobalVariableENS_5ValueEEEbRKT0_",
   "parameters" :
   [
    {
     "referenced_type" : "_ZTIRKN4llvm5ValueE"
    }
   ],
   "return_type" : "_ZTIb",
   "source_file" : "external/llvm/include/llvm/Support/Casting.h",
   "template_args" : [ "_ZTIN4llvm14GlobalVariableE", "_ZTIN4llvm5ValueE" ]
  },
  {
   "function_name" : "llvm::isa",
   "linker_set_key" : "_ZN4llvm3isaINS_20GlobalIndirectSymbolENS_5ValueEEEbRKT0_",
   "parameters" :
   [
    {
     "referenced_type" : "_ZTIRKN4llvm5ValueE"
    }
   ],
   "return_type" : "_ZTIb",
   "source_file" : "external/llvm/include/llvm/Support/Casting.h",
   "template_args" : [ "_ZTIN4llvm20GlobalIndirectSymbolE", "_ZTIN4llvm5ValueE" ]
  },
  {
   "function_name" : "llvm::isa",
   "linker_set_key" : "_ZN4llvm3isaINS_8ConstantEPKNS_5ValueEEEbRKT0_",
   "parameters" :
   [
    {
     "referenced_type" : "_ZTIRKPKN4llvm5ValueE"
    }
   ],
   "return_type" : "_ZTIb",
   "source_file" : "external/llvm/include/llvm/Support/Casting.h",
   "template_args" : [ "_ZTIN4llvm8ConstantE", "_ZTIPKN4llvm5ValueE" ]
  },
  {
   "function_name" : "llvm::isa",
   "linker_set_key" : "_ZN4llvm3isaINS_8FunctionENS_5ValueEEEbRKT0_",
   "parameters" :
   [
    {
     "referenced_type" : "_ZTIRKN4llvm5ValueE"
    }
   ],
   "return_type" : "_ZTIb",
   "source_file" : "external/llvm/include/llvm/Support/Casting.h",
   "template_args" : [ "_ZTIN4llvm8FunctionE", "_ZTIN4llvm5ValueE" ]
  },
  {
   "function_name" : "llvm::sys::MemoryBlock::MemoryBlock",
   "linker_set_key" : "_ZN4llvm3sys11MemoryBlockC1EPvj",
   "parameters" :
   [
    {
     "is_this_ptr" : true,
     "referenced_type" : "_ZTIPN4llvm3sys11MemoryBlockE"
    },
    {
     "referenced_type" : "_ZTIPv"
    },
    {
     "referenced_type" : "_ZTIj"
    }
   ],
   "return_type" : "_ZTIv",
   "source_file" : "external/llvm/include/llvm/Support/Memory.h"
  },
  {
   "function_name" : "llvm::sys::MemoryBlock::MemoryBlock",
   "linker_set_key" : "_ZN4llvm3sys11MemoryBlockC1Ev",
   "parameters" :
   [
    {
     "is_this_ptr" : true,
     "referenced_type" : "_ZTIPN4llvm3sys11MemoryBlockE"
    }
   ],
   "return_type" : "_ZTIv",
   "source_file" : "external/llvm/include/llvm/Support/Memory.h"
  },
  {
   "function_name" : "llvm::sys::MemoryBlock::MemoryBlock",
   "linker_set_key" : "_ZN4llvm3sys11MemoryBlockC2EPvj",
   "parameters" :
   [
    {
     "is_this_ptr" : true,
     "referenced_type" : "_ZTIPN4llvm3sys11MemoryBlockE"
    },
    {
     "referenced_type" : "_ZTIPv"
    },
    {
     "referenced_type" : "_ZTIj"
    }
   ],
   "return_type" : "_ZTIv",
   "source_file" : "external/llvm/include/llvm/Support/Memory.h"
  },
  {
   "function_name" : "llvm::sys::MemoryBlock::MemoryBlock",
   "linker_set_key" : "_ZN4llvm3sys11MemoryBlockC2Ev",
   "parameters" :
   [
    {
     "is_this_ptr" : true,
     "referenced_type" : "_ZTIPN4llvm3sys11MemoryBlockE"
    }
   ],
   "return_type" : "_ZTIv",
   "source_file" : "external/llvm/include/llvm/Support/Memory.h"
  },
  {
   "function_name" : "llvm::sys::swapByteOrder",
   "linker_set_key" : "_ZN4llvm3sys13swapByteOrderIjEEvRT_",
   "parameters" :
   [
    {
     "referenced_type" : "_ZTIRj"
    }
   ],
   "return_type" : "_ZTIv",
   "source_file" : "external/llvm/include/llvm/Support/SwapByteOrder.h",
   "template_args" : [ "_ZTIj" ]
  },
  {
   "function_name" : "llvm::sys::swapByteOrder",
   "linker_set_key" : "_ZN4llvm3sys13swapByteOrderItEEvRT_",
   "parameters" :
   [
    {
     "referenced_type" : "_ZTIRt"
    }
   ],
   "return_type" : "_ZTIv",
   "source_file" : "external/llvm/include/llvm/Support/SwapByteOrder.h",
   "template_args" : [ "_ZTIt" ]
  },
  {
   "function_name" : "llvm::sys::swapByteOrder",
   "linker_set_key" : "_ZN4llvm3sys13swapByteOrderIyEEvRT_",
   "parameters" :
   [
    {
     "referenced_type" : "_ZTIRy"
    }
   ],
   "return_type" : "_ZTIv",
   "source_file" : "external/llvm/include/llvm/Support/SwapByteOrder.h",
   "template_args" : [ "_ZTIy" ]
  },
  {
   "function_name" : "llvm::sys::getSwappedBytes",
   "linker_set_key" : "_ZN4llvm3sys15getSwappedBytesEa",
   "parameters" :
   [
    {
     "referenced_type" : "_ZTIa"
    }
   ],
   "return_type" : "_ZTIa",
   "source_file" : "external/llvm/include/llvm/Support/SwapByteOrder.h"
  },
  {
   "function_name" : "llvm::sys::getSwappedBytes",
   "linker_set_key" : "_ZN4llvm3sys15getSwappedBytesEc",
   "parameters" :
   [
    {
     "referenced_type" : "_ZTIc"
    }
   ],
   "return_type" : "_ZTIc",
   "source_file" : "external/llvm/include/llvm/Support/SwapByteOrder.h"
  },
  {
   "function_name" : "llvm::sys::getSwappedBytes",
   "linker_set_key" : "_ZN4llvm3sys15getSwappedBytesEd",
   "parameters" :
   [
    {
     "referenced_type" : "_ZTId"
    }
   ],
   "return_type" : "_ZTId",
   "source_file" : "external/llvm/include/llvm/Support/SwapByteOrder.h"
  },
  {
   "function_name" : "llvm::sys::getSwappedBytes",
   "linker_set_key" : "_ZN4llvm3sys15getSwappedBytesEf",
   "parameters" :
   [
    {
     "referenced_type" : "_ZTIf"
    }
   ],
   "return_type" : "_ZTIf",
   "source_file" : "external/llvm/include/llvm/Support/SwapByteOrder.h"
  },
  {
   "function_name" : "llvm::sys::getSwappedBytes",
   "linker_set_key" : "_ZN4llvm3sys15getSwappedBytesEh",
   "parameters" :
   [
    {
     "referenced_type" : "_ZTIh"
    }
   ],
   "return_type" : "_ZTIh",
   "source_file" : "external/llvm/include/llvm/Support/SwapByteOrder.h"
  },
  {
   "function_name" : "llvm::sys::getSwappedBytes",
   "linker_set_key" : "_ZN4llvm3sys15getSwappedBytesEi",
   "parameters" :
   [
    {
     "referenced_type" : "_ZTIi"
    }
   ],
   "return_type" : "_ZTIi",
   "source_file" : "external/llvm/include/llvm/Support/SwapByteOrder.h"
  },
  {
   "function_name" : "llvm::sys::getSwappedBytes",
   "linker_set_key" : "_ZN4llvm3sys15getSwappedBytesEj",
   "parameters" :
   [
    {
     "referenced_type" : "_ZTIj"
    }
   ],
   "return_type" : "_ZTIj",
   "source_file" : "external/llvm/include/llvm/Support/SwapByteOrder.h"
  },
  {
   "function_name" : "llvm::sys::getSwappedBytes",
   "linker_set_key" : "_ZN4llvm3sys15getSwappedBytesEl",
   "parameters" :
   [
    {
     "referenced_type" : "_ZTIl"
    }
   ],
   "return_type" : "_ZTIl",
   "source_file" : "external/llvm/include/llvm/Support/SwapByteOrder.h"
  },
  {
   "function_name" : "llvm::sys::getSwappedBytes",
   "linker_set_key" : "_ZN4llvm3sys15getSwappedBytesEm",
   "parameters" :
   [
    {
     "referenced_type" : "_ZTIm"
    }
   ],
   "return_type" : "_ZTIm",
   "source_file" : "external/llvm/include/llvm/Support/SwapByteOrder.h"
  },
  {
   "function_name" : "llvm::sys::getSwappedBytes",
   "linker_set_key" : "_ZN4llvm3sys15getSwappedBytesEs",
   "parameters" :
   [
    {
     "referenced_type" : "_ZTIs"
    }
   ],
   "return_type" : "_ZTIs",
   "source_file" : "external/llvm/include/llvm/Support/SwapByteOrder.h"
  },
  {
   "function_name" : "llvm::sys::getSwappedBytes",
   "linker_set_key" : "_ZN4llvm3sys15getSwappedBytesEt",
   "parameters" :
   [
    {
     "referenced_type" : "_ZTIt"
    }
   ],
   "return_type" : "_ZTIt",
   "source_file" : "external/llvm/include/llvm/Support/SwapByteOrder.h"
  },
  {
   "function_name" : "llvm::sys::getSwappedBytes",
   "linker_set_key" : "_ZN4llvm3sys15getSwappedBytesEx",
   "parameters" :
   [
    {
     "referenced_type" : "_ZTIx"
    }
   ],
   "return_type" : "_ZTIx",
   "source_file" : "external/llvm/include/llvm/Support/SwapByteOrder.h"
  },
  {
   "function_name" : "llvm::sys::getSwappedBytes",
   "linker_set_key" : "_ZN4llvm3sys15getSwappedBytesEy",
   "parameters" :
   [
    {
     "referenced_type" : "_ZTIy"
    }
   ],
   "return_type" : "_ZTIy",
   "source_file" : "external/llvm/include/llvm/Support/SwapByteOrder.h"
  },
  {
   "function_name" : "llvm::sys::SwapByteOrder_16",
   "linker_set_key" : "_ZN4llvm3sys16SwapByteOrder_16Et",
   "parameters" :
   [
    {
     "referenced_type" : "_ZTIt"
    }
   ],
   "return_type" : "_ZTIt",
   "source_file" : "external/llvm/include/llvm/Support/SwapByteOrder.h"
  },
  {
   "function_name" : "llvm::sys::SwapByteOrder_32",
   "linker_set_key" : "_ZN4llvm3sys16SwapByteOrder_32Ej",
   "parameters" :
   [
    {
     "referenced_type" : "_ZTIj"
    }
   ],
   "return_type" : "_ZTIj",
   "source_file" : "external/llvm/include/llvm/Support/SwapByteOrder.h"
  },
  {
   "function_name" : "llvm::sys::SwapByteOrder_64",
   "linker_set_key" : "_ZN4llvm3sys16SwapByteOrder_64Ey",
   "parameters" :
   [
    {
     "referenced_type" : "_ZTIy"
    }
   ],
   "return_type" : "_ZTIy",
   "source_file" : "external/llvm/include/llvm/Support/SwapByteOrder.h"
  },
  {
   "function_name" : "llvm::sys::OwningMemoryBlock::OwningMemoryBlock",
   "linker_set_key" : "_ZN4llvm3sys17OwningMemoryBlockC1ENS0_11MemoryBlockE",
   "parameters" :
   [
    {
     "is_this_ptr" : true,
     "referenced_type" : "_ZTIPN4llvm3sys17OwningMemoryBlockE"
    },
    {
     "referenced_type" : "_ZTIN4llvm3sys11MemoryBlockE"
    }
   ],
   "return_type" : "_ZTIv",
   "source_file" : "external/llvm/include/llvm/Support/Memory.h"
  },
  {
   "function_name" : "llvm::sys::OwningMemoryBlock::OwningMemoryBlock",
   "linker_set_key" : "_ZN4llvm3sys17OwningMemoryBlockC1EOS1_",
   "parameters" :
   [
    {
     "is_this_ptr" : true,
     "referenced_type" : "_ZTIPN4llvm3sys17OwningMemoryBlockE"
    },
    {
     "referenced_type" : "_ZTION4llvm3sys17OwningMemoryBlockE"
    }
   ],
   "return_type" : "_ZTIv",
   "source_file" : "external/llvm/include/llvm/Support/Memory.h"
  },
  {
   "function_name" : "llvm::sys::OwningMemoryBlock::OwningMemoryBlock",
   "linker_set_key" : "_ZN4llvm3sys17OwningMemoryBlockC1Ev",
   "parameters" :
   [
    {
     "is_this_ptr" : true,
     "referenced_type" : "_ZTIPN4llvm3sys17OwningMemoryBlockE"
    }
   ],
   "return_type" : "_ZTIv",
   "source_file" : "external/llvm/include/llvm/Support/Memory.h"
  },
  {
   "function_name" : "llvm::sys::OwningMemoryBlock::OwningMemoryBlock",
   "linker_set_key" : "_ZN4llvm3sys17OwningMemoryBlockC2ENS0_11MemoryBlockE",
   "parameters" :
   [
    {
     "is_this_ptr" : true,
     "referenced_type" : "_ZTIPN4llvm3sys17OwningMemoryBlockE"
    },
    {
     "referenced_type" : "_ZTIN4llvm3sys11MemoryBlockE"
    }
   ],
   "return_type" : "_ZTIv",
   "source_file" : "external/llvm/include/llvm/Support/Memory.h"
  },
  {
   "function_name" : "llvm::sys::OwningMemoryBlock::OwningMemoryBlock",
   "linker_set_key" : "_ZN4llvm3sys17OwningMemoryBlockC2EOS1_",
   "parameters" :
   [
    {
     "is_this_ptr" : true,
     "referenced_type" : "_ZTIPN4llvm3sys17OwningMemoryBlockE"
    },
    {
     "referenced_type" : "_ZTION4llvm3sys17OwningMemoryBlockE"
    }
   ],
   "return_type" : "_ZTIv",
   "source_file" : "external/llvm/include/llvm/Support/Memory.h"
  },
  {
   "function_name" : "llvm::sys::OwningMemoryBlock::OwningMemoryBlock",
   "linker_set_key" : "_ZN4llvm3sys17OwningMemoryBlockC2Ev",
   "parameters" :
   [
    {
     "is_this_ptr" : true,
     "referenced_type" : "_ZTIPN4llvm3sys17OwningMemoryBlockE"
    }
   ],
   "return_type" : "_ZTIv",
   "source_file" : "external/llvm/include/llvm/Support/Memory.h"
  },
  {
   "function_name" : "llvm::sys::OwningMemoryBlock::~OwningMemoryBlock",
   "linker_set_key" : "_ZN4llvm3sys17OwningMemoryBlockD1Ev",
   "parameters" :
   [
    {
     "is_this_ptr" : true,
     "referenced_type" : "_ZTIPN4llvm3sys17OwningMemoryBlockE"
    }
   ],
   "return_type" : "_ZTIv",
   "source_file" : "external/llvm/include/llvm/Support/Memory.h"
  },
  {
   "function_name" : "llvm::sys::OwningMemoryBlock::~OwningMemoryBlock",
   "linker_set_key" : "_ZN4llvm3sys17OwningMemoryBlockD2Ev",
   "parameters" :
   [
    {
     "is_this_ptr" : true,
     "referenced_type" : "_ZTIPN4llvm3sys17OwningMemoryBlockE"
    }
   ],
   "return_type" : "_ZTIv",
   "source_file" : "external/llvm/include/llvm/Support/Memory.h"
  },
  {
   "function_name" : "llvm::sys::OwningMemoryBlock::operator=",
   "linker_set_key" : "_ZN4llvm3sys17OwningMemoryBlockaSEOS1_",
   "parameters" :
   [
    {
     "is_this_ptr" : true,
     "referenced_type" : "_ZTIPN4llvm3sys17OwningMemoryBlockE"
    },
    {
     "referenced_type" : "_ZTION4llvm3sys17OwningMemoryBlockE"
    }
   ],
   "return_type" : "_ZTIRN4llvm3sys17OwningMemoryBlockE",
   "source_file" : "external/llvm/include/llvm/Support/Memory.h"
  },
  {
   "function_name" : "llvm::Log2",
   "linker_set_key" : "_ZN4llvm4Log2Ed",
   "parameters" :
   [
    {
     "referenced_type" : "_ZTId"
    }
   ],
   "return_type" : "_ZTId",
   "source_file" : "external/llvm/include/llvm/Support/MathExtras.h"
  },
  {
   "access" : "protected",
   "function_name" : "llvm::Type::setSubclassData",
   "linker_set_key" : "_ZN4llvm4Type15setSubclassDataEj",
   "parameters" :
   [
    {
     "is_this_ptr" : true,
     "referenced_type" : "_ZTIPN4llvm4TypeE"
    },
    {
     "referenced_type" : "_ZTIj"
    }
   ],
   "return_type" : "_ZTIv",
   "source_file" : "external/llvm/include/llvm/IR/Type.h"
  },
  {
   "access" : "protected",
   "function_name" : "llvm::Type::isSequentialType",
   "linker_set_key" : "_ZN4llvm4Type16isSequentialTypeENS0_6TypeIDE",
   "parameters" :
   [
    {
     "referenced_type" : "_ZTIN4llvm4Type6TypeIDE"
    }
   ],
   "return_type" : "_ZTIb",
   "source_file" : "external/llvm/include/llvm/IR/Type.h"
  },
  {
   "access" : "protected",
   "function_name" : "llvm::Type::Type",
   "linker_set_key" : "_ZN4llvm4TypeC1ERNS_11LLVMContextENS0_6TypeIDE",
   "parameters" :
   [
    {
     "is_this_ptr" : true,
     "referenced_type" : "_ZTIPN4llvm4TypeE"
    },
    {
     "referenced_type" : "_ZTIRN4llvm11LLVMContextE"
    },
    {
     "referenced_type" : "_ZTIN4llvm4Type6TypeIDE"
    }
   ],
   "return_type" : "_ZTIv",
   "source_file" : "external/llvm/include/llvm/IR/Type.h"
  },
  {
   "access" : "protected",
   "function_name" : "llvm::Type::Type",
   "linker_set_key" : "_ZN4llvm4TypeC2ERNS_11LLVMContextENS0_6TypeIDE",
   "parameters" :
   [
    {
     "is_this_ptr" : true,
     "referenced_type" : "_ZTIPN4llvm4TypeE"
    },
    {
     "referenced_type" : "_ZTIRN4llvm11LLVMContextE"
    },
    {
     "referenced_type" : "_ZTIN4llvm4Type6TypeIDE"
    }
   ],
   "return_type" : "_ZTIv",
   "source_file" : "external/llvm/include/llvm/IR/Type.h"
  },
  {
   "access" : "protected",
   "function_name" : "llvm::Type::~Type",
   "linker_set_key" : "_ZN4llvm4TypeD1Ev",
   "parameters" :
   [
    {
     "is_this_ptr" : true,
     "referenced_type" : "_ZTIPN4llvm4TypeE"
    }
   ],
   "return_type" : "_ZTIv",
   "source_file" : "external/llvm/include/llvm/IR/Type.h"
  },
  {
   "access" : "protected",
   "function_name" : "llvm::Type::~Type",
   "linker_set_key" : "_ZN4llvm4TypeD2Ev",
   "parameters" :
   [
    {
     "is_this_ptr" : true,
     "referenced_type" : "_ZTIPN4llvm4TypeE"
    }
   ],
   "return_type" : "_ZTIv",
   "source_file" : "external/llvm/include/llvm/IR/Type.h"
  },
  {
   "function_name" : "llvm::User::setOperand",
   "linker_set_key" : "_ZN4llvm4User10setOperandEjPNS_5ValueE",
   "parameters" :
   [
    {
     "is_this_ptr" : true,
     "referenced_type" : "_ZTIPN4llvm4UserE"
    },
    {
     "referenced_type" : "_ZTIj"
    },
    {
     "referenced_type" : "_ZTIPN4llvm5ValueE"
    }
   ],
   "return_type" : "_ZTIv",
   "source_file" : "external/llvm/include/llvm/IR/User.h"
  },
  {
   "function_name" : "llvm::User::value_op_end",
   "linker_set_key" : "_ZN4llvm4User12value_op_endEv",
   "parameters" :
   [
    {
     "is_this_ptr" : true,
     "referenced_type" : "_ZTIPN4llvm4UserE"
    }
   ],
   "return_type" : "_ZTIN4llvm4User17value_op_iteratorE",
   "source_file" : "external/llvm/include/llvm/IR/User.h"
  },
  {
   "function_name" : "llvm::User::getOperandUse",
   "linker_set_key" : "_ZN4llvm4User13getOperandUseEj",
   "parameters" :
   [
    {
     "is_this_ptr" : true,
     "referenced_type" : "_ZTIPN4llvm4UserE"
    },
    {
     "referenced_type" : "_ZTIj"
    }
   ],
   "return_type" : "_ZTIRN4llvm3UseE",
   "source_file" : "external/llvm/include/llvm/IR/User.h"
  },
  {
   "function_name" : "llvm::User::getOperandList",
   "linker_set_key" : "_ZN4llvm4User14getOperandListEv",
   "parameters" :
   [
    {
     "is_this_ptr" : true,
     "referenced_type" : "_ZTIPN4llvm4UserE"
    }
   ],
   "return_type" : "_ZTIPN4llvm3UseE",
   "source_file" : "external/llvm/include/llvm/IR/User.h"
  },
  {
   "function_name" : "llvm::User::operand_values",
   "linker_set_key" : "_ZN4llvm4User14operand_valuesEv",
   "parameters" :
   [
    {
     "is_this_ptr" : true,
     "referenced_type" : "_ZTIPN4llvm4UserE"
    }
   ],
   "return_type" : "_ZTIN4llvm14iterator_rangeINS_4User17value_op_iteratorEEE",
   "source_file" : "external/llvm/include/llvm/IR/User.h"
  },
  {
   "access" : "private",
   "function_name" : "llvm::User::setOperandList",
   "linker_set_key" : "_ZN4llvm4User14setOperandListEPNS_3UseE",
   "parameters" :
   [
    {
     "is_this_ptr" : true,
     "referenced_type" : "_ZTIPN4llvm4UserE"
    },
    {
     "referenced_type" : "_ZTIPN4llvm3UseE"
    }
   ],
   "return_type" : "_ZTIv",
   "source_file" : "external/llvm/include/llvm/IR/User.h"
  },
  {
   "function_name" : "llvm::User::value_op_begin",
   "linker_set_key" : "_ZN4llvm4User14value_op_beginEv",
   "parameters" :
   [
    {
     "is_this_ptr" : true,
     "referenced_type" : "_ZTIPN4llvm4UserE"
    }
   ],
   "return_type" : "_ZTIN4llvm4User17value_op_iteratorE",
   "source_file" : "external/llvm/include/llvm/IR/User.h"
  },
  {
   "function_name" : "llvm::User::dropAllReferences",
   "linker_set_key" : "_ZN4llvm4User17dropAllReferencesEv",
   "parameters" :
   [
    {
     "is_this_ptr" : true,
     "referenced_type" : "_ZTIPN4llvm4UserE"
    }
   ],
   "return_type" : "_ZTIv",
   "source_file" : "external/llvm/include/llvm/IR/User.h"
  },
  {
   "function_name" : "llvm::User::value_op_iterator::value_op_iterator",
   "linker_set_key" : "_ZN4llvm4User17value_op_iteratorC1EPNS_3UseE",
   "parameters" :
   [
    {
     "is_this_ptr" : true,
     "referenced_type" : "_ZTIPN4llvm4User17value_op_iteratorE"
    },
    {
     "default_arg" : true,
     "referenced_type" : "_ZTIPN4llvm3UseE"
    }
   ],
   "return_type" : "_ZTIv",
   "source_file" : "external/llvm/include/llvm/IR/User.h"
  },
  {
   "function_name" : "llvm::User::value_op_iterator::value_op_iterator",
   "linker_set_key" : "_ZN4llvm4User17value_op_iteratorC2EPNS_3UseE",
   "parameters" :
   [
    {
     "is_this_ptr" : true,
     "referenced_type" : "_ZTIPN4llvm4User17value_op_iteratorE"
    },
    {
     "default_arg" : true,
     "referenced_type" : "_ZTIPN4llvm3UseE"
    }
   ],
   "return_type" : "_ZTIv",
   "source_file" : "external/llvm/include/llvm/IR/User.h"
  },
  {
   "access" : "private",
   "function_name" : "llvm::User::getHungOffOperands",
   "linker_set_key" : "_ZN4llvm4User18getHungOffOperandsEv",
   "parameters" :
   [
    {
     "is_this_ptr" : true,
     "referenced_type" : "_ZTIPN4llvm4UserE"
    }
   ],
   "return_type" : "_ZTIRPN4llvm3UseE",
   "source_file" : "external/llvm/include/llvm/IR/User.h"
  },
  {
   "access" : "private",
   "function_name" : "llvm::User::getIntrusiveOperands",
   "linker_set_key" : "_ZN4llvm4User20getIntrusiveOperandsEv",
   "parameters" :
   [
    {
     "is_this_ptr" : true,
     "referenced_type" : "_ZTIPN4llvm4UserE"
    }
   ],
   "return_type" : "_ZTIPN4llvm3UseE",
   "source_file" : "external/llvm/include/llvm/IR/User.h"
  },
  {
   "function_name" : "llvm::User::setNumHungOffUseOperands",
   "linker_set_key" : "_ZN4llvm4User24setNumHungOffUseOperandsEj",
   "parameters" :
   [
    {
     "is_this_ptr" : true,
     "referenced_type" : "_ZTIPN4llvm4UserE"
    },
    {
     "referenced_type" : "_ZTIj"
    }
   ],
   "return_type" : "_ZTIv",
   "source_file" : "external/llvm/include/llvm/IR/User.h"
  },
  {
   "function_name" : "llvm::User::setGlobalVariableNumOperands",
   "linker_set_key" : "_ZN4llvm4User28setGlobalVariableNumOperandsEj",
   "parameters" :
   [
    {
     "is_this_ptr" : true,
     "referenced_type" : "_ZTIPN4llvm4UserE"
    },
    {
     "referenced_type" : "_ZTIj"
    }
   ],
   "return_type" : "_ZTIv",
   "source_file" : "external/llvm/include/llvm/IR/User.h"
  },
  {
   "function_name" : "llvm::User::op_end",
   "linker_set_key" : "_ZN4llvm4User6op_endEv",
   "parameters" :
   [
    {
     "is_this_ptr" : true,
     "referenced_type" : "_ZTIPN4llvm4UserE"
    }
   ],
   "return_type" : "_ZTIPN4llvm3UseE",
   "source_file" : "external/llvm/include/llvm/IR/User.h"
  },
  {
   "function_name" : "llvm::User::classof",
   "linker_set_key" : "_ZN4llvm4User7classofEPKNS_5ValueE",
   "parameters" :
   [
    {
     "referenced_type" : "_ZTIPKN4llvm5ValueE"
    }
   ],
   "return_type" : "_ZTIb",
   "source_file" : "external/llvm/include/llvm/IR/User.h"
  },
  {
   "function_name" : "llvm::User::op_begin",
   "linker_set_key" : "_ZN4llvm4User8op_beginEv",
   "parameters" :
   [
    {
     "is_this_ptr" : true,
     "referenced_type" : "_ZTIPN4llvm4UserE"
    }
   ],
   "return_type" : "_ZTIPN4llvm3UseE",
   "source_file" : "external/llvm/include/llvm/IR/User.h"
  },
  {
   "function_name" : "llvm::User::operands",
   "linker_set_key" : "_ZN4llvm4User8operandsEv",
   "parameters" :
   [
    {
     "is_this_ptr" : true,
     "referenced_type" : "_ZTIPN4llvm4UserE"
    }
   ],
   "return_type" : "_ZTIN4llvm14iterator_rangeIPNS_3UseEEE",
   "source_file" : "external/llvm/include/llvm/IR/User.h"
  },
  {
   "access" : "protected",
   "function_name" : "llvm::User::User",
   "linker_set_key" : "_ZN4llvm4UserC1EPNS_4TypeEjPNS_3UseEj",
   "parameters" :
   [
    {
     "is_this_ptr" : true,
     "referenced_type" : "_ZTIPN4llvm4UserE"
    },
    {
     "referenced_type" : "_ZTIPN4llvm4TypeE"
    },
    {
     "referenced_type" : "_ZTIj"
    },
    {
     "referenced_type" : "_ZTIPN4llvm3UseE"
    },
    {
     "referenced_type" : "_ZTIj"
    }
   ],
   "return_type" : "_ZTIv",
   "source_file" : "external/llvm/include/llvm/IR/User.h"
  },
  {
   "access" : "protected",
   "function_name" : "llvm::User::User",
   "linker_set_key" : "_ZN4llvm4UserC2EPNS_4TypeEjPNS_3UseEj",
   "parameters" :
   [
    {
     "is_this_ptr" : true,
     "referenced_type" : "_ZTIPN4llvm4UserE"
    },
    {
     "referenced_type" : "_ZTIPN4llvm4TypeE"
    },
    {
     "referenced_type" : "_ZTIj"
    },
    {
     "referenced_type" : "_ZTIPN4llvm3UseE"
    },
    {
     "referenced_type" : "_ZTIj"
    }
   ],
   "return_type" : "_ZTIv",
   "source_file" : "external/llvm/include/llvm/IR/User.h"
  },
  {
   "function_name" : "llvm::User::~User",
   "linker_set_key" : "_ZN4llvm4UserD0Ev",
   "parameters" :
   [
    {
     "is_this_ptr" : true,
     "referenced_type" : "_ZTIPN4llvm4UserE"
    }
   ],
   "return_type" : "_ZTIv",
   "source_file" : "external/llvm/include/llvm/IR/User.h"
  },
  {
   "function_name" : "llvm::User::~User",
   "linker_set_key" : "_ZN4llvm4UserD1Ev",
   "parameters" :
   [
    {
     "is_this_ptr" : true,
     "referenced_type" : "_ZTIPN4llvm4UserE"
    }
   ],
   "return_type" : "_ZTIv",
   "source_file" : "external/llvm/include/llvm/IR/User.h"
  },
  {
   "function_name" : "llvm::User::~User",
   "linker_set_key" : "_ZN4llvm4UserD2Ev",
   "parameters" :
   [
    {
     "is_this_ptr" : true,
     "referenced_type" : "_ZTIPN4llvm4UserE"
    }
   ],
   "return_type" : "_ZTIv",
   "source_file" : "external/llvm/include/llvm/IR/User.h"
  },
  {
   "function_name" : "llvm::User::operator delete",
   "linker_set_key" : "_ZN4llvm4UserdlEPvj",
   "parameters" :
   [
    {
     "referenced_type" : "_ZTIPv"
    },
    {
     "referenced_type" : "_ZTIj"
    }
   ],
   "return_type" : "_ZTIv",
   "source_file" : "external/llvm/include/llvm/IR/User.h"
  },
  {
   "function_name" : "llvm::User::operator delete",
   "linker_set_key" : "_ZN4llvm4UserdlEPvjb",
   "parameters" :
   [
    {
     "referenced_type" : "_ZTIPv"
    },
    {
     "referenced_type" : "_ZTIj"
    },
    {
     "referenced_type" : "_ZTIb"
    }
   ],
   "return_type" : "_ZTIv",
   "source_file" : "external/llvm/include/llvm/IR/User.h"
  },
  {
   "function_name" : "llvm::cast",
   "linker_set_key" : "_ZN4llvm4castINS_10StructTypeEKNS_4TypeEEENS_10cast_rettyIT_PT0_E8ret_typeES7_",
   "parameters" :
   [
    {
     "referenced_type" : "_ZTIPKN4llvm4TypeE"
    }
   ],
   "return_type" : "_ZTIPKN4llvm10StructTypeE",
   "source_file" : "external/llvm/include/llvm/Support/Casting.h",
   "template_args" : [ "_ZTIN4llvm10StructTypeE", "_ZTIKN4llvm4TypeE" ]
  },
  {
   "function_name" : "llvm::cast",
   "linker_set_key" : "_ZN4llvm4castINS_10VectorTypeEKNS_4TypeEEENS_10cast_rettyIT_PT0_E8ret_typeES7_",
   "parameters" :
   [
    {
     "referenced_type" : "_ZTIPKN4llvm4TypeE"
    }
   ],
   "return_type" : "_ZTIPKN4llvm10VectorTypeE",
   "source_file" : "external/llvm/include/llvm/Support/Casting.h",
   "template_args" : [ "_ZTIN4llvm10VectorTypeE", "_ZTIKN4llvm4TypeE" ]
  },
  {
   "function_name" : "llvm::cast",
   "linker_set_key" : "_ZN4llvm4castINS_11IntegerTypeEKNS_4TypeEEENS_10cast_rettyIT_PT0_E8ret_typeES7_",
   "parameters" :
   [
    {
     "referenced_type" : "_ZTIPKN4llvm4TypeE"
    }
   ],
   "return_type" : "_ZTIPKN4llvm11IntegerTypeE",
   "source_file" : "external/llvm/include/llvm/Support/Casting.h",
   "template_args" : [ "_ZTIN4llvm11IntegerTypeE", "_ZTIKN4llvm4TypeE" ]
  },
  {
   "function_name" : "llvm::cast",
   "linker_set_key" : "_ZN4llvm4castINS_11PointerTypeENS_4TypeEEENS_10cast_rettyIT_PT0_E8ret_typeES6_",
   "parameters" :
   [
    {
     "referenced_type" : "_ZTIPN4llvm4TypeE"
    }
   ],
   "return_type" : "_ZTIPN4llvm11PointerTypeE",
   "source_file" : "external/llvm/include/llvm/Support/Casting.h",
   "template_args" : [ "_ZTIN4llvm11PointerTypeE", "_ZTIN4llvm4TypeE" ]
  },
  {
   "function_name" : "llvm::cast",
   "linker_set_key" : "_ZN4llvm4castINS_12FunctionTypeEKNS_4TypeEEENS_10cast_rettyIT_PT0_E8ret_typeES7_",
   "parameters" :
   [
    {
     "referenced_type" : "_ZTIPKN4llvm4TypeE"
    }
   ],
   "return_type" : "_ZTIPKN4llvm12FunctionTypeE",
   "source_file" : "external/llvm/include/llvm/Support/Casting.h",
   "template_args" : [ "_ZTIN4llvm12FunctionTypeE", "_ZTIKN4llvm4TypeE" ]
  },
  {
   "function_name" : "llvm::cast",
   "linker_set_key" : "_ZN4llvm4castINS_8ConstantENS_5ValueEEENS_10cast_rettyIT_PT0_E8ret_typeES6_",
   "parameters" :
   [
    {
     "referenced_type" : "_ZTIPN4llvm5ValueE"
    }
   ],
   "return_type" : "_ZTIPN4llvm8ConstantE",
   "source_file" : "external/llvm/include/llvm/Support/Casting.h",
   "template_args" : [ "_ZTIN4llvm8ConstantE", "_ZTIN4llvm5ValueE" ]
  },
  {
   "function_name" : "llvm::cast",
   "linker_set_key" : "_ZN4llvm4castINS_9ArrayTypeEKNS_4TypeEEENS_10cast_rettyIT_PT0_E8ret_typeES7_",
   "parameters" :
   [
    {
     "referenced_type" : "_ZTIPKN4llvm4TypeE"
    }
   ],
   "return_type" : "_ZTIPKN4llvm9ArrayTypeE",
   "source_file" : "external/llvm/include/llvm/Support/Casting.h",
   "template_args" : [ "_ZTIN4llvm9ArrayTypeE", "_ZTIKN4llvm4TypeE" ]
  },
  {
   "function_name" : "llvm::wrap",
   "linker_set_key" : "_ZN4llvm4wrapEPKNS_3UseE",
   "parameters" :
   [
    {
     "referenced_type" : "_ZTIPKN4llvm3UseE"
    }
   ],
   "return_type" : "_ZTIP13LLVMOpaqueUse",
   "source_file" : "external/llvm/include/llvm/IR/Use.h"
  },
  {
   "function_name" : "llvm::wrap",
   "linker_set_key" : "_ZN4llvm4wrapEPKNS_4TypeE",
   "parameters" :
   [
    {
     "referenced_type" : "_ZTIPKN4llvm4TypeE"
    }
   ],
   "return_type" : "_ZTIP14LLVMOpaqueType",
   "source_file" : "external/llvm/include/llvm/IR/Type.h"
  },
  {
   "function_name" : "llvm::wrap",
   "linker_set_key" : "_ZN4llvm4wrapEPKNS_5ValueE",
   "parameters" :
   [
    {
     "referenced_type" : "_ZTIPKN4llvm5ValueE"
    }
   ],
   "return_type" : "_ZTIP15LLVMOpaqueValue",
   "source_file" : "external/llvm/include/llvm/IR/Value.h"
  },
  {
   "function_name" : "llvm::wrap",
   "linker_set_key" : "_ZN4llvm4wrapEPPKNS_5ValueE",
   "parameters" :
   [
    {
     "referenced_type" : "_ZTIPPKN4llvm5ValueE"
    }
   ],
   "return_type" : "_ZTIPP15LLVMOpaqueValue",
   "source_file" : "external/llvm/include/llvm/IR/Value.h"
  },
  {
   "function_name" : "llvm::wrap",
   "linker_set_key" : "_ZN4llvm4wrapEPPNS_4TypeE",
   "parameters" :
   [
    {
     "referenced_type" : "_ZTIPPN4llvm4TypeE"
    }
   ],
   "return_type" : "_ZTIPP14LLVMOpaqueType",
   "source_file" : "external/llvm/include/llvm/IR/Type.h"
  },
  {
   "function_name" : "llvm::APInt::getBitsSet",
   "linker_set_key" : "_ZN4llvm5APInt10getBitsSetEjjj",
   "parameters" :
   [
    {
     "referenced_type" : "_ZTIj"
    },
    {
     "referenced_type" : "_ZTIj"
    },
    {
     "referenced_type" : "_ZTIj"
    }
   ],
   "return_type" : "_ZTIN4llvm5APIntE",
   "source_file" : "external/llvm/include/llvm/ADT/APInt.h"
  },
  {
   "function_name" : "llvm::APInt::getSignBit",
   "linker_set_key" : "_ZN4llvm5APInt10getSignBitEj",
   "parameters" :
   [
    {
     "referenced_type" : "_ZTIj"
    }
   ],
   "return_type" : "_ZTIN4llvm5APIntE",
   "source_file" : "external/llvm/include/llvm/ADT/APInt.h"
  },
  {
   "function_name" : "llvm::APInt::setAllBits",
   "linker_set_key" : "_ZN4llvm5APInt10setAllBitsEv",
   "parameters" :
   [
    {
     "is_this_ptr" : true,
     "referenced_type" : "_ZTIPN4llvm5APIntE"
    }
   ],
   "return_type" : "_ZTIv",
   "source_file" : "external/llvm/include/llvm/ADT/APInt.h"
  },
  {
   "function_name" : "llvm::APInt::flipAllBits",
   "linker_set_key" : "_ZN4llvm5APInt11flipAllBitsEv",
   "parameters" :
   [
    {
     "is_this_ptr" : true,
     "referenced_type" : "_ZTIPN4llvm5APIntE"
    }
   ],
   "return_type" : "_ZTIv",
   "source_file" : "external/llvm/include/llvm/ADT/APInt.h"
  },
  {
   "function_name" : "llvm::APInt::floatToBits",
   "linker_set_key" : "_ZN4llvm5APInt11floatToBitsEf",
   "parameters" :
   [
    {
     "referenced_type" : "_ZTIf"
    }
   ],
   "return_type" : "_ZTIN4llvm5APIntE",
   "source_file" : "external/llvm/include/llvm/ADT/APInt.h"
  },
  {
   "function_name" : "llvm::APInt::getMaxValue",
   "linker_set_key" : "_ZN4llvm5APInt11getMaxValueEj",
   "parameters" :
   [
    {
     "referenced_type" : "_ZTIj"
    }
   ],
   "return_type" : "_ZTIN4llvm5APIntE",
   "source_file" : "external/llvm/include/llvm/ADT/APInt.h"
  },
  {
   "function_name" : "llvm::APInt::getMinValue",
   "linker_set_key" : "_ZN4llvm5APInt11getMinValueEj",
   "parameters" :
   [
    {
     "referenced_type" : "_ZTIj"
    }
   ],
   "return_type" : "_ZTIN4llvm5APIntE",
   "source_file" : "external/llvm/include/llvm/ADT/APInt.h"
  },
  {
   "function_name" : "llvm::APInt::getNumWords",
   "linker_set_key" : "_ZN4llvm5APInt11getNumWordsEj",
   "parameters" :
   [
    {
     "referenced_type" : "_ZTIj"
    }
   ],
   "return_type" : "_ZTIj",
   "source_file" : "external/llvm/include/llvm/ADT/APInt.h"
  },
  {
   "function_name" : "llvm::APInt::isSameValue",
   "linker_set_key" : "_ZN4llvm5APInt11isSameValueERKS0_S2_",
   "parameters" :
   [
    {
     "referenced_type" : "_ZTIRKN4llvm5APIntE"
    },
    {
     "referenced_type" : "_ZTIRKN4llvm5APIntE"
    }
   ],
   "return_type" : "_ZTIb",
   "source_file" : "external/llvm/include/llvm/ADT/APInt.h"
  },
  {
   "function_name" : "llvm::APInt::clearAllBits",
   "linker_set_key" : "_ZN4llvm5APInt12clearAllBitsEv",
   "parameters" :
   [
    {
     "is_this_ptr" : true,
     "referenced_type" : "_ZTIPN4llvm5APIntE"
    }
   ],
   "return_type" : "_ZTIv",
   "source_file" : "external/llvm/include/llvm/ADT/APInt.h"
  },
  {
   "function_name" : "llvm::APInt::doubleToBits",
   "linker_set_key" : "_ZN4llvm5APInt12doubleToBitsEd",
   "parameters" :
   [
    {
     "referenced_type" : "_ZTId"
    }
   ],
   "return_type" : "_ZTIN4llvm5APIntE",
   "source_file" : "external/llvm/include/llvm/ADT/APInt.h"
  },
  {
   "function_name" : "llvm::APInt::getNullValue",
   "linker_set_key" : "_ZN4llvm5APInt12getNullValueEj",
   "parameters" :
   [
    {
     "referenced_type" : "_ZTIj"
    }
   ],
   "return_type" : "_ZTIN4llvm5APIntE",
   "source_file" : "external/llvm/include/llvm/ADT/APInt.h"
  },
  {
   "function_name" : "llvm::APInt::getOneBitSet",
   "linker_set_key" : "_ZN4llvm5APInt12getOneBitSetEjj",
   "parameters" :
   [
    {
     "referenced_type" : "_ZTIj"
    },
    {
     "referenced_type" : "_ZTIj"
    }
   ],
   "return_type" : "_ZTIN4llvm5APIntE",
   "source_file" : "external/llvm/include/llvm/ADT/APInt.h"
  },
  {
   "function_name" : "llvm::APInt::getLowBitsSet",
   "linker_set_key" : "_ZN4llvm5APInt13getLowBitsSetEjj",
   "parameters" :
   [
    {
     "referenced_type" : "_ZTIj"
    },
    {
     "referenced_type" : "_ZTIj"
    }
   ],
   "return_type" : "_ZTIN4llvm5APIntE",
   "source_file" : "external/llvm/include/llvm/ADT/APInt.h"
  },
  {
   "function_name" : "llvm::APInt::getHighBitsSet",
   "linker_set_key" : "_ZN4llvm5APInt14getHighBitsSetEjj",
   "parameters" :
   [
    {
     "referenced_type" : "_ZTIj"
    },
    {
     "referenced_type" : "_ZTIj"
    }
   ],
   "return_type" : "_ZTIN4llvm5APIntE",
   "source_file" : "external/llvm/include/llvm/ADT/APInt.h"
  },
  {
   "access" : "private",
   "function_name" : "llvm::APInt::clearUnusedBits",
   "linker_set_key" : "_ZN4llvm5APInt15clearUnusedBitsEv",
   "parameters" :
   [
    {
     "is_this_ptr" : true,
     "referenced_type" : "_ZTIPN4llvm5APIntE"
    }
   ],
   "return_type" : "_ZTIRN4llvm5APIntE",
   "source_file" : "external/llvm/include/llvm/ADT/APInt.h"
  },
  {
   "function_name" : "llvm::APInt::getAllOnesValue",
   "linker_set_key" : "_ZN4llvm5APInt15getAllOnesValueEj",
   "parameters" :
   [
    {
     "referenced_type" : "_ZTIj"
    }
   ],
   "return_type" : "_ZTIN4llvm5APIntE",
   "source_file" : "external/llvm/include/llvm/ADT/APInt.h"
  },
  {
   "function_name" : "llvm::APInt::getSignedMaxValue",
   "linker_set_key" : "_ZN4llvm5APInt17getSignedMaxValueEj",
   "parameters" :
   [
    {
     "referenced_type" : "_ZTIj"
    }
   ],
   "return_type" : "_ZTIN4llvm5APIntE",
   "source_file" : "external/llvm/include/llvm/ADT/APInt.h"
  },
  {
   "function_name" : "llvm::APInt::getSignedMinValue",
   "linker_set_key" : "_ZN4llvm5APInt17getSignedMinValueEj",
   "parameters" :
   [
    {
     "referenced_type" : "_ZTIj"
    }
   ],
   "return_type" : "_ZTIN4llvm5APIntE",
   "source_file" : "external/llvm/include/llvm/ADT/APInt.h"
  },
  {
   "access" : "private",
   "function_name" : "llvm::APInt::maskBit",
   "linker_set_key" : "_ZN4llvm5APInt7maskBitEj",
   "parameters" :
   [
    {
     "referenced_type" : "_ZTIj"
    }
   ],
   "return_type" : "_ZTIy",
   "source_file" : "external/llvm/include/llvm/ADT/APInt.h"
  },
  {
   "function_name" : "llvm::APInt::getSplat",
   "linker_set_key" : "_ZN4llvm5APInt8getSplatEjRKS0_",
   "parameters" :
   [
    {
     "referenced_type" : "_ZTIj"
    },
    {
     "referenced_type" : "_ZTIRKN4llvm5APIntE"
    }
   ],
   "return_type" : "_ZTIN4llvm5APIntE",
   "source_file" : "external/llvm/include/llvm/ADT/APInt.h"
  },
  {
   "access" : "private",
   "function_name" : "llvm::APInt::whichBit",
   "linker_set_key" : "_ZN4llvm5APInt8whichBitEj",
   "parameters" :
   [
    {
     "referenced_type" : "_ZTIj"
    }
   ],
   "return_type" : "_ZTIj",
   "source_file" : "external/llvm/include/llvm/ADT/APInt.h"
  },
  {
   "access" : "private",
   "function_name" : "llvm::APInt::whichWord",
   "linker_set_key" : "_ZN4llvm5APInt9whichWordEj",
   "parameters" :
   [
    {
     "referenced_type" : "_ZTIj"
    }
   ],
   "return_type" : "_ZTIj",
   "source_file" : "external/llvm/include/llvm/ADT/APInt.h"
  },
  {
   "function_name" : "llvm::APInt::APInt",
   "linker_set_key" : "_ZN4llvm5APIntC1EOS0_",
   "parameters" :
   [
    {
     "is_this_ptr" : true,
     "referenced_type" : "_ZTIPN4llvm5APIntE"
    },
    {
     "referenced_type" : "_ZTION4llvm5APIntE"
    }
   ],
   "return_type" : "_ZTIv",
   "source_file" : "external/llvm/include/llvm/ADT/APInt.h"
  },
  {
   "access" : "private",
   "function_name" : "llvm::APInt::APInt",
   "linker_set_key" : "_ZN4llvm5APIntC1EPyj",
   "parameters" :
   [
    {
     "is_this_ptr" : true,
     "referenced_type" : "_ZTIPN4llvm5APIntE"
    },
    {
     "referenced_type" : "_ZTIPy"
    },
    {
     "referenced_type" : "_ZTIj"
    }
   ],
   "return_type" : "_ZTIv",
   "source_file" : "external/llvm/include/llvm/ADT/APInt.h"
  },
  {
   "function_name" : "llvm::APInt::APInt",
   "linker_set_key" : "_ZN4llvm5APIntC1ERKS0_",
   "parameters" :
   [
    {
     "is_this_ptr" : true,
     "referenced_type" : "_ZTIPN4llvm5APIntE"
    },
    {
     "referenced_type" : "_ZTIRKN4llvm5APIntE"
    }
   ],
   "return_type" : "_ZTIv",
   "source_file" : "external/llvm/include/llvm/ADT/APInt.h"
  },
  {
   "function_name" : "llvm::APInt::APInt",
   "linker_set_key" : "_ZN4llvm5APIntC1Ejyb",
   "parameters" :
   [
    {
     "is_this_ptr" : true,
     "referenced_type" : "_ZTIPN4llvm5APIntE"
    },
    {
     "referenced_type" : "_ZTIj"
    },
    {
     "referenced_type" : "_ZTIy"
    },
    {
     "default_arg" : true,
     "referenced_type" : "_ZTIb"
    }
   ],
   "return_type" : "_ZTIv",
   "source_file" : "external/llvm/include/llvm/ADT/APInt.h"
  },
  {
   "function_name" : "llvm::APInt::APInt",
   "linker_set_key" : "_ZN4llvm5APIntC1Ev",
   "parameters" :
   [
    {
     "is_this_ptr" : true,
     "referenced_type" : "_ZTIPN4llvm5APIntE"
    }
   ],
   "return_type" : "_ZTIv",
   "source_file" : "external/llvm/include/llvm/ADT/APInt.h"
  },
  {
   "function_name" : "llvm::APInt::APInt",
   "linker_set_key" : "_ZN4llvm5APIntC2EOS0_",
   "parameters" :
   [
    {
     "is_this_ptr" : true,
     "referenced_type" : "_ZTIPN4llvm5APIntE"
    },
    {
     "referenced_type" : "_ZTION4llvm5APIntE"
    }
   ],
   "return_type" : "_ZTIv",
   "source_file" : "external/llvm/include/llvm/ADT/APInt.h"
  },
  {
   "access" : "private",
   "function_name" : "llvm::APInt::APInt",
   "linker_set_key" : "_ZN4llvm5APIntC2EPyj",
   "parameters" :
   [
    {
     "is_this_ptr" : true,
     "referenced_type" : "_ZTIPN4llvm5APIntE"
    },
    {
     "referenced_type" : "_ZTIPy"
    },
    {
     "referenced_type" : "_ZTIj"
    }
   ],
   "return_type" : "_ZTIv",
   "source_file" : "external/llvm/include/llvm/ADT/APInt.h"
  },
  {
   "function_name" : "llvm::APInt::APInt",
   "linker_set_key" : "_ZN4llvm5APIntC2ERKS0_",
   "parameters" :
   [
    {
     "is_this_ptr" : true,
     "referenced_type" : "_ZTIPN4llvm5APIntE"
    },
    {
     "referenced_type" : "_ZTIRKN4llvm5APIntE"
    }
   ],
   "return_type" : "_ZTIv",
   "source_file" : "external/llvm/include/llvm/ADT/APInt.h"
  },
  {
   "function_name" : "llvm::APInt::APInt",
   "linker_set_key" : "_ZN4llvm5APIntC2Ejyb",
   "parameters" :
   [
    {
     "is_this_ptr" : true,
     "referenced_type" : "_ZTIPN4llvm5APIntE"
    },
    {
     "referenced_type" : "_ZTIj"
    },
    {
     "referenced_type" : "_ZTIy"
    },
    {
     "default_arg" : true,
     "referenced_type" : "_ZTIb"
    }
   ],
   "return_type" : "_ZTIv",
   "source_file" : "external/llvm/include/llvm/ADT/APInt.h"
  },
  {
   "function_name" : "llvm::APInt::APInt",
   "linker_set_key" : "_ZN4llvm5APIntC2Ev",
   "parameters" :
   [
    {
     "is_this_ptr" : true,
     "referenced_type" : "_ZTIPN4llvm5APIntE"
    }
   ],
   "return_type" : "_ZTIv",
   "source_file" : "external/llvm/include/llvm/ADT/APInt.h"
  },
  {
   "function_name" : "llvm::APInt::~APInt",
   "linker_set_key" : "_ZN4llvm5APIntD1Ev",
   "parameters" :
   [
    {
     "is_this_ptr" : true,
     "referenced_type" : "_ZTIPN4llvm5APIntE"
    }
   ],
   "return_type" : "_ZTIv",
   "source_file" : "external/llvm/include/llvm/ADT/APInt.h"
  },
  {
   "function_name" : "llvm::APInt::~APInt",
   "linker_set_key" : "_ZN4llvm5APIntD2Ev",
   "parameters" :
   [
    {
     "is_this_ptr" : true,
     "referenced_type" : "_ZTIPN4llvm5APIntE"
    }
   ],
   "return_type" : "_ZTIv",
   "source_file" : "external/llvm/include/llvm/ADT/APInt.h"
  },
  {
   "function_name" : "llvm::APInt::operator=",
   "linker_set_key" : "_ZN4llvm5APIntaSEOS0_",
   "parameters" :
   [
    {
     "is_this_ptr" : true,
     "referenced_type" : "_ZTIPN4llvm5APIntE"
    },
    {
     "referenced_type" : "_ZTION4llvm5APIntE"
    }
   ],
   "return_type" : "_ZTIRN4llvm5APIntE",
   "source_file" : "external/llvm/include/llvm/ADT/APInt.h"
  },
  {
   "function_name" : "llvm::APInt::operator=",
   "linker_set_key" : "_ZN4llvm5APIntaSERKS0_",
   "parameters" :
   [
    {
     "is_this_ptr" : true,
     "referenced_type" : "_ZTIPN4llvm5APIntE"
    },
    {
     "referenced_type" : "_ZTIRKN4llvm5APIntE"
    }
   ],
   "return_type" : "_ZTIRN4llvm5APIntE",
   "source_file" : "external/llvm/include/llvm/ADT/APInt.h"
  },
  {
   "function_name" : "llvm::APInt::operator<<=",
   "linker_set_key" : "_ZN4llvm5APIntlSEj",
   "parameters" :
   [
    {
     "is_this_ptr" : true,
     "referenced_type" : "_ZTIPN4llvm5APIntE"
    },
    {
     "referenced_type" : "_ZTIj"
    }
   ],
   "return_type" : "_ZTIRN4llvm5APIntE",
   "source_file" : "external/llvm/include/llvm/ADT/APInt.h"
  },
  {
   "function_name" : "llvm::APInt::operator--",
   "linker_set_key" : "_ZN4llvm5APIntmmEi",
   "parameters" :
   [
    {
     "is_this_ptr" : true,
     "referenced_type" : "_ZTIPN4llvm5APIntE"
    },
    {
     "referenced_type" : "_ZTIi"
    }
   ],
   "return_type" : "_ZTIKN4llvm5APIntE",
   "source_file" : "external/llvm/include/llvm/ADT/APInt.h"
  },
  {
   "function_name" : "llvm::APInt::operator|=",
   "linker_set_key" : "_ZN4llvm5APIntoREy",
   "parameters" :
   [
    {
     "is_this_ptr" : true,
     "referenced_type" : "_ZTIPN4llvm5APIntE"
    },
    {
     "referenced_type" : "_ZTIy"
    }
   ],
   "return_type" : "_ZTIRN4llvm5APIntE",
   "source_file" : "external/llvm/include/llvm/ADT/APInt.h"
  },
  {
   "function_name" : "llvm::APInt::operator++",
   "linker_set_key" : "_ZN4llvm5APIntppEi",
   "parameters" :
   [
    {
     "is_this_ptr" : true,
     "referenced_type" : "_ZTIPN4llvm5APIntE"
    },
    {
     "referenced_type" : "_ZTIi"
    }
   ],
   "return_type" : "_ZTIKN4llvm5APIntE",
   "source_file" : "external/llvm/include/llvm/ADT/APInt.h"
  },
  {
   "function_name" : "llvm::Hi_32",
   "linker_set_key" : "_ZN4llvm5Hi_32Ey",
   "parameters" :
   [
    {
     "referenced_type" : "_ZTIy"
    }
   ],
   "return_type" : "_ZTIj",
   "source_file" : "external/llvm/include/llvm/Support/MathExtras.h"
  },
  {
   "function_name" : "llvm::Lo_32",
   "linker_set_key" : "_ZN4llvm5Lo_32Ey",
   "parameters" :
   [
    {
     "referenced_type" : "_ZTIy"
    }
   ],
   "return_type" : "_ZTIj",
   "source_file" : "external/llvm/include/llvm/Support/MathExtras.h"
  },
  {
   "function_name" : "llvm::Value::mutateType",
   "linker_set_key" : "_ZN4llvm5Value10mutateTypeEPNS_4TypeE",
   "parameters" :
   [
    {
     "is_this_ptr" : true,
     "referenced_type" : "_ZTIPN4llvm5ValueE"
    },
    {
     "referenced_type" : "_ZTIPN4llvm4TypeE"
    }
   ],
   "return_type" : "_ZTIv",
   "source_file" : "external/llvm/include/llvm/IR/Value.h"
  },
  {
   "function_name" : "llvm::Value::user_begin",
   "linker_set_key" : "_ZN4llvm5Value10user_beginEv",
   "parameters" :
   [
    {
     "is_this_ptr" : true,
     "referenced_type" : "_ZTIPN4llvm5ValueE"
    }
   ],
   "return_type" : "_ZTIN4llvm5Value18user_iterator_implINS_4UserEEE",
   "source_file" : "external/llvm/include/llvm/IR/Value.h"
  },
  {
   "function_name" : "llvm::Value::materialized_uses",
   "linker_set_key" : "_ZN4llvm5Value17materialized_usesEv",
   "parameters" :
   [
    {
     "is_this_ptr" : true,
     "referenced_type" : "_ZTIPN4llvm5ValueE"
    }
   ],
   "return_type" : "_ZTIN4llvm14iterator_rangeINS_5Value17use_iterator_implINS_3UseEEEEE",
   "source_file" : "external/llvm/include/llvm/IR/Value.h"
  },
  {
   "access" : "private",
   "function_name" : "llvm::Value::use_iterator_impl<const llvm::Use>::use_iterator_impl",
   "linker_set_key" : "_ZN4llvm5Value17use_iterator_implIKNS_3UseEEC1EPS3_",
   "parameters" :
   [
    {
     "is_this_ptr" : true,
     "referenced_type" : "_ZTIPN4llvm5Value17use_iterator_implIKNS_3UseEEE"
    },
    {
     "referenced_type" : "_ZTIPKN4llvm3UseE"
    }
   ],
   "return_type" : "_ZTIv",
   "source_file" : "external/llvm/include/llvm/IR/Value.h"
  },
  {
   "function_name" : "llvm::Value::use_iterator_impl<const llvm::Use>::use_iterator_impl",
   "linker_set_key" : "_ZN4llvm5Value17use_iterator_implIKNS_3UseEEC1Ev",
   "parameters" :
   [
    {
     "is_this_ptr" : true,
     "referenced_type" : "_ZTIPN4llvm5Value17use_iterator_implIKNS_3UseEEE"
    }
   ],
   "return_type" : "_ZTIv",
   "source_file" : "external/llvm/include/llvm/IR/Value.h"
  },
  {
   "access" : "private",
   "function_name" : "llvm::Value::use_iterator_impl<const llvm::Use>::use_iterator_impl",
   "linker_set_key" : "_ZN4llvm5Value17use_iterator_implIKNS_3UseEEC2EPS3_",
   "parameters" :
   [
    {
     "is_this_ptr" : true,
     "referenced_type" : "_ZTIPN4llvm5Value17use_iterator_implIKNS_3UseEEE"
    },
    {
     "referenced_type" : "_ZTIPKN4llvm3UseE"
    }
   ],
   "return_type" : "_ZTIv",
   "source_file" : "external/llvm/include/llvm/IR/Value.h"
  },
  {
   "function_name" : "llvm::Value::use_iterator_impl<const llvm::Use>::use_iterator_impl",
   "linker_set_key" : "_ZN4llvm5Value17use_iterator_implIKNS_3UseEEC2Ev",
   "parameters" :
   [
    {
     "is_this_ptr" : true,
     "referenced_type" : "_ZTIPN4llvm5Value17use_iterator_implIKNS_3UseEEE"
    }
   ],
   "return_type" : "_ZTIv",
   "source_file" : "external/llvm/include/llvm/IR/Value.h"
  },
  {
   "function_name" : "llvm::Value::use_iterator_impl<const llvm::Use>::operator++",
   "linker_set_key" : "_ZN4llvm5Value17use_iterator_implIKNS_3UseEEppEv",
   "parameters" :
   [
    {
     "is_this_ptr" : true,
     "referenced_type" : "_ZTIPN4llvm5Value17use_iterator_implIKNS_3UseEEE"
    }
   ],
   "return_type" : "_ZTIRN4llvm5Value17use_iterator_implIKNS_3UseEEE",
   "source_file" : "external/llvm/include/llvm/IR/Value.h"
  },
  {
   "access" : "private",
   "function_name" : "llvm::Value::use_iterator_impl<llvm::Use>::use_iterator_impl",
   "linker_set_key" : "_ZN4llvm5Value17use_iterator_implINS_3UseEEC1EPS2_",
   "parameters" :
   [
    {
     "is_this_ptr" : true,
     "referenced_type" : "_ZTIPN4llvm5Value17use_iterator_implINS_3UseEEE"
    },
    {
     "referenced_type" : "_ZTIPN4llvm3UseE"
    }
   ],
   "return_type" : "_ZTIv",
   "source_file" : "external/llvm/include/llvm/IR/Value.h"
  },
  {
   "function_name" : "llvm::Value::use_iterator_impl<llvm::Use>::use_iterator_impl",
   "linker_set_key" : "_ZN4llvm5Value17use_iterator_implINS_3UseEEC1Ev",
   "parameters" :
   [
    {
     "is_this_ptr" : true,
     "referenced_type" : "_ZTIPN4llvm5Value17use_iterator_implINS_3UseEEE"
    }
   ],
   "return_type" : "_ZTIv",
   "source_file" : "external/llvm/include/llvm/IR/Value.h"
  },
  {
   "access" : "private",
   "function_name" : "llvm::Value::use_iterator_impl<llvm::Use>::use_iterator_impl",
   "linker_set_key" : "_ZN4llvm5Value17use_iterator_implINS_3UseEEC2EPS2_",
   "parameters" :
   [
    {
     "is_this_ptr" : true,
     "referenced_type" : "_ZTIPN4llvm5Value17use_iterator_implINS_3UseEEE"
    },
    {
     "referenced_type" : "_ZTIPN4llvm3UseE"
    }
   ],
   "return_type" : "_ZTIv",
   "source_file" : "external/llvm/include/llvm/IR/Value.h"
  },
  {
   "function_name" : "llvm::Value::use_iterator_impl<llvm::Use>::use_iterator_impl",
   "linker_set_key" : "_ZN4llvm5Value17use_iterator_implINS_3UseEEC2Ev",
   "parameters" :
   [
    {
     "is_this_ptr" : true,
     "referenced_type" : "_ZTIPN4llvm5Value17use_iterator_implINS_3UseEEE"
    }
   ],
   "return_type" : "_ZTIv",
   "source_file" : "external/llvm/include/llvm/IR/Value.h"
  },
  {
   "function_name" : "llvm::Value::materialized_users",
   "linker_set_key" : "_ZN4llvm5Value18materialized_usersEv",
   "parameters" :
   [
    {
     "is_this_ptr" : true,
     "referenced_type" : "_ZTIPN4llvm5ValueE"
    }
   ],
   "return_type" : "_ZTIN4llvm14iterator_rangeINS_5Value18user_iterator_implINS_4UserEEEEE",
   "source_file" : "external/llvm/include/llvm/IR/Value.h"
  },
  {
   "access" : "private",
   "function_name" : "llvm::Value::user_iterator_impl<const llvm::User>::user_iterator_impl",
   "linker_set_key" : "_ZN4llvm5Value18user_iterator_implIKNS_4UserEEC1EPNS_3UseE",
   "parameters" :
   [
    {
     "is_this_ptr" : true,
     "referenced_type" : "_ZTIPN4llvm5Value18user_iterator_implIKNS_4UserEEE"
    },
    {
     "referenced_type" : "_ZTIPN4llvm3UseE"
    }
   ],
   "return_type" : "_ZTIv",
   "source_file" : "external/llvm/include/llvm/IR/Value.h"
  },
  {
   "function_name" : "llvm::Value::user_iterator_impl<const llvm::User>::user_iterator_impl",
   "linker_set_key" : "_ZN4llvm5Value18user_iterator_implIKNS_4UserEEC1Ev",
   "parameters" :
   [
    {
     "is_this_ptr" : true,
     "referenced_type" : "_ZTIPN4llvm5Value18user_iterator_implIKNS_4UserEEE"
    }
   ],
   "return_type" : "_ZTIv",
   "source_file" : "external/llvm/include/llvm/IR/Value.h"
  },
  {
   "access" : "private",
   "function_name" : "llvm::Value::user_iterator_impl<const llvm::User>::user_iterator_impl",
   "linker_set_key" : "_ZN4llvm5Value18user_iterator_implIKNS_4UserEEC2EPNS_3UseE",
   "parameters" :
   [
    {
     "is_this_ptr" : true,
     "referenced_type" : "_ZTIPN4llvm5Value18user_iterator_implIKNS_4UserEEE"
    },
    {
     "referenced_type" : "_ZTIPN4llvm3UseE"
    }
   ],
   "return_type" : "_ZTIv",
   "source_file" : "external/llvm/include/llvm/IR/Value.h"
  },
  {
   "function_name" : "llvm::Value::user_iterator_impl<const llvm::User>::user_iterator_impl",
   "linker_set_key" : "_ZN4llvm5Value18user_iterator_implIKNS_4UserEEC2Ev",
   "parameters" :
   [
    {
     "is_this_ptr" : true,
     "referenced_type" : "_ZTIPN4llvm5Value18user_iterator_implIKNS_4UserEEE"
    }
   ],
   "return_type" : "_ZTIv",
   "source_file" : "external/llvm/include/llvm/IR/Value.h"
  },
  {
   "access" : "private",
   "function_name" : "llvm::Value::user_iterator_impl<llvm::User>::user_iterator_impl",
   "linker_set_key" : "_ZN4llvm5Value18user_iterator_implINS_4UserEEC1EPNS_3UseE",
   "parameters" :
   [
    {
     "is_this_ptr" : true,
     "referenced_type" : "_ZTIPN4llvm5Value18user_iterator_implINS_4UserEEE"
    },
    {
     "referenced_type" : "_ZTIPN4llvm3UseE"
    }
   ],
   "return_type" : "_ZTIv",
   "source_file" : "external/llvm/include/llvm/IR/Value.h"
  },
  {
   "function_name" : "llvm::Value::user_iterator_impl<llvm::User>::user_iterator_impl",
   "linker_set_key" : "_ZN4llvm5Value18user_iterator_implINS_4UserEEC1Ev",
   "parameters" :
   [
    {
     "is_this_ptr" : true,
     "referenced_type" : "_ZTIPN4llvm5Value18user_iterator_implINS_4UserEEE"
    }
   ],
   "return_type" : "_ZTIv",
   "source_file" : "external/llvm/include/llvm/IR/Value.h"
  },
  {
   "access" : "private",
   "function_name" : "llvm::Value::user_iterator_impl<llvm::User>::user_iterator_impl",
   "linker_set_key" : "_ZN4llvm5Value18user_iterator_implINS_4UserEEC2EPNS_3UseE",
   "parameters" :
   [
    {
     "is_this_ptr" : true,
     "referenced_type" : "_ZTIPN4llvm5Value18user_iterator_implINS_4UserEEE"
    },
    {
     "referenced_type" : "_ZTIPN4llvm3UseE"
    }
   ],
   "return_type" : "_ZTIv",
   "source_file" : "external/llvm/include/llvm/IR/Value.h"
  },
  {
   "function_name" : "llvm::Value::user_iterator_impl<llvm::User>::user_iterator_impl",
   "linker_set_key" : "_ZN4llvm5Value18user_iterator_implINS_4UserEEC2Ev",
   "parameters" :
   [
    {
     "is_this_ptr" : true,
     "referenced_type" : "_ZTIPN4llvm5Value18user_iterator_implINS_4UserEEE"
    }
   ],
   "return_type" : "_ZTIv",
   "source_file" : "external/llvm/include/llvm/IR/Value.h"
  },
  {
   "access" : "protected",
   "function_name" : "llvm::Value::setValueSubclassData",
   "linker_set_key" : "_ZN4llvm5Value20setValueSubclassDataEt",
   "parameters" :
   [
    {
     "is_this_ptr" : true,
     "referenced_type" : "_ZTIPN4llvm5ValueE"
    },
    {
     "referenced_type" : "_ZTIt"
    }
   ],
   "return_type" : "_ZTIv",
   "source_file" : "external/llvm/include/llvm/IR/Value.h"
  },
  {
   "function_name" : "llvm::Value::materialized_use_begin",
   "linker_set_key" : "_ZN4llvm5Value22materialized_use_beginEv",
   "parameters" :
   [
    {
     "is_this_ptr" : true,
     "referenced_type" : "_ZTIPN4llvm5ValueE"
    }
   ],
   "return_type" : "_ZTIN4llvm5Value17use_iterator_implINS_3UseEEE",
   "source_file" : "external/llvm/include/llvm/IR/Value.h"
  },
  {
   "function_name" : "llvm::Value::materialized_user_begin",
   "linker_set_key" : "_ZN4llvm5Value23materialized_user_beginEv",
   "parameters" :
   [
    {
     "is_this_ptr" : true,
     "referenced_type" : "_ZTIPN4llvm5ValueE"
    }
   ],
   "return_type" : "_ZTIN4llvm5Value18user_iterator_implINS_4UserEEE",
   "source_file" : "external/llvm/include/llvm/IR/Value.h"
  },
  {
   "function_name" : "llvm::Value::clearSubclassOptionalData",
   "linker_set_key" : "_ZN4llvm5Value25clearSubclassOptionalDataEv",
   "parameters" :
   [
    {
     "is_this_ptr" : true,
     "referenced_type" : "_ZTIPN4llvm5ValueE"
    }
   ],
   "return_type" : "_ZTIv",
   "source_file" : "external/llvm/include/llvm/IR/Value.h"
  },
  {
   "function_name" : "llvm::Value::intersectOptionalDataWith",
   "linker_set_key" : "_ZN4llvm5Value25intersectOptionalDataWithEPKS0_",
   "parameters" :
   [
    {
     "is_this_ptr" : true,
     "referenced_type" : "_ZTIPN4llvm5ValueE"
    },
    {
     "referenced_type" : "_ZTIPKN4llvm5ValueE"
    }
   ],
   "return_type" : "_ZTIv",
   "source_file" : "external/llvm/include/llvm/IR/Value.h"
  },
  {
   "function_name" : "llvm::Value::uses",
   "linker_set_key" : "_ZN4llvm5Value4usesEv",
   "parameters" :
   [
    {
     "is_this_ptr" : true,
     "referenced_type" : "_ZTIPN4llvm5ValueE"
    }
   ],
   "return_type" : "_ZTIN4llvm14iterator_rangeINS_5Value17use_iterator_implINS_3UseEEEEE",
   "source_file" : "external/llvm/include/llvm/IR/Value.h"
  },
  {
   "function_name" : "llvm::Value::users",
   "linker_set_key" : "_ZN4llvm5Value5usersEv",
   "parameters" :
   [
    {
     "is_this_ptr" : true,
     "referenced_type" : "_ZTIPN4llvm5ValueE"
    }
   ],
   "return_type" : "_ZTIN4llvm14iterator_rangeINS_5Value18user_iterator_implINS_4UserEEEEE",
   "source_file" : "external/llvm/include/llvm/IR/Value.h"
  },
  {
   "function_name" : "llvm::Value::addUse",
   "linker_set_key" : "_ZN4llvm5Value6addUseERNS_3UseE",
   "parameters" :
   [
    {
     "is_this_ptr" : true,
     "referenced_type" : "_ZTIPN4llvm5ValueE"
    },
    {
     "referenced_type" : "_ZTIRN4llvm3UseE"
    }
   ],
   "return_type" : "_ZTIv",
   "source_file" : "external/llvm/include/llvm/IR/Value.h"
  },
  {
   "function_name" : "llvm::Value::use_end",
   "linker_set_key" : "_ZN4llvm5Value7use_endEv",
   "parameters" :
   [
    {
     "is_this_ptr" : true,
     "referenced_type" : "_ZTIPN4llvm5ValueE"
    }
   ],
   "return_type" : "_ZTIN4llvm5Value17use_iterator_implINS_3UseEEE",
   "source_file" : "external/llvm/include/llvm/IR/Value.h"
  },
  {
   "function_name" : "llvm::Value::user_end",
   "linker_set_key" : "_ZN4llvm5Value8user_endEv",
   "parameters" :
   [
    {
     "is_this_ptr" : true,
     "referenced_type" : "_ZTIPN4llvm5ValueE"
    }
   ],
   "return_type" : "_ZTIN4llvm5Value18user_iterator_implINS_4UserEEE",
   "source_file" : "external/llvm/include/llvm/IR/Value.h"
  },
  {
   "function_name" : "llvm::Value::use_begin",
   "linker_set_key" : "_ZN4llvm5Value9use_beginEv",
   "parameters" :
   [
    {
     "is_this_ptr" : true,
     "referenced_type" : "_ZTIPN4llvm5ValueE"
    }
   ],
   "return_type" : "_ZTIN4llvm5Value17use_iterator_implINS_3UseEEE",
   "source_file" : "external/llvm/include/llvm/IR/Value.h"
  },
  {
   "function_name" : "llvm::Value::user_back",
   "linker_set_key" : "_ZN4llvm5Value9user_backEv",
   "parameters" :
   [
    {
     "is_this_ptr" : true,
     "referenced_type" : "_ZTIPN4llvm5ValueE"
    }
   ],
   "return_type" : "_ZTIPN4llvm4UserE",
   "source_file" : "external/llvm/include/llvm/IR/Value.h"
  },
  {
   "function_name" : "llvm::isInt",
   "linker_set_key" : "_ZN4llvm5isIntILj16EEEbx",
   "parameters" :
   [
    {
     "referenced_type" : "_ZTIx"
    }
   ],
   "return_type" : "_ZTIb",
   "source_file" : "external/llvm/include/llvm/Support/MathExtras.h"
  },
  {
   "function_name" : "llvm::isInt",
   "linker_set_key" : "_ZN4llvm5isIntILj32EEEbx",
   "parameters" :
   [
    {
     "referenced_type" : "_ZTIx"
    }
   ],
   "return_type" : "_ZTIb",
   "source_file" : "external/llvm/include/llvm/Support/MathExtras.h"
  },
  {
   "function_name" : "llvm::isInt",
   "linker_set_key" : "_ZN4llvm5isIntILj8EEEbx",
   "parameters" :
   [
    {
     "referenced_type" : "_ZTIx"
    }
   ],
   "return_type" : "_ZTIb",
   "source_file" : "external/llvm/include/llvm/Support/MathExtras.h"
  },
  {
   "function_name" : "llvm::detail::PopulationCounter<unsigned long long, 8>::count",
   "linker_set_key" : "_ZN4llvm6detail17PopulationCounterIyLj8EE5countEy",
   "parameters" :
   [
    {
     "referenced_type" : "_ZTIy"
    }
   ],
   "return_type" : "_ZTIj",
   "source_file" : "external/llvm/include/llvm/Support/MathExtras.h"
  },
  {
   "function_name" : "llvm::detail::LeadingZerosCounter<unsigned int, 4>::count",
   "linker_set_key" : "_ZN4llvm6detail19LeadingZerosCounterIjLj4EE5countEjNS_12ZeroBehaviorE",
   "parameters" :
   [
    {
     "referenced_type" : "_ZTIj"
    },
    {
     "referenced_type" : "_ZTIN4llvm12ZeroBehaviorE"
    }
   ],
   "return_type" : "_ZTIj",
   "source_file" : "external/llvm/include/llvm/Support/MathExtras.h"
  },
  {
   "function_name" : "llvm::detail::LeadingZerosCounter<unsigned long long, 8>::count",
   "linker_set_key" : "_ZN4llvm6detail19LeadingZerosCounterIyLj8EE5countEyNS_12ZeroBehaviorE",
   "parameters" :
   [
    {
     "referenced_type" : "_ZTIy"
    },
    {
     "referenced_type" : "_ZTIN4llvm12ZeroBehaviorE"
    }
   ],
   "return_type" : "_ZTIj",
   "source_file" : "external/llvm/include/llvm/Support/MathExtras.h"
  },
  {
   "function_name" : "llvm::detail::TrailingZerosCounter<unsigned long long, 8>::count",
   "linker_set_key" : "_ZN4llvm6detail20TrailingZerosCounterIyLj8EE5countEyNS_12ZeroBehaviorE",
   "parameters" :
   [
    {
     "referenced_type" : "_ZTIy"
    },
    {
     "referenced_type" : "_ZTIN4llvm12ZeroBehaviorE"
    }
   ],
   "return_type" : "_ZTIj",
   "source_file" : "external/llvm/include/llvm/Support/MathExtras.h"
  },
  {
   "function_name" : "llvm::isIntN",
   "linker_set_key" : "_ZN4llvm6isIntNEjx",
   "parameters" :
   [
    {
     "referenced_type" : "_ZTIj"
    },
    {
     "referenced_type" : "_ZTIx"
    }
   ],
   "return_type" : "_ZTIb",
   "source_file" : "external/llvm/include/llvm/Support/MathExtras.h"
  },
  {
   "function_name" : "llvm::isUInt",
   "linker_set_key" : "_ZN4llvm6isUIntILj16EEEby",
   "parameters" :
   [
    {
     "referenced_type" : "_ZTIy"
    }
   ],
   "return_type" : "_ZTIb",
   "source_file" : "external/llvm/include/llvm/Support/MathExtras.h"
  },
  {
   "function_name" : "llvm::isUInt",
   "linker_set_key" : "_ZN4llvm6isUIntILj32EEEby",
   "parameters" :
   [
    {
     "referenced_type" : "_ZTIy"
    }
   ],
   "return_type" : "_ZTIb",
   "source_file" : "external/llvm/include/llvm/Support/MathExtras.h"
  },
  {
   "function_name" : "llvm::isUInt",
   "linker_set_key" : "_ZN4llvm6isUIntILj8EEEby",
   "parameters" :
   [
    {
     "referenced_type" : "_ZTIy"
    }
   ],
   "return_type" : "_ZTIb",
   "source_file" : "external/llvm/include/llvm/Support/MathExtras.h"
  },
  {
   "function_name" : "llvm::maxnum",
   "linker_set_key" : "_ZN4llvm6maxnumERKNS_7APFloatES2_",
   "parameters" :
   [
    {
     "referenced_type" : "_ZTIRKN4llvm7APFloatE"
    },
    {
     "referenced_type" : "_ZTIRKN4llvm7APFloatE"
    }
   ],
   "return_type" : "_ZTIN4llvm7APFloatE",
   "source_file" : "external/llvm/include/llvm/ADT/APFloat.h"
  },
  {
   "function_name" : "llvm::minnum",
   "linker_set_key" : "_ZN4llvm6minnumERKNS_7APFloatES2_",
   "parameters" :
   [
    {
     "referenced_type" : "_ZTIRKN4llvm7APFloatE"
    },
    {
     "referenced_type" : "_ZTIRKN4llvm7APFloatE"
    }
   ],
   "return_type" : "_ZTIN4llvm7APFloatE",
   "source_file" : "external/llvm/include/llvm/ADT/APFloat.h"
  },
  {
   "function_name" : "llvm::unwrap",
   "linker_set_key" : "_ZN4llvm6unwrapEP13LLVMOpaqueUse",
   "parameters" :
   [
    {
     "referenced_type" : "_ZTIP13LLVMOpaqueUse"
    }
   ],
   "return_type" : "_ZTIPN4llvm3UseE",
   "source_file" : "external/llvm/include/llvm/IR/Use.h"
  },
  {
   "function_name" : "llvm::unwrap",
   "linker_set_key" : "_ZN4llvm6unwrapEP14LLVMOpaqueType",
   "parameters" :
   [
    {
     "referenced_type" : "_ZTIP14LLVMOpaqueType"
    }
   ],
   "return_type" : "_ZTIPN4llvm4TypeE",
   "source_file" : "external/llvm/include/llvm/IR/Type.h"
  },
  {
   "function_name" : "llvm::unwrap",
   "linker_set_key" : "_ZN4llvm6unwrapEP15LLVMOpaqueValue",
   "parameters" :
   [
    {
     "referenced_type" : "_ZTIP15LLVMOpaqueValue"
    }
   ],
   "return_type" : "_ZTIPN4llvm5ValueE",
   "source_file" : "external/llvm/include/llvm/IR/Value.h"
  },
  {
   "function_name" : "llvm::unwrap",
   "linker_set_key" : "_ZN4llvm6unwrapEPP14LLVMOpaqueType",
   "parameters" :
   [
    {
     "referenced_type" : "_ZTIPP14LLVMOpaqueType"
    }
   ],
   "return_type" : "_ZTIPPN4llvm4TypeE",
   "source_file" : "external/llvm/include/llvm/IR/Type.h"
  },
  {
   "function_name" : "llvm::unwrap",
   "linker_set_key" : "_ZN4llvm6unwrapEPP15LLVMOpaqueValue",
   "parameters" :
   [
    {
     "referenced_type" : "_ZTIPP15LLVMOpaqueValue"
    }
   ],
   "return_type" : "_ZTIPPN4llvm5ValueE",
   "source_file" : "external/llvm/include/llvm/IR/Value.h"
  },
  {
   "function_name" : "llvm::APFloat::getInf",
   "linker_set_key" : "_ZN4llvm7APFloat6getInfERKNS_12fltSemanticsEb",
   "parameters" :
   [
    {
     "referenced_type" : "_ZTIRKN4llvm12fltSemanticsE"
    },
    {
     "default_arg" : true,
     "referenced_type" : "_ZTIb"
    }
   ],
   "return_type" : "_ZTIN4llvm7APFloatE",
   "source_file" : "external/llvm/include/llvm/ADT/APFloat.h"
  },
  {
   "function_name" : "llvm::APFloat::getNaN",
   "linker_set_key" : "_ZN4llvm7APFloat6getNaNERKNS_12fltSemanticsEbj",
   "parameters" :
   [
    {
     "referenced_type" : "_ZTIRKN4llvm12fltSemanticsE"
    },
    {
     "default_arg" : true,
     "referenced_type" : "_ZTIb"
    },
    {
     "default_arg" : true,
     "referenced_type" : "_ZTIj"
    }
   ],
   "return_type" : "_ZTIN4llvm7APFloatE",
   "source_file" : "external/llvm/include/llvm/ADT/APFloat.h"
  },
  {
   "function_name" : "llvm::APFloat::getQNaN",
   "linker_set_key" : "_ZN4llvm7APFloat7getQNaNERKNS_12fltSemanticsEbPKNS_5APIntE",
   "parameters" :
   [
    {
     "referenced_type" : "_ZTIRKN4llvm12fltSemanticsE"
    },
    {
     "default_arg" : true,
     "referenced_type" : "_ZTIb"
    },
    {
     "default_arg" : true,
     "referenced_type" : "_ZTIPKN4llvm5APIntE"
    }
   ],
   "return_type" : "_ZTIN4llvm7APFloatE",
   "source_file" : "external/llvm/include/llvm/ADT/APFloat.h"
  },
  {
   "function_name" : "llvm::APFloat::getSNaN",
   "linker_set_key" : "_ZN4llvm7APFloat7getSNaNERKNS_12fltSemanticsEbPKNS_5APIntE",
   "parameters" :
   [
    {
     "referenced_type" : "_ZTIRKN4llvm12fltSemanticsE"
    },
    {
     "default_arg" : true,
     "referenced_type" : "_ZTIb"
    },
    {
     "default_arg" : true,
     "referenced_type" : "_ZTIPKN4llvm5APIntE"
    }
   ],
   "return_type" : "_ZTIN4llvm7APFloatE",
   "source_file" : "external/llvm/include/llvm/ADT/APFloat.h"
  },
  {
   "function_name" : "llvm::APFloat::getZero",
   "linker_set_key" : "_ZN4llvm7APFloat7getZeroERKNS_12fltSemanticsEb",
   "parameters" :
   [
    {
     "referenced_type" : "_ZTIRKN4llvm12fltSemanticsE"
    },
    {
     "default_arg" : true,
     "referenced_type" : "_ZTIb"
    }
   ],
   "return_type" : "_ZTIN4llvm7APFloatE",
   "source_file" : "external/llvm/include/llvm/ADT/APFloat.h"
  },
  {
   "function_name" : "llvm::APFloat::copySign",
   "linker_set_key" : "_ZN4llvm7APFloat8copySignES0_RKS0_",
   "parameters" :
   [
    {
     "referenced_type" : "_ZTIN4llvm7APFloatE"
    },
    {
     "referenced_type" : "_ZTIRKN4llvm7APFloatE"
    }
   ],
   "return_type" : "_ZTIN4llvm7APFloatE",
   "source_file" : "external/llvm/include/llvm/ADT/APFloat.h"
  },
  {
   "function_name" : "llvm::Log2_32",
   "linker_set_key" : "_ZN4llvm7Log2_32Ej",
   "parameters" :
   [
    {
     "referenced_type" : "_ZTIj"
    }
   ],
   "return_type" : "_ZTIj",
   "source_file" : "external/llvm/include/llvm/Support/MathExtras.h"
  },
  {
   "function_name" : "llvm::Log2_64",
   "linker_set_key" : "_ZN4llvm7Log2_64Ey",
   "parameters" :
   [
    {
     "referenced_type" : "_ZTIy"
    }
   ],
   "return_type" : "_ZTIj",
   "source_file" : "external/llvm/include/llvm/Support/MathExtras.h"
  },
  {
   "function_name" : "llvm::MD5Hash",
   "linker_set_key" : "_ZN4llvm7MD5HashENS_9StringRefE",
   "parameters" :
   [
    {
     "referenced_type" : "_ZTIN4llvm9StringRefE"
    }
   ],
   "return_type" : "_ZTIy",
   "source_file" : "external/llvm/include/llvm/Support/MD5.h"
  },
  {
   "function_name" : "llvm::Make_64",
   "linker_set_key" : "_ZN4llvm7Make_64Ejj",
   "parameters" :
   [
    {
     "referenced_type" : "_ZTIj"
    },
    {
     "referenced_type" : "_ZTIj"
    }
   ],
   "return_type" : "_ZTIy",
   "source_file" : "external/llvm/include/llvm/Support/MathExtras.h"
  },
  {
   "function_name" : "llvm::alignOf",
   "linker_set_key" : "_ZN4llvm7alignOfINS_14StringMapEntryIPNS_5ValueEEEEEjv",
   "return_type" : "_ZTIj",
   "source_file" : "external/llvm/include/llvm/Support/AlignOf.h",
   "template_args" : [ "_ZTIN4llvm14StringMapEntryIPNS_5ValueEEE" ]
  },
  {
   "function_name" : "llvm::alignTo",
   "linker_set_key" : "_ZN4llvm7alignToEyyy",
   "parameters" :
   [
    {
     "referenced_type" : "_ZTIy"
    },
    {
     "referenced_type" : "_ZTIy"
    },
    {
     "default_arg" : true,
     "referenced_type" : "_ZTIy"
    }
   ],
   "return_type" : "_ZTIy",
   "source_file" : "external/llvm/include/llvm/Support/MathExtras.h"
  },
  {
   "function_name" : "llvm::hashing::detail::hash_short",
   "linker_set_key" : "_ZN4llvm7hashing6detail10hash_shortEPKcjy",
   "parameters" :
   [
    {
     "referenced_type" : "_ZTIPKc"
    },
    {
     "referenced_type" : "_ZTIj"
    },
    {
     "referenced_type" : "_ZTIy"
    }
   ],
   "return_type" : "_ZTIy",
   "source_file" : "external/llvm/include/llvm/ADT/Hashing.h"
  },
  {
   "function_name" : "llvm::hashing::detail::hash_state::mix_32_bytes",
   "linker_set_key" : "_ZN4llvm7hashing6detail10hash_state12mix_32_bytesEPKcRyS5_",
   "parameters" :
   [
    {
     "referenced_type" : "_ZTIPKc"
    },
    {
     "referenced_type" : "_ZTIRy"
    },
    {
     "referenced_type" : "_ZTIRy"
    }
   ],
   "return_type" : "_ZTIv",
   "source_file" : "external/llvm/include/llvm/ADT/Hashing.h"
  },
  {
   "function_name" : "llvm::hashing::detail::hash_state::mix",
   "linker_set_key" : "_ZN4llvm7hashing6detail10hash_state3mixEPKc",
   "parameters" :
   [
    {
     "is_this_ptr" : true,
     "referenced_type" : "_ZTIPN4llvm7hashing6detail10hash_stateE"
    },
    {
     "referenced_type" : "_ZTIPKc"
    }
   ],
   "return_type" : "_ZTIv",
   "source_file" : "external/llvm/include/llvm/ADT/Hashing.h"
  },
  {
   "function_name" : "llvm::hashing::detail::hash_state::create",
   "linker_set_key" : "_ZN4llvm7hashing6detail10hash_state6createEPKcy",
   "parameters" :
   [
    {
     "referenced_type" : "_ZTIPKc"
    },
    {
     "referenced_type" : "_ZTIy"
    }
   ],
   "return_type" : "_ZTIN4llvm7hashing6detail10hash_stateE",
   "source_file" : "external/llvm/include/llvm/ADT/Hashing.h"
  },
  {
   "function_name" : "llvm::hashing::detail::hash_state::finalize",
   "linker_set_key" : "_ZN4llvm7hashing6detail10hash_state8finalizeEj",
   "parameters" :
   [
    {
     "is_this_ptr" : true,
     "referenced_type" : "_ZTIPN4llvm7hashing6detail10hash_stateE"
    },
    {
     "referenced_type" : "_ZTIj"
    }
   ],
   "return_type" : "_ZTIy",
   "source_file" : "external/llvm/include/llvm/ADT/Hashing.h"
  },
  {
   "function_name" : "llvm::hashing::detail::hash_16_bytes",
   "linker_set_key" : "_ZN4llvm7hashing6detail13hash_16_bytesEyy",
   "parameters" :
   [
    {
     "referenced_type" : "_ZTIy"
    },
    {
     "referenced_type" : "_ZTIy"
    }
   ],
   "return_type" : "_ZTIy",
   "source_file" : "external/llvm/include/llvm/ADT/Hashing.h"
  },
  {
   "function_name" : "llvm::hashing::detail::hash_1to3_bytes",
   "linker_set_key" : "_ZN4llvm7hashing6detail15hash_1to3_bytesEPKcjy",
   "parameters" :
   [
    {
     "referenced_type" : "_ZTIPKc"
    },
    {
     "referenced_type" : "_ZTIj"
    },
    {
     "referenced_type" : "_ZTIy"
    }
   ],
   "return_type" : "_ZTIy",
   "source_file" : "external/llvm/include/llvm/ADT/Hashing.h"
  },
  {
   "function_name" : "llvm::hashing::detail::hash_4to8_bytes",
   "linker_set_key" : "_ZN4llvm7hashing6detail15hash_4to8_bytesEPKcjy",
   "parameters" :
   [
    {
     "referenced_type" : "_ZTIPKc"
    },
    {
     "referenced_type" : "_ZTIj"
    },
    {
     "referenced_type" : "_ZTIy"
    }
   ],
   "return_type" : "_ZTIy",
   "source_file" : "external/llvm/include/llvm/ADT/Hashing.h"
  },
  {
   "function_name" : "llvm::hashing::detail::hash_9to16_bytes",
   "linker_set_key" : "_ZN4llvm7hashing6detail16hash_9to16_bytesEPKcjy",
   "parameters" :
   [
    {
     "referenced_type" : "_ZTIPKc"
    },
    {
     "referenced_type" : "_ZTIj"
    },
    {
     "referenced_type" : "_ZTIy"
    }
   ],
   "return_type" : "_ZTIy",
   "source_file" : "external/llvm/include/llvm/ADT/Hashing.h"
  },
  {
   "function_name" : "llvm::hashing::detail::hash_17to32_bytes",
   "linker_set_key" : "_ZN4llvm7hashing6detail17hash_17to32_bytesEPKcjy",
   "parameters" :
   [
    {
     "referenced_type" : "_ZTIPKc"
    },
    {
     "referenced_type" : "_ZTIj"
    },
    {
     "referenced_type" : "_ZTIy"
    }
   ],
   "return_type" : "_ZTIy",
   "source_file" : "external/llvm/include/llvm/ADT/Hashing.h"
  },
  {
   "function_name" : "llvm::hashing::detail::hash_33to64_bytes",
   "linker_set_key" : "_ZN4llvm7hashing6detail17hash_33to64_bytesEPKcjy",
   "parameters" :
   [
    {
     "referenced_type" : "_ZTIPKc"
    },
    {
     "referenced_type" : "_ZTIj"
    },
    {
     "referenced_type" : "_ZTIy"
    }
   ],
   "return_type" : "_ZTIy",
   "source_file" : "external/llvm/include/llvm/ADT/Hashing.h"
  },
  {
   "function_name" : "llvm::hashing::detail::get_execution_seed",
   "linker_set_key" : "_ZN4llvm7hashing6detail18get_execution_seedEv",
   "return_type" : "_ZTIj",
   "source_file" : "external/llvm/include/llvm/ADT/Hashing.h"
  },
  {
   "function_name" : "llvm::hashing::detail::hash_integer_value",
   "linker_set_key" : "_ZN4llvm7hashing6detail18hash_integer_valueEy",
   "parameters" :
   [
    {
     "referenced_type" : "_ZTIy"
    }
   ],
   "return_type" : "_ZTIN4llvm9hash_codeE",
   "source_file" : "external/llvm/include/llvm/ADT/Hashing.h"
  },
  {
   "function_name" : "llvm::hashing::detail::hash_combine_recursive_helper::combine",
   "linker_set_key" : "_ZN4llvm7hashing6detail29hash_combine_recursive_helper7combineEjPcS3_",
   "parameters" :
   [
    {
     "is_this_ptr" : true,
     "referenced_type" : "_ZTIPN4llvm7hashing6detail29hash_combine_recursive_helperE"
    },
    {
     "referenced_type" : "_ZTIj"
    },
    {
     "referenced_type" : "_ZTIPc"
    },
    {
     "referenced_type" : "_ZTIPc"
    }
   ],
   "return_type" : "_ZTIN4llvm9hash_codeE",
   "source_file" : "external/llvm/include/llvm/ADT/Hashing.h"
  },
  {
   "function_name" : "llvm::hashing::detail::hash_combine_recursive_helper::hash_combine_recursive_helper",
   "linker_set_key" : "_ZN4llvm7hashing6detail29hash_combine_recursive_helperC1Ev",
   "parameters" :
   [
    {
     "is_this_ptr" : true,
     "referenced_type" : "_ZTIPN4llvm7hashing6detail29hash_combine_recursive_helperE"
    }
   ],
   "return_type" : "_ZTIv",
   "source_file" : "external/llvm/include/llvm/ADT/Hashing.h"
  },
  {
   "function_name" : "llvm::hashing::detail::hash_combine_recursive_helper::hash_combine_recursive_helper",
   "linker_set_key" : "_ZN4llvm7hashing6detail29hash_combine_recursive_helperC2Ev",
   "parameters" :
   [
    {
     "is_this_ptr" : true,
     "referenced_type" : "_ZTIPN4llvm7hashing6detail29hash_combine_recursive_helperE"
    }
   ],
   "return_type" : "_ZTIv",
   "source_file" : "external/llvm/include/llvm/ADT/Hashing.h"
  },
  {
   "function_name" : "llvm::hashing::detail::rotate",
   "linker_set_key" : "_ZN4llvm7hashing6detail6rotateEyj",
   "parameters" :
   [
    {
     "referenced_type" : "_ZTIy"
    },
    {
     "referenced_type" : "_ZTIj"
    }
   ],
   "return_type" : "_ZTIy",
   "source_file" : "external/llvm/include/llvm/ADT/Hashing.h"
  },
  {
   "function_name" : "llvm::hashing::detail::fetch32",
   "linker_set_key" : "_ZN4llvm7hashing6detail7fetch32EPKc",
   "parameters" :
   [
    {
     "referenced_type" : "_ZTIPKc"
    }
   ],
   "return_type" : "_ZTIj",
   "source_file" : "external/llvm/include/llvm/ADT/Hashing.h"
  },
  {
   "function_name" : "llvm::hashing::detail::fetch64",
   "linker_set_key" : "_ZN4llvm7hashing6detail7fetch64EPKc",
   "parameters" :
   [
    {
     "referenced_type" : "_ZTIPKc"
    }
   ],
   "return_type" : "_ZTIy",
   "source_file" : "external/llvm/include/llvm/ADT/Hashing.h"
  },
  {
   "function_name" : "llvm::hashing::detail::shift_mix",
   "linker_set_key" : "_ZN4llvm7hashing6detail9shift_mixEy",
   "parameters" :
   [
    {
     "referenced_type" : "_ZTIy"
    }
   ],
   "return_type" : "_ZTIy",
   "source_file" : "external/llvm/include/llvm/ADT/Hashing.h"
  },
  {
   "function_name" : "llvm::isUIntN",
   "linker_set_key" : "_ZN4llvm7isUIntNEjy",
   "parameters" :
   [
    {
     "referenced_type" : "_ZTIj"
    },
    {
     "referenced_type" : "_ZTIy"
    }
   ],
   "return_type" : "_ZTIb",
   "source_file" : "external/llvm/include/llvm/Support/MathExtras.h"
  },
  {
   "function_name" : "llvm::maxIntN",
   "linker_set_key" : "_ZN4llvm7maxIntNEx",
   "parameters" :
   [
    {
     "referenced_type" : "_ZTIx"
    }
   ],
   "return_type" : "_ZTIx",
   "source_file" : "external/llvm/include/llvm/Support/MathExtras.h"
  },
  {
   "function_name" : "llvm::minIntN",
   "linker_set_key" : "_ZN4llvm7minIntNEx",
   "parameters" :
   [
    {
     "referenced_type" : "_ZTIx"
    }
   ],
   "return_type" : "_ZTIx",
   "source_file" : "external/llvm/include/llvm/Support/MathExtras.h"
  },
  {
   "function_name" : "llvm::support::detail::packed_endian_specific_integral<unsigned int, llvm::support::big, 1>::packed_endian_specific_integral",
   "linker_set_key" : "_ZN4llvm7support6detail31packed_endian_specific_integralIjLNS0_10endiannessE0ELj1EEC1Ev",
   "parameters" :
   [
    {
     "is_this_ptr" : true,
     "referenced_type" : "_ZTIPN4llvm7support6detail31packed_endian_specific_integralIjLNS0_10endiannessE0ELj1EEE"
    }
   ],
   "return_type" : "_ZTIv",
   "source_file" : "external/llvm/include/llvm/Support/Endian.h"
  },
  {
   "function_name" : "llvm::support::detail::packed_endian_specific_integral<unsigned int, llvm::support::big, 1>::packed_endian_specific_integral",
   "linker_set_key" : "_ZN4llvm7support6detail31packed_endian_specific_integralIjLNS0_10endiannessE0ELj1EEC2Ev",
   "parameters" :
   [
    {
     "is_this_ptr" : true,
     "referenced_type" : "_ZTIPN4llvm7support6detail31packed_endian_specific_integralIjLNS0_10endiannessE0ELj1EEE"
    }
   ],
   "return_type" : "_ZTIv",
   "source_file" : "external/llvm/include/llvm/Support/Endian.h"
  },
  {
   "function_name" : "llvm::support::detail::packed_endian_specific_integral<unsigned int, llvm::support::big, 1>::operator=",
   "linker_set_key" : "_ZN4llvm7support6detail31packed_endian_specific_integralIjLNS0_10endiannessE0ELj1EEaSEj",
   "parameters" :
   [
    {
     "is_this_ptr" : true,
     "referenced_type" : "_ZTIPN4llvm7support6detail31packed_endian_specific_integralIjLNS0_10endiannessE0ELj1EEE"
    },
    {
     "referenced_type" : "_ZTIj"
    }
   ],
   "return_type" : "_ZTIv",
   "source_file" : "external/llvm/include/llvm/Support/Endian.h"
  },
  {
   "function_name" : "llvm::support::detail::packed_endian_specific_integral<unsigned int, llvm::support::little, 1>::packed_endian_specific_integral",
   "linker_set_key" : "_ZN4llvm7support6detail31packed_endian_specific_integralIjLNS0_10endiannessE1ELj1EEC1Ev",
   "parameters" :
   [
    {
     "is_this_ptr" : true,
     "referenced_type" : "_ZTIPN4llvm7support6detail31packed_endian_specific_integralIjLNS0_10endiannessE1ELj1EEE"
    }
   ],
   "return_type" : "_ZTIv",
   "source_file" : "external/llvm/include/llvm/Support/Endian.h"
  },
  {
   "function_name" : "llvm::support::detail::packed_endian_specific_integral<unsigned int, llvm::support::little, 1>::packed_endian_specific_integral",
   "linker_set_key" : "_ZN4llvm7support6detail31packed_endian_specific_integralIjLNS0_10endiannessE1ELj1EEC2Ev",
   "parameters" :
   [
    {
     "is_this_ptr" : true,
     "referenced_type" : "_ZTIPN4llvm7support6detail31packed_endian_specific_integralIjLNS0_10endiannessE1ELj1EEE"
    }
   ],
   "return_type" : "_ZTIv",
   "source_file" : "external/llvm/include/llvm/Support/Endian.h"
  },
  {
   "function_name" : "llvm::support::detail::packed_endian_specific_integral<unsigned int, llvm::support::little, 1>::operator=",
   "linker_set_key" : "_ZN4llvm7support6detail31packed_endian_specific_integralIjLNS0_10endiannessE1ELj1EEaSEj",
   "parameters" :
   [
    {
     "is_this_ptr" : true,
     "referenced_type" : "_ZTIPN4llvm7support6detail31packed_endian_specific_integralIjLNS0_10endiannessE1ELj1EEE"
    },
    {
     "referenced_type" : "_ZTIj"
    }
   ],
   "return_type" : "_ZTIv",
   "source_file" : "external/llvm/include/llvm/Support/Endian.h"
  },
  {
   "function_name" : "llvm::support::detail::packed_endian_specific_integral<unsigned short, llvm::support::big, 1>::packed_endian_specific_integral",
   "linker_set_key" : "_ZN4llvm7support6detail31packed_endian_specific_integralItLNS0_10endiannessE0ELj1EEC1Ev",
   "parameters" :
   [
    {
     "is_this_ptr" : true,
     "referenced_type" : "_ZTIPN4llvm7support6detail31packed_endian_specific_integralItLNS0_10endiannessE0ELj1EEE"
    }
   ],
   "return_type" : "_ZTIv",
   "source_file" : "external/llvm/include/llvm/Support/Endian.h"
  },
  {
   "function_name" : "llvm::support::detail::packed_endian_specific_integral<unsigned short, llvm::support::big, 1>::packed_endian_specific_integral",
   "linker_set_key" : "_ZN4llvm7support6detail31packed_endian_specific_integralItLNS0_10endiannessE0ELj1EEC2Ev",
   "parameters" :
   [
    {
     "is_this_ptr" : true,
     "referenced_type" : "_ZTIPN4llvm7support6detail31packed_endian_specific_integralItLNS0_10endiannessE0ELj1EEE"
    }
   ],
   "return_type" : "_ZTIv",
   "source_file" : "external/llvm/include/llvm/Support/Endian.h"
  },
  {
   "function_name" : "llvm::support::detail::packed_endian_specific_integral<unsigned short, llvm::support::big, 1>::operator=",
   "linker_set_key" : "_ZN4llvm7support6detail31packed_endian_specific_integralItLNS0_10endiannessE0ELj1EEaSEt",
   "parameters" :
   [
    {
     "is_this_ptr" : true,
     "referenced_type" : "_ZTIPN4llvm7support6detail31packed_endian_specific_integralItLNS0_10endiannessE0ELj1EEE"
    },
    {
     "referenced_type" : "_ZTIt"
    }
   ],
   "return_type" : "_ZTIv",
   "source_file" : "external/llvm/include/llvm/Support/Endian.h"
  },
  {
   "function_name" : "llvm::support::detail::packed_endian_specific_integral<unsigned short, llvm::support::little, 1>::packed_endian_specific_integral",
   "linker_set_key" : "_ZN4llvm7support6detail31packed_endian_specific_integralItLNS0_10endiannessE1ELj1EEC1Ev",
   "parameters" :
   [
    {
     "is_this_ptr" : true,
     "referenced_type" : "_ZTIPN4llvm7support6detail31packed_endian_specific_integralItLNS0_10endiannessE1ELj1EEE"
    }
   ],
   "return_type" : "_ZTIv",
   "source_file" : "external/llvm/include/llvm/Support/Endian.h"
  },
  {
   "function_name" : "llvm::support::detail::packed_endian_specific_integral<unsigned short, llvm::support::little, 1>::packed_endian_specific_integral",
   "linker_set_key" : "_ZN4llvm7support6detail31packed_endian_specific_integralItLNS0_10endiannessE1ELj1EEC2Ev",
   "parameters" :
   [
    {
     "is_this_ptr" : true,
     "referenced_type" : "_ZTIPN4llvm7support6detail31packed_endian_specific_integralItLNS0_10endiannessE1ELj1EEE"
    }
   ],
   "return_type" : "_ZTIv",
   "source_file" : "external/llvm/include/llvm/Support/Endian.h"
  },
  {
   "function_name" : "llvm::support::detail::packed_endian_specific_integral<unsigned short, llvm::support::little, 1>::operator=",
   "linker_set_key" : "_ZN4llvm7support6detail31packed_endian_specific_integralItLNS0_10endiannessE1ELj1EEaSEt",
   "parameters" :
   [
    {
     "is_this_ptr" : true,
     "referenced_type" : "_ZTIPN4llvm7support6detail31packed_endian_specific_integralItLNS0_10endiannessE1ELj1EEE"
    },
    {
     "referenced_type" : "_ZTIt"
    }
   ],
   "return_type" : "_ZTIv",
   "source_file" : "external/llvm/include/llvm/Support/Endian.h"
  },
  {
   "function_name" : "llvm::support::detail::packed_endian_specific_integral<unsigned long long, llvm::support::big, 1>::packed_endian_specific_integral",
   "linker_set_key" : "_ZN4llvm7support6detail31packed_endian_specific_integralIyLNS0_10endiannessE0ELj1EEC1Ev",
   "parameters" :
   [
    {
     "is_this_ptr" : true,
     "referenced_type" : "_ZTIPN4llvm7support6detail31packed_endian_specific_integralIyLNS0_10endiannessE0ELj1EEE"
    }
   ],
   "return_type" : "_ZTIv",
   "source_file" : "external/llvm/include/llvm/Support/Endian.h"
  },
  {
   "function_name" : "llvm::support::detail::packed_endian_specific_integral<unsigned long long, llvm::support::big, 1>::packed_endian_specific_integral",
   "linker_set_key" : "_ZN4llvm7support6detail31packed_endian_specific_integralIyLNS0_10endiannessE0ELj1EEC2Ev",
   "parameters" :
   [
    {
     "is_this_ptr" : true,
     "referenced_type" : "_ZTIPN4llvm7support6detail31packed_endian_specific_integralIyLNS0_10endiannessE0ELj1EEE"
    }
   ],
   "return_type" : "_ZTIv",
   "source_file" : "external/llvm/include/llvm/Support/Endian.h"
  },
  {
   "function_name" : "llvm::support::detail::packed_endian_specific_integral<unsigned long long, llvm::support::big, 1>::operator=",
   "linker_set_key" : "_ZN4llvm7support6detail31packed_endian_specific_integralIyLNS0_10endiannessE0ELj1EEaSEy",
   "parameters" :
   [
    {
     "is_this_ptr" : true,
     "referenced_type" : "_ZTIPN4llvm7support6detail31packed_endian_specific_integralIyLNS0_10endiannessE0ELj1EEE"
    },
    {
     "referenced_type" : "_ZTIy"
    }
   ],
   "return_type" : "_ZTIv",
   "source_file" : "external/llvm/include/llvm/Support/Endian.h"
  },
  {
   "function_name" : "llvm::support::detail::packed_endian_specific_integral<unsigned long long, llvm::support::little, 1>::packed_endian_specific_integral",
   "linker_set_key" : "_ZN4llvm7support6detail31packed_endian_specific_integralIyLNS0_10endiannessE1ELj1EEC1Ev",
   "parameters" :
   [
    {
     "is_this_ptr" : true,
     "referenced_type" : "_ZTIPN4llvm7support6detail31packed_endian_specific_integralIyLNS0_10endiannessE1ELj1EEE"
    }
   ],
   "return_type" : "_ZTIv",
   "source_file" : "external/llvm/include/llvm/Support/Endian.h"
  },
  {
   "function_name" : "llvm::support::detail::packed_endian_specific_integral<unsigned long long, llvm::support::little, 1>::packed_endian_specific_integral",
   "linker_set_key" : "_ZN4llvm7support6detail31packed_endian_specific_integralIyLNS0_10endiannessE1ELj1EEC2Ev",
   "parameters" :
   [
    {
     "is_this_ptr" : true,
     "referenced_type" : "_ZTIPN4llvm7support6detail31packed_endian_specific_integralIyLNS0_10endiannessE1ELj1EEE"
    }
   ],
   "return_type" : "_ZTIv",
   "source_file" : "external/llvm/include/llvm/Support/Endian.h"
  },
  {
   "function_name" : "llvm::support::detail::packed_endian_specific_integral<unsigned long long, llvm::support::little, 1>::operator=",
   "linker_set_key" : "_ZN4llvm7support6detail31packed_endian_specific_integralIyLNS0_10endiannessE1ELj1EEaSEy",
   "parameters" :
   [
    {
     "is_this_ptr" : true,
     "referenced_type" : "_ZTIPN4llvm7support6detail31packed_endian_specific_integralIyLNS0_10endiannessE1ELj1EEE"
    },
    {
     "referenced_type" : "_ZTIy"
    }
   ],
   "return_type" : "_ZTIv",
   "source_file" : "external/llvm/include/llvm/Support/Endian.h"
  },
  {
   "function_name" : "llvm::support::endian::read",
   "linker_set_key" : "_ZN4llvm7support6endian4readIjLNS0_10endiannessE0EEET_PKv",
   "parameters" :
   [
    {
     "referenced_type" : "_ZTIPKv"
    }
   ],
   "return_type" : "_ZTIj",
   "source_file" : "external/llvm/include/llvm/Support/Endian.h",
   "template_args" : [ "_ZTIj" ]
  },
  {
   "function_name" : "llvm::support::endian::read",
   "linker_set_key" : "_ZN4llvm7support6endian4readIjLNS0_10endiannessE0ELj1EEET_PKv",
   "parameters" :
   [
    {
     "referenced_type" : "_ZTIPKv"
    }
   ],
   "return_type" : "_ZTIj",
   "source_file" : "external/llvm/include/llvm/Support/Endian.h",
   "template_args" : [ "_ZTIj" ]
  },
  {
   "function_name" : "llvm::support::endian::read",
   "linker_set_key" : "_ZN4llvm7support6endian4readIjLNS0_10endiannessE1EEET_PKv",
   "parameters" :
   [
    {
     "referenced_type" : "_ZTIPKv"
    }
   ],
   "return_type" : "_ZTIj",
   "source_file" : "external/llvm/include/llvm/Support/Endian.h",
   "template_args" : [ "_ZTIj" ]
  },
  {
   "function_name" : "llvm::support::endian::read",
   "linker_set_key" : "_ZN4llvm7support6endian4readIjLNS0_10endiannessE1ELj1EEET_PKv",
   "parameters" :
   [
    {
     "referenced_type" : "_ZTIPKv"
    }
   ],
   "return_type" : "_ZTIj",
   "source_file" : "external/llvm/include/llvm/Support/Endian.h",
   "template_args" : [ "_ZTIj" ]
  },
  {
   "function_name" : "llvm::support::endian::read",
   "linker_set_key" : "_ZN4llvm7support6endian4readItLNS0_10endiannessE0EEET_PKv",
   "parameters" :
   [
    {
     "referenced_type" : "_ZTIPKv"
    }
   ],
   "return_type" : "_ZTIt",
   "source_file" : "external/llvm/include/llvm/Support/Endian.h",
   "template_args" : [ "_ZTIt" ]
  },
  {
   "function_name" : "llvm::support::endian::read",
   "linker_set_key" : "_ZN4llvm7support6endian4readItLNS0_10endiannessE0ELj1EEET_PKv",
   "parameters" :
   [
    {
     "referenced_type" : "_ZTIPKv"
    }
   ],
   "return_type" : "_ZTIt",
   "source_file" : "external/llvm/include/llvm/Support/Endian.h",
   "template_args" : [ "_ZTIt" ]
  },
  {
   "function_name" : "llvm::support::endian::read",
   "linker_set_key" : "_ZN4llvm7support6endian4readItLNS0_10endiannessE1EEET_PKv",
   "parameters" :
   [
    {
     "referenced_type" : "_ZTIPKv"
    }
   ],
   "return_type" : "_ZTIt",
   "source_file" : "external/llvm/include/llvm/Support/Endian.h",
   "template_args" : [ "_ZTIt" ]
  },
  {
   "function_name" : "llvm::support::endian::read",
   "linker_set_key" : "_ZN4llvm7support6endian4readItLNS0_10endiannessE1ELj1EEET_PKv",
   "parameters" :
   [
    {
     "referenced_type" : "_ZTIPKv"
    }
   ],
   "return_type" : "_ZTIt",
   "source_file" : "external/llvm/include/llvm/Support/Endian.h",
   "template_args" : [ "_ZTIt" ]
  },
  {
   "function_name" : "llvm::support::endian::read",
   "linker_set_key" : "_ZN4llvm7support6endian4readIyLNS0_10endiannessE0EEET_PKv",
   "parameters" :
   [
    {
     "referenced_type" : "_ZTIPKv"
    }
   ],
   "return_type" : "_ZTIy",
   "source_file" : "external/llvm/include/llvm/Support/Endian.h",
   "template_args" : [ "_ZTIy" ]
  },
  {
   "function_name" : "llvm::support::endian::read",
   "linker_set_key" : "_ZN4llvm7support6endian4readIyLNS0_10endiannessE0ELj1EEET_PKv",
   "parameters" :
   [
    {
     "referenced_type" : "_ZTIPKv"
    }
   ],
   "return_type" : "_ZTIy",
   "source_file" : "external/llvm/include/llvm/Support/Endian.h",
   "template_args" : [ "_ZTIy" ]
  },
  {
   "function_name" : "llvm::support::endian::read",
   "linker_set_key" : "_ZN4llvm7support6endian4readIyLNS0_10endiannessE1EEET_PKv",
   "parameters" :
   [
    {
     "referenced_type" : "_ZTIPKv"
    }
   ],
   "return_type" : "_ZTIy",
   "source_file" : "external/llvm/include/llvm/Support/Endian.h",
   "template_args" : [ "_ZTIy" ]
  },
  {
   "function_name" : "llvm::support::endian::read",
   "linker_set_key" : "_ZN4llvm7support6endian4readIyLNS0_10endiannessE1ELj1EEET_PKv",
   "parameters" :
   [
    {
     "referenced_type" : "_ZTIPKv"
    }
   ],
   "return_type" : "_ZTIy",
   "source_file" : "external/llvm/include/llvm/Support/Endian.h",
   "template_args" : [ "_ZTIy" ]
  },
  {
   "function_name" : "llvm::support::endian::write",
   "linker_set_key" : "_ZN4llvm7support6endian5writeIjLNS0_10endiannessE0EEEvPvT_",
   "parameters" :
   [
    {
     "referenced_type" : "_ZTIPv"
    },
    {
     "referenced_type" : "_ZTIj"
    }
   ],
   "return_type" : "_ZTIv",
   "source_file" : "external/llvm/include/llvm/Support/Endian.h",
   "template_args" : [ "_ZTIj" ]
  },
  {
   "function_name" : "llvm::support::endian::write",
   "linker_set_key" : "_ZN4llvm7support6endian5writeIjLNS0_10endiannessE0ELj1EEEvPvT_",
   "parameters" :
   [
    {
     "referenced_type" : "_ZTIPv"
    },
    {
     "referenced_type" : "_ZTIj"
    }
   ],
   "return_type" : "_ZTIv",
   "source_file" : "external/llvm/include/llvm/Support/Endian.h",
   "template_args" : [ "_ZTIj" ]
  },
  {
   "function_name" : "llvm::support::endian::write",
   "linker_set_key" : "_ZN4llvm7support6endian5writeIjLNS0_10endiannessE1EEEvPvT_",
   "parameters" :
   [
    {
     "referenced_type" : "_ZTIPv"
    },
    {
     "referenced_type" : "_ZTIj"
    }
   ],
   "return_type" : "_ZTIv",
   "source_file" : "external/llvm/include/llvm/Support/Endian.h",
   "template_args" : [ "_ZTIj" ]
  },
  {
   "function_name" : "llvm::support::endian::write",
   "linker_set_key" : "_ZN4llvm7support6endian5writeIjLNS0_10endiannessE1ELj1EEEvPvT_",
   "parameters" :
   [
    {
     "referenced_type" : "_ZTIPv"
    },
    {
     "referenced_type" : "_ZTIj"
    }
   ],
   "return_type" : "_ZTIv",
   "source_file" : "external/llvm/include/llvm/Support/Endian.h",
   "template_args" : [ "_ZTIj" ]
  },
  {
   "function_name" : "llvm::support::endian::write",
   "linker_set_key" : "_ZN4llvm7support6endian5writeItLNS0_10endiannessE0EEEvPvT_",
   "parameters" :
   [
    {
     "referenced_type" : "_ZTIPv"
    },
    {
     "referenced_type" : "_ZTIt"
    }
   ],
   "return_type" : "_ZTIv",
   "source_file" : "external/llvm/include/llvm/Support/Endian.h",
   "template_args" : [ "_ZTIt" ]
  },
  {
   "function_name" : "llvm::support::endian::write",
   "linker_set_key" : "_ZN4llvm7support6endian5writeItLNS0_10endiannessE0ELj1EEEvPvT_",
   "parameters" :
   [
    {
     "referenced_type" : "_ZTIPv"
    },
    {
     "referenced_type" : "_ZTIt"
    }
   ],
   "return_type" : "_ZTIv",
   "source_file" : "external/llvm/include/llvm/Support/Endian.h",
   "template_args" : [ "_ZTIt" ]
  },
  {
   "function_name" : "llvm::support::endian::write",
   "linker_set_key" : "_ZN4llvm7support6endian5writeItLNS0_10endiannessE1EEEvPvT_",
   "parameters" :
   [
    {
     "referenced_type" : "_ZTIPv"
    },
    {
     "referenced_type" : "_ZTIt"
    }
   ],
   "return_type" : "_ZTIv",
   "source_file" : "external/llvm/include/llvm/Support/Endian.h",
   "template_args" : [ "_ZTIt" ]
  },
  {
   "function_name" : "llvm::support::endian::write",
   "linker_set_key" : "_ZN4llvm7support6endian5writeItLNS0_10endiannessE1ELj1EEEvPvT_",
   "parameters" :
   [
    {
     "referenced_type" : "_ZTIPv"
    },
    {
     "referenced_type" : "_ZTIt"
    }
   ],
   "return_type" : "_ZTIv",
   "source_file" : "external/llvm/include/llvm/Support/Endian.h",
   "template_args" : [ "_ZTIt" ]
  },
  {
   "function_name" : "llvm::support::endian::write",
   "linker_set_key" : "_ZN4llvm7support6endian5writeIyLNS0_10endiannessE0EEEvPvT_",
   "parameters" :
   [
    {
     "referenced_type" : "_ZTIPv"
    },
    {
     "referenced_type" : "_ZTIy"
    }
   ],
   "return_type" : "_ZTIv",
   "source_file" : "external/llvm/include/llvm/Support/Endian.h",
   "template_args" : [ "_ZTIy" ]
  },
  {
   "function_name" : "llvm::support::endian::write",
   "linker_set_key" : "_ZN4llvm7support6endian5writeIyLNS0_10endiannessE0ELj1EEEvPvT_",
   "parameters" :
   [
    {
     "referenced_type" : "_ZTIPv"
    },
    {
     "referenced_type" : "_ZTIy"
    }
   ],
   "return_type" : "_ZTIv",
   "source_file" : "external/llvm/include/llvm/Support/Endian.h",
   "template_args" : [ "_ZTIy" ]
  },
  {
   "function_name" : "llvm::support::endian::write",
   "linker_set_key" : "_ZN4llvm7support6endian5writeIyLNS0_10endiannessE1EEEvPvT_",
   "parameters" :
   [
    {
     "referenced_type" : "_ZTIPv"
    },
    {
     "referenced_type" : "_ZTIy"
    }
   ],
   "return_type" : "_ZTIv",
   "source_file" : "external/llvm/include/llvm/Support/Endian.h",
   "template_args" : [ "_ZTIy" ]
  },
  {
   "function_name" : "llvm::support::endian::write",
   "linker_set_key" : "_ZN4llvm7support6endian5writeIyLNS0_10endiannessE1ELj1EEEvPvT_",
   "parameters" :
   [
    {
     "referenced_type" : "_ZTIPv"
    },
    {
     "referenced_type" : "_ZTIy"
    }
   ],
   "return_type" : "_ZTIv",
   "source_file" : "external/llvm/include/llvm/Support/Endian.h",
   "template_args" : [ "_ZTIy" ]
  },
  {
   "function_name" : "llvm::support::endian::read16",
   "linker_set_key" : "_ZN4llvm7support6endian6read16ILNS0_10endiannessE0EEEtPKv",
   "parameters" :
   [
    {
     "referenced_type" : "_ZTIPKv"
    }
   ],
   "return_type" : "_ZTIt",
   "source_file" : "external/llvm/include/llvm/Support/Endian.h"
  },
  {
   "function_name" : "llvm::support::endian::read16",
   "linker_set_key" : "_ZN4llvm7support6endian6read16ILNS0_10endiannessE1EEEtPKv",
   "parameters" :
   [
    {
     "referenced_type" : "_ZTIPKv"
    }
   ],
   "return_type" : "_ZTIt",
   "source_file" : "external/llvm/include/llvm/Support/Endian.h"
  },
  {
   "function_name" : "llvm::support::endian::read32",
   "linker_set_key" : "_ZN4llvm7support6endian6read32ILNS0_10endiannessE0EEEjPKv",
   "parameters" :
   [
    {
     "referenced_type" : "_ZTIPKv"
    }
   ],
   "return_type" : "_ZTIj",
   "source_file" : "external/llvm/include/llvm/Support/Endian.h"
  },
  {
   "function_name" : "llvm::support::endian::read32",
   "linker_set_key" : "_ZN4llvm7support6endian6read32ILNS0_10endiannessE1EEEjPKv",
   "parameters" :
   [
    {
     "referenced_type" : "_ZTIPKv"
    }
   ],
   "return_type" : "_ZTIj",
   "source_file" : "external/llvm/include/llvm/Support/Endian.h"
  },
  {
   "function_name" : "llvm::support::endian::read64",
   "linker_set_key" : "_ZN4llvm7support6endian6read64ILNS0_10endiannessE0EEEyPKv",
   "parameters" :
   [
    {
     "referenced_type" : "_ZTIPKv"
    }
   ],
   "return_type" : "_ZTIy",
   "source_file" : "external/llvm/include/llvm/Support/Endian.h"
  },
  {
   "function_name" : "llvm::support::endian::read64",
   "linker_set_key" : "_ZN4llvm7support6endian6read64ILNS0_10endiannessE1EEEyPKv",
   "parameters" :
   [
    {
     "referenced_type" : "_ZTIPKv"
    }
   ],
   "return_type" : "_ZTIy",
   "source_file" : "external/llvm/include/llvm/Support/Endian.h"
  },
  {
   "function_name" : "llvm::support::endian::write16",
   "linker_set_key" : "_ZN4llvm7support6endian7write16ILNS0_10endiannessE0EEEvPvt",
   "parameters" :
   [
    {
     "referenced_type" : "_ZTIPv"
    },
    {
     "referenced_type" : "_ZTIt"
    }
   ],
   "return_type" : "_ZTIv",
   "source_file" : "external/llvm/include/llvm/Support/Endian.h"
  },
  {
   "function_name" : "llvm::support::endian::write16",
   "linker_set_key" : "_ZN4llvm7support6endian7write16ILNS0_10endiannessE1EEEvPvt",
   "parameters" :
   [
    {
     "referenced_type" : "_ZTIPv"
    },
    {
     "referenced_type" : "_ZTIt"
    }
   ],
   "return_type" : "_ZTIv",
   "source_file" : "external/llvm/include/llvm/Support/Endian.h"
  },
  {
   "function_name" : "llvm::support::endian::write32",
   "linker_set_key" : "_ZN4llvm7support6endian7write32ILNS0_10endiannessE0EEEvPvj",
   "parameters" :
   [
    {
     "referenced_type" : "_ZTIPv"
    },
    {
     "referenced_type" : "_ZTIj"
    }
   ],
   "return_type" : "_ZTIv",
   "source_file" : "external/llvm/include/llvm/Support/Endian.h"
  },
  {
   "function_name" : "llvm::support::endian::write32",
   "linker_set_key" : "_ZN4llvm7support6endian7write32ILNS0_10endiannessE1EEEvPvj",
   "parameters" :
   [
    {
     "referenced_type" : "_ZTIPv"
    },
    {
     "referenced_type" : "_ZTIj"
    }
   ],
   "return_type" : "_ZTIv",
   "source_file" : "external/llvm/include/llvm/Support/Endian.h"
  },
  {
   "function_name" : "llvm::support::endian::write64",
   "linker_set_key" : "_ZN4llvm7support6endian7write64ILNS0_10endiannessE0EEEvPvy",
   "parameters" :
   [
    {
     "referenced_type" : "_ZTIPv"
    },
    {
     "referenced_type" : "_ZTIy"
    }
   ],
   "return_type" : "_ZTIv",
   "source_file" : "external/llvm/include/llvm/Support/Endian.h"
  },
  {
   "function_name" : "llvm::support::endian::write64",
   "linker_set_key" : "_ZN4llvm7support6endian7write64ILNS0_10endiannessE1EEEvPvy",
   "parameters" :
   [
    {
     "referenced_type" : "_ZTIPv"
    },
    {
     "referenced_type" : "_ZTIy"
    }
   ],
   "return_type" : "_ZTIv",
   "source_file" : "external/llvm/include/llvm/Support/Endian.h"
  },
  {
   "function_name" : "llvm::support::endian::read16be",
   "linker_set_key" : "_ZN4llvm7support6endian8read16beEPKv",
   "parameters" :
   [
    {
     "referenced_type" : "_ZTIPKv"
    }
   ],
   "return_type" : "_ZTIt",
   "source_file" : "external/llvm/include/llvm/Support/Endian.h"
  },
  {
   "function_name" : "llvm::support::endian::read16le",
   "linker_set_key" : "_ZN4llvm7support6endian8read16leEPKv",
   "parameters" :
   [
    {
     "referenced_type" : "_ZTIPKv"
    }
   ],
   "return_type" : "_ZTIt",
   "source_file" : "external/llvm/include/llvm/Support/Endian.h"
  },
  {
   "function_name" : "llvm::support::endian::read32be",
   "linker_set_key" : "_ZN4llvm7support6endian8read32beEPKv",
   "parameters" :
   [
    {
     "referenced_type" : "_ZTIPKv"
    }
   ],
   "return_type" : "_ZTIj",
   "source_file" : "external/llvm/include/llvm/Support/Endian.h"
  },
  {
   "function_name" : "llvm::support::endian::read32le",
   "linker_set_key" : "_ZN4llvm7support6endian8read32leEPKv",
   "parameters" :
   [
    {
     "referenced_type" : "_ZTIPKv"
    }
   ],
   "return_type" : "_ZTIj",
   "source_file" : "external/llvm/include/llvm/Support/Endian.h"
  },
  {
   "function_name" : "llvm::support::endian::read64be",
   "linker_set_key" : "_ZN4llvm7support6endian8read64beEPKv",
   "parameters" :
   [
    {
     "referenced_type" : "_ZTIPKv"
    }
   ],
   "return_type" : "_ZTIy",
   "source_file" : "external/llvm/include/llvm/Support/Endian.h"
  },
  {
   "function_name" : "llvm::support::endian::read64le",
   "linker_set_key" : "_ZN4llvm7support6endian8read64leEPKv",
   "parameters" :
   [
    {
     "referenced_type" : "_ZTIPKv"
    }
   ],
   "return_type" : "_ZTIy",
   "source_file" : "external/llvm/include/llvm/Support/Endian.h"
  },
  {
   "function_name" : "llvm::support::endian::byte_swap",
   "linker_set_key" : "_ZN4llvm7support6endian9byte_swapIjLNS0_10endiannessE0EEET_S4_",
   "parameters" :
   [
    {
     "referenced_type" : "_ZTIj"
    }
   ],
   "return_type" : "_ZTIj",
   "source_file" : "external/llvm/include/llvm/Support/Endian.h",
   "template_args" : [ "_ZTIj" ]
  },
  {
   "function_name" : "llvm::support::endian::byte_swap",
   "linker_set_key" : "_ZN4llvm7support6endian9byte_swapIjLNS0_10endiannessE1EEET_S4_",
   "parameters" :
   [
    {
     "referenced_type" : "_ZTIj"
    }
   ],
   "return_type" : "_ZTIj",
   "source_file" : "external/llvm/include/llvm/Support/Endian.h",
   "template_args" : [ "_ZTIj" ]
  },
  {
   "function_name" : "llvm::support::endian::byte_swap",
   "linker_set_key" : "_ZN4llvm7support6endian9byte_swapItLNS0_10endiannessE0EEET_S4_",
   "parameters" :
   [
    {
     "referenced_type" : "_ZTIt"
    }
   ],
   "return_type" : "_ZTIt",
   "source_file" : "external/llvm/include/llvm/Support/Endian.h",
   "template_args" : [ "_ZTIt" ]
  },
  {
   "function_name" : "llvm::support::endian::byte_swap",
   "linker_set_key" : "_ZN4llvm7support6endian9byte_swapItLNS0_10endiannessE1EEET_S4_",
   "parameters" :
   [
    {
     "referenced_type" : "_ZTIt"
    }
   ],
   "return_type" : "_ZTIt",
   "source_file" : "external/llvm/include/llvm/Support/Endian.h",
   "template_args" : [ "_ZTIt" ]
  },
  {
   "function_name" : "llvm::support::endian::byte_swap",
   "linker_set_key" : "_ZN4llvm7support6endian9byte_swapIyLNS0_10endiannessE0EEET_S4_",
   "parameters" :
   [
    {
     "referenced_type" : "_ZTIy"
    }
   ],
   "return_type" : "_ZTIy",
   "source_file" : "external/llvm/include/llvm/Support/Endian.h",
   "template_args" : [ "_ZTIy" ]
  },
  {
   "function_name" : "llvm::support::endian::byte_swap",
   "linker_set_key" : "_ZN4llvm7support6endian9byte_swapIyLNS0_10endiannessE1EEET_S4_",
   "parameters" :
   [
    {
     "referenced_type" : "_ZTIy"
    }
   ],
   "return_type" : "_ZTIy",
   "source_file" : "external/llvm/include/llvm/Support/Endian.h",
   "template_args" : [ "_ZTIy" ]
  },
  {
   "function_name" : "llvm::support::endian::write16be",
   "linker_set_key" : "_ZN4llvm7support6endian9write16beEPvt",
   "parameters" :
   [
    {
     "referenced_type" : "_ZTIPv"
    },
    {
     "referenced_type" : "_ZTIt"
    }
   ],
   "return_type" : "_ZTIv",
   "source_file" : "external/llvm/include/llvm/Support/Endian.h"
  },
  {
   "function_name" : "llvm::support::endian::write16le",
   "linker_set_key" : "_ZN4llvm7support6endian9write16leEPvt",
   "parameters" :
   [
    {
     "referenced_type" : "_ZTIPv"
    },
    {
     "referenced_type" : "_ZTIt"
    }
   ],
   "return_type" : "_ZTIv",
   "source_file" : "external/llvm/include/llvm/Support/Endian.h"
  },
  {
   "function_name" : "llvm::support::endian::write32be",
   "linker_set_key" : "_ZN4llvm7support6endian9write32beEPvj",
   "parameters" :
   [
    {
     "referenced_type" : "_ZTIPv"
    },
    {
     "referenced_type" : "_ZTIj"
    }
   ],
   "return_type" : "_ZTIv",
   "source_file" : "external/llvm/include/llvm/Support/Endian.h"
  },
  {
   "function_name" : "llvm::support::endian::write32le",
   "linker_set_key" : "_ZN4llvm7support6endian9write32leEPvj",
   "parameters" :
   [
    {
     "referenced_type" : "_ZTIPv"
    },
    {
     "referenced_type" : "_ZTIj"
    }
   ],
   "return_type" : "_ZTIv",
   "source_file" : "external/llvm/include/llvm/Support/Endian.h"
  },
  {
   "function_name" : "llvm::support::endian::write64be",
   "linker_set_key" : "_ZN4llvm7support6endian9write64beEPvy",
   "parameters" :
   [
    {
     "referenced_type" : "_ZTIPv"
    },
    {
     "referenced_type" : "_ZTIy"
    }
   ],
   "return_type" : "_ZTIv",
   "source_file" : "external/llvm/include/llvm/Support/Endian.h"
  },
  {
   "function_name" : "llvm::support::endian::write64le",
   "linker_set_key" : "_ZN4llvm7support6endian9write64leEPvy",
   "parameters" :
   [
    {
     "referenced_type" : "_ZTIPv"
    },
    {
     "referenced_type" : "_ZTIy"
    }
   ],
   "return_type" : "_ZTIv",
   "source_file" : "external/llvm/include/llvm/Support/Endian.h"
  },
  {
   "function_name" : "llvm::APIntOps::isSignedIntN",
   "linker_set_key" : "_ZN4llvm8APIntOps12isSignedIntNEjRKNS_5APIntE",
   "parameters" :
   [
    {
     "referenced_type" : "_ZTIj"
    },
    {
     "referenced_type" : "_ZTIRKN4llvm5APIntE"
    }
   ],
   "return_type" : "_ZTIb",
   "source_file" : "external/llvm/include/llvm/ADT/APInt.h"
  },
  {
   "function_name" : "llvm::APIntOps::isShiftedMask",
   "linker_set_key" : "_ZN4llvm8APIntOps13isShiftedMaskEjRKNS_5APIntE",
   "parameters" :
   [
    {
     "referenced_type" : "_ZTIj"
    },
    {
     "referenced_type" : "_ZTIRKN4llvm5APIntE"
    }
   ],
   "return_type" : "_ZTIb",
   "source_file" : "external/llvm/include/llvm/ADT/APInt.h"
  },
  {
   "function_name" : "llvm::APIntOps::RoundAPIntToFloat",
   "linker_set_key" : "_ZN4llvm8APIntOps17RoundAPIntToFloatERKNS_5APIntE",
   "parameters" :
   [
    {
     "referenced_type" : "_ZTIRKN4llvm5APIntE"
    }
   ],
   "return_type" : "_ZTIf",
   "source_file" : "external/llvm/include/llvm/ADT/APInt.h"
  },
  {
   "function_name" : "llvm::APIntOps::RoundFloatToAPInt",
   "linker_set_key" : "_ZN4llvm8APIntOps17RoundFloatToAPIntEfj",
   "parameters" :
   [
    {
     "referenced_type" : "_ZTIf"
    },
    {
     "referenced_type" : "_ZTIj"
    }
   ],
   "return_type" : "_ZTIN4llvm5APIntE",
   "source_file" : "external/llvm/include/llvm/ADT/APInt.h"
  },
  {
   "function_name" : "llvm::APIntOps::RoundAPIntToDouble",
   "linker_set_key" : "_ZN4llvm8APIntOps18RoundAPIntToDoubleERKNS_5APIntE",
   "parameters" :
   [
    {
     "referenced_type" : "_ZTIRKN4llvm5APIntE"
    }
   ],
   "return_type" : "_ZTId",
   "source_file" : "external/llvm/include/llvm/ADT/APInt.h"
  },
  {
   "function_name" : "llvm::APIntOps::RoundSignedAPIntToFloat",
   "linker_set_key" : "_ZN4llvm8APIntOps23RoundSignedAPIntToFloatERKNS_5APIntE",
   "parameters" :
   [
    {
     "referenced_type" : "_ZTIRKN4llvm5APIntE"
    }
   ],
   "return_type" : "_ZTIf",
   "source_file" : "external/llvm/include/llvm/ADT/APInt.h"
  },
  {
   "function_name" : "llvm::APIntOps::RoundSignedAPIntToDouble",
   "linker_set_key" : "_ZN4llvm8APIntOps24RoundSignedAPIntToDoubleERKNS_5APIntE",
   "parameters" :
   [
    {
     "referenced_type" : "_ZTIRKN4llvm5APIntE"
    }
   ],
   "return_type" : "_ZTId",
   "source_file" : "external/llvm/include/llvm/ADT/APInt.h"
  },
  {
   "function_name" : "llvm::APIntOps::Or",
   "linker_set_key" : "_ZN4llvm8APIntOps2OrERKNS_5APIntES3_",
   "parameters" :
   [
    {
     "referenced_type" : "_ZTIRKN4llvm5APIntE"
    },
    {
     "referenced_type" : "_ZTIRKN4llvm5APIntE"
    }
   ],
   "return_type" : "_ZTIN4llvm5APIntE",
   "source_file" : "external/llvm/include/llvm/ADT/APInt.h"
  },
  {
   "function_name" : "llvm::APIntOps::And",
   "linker_set_key" : "_ZN4llvm8APIntOps3AndERKNS_5APIntES3_",
   "parameters" :
   [
    {
     "referenced_type" : "_ZTIRKN4llvm5APIntE"
    },
    {
     "referenced_type" : "_ZTIRKN4llvm5APIntE"
    }
   ],
   "return_type" : "_ZTIN4llvm5APIntE",
   "source_file" : "external/llvm/include/llvm/ADT/APInt.h"
  },
  {
   "function_name" : "llvm::APIntOps::Not",
   "linker_set_key" : "_ZN4llvm8APIntOps3NotERKNS_5APIntE",
   "parameters" :
   [
    {
     "referenced_type" : "_ZTIRKN4llvm5APIntE"
    }
   ],
   "return_type" : "_ZTIN4llvm5APIntE",
   "source_file" : "external/llvm/include/llvm/ADT/APInt.h"
  },
  {
   "function_name" : "llvm::APIntOps::Xor",
   "linker_set_key" : "_ZN4llvm8APIntOps3XorERKNS_5APIntES3_",
   "parameters" :
   [
    {
     "referenced_type" : "_ZTIRKN4llvm5APIntE"
    },
    {
     "referenced_type" : "_ZTIRKN4llvm5APIntE"
    }
   ],
   "return_type" : "_ZTIN4llvm5APIntE",
   "source_file" : "external/llvm/include/llvm/ADT/APInt.h"
  },
  {
   "function_name" : "llvm::APIntOps::add",
   "linker_set_key" : "_ZN4llvm8APIntOps3addERKNS_5APIntES3_",
   "parameters" :
   [
    {
     "referenced_type" : "_ZTIRKN4llvm5APIntE"
    },
    {
     "referenced_type" : "_ZTIRKN4llvm5APIntE"
    }
   ],
   "return_type" : "_ZTIN4llvm5APIntE",
   "source_file" : "external/llvm/include/llvm/ADT/APInt.h"
  },
  {
   "function_name" : "llvm::APIntOps::mul",
   "linker_set_key" : "_ZN4llvm8APIntOps3mulERKNS_5APIntES3_",
   "parameters" :
   [
    {
     "referenced_type" : "_ZTIRKN4llvm5APIntE"
    },
    {
     "referenced_type" : "_ZTIRKN4llvm5APIntE"
    }
   ],
   "return_type" : "_ZTIN4llvm5APIntE",
   "source_file" : "external/llvm/include/llvm/ADT/APInt.h"
  },
  {
   "function_name" : "llvm::APIntOps::shl",
   "linker_set_key" : "_ZN4llvm8APIntOps3shlERKNS_5APIntEj",
   "parameters" :
   [
    {
     "referenced_type" : "_ZTIRKN4llvm5APIntE"
    },
    {
     "referenced_type" : "_ZTIj"
    }
   ],
   "return_type" : "_ZTIN4llvm5APIntE",
   "source_file" : "external/llvm/include/llvm/ADT/APInt.h"
  },
  {
   "function_name" : "llvm::APIntOps::sub",
   "linker_set_key" : "_ZN4llvm8APIntOps3subERKNS_5APIntES3_",
   "parameters" :
   [
    {
     "referenced_type" : "_ZTIRKN4llvm5APIntE"
    },
    {
     "referenced_type" : "_ZTIRKN4llvm5APIntE"
    }
   ],
   "return_type" : "_ZTIN4llvm5APIntE",
   "source_file" : "external/llvm/include/llvm/ADT/APInt.h"
  },
  {
   "function_name" : "llvm::APIntOps::ashr",
   "linker_set_key" : "_ZN4llvm8APIntOps4ashrERKNS_5APIntEj",
   "parameters" :
   [
    {
     "referenced_type" : "_ZTIRKN4llvm5APIntE"
    },
    {
     "referenced_type" : "_ZTIj"
    }
   ],
   "return_type" : "_ZTIN4llvm5APIntE",
   "source_file" : "external/llvm/include/llvm/ADT/APInt.h"
  },
  {
   "function_name" : "llvm::APIntOps::lshr",
   "linker_set_key" : "_ZN4llvm8APIntOps4lshrERKNS_5APIntEj",
   "parameters" :
   [
    {
     "referenced_type" : "_ZTIRKN4llvm5APIntE"
    },
    {
     "referenced_type" : "_ZTIj"
    }
   ],
   "return_type" : "_ZTIN4llvm5APIntE",
   "source_file" : "external/llvm/include/llvm/ADT/APInt.h"
  },
  {
   "function_name" : "llvm::APIntOps::sdiv",
   "linker_set_key" : "_ZN4llvm8APIntOps4sdivERKNS_5APIntES3_",
   "parameters" :
   [
    {
     "referenced_type" : "_ZTIRKN4llvm5APIntE"
    },
    {
     "referenced_type" : "_ZTIRKN4llvm5APIntE"
    }
   ],
   "return_type" : "_ZTIN4llvm5APIntE",
   "source_file" : "external/llvm/include/llvm/ADT/APInt.h"
  },
  {
   "function_name" : "llvm::APIntOps::smax",
   "linker_set_key" : "_ZN4llvm8APIntOps4smaxERKNS_5APIntES3_",
   "parameters" :
   [
    {
     "referenced_type" : "_ZTIRKN4llvm5APIntE"
    },
    {
     "referenced_type" : "_ZTIRKN4llvm5APIntE"
    }
   ],
   "return_type" : "_ZTIRKN4llvm5APIntE",
   "source_file" : "external/llvm/include/llvm/ADT/APInt.h"
  },
  {
   "function_name" : "llvm::APIntOps::smin",
   "linker_set_key" : "_ZN4llvm8APIntOps4sminERKNS_5APIntES3_",
   "parameters" :
   [
    {
     "referenced_type" : "_ZTIRKN4llvm5APIntE"
    },
    {
     "referenced_type" : "_ZTIRKN4llvm5APIntE"
    }
   ],
   "return_type" : "_ZTIRKN4llvm5APIntE",
   "source_file" : "external/llvm/include/llvm/ADT/APInt.h"
  },
  {
   "function_name" : "llvm::APIntOps::srem",
   "linker_set_key" : "_ZN4llvm8APIntOps4sremERKNS_5APIntES3_",
   "parameters" :
   [
    {
     "referenced_type" : "_ZTIRKN4llvm5APIntE"
    },
    {
     "referenced_type" : "_ZTIRKN4llvm5APIntE"
    }
   ],
   "return_type" : "_ZTIN4llvm5APIntE",
   "source_file" : "external/llvm/include/llvm/ADT/APInt.h"
  },
  {
   "function_name" : "llvm::APIntOps::udiv",
   "linker_set_key" : "_ZN4llvm8APIntOps4udivERKNS_5APIntES3_",
   "parameters" :
   [
    {
     "referenced_type" : "_ZTIRKN4llvm5APIntE"
    },
    {
     "referenced_type" : "_ZTIRKN4llvm5APIntE"
    }
   ],
   "return_type" : "_ZTIN4llvm5APIntE",
   "source_file" : "external/llvm/include/llvm/ADT/APInt.h"
  },
  {
   "function_name" : "llvm::APIntOps::umax",
   "linker_set_key" : "_ZN4llvm8APIntOps4umaxERKNS_5APIntES3_",
   "parameters" :
   [
    {
     "referenced_type" : "_ZTIRKN4llvm5APIntE"
    },
    {
     "referenced_type" : "_ZTIRKN4llvm5APIntE"
    }
   ],
   "return_type" : "_ZTIRKN4llvm5APIntE",
   "source_file" : "external/llvm/include/llvm/ADT/APInt.h"
  },
  {
   "function_name" : "llvm::APIntOps::umin",
   "linker_set_key" : "_ZN4llvm8APIntOps4uminERKNS_5APIntES3_",
   "parameters" :
   [
    {
     "referenced_type" : "_ZTIRKN4llvm5APIntE"
    },
    {
     "referenced_type" : "_ZTIRKN4llvm5APIntE"
    }
   ],
   "return_type" : "_ZTIRKN4llvm5APIntE",
   "source_file" : "external/llvm/include/llvm/ADT/APInt.h"
  },
  {
   "function_name" : "llvm::APIntOps::urem",
   "linker_set_key" : "_ZN4llvm8APIntOps4uremERKNS_5APIntES3_",
   "parameters" :
   [
    {
     "referenced_type" : "_ZTIRKN4llvm5APIntE"
    },
    {
     "referenced_type" : "_ZTIRKN4llvm5APIntE"
    }
   ],
   "return_type" : "_ZTIN4llvm5APIntE",
   "source_file" : "external/llvm/include/llvm/ADT/APInt.h"
  },
  {
   "function_name" : "llvm::APIntOps::isIntN",
   "linker_set_key" : "_ZN4llvm8APIntOps6isIntNEjRKNS_5APIntE",
   "parameters" :
   [
    {
     "referenced_type" : "_ZTIj"
    },
    {
     "referenced_type" : "_ZTIRKN4llvm5APIntE"
    }
   ],
   "return_type" : "_ZTIb",
   "source_file" : "external/llvm/include/llvm/ADT/APInt.h"
  },
  {
   "function_name" : "llvm::APIntOps::isMask",
   "linker_set_key" : "_ZN4llvm8APIntOps6isMaskERKNS_5APIntE",
   "parameters" :
   [
    {
     "referenced_type" : "_ZTIRKN4llvm5APIntE"
    }
   ],
   "return_type" : "_ZTIb",
   "source_file" : "external/llvm/include/llvm/ADT/APInt.h"
  },
  {
   "function_name" : "llvm::APIntOps::isMask",
   "linker_set_key" : "_ZN4llvm8APIntOps6isMaskEjRKNS_5APIntE",
   "parameters" :
   [
    {
     "referenced_type" : "_ZTIj"
    },
    {
     "referenced_type" : "_ZTIRKN4llvm5APIntE"
    }
   ],
   "return_type" : "_ZTIb",
   "source_file" : "external/llvm/include/llvm/ADT/APInt.h"
  },
  {
   "function_name" : "llvm::APIntOps::byteSwap",
   "linker_set_key" : "_ZN4llvm8APIntOps8byteSwapERKNS_5APIntE",
   "parameters" :
   [
    {
     "referenced_type" : "_ZTIRKN4llvm5APIntE"
    }
   ],
   "return_type" : "_ZTIN4llvm5APIntE",
   "source_file" : "external/llvm/include/llvm/ADT/APInt.h"
  },
  {
   "function_name" : "llvm::APIntOps::logBase2",
   "linker_set_key" : "_ZN4llvm8APIntOps8logBase2ERKNS_5APIntE",
   "parameters" :
   [
    {
     "referenced_type" : "_ZTIRKN4llvm5APIntE"
    }
   ],
   "return_type" : "_ZTIj",
   "source_file" : "external/llvm/include/llvm/ADT/APInt.h"
  },
  {
   "function_name" : "llvm::ArrayRef<llvm::Type *>::ArrayRef",
   "linker_set_key" : "_ZN4llvm8ArrayRefIPNS_4TypeEEC1EPKS2_S5_",
   "parameters" :
   [
    {
     "is_this_ptr" : true,
     "referenced_type" : "_ZTIPN4llvm8ArrayRefIPNS_4TypeEEE"
    },
    {
     "referenced_type" : "_ZTIPKPN4llvm4TypeE"
    },
    {
     "referenced_type" : "_ZTIPKPN4llvm4TypeE"
    }
   ],
   "return_type" : "_ZTIv",
   "source_file" : "external/llvm/include/llvm/ADT/ArrayRef.h"
  },
  {
   "function_name" : "llvm::ArrayRef<llvm::Type *>::ArrayRef",
   "linker_set_key" : "_ZN4llvm8ArrayRefIPNS_4TypeEEC2EPKS2_S5_",
   "parameters" :
   [
    {
     "is_this_ptr" : true,
     "referenced_type" : "_ZTIPN4llvm8ArrayRefIPNS_4TypeEEE"
    },
    {
     "referenced_type" : "_ZTIPKPN4llvm4TypeE"
    },
    {
     "referenced_type" : "_ZTIPKPN4llvm4TypeE"
    }
   ],
   "return_type" : "_ZTIv",
   "source_file" : "external/llvm/include/llvm/ADT/ArrayRef.h"
  },
  {
   "function_name" : "llvm::Constant::stripPointerCasts",
   "linker_set_key" : "_ZN4llvm8Constant17stripPointerCastsEv",
   "parameters" :
   [
    {
     "is_this_ptr" : true,
     "referenced_type" : "_ZTIPN4llvm8ConstantE"
    }
   ],
   "return_type" : "_ZTIPN4llvm8ConstantE",
   "source_file" : "external/llvm/include/llvm/IR/Constant.h"
  },
  {
   "function_name" : "llvm::Constant::classof",
   "linker_set_key" : "_ZN4llvm8Constant7classofEPKNS_5ValueE",
   "parameters" :
   [
    {
     "referenced_type" : "_ZTIPKN4llvm5ValueE"
    }
   ],
   "return_type" : "_ZTIb",
   "source_file" : "external/llvm/include/llvm/IR/Constant.h"
  },
  {
   "access" : "protected",
   "function_name" : "llvm::Constant::Constant",
   "linker_set_key" : "_ZN4llvm8ConstantC1EPNS_4TypeENS_5Value7ValueTyEPNS_3UseEj",
   "parameters" :
   [
    {
     "is_this_ptr" : true,
     "referenced_type" : "_ZTIPN4llvm8ConstantE"
    },
    {
     "referenced_type" : "_ZTIPN4llvm4TypeE"
    },
    {
     "referenced_type" : "_ZTIN4llvm5Value7ValueTyE"
    },
    {
     "referenced_type" : "_ZTIPN4llvm3UseE"
    },
    {
     "referenced_type" : "_ZTIj"
    }
   ],
   "return_type" : "_ZTIv",
   "source_file" : "external/llvm/include/llvm/IR/Constant.h"
  },
  {
   "access" : "protected",
   "function_name" : "llvm::Constant::Constant",
   "linker_set_key" : "_ZN4llvm8ConstantC2EPNS_4TypeENS_5Value7ValueTyEPNS_3UseEj",
   "parameters" :
   [
    {
     "is_this_ptr" : true,
     "referenced_type" : "_ZTIPN4llvm8ConstantE"
    },
    {
     "referenced_type" : "_ZTIPN4llvm4TypeE"
    },
    {
     "referenced_type" : "_ZTIN4llvm5Value7ValueTyE"
    },
    {
     "referenced_type" : "_ZTIPN4llvm3UseE"
    },
    {
     "referenced_type" : "_ZTIj"
    }
   ],
   "return_type" : "_ZTIv",
   "source_file" : "external/llvm/include/llvm/IR/Constant.h"
  },
  {
   "function_name" : "llvm::MinAlign",
   "linker_set_key" : "_ZN4llvm8MinAlignEyy",
   "parameters" :
   [
    {
     "referenced_type" : "_ZTIy"
    },
    {
     "referenced_type" : "_ZTIy"
    }
   ],
   "return_type" : "_ZTIy",
   "source_file" : "external/llvm/include/llvm/Support/MathExtras.h"
  },
  {
   "function_name" : "llvm::isa_impl<llvm::BasicBlock, llvm::Value, void>::doit",
   "linker_set_key" : "_ZN4llvm8isa_implINS_10BasicBlockENS_5ValueEvE4doitERKS2_",
   "parameters" :
   [
    {
     "referenced_type" : "_ZTIRKN4llvm5ValueE"
    }
   ],
   "return_type" : "_ZTIb",
   "source_file" : "external/llvm/include/llvm/IR/Value.h"
  },
  {
   "function_name" : "llvm::isa_impl<llvm::GlobalAlias, llvm::Value, void>::doit",
   "linker_set_key" : "_ZN4llvm8isa_implINS_11GlobalAliasENS_5ValueEvE4doitERKS2_",
   "parameters" :
   [
    {
     "referenced_type" : "_ZTIRKN4llvm5ValueE"
    }
   ],
   "return_type" : "_ZTIb",
   "source_file" : "external/llvm/include/llvm/IR/Value.h"
  },
  {
   "function_name" : "llvm::isa_impl<llvm::GlobalIFunc, llvm::Value, void>::doit",
   "linker_set_key" : "_ZN4llvm8isa_implINS_11GlobalIFuncENS_5ValueEvE4doitERKS2_",
   "parameters" :
   [
    {
     "referenced_type" : "_ZTIRKN4llvm5ValueE"
    }
   ],
   "return_type" : "_ZTIb",
   "source_file" : "external/llvm/include/llvm/IR/Value.h"
  },
  {
   "function_name" : "llvm::isa_impl<llvm::GlobalValue, llvm::Value, void>::doit",
   "linker_set_key" : "_ZN4llvm8isa_implINS_11GlobalValueENS_5ValueEvE4doitERKS2_",
   "parameters" :
   [
    {
     "referenced_type" : "_ZTIRKN4llvm5ValueE"
    }
   ],
   "return_type" : "_ZTIb",
   "source_file" : "external/llvm/include/llvm/IR/Value.h"
  },
  {
   "function_name" : "llvm::isa_impl<llvm::Instruction, llvm::Value, void>::doit",
   "linker_set_key" : "_ZN4llvm8isa_implINS_11InstructionENS_5ValueEvE4doitERKS2_",
   "parameters" :
   [
    {
     "referenced_type" : "_ZTIRKN4llvm5ValueE"
    }
   ],
   "return_type" : "_ZTIb",
   "source_file" : "external/llvm/include/llvm/IR/Value.h"
  },
  {
   "function_name" : "llvm::isa_impl<llvm::PointerType, llvm::Type, void>::doit",
   "linker_set_key" : "_ZN4llvm8isa_implINS_11PointerTypeENS_4TypeEvE4doitERKS2_",
   "parameters" :
   [
    {
     "referenced_type" : "_ZTIRKN4llvm4TypeE"
    }
   ],
   "return_type" : "_ZTIb",
   "source_file" : "external/llvm/include/llvm/IR/Type.h"
  },
  {
   "function_name" : "llvm::isa_impl<llvm::ConstantData, llvm::Value, void>::doit",
   "linker_set_key" : "_ZN4llvm8isa_implINS_12ConstantDataENS_5ValueEvE4doitERKS2_",
   "parameters" :
   [
    {
     "referenced_type" : "_ZTIRKN4llvm5ValueE"
    }
   ],
   "return_type" : "_ZTIb",
   "source_file" : "external/llvm/include/llvm/IR/Value.h"
  },
  {
   "function_name" : "llvm::isa_impl<llvm::GlobalObject, llvm::Value, void>::doit",
   "linker_set_key" : "_ZN4llvm8isa_implINS_12GlobalObjectENS_5ValueEvE4doitERKS2_",
   "parameters" :
   [
    {
     "referenced_type" : "_ZTIRKN4llvm5ValueE"
    }
   ],
   "return_type" : "_ZTIb",
   "source_file" : "external/llvm/include/llvm/IR/Value.h"
  },
  {
   "function_name" : "llvm::isa_impl<llvm::GlobalVariable, llvm::Value, void>::doit",
   "linker_set_key" : "_ZN4llvm8isa_implINS_14GlobalVariableENS_5ValueEvE4doitERKS2_",
   "parameters" :
   [
    {
     "referenced_type" : "_ZTIRKN4llvm5ValueE"
    }
   ],
   "return_type" : "_ZTIb",
   "source_file" : "external/llvm/include/llvm/IR/Value.h"
  },
  {
   "function_name" : "llvm::isa_impl<llvm::ConstantAggregate, llvm::Value, void>::doit",
   "linker_set_key" : "_ZN4llvm8isa_implINS_17ConstantAggregateENS_5ValueEvE4doitERKS2_",
   "parameters" :
   [
    {
     "referenced_type" : "_ZTIRKN4llvm5ValueE"
    }
   ],
   "return_type" : "_ZTIb",
   "source_file" : "external/llvm/include/llvm/IR/Value.h"
  },
  {
   "function_name" : "llvm::isa_impl<llvm::GlobalIndirectSymbol, llvm::Value, void>::doit",
   "linker_set_key" : "_ZN4llvm8isa_implINS_20GlobalIndirectSymbolENS_5ValueEvE4doitERKS2_",
   "parameters" :
   [
    {
     "referenced_type" : "_ZTIRKN4llvm5ValueE"
    }
   ],
   "return_type" : "_ZTIb",
   "source_file" : "external/llvm/include/llvm/IR/Value.h"
  },
  {
   "function_name" : "llvm::isa_impl<llvm::Argument, llvm::Value, void>::doit",
   "linker_set_key" : "_ZN4llvm8isa_implINS_8ArgumentENS_5ValueEvE4doitERKS2_",
   "parameters" :
   [
    {
     "referenced_type" : "_ZTIRKN4llvm5ValueE"
    }
   ],
   "return_type" : "_ZTIb",
   "source_file" : "external/llvm/include/llvm/IR/Value.h"
  },
  {
   "function_name" : "llvm::isa_impl<llvm::Constant, llvm::Value, void>::doit",
   "linker_set_key" : "_ZN4llvm8isa_implINS_8ConstantENS_5ValueEvE4doitERKS2_",
   "parameters" :
   [
    {
     "referenced_type" : "_ZTIRKN4llvm5ValueE"
    }
   ],
   "return_type" : "_ZTIb",
   "source_file" : "external/llvm/include/llvm/IR/Value.h"
  },
  {
   "function_name" : "llvm::isa_impl<llvm::Function, llvm::Value, void>::doit",
   "linker_set_key" : "_ZN4llvm8isa_implINS_8FunctionENS_5ValueEvE4doitERKS2_",
   "parameters" :
   [
    {
     "referenced_type" : "_ZTIRKN4llvm5ValueE"
    }
   ],
   "return_type" : "_ZTIb",
   "source_file" : "external/llvm/include/llvm/IR/Value.h"
  },
  {
   "function_name" : "llvm::isa_impl<llvm::InlineAsm, llvm::Value, void>::doit",
   "linker_set_key" : "_ZN4llvm8isa_implINS_9InlineAsmENS_5ValueEvE4doitERKS2_",
   "parameters" :
   [
    {
     "referenced_type" : "_ZTIRKN4llvm5ValueE"
    }
   ],
   "return_type" : "_ZTIb",
   "source_file" : "external/llvm/include/llvm/IR/Value.h"
  },
  {
   "function_name" : "llvm::maxUIntN",
   "linker_set_key" : "_ZN4llvm8maxUIntNEy",
   "parameters" :
   [
    {
     "referenced_type" : "_ZTIy"
    }
   ],
   "return_type" : "_ZTIy",
   "source_file" : "external/llvm/include/llvm/Support/MathExtras.h"
  },
  {
   "function_name" : "llvm::ArrayType::classof",
   "linker_set_key" : "_ZN4llvm9ArrayType7classofEPKNS_4TypeE",
   "parameters" :
   [
    {
     "referenced_type" : "_ZTIPKN4llvm4TypeE"
    }
   ],
   "return_type" : "_ZTIb",
   "source_file" : "external/llvm/include/llvm/IR/DerivedTypes.h"
  },
  {
   "function_name" : "llvm::StringMap<llvm::Value *, llvm::MallocAllocator>::emplace_second",
   "linker_set_key" : "_ZN4llvm9StringMapIPNS_5ValueENS_15MallocAllocatorEE14emplace_secondIJS2_EEENSt3__14pairINS_17StringMapIteratorIS2_EEbEENS_9StringRefEDpOT_",
   "parameters" :
   [
    {
     "is_this_ptr" : true,
     "referenced_type" : "_ZTIPN4llvm9StringMapIPNS_5ValueENS_15MallocAllocatorEEE"
    },
    {
     "referenced_type" : "_ZTIN4llvm9StringRefE"
    },
    {
     "referenced_type" : "_ZTIOPN4llvm5ValueE"
    }
   ],
   "return_type" : "_ZTINSt3__14pairIN4llvm17StringMapIteratorIPNS1_5ValueEEEbEE",
   "source_file" : "external/llvm/include/llvm/ADT/StringMap.h"
  },
  {
   "function_name" : "llvm::StringMap<llvm::Value *, llvm::MallocAllocator>::end",
   "linker_set_key" : "_ZN4llvm9StringMapIPNS_5ValueENS_15MallocAllocatorEE3endEv",
   "parameters" :
   [
    {
     "is_this_ptr" : true,
     "referenced_type" : "_ZTIPN4llvm9StringMapIPNS_5ValueENS_15MallocAllocatorEEE"
    }
   ],
   "return_type" : "_ZTIN4llvm17StringMapIteratorIPNS_5ValueEEE",
   "source_file" : "external/llvm/include/llvm/ADT/StringMap.h"
  },
  {
   "function_name" : "llvm::StringMap<llvm::Value *, llvm::MallocAllocator>::begin",
   "linker_set_key" : "_ZN4llvm9StringMapIPNS_5ValueENS_15MallocAllocatorEE5beginEv",
   "parameters" :
   [
    {
     "is_this_ptr" : true,
     "referenced_type" : "_ZTIPN4llvm9StringMapIPNS_5ValueENS_15MallocAllocatorEEE"
    }
   ],
   "return_type" : "_ZTIN4llvm17StringMapIteratorIPNS_5ValueEEE",
   "source_file" : "external/llvm/include/llvm/ADT/StringMap.h"
  },
  {
   "function_name" : "llvm::StringMap<llvm::Value *, llvm::MallocAllocator>::insert",
   "linker_set_key" : "_ZN4llvm9StringMapIPNS_5ValueENS_15MallocAllocatorEE6insertENSt3__14pairINS_9StringRefES2_EE",
   "parameters" :
   [
    {
     "is_this_ptr" : true,
     "referenced_type" : "_ZTIPN4llvm9StringMapIPNS_5ValueENS_15MallocAllocatorEEE"
    },
    {
     "referenced_type" : "_ZTINSt3__14pairIN4llvm9StringRefEPNS1_5ValueEEE"
    }
   ],
   "return_type" : "_ZTINSt3__14pairIN4llvm17StringMapIteratorIPNS1_5ValueEEEbEE",
   "source_file" : "external/llvm/include/llvm/ADT/StringMap.h"
  },
  {
   "function_name" : "llvm::StringMap<llvm::Value *, llvm::MallocAllocator>::insert",
   "linker_set_key" : "_ZN4llvm9StringMapIPNS_5ValueENS_15MallocAllocatorEE6insertEPNS_14StringMapEntryIS2_EE",
   "parameters" :
   [
    {
     "is_this_ptr" : true,
     "referenced_type" : "_ZTIPN4llvm9StringMapIPNS_5ValueENS_15MallocAllocatorEEE"
    },
    {
     "referenced_type" : "_ZTIPN4llvm14StringMapEntryIPNS_5ValueEEE"
    }
   ],
   "return_type" : "_ZTIb",
   "source_file" : "external/llvm/include/llvm/ADT/StringMap.h"
  },
  {
   "function_name" : "llvm::StringMap<llvm::Value *, llvm::MallocAllocator>::remove",
   "linker_set_key" : "_ZN4llvm9StringMapIPNS_5ValueENS_15MallocAllocatorEE6removeEPNS_14StringMapEntryIS2_EE",
   "parameters" :
   [
    {
     "is_this_ptr" : true,
     "referenced_type" : "_ZTIPN4llvm9StringMapIPNS_5ValueENS_15MallocAllocatorEEE"
    },
    {
     "referenced_type" : "_ZTIPN4llvm14StringMapEntryIPNS_5ValueEEE"
    }
   ],
   "return_type" : "_ZTIv",
   "source_file" : "external/llvm/include/llvm/ADT/StringMap.h"
  },
  {
   "function_name" : "llvm::StringMap<llvm::Value *, llvm::MallocAllocator>::StringMap",
   "linker_set_key" : "_ZN4llvm9StringMapIPNS_5ValueENS_15MallocAllocatorEEC1Ej",
   "parameters" :
   [
    {
     "is_this_ptr" : true,
     "referenced_type" : "_ZTIPN4llvm9StringMapIPNS_5ValueENS_15MallocAllocatorEEE"
    },
    {
     "referenced_type" : "_ZTIj"
    }
   ],
   "return_type" : "_ZTIv",
   "source_file" : "external/llvm/include/llvm/ADT/StringMap.h"
  },
  {
   "function_name" : "llvm::StringMap<llvm::Value *, llvm::MallocAllocator>::StringMap",
   "linker_set_key" : "_ZN4llvm9StringMapIPNS_5ValueENS_15MallocAllocatorEEC2Ej",
   "parameters" :
   [
    {
     "is_this_ptr" : true,
     "referenced_type" : "_ZTIPN4llvm9StringMapIPNS_5ValueENS_15MallocAllocatorEEE"
    },
    {
     "referenced_type" : "_ZTIj"
    }
   ],
   "return_type" : "_ZTIv",
   "source_file" : "external/llvm/include/llvm/ADT/StringMap.h"
  },
  {
   "function_name" : "llvm::StringMap<llvm::Value *, llvm::MallocAllocator>::~StringMap",
   "linker_set_key" : "_ZN4llvm9StringMapIPNS_5ValueENS_15MallocAllocatorEED1Ev",
   "parameters" :
   [
    {
     "is_this_ptr" : true,
     "referenced_type" : "_ZTIPN4llvm9StringMapIPNS_5ValueENS_15MallocAllocatorEEE"
    }
   ],
   "return_type" : "_ZTIv",
   "source_file" : "external/llvm/include/llvm/ADT/StringMap.h"
  },
  {
   "function_name" : "llvm::StringMap<llvm::Value *, llvm::MallocAllocator>::~StringMap",
   "linker_set_key" : "_ZN4llvm9StringMapIPNS_5ValueENS_15MallocAllocatorEED2Ev",
   "parameters" :
   [
    {
     "is_this_ptr" : true,
     "referenced_type" : "_ZTIPN4llvm9StringMapIPNS_5ValueENS_15MallocAllocatorEEE"
    }
   ],
   "return_type" : "_ZTIv",
   "source_file" : "external/llvm/include/llvm/ADT/StringMap.h"
  },
  {
   "access" : "private",
   "function_name" : "llvm::StringRef::compareMemory",
   "linker_set_key" : "_ZN4llvm9StringRef13compareMemoryEPKcS2_j",
   "parameters" :
   [
    {
     "referenced_type" : "_ZTIPKc"
    },
    {
     "referenced_type" : "_ZTIPKc"
    },
    {
     "referenced_type" : "_ZTIj"
    }
   ],
   "return_type" : "_ZTIi",
   "source_file" : "external/llvm/include/llvm/ADT/StringRef.h"
  },
  {
   "function_name" : "llvm::StringRef::StringRef",
   "linker_set_key" : "_ZN4llvm9StringRefC1EPKc",
   "parameters" :
   [
    {
     "is_this_ptr" : true,
     "referenced_type" : "_ZTIPN4llvm9StringRefE"
    },
    {
     "referenced_type" : "_ZTIPKc"
    }
   ],
   "return_type" : "_ZTIv",
   "source_file" : "external/llvm/include/llvm/ADT/StringRef.h"
  },
  {
   "function_name" : "llvm::StringRef::StringRef",
   "linker_set_key" : "_ZN4llvm9StringRefC1EPKcj",
   "parameters" :
   [
    {
     "is_this_ptr" : true,
     "referenced_type" : "_ZTIPN4llvm9StringRefE"
    },
    {
     "referenced_type" : "_ZTIPKc"
    },
    {
     "referenced_type" : "_ZTIj"
    }
   ],
   "return_type" : "_ZTIv",
   "source_file" : "external/llvm/include/llvm/ADT/StringRef.h"
  },
  {
   "function_name" : "llvm::StringRef::StringRef",
   "linker_set_key" : "_ZN4llvm9StringRefC1ERKNSt3__112basic_stringIcNS1_11char_traitsIcEENS1_9allocatorIcEEEE",
   "parameters" :
   [
    {
     "is_this_ptr" : true,
     "referenced_type" : "_ZTIPN4llvm9StringRefE"
    },
    {
     "referenced_type" : "_ZTIRKNSt3__112basic_stringIcNS_11char_traitsIcEENS_9allocatorIcEEEE"
    }
   ],
   "return_type" : "_ZTIv",
   "source_file" : "external/llvm/include/llvm/ADT/StringRef.h"
  },
  {
   "function_name" : "llvm::StringRef::StringRef",
   "linker_set_key" : "_ZN4llvm9StringRefC1Ev",
   "parameters" :
   [
    {
     "is_this_ptr" : true,
     "referenced_type" : "_ZTIPN4llvm9StringRefE"
    }
   ],
   "return_type" : "_ZTIv",
   "source_file" : "external/llvm/include/llvm/ADT/StringRef.h"
  },
  {
   "function_name" : "llvm::StringRef::StringRef",
   "linker_set_key" : "_ZN4llvm9StringRefC2EPKc",
   "parameters" :
   [
    {
     "is_this_ptr" : true,
     "referenced_type" : "_ZTIPN4llvm9StringRefE"
    },
    {
     "referenced_type" : "_ZTIPKc"
    }
   ],
   "return_type" : "_ZTIv",
   "source_file" : "external/llvm/include/llvm/ADT/StringRef.h"
  },
  {
   "function_name" : "llvm::StringRef::StringRef",
   "linker_set_key" : "_ZN4llvm9StringRefC2EPKcj",
   "parameters" :
   [
    {
     "is_this_ptr" : true,
     "referenced_type" : "_ZTIPN4llvm9StringRefE"
    },
    {
     "referenced_type" : "_ZTIPKc"
    },
    {
     "referenced_type" : "_ZTIj"
    }
   ],
   "return_type" : "_ZTIv",
   "source_file" : "external/llvm/include/llvm/ADT/StringRef.h"
  },
  {
   "function_name" : "llvm::StringRef::StringRef",
   "linker_set_key" : "_ZN4llvm9StringRefC2ERKNSt3__112basic_stringIcNS1_11char_traitsIcEENS1_9allocatorIcEEEE",
   "parameters" :
   [
    {
     "is_this_ptr" : true,
     "referenced_type" : "_ZTIPN4llvm9StringRefE"
    },
    {
     "referenced_type" : "_ZTIRKNSt3__112basic_stringIcNS_11char_traitsIcEENS_9allocatorIcEEEE"
    }
   ],
   "return_type" : "_ZTIv",
   "source_file" : "external/llvm/include/llvm/ADT/StringRef.h"
  },
  {
   "function_name" : "llvm::StringRef::StringRef",
   "linker_set_key" : "_ZN4llvm9StringRefC2Ev",
   "parameters" :
   [
    {
     "is_this_ptr" : true,
     "referenced_type" : "_ZTIPN4llvm9StringRefE"
    }
   ],
   "return_type" : "_ZTIv",
   "source_file" : "external/llvm/include/llvm/ADT/StringRef.h"
  },
  {
   "function_name" : "llvm::alignAddr",
   "linker_set_key" : "_ZN4llvm9alignAddrEPKvj",
   "parameters" :
   [
    {
     "referenced_type" : "_ZTIPKv"
    },
    {
     "referenced_type" : "_ZTIj"
    }
   ],
   "return_type" : "_ZTIj",
   "source_file" : "external/llvm/include/llvm/Support/MathExtras.h"
  },
  {
   "function_name" : "llvm::alignDown",
   "linker_set_key" : "_ZN4llvm9alignDownEyyy",
   "parameters" :
   [
    {
     "referenced_type" : "_ZTIy"
    },
    {
     "referenced_type" : "_ZTIy"
    },
    {
     "default_arg" : true,
     "referenced_type" : "_ZTIy"
    }
   ],
   "return_type" : "_ZTIy",
   "source_file" : "external/llvm/include/llvm/Support/MathExtras.h"
  },
  {
   "function_name" : "llvm::hash_code::hash_code",
   "linker_set_key" : "_ZN4llvm9hash_codeC1Ej",
   "parameters" :
   [
    {
     "is_this_ptr" : true,
     "referenced_type" : "_ZTIPN4llvm9hash_codeE"
    },
    {
     "referenced_type" : "_ZTIj"
    }
   ],
   "return_type" : "_ZTIv",
   "source_file" : "external/llvm/include/llvm/ADT/Hashing.h"
  },
  {
   "function_name" : "llvm::hash_code::hash_code",
   "linker_set_key" : "_ZN4llvm9hash_codeC1Ev",
   "parameters" :
   [
    {
     "is_this_ptr" : true,
     "referenced_type" : "_ZTIPN4llvm9hash_codeE"
    }
   ],
   "return_type" : "_ZTIv",
   "source_file" : "external/llvm/include/llvm/ADT/Hashing.h"
  },
  {
   "function_name" : "llvm::hash_code::hash_code",
   "linker_set_key" : "_ZN4llvm9hash_codeC2Ej",
   "parameters" :
   [
    {
     "is_this_ptr" : true,
     "referenced_type" : "_ZTIPN4llvm9hash_codeE"
    },
    {
     "referenced_type" : "_ZTIj"
    }
   ],
   "return_type" : "_ZTIv",
   "source_file" : "external/llvm/include/llvm/ADT/Hashing.h"
  },
  {
   "function_name" : "llvm::hash_code::hash_code",
   "linker_set_key" : "_ZN4llvm9hash_codeC2Ev",
   "parameters" :
   [
    {
     "is_this_ptr" : true,
     "referenced_type" : "_ZTIPN4llvm9hash_codeE"
    }
   ],
   "return_type" : "_ZTIv",
   "source_file" : "external/llvm/include/llvm/ADT/Hashing.h"
  },
  {
   "function_name" : "llvm::isMask_32",
   "linker_set_key" : "_ZN4llvm9isMask_32Ej",
   "parameters" :
   [
    {
     "referenced_type" : "_ZTIj"
    }
   ],
   "return_type" : "_ZTIb",
   "source_file" : "external/llvm/include/llvm/Support/MathExtras.h"
  },
  {
   "function_name" : "llvm::isMask_64",
   "linker_set_key" : "_ZN4llvm9isMask_64Ey",
   "parameters" :
   [
    {
     "referenced_type" : "_ZTIy"
    }
   ],
   "return_type" : "_ZTIb",
   "source_file" : "external/llvm/include/llvm/Support/MathExtras.h"
  },
  {
   "function_name" : "llvm::operator==",
   "linker_set_key" : "_ZN4llvmeqENS_9StringRefES0_",
   "parameters" :
   [
    {
     "referenced_type" : "_ZTIN4llvm9StringRefE"
    },
    {
     "referenced_type" : "_ZTIN4llvm9StringRefE"
    }
   ],
   "return_type" : "_ZTIb",
   "source_file" : "external/llvm/include/llvm/ADT/StringRef.h"
  },
  {
   "function_name" : "llvm::operator==",
   "linker_set_key" : "_ZN4llvmeqERKNS_9hash_codeES2_",
   "parameters" :
   [
    {
     "referenced_type" : "_ZTIRKN4llvm9hash_codeE"
    },
    {
     "referenced_type" : "_ZTIRKN4llvm9hash_codeE"
    }
   ],
   "return_type" : "_ZTIb",
   "source_file" : "external/llvm/include/llvm/ADT/Hashing.h"
  },
  {
   "function_name" : "llvm::operator==",
   "linker_set_key" : "_ZN4llvmeqEyRKNS_5APIntE",
   "parameters" :
   [
    {
     "referenced_type" : "_ZTIy"
    },
    {
     "referenced_type" : "_ZTIRKN4llvm5APIntE"
    }
   ],
   "return_type" : "_ZTIb",
   "source_file" : "external/llvm/include/llvm/ADT/APInt.h"
  },
  {
   "function_name" : "llvm::operator>=",
   "linker_set_key" : "_ZN4llvmgeENS_9StringRefES0_",
   "parameters" :
   [
    {
     "referenced_type" : "_ZTIN4llvm9StringRefE"
    },
    {
     "referenced_type" : "_ZTIN4llvm9StringRefE"
    }
   ],
   "return_type" : "_ZTIb",
   "source_file" : "external/llvm/include/llvm/ADT/StringRef.h"
  },
  {
   "function_name" : "llvm::operator>",
   "linker_set_key" : "_ZN4llvmgtENS_9StringRefES0_",
   "parameters" :
   [
    {
     "referenced_type" : "_ZTIN4llvm9StringRefE"
    },
    {
     "referenced_type" : "_ZTIN4llvm9StringRefE"
    }
   ],
   "return_type" : "_ZTIb",
   "source_file" : "external/llvm/include/llvm/ADT/StringRef.h"
  },
  {
   "function_name" : "llvm::operator<=",
   "linker_set_key" : "_ZN4llvmleENS_9StringRefES0_",
   "parameters" :
   [
    {
     "referenced_type" : "_ZTIN4llvm9StringRefE"
    },
    {
     "referenced_type" : "_ZTIN4llvm9StringRefE"
    }
   ],
   "return_type" : "_ZTIb",
   "source_file" : "external/llvm/include/llvm/ADT/StringRef.h"
  },
  {
   "function_name" : "llvm::operator<<",
   "linker_set_key" : "_ZN4llvmlsERNS_11raw_ostreamERKNS_5APIntE",
   "parameters" :
   [
    {
     "referenced_type" : "_ZTIRN4llvm11raw_ostreamE"
    },
    {
     "referenced_type" : "_ZTIRKN4llvm5APIntE"
    }
   ],
   "return_type" : "_ZTIRN4llvm11raw_ostreamE",
   "source_file" : "external/llvm/include/llvm/ADT/APInt.h"
  },
  {
   "function_name" : "llvm::operator<<",
   "linker_set_key" : "_ZN4llvmlsERNS_11raw_ostreamERKNS_5ValueE",
   "parameters" :
   [
    {
     "referenced_type" : "_ZTIRN4llvm11raw_ostreamE"
    },
    {
     "referenced_type" : "_ZTIRKN4llvm5ValueE"
    }
   ],
   "return_type" : "_ZTIRN4llvm11raw_ostreamE",
   "source_file" : "external/llvm/include/llvm/IR/Value.h"
  },
  {
   "function_name" : "llvm::operator<",
   "linker_set_key" : "_ZN4llvmltENS_9StringRefES0_",
   "parameters" :
   [
    {
     "referenced_type" : "_ZTIN4llvm9StringRefE"
    },
    {
     "referenced_type" : "_ZTIN4llvm9StringRefE"
    }
   ],
   "return_type" : "_ZTIb",
   "source_file" : "external/llvm/include/llvm/ADT/StringRef.h"
  },
  {
   "function_name" : "llvm::operator!=",
   "linker_set_key" : "_ZN4llvmneENS_9StringRefES0_",
   "parameters" :
   [
    {
     "referenced_type" : "_ZTIN4llvm9StringRefE"
    },
    {
     "referenced_type" : "_ZTIN4llvm9StringRefE"
    }
   ],
   "return_type" : "_ZTIb",
   "source_file" : "external/llvm/include/llvm/ADT/StringRef.h"
  },
  {
   "function_name" : "llvm::operator!=",
   "linker_set_key" : "_ZN4llvmneERKNS_9hash_codeES2_",
   "parameters" :
   [
    {
     "referenced_type" : "_ZTIRKN4llvm9hash_codeE"
    },
    {
     "referenced_type" : "_ZTIRKN4llvm9hash_codeE"
    }
   ],
   "return_type" : "_ZTIb",
   "source_file" : "external/llvm/include/llvm/ADT/Hashing.h"
  },
  {
   "function_name" : "llvm::operator!=",
   "linker_set_key" : "_ZN4llvmneEyRKNS_5APIntE",
   "parameters" :
   [
    {
     "referenced_type" : "_ZTIy"
    },
    {
     "referenced_type" : "_ZTIRKN4llvm5APIntE"
    }
   ],
   "return_type" : "_ZTIb",
   "source_file" : "external/llvm/include/llvm/ADT/APInt.h"
  },
  {
   "function_name" : "llvm::operator+=",
   "linker_set_key" : "_ZN4llvmpLERNSt3__112basic_stringIcNS0_11char_traitsIcEENS0_9allocatorIcEEEENS_9StringRefE",
   "parameters" :
   [
    {
     "referenced_type" : "_ZTIRNSt3__112basic_stringIcNS_11char_traitsIcEENS_9allocatorIcEEEE"
    },
    {
     "referenced_type" : "_ZTIN4llvm9StringRefE"
    }
   ],
   "return_type" : "_ZTIRNSt3__112basic_stringIcNS_11char_traitsIcEENS_9allocatorIcEEEE",
   "source_file" : "external/llvm/include/llvm/ADT/StringRef.h"
  },
  {
   "function_name" : "llvm::operator+",
   "linker_set_key" : "_ZN4llvmplET2_RKT_",
   "parameters" :
   [
    {
     "referenced_type" : "_ZTIT2_"
    },
    {
     "referenced_type" : "_ZTIRKT_"
    }
   ],
   "return_type" : "_ZTIT_",
   "source_file" : "external/llvm/include/llvm/ADT/iterator.h"
  },
  {
   "function_name" : "llvm::StructType::element_end",
   "linker_set_key" : "_ZNK4llvm10StructType11element_endEv",
   "parameters" :
   [
    {
     "is_this_ptr" : true,
     "referenced_type" : "_ZTIPKN4llvm10StructTypeE"
    }
   ],
   "return_type" : "_ZTIPKPN4llvm4TypeE",
   "source_file" : "external/llvm/include/llvm/IR/DerivedTypes.h"
  },
  {
   "function_name" : "llvm::StructType::element_begin",
   "linker_set_key" : "_ZNK4llvm10StructType13element_beginEv",
   "parameters" :
   [
    {
     "is_this_ptr" : true,
     "referenced_type" : "_ZTIPKN4llvm10StructTypeE"
    }
   ],
   "return_type" : "_ZTIPKPN4llvm4TypeE",
   "source_file" : "external/llvm/include/llvm/IR/DerivedTypes.h"
  },
  {
   "function_name" : "llvm::StructType::getElementType",
   "linker_set_key" : "_ZNK4llvm10StructType14getElementTypeEj",
   "parameters" :
   [
    {
     "is_this_ptr" : true,
     "referenced_type" : "_ZTIPKN4llvm10StructTypeE"
    },
    {
     "referenced_type" : "_ZTIj"
    }
   ],
   "return_type" : "_ZTIPN4llvm4TypeE",
   "source_file" : "external/llvm/include/llvm/IR/DerivedTypes.h"
  },
  {
   "function_name" : "llvm::StructType::getNumElements",
   "linker_set_key" : "_ZNK4llvm10StructType14getNumElementsEv",
   "parameters" :
   [
    {
     "is_this_ptr" : true,
     "referenced_type" : "_ZTIPKN4llvm10StructTypeE"
    }
   ],
   "return_type" : "_ZTIj",
   "source_file" : "external/llvm/include/llvm/IR/DerivedTypes.h"
  },
  {
   "function_name" : "llvm::StructType::hasName",
   "linker_set_key" : "_ZNK4llvm10StructType7hasNameEv",
   "parameters" :
   [
    {
     "is_this_ptr" : true,
     "referenced_type" : "_ZTIPKN4llvm10StructTypeE"
    }
   ],
   "return_type" : "_ZTIb",
   "source_file" : "external/llvm/include/llvm/IR/DerivedTypes.h"
  },
  {
   "function_name" : "llvm::StructType::elements",
   "linker_set_key" : "_ZNK4llvm10StructType8elementsEv",
   "parameters" :
   [
    {
     "is_this_ptr" : true,
     "referenced_type" : "_ZTIPKN4llvm10StructTypeE"
    }
   ],
   "return_type" : "_ZTIKN4llvm8ArrayRefIPNS_4TypeEEE",
   "source_file" : "external/llvm/include/llvm/IR/DerivedTypes.h"
  },
  {
   "function_name" : "llvm::StructType::isOpaque",
   "linker_set_key" : "_ZNK4llvm10StructType8isOpaqueEv",
   "parameters" :
   [
    {
     "is_this_ptr" : true,
     "referenced_type" : "_ZTIPKN4llvm10StructTypeE"
    }
   ],
   "return_type" : "_ZTIb",
   "source_file" : "external/llvm/include/llvm/IR/DerivedTypes.h"
  },
  {
   "function_name" : "llvm::StructType::isPacked",
   "linker_set_key" : "_ZNK4llvm10StructType8isPackedEv",
   "parameters" :
   [
    {
     "is_this_ptr" : true,
     "referenced_type" : "_ZTIPKN4llvm10StructTypeE"
    }
   ],
   "return_type" : "_ZTIb",
   "source_file" : "external/llvm/include/llvm/IR/DerivedTypes.h"
  },
  {
   "function_name" : "llvm::StructType::isLiteral",
   "linker_set_key" : "_ZNK4llvm10StructType9isLiteralEv",
   "parameters" :
   [
    {
     "is_this_ptr" : true,
     "referenced_type" : "_ZTIPKN4llvm10StructTypeE"
    }
   ],
   "return_type" : "_ZTIb",
   "source_file" : "external/llvm/include/llvm/IR/DerivedTypes.h"
  },
  {
   "function_name" : "llvm::VectorType::getBitWidth",
   "linker_set_key" : "_ZNK4llvm10VectorType11getBitWidthEv",
   "parameters" :
   [
    {
     "is_this_ptr" : true,
     "referenced_type" : "_ZTIPKN4llvm10VectorTypeE"
    }
   ],
   "return_type" : "_ZTIj",
   "source_file" : "external/llvm/include/llvm/IR/DerivedTypes.h"
  },
  {
   "function_name" : "llvm::VectorType::getNumElements",
   "linker_set_key" : "_ZNK4llvm10VectorType14getNumElementsEv",
   "parameters" :
   [
    {
     "is_this_ptr" : true,
     "referenced_type" : "_ZTIPKN4llvm10VectorTypeE"
    }
   ],
   "return_type" : "_ZTIj",
   "source_file" : "external/llvm/include/llvm/IR/DerivedTypes.h"
  },
  {
   "function_name" : "llvm::GlobalValue::getLinkage",
   "linker_set_key" : "_ZNK4llvm11GlobalValue10getLinkageEv",
   "parameters" :
   [
    {
     "is_this_ptr" : true,
     "referenced_type" : "_ZTIPKN4llvm11GlobalValueE"
    }
   ],
   "return_type" : "_ZTIN4llvm11GlobalValue12LinkageTypesE",
   "source_file" : "external/llvm/include/llvm/IR/GlobalValue.h"
  },
  {
   "function_name" : "llvm::GlobalValue::hasSection",
   "linker_set_key" : "_ZNK4llvm11GlobalValue10hasSectionEv",
   "parameters" :
   [
    {
     "is_this_ptr" : true,
     "referenced_type" : "_ZTIPKN4llvm11GlobalValueE"
    }
   ],
   "return_type" : "_ZTIb",
   "source_file" : "external/llvm/include/llvm/IR/GlobalValue.h"
  },
  {
   "function_name" : "llvm::GlobalValue::getValueType",
   "linker_set_key" : "_ZNK4llvm11GlobalValue12getValueTypeEv",
   "parameters" :
   [
    {
     "is_this_ptr" : true,
     "referenced_type" : "_ZTIPKN4llvm11GlobalValueE"
    }
   ],
   "return_type" : "_ZTIPN4llvm4TypeE",
   "source_file" : "external/llvm/include/llvm/IR/GlobalValue.h"
  },
  {
   "function_name" : "llvm::GlobalValue::getVisibility",
   "linker_set_key" : "_ZNK4llvm11GlobalValue13getVisibilityEv",
   "parameters" :
   [
    {
     "is_this_ptr" : true,
     "referenced_type" : "_ZTIPKN4llvm11GlobalValueE"
    }
   ],
   "return_type" : "_ZTIN4llvm11GlobalValue15VisibilityTypesE",
   "source_file" : "external/llvm/include/llvm/IR/GlobalValue.h"
  },
  {
   "function_name" : "llvm::GlobalValue::isThreadLocal",
   "linker_set_key" : "_ZNK4llvm11GlobalValue13isThreadLocalEv",
   "parameters" :
   [
    {
     "is_this_ptr" : true,
     "referenced_type" : "_ZTIPKN4llvm11GlobalValueE"
    }
   ],
   "return_type" : "_ZTIb",
   "source_file" : "external/llvm/include/llvm/IR/GlobalValue.h"
  },
  {
   "function_name" : "llvm::GlobalValue::getUnnamedAddr",
   "linker_set_key" : "_ZNK4llvm11GlobalValue14getUnnamedAddrEv",
   "parameters" :
   [
    {
     "is_this_ptr" : true,
     "referenced_type" : "_ZTIPKN4llvm11GlobalValueE"
    }
   ],
   "return_type" : "_ZTIN4llvm11GlobalValue11UnnamedAddrE",
   "source_file" : "external/llvm/include/llvm/IR/GlobalValue.h"
  },
  {
   "function_name" : "llvm::GlobalValue::hasWeakLinkage",
   "linker_set_key" : "_ZNK4llvm11GlobalValue14hasWeakLinkageEv",
   "parameters" :
   [
    {
     "is_this_ptr" : true,
     "referenced_type" : "_ZTIPKN4llvm11GlobalValueE"
    }
   ],
   "return_type" : "_ZTIb",
   "source_file" : "external/llvm/include/llvm/IR/GlobalValue.h"
  },
  {
   "function_name" : "llvm::GlobalValue::isInterposable",
   "linker_set_key" : "_ZNK4llvm11GlobalValue14isInterposableEv",
   "parameters" :
   [
    {
     "is_this_ptr" : true,
     "referenced_type" : "_ZTIPKN4llvm11GlobalValueE"
    }
   ],
   "return_type" : "_ZTIb",
   "source_file" : "external/llvm/include/llvm/IR/GlobalValue.h"
  },
  {
   "access" : "private",
   "function_name" : "llvm::GlobalValue::mayBeDerefined",
   "linker_set_key" : "_ZNK4llvm11GlobalValue14mayBeDerefinedEv",
   "parameters" :
   [
    {
     "is_this_ptr" : true,
     "referenced_type" : "_ZTIPKN4llvm11GlobalValueE"
    }
   ],
   "return_type" : "_ZTIb",
   "source_file" : "external/llvm/include/llvm/IR/GlobalValue.h"
  },
  {
   "function_name" : "llvm::GlobalValue::hasLocalLinkage",
   "linker_set_key" : "_ZNK4llvm11GlobalValue15hasLocalLinkageEv",
   "parameters" :
   [
    {
     "is_this_ptr" : true,
     "referenced_type" : "_ZTIPKN4llvm11GlobalValueE"
    }
   ],
   "return_type" : "_ZTIb",
   "source_file" : "external/llvm/include/llvm/IR/GlobalValue.h"
  },
  {
   "function_name" : "llvm::GlobalValue::isWeakForLinker",
   "linker_set_key" : "_ZNK4llvm11GlobalValue15isWeakForLinkerEv",
   "parameters" :
   [
    {
     "is_this_ptr" : true,
     "referenced_type" : "_ZTIPKN4llvm11GlobalValueE"
    }
   ],
   "return_type" : "_ZTIb",
   "source_file" : "external/llvm/include/llvm/IR/GlobalValue.h"
  },
  {
   "function_name" : "llvm::GlobalValue::hasCommonLinkage",
   "linker_set_key" : "_ZNK4llvm11GlobalValue16hasCommonLinkageEv",
   "parameters" :
   [
    {
     "is_this_ptr" : true,
     "referenced_type" : "_ZTIPKN4llvm11GlobalValueE"
    }
   ],
   "return_type" : "_ZTIb",
   "source_file" : "external/llvm/include/llvm/IR/GlobalValue.h"
  },
  {
   "function_name" : "llvm::GlobalValue::hasPrivateLinkage",
   "linker_set_key" : "_ZNK4llvm11GlobalValue17hasPrivateLinkageEv",
   "parameters" :
   [
    {
     "is_this_ptr" : true,
     "referenced_type" : "_ZTIPKN4llvm11GlobalValueE"
    }
   ],
   "return_type" : "_ZTIb",
   "source_file" : "external/llvm/include/llvm/IR/GlobalValue.h"
  },
  {
   "function_name" : "llvm::GlobalValue::hasWeakAnyLinkage",
   "linker_set_key" : "_ZNK4llvm11GlobalValue17hasWeakAnyLinkageEv",
   "parameters" :
   [
    {
     "is_this_ptr" : true,
     "referenced_type" : "_ZTIPKN4llvm11GlobalValueE"
    }
   ],
   "return_type" : "_ZTIb",
   "source_file" : "external/llvm/include/llvm/IR/GlobalValue.h"
  },
  {
   "function_name" : "llvm::GlobalValue::hasWeakODRLinkage",
   "linker_set_key" : "_ZNK4llvm11GlobalValue17hasWeakODRLinkageEv",
   "parameters" :
   [
    {
     "is_this_ptr" : true,
     "referenced_type" : "_ZTIPKN4llvm11GlobalValueE"
    }
   ],
   "return_type" : "_ZTIb",
   "source_file" : "external/llvm/include/llvm/IR/GlobalValue.h"
  },
  {
   "function_name" : "llvm::GlobalValue::isDefinitionExact",
   "linker_set_key" : "_ZNK4llvm11GlobalValue17isDefinitionExactEv",
   "parameters" :
   [
    {
     "is_this_ptr" : true,
     "referenced_type" : "_ZTIPKN4llvm11GlobalValueE"
    }
   ],
   "return_type" : "_ZTIb",
   "source_file" : "external/llvm/include/llvm/IR/GlobalValue.h"
  },
  {
   "function_name" : "llvm::GlobalValue::getDLLStorageClass",
   "linker_set_key" : "_ZNK4llvm11GlobalValue18getDLLStorageClassEv",
   "parameters" :
   [
    {
     "is_this_ptr" : true,
     "referenced_type" : "_ZTIPKN4llvm11GlobalValueE"
    }
   ],
   "return_type" : "_ZTIN4llvm11GlobalValue20DLLStorageClassTypesE",
   "source_file" : "external/llvm/include/llvm/IR/GlobalValue.h"
  },
  {
   "function_name" : "llvm::GlobalValue::getThreadLocalMode",
   "linker_set_key" : "_ZNK4llvm11GlobalValue18getThreadLocalModeEv",
   "parameters" :
   [
    {
     "is_this_ptr" : true,
     "referenced_type" : "_ZTIPKN4llvm11GlobalValueE"
    }
   ],
   "return_type" : "_ZTIN4llvm11GlobalValue15ThreadLocalModeE",
   "source_file" : "external/llvm/include/llvm/IR/GlobalValue.h"
  },
  {
   "function_name" : "llvm::GlobalValue::hasExactDefinition",
   "linker_set_key" : "_ZNK4llvm11GlobalValue18hasExactDefinitionEv",
   "parameters" :
   [
    {
     "is_this_ptr" : true,
     "referenced_type" : "_ZTIPKN4llvm11GlobalValueE"
    }
   ],
   "return_type" : "_ZTIb",
   "source_file" : "external/llvm/include/llvm/IR/GlobalValue.h"
  },
  {
   "function_name" : "llvm::GlobalValue::hasExternalLinkage",
   "linker_set_key" : "_ZNK4llvm11GlobalValue18hasExternalLinkageEv",
   "parameters" :
   [
    {
     "is_this_ptr" : true,
     "referenced_type" : "_ZTIPKN4llvm11GlobalValueE"
    }
   ],
   "return_type" : "_ZTIb",
   "source_file" : "external/llvm/include/llvm/IR/GlobalValue.h"
  },
  {
   "function_name" : "llvm::GlobalValue::hasInternalLinkage",
   "linker_set_key" : "_ZNK4llvm11GlobalValue18hasInternalLinkageEv",
   "parameters" :
   [
    {
     "is_this_ptr" : true,
     "referenced_type" : "_ZTIPKN4llvm11GlobalValueE"
    }
   ],
   "return_type" : "_ZTIb",
   "source_file" : "external/llvm/include/llvm/IR/GlobalValue.h"
  },
  {
   "function_name" : "llvm::GlobalValue::hasLinkOnceLinkage",
   "linker_set_key" : "_ZNK4llvm11GlobalValue18hasLinkOnceLinkageEv",
   "parameters" :
   [
    {
     "is_this_ptr" : true,
     "referenced_type" : "_ZTIPKN4llvm11GlobalValueE"
    }
   ],
   "return_type" : "_ZTIb",
   "source_file" : "external/llvm/include/llvm/IR/GlobalValue.h"
  },
  {
   "function_name" : "llvm::GlobalValue::hasAppendingLinkage",
   "linker_set_key" : "_ZNK4llvm11GlobalValue19hasAppendingLinkageEv",
   "parameters" :
   [
    {
     "is_this_ptr" : true,
     "referenced_type" : "_ZTIPKN4llvm11GlobalValueE"
    }
   ],
   "return_type" : "_ZTIb",
   "source_file" : "external/llvm/include/llvm/IR/GlobalValue.h"
  },
  {
   "function_name" : "llvm::GlobalValue::hasHiddenVisibility",
   "linker_set_key" : "_ZNK4llvm11GlobalValue19hasHiddenVisibilityEv",
   "parameters" :
   [
    {
     "is_this_ptr" : true,
     "referenced_type" : "_ZTIPKN4llvm11GlobalValueE"
    }
   ],
   "return_type" : "_ZTIb",
   "source_file" : "external/llvm/include/llvm/IR/GlobalValue.h"
  },
  {
   "function_name" : "llvm::GlobalValue::hasDefaultVisibility",
   "linker_set_key" : "_ZNK4llvm11GlobalValue20hasDefaultVisibilityEv",
   "parameters" :
   [
    {
     "is_this_ptr" : true,
     "referenced_type" : "_ZTIPKN4llvm11GlobalValueE"
    }
   ],
   "return_type" : "_ZTIb",
   "source_file" : "external/llvm/include/llvm/IR/GlobalValue.h"
  },
  {
   "function_name" : "llvm::GlobalValue::hasGlobalUnnamedAddr",
   "linker_set_key" : "_ZNK4llvm11GlobalValue20hasGlobalUnnamedAddrEv",
   "parameters" :
   [
    {
     "is_this_ptr" : true,
     "referenced_type" : "_ZTIPKN4llvm11GlobalValueE"
    }
   ],
   "return_type" : "_ZTIb",
   "source_file" : "external/llvm/include/llvm/IR/GlobalValue.h"
  },
  {
   "function_name" : "llvm::GlobalValue::hasLinkOnceODRLinkage",
   "linker_set_key" : "_ZNK4llvm11GlobalValue21hasLinkOnceODRLinkageEv",
   "parameters" :
   [
    {
     "is_this_ptr" : true,
     "referenced_type" : "_ZTIPKN4llvm11GlobalValueE"
    }
   ],
   "return_type" : "_ZTIb",
   "source_file" : "external/llvm/include/llvm/IR/GlobalValue.h"
  },
  {
   "function_name" : "llvm::GlobalValue::isDiscardableIfUnused",
   "linker_set_key" : "_ZNK4llvm11GlobalValue21isDiscardableIfUnusedEv",
   "parameters" :
   [
    {
     "is_this_ptr" : true,
     "referenced_type" : "_ZTIPKN4llvm11GlobalValueE"
    }
   ],
   "return_type" : "_ZTIb",
   "source_file" : "external/llvm/include/llvm/IR/GlobalValue.h"
  },
  {
   "function_name" : "llvm::GlobalValue::hasExternalWeakLinkage",
   "linker_set_key" : "_ZNK4llvm11GlobalValue22hasExternalWeakLinkageEv",
   "parameters" :
   [
    {
     "is_this_ptr" : true,
     "referenced_type" : "_ZTIPKN4llvm11GlobalValueE"
    }
   ],
   "return_type" : "_ZTIb",
   "source_file" : "external/llvm/include/llvm/IR/GlobalValue.h"
  },
  {
   "function_name" : "llvm::GlobalValue::hasProtectedVisibility",
   "linker_set_key" : "_ZNK4llvm11GlobalValue22hasProtectedVisibilityEv",
   "parameters" :
   [
    {
     "is_this_ptr" : true,
     "referenced_type" : "_ZTIPKN4llvm11GlobalValueE"
    }
   ],
   "return_type" : "_ZTIb",
   "source_file" : "external/llvm/include/llvm/IR/GlobalValue.h"
  },
  {
   "function_name" : "llvm::GlobalValue::isDeclarationForLinker",
   "linker_set_key" : "_ZNK4llvm11GlobalValue22isDeclarationForLinkerEv",
   "parameters" :
   [
    {
     "is_this_ptr" : true,
     "referenced_type" : "_ZTIPKN4llvm11GlobalValueE"
    }
   ],
   "return_type" : "_ZTIb",
   "source_file" : "external/llvm/include/llvm/IR/GlobalValue.h"
  },
  {
   "function_name" : "llvm::GlobalValue::hasDLLExportStorageClass",
   "linker_set_key" : "_ZNK4llvm11GlobalValue24hasDLLExportStorageClassEv",
   "parameters" :
   [
    {
     "is_this_ptr" : true,
     "referenced_type" : "_ZTIPKN4llvm11GlobalValueE"
    }
   ],
   "return_type" : "_ZTIb",
   "source_file" : "external/llvm/include/llvm/IR/GlobalValue.h"
  },
  {
   "function_name" : "llvm::GlobalValue::hasDLLImportStorageClass",
   "linker_set_key" : "_ZNK4llvm11GlobalValue24hasDLLImportStorageClassEv",
   "parameters" :
   [
    {
     "is_this_ptr" : true,
     "referenced_type" : "_ZTIPKN4llvm11GlobalValueE"
    }
   ],
   "return_type" : "_ZTIb",
   "source_file" : "external/llvm/include/llvm/IR/GlobalValue.h"
  },
  {
   "access" : "protected",
   "function_name" : "llvm::GlobalValue::getGlobalValueSubClassData",
   "linker_set_key" : "_ZNK4llvm11GlobalValue26getGlobalValueSubClassDataEv",
   "parameters" :
   [
    {
     "is_this_ptr" : true,
     "referenced_type" : "_ZTIPKN4llvm11GlobalValueE"
    }
   ],
   "return_type" : "_ZTIj",
   "source_file" : "external/llvm/include/llvm/IR/GlobalValue.h"
  },
  {
   "function_name" : "llvm::GlobalValue::hasAtLeastLocalUnnamedAddr",
   "linker_set_key" : "_ZNK4llvm11GlobalValue26hasAtLeastLocalUnnamedAddrEv",
   "parameters" :
   [
    {
     "is_this_ptr" : true,
     "referenced_type" : "_ZTIPKN4llvm11GlobalValueE"
    }
   ],
   "return_type" : "_ZTIb",
   "source_file" : "external/llvm/include/llvm/IR/GlobalValue.h"
  },
  {
   "function_name" : "llvm::GlobalValue::hasValidDeclarationLinkage",
   "linker_set_key" : "_ZNK4llvm11GlobalValue26hasValidDeclarationLinkageEv",
   "parameters" :
   [
    {
     "is_this_ptr" : true,
     "referenced_type" : "_ZTIPKN4llvm11GlobalValueE"
    }
   ],
   "return_type" : "_ZTIb",
   "source_file" : "external/llvm/include/llvm/IR/GlobalValue.h"
  },
  {
   "function_name" : "llvm::GlobalValue::isStrongDefinitionForLinker",
   "linker_set_key" : "_ZNK4llvm11GlobalValue27isStrongDefinitionForLinkerEv",
   "parameters" :
   [
    {
     "is_this_ptr" : true,
     "referenced_type" : "_ZTIPKN4llvm11GlobalValueE"
    }
   ],
   "return_type" : "_ZTIb",
   "source_file" : "external/llvm/include/llvm/IR/GlobalValue.h"
  },
  {
   "function_name" : "llvm::GlobalValue::hasAvailableExternallyLinkage",
   "linker_set_key" : "_ZNK4llvm11GlobalValue29hasAvailableExternallyLinkageEv",
   "parameters" :
   [
    {
     "is_this_ptr" : true,
     "referenced_type" : "_ZTIPKN4llvm11GlobalValueE"
    }
   ],
   "return_type" : "_ZTIb",
   "source_file" : "external/llvm/include/llvm/IR/GlobalValue.h"
  },
  {
   "function_name" : "llvm::GlobalValue::getGUID",
   "linker_set_key" : "_ZNK4llvm11GlobalValue7getGUIDEv",
   "parameters" :
   [
    {
     "is_this_ptr" : true,
     "referenced_type" : "_ZTIPKN4llvm11GlobalValueE"
    }
   ],
   "return_type" : "_ZTIy",
   "source_file" : "external/llvm/include/llvm/IR/GlobalValue.h"
  },
  {
   "function_name" : "llvm::GlobalValue::getType",
   "linker_set_key" : "_ZNK4llvm11GlobalValue7getTypeEv",
   "parameters" :
   [
    {
     "is_this_ptr" : true,
     "referenced_type" : "_ZTIPKN4llvm11GlobalValueE"
    }
   ],
   "return_type" : "_ZTIPN4llvm11PointerTypeE",
   "source_file" : "external/llvm/include/llvm/IR/GlobalValue.h"
  },
  {
   "function_name" : "llvm::GlobalValue::getComdat",
   "linker_set_key" : "_ZNK4llvm11GlobalValue9getComdatEv",
   "parameters" :
   [
    {
     "is_this_ptr" : true,
     "referenced_type" : "_ZTIPKN4llvm11GlobalValueE"
    }
   ],
   "return_type" : "_ZTIPKN4llvm6ComdatE",
   "source_file" : "external/llvm/include/llvm/IR/GlobalValue.h"
  },
  {
   "function_name" : "llvm::GlobalValue::getParent",
   "linker_set_key" : "_ZNK4llvm11GlobalValue9getParentEv",
   "parameters" :
   [
    {
     "is_this_ptr" : true,
     "referenced_type" : "_ZTIPKN4llvm11GlobalValueE"
    }
   ],
   "return_type" : "_ZTIPKN4llvm6ModuleE",
   "source_file" : "external/llvm/include/llvm/IR/GlobalValue.h"
  },
  {
   "function_name" : "llvm::GlobalValue::hasComdat",
   "linker_set_key" : "_ZNK4llvm11GlobalValue9hasComdatEv",
   "parameters" :
   [
    {
     "is_this_ptr" : true,
     "referenced_type" : "_ZTIPKN4llvm11GlobalValueE"
    }
   ],
   "return_type" : "_ZTIb",
   "source_file" : "external/llvm/include/llvm/IR/GlobalValue.h"
  },
  {
   "function_name" : "llvm::IntegerType::getBitMask",
   "linker_set_key" : "_ZNK4llvm11IntegerType10getBitMaskEv",
   "parameters" :
   [
    {
     "is_this_ptr" : true,
     "referenced_type" : "_ZTIPKN4llvm11IntegerTypeE"
    }
   ],
   "return_type" : "_ZTIy",
   "source_file" : "external/llvm/include/llvm/IR/DerivedTypes.h"
  },
  {
   "function_name" : "llvm::IntegerType::getSignBit",
   "linker_set_key" : "_ZNK4llvm11IntegerType10getSignBitEv",
   "parameters" :
   [
    {
     "is_this_ptr" : true,
     "referenced_type" : "_ZTIPKN4llvm11IntegerTypeE"
    }
   ],
   "return_type" : "_ZTIy",
   "source_file" : "external/llvm/include/llvm/IR/DerivedTypes.h"
  },
  {
   "function_name" : "llvm::IntegerType::getBitWidth",
   "linker_set_key" : "_ZNK4llvm11IntegerType11getBitWidthEv",
   "parameters" :
   [
    {
     "is_this_ptr" : true,
     "referenced_type" : "_ZTIPKN4llvm11IntegerTypeE"
    }
   ],
   "return_type" : "_ZTIj",
   "source_file" : "external/llvm/include/llvm/IR/DerivedTypes.h"
  },
  {
   "function_name" : "llvm::PointerType::getAddressSpace",
   "linker_set_key" : "_ZNK4llvm11PointerType15getAddressSpaceEv",
   "parameters" :
   [
    {
     "is_this_ptr" : true,
     "referenced_type" : "_ZTIPKN4llvm11PointerTypeE"
    }
   ],
   "return_type" : "_ZTIj",
   "source_file" : "external/llvm/include/llvm/IR/DerivedTypes.h"
  },
  {
   "function_name" : "llvm::SmallString<256>::str",
   "linker_set_key" : "_ZNK4llvm11SmallStringILj256EE3strEv",
   "parameters" :
   [
    {
     "is_this_ptr" : true,
     "referenced_type" : "_ZTIPKN4llvm11SmallStringILj256EEE"
    }
   ],
   "return_type" : "_ZTIN4llvm9StringRefE",
   "source_file" : "external/llvm/include/llvm/ADT/SmallString.h"
  },
  {
   "function_name" : "llvm::SmallString<256>::operator StringRef",
   "linker_set_key" : "_ZNK4llvm11SmallStringILj256EEcvNS_9StringRefEEv",
   "parameters" :
   [
    {
     "is_this_ptr" : true,
     "referenced_type" : "_ZTIPKN4llvm11SmallStringILj256EEE"
    }
   ],
   "return_type" : "_ZTIN4llvm9StringRefE",
   "source_file" : "external/llvm/include/llvm/ADT/SmallString.h"
  },
  {
   "function_name" : "llvm::raw_ostream::has_colors",
   "linker_set_key" : "_ZNK4llvm11raw_ostream10has_colorsEv",
   "parameters" :
   [
    {
     "is_this_ptr" : true,
     "referenced_type" : "_ZTIPKN4llvm11raw_ostreamE"
    }
   ],
   "return_type" : "_ZTIb",
   "source_file" : "external/llvm/include/llvm/Support/raw_ostream.h"
  },
  {
   "function_name" : "llvm::raw_ostream::is_displayed",
   "linker_set_key" : "_ZNK4llvm11raw_ostream12is_displayedEv",
   "parameters" :
   [
    {
     "is_this_ptr" : true,
     "referenced_type" : "_ZTIPKN4llvm11raw_ostreamE"
    }
   ],
   "return_type" : "_ZTIb",
   "source_file" : "external/llvm/include/llvm/Support/raw_ostream.h"
  },
  {
   "function_name" : "llvm::raw_ostream::GetBufferSize",
   "linker_set_key" : "_ZNK4llvm11raw_ostream13GetBufferSizeEv",
   "parameters" :
   [
    {
     "is_this_ptr" : true,
     "referenced_type" : "_ZTIPKN4llvm11raw_ostreamE"
    }
   ],
   "return_type" : "_ZTIj",
   "source_file" : "external/llvm/include/llvm/Support/raw_ostream.h"
  },
  {
   "access" : "protected",
   "function_name" : "llvm::raw_ostream::getBufferStart",
   "linker_set_key" : "_ZNK4llvm11raw_ostream14getBufferStartEv",
   "parameters" :
   [
    {
     "is_this_ptr" : true,
     "referenced_type" : "_ZTIPKN4llvm11raw_ostreamE"
    }
   ],
   "return_type" : "_ZTIPKc",
   "source_file" : "external/llvm/include/llvm/Support/raw_ostream.h"
  },
  {
   "function_name" : "llvm::raw_ostream::GetNumBytesInBuffer",
   "linker_set_key" : "_ZNK4llvm11raw_ostream19GetNumBytesInBufferEv",
   "parameters" :
   [
    {
     "is_this_ptr" : true,
     "referenced_type" : "_ZTIPKN4llvm11raw_ostreamE"
    }
   ],
   "return_type" : "_ZTIj",
   "source_file" : "external/llvm/include/llvm/Support/raw_ostream.h"
  },
  {
   "function_name" : "llvm::raw_ostream::tell",
   "linker_set_key" : "_ZNK4llvm11raw_ostream4tellEv",
   "parameters" :
   [
    {
     "is_this_ptr" : true,
     "referenced_type" : "_ZTIPKN4llvm11raw_ostreamE"
    }
   ],
   "return_type" : "_ZTIy",
   "source_file" : "external/llvm/include/llvm/Support/raw_ostream.h"
  },
  {
   "function_name" : "llvm::FunctionType::param_begin",
   "linker_set_key" : "_ZNK4llvm12FunctionType11param_beginEv",
   "parameters" :
   [
    {
     "is_this_ptr" : true,
     "referenced_type" : "_ZTIPKN4llvm12FunctionTypeE"
    }
   ],
   "return_type" : "_ZTIPKPN4llvm4TypeE",
   "source_file" : "external/llvm/include/llvm/IR/DerivedTypes.h"
  },
  {
   "function_name" : "llvm::FunctionType::getNumParams",
   "linker_set_key" : "_ZNK4llvm12FunctionType12getNumParamsEv",
   "parameters" :
   [
    {
     "is_this_ptr" : true,
     "referenced_type" : "_ZTIPKN4llvm12FunctionTypeE"
    }
   ],
   "return_type" : "_ZTIj",
   "source_file" : "external/llvm/include/llvm/IR/DerivedTypes.h"
  },
  {
   "function_name" : "llvm::FunctionType::getParamType",
   "linker_set_key" : "_ZNK4llvm12FunctionType12getParamTypeEj",
   "parameters" :
   [
    {
     "is_this_ptr" : true,
     "referenced_type" : "_ZTIPKN4llvm12FunctionTypeE"
    },
    {
     "referenced_type" : "_ZTIj"
    }
   ],
   "return_type" : "_ZTIPN4llvm4TypeE",
   "source_file" : "external/llvm/include/llvm/IR/DerivedTypes.h"
  },
  {
   "function_name" : "llvm::FunctionType::getReturnType",
   "linker_set_key" : "_ZNK4llvm12FunctionType13getReturnTypeEv",
   "parameters" :
   [
    {
     "is_this_ptr" : true,
     "referenced_type" : "_ZTIPKN4llvm12FunctionTypeE"
    }
   ],
   "return_type" : "_ZTIPN4llvm4TypeE",
   "source_file" : "external/llvm/include/llvm/IR/DerivedTypes.h"
  },
  {
   "function_name" : "llvm::FunctionType::params",
   "linker_set_key" : "_ZNK4llvm12FunctionType6paramsEv",
   "parameters" :
   [
    {
     "is_this_ptr" : true,
     "referenced_type" : "_ZTIPKN4llvm12FunctionTypeE"
    }
   ],
   "return_type" : "_ZTIN4llvm8ArrayRefIPNS_4TypeEEE",
   "source_file" : "external/llvm/include/llvm/IR/DerivedTypes.h"
  },
  {
   "function_name" : "llvm::FunctionType::isVarArg",
   "linker_set_key" : "_ZNK4llvm12FunctionType8isVarArgEv",
   "parameters" :
   [
    {
     "is_this_ptr" : true,
     "referenced_type" : "_ZTIPKN4llvm12FunctionTypeE"
    }
   ],
   "return_type" : "_ZTIb",
   "source_file" : "external/llvm/include/llvm/IR/DerivedTypes.h"
  },
  {
   "function_name" : "llvm::FunctionType::param_end",
   "linker_set_key" : "_ZNK4llvm12FunctionType9param_endEv",
   "parameters" :
   [
    {
     "is_this_ptr" : true,
     "referenced_type" : "_ZTIPKN4llvm12FunctionTypeE"
    }
   ],
   "return_type" : "_ZTIPKPN4llvm4TypeE",
   "source_file" : "external/llvm/include/llvm/IR/DerivedTypes.h"
  },
  {
   "function_name" : "llvm::StringMapImpl::getNumItems",
   "linker_set_key" : "_ZNK4llvm13StringMapImpl11getNumItemsEv",
   "parameters" :
   [
    {
     "is_this_ptr" : true,
     "referenced_type" : "_ZTIPKN4llvm13StringMapImplE"
    }
   ],
   "return_type" : "_ZTIj",
   "source_file" : "external/llvm/include/llvm/ADT/StringMap.h"
  },
  {
   "function_name" : "llvm::StringMapImpl::getNumBuckets",
   "linker_set_key" : "_ZNK4llvm13StringMapImpl13getNumBucketsEv",
   "parameters" :
   [
    {
     "is_this_ptr" : true,
     "referenced_type" : "_ZTIPKN4llvm13StringMapImplE"
    }
   ],
   "return_type" : "_ZTIj",
   "source_file" : "external/llvm/include/llvm/ADT/StringMap.h"
  },
  {
   "function_name" : "llvm::StringMapImpl::size",
   "linker_set_key" : "_ZNK4llvm13StringMapImpl4sizeEv",
   "parameters" :
   [
    {
     "is_this_ptr" : true,
     "referenced_type" : "_ZTIPKN4llvm13StringMapImplE"
    }
   ],
   "return_type" : "_ZTIj",
   "source_file" : "external/llvm/include/llvm/ADT/StringMap.h"
  },
  {
   "function_name" : "llvm::StringMapImpl::empty",
   "linker_set_key" : "_ZNK4llvm13StringMapImpl5emptyEv",
   "parameters" :
   [
    {
     "is_this_ptr" : true,
     "referenced_type" : "_ZTIPKN4llvm13StringMapImplE"
    }
   ],
   "return_type" : "_ZTIb",
   "source_file" : "external/llvm/include/llvm/ADT/StringMap.h"
  },
  {
   "function_name" : "llvm::PointerIntPair<llvm::Use **, 2, llvm::Use::PrevPtrTag, llvm::PointerLikeTypeTraits<llvm::Use **>, llvm::PointerIntPairInfo<llvm::Use **, 2, llvm::PointerLikeTypeTraits<llvm::Use **>>>::getPointer",
   "linker_set_key" : "_ZNK4llvm14PointerIntPairIPPNS_3UseELj2ENS1_10PrevPtrTagENS_21PointerLikeTypeTraitsIS3_EENS_18PointerIntPairInfoIS3_Lj2ES6_EEE10getPointerEv",
   "parameters" :
   [
    {
     "is_this_ptr" : true,
     "referenced_type" : "_ZTIPKN4llvm14PointerIntPairIPPNS_3UseELj2ENS1_10PrevPtrTagENS_21PointerLikeTypeTraitsIS3_EENS_18PointerIntPairInfoIS3_Lj2ES6_EEEE"
    }
   ],
   "return_type" : "_ZTIPPN4llvm3UseE",
   "source_file" : "external/llvm/include/llvm/ADT/PointerIntPair.h"
  },
  {
   "function_name" : "llvm::SequentialType::getElementType",
   "linker_set_key" : "_ZNK4llvm14SequentialType14getElementTypeEv",
   "parameters" :
   [
    {
     "is_this_ptr" : true,
     "referenced_type" : "_ZTIPKN4llvm14SequentialTypeE"
    }
   ],
   "return_type" : "_ZTIPN4llvm4TypeE",
   "source_file" : "external/llvm/include/llvm/IR/DerivedTypes.h"
  },
  {
   "function_name" : "llvm::StringMapEntry<llvm::Value *>::getKeyData",
   "linker_set_key" : "_ZNK4llvm14StringMapEntryIPNS_5ValueEE10getKeyDataEv",
   "parameters" :
   [
    {
     "is_this_ptr" : true,
     "referenced_type" : "_ZTIPKN4llvm14StringMapEntryIPNS_5ValueEEE"
    }
   ],
   "return_type" : "_ZTIPKc",
   "source_file" : "external/llvm/include/llvm/ADT/StringMap.h"
  },
  {
   "function_name" : "llvm::StringMapEntry<llvm::Value *>::getKey",
   "linker_set_key" : "_ZNK4llvm14StringMapEntryIPNS_5ValueEE6getKeyEv",
   "parameters" :
   [
    {
     "is_this_ptr" : true,
     "referenced_type" : "_ZTIPKN4llvm14StringMapEntryIPNS_5ValueEEE"
    }
   ],
   "return_type" : "_ZTIN4llvm9StringRefE",
   "source_file" : "external/llvm/include/llvm/ADT/StringMap.h"
  },
  {
   "function_name" : "llvm::StringMapEntry<llvm::Value *>::getValue",
   "linker_set_key" : "_ZNK4llvm14StringMapEntryIPNS_5ValueEE8getValueEv",
   "parameters" :
   [
    {
     "is_this_ptr" : true,
     "referenced_type" : "_ZTIPKN4llvm14StringMapEntryIPNS_5ValueEEE"
    }
   ],
   "return_type" : "_ZTIRKPN4llvm5ValueE",
   "source_file" : "external/llvm/include/llvm/ADT/StringMap.h"
  },
  {
   "function_name" : "llvm::iterator_range<llvm::Use *>::end",
   "linker_set_key" : "_ZNK4llvm14iterator_rangeIPNS_3UseEE3endEv",
   "parameters" :
   [
    {
     "is_this_ptr" : true,
     "referenced_type" : "_ZTIPKN4llvm14iterator_rangeIPNS_3UseEEE"
    }
   ],
   "return_type" : "_ZTIPN4llvm3UseE",
   "source_file" : "external/llvm/include/llvm/ADT/iterator_range.h"
  },
  {
   "function_name" : "llvm::iterator_range<llvm::Use *>::begin",
   "linker_set_key" : "_ZNK4llvm14iterator_rangeIPNS_3UseEE5beginEv",
   "parameters" :
   [
    {
     "is_this_ptr" : true,
     "referenced_type" : "_ZTIPKN4llvm14iterator_rangeIPNS_3UseEEE"
    }
   ],
   "return_type" : "_ZTIPN4llvm3UseE",
   "source_file" : "external/llvm/include/llvm/ADT/iterator_range.h"
  },
  {
   "access" : "private",
   "function_name" : "llvm::raw_fd_ostream::current_pos",
   "linker_set_key" : "_ZNK4llvm14raw_fd_ostream11current_posEv",
   "parameters" :
   [
    {
     "is_this_ptr" : true,
     "referenced_type" : "_ZTIPKN4llvm14raw_fd_ostreamE"
    }
   ],
   "return_type" : "_ZTIy",
   "source_file" : "external/llvm/include/llvm/Support/raw_ostream.h"
  },
  {
   "function_name" : "llvm::raw_fd_ostream::has_error",
   "linker_set_key" : "_ZNK4llvm14raw_fd_ostream9has_errorEv",
   "parameters" :
   [
    {
     "is_this_ptr" : true,
     "referenced_type" : "_ZTIPKN4llvm14raw_fd_ostreamE"
    }
   ],
   "return_type" : "_ZTIb",
   "source_file" : "external/llvm/include/llvm/Support/raw_ostream.h"
  },
  {
   "function_name" : "llvm::MallocAllocator::PrintStats",
   "linker_set_key" : "_ZNK4llvm15MallocAllocator10PrintStatsEv",
   "parameters" :
   [
    {
     "is_this_ptr" : true,
     "referenced_type" : "_ZTIPKN4llvm15MallocAllocatorE"
    }
   ],
   "return_type" : "_ZTIv",
   "source_file" : "external/llvm/include/llvm/Support/Allocator.h"
  },
  {
   "function_name" : "llvm::SmallVectorBase::size_in_bytes",
   "linker_set_key" : "_ZNK4llvm15SmallVectorBase13size_in_bytesEv",
   "parameters" :
   [
    {
     "is_this_ptr" : true,
     "referenced_type" : "_ZTIPKN4llvm15SmallVectorBaseE"
    }
   ],
   "return_type" : "_ZTIj",
   "source_file" : "external/llvm/include/llvm/ADT/SmallVector.h"
  },
  {
   "function_name" : "llvm::SmallVectorBase::capacity_in_bytes",
   "linker_set_key" : "_ZNK4llvm15SmallVectorBase17capacity_in_bytesEv",
   "parameters" :
   [
    {
     "is_this_ptr" : true,
     "referenced_type" : "_ZTIPKN4llvm15SmallVectorBaseE"
    }
   ],
   "return_type" : "_ZTIj",
   "source_file" : "external/llvm/include/llvm/ADT/SmallVector.h"
  },
  {
   "function_name" : "llvm::SmallVectorBase::empty",
   "linker_set_key" : "_ZNK4llvm15SmallVectorBase5emptyEv",
   "parameters" :
   [
    {
     "is_this_ptr" : true,
     "referenced_type" : "_ZTIPKN4llvm15SmallVectorBaseE"
    }
   ],
   "return_type" : "_ZTIb",
   "source_file" : "external/llvm/include/llvm/ADT/SmallVector.h"
  },
  {
   "function_name" : "llvm::ValueSymbolTable::end",
   "linker_set_key" : "_ZNK4llvm16ValueSymbolTable3endEv",
   "parameters" :
   [
    {
     "is_this_ptr" : true,
     "referenced_type" : "_ZTIPKN4llvm16ValueSymbolTableE"
    }
   ],
   "return_type" : "_ZTIN4llvm22StringMapConstIteratorIPNS_5ValueEEE",
   "source_file" : "external/llvm/include/llvm/IR/ValueSymbolTable.h"
  },
  {
   "function_name" : "llvm::ValueSymbolTable::dump",
   "linker_set_key" : "_ZNK4llvm16ValueSymbolTable4dumpEv",
   "parameters" :
   [
    {
     "is_this_ptr" : true,
     "referenced_type" : "_ZTIPKN4llvm16ValueSymbolTableE"
    }
   ],
   "return_type" : "_ZTIv",
   "source_file" : "external/llvm/include/llvm/IR/ValueSymbolTable.h"
  },
  {
   "function_name" : "llvm::ValueSymbolTable::size",
   "linker_set_key" : "_ZNK4llvm16ValueSymbolTable4sizeEv",
   "parameters" :
   [
    {
     "is_this_ptr" : true,
     "referenced_type" : "_ZTIPKN4llvm16ValueSymbolTableE"
    }
   ],
   "return_type" : "_ZTIj",
   "source_file" : "external/llvm/include/llvm/IR/ValueSymbolTable.h"
  },
  {
   "function_name" : "llvm::ValueSymbolTable::begin",
   "linker_set_key" : "_ZNK4llvm16ValueSymbolTable5beginEv",
   "parameters" :
   [
    {
     "is_this_ptr" : true,
     "referenced_type" : "_ZTIPKN4llvm16ValueSymbolTableE"
    }
   ],
   "return_type" : "_ZTIN4llvm22StringMapConstIteratorIPNS_5ValueEEE",
   "source_file" : "external/llvm/include/llvm/IR/ValueSymbolTable.h"
  },
  {
   "function_name" : "llvm::ValueSymbolTable::empty",
   "linker_set_key" : "_ZNK4llvm16ValueSymbolTable5emptyEv",
   "parameters" :
   [
    {
     "is_this_ptr" : true,
     "referenced_type" : "_ZTIPKN4llvm16ValueSymbolTableE"
    }
   ],
   "return_type" : "_ZTIb",
   "source_file" : "external/llvm/include/llvm/IR/ValueSymbolTable.h"
  },
  {
   "function_name" : "llvm::ValueSymbolTable::lookup",
   "linker_set_key" : "_ZNK4llvm16ValueSymbolTable6lookupENS_9StringRefE",
   "parameters" :
   [
    {
     "is_this_ptr" : true,
     "referenced_type" : "_ZTIPKN4llvm16ValueSymbolTableE"
    },
    {
     "referenced_type" : "_ZTIN4llvm9StringRefE"
    }
   ],
   "return_type" : "_ZTIPN4llvm5ValueE",
   "source_file" : "external/llvm/include/llvm/IR/ValueSymbolTable.h"
  },
  {
   "function_name" : "llvm::StringMapIterator<llvm::Value *>::operator*",
   "linker_set_key" : "_ZNK4llvm17StringMapIteratorIPNS_5ValueEEdeEv",
   "parameters" :
   [
    {
     "is_this_ptr" : true,
     "referenced_type" : "_ZTIPKN4llvm17StringMapIteratorIPNS_5ValueEEE"
    }
   ],
   "return_type" : "_ZTIRN4llvm14StringMapEntryIPNS_5ValueEEE",
   "source_file" : "external/llvm/include/llvm/ADT/StringMap.h"
  },
  {
   "function_name" : "llvm::StringMapEntryBase::getKeyLength",
   "linker_set_key" : "_ZNK4llvm18StringMapEntryBase12getKeyLengthEv",
   "parameters" :
   [
    {
     "is_this_ptr" : true,
     "referenced_type" : "_ZTIPKN4llvm18StringMapEntryBaseE"
    }
   ],
   "return_type" : "_ZTIj",
   "source_file" : "external/llvm/include/llvm/ADT/StringMap.h"
  },
  {
   "access" : "private",
   "function_name" : "llvm::raw_string_ostream::current_pos",
   "linker_set_key" : "_ZNK4llvm18raw_string_ostream11current_posEv",
   "parameters" :
   [
    {
     "is_this_ptr" : true,
     "referenced_type" : "_ZTIPKN4llvm18raw_string_ostreamE"
    }
   ],
   "return_type" : "_ZTIy",
   "source_file" : "external/llvm/include/llvm/Support/raw_ostream.h"
  },
  {
   "access" : "protected",
   "function_name" : "llvm::SmallPtrSetImplBase::EndPointer",
   "linker_set_key" : "_ZNK4llvm19SmallPtrSetImplBase10EndPointerEv",
   "parameters" :
   [
    {
     "is_this_ptr" : true,
     "referenced_type" : "_ZTIPKN4llvm19SmallPtrSetImplBaseE"
    }
   ],
   "return_type" : "_ZTIPPKv",
   "source_file" : "external/llvm/include/llvm/ADT/SmallPtrSet.h"
  },
  {
   "function_name" : "llvm::SmallPtrSetImplBase::size",
   "linker_set_key" : "_ZNK4llvm19SmallPtrSetImplBase4sizeEv",
   "parameters" :
   [
    {
     "is_this_ptr" : true,
     "referenced_type" : "_ZTIPKN4llvm19SmallPtrSetImplBaseE"
    }
   ],
   "return_type" : "_ZTIj",
   "source_file" : "external/llvm/include/llvm/ADT/SmallPtrSet.h"
  },
  {
   "function_name" : "llvm::SmallPtrSetImplBase::empty",
   "linker_set_key" : "_ZNK4llvm19SmallPtrSetImplBase5emptyEv",
   "parameters" :
   [
    {
     "is_this_ptr" : true,
     "referenced_type" : "_ZTIPKN4llvm19SmallPtrSetImplBaseE"
    }
   ],
   "return_type" : "_ZTIb",
   "source_file" : "external/llvm/include/llvm/ADT/SmallPtrSet.h"
  },
  {
   "access" : "private",
   "function_name" : "llvm::SmallPtrSetImplBase::isSmall",
   "linker_set_key" : "_ZNK4llvm19SmallPtrSetImplBase7isSmallEv",
   "parameters" :
   [
    {
     "is_this_ptr" : true,
     "referenced_type" : "_ZTIPKN4llvm19SmallPtrSetImplBaseE"
    }
   ],
   "return_type" : "_ZTIb",
   "source_file" : "external/llvm/include/llvm/ADT/SmallPtrSet.h"
  },
  {
   "access" : "protected",
   "function_name" : "llvm::SmallPtrSetImplBase::count_imp",
   "linker_set_key" : "_ZNK4llvm19SmallPtrSetImplBase9count_impEPKv",
   "parameters" :
   [
    {
     "is_this_ptr" : true,
     "referenced_type" : "_ZTIPKN4llvm19SmallPtrSetImplBaseE"
    },
    {
     "referenced_type" : "_ZTIPKv"
    }
   ],
   "return_type" : "_ZTIb",
   "source_file" : "external/llvm/include/llvm/ADT/SmallPtrSet.h"
  },
  {
   "function_name" : "llvm::StringMapConstIterator<llvm::Value *>::operator*",
   "linker_set_key" : "_ZNK4llvm22StringMapConstIteratorIPNS_5ValueEEdeEv",
   "parameters" :
   [
    {
     "is_this_ptr" : true,
     "referenced_type" : "_ZTIPKN4llvm22StringMapConstIteratorIPNS_5ValueEEE"
    }
   ],
   "return_type" : "_ZTIRKN4llvm14StringMapEntryIPNS_5ValueEEE",
   "source_file" : "external/llvm/include/llvm/ADT/StringMap.h"
  },
  {
   "function_name" : "llvm::StringMapConstIterator<llvm::Value *>::operator!=",
   "linker_set_key" : "_ZNK4llvm22StringMapConstIteratorIPNS_5ValueEEneERKS3_",
   "parameters" :
   [
    {
     "is_this_ptr" : true,
     "referenced_type" : "_ZTIPKN4llvm22StringMapConstIteratorIPNS_5ValueEEE"
    },
    {
     "referenced_type" : "_ZTIRKN4llvm22StringMapConstIteratorIPNS_5ValueEEE"
    }
   ],
   "return_type" : "_ZTIb",
   "source_file" : "external/llvm/include/llvm/ADT/StringMap.h"
  },
  {
   "function_name" : "llvm::StringMapConstIterator<llvm::Value *>::operator->",
   "linker_set_key" : "_ZNK4llvm22StringMapConstIteratorIPNS_5ValueEEptEv",
   "parameters" :
   [
    {
     "is_this_ptr" : true,
     "referenced_type" : "_ZTIPKN4llvm22StringMapConstIteratorIPNS_5ValueEEE"
    }
   ],
   "return_type" : "_ZTIPKN4llvm14StringMapEntryIPNS_5ValueEEE",
   "source_file" : "external/llvm/include/llvm/ADT/StringMap.h"
  },
  {
   "function_name" : "llvm::SmallPtrSetIteratorImpl::operator==",
   "linker_set_key" : "_ZNK4llvm23SmallPtrSetIteratorImpleqERKS0_",
   "parameters" :
   [
    {
     "is_this_ptr" : true,
     "referenced_type" : "_ZTIPKN4llvm23SmallPtrSetIteratorImplE"
    },
    {
     "referenced_type" : "_ZTIRKN4llvm23SmallPtrSetIteratorImplE"
    }
   ],
   "return_type" : "_ZTIb",
   "source_file" : "external/llvm/include/llvm/ADT/SmallPtrSet.h"
  },
  {
   "function_name" : "llvm::SmallPtrSetIteratorImpl::operator!=",
   "linker_set_key" : "_ZNK4llvm23SmallPtrSetIteratorImplneERKS0_",
   "parameters" :
   [
    {
     "is_this_ptr" : true,
     "referenced_type" : "_ZTIPKN4llvm23SmallPtrSetIteratorImplE"
    },
    {
     "referenced_type" : "_ZTIRKN4llvm23SmallPtrSetIteratorImplE"
    }
   ],
   "return_type" : "_ZTIb",
   "source_file" : "external/llvm/include/llvm/ADT/SmallPtrSet.h"
  },
  {
   "access" : "protected",
   "function_name" : "llvm::SmallVectorTemplateCommon<char, void>::capacity_ptr",
   "linker_set_key" : "_ZNK4llvm25SmallVectorTemplateCommonIcvE12capacity_ptrEv",
   "parameters" :
   [
    {
     "is_this_ptr" : true,
     "referenced_type" : "_ZTIPKN4llvm25SmallVectorTemplateCommonIcvEE"
    }
   ],
   "return_type" : "_ZTIPKc",
   "source_file" : "external/llvm/include/llvm/ADT/SmallVector.h"
  },
  {
   "function_name" : "llvm::SmallVectorTemplateCommon<char, void>::end",
   "linker_set_key" : "_ZNK4llvm25SmallVectorTemplateCommonIcvE3endEv",
   "parameters" :
   [
    {
     "is_this_ptr" : true,
     "referenced_type" : "_ZTIPKN4llvm25SmallVectorTemplateCommonIcvEE"
    }
   ],
   "return_type" : "_ZTIPKc",
   "source_file" : "external/llvm/include/llvm/ADT/SmallVector.h"
  },
  {
   "function_name" : "llvm::SmallVectorTemplateCommon<char, void>::data",
   "linker_set_key" : "_ZNK4llvm25SmallVectorTemplateCommonIcvE4dataEv",
   "parameters" :
   [
    {
     "is_this_ptr" : true,
     "referenced_type" : "_ZTIPKN4llvm25SmallVectorTemplateCommonIcvEE"
    }
   ],
   "return_type" : "_ZTIPKc",
   "source_file" : "external/llvm/include/llvm/ADT/SmallVector.h"
  },
  {
   "function_name" : "llvm::SmallVectorTemplateCommon<char, void>::size",
   "linker_set_key" : "_ZNK4llvm25SmallVectorTemplateCommonIcvE4sizeEv",
   "parameters" :
   [
    {
     "is_this_ptr" : true,
     "referenced_type" : "_ZTIPKN4llvm25SmallVectorTemplateCommonIcvEE"
    }
   ],
   "return_type" : "_ZTIj",
   "source_file" : "external/llvm/include/llvm/ADT/SmallVector.h"
  },
  {
   "function_name" : "llvm::SmallVectorTemplateCommon<char, void>::begin",
   "linker_set_key" : "_ZNK4llvm25SmallVectorTemplateCommonIcvE5beginEv",
   "parameters" :
   [
    {
     "is_this_ptr" : true,
     "referenced_type" : "_ZTIPKN4llvm25SmallVectorTemplateCommonIcvEE"
    }
   ],
   "return_type" : "_ZTIPKc",
   "source_file" : "external/llvm/include/llvm/ADT/SmallVector.h"
  },
  {
   "access" : "protected",
   "function_name" : "llvm::SmallVectorTemplateCommon<char, void>::isSmall",
   "linker_set_key" : "_ZNK4llvm25SmallVectorTemplateCommonIcvE7isSmallEv",
   "parameters" :
   [
    {
     "is_this_ptr" : true,
     "referenced_type" : "_ZTIPKN4llvm25SmallVectorTemplateCommonIcvEE"
    }
   ],
   "return_type" : "_ZTIb",
   "source_file" : "external/llvm/include/llvm/ADT/SmallVector.h"
  },
  {
   "function_name" : "llvm::SmallVectorTemplateCommon<char, void>::capacity",
   "linker_set_key" : "_ZNK4llvm25SmallVectorTemplateCommonIcvE8capacityEv",
   "parameters" :
   [
    {
     "is_this_ptr" : true,
     "referenced_type" : "_ZTIPKN4llvm25SmallVectorTemplateCommonIcvEE"
    }
   ],
   "return_type" : "_ZTIj",
   "source_file" : "external/llvm/include/llvm/ADT/SmallVector.h"
  },
  {
   "function_name" : "llvm::Use::get",
   "linker_set_key" : "_ZNK4llvm3Use3getEv",
   "parameters" :
   [
    {
     "is_this_ptr" : true,
     "referenced_type" : "_ZTIPKN4llvm3UseE"
    }
   ],
   "return_type" : "_ZTIPN4llvm5ValueE",
   "source_file" : "external/llvm/include/llvm/IR/Use.h"
  },
  {
   "function_name" : "llvm::Use::getNext",
   "linker_set_key" : "_ZNK4llvm3Use7getNextEv",
   "parameters" :
   [
    {
     "is_this_ptr" : true,
     "referenced_type" : "_ZTIPKN4llvm3UseE"
    }
   ],
   "return_type" : "_ZTIPN4llvm3UseE",
   "source_file" : "external/llvm/include/llvm/IR/Use.h"
  },
  {
   "function_name" : "llvm::Use::operator llvm::Value *",
   "linker_set_key" : "_ZNK4llvm3UsecvPNS_5ValueEEv",
   "parameters" :
   [
    {
     "is_this_ptr" : true,
     "referenced_type" : "_ZTIPKN4llvm3UseE"
    }
   ],
   "return_type" : "_ZTIPN4llvm5ValueE",
   "source_file" : "external/llvm/include/llvm/IR/Use.h"
  },
  {
   "function_name" : "llvm::Use::operator->",
   "linker_set_key" : "_ZNK4llvm3UseptEv",
   "parameters" :
   [
    {
     "is_this_ptr" : true,
     "referenced_type" : "_ZTIPKN4llvm3UseE"
    }
   ],
   "return_type" : "_ZTIPKN4llvm5ValueE",
   "source_file" : "external/llvm/include/llvm/IR/Use.h"
  },
  {
   "function_name" : "llvm::sys::MemoryBlock::base",
   "linker_set_key" : "_ZNK4llvm3sys11MemoryBlock4baseEv",
   "parameters" :
   [
    {
     "is_this_ptr" : true,
     "referenced_type" : "_ZTIPKN4llvm3sys11MemoryBlockE"
    }
   ],
   "return_type" : "_ZTIPv",
   "source_file" : "external/llvm/include/llvm/Support/Memory.h"
  },
  {
   "function_name" : "llvm::sys::MemoryBlock::size",
   "linker_set_key" : "_ZNK4llvm3sys11MemoryBlock4sizeEv",
   "parameters" :
   [
    {
     "is_this_ptr" : true,
     "referenced_type" : "_ZTIPKN4llvm3sys11MemoryBlockE"
    }
   ],
   "return_type" : "_ZTIj",
   "source_file" : "external/llvm/include/llvm/Support/Memory.h"
  },
  {
   "function_name" : "llvm::sys::OwningMemoryBlock::getMemoryBlock",
   "linker_set_key" : "_ZNK4llvm3sys17OwningMemoryBlock14getMemoryBlockEv",
   "parameters" :
   [
    {
     "is_this_ptr" : true,
     "referenced_type" : "_ZTIPKN4llvm3sys17OwningMemoryBlockE"
    }
   ],
   "return_type" : "_ZTIN4llvm3sys11MemoryBlockE",
   "source_file" : "external/llvm/include/llvm/Support/Memory.h"
  },
  {
   "function_name" : "llvm::sys::OwningMemoryBlock::base",
   "linker_set_key" : "_ZNK4llvm3sys17OwningMemoryBlock4baseEv",
   "parameters" :
   [
    {
     "is_this_ptr" : true,
     "referenced_type" : "_ZTIPKN4llvm3sys17OwningMemoryBlockE"
    }
   ],
   "return_type" : "_ZTIPv",
   "source_file" : "external/llvm/include/llvm/Support/Memory.h"
  },
  {
   "function_name" : "llvm::sys::OwningMemoryBlock::size",
   "linker_set_key" : "_ZNK4llvm3sys17OwningMemoryBlock4sizeEv",
   "parameters" :
   [
    {
     "is_this_ptr" : true,
     "referenced_type" : "_ZTIPKN4llvm3sys17OwningMemoryBlockE"
    }
   ],
   "return_type" : "_ZTIj",
   "source_file" : "external/llvm/include/llvm/Support/Memory.h"
  },
  {
   "function_name" : "llvm::Type::getContext",
   "linker_set_key" : "_ZNK4llvm4Type10getContextEv",
   "parameters" :
   [
    {
     "is_this_ptr" : true,
     "referenced_type" : "_ZTIPKN4llvm4TypeE"
    }
   ],
   "return_type" : "_ZTIRN4llvm11LLVMContextE",
   "source_file" : "external/llvm/include/llvm/IR/Type.h"
  },
  {
   "function_name" : "llvm::Type::isDoubleTy",
   "linker_set_key" : "_ZNK4llvm4Type10isDoubleTyEv",
   "parameters" :
   [
    {
     "is_this_ptr" : true,
     "referenced_type" : "_ZTIPKN4llvm4TypeE"
    }
   ],
   "return_type" : "_ZTIb",
   "source_file" : "external/llvm/include/llvm/IR/Type.h"
  },
  {
   "function_name" : "llvm::Type::isStructTy",
   "linker_set_key" : "_ZNK4llvm4Type10isStructTyEv",
   "parameters" :
   [
    {
     "is_this_ptr" : true,
     "referenced_type" : "_ZTIPKN4llvm4TypeE"
    }
   ],
   "return_type" : "_ZTIb",
   "source_file" : "external/llvm/include/llvm/IR/Type.h"
  },
  {
   "function_name" : "llvm::Type::isVectorTy",
   "linker_set_key" : "_ZNK4llvm4Type10isVectorTyEv",
   "parameters" :
   [
    {
     "is_this_ptr" : true,
     "referenced_type" : "_ZTIPKN4llvm4TypeE"
    }
   ],
   "return_type" : "_ZTIb",
   "source_file" : "external/llvm/include/llvm/IR/Type.h"
  },
  {
   "function_name" : "llvm::Type::isIntegerTy",
   "linker_set_key" : "_ZNK4llvm4Type11isIntegerTyEv",
   "parameters" :
   [
    {
     "is_this_ptr" : true,
     "referenced_type" : "_ZTIPKN4llvm4TypeE"
    }
   ],
   "return_type" : "_ZTIb",
   "source_file" : "external/llvm/include/llvm/IR/Type.h"
  },
  {
   "function_name" : "llvm::Type::isPointerTy",
   "linker_set_key" : "_ZNK4llvm4Type11isPointerTyEv",
   "parameters" :
   [
    {
     "is_this_ptr" : true,
     "referenced_type" : "_ZTIPKN4llvm4TypeE"
    }
   ],
   "return_type" : "_ZTIb",
   "source_file" : "external/llvm/include/llvm/IR/Type.h"
  },
  {
   "function_name" : "llvm::Type::isX86_MMXTy",
   "linker_set_key" : "_ZNK4llvm4Type11isX86_MMXTyEv",
   "parameters" :
   [
    {
     "is_this_ptr" : true,
     "referenced_type" : "_ZTIPKN4llvm4TypeE"
    }
   ],
   "return_type" : "_ZTIb",
   "source_file" : "external/llvm/include/llvm/IR/Type.h"
  },
  {
   "function_name" : "llvm::Type::subtype_end",
   "linker_set_key" : "_ZNK4llvm4Type11subtype_endEv",
   "parameters" :
   [
    {
     "is_this_ptr" : true,
     "referenced_type" : "_ZTIPKN4llvm4TypeE"
    }
   ],
   "return_type" : "_ZTIPKPN4llvm4TypeE",
   "source_file" : "external/llvm/include/llvm/IR/Type.h"
  },
  {
   "function_name" : "llvm::Type::isFunctionTy",
   "linker_set_key" : "_ZNK4llvm4Type12isFunctionTyEv",
   "parameters" :
   [
    {
     "is_this_ptr" : true,
     "referenced_type" : "_ZTIPKN4llvm4TypeE"
    }
   ],
   "return_type" : "_ZTIb",
   "source_file" : "external/llvm/include/llvm/IR/Type.h"
  },
  {
   "function_name" : "llvm::Type::isMetadataTy",
   "linker_set_key" : "_ZNK4llvm4Type12isMetadataTyEv",
   "parameters" :
   [
    {
     "is_this_ptr" : true,
     "referenced_type" : "_ZTIPKN4llvm4TypeE"
    }
   ],
   "return_type" : "_ZTIb",
   "source_file" : "external/llvm/include/llvm/IR/Type.h"
  },
  {
   "function_name" : "llvm::Type::isX86_FP80Ty",
   "linker_set_key" : "_ZNK4llvm4Type12isX86_FP80TyEv",
   "parameters" :
   [
    {
     "is_this_ptr" : true,
     "referenced_type" : "_ZTIPKN4llvm4TypeE"
    }
   ],
   "return_type" : "_ZTIb",
   "source_file" : "external/llvm/include/llvm/IR/Type.h"
  },
  {
   "function_name" : "llvm::Type::subtype_rend",
   "linker_set_key" : "_ZNK4llvm4Type12subtype_rendEv",
   "parameters" :
   [
    {
     "is_this_ptr" : true,
     "referenced_type" : "_ZTIPKN4llvm4TypeE"
    }
   ],
   "return_type" : "_ZTINSt3__116reverse_iteratorIPKPN4llvm4TypeEEE",
   "source_file" : "external/llvm/include/llvm/IR/Type.h"
  },
  {
   "function_name" : "llvm::Type::getStructName",
   "linker_set_key" : "_ZNK4llvm4Type13getStructNameEv",
   "parameters" :
   [
    {
     "is_this_ptr" : true,
     "referenced_type" : "_ZTIPKN4llvm4TypeE"
    }
   ],
   "return_type" : "_ZTIN4llvm9StringRefE",
   "source_file" : "external/llvm/include/llvm/IR/Type.h"
  },
  {
   "function_name" : "llvm::Type::isPPC_FP128Ty",
   "linker_set_key" : "_ZNK4llvm4Type13isPPC_FP128TyEv",
   "parameters" :
   [
    {
     "is_this_ptr" : true,
     "referenced_type" : "_ZTIPKN4llvm4TypeE"
    }
   ],
   "return_type" : "_ZTIb",
   "source_file" : "external/llvm/include/llvm/IR/Type.h"
  },
  {
   "function_name" : "llvm::Type::subtype_begin",
   "linker_set_key" : "_ZNK4llvm4Type13subtype_beginEv",
   "parameters" :
   [
    {
     "is_this_ptr" : true,
     "referenced_type" : "_ZTIPKN4llvm4TypeE"
    }
   ],
   "return_type" : "_ZTIPKPN4llvm4TypeE",
   "source_file" : "external/llvm/include/llvm/IR/Type.h"
  },
  {
   "function_name" : "llvm::Type::subtype_rbegin",
   "linker_set_key" : "_ZNK4llvm4Type14subtype_rbeginEv",
   "parameters" :
   [
    {
     "is_this_ptr" : true,
     "referenced_type" : "_ZTIPKN4llvm4TypeE"
    }
   ],
   "return_type" : "_ZTINSt3__116reverse_iteratorIPKPN4llvm4TypeEEE",
   "source_file" : "external/llvm/include/llvm/IR/Type.h"
  },
  {
   "function_name" : "llvm::Type::getFltSemantics",
   "linker_set_key" : "_ZNK4llvm4Type15getFltSemanticsEv",
   "parameters" :
   [
    {
     "is_this_ptr" : true,
     "referenced_type" : "_ZTIPKN4llvm4TypeE"
    }
   ],
   "return_type" : "_ZTIRKN4llvm12fltSemanticsE",
   "source_file" : "external/llvm/include/llvm/IR/Type.h"
  },
  {
   "access" : "protected",
   "function_name" : "llvm::Type::getSubclassData",
   "linker_set_key" : "_ZNK4llvm4Type15getSubclassDataEv",
   "parameters" :
   [
    {
     "is_this_ptr" : true,
     "referenced_type" : "_ZTIPKN4llvm4TypeE"
    }
   ],
   "return_type" : "_ZTIj",
   "source_file" : "external/llvm/include/llvm/IR/Type.h"
  },
  {
   "function_name" : "llvm::Type::isAggregateType",
   "linker_set_key" : "_ZNK4llvm4Type15isAggregateTypeEv",
   "parameters" :
   [
    {
     "is_this_ptr" : true,
     "referenced_type" : "_ZTIPKN4llvm4TypeE"
    }
   ],
   "return_type" : "_ZTIb",
   "source_file" : "external/llvm/include/llvm/IR/Type.h"
  },
  {
   "function_name" : "llvm::Type::getContainedType",
   "linker_set_key" : "_ZNK4llvm4Type16getContainedTypeEj",
   "parameters" :
   [
    {
     "is_this_ptr" : true,
     "referenced_type" : "_ZTIPKN4llvm4TypeE"
    },
    {
     "referenced_type" : "_ZTIj"
    }
   ],
   "return_type" : "_ZTIPN4llvm4TypeE",
   "source_file" : "external/llvm/include/llvm/IR/Type.h"
  },
  {
   "function_name" : "llvm::Type::isFPOrFPVectorTy",
   "linker_set_key" : "_ZNK4llvm4Type16isFPOrFPVectorTyEv",
   "parameters" :
   [
    {
     "is_this_ptr" : true,
     "referenced_type" : "_ZTIPKN4llvm4TypeE"
    }
   ],
   "return_type" : "_ZTIb",
   "source_file" : "external/llvm/include/llvm/IR/Type.h"
  },
  {
   "function_name" : "llvm::Type::isFirstClassType",
   "linker_set_key" : "_ZNK4llvm4Type16isFirstClassTypeEv",
   "parameters" :
   [
    {
     "is_this_ptr" : true,
     "referenced_type" : "_ZTIPKN4llvm4TypeE"
    }
   ],
   "return_type" : "_ZTIb",
   "source_file" : "external/llvm/include/llvm/IR/Type.h"
  },
  {
   "function_name" : "llvm::Type::isFunctionVarArg",
   "linker_set_key" : "_ZNK4llvm4Type16isFunctionVarArgEv",
   "parameters" :
   [
    {
     "is_this_ptr" : true,
     "referenced_type" : "_ZTIPKN4llvm4TypeE"
    }
   ],
   "return_type" : "_ZTIb",
   "source_file" : "external/llvm/include/llvm/IR/Type.h"
  },
  {
   "function_name" : "llvm::Type::isFloatingPointTy",
   "linker_set_key" : "_ZNK4llvm4Type17isFloatingPointTyEv",
   "parameters" :
   [
    {
     "is_this_ptr" : true,
     "referenced_type" : "_ZTIPKN4llvm4TypeE"
    }
   ],
   "return_type" : "_ZTIb",
   "source_file" : "external/llvm/include/llvm/IR/Type.h"
  },
  {
   "function_name" : "llvm::Type::isSingleValueType",
   "linker_set_key" : "_ZNK4llvm4Type17isSingleValueTypeEv",
   "parameters" :
   [
    {
     "is_this_ptr" : true,
     "referenced_type" : "_ZTIPKN4llvm4TypeE"
    }
   ],
   "return_type" : "_ZTIb",
   "source_file" : "external/llvm/include/llvm/IR/Type.h"
  },
  {
   "function_name" : "llvm::Type::getIntegerBitWidth",
   "linker_set_key" : "_ZNK4llvm4Type18getIntegerBitWidthEv",
   "parameters" :
   [
    {
     "is_this_ptr" : true,
     "referenced_type" : "_ZTIPKN4llvm4TypeE"
    }
   ],
   "return_type" : "_ZTIj",
   "source_file" : "external/llvm/include/llvm/IR/Type.h"
  },
  {
   "function_name" : "llvm::Type::isIntOrIntVectorTy",
   "linker_set_key" : "_ZNK4llvm4Type18isIntOrIntVectorTyEv",
   "parameters" :
   [
    {
     "is_this_ptr" : true,
     "referenced_type" : "_ZTIPKN4llvm4TypeE"
    }
   ],
   "return_type" : "_ZTIb",
   "source_file" : "external/llvm/include/llvm/IR/Type.h"
  },
  {
   "function_name" : "llvm::Type::isPtrOrPtrVectorTy",
   "linker_set_key" : "_ZNK4llvm4Type18isPtrOrPtrVectorTyEv",
   "parameters" :
   [
    {
     "is_this_ptr" : true,
     "referenced_type" : "_ZTIPKN4llvm4TypeE"
    }
   ],
   "return_type" : "_ZTIb",
   "source_file" : "external/llvm/include/llvm/IR/Type.h"
  },
  {
   "function_name" : "llvm::Type::getArrayElementType",
   "linker_set_key" : "_ZNK4llvm4Type19getArrayElementTypeEv",
   "parameters" :
   [
    {
     "is_this_ptr" : true,
     "referenced_type" : "_ZTIPKN4llvm4TypeE"
    }
   ],
   "return_type" : "_ZTIPN4llvm4TypeE",
   "source_file" : "external/llvm/include/llvm/IR/Type.h"
  },
  {
   "function_name" : "llvm::Type::getArrayNumElements",
   "linker_set_key" : "_ZNK4llvm4Type19getArrayNumElementsEv",
   "parameters" :
   [
    {
     "is_this_ptr" : true,
     "referenced_type" : "_ZTIPKN4llvm4TypeE"
    }
   ],
   "return_type" : "_ZTIy",
   "source_file" : "external/llvm/include/llvm/IR/Type.h"
  },
  {
   "function_name" : "llvm::Type::getFunctionNumParams",
   "linker_set_key" : "_ZNK4llvm4Type20getFunctionNumParamsEv",
   "parameters" :
   [
    {
     "is_this_ptr" : true,
     "referenced_type" : "_ZTIPKN4llvm4TypeE"
    }
   ],
   "return_type" : "_ZTIj",
   "source_file" : "external/llvm/include/llvm/IR/Type.h"
  },
  {
   "function_name" : "llvm::Type::getFunctionParamType",
   "linker_set_key" : "_ZNK4llvm4Type20getFunctionParamTypeEj",
   "parameters" :
   [
    {
     "is_this_ptr" : true,
     "referenced_type" : "_ZTIPKN4llvm4TypeE"
    },
    {
     "referenced_type" : "_ZTIj"
    }
   ],
   "return_type" : "_ZTIPN4llvm4TypeE",
   "source_file" : "external/llvm/include/llvm/IR/Type.h"
  },
  {
   "function_name" : "llvm::Type::getNumContainedTypes",
   "linker_set_key" : "_ZNK4llvm4Type20getNumContainedTypesEv",
   "parameters" :
   [
    {
     "is_this_ptr" : true,
     "referenced_type" : "_ZTIPKN4llvm4TypeE"
    }
   ],
   "return_type" : "_ZTIj",
   "source_file" : "external/llvm/include/llvm/IR/Type.h"
  },
  {
   "function_name" : "llvm::Type::getStructElementType",
   "linker_set_key" : "_ZNK4llvm4Type20getStructElementTypeEj",
   "parameters" :
   [
    {
     "is_this_ptr" : true,
     "referenced_type" : "_ZTIPKN4llvm4TypeE"
    },
    {
     "referenced_type" : "_ZTIj"
    }
   ],
   "return_type" : "_ZTIPN4llvm4TypeE",
   "source_file" : "external/llvm/include/llvm/IR/Type.h"
  },
  {
   "function_name" : "llvm::Type::getStructNumElements",
   "linker_set_key" : "_ZNK4llvm4Type20getStructNumElementsEv",
   "parameters" :
   [
    {
     "is_this_ptr" : true,
     "referenced_type" : "_ZTIPKN4llvm4TypeE"
    }
   ],
   "return_type" : "_ZTIj",
   "source_file" : "external/llvm/include/llvm/IR/Type.h"
  },
  {
   "function_name" : "llvm::Type::getVectorElementType",
   "linker_set_key" : "_ZNK4llvm4Type20getVectorElementTypeEv",
   "parameters" :
   [
    {
     "is_this_ptr" : true,
     "referenced_type" : "_ZTIPKN4llvm4TypeE"
    }
   ],
   "return_type" : "_ZTIPN4llvm4TypeE",
   "source_file" : "external/llvm/include/llvm/IR/Type.h"
  },
  {
   "function_name" : "llvm::Type::getVectorNumElements",
   "linker_set_key" : "_ZNK4llvm4Type20getVectorNumElementsEv",
   "parameters" :
   [
    {
     "is_this_ptr" : true,
     "referenced_type" : "_ZTIPKN4llvm4TypeE"
    }
   ],
   "return_type" : "_ZTIj",
   "source_file" : "external/llvm/include/llvm/IR/Type.h"
  },
  {
   "function_name" : "llvm::Type::getPointerElementType",
   "linker_set_key" : "_ZNK4llvm4Type21getPointerElementTypeEv",
   "parameters" :
   [
    {
     "is_this_ptr" : true,
     "referenced_type" : "_ZTIPKN4llvm4TypeE"
    }
   ],
   "return_type" : "_ZTIPN4llvm4TypeE",
   "source_file" : "external/llvm/include/llvm/IR/Type.h"
  },
  {
   "function_name" : "llvm::Type::getPointerAddressSpace",
   "linker_set_key" : "_ZNK4llvm4Type22getPointerAddressSpaceEv",
   "parameters" :
   [
    {
     "is_this_ptr" : true,
     "referenced_type" : "_ZTIPKN4llvm4TypeE"
    }
   ],
   "return_type" : "_ZTIj",
   "source_file" : "external/llvm/include/llvm/IR/Type.h"
  },
  {
   "function_name" : "llvm::Type::getSequentialElementType",
   "linker_set_key" : "_ZNK4llvm4Type24getSequentialElementTypeEv",
   "parameters" :
   [
    {
     "is_this_ptr" : true,
     "referenced_type" : "_ZTIPKN4llvm4TypeE"
    }
   ],
   "return_type" : "_ZTIPN4llvm4TypeE",
   "source_file" : "external/llvm/include/llvm/IR/Type.h"
  },
  {
   "function_name" : "llvm::Type::isSized",
   "linker_set_key" : "_ZNK4llvm4Type7isSizedEPNS_15SmallPtrSetImplIPS0_EE",
   "parameters" :
   [
    {
     "is_this_ptr" : true,
     "referenced_type" : "_ZTIPKN4llvm4TypeE"
    },
    {
     "default_arg" : true,
     "referenced_type" : "_ZTIPN4llvm15SmallPtrSetImplIPNS_4TypeEEE"
    }
   ],
   "return_type" : "_ZTIb",
   "source_file" : "external/llvm/include/llvm/IR/Type.h"
  },
  {
   "function_name" : "llvm::Type::isHalfTy",
   "linker_set_key" : "_ZNK4llvm4Type8isHalfTyEv",
   "parameters" :
   [
    {
     "is_this_ptr" : true,
     "referenced_type" : "_ZTIPKN4llvm4TypeE"
    }
   ],
   "return_type" : "_ZTIb",
   "source_file" : "external/llvm/include/llvm/IR/Type.h"
  },
  {
   "function_name" : "llvm::Type::isVoidTy",
   "linker_set_key" : "_ZNK4llvm4Type8isVoidTyEv",
   "parameters" :
   [
    {
     "is_this_ptr" : true,
     "referenced_type" : "_ZTIPKN4llvm4TypeE"
    }
   ],
   "return_type" : "_ZTIb",
   "source_file" : "external/llvm/include/llvm/IR/Type.h"
  },
  {
   "function_name" : "llvm::Type::subtypes",
   "linker_set_key" : "_ZNK4llvm4Type8subtypesEv",
   "parameters" :
   [
    {
     "is_this_ptr" : true,
     "referenced_type" : "_ZTIPKN4llvm4TypeE"
    }
   ],
   "return_type" : "_ZTIN4llvm8ArrayRefIPNS_4TypeEEE",
   "source_file" : "external/llvm/include/llvm/IR/Type.h"
  },
  {
   "function_name" : "llvm::Type::getTypeID",
   "linker_set_key" : "_ZNK4llvm4Type9getTypeIDEv",
   "parameters" :
   [
    {
     "is_this_ptr" : true,
     "referenced_type" : "_ZTIPKN4llvm4TypeE"
    }
   ],
   "return_type" : "_ZTIN4llvm4Type6TypeIDE",
   "source_file" : "external/llvm/include/llvm/IR/Type.h"
  },
  {
   "function_name" : "llvm::Type::isArrayTy",
   "linker_set_key" : "_ZNK4llvm4Type9isArrayTyEv",
   "parameters" :
   [
    {
     "is_this_ptr" : true,
     "referenced_type" : "_ZTIPKN4llvm4TypeE"
    }
   ],
   "return_type" : "_ZTIb",
   "source_file" : "external/llvm/include/llvm/IR/Type.h"
  },
  {
   "function_name" : "llvm::Type::isFP128Ty",
   "linker_set_key" : "_ZNK4llvm4Type9isFP128TyEv",
   "parameters" :
   [
    {
     "is_this_ptr" : true,
     "referenced_type" : "_ZTIPKN4llvm4TypeE"
    }
   ],
   "return_type" : "_ZTIb",
   "source_file" : "external/llvm/include/llvm/IR/Type.h"
  },
  {
   "function_name" : "llvm::Type::isFloatTy",
   "linker_set_key" : "_ZNK4llvm4Type9isFloatTyEv",
   "parameters" :
   [
    {
     "is_this_ptr" : true,
     "referenced_type" : "_ZTIPKN4llvm4TypeE"
    }
   ],
   "return_type" : "_ZTIb",
   "source_file" : "external/llvm/include/llvm/IR/Type.h"
  },
  {
   "function_name" : "llvm::Type::isLabelTy",
   "linker_set_key" : "_ZNK4llvm4Type9isLabelTyEv",
   "parameters" :
   [
    {
     "is_this_ptr" : true,
     "referenced_type" : "_ZTIPKN4llvm4TypeE"
    }
   ],
   "return_type" : "_ZTIb",
   "source_file" : "external/llvm/include/llvm/IR/Type.h"
  },
  {
   "function_name" : "llvm::Type::isTokenTy",
   "linker_set_key" : "_ZNK4llvm4Type9isTokenTyEv",
   "parameters" :
   [
    {
     "is_this_ptr" : true,
     "referenced_type" : "_ZTIPKN4llvm4TypeE"
    }
   ],
   "return_type" : "_ZTIb",
   "source_file" : "external/llvm/include/llvm/IR/Type.h"
  },
  {
   "function_name" : "llvm::User::getOperand",
   "linker_set_key" : "_ZNK4llvm4User10getOperandEj",
   "parameters" :
   [
    {
     "is_this_ptr" : true,
     "referenced_type" : "_ZTIPKN4llvm4UserE"
    },
    {
     "referenced_type" : "_ZTIj"
    }
   ],
   "return_type" : "_ZTIPN4llvm5ValueE",
   "source_file" : "external/llvm/include/llvm/IR/User.h"
  },
  {
   "function_name" : "llvm::User::getOperandUse",
   "linker_set_key" : "_ZNK4llvm4User13getOperandUseEj",
   "parameters" :
   [
    {
     "is_this_ptr" : true,
     "referenced_type" : "_ZTIPKN4llvm4UserE"
    },
    {
     "referenced_type" : "_ZTIj"
    }
   ],
   "return_type" : "_ZTIRKN4llvm3UseE",
   "source_file" : "external/llvm/include/llvm/IR/User.h"
  },
  {
   "function_name" : "llvm::User::getNumOperands",
   "linker_set_key" : "_ZNK4llvm4User14getNumOperandsEv",
   "parameters" :
   [
    {
     "is_this_ptr" : true,
     "referenced_type" : "_ZTIPKN4llvm4UserE"
    }
   ],
   "return_type" : "_ZTIj",
   "source_file" : "external/llvm/include/llvm/IR/User.h"
  },
  {
   "function_name" : "llvm::User::getOperandList",
   "linker_set_key" : "_ZNK4llvm4User14getOperandListEv",
   "parameters" :
   [
    {
     "is_this_ptr" : true,
     "referenced_type" : "_ZTIPKN4llvm4UserE"
    }
   ],
   "return_type" : "_ZTIPKN4llvm3UseE",
   "source_file" : "external/llvm/include/llvm/IR/User.h"
  },
  {
   "function_name" : "llvm::User::value_op_iterator::operator*",
   "linker_set_key" : "_ZNK4llvm4User17value_op_iteratordeEv",
   "parameters" :
   [
    {
     "is_this_ptr" : true,
     "referenced_type" : "_ZTIPKN4llvm4User17value_op_iteratorE"
    }
   ],
   "return_type" : "_ZTIPN4llvm5ValueE",
   "source_file" : "external/llvm/include/llvm/IR/User.h"
  },
  {
   "function_name" : "llvm::User::value_op_iterator::operator->",
   "linker_set_key" : "_ZNK4llvm4User17value_op_iteratorptEv",
   "parameters" :
   [
    {
     "is_this_ptr" : true,
     "referenced_type" : "_ZTIPKN4llvm4User17value_op_iteratorE"
    }
   ],
   "return_type" : "_ZTIPN4llvm5ValueE",
   "source_file" : "external/llvm/include/llvm/IR/User.h"
  },
  {
   "function_name" : "llvm::User::op_end",
   "linker_set_key" : "_ZNK4llvm4User6op_endEv",
   "parameters" :
   [
    {
     "is_this_ptr" : true,
     "referenced_type" : "_ZTIPKN4llvm4UserE"
    }
   ],
   "return_type" : "_ZTIPKN4llvm3UseE",
   "source_file" : "external/llvm/include/llvm/IR/User.h"
  },
  {
   "function_name" : "llvm::User::op_begin",
   "linker_set_key" : "_ZNK4llvm4User8op_beginEv",
   "parameters" :
   [
    {
     "is_this_ptr" : true,
     "referenced_type" : "_ZTIPKN4llvm4UserE"
    }
   ],
   "return_type" : "_ZTIPKN4llvm3UseE",
   "source_file" : "external/llvm/include/llvm/IR/User.h"
  },
  {
   "function_name" : "llvm::User::operands",
   "linker_set_key" : "_ZNK4llvm4User8operandsEv",
   "parameters" :
   [
    {
     "is_this_ptr" : true,
     "referenced_type" : "_ZTIPKN4llvm4UserE"
    }
   ],
   "return_type" : "_ZTIN4llvm14iterator_rangeIPKNS_3UseEEE",
   "source_file" : "external/llvm/include/llvm/IR/User.h"
  },
  {
   "function_name" : "llvm::APInt::getRawData",
   "linker_set_key" : "_ZNK4llvm5APInt10getRawDataEv",
   "parameters" :
   [
    {
     "is_this_ptr" : true,
     "referenced_type" : "_ZTIPKN4llvm5APIntE"
    }
   ],
   "return_type" : "_ZTIPKy",
   "source_file" : "external/llvm/include/llvm/ADT/APInt.h"
  },
  {
   "function_name" : "llvm::APInt::intersects",
   "linker_set_key" : "_ZNK4llvm5APInt10intersectsERKS0_",
   "parameters" :
   [
    {
     "is_this_ptr" : true,
     "referenced_type" : "_ZTIPKN4llvm5APIntE"
    },
    {
     "referenced_type" : "_ZTIRKN4llvm5APIntE"
    }
   ],
   "return_type" : "_ZTIb",
   "source_file" : "external/llvm/include/llvm/ADT/APInt.h"
  },
  {
   "function_name" : "llvm::APInt::isMaxValue",
   "linker_set_key" : "_ZNK4llvm5APInt10isMaxValueEv",
   "parameters" :
   [
    {
     "is_this_ptr" : true,
     "referenced_type" : "_ZTIPKN4llvm5APIntE"
    }
   ],
   "return_type" : "_ZTIb",
   "source_file" : "external/llvm/include/llvm/ADT/APInt.h"
  },
  {
   "function_name" : "llvm::APInt::isMinValue",
   "linker_set_key" : "_ZNK4llvm5APInt10isMinValueEv",
   "parameters" :
   [
    {
     "is_this_ptr" : true,
     "referenced_type" : "_ZTIPKN4llvm5APIntE"
    }
   ],
   "return_type" : "_ZTIb",
   "source_file" : "external/llvm/include/llvm/ADT/APInt.h"
  },
  {
   "function_name" : "llvm::APInt::isNegative",
   "linker_set_key" : "_ZNK4llvm5APInt10isNegativeEv",
   "parameters" :
   [
    {
     "is_this_ptr" : true,
     "referenced_type" : "_ZTIPKN4llvm5APIntE"
    }
   ],
   "return_type" : "_ZTIb",
   "source_file" : "external/llvm/include/llvm/ADT/APInt.h"
  },
  {
   "function_name" : "llvm::APInt::isPowerOf2",
   "linker_set_key" : "_ZNK4llvm5APInt10isPowerOf2Ev",
   "parameters" :
   [
    {
     "is_this_ptr" : true,
     "referenced_type" : "_ZTIPKN4llvm5APIntE"
    }
   ],
   "return_type" : "_ZTIb",
   "source_file" : "external/llvm/include/llvm/ADT/APInt.h"
  },
  {
   "function_name" : "llvm::APInt::bitsToFloat",
   "linker_set_key" : "_ZNK4llvm5APInt11bitsToFloatEv",
   "parameters" :
   [
    {
     "is_this_ptr" : true,
     "referenced_type" : "_ZTIPKN4llvm5APIntE"
    }
   ],
   "return_type" : "_ZTIf",
   "source_file" : "external/llvm/include/llvm/ADT/APInt.h"
  },
  {
   "function_name" : "llvm::APInt::getBitWidth",
   "linker_set_key" : "_ZNK4llvm5APInt11getBitWidthEv",
   "parameters" :
   [
    {
     "is_this_ptr" : true,
     "referenced_type" : "_ZTIPKN4llvm5APIntE"
    }
   ],
   "return_type" : "_ZTIj",
   "source_file" : "external/llvm/include/llvm/ADT/APInt.h"
  },
  {
   "function_name" : "llvm::APInt::getNumWords",
   "linker_set_key" : "_ZNK4llvm5APInt11getNumWordsEv",
   "parameters" :
   [
    {
     "is_this_ptr" : true,
     "referenced_type" : "_ZTIPKN4llvm5APIntE"
    }
   ],
   "return_type" : "_ZTIj",
   "source_file" : "external/llvm/include/llvm/ADT/APInt.h"
  },
  {
   "function_name" : "llvm::APInt::bitsToDouble",
   "linker_set_key" : "_ZNK4llvm5APInt12bitsToDoubleEv",
   "parameters" :
   [
    {
     "is_this_ptr" : true,
     "referenced_type" : "_ZTIPKN4llvm5APIntE"
    }
   ],
   "return_type" : "_ZTId",
   "source_file" : "external/llvm/include/llvm/ADT/APInt.h"
  },
  {
   "function_name" : "llvm::APInt::ceilLogBase2",
   "linker_set_key" : "_ZNK4llvm5APInt12ceilLogBase2Ev",
   "parameters" :
   [
    {
     "is_this_ptr" : true,
     "referenced_type" : "_ZTIPKN4llvm5APIntE"
    }
   ],
   "return_type" : "_ZTIj",
   "source_file" : "external/llvm/include/llvm/ADT/APInt.h"
  },
  {
   "function_name" : "llvm::APInt::getBoolValue",
   "linker_set_key" : "_ZNK4llvm5APInt12getBoolValueEv",
   "parameters" :
   [
    {
     "is_this_ptr" : true,
     "referenced_type" : "_ZTIPKN4llvm5APIntE"
    }
   ],
   "return_type" : "_ZTIb",
   "source_file" : "external/llvm/include/llvm/ADT/APInt.h"
  },
  {
   "function_name" : "llvm::APInt::getSExtValue",
   "linker_set_key" : "_ZNK4llvm5APInt12getSExtValueEv",
   "parameters" :
   [
    {
     "is_this_ptr" : true,
     "referenced_type" : "_ZTIPKN4llvm5APIntE"
    }
   ],
   "return_type" : "_ZTIx",
   "source_file" : "external/llvm/include/llvm/ADT/APInt.h"
  },
  {
   "function_name" : "llvm::APInt::getZExtValue",
   "linker_set_key" : "_ZNK4llvm5APInt12getZExtValueEv",
   "parameters" :
   [
    {
     "is_this_ptr" : true,
     "referenced_type" : "_ZTIPKN4llvm5APIntE"
    }
   ],
   "return_type" : "_ZTIy",
   "source_file" : "external/llvm/include/llvm/ADT/APInt.h"
  },
  {
   "function_name" : "llvm::APInt::isSignedIntN",
   "linker_set_key" : "_ZNK4llvm5APInt12isSignedIntNEj",
   "parameters" :
   [
    {
     "is_this_ptr" : true,
     "referenced_type" : "_ZTIPKN4llvm5APIntE"
    },
    {
     "referenced_type" : "_ZTIj"
    }
   ],
   "return_type" : "_ZTIb",
   "source_file" : "external/llvm/include/llvm/ADT/APInt.h"
  },
  {
   "access" : "private",
   "function_name" : "llvm::APInt::isSingleWord",
   "linker_set_key" : "_ZNK4llvm5APInt12isSingleWordEv",
   "parameters" :
   [
    {
     "is_this_ptr" : true,
     "referenced_type" : "_ZTIPKN4llvm5APIntE"
    }
   ],
   "return_type" : "_ZTIb",
   "source_file" : "external/llvm/include/llvm/ADT/APInt.h"
  },
  {
   "function_name" : "llvm::APInt::needsCleanup",
   "linker_set_key" : "_ZNK4llvm5APInt12needsCleanupEv",
   "parameters" :
   [
    {
     "is_this_ptr" : true,
     "referenced_type" : "_ZTIPKN4llvm5APIntE"
    }
   ],
   "return_type" : "_ZTIb",
   "source_file" : "external/llvm/include/llvm/ADT/APInt.h"
  },
  {
   "function_name" : "llvm::APInt::exactLogBase2",
   "linker_set_key" : "_ZNK4llvm5APInt13exactLogBase2Ev",
   "parameters" :
   [
    {
     "is_this_ptr" : true,
     "referenced_type" : "_ZTIPKN4llvm5APIntE"
    }
   ],
   "return_type" : "_ZTIi",
   "source_file" : "external/llvm/include/llvm/ADT/APInt.h"
  },
  {
   "function_name" : "llvm::APInt::getActiveBits",
   "linker_set_key" : "_ZNK4llvm5APInt13getActiveBitsEv",
   "parameters" :
   [
    {
     "is_this_ptr" : true,
     "referenced_type" : "_ZTIPKN4llvm5APIntE"
    }
   ],
   "return_type" : "_ZTIj",
   "source_file" : "external/llvm/include/llvm/ADT/APInt.h"
  },
  {
   "function_name" : "llvm::APInt::isNonNegative",
   "linker_set_key" : "_ZNK4llvm5APInt13isNonNegativeEv",
   "parameters" :
   [
    {
     "is_this_ptr" : true,
     "referenced_type" : "_ZTIPKN4llvm5APIntE"
    }
   ],
   "return_type" : "_ZTIb",
   "source_file" : "external/llvm/include/llvm/ADT/APInt.h"
  },
  {
   "function_name" : "llvm::APInt::roundToDouble",
   "linker_set_key" : "_ZNK4llvm5APInt13roundToDoubleEv",
   "parameters" :
   [
    {
     "is_this_ptr" : true,
     "referenced_type" : "_ZTIPKN4llvm5APIntE"
    }
   ],
   "return_type" : "_ZTId",
   "source_file" : "external/llvm/include/llvm/ADT/APInt.h"
  },
  {
   "function_name" : "llvm::APInt::getActiveWords",
   "linker_set_key" : "_ZNK4llvm5APInt14getActiveWordsEv",
   "parameters" :
   [
    {
     "is_this_ptr" : true,
     "referenced_type" : "_ZTIPKN4llvm5APIntE"
    }
   ],
   "return_type" : "_ZTIj",
   "source_file" : "external/llvm/include/llvm/ADT/APInt.h"
  },
  {
   "function_name" : "llvm::APInt::getNumSignBits",
   "linker_set_key" : "_ZNK4llvm5APInt14getNumSignBitsEv",
   "parameters" :
   [
    {
     "is_this_ptr" : true,
     "referenced_type" : "_ZTIPKN4llvm5APIntE"
    }
   ],
   "return_type" : "_ZTIj",
   "source_file" : "external/llvm/include/llvm/ADT/APInt.h"
  },
  {
   "function_name" : "llvm::APInt::isAllOnesValue",
   "linker_set_key" : "_ZNK4llvm5APInt14isAllOnesValueEv",
   "parameters" :
   [
    {
     "is_this_ptr" : true,
     "referenced_type" : "_ZTIPKN4llvm5APIntE"
    }
   ],
   "return_type" : "_ZTIb",
   "source_file" : "external/llvm/include/llvm/ADT/APInt.h"
  },
  {
   "function_name" : "llvm::APInt::toStringSigned",
   "linker_set_key" : "_ZNK4llvm5APInt14toStringSignedERNS_15SmallVectorImplIcEEj",
   "parameters" :
   [
    {
     "is_this_ptr" : true,
     "referenced_type" : "_ZTIPKN4llvm5APIntE"
    },
    {
     "referenced_type" : "_ZTIRN4llvm15SmallVectorImplIcEE"
    },
    {
     "default_arg" : true,
     "referenced_type" : "_ZTIj"
    }
   ],
   "return_type" : "_ZTIv",
   "source_file" : "external/llvm/include/llvm/ADT/APInt.h"
  },
  {
   "function_name" : "llvm::APInt::countPopulation",
   "linker_set_key" : "_ZNK4llvm5APInt15countPopulationEv",
   "parameters" :
   [
    {
     "is_this_ptr" : true,
     "referenced_type" : "_ZTIPKN4llvm5APIntE"
    }
   ],
   "return_type" : "_ZTIj",
   "source_file" : "external/llvm/include/llvm/ADT/APInt.h"
  },
  {
   "function_name" : "llvm::APInt::getLimitedValue",
   "linker_set_key" : "_ZNK4llvm5APInt15getLimitedValueEy",
   "parameters" :
   [
    {
     "is_this_ptr" : true,
     "referenced_type" : "_ZTIPKN4llvm5APIntE"
    },
    {
     "default_arg" : true,
     "referenced_type" : "_ZTIy"
    }
   ],
   "return_type" : "_ZTIy",
   "source_file" : "external/llvm/include/llvm/ADT/APInt.h"
  },
  {
   "function_name" : "llvm::APInt::nearestLogBase2",
   "linker_set_key" : "_ZNK4llvm5APInt15nearestLogBase2Ev",
   "parameters" :
   [
    {
     "is_this_ptr" : true,
     "referenced_type" : "_ZTIPKN4llvm5APIntE"
    }
   ],
   "return_type" : "_ZTIj",
   "source_file" : "external/llvm/include/llvm/ADT/APInt.h"
  },
  {
   "function_name" : "llvm::APInt::getMinSignedBits",
   "linker_set_key" : "_ZNK4llvm5APInt16getMinSignedBitsEv",
   "parameters" :
   [
    {
     "is_this_ptr" : true,
     "referenced_type" : "_ZTIPKN4llvm5APIntE"
    }
   ],
   "return_type" : "_ZTIj",
   "source_file" : "external/llvm/include/llvm/ADT/APInt.h"
  },
  {
   "function_name" : "llvm::APInt::isMaxSignedValue",
   "linker_set_key" : "_ZNK4llvm5APInt16isMaxSignedValueEv",
   "parameters" :
   [
    {
     "is_this_ptr" : true,
     "referenced_type" : "_ZTIPKN4llvm5APIntE"
    }
   ],
   "return_type" : "_ZTIb",
   "source_file" : "external/llvm/include/llvm/ADT/APInt.h"
  },
  {
   "function_name" : "llvm::APInt::isMinSignedValue",
   "linker_set_key" : "_ZNK4llvm5APInt16isMinSignedValueEv",
   "parameters" :
   [
    {
     "is_this_ptr" : true,
     "referenced_type" : "_ZTIPKN4llvm5APIntE"
    }
   ],
   "return_type" : "_ZTIb",
   "source_file" : "external/llvm/include/llvm/ADT/APInt.h"
  },
  {
   "function_name" : "llvm::APInt::toStringUnsigned",
   "linker_set_key" : "_ZNK4llvm5APInt16toStringUnsignedERNS_15SmallVectorImplIcEEj",
   "parameters" :
   [
    {
     "is_this_ptr" : true,
     "referenced_type" : "_ZTIPKN4llvm5APIntE"
    },
    {
     "referenced_type" : "_ZTIRN4llvm15SmallVectorImplIcEE"
    },
    {
     "default_arg" : true,
     "referenced_type" : "_ZTIj"
    }
   ],
   "return_type" : "_ZTIv",
   "source_file" : "external/llvm/include/llvm/ADT/APInt.h"
  },
  {
   "function_name" : "llvm::APInt::countLeadingZeros",
   "linker_set_key" : "_ZNK4llvm5APInt17countLeadingZerosEv",
   "parameters" :
   [
    {
     "is_this_ptr" : true,
     "referenced_type" : "_ZTIPKN4llvm5APIntE"
    }
   ],
   "return_type" : "_ZTIj",
   "source_file" : "external/llvm/include/llvm/ADT/APInt.h"
  },
  {
   "function_name" : "llvm::APInt::countTrailingOnes",
   "linker_set_key" : "_ZNK4llvm5APInt17countTrailingOnesEv",
   "parameters" :
   [
    {
     "is_this_ptr" : true,
     "referenced_type" : "_ZTIPKN4llvm5APIntE"
    }
   ],
   "return_type" : "_ZTIj",
   "source_file" : "external/llvm/include/llvm/ADT/APInt.h"
  },
  {
   "function_name" : "llvm::APInt::isStrictlyPositive",
   "linker_set_key" : "_ZNK4llvm5APInt18isStrictlyPositiveEv",
   "parameters" :
   [
    {
     "is_this_ptr" : true,
     "referenced_type" : "_ZTIPKN4llvm5APIntE"
    }
   ],
   "return_type" : "_ZTIb",
   "source_file" : "external/llvm/include/llvm/ADT/APInt.h"
  },
  {
   "function_name" : "llvm::APInt::signedRoundToDouble",
   "linker_set_key" : "_ZNK4llvm5APInt19signedRoundToDoubleEv",
   "parameters" :
   [
    {
     "is_this_ptr" : true,
     "referenced_type" : "_ZTIPKN4llvm5APIntE"
    }
   ],
   "return_type" : "_ZTId",
   "source_file" : "external/llvm/include/llvm/ADT/APInt.h"
  },
  {
   "function_name" : "llvm::APInt::Or",
   "linker_set_key" : "_ZNK4llvm5APInt2OrERKS0_",
   "parameters" :
   [
    {
     "is_this_ptr" : true,
     "referenced_type" : "_ZTIPKN4llvm5APIntE"
    },
    {
     "referenced_type" : "_ZTIRKN4llvm5APIntE"
    }
   ],
   "return_type" : "_ZTIN4llvm5APIntE",
   "source_file" : "external/llvm/include/llvm/ADT/APInt.h"
  },
  {
   "function_name" : "llvm::APInt::eq",
   "linker_set_key" : "_ZNK4llvm5APInt2eqERKS0_",
   "parameters" :
   [
    {
     "is_this_ptr" : true,
     "referenced_type" : "_ZTIPKN4llvm5APIntE"
    },
    {
     "referenced_type" : "_ZTIRKN4llvm5APIntE"
    }
   ],
   "return_type" : "_ZTIb",
   "source_file" : "external/llvm/include/llvm/ADT/APInt.h"
  },
  {
   "function_name" : "llvm::APInt::ne",
   "linker_set_key" : "_ZNK4llvm5APInt2neERKS0_",
   "parameters" :
   [
    {
     "is_this_ptr" : true,
     "referenced_type" : "_ZTIPKN4llvm5APIntE"
    },
    {
     "referenced_type" : "_ZTIRKN4llvm5APIntE"
    }
   ],
   "return_type" : "_ZTIb",
   "source_file" : "external/llvm/include/llvm/ADT/APInt.h"
  },
  {
   "function_name" : "llvm::APInt::And",
   "linker_set_key" : "_ZNK4llvm5APInt3AndERKS0_",
   "parameters" :
   [
    {
     "is_this_ptr" : true,
     "referenced_type" : "_ZTIPKN4llvm5APIntE"
    },
    {
     "referenced_type" : "_ZTIRKN4llvm5APIntE"
    }
   ],
   "return_type" : "_ZTIN4llvm5APIntE",
   "source_file" : "external/llvm/include/llvm/ADT/APInt.h"
  },
  {
   "function_name" : "llvm::APInt::Xor",
   "linker_set_key" : "_ZNK4llvm5APInt3XorERKS0_",
   "parameters" :
   [
    {
     "is_this_ptr" : true,
     "referenced_type" : "_ZTIPKN4llvm5APIntE"
    },
    {
     "referenced_type" : "_ZTIRKN4llvm5APIntE"
    }
   ],
   "return_type" : "_ZTIN4llvm5APIntE",
   "source_file" : "external/llvm/include/llvm/ADT/APInt.h"
  },
  {
   "function_name" : "llvm::APInt::abs",
   "linker_set_key" : "_ZNK4llvm5APInt3absEv",
   "parameters" :
   [
    {
     "is_this_ptr" : true,
     "referenced_type" : "_ZTIPKN4llvm5APIntE"
    }
   ],
   "return_type" : "_ZTIN4llvm5APIntE",
   "source_file" : "external/llvm/include/llvm/ADT/APInt.h"
  },
  {
   "function_name" : "llvm::APInt::sge",
   "linker_set_key" : "_ZNK4llvm5APInt3sgeERKS0_",
   "parameters" :
   [
    {
     "is_this_ptr" : true,
     "referenced_type" : "_ZTIPKN4llvm5APIntE"
    },
    {
     "referenced_type" : "_ZTIRKN4llvm5APIntE"
    }
   ],
   "return_type" : "_ZTIb",
   "source_file" : "external/llvm/include/llvm/ADT/APInt.h"
  },
  {
   "function_name" : "llvm::APInt::sge",
   "linker_set_key" : "_ZNK4llvm5APInt3sgeEx",
   "parameters" :
   [
    {
     "is_this_ptr" : true,
     "referenced_type" : "_ZTIPKN4llvm5APIntE"
    },
    {
     "referenced_type" : "_ZTIx"
    }
   ],
   "return_type" : "_ZTIb",
   "source_file" : "external/llvm/include/llvm/ADT/APInt.h"
  },
  {
   "function_name" : "llvm::APInt::sgt",
   "linker_set_key" : "_ZNK4llvm5APInt3sgtERKS0_",
   "parameters" :
   [
    {
     "is_this_ptr" : true,
     "referenced_type" : "_ZTIPKN4llvm5APIntE"
    },
    {
     "referenced_type" : "_ZTIRKN4llvm5APIntE"
    }
   ],
   "return_type" : "_ZTIb",
   "source_file" : "external/llvm/include/llvm/ADT/APInt.h"
  },
  {
   "function_name" : "llvm::APInt::sgt",
   "linker_set_key" : "_ZNK4llvm5APInt3sgtEx",
   "parameters" :
   [
    {
     "is_this_ptr" : true,
     "referenced_type" : "_ZTIPKN4llvm5APIntE"
    },
    {
     "referenced_type" : "_ZTIx"
    }
   ],
   "return_type" : "_ZTIb",
   "source_file" : "external/llvm/include/llvm/ADT/APInt.h"
  },
  {
   "function_name" : "llvm::APInt::shl",
   "linker_set_key" : "_ZNK4llvm5APInt3shlEj",
   "parameters" :
   [
    {
     "is_this_ptr" : true,
     "referenced_type" : "_ZTIPKN4llvm5APIntE"
    },
    {
     "referenced_type" : "_ZTIj"
    }
   ],
   "return_type" : "_ZTIN4llvm5APIntE",
   "source_file" : "external/llvm/include/llvm/ADT/APInt.h"
  },
  {
   "function_name" : "llvm::APInt::sle",
   "linker_set_key" : "_ZNK4llvm5APInt3sleERKS0_",
   "parameters" :
   [
    {
     "is_this_ptr" : true,
     "referenced_type" : "_ZTIPKN4llvm5APIntE"
    },
    {
     "referenced_type" : "_ZTIRKN4llvm5APIntE"
    }
   ],
   "return_type" : "_ZTIb",
   "source_file" : "external/llvm/include/llvm/ADT/APInt.h"
  },
  {
   "function_name" : "llvm::APInt::sle",
   "linker_set_key" : "_ZNK4llvm5APInt3sleEy",
   "parameters" :
   [
    {
     "is_this_ptr" : true,
     "referenced_type" : "_ZTIPKN4llvm5APIntE"
    },
    {
     "referenced_type" : "_ZTIy"
    }
   ],
   "return_type" : "_ZTIb",
   "source_file" : "external/llvm/include/llvm/ADT/APInt.h"
  },
  {
   "function_name" : "llvm::APInt::slt",
   "linker_set_key" : "_ZNK4llvm5APInt3sltEx",
   "parameters" :
   [
    {
     "is_this_ptr" : true,
     "referenced_type" : "_ZTIPKN4llvm5APIntE"
    },
    {
     "referenced_type" : "_ZTIx"
    }
   ],
   "return_type" : "_ZTIb",
   "source_file" : "external/llvm/include/llvm/ADT/APInt.h"
  },
  {
   "function_name" : "llvm::APInt::uge",
   "linker_set_key" : "_ZNK4llvm5APInt3ugeERKS0_",
   "parameters" :
   [
    {
     "is_this_ptr" : true,
     "referenced_type" : "_ZTIPKN4llvm5APIntE"
    },
    {
     "referenced_type" : "_ZTIRKN4llvm5APIntE"
    }
   ],
   "return_type" : "_ZTIb",
   "source_file" : "external/llvm/include/llvm/ADT/APInt.h"
  },
  {
   "function_name" : "llvm::APInt::uge",
   "linker_set_key" : "_ZNK4llvm5APInt3ugeEy",
   "parameters" :
   [
    {
     "is_this_ptr" : true,
     "referenced_type" : "_ZTIPKN4llvm5APIntE"
    },
    {
     "referenced_type" : "_ZTIy"
    }
   ],
   "return_type" : "_ZTIb",
   "source_file" : "external/llvm/include/llvm/ADT/APInt.h"
  },
  {
   "function_name" : "llvm::APInt::ugt",
   "linker_set_key" : "_ZNK4llvm5APInt3ugtERKS0_",
   "parameters" :
   [
    {
     "is_this_ptr" : true,
     "referenced_type" : "_ZTIPKN4llvm5APIntE"
    },
    {
     "referenced_type" : "_ZTIRKN4llvm5APIntE"
    }
   ],
   "return_type" : "_ZTIb",
   "source_file" : "external/llvm/include/llvm/ADT/APInt.h"
  },
  {
   "function_name" : "llvm::APInt::ugt",
   "linker_set_key" : "_ZNK4llvm5APInt3ugtEy",
   "parameters" :
   [
    {
     "is_this_ptr" : true,
     "referenced_type" : "_ZTIPKN4llvm5APIntE"
    },
    {
     "referenced_type" : "_ZTIy"
    }
   ],
   "return_type" : "_ZTIb",
   "source_file" : "external/llvm/include/llvm/ADT/APInt.h"
  },
  {
   "function_name" : "llvm::APInt::ule",
   "linker_set_key" : "_ZNK4llvm5APInt3uleERKS0_",
   "parameters" :
   [
    {
     "is_this_ptr" : true,
     "referenced_type" : "_ZTIPKN4llvm5APIntE"
    },
    {
     "referenced_type" : "_ZTIRKN4llvm5APIntE"
    }
   ],
   "return_type" : "_ZTIb",
   "source_file" : "external/llvm/include/llvm/ADT/APInt.h"
  },
  {
   "function_name" : "llvm::APInt::ule",
   "linker_set_key" : "_ZNK4llvm5APInt3uleEy",
   "parameters" :
   [
    {
     "is_this_ptr" : true,
     "referenced_type" : "_ZTIPKN4llvm5APIntE"
    },
    {
     "referenced_type" : "_ZTIy"
    }
   ],
   "return_type" : "_ZTIb",
   "source_file" : "external/llvm/include/llvm/ADT/APInt.h"
  },
  {
   "function_name" : "llvm::APInt::ult",
   "linker_set_key" : "_ZNK4llvm5APInt3ultEy",
   "parameters" :
   [
    {
     "is_this_ptr" : true,
     "referenced_type" : "_ZTIPKN4llvm5APIntE"
    },
    {
     "referenced_type" : "_ZTIy"
    }
   ],
   "return_type" : "_ZTIb",
   "source_file" : "external/llvm/include/llvm/ADT/APInt.h"
  },
  {
   "function_name" : "llvm::APInt::isIntN",
   "linker_set_key" : "_ZNK4llvm5APInt6isIntNEj",
   "parameters" :
   [
    {
     "is_this_ptr" : true,
     "referenced_type" : "_ZTIPKN4llvm5APIntE"
    },
    {
     "referenced_type" : "_ZTIj"
    }
   ],
   "return_type" : "_ZTIb",
   "source_file" : "external/llvm/include/llvm/ADT/APInt.h"
  },
  {
   "access" : "private",
   "function_name" : "llvm::APInt::getWord",
   "linker_set_key" : "_ZNK4llvm5APInt7getWordEj",
   "parameters" :
   [
    {
     "is_this_ptr" : true,
     "referenced_type" : "_ZTIPKN4llvm5APIntE"
    },
    {
     "referenced_type" : "_ZTIj"
    }
   ],
   "return_type" : "_ZTIy",
   "source_file" : "external/llvm/include/llvm/ADT/APInt.h"
  },
  {
   "function_name" : "llvm::APInt::logBase2",
   "linker_set_key" : "_ZNK4llvm5APInt8logBase2Ev",
   "parameters" :
   [
    {
     "is_this_ptr" : true,
     "referenced_type" : "_ZTIPKN4llvm5APIntE"
    }
   ],
   "return_type" : "_ZTIj",
   "source_file" : "external/llvm/include/llvm/ADT/APInt.h"
  },
  {
   "function_name" : "llvm::APInt::isSignBit",
   "linker_set_key" : "_ZNK4llvm5APInt9isSignBitEv",
   "parameters" :
   [
    {
     "is_this_ptr" : true,
     "referenced_type" : "_ZTIPKN4llvm5APIntE"
    }
   ],
   "return_type" : "_ZTIb",
   "source_file" : "external/llvm/include/llvm/ADT/APInt.h"
  },
  {
   "function_name" : "llvm::APInt::operator&",
   "linker_set_key" : "_ZNK4llvm5APIntanERKS0_",
   "parameters" :
   [
    {
     "is_this_ptr" : true,
     "referenced_type" : "_ZTIPKN4llvm5APIntE"
    },
    {
     "referenced_type" : "_ZTIRKN4llvm5APIntE"
    }
   ],
   "return_type" : "_ZTIN4llvm5APIntE",
   "source_file" : "external/llvm/include/llvm/ADT/APInt.h"
  },
  {
   "function_name" : "llvm::APInt::operator~",
   "linker_set_key" : "_ZNK4llvm5APIntcoEv",
   "parameters" :
   [
    {
     "is_this_ptr" : true,
     "referenced_type" : "_ZTIPKN4llvm5APIntE"
    }
   ],
   "return_type" : "_ZTIN4llvm5APIntE",
   "source_file" : "external/llvm/include/llvm/ADT/APInt.h"
  },
  {
   "function_name" : "llvm::APInt::operator^",
   "linker_set_key" : "_ZNK4llvm5APInteoERKS0_",
   "parameters" :
   [
    {
     "is_this_ptr" : true,
     "referenced_type" : "_ZTIPKN4llvm5APIntE"
    },
    {
     "referenced_type" : "_ZTIRKN4llvm5APIntE"
    }
   ],
   "return_type" : "_ZTIN4llvm5APIntE",
   "source_file" : "external/llvm/include/llvm/ADT/APInt.h"
  },
  {
   "function_name" : "llvm::APInt::operator==",
   "linker_set_key" : "_ZNK4llvm5APInteqERKS0_",
   "parameters" :
   [
    {
     "is_this_ptr" : true,
     "referenced_type" : "_ZTIPKN4llvm5APIntE"
    },
    {
     "referenced_type" : "_ZTIRKN4llvm5APIntE"
    }
   ],
   "return_type" : "_ZTIb",
   "source_file" : "external/llvm/include/llvm/ADT/APInt.h"
  },
  {
   "function_name" : "llvm::APInt::operator==",
   "linker_set_key" : "_ZNK4llvm5APInteqEy",
   "parameters" :
   [
    {
     "is_this_ptr" : true,
     "referenced_type" : "_ZTIPKN4llvm5APIntE"
    },
    {
     "referenced_type" : "_ZTIy"
    }
   ],
   "return_type" : "_ZTIb",
   "source_file" : "external/llvm/include/llvm/ADT/APInt.h"
  },
  {
   "function_name" : "llvm::APInt::operator[]",
   "linker_set_key" : "_ZNK4llvm5APIntixEj",
   "parameters" :
   [
    {
     "is_this_ptr" : true,
     "referenced_type" : "_ZTIPKN4llvm5APIntE"
    },
    {
     "referenced_type" : "_ZTIj"
    }
   ],
   "return_type" : "_ZTIb",
   "source_file" : "external/llvm/include/llvm/ADT/APInt.h"
  },
  {
   "function_name" : "llvm::APInt::operator<<",
   "linker_set_key" : "_ZNK4llvm5APIntlsERKS0_",
   "parameters" :
   [
    {
     "is_this_ptr" : true,
     "referenced_type" : "_ZTIPKN4llvm5APIntE"
    },
    {
     "referenced_type" : "_ZTIRKN4llvm5APIntE"
    }
   ],
   "return_type" : "_ZTIN4llvm5APIntE",
   "source_file" : "external/llvm/include/llvm/ADT/APInt.h"
  },
  {
   "function_name" : "llvm::APInt::operator<<",
   "linker_set_key" : "_ZNK4llvm5APIntlsEj",
   "parameters" :
   [
    {
     "is_this_ptr" : true,
     "referenced_type" : "_ZTIPKN4llvm5APIntE"
    },
    {
     "referenced_type" : "_ZTIj"
    }
   ],
   "return_type" : "_ZTIN4llvm5APIntE",
   "source_file" : "external/llvm/include/llvm/ADT/APInt.h"
  },
  {
   "function_name" : "llvm::APInt::operator!=",
   "linker_set_key" : "_ZNK4llvm5APIntneERKS0_",
   "parameters" :
   [
    {
     "is_this_ptr" : true,
     "referenced_type" : "_ZTIPKN4llvm5APIntE"
    },
    {
     "referenced_type" : "_ZTIRKN4llvm5APIntE"
    }
   ],
   "return_type" : "_ZTIb",
   "source_file" : "external/llvm/include/llvm/ADT/APInt.h"
  },
  {
   "function_name" : "llvm::APInt::operator!=",
   "linker_set_key" : "_ZNK4llvm5APIntneEy",
   "parameters" :
   [
    {
     "is_this_ptr" : true,
     "referenced_type" : "_ZTIPKN4llvm5APIntE"
    },
    {
     "referenced_type" : "_ZTIy"
    }
   ],
   "return_type" : "_ZTIb",
   "source_file" : "external/llvm/include/llvm/ADT/APInt.h"
  },
  {
   "function_name" : "llvm::APInt::operator-",
   "linker_set_key" : "_ZNK4llvm5APIntngEv",
   "parameters" :
   [
    {
     "is_this_ptr" : true,
     "referenced_type" : "_ZTIPKN4llvm5APIntE"
    }
   ],
   "return_type" : "_ZTIN4llvm5APIntE",
   "source_file" : "external/llvm/include/llvm/ADT/APInt.h"
  },
  {
   "function_name" : "llvm::APInt::operator!",
   "linker_set_key" : "_ZNK4llvm5APIntntEv",
   "parameters" :
   [
    {
     "is_this_ptr" : true,
     "referenced_type" : "_ZTIPKN4llvm5APIntE"
    }
   ],
   "return_type" : "_ZTIb",
   "source_file" : "external/llvm/include/llvm/ADT/APInt.h"
  },
  {
   "function_name" : "llvm::APInt::operator|",
   "linker_set_key" : "_ZNK4llvm5APIntorERKS0_",
   "parameters" :
   [
    {
     "is_this_ptr" : true,
     "referenced_type" : "_ZTIPKN4llvm5APIntE"
    },
    {
     "referenced_type" : "_ZTIRKN4llvm5APIntE"
    }
   ],
   "return_type" : "_ZTIN4llvm5APIntE",
   "source_file" : "external/llvm/include/llvm/ADT/APInt.h"
  },
  {
   "function_name" : "llvm::Value::getValueID",
   "linker_set_key" : "_ZNK4llvm5Value10getValueIDEv",
   "parameters" :
   [
    {
     "is_this_ptr" : true,
     "referenced_type" : "_ZTIPKN4llvm5ValueE"
    }
   ],
   "return_type" : "_ZTIj",
   "source_file" : "external/llvm/include/llvm/IR/Value.h"
  },
  {
   "function_name" : "llvm::Value::user_begin",
   "linker_set_key" : "_ZNK4llvm5Value10user_beginEv",
   "parameters" :
   [
    {
     "is_this_ptr" : true,
     "referenced_type" : "_ZTIPKN4llvm5ValueE"
    }
   ],
   "return_type" : "_ZTIN4llvm5Value18user_iterator_implIKNS_4UserEEE",
   "source_file" : "external/llvm/include/llvm/IR/Value.h"
  },
  {
   "function_name" : "llvm::Value::user_empty",
   "linker_set_key" : "_ZNK4llvm5Value10user_emptyEv",
   "parameters" :
   [
    {
     "is_this_ptr" : true,
     "referenced_type" : "_ZTIPKN4llvm5ValueE"
    }
   ],
   "return_type" : "_ZTIb",
   "source_file" : "external/llvm/include/llvm/IR/Value.h"
  },
  {
   "function_name" : "llvm::Value::hasValueHandle",
   "linker_set_key" : "_ZNK4llvm5Value14hasValueHandleEv",
   "parameters" :
   [
    {
     "is_this_ptr" : true,
     "referenced_type" : "_ZTIPKN4llvm5ValueE"
    }
   ],
   "return_type" : "_ZTIb",
   "source_file" : "external/llvm/include/llvm/IR/Value.h"
  },
  {
   "function_name" : "llvm::Value::DoPHITranslation",
   "linker_set_key" : "_ZNK4llvm5Value16DoPHITranslationEPKNS_10BasicBlockES3_",
   "parameters" :
   [
    {
     "is_this_ptr" : true,
     "referenced_type" : "_ZTIPKN4llvm5ValueE"
    },
    {
     "referenced_type" : "_ZTIPKN4llvm10BasicBlockE"
    },
    {
     "referenced_type" : "_ZTIPKN4llvm10BasicBlockE"
    }
   ],
   "return_type" : "_ZTIPKN4llvm5ValueE",
   "source_file" : "external/llvm/include/llvm/IR/Value.h"
  },
  {
   "function_name" : "llvm::Value::isUsedByMetadata",
   "linker_set_key" : "_ZNK4llvm5Value16isUsedByMetadataEv",
   "parameters" :
   [
    {
     "is_this_ptr" : true,
     "referenced_type" : "_ZTIPKN4llvm5ValueE"
    }
   ],
   "return_type" : "_ZTIb",
   "source_file" : "external/llvm/include/llvm/IR/Value.h"
  },
  {
   "function_name" : "llvm::Value::materialized_uses",
   "linker_set_key" : "_ZNK4llvm5Value17materialized_usesEv",
   "parameters" :
   [
    {
     "is_this_ptr" : true,
     "referenced_type" : "_ZTIPKN4llvm5ValueE"
    }
   ],
   "return_type" : "_ZTIN4llvm14iterator_rangeINS_5Value17use_iterator_implIKNS_3UseEEEEE",
   "source_file" : "external/llvm/include/llvm/IR/Value.h"
  },
  {
   "function_name" : "llvm::Value::stripPointerCasts",
   "linker_set_key" : "_ZNK4llvm5Value17stripPointerCastsEv",
   "parameters" :
   [
    {
     "is_this_ptr" : true,
     "referenced_type" : "_ZTIPKN4llvm5ValueE"
    }
   ],
   "return_type" : "_ZTIPKN4llvm5ValueE",
   "source_file" : "external/llvm/include/llvm/IR/Value.h"
  },
  {
   "function_name" : "llvm::Value::use_iterator_impl<const llvm::Use>::operator==",
   "linker_set_key" : "_ZNK4llvm5Value17use_iterator_implIKNS_3UseEEeqERKS4_",
   "parameters" :
   [
    {
     "is_this_ptr" : true,
     "referenced_type" : "_ZTIPKN4llvm5Value17use_iterator_implIKNS_3UseEEE"
    },
    {
     "referenced_type" : "_ZTIRKN4llvm5Value17use_iterator_implIKNS_3UseEEE"
    }
   ],
   "return_type" : "_ZTIb",
   "source_file" : "external/llvm/include/llvm/IR/Value.h"
  },
  {
   "function_name" : "llvm::Value::use_iterator_impl<llvm::Use>::operator*",
   "linker_set_key" : "_ZNK4llvm5Value17use_iterator_implINS_3UseEEdeEv",
   "parameters" :
   [
    {
     "is_this_ptr" : true,
     "referenced_type" : "_ZTIPKN4llvm5Value17use_iterator_implINS_3UseEEE"
    }
   ],
   "return_type" : "_ZTIRN4llvm3UseE",
   "source_file" : "external/llvm/include/llvm/IR/Value.h"
  },
  {
   "function_name" : "llvm::Value::use_iterator_impl<llvm::Use>::operator->",
   "linker_set_key" : "_ZNK4llvm5Value17use_iterator_implINS_3UseEEptEv",
   "parameters" :
   [
    {
     "is_this_ptr" : true,
     "referenced_type" : "_ZTIPKN4llvm5Value17use_iterator_implINS_3UseEEE"
    }
   ],
   "return_type" : "_ZTIPN4llvm3UseE",
   "source_file" : "external/llvm/include/llvm/IR/Value.h"
  },
  {
   "function_name" : "llvm::Value::materialized_users",
   "linker_set_key" : "_ZNK4llvm5Value18materialized_usersEv",
   "parameters" :
   [
    {
     "is_this_ptr" : true,
     "referenced_type" : "_ZTIPKN4llvm5ValueE"
    }
   ],
   "return_type" : "_ZTIN4llvm14iterator_rangeINS_5Value18user_iterator_implIKNS_4UserEEEEE",
   "source_file" : "external/llvm/include/llvm/IR/Value.h"
  },
  {
   "function_name" : "llvm::Value::user_iterator_impl<const llvm::User>::operator*",
   "linker_set_key" : "_ZNK4llvm5Value18user_iterator_implIKNS_4UserEEdeEv",
   "parameters" :
   [
    {
     "is_this_ptr" : true,
     "referenced_type" : "_ZTIPKN4llvm5Value18user_iterator_implIKNS_4UserEEE"
    }
   ],
   "return_type" : "_ZTIPKN4llvm4UserE",
   "source_file" : "external/llvm/include/llvm/IR/Value.h"
  },
  {
   "function_name" : "llvm::Value::user_iterator_impl<llvm::User>::operator*",
   "linker_set_key" : "_ZNK4llvm5Value18user_iterator_implINS_4UserEEdeEv",
   "parameters" :
   [
    {
     "is_this_ptr" : true,
     "referenced_type" : "_ZTIPKN4llvm5Value18user_iterator_implINS_4UserEEE"
    }
   ],
   "return_type" : "_ZTIPN4llvm4UserE",
   "source_file" : "external/llvm/include/llvm/IR/Value.h"
  },
  {
   "function_name" : "llvm::Value::stripInBoundsOffsets",
   "linker_set_key" : "_ZNK4llvm5Value20stripInBoundsOffsetsEv",
   "parameters" :
   [
    {
     "is_this_ptr" : true,
     "referenced_type" : "_ZTIPKN4llvm5ValueE"
    }
   ],
   "return_type" : "_ZTIPKN4llvm5ValueE",
   "source_file" : "external/llvm/include/llvm/IR/Value.h"
  },
  {
   "function_name" : "llvm::Value::materialized_use_begin",
   "linker_set_key" : "_ZNK4llvm5Value22materialized_use_beginEv",
   "parameters" :
   [
    {
     "is_this_ptr" : true,
     "referenced_type" : "_ZTIPKN4llvm5ValueE"
    }
   ],
   "return_type" : "_ZTIN4llvm5Value17use_iterator_implIKNS_3UseEEE",
   "source_file" : "external/llvm/include/llvm/IR/Value.h"
  },
  {
   "function_name" : "llvm::Value::materialized_user_begin",
   "linker_set_key" : "_ZNK4llvm5Value23materialized_user_beginEv",
   "parameters" :
   [
    {
     "is_this_ptr" : true,
     "referenced_type" : "_ZTIPKN4llvm5ValueE"
    }
   ],
   "return_type" : "_ZTIN4llvm5Value18user_iterator_implIKNS_4UserEEE",
   "source_file" : "external/llvm/include/llvm/IR/Value.h"
  },
  {
   "access" : "protected",
   "function_name" : "llvm::Value::getSubclassDataFromValue",
   "linker_set_key" : "_ZNK4llvm5Value24getSubclassDataFromValueEv",
   "parameters" :
   [
    {
     "is_this_ptr" : true,
     "referenced_type" : "_ZTIPKN4llvm5ValueE"
    }
   ],
   "return_type" : "_ZTIt",
   "source_file" : "external/llvm/include/llvm/IR/Value.h"
  },
  {
   "function_name" : "llvm::Value::getRawSubclassOptionalData",
   "linker_set_key" : "_ZNK4llvm5Value26getRawSubclassOptionalDataEv",
   "parameters" :
   [
    {
     "is_this_ptr" : true,
     "referenced_type" : "_ZTIPKN4llvm5ValueE"
    }
   ],
   "return_type" : "_ZTIj",
   "source_file" : "external/llvm/include/llvm/IR/Value.h"
  },
  {
   "function_name" : "llvm::Value::hasSameSubclassOptionalData",
   "linker_set_key" : "_ZNK4llvm5Value27hasSameSubclassOptionalDataEPKS0_",
   "parameters" :
   [
    {
     "is_this_ptr" : true,
     "referenced_type" : "_ZTIPKN4llvm5ValueE"
    },
    {
     "referenced_type" : "_ZTIPKN4llvm5ValueE"
    }
   ],
   "return_type" : "_ZTIb",
   "source_file" : "external/llvm/include/llvm/IR/Value.h"
  },
  {
   "function_name" : "llvm::Value::stripInBoundsConstantOffsets",
   "linker_set_key" : "_ZNK4llvm5Value28stripInBoundsConstantOffsetsEv",
   "parameters" :
   [
    {
     "is_this_ptr" : true,
     "referenced_type" : "_ZTIPKN4llvm5ValueE"
    }
   ],
   "return_type" : "_ZTIPKN4llvm5ValueE",
   "source_file" : "external/llvm/include/llvm/IR/Value.h"
  },
  {
   "function_name" : "llvm::Value::stripPointerCastsNoFollowAliases",
   "linker_set_key" : "_ZNK4llvm5Value32stripPointerCastsNoFollowAliasesEv",
   "parameters" :
   [
    {
     "is_this_ptr" : true,
     "referenced_type" : "_ZTIPKN4llvm5ValueE"
    }
   ],
   "return_type" : "_ZTIPKN4llvm5ValueE",
   "source_file" : "external/llvm/include/llvm/IR/Value.h"
  },
  {
   "function_name" : "llvm::Value::stripAndAccumulateInBoundsConstantOffsets",
   "linker_set_key" : "_ZNK4llvm5Value41stripAndAccumulateInBoundsConstantOffsetsERKNS_10DataLayoutERNS_5APIntE",
   "parameters" :
   [
    {
     "is_this_ptr" : true,
     "referenced_type" : "_ZTIPKN4llvm5ValueE"
    },
    {
     "referenced_type" : "_ZTIRKN4llvm10DataLayoutE"
    },
    {
     "referenced_type" : "_ZTIRN4llvm5APIntE"
    }
   ],
   "return_type" : "_ZTIPKN4llvm5ValueE",
   "source_file" : "external/llvm/include/llvm/IR/Value.h"
  },
  {
   "function_name" : "llvm::Value::uses",
   "linker_set_key" : "_ZNK4llvm5Value4usesEv",
   "parameters" :
   [
    {
     "is_this_ptr" : true,
     "referenced_type" : "_ZTIPKN4llvm5ValueE"
    }
   ],
   "return_type" : "_ZTIN4llvm14iterator_rangeINS_5Value17use_iterator_implIKNS_3UseEEEEE",
   "source_file" : "external/llvm/include/llvm/IR/Value.h"
  },
  {
   "function_name" : "llvm::Value::users",
   "linker_set_key" : "_ZNK4llvm5Value5usersEv",
   "parameters" :
   [
    {
     "is_this_ptr" : true,
     "referenced_type" : "_ZTIPKN4llvm5ValueE"
    }
   ],
   "return_type" : "_ZTIN4llvm14iterator_rangeINS_5Value18user_iterator_implIKNS_4UserEEEEE",
   "source_file" : "external/llvm/include/llvm/IR/Value.h"
  },
  {
   "function_name" : "llvm::Value::getType",
   "linker_set_key" : "_ZNK4llvm5Value7getTypeEv",
   "parameters" :
   [
    {
     "is_this_ptr" : true,
     "referenced_type" : "_ZTIPKN4llvm5ValueE"
    }
   ],
   "return_type" : "_ZTIPN4llvm4TypeE",
   "source_file" : "external/llvm/include/llvm/IR/Value.h"
  },
  {
   "function_name" : "llvm::Value::hasName",
   "linker_set_key" : "_ZNK4llvm5Value7hasNameEv",
   "parameters" :
   [
    {
     "is_this_ptr" : true,
     "referenced_type" : "_ZTIPKN4llvm5ValueE"
    }
   ],
   "return_type" : "_ZTIb",
   "source_file" : "external/llvm/include/llvm/IR/Value.h"
  },
  {
   "function_name" : "llvm::Value::use_end",
   "linker_set_key" : "_ZNK4llvm5Value7use_endEv",
   "parameters" :
   [
    {
     "is_this_ptr" : true,
     "referenced_type" : "_ZTIPKN4llvm5ValueE"
    }
   ],
   "return_type" : "_ZTIN4llvm5Value17use_iterator_implIKNS_3UseEEE",
   "source_file" : "external/llvm/include/llvm/IR/Value.h"
  },
  {
   "function_name" : "llvm::Value::user_end",
   "linker_set_key" : "_ZNK4llvm5Value8user_endEv",
   "parameters" :
   [
    {
     "is_this_ptr" : true,
     "referenced_type" : "_ZTIPKN4llvm5ValueE"
    }
   ],
   "return_type" : "_ZTIN4llvm5Value18user_iterator_implIKNS_4UserEEE",
   "source_file" : "external/llvm/include/llvm/IR/Value.h"
  },
  {
   "function_name" : "llvm::Value::hasOneUse",
   "linker_set_key" : "_ZNK4llvm5Value9hasOneUseEv",
   "parameters" :
   [
    {
     "is_this_ptr" : true,
     "referenced_type" : "_ZTIPKN4llvm5ValueE"
    }
   ],
   "return_type" : "_ZTIb",
   "source_file" : "external/llvm/include/llvm/IR/Value.h"
  },
  {
   "function_name" : "llvm::Value::use_begin",
   "linker_set_key" : "_ZNK4llvm5Value9use_beginEv",
   "parameters" :
   [
    {
     "is_this_ptr" : true,
     "referenced_type" : "_ZTIPKN4llvm5ValueE"
    }
   ],
   "return_type" : "_ZTIN4llvm5Value17use_iterator_implIKNS_3UseEEE",
   "source_file" : "external/llvm/include/llvm/IR/Value.h"
  },
  {
   "function_name" : "llvm::Value::use_empty",
   "linker_set_key" : "_ZNK4llvm5Value9use_emptyEv",
   "parameters" :
   [
    {
     "is_this_ptr" : true,
     "referenced_type" : "_ZTIPKN4llvm5ValueE"
    }
   ],
   "return_type" : "_ZTIb",
   "source_file" : "external/llvm/include/llvm/IR/Value.h"
  },
  {
   "function_name" : "llvm::Value::user_back",
   "linker_set_key" : "_ZNK4llvm5Value9user_backEv",
   "parameters" :
   [
    {
     "is_this_ptr" : true,
     "referenced_type" : "_ZTIPKN4llvm5ValueE"
    }
   ],
   "return_type" : "_ZTIPKN4llvm4UserE",
   "source_file" : "external/llvm/include/llvm/IR/Value.h"
  },
  {
   "function_name" : "llvm::APFloat::isInfinity",
   "linker_set_key" : "_ZNK4llvm7APFloat10isInfinityEv",
   "parameters" :
   [
    {
     "is_this_ptr" : true,
     "referenced_type" : "_ZTIPKN4llvm7APFloatE"
    }
   ],
   "return_type" : "_ZTIb",
   "source_file" : "external/llvm/include/llvm/ADT/APFloat.h"
  },
  {
   "function_name" : "llvm::APFloat::isNegative",
   "linker_set_key" : "_ZNK4llvm7APFloat10isNegativeEv",
   "parameters" :
   [
    {
     "is_this_ptr" : true,
     "referenced_type" : "_ZTIPKN4llvm7APFloatE"
    }
   ],
   "return_type" : "_ZTIb",
   "source_file" : "external/llvm/include/llvm/ADT/APFloat.h"
  },
  {
   "function_name" : "llvm::APFloat::getCategory",
   "linker_set_key" : "_ZNK4llvm7APFloat11getCategoryEv",
   "parameters" :
   [
    {
     "is_this_ptr" : true,
     "referenced_type" : "_ZTIPKN4llvm7APFloatE"
    }
   ],
   "return_type" : "_ZTIN4llvm7APFloat11fltCategoryE",
   "source_file" : "external/llvm/include/llvm/ADT/APFloat.h"
  },
  {
   "function_name" : "llvm::APFloat::getSemantics",
   "linker_set_key" : "_ZNK4llvm7APFloat12getSemanticsEv",
   "parameters" :
   [
    {
     "is_this_ptr" : true,
     "referenced_type" : "_ZTIPKN4llvm7APFloatE"
    }
   ],
   "return_type" : "_ZTIRKN4llvm12fltSemanticsE",
   "source_file" : "external/llvm/include/llvm/ADT/APFloat.h"
  },
  {
   "function_name" : "llvm::APFloat::needsCleanup",
   "linker_set_key" : "_ZNK4llvm7APFloat12needsCleanupEv",
   "parameters" :
   [
    {
     "is_this_ptr" : true,
     "referenced_type" : "_ZTIPKN4llvm7APFloatE"
    }
   ],
   "return_type" : "_ZTIb",
   "source_file" : "external/llvm/include/llvm/ADT/APFloat.h"
  },
  {
   "function_name" : "llvm::APFloat::isFiniteNonZero",
   "linker_set_key" : "_ZNK4llvm7APFloat15isFiniteNonZeroEv",
   "parameters" :
   [
    {
     "is_this_ptr" : true,
     "referenced_type" : "_ZTIPKN4llvm7APFloatE"
    }
   ],
   "return_type" : "_ZTIb",
   "source_file" : "external/llvm/include/llvm/ADT/APFloat.h"
  },
  {
   "function_name" : "llvm::APFloat::isNaN",
   "linker_set_key" : "_ZNK4llvm7APFloat5isNaNEv",
   "parameters" :
   [
    {
     "is_this_ptr" : true,
     "referenced_type" : "_ZTIPKN4llvm7APFloatE"
    }
   ],
   "return_type" : "_ZTIb",
   "source_file" : "external/llvm/include/llvm/ADT/APFloat.h"
  },
  {
   "function_name" : "llvm::APFloat::isZero",
   "linker_set_key" : "_ZNK4llvm7APFloat6isZeroEv",
   "parameters" :
   [
    {
     "is_this_ptr" : true,
     "referenced_type" : "_ZTIPKN4llvm7APFloatE"
    }
   ],
   "return_type" : "_ZTIb",
   "source_file" : "external/llvm/include/llvm/ADT/APFloat.h"
  },
  {
   "function_name" : "llvm::APFloat::isFinite",
   "linker_set_key" : "_ZNK4llvm7APFloat8isFiniteEv",
   "parameters" :
   [
    {
     "is_this_ptr" : true,
     "referenced_type" : "_ZTIPKN4llvm7APFloatE"
    }
   ],
   "return_type" : "_ZTIb",
   "source_file" : "external/llvm/include/llvm/ADT/APFloat.h"
  },
  {
   "function_name" : "llvm::APFloat::isNormal",
   "linker_set_key" : "_ZNK4llvm7APFloat8isNormalEv",
   "parameters" :
   [
    {
     "is_this_ptr" : true,
     "referenced_type" : "_ZTIPKN4llvm7APFloatE"
    }
   ],
   "return_type" : "_ZTIb",
   "source_file" : "external/llvm/include/llvm/ADT/APFloat.h"
  },
  {
   "function_name" : "llvm::APFloat::isNegZero",
   "linker_set_key" : "_ZNK4llvm7APFloat9isNegZeroEv",
   "parameters" :
   [
    {
     "is_this_ptr" : true,
     "referenced_type" : "_ZTIPKN4llvm7APFloatE"
    }
   ],
   "return_type" : "_ZTIb",
   "source_file" : "external/llvm/include/llvm/ADT/APFloat.h"
  },
  {
   "function_name" : "llvm::APFloat::isNonZero",
   "linker_set_key" : "_ZNK4llvm7APFloat9isNonZeroEv",
   "parameters" :
   [
    {
     "is_this_ptr" : true,
     "referenced_type" : "_ZTIPKN4llvm7APFloatE"
    }
   ],
   "return_type" : "_ZTIb",
   "source_file" : "external/llvm/include/llvm/ADT/APFloat.h"
  },
  {
   "function_name" : "llvm::APFloat::isPosZero",
   "linker_set_key" : "_ZNK4llvm7APFloat9isPosZeroEv",
   "parameters" :
   [
    {
     "is_this_ptr" : true,
     "referenced_type" : "_ZTIPKN4llvm7APFloatE"
    }
   ],
   "return_type" : "_ZTIb",
   "source_file" : "external/llvm/include/llvm/ADT/APFloat.h"
  },
  {
   "function_name" : "llvm::APFloat::operator/",
   "linker_set_key" : "_ZNK4llvm7APFloatdvERKS0_",
   "parameters" :
   [
    {
     "is_this_ptr" : true,
     "referenced_type" : "_ZTIPKN4llvm7APFloatE"
    },
    {
     "referenced_type" : "_ZTIRKN4llvm7APFloatE"
    }
   ],
   "return_type" : "_ZTIN4llvm7APFloatE",
   "source_file" : "external/llvm/include/llvm/ADT/APFloat.h"
  },
  {
   "function_name" : "llvm::APFloat::operator-",
   "linker_set_key" : "_ZNK4llvm7APFloatmiERKS0_",
   "parameters" :
   [
    {
     "is_this_ptr" : true,
     "referenced_type" : "_ZTIPKN4llvm7APFloatE"
    },
    {
     "referenced_type" : "_ZTIRKN4llvm7APFloatE"
    }
   ],
   "return_type" : "_ZTIN4llvm7APFloatE",
   "source_file" : "external/llvm/include/llvm/ADT/APFloat.h"
  },
  {
   "function_name" : "llvm::APFloat::operator*",
   "linker_set_key" : "_ZNK4llvm7APFloatmlERKS0_",
   "parameters" :
   [
    {
     "is_this_ptr" : true,
     "referenced_type" : "_ZTIPKN4llvm7APFloatE"
    },
    {
     "referenced_type" : "_ZTIRKN4llvm7APFloatE"
    }
   ],
   "return_type" : "_ZTIN4llvm7APFloatE",
   "source_file" : "external/llvm/include/llvm/ADT/APFloat.h"
  },
  {
   "function_name" : "llvm::APFloat::operator+",
   "linker_set_key" : "_ZNK4llvm7APFloatplERKS0_",
   "parameters" :
   [
    {
     "is_this_ptr" : true,
     "referenced_type" : "_ZTIPKN4llvm7APFloatE"
    },
    {
     "referenced_type" : "_ZTIRKN4llvm7APFloatE"
    }
   ],
   "return_type" : "_ZTIN4llvm7APFloatE",
   "source_file" : "external/llvm/include/llvm/ADT/APFloat.h"
  },
  {
   "function_name" : "llvm::support::detail::packed_endian_specific_integral<unsigned int, llvm::support::big, 1>::operator unsigned int",
   "linker_set_key" : "_ZNK4llvm7support6detail31packed_endian_specific_integralIjLNS0_10endiannessE0ELj1EEcvjEv",
   "parameters" :
   [
    {
     "is_this_ptr" : true,
     "referenced_type" : "_ZTIPKN4llvm7support6detail31packed_endian_specific_integralIjLNS0_10endiannessE0ELj1EEE"
    }
   ],
   "return_type" : "_ZTIj",
   "source_file" : "external/llvm/include/llvm/Support/Endian.h"
  },
  {
   "function_name" : "llvm::support::detail::packed_endian_specific_integral<unsigned int, llvm::support::little, 1>::operator unsigned int",
   "linker_set_key" : "_ZNK4llvm7support6detail31packed_endian_specific_integralIjLNS0_10endiannessE1ELj1EEcvjEv",
   "parameters" :
   [
    {
     "is_this_ptr" : true,
     "referenced_type" : "_ZTIPKN4llvm7support6detail31packed_endian_specific_integralIjLNS0_10endiannessE1ELj1EEE"
    }
   ],
   "return_type" : "_ZTIj",
   "source_file" : "external/llvm/include/llvm/Support/Endian.h"
  },
  {
   "function_name" : "llvm::support::detail::packed_endian_specific_integral<unsigned short, llvm::support::big, 1>::operator unsigned short",
   "linker_set_key" : "_ZNK4llvm7support6detail31packed_endian_specific_integralItLNS0_10endiannessE0ELj1EEcvtEv",
   "parameters" :
   [
    {
     "is_this_ptr" : true,
     "referenced_type" : "_ZTIPKN4llvm7support6detail31packed_endian_specific_integralItLNS0_10endiannessE0ELj1EEE"
    }
   ],
   "return_type" : "_ZTIt",
   "source_file" : "external/llvm/include/llvm/Support/Endian.h"
  },
  {
   "function_name" : "llvm::support::detail::packed_endian_specific_integral<unsigned short, llvm::support::little, 1>::operator unsigned short",
   "linker_set_key" : "_ZNK4llvm7support6detail31packed_endian_specific_integralItLNS0_10endiannessE1ELj1EEcvtEv",
   "parameters" :
   [
    {
     "is_this_ptr" : true,
     "referenced_type" : "_ZTIPKN4llvm7support6detail31packed_endian_specific_integralItLNS0_10endiannessE1ELj1EEE"
    }
   ],
   "return_type" : "_ZTIt",
   "source_file" : "external/llvm/include/llvm/Support/Endian.h"
  },
  {
   "function_name" : "llvm::support::detail::packed_endian_specific_integral<unsigned long long, llvm::support::big, 1>::operator unsigned long long",
   "linker_set_key" : "_ZNK4llvm7support6detail31packed_endian_specific_integralIyLNS0_10endiannessE0ELj1EEcvyEv",
   "parameters" :
   [
    {
     "is_this_ptr" : true,
     "referenced_type" : "_ZTIPKN4llvm7support6detail31packed_endian_specific_integralIyLNS0_10endiannessE0ELj1EEE"
    }
   ],
   "return_type" : "_ZTIy",
   "source_file" : "external/llvm/include/llvm/Support/Endian.h"
  },
  {
   "function_name" : "llvm::support::detail::packed_endian_specific_integral<unsigned long long, llvm::support::little, 1>::operator unsigned long long",
   "linker_set_key" : "_ZNK4llvm7support6detail31packed_endian_specific_integralIyLNS0_10endiannessE1ELj1EEcvyEv",
   "parameters" :
   [
    {
     "is_this_ptr" : true,
     "referenced_type" : "_ZTIPKN4llvm7support6detail31packed_endian_specific_integralIyLNS0_10endiannessE1ELj1EEE"
    }
   ],
   "return_type" : "_ZTIy",
   "source_file" : "external/llvm/include/llvm/Support/Endian.h"
  },
  {
   "function_name" : "llvm::Constant::stripPointerCasts",
   "linker_set_key" : "_ZNK4llvm8Constant17stripPointerCastsEv",
   "parameters" :
   [
    {
     "is_this_ptr" : true,
     "referenced_type" : "_ZTIPKN4llvm8ConstantE"
    }
   ],
   "return_type" : "_ZTIPKN4llvm8ConstantE",
   "source_file" : "external/llvm/include/llvm/IR/Constant.h"
  },
  {
   "function_name" : "llvm::ArrayType::getNumElements",
   "linker_set_key" : "_ZNK4llvm9ArrayType14getNumElementsEv",
   "parameters" :
   [
    {
     "is_this_ptr" : true,
     "referenced_type" : "_ZTIPKN4llvm9ArrayTypeE"
    }
   ],
   "return_type" : "_ZTIy",
   "source_file" : "external/llvm/include/llvm/IR/DerivedTypes.h"
  },
  {
   "function_name" : "llvm::StringMap<llvm::Value *, llvm::MallocAllocator>::end",
   "linker_set_key" : "_ZNK4llvm9StringMapIPNS_5ValueENS_15MallocAllocatorEE3endEv",
   "parameters" :
   [
    {
     "is_this_ptr" : true,
     "referenced_type" : "_ZTIPKN4llvm9StringMapIPNS_5ValueENS_15MallocAllocatorEEE"
    }
   ],
   "return_type" : "_ZTIN4llvm22StringMapConstIteratorIPNS_5ValueEEE",
   "source_file" : "external/llvm/include/llvm/ADT/StringMap.h"
  },
  {
   "function_name" : "llvm::StringMap<llvm::Value *, llvm::MallocAllocator>::find",
   "linker_set_key" : "_ZNK4llvm9StringMapIPNS_5ValueENS_15MallocAllocatorEE4findENS_9StringRefE",
   "parameters" :
   [
    {
     "is_this_ptr" : true,
     "referenced_type" : "_ZTIPKN4llvm9StringMapIPNS_5ValueENS_15MallocAllocatorEEE"
    },
    {
     "referenced_type" : "_ZTIN4llvm9StringRefE"
    }
   ],
   "return_type" : "_ZTIN4llvm22StringMapConstIteratorIPNS_5ValueEEE",
   "source_file" : "external/llvm/include/llvm/ADT/StringMap.h"
  },
  {
   "function_name" : "llvm::StringMap<llvm::Value *, llvm::MallocAllocator>::begin",
   "linker_set_key" : "_ZNK4llvm9StringMapIPNS_5ValueENS_15MallocAllocatorEE5beginEv",
   "parameters" :
   [
    {
     "is_this_ptr" : true,
     "referenced_type" : "_ZTIPKN4llvm9StringMapIPNS_5ValueENS_15MallocAllocatorEEE"
    }
   ],
   "return_type" : "_ZTIN4llvm22StringMapConstIteratorIPNS_5ValueEEE",
   "source_file" : "external/llvm/include/llvm/ADT/StringMap.h"
  },
  {
   "function_name" : "llvm::StringMap<llvm::Value *, llvm::MallocAllocator>::lookup",
   "linker_set_key" : "_ZNK4llvm9StringMapIPNS_5ValueENS_15MallocAllocatorEE6lookupENS_9StringRefE",
   "parameters" :
   [
    {
     "is_this_ptr" : true,
     "referenced_type" : "_ZTIPKN4llvm9StringMapIPNS_5ValueENS_15MallocAllocatorEEE"
    },
    {
     "referenced_type" : "_ZTIN4llvm9StringRefE"
    }
   ],
   "return_type" : "_ZTIPN4llvm5ValueE",
   "source_file" : "external/llvm/include/llvm/ADT/StringMap.h"
  },
  {
   "function_name" : "llvm::StringRef::drop_front",
   "linker_set_key" : "_ZNK4llvm9StringRef10drop_frontEj",
   "parameters" :
   [
    {
     "is_this_ptr" : true,
     "referenced_type" : "_ZTIPKN4llvm9StringRefE"
    },
    {
     "default_arg" : true,
     "referenced_type" : "_ZTIj"
    }
   ],
   "return_type" : "_ZTIN4llvm9StringRefE",
   "source_file" : "external/llvm/include/llvm/ADT/StringRef.h"
  },
  {
   "function_name" : "llvm::StringRef::startswith",
   "linker_set_key" : "_ZNK4llvm9StringRef10startswithES0_",
   "parameters" :
   [
    {
     "is_this_ptr" : true,
     "referenced_type" : "_ZTIPKN4llvm9StringRefE"
    },
    {
     "referenced_type" : "_ZTIN4llvm9StringRefE"
    }
   ],
   "return_type" : "_ZTIb",
   "source_file" : "external/llvm/include/llvm/ADT/StringRef.h"
  },
  {
   "function_name" : "llvm::StringRef::bytes_begin",
   "linker_set_key" : "_ZNK4llvm9StringRef11bytes_beginEv",
   "parameters" :
   [
    {
     "is_this_ptr" : true,
     "referenced_type" : "_ZTIPKN4llvm9StringRefE"
    }
   ],
   "return_type" : "_ZTIPKh",
   "source_file" : "external/llvm/include/llvm/ADT/StringRef.h"
  },
  {
   "function_name" : "llvm::StringRef::equals_lower",
   "linker_set_key" : "_ZNK4llvm9StringRef12equals_lowerES0_",
   "parameters" :
   [
    {
     "is_this_ptr" : true,
     "referenced_type" : "_ZTIPKN4llvm9StringRefE"
    },
    {
     "referenced_type" : "_ZTIN4llvm9StringRefE"
    }
   ],
   "return_type" : "_ZTIb",
   "source_file" : "external/llvm/include/llvm/ADT/StringRef.h"
  },
  {
   "function_name" : "llvm::StringRef::find_last_of",
   "linker_set_key" : "_ZNK4llvm9StringRef12find_last_ofEcj",
   "parameters" :
   [
    {
     "is_this_ptr" : true,
     "referenced_type" : "_ZTIPKN4llvm9StringRefE"
    },
    {
     "referenced_type" : "_ZTIc"
    },
    {
     "default_arg" : true,
     "referenced_type" : "_ZTIj"
    }
   ],
   "return_type" : "_ZTIj",
   "source_file" : "external/llvm/include/llvm/ADT/StringRef.h"
  },
  {
   "function_name" : "llvm::StringRef::find_first_of",
   "linker_set_key" : "_ZNK4llvm9StringRef13find_first_ofEcj",
   "parameters" :
   [
    {
     "is_this_ptr" : true,
     "referenced_type" : "_ZTIPKN4llvm9StringRefE"
    },
    {
     "referenced_type" : "_ZTIc"
    },
    {
     "default_arg" : true,
     "referenced_type" : "_ZTIj"
    }
   ],
   "return_type" : "_ZTIj",
   "source_file" : "external/llvm/include/llvm/ADT/StringRef.h"
  },
  {
   "function_name" : "llvm::StringRef::end",
   "linker_set_key" : "_ZNK4llvm9StringRef3endEv",
   "parameters" :
   [
    {
     "is_this_ptr" : true,
     "referenced_type" : "_ZTIPKN4llvm9StringRefE"
    }
   ],
   "return_type" : "_ZTIPKc",
   "source_file" : "external/llvm/include/llvm/ADT/StringRef.h"
  },
  {
   "function_name" : "llvm::StringRef::str",
   "linker_set_key" : "_ZNK4llvm9StringRef3strEv",
   "parameters" :
   [
    {
     "is_this_ptr" : true,
     "referenced_type" : "_ZTIPKN4llvm9StringRefE"
    }
   ],
