{
 "array_types" :
 [
  {
   "alignment" : 1,
   "linker_set_key" : "_ZTIA5121_h",
   "name" : "unsigned char [5121]",
   "referenced_type" : "_ZTIh",
   "self_type" : "_ZTIA5121_h",
   "size" : 5121,
   "source_file" : "system/logging/liblog/include_vndk/log/log_read.h"
  }
 ],
 "builtin_types" :
 [
  {
   "alignment" : 1,
   "is_integral" : true,
   "linker_set_key" : "_ZTIa",
   "name" : "signed char",
   "referenced_type" : "_ZTIa",
   "self_type" : "_ZTIa",
   "size" : 1
  },
  {
   "alignment" : 1,
   "is_integral" : true,
   "is_unsigned" : true,
   "linker_set_key" : "_ZTIb",
   "name" : "bool",
   "referenced_type" : "_ZTIb",
   "self_type" : "_ZTIb",
   "size" : 1
  },
  {
   "alignment" : 1,
   "is_integral" : true,
   "is_unsigned" : true,
   "linker_set_key" : "_ZTIc",
   "name" : "char",
   "referenced_type" : "_ZTIc",
   "self_type" : "_ZTIc",
   "size" : 1
  },
  {
   "alignment" : 8,
   "linker_set_key" : "_ZTId",
   "name" : "double",
   "referenced_type" : "_ZTId",
   "self_type" : "_ZTId",
   "size" : 8
  },
  {
   "alignment" : 4,
   "linker_set_key" : "_ZTIf",
   "name" : "float",
   "referenced_type" : "_ZTIf",
   "self_type" : "_ZTIf",
   "size" : 4
  },
  {
   "alignment" : 1,
   "is_integral" : true,
   "is_unsigned" : true,
   "linker_set_key" : "_ZTIh",
   "name" : "unsigned char",
   "referenced_type" : "_ZTIh",
   "self_type" : "_ZTIh",
   "size" : 1
  },
  {
   "alignment" : 4,
   "is_integral" : true,
   "linker_set_key" : "_ZTIi",
   "name" : "int",
   "referenced_type" : "_ZTIi",
   "self_type" : "_ZTIi",
   "size" : 4
  },
  {
   "alignment" : 4,
   "is_integral" : true,
   "is_unsigned" : true,
   "linker_set_key" : "_ZTIj",
   "name" : "unsigned int",
   "referenced_type" : "_ZTIj",
   "self_type" : "_ZTIj",
   "size" : 4
  },
  {
   "alignment" : 4,
   "is_integral" : true,
   "linker_set_key" : "_ZTIl",
   "name" : "long",
   "referenced_type" : "_ZTIl",
   "self_type" : "_ZTIl",
   "size" : 4
  },
  {
   "alignment" : 4,
   "is_integral" : true,
   "is_unsigned" : true,
   "linker_set_key" : "_ZTIm",
   "name" : "unsigned long",
   "referenced_type" : "_ZTIm",
   "self_type" : "_ZTIm",
   "size" : 4
  },
  {
   "alignment" : 2,
   "is_integral" : true,
   "linker_set_key" : "_ZTIs",
   "name" : "short",
   "referenced_type" : "_ZTIs",
   "self_type" : "_ZTIs",
   "size" : 2
  },
  {
   "alignment" : 2,
   "is_integral" : true,
   "is_unsigned" : true,
   "linker_set_key" : "_ZTIt",
   "name" : "unsigned short",
   "referenced_type" : "_ZTIt",
   "self_type" : "_ZTIt",
   "size" : 2
  },
  {
   "linker_set_key" : "_ZTIv",
   "name" : "void",
   "referenced_type" : "_ZTIv",
   "self_type" : "_ZTIv"
  },
  {
   "alignment" : 8,
   "is_integral" : true,
   "linker_set_key" : "_ZTIx",
   "name" : "long long",
   "referenced_type" : "_ZTIx",
   "self_type" : "_ZTIx",
   "size" : 8
  },
  {
   "alignment" : 8,
   "is_integral" : true,
   "is_unsigned" : true,
   "linker_set_key" : "_ZTIy",
   "name" : "unsigned long long",
   "referenced_type" : "_ZTIy",
   "self_type" : "_ZTIy",
   "size" : 8
  }
 ],
 "elf_functions" : [],
 "elf_objects" : [],
 "enum_types" :
 [
  {
   "alignment" : 4,
   "enum_fields" :
   [
    {
     "enum_field_value" : 0,
     "name" : "ANDROID_LOG_UNKNOWN"
    },
    {
     "enum_field_value" : 1,
     "name" : "ANDROID_LOG_DEFAULT"
    },
    {
     "enum_field_value" : 2,
     "name" : "ANDROID_LOG_VERBOSE"
    },
    {
     "enum_field_value" : 3,
     "name" : "ANDROID_LOG_DEBUG"
    },
    {
     "enum_field_value" : 4,
     "name" : "ANDROID_LOG_INFO"
    },
    {
     "enum_field_value" : 5,
     "name" : "ANDROID_LOG_WARN"
    },
    {
     "enum_field_value" : 6,
     "name" : "ANDROID_LOG_ERROR"
    },
    {
     "enum_field_value" : 7,
     "name" : "ANDROID_LOG_FATAL"
    },
    {
     "enum_field_value" : 8,
     "name" : "ANDROID_LOG_SILENT"
    }
   ],
   "linker_set_key" : "_ZTI19android_LogPriority",
   "name" : "android_LogPriority",
   "referenced_type" : "_ZTI19android_LogPriority",
   "self_type" : "_ZTI19android_LogPriority",
   "size" : 4,
   "source_file" : "system/logging/liblog/include_vndk/android/log.h",
   "underlying_type" : "_ZTIj"
  },
  {
   "alignment" : 4,
   "enum_fields" :
   [
    {
     "enum_field_value" : 0,
     "name" : "SYSTEM_TIME_REALTIME"
    },
    {
     "enum_field_value" : 1,
     "name" : "SYSTEM_TIME_MONOTONIC"
    },
    {
     "enum_field_value" : 2,
     "name" : "SYSTEM_TIME_PROCESS"
    },
    {
     "enum_field_value" : 3,
     "name" : "SYSTEM_TIME_THREAD"
    },
    {
     "enum_field_value" : 4,
     "name" : "SYSTEM_TIME_BOOTTIME"
    }
   ],
   "linker_set_key" : "_ZTI21$SYSTEM_TIME_BOOTTIME",
   "name" : "(anonymous enum at system/core/libutils/include/utils/Timers.h:75:1)",
   "referenced_type" : "_ZTI21$SYSTEM_TIME_BOOTTIME",
   "self_type" : "_ZTI21$SYSTEM_TIME_BOOTTIME",
   "size" : 4,
   "source_file" : "system/core/libutils/include/utils/Timers.h",
   "underlying_type" : "_ZTIj"
  },
  {
   "alignment" : 4,
   "enum_fields" :
   [
    {
     "enum_field_value" : 0,
     "name" : "LOG_ID_MIN"
    },
    {
     "enum_field_value" : 0,
     "name" : "LOG_ID_MAIN"
    },
    {
     "enum_field_value" : 1,
     "name" : "LOG_ID_RADIO"
    },
    {
     "enum_field_value" : 2,
     "name" : "LOG_ID_EVENTS"
    },
    {
     "enum_field_value" : 3,
     "name" : "LOG_ID_SYSTEM"
    },
    {
     "enum_field_value" : 4,
     "name" : "LOG_ID_CRASH"
    },
    {
     "enum_field_value" : 5,
     "name" : "LOG_ID_STATS"
    },
    {
     "enum_field_value" : 6,
     "name" : "LOG_ID_SECURITY"
    },
    {
     "enum_field_value" : 7,
     "name" : "LOG_ID_KERNEL"
    },
    {
     "enum_field_value" : 8,
     "name" : "LOG_ID_MAX"
    },
    {
     "enum_field_value" : 2147483647,
     "name" : "LOG_ID_DEFAULT"
    }
   ],
   "linker_set_key" : "_ZTI6log_id",
   "name" : "log_id",
   "referenced_type" : "_ZTI6log_id",
   "self_type" : "_ZTI6log_id",
   "size" : 4,
   "source_file" : "system/logging/liblog/include_vndk/android/log.h",
   "underlying_type" : "_ZTIj"
  },
  {
   "alignment" : 4,
   "enum_fields" :
   [
    {
     "enum_field_value" : 0,
     "name" : "android::FrameEvent::POSTED"
    },
    {
     "enum_field_value" : 1,
     "name" : "android::FrameEvent::REQUESTED_PRESENT"
    },
    {
     "enum_field_value" : 2,
     "name" : "android::FrameEvent::LATCH"
    },
    {
     "enum_field_value" : 3,
     "name" : "android::FrameEvent::ACQUIRE"
    },
    {
     "enum_field_value" : 4,
     "name" : "android::FrameEvent::FIRST_REFRESH_START"
    },
    {
     "enum_field_value" : 5,
     "name" : "android::FrameEvent::LAST_REFRESH_START"
    },
    {
     "enum_field_value" : 6,
     "name" : "android::FrameEvent::GPU_COMPOSITION_DONE"
    },
    {
     "enum_field_value" : 7,
     "name" : "android::FrameEvent::DISPLAY_PRESENT"
    },
    {
     "enum_field_value" : 8,
     "name" : "android::FrameEvent::DEQUEUE_READY"
    },
    {
     "enum_field_value" : 9,
     "name" : "android::FrameEvent::RELEASE"
    },
    {
     "enum_field_value" : 10,
     "name" : "android::FrameEvent::EVENT_COUNT"
    }
   ],
   "linker_set_key" : "_ZTIN7android10FrameEventE",
   "name" : "android::FrameEvent",
   "referenced_type" : "_ZTIN7android10FrameEventE",
   "self_type" : "_ZTIN7android10FrameEventE",
   "size" : 4,
   "source_file" : "frameworks/native/libs/gui/include/gui/FrameTimestamps.h",
   "underlying_type" : "_ZTIi"
  },
  {
   "alignment" : 4,
   "enum_fields" :
   [
    {
     "enum_field_value" : 0,
     "name" : "android::OK"
    },
    {
     "enum_field_value" : 0,
     "name" : "android::NO_ERROR"
    },
    {
     "enum_field_value" : -2147483648,
     "name" : "android::UNKNOWN_ERROR"
    },
    {
     "enum_field_value" : -12,
     "name" : "android::NO_MEMORY"
    },
    {
     "enum_field_value" : -38,
     "name" : "android::INVALID_OPERATION"
    },
    {
     "enum_field_value" : -22,
     "name" : "android::BAD_VALUE"
    },
    {
     "enum_field_value" : -2147483647,
     "name" : "android::BAD_TYPE"
    },
    {
     "enum_field_value" : -2,
     "name" : "android::NAME_NOT_FOUND"
    },
    {
     "enum_field_value" : -1,
     "name" : "android::PERMISSION_DENIED"
    },
    {
     "enum_field_value" : -19,
     "name" : "android::NO_INIT"
    },
    {
     "enum_field_value" : -17,
     "name" : "android::ALREADY_EXISTS"
    },
    {
     "enum_field_value" : -32,
     "name" : "android::DEAD_OBJECT"
    },
    {
     "enum_field_value" : -2147483646,
     "name" : "android::FAILED_TRANSACTION"
    },
    {
     "enum_field_value" : -75,
     "name" : "android::BAD_INDEX"
    },
    {
     "enum_field_value" : -61,
     "name" : "android::NOT_ENOUGH_DATA"
    },
    {
     "enum_field_value" : -11,
     "name" : "android::WOULD_BLOCK"
    },
    {
     "enum_field_value" : -110,
     "name" : "android::TIMED_OUT"
    },
    {
     "enum_field_value" : -74,
     "name" : "android::UNKNOWN_TRANSACTION"
    },
    {
     "enum_field_value" : -2147483641,
     "name" : "android::FDS_NOT_ALLOWED"
    },
    {
     "enum_field_value" : -2147483640,
     "name" : "android::UNEXPECTED_NULL"
    }
   ],
   "linker_set_key" : "_ZTIN7android15$ALREADY_EXISTSE",
   "name" : "android::(anonymous enum at system/core/libutils/include/utils/Errors.h:43:1)",
   "referenced_type" : "_ZTIN7android15$ALREADY_EXISTSE",
   "self_type" : "_ZTIN7android15$ALREADY_EXISTSE",
   "size" : 4,
   "source_file" : "system/core/libutils/include/utils/Errors.h",
   "underlying_type" : "_ZTIi"
  },
  {
   "alignment" : 4,
   "enum_fields" :
   [
    {
     "enum_field_value" : 1,
     "name" : "android::trait_trivial_copy<bool>::value"
    }
   ],
   "linker_set_key" : "_ZTIN7android18trait_trivial_copyIbE6$valueE",
   "name" : "android::trait_trivial_copy<bool>::(anonymous enum at system/core/libutils/include/utils/TypeHelpers.h:98:1)",
   "referenced_type" : "_ZTIN7android18trait_trivial_copyIbE6$valueE",
   "self_type" : "_ZTIN7android18trait_trivial_copyIbE6$valueE",
   "size" : 4,
   "source_file" : "system/core/libutils/include/utils/TypeHelpers.h",
   "underlying_type" : "_ZTIj"
  },
  {
   "alignment" : 4,
   "enum_fields" :
   [
    {
     "enum_field_value" : 1,
     "name" : "android::trait_trivial_copy<char>::value"
    }
   ],
   "linker_set_key" : "_ZTIN7android18trait_trivial_copyIcE6$valueE",
   "name" : "android::trait_trivial_copy<char>::(anonymous enum at system/core/libutils/include/utils/TypeHelpers.h:99:1)",
   "referenced_type" : "_ZTIN7android18trait_trivial_copyIcE6$valueE",
   "self_type" : "_ZTIN7android18trait_trivial_copyIcE6$valueE",
   "size" : 4,
   "source_file" : "system/core/libutils/include/utils/TypeHelpers.h",
   "underlying_type" : "_ZTIj"
  },
  {
   "alignment" : 4,
   "enum_fields" :
   [
    {
     "enum_field_value" : 1,
     "name" : "android::trait_trivial_copy<double>::value"
    }
   ],
   "linker_set_key" : "_ZTIN7android18trait_trivial_copyIdE6$valueE",
   "name" : "android::trait_trivial_copy<double>::(anonymous enum at system/core/libutils/include/utils/TypeHelpers.h:110:1)",
   "referenced_type" : "_ZTIN7android18trait_trivial_copyIdE6$valueE",
   "self_type" : "_ZTIN7android18trait_trivial_copyIdE6$valueE",
   "size" : 4,
   "source_file" : "system/core/libutils/include/utils/TypeHelpers.h",
   "underlying_type" : "_ZTIj"
  },
  {
   "alignment" : 4,
   "enum_fields" :
   [
    {
     "enum_field_value" : 1,
     "name" : "android::trait_trivial_copy<float>::value"
    }
   ],
   "linker_set_key" : "_ZTIN7android18trait_trivial_copyIfE6$valueE",
   "name" : "android::trait_trivial_copy<float>::(anonymous enum at system/core/libutils/include/utils/TypeHelpers.h:109:1)",
   "referenced_type" : "_ZTIN7android18trait_trivial_copyIfE6$valueE",
   "self_type" : "_ZTIN7android18trait_trivial_copyIfE6$valueE",
   "size" : 4,
   "source_file" : "system/core/libutils/include/utils/TypeHelpers.h",
   "underlying_type" : "_ZTIj"
  },
  {
   "alignment" : 4,
   "enum_fields" :
   [
    {
     "enum_field_value" : 1,
     "name" : "android::trait_trivial_copy<unsigned char>::value"
    }
   ],
   "linker_set_key" : "_ZTIN7android18trait_trivial_copyIhE6$valueE",
   "name" : "android::trait_trivial_copy<unsigned char>::(anonymous enum at system/core/libutils/include/utils/TypeHelpers.h:100:1)",
   "referenced_type" : "_ZTIN7android18trait_trivial_copyIhE6$valueE",
   "self_type" : "_ZTIN7android18trait_trivial_copyIhE6$valueE",
   "size" : 4,
   "source_file" : "system/core/libutils/include/utils/TypeHelpers.h",
   "underlying_type" : "_ZTIj"
  },
  {
   "alignment" : 4,
   "enum_fields" :
   [
    {
     "enum_field_value" : 1,
     "name" : "android::trait_trivial_copy<int>::value"
    }
   ],
   "linker_set_key" : "_ZTIN7android18trait_trivial_copyIiE6$valueE",
   "name" : "android::trait_trivial_copy<int>::(anonymous enum at system/core/libutils/include/utils/TypeHelpers.h:103:1)",
   "referenced_type" : "_ZTIN7android18trait_trivial_copyIiE6$valueE",
   "self_type" : "_ZTIN7android18trait_trivial_copyIiE6$valueE",
   "size" : 4,
   "source_file" : "system/core/libutils/include/utils/TypeHelpers.h",
   "underlying_type" : "_ZTIj"
  },
  {
   "alignment" : 4,
   "enum_fields" :
   [
    {
     "enum_field_value" : 1,
     "name" : "android::trait_trivial_copy<unsigned int>::value"
    }
   ],
   "linker_set_key" : "_ZTIN7android18trait_trivial_copyIjE6$valueE",
   "name" : "android::trait_trivial_copy<unsigned int>::(anonymous enum at system/core/libutils/include/utils/TypeHelpers.h:104:1)",
   "referenced_type" : "_ZTIN7android18trait_trivial_copyIjE6$valueE",
   "self_type" : "_ZTIN7android18trait_trivial_copyIjE6$valueE",
   "size" : 4,
   "source_file" : "system/core/libutils/include/utils/TypeHelpers.h",
   "underlying_type" : "_ZTIj"
  },
  {
   "alignment" : 4,
   "enum_fields" :
   [
    {
     "enum_field_value" : 1,
     "name" : "android::trait_trivial_copy<long>::value"
    }
   ],
   "linker_set_key" : "_ZTIN7android18trait_trivial_copyIlE6$valueE",
   "name" : "android::trait_trivial_copy<long>::(anonymous enum at system/core/libutils/include/utils/TypeHelpers.h:105:1)",
   "referenced_type" : "_ZTIN7android18trait_trivial_copyIlE6$valueE",
   "self_type" : "_ZTIN7android18trait_trivial_copyIlE6$valueE",
   "size" : 4,
   "source_file" : "system/core/libutils/include/utils/TypeHelpers.h",
   "underlying_type" : "_ZTIj"
  },
  {
   "alignment" : 4,
   "enum_fields" :
   [
    {
     "enum_field_value" : 1,
     "name" : "android::trait_trivial_copy<unsigned long>::value"
    }
   ],
   "linker_set_key" : "_ZTIN7android18trait_trivial_copyImE6$valueE",
   "name" : "android::trait_trivial_copy<unsigned long>::(anonymous enum at system/core/libutils/include/utils/TypeHelpers.h:106:1)",
   "referenced_type" : "_ZTIN7android18trait_trivial_copyImE6$valueE",
   "self_type" : "_ZTIN7android18trait_trivial_copyImE6$valueE",
   "size" : 4,
   "source_file" : "system/core/libutils/include/utils/TypeHelpers.h",
   "underlying_type" : "_ZTIj"
  },
  {
   "alignment" : 4,
   "enum_fields" :
   [
    {
     "enum_field_value" : 1,
     "name" : "android::trait_trivial_copy<short>::value"
    }
   ],
   "linker_set_key" : "_ZTIN7android18trait_trivial_copyIsE6$valueE",
   "name" : "android::trait_trivial_copy<short>::(anonymous enum at system/core/libutils/include/utils/TypeHelpers.h:101:1)",
   "referenced_type" : "_ZTIN7android18trait_trivial_copyIsE6$valueE",
   "self_type" : "_ZTIN7android18trait_trivial_copyIsE6$valueE",
   "size" : 4,
   "source_file" : "system/core/libutils/include/utils/TypeHelpers.h",
   "underlying_type" : "_ZTIj"
  },
  {
   "alignment" : 4,
   "enum_fields" :
   [
    {
     "enum_field_value" : 1,
     "name" : "android::trait_trivial_copy<unsigned short>::value"
    }
   ],
   "linker_set_key" : "_ZTIN7android18trait_trivial_copyItE6$valueE",
   "name" : "android::trait_trivial_copy<unsigned short>::(anonymous enum at system/core/libutils/include/utils/TypeHelpers.h:102:1)",
   "referenced_type" : "_ZTIN7android18trait_trivial_copyItE6$valueE",
   "self_type" : "_ZTIN7android18trait_trivial_copyItE6$valueE",
   "size" : 4,
   "source_file" : "system/core/libutils/include/utils/TypeHelpers.h",
   "underlying_type" : "_ZTIj"
  },
  {
   "alignment" : 4,
   "enum_fields" :
   [
    {
     "enum_field_value" : 1,
     "name" : "android::trait_trivial_copy<void>::value"
    }
   ],
   "linker_set_key" : "_ZTIN7android18trait_trivial_copyIvE6$valueE",
   "name" : "android::trait_trivial_copy<void>::(anonymous enum at system/core/libutils/include/utils/TypeHelpers.h:97:1)",
   "referenced_type" : "_ZTIN7android18trait_trivial_copyIvE6$valueE",
   "self_type" : "_ZTIN7android18trait_trivial_copyIvE6$valueE",
   "size" : 4,
   "source_file" : "system/core/libutils/include/utils/TypeHelpers.h",
   "underlying_type" : "_ZTIj"
  },
  {
   "alignment" : 4,
   "enum_fields" :
   [
    {
     "enum_field_value" : 1,
     "name" : "android::trait_trivial_copy<long long>::value"
    }
   ],
   "linker_set_key" : "_ZTIN7android18trait_trivial_copyIxE6$valueE",
   "name" : "android::trait_trivial_copy<long long>::(anonymous enum at system/core/libutils/include/utils/TypeHelpers.h:107:1)",
   "referenced_type" : "_ZTIN7android18trait_trivial_copyIxE6$valueE",
   "self_type" : "_ZTIN7android18trait_trivial_copyIxE6$valueE",
   "size" : 4,
   "source_file" : "system/core/libutils/include/utils/TypeHelpers.h",
   "underlying_type" : "_ZTIj"
  },
  {
   "alignment" : 4,
   "enum_fields" :
   [
    {
     "enum_field_value" : 1,
     "name" : "android::trait_trivial_copy<unsigned long long>::value"
    }
   ],
   "linker_set_key" : "_ZTIN7android18trait_trivial_copyIyE6$valueE",
   "name" : "android::trait_trivial_copy<unsigned long long>::(anonymous enum at system/core/libutils/include/utils/TypeHelpers.h:108:1)",
   "referenced_type" : "_ZTIN7android18trait_trivial_copyIyE6$valueE",
   "self_type" : "_ZTIN7android18trait_trivial_copyIyE6$valueE",
   "size" : 4,
   "source_file" : "system/core/libutils/include/utils/TypeHelpers.h",
   "underlying_type" : "_ZTIj"
  },
  {
   "alignment" : 4,
   "enum_fields" :
   [
    {
     "enum_field_value" : 1,
     "name" : "android::trait_trivial_ctor<bool>::value"
    }
   ],
   "linker_set_key" : "_ZTIN7android18trait_trivial_ctorIbE6$valueE",
   "name" : "android::trait_trivial_ctor<bool>::(anonymous enum at system/core/libutils/include/utils/TypeHelpers.h:98:1)",
   "referenced_type" : "_ZTIN7android18trait_trivial_ctorIbE6$valueE",
   "self_type" : "_ZTIN7android18trait_trivial_ctorIbE6$valueE",
   "size" : 4,
   "source_file" : "system/core/libutils/include/utils/TypeHelpers.h",
   "underlying_type" : "_ZTIj"
  },
  {
   "alignment" : 4,
   "enum_fields" :
   [
    {
     "enum_field_value" : 1,
     "name" : "android::trait_trivial_ctor<char>::value"
    }
   ],
   "linker_set_key" : "_ZTIN7android18trait_trivial_ctorIcE6$valueE",
   "name" : "android::trait_trivial_ctor<char>::(anonymous enum at system/core/libutils/include/utils/TypeHelpers.h:99:1)",
   "referenced_type" : "_ZTIN7android18trait_trivial_ctorIcE6$valueE",
   "self_type" : "_ZTIN7android18trait_trivial_ctorIcE6$valueE",
   "size" : 4,
   "source_file" : "system/core/libutils/include/utils/TypeHelpers.h",
   "underlying_type" : "_ZTIj"
  },
  {
   "alignment" : 4,
   "enum_fields" :
   [
    {
     "enum_field_value" : 1,
     "name" : "android::trait_trivial_ctor<double>::value"
    }
   ],
   "linker_set_key" : "_ZTIN7android18trait_trivial_ctorIdE6$valueE",
   "name" : "android::trait_trivial_ctor<double>::(anonymous enum at system/core/libutils/include/utils/TypeHelpers.h:110:1)",
   "referenced_type" : "_ZTIN7android18trait_trivial_ctorIdE6$valueE",
   "self_type" : "_ZTIN7android18trait_trivial_ctorIdE6$valueE",
   "size" : 4,
   "source_file" : "system/core/libutils/include/utils/TypeHelpers.h",
   "underlying_type" : "_ZTIj"
  },
  {
   "alignment" : 4,
   "enum_fields" :
   [
    {
     "enum_field_value" : 1,
     "name" : "android::trait_trivial_ctor<float>::value"
    }
   ],
   "linker_set_key" : "_ZTIN7android18trait_trivial_ctorIfE6$valueE",
   "name" : "android::trait_trivial_ctor<float>::(anonymous enum at system/core/libutils/include/utils/TypeHelpers.h:109:1)",
   "referenced_type" : "_ZTIN7android18trait_trivial_ctorIfE6$valueE",
   "self_type" : "_ZTIN7android18trait_trivial_ctorIfE6$valueE",
   "size" : 4,
   "source_file" : "system/core/libutils/include/utils/TypeHelpers.h",
   "underlying_type" : "_ZTIj"
  },
  {
   "alignment" : 4,
   "enum_fields" :
   [
    {
     "enum_field_value" : 1,
     "name" : "android::trait_trivial_ctor<unsigned char>::value"
    }
   ],
   "linker_set_key" : "_ZTIN7android18trait_trivial_ctorIhE6$valueE",
   "name" : "android::trait_trivial_ctor<unsigned char>::(anonymous enum at system/core/libutils/include/utils/TypeHelpers.h:100:1)",
   "referenced_type" : "_ZTIN7android18trait_trivial_ctorIhE6$valueE",
   "self_type" : "_ZTIN7android18trait_trivial_ctorIhE6$valueE",
   "size" : 4,
   "source_file" : "system/core/libutils/include/utils/TypeHelpers.h",
   "underlying_type" : "_ZTIj"
  },
  {
   "alignment" : 4,
   "enum_fields" :
   [
    {
     "enum_field_value" : 1,
     "name" : "android::trait_trivial_ctor<int>::value"
    }
   ],
   "linker_set_key" : "_ZTIN7android18trait_trivial_ctorIiE6$valueE",
   "name" : "android::trait_trivial_ctor<int>::(anonymous enum at system/core/libutils/include/utils/TypeHelpers.h:103:1)",
   "referenced_type" : "_ZTIN7android18trait_trivial_ctorIiE6$valueE",
   "self_type" : "_ZTIN7android18trait_trivial_ctorIiE6$valueE",
   "size" : 4,
   "source_file" : "system/core/libutils/include/utils/TypeHelpers.h",
   "underlying_type" : "_ZTIj"
  },
  {
   "alignment" : 4,
   "enum_fields" :
   [
    {
     "enum_field_value" : 1,
     "name" : "android::trait_trivial_ctor<unsigned int>::value"
    }
   ],
   "linker_set_key" : "_ZTIN7android18trait_trivial_ctorIjE6$valueE",
   "name" : "android::trait_trivial_ctor<unsigned int>::(anonymous enum at system/core/libutils/include/utils/TypeHelpers.h:104:1)",
   "referenced_type" : "_ZTIN7android18trait_trivial_ctorIjE6$valueE",
   "self_type" : "_ZTIN7android18trait_trivial_ctorIjE6$valueE",
   "size" : 4,
   "source_file" : "system/core/libutils/include/utils/TypeHelpers.h",
   "underlying_type" : "_ZTIj"
  },
  {
   "alignment" : 4,
   "enum_fields" :
   [
    {
     "enum_field_value" : 1,
     "name" : "android::trait_trivial_ctor<long>::value"
    }
   ],
   "linker_set_key" : "_ZTIN7android18trait_trivial_ctorIlE6$valueE",
   "name" : "android::trait_trivial_ctor<long>::(anonymous enum at system/core/libutils/include/utils/TypeHelpers.h:105:1)",
   "referenced_type" : "_ZTIN7android18trait_trivial_ctorIlE6$valueE",
   "self_type" : "_ZTIN7android18trait_trivial_ctorIlE6$valueE",
   "size" : 4,
   "source_file" : "system/core/libutils/include/utils/TypeHelpers.h",
   "underlying_type" : "_ZTIj"
  },
  {
   "alignment" : 4,
   "enum_fields" :
   [
    {
     "enum_field_value" : 1,
     "name" : "android::trait_trivial_ctor<unsigned long>::value"
    }
   ],
   "linker_set_key" : "_ZTIN7android18trait_trivial_ctorImE6$valueE",
   "name" : "android::trait_trivial_ctor<unsigned long>::(anonymous enum at system/core/libutils/include/utils/TypeHelpers.h:106:1)",
   "referenced_type" : "_ZTIN7android18trait_trivial_ctorImE6$valueE",
   "self_type" : "_ZTIN7android18trait_trivial_ctorImE6$valueE",
   "size" : 4,
   "source_file" : "system/core/libutils/include/utils/TypeHelpers.h",
   "underlying_type" : "_ZTIj"
  },
  {
   "alignment" : 4,
   "enum_fields" :
   [
    {
     "enum_field_value" : 1,
     "name" : "android::trait_trivial_ctor<short>::value"
    }
   ],
   "linker_set_key" : "_ZTIN7android18trait_trivial_ctorIsE6$valueE",
   "name" : "android::trait_trivial_ctor<short>::(anonymous enum at system/core/libutils/include/utils/TypeHelpers.h:101:1)",
   "referenced_type" : "_ZTIN7android18trait_trivial_ctorIsE6$valueE",
   "self_type" : "_ZTIN7android18trait_trivial_ctorIsE6$valueE",
   "size" : 4,
   "source_file" : "system/core/libutils/include/utils/TypeHelpers.h",
   "underlying_type" : "_ZTIj"
  },
  {
   "alignment" : 4,
   "enum_fields" :
   [
    {
     "enum_field_value" : 1,
     "name" : "android::trait_trivial_ctor<unsigned short>::value"
    }
   ],
   "linker_set_key" : "_ZTIN7android18trait_trivial_ctorItE6$valueE",
   "name" : "android::trait_trivial_ctor<unsigned short>::(anonymous enum at system/core/libutils/include/utils/TypeHelpers.h:102:1)",
   "referenced_type" : "_ZTIN7android18trait_trivial_ctorItE6$valueE",
   "self_type" : "_ZTIN7android18trait_trivial_ctorItE6$valueE",
   "size" : 4,
   "source_file" : "system/core/libutils/include/utils/TypeHelpers.h",
   "underlying_type" : "_ZTIj"
  },
  {
   "alignment" : 4,
   "enum_fields" :
   [
    {
     "enum_field_value" : 1,
     "name" : "android::trait_trivial_ctor<void>::value"
    }
   ],
   "linker_set_key" : "_ZTIN7android18trait_trivial_ctorIvE6$valueE",
   "name" : "android::trait_trivial_ctor<void>::(anonymous enum at system/core/libutils/include/utils/TypeHelpers.h:97:1)",
   "referenced_type" : "_ZTIN7android18trait_trivial_ctorIvE6$valueE",
   "self_type" : "_ZTIN7android18trait_trivial_ctorIvE6$valueE",
   "size" : 4,
   "source_file" : "system/core/libutils/include/utils/TypeHelpers.h",
   "underlying_type" : "_ZTIj"
  },
  {
   "alignment" : 4,
   "enum_fields" :
   [
    {
     "enum_field_value" : 1,
     "name" : "android::trait_trivial_ctor<long long>::value"
    }
   ],
   "linker_set_key" : "_ZTIN7android18trait_trivial_ctorIxE6$valueE",
   "name" : "android::trait_trivial_ctor<long long>::(anonymous enum at system/core/libutils/include/utils/TypeHelpers.h:107:1)",
   "referenced_type" : "_ZTIN7android18trait_trivial_ctorIxE6$valueE",
   "self_type" : "_ZTIN7android18trait_trivial_ctorIxE6$valueE",
   "size" : 4,
   "source_file" : "system/core/libutils/include/utils/TypeHelpers.h",
   "underlying_type" : "_ZTIj"
  },
  {
   "alignment" : 4,
   "enum_fields" :
   [
    {
     "enum_field_value" : 1,
     "name" : "android::trait_trivial_ctor<unsigned long long>::value"
    }
   ],
   "linker_set_key" : "_ZTIN7android18trait_trivial_ctorIyE6$valueE",
   "name" : "android::trait_trivial_ctor<unsigned long long>::(anonymous enum at system/core/libutils/include/utils/TypeHelpers.h:108:1)",
   "referenced_type" : "_ZTIN7android18trait_trivial_ctorIyE6$valueE",
   "self_type" : "_ZTIN7android18trait_trivial_ctorIyE6$valueE",
   "size" : 4,
   "source_file" : "system/core/libutils/include/utils/TypeHelpers.h",
   "underlying_type" : "_ZTIj"
  },
  {
   "alignment" : 4,
   "enum_fields" :
   [
    {
     "enum_field_value" : 1,
     "name" : "android::trait_trivial_dtor<bool>::value"
    }
   ],
   "linker_set_key" : "_ZTIN7android18trait_trivial_dtorIbE6$valueE",
   "name" : "android::trait_trivial_dtor<bool>::(anonymous enum at system/core/libutils/include/utils/TypeHelpers.h:98:1)",
   "referenced_type" : "_ZTIN7android18trait_trivial_dtorIbE6$valueE",
   "self_type" : "_ZTIN7android18trait_trivial_dtorIbE6$valueE",
   "size" : 4,
   "source_file" : "system/core/libutils/include/utils/TypeHelpers.h",
   "underlying_type" : "_ZTIj"
  },
  {
   "alignment" : 4,
   "enum_fields" :
   [
    {
     "enum_field_value" : 1,
     "name" : "android::trait_trivial_dtor<char>::value"
    }
   ],
   "linker_set_key" : "_ZTIN7android18trait_trivial_dtorIcE6$valueE",
   "name" : "android::trait_trivial_dtor<char>::(anonymous enum at system/core/libutils/include/utils/TypeHelpers.h:99:1)",
   "referenced_type" : "_ZTIN7android18trait_trivial_dtorIcE6$valueE",
   "self_type" : "_ZTIN7android18trait_trivial_dtorIcE6$valueE",
   "size" : 4,
   "source_file" : "system/core/libutils/include/utils/TypeHelpers.h",
   "underlying_type" : "_ZTIj"
  },
  {
   "alignment" : 4,
   "enum_fields" :
   [
    {
     "enum_field_value" : 1,
     "name" : "android::trait_trivial_dtor<double>::value"
    }
   ],
   "linker_set_key" : "_ZTIN7android18trait_trivial_dtorIdE6$valueE",
   "name" : "android::trait_trivial_dtor<double>::(anonymous enum at system/core/libutils/include/utils/TypeHelpers.h:110:1)",
   "referenced_type" : "_ZTIN7android18trait_trivial_dtorIdE6$valueE",
   "self_type" : "_ZTIN7android18trait_trivial_dtorIdE6$valueE",
   "size" : 4,
   "source_file" : "system/core/libutils/include/utils/TypeHelpers.h",
   "underlying_type" : "_ZTIj"
  },
  {
   "alignment" : 4,
   "enum_fields" :
   [
    {
     "enum_field_value" : 1,
     "name" : "android::trait_trivial_dtor<float>::value"
    }
   ],
   "linker_set_key" : "_ZTIN7android18trait_trivial_dtorIfE6$valueE",
   "name" : "android::trait_trivial_dtor<float>::(anonymous enum at system/core/libutils/include/utils/TypeHelpers.h:109:1)",
   "referenced_type" : "_ZTIN7android18trait_trivial_dtorIfE6$valueE",
   "self_type" : "_ZTIN7android18trait_trivial_dtorIfE6$valueE",
   "size" : 4,
   "source_file" : "system/core/libutils/include/utils/TypeHelpers.h",
   "underlying_type" : "_ZTIj"
  },
  {
   "alignment" : 4,
   "enum_fields" :
   [
    {
     "enum_field_value" : 1,
     "name" : "android::trait_trivial_dtor<unsigned char>::value"
    }
   ],
   "linker_set_key" : "_ZTIN7android18trait_trivial_dtorIhE6$valueE",
   "name" : "android::trait_trivial_dtor<unsigned char>::(anonymous enum at system/core/libutils/include/utils/TypeHelpers.h:100:1)",
   "referenced_type" : "_ZTIN7android18trait_trivial_dtorIhE6$valueE",
   "self_type" : "_ZTIN7android18trait_trivial_dtorIhE6$valueE",
   "size" : 4,
   "source_file" : "system/core/libutils/include/utils/TypeHelpers.h",
   "underlying_type" : "_ZTIj"
  },
  {
   "alignment" : 4,
   "enum_fields" :
   [
    {
     "enum_field_value" : 1,
     "name" : "android::trait_trivial_dtor<int>::value"
    }
   ],
   "linker_set_key" : "_ZTIN7android18trait_trivial_dtorIiE6$valueE",
   "name" : "android::trait_trivial_dtor<int>::(anonymous enum at system/core/libutils/include/utils/TypeHelpers.h:103:1)",
   "referenced_type" : "_ZTIN7android18trait_trivial_dtorIiE6$valueE",
   "self_type" : "_ZTIN7android18trait_trivial_dtorIiE6$valueE",
   "size" : 4,
   "source_file" : "system/core/libutils/include/utils/TypeHelpers.h",
   "underlying_type" : "_ZTIj"
  },
  {
   "alignment" : 4,
   "enum_fields" :
   [
    {
     "enum_field_value" : 1,
     "name" : "android::trait_trivial_dtor<unsigned int>::value"
    }
   ],
   "linker_set_key" : "_ZTIN7android18trait_trivial_dtorIjE6$valueE",
   "name" : "android::trait_trivial_dtor<unsigned int>::(anonymous enum at system/core/libutils/include/utils/TypeHelpers.h:104:1)",
   "referenced_type" : "_ZTIN7android18trait_trivial_dtorIjE6$valueE",
   "self_type" : "_ZTIN7android18trait_trivial_dtorIjE6$valueE",
   "size" : 4,
   "source_file" : "system/core/libutils/include/utils/TypeHelpers.h",
   "underlying_type" : "_ZTIj"
  },
  {
   "alignment" : 4,
   "enum_fields" :
   [
    {
     "enum_field_value" : 1,
     "name" : "android::trait_trivial_dtor<long>::value"
    }
   ],
   "linker_set_key" : "_ZTIN7android18trait_trivial_dtorIlE6$valueE",
   "name" : "android::trait_trivial_dtor<long>::(anonymous enum at system/core/libutils/include/utils/TypeHelpers.h:105:1)",
   "referenced_type" : "_ZTIN7android18trait_trivial_dtorIlE6$valueE",
   "self_type" : "_ZTIN7android18trait_trivial_dtorIlE6$valueE",
   "size" : 4,
   "source_file" : "system/core/libutils/include/utils/TypeHelpers.h",
   "underlying_type" : "_ZTIj"
  },
  {
   "alignment" : 4,
   "enum_fields" :
   [
    {
     "enum_field_value" : 1,
     "name" : "android::trait_trivial_dtor<unsigned long>::value"
    }
   ],
   "linker_set_key" : "_ZTIN7android18trait_trivial_dtorImE6$valueE",
   "name" : "android::trait_trivial_dtor<unsigned long>::(anonymous enum at system/core/libutils/include/utils/TypeHelpers.h:106:1)",
   "referenced_type" : "_ZTIN7android18trait_trivial_dtorImE6$valueE",
   "self_type" : "_ZTIN7android18trait_trivial_dtorImE6$valueE",
   "size" : 4,
   "source_file" : "system/core/libutils/include/utils/TypeHelpers.h",
   "underlying_type" : "_ZTIj"
  },
  {
   "alignment" : 4,
   "enum_fields" :
   [
    {
     "enum_field_value" : 1,
     "name" : "android::trait_trivial_dtor<short>::value"
    }
   ],
   "linker_set_key" : "_ZTIN7android18trait_trivial_dtorIsE6$valueE",
   "name" : "android::trait_trivial_dtor<short>::(anonymous enum at system/core/libutils/include/utils/TypeHelpers.h:101:1)",
   "referenced_type" : "_ZTIN7android18trait_trivial_dtorIsE6$valueE",
   "self_type" : "_ZTIN7android18trait_trivial_dtorIsE6$valueE",
   "size" : 4,
   "source_file" : "system/core/libutils/include/utils/TypeHelpers.h",
   "underlying_type" : "_ZTIj"
  },
  {
   "alignment" : 4,
   "enum_fields" :
   [
    {
     "enum_field_value" : 1,
     "name" : "android::trait_trivial_dtor<unsigned short>::value"
    }
   ],
   "linker_set_key" : "_ZTIN7android18trait_trivial_dtorItE6$valueE",
   "name" : "android::trait_trivial_dtor<unsigned short>::(anonymous enum at system/core/libutils/include/utils/TypeHelpers.h:102:1)",
   "referenced_type" : "_ZTIN7android18trait_trivial_dtorItE6$valueE",
   "self_type" : "_ZTIN7android18trait_trivial_dtorItE6$valueE",
   "size" : 4,
   "source_file" : "system/core/libutils/include/utils/TypeHelpers.h",
   "underlying_type" : "_ZTIj"
  },
  {
   "alignment" : 4,
   "enum_fields" :
   [
    {
     "enum_field_value" : 1,
     "name" : "android::trait_trivial_dtor<void>::value"
    }
   ],
   "linker_set_key" : "_ZTIN7android18trait_trivial_dtorIvE6$valueE",
   "name" : "android::trait_trivial_dtor<void>::(anonymous enum at system/core/libutils/include/utils/TypeHelpers.h:97:1)",
   "referenced_type" : "_ZTIN7android18trait_trivial_dtorIvE6$valueE",
   "self_type" : "_ZTIN7android18trait_trivial_dtorIvE6$valueE",
   "size" : 4,
   "source_file" : "system/core/libutils/include/utils/TypeHelpers.h",
   "underlying_type" : "_ZTIj"
  },
  {
   "alignment" : 4,
   "enum_fields" :
   [
    {
     "enum_field_value" : 1,
     "name" : "android::trait_trivial_dtor<long long>::value"
    }
   ],
   "linker_set_key" : "_ZTIN7android18trait_trivial_dtorIxE6$valueE",
   "name" : "android::trait_trivial_dtor<long long>::(anonymous enum at system/core/libutils/include/utils/TypeHelpers.h:107:1)",
   "referenced_type" : "_ZTIN7android18trait_trivial_dtorIxE6$valueE",
   "self_type" : "_ZTIN7android18trait_trivial_dtorIxE6$valueE",
   "size" : 4,
   "source_file" : "system/core/libutils/include/utils/TypeHelpers.h",
   "underlying_type" : "_ZTIj"
  },
  {
   "alignment" : 4,
   "enum_fields" :
   [
    {
     "enum_field_value" : 1,
     "name" : "android::trait_trivial_dtor<unsigned long long>::value"
    }
   ],
   "linker_set_key" : "_ZTIN7android18trait_trivial_dtorIyE6$valueE",
   "name" : "android::trait_trivial_dtor<unsigned long long>::(anonymous enum at system/core/libutils/include/utils/TypeHelpers.h:108:1)",
   "referenced_type" : "_ZTIN7android18trait_trivial_dtorIyE6$valueE",
   "self_type" : "_ZTIN7android18trait_trivial_dtorIyE6$valueE",
   "size" : 4,
   "source_file" : "system/core/libutils/include/utils/TypeHelpers.h",
   "underlying_type" : "_ZTIj"
  },
  {
   "alignment" : 4,
   "enum_fields" :
   [
    {
     "enum_field_value" : 1,
     "name" : "android::trait_trivial_move<bool>::value"
    }
   ],
   "linker_set_key" : "_ZTIN7android18trait_trivial_moveIbE6$valueE",
   "name" : "android::trait_trivial_move<bool>::(anonymous enum at system/core/libutils/include/utils/TypeHelpers.h:98:1)",
   "referenced_type" : "_ZTIN7android18trait_trivial_moveIbE6$valueE",
   "self_type" : "_ZTIN7android18trait_trivial_moveIbE6$valueE",
   "size" : 4,
   "source_file" : "system/core/libutils/include/utils/TypeHelpers.h",
   "underlying_type" : "_ZTIj"
  },
  {
   "alignment" : 4,
   "enum_fields" :
   [
    {
     "enum_field_value" : 1,
     "name" : "android::trait_trivial_move<char>::value"
    }
   ],
   "linker_set_key" : "_ZTIN7android18trait_trivial_moveIcE6$valueE",
   "name" : "android::trait_trivial_move<char>::(anonymous enum at system/core/libutils/include/utils/TypeHelpers.h:99:1)",
   "referenced_type" : "_ZTIN7android18trait_trivial_moveIcE6$valueE",
   "self_type" : "_ZTIN7android18trait_trivial_moveIcE6$valueE",
   "size" : 4,
   "source_file" : "system/core/libutils/include/utils/TypeHelpers.h",
   "underlying_type" : "_ZTIj"
  },
  {
   "alignment" : 4,
   "enum_fields" :
   [
    {
     "enum_field_value" : 1,
     "name" : "android::trait_trivial_move<double>::value"
    }
   ],
   "linker_set_key" : "_ZTIN7android18trait_trivial_moveIdE6$valueE",
   "name" : "android::trait_trivial_move<double>::(anonymous enum at system/core/libutils/include/utils/TypeHelpers.h:110:1)",
   "referenced_type" : "_ZTIN7android18trait_trivial_moveIdE6$valueE",
   "self_type" : "_ZTIN7android18trait_trivial_moveIdE6$valueE",
   "size" : 4,
   "source_file" : "system/core/libutils/include/utils/TypeHelpers.h",
   "underlying_type" : "_ZTIj"
  },
  {
   "alignment" : 4,
   "enum_fields" :
   [
    {
     "enum_field_value" : 1,
     "name" : "android::trait_trivial_move<float>::value"
    }
   ],
   "linker_set_key" : "_ZTIN7android18trait_trivial_moveIfE6$valueE",
   "name" : "android::trait_trivial_move<float>::(anonymous enum at system/core/libutils/include/utils/TypeHelpers.h:109:1)",
   "referenced_type" : "_ZTIN7android18trait_trivial_moveIfE6$valueE",
   "self_type" : "_ZTIN7android18trait_trivial_moveIfE6$valueE",
   "size" : 4,
   "source_file" : "system/core/libutils/include/utils/TypeHelpers.h",
   "underlying_type" : "_ZTIj"
  },
  {
   "alignment" : 4,
   "enum_fields" :
   [
    {
     "enum_field_value" : 1,
     "name" : "android::trait_trivial_move<unsigned char>::value"
    }
   ],
   "linker_set_key" : "_ZTIN7android18trait_trivial_moveIhE6$valueE",
   "name" : "android::trait_trivial_move<unsigned char>::(anonymous enum at system/core/libutils/include/utils/TypeHelpers.h:100:1)",
   "referenced_type" : "_ZTIN7android18trait_trivial_moveIhE6$valueE",
   "self_type" : "_ZTIN7android18trait_trivial_moveIhE6$valueE",
   "size" : 4,
   "source_file" : "system/core/libutils/include/utils/TypeHelpers.h",
   "underlying_type" : "_ZTIj"
  },
  {
   "alignment" : 4,
   "enum_fields" :
   [
    {
     "enum_field_value" : 1,
     "name" : "android::trait_trivial_move<int>::value"
    }
   ],
   "linker_set_key" : "_ZTIN7android18trait_trivial_moveIiE6$valueE",
   "name" : "android::trait_trivial_move<int>::(anonymous enum at system/core/libutils/include/utils/TypeHelpers.h:103:1)",
   "referenced_type" : "_ZTIN7android18trait_trivial_moveIiE6$valueE",
   "self_type" : "_ZTIN7android18trait_trivial_moveIiE6$valueE",
   "size" : 4,
   "source_file" : "system/core/libutils/include/utils/TypeHelpers.h",
   "underlying_type" : "_ZTIj"
  },
  {
   "alignment" : 4,
   "enum_fields" :
   [
    {
     "enum_field_value" : 1,
     "name" : "android::trait_trivial_move<unsigned int>::value"
    }
   ],
   "linker_set_key" : "_ZTIN7android18trait_trivial_moveIjE6$valueE",
   "name" : "android::trait_trivial_move<unsigned int>::(anonymous enum at system/core/libutils/include/utils/TypeHelpers.h:104:1)",
   "referenced_type" : "_ZTIN7android18trait_trivial_moveIjE6$valueE",
   "self_type" : "_ZTIN7android18trait_trivial_moveIjE6$valueE",
   "size" : 4,
   "source_file" : "system/core/libutils/include/utils/TypeHelpers.h",
   "underlying_type" : "_ZTIj"
  },
  {
   "alignment" : 4,
   "enum_fields" :
   [
    {
     "enum_field_value" : 1,
     "name" : "android::trait_trivial_move<long>::value"
    }
   ],
   "linker_set_key" : "_ZTIN7android18trait_trivial_moveIlE6$valueE",
   "name" : "android::trait_trivial_move<long>::(anonymous enum at system/core/libutils/include/utils/TypeHelpers.h:105:1)",
   "referenced_type" : "_ZTIN7android18trait_trivial_moveIlE6$valueE",
   "self_type" : "_ZTIN7android18trait_trivial_moveIlE6$valueE",
   "size" : 4,
   "source_file" : "system/core/libutils/include/utils/TypeHelpers.h",
   "underlying_type" : "_ZTIj"
  },
  {
   "alignment" : 4,
   "enum_fields" :
   [
    {
     "enum_field_value" : 1,
     "name" : "android::trait_trivial_move<unsigned long>::value"
    }
   ],
   "linker_set_key" : "_ZTIN7android18trait_trivial_moveImE6$valueE",
   "name" : "android::trait_trivial_move<unsigned long>::(anonymous enum at system/core/libutils/include/utils/TypeHelpers.h:106:1)",
   "referenced_type" : "_ZTIN7android18trait_trivial_moveImE6$valueE",
   "self_type" : "_ZTIN7android18trait_trivial_moveImE6$valueE",
   "size" : 4,
   "source_file" : "system/core/libutils/include/utils/TypeHelpers.h",
   "underlying_type" : "_ZTIj"
  },
  {
   "alignment" : 4,
   "enum_fields" :
   [
    {
     "enum_field_value" : 1,
     "name" : "android::trait_trivial_move<short>::value"
    }
   ],
   "linker_set_key" : "_ZTIN7android18trait_trivial_moveIsE6$valueE",
   "name" : "android::trait_trivial_move<short>::(anonymous enum at system/core/libutils/include/utils/TypeHelpers.h:101:1)",
   "referenced_type" : "_ZTIN7android18trait_trivial_moveIsE6$valueE",
   "self_type" : "_ZTIN7android18trait_trivial_moveIsE6$valueE",
   "size" : 4,
   "source_file" : "system/core/libutils/include/utils/TypeHelpers.h",
   "underlying_type" : "_ZTIj"
  },
  {
   "alignment" : 4,
   "enum_fields" :
   [
    {
     "enum_field_value" : 1,
     "name" : "android::trait_trivial_move<unsigned short>::value"
    }
   ],
   "linker_set_key" : "_ZTIN7android18trait_trivial_moveItE6$valueE",
   "name" : "android::trait_trivial_move<unsigned short>::(anonymous enum at system/core/libutils/include/utils/TypeHelpers.h:102:1)",
   "referenced_type" : "_ZTIN7android18trait_trivial_moveItE6$valueE",
   "self_type" : "_ZTIN7android18trait_trivial_moveItE6$valueE",
   "size" : 4,
   "source_file" : "system/core/libutils/include/utils/TypeHelpers.h",
   "underlying_type" : "_ZTIj"
  },
  {
   "alignment" : 4,
   "enum_fields" :
   [
    {
     "enum_field_value" : 1,
     "name" : "android::trait_trivial_move<void>::value"
    }
   ],
   "linker_set_key" : "_ZTIN7android18trait_trivial_moveIvE6$valueE",
   "name" : "android::trait_trivial_move<void>::(anonymous enum at system/core/libutils/include/utils/TypeHelpers.h:97:1)",
   "referenced_type" : "_ZTIN7android18trait_trivial_moveIvE6$valueE",
   "self_type" : "_ZTIN7android18trait_trivial_moveIvE6$valueE",
   "size" : 4,
   "source_file" : "system/core/libutils/include/utils/TypeHelpers.h",
   "underlying_type" : "_ZTIj"
  },
  {
   "alignment" : 4,
   "enum_fields" :
   [
    {
     "enum_field_value" : 1,
     "name" : "android::trait_trivial_move<long long>::value"
    }
   ],
   "linker_set_key" : "_ZTIN7android18trait_trivial_moveIxE6$valueE",
   "name" : "android::trait_trivial_move<long long>::(anonymous enum at system/core/libutils/include/utils/TypeHelpers.h:107:1)",
   "referenced_type" : "_ZTIN7android18trait_trivial_moveIxE6$valueE",
   "self_type" : "_ZTIN7android18trait_trivial_moveIxE6$valueE",
   "size" : 4,
   "source_file" : "system/core/libutils/include/utils/TypeHelpers.h",
   "underlying_type" : "_ZTIj"
  },
  {
   "alignment" : 4,
   "enum_fields" :
   [
    {
     "enum_field_value" : 1,
     "name" : "android::trait_trivial_move<unsigned long long>::value"
    }
   ],
   "linker_set_key" : "_ZTIN7android18trait_trivial_moveIyE6$valueE",
   "name" : "android::trait_trivial_move<unsigned long long>::(anonymous enum at system/core/libutils/include/utils/TypeHelpers.h:108:1)",
   "referenced_type" : "_ZTIN7android18trait_trivial_moveIyE6$valueE",
   "self_type" : "_ZTIN7android18trait_trivial_moveIyE6$valueE",
   "size" : 4,
   "source_file" : "system/core/libutils/include/utils/TypeHelpers.h",
   "underlying_type" : "_ZTIj"
  },
  {
   "alignment" : 4,
   "enum_fields" :
   [
    {
     "enum_field_value" : -1,
     "name" : "android::Fence::TIMEOUT_NEVER"
    }
   ],
   "linker_set_key" : "_ZTIN7android5Fence14$TIMEOUT_NEVERE",
   "name" : "android::Fence::(anonymous enum at frameworks/native/libs/ui/include/ui/Fence.h:48:5)",
   "referenced_type" : "_ZTIN7android5Fence14$TIMEOUT_NEVERE",
   "self_type" : "_ZTIN7android5Fence14$TIMEOUT_NEVERE",
   "size" : 4,
   "source_file" : "frameworks/native/libs/ui/include/ui/Fence.h",
   "underlying_type" : "_ZTIi"
  },
  {
   "alignment" : 4,
   "enum_fields" :
   [
    {
     "enum_field_value" : 0,
     "name" : "android::Fence::Status::Invalid"
    },
    {
     "enum_field_value" : 1,
     "name" : "android::Fence::Status::Unsignaled"
    },
    {
     "enum_field_value" : 2,
     "name" : "android::Fence::Status::Signaled"
    }
   ],
   "linker_set_key" : "_ZTIN7android5Fence6StatusE",
   "name" : "android::Fence::Status",
   "referenced_type" : "_ZTIN7android5Fence6StatusE",
   "self_type" : "_ZTIN7android5Fence6StatusE",
   "size" : 4,
   "source_file" : "frameworks/native/libs/ui/include/ui/Fence.h",
   "underlying_type" : "_ZTIi"
  },
  {
   "alignment" : 4,
   "enum_fields" :
   [
    {
     "enum_field_value" : 0,
     "name" : "android::Mutex::PRIVATE"
    },
    {
     "enum_field_value" : 1,
     "name" : "android::Mutex::SHARED"
    }
   ],
   "linker_set_key" : "_ZTIN7android5Mutex8$PRIVATEE",
   "name" : "android::Mutex::(anonymous enum at system/core/libutils/include/utils/Mutex.h:96:5)",
   "referenced_type" : "_ZTIN7android5Mutex8$PRIVATEE",
   "self_type" : "_ZTIN7android5Mutex8$PRIVATEE",
   "size" : 4,
   "source_file" : "system/core/libutils/include/utils/Mutex.h",
   "underlying_type" : "_ZTIj"
  },
  {
   "access" : "protected",
   "alignment" : 4,
   "enum_fields" :
   [
    {
     "enum_field_value" : 1,
     "name" : "android::RefBase::FIRST_INC_STRONG"
    }
   ],
   "linker_set_key" : "_ZTIN7android7RefBase17$FIRST_INC_STRONGE",
   "name" : "android::RefBase::(anonymous enum at system/core/libutils/include/utils/RefBase.h:358:5)",
   "referenced_type" : "_ZTIN7android7RefBase17$FIRST_INC_STRONGE",
   "self_type" : "_ZTIN7android7RefBase17$FIRST_INC_STRONGE",
   "size" : 4,
   "source_file" : "system/core/libutils/include/utils/RefBase.h",
   "underlying_type" : "_ZTIj"
  },
  {
   "access" : "protected",
   "alignment" : 4,
   "enum_fields" :
   [
    {
     "enum_field_value" : 0,
     "name" : "android::RefBase::OBJECT_LIFETIME_STRONG"
    },
    {
     "enum_field_value" : 1,
     "name" : "android::RefBase::OBJECT_LIFETIME_WEAK"
    },
    {
     "enum_field_value" : 1,
     "name" : "android::RefBase::OBJECT_LIFETIME_MASK"
    }
   ],
   "linker_set_key" : "_ZTIN7android7RefBase21$OBJECT_LIFETIME_MASKE",
   "name" : "android::RefBase::(anonymous enum at system/core/libutils/include/utils/RefBase.h:349:5)",
   "referenced_type" : "_ZTIN7android7RefBase21$OBJECT_LIFETIME_MASKE",
   "self_type" : "_ZTIN7android7RefBase21$OBJECT_LIFETIME_MASKE",
   "size" : 4,
   "source_file" : "system/core/libutils/include/utils/RefBase.h",
   "underlying_type" : "_ZTIj"
  },
  {
   "access" : "private",
   "alignment" : 4,
   "enum_fields" :
   [
    {
     "enum_field_value" : 0,
     "name" : "android::FenceTime::State::VALID"
    },
    {
     "enum_field_value" : 1,
     "name" : "android::FenceTime::State::INVALID"
    },
    {
     "enum_field_value" : 2,
     "name" : "android::FenceTime::State::FORCED_VALID_FOR_TEST"
    }
   ],
   "linker_set_key" : "_ZTIN7android9FenceTime5StateE",
   "name" : "android::FenceTime::State",
   "referenced_type" : "_ZTIN7android9FenceTime5StateE",
   "self_type" : "_ZTIN7android9FenceTime5StateE",
   "size" : 4,
   "source_file" : "frameworks/native/libs/ui/include/ui/FenceTime.h",
   "underlying_type" : "_ZTIi"
  },
  {
   "alignment" : 4,
   "enum_fields" :
   [
    {
     "enum_field_value" : 0,
     "name" : "android::FenceTime::Snapshot::State::EMPTY"
    },
    {
     "enum_field_value" : 1,
     "name" : "android::FenceTime::Snapshot::State::FENCE"
    },
    {
     "enum_field_value" : 2,
     "name" : "android::FenceTime::Snapshot::State::SIGNAL_TIME"
    }
   ],
   "linker_set_key" : "_ZTIN7android9FenceTime8Snapshot5StateE",
   "name" : "android::FenceTime::Snapshot::State",
   "referenced_type" : "_ZTIN7android9FenceTime8Snapshot5StateE",
   "self_type" : "_ZTIN7android9FenceTime8Snapshot5StateE",
   "size" : 4,
   "source_file" : "frameworks/native/libs/ui/include/ui/FenceTime.h",
   "underlying_type" : "_ZTIi"
  }
 ],
 "function_types" : [],
 "functions" :
 [
  {
   "function_name" : "android::FrameEvents::isValidTimestamp",
   "linker_set_key" : "_ZN7android11FrameEvents16isValidTimestampEx",
   "parameters" :
   [
    {
     "referenced_type" : "_ZTIx"
    }
   ],
   "return_type" : "_ZTIb",
   "source_file" : "frameworks/native/libs/gui/include/gui/FrameTimestamps.h"
  },
  {
   "function_name" : "android::FrameEvents::checkFencesForCompletion",
   "linker_set_key" : "_ZN7android11FrameEvents24checkFencesForCompletionEv",
   "parameters" :
   [
    {
     "is_this_ptr" : true,
     "referenced_type" : "_ZTIPN7android11FrameEventsE"
    }
   ],
   "return_type" : "_ZTIv",
   "source_file" : "frameworks/native/libs/gui/include/gui/FrameTimestamps.h"
  },
  {
   "access" : "protected",
   "function_name" : "android::LightRefBase<android::Fence>::~LightRefBase",
   "linker_set_key" : "_ZN7android12LightRefBaseINS_5FenceEED1Ev",
   "parameters" :
   [
    {
     "is_this_ptr" : true,
     "referenced_type" : "_ZTIPN7android12LightRefBaseINS_5FenceEEE"
    }
   ],
   "return_type" : "_ZTIv",
   "source_file" : "system/core/libutils/include/utils/LightRefBase.h"
  },
  {
   "access" : "protected",
   "function_name" : "android::LightRefBase<android::Fence>::~LightRefBase",
   "linker_set_key" : "_ZN7android12LightRefBaseINS_5FenceEED2Ev",
   "parameters" :
   [
    {
     "is_this_ptr" : true,
     "referenced_type" : "_ZTIPN7android12LightRefBaseINS_5FenceEEE"
    }
   ],
   "return_type" : "_ZTIv",
   "source_file" : "system/core/libutils/include/utils/LightRefBase.h"
  },
  {
   "function_name" : "android::FlattenableUtils::read",
   "linker_set_key" : "_ZN7android16FlattenableUtils4readINS_16CompositorTimingEEEvRPKvRjRT_",
   "parameters" :
   [
    {
     "referenced_type" : "_ZTIRPKv"
    },
    {
     "referenced_type" : "_ZTIRj"
    },
    {
     "referenced_type" : "_ZTIRN7android16CompositorTimingE"
    }
   ],
   "return_type" : "_ZTIv",
   "source_file" : "system/core/libutils/include/utils/Flattenable.h",
   "template_args" : [ "_ZTIN7android16CompositorTimingE" ]
  },
  {
   "function_name" : "android::FlattenableUtils::read",
   "linker_set_key" : "_ZN7android16FlattenableUtils4readIhEEvRPKvRjRT_",
   "parameters" :
   [
    {
     "referenced_type" : "_ZTIRPKv"
    },
    {
     "referenced_type" : "_ZTIRj"
    },
    {
     "referenced_type" : "_ZTIRh"
    }
   ],
   "return_type" : "_ZTIv",
   "source_file" : "system/core/libutils/include/utils/Flattenable.h",
   "template_args" : [ "_ZTIh" ]
  },
  {
   "function_name" : "android::FlattenableUtils::read",
   "linker_set_key" : "_ZN7android16FlattenableUtils4readIjEEvRPKvRjRT_",
   "parameters" :
   [
    {
     "referenced_type" : "_ZTIRPKv"
    },
    {
     "referenced_type" : "_ZTIRj"
    },
    {
     "referenced_type" : "_ZTIRj"
    }
   ],
   "return_type" : "_ZTIv",
   "source_file" : "system/core/libutils/include/utils/Flattenable.h",
   "template_args" : [ "_ZTIj" ]
  },
  {
   "function_name" : "android::FlattenableUtils::read",
   "linker_set_key" : "_ZN7android16FlattenableUtils4readItEEvRPKvRjRT_",
   "parameters" :
   [
    {
     "referenced_type" : "_ZTIRPKv"
    },
    {
     "referenced_type" : "_ZTIRj"
    },
    {
     "referenced_type" : "_ZTIRt"
    }
   ],
   "return_type" : "_ZTIv",
   "source_file" : "system/core/libutils/include/utils/Flattenable.h",
   "template_args" : [ "_ZTIt" ]
  },
  {
   "function_name" : "android::FlattenableUtils::read",
   "linker_set_key" : "_ZN7android16FlattenableUtils4readIxEEvRPKvRjRT_",
   "parameters" :
   [
    {
     "referenced_type" : "_ZTIRPKv"
    },
    {
     "referenced_type" : "_ZTIRj"
    },
    {
     "referenced_type" : "_ZTIRx"
    }
   ],
   "return_type" : "_ZTIv",
   "source_file" : "system/core/libutils/include/utils/Flattenable.h",
   "template_args" : [ "_ZTIx" ]
  },
  {
   "function_name" : "android::FlattenableUtils::read",
   "linker_set_key" : "_ZN7android16FlattenableUtils4readIyEEvRPKvRjRT_",
   "parameters" :
   [
    {
     "referenced_type" : "_ZTIRPKv"
    },
    {
     "referenced_type" : "_ZTIRj"
    },
    {
     "referenced_type" : "_ZTIRy"
    }
   ],
   "return_type" : "_ZTIv",
   "source_file" : "system/core/libutils/include/utils/Flattenable.h",
   "template_args" : [ "_ZTIy" ]
  },
  {
   "function_name" : "android::FlattenableUtils::write",
   "linker_set_key" : "_ZN7android16FlattenableUtils5writeINS_16CompositorTimingEEEvRPvRjRKT_",
   "parameters" :
   [
    {
     "referenced_type" : "_ZTIRPv"
    },
    {
     "referenced_type" : "_ZTIRj"
    },
    {
     "referenced_type" : "_ZTIRKN7android16CompositorTimingE"
    }
   ],
   "return_type" : "_ZTIv",
   "source_file" : "system/core/libutils/include/utils/Flattenable.h",
   "template_args" : [ "_ZTIN7android16CompositorTimingE" ]
  },
  {
   "function_name" : "android::FlattenableUtils::write",
   "linker_set_key" : "_ZN7android16FlattenableUtils5writeIhEEvRPvRjRKT_",
   "parameters" :
   [
    {
     "referenced_type" : "_ZTIRPv"
    },
    {
     "referenced_type" : "_ZTIRj"
    },
    {
     "referenced_type" : "_ZTIRKh"
    }
   ],
   "return_type" : "_ZTIv",
   "source_file" : "system/core/libutils/include/utils/Flattenable.h",
   "template_args" : [ "_ZTIh" ]
  },
  {
   "function_name" : "android::FlattenableUtils::write",
   "linker_set_key" : "_ZN7android16FlattenableUtils5writeIjEEvRPvRjRKT_",
   "parameters" :
   [
    {
     "referenced_type" : "_ZTIRPv"
    },
    {
     "referenced_type" : "_ZTIRj"
    },
    {
     "referenced_type" : "_ZTIRKj"
    }
   ],
   "return_type" : "_ZTIv",
   "source_file" : "system/core/libutils/include/utils/Flattenable.h",
   "template_args" : [ "_ZTIj" ]
  },
  {
   "function_name" : "android::FlattenableUtils::write",
   "linker_set_key" : "_ZN7android16FlattenableUtils5writeItEEvRPvRjRKT_",
   "parameters" :
   [
    {
     "referenced_type" : "_ZTIRPv"
    },
    {
     "referenced_type" : "_ZTIRj"
    },
    {
     "referenced_type" : "_ZTIRKt"
    }
   ],
   "return_type" : "_ZTIv",
   "source_file" : "system/core/libutils/include/utils/Flattenable.h",
   "template_args" : [ "_ZTIt" ]
  },
  {
   "function_name" : "android::FlattenableUtils::write",
   "linker_set_key" : "_ZN7android16FlattenableUtils5writeIxEEvRPvRjRKT_",
   "parameters" :
   [
    {
     "referenced_type" : "_ZTIRPv"
    },
    {
     "referenced_type" : "_ZTIRj"
    },
    {
     "referenced_type" : "_ZTIRKx"
    }
   ],
   "return_type" : "_ZTIv",
   "source_file" : "system/core/libutils/include/utils/Flattenable.h",
   "template_args" : [ "_ZTIx" ]
  },
  {
   "function_name" : "android::FlattenableUtils::write",
   "linker_set_key" : "_ZN7android16FlattenableUtils5writeIyEEvRPvRjRKT_",
   "parameters" :
   [
    {
     "referenced_type" : "_ZTIRPv"
    },
    {
     "referenced_type" : "_ZTIRj"
    },
    {
     "referenced_type" : "_ZTIRKy"
    }
   ],
   "return_type" : "_ZTIv",
   "source_file" : "system/core/libutils/include/utils/Flattenable.h",
   "template_args" : [ "_ZTIy" ]
  },
  {
   "function_name" : "android::FlattenableUtils::advance",
   "linker_set_key" : "_ZN7android16FlattenableUtils7advanceERPKvRjj",
   "parameters" :
   [
    {
     "referenced_type" : "_ZTIRPKv"
    },
    {
     "referenced_type" : "_ZTIRj"
    },
    {
     "referenced_type" : "_ZTIj"
    }
   ],
   "return_type" : "_ZTIv",
   "source_file" : "system/core/libutils/include/utils/Flattenable.h"
  },
  {
   "function_name" : "android::FlattenableUtils::advance",
   "linker_set_key" : "_ZN7android16FlattenableUtils7advanceERPvRjj",
   "parameters" :
   [
    {
     "referenced_type" : "_ZTIRPv"
    },
    {
     "referenced_type" : "_ZTIRj"
    },
    {
     "referenced_type" : "_ZTIj"
    }
   ],
   "return_type" : "_ZTIv",
   "source_file" : "system/core/libutils/include/utils/Flattenable.h"
  },
  {
   "access" : "private",
   "function_name" : "android::FrameEventsDelta::minFlattenedSize",
   "linker_set_key" : "_ZN7android16FrameEventsDelta16minFlattenedSizeEv",
   "return_type" : "_ZTIj",
   "source_file" : "frameworks/native/libs/gui/include/gui/FrameTimestamps.h"
  },
  {
   "access" : "private",
   "function_name" : "android::FrameEventsDelta::allFences",
   "linker_set_key" : "_ZN7android16FrameEventsDelta9allFencesIPKS0_EENSt3__15arrayIDTadptfp_13mReleaseFenceELj3EEET_",
   "parameters" :
   [
    {
     "referenced_type" : "_ZTIPKN7android16FrameEventsDeltaE"
    }
   ],
   "return_type" : "_ZTINSt3__15arrayIPKN7android9FenceTime8SnapshotELj3EEE",
   "source_file" : "frameworks/native/libs/gui/include/gui/FrameTimestamps.h",
   "template_args" : [ "_ZTIPKN7android16FrameEventsDeltaE" ]
  },
  {
   "access" : "private",
   "function_name" : "android::FrameEventsDelta::allFences",
   "linker_set_key" : "_ZN7android16FrameEventsDelta9allFencesIPS0_EENSt3__15arrayIDTadptfp_13mReleaseFenceELj3EEET_",
   "parameters" :
   [
    {
     "referenced_type" : "_ZTIPN7android16FrameEventsDeltaE"
    }
   ],
   "return_type" : "_ZTINSt3__15arrayIPN7android9FenceTime8SnapshotELj3EEE",
   "source_file" : "frameworks/native/libs/gui/include/gui/FrameTimestamps.h",
   "template_args" : [ "_ZTIPN7android16FrameEventsDeltaE" ]
  },
  {
   "function_name" : "android::FrameEventsDelta::unflatten",
   "linker_set_key" : "_ZN7android16FrameEventsDelta9unflattenERPKvRjRPKiS4_",
   "parameters" :
   [
    {
     "is_this_ptr" : true,
     "referenced_type" : "_ZTIPN7android16FrameEventsDeltaE"
    },
    {
     "referenced_type" : "_ZTIRPKv"
    },
    {
     "referenced_type" : "_ZTIRj"
    },
    {
     "referenced_type" : "_ZTIRPKi"
    },
    {
     "referenced_type" : "_ZTIRj"
    }
   ],
   "return_type" : "_ZTIi",
   "source_file" : "frameworks/native/libs/gui/include/gui/FrameTimestamps.h"
  },
  {
   "function_name" : "android::FrameEventsDelta::FrameEventsDelta",
   "linker_set_key" : "_ZN7android16FrameEventsDeltaC1EOS0_",
   "parameters" :
   [
    {
     "is_this_ptr" : true,
     "referenced_type" : "_ZTIPN7android16FrameEventsDeltaE"
    },
    {
     "referenced_type" : "_ZTION7android16FrameEventsDeltaE"
    }
   ],
   "return_type" : "_ZTIv",
   "source_file" : "frameworks/native/libs/gui/include/gui/FrameTimestamps.h"
  },
  {
   "function_name" : "android::FrameEventsDelta::FrameEventsDelta",
   "linker_set_key" : "_ZN7android16FrameEventsDeltaC1EjRKNS_11FrameEventsERKNS_21FrameEventDirtyFieldsE",
   "parameters" :
   [
    {
     "is_this_ptr" : true,
     "referenced_type" : "_ZTIPN7android16FrameEventsDeltaE"
    },
    {
     "referenced_type" : "_ZTIj"
    },
    {
     "referenced_type" : "_ZTIRKN7android11FrameEventsE"
    },
    {
     "referenced_type" : "_ZTIRKN7android21FrameEventDirtyFieldsE"
    }
   ],
   "return_type" : "_ZTIv",
   "source_file" : "frameworks/native/libs/gui/include/gui/FrameTimestamps.h"
  },
  {
   "function_name" : "android::FrameEventsDelta::FrameEventsDelta",
   "linker_set_key" : "_ZN7android16FrameEventsDeltaC1Ev",
   "parameters" :
   [
    {
     "is_this_ptr" : true,
     "referenced_type" : "_ZTIPN7android16FrameEventsDeltaE"
    }
   ],
   "return_type" : "_ZTIv",
   "source_file" : "frameworks/native/libs/gui/include/gui/FrameTimestamps.h"
  },
  {
   "function_name" : "android::FrameEventsDelta::FrameEventsDelta",
   "linker_set_key" : "_ZN7android16FrameEventsDeltaC2EOS0_",
   "parameters" :
   [
    {
     "is_this_ptr" : true,
     "referenced_type" : "_ZTIPN7android16FrameEventsDeltaE"
    },
    {
     "referenced_type" : "_ZTION7android16FrameEventsDeltaE"
    }
   ],
   "return_type" : "_ZTIv",
   "source_file" : "frameworks/native/libs/gui/include/gui/FrameTimestamps.h"
  },
  {
   "function_name" : "android::FrameEventsDelta::FrameEventsDelta",
   "linker_set_key" : "_ZN7android16FrameEventsDeltaC2EjRKNS_11FrameEventsERKNS_21FrameEventDirtyFieldsE",
   "parameters" :
   [
    {
     "is_this_ptr" : true,
     "referenced_type" : "_ZTIPN7android16FrameEventsDeltaE"
    },
    {
     "referenced_type" : "_ZTIj"
    },
    {
     "referenced_type" : "_ZTIRKN7android11FrameEventsE"
    },
    {
     "referenced_type" : "_ZTIRKN7android21FrameEventDirtyFieldsE"
    }
   ],
   "return_type" : "_ZTIv",
   "source_file" : "frameworks/native/libs/gui/include/gui/FrameTimestamps.h"
  },
  {
   "function_name" : "android::FrameEventsDelta::FrameEventsDelta",
   "linker_set_key" : "_ZN7android16FrameEventsDeltaC2Ev",
   "parameters" :
   [
    {
     "is_this_ptr" : true,
     "referenced_type" : "_ZTIPN7android16FrameEventsDeltaE"
    }
   ],
   "return_type" : "_ZTIv",
   "source_file" : "frameworks/native/libs/gui/include/gui/FrameTimestamps.h"
  },
  {
   "function_name" : "android::FrameEventsDelta::operator=",
   "linker_set_key" : "_ZN7android16FrameEventsDeltaaSEOS0_",
   "parameters" :
   [
    {
     "is_this_ptr" : true,
     "referenced_type" : "_ZTIPN7android16FrameEventsDeltaE"
    },
    {
     "referenced_type" : "_ZTION7android16FrameEventsDeltaE"
    }
   ],
   "return_type" : "_ZTIRN7android16FrameEventsDeltaE",
   "source_file" : "frameworks/native/libs/gui/include/gui/FrameTimestamps.h"
  },
  {
   "access" : "protected",
   "function_name" : "android::ReferenceRenamer::~ReferenceRenamer",
   "linker_set_key" : "_ZN7android16ReferenceRenamerD1Ev",
   "parameters" :
   [
    {
     "is_this_ptr" : true,
     "referenced_type" : "_ZTIPN7android16ReferenceRenamerE"
    }
   ],
   "return_type" : "_ZTIv",
   "source_file" : "system/core/libutils/include/utils/RefBase.h"
  },
  {
   "access" : "protected",
   "function_name" : "android::ReferenceRenamer::~ReferenceRenamer",
   "linker_set_key" : "_ZN7android16ReferenceRenamerD2Ev",
   "parameters" :
   [
    {
     "is_this_ptr" : true,
     "referenced_type" : "_ZTIPN7android16ReferenceRenamerE"
    }
   ],
   "return_type" : "_ZTIv",
   "source_file" : "system/core/libutils/include/utils/RefBase.h"
  },
  {
   "function_name" : "android::FrameEventHistory::checkFencesForCompletion",
   "linker_set_key" : "_ZN7android17FrameEventHistory24checkFencesForCompletionEv",
   "parameters" :
   [
    {
     "is_this_ptr" : true,
     "referenced_type" : "_ZTIPN7android17FrameEventHistoryE"
    }
   ],
   "return_type" : "_ZTIv",
   "source_file" : "frameworks/native/libs/gui/include/gui/FrameTimestamps.h"
  },
  {
   "function_name" : "android::FrameEventHistory::getFrame",
   "linker_set_key" : "_ZN7android17FrameEventHistory8getFrameEy",
   "parameters" :
   [
    {
     "is_this_ptr" : true,
     "referenced_type" : "_ZTIPN7android17FrameEventHistoryE"
    },
    {
     "referenced_type" : "_ZTIy"
    }
   ],
   "return_type" : "_ZTIPN7android11FrameEventsE",
   "source_file" : "frameworks/native/libs/gui/include/gui/FrameTimestamps.h"
  },
  {
   "function_name" : "android::FrameEventHistory::getFrame",
   "linker_set_key" : "_ZN7android17FrameEventHistory8getFrameEyPj",
   "parameters" :
   [
    {
     "is_this_ptr" : true,
     "referenced_type" : "_ZTIPN7android17FrameEventHistoryE"
    },
    {
     "referenced_type" : "_ZTIy"
    },
    {
     "referenced_type" : "_ZTIPj"
    }
   ],
   "return_type" : "_ZTIPN7android11FrameEventsE",
   "source_file" : "frameworks/native/libs/gui/include/gui/FrameTimestamps.h"
  },
  {
   "function_name" : "android::FrameEventHistory::FrameEventHistory",
   "linker_set_key" : "_ZN7android17FrameEventHistoryC1Ev",
   "parameters" :
   [
    {
     "is_this_ptr" : true,
     "referenced_type" : "_ZTIPN7android17FrameEventHistoryE"
    }
   ],
   "return_type" : "_ZTIv",
   "source_file" : "frameworks/native/libs/gui/include/gui/FrameTimestamps.h"
  },
  {
   "function_name" : "android::FrameEventHistory::FrameEventHistory",
   "linker_set_key" : "_ZN7android17FrameEventHistoryC2Ev",
   "parameters" :
   [
    {
     "is_this_ptr" : true,
     "referenced_type" : "_ZTIPN7android17FrameEventHistoryE"
    }
   ],
   "return_type" : "_ZTIv",
   "source_file" : "frameworks/native/libs/gui/include/gui/FrameTimestamps.h"
  },
  {
   "function_name" : "android::FrameEventHistory::~FrameEventHistory",
   "linker_set_key" : "_ZN7android17FrameEventHistoryD0Ev",
   "parameters" :
   [
    {
     "is_this_ptr" : true,
     "referenced_type" : "_ZTIPN7android17FrameEventHistoryE"
    }
   ],
   "return_type" : "_ZTIv",
   "source_file" : "frameworks/native/libs/gui/include/gui/FrameTimestamps.h"
  },
  {
   "function_name" : "android::FrameEventHistory::~FrameEventHistory",
   "linker_set_key" : "_ZN7android17FrameEventHistoryD1Ev",
   "parameters" :
   [
    {
     "is_this_ptr" : true,
     "referenced_type" : "_ZTIPN7android17FrameEventHistoryE"
    }
   ],
   "return_type" : "_ZTIv",
   "source_file" : "frameworks/native/libs/gui/include/gui/FrameTimestamps.h"
  },
  {
   "function_name" : "android::FrameEventHistory::~FrameEventHistory",
   "linker_set_key" : "_ZN7android17FrameEventHistoryD2Ev",
   "parameters" :
   [
    {
     "is_this_ptr" : true,
     "referenced_type" : "_ZTIPN7android17FrameEventHistoryE"
    }
   ],
   "return_type" : "_ZTIv",
   "source_file" : "frameworks/native/libs/gui/include/gui/FrameTimestamps.h"
  },
  {
   "function_name" : "android::VirtualLightRefBase::~VirtualLightRefBase",
   "linker_set_key" : "_ZN7android19VirtualLightRefBaseD0Ev",
   "parameters" :
   [
    {
     "is_this_ptr" : true,
     "referenced_type" : "_ZTIPN7android19VirtualLightRefBaseE"
    }
   ],
   "return_type" : "_ZTIv",
   "source_file" : "system/core/libutils/include/utils/LightRefBase.h"
  },
  {
   "function_name" : "android::VirtualLightRefBase::~VirtualLightRefBase",
   "linker_set_key" : "_ZN7android19VirtualLightRefBaseD1Ev",
   "parameters" :
   [
    {
     "is_this_ptr" : true,
     "referenced_type" : "_ZTIPN7android19VirtualLightRefBaseE"
    }
   ],
   "return_type" : "_ZTIv",
   "source_file" : "system/core/libutils/include/utils/LightRefBase.h"
  },
  {
   "function_name" : "android::VirtualLightRefBase::~VirtualLightRefBase",
   "linker_set_key" : "_ZN7android19VirtualLightRefBaseD2Ev",
   "parameters" :
   [
    {
     "is_this_ptr" : true,
     "referenced_type" : "_ZTIPN7android19VirtualLightRefBaseE"
    }
   ],
   "return_type" : "_ZTIv",
   "source_file" : "system/core/libutils/include/utils/LightRefBase.h"
  },
  {
   "function_name" : "android::FrameEventDirtyFields::reset",
   "linker_set_key" : "_ZN7android21FrameEventDirtyFields5resetEv",
   "parameters" :
   [
    {
     "is_this_ptr" : true,
     "referenced_type" : "_ZTIPN7android21FrameEventDirtyFieldsE"
    }
   ],
   "return_type" : "_ZTIv",
   "source_file" : "frameworks/native/libs/gui/include/gui/FrameTimestamps.h"
  },
  {
   "function_name" : "android::FrameEventDirtyFields::setDirty",
   "linker_set_key" : "_ZN7android21FrameEventDirtyFields8setDirtyILNS_10FrameEventE0EEEvv",
   "parameters" :
   [
    {
     "is_this_ptr" : true,
     "referenced_type" : "_ZTIPN7android21FrameEventDirtyFieldsE"
    }
   ],
   "return_type" : "_ZTIv",
   "source_file" : "frameworks/native/libs/gui/include/gui/FrameTimestamps.h"
  },
  {
   "function_name" : "android::FrameEventDirtyFields::setDirty",
   "linker_set_key" : "_ZN7android21FrameEventDirtyFields8setDirtyILNS_10FrameEventE2EEEvv",
   "parameters" :
   [
    {
     "is_this_ptr" : true,
     "referenced_type" : "_ZTIPN7android21FrameEventDirtyFieldsE"
    }
   ],
   "return_type" : "_ZTIv",
   "source_file" : "frameworks/native/libs/gui/include/gui/FrameTimestamps.h"
  },
  {
   "function_name" : "android::FrameEventDirtyFields::setDirty",
   "linker_set_key" : "_ZN7android21FrameEventDirtyFields8setDirtyILNS_10FrameEventE4EEEvv",
   "parameters" :
   [
    {
     "is_this_ptr" : true,
     "referenced_type" : "_ZTIPN7android21FrameEventDirtyFieldsE"
    }
   ],
   "return_type" : "_ZTIv",
   "source_file" : "frameworks/native/libs/gui/include/gui/FrameTimestamps.h"
  },
  {
   "function_name" : "android::FrameEventDirtyFields::setDirty",
   "linker_set_key" : "_ZN7android21FrameEventDirtyFields8setDirtyILNS_10FrameEventE5EEEvv",
   "parameters" :
   [
    {
     "is_this_ptr" : true,
     "referenced_type" : "_ZTIPN7android21FrameEventDirtyFieldsE"
    }
   ],
   "return_type" : "_ZTIv",
   "source_file" : "frameworks/native/libs/gui/include/gui/FrameTimestamps.h"
  },
  {
   "function_name" : "android::FrameEventDirtyFields::setDirty",
   "linker_set_key" : "_ZN7android21FrameEventDirtyFields8setDirtyILNS_10FrameEventE6EEEvv",
   "parameters" :
   [
    {
     "is_this_ptr" : true,
     "referenced_type" : "_ZTIPN7android21FrameEventDirtyFieldsE"
    }
   ],
   "return_type" : "_ZTIv",
   "source_file" : "frameworks/native/libs/gui/include/gui/FrameTimestamps.h"
  },
  {
   "function_name" : "android::FrameEventDirtyFields::setDirty",
   "linker_set_key" : "_ZN7android21FrameEventDirtyFields8setDirtyILNS_10FrameEventE7EEEvv",
   "parameters" :
   [
    {
     "is_this_ptr" : true,
     "referenced_type" : "_ZTIPN7android21FrameEventDirtyFieldsE"
    }
   ],
   "return_type" : "_ZTIv",
   "source_file" : "frameworks/native/libs/gui/include/gui/FrameTimestamps.h"
  },
  {
   "function_name" : "android::FrameEventDirtyFields::setDirty",
   "linker_set_key" : "_ZN7android21FrameEventDirtyFields8setDirtyILNS_10FrameEventE9EEEvv",
   "parameters" :
   [
    {
     "is_this_ptr" : true,
     "referenced_type" : "_ZTIPN7android21FrameEventDirtyFieldsE"
    }
   ],
   "return_type" : "_ZTIv",
   "source_file" : "frameworks/native/libs/gui/include/gui/FrameTimestamps.h"
  },
  {
   "access" : "private",
   "function_name" : "android::FrameEventHistoryDelta::minFlattenedSize",
   "linker_set_key" : "_ZN7android22FrameEventHistoryDelta16minFlattenedSizeEv",
   "return_type" : "_ZTIj",
   "source_file" : "frameworks/native/libs/gui/include/gui/FrameTimestamps.h"
  },
  {
   "function_name" : "android::FrameEventHistoryDelta::unflatten",
   "linker_set_key" : "_ZN7android22FrameEventHistoryDelta9unflattenERPKvRjRPKiS4_",
   "parameters" :
   [
    {
     "is_this_ptr" : true,
     "referenced_type" : "_ZTIPN7android22FrameEventHistoryDeltaE"
    },
    {
     "referenced_type" : "_ZTIRPKv"
    },
    {
     "referenced_type" : "_ZTIRj"
    },
    {
     "referenced_type" : "_ZTIRPKi"
    },
    {
     "referenced_type" : "_ZTIRj"
    }
   ],
   "return_type" : "_ZTIi",
   "source_file" : "frameworks/native/libs/gui/include/gui/FrameTimestamps.h"
  },
  {
   "function_name" : "android::FrameEventHistoryDelta::FrameEventHistoryDelta",
   "linker_set_key" : "_ZN7android22FrameEventHistoryDeltaC1EOS0_",
   "parameters" :
   [
    {
     "is_this_ptr" : true,
     "referenced_type" : "_ZTIPN7android22FrameEventHistoryDeltaE"
    },
    {
     "referenced_type" : "_ZTION7android22FrameEventHistoryDeltaE"
    }
   ],
   "return_type" : "_ZTIv",
   "source_file" : "frameworks/native/libs/gui/include/gui/FrameTimestamps.h"
  },
  {
   "function_name" : "android::FrameEventHistoryDelta::FrameEventHistoryDelta",
   "linker_set_key" : "_ZN7android22FrameEventHistoryDeltaC1Ev",
   "parameters" :
   [
    {
     "is_this_ptr" : true,
     "referenced_type" : "_ZTIPN7android22FrameEventHistoryDeltaE"
    }
   ],
   "return_type" : "_ZTIv",
   "source_file" : "frameworks/native/libs/gui/include/gui/FrameTimestamps.h"
  },
  {
   "function_name" : "android::FrameEventHistoryDelta::FrameEventHistoryDelta",
   "linker_set_key" : "_ZN7android22FrameEventHistoryDeltaC2EOS0_",
   "parameters" :
   [
    {
     "is_this_ptr" : true,
     "referenced_type" : "_ZTIPN7android22FrameEventHistoryDeltaE"
    },
    {
     "referenced_type" : "_ZTION7android22FrameEventHistoryDeltaE"
    }
   ],
   "return_type" : "_ZTIv",
   "source_file" : "frameworks/native/libs/gui/include/gui/FrameTimestamps.h"
  },
  {
   "function_name" : "android::FrameEventHistoryDelta::FrameEventHistoryDelta",
   "linker_set_key" : "_ZN7android22FrameEventHistoryDeltaC2Ev",
   "parameters" :
   [
    {
     "is_this_ptr" : true,
     "referenced_type" : "_ZTIPN7android22FrameEventHistoryDeltaE"
    }
   ],
   "return_type" : "_ZTIv",
   "source_file" : "frameworks/native/libs/gui/include/gui/FrameTimestamps.h"
  },
  {
   "function_name" : "android::FrameEventHistoryDelta::operator=",
   "linker_set_key" : "_ZN7android22FrameEventHistoryDeltaaSEOS0_",
   "parameters" :
   [
    {
     "is_this_ptr" : true,
     "referenced_type" : "_ZTIPN7android22FrameEventHistoryDeltaE"
    },
    {
     "referenced_type" : "_ZTION7android22FrameEventHistoryDeltaE"
    }
   ],
   "return_type" : "_ZTIRN7android22FrameEventHistoryDeltaE",
   "source_file" : "frameworks/native/libs/gui/include/gui/FrameTimestamps.h"
  },
  {
   "function_name" : "android::ConsumerFrameEventHistory::addRelease",
   "linker_set_key" : "_ZN7android25ConsumerFrameEventHistory10addReleaseEyxONSt3__110shared_ptrINS_9FenceTimeEEE",
   "parameters" :
   [
    {
     "is_this_ptr" : true,
     "referenced_type" : "_ZTIPN7android25ConsumerFrameEventHistoryE"
    },
    {
     "referenced_type" : "_ZTIy"
    },
    {
     "referenced_type" : "_ZTIx"
    },
    {
     "referenced_type" : "_ZTIONSt3__110shared_ptrIN7android9FenceTimeEEE"
    }
   ],
   "return_type" : "_ZTIv",
   "source_file" : "frameworks/native/libs/gui/include/gui/FrameTimestamps.h"
  },
  {
   "function_name" : "android::ConsumerFrameEventHistory::onDisconnect",
   "linker_set_key" : "_ZN7android25ConsumerFrameEventHistory12onDisconnectEv",
   "parameters" :
   [
    {
     "is_this_ptr" : true,
     "referenced_type" : "_ZTIPN7android25ConsumerFrameEventHistoryE"
    }
   ],
   "return_type" : "_ZTIv",
   "source_file" : "frameworks/native/libs/gui/include/gui/FrameTimestamps.h"
  },
  {
   "access" : "private",
   "function_name" : "android::ConsumerFrameEventHistory::getFrameDelta",
   "linker_set_key" : "_ZN7android25ConsumerFrameEventHistory13getFrameDeltaEPNS_22FrameEventHistoryDeltaERKNSt3__111__wrap_iterIPNS_11FrameEventsEEE",
   "parameters" :
   [
    {
     "is_this_ptr" : true,
     "referenced_type" : "_ZTIPN7android25ConsumerFrameEventHistoryE"
    },
    {
     "referenced_type" : "_ZTIPN7android22FrameEventHistoryDeltaE"
    },
    {
     "referenced_type" : "_ZTIRKNSt3__111__wrap_iterIPN7android11FrameEventsEEE"
    }
   ],
   "return_type" : "_ZTIv",
   "source_file" : "frameworks/native/libs/gui/include/gui/FrameTimestamps.h"
  },
  {
   "function_name" : "android::ConsumerFrameEventHistory::getAndResetDelta",
   "linker_set_key" : "_ZN7android25ConsumerFrameEventHistory16getAndResetDeltaEPNS_22FrameEventHistoryDeltaE",
   "parameters" :
   [
    {
     "is_this_ptr" : true,
     "referenced_type" : "_ZTIPN7android25ConsumerFrameEventHistoryE"
    },
    {
     "referenced_type" : "_ZTIPN7android22FrameEventHistoryDeltaE"
    }
   ],
   "return_type" : "_ZTIv",
   "source_file" : "frameworks/native/libs/gui/include/gui/FrameTimestamps.h"
  },
  {
   "function_name" : "android::ConsumerFrameEventHistory::addPreComposition",
   "linker_set_key" : "_ZN7android25ConsumerFrameEventHistory17addPreCompositionEyx",
   "parameters" :
   [
    {
     "is_this_ptr" : true,
     "referenced_type" : "_ZTIPN7android25ConsumerFrameEventHistoryE"
    },
    {
     "referenced_type" : "_ZTIy"
    },
    {
     "referenced_type" : "_ZTIx"
    }
   ],
   "return_type" : "_ZTIv",
   "source_file" : "frameworks/native/libs/gui/include/gui/FrameTimestamps.h"
  },
  {
   "function_name" : "android::ConsumerFrameEventHistory::addPostComposition",
   "linker_set_key" : "_ZN7android25ConsumerFrameEventHistory18addPostCompositionEyRKNSt3__110shared_ptrINS_9FenceTimeEEES6_RKNS_16CompositorTimingE",
   "parameters" :
   [
    {
     "is_this_ptr" : true,
     "referenced_type" : "_ZTIPN7android25ConsumerFrameEventHistoryE"
    },
    {
     "referenced_type" : "_ZTIy"
    },
    {
     "referenced_type" : "_ZTIRKNSt3__110shared_ptrIN7android9FenceTimeEEE"
    },
    {
     "referenced_type" : "_ZTIRKNSt3__110shared_ptrIN7android9FenceTimeEEE"
    },
    {
     "referenced_type" : "_ZTIRKN7android16CompositorTimingE"
    }
   ],
   "return_type" : "_ZTIv",
   "source_file" : "frameworks/native/libs/gui/include/gui/FrameTimestamps.h"
  },
  {
   "function_name" : "android::ConsumerFrameEventHistory::setProducerWantsEvents",
   "linker_set_key" : "_ZN7android25ConsumerFrameEventHistory22setProducerWantsEventsEv",
   "parameters" :
   [
    {
     "is_this_ptr" : true,
     "referenced_type" : "_ZTIPN7android25ConsumerFrameEventHistoryE"
    }
   ],
   "return_type" : "_ZTIv",
   "source_file" : "frameworks/native/libs/gui/include/gui/FrameTimestamps.h"
  },
  {
   "function_name" : "android::ConsumerFrameEventHistory::initializeCompositorTiming",
   "linker_set_key" : "_ZN7android25ConsumerFrameEventHistory26initializeCompositorTimingERKNS_16CompositorTimingE",
   "parameters" :
   [
    {
     "is_this_ptr" : true,
     "referenced_type" : "_ZTIPN7android25ConsumerFrameEventHistoryE"
    },
    {
     "referenced_type" : "_ZTIRKN7android16CompositorTimingE"
    }
   ],
   "return_type" : "_ZTIv",
   "source_file" : "frameworks/native/libs/gui/include/gui/FrameTimestamps.h"
  },
  {
   "function_name" : "android::ConsumerFrameEventHistory::addLatch",
   "linker_set_key" : "_ZN7android25ConsumerFrameEventHistory8addLatchEyx",
   "parameters" :
   [
    {
     "is_this_ptr" : true,
     "referenced_type" : "_ZTIPN7android25ConsumerFrameEventHistoryE"
    },
    {
     "referenced_type" : "_ZTIy"
    },
    {
     "referenced_type" : "_ZTIx"
    }
   ],
   "return_type" : "_ZTIv",
   "source_file" : "frameworks/native/libs/gui/include/gui/FrameTimestamps.h"
  },
  {
   "function_name" : "android::ConsumerFrameEventHistory::addQueue",
   "linker_set_key" : "_ZN7android25ConsumerFrameEventHistory8addQueueERKNS_19NewFrameEventsEntryE",
   "parameters" :
   [
    {
     "is_this_ptr" : true,
     "referenced_type" : "_ZTIPN7android25ConsumerFrameEventHistoryE"
    },
    {
     "referenced_type" : "_ZTIRKN7android19NewFrameEventsEntryE"
    }
   ],
   "return_type" : "_ZTIv",
   "source_file" : "frameworks/native/libs/gui/include/gui/FrameTimestamps.h"
  },
  {
   "function_name" : "android::ConsumerFrameEventHistory::ConsumerFrameEventHistory",
   "linker_set_key" : "_ZN7android25ConsumerFrameEventHistoryC1Ev",
   "parameters" :
   [
    {
     "is_this_ptr" : true,
     "referenced_type" : "_ZTIPN7android25ConsumerFrameEventHistoryE"
    }
   ],
   "return_type" : "_ZTIv",
   "source_file" : "frameworks/native/libs/gui/include/gui/FrameTimestamps.h"
  },
  {
   "function_name" : "android::ConsumerFrameEventHistory::ConsumerFrameEventHistory",
   "linker_set_key" : "_ZN7android25ConsumerFrameEventHistoryC2Ev",
   "parameters" :
   [
    {
     "is_this_ptr" : true,
     "referenced_type" : "_ZTIPN7android25ConsumerFrameEventHistoryE"
    }
   ],
   "return_type" : "_ZTIv",
   "source_file" : "frameworks/native/libs/gui/include/gui/FrameTimestamps.h"
  },
  {
   "function_name" : "android::ConsumerFrameEventHistory::~ConsumerFrameEventHistory",
   "linker_set_key" : "_ZN7android25ConsumerFrameEventHistoryD0Ev",
   "parameters" :
   [
    {
     "is_this_ptr" : true,
     "referenced_type" : "_ZTIPN7android25ConsumerFrameEventHistoryE"
    }
   ],
   "return_type" : "_ZTIv",
   "source_file" : "frameworks/native/libs/gui/include/gui/FrameTimestamps.h"
  },
  {
   "function_name" : "android::ConsumerFrameEventHistory::~ConsumerFrameEventHistory",
   "linker_set_key" : "_ZN7android25ConsumerFrameEventHistoryD1Ev",
   "parameters" :
   [
    {
     "is_this_ptr" : true,
     "referenced_type" : "_ZTIPN7android25ConsumerFrameEventHistoryE"
    }
   ],
   "return_type" : "_ZTIv",
   "source_file" : "frameworks/native/libs/gui/include/gui/FrameTimestamps.h"
  },
  {
   "function_name" : "android::ConsumerFrameEventHistory::~ConsumerFrameEventHistory",
   "linker_set_key" : "_ZN7android25ConsumerFrameEventHistoryD2Ev",
   "parameters" :
   [
    {
     "is_this_ptr" : true,
     "referenced_type" : "_ZTIPN7android25ConsumerFrameEventHistoryE"
    }
   ],
   "return_type" : "_ZTIv",
   "source_file" : "frameworks/native/libs/gui/include/gui/FrameTimestamps.h"
  },
  {
   "function_name" : "android::ProducerFrameEventHistory::applyDelta",
   "linker_set_key" : "_ZN7android25ProducerFrameEventHistory10applyDeltaERKNS_22FrameEventHistoryDeltaE",
   "parameters" :
   [
    {
     "is_this_ptr" : true,
     "referenced_type" : "_ZTIPN7android25ProducerFrameEventHistoryE"
    },
    {
     "referenced_type" : "_ZTIRKN7android22FrameEventHistoryDeltaE"
    }
   ],
   "return_type" : "_ZTIv",
   "source_file" : "frameworks/native/libs/gui/include/gui/FrameTimestamps.h"
  },
  {
   "function_name" : "android::ProducerFrameEventHistory::snapToNextTick",
   "linker_set_key" : "_ZN7android25ProducerFrameEventHistory14snapToNextTickExxx",
   "parameters" :
   [
    {
     "referenced_type" : "_ZTIx"
    },
    {
     "referenced_type" : "_ZTIx"
    },
    {
     "referenced_type" : "_ZTIx"
    }
   ],
   "return_type" : "_ZTIx",
   "source_file" : "frameworks/native/libs/gui/include/gui/FrameTimestamps.h"
  },
  {
   "function_name" : "android::ProducerFrameEventHistory::updateSignalTimes",
   "linker_set_key" : "_ZN7android25ProducerFrameEventHistory17updateSignalTimesEv",
   "parameters" :
   [
    {
     "is_this_ptr" : true,
     "referenced_type" : "_ZTIPN7android25ProducerFrameEventHistoryE"
    }
   ],
   "return_type" : "_ZTIv",
   "source_file" : "frameworks/native/libs/gui/include/gui/FrameTimestamps.h"
  },
  {
   "function_name" : "android::ProducerFrameEventHistory::updateAcquireFence",
   "linker_set_key" : "_ZN7android25ProducerFrameEventHistory18updateAcquireFenceEyONSt3__110shared_ptrINS_9FenceTimeEEE",
   "parameters" :
   [
    {
     "is_this_ptr" : true,
     "referenced_type" : "_ZTIPN7android25ProducerFrameEventHistoryE"
    },
    {
     "referenced_type" : "_ZTIy"
    },
    {
     "referenced_type" : "_ZTIONSt3__110shared_ptrIN7android9FenceTimeEEE"
    }
   ],
   "return_type" : "_ZTIv",
   "source_file" : "frameworks/native/libs/gui/include/gui/FrameTimestamps.h"
  },
  {
   "function_name" : "android::ProducerFrameEventHistory::~ProducerFrameEventHistory",
   "linker_set_key" : "_ZN7android25ProducerFrameEventHistoryD0Ev",
   "parameters" :
   [
    {
     "is_this_ptr" : true,
     "referenced_type" : "_ZTIPN7android25ProducerFrameEventHistoryE"
    }
   ],
   "return_type" : "_ZTIv",
   "source_file" : "frameworks/native/libs/gui/include/gui/FrameTimestamps.h"
  },
  {
   "function_name" : "android::ProducerFrameEventHistory::~ProducerFrameEventHistory",
   "linker_set_key" : "_ZN7android25ProducerFrameEventHistoryD1Ev",
   "parameters" :
   [
    {
     "is_this_ptr" : true,
     "referenced_type" : "_ZTIPN7android25ProducerFrameEventHistoryE"
    }
   ],
   "return_type" : "_ZTIv",
   "source_file" : "frameworks/native/libs/gui/include/gui/FrameTimestamps.h"
  },
  {
   "function_name" : "android::ProducerFrameEventHistory::~ProducerFrameEventHistory",
   "linker_set_key" : "_ZN7android25ProducerFrameEventHistoryD2Ev",
   "parameters" :
   [
    {
     "is_this_ptr" : true,
     "referenced_type" : "_ZTIPN7android25ProducerFrameEventHistoryE"
    }
   ],
   "return_type" : "_ZTIv",
   "source_file" : "frameworks/native/libs/gui/include/gui/FrameTimestamps.h"
  },
  {
   "function_name" : "android::sp<android::Fence>::sp",
   "linker_set_key" : "_ZN7android2spINS_5FenceEEC1EOS2_",
   "parameters" :
   [
    {
     "is_this_ptr" : true,
     "referenced_type" : "_ZTIPN7android2spINS_5FenceEEE"
    },
    {
     "referenced_type" : "_ZTION7android2spINS_5FenceEEE"
    }
   ],
   "return_type" : "_ZTIv",
   "source_file" : "system/core/libutils/include/utils/StrongPointer.h"
  },
  {
   "function_name" : "android::sp<android::Fence>::sp",
   "linker_set_key" : "_ZN7android2spINS_5FenceEEC1ERKS2_",
   "parameters" :
   [
    {
     "is_this_ptr" : true,
     "referenced_type" : "_ZTIPN7android2spINS_5FenceEEE"
    },
    {
     "referenced_type" : "_ZTIRKN7android2spINS_5FenceEEE"
    }
   ],
   "return_type" : "_ZTIv",
   "source_file" : "system/core/libutils/include/utils/StrongPointer.h"
  },
  {
   "function_name" : "android::sp<android::Fence>::sp",
   "linker_set_key" : "_ZN7android2spINS_5FenceEEC2EOS2_",
   "parameters" :
   [
    {
     "is_this_ptr" : true,
     "referenced_type" : "_ZTIPN7android2spINS_5FenceEEE"
    },
    {
     "referenced_type" : "_ZTION7android2spINS_5FenceEEE"
    }
   ],
   "return_type" : "_ZTIv",
   "source_file" : "system/core/libutils/include/utils/StrongPointer.h"
  },
  {
   "function_name" : "android::sp<android::Fence>::sp",
   "linker_set_key" : "_ZN7android2spINS_5FenceEEC2ERKS2_",
   "parameters" :
   [
    {
     "is_this_ptr" : true,
     "referenced_type" : "_ZTIPN7android2spINS_5FenceEEE"
    },
    {
     "referenced_type" : "_ZTIRKN7android2spINS_5FenceEEE"
    }
   ],
   "return_type" : "_ZTIv",
   "source_file" : "system/core/libutils/include/utils/StrongPointer.h"
  },
  {
   "function_name" : "android::sp<android::Fence>::~sp",
   "linker_set_key" : "_ZN7android2spINS_5FenceEED1Ev",
   "parameters" :
   [
    {
     "is_this_ptr" : true,
     "referenced_type" : "_ZTIPN7android2spINS_5FenceEEE"
    }
   ],
   "return_type" : "_ZTIv",
   "source_file" : "system/core/libutils/include/utils/StrongPointer.h"
  },
  {
   "function_name" : "android::sp<android::Fence>::~sp",
   "linker_set_key" : "_ZN7android2spINS_5FenceEED2Ev",
   "parameters" :
   [
    {
     "is_this_ptr" : true,
     "referenced_type" : "_ZTIPN7android2spINS_5FenceEEE"
    }
   ],
   "return_type" : "_ZTIv",
   "source_file" : "system/core/libutils/include/utils/StrongPointer.h"
  },
  {
   "function_name" : "android::sp<android::Fence>::operator=",
   "linker_set_key" : "_ZN7android2spINS_5FenceEEaSEOS2_",
   "parameters" :
   [
    {
     "is_this_ptr" : true,
     "referenced_type" : "_ZTIPN7android2spINS_5FenceEEE"
    },
    {
     "referenced_type" : "_ZTION7android2spINS_5FenceEEE"
    }
   ],
   "return_type" : "_ZTIRN7android2spINS_5FenceEEE",
   "source_file" : "system/core/libutils/include/utils/StrongPointer.h"
  },
  {
   "function_name" : "android::base::borrowed_fd::borrowed_fd",
   "linker_set_key" : "_ZN7android4base11borrowed_fdC1Ei",
   "parameters" :
   [
    {
     "is_this_ptr" : true,
     "referenced_type" : "_ZTIPN7android4base11borrowed_fdE"
    },
    {
     "referenced_type" : "_ZTIi"
    }
   ],
   "return_type" : "_ZTIv",
   "source_file" : "system/libbase/include/android-base/unique_fd.h"
  },
  {
   "function_name" : "android::base::borrowed_fd::borrowed_fd",
   "linker_set_key" : "_ZN7android4base11borrowed_fdC2Ei",
   "parameters" :
   [
    {
     "is_this_ptr" : true,
     "referenced_type" : "_ZTIPN7android4base11borrowed_fdE"
    },
    {
     "referenced_type" : "_ZTIi"
    }
   ],
   "return_type" : "_ZTIv",
   "source_file" : "system/libbase/include/android-base/unique_fd.h"
  },
  {
   "function_name" : "android::base::DefaultCloser::Tag",
   "linker_set_key" : "_ZN7android4base13DefaultCloser3TagEiPvS2_",
   "parameters" :
   [
    {
     "referenced_type" : "_ZTIi"
    },
    {
     "referenced_type" : "_ZTIPv"
    },
    {
     "referenced_type" : "_ZTIPv"
    }
   ],
   "return_type" : "_ZTIv",
   "source_file" : "system/libbase/include/android-base/unique_fd.h"
  },
  {
   "function_name" : "android::base::DefaultCloser::Close",
   "linker_set_key" : "_ZN7android4base13DefaultCloser5CloseEiPv",
   "parameters" :
   [
    {
     "referenced_type" : "_ZTIi"
    },
    {
     "referenced_type" : "_ZTIPv"
    }
   ],
   "return_type" : "_ZTIv",
   "source_file" : "system/libbase/include/android-base/unique_fd.h"
  },
  {
   "access" : "private",
   "function_name" : "android::base::unique_fd_impl<android::base::DefaultCloser>::tag",
   "linker_set_key" : "_ZN7android4base14unique_fd_implINS0_13DefaultCloserEE3tagIS2_EEDTcmclsrT_3Tagfp_fp0_fp1_Ecvv_EEiPvS7_",
   "parameters" :
   [
    {
     "referenced_type" : "_ZTIi"
    },
    {
     "referenced_type" : "_ZTIPv"
    },
    {
     "referenced_type" : "_ZTIPv"
    }
   ],
   "return_type" : "_ZTIv",
   "source_file" : "system/libbase/include/android-base/unique_fd.h",
   "template_args" : [ "_ZTIN7android4base13DefaultCloserE" ]
  },
  {
   "access" : "private",
   "function_name" : "android::base::unique_fd_impl<android::base::DefaultCloser>::close",
   "linker_set_key" : "_ZN7android4base14unique_fd_implINS0_13DefaultCloserEE5closeIS2_EEDTcmclsrT_5Closefp_fp0_Ecvv_EEiPv",
   "parameters" :
   [
    {
     "referenced_type" : "_ZTIi"
    },
    {
     "referenced_type" : "_ZTIPv"
    }
   ],
   "return_type" : "_ZTIv",
   "source_file" : "system/libbase/include/android-base/unique_fd.h",
   "template_args" : [ "_ZTIN7android4base13DefaultCloserE" ]
  },
  {
   "function_name" : "android::base::unique_fd_impl<android::base::DefaultCloser>::reset",
   "linker_set_key" : "_ZN7android4base14unique_fd_implINS0_13DefaultCloserEE5resetEi",
   "parameters" :
   [
    {
     "is_this_ptr" : true,
     "referenced_type" : "_ZTIPN7android4base14unique_fd_implINS0_13DefaultCloserEEE"
    },
    {
     "default_arg" : true,
     "referenced_type" : "_ZTIi"
    }
   ],
   "return_type" : "_ZTIv",
   "source_file" : "system/libbase/include/android-base/unique_fd.h"
  },
  {
   "access" : "private",
   "function_name" : "android::base::unique_fd_impl<android::base::DefaultCloser>::reset",
   "linker_set_key" : "_ZN7android4base14unique_fd_implINS0_13DefaultCloserEE5resetEiPv",
   "parameters" :
   [
    {
     "is_this_ptr" : true,
     "referenced_type" : "_ZTIPN7android4base14unique_fd_implINS0_13DefaultCloserEEE"
    },
    {
     "referenced_type" : "_ZTIi"
    },
    {
     "referenced_type" : "_ZTIPv"
    }
   ],
   "return_type" : "_ZTIv",
   "source_file" : "system/libbase/include/android-base/unique_fd.h"
  },
  {
   "function_name" : "android::base::unique_fd_impl<android::base::DefaultCloser>::release",
   "linker_set_key" : "_ZN7android4base14unique_fd_implINS0_13DefaultCloserEE7releaseEv",
   "parameters" :
   [
    {
     "is_this_ptr" : true,
     "referenced_type" : "_ZTIPN7android4base14unique_fd_implINS0_13DefaultCloserEEE"
    }
   ],
   "return_type" : "_ZTIi",
   "source_file" : "system/libbase/include/android-base/unique_fd.h"
  },
  {
   "function_name" : "android::base::unique_fd_impl<android::base::DefaultCloser>::~unique_fd_impl",
   "linker_set_key" : "_ZN7android4base14unique_fd_implINS0_13DefaultCloserEED1Ev",
   "parameters" :
   [
    {
     "is_this_ptr" : true,
     "referenced_type" : "_ZTIPN7android4base14unique_fd_implINS0_13DefaultCloserEEE"
    }
   ],
   "return_type" : "_ZTIv",
   "source_file" : "system/libbase/include/android-base/unique_fd.h"
  },
  {
   "function_name" : "android::base::unique_fd_impl<android::base::DefaultCloser>::~unique_fd_impl",
   "linker_set_key" : "_ZN7android4base14unique_fd_implINS0_13DefaultCloserEED2Ev",
   "parameters" :
   [
    {
     "is_this_ptr" : true,
     "referenced_type" : "_ZTIPN7android4base14unique_fd_implINS0_13DefaultCloserEEE"
    }
   ],
   "return_type" : "_ZTIv",
   "source_file" : "system/libbase/include/android-base/unique_fd.h"
  },
  {
   "function_name" : "android::base::Fdopen",
   "linker_set_key" : "_ZN7android4base6FdopenEONS0_14unique_fd_implINS0_13DefaultCloserEEEPKc",
   "parameters" :
   [
    {
     "referenced_type" : "_ZTION7android4base14unique_fd_implINS0_13DefaultCloserEEE"
    },
    {
     "referenced_type" : "_ZTIPKc"
    }
   ],
   "return_type" : "_ZTIP7__sFILE",
   "source_file" : "system/libbase/include/android-base/unique_fd.h"
  },
  {
   "function_name" : "android::base::Fdopendir",
   "linker_set_key" : "_ZN7android4base9FdopendirEONS0_14unique_fd_implINS0_13DefaultCloserEEE",
   "parameters" :
   [
    {
     "referenced_type" : "_ZTION7android4base14unique_fd_implINS0_13DefaultCloserEEE"
    }
   ],
   "return_type" : "_ZTIP3DIR",
   "source_file" : "system/libbase/include/android-base/unique_fd.h"
  },
  {
   "function_name" : "android::Fence::isValidTimestamp",
   "linker_set_key" : "_ZN7android5Fence16isValidTimestampEx",
   "parameters" :
   [
    {
     "referenced_type" : "_ZTIx"
    }
   ],
   "return_type" : "_ZTIb",
   "source_file" : "frameworks/native/libs/ui/include/ui/Fence.h"
  },
  {
   "function_name" : "android::Fence::getStatus",
   "linker_set_key" : "_ZN7android5Fence9getStatusEv",
   "parameters" :
   [
    {
     "is_this_ptr" : true,
     "referenced_type" : "_ZTIPN7android5FenceE"
    }
   ],
   "return_type" : "_ZTIN7android5Fence6StatusE",
   "source_file" : "frameworks/native/libs/ui/include/ui/Fence.h"
  },
  {
   "function_name" : "android::Fence::Fence",
   "linker_set_key" : "_ZN7android5FenceC1Ev",
   "parameters" :
   [
    {
     "is_this_ptr" : true,
     "referenced_type" : "_ZTIPN7android5FenceE"
    }
   ],
   "return_type" : "_ZTIv",
   "source_file" : "frameworks/native/libs/ui/include/ui/Fence.h"
  },
  {
   "function_name" : "android::Fence::Fence",
   "linker_set_key" : "_ZN7android5FenceC2Ev",
   "parameters" :
   [
    {
     "is_this_ptr" : true,
     "referenced_type" : "_ZTIPN7android5FenceE"
    }
   ],
   "return_type" : "_ZTIv",
   "source_file" : "frameworks/native/libs/ui/include/ui/Fence.h"
  },
  {
   "access" : "private",
   "function_name" : "android::Fence::~Fence",
   "linker_set_key" : "_ZN7android5FenceD1Ev",
   "parameters" :
   [
    {
     "is_this_ptr" : true,
     "referenced_type" : "_ZTIPN7android5FenceE"
    }
   ],
   "return_type" : "_ZTIv",
   "source_file" : "frameworks/native/libs/ui/include/ui/Fence.h"
  },
  {
   "access" : "private",
   "function_name" : "android::Fence::~Fence",
   "linker_set_key" : "_ZN7android5FenceD2Ev",
   "parameters" :
   [
    {
     "is_this_ptr" : true,
     "referenced_type" : "_ZTIPN7android5FenceE"
    }
   ],
   "return_type" : "_ZTIv",
   "source_file" : "frameworks/native/libs/ui/include/ui/Fence.h"
  },
  {
   "function_name" : "android::Mutex::lock",
   "linker_set_key" : "_ZN7android5Mutex4lockEv",
   "parameters" :
   [
    {
     "is_this_ptr" : true,
     "referenced_type" : "_ZTIPN7android5MutexE"
    }
   ],
   "return_type" : "_ZTIi",
   "source_file" : "system/core/libutils/include/utils/Mutex.h"
  },
  {
   "function_name" : "android::Mutex::unlock",
   "linker_set_key" : "_ZN7android5Mutex6unlockEv",
   "parameters" :
   [
    {
     "is_this_ptr" : true,
     "referenced_type" : "_ZTIPN7android5MutexE"
    }
   ],
   "return_type" : "_ZTIv",
   "source_file" : "system/core/libutils/include/utils/Mutex.h"
  },
  {
   "function_name" : "android::Mutex::tryLock",
   "linker_set_key" : "_ZN7android5Mutex7tryLockEv",
   "parameters" :
   [
    {
     "is_this_ptr" : true,
     "referenced_type" : "_ZTIPN7android5MutexE"
    }
   ],
   "return_type" : "_ZTIi",
   "source_file" : "system/core/libutils/include/utils/Mutex.h"
  },
  {
   "function_name" : "android::Mutex::Autolock::Autolock",
   "linker_set_key" : "_ZN7android5Mutex8AutolockC1EPS0_",
   "parameters" :
   [
    {
     "is_this_ptr" : true,
     "referenced_type" : "_ZTIPN7android5Mutex8AutolockE"
    },
    {
     "referenced_type" : "_ZTIPN7android5MutexE"
    }
   ],
   "return_type" : "_ZTIv",
   "source_file" : "system/core/libutils/include/utils/Mutex.h"
  },
  {
   "function_name" : "android::Mutex::Autolock::Autolock",
   "linker_set_key" : "_ZN7android5Mutex8AutolockC1ERS0_",
   "parameters" :
   [
    {
     "is_this_ptr" : true,
     "referenced_type" : "_ZTIPN7android5Mutex8AutolockE"
    },
    {
     "referenced_type" : "_ZTIRN7android5MutexE"
    }
   ],
   "return_type" : "_ZTIv",
   "source_file" : "system/core/libutils/include/utils/Mutex.h"
  },
  {
   "function_name" : "android::Mutex::Autolock::Autolock",
   "linker_set_key" : "_ZN7android5Mutex8AutolockC2EPS0_",
   "parameters" :
   [
    {
     "is_this_ptr" : true,
     "referenced_type" : "_ZTIPN7android5Mutex8AutolockE"
    },
    {
     "referenced_type" : "_ZTIPN7android5MutexE"
    }
   ],
   "return_type" : "_ZTIv",
   "source_file" : "system/core/libutils/include/utils/Mutex.h"
  },
  {
   "function_name" : "android::Mutex::Autolock::Autolock",
   "linker_set_key" : "_ZN7android5Mutex8AutolockC2ERS0_",
   "parameters" :
   [
    {
     "is_this_ptr" : true,
     "referenced_type" : "_ZTIPN7android5Mutex8AutolockE"
    },
    {
     "referenced_type" : "_ZTIRN7android5MutexE"
    }
   ],
   "return_type" : "_ZTIv",
   "source_file" : "system/core/libutils/include/utils/Mutex.h"
  },
  {
   "function_name" : "android::Mutex::Autolock::~Autolock",
   "linker_set_key" : "_ZN7android5Mutex8AutolockD1Ev",
   "parameters" :
   [
    {
     "is_this_ptr" : true,
     "referenced_type" : "_ZTIPN7android5Mutex8AutolockE"
    }
   ],
   "return_type" : "_ZTIv",
   "source_file" : "system/core/libutils/include/utils/Mutex.h"
  },
  {
   "function_name" : "android::Mutex::Autolock::~Autolock",
   "linker_set_key" : "_ZN7android5Mutex8AutolockD2Ev",
   "parameters" :
   [
    {
     "is_this_ptr" : true,
     "referenced_type" : "_ZTIPN7android5Mutex8AutolockE"
    }
   ],
   "return_type" : "_ZTIv",
   "source_file" : "system/core/libutils/include/utils/Mutex.h"
  },
  {
   "function_name" : "android::Mutex::timedLock",
   "linker_set_key" : "_ZN7android5Mutex9timedLockEx",
   "parameters" :
   [
    {
     "is_this_ptr" : true,
     "referenced_type" : "_ZTIPN7android5MutexE"
    },
    {
     "referenced_type" : "_ZTIx"
    }
   ],
   "return_type" : "_ZTIi",
   "source_file" : "system/core/libutils/include/utils/Mutex.h"
  },
  {
   "function_name" : "android::Mutex::Mutex",
   "linker_set_key" : "_ZN7android5MutexC1EPKc",
   "parameters" :
   [
    {
     "is_this_ptr" : true,
     "referenced_type" : "_ZTIPN7android5MutexE"
    },
    {
     "referenced_type" : "_ZTIPKc"
    }
   ],
   "return_type" : "_ZTIv",
   "source_file" : "system/core/libutils/include/utils/Mutex.h"
  },
  {
   "function_name" : "android::Mutex::Mutex",
   "linker_set_key" : "_ZN7android5MutexC1EiPKc",
   "parameters" :
   [
    {
     "is_this_ptr" : true,
     "referenced_type" : "_ZTIPN7android5MutexE"
    },
    {
     "referenced_type" : "_ZTIi"
    },
    {
     "default_arg" : true,
     "referenced_type" : "_ZTIPKc"
    }
   ],
   "return_type" : "_ZTIv",
   "source_file" : "system/core/libutils/include/utils/Mutex.h"
  },
  {
   "function_name" : "android::Mutex::Mutex",
   "linker_set_key" : "_ZN7android5MutexC1Ev",
   "parameters" :
   [
    {
     "is_this_ptr" : true,
     "referenced_type" : "_ZTIPN7android5MutexE"
    }
   ],
   "return_type" : "_ZTIv",
   "source_file" : "system/core/libutils/include/utils/Mutex.h"
  },
  {
   "function_name" : "android::Mutex::Mutex",
   "linker_set_key" : "_ZN7android5MutexC2EPKc",
   "parameters" :
   [
    {
     "is_this_ptr" : true,
     "referenced_type" : "_ZTIPN7android5MutexE"
    },
    {
     "referenced_type" : "_ZTIPKc"
    }
   ],
   "return_type" : "_ZTIv",
   "source_file" : "system/core/libutils/include/utils/Mutex.h"
  },
  {
   "function_name" : "android::Mutex::Mutex",
   "linker_set_key" : "_ZN7android5MutexC2EiPKc",
   "parameters" :
   [
    {
     "is_this_ptr" : true,
     "referenced_type" : "_ZTIPN7android5MutexE"
    },
    {
     "referenced_type" : "_ZTIi"
    },
    {
     "default_arg" : true,
     "referenced_type" : "_ZTIPKc"
    }
   ],
   "return_type" : "_ZTIv",
   "source_file" : "system/core/libutils/include/utils/Mutex.h"
  },
  {
   "function_name" : "android::Mutex::Mutex",
   "linker_set_key" : "_ZN7android5MutexC2Ev",
   "parameters" :
   [
    {
     "is_this_ptr" : true,
     "referenced_type" : "_ZTIPN7android5MutexE"
    }
   ],
   "return_type" : "_ZTIv",
   "source_file" : "system/core/libutils/include/utils/Mutex.h"
  },
  {
   "function_name" : "android::Mutex::~Mutex",
   "linker_set_key" : "_ZN7android5MutexD1Ev",
   "parameters" :
   [
    {
     "is_this_ptr" : true,
     "referenced_type" : "_ZTIPN7android5MutexE"
    }
   ],
   "return_type" : "_ZTIv",
   "source_file" : "system/core/libutils/include/utils/Mutex.h"
  },
  {
   "function_name" : "android::Mutex::~Mutex",
   "linker_set_key" : "_ZN7android5MutexD2Ev",
   "parameters" :
   [
    {
     "is_this_ptr" : true,
     "referenced_type" : "_ZTIPN7android5MutexE"
    }
   ],
   "return_type" : "_ZTIv",
   "source_file" : "system/core/libutils/include/utils/Mutex.h"
  },
  {
   "function_name" : "android::RefBase::trackMe",
   "linker_set_key" : "_ZN7android7RefBase7trackMeEbb",
   "parameters" :
   [
    {
     "is_this_ptr" : true,
     "referenced_type" : "_ZTIPN7android7RefBaseE"
    },
    {
     "referenced_type" : "_ZTIb"
    },
    {
     "referenced_type" : "_ZTIb"
    }
   ],
   "return_type" : "_ZTIv",
   "source_file" : "system/core/libutils/include/utils/RefBase.h"
  },
  {
   "function_name" : "android::FenceTime::Snapshot::Snapshot",
   "linker_set_key" : "_ZN7android9FenceTime8SnapshotC1EOS1_",
   "parameters" :
   [
    {
     "is_this_ptr" : true,
     "referenced_type" : "_ZTIPN7android9FenceTime8SnapshotE"
    },
    {
     "referenced_type" : "_ZTION7android9FenceTime8SnapshotE"
    }
   ],
   "return_type" : "_ZTIv",
   "source_file" : "frameworks/native/libs/ui/include/ui/FenceTime.h"
  },
  {
   "function_name" : "android::FenceTime::Snapshot::Snapshot",
   "linker_set_key" : "_ZN7android9FenceTime8SnapshotC1Ev",
   "parameters" :
   [
    {
     "is_this_ptr" : true,
     "referenced_type" : "_ZTIPN7android9FenceTime8SnapshotE"
    }
   ],
   "return_type" : "_ZTIv",
   "source_file" : "frameworks/native/libs/ui/include/ui/FenceTime.h"
  },
  {
   "function_name" : "android::FenceTime::Snapshot::Snapshot",
   "linker_set_key" : "_ZN7android9FenceTime8SnapshotC2EOS1_",
   "parameters" :
   [
    {
     "is_this_ptr" : true,
     "referenced_type" : "_ZTIPN7android9FenceTime8SnapshotE"
    },
    {
     "referenced_type" : "_ZTION7android9FenceTime8SnapshotE"
    }
   ],
   "return_type" : "_ZTIv",
   "source_file" : "frameworks/native/libs/ui/include/ui/FenceTime.h"
  },
  {
   "function_name" : "android::FenceTime::Snapshot::Snapshot",
   "linker_set_key" : "_ZN7android9FenceTime8SnapshotC2Ev",
   "parameters" :
   [
    {
     "is_this_ptr" : true,
     "referenced_type" : "_ZTIPN7android9FenceTime8SnapshotE"
    }
   ],
   "return_type" : "_ZTIv",
   "source_file" : "frameworks/native/libs/ui/include/ui/FenceTime.h"
  },
  {
   "function_name" : "android::FenceTime::Snapshot::operator=",
   "linker_set_key" : "_ZN7android9FenceTime8SnapshotaSEOS1_",
   "parameters" :
   [
    {
     "is_this_ptr" : true,
     "referenced_type" : "_ZTIPN7android9FenceTime8SnapshotE"
    },
    {
     "referenced_type" : "_ZTION7android9FenceTime8SnapshotE"
    }
   ],
   "return_type" : "_ZTIRN7android9FenceTime8SnapshotE",
   "source_file" : "frameworks/native/libs/ui/include/ui/FenceTime.h"
  },
  {
   "function_name" : "android::hash_type",
   "linker_set_key" : "_ZN7android9hash_typeIaEEjRKT_",
   "parameters" :
   [
    {
     "referenced_type" : "_ZTIRKa"
    }
   ],
   "return_type" : "_ZTIj",
   "source_file" : "system/core/libutils/include/utils/TypeHelpers.h",
   "template_args" : [ "_ZTIa" ]
  },
  {
   "function_name" : "android::hash_type",
   "linker_set_key" : "_ZN7android9hash_typeIbEEjRKT_",
   "parameters" :
   [
    {
     "referenced_type" : "_ZTIRKb"
    }
   ],
   "return_type" : "_ZTIj",
   "source_file" : "system/core/libutils/include/utils/TypeHelpers.h",
   "template_args" : [ "_ZTIb" ]
  },
  {
   "function_name" : "android::hash_type",
   "linker_set_key" : "_ZN7android9hash_typeIdEEjRKT_",
   "parameters" :
   [
    {
     "referenced_type" : "_ZTIRKd"
    }
   ],
   "return_type" : "_ZTIj",
   "source_file" : "system/core/libutils/include/utils/TypeHelpers.h",
   "template_args" : [ "_ZTId" ]
  },
  {
   "function_name" : "android::hash_type",
   "linker_set_key" : "_ZN7android9hash_typeIfEEjRKT_",
   "parameters" :
   [
    {
     "referenced_type" : "_ZTIRKf"
    }
   ],
   "return_type" : "_ZTIj",
   "source_file" : "system/core/libutils/include/utils/TypeHelpers.h",
   "template_args" : [ "_ZTIf" ]
  },
  {
   "function_name" : "android::hash_type",
   "linker_set_key" : "_ZN7android9hash_typeIhEEjRKT_",
   "parameters" :
   [
    {
     "referenced_type" : "_ZTIRKh"
    }
   ],
   "return_type" : "_ZTIj",
   "source_file" : "system/core/libutils/include/utils/TypeHelpers.h",
   "template_args" : [ "_ZTIh" ]
  },
  {
   "function_name" : "android::hash_type",
   "linker_set_key" : "_ZN7android9hash_typeIiEEjRKT_",
   "parameters" :
   [
    {
     "referenced_type" : "_ZTIRKi"
    }
   ],
   "return_type" : "_ZTIj",
   "source_file" : "system/core/libutils/include/utils/TypeHelpers.h",
   "template_args" : [ "_ZTIi" ]
  },
  {
   "function_name" : "android::hash_type",
   "linker_set_key" : "_ZN7android9hash_typeIjEEjRKT_",
   "parameters" :
   [
    {
     "referenced_type" : "_ZTIRKj"
    }
   ],
   "return_type" : "_ZTIj",
   "source_file" : "system/core/libutils/include/utils/TypeHelpers.h",
   "template_args" : [ "_ZTIj" ]
  },
  {
   "function_name" : "android::hash_type",
   "linker_set_key" : "_ZN7android9hash_typeIsEEjRKT_",
   "parameters" :
   [
    {
     "referenced_type" : "_ZTIRKs"
    }
   ],
   "return_type" : "_ZTIj",
   "source_file" : "system/core/libutils/include/utils/TypeHelpers.h",
   "template_args" : [ "_ZTIs" ]
  },
  {
   "function_name" : "android::hash_type",
   "linker_set_key" : "_ZN7android9hash_typeItEEjRKT_",
   "parameters" :
   [
    {
     "referenced_type" : "_ZTIRKt"
    }
   ],
   "return_type" : "_ZTIj",
   "source_file" : "system/core/libutils/include/utils/TypeHelpers.h",
   "template_args" : [ "_ZTIt" ]
  },
  {
   "function_name" : "android::hash_type",
   "linker_set_key" : "_ZN7android9hash_typeIxEEjRKT_",
   "parameters" :
   [
    {
     "referenced_type" : "_ZTIRKx"
    }
   ],
   "return_type" : "_ZTIj",
   "source_file" : "system/core/libutils/include/utils/TypeHelpers.h",
   "template_args" : [ "_ZTIx" ]
  },
  {
   "function_name" : "android::hash_type",
   "linker_set_key" : "_ZN7android9hash_typeIyEEjRKT_",
   "parameters" :
   [
    {
     "referenced_type" : "_ZTIRKy"
    }
   ],
   "return_type" : "_ZTIj",
   "source_file" : "system/core/libutils/include/utils/TypeHelpers.h",
   "template_args" : [ "_ZTIy" ]
  },
  {
   "function_name" : "log_msg::id",
   "linker_set_key" : "_ZN7log_msg2idEv",
   "parameters" :
   [
    {
     "is_this_ptr" : true,
     "referenced_type" : "_ZTIP7log_msg"
    }
   ],
   "return_type" : "_ZTI6log_id",
   "source_file" : "system/logging/liblog/include_vndk/log/log_read.h"
  },
  {
   "function_name" : "log_msg::len",
   "linker_set_key" : "_ZN7log_msg3lenEv",
   "parameters" :
   [
    {
     "is_this_ptr" : true,
     "referenced_type" : "_ZTIP7log_msg"
    }
   ],
   "return_type" : "_ZTIj",
   "source_file" : "system/logging/liblog/include_vndk/log/log_read.h"
  },
  {
   "function_name" : "log_msg::msg",
   "linker_set_key" : "_ZN7log_msg3msgEv",
   "parameters" :
   [
    {
     "is_this_ptr" : true,
     "referenced_type" : "_ZTIP7log_msg"
    }
   ],
   "return_type" : "_ZTIPc",
   "source_file" : "system/logging/liblog/include_vndk/log/log_read.h"
  },
  {
   "function_name" : "android::FrameEvents::hasLatchInfo",
   "linker_set_key" : "_ZNK7android11FrameEvents12hasLatchInfoEv",
   "parameters" :
   [
    {
     "is_this_ptr" : true,
     "referenced_type" : "_ZTIPKN7android11FrameEventsE"
    }
   ],
   "return_type" : "_ZTIb",
   "source_file" : "frameworks/native/libs/gui/include/gui/FrameTimestamps.h"
  },
  {
   "function_name" : "android::FrameEvents::hasPostedInfo",
   "linker_set_key" : "_ZNK7android11FrameEvents13hasPostedInfoEv",
   "parameters" :
   [
    {
     "is_this_ptr" : true,
     "referenced_type" : "_ZTIPKN7android11FrameEventsE"
    }
   ],
   "return_type" : "_ZTIb",
   "source_file" : "frameworks/native/libs/gui/include/gui/FrameTimestamps.h"
  },
  {
   "function_name" : "android::FrameEvents::hasAcquireInfo",
   "linker_set_key" : "_ZNK7android11FrameEvents14hasAcquireInfoEv",
   "parameters" :
   [
    {
     "is_this_ptr" : true,
     "referenced_type" : "_ZTIPKN7android11FrameEventsE"
    }
   ],
   "return_type" : "_ZTIb",
   "source_file" : "frameworks/native/libs/gui/include/gui/FrameTimestamps.h"
  },
  {
   "function_name" : "android::FrameEvents::hasReleaseInfo",
   "linker_set_key" : "_ZNK7android11FrameEvents14hasReleaseInfoEv",
   "parameters" :
   [
    {
     "is_this_ptr" : true,
     "referenced_type" : "_ZTIPKN7android11FrameEventsE"
    }
   ],
   "return_type" : "_ZTIb",
   "source_file" : "frameworks/native/libs/gui/include/gui/FrameTimestamps.h"
  },
  {
   "function_name" : "android::FrameEvents::hasDequeueReadyInfo",
   "linker_set_key" : "_ZNK7android11FrameEvents19hasDequeueReadyInfoEv",
   "parameters" :
   [
    {
     "is_this_ptr" : true,
     "referenced_type" : "_ZTIPKN7android11FrameEventsE"
    }
   ],
   "return_type" : "_ZTIb",
   "source_file" : "frameworks/native/libs/gui/include/gui/FrameTimestamps.h"
  },
  {
   "function_name" : "android::FrameEvents::hasDisplayPresentInfo",
   "linker_set_key" : "_ZNK7android11FrameEvents21hasDisplayPresentInfoEv",
   "parameters" :
   [
    {
     "is_this_ptr" : true,
     "referenced_type" : "_ZTIPKN7android11FrameEventsE"
    }
   ],
   "return_type" : "_ZTIb",
   "source_file" : "frameworks/native/libs/gui/include/gui/FrameTimestamps.h"
  },
  {
   "function_name" : "android::FrameEvents::hasLastRefreshStartInfo",
   "linker_set_key" : "_ZNK7android11FrameEvents23hasLastRefreshStartInfoEv",
   "parameters" :
   [
    {
     "is_this_ptr" : true,
     "referenced_type" : "_ZTIPKN7android11FrameEventsE"
    }
   ],
   "return_type" : "_ZTIb",
   "source_file" : "frameworks/native/libs/gui/include/gui/FrameTimestamps.h"
  },
  {
   "function_name" : "android::FrameEvents::hasRequestedPresentInfo",
   "linker_set_key" : "_ZNK7android11FrameEvents23hasRequestedPresentInfoEv",
   "parameters" :
   [
    {
     "is_this_ptr" : true,
     "referenced_type" : "_ZTIPKN7android11FrameEventsE"
    }
   ],
   "return_type" : "_ZTIb",
   "source_file" : "frameworks/native/libs/gui/include/gui/FrameTimestamps.h"
  },
  {
   "function_name" : "android::FrameEvents::hasFirstRefreshStartInfo",
   "linker_set_key" : "_ZNK7android11FrameEvents24hasFirstRefreshStartInfoEv",
   "parameters" :
   [
    {
     "is_this_ptr" : true,
     "referenced_type" : "_ZTIPKN7android11FrameEventsE"
    }
   ],
   "return_type" : "_ZTIb",
   "source_file" : "frameworks/native/libs/gui/include/gui/FrameTimestamps.h"
  },
  {
   "function_name" : "android::FrameEvents::hasGpuCompositionDoneInfo",
   "linker_set_key" : "_ZNK7android11FrameEvents25hasGpuCompositionDoneInfoEv",
   "parameters" :
   [
    {
     "is_this_ptr" : true,
     "referenced_type" : "_ZTIPKN7android11FrameEventsE"
    }
   ],
   "return_type" : "_ZTIb",
   "source_file" : "frameworks/native/libs/gui/include/gui/FrameTimestamps.h"
  },
  {
   "function_name" : "android::FrameEvents::dump",
   "linker_set_key" : "_ZNK7android11FrameEvents4dumpERNSt3__112basic_stringIcNS1_11char_traitsIcEENS1_9allocatorIcEEEE",
   "parameters" :
   [
    {
     "is_this_ptr" : true,
     "referenced_type" : "_ZTIPKN7android11FrameEventsE"
    },
    {
     "referenced_type" : "_ZTIRNSt3__112basic_stringIcNS_11char_traitsIcEENS_9allocatorIcEEEE"
    }
   ],
   "return_type" : "_ZTIv",
   "source_file" : "frameworks/native/libs/gui/include/gui/FrameTimestamps.h"
  },
  {
   "function_name" : "android::LightRefBase<android::Fence>::decStrong",
   "linker_set_key" : "_ZNK7android12LightRefBaseINS_5FenceEE9decStrongEPKv",
   "parameters" :
   [
    {
     "is_this_ptr" : true,
     "referenced_type" : "_ZTIPKN7android12LightRefBaseINS_5FenceEEE"
    },
    {
     "referenced_type" : "_ZTIPKv"
    }
   ],
   "return_type" : "_ZTIv",
   "source_file" : "system/core/libutils/include/utils/LightRefBase.h"
  },
  {
   "function_name" : "android::LightRefBase<android::Fence>::incStrong",
   "linker_set_key" : "_ZNK7android12LightRefBaseINS_5FenceEE9incStrongEPKv",
   "parameters" :
   [
    {
     "is_this_ptr" : true,
     "referenced_type" : "_ZTIPKN7android12LightRefBaseINS_5FenceEEE"
    },
    {
     "referenced_type" : "_ZTIPKv"
    }
   ],
   "return_type" : "_ZTIv",
   "source_file" : "system/core/libutils/include/utils/LightRefBase.h"
  },
  {
   "function_name" : "android::FrameEventsDelta::getFdCount",
   "linker_set_key" : "_ZNK7android16FrameEventsDelta10getFdCountEv",
   "parameters" :
   [
    {
     "is_this_ptr" : true,
     "referenced_type" : "_ZTIPKN7android16FrameEventsDeltaE"
    }
   ],
   "return_type" : "_ZTIj",
   "source_file" : "frameworks/native/libs/gui/include/gui/FrameTimestamps.h"
  },
  {
   "function_name" : "android::FrameEventsDelta::getFlattenedSize",
   "linker_set_key" : "_ZNK7android16FrameEventsDelta16getFlattenedSizeEv",
   "parameters" :
   [
    {
     "is_this_ptr" : true,
     "referenced_type" : "_ZTIPKN7android16FrameEventsDeltaE"
    }
   ],
   "return_type" : "_ZTIj",
   "source_file" : "frameworks/native/libs/gui/include/gui/FrameTimestamps.h"
  },
  {
   "function_name" : "android::FrameEventsDelta::flatten",
   "linker_set_key" : "_ZNK7android16FrameEventsDelta7flattenERPvRjRPiS3_",
   "parameters" :
   [
    {
     "is_this_ptr" : true,
     "referenced_type" : "_ZTIPKN7android16FrameEventsDeltaE"
    },
    {
     "referenced_type" : "_ZTIRPv"
    },
    {
     "referenced_type" : "_ZTIRj"
    },
    {
     "referenced_type" : "_ZTIRPi"
    },
    {
     "referenced_type" : "_ZTIRj"
    }
   ],
   "return_type" : "_ZTIi",
   "source_file" : "frameworks/native/libs/gui/include/gui/FrameTimestamps.h"
  },
  {
   "function_name" : "android::FrameEventHistory::dump",
   "linker_set_key" : "_ZNK7android17FrameEventHistory4dumpERNSt3__112basic_stringIcNS1_11char_traitsIcEENS1_9allocatorIcEEEE",
   "parameters" :
   [
    {
     "is_this_ptr" : true,
     "referenced_type" : "_ZTIPKN7android17FrameEventHistoryE"
    },
    {
     "referenced_type" : "_ZTIRNSt3__112basic_stringIcNS_11char_traitsIcEENS_9allocatorIcEEEE"
    }
   ],
   "return_type" : "_ZTIv",
   "source_file" : "frameworks/native/libs/gui/include/gui/FrameTimestamps.h"
  },
  {
   "function_name" : "android::FrameEventDirtyFields::isDirty",
   "linker_set_key" : "_ZNK7android21FrameEventDirtyFields7isDirtyILNS_10FrameEventE6EEEbv",
   "parameters" :
   [
    {
     "is_this_ptr" : true,
     "referenced_type" : "_ZTIPKN7android21FrameEventDirtyFieldsE"
    }
   ],
   "return_type" : "_ZTIb",
   "source_file" : "frameworks/native/libs/gui/include/gui/FrameTimestamps.h"
  },
  {
   "function_name" : "android::FrameEventDirtyFields::isDirty",
   "linker_set_key" : "_ZNK7android21FrameEventDirtyFields7isDirtyILNS_10FrameEventE7EEEbv",
   "parameters" :
   [
    {
     "is_this_ptr" : true,
     "referenced_type" : "_ZTIPKN7android21FrameEventDirtyFieldsE"
    }
   ],
   "return_type" : "_ZTIb",
   "source_file" : "frameworks/native/libs/gui/include/gui/FrameTimestamps.h"
  },
  {
   "function_name" : "android::FrameEventDirtyFields::isDirty",
   "linker_set_key" : "_ZNK7android21FrameEventDirtyFields7isDirtyILNS_10FrameEventE9EEEbv",
   "parameters" :
   [
    {
     "is_this_ptr" : true,
     "referenced_type" : "_ZTIPKN7android21FrameEventDirtyFieldsE"
    }
   ],
   "return_type" : "_ZTIb",
   "source_file" : "frameworks/native/libs/gui/include/gui/FrameTimestamps.h"
  },
  {
   "function_name" : "android::FrameEventDirtyFields::anyDirty",
   "linker_set_key" : "_ZNK7android21FrameEventDirtyFields8anyDirtyEv",
   "parameters" :
   [
    {
     "is_this_ptr" : true,
     "referenced_type" : "_ZTIPKN7android21FrameEventDirtyFieldsE"
    }
   ],
   "return_type" : "_ZTIb",
   "source_file" : "frameworks/native/libs/gui/include/gui/FrameTimestamps.h"
  },
  {
   "function_name" : "android::FrameEventHistoryDelta::getFdCount",
   "linker_set_key" : "_ZNK7android22FrameEventHistoryDelta10getFdCountEv",
   "parameters" :
   [
    {
     "is_this_ptr" : true,
     "referenced_type" : "_ZTIPKN7android22FrameEventHistoryDeltaE"
    }
   ],
   "return_type" : "_ZTIj",
   "source_file" : "frameworks/native/libs/gui/include/gui/FrameTimestamps.h"
  },
  {
   "function_name" : "android::FrameEventHistoryDelta::getFlattenedSize",
   "linker_set_key" : "_ZNK7android22FrameEventHistoryDelta16getFlattenedSizeEv",
   "parameters" :
   [
    {
     "is_this_ptr" : true,
     "referenced_type" : "_ZTIPKN7android22FrameEventHistoryDeltaE"
    }
   ],
   "return_type" : "_ZTIj",
   "source_file" : "frameworks/native/libs/gui/include/gui/FrameTimestamps.h"
  },
  {
   "function_name" : "android::FrameEventHistoryDelta::flatten",
   "linker_set_key" : "_ZNK7android22FrameEventHistoryDelta7flattenERPvRjRPiS3_",
   "parameters" :
   [
    {
     "is_this_ptr" : true,
     "referenced_type" : "_ZTIPKN7android22FrameEventHistoryDeltaE"
    },
    {
     "referenced_type" : "_ZTIRPv"
    },
    {
     "referenced_type" : "_ZTIRj"
    },
    {
     "referenced_type" : "_ZTIRPi"
    },
    {
     "referenced_type" : "_ZTIRj"
    }
   ],
   "return_type" : "_ZTIi",
   "source_file" : "frameworks/native/libs/gui/include/gui/FrameTimestamps.h"
  },
  {
   "access" : "protected",
   "function_name" : "android::ProducerFrameEventHistory::applyFenceDelta",
   "linker_set_key" : "_ZNK7android25ProducerFrameEventHistory15applyFenceDeltaEPNS_13FenceTimelineEPNSt3__110shared_ptrINS_9FenceTimeEEERKNS5_8SnapshotE",
   "parameters" :
   [
    {
     "is_this_ptr" : true,
     "referenced_type" : "_ZTIPKN7android25ProducerFrameEventHistoryE"
    },
    {
     "referenced_type" : "_ZTIPN7android13FenceTimelineE"
    },
    {
     "referenced_type" : "_ZTIPNSt3__110shared_ptrIN7android9FenceTimeEEE"
    },
    {
     "referenced_type" : "_ZTIRKN7android9FenceTime8SnapshotE"
    }
   ],
   "return_type" : "_ZTIv",
   "source_file" : "frameworks/native/libs/gui/include/gui/FrameTimestamps.h"
  },
  {
   "access" : "protected",
   "function_name" : "android::ProducerFrameEventHistory::createFenceTime",
   "linker_set_key" : "_ZNK7android25ProducerFrameEventHistory15createFenceTimeERKNS_2spINS_5FenceEEE",
   "parameters" :
   [
    {
     "is_this_ptr" : true,
     "referenced_type" : "_ZTIPKN7android25ProducerFrameEventHistoryE"
    },
    {
     "referenced_type" : "_ZTIRKN7android2spINS_5FenceEEE"
    }
   ],
   "return_type" : "_ZTINSt3__110shared_ptrIN7android9FenceTimeEEE",
   "source_file" : "frameworks/native/libs/gui/include/gui/FrameTimestamps.h"
  },
  {
   "function_name" : "android::ProducerFrameEventHistory::getCompositeInterval",
   "linker_set_key" : "_ZNK7android25ProducerFrameEventHistory20getCompositeIntervalEv",
   "parameters" :
   [
    {
     "is_this_ptr" : true,
     "referenced_type" : "_ZTIPKN7android25ProducerFrameEventHistoryE"
    }
   ],
   "return_type" : "_ZTIx",
   "source_file" : "frameworks/native/libs/gui/include/gui/FrameTimestamps.h"
  },
  {
   "function_name" : "android::ProducerFrameEventHistory::getNextCompositeDeadline",
   "linker_set_key" : "_ZNK7android25ProducerFrameEventHistory24getNextCompositeDeadlineEx",
   "parameters" :
   [
    {
     "is_this_ptr" : true,
     "referenced_type" : "_ZTIPKN7android25ProducerFrameEventHistoryE"
    },
    {
     "referenced_type" : "_ZTIKx"
    }
   ],
   "return_type" : "_ZTIx",
   "source_file" : "frameworks/native/libs/gui/include/gui/FrameTimestamps.h"
  },
  {
   "function_name" : "android::ProducerFrameEventHistory::getCompositeToPresentLatency",
   "linker_set_key" : "_ZNK7android25ProducerFrameEventHistory28getCompositeToPresentLatencyEv",
   "parameters" :
   [
    {
     "is_this_ptr" : true,
     "referenced_type" : "_ZTIPKN7android25ProducerFrameEventHistoryE"
    }
   ],
   "return_type" : "_ZTIx",
   "source_file" : "frameworks/native/libs/gui/include/gui/FrameTimestamps.h"
  },
  {
   "function_name" : "android::ProducerFrameEventHistory::getReportedCompositeDeadline",
   "linker_set_key" : "_ZNK7android25ProducerFrameEventHistory28getReportedCompositeDeadlineEv",
   "parameters" :
   [
    {
     "is_this_ptr" : true,
     "referenced_type" : "_ZTIPKN7android25ProducerFrameEventHistoryE"
    }
   ],
   "return_type" : "_ZTIx",
   "source_file" : "frameworks/native/libs/gui/include/gui/FrameTimestamps.h"
  },
  {
   "function_name" : "android::base::borrowed_fd::get",
   "linker_set_key" : "_ZNK7android4base11borrowed_fd3getEv",
   "parameters" :
   [
    {
     "is_this_ptr" : true,
     "referenced_type" : "_ZTIPKN7android4base11borrowed_fdE"
    }
   ],
   "return_type" : "_ZTIi",
   "source_file" : "system/libbase/include/android-base/unique_fd.h"
  },
  {
   "function_name" : "android::base::borrowed_fd::operator==",
   "linker_set_key" : "_ZNK7android4base11borrowed_fdeqEi",
   "parameters" :
   [
    {
     "is_this_ptr" : true,
     "referenced_type" : "_ZTIPKN7android4base11borrowed_fdE"
    },
    {
     "referenced_type" : "_ZTIi"
    }
   ],
   "return_type" : "_ZTIb",
   "source_file" : "system/libbase/include/android-base/unique_fd.h"
  },
  {
   "function_name" : "android::base::borrowed_fd::operator>=",
   "linker_set_key" : "_ZNK7android4base11borrowed_fdgeEi",
   "parameters" :
   [
    {
     "is_this_ptr" : true,
     "referenced_type" : "_ZTIPKN7android4base11borrowed_fdE"
    },
    {
     "referenced_type" : "_ZTIi"
    }
   ],
   "return_type" : "_ZTIb",
   "source_file" : "system/libbase/include/android-base/unique_fd.h"
  },
  {
   "function_name" : "android::base::borrowed_fd::operator<",
   "linker_set_key" : "_ZNK7android4base11borrowed_fdltEi",
   "parameters" :
   [
    {
     "is_this_ptr" : true,
     "referenced_type" : "_ZTIPKN7android4base11borrowed_fdE"
    },
    {
     "referenced_type" : "_ZTIi"
    }
   ],
   "return_type" : "_ZTIb",
   "source_file" : "system/libbase/include/android-base/unique_fd.h"
  },
  {
   "function_name" : "android::base::borrowed_fd::operator!=",
   "linker_set_key" : "_ZNK7android4base11borrowed_fdneEi",
   "parameters" :
   [
    {
     "is_this_ptr" : true,
     "referenced_type" : "_ZTIPKN7android4base11borrowed_fdE"
    },
    {
     "referenced_type" : "_ZTIi"
    }
   ],
   "return_type" : "_ZTIb",
   "source_file" : "system/libbase/include/android-base/unique_fd.h"
  },
  {
   "function_name" : "android::base::unique_fd_impl<android::base::DefaultCloser>::get",
   "linker_set_key" : "_ZNK7android4base14unique_fd_implINS0_13DefaultCloserEE3getEv",
   "parameters" :
   [
    {
     "is_this_ptr" : true,
     "referenced_type" : "_ZTIPKN7android4base14unique_fd_implINS0_13DefaultCloserEEE"
    }
   ],
   "return_type" : "_ZTIi",
   "source_file" : "system/libbase/include/android-base/unique_fd.h"
  },
  {
   "function_name" : "android::base::unique_fd_impl<android::base::DefaultCloser>::operator!=",
   "linker_set_key" : "_ZNK7android4base14unique_fd_implINS0_13DefaultCloserEEneEi",
   "parameters" :
   [
    {
     "is_this_ptr" : true,
     "referenced_type" : "_ZTIPKN7android4base14unique_fd_implINS0_13DefaultCloserEEE"
    },
    {
     "referenced_type" : "_ZTIi"
    }
   ],
   "return_type" : "_ZTIb",
   "source_file" : "system/libbase/include/android-base/unique_fd.h"
  },
  {
   "function_name" : "android::Fence::get",
   "linker_set_key" : "_ZNK7android5Fence3getEv",
   "parameters" :
   [
    {
     "is_this_ptr" : true,
     "referenced_type" : "_ZTIPKN7android5FenceE"
    }
   ],
   "return_type" : "_ZTIi",
   "source_file" : "frameworks/native/libs/ui/include/ui/Fence.h"
  },
  {
   "function_name" : "android::Fence::isValid",
   "linker_set_key" : "_ZNK7android5Fence7isValidEv",
   "parameters" :
   [
    {
     "is_this_ptr" : true,
     "referenced_type" : "_ZTIPKN7android5FenceE"
    }
   ],
   "return_type" : "_ZTIb",
   "source_file" : "frameworks/native/libs/ui/include/ui/Fence.h"
  },
  {
   "function_name" : "android::RefBase::printRefs",
   "linker_set_key" : "_ZNK7android7RefBase9printRefsEv",
   "parameters" :
   [
    {
     "is_this_ptr" : true,
     "referenced_type" : "_ZTIPKN7android7RefBaseE"
    }
   ],
   "return_type" : "_ZTIv",
   "source_file" : "system/core/libutils/include/utils/RefBase.h"
  },
  {
   "function_name" : "log_msg::nsec",
   "linker_set_key" : "_ZNK7log_msg4nsecEv",
   "parameters" :
   [
    {
     "is_this_ptr" : true,
     "referenced_type" : "_ZTIPK7log_msg"
    }
   ],
   "return_type" : "_ZTIy",
   "source_file" : "system/logging/liblog/include_vndk/log/log_read.h"
  }
 ],
 "global_vars" :
 [
  {
   "linker_set_key" : "_ZN7android11FrameEvents11EVENT_COUNTE",
   "name" : "android::FrameEvents::EVENT_COUNT",
   "referenced_type" : "_ZTIKj",
   "source_file" : "frameworks/native/libs/gui/include/gui/FrameTimestamps.h"
  },
  {
   "linker_set_key" : "_ZN7android11FrameEvents17TIMESTAMP_PENDINGE",
   "name" : "android::FrameEvents::TIMESTAMP_PENDING",
   "referenced_type" : "_ZTIKx",
   "source_file" : "frameworks/native/libs/gui/include/gui/FrameTimestamps.h"
  },
  {
   "linker_set_key" : "_ZN7android13FenceTimeline11MAX_ENTRIESE",
   "name" : "android::FenceTimeline::MAX_ENTRIES",
   "referenced_type" : "_ZTIKj",
   "source_file" : "frameworks/native/libs/ui/include/ui/FenceTime.h"
  },
  {
   "linker_set_key" : "_ZN7android17FrameEventHistory17MAX_FRAME_HISTORYE",
   "name" : "android::FrameEventHistory::MAX_FRAME_HISTORY",
   "referenced_type" : "_ZTIKj",
   "source_file" : "frameworks/native/libs/gui/include/gui/FrameTimestamps.h"
  },
  {
   "linker_set_key" : "_ZN7android5Fence19SIGNAL_TIME_INVALIDE",
   "name" : "android::Fence::SIGNAL_TIME_INVALID",
   "referenced_type" : "_ZTIKx",
   "source_file" : "frameworks/native/libs/ui/include/ui/Fence.h"
  },
  {
   "linker_set_key" : "_ZN7android5Fence19SIGNAL_TIME_PENDINGE",
   "name" : "android::Fence::SIGNAL_TIME_PENDING",
   "referenced_type" : "_ZTIKx",
   "source_file" : "frameworks/native/libs/ui/include/ui/Fence.h"
  },
  {
   "linker_set_key" : "_ZN7android5Fence8NO_FENCEE",
   "name" : "android::Fence::NO_FENCE",
   "referenced_type" : "_ZTIKN7android2spINS_5FenceEEE",
   "source_file" : "frameworks/native/libs/ui/include/ui/Fence.h"
  },
  {
   "linker_set_key" : "_ZN7android9FenceTime8NO_FENCEE",
   "name" : "android::FenceTime::NO_FENCE",
   "referenced_type" : "_ZTIKNSt3__110shared_ptrIN7android9FenceTimeEEE",
   "source_file" : "frameworks/native/libs/ui/include/ui/FenceTime.h"
  },
  {
   "linker_set_key" : "_ZZN7android2sp18check_not_on_stackEPKvE13MIN_PAGE_MASK",
   "name" : "MIN_PAGE_MASK",
   "referenced_type" : "_ZTIKj",
   "source_file" : "system/core/libutils/include/utils/StrongPointer.h"
  },
  {
   "linker_set_key" : "_ZZN7android2sp18check_not_on_stackEPKvE13MIN_PAGE_SIZE",
   "name" : "MIN_PAGE_SIZE",
   "referenced_type" : "_ZTIKi",
   "source_file" : "system/core/libutils/include/utils/StrongPointer.h"
  }
 ],
 "lvalue_reference_types" :
 [
  {
   "alignment" : 4,
   "linker_set_key" : "_ZTIRKN7android11FrameEventsE",
   "name" : "const android::FrameEvents &",
   "referenced_type" : "_ZTIKN7android11FrameEventsE",
   "self_type" : "_ZTIRKN7android11FrameEventsE",
   "size" : 4,
   "source_file" : "frameworks/native/libs/gui/include/gui/FrameTimestamps.h"
  },
  {
   "alignment" : 4,
   "linker_set_key" : "_ZTIRKN7android16CompositorTimingE",
   "name" : "const android::CompositorTiming &",
   "referenced_type" : "_ZTIKN7android16CompositorTimingE",
   "self_type" : "_ZTIRKN7android16CompositorTimingE",
   "size" : 4,
   "source_file" : "system/core/libutils/include/utils/Flattenable.h"
  },
  {
   "alignment" : 4,
   "linker_set_key" : "_ZTIRKN7android19NewFrameEventsEntryE",
   "name" : "const android::NewFrameEventsEntry &",
   "referenced_type" : "_ZTIKN7android19NewFrameEventsEntryE",
   "self_type" : "_ZTIRKN7android19NewFrameEventsEntryE",
   "size" : 4,
   "source_file" : "frameworks/native/libs/gui/include/gui/FrameTimestamps.h"
  },
  {
   "alignment" : 4,
   "linker_set_key" : "_ZTIRKN7android21FrameEventDirtyFieldsE",
   "name" : "const android::FrameEventDirtyFields &",
   "referenced_type" : "_ZTIKN7android21FrameEventDirtyFieldsE",
   "self_type" : "_ZTIRKN7android21FrameEventDirtyFieldsE",
   "size" : 4,
   "source_file" : "frameworks/native/libs/gui/include/gui/FrameTimestamps.h"
  },
  {
   "alignment" : 4,
   "linker_set_key" : "_ZTIRKN7android22FrameEventHistoryDeltaE",
   "name" : "const android::FrameEventHistoryDelta &",
   "referenced_type" : "_ZTIKN7android22FrameEventHistoryDeltaE",
   "self_type" : "_ZTIRKN7android22FrameEventHistoryDeltaE",
   "size" : 4,
   "source_file" : "frameworks/native/libs/gui/include/gui/FrameTimestamps.h"
  },
  {
   "alignment" : 4,
   "linker_set_key" : "_ZTIRKN7android2spINS_5FenceEEE",
   "name" : "const android::sp<android::Fence> &",
   "referenced_type" : "_ZTIKN7android2spINS_5FenceEEE",
   "self_type" : "_ZTIRKN7android2spINS_5FenceEEE",
   "size" : 4,
   "source_file" : "system/core/libutils/include/utils/StrongPointer.h"
  },
  {
   "alignment" : 4,
   "linker_set_key" : "_ZTIRKN7android9FenceTime8SnapshotE",
   "name" : "const android::FenceTime::Snapshot &",
   "referenced_type" : "_ZTIKN7android9FenceTime8SnapshotE",
   "self_type" : "_ZTIRKN7android9FenceTime8SnapshotE",
   "size" : 4,
   "source_file" : "frameworks/native/libs/gui/include/gui/FrameTimestamps.h"
  },
  {
   "alignment" : 4,
   "linker_set_key" : "_ZTIRKNSt3__110shared_ptrIN7android9FenceTimeEEE",
   "name" : "const std::shared_ptr<android::FenceTime> &",
   "referenced_type" : "_ZTIKNSt3__110shared_ptrIN7android9FenceTimeEEE",
   "self_type" : "_ZTIRKNSt3__110shared_ptrIN7android9FenceTimeEEE",
   "size" : 4,
   "source_file" : "frameworks/native/libs/gui/include/gui/FrameTimestamps.h"
  },
  {
   "alignment" : 4,
   "linker_set_key" : "_ZTIRKNSt3__111__wrap_iterIPN7android11FrameEventsEEE",
   "name" : "const std::__wrap_iter<android::FrameEvents *> &",
   "referenced_type" : "_ZTIKNSt3__111__wrap_iterIPN7android11FrameEventsEEE",
   "self_type" : "_ZTIRKNSt3__111__wrap_iterIPN7android11FrameEventsEEE",
   "size" : 4,
   "source_file" : "frameworks/native/libs/gui/include/gui/FrameTimestamps.h"
  },
  {
   "alignment" : 4,
   "linker_set_key" : "_ZTIRKa",
   "name" : "const signed char &",
   "referenced_type" : "_ZTIKa",
   "self_type" : "_ZTIRKa",
   "size" : 4,
   "source_file" : "system/core/libutils/include/utils/TypeHelpers.h"
  },
  {
   "alignment" : 4,
   "linker_set_key" : "_ZTIRKb",
   "name" : "const bool &",
   "referenced_type" : "_ZTIKb",
   "self_type" : "_ZTIRKb",
   "size" : 4,
   "source_file" : "system/core/libutils/include/utils/TypeHelpers.h"
  },
  {
   "alignment" : 4,
   "linker_set_key" : "_ZTIRKd",
   "name" : "const double &",
   "referenced_type" : "_ZTIKd",
   "self_type" : "_ZTIRKd",
   "size" : 4,
   "source_file" : "system/core/libutils/include/utils/TypeHelpers.h"
  },
  {
   "alignment" : 4,
   "linker_set_key" : "_ZTIRKf",
   "name" : "const float &",
   "referenced_type" : "_ZTIKf",
   "self_type" : "_ZTIRKf",
   "size" : 4,
   "source_file" : "system/core/libutils/include/utils/TypeHelpers.h"
  },
  {
   "alignment" : 4,
   "linker_set_key" : "_ZTIRKh",
   "name" : "const unsigned char &",
   "referenced_type" : "_ZTIKh",
   "self_type" : "_ZTIRKh",
   "size" : 4,
   "source_file" : "system/core/libutils/include/utils/Flattenable.h"
  },
  {
   "alignment" : 4,
   "linker_set_key" : "_ZTIRKi",
   "name" : "const int &",
   "referenced_type" : "_ZTIKi",
   "self_type" : "_ZTIRKi",
   "size" : 4,
   "source_file" : "system/core/libutils/include/utils/TypeHelpers.h"
  },
  {
   "alignment" : 4,
   "linker_set_key" : "_ZTIRKj",
   "name" : "const unsigned int &",
   "referenced_type" : "_ZTIKj",
   "self_type" : "_ZTIRKj",
   "size" : 4,
   "source_file" : "system/core/libutils/include/utils/Flattenable.h"
  },
  {
   "alignment" : 4,
   "linker_set_key" : "_ZTIRKs",
   "name" : "const short &",
   "referenced_type" : "_ZTIKs",
   "self_type" : "_ZTIRKs",
   "size" : 4,
   "source_file" : "system/core/libutils/include/utils/TypeHelpers.h"
  },
  {
   "alignment" : 4,
   "linker_set_key" : "_ZTIRKt",
   "name" : "const unsigned short &",
   "referenced_type" : "_ZTIKt",
   "self_type" : "_ZTIRKt",
   "size" : 4,
   "source_file" : "system/core/libutils/include/utils/Flattenable.h"
  },
  {
   "alignment" : 4,
   "linker_set_key" : "_ZTIRKx",
   "name" : "const long long &",
   "referenced_type" : "_ZTIKx",
   "self_type" : "_ZTIRKx",
   "size" : 4,
   "source_file" : "system/core/libutils/include/utils/Flattenable.h"
  },
  {
   "alignment" : 4,
   "linker_set_key" : "_ZTIRKy",
   "name" : "const unsigned long long &",
   "referenced_type" : "_ZTIKy",
   "self_type" : "_ZTIRKy",
   "size" : 4,
   "source_file" : "system/core/libutils/include/utils/Flattenable.h"
  },
  {
   "alignment" : 4,
   "linker_set_key" : "_ZTIRN7android16CompositorTimingE",
   "name" : "android::CompositorTiming &",
   "referenced_type" : "_ZTIN7android16CompositorTimingE",
   "self_type" : "_ZTIRN7android16CompositorTimingE",
   "size" : 4,
   "source_file" : "system/core/libutils/include/utils/Flattenable.h"
  },
  {
   "alignment" : 4,
   "linker_set_key" : "_ZTIRN7android16FrameEventsDeltaE",
   "name" : "android::FrameEventsDelta &",
   "referenced_type" : "_ZTIN7android16FrameEventsDeltaE",
   "self_type" : "_ZTIRN7android16FrameEventsDeltaE",
   "size" : 4,
   "source_file" : "frameworks/native/libs/gui/include/gui/FrameTimestamps.h"
  },
  {
   "alignment" : 4,
   "linker_set_key" : "_ZTIRN7android22FrameEventHistoryDeltaE",
   "name" : "android::FrameEventHistoryDelta &",
   "referenced_type" : "_ZTIN7android22FrameEventHistoryDeltaE",
   "self_type" : "_ZTIRN7android22FrameEventHistoryDeltaE",
   "size" : 4,
   "source_file" : "frameworks/native/libs/gui/include/gui/FrameTimestamps.h"
  },
  {
   "alignment" : 4,
   "linker_set_key" : "_ZTIRN7android2spINS_5FenceEEE",
   "name" : "android::sp<android::Fence> &",
   "referenced_type" : "_ZTIN7android2spINS_5FenceEEE",
   "self_type" : "_ZTIRN7android2spINS_5FenceEEE",
   "size" : 4,
   "source_file" : "system/core/libutils/include/utils/StrongPointer.h"
  },
  {
   "alignment" : 4,
   "linker_set_key" : "_ZTIRN7android5MutexE",
   "name" : "android::Mutex &",
   "referenced_type" : "_ZTIN7android5MutexE",
   "self_type" : "_ZTIRN7android5MutexE",
   "size" : 4,
   "source_file" : "system/core/libutils/include/utils/Mutex.h"
  },
  {
   "alignment" : 4,
   "linker_set_key" : "_ZTIRN7android9FenceTime8SnapshotE",
   "name" : "android::FenceTime::Snapshot &",
   "referenced_type" : "_ZTIN7android9FenceTime8SnapshotE",
   "self_type" : "_ZTIRN7android9FenceTime8SnapshotE",
   "size" : 4,
   "source_file" : "frameworks/native/libs/ui/include/ui/FenceTime.h"
  },
  {
   "alignment" : 4,
   "linker_set_key" : "_ZTIRNSt3__112basic_stringIcNS_11char_traitsIcEENS_9allocatorIcEEEE",
   "name" : "std::basic_string<char, std::char_traits<char>, std::allocator<char>> &",
   "referenced_type" : "_ZTINSt3__112basic_stringIcNS_11char_traitsIcEENS_9allocatorIcEEEE",
   "self_type" : "_ZTIRNSt3__112basic_stringIcNS_11char_traitsIcEENS_9allocatorIcEEEE",
   "size" : 4,
   "source_file" : "frameworks/native/libs/gui/include/gui/FrameTimestamps.h"
  },
  {
   "alignment" : 4,
   "linker_set_key" : "_ZTIRPKi",
   "name" : "const int *&",
   "referenced_type" : "_ZTIPKi",
   "self_type" : "_ZTIRPKi",
   "size" : 4,
   "source_file" : "frameworks/native/libs/gui/include/gui/FrameTimestamps.h"
  },
  {
   "alignment" : 4,
   "linker_set_key" : "_ZTIRPKv",
   "name" : "const void *&",
   "referenced_type" : "_ZTIPKv",
   "self_type" : "_ZTIRPKv",
   "size" : 4,
   "source_file" : "system/core/libutils/include/utils/Flattenable.h"
  },
  {
   "alignment" : 4,
   "linker_set_key" : "_ZTIRPi",
   "name" : "int *&",
   "referenced_type" : "_ZTIPi",
   "self_type" : "_ZTIRPi",
   "size" : 4,
   "source_file" : "frameworks/native/libs/gui/include/gui/FrameTimestamps.h"
  },
  {
   "alignment" : 4,
   "linker_set_key" : "_ZTIRPv",
   "name" : "void *&",
   "referenced_type" : "_ZTIPv",
   "self_type" : "_ZTIRPv",
   "size" : 4,
   "source_file" : "system/core/libutils/include/utils/Flattenable.h"
  },
  {
   "alignment" : 4,
   "linker_set_key" : "_ZTIRh",
   "name" : "unsigned char &",
   "referenced_type" : "_ZTIh",
   "self_type" : "_ZTIRh",
   "size" : 4,
   "source_file" : "system/core/libutils/include/utils/Flattenable.h"
  },
  {
   "alignment" : 4,
   "linker_set_key" : "_ZTIRj",
   "name" : "unsigned int &",
   "referenced_type" : "_ZTIj",
   "self_type" : "_ZTIRj",
   "size" : 4,
   "source_file" : "system/core/libutils/include/utils/Flattenable.h"
  },
  {
   "alignment" : 4,
   "linker_set_key" : "_ZTIRt",
   "name" : "unsigned short &",
   "referenced_type" : "_ZTIt",
   "self_type" : "_ZTIRt",
   "size" : 4,
   "source_file" : "system/core/libutils/include/utils/Flattenable.h"
  },
  {
   "alignment" : 4,
   "linker_set_key" : "_ZTIRx",
   "name" : "long long &",
   "referenced_type" : "_ZTIx",
   "self_type" : "_ZTIRx",
   "size" : 4,
   "source_file" : "system/core/libutils/include/utils/Flattenable.h"
  },
  {
   "alignment" : 4,
   "linker_set_key" : "_ZTIRy",
   "name" : "unsigned long long &",
   "referenced_type" : "_ZTIy",
   "self_type" : "_ZTIRy",
   "size" : 4,
   "source_file" : "system/core/libutils/include/utils/Flattenable.h"
  }
 ],
 "pointer_types" :
 [
  {
   "alignment" : 4,
   "linker_set_key" : "_ZTIP3DIR",
   "name" : "DIR *",
   "referenced_type" : "_ZTI3DIR",
   "self_type" : "_ZTIP3DIR",
   "size" : 4,
   "source_file" : "system/libbase/include/android-base/unique_fd.h"
  },
  {
   "alignment" : 4,
   "linker_set_key" : "_ZTIP7__sFILE",
   "name" : "__sFILE *",
   "referenced_type" : "_ZTI7__sFILE",
   "self_type" : "_ZTIP7__sFILE",
   "size" : 4,
   "source_file" : "system/libbase/include/android-base/unique_fd.h"
  },
  {
   "alignment" : 4,
   "linker_set_key" : "_ZTIP7log_msg",
   "name" : "log_msg *",
   "referenced_type" : "_ZTI7log_msg",
   "self_type" : "_ZTIP7log_msg",
   "size" : 4,
   "source_file" : "system/logging/liblog/include_vndk/log/log_read.h"
  },
  {
   "alignment" : 4,
   "linker_set_key" : "_ZTIPK7log_msg",
   "name" : "const log_msg *",
   "referenced_type" : "_ZTIK7log_msg",
   "self_type" : "_ZTIPK7log_msg",
   "size" : 4,
   "source_file" : "system/logging/liblog/include_vndk/log/log_read.h"
  },
  {
   "alignment" : 4,
   "linker_set_key" : "_ZTIPKN7android11FrameEventsE",
   "name" : "const android::FrameEvents *",
   "referenced_type" : "_ZTIKN7android11FrameEventsE",
   "self_type" : "_ZTIPKN7android11FrameEventsE",
   "size" : 4,
   "source_file" : "frameworks/native/libs/gui/include/gui/FrameTimestamps.h"
  },
  {
   "alignment" : 4,
   "linker_set_key" : "_ZTIPKN7android12LightRefBaseINS_5FenceEEE",
   "name" : "const android::LightRefBase<android::Fence> *",
   "referenced_type" : "_ZTIKN7android12LightRefBaseINS_5FenceEEE",
   "self_type" : "_ZTIPKN7android12LightRefBaseINS_5FenceEEE",
   "size" : 4,
   "source_file" : "system/core/libutils/include/utils/LightRefBase.h"
  },
  {
   "alignment" : 4,
   "linker_set_key" : "_ZTIPKN7android16FrameEventsDeltaE",
   "name" : "const android::FrameEventsDelta *",
   "referenced_type" : "_ZTIKN7android16FrameEventsDeltaE",
   "self_type" : "_ZTIPKN7android16FrameEventsDeltaE",
   "size" : 4,
   "source_file" : "frameworks/native/libs/gui/include/gui/FrameTimestamps.h"
  },
  {
   "alignment" : 4,
   "linker_set_key" : "_ZTIPKN7android17FrameEventHistoryE",
   "name" : "const android::FrameEventHistory *",
   "referenced_type" : "_ZTIKN7android17FrameEventHistoryE",
   "self_type" : "_ZTIPKN7android17FrameEventHistoryE",
   "size" : 4,
   "source_file" : "frameworks/native/libs/gui/include/gui/FrameTimestamps.h"
  },
  {
   "alignment" : 4,
   "linker_set_key" : "_ZTIPKN7android21FrameEventDirtyFieldsE",
   "name" : "const android::FrameEventDirtyFields *",
   "referenced_type" : "_ZTIKN7android21FrameEventDirtyFieldsE",
   "self_type" : "_ZTIPKN7android21FrameEventDirtyFieldsE",
   "size" : 4,
   "source_file" : "frameworks/native/libs/gui/include/gui/FrameTimestamps.h"
  },
  {
   "alignment" : 4,
   "linker_set_key" : "_ZTIPKN7android22FrameEventHistoryDeltaE",
   "name" : "const android::FrameEventHistoryDelta *",
   "referenced_type" : "_ZTIKN7android22FrameEventHistoryDeltaE",
   "self_type" : "_ZTIPKN7android22FrameEventHistoryDeltaE",
   "size" : 4,
   "source_file" : "frameworks/native/libs/gui/include/gui/FrameTimestamps.h"
  },
  {
   "alignment" : 4,
   "linker_set_key" : "_ZTIPKN7android25ProducerFrameEventHistoryE",
   "name" : "const android::ProducerFrameEventHistory *",
   "referenced_type" : "_ZTIKN7android25ProducerFrameEventHistoryE",
   "self_type" : "_ZTIPKN7android25ProducerFrameEventHistoryE",
   "size" : 4,
   "source_file" : "frameworks/native/libs/gui/include/gui/FrameTimestamps.h"
  },
  {
   "alignment" : 4,
   "linker_set_key" : "_ZTIPKN7android4base11borrowed_fdE",
   "name" : "const android::base::borrowed_fd *",
   "referenced_type" : "_ZTIKN7android4base11borrowed_fdE",
   "self_type" : "_ZTIPKN7android4base11borrowed_fdE",
   "size" : 4,
   "source_file" : "system/libbase/include/android-base/unique_fd.h"
  },
  {
   "alignment" : 4,
   "linker_set_key" : "_ZTIPKN7android4base14unique_fd_implINS0_13DefaultCloserEEE",
   "name" : "const android::base::unique_fd_impl<android::base::DefaultCloser> *",
   "referenced_type" : "_ZTIKN7android4base14unique_fd_implINS0_13DefaultCloserEEE",
   "self_type" : "_ZTIPKN7android4base14unique_fd_implINS0_13DefaultCloserEEE",
   "size" : 4,
   "source_file" : "system/libbase/include/android-base/unique_fd.h"
  },
  {
   "alignment" : 4,
   "linker_set_key" : "_ZTIPKN7android5FenceE",
   "name" : "const android::Fence *",
   "referenced_type" : "_ZTIKN7android5FenceE",
   "self_type" : "_ZTIPKN7android5FenceE",
   "size" : 4,
   "source_file" : "frameworks/native/libs/ui/include/ui/Fence.h"
  },
  {
   "alignment" : 4,
   "linker_set_key" : "_ZTIPKN7android7RefBaseE",
   "name" : "const android::RefBase *",
   "referenced_type" : "_ZTIKN7android7RefBaseE",
   "self_type" : "_ZTIPKN7android7RefBaseE",
   "size" : 4,
   "source_file" : "system/core/libutils/include/utils/RefBase.h"
  },
  {
   "alignment" : 4,
   "linker_set_key" : "_ZTIPKc",
   "name" : "const char *",
   "referenced_type" : "_ZTIKc",
   "self_type" : "_ZTIPKc",
   "size" : 4,
   "source_file" : "system/libbase/include/android-base/unique_fd.h"
  },
  {
   "alignment" : 4,
   "linker_set_key" : "_ZTIPKi",
   "name" : "const int *",
   "referenced_type" : "_ZTIKi",
   "self_type" : "_ZTIPKi",
   "size" : 4,
   "source_file" : "frameworks/native/libs/gui/include/gui/FrameTimestamps.h"
  },
  {
   "alignment" : 4,
   "linker_set_key" : "_ZTIPKv",
   "name" : "const void *",
   "referenced_type" : "_ZTIKv",
   "self_type" : "_ZTIPKv",
   "size" : 4,
   "source_file" : "system/core/libutils/include/utils/Flattenable.h"
  },
  {
   "alignment" : 4,
   "linker_set_key" : "_ZTIPN7android11FrameEventsE",
   "name" : "android::FrameEvents *",
   "referenced_type" : "_ZTIN7android11FrameEventsE",
   "self_type" : "_ZTIPN7android11FrameEventsE",
   "size" : 4,
   "source_file" : "frameworks/native/libs/gui/include/gui/FrameTimestamps.h"
  },
  {
   "alignment" : 4,
   "linker_set_key" : "_ZTIPN7android12LightRefBaseINS_5FenceEEE",
   "name" : "android::LightRefBase<android::Fence> *",
   "referenced_type" : "_ZTIN7android12LightRefBaseINS_5FenceEEE",
   "self_type" : "_ZTIPN7android12LightRefBaseINS_5FenceEEE",
   "size" : 4,
   "source_file" : "system/core/libutils/include/utils/LightRefBase.h"
  },
  {
   "alignment" : 4,
   "linker_set_key" : "_ZTIPN7android13FenceTimelineE",
   "name" : "android::FenceTimeline *",
   "referenced_type" : "_ZTIN7android13FenceTimelineE",
   "self_type" : "_ZTIPN7android13FenceTimelineE",
   "size" : 4,
   "source_file" : "frameworks/native/libs/gui/include/gui/FrameTimestamps.h"
  },
  {
   "alignment" : 4,
   "linker_set_key" : "_ZTIPN7android16FrameEventsDeltaE",
   "name" : "android::FrameEventsDelta *",
   "referenced_type" : "_ZTIN7android16FrameEventsDeltaE",
   "self_type" : "_ZTIPN7android16FrameEventsDeltaE",
   "size" : 4,
   "source_file" : "frameworks/native/libs/gui/include/gui/FrameTimestamps.h"
  },
  {
   "alignment" : 4,
   "linker_set_key" : "_ZTIPN7android16ReferenceRenamerE",
   "name" : "android::ReferenceRenamer *",
   "referenced_type" : "_ZTIN7android16ReferenceRenamerE",
   "self_type" : "_ZTIPN7android16ReferenceRenamerE",
   "size" : 4,
   "source_file" : "system/core/libutils/include/utils/RefBase.h"
  },
  {
   "alignment" : 4,
   "linker_set_key" : "_ZTIPN7android17FrameEventHistoryE",
   "name" : "android::FrameEventHistory *",
   "referenced_type" : "_ZTIN7android17FrameEventHistoryE",
   "self_type" : "_ZTIPN7android17FrameEventHistoryE",
   "size" : 4,
   "source_file" : "frameworks/native/libs/gui/include/gui/FrameTimestamps.h"
  },
  {
   "alignment" : 4,
   "linker_set_key" : "_ZTIPN7android19VirtualLightRefBaseE",
   "name" : "android::VirtualLightRefBase *",
   "referenced_type" : "_ZTIN7android19VirtualLightRefBaseE",
   "self_type" : "_ZTIPN7android19VirtualLightRefBaseE",
   "size" : 4,
   "source_file" : "system/core/libutils/include/utils/LightRefBase.h"
  },
  {
   "alignment" : 4,
   "linker_set_key" : "_ZTIPN7android21FrameEventDirtyFieldsE",
   "name" : "android::FrameEventDirtyFields *",
   "referenced_type" : "_ZTIN7android21FrameEventDirtyFieldsE",
   "self_type" : "_ZTIPN7android21FrameEventDirtyFieldsE",
   "size" : 4,
   "source_file" : "frameworks/native/libs/gui/include/gui/FrameTimestamps.h"
  },
  {
   "alignment" : 4,
   "linker_set_key" : "_ZTIPN7android22FrameEventHistoryDeltaE",
   "name" : "android::FrameEventHistoryDelta *",
   "referenced_type" : "_ZTIN7android22FrameEventHistoryDeltaE",
   "self_type" : "_ZTIPN7android22FrameEventHistoryDeltaE",
   "size" : 4,
   "source_file" : "frameworks/native/libs/gui/include/gui/FrameTimestamps.h"
  },
  {
   "alignment" : 4,
   "linker_set_key" : "_ZTIPN7android25ConsumerFrameEventHistoryE",
   "name" : "android::ConsumerFrameEventHistory *",
   "referenced_type" : "_ZTIN7android25ConsumerFrameEventHistoryE",
   "self_type" : "_ZTIPN7android25ConsumerFrameEventHistoryE",
   "size" : 4,
   "source_file" : "frameworks/native/libs/gui/include/gui/FrameTimestamps.h"
  },
  {
   "alignment" : 4,
   "linker_set_key" : "_ZTIPN7android25ProducerFrameEventHistoryE",
   "name" : "android::ProducerFrameEventHistory *",
   "referenced_type" : "_ZTIN7android25ProducerFrameEventHistoryE",
   "self_type" : "_ZTIPN7android25ProducerFrameEventHistoryE",
   "size" : 4,
   "source_file" : "frameworks/native/libs/gui/include/gui/FrameTimestamps.h"
  },
  {
   "alignment" : 4,
   "linker_set_key" : "_ZTIPN7android2spINS_5FenceEEE",
   "name" : "android::sp<android::Fence> *",
   "referenced_type" : "_ZTIN7android2spINS_5FenceEEE",
   "self_type" : "_ZTIPN7android2spINS_5FenceEEE",
   "size" : 4,
   "source_file" : "system/core/libutils/include/utils/StrongPointer.h"
  },
  {
   "alignment" : 4,
   "linker_set_key" : "_ZTIPN7android4base11borrowed_fdE",
   "name" : "android::base::borrowed_fd *",
   "referenced_type" : "_ZTIN7android4base11borrowed_fdE",
   "self_type" : "_ZTIPN7android4base11borrowed_fdE",
   "size" : 4,
   "source_file" : "system/libbase/include/android-base/unique_fd.h"
  },
  {
   "alignment" : 4,
   "linker_set_key" : "_ZTIPN7android4base14unique_fd_implINS0_13DefaultCloserEEE",
   "name" : "android::base::unique_fd_impl<android::base::DefaultCloser> *",
   "referenced_type" : "_ZTIN7android4base14unique_fd_implINS0_13DefaultCloserEEE",
   "self_type" : "_ZTIPN7android4base14unique_fd_implINS0_13DefaultCloserEEE",
   "size" : 4,
   "source_file" : "system/libbase/include/android-base/unique_fd.h"
  },
  {
   "alignment" : 4,
   "linker_set_key" : "_ZTIPN7android5FenceE",
   "name" : "android::Fence *",
   "referenced_type" : "_ZTIN7android5FenceE",
   "self_type" : "_ZTIPN7android5FenceE",
   "size" : 4,
   "source_file" : "system/core/libutils/include/utils/StrongPointer.h"
  },
  {
   "alignment" : 4,
   "linker_set_key" : "_ZTIPN7android5Mutex8AutolockE",
   "name" : "android::Mutex::Autolock *",
   "referenced_type" : "_ZTIN7android5Mutex8AutolockE",
   "self_type" : "_ZTIPN7android5Mutex8AutolockE",
   "size" : 4,
   "source_file" : "system/core/libutils/include/utils/Mutex.h"
  },
  {
   "alignment" : 4,
   "linker_set_key" : "_ZTIPN7android5MutexE",
   "name" : "android::Mutex *",
   "referenced_type" : "_ZTIN7android5MutexE",
   "self_type" : "_ZTIPN7android5MutexE",
   "size" : 4,
   "source_file" : "system/core/libutils/include/utils/Mutex.h"
  },
  {
   "alignment" : 4,
   "linker_set_key" : "_ZTIPN7android7RefBase12weakref_implE",
   "name" : "android::RefBase::weakref_impl *",
   "referenced_type" : "_ZTIN7android7RefBase12weakref_implE",
   "self_type" : "_ZTIPN7android7RefBase12weakref_implE",
   "size" : 4,
   "source_file" : "system/core/libutils/include/utils/RefBase.h"
  },
  {
   "alignment" : 4,
   "linker_set_key" : "_ZTIPN7android7RefBaseE",
   "name" : "android::RefBase *",
   "referenced_type" : "_ZTIN7android7RefBaseE",
   "self_type" : "_ZTIPN7android7RefBaseE",
   "size" : 4,
   "source_file" : "system/core/libutils/include/utils/RefBase.h"
  },
  {
   "alignment" : 4,
   "linker_set_key" : "_ZTIPN7android9FenceTime8SnapshotE",
   "name" : "android::FenceTime::Snapshot *",
   "referenced_type" : "_ZTIN7android9FenceTime8SnapshotE",
   "self_type" : "_ZTIPN7android9FenceTime8SnapshotE",
   "size" : 4,
   "source_file" : "frameworks/native/libs/ui/include/ui/FenceTime.h"
  },
  {
   "alignment" : 4,
   "linker_set_key" : "_ZTIPNSt3__110shared_ptrIN7android9FenceTimeEEE",
   "name" : "std::shared_ptr<android::FenceTime> *",
   "referenced_type" : "_ZTINSt3__110shared_ptrIN7android9FenceTimeEEE",
   "self_type" : "_ZTIPNSt3__110shared_ptrIN7android9FenceTimeEEE",
   "size" : 4,
   "source_file" : "frameworks/native/libs/gui/include/gui/FrameTimestamps.h"
  },
  {
   "alignment" : 4,
   "linker_set_key" : "_ZTIPc",
   "name" : "char *",
   "referenced_type" : "_ZTIc",
   "self_type" : "_ZTIPc",
   "size" : 4,
   "source_file" : "system/logging/liblog/include_vndk/log/log_read.h"
  },
  {
   "alignment" : 4,
   "linker_set_key" : "_ZTIPi",
   "name" : "int *",
   "referenced_type" : "_ZTIi",
   "self_type" : "_ZTIPi",
   "size" : 4,
   "source_file" : "frameworks/native/libs/gui/include/gui/FrameTimestamps.h"
  },
  {
   "alignment" : 4,
   "linker_set_key" : "_ZTIPj",
   "name" : "unsigned int *",
   "referenced_type" : "_ZTIj",
   "self_type" : "_ZTIPj",
   "size" : 4,
   "source_file" : "frameworks/native/libs/gui/include/gui/FrameTimestamps.h"
  },
  {
   "alignment" : 4,
   "linker_set_key" : "_ZTIPv",
   "name" : "void *",
   "referenced_type" : "_ZTIv",
   "self_type" : "_ZTIPv",
   "size" : 4,
   "source_file" : "system/libbase/include/android-base/unique_fd.h"
  }
 ],
 "qualified_types" :
 [
  {
   "alignment" : 4,
   "is_const" : true,
   "linker_set_key" : "_ZTIK7log_msg",
   "name" : "const log_msg",
   "referenced_type" : "_ZTI7log_msg",
   "self_type" : "_ZTIK7log_msg",
   "size" : 5124,
   "source_file" : "system/logging/liblog/include_vndk/log/log_read.h"
  },
  {
   "alignment" : 8,
   "is_const" : true,
   "linker_set_key" : "_ZTIKN7android11FrameEventsE",
   "name" : "const android::FrameEvents",
   "referenced_type" : "_ZTIN7android11FrameEventsE",
   "self_type" : "_ZTIKN7android11FrameEventsE",
   "size" : 104,
   "source_file" : "frameworks/native/libs/gui/include/gui/FrameTimestamps.h"
  },
  {
   "alignment" : 4,
   "is_const" : true,
   "linker_set_key" : "_ZTIKN7android12LightRefBaseINS_5FenceEEE",
   "name" : "const android::LightRefBase<android::Fence>",
   "referenced_type" : "_ZTIN7android12LightRefBaseINS_5FenceEEE",
   "self_type" : "_ZTIKN7android12LightRefBaseINS_5FenceEEE",
   "size" : 4,
   "source_file" : "system/core/libutils/include/utils/LightRefBase.h"
  },
  {
   "alignment" : 8,
   "is_const" : true,
   "linker_set_key" : "_ZTIKN7android16CompositorTimingE",
   "name" : "const android::CompositorTiming",
   "referenced_type" : "_ZTIN7android16CompositorTimingE",
   "self_type" : "_ZTIKN7android16CompositorTimingE",
   "size" : 24,
   "source_file" : "system/core/libutils/include/utils/Flattenable.h"
  },
  {
   "alignment" : 8,
   "is_const" : true,
   "linker_set_key" : "_ZTIKN7android16FrameEventsDeltaE",
   "name" : "const android::FrameEventsDelta",
   "referenced_type" : "_ZTIN7android16FrameEventsDeltaE",
   "self_type" : "_ZTIKN7android16FrameEventsDeltaE",
   "size" : 120,
   "source_file" : "frameworks/native/libs/gui/include/gui/FrameTimestamps.h"
  },
  {
   "alignment" : 8,
   "is_const" : true,
   "linker_set_key" : "_ZTIKN7android17FrameEventHistoryE",
   "name" : "const android::FrameEventHistory",
   "referenced_type" : "_ZTIN7android17FrameEventHistoryE",
   "self_type" : "_ZTIKN7android17FrameEventHistoryE",
   "size" : 40,
   "source_file" : "frameworks/native/libs/gui/include/gui/FrameTimestamps.h"
  },
  {
   "alignment" : 8,
   "is_const" : true,
   "linker_set_key" : "_ZTIKN7android19NewFrameEventsEntryE",
   "name" : "const android::NewFrameEventsEntry",
   "referenced_type" : "_ZTIN7android19NewFrameEventsEntryE",
   "self_type" : "_ZTIKN7android19NewFrameEventsEntryE",
   "size" : 32,
   "source_file" : "frameworks/native/libs/gui/include/gui/FrameTimestamps.h"
  },
  {
   "alignment" : 4,
   "is_const" : true,
   "linker_set_key" : "_ZTIKN7android21FrameEventDirtyFieldsE",
   "name" : "const android::FrameEventDirtyFields",
   "referenced_type" : "_ZTIN7android21FrameEventDirtyFieldsE",
   "self_type" : "_ZTIKN7android21FrameEventDirtyFieldsE",
   "size" : 4,
   "source_file" : "frameworks/native/libs/gui/include/gui/FrameTimestamps.h"
  },
  {
   "alignment" : 8,
   "is_const" : true,
   "linker_set_key" : "_ZTIKN7android22FrameEventHistoryDeltaE",
   "name" : "const android::FrameEventHistoryDelta",
   "referenced_type" : "_ZTIN7android22FrameEventHistoryDeltaE",
   "self_type" : "_ZTIKN7android22FrameEventHistoryDeltaE",
   "size" : 40,
   "source_file" : "frameworks/native/libs/gui/include/gui/FrameTimestamps.h"
  },
  {
   "alignment" : 8,
   "is_const" : true,
   "linker_set_key" : "_ZTIKN7android25ProducerFrameEventHistoryE",
   "name" : "const android::ProducerFrameEventHistory",
   "referenced_type" : "_ZTIN7android25ProducerFrameEventHistoryE",
   "self_type" : "_ZTIKN7android25ProducerFrameEventHistoryE",
   "size" : 160,
   "source_file" : "frameworks/native/libs/gui/include/gui/FrameTimestamps.h"
  },
  {
   "alignment" : 4,
   "is_const" : true,
   "linker_set_key" : "_ZTIKN7android2spINS_5FenceEEE",
   "name" : "const android::sp<android::Fence>",
   "referenced_type" : "_ZTIN7android2spINS_5FenceEEE",
   "self_type" : "_ZTIKN7android2spINS_5FenceEEE",
   "size" : 4,
   "source_file" : "system/core/libutils/include/utils/StrongPointer.h"
  },
  {
   "alignment" : 4,
   "is_const" : true,
   "linker_set_key" : "_ZTIKN7android4base11borrowed_fdE",
   "name" : "const android::base::borrowed_fd",
   "referenced_type" : "_ZTIN7android4base11borrowed_fdE",
   "self_type" : "_ZTIKN7android4base11borrowed_fdE",
   "size" : 4,
   "source_file" : "system/libbase/include/android-base/unique_fd.h"
  },
  {
   "alignment" : 4,
   "is_const" : true,
   "linker_set_key" : "_ZTIKN7android4base14unique_fd_implINS0_13DefaultCloserEEE",
   "name" : "const android::base::unique_fd_impl<android::base::DefaultCloser>",
   "referenced_type" : "_ZTIN7android4base14unique_fd_implINS0_13DefaultCloserEEE",
   "self_type" : "_ZTIKN7android4base14unique_fd_implINS0_13DefaultCloserEEE",
   "size" : 4,
   "source_file" : "system/libbase/include/android-base/unique_fd.h"
  },
  {
   "alignment" : 4,
   "is_const" : true,
   "linker_set_key" : "_ZTIKN7android5FenceE",
   "name" : "const android::Fence",
   "referenced_type" : "_ZTIN7android5FenceE",
   "self_type" : "_ZTIKN7android5FenceE",
   "size" : 8,
   "source_file" : "frameworks/native/libs/ui/include/ui/Fence.h"
  },
  {
   "alignment" : 4,
   "is_const" : true,
   "linker_set_key" : "_ZTIKN7android7RefBaseE",
   "name" : "const android::RefBase",
   "referenced_type" : "_ZTIN7android7RefBaseE",
   "self_type" : "_ZTIKN7android7RefBaseE",
   "size" : 8,
   "source_file" : "system/core/libutils/include/utils/RefBase.h"
  },
  {
   "alignment" : 4,
   "is_const" : true,
   "linker_set_key" : "_ZTIKN7android9FenceTime5StateE",
   "name" : "const android::FenceTime::State",
   "referenced_type" : "_ZTIN7android9FenceTime5StateE",
   "self_type" : "_ZTIKN7android9FenceTime5StateE",
   "size" : 4,
   "source_file" : "frameworks/native/libs/ui/include/ui/FenceTime.h"
  },
  {
   "alignment" : 8,
   "is_const" : true,
   "linker_set_key" : "_ZTIKN7android9FenceTime8SnapshotE",
   "name" : "const android::FenceTime::Snapshot",
   "referenced_type" : "_ZTIN7android9FenceTime8SnapshotE",
   "self_type" : "_ZTIKN7android9FenceTime8SnapshotE",
   "size" : 16,
   "source_file" : "frameworks/native/libs/gui/include/gui/FrameTimestamps.h"
  },
  {
   "alignment" : 4,
   "is_const" : true,
   "linker_set_key" : "_ZTIKNSt3__110shared_ptrIN7android9FenceTimeEEE",
   "name" : "const std::shared_ptr<android::FenceTime>",
   "referenced_type" : "_ZTINSt3__110shared_ptrIN7android9FenceTimeEEE",
   "self_type" : "_ZTIKNSt3__110shared_ptrIN7android9FenceTimeEEE",
   "size" : 8,
   "source_file" : "frameworks/native/libs/ui/include/ui/FenceTime.h"
  },
  {
   "alignment" : 4,
   "is_const" : true,
   "linker_set_key" : "_ZTIKNSt3__111__wrap_iterIPN7android11FrameEventsEEE",
   "name" : "const std::__wrap_iter<android::FrameEvents *>",
   "referenced_type" : "_ZTINSt3__111__wrap_iterIPN7android11FrameEventsEEE",
   "self_type" : "_ZTIKNSt3__111__wrap_iterIPN7android11FrameEventsEEE",
   "size" : 4,
   "source_file" : "frameworks/native/libs/gui/include/gui/FrameTimestamps.h"
  },
  {
   "alignment" : 4,
   "is_const" : true,
   "linker_set_key" : "_ZTIKPN7android7RefBase12weakref_implE",
   "name" : "android::RefBase::weakref_impl *const",
   "referenced_type" : "_ZTIPN7android7RefBase12weakref_implE",
   "self_type" : "_ZTIKPN7android7RefBase12weakref_implE",
   "size" : 4,
   "source_file" : "system/core/libutils/include/utils/RefBase.h"
  },
  {
   "alignment" : 1,
   "is_const" : true,
   "linker_set_key" : "_ZTIKa",
   "name" : "const signed char",
   "referenced_type" : "_ZTIa",
   "self_type" : "_ZTIKa",
   "size" : 1,
   "source_file" : "system/core/libutils/include/utils/TypeHelpers.h"
  },
  {
   "alignment" : 1,
   "is_const" : true,
   "linker_set_key" : "_ZTIKb",
   "name" : "const bool",
   "referenced_type" : "_ZTIb",
   "self_type" : "_ZTIKb",
   "size" : 1,
   "source_file" : "system/core/libutils/include/utils/TypeHelpers.h"
  },
  {
   "alignment" : 1,
   "is_const" : true,
   "linker_set_key" : "_ZTIKc",
   "name" : "const char",
   "referenced_type" : "_ZTIc",
   "self_type" : "_ZTIKc",
   "size" : 1,
   "source_file" : "system/libbase/include/android-base/unique_fd.h"
  },
  {
   "alignment" : 8,
   "is_const" : true,
   "linker_set_key" : "_ZTIKd",
   "name" : "const double",
   "referenced_type" : "_ZTId",
   "self_type" : "_ZTIKd",
   "size" : 8,
   "source_file" : "system/core/libutils/include/utils/TypeHelpers.h"
  },
  {
   "alignment" : 4,
   "is_const" : true,
   "linker_set_key" : "_ZTIKf",
   "name" : "const float",
   "referenced_type" : "_ZTIf",
   "self_type" : "_ZTIKf",
   "size" : 4,
   "source_file" : "system/core/libutils/include/utils/TypeHelpers.h"
  },
  {
   "alignment" : 1,
   "is_const" : true,
   "linker_set_key" : "_ZTIKh",
   "name" : "const unsigned char",
   "referenced_type" : "_ZTIh",
   "self_type" : "_ZTIKh",
   "size" : 1,
   "source_file" : "system/core/libutils/include/utils/Flattenable.h"
  },
  {
   "alignment" : 4,
   "is_const" : true,
   "linker_set_key" : "_ZTIKi",
   "name" : "const int",
   "referenced_type" : "_ZTIi",
   "self_type" : "_ZTIKi",
   "size" : 4,
   "source_file" : "system/core/libutils/include/utils/StrongPointer.h"
  },
  {
   "alignment" : 4,
   "is_const" : true,
   "linker_set_key" : "_ZTIKj",
   "name" : "const unsigned int",
   "referenced_type" : "_ZTIj",
   "self_type" : "_ZTIKj",
   "size" : 4,
   "source_file" : "system/core/libutils/include/utils/Flattenable.h"
  },
  {
   "alignment" : 2,
   "is_const" : true,
   "linker_set_key" : "_ZTIKs",
   "name" : "const short",
   "referenced_type" : "_ZTIs",
   "self_type" : "_ZTIKs",
   "size" : 2,
   "source_file" : "system/core/libutils/include/utils/TypeHelpers.h"
  },
  {
   "alignment" : 2,
   "is_const" : true,
   "linker_set_key" : "_ZTIKt",
   "name" : "const unsigned short",
   "referenced_type" : "_ZTIt",
   "self_type" : "_ZTIKt",
   "size" : 2,
   "source_file" : "system/core/libutils/include/utils/Flattenable.h"
  },
  {
   "is_const" : true,
   "linker_set_key" : "_ZTIKv",
   "name" : "const void",
   "referenced_type" : "_ZTIv",
   "self_type" : "_ZTIKv",
   "source_file" : "system/core/libutils/include/utils/Flattenable.h"
  },
  {
   "alignment" : 8,
   "is_const" : true,
   "linker_set_key" : "_ZTIKx",
   "name" : "const long long",
   "referenced_type" : "_ZTIx",
   "self_type" : "_ZTIKx",
   "size" : 8,
   "source_file" : "system/core/libutils/include/utils/Flattenable.h"
  },
  {
   "alignment" : 8,
   "is_const" : true,
   "linker_set_key" : "_ZTIKy",
   "name" : "const unsigned long long",
   "referenced_type" : "_ZTIy",
   "self_type" : "_ZTIKy",
   "size" : 8,
   "source_file" : "system/core/libutils/include/utils/Flattenable.h"
  }
 ],
 "record_types" :
 [
  {
   "alignment" : 4,
   "fields" :
   [
    {
     "field_name" : "len",
     "referenced_type" : "_ZTIt"
    },
    {
     "field_name" : "hdr_size",
     "field_offset" : 16,
     "referenced_type" : "_ZTIt"
    },
    {
     "field_name" : "pid",
     "field_offset" : 32,
     "referenced_type" : "_ZTIi"
    },
    {
     "field_name" : "tid",
     "field_offset" : 64,
     "referenced_type" : "_ZTIj"
    },
    {
     "field_name" : "sec",
     "field_offset" : 96,
     "referenced_type" : "_ZTIj"
    },
    {
     "field_name" : "nsec",
     "field_offset" : 128,
     "referenced_type" : "_ZTIj"
    },
    {
     "field_name" : "lid",
     "field_offset" : 160,
     "referenced_type" : "_ZTIj"
    },
    {
     "field_name" : "uid",
     "field_offset" : 192,
     "referenced_type" : "_ZTIj"
    }
   ],
   "linker_set_key" : "_ZTI12logger_entry",
   "name" : "logger_entry",
   "referenced_type" : "_ZTI12logger_entry",
   "self_type" : "_ZTI12logger_entry",
   "size" : 28,
   "source_file" : "system/logging/liblog/include_vndk/log/log_read.h"
  },
  {
   "alignment" : 4,
   "fields" :
   [
    {
     "field_name" : "struct_size",
     "referenced_type" : "_ZTIj"
    },
    {
     "field_name" : "buffer_id",
     "field_offset" : 32,
     "referenced_type" : "_ZTIi"
    },
    {
     "field_name" : "priority",
     "field_offset" : 64,
     "referenced_type" : "_ZTIi"
    },
    {
     "field_name" : "tag",
     "field_offset" : 96,
     "referenced_type" : "_ZTIPKc"
    },
    {
     "field_name" : "file",
     "field_offset" : 128,
     "referenced_type" : "_ZTIPKc"
    },
    {
     "field_name" : "line",
     "field_offset" : 160,
     "referenced_type" : "_ZTIj"
    },
    {
     "field_name" : "message",
     "field_offset" : 192,
     "referenced_type" : "_ZTIPKc"
    }
   ],
   "linker_set_key" : "_ZTI21__android_log_message",
   "name" : "__android_log_message",
   "referenced_type" : "_ZTI21__android_log_message",
   "self_type" : "_ZTI21__android_log_message",
   "size" : 28,
   "source_file" : "system/logging/liblog/include_vndk/android/log.h"
  },
  {
   "alignment" : 4,
   "fields" :
   [
    {
     "referenced_type" : "_ZTIN7log_msgUt_E"
    }
   ],
   "linker_set_key" : "_ZTI7log_msg",
   "name" : "log_msg",
   "referenced_type" : "_ZTI7log_msg",
   "self_type" : "_ZTI7log_msg",
   "size" : 5124,
   "source_file" : "system/logging/liblog/include_vndk/log/log_read.h"
  },
  {
   "alignment" : 1,
   "fields" :
   [
    {
     "field_name" : "tv_sec",
     "referenced_type" : "_ZTIj"
    },
    {
     "field_name" : "tv_nsec",
     "field_offset" : 32,
     "referenced_type" : "_ZTIj"
    }
   ],
   "linker_set_key" : "_ZTI8log_time",
   "name" : "log_time",
   "referenced_type" : "_ZTI8log_time",
   "self_type" : "_ZTI8log_time",
   "size" : 8,
   "source_file" : "system/logging/liblog/include_vndk/log/log_time.h"
  },
  {
   "alignment" : 1,
   "linker_set_key" : "_ZTIN7android11FlattenableINS_16FrameEventsDeltaEEE",
   "name" : "android::Flattenable<android::FrameEventsDelta>",
   "record_kind" : "class",
   "referenced_type" : "_ZTIN7android11FlattenableINS_16FrameEventsDeltaEEE",
   "self_type" : "_ZTIN7android11FlattenableINS_16FrameEventsDeltaEEE",
   "size" : 1,
   "source_file" : "system/core/libutils/include/utils/Flattenable.h",
   "template_args" : [ "_ZTIN7android16FrameEventsDeltaE" ]
  },
  {
   "alignment" : 1,
   "linker_set_key" : "_ZTIN7android11FlattenableINS_22FrameEventHistoryDeltaEEE",
   "name" : "android::Flattenable<android::FrameEventHistoryDelta>",
   "record_kind" : "class",
   "referenced_type" : "_ZTIN7android11FlattenableINS_22FrameEventHistoryDeltaEEE",
   "self_type" : "_ZTIN7android11FlattenableINS_22FrameEventHistoryDeltaEEE",
   "size" : 1,
   "source_file" : "system/core/libutils/include/utils/Flattenable.h",
   "template_args" : [ "_ZTIN7android22FrameEventHistoryDeltaE" ]
  },
  {
   "alignment" : 1,
   "linker_set_key" : "_ZTIN7android11FlattenableINS_5FenceEEE",
   "name" : "android::Flattenable<android::Fence>",
   "record_kind" : "class",
   "referenced_type" : "_ZTIN7android11FlattenableINS_5FenceEEE",
   "self_type" : "_ZTIN7android11FlattenableINS_5FenceEEE",
   "size" : 1,
   "source_file" : "system/core/libutils/include/utils/Flattenable.h",
   "template_args" : [ "_ZTIN7android5FenceE" ]
  },
  {
   "alignment" : 1,
   "linker_set_key" : "_ZTIN7android11FlattenableINS_9FenceTime8SnapshotEEE",
   "name" : "android::Flattenable<android::FenceTime::Snapshot>",
   "record_kind" : "class",
   "referenced_type" : "_ZTIN7android11FlattenableINS_9FenceTime8SnapshotEEE",
   "self_type" : "_ZTIN7android11FlattenableINS_9FenceTime8SnapshotEEE",
   "size" : 1,
   "source_file" : "system/core/libutils/include/utils/Flattenable.h",
   "template_args" : [ "_ZTIN7android9FenceTime8SnapshotE" ]
  },
  {
   "alignment" : 8,
   "fields" :
   [
    {
     "field_name" : "valid",
     "referenced_type" : "_ZTIb"
    },
    {
     "field_name" : "connectId",
     "field_offset" : 32,
     "referenced_type" : "_ZTIi"
    },
    {
     "field_name" : "frameNumber",
     "field_offset" : 64,
     "referenced_type" : "_ZTIy"
    },
    {
     "field_name" : "addPostCompositeCalled",
     "field_offset" : 128,
     "referenced_type" : "_ZTIb"
    },
    {
     "field_name" : "addReleaseCalled",
     "field_offset" : 136,
     "referenced_type" : "_ZTIb"
    },
    {
     "field_name" : "postedTime",
     "field_offset" : 192,
     "referenced_type" : "_ZTIx"
    },
    {
     "field_name" : "requestedPresentTime",
     "field_offset" : 256,
     "referenced_type" : "_ZTIx"
    },
    {
     "field_name" : "latchTime",
     "field_offset" : 320,
     "referenced_type" : "_ZTIx"
    },
    {
     "field_name" : "firstRefreshStartTime",
     "field_offset" : 384,
     "referenced_type" : "_ZTIx"
    },
    {
     "field_name" : "lastRefreshStartTime",
     "field_offset" : 448,
     "referenced_type" : "_ZTIx"
    },
    {
     "field_name" : "dequeueReadyTime",
     "field_offset" : 512,
     "referenced_type" : "_ZTIx"
    },
    {
     "field_name" : "acquireFence",
     "field_offset" : 576,
     "referenced_type" : "_ZTINSt3__110shared_ptrIN7android9FenceTimeEEE"
    },
    {
     "field_name" : "gpuCompositionDoneFence",
     "field_offset" : 640,
     "referenced_type" : "_ZTINSt3__110shared_ptrIN7android9FenceTimeEEE"
    },
    {
     "field_name" : "displayPresentFence",
     "field_offset" : 704,
     "referenced_type" : "_ZTINSt3__110shared_ptrIN7android9FenceTimeEEE"
    },
    {
     "field_name" : "releaseFence",
     "field_offset" : 768,
     "referenced_type" : "_ZTINSt3__110shared_ptrIN7android9FenceTimeEEE"
    }
   ],
   "linker_set_key" : "_ZTIN7android11FrameEventsE",
   "name" : "android::FrameEvents",
   "referenced_type" : "_ZTIN7android11FrameEventsE",
   "self_type" : "_ZTIN7android11FrameEventsE",
   "size" : 104,
   "source_file" : "frameworks/native/libs/gui/include/gui/FrameTimestamps.h"
  },
  {
   "alignment" : 4,
   "fields" :
   [
    {
     "access" : "private",
     "field_name" : "mCount",
     "referenced_type" : "_ZTINSt3__16atomicIiEE"
    }
   ],
   "linker_set_key" : "_ZTIN7android12LightRefBaseINS_19VirtualLightRefBaseEEE",
   "name" : "android::LightRefBase<android::VirtualLightRefBase>",
   "record_kind" : "class",
   "referenced_type" : "_ZTIN7android12LightRefBaseINS_19VirtualLightRefBaseEEE",
   "self_type" : "_ZTIN7android12LightRefBaseINS_19VirtualLightRefBaseEEE",
   "size" : 4,
   "source_file" : "system/core/libutils/include/utils/LightRefBase.h",
   "template_args" : [ "_ZTIN7android19VirtualLightRefBaseE" ]
  },
  {
   "alignment" : 4,
   "fields" :
   [
    {
     "access" : "private",
     "field_name" : "mCount",
     "referenced_type" : "_ZTINSt3__16atomicIiEE"
    }
   ],
   "linker_set_key" : "_ZTIN7android12LightRefBaseINS_5FenceEEE",
   "name" : "android::LightRefBase<android::Fence>",
   "record_kind" : "class",
   "referenced_type" : "_ZTIN7android12LightRefBaseINS_5FenceEEE",
   "self_type" : "_ZTIN7android12LightRefBaseINS_5FenceEEE",
   "size" : 4,
   "source_file" : "system/core/libutils/include/utils/LightRefBase.h",
   "template_args" : [ "_ZTIN7android5FenceE" ]
  },
  {
   "alignment" : 4,
   "fields" :
   [
    {
     "access" : "private",
     "field_name" : "mMutex",
     "referenced_type" : "_ZTINSt3__15mutexE"
    },
    {
     "access" : "private",
     "field_name" : "mQueue",
     "field_offset" : 32,
     "referenced_type" : "_ZTINSt3__15queueINS_8weak_ptrIN7android9FenceTimeEEENS_5dequeIS4_NS_9allocatorIS4_EEEEEE"
    }
   ],
   "linker_set_key" : "_ZTIN7android13FenceTimelineE",
   "name" : "android::FenceTimeline",
   "record_kind" : "class",
   "referenced_type" : "_ZTIN7android13FenceTimelineE",
   "self_type" : "_ZTIN7android13FenceTimelineE",
   "size" : 28,
   "source_file" : "frameworks/native/libs/ui/include/ui/FenceTime.h"
  },
  {
   "alignment" : 1,
   "linker_set_key" : "_ZTIN7android14ReferenceMoverE",
   "name" : "android::ReferenceMover",
   "record_kind" : "class",
   "referenced_type" : "_ZTIN7android14ReferenceMoverE",
   "self_type" : "_ZTIN7android14ReferenceMoverE",
   "size" : 1,
   "source_file" : "system/core/libutils/include/utils/RefBase.h"
  },
  {
   "alignment" : 8,
   "fields" :
   [
    {
     "field_name" : "deadline",
     "referenced_type" : "_ZTIx"
    },
    {
     "field_name" : "interval",
     "field_offset" : 64,
     "referenced_type" : "_ZTIx"
    },
    {
     "field_name" : "presentLatency",
     "field_offset" : 128,
     "referenced_type" : "_ZTIx"
    }
   ],
   "linker_set_key" : "_ZTIN7android16CompositorTimingE",
   "name" : "android::CompositorTiming",
   "referenced_type" : "_ZTIN7android16CompositorTimingE",
   "self_type" : "_ZTIN7android16CompositorTimingE",
   "size" : 24,
   "source_file" : "frameworks/native/libs/gui/include/gui/FrameTimestamps.h"
  },
  {
   "alignment" : 1,
   "linker_set_key" : "_ZTIN7android16FlattenableUtilsE",
   "name" : "android::FlattenableUtils",
   "record_kind" : "class",
   "referenced_type" : "_ZTIN7android16FlattenableUtilsE",
   "self_type" : "_ZTIN7android16FlattenableUtilsE",
   "size" : 1,
   "source_file" : "system/core/libutils/include/utils/Flattenable.h"
  },
  {
   "alignment" : 8,
   "base_specifiers" :
   [
    {
     "referenced_type" : "_ZTIN7android11FlattenableINS_16FrameEventsDeltaEEE"
    }
   ],
   "fields" :
   [
    {
     "access" : "private",
     "field_name" : "mIndex",
     "referenced_type" : "_ZTIj"
    },
    {
     "access" : "private",
     "field_name" : "mFrameNumber",
     "field_offset" : 64,
     "referenced_type" : "_ZTIy"
    },
    {
     "access" : "private",
     "field_name" : "mAddPostCompositeCalled",
     "field_offset" : 128,
     "referenced_type" : "_ZTIb"
    },
    {
     "access" : "private",
     "field_name" : "mAddReleaseCalled",
     "field_offset" : 136,
     "referenced_type" : "_ZTIb"
    },
    {
     "access" : "private",
     "field_name" : "mPostedTime",
     "field_offset" : 192,
     "referenced_type" : "_ZTIx"
    },
    {
     "access" : "private",
     "field_name" : "mRequestedPresentTime",
     "field_offset" : 256,
     "referenced_type" : "_ZTIx"
    },
    {
     "access" : "private",
     "field_name" : "mLatchTime",
     "field_offset" : 320,
     "referenced_type" : "_ZTIx"
    },
    {
     "access" : "private",
     "field_name" : "mFirstRefreshStartTime",
     "field_offset" : 384,
     "referenced_type" : "_ZTIx"
    },
    {
     "access" : "private",
     "field_name" : "mLastRefreshStartTime",
     "field_offset" : 448,
     "referenced_type" : "_ZTIx"
    },
    {
     "access" : "private",
     "field_name" : "mDequeueReadyTime",
     "field_offset" : 512,
     "referenced_type" : "_ZTIx"
    },
    {
     "access" : "private",
     "field_name" : "mGpuCompositionDoneFence",
     "field_offset" : 576,
     "referenced_type" : "_ZTIN7android9FenceTime8SnapshotE"
    },
    {
     "access" : "private",
     "field_name" : "mDisplayPresentFence",
     "field_offset" : 704,
     "referenced_type" : "_ZTIN7android9FenceTime8SnapshotE"
    },
    {
     "access" : "private",
     "field_name" : "mReleaseFence",
     "field_offset" : 832,
     "referenced_type" : "_ZTIN7android9FenceTime8SnapshotE"
    }
   ],
   "linker_set_key" : "_ZTIN7android16FrameEventsDeltaE",
   "name" : "android::FrameEventsDelta",
   "record_kind" : "class",
   "referenced_type" : "_ZTIN7android16FrameEventsDeltaE",
   "self_type" : "_ZTIN7android16FrameEventsDeltaE",
   "size" : 120,
   "source_file" : "frameworks/native/libs/gui/include/gui/FrameTimestamps.h"
  },
  {
   "alignment" : 4,
   "linker_set_key" : "_ZTIN7android16ReferenceRenamerE",
   "name" : "android::ReferenceRenamer",
   "record_kind" : "class",
   "referenced_type" : "_ZTIN7android16ReferenceRenamerE",
   "self_type" : "_ZTIN7android16ReferenceRenamerE",
   "size" : 4,
   "source_file" : "system/core/libutils/include/utils/RefBase.h",
   "vtable_components" :
   [
    {
     "kind" : "offset_to_top"
    },
    {
     "kind" : "rtti",
     "mangled_component_name" : "_ZTIN7android16ReferenceRenamerE"
    },
    {
     "is_pure" : true,
     "mangled_component_name" : "_ZNK7android16ReferenceRenamerclEj"
    }
   ]
  },
  {
   "alignment" : 8,
   "fields" :
   [
    {
     "access" : "protected",
     "field_name" : "mFrames",
     "field_offset" : 32,
     "referenced_type" : "_ZTINSt3__16vectorIN7android11FrameEventsENS_9allocatorIS2_EEEE"
    },
    {
     "access" : "protected",
     "field_name" : "mCompositorTiming",
     "field_offset" : 128,
     "referenced_type" : "_ZTIN7android16CompositorTimingE"
    }
   ],
   "linker_set_key" : "_ZTIN7android17FrameEventHistoryE",
   "name" : "android::FrameEventHistory",
   "record_kind" : "class",
   "referenced_type" : "_ZTIN7android17FrameEventHistoryE",
   "self_type" : "_ZTIN7android17FrameEventHistoryE",
   "size" : 40,
   "source_file" : "frameworks/native/libs/gui/include/gui/FrameTimestamps.h",
   "vtable_components" :
   [
    {
     "kind" : "offset_to_top"
    },
    {
     "kind" : "rtti",
     "mangled_component_name" : "_ZTIN7android17FrameEventHistoryE"
    },
    {
     "kind" : "complete_dtor_pointer",
     "mangled_component_name" : "_ZN7android17FrameEventHistoryD1Ev"
    },
    {
     "kind" : "deleting_dtor_pointer",
     "mangled_component_name" : "_ZN7android17FrameEventHistoryD0Ev"
    }
   ]
  },
  {
   "alignment" : 1,
   "linker_set_key" : "_ZTIN7android18trait_trivial_copyIbEE",
   "name" : "android::trait_trivial_copy<bool>",
   "referenced_type" : "_ZTIN7android18trait_trivial_copyIbEE",
   "self_type" : "_ZTIN7android18trait_trivial_copyIbEE",
   "size" : 1,
   "source_file" : "system/core/libutils/include/utils/TypeHelpers.h",
   "template_args" : [ "_ZTIb" ]
  },
  {
   "alignment" : 1,
   "linker_set_key" : "_ZTIN7android18trait_trivial_copyIcEE",
   "name" : "android::trait_trivial_copy<char>",
   "referenced_type" : "_ZTIN7android18trait_trivial_copyIcEE",
   "self_type" : "_ZTIN7android18trait_trivial_copyIcEE",
   "size" : 1,
   "source_file" : "system/core/libutils/include/utils/TypeHelpers.h",
   "template_args" : [ "_ZTIc" ]
  },
  {
   "alignment" : 1,
   "linker_set_key" : "_ZTIN7android18trait_trivial_copyIdEE",
   "name" : "android::trait_trivial_copy<double>",
   "referenced_type" : "_ZTIN7android18trait_trivial_copyIdEE",
   "self_type" : "_ZTIN7android18trait_trivial_copyIdEE",
   "size" : 1,
   "source_file" : "system/core/libutils/include/utils/TypeHelpers.h",
   "template_args" : [ "_ZTId" ]
  },
  {
   "alignment" : 1,
   "linker_set_key" : "_ZTIN7android18trait_trivial_copyIfEE",
   "name" : "android::trait_trivial_copy<float>",
   "referenced_type" : "_ZTIN7android18trait_trivial_copyIfEE",
   "self_type" : "_ZTIN7android18trait_trivial_copyIfEE",
   "size" : 1,
   "source_file" : "system/core/libutils/include/utils/TypeHelpers.h",
   "template_args" : [ "_ZTIf" ]
  },
  {
   "alignment" : 1,
   "linker_set_key" : "_ZTIN7android18trait_trivial_copyIhEE",
   "name" : "android::trait_trivial_copy<unsigned char>",
   "referenced_type" : "_ZTIN7android18trait_trivial_copyIhEE",
   "self_type" : "_ZTIN7android18trait_trivial_copyIhEE",
   "size" : 1,
   "source_file" : "system/core/libutils/include/utils/TypeHelpers.h",
   "template_args" : [ "_ZTIh" ]
  },
  {
   "alignment" : 1,
   "linker_set_key" : "_ZTIN7android18trait_trivial_copyIiEE",
   "name" : "android::trait_trivial_copy<int>",
   "referenced_type" : "_ZTIN7android18trait_trivial_copyIiEE",
   "self_type" : "_ZTIN7android18trait_trivial_copyIiEE",
   "size" : 1,
   "source_file" : "system/core/libutils/include/utils/TypeHelpers.h",
   "template_args" : [ "_ZTIi" ]
  },
  {
   "alignment" : 1,
   "linker_set_key" : "_ZTIN7android18trait_trivial_copyIjEE",
   "name" : "android::trait_trivial_copy<unsigned int>",
   "referenced_type" : "_ZTIN7android18trait_trivial_copyIjEE",
   "self_type" : "_ZTIN7android18trait_trivial_copyIjEE",
   "size" : 1,
   "source_file" : "system/core/libutils/include/utils/TypeHelpers.h",
   "template_args" : [ "_ZTIj" ]
  },
  {
   "alignment" : 1,
   "linker_set_key" : "_ZTIN7android18trait_trivial_copyIlEE",
   "name" : "android::trait_trivial_copy<long>",
   "referenced_type" : "_ZTIN7android18trait_trivial_copyIlEE",
   "self_type" : "_ZTIN7android18trait_trivial_copyIlEE",
   "size" : 1,
   "source_file" : "system/core/libutils/include/utils/TypeHelpers.h",
   "template_args" : [ "_ZTIl" ]
  },
  {
   "alignment" : 1,
   "linker_set_key" : "_ZTIN7android18trait_trivial_copyImEE",
   "name" : "android::trait_trivial_copy<unsigned long>",
   "referenced_type" : "_ZTIN7android18trait_trivial_copyImEE",
   "self_type" : "_ZTIN7android18trait_trivial_copyImEE",
   "size" : 1,
   "source_file" : "system/core/libutils/include/utils/TypeHelpers.h",
   "template_args" : [ "_ZTIm" ]
  },
  {
   "alignment" : 1,
   "linker_set_key" : "_ZTIN7android18trait_trivial_copyIsEE",
   "name" : "android::trait_trivial_copy<short>",
   "referenced_type" : "_ZTIN7android18trait_trivial_copyIsEE",
   "self_type" : "_ZTIN7android18trait_trivial_copyIsEE",
   "size" : 1,
   "source_file" : "system/core/libutils/include/utils/TypeHelpers.h",
   "template_args" : [ "_ZTIs" ]
  },
  {
   "alignment" : 1,
   "linker_set_key" : "_ZTIN7android18trait_trivial_copyItEE",
   "name" : "android::trait_trivial_copy<unsigned short>",
   "referenced_type" : "_ZTIN7android18trait_trivial_copyItEE",
   "self_type" : "_ZTIN7android18trait_trivial_copyItEE",
   "size" : 1,
   "source_file" : "system/core/libutils/include/utils/TypeHelpers.h",
   "template_args" : [ "_ZTIt" ]
  },
  {
   "alignment" : 1,
   "linker_set_key" : "_ZTIN7android18trait_trivial_copyIvEE",
   "name" : "android::trait_trivial_copy<void>",
   "referenced_type" : "_ZTIN7android18trait_trivial_copyIvEE",
   "self_type" : "_ZTIN7android18trait_trivial_copyIvEE",
   "size" : 1,
   "source_file" : "system/core/libutils/include/utils/TypeHelpers.h",
   "template_args" : [ "_ZTIv" ]
  },
  {
   "alignment" : 1,
   "linker_set_key" : "_ZTIN7android18trait_trivial_copyIxEE",
   "name" : "android::trait_trivial_copy<long long>",
   "referenced_type" : "_ZTIN7android18trait_trivial_copyIxEE",
   "self_type" : "_ZTIN7android18trait_trivial_copyIxEE",
   "size" : 1,
   "source_file" : "system/core/libutils/include/utils/TypeHelpers.h",
   "template_args" : [ "_ZTIx" ]
  },
  {
   "alignment" : 1,
   "linker_set_key" : "_ZTIN7android18trait_trivial_copyIyEE",
   "name" : "android::trait_trivial_copy<unsigned long long>",
   "referenced_type" : "_ZTIN7android18trait_trivial_copyIyEE",
   "self_type" : "_ZTIN7android18trait_trivial_copyIyEE",
   "size" : 1,
   "source_file" : "system/core/libutils/include/utils/TypeHelpers.h",
   "template_args" : [ "_ZTIy" ]
  },
  {
   "alignment" : 1,
   "linker_set_key" : "_ZTIN7android18trait_trivial_ctorIbEE",
   "name" : "android::trait_trivial_ctor<bool>",
   "referenced_type" : "_ZTIN7android18trait_trivial_ctorIbEE",
   "self_type" : "_ZTIN7android18trait_trivial_ctorIbEE",
   "size" : 1,
   "source_file" : "system/core/libutils/include/utils/TypeHelpers.h",
   "template_args" : [ "_ZTIb" ]
  },
  {
   "alignment" : 1,
   "linker_set_key" : "_ZTIN7android18trait_trivial_ctorIcEE",
   "name" : "android::trait_trivial_ctor<char>",
   "referenced_type" : "_ZTIN7android18trait_trivial_ctorIcEE",
   "self_type" : "_ZTIN7android18trait_trivial_ctorIcEE",
   "size" : 1,
   "source_file" : "system/core/libutils/include/utils/TypeHelpers.h",
   "template_args" : [ "_ZTIc" ]
  },
  {
   "alignment" : 1,
   "linker_set_key" : "_ZTIN7android18trait_trivial_ctorIdEE",
   "name" : "android::trait_trivial_ctor<double>",
   "referenced_type" : "_ZTIN7android18trait_trivial_ctorIdEE",
   "self_type" : "_ZTIN7android18trait_trivial_ctorIdEE",
   "size" : 1,
   "source_file" : "system/core/libutils/include/utils/TypeHelpers.h",
   "template_args" : [ "_ZTId" ]
  },
  {
   "alignment" : 1,
   "linker_set_key" : "_ZTIN7android18trait_trivial_ctorIfEE",
   "name" : "android::trait_trivial_ctor<float>",
   "referenced_type" : "_ZTIN7android18trait_trivial_ctorIfEE",
   "self_type" : "_ZTIN7android18trait_trivial_ctorIfEE",
   "size" : 1,
   "source_file" : "system/core/libutils/include/utils/TypeHelpers.h",
   "template_args" : [ "_ZTIf" ]
  },
  {
   "alignment" : 1,
   "linker_set_key" : "_ZTIN7android18trait_trivial_ctorIhEE",
   "name" : "android::trait_trivial_ctor<unsigned char>",
   "referenced_type" : "_ZTIN7android18trait_trivial_ctorIhEE",
   "self_type" : "_ZTIN7android18trait_trivial_ctorIhEE",
   "size" : 1,
   "source_file" : "system/core/libutils/include/utils/TypeHelpers.h",
   "template_args" : [ "_ZTIh" ]
  },
  {
   "alignment" : 1,
   "linker_set_key" : "_ZTIN7android18trait_trivial_ctorIiEE",
   "name" : "android::trait_trivial_ctor<int>",
   "referenced_type" : "_ZTIN7android18trait_trivial_ctorIiEE",
   "self_type" : "_ZTIN7android18trait_trivial_ctorIiEE",
   "size" : 1,
   "source_file" : "system/core/libutils/include/utils/TypeHelpers.h",
   "template_args" : [ "_ZTIi" ]
  },
  {
   "alignment" : 1,
   "linker_set_key" : "_ZTIN7android18trait_trivial_ctorIjEE",
   "name" : "android::trait_trivial_ctor<unsigned int>",
   "referenced_type" : "_ZTIN7android18trait_trivial_ctorIjEE",
   "self_type" : "_ZTIN7android18trait_trivial_ctorIjEE",
   "size" : 1,
   "source_file" : "system/core/libutils/include/utils/TypeHelpers.h",
   "template_args" : [ "_ZTIj" ]
  },
  {
   "alignment" : 1,
   "linker_set_key" : "_ZTIN7android18trait_trivial_ctorIlEE",
   "name" : "android::trait_trivial_ctor<long>",
   "referenced_type" : "_ZTIN7android18trait_trivial_ctorIlEE",
   "self_type" : "_ZTIN7android18trait_trivial_ctorIlEE",
   "size" : 1,
   "source_file" : "system/core/libutils/include/utils/TypeHelpers.h",
   "template_args" : [ "_ZTIl" ]
  },
  {
   "alignment" : 1,
   "linker_set_key" : "_ZTIN7android18trait_trivial_ctorImEE",
   "name" : "android::trait_trivial_ctor<unsigned long>",
   "referenced_type" : "_ZTIN7android18trait_trivial_ctorImEE",
   "self_type" : "_ZTIN7android18trait_trivial_ctorImEE",
   "size" : 1,
   "source_file" : "system/core/libutils/include/utils/TypeHelpers.h",
   "template_args" : [ "_ZTIm" ]
  },
  {
   "alignment" : 1,
   "linker_set_key" : "_ZTIN7android18trait_trivial_ctorIsEE",
   "name" : "android::trait_trivial_ctor<short>",
   "referenced_type" : "_ZTIN7android18trait_trivial_ctorIsEE",
   "self_type" : "_ZTIN7android18trait_trivial_ctorIsEE",
   "size" : 1,
   "source_file" : "system/core/libutils/include/utils/TypeHelpers.h",
   "template_args" : [ "_ZTIs" ]
  },
  {
   "alignment" : 1,
   "linker_set_key" : "_ZTIN7android18trait_trivial_ctorItEE",
   "name" : "android::trait_trivial_ctor<unsigned short>",
   "referenced_type" : "_ZTIN7android18trait_trivial_ctorItEE",
   "self_type" : "_ZTIN7android18trait_trivial_ctorItEE",
   "size" : 1,
   "source_file" : "system/core/libutils/include/utils/TypeHelpers.h",
   "template_args" : [ "_ZTIt" ]
  },
  {
   "alignment" : 1,
   "linker_set_key" : "_ZTIN7android18trait_trivial_ctorIvEE",
   "name" : "android::trait_trivial_ctor<void>",
   "referenced_type" : "_ZTIN7android18trait_trivial_ctorIvEE",
   "self_type" : "_ZTIN7android18trait_trivial_ctorIvEE",
   "size" : 1,
   "source_file" : "system/core/libutils/include/utils/TypeHelpers.h",
   "template_args" : [ "_ZTIv" ]
  },
  {
   "alignment" : 1,
   "linker_set_key" : "_ZTIN7android18trait_trivial_ctorIxEE",
   "name" : "android::trait_trivial_ctor<long long>",
   "referenced_type" : "_ZTIN7android18trait_trivial_ctorIxEE",
   "self_type" : "_ZTIN7android18trait_trivial_ctorIxEE",
   "size" : 1,
   "source_file" : "system/core/libutils/include/utils/TypeHelpers.h",
   "template_args" : [ "_ZTIx" ]
  },
  {
   "alignment" : 1,
   "linker_set_key" : "_ZTIN7android18trait_trivial_ctorIyEE",
   "name" : "android::trait_trivial_ctor<unsigned long long>",
   "referenced_type" : "_ZTIN7android18trait_trivial_ctorIyEE",
   "self_type" : "_ZTIN7android18trait_trivial_ctorIyEE",
   "size" : 1,
   "source_file" : "system/core/libutils/include/utils/TypeHelpers.h",
   "template_args" : [ "_ZTIy" ]
  },
  {
   "alignment" : 1,
   "linker_set_key" : "_ZTIN7android18trait_trivial_dtorIbEE",
   "name" : "android::trait_trivial_dtor<bool>",
   "referenced_type" : "_ZTIN7android18trait_trivial_dtorIbEE",
   "self_type" : "_ZTIN7android18trait_trivial_dtorIbEE",
   "size" : 1,
   "source_file" : "system/core/libutils/include/utils/TypeHelpers.h",
   "template_args" : [ "_ZTIb" ]
  },
  {
   "alignment" : 1,
   "linker_set_key" : "_ZTIN7android18trait_trivial_dtorIcEE",
   "name" : "android::trait_trivial_dtor<char>",
   "referenced_type" : "_ZTIN7android18trait_trivial_dtorIcEE",
   "self_type" : "_ZTIN7android18trait_trivial_dtorIcEE",
   "size" : 1,
   "source_file" : "system/core/libutils/include/utils/TypeHelpers.h",
   "template_args" : [ "_ZTIc" ]
  },
  {
   "alignment" : 1,
   "linker_set_key" : "_ZTIN7android18trait_trivial_dtorIdEE",
   "name" : "android::trait_trivial_dtor<double>",
   "referenced_type" : "_ZTIN7android18trait_trivial_dtorIdEE",
   "self_type" : "_ZTIN7android18trait_trivial_dtorIdEE",
   "size" : 1,
   "source_file" : "system/core/libutils/include/utils/TypeHelpers.h",
   "template_args" : [ "_ZTId" ]
  },
  {
   "alignment" : 1,
   "linker_set_key" : "_ZTIN7android18trait_trivial_dtorIfEE",
   "name" : "android::trait_trivial_dtor<float>",
   "referenced_type" : "_ZTIN7android18trait_trivial_dtorIfEE",
   "self_type" : "_ZTIN7android18trait_trivial_dtorIfEE",
   "size" : 1,
   "source_file" : "system/core/libutils/include/utils/TypeHelpers.h",
   "template_args" : [ "_ZTIf" ]
  },
  {
   "alignment" : 1,
   "linker_set_key" : "_ZTIN7android18trait_trivial_dtorIhEE",
   "name" : "android::trait_trivial_dtor<unsigned char>",
   "referenced_type" : "_ZTIN7android18trait_trivial_dtorIhEE",
   "self_type" : "_ZTIN7android18trait_trivial_dtorIhEE",
   "size" : 1,
   "source_file" : "system/core/libutils/include/utils/TypeHelpers.h",
   "template_args" : [ "_ZTIh" ]
  },
  {
   "alignment" : 1,
   "linker_set_key" : "_ZTIN7android18trait_trivial_dtorIiEE",
   "name" : "android::trait_trivial_dtor<int>",
   "referenced_type" : "_ZTIN7android18trait_trivial_dtorIiEE",
   "self_type" : "_ZTIN7android18trait_trivial_dtorIiEE",
   "size" : 1,
   "source_file" : "system/core/libutils/include/utils/TypeHelpers.h",
   "template_args" : [ "_ZTIi" ]
  },
  {
   "alignment" : 1,
   "linker_set_key" : "_ZTIN7android18trait_trivial_dtorIjEE",
   "name" : "android::trait_trivial_dtor<unsigned int>",
   "referenced_type" : "_ZTIN7android18trait_trivial_dtorIjEE",
   "self_type" : "_ZTIN7android18trait_trivial_dtorIjEE",
   "size" : 1,
   "source_file" : "system/core/libutils/include/utils/TypeHelpers.h",
   "template_args" : [ "_ZTIj" ]
  },
  {
   "alignment" : 1,
   "linker_set_key" : "_ZTIN7android18trait_trivial_dtorIlEE",
   "name" : "android::trait_trivial_dtor<long>",
   "referenced_type" : "_ZTIN7android18trait_trivial_dtorIlEE",
   "self_type" : "_ZTIN7android18trait_trivial_dtorIlEE",
   "size" : 1,
   "source_file" : "system/core/libutils/include/utils/TypeHelpers.h",
   "template_args" : [ "_ZTIl" ]
  },
  {
   "alignment" : 1,
   "linker_set_key" : "_ZTIN7android18trait_trivial_dtorImEE",
   "name" : "android::trait_trivial_dtor<unsigned long>",
   "referenced_type" : "_ZTIN7android18trait_trivial_dtorImEE",
   "self_type" : "_ZTIN7android18trait_trivial_dtorImEE",
   "size" : 1,
   "source_file" : "system/core/libutils/include/utils/TypeHelpers.h",
   "template_args" : [ "_ZTIm" ]
  },
  {
   "alignment" : 1,
   "linker_set_key" : "_ZTIN7android18trait_trivial_dtorIsEE",
   "name" : "android::trait_trivial_dtor<short>",
   "referenced_type" : "_ZTIN7android18trait_trivial_dtorIsEE",
   "self_type" : "_ZTIN7android18trait_trivial_dtorIsEE",
   "size" : 1,
   "source_file" : "system/core/libutils/include/utils/TypeHelpers.h",
   "template_args" : [ "_ZTIs" ]
  },
  {
   "alignment" : 1,
   "linker_set_key" : "_ZTIN7android18trait_trivial_dtorItEE",
   "name" : "android::trait_trivial_dtor<unsigned short>",
   "referenced_type" : "_ZTIN7android18trait_trivial_dtorItEE",
   "self_type" : "_ZTIN7android18trait_trivial_dtorItEE",
   "size" : 1,
   "source_file" : "system/core/libutils/include/utils/TypeHelpers.h",
   "template_args" : [ "_ZTIt" ]
  },
  {
   "alignment" : 1,
   "linker_set_key" : "_ZTIN7android18trait_trivial_dtorIvEE",
   "name" : "android::trait_trivial_dtor<void>",
   "referenced_type" : "_ZTIN7android18trait_trivial_dtorIvEE",
   "self_type" : "_ZTIN7android18trait_trivial_dtorIvEE",
   "size" : 1,
   "source_file" : "system/core/libutils/include/utils/TypeHelpers.h",
   "template_args" : [ "_ZTIv" ]
  },
  {
   "alignment" : 1,
   "linker_set_key" : "_ZTIN7android18trait_trivial_dtorIxEE",
   "name" : "android::trait_trivial_dtor<long long>",
   "referenced_type" : "_ZTIN7android18trait_trivial_dtorIxEE",
   "self_type" : "_ZTIN7android18trait_trivial_dtorIxEE",
   "size" : 1,
   "source_file" : "system/core/libutils/include/utils/TypeHelpers.h",
   "template_args" : [ "_ZTIx" ]
  },
  {
   "alignment" : 1,
   "linker_set_key" : "_ZTIN7android18trait_trivial_dtorIyEE",
   "name" : "android::trait_trivial_dtor<unsigned long long>",
   "referenced_type" : "_ZTIN7android18trait_trivial_dtorIyEE",
   "self_type" : "_ZTIN7android18trait_trivial_dtorIyEE",
   "size" : 1,
   "source_file" : "system/core/libutils/include/utils/TypeHelpers.h",
   "template_args" : [ "_ZTIy" ]
  },
  {
   "alignment" : 1,
   "linker_set_key" : "_ZTIN7android18trait_trivial_moveIbEE",
   "name" : "android::trait_trivial_move<bool>",
   "referenced_type" : "_ZTIN7android18trait_trivial_moveIbEE",
   "self_type" : "_ZTIN7android18trait_trivial_moveIbEE",
   "size" : 1,
   "source_file" : "system/core/libutils/include/utils/TypeHelpers.h",
   "template_args" : [ "_ZTIb" ]
  },
  {
   "alignment" : 1,
   "linker_set_key" : "_ZTIN7android18trait_trivial_moveIcEE",
   "name" : "android::trait_trivial_move<char>",
   "referenced_type" : "_ZTIN7android18trait_trivial_moveIcEE",
   "self_type" : "_ZTIN7android18trait_trivial_moveIcEE",
   "size" : 1,
   "source_file" : "system/core/libutils/include/utils/TypeHelpers.h",
   "template_args" : [ "_ZTIc" ]
  },
  {
   "alignment" : 1,
   "linker_set_key" : "_ZTIN7android18trait_trivial_moveIdEE",
   "name" : "android::trait_trivial_move<double>",
   "referenced_type" : "_ZTIN7android18trait_trivial_moveIdEE",
   "self_type" : "_ZTIN7android18trait_trivial_moveIdEE",
   "size" : 1,
   "source_file" : "system/core/libutils/include/utils/TypeHelpers.h",
   "template_args" : [ "_ZTId" ]
  },
  {
   "alignment" : 1,
   "linker_set_key" : "_ZTIN7android18trait_trivial_moveIfEE",
   "name" : "android::trait_trivial_move<float>",
   "referenced_type" : "_ZTIN7android18trait_trivial_moveIfEE",
   "self_type" : "_ZTIN7android18trait_trivial_moveIfEE",
   "size" : 1,
   "source_file" : "system/core/libutils/include/utils/TypeHelpers.h",
   "template_args" : [ "_ZTIf" ]
  },
  {
   "alignment" : 1,
   "linker_set_key" : "_ZTIN7android18trait_trivial_moveIhEE",
   "name" : "android::trait_trivial_move<unsigned char>",
   "referenced_type" : "_ZTIN7android18trait_trivial_moveIhEE",
   "self_type" : "_ZTIN7android18trait_trivial_moveIhEE",
   "size" : 1,
   "source_file" : "system/core/libutils/include/utils/TypeHelpers.h",
   "template_args" : [ "_ZTIh" ]
  },
  {
   "alignment" : 1,
   "linker_set_key" : "_ZTIN7android18trait_trivial_moveIiEE",
   "name" : "android::trait_trivial_move<int>",
   "referenced_type" : "_ZTIN7android18trait_trivial_moveIiEE",
   "self_type" : "_ZTIN7android18trait_trivial_moveIiEE",
   "size" : 1,
   "source_file" : "system/core/libutils/include/utils/TypeHelpers.h",
   "template_args" : [ "_ZTIi" ]
  },
  {
   "alignment" : 1,
   "linker_set_key" : "_ZTIN7android18trait_trivial_moveIjEE",
   "name" : "android::trait_trivial_move<unsigned int>",
   "referenced_type" : "_ZTIN7android18trait_trivial_moveIjEE",
   "self_type" : "_ZTIN7android18trait_trivial_moveIjEE",
   "size" : 1,
   "source_file" : "system/core/libutils/include/utils/TypeHelpers.h",
   "template_args" : [ "_ZTIj" ]
  },
  {
   "alignment" : 1,
   "linker_set_key" : "_ZTIN7android18trait_trivial_moveIlEE",
   "name" : "android::trait_trivial_move<long>",
   "referenced_type" : "_ZTIN7android18trait_trivial_moveIlEE",
   "self_type" : "_ZTIN7android18trait_trivial_moveIlEE",
   "size" : 1,
   "source_file" : "system/core/libutils/include/utils/TypeHelpers.h",
   "template_args" : [ "_ZTIl" ]
  },
  {
   "alignment" : 1,
   "linker_set_key" : "_ZTIN7android18trait_trivial_moveImEE",
   "name" : "android::trait_trivial_move<unsigned long>",
   "referenced_type" : "_ZTIN7android18trait_trivial_moveImEE",
   "self_type" : "_ZTIN7android18trait_trivial_moveImEE",
   "size" : 1,
   "source_file" : "system/core/libutils/include/utils/TypeHelpers.h",
   "template_args" : [ "_ZTIm" ]
  },
  {
   "alignment" : 1,
   "linker_set_key" : "_ZTIN7android18trait_trivial_moveIsEE",
   "name" : "android::trait_trivial_move<short>",
   "referenced_type" : "_ZTIN7android18trait_trivial_moveIsEE",
   "self_type" : "_ZTIN7android18trait_trivial_moveIsEE",
   "size" : 1,
   "source_file" : "system/core/libutils/include/utils/TypeHelpers.h",
   "template_args" : [ "_ZTIs" ]
  },
  {
   "alignment" : 1,
   "linker_set_key" : "_ZTIN7android18trait_trivial_moveItEE",
   "name" : "android::trait_trivial_move<unsigned short>",
   "referenced_type" : "_ZTIN7android18trait_trivial_moveItEE",
   "self_type" : "_ZTIN7android18trait_trivial_moveItEE",
   "size" : 1,
   "source_file" : "system/core/libutils/include/utils/TypeHelpers.h",
   "template_args" : [ "_ZTIt" ]
  },
  {
   "alignment" : 1,
   "linker_set_key" : "_ZTIN7android18trait_trivial_moveIvEE",
   "name" : "android::trait_trivial_move<void>",
   "referenced_type" : "_ZTIN7android18trait_trivial_moveIvEE",
   "self_type" : "_ZTIN7android18trait_trivial_moveIvEE",
   "size" : 1,
   "source_file" : "system/core/libutils/include/utils/TypeHelpers.h",
   "template_args" : [ "_ZTIv" ]
  },
  {
   "alignment" : 1,
   "linker_set_key" : "_ZTIN7android18trait_trivial_moveIxEE",
   "name" : "android::trait_trivial_move<long long>",
   "referenced_type" : "_ZTIN7android18trait_trivial_moveIxEE",
   "self_type" : "_ZTIN7android18trait_trivial_moveIxEE",
   "size" : 1,
   "source_file" : "system/core/libutils/include/utils/TypeHelpers.h",
   "template_args" : [ "_ZTIx" ]
  },
  {
   "alignment" : 1,
   "linker_set_key" : "_ZTIN7android18trait_trivial_moveIyEE",
   "name" : "android::trait_trivial_move<unsigned long long>",
   "referenced_type" : "_ZTIN7android18trait_trivial_moveIyEE",
   "self_type" : "_ZTIN7android18trait_trivial_moveIyEE",
   "size" : 1,
   "source_file" : "system/core/libutils/include/utils/TypeHelpers.h",
   "template_args" : [ "_ZTIy" ]
  },
  {
   "alignment" : 4,
   "fields" :
   [
    {
     "access" : "private",
     "field_name" : "mMutex",
     "referenced_type" : "_ZTINSt3__15mutexE"
    },
    {
     "access" : "private",
     "field_name" : "mMap",
     "field_offset" : 32,
     "referenced_type" : "_ZTINSt3__113unordered_mapIPN7android5FenceENS_6vectorINS_8weak_ptrINS1_9FenceTimeEEENS_9allocatorIS7_EEEENS_4hashIS3_EENS_8equal_toIS3_EENS8_INS_4pairIKS3_SA_EEEEEE"
    }
   ],
   "linker_set_key" : "_ZTIN7android19FenceToFenceTimeMapE",
   "name" : "android::FenceToFenceTimeMap",
   "record_kind" : "class",
   "referenced_type" : "_ZTIN7android19FenceToFenceTimeMapE",
   "self_type" : "_ZTIN7android19FenceToFenceTimeMapE",
   "size" : 24,
   "source_file" : "frameworks/native/libs/ui/include/ui/FenceTime.h"
  },
  {
   "alignment" : 8,
   "fields" :
   [
    {
     "field_name" : "frameNumber",
     "referenced_type" : "_ZTIy"
    },
    {
     "field_name" : "postedTime",
     "field_offset" : 64,
     "referenced_type" : "_ZTIx"
    },
    {
     "field_name" : "requestedPresentTime",
     "field_offset" : 128,
     "referenced_type" : "_ZTIx"
    },
    {
     "field_name" : "acquireFence",
     "field_offset" : 192,
     "referenced_type" : "_ZTINSt3__110shared_ptrIN7android9FenceTimeEEE"
    }
   ],
   "linker_set_key" : "_ZTIN7android19NewFrameEventsEntryE",
   "name" : "android::NewFrameEventsEntry",
   "referenced_type" : "_ZTIN7android19NewFrameEventsEntryE",
   "self_type" : "_ZTIN7android19NewFrameEventsEntryE",
   "size" : 32,
   "source_file" : "frameworks/native/libs/gui/include/gui/FrameTimestamps.h"
  },
  {
   "alignment" : 4,
   "base_specifiers" :
   [
    {
     "referenced_type" : "_ZTIN7android12LightRefBaseINS_19VirtualLightRefBaseEEE"
    }
   ],
   "linker_set_key" : "_ZTIN7android19VirtualLightRefBaseE",
   "name" : "android::VirtualLightRefBase",
   "record_kind" : "class",
   "referenced_type" : "_ZTIN7android19VirtualLightRefBaseE",
   "self_type" : "_ZTIN7android19VirtualLightRefBaseE",
   "size" : 8,
   "source_file" : "system/core/libutils/include/utils/LightRefBase.h",
   "vtable_components" :
   [
    {
     "kind" : "offset_to_top"
    },
    {
     "kind" : "rtti",
     "mangled_component_name" : "_ZTIN7android19VirtualLightRefBaseE"
    },
    {
     "kind" : "complete_dtor_pointer",
     "mangled_component_name" : "_ZN7android19VirtualLightRefBaseD1Ev"
    },
    {
     "kind" : "deleting_dtor_pointer",
     "mangled_component_name" : "_ZN7android19VirtualLightRefBaseD0Ev"
    }
   ]
  },
  {
   "alignment" : 4,
   "fields" :
   [
    {
     "access" : "private",
     "field_name" : "mBitset",
     "referenced_type" : "_ZTINSt3__16bitsetILj10EEE"
    }
   ],
   "linker_set_key" : "_ZTIN7android21FrameEventDirtyFieldsE",
   "name" : "android::FrameEventDirtyFields",
   "record_kind" : "class",
   "referenced_type" : "_ZTIN7android21FrameEventDirtyFieldsE",
   "self_type" : "_ZTIN7android21FrameEventDirtyFieldsE",
   "size" : 4,
   "source_file" : "frameworks/native/libs/gui/include/gui/FrameTimestamps.h"
  },
  {
   "alignment" : 8,
   "base_specifiers" :
   [
    {
     "referenced_type" : "_ZTIN7android11FlattenableINS_22FrameEventHistoryDeltaEEE"
    }
   ],
   "fields" :
   [
    {
     "access" : "private",
     "field_name" : "mDeltas",
     "referenced_type" : "_ZTINSt3__16vectorIN7android16FrameEventsDeltaENS_9allocatorIS2_EEEE"
    },
    {
     "access" : "private",
     "field_name" : "mCompositorTiming",
     "field_offset" : 128,
     "referenced_type" : "_ZTIN7android16CompositorTimingE"
    }
   ],
   "linker_set_key" : "_ZTIN7android22FrameEventHistoryDeltaE",
   "name" : "android::FrameEventHistoryDelta",
   "record_kind" : "class",
   "referenced_type" : "_ZTIN7android22FrameEventHistoryDeltaE",
   "self_type" : "_ZTIN7android22FrameEventHistoryDeltaE",
   "size" : 40,
   "source_file" : "frameworks/native/libs/gui/include/gui/FrameTimestamps.h"
  },
  {
   "alignment" : 8,
   "base_specifiers" :
   [
    {
     "referenced_type" : "_ZTIN7android17FrameEventHistoryE"
    }
   ],
   "fields" :
   [
    {
     "access" : "private",
     "field_name" : "mFramesDirty",
     "field_offset" : 320,
     "referenced_type" : "_ZTINSt3__16vectorIN7android21FrameEventDirtyFieldsENS_9allocatorIS2_EEEE"
    },
    {
     "access" : "private",
     "field_name" : "mQueueOffset",
     "field_offset" : 416,
     "referenced_type" : "_ZTIj"
    },
    {
     "access" : "private",
     "field_name" : "mCompositionOffset",
     "field_offset" : 448,
     "referenced_type" : "_ZTIj"
    },
    {
     "access" : "private",
     "field_name" : "mReleaseOffset",
     "field_offset" : 480,
     "referenced_type" : "_ZTIj"
    },
    {
     "access" : "private",
     "field_name" : "mCurrentConnectId",
     "field_offset" : 512,
     "referenced_type" : "_ZTIi"
    },
    {
     "access" : "private",
     "field_name" : "mProducerWantsEvents",
     "field_offset" : 544,
     "referenced_type" : "_ZTIb"
    }
   ],
   "linker_set_key" : "_ZTIN7android25ConsumerFrameEventHistoryE",
   "name" : "android::ConsumerFrameEventHistory",
   "record_kind" : "class",
   "referenced_type" : "_ZTIN7android25ConsumerFrameEventHistoryE",
   "self_type" : "_ZTIN7android25ConsumerFrameEventHistoryE",
   "size" : 72,
   "source_file" : "frameworks/native/libs/gui/include/gui/FrameTimestamps.h",
   "vtable_components" :
   [
    {
     "kind" : "offset_to_top"
    },
    {
     "kind" : "rtti",
     "mangled_component_name" : "_ZTIN7android25ConsumerFrameEventHistoryE"
    },
    {
     "kind" : "complete_dtor_pointer",
     "mangled_component_name" : "_ZN7android25ConsumerFrameEventHistoryD1Ev"
    },
    {
     "kind" : "deleting_dtor_pointer",
     "mangled_component_name" : "_ZN7android25ConsumerFrameEventHistoryD0Ev"
    }
   ]
  },
  {
   "alignment" : 8,
   "base_specifiers" :
   [
    {
     "referenced_type" : "_ZTIN7android17FrameEventHistoryE"
    }
   ],
   "fields" :
   [
    {
     "access" : "protected",
     "field_name" : "mAcquireOffset",
     "field_offset" : 320,
     "referenced_type" : "_ZTIj"
    },
    {
     "access" : "protected",
     "field_name" : "mAcquireTimeline",
     "field_offset" : 352,
     "referenced_type" : "_ZTIN7android13FenceTimelineE"
    },
    {
     "access" : "protected",
     "field_name" : "mGpuCompositionDoneTimeline",
     "field_offset" : 576,
     "referenced_type" : "_ZTIN7android13FenceTimelineE"
    },
    {
     "access" : "protected",
     "field_name" : "mPresentTimeline",
     "field_offset" : 800,
     "referenced_type" : "_ZTIN7android13FenceTimelineE"
    },
    {
     "access" : "protected",
     "field_name" : "mReleaseTimeline",
     "field_offset" : 1024,
     "referenced_type" : "_ZTIN7android13FenceTimelineE"
    }
   ],
   "linker_set_key" : "_ZTIN7android25ProducerFrameEventHistoryE",
   "name" : "android::ProducerFrameEventHistory",
   "record_kind" : "class",
   "referenced_type" : "_ZTIN7android25ProducerFrameEventHistoryE",
   "self_type" : "_ZTIN7android25ProducerFrameEventHistoryE",
   "size" : 160,
   "source_file" : "frameworks/native/libs/gui/include/gui/FrameTimestamps.h",
   "vtable_components" :
   [
    {
     "kind" : "offset_to_top"
    },
    {
     "kind" : "rtti",
     "mangled_component_name" : "_ZTIN7android25ProducerFrameEventHistoryE"
    },
    {
     "kind" : "complete_dtor_pointer",
     "mangled_component_name" : "_ZN7android25ProducerFrameEventHistoryD1Ev"
    },
    {
     "kind" : "deleting_dtor_pointer",
     "mangled_component_name" : "_ZN7android25ProducerFrameEventHistoryD0Ev"
    },
    {
     "mangled_component_name" : "_ZN7android25ProducerFrameEventHistory18updateAcquireFenceEyONSt3__110shared_ptrINS_9FenceTimeEEE"
    },
    {
     "mangled_component_name" : "_ZNK7android25ProducerFrameEventHistory15createFenceTimeERKNS_2spINS_5FenceEEE"
    }
   ]
  },
  {
   "alignment" : 4,
   "fields" :
   [
    {
     "access" : "private",
     "field_name" : "m_ptr",
     "referenced_type" : "_ZTIPN7android5FenceE"
    }
   ],
   "linker_set_key" : "_ZTIN7android2spINS_5FenceEEE",
   "name" : "android::sp<android::Fence>",
   "record_kind" : "class",
   "referenced_type" : "_ZTIN7android2spINS_5FenceEEE",
   "self_type" : "_ZTIN7android2spINS_5FenceEEE",
   "size" : 4,
   "source_file" : "system/core/libutils/include/utils/StrongPointer.h",
   "template_args" : [ "_ZTIN7android5FenceE" ]
  },
  {
   "alignment" : 4,
   "fields" :
   [
    {
     "access" : "private",
     "field_name" : "fd_",
     "referenced_type" : "_ZTIi"
    }
   ],
   "linker_set_key" : "_ZTIN7android4base11borrowed_fdE",
   "name" : "android::base::borrowed_fd",
   "referenced_type" : "_ZTIN7android4base11borrowed_fdE",
   "self_type" : "_ZTIN7android4base11borrowed_fdE",
   "size" : 4,
   "source_file" : "system/libbase/include/android-base/unique_fd.h"
  },
  {
   "alignment" : 1,
   "linker_set_key" : "_ZTIN7android4base13DefaultCloserE",
   "name" : "android::base::DefaultCloser",
   "referenced_type" : "_ZTIN7android4base13DefaultCloserE",
   "self_type" : "_ZTIN7android4base13DefaultCloserE",
   "size" : 1,
   "source_file" : "system/libbase/include/android-base/unique_fd.h"
  },
  {
   "alignment" : 4,
   "fields" :
   [
    {
     "access" : "private",
     "field_name" : "fd_",
     "referenced_type" : "_ZTIi"
    }
   ],
   "linker_set_key" : "_ZTIN7android4base14unique_fd_implINS0_13DefaultCloserEEE",
   "name" : "android::base::unique_fd_impl<android::base::DefaultCloser>",
   "record_kind" : "class",
   "referenced_type" : "_ZTIN7android4base14unique_fd_implINS0_13DefaultCloserEEE",
   "self_type" : "_ZTIN7android4base14unique_fd_implINS0_13DefaultCloserEEE",
   "size" : 4,
   "source_file" : "system/libbase/include/android-base/unique_fd.h",
   "template_args" : [ "_ZTIN7android4base13DefaultCloserE" ]
  },
  {
   "alignment" : 4,
   "base_specifiers" :
   [
    {
     "referenced_type" : "_ZTIN7android12LightRefBaseINS_5FenceEEE"
    },
    {
     "referenced_type" : "_ZTIN7android11FlattenableINS_5FenceEEE"
    }
   ],
   "fields" :
   [
    {
     "access" : "private",
     "field_name" : "mFenceFd",
     "field_offset" : 32,
     "referenced_type" : "_ZTIN7android4base14unique_fd_implINS0_13DefaultCloserEEE"
    }
   ],
   "linker_set_key" : "_ZTIN7android5FenceE",
   "name" : "android::Fence",
   "record_kind" : "class",
   "referenced_type" : "_ZTIN7android5FenceE",
   "self_type" : "_ZTIN7android5FenceE",
   "size" : 8,
   "source_file" : "frameworks/native/libs/ui/include/ui/Fence.h"
  },
  {
   "alignment" : 4,
   "fields" :
   [
    {
     "access" : "private",
     "field_name" : "mLock",
     "referenced_type" : "_ZTIRN7android5MutexE"
    }
   ],
   "linker_set_key" : "_ZTIN7android5Mutex8AutolockE",
   "name" : "android::Mutex::Autolock",
   "record_kind" : "class",
   "referenced_type" : "_ZTIN7android5Mutex8AutolockE",
   "self_type" : "_ZTIN7android5Mutex8AutolockE",
   "size" : 4,
   "source_file" : "system/core/libutils/include/utils/Mutex.h"
  },
  {
   "alignment" : 4,
   "fields" :
   [
    {
     "access" : "private",
     "field_name" : "mMutex",
     "referenced_type" : "_ZTI15pthread_mutex_t"
    }
   ],
   "linker_set_key" : "_ZTIN7android5MutexE",
   "name" : "android::Mutex",
   "record_kind" : "class",
   "referenced_type" : "_ZTIN7android5MutexE",
   "self_type" : "_ZTIN7android5MutexE",
   "size" : 4,
   "source_file" : "system/core/libutils/include/utils/Mutex.h"
  },
  {
   "alignment" : 1,
   "linker_set_key" : "_ZTIN7android7RefBase12weakref_typeE",
   "name" : "android::RefBase::weakref_type",
   "record_kind" : "class",
   "referenced_type" : "_ZTIN7android7RefBase12weakref_typeE",
   "self_type" : "_ZTIN7android7RefBase12weakref_typeE",
   "size" : 1,
   "source_file" : "system/core/libutils/include/utils/RefBase.h"
  },
  {
   "alignment" : 4,
   "fields" :
   [
    {
     "access" : "private",
     "field_name" : "mRefs",
     "field_offset" : 32,
     "referenced_type" : "_ZTIKPN7android7RefBase12weakref_implE"
    }
   ],
   "linker_set_key" : "_ZTIN7android7RefBaseE",
   "name" : "android::RefBase",
   "record_kind" : "class",
   "referenced_type" : "_ZTIN7android7RefBaseE",
   "self_type" : "_ZTIN7android7RefBaseE",
   "size" : 8,
   "source_file" : "system/core/libutils/include/utils/RefBase.h",
   "vtable_components" :
   [
    {
     "kind" : "offset_to_top"
    },
    {
     "kind" : "rtti",
     "mangled_component_name" : "_ZTIN7android7RefBaseE"
    },
    {
     "kind" : "complete_dtor_pointer",
     "mangled_component_name" : "_ZN7android7RefBaseD1Ev"
    },
    {
     "kind" : "deleting_dtor_pointer",
     "mangled_component_name" : "_ZN7android7RefBaseD0Ev"
    },
    {
     "mangled_component_name" : "_ZN7android7RefBase10onFirstRefEv"
    },
    {
     "mangled_component_name" : "_ZN7android7RefBase15onLastStrongRefEPKv"
    },
    {
     "mangled_component_name" : "_ZN7android7RefBase20onIncStrongAttemptedEjPKv"
    },
    {
     "mangled_component_name" : "_ZN7android7RefBase13onLastWeakRefEPKv"
    }
   ]
  },
  {
   "alignment" : 8,
   "base_specifiers" :
   [
    {
     "referenced_type" : "_ZTIN7android11FlattenableINS_9FenceTime8SnapshotEEE"
    }
   ],
   "fields" :
   [
    {
     "field_name" : "state",
     "referenced_type" : "_ZTIN7android9FenceTime8Snapshot5StateE"
    },
    {
     "field_name" : "fence",
     "field_offset" : 32,
     "referenced_type" : "_ZTIN7android2spINS_5FenceEEE"
    },
    {
     "field_name" : "signalTime",
     "field_offset" : 64,
     "referenced_type" : "_ZTIx"
    }
   ],
   "linker_set_key" : "_ZTIN7android9FenceTime8SnapshotE",
   "name" : "android::FenceTime::Snapshot",
   "referenced_type" : "_ZTIN7android9FenceTime8SnapshotE",
   "self_type" : "_ZTIN7android9FenceTime8SnapshotE",
   "size" : 16,
   "source_file" : "frameworks/native/libs/ui/include/ui/FenceTime.h"
  },
  {
   "alignment" : 8,
   "fields" :
   [
    {
     "access" : "private",
     "field_name" : "mState",
     "referenced_type" : "_ZTIKN7android9FenceTime5StateE"
    },
    {
     "access" : "private",
     "field_name" : "mMutex",
     "field_offset" : 32,
     "referenced_type" : "_ZTINSt3__15mutexE"
    },
    {
     "access" : "private",
     "field_name" : "mFence",
     "field_offset" : 64,
     "referenced_type" : "_ZTIN7android2spINS_5FenceEEE"
    },
    {
     "access" : "private",
     "field_name" : "mSignalTime",
     "field_offset" : 128,
     "referenced_type" : "_ZTINSt3__16atomicIxEE"
    }
   ],
   "linker_set_key" : "_ZTIN7android9FenceTimeE",
   "name" : "android::FenceTime",
   "record_kind" : "class",
   "referenced_type" : "_ZTIN7android9FenceTimeE",
   "self_type" : "_ZTIN7android9FenceTimeE",
   "size" : 24,
   "source_file" : "frameworks/native/libs/ui/include/ui/FenceTime.h"
  },
  {
   "alignment" : 4,
   "fields" :
   [
    {
     "field_name" : "buf",
     "referenced_type" : "_ZTIA5121_h"
    },
    {
     "field_name" : "entry",
     "referenced_type" : "_ZTI12logger_entry"
    }
   ],
   "is_anonymous" : true,
   "linker_set_key" : "_ZTIN7log_msgUt_E",
   "name" : "log_msg::(anonymous union at system/logging/liblog/include_vndk/log/log_read.h:58:3)",
   "record_kind" : "union",
   "referenced_type" : "_ZTIN7log_msgUt_E",
   "self_type" : "_ZTIN7log_msgUt_E",
   "size" : 5124,
   "source_file" : "system/logging/liblog/include_vndk/log/log_read.h"
  }
 ],
 "rvalue_reference_types" :
 [
  {
   "alignment" : 4,
   "linker_set_key" : "_ZTION7android16FrameEventsDeltaE",
   "name" : "android::FrameEventsDelta &&",
   "referenced_type" : "_ZTIN7android16FrameEventsDeltaE",
   "self_type" : "_ZTION7android16FrameEventsDeltaE",
   "size" : 4,
   "source_file" : "frameworks/native/libs/gui/include/gui/FrameTimestamps.h"
  },
  {
   "alignment" : 4,
   "linker_set_key" : "_ZTION7android22FrameEventHistoryDeltaE",
   "name" : "android::FrameEventHistoryDelta &&",
   "referenced_type" : "_ZTIN7android22FrameEventHistoryDeltaE",
   "self_type" : "_ZTION7android22FrameEventHistoryDeltaE",
   "size" : 4,
   "source_file" : "frameworks/native/libs/gui/include/gui/FrameTimestamps.h"
  },
  {
   "alignment" : 4,
   "linker_set_key" : "_ZTION7android2spINS_5FenceEEE",
   "name" : "android::sp<android::Fence> &&",
   "referenced_type" : "_ZTIN7android2spINS_5FenceEEE",
   "self_type" : "_ZTION7android2spINS_5FenceEEE",
   "size" : 4,
   "source_file" : "system/core/libutils/include/utils/StrongPointer.h"
  },
  {
   "alignment" : 4,
   "linker_set_key" : "_ZTION7android4base14unique_fd_implINS0_13DefaultCloserEEE",
   "name" : "android::base::unique_fd_impl<android::base::DefaultCloser> &&",
   "referenced_type" : "_ZTIN7android4base14unique_fd_implINS0_13DefaultCloserEEE",
   "self_type" : "_ZTION7android4base14unique_fd_implINS0_13DefaultCloserEEE",
   "size" : 4,
   "source_file" : "system/libbase/include/android-base/unique_fd.h"
  },
  {
   "alignment" : 4,
   "linker_set_key" : "_ZTION7android9FenceTime8SnapshotE",
   "name" : "android::FenceTime::Snapshot &&",
   "referenced_type" : "_ZTIN7android9FenceTime8SnapshotE",
   "self_type" : "_ZTION7android9FenceTime8SnapshotE",
   "size" : 4,
   "source_file" : "frameworks/native/libs/ui/include/ui/FenceTime.h"
  },
  {
   "alignment" : 4,
   "linker_set_key" : "_ZTIONSt3__110shared_ptrIN7android9FenceTimeEEE",
   "name" : "std::shared_ptr<android::FenceTime> &&",
   "referenced_type" : "_ZTINSt3__110shared_ptrIN7android9FenceTimeEEE",
   "self_type" : "_ZTIONSt3__110shared_ptrIN7android9FenceTimeEEE",
   "size" : 4,
   "source_file" : "frameworks/native/libs/gui/include/gui/FrameTimestamps.h"
  }
 ]
}
