{
 "array_types" :
 [
  {
   "alignment" : 1,
   "linker_set_key" : "_ZTIA2_c",
   "name" : "char [2]",
   "referenced_type" : "_ZTIc",
   "self_type" : "_ZTIA2_c",
   "size" : 2,
   "source_file" : "external/libcxx/include/type_traits"
  },
  {
   "alignment" : 8,
   "linker_set_key" : "_ZTIA4_d",
   "name" : "double [4]",
   "referenced_type" : "_ZTId",
   "self_type" : "_ZTIA4_d",
   "size" : 32,
   "source_file" : "external/libcxx/include/type_traits"
  }
 ],
 "builtin_types" :
 [
  {
   "alignment" : 4,
   "is_integral" : true,
   "is_unsigned" : true,
   "linker_set_key" : "_ZTIDi",
   "name" : "char32_t",
   "referenced_type" : "_ZTIDi",
   "self_type" : "_ZTIDi",
   "size" : 4
  },
  {
   "alignment" : 8,
   "linker_set_key" : "_ZTIDn",
   "name" : "nullptr_t",
   "referenced_type" : "_ZTIDn",
   "self_type" : "_ZTIDn",
   "size" : 8
  },
  {
   "alignment" : 2,
   "is_integral" : true,
   "is_unsigned" : true,
   "linker_set_key" : "_ZTIDs",
   "name" : "char16_t",
   "referenced_type" : "_ZTIDs",
   "self_type" : "_ZTIDs",
   "size" : 2
  },
  {
   "alignment" : 1,
   "is_integral" : true,
   "linker_set_key" : "_ZTIa",
   "name" : "signed char",
   "referenced_type" : "_ZTIa",
   "self_type" : "_ZTIa",
   "size" : 1
  },
  {
   "alignment" : 1,
   "is_integral" : true,
   "is_unsigned" : true,
   "linker_set_key" : "_ZTIb",
   "name" : "bool",
   "referenced_type" : "_ZTIb",
   "self_type" : "_ZTIb",
   "size" : 1
  },
  {
   "alignment" : 1,
   "is_integral" : true,
   "is_unsigned" : true,
   "linker_set_key" : "_ZTIc",
   "name" : "char",
   "referenced_type" : "_ZTIc",
   "self_type" : "_ZTIc",
   "size" : 1
  },
  {
   "alignment" : 8,
   "linker_set_key" : "_ZTId",
   "name" : "double",
   "referenced_type" : "_ZTId",
   "self_type" : "_ZTId",
   "size" : 8
  },
  {
   "alignment" : 16,
   "linker_set_key" : "_ZTIe",
   "name" : "long double",
   "referenced_type" : "_ZTIe",
   "self_type" : "_ZTIe",
   "size" : 16
  },
  {
   "alignment" : 4,
   "linker_set_key" : "_ZTIf",
   "name" : "float",
   "referenced_type" : "_ZTIf",
   "self_type" : "_ZTIf",
   "size" : 4
  },
  {
   "alignment" : 1,
   "is_integral" : true,
   "is_unsigned" : true,
   "linker_set_key" : "_ZTIh",
   "name" : "unsigned char",
   "referenced_type" : "_ZTIh",
   "self_type" : "_ZTIh",
   "size" : 1
  },
  {
   "alignment" : 4,
   "is_integral" : true,
   "linker_set_key" : "_ZTIi",
   "name" : "int",
   "referenced_type" : "_ZTIi",
   "self_type" : "_ZTIi",
   "size" : 4
  },
  {
   "alignment" : 4,
   "is_integral" : true,
   "is_unsigned" : true,
   "linker_set_key" : "_ZTIj",
   "name" : "unsigned int",
   "referenced_type" : "_ZTIj",
   "self_type" : "_ZTIj",
   "size" : 4
  },
  {
   "alignment" : 8,
   "is_integral" : true,
   "linker_set_key" : "_ZTIl",
   "name" : "long",
   "referenced_type" : "_ZTIl",
   "self_type" : "_ZTIl",
   "size" : 8
  },
  {
   "alignment" : 8,
   "is_integral" : true,
   "is_unsigned" : true,
   "linker_set_key" : "_ZTIm",
   "name" : "unsigned long",
   "referenced_type" : "_ZTIm",
   "self_type" : "_ZTIm",
   "size" : 8
  },
  {
   "alignment" : 16,
   "is_integral" : true,
   "linker_set_key" : "_ZTIn",
   "name" : "__int128",
   "referenced_type" : "_ZTIn",
   "self_type" : "_ZTIn",
   "size" : 16
  },
  {
   "alignment" : 16,
   "is_integral" : true,
   "is_unsigned" : true,
   "linker_set_key" : "_ZTIo",
   "name" : "unsigned __int128",
   "referenced_type" : "_ZTIo",
   "self_type" : "_ZTIo",
   "size" : 16
  },
  {
   "alignment" : 2,
   "is_integral" : true,
   "linker_set_key" : "_ZTIs",
   "name" : "short",
   "referenced_type" : "_ZTIs",
   "self_type" : "_ZTIs",
   "size" : 2
  },
  {
   "alignment" : 2,
   "is_integral" : true,
   "is_unsigned" : true,
   "linker_set_key" : "_ZTIt",
   "name" : "unsigned short",
   "referenced_type" : "_ZTIt",
   "self_type" : "_ZTIt",
   "size" : 2
  },
  {
   "linker_set_key" : "_ZTIv",
   "name" : "void",
   "referenced_type" : "_ZTIv",
   "self_type" : "_ZTIv"
  },
  {
   "alignment" : 4,
   "is_integral" : true,
   "is_unsigned" : true,
   "linker_set_key" : "_ZTIw",
   "name" : "wchar_t",
   "referenced_type" : "_ZTIw",
   "self_type" : "_ZTIw",
   "size" : 4
  },
  {
   "alignment" : 8,
   "is_integral" : true,
   "linker_set_key" : "_ZTIx",
   "name" : "long long",
   "referenced_type" : "_ZTIx",
   "self_type" : "_ZTIx",
   "size" : 8
  },
  {
   "alignment" : 8,
   "is_integral" : true,
   "is_unsigned" : true,
   "linker_set_key" : "_ZTIy",
   "name" : "unsigned long long",
   "referenced_type" : "_ZTIy",
   "self_type" : "_ZTIy",
   "size" : 8
  }
 ],
 "elf_functions" : [],
 "elf_objects" : [],
 "enum_types" :
 [
  {
   "alignment" : 4,
   "enum_fields" :
   [
    {
     "enum_field_value" : 0,
     "name" : "std::__1::memory_order_relaxed"
    },
    {
     "enum_field_value" : 1,
     "name" : "std::__1::memory_order_consume"
    },
    {
     "enum_field_value" : 2,
     "name" : "std::__1::memory_order_acquire"
    },
    {
     "enum_field_value" : 3,
     "name" : "std::__1::memory_order_release"
    },
    {
     "enum_field_value" : 4,
     "name" : "std::__1::memory_order_acq_rel"
    },
    {
     "enum_field_value" : 5,
     "name" : "std::__1::memory_order_seq_cst"
    }
   ],
   "linker_set_key" : "_ZTINSt3__112memory_orderE",
   "name" : "std::memory_order",
   "referenced_type" : "_ZTINSt3__112memory_orderE",
   "self_type" : "_ZTINSt3__112memory_orderE",
   "size" : 4,
   "source_file" : "external/libcxx/include/atomic",
   "underlying_type" : "_ZTIj"
  },
  {
   "alignment" : 4,
   "enum_fields" :
   [
    {
     "enum_field_value" : 0,
     "name" : "std::__1::pointer_safety::relaxed"
    },
    {
     "enum_field_value" : 1,
     "name" : "std::__1::pointer_safety::preferred"
    },
    {
     "enum_field_value" : 2,
     "name" : "std::__1::pointer_safety::strict"
    }
   ],
   "linker_set_key" : "_ZTINSt3__114pointer_safety4__lxE",
   "name" : "std::pointer_safety::__lx",
   "referenced_type" : "_ZTINSt3__114pointer_safety4__lxE",
   "self_type" : "_ZTINSt3__114pointer_safety4__lxE",
   "size" : 4,
   "source_file" : "external/libcxx/include/memory",
   "underlying_type" : "_ZTIj"
  },
  {
   "alignment" : 4,
   "enum_fields" :
   [
    {
     "enum_field_value" : -1,
     "name" : "std::__1::round_indeterminate"
    },
    {
     "enum_field_value" : 0,
     "name" : "std::__1::round_toward_zero"
    },
    {
     "enum_field_value" : 1,
     "name" : "std::__1::round_to_nearest"
    },
    {
     "enum_field_value" : 2,
     "name" : "std::__1::round_toward_infinity"
    },
    {
     "enum_field_value" : 3,
     "name" : "std::__1::round_toward_neg_infinity"
    }
   ],
   "linker_set_key" : "_ZTINSt3__117float_round_styleE",
   "name" : "std::float_round_style",
   "referenced_type" : "_ZTINSt3__117float_round_styleE",
   "self_type" : "_ZTINSt3__117float_round_styleE",
   "size" : 4,
   "source_file" : "external/libcxx/include/limits",
   "underlying_type" : "_ZTIi"
  },
  {
   "alignment" : 4,
   "enum_fields" :
   [
    {
     "enum_field_value" : -1,
     "name" : "std::__1::denorm_indeterminate"
    },
    {
     "enum_field_value" : 0,
     "name" : "std::__1::denorm_absent"
    },
    {
     "enum_field_value" : 1,
     "name" : "std::__1::denorm_present"
    }
   ],
   "linker_set_key" : "_ZTINSt3__118float_denorm_styleE",
   "name" : "std::float_denorm_style",
   "referenced_type" : "_ZTINSt3__118float_denorm_styleE",
   "self_type" : "_ZTINSt3__118float_denorm_styleE",
   "size" : 4,
   "source_file" : "external/libcxx/include/limits",
   "underlying_type" : "_ZTIi"
  },
  {
   "alignment" : 8,
   "linker_set_key" : "_ZTISt11align_val_t",
   "name" : "std::align_val_t",
   "referenced_type" : "_ZTISt11align_val_t",
   "self_type" : "_ZTISt11align_val_t",
   "size" : 8,
   "source_file" : "external/libcxx/include/new",
   "underlying_type" : "_ZTIm"
  }
 ],
 "function_types" :
 [
  {
   "alignment" : 4,
   "linker_set_key" : "_ZTIFvRKNSt3__119__libcpp_debug_infoEE",
   "name" : "void (const std::__1::__libcpp_debug_info &)",
   "parameters" :
   [
    {
     "referenced_type" : "_ZTIRKNSt3__119__libcpp_debug_infoE"
    }
   ],
   "referenced_type" : "_ZTIFvRKNSt3__119__libcpp_debug_infoEE",
   "return_type" : "_ZTIv",
   "self_type" : "_ZTIFvRKNSt3__119__libcpp_debug_infoEE",
   "source_file" : "external/libcxx/include/__debug"
  }
 ],
 "functions" :
 [
  {
   "function_name" : "__libcpp_memchr",
   "linker_set_key" : "_Z15__libcpp_memchrPKvim",
   "parameters" :
   [
    {
     "referenced_type" : "_ZTIPKv"
    },
    {
     "referenced_type" : "_ZTIi"
    },
    {
     "referenced_type" : "_ZTIm"
    }
   ],
   "return_type" : "_ZTIPv",
   "source_file" : "external/libcxx/include/string.h"
  },
  {
   "function_name" : "__libcpp_strchr",
   "linker_set_key" : "_Z15__libcpp_strchrPKci",
   "parameters" :
   [
    {
     "referenced_type" : "_ZTIPKc"
    },
    {
     "referenced_type" : "_ZTIi"
    }
   ],
   "return_type" : "_ZTIPc",
   "source_file" : "external/libcxx/include/string.h"
  },
  {
   "function_name" : "__libcpp_strstr",
   "linker_set_key" : "_Z15__libcpp_strstrPKcS0_",
   "parameters" :
   [
    {
     "referenced_type" : "_ZTIPKc"
    },
    {
     "referenced_type" : "_ZTIPKc"
    }
   ],
   "return_type" : "_ZTIPc",
   "source_file" : "external/libcxx/include/string.h"
  },
  {
   "function_name" : "__libcpp_wcschr",
   "linker_set_key" : "_Z15__libcpp_wcschrPKww",
   "parameters" :
   [
    {
     "referenced_type" : "_ZTIPKw"
    },
    {
     "referenced_type" : "_ZTIw"
    }
   ],
   "return_type" : "_ZTIPw",
   "source_file" : "external/libcxx/include/wchar.h"
  },
  {
   "function_name" : "__libcpp_wcsstr",
   "linker_set_key" : "_Z15__libcpp_wcsstrPKwS0_",
   "parameters" :
   [
    {
     "referenced_type" : "_ZTIPKw"
    },
    {
     "referenced_type" : "_ZTIPKw"
    }
   ],
   "return_type" : "_ZTIPw",
   "source_file" : "external/libcxx/include/wchar.h"
  },
  {
   "function_name" : "__libcpp_strpbrk",
   "linker_set_key" : "_Z16__libcpp_strpbrkPKcS0_",
   "parameters" :
   [
    {
     "referenced_type" : "_ZTIPKc"
    },
    {
     "referenced_type" : "_ZTIPKc"
    }
   ],
   "return_type" : "_ZTIPc",
   "source_file" : "external/libcxx/include/string.h"
  },
  {
   "function_name" : "__libcpp_strrchr",
   "linker_set_key" : "_Z16__libcpp_strrchrPKci",
   "parameters" :
   [
    {
     "referenced_type" : "_ZTIPKc"
    },
    {
     "referenced_type" : "_ZTIi"
    }
   ],
   "return_type" : "_ZTIPc",
   "source_file" : "external/libcxx/include/string.h"
  },
  {
   "function_name" : "__libcpp_wcspbrk",
   "linker_set_key" : "_Z16__libcpp_wcspbrkPKwS0_",
   "parameters" :
   [
    {
     "referenced_type" : "_ZTIPKw"
    },
    {
     "referenced_type" : "_ZTIPKw"
    }
   ],
   "return_type" : "_ZTIPw",
   "source_file" : "external/libcxx/include/wchar.h"
  },
  {
   "function_name" : "__libcpp_wcsrchr",
   "linker_set_key" : "_Z16__libcpp_wcsrchrPKww",
   "parameters" :
   [
    {
     "referenced_type" : "_ZTIPKw"
    },
    {
     "referenced_type" : "_ZTIw"
    }
   ],
   "return_type" : "_ZTIPw",
   "source_file" : "external/libcxx/include/wchar.h"
  },
  {
   "function_name" : "__libcpp_wmemchr",
   "linker_set_key" : "_Z16__libcpp_wmemchrPKwwm",
   "parameters" :
   [
    {
     "referenced_type" : "_ZTIPKw"
    },
    {
     "referenced_type" : "_ZTIw"
    },
    {
     "referenced_type" : "_ZTIm"
    }
   ],
   "return_type" : "_ZTIPw",
   "source_file" : "external/libcxx/include/wchar.h"
  },
  {
   "function_name" : "abs",
   "linker_set_key" : "_Z3absl",
   "parameters" :
   [
    {
     "referenced_type" : "_ZTIl"
    }
   ],
   "return_type" : "_ZTIl",
   "source_file" : "external/libcxx/include/stdlib.h"
  },
  {
   "function_name" : "abs",
   "linker_set_key" : "_Z3absx",
   "parameters" :
   [
    {
     "referenced_type" : "_ZTIx"
    }
   ],
   "return_type" : "_ZTIx",
   "source_file" : "external/libcxx/include/stdlib.h"
  },
  {
   "function_name" : "div",
   "linker_set_key" : "_Z3divll",
   "parameters" :
   [
    {
     "referenced_type" : "_ZTIl"
    },
    {
     "referenced_type" : "_ZTIl"
    }
   ],
   "return_type" : "_ZTI6ldiv_t",
   "source_file" : "external/libcxx/include/stdlib.h"
  },
  {
   "function_name" : "div",
   "linker_set_key" : "_Z3divxx",
   "parameters" :
   [
    {
     "referenced_type" : "_ZTIx"
    },
    {
     "referenced_type" : "_ZTIx"
    }
   ],
   "return_type" : "_ZTI7lldiv_t",
   "source_file" : "external/libcxx/include/stdlib.h"
  },
  {
   "function_name" : "memchr",
   "linker_set_key" : "_Z6memchrUa9enable_ifIXLb1EEEPKvim",
   "parameters" :
   [
    {
     "referenced_type" : "_ZTIPKv"
    },
    {
     "referenced_type" : "_ZTIi"
    },
    {
     "referenced_type" : "_ZTIm"
    }
   ],
   "return_type" : "_ZTIPKv",
   "source_file" : "external/libcxx/include/string.h"
  },
  {
   "function_name" : "memchr",
   "linker_set_key" : "_Z6memchrUa9enable_ifIXLb1EEEPvim",
   "parameters" :
   [
    {
     "referenced_type" : "_ZTIPv"
    },
    {
     "referenced_type" : "_ZTIi"
    },
    {
     "referenced_type" : "_ZTIm"
    }
   ],
   "return_type" : "_ZTIPv",
   "source_file" : "external/libcxx/include/string.h"
  },
  {
   "function_name" : "strchr",
   "linker_set_key" : "_Z6strchrUa9enable_ifIXLb1EEEPKci",
   "parameters" :
   [
    {
     "referenced_type" : "_ZTIPKc"
    },
    {
     "referenced_type" : "_ZTIi"
    }
   ],
   "return_type" : "_ZTIPKc",
   "source_file" : "external/libcxx/include/string.h"
  },
  {
   "function_name" : "strchr",
   "linker_set_key" : "_Z6strchrUa9enable_ifIXLb1EEEPci",
   "parameters" :
   [
    {
     "referenced_type" : "_ZTIPc"
    },
    {
     "referenced_type" : "_ZTIi"
    }
   ],
   "return_type" : "_ZTIPc",
   "source_file" : "external/libcxx/include/string.h"
  },
  {
   "function_name" : "strstr",
   "linker_set_key" : "_Z6strstrUa9enable_ifIXLb1EEEPKcS0_",
   "parameters" :
   [
    {
     "referenced_type" : "_ZTIPKc"
    },
    {
     "referenced_type" : "_ZTIPKc"
    }
   ],
   "return_type" : "_ZTIPKc",
   "source_file" : "external/libcxx/include/string.h"
  },
  {
   "function_name" : "strstr",
   "linker_set_key" : "_Z6strstrUa9enable_ifIXLb1EEEPcPKc",
   "parameters" :
   [
    {
     "referenced_type" : "_ZTIPc"
    },
    {
     "referenced_type" : "_ZTIPKc"
    }
   ],
   "return_type" : "_ZTIPc",
   "source_file" : "external/libcxx/include/string.h"
  },
  {
   "function_name" : "wcschr",
   "linker_set_key" : "_Z6wcschrUa9enable_ifIXLb1EEEPKww",
   "parameters" :
   [
    {
     "referenced_type" : "_ZTIPKw"
    },
    {
     "referenced_type" : "_ZTIw"
    }
   ],
   "return_type" : "_ZTIPKw",
   "source_file" : "external/libcxx/include/wchar.h"
  },
  {
   "function_name" : "wcschr",
   "linker_set_key" : "_Z6wcschrUa9enable_ifIXLb1EEEPww",
   "parameters" :
   [
    {
     "referenced_type" : "_ZTIPw"
    },
    {
     "referenced_type" : "_ZTIw"
    }
   ],
   "return_type" : "_ZTIPw",
   "source_file" : "external/libcxx/include/wchar.h"
  },
  {
   "function_name" : "wcsstr",
   "linker_set_key" : "_Z6wcsstrUa9enable_ifIXLb1EEEPKwS0_",
   "parameters" :
   [
    {
     "referenced_type" : "_ZTIPKw"
    },
    {
     "referenced_type" : "_ZTIPKw"
    }
   ],
   "return_type" : "_ZTIPKw",
   "source_file" : "external/libcxx/include/wchar.h"
  },
  {
   "function_name" : "wcsstr",
   "linker_set_key" : "_Z6wcsstrUa9enable_ifIXLb1EEEPwPKw",
   "parameters" :
   [
    {
     "referenced_type" : "_ZTIPw"
    },
    {
     "referenced_type" : "_ZTIPKw"
    }
   ],
   "return_type" : "_ZTIPw",
   "source_file" : "external/libcxx/include/wchar.h"
  },
  {
   "function_name" : "strpbrk",
   "linker_set_key" : "_Z7strpbrkUa9enable_ifIXLb1EEEPKcS0_",
   "parameters" :
   [
    {
     "referenced_type" : "_ZTIPKc"
    },
    {
     "referenced_type" : "_ZTIPKc"
    }
   ],
   "return_type" : "_ZTIPKc",
   "source_file" : "external/libcxx/include/string.h"
  },
  {
   "function_name" : "strpbrk",
   "linker_set_key" : "_Z7strpbrkUa9enable_ifIXLb1EEEPcPKc",
   "parameters" :
   [
    {
     "referenced_type" : "_ZTIPc"
    },
    {
     "referenced_type" : "_ZTIPKc"
    }
   ],
   "return_type" : "_ZTIPc",
   "source_file" : "external/libcxx/include/string.h"
  },
  {
   "function_name" : "strrchr",
   "linker_set_key" : "_Z7strrchrUa9enable_ifIXLb1EEEPKci",
   "parameters" :
   [
    {
     "referenced_type" : "_ZTIPKc"
    },
    {
     "referenced_type" : "_ZTIi"
    }
   ],
   "return_type" : "_ZTIPKc",
   "source_file" : "external/libcxx/include/string.h"
  },
  {
   "function_name" : "strrchr",
   "linker_set_key" : "_Z7strrchrUa9enable_ifIXLb1EEEPci",
   "parameters" :
   [
    {
     "referenced_type" : "_ZTIPc"
    },
    {
     "referenced_type" : "_ZTIi"
    }
   ],
   "return_type" : "_ZTIPc",
   "source_file" : "external/libcxx/include/string.h"
  },
  {
   "function_name" : "wcspbrk",
   "linker_set_key" : "_Z7wcspbrkUa9enable_ifIXLb1EEEPKwS0_",
   "parameters" :
   [
    {
     "referenced_type" : "_ZTIPKw"
    },
    {
     "referenced_type" : "_ZTIPKw"
    }
   ],
   "return_type" : "_ZTIPKw",
   "source_file" : "external/libcxx/include/wchar.h"
  },
  {
   "function_name" : "wcspbrk",
   "linker_set_key" : "_Z7wcspbrkUa9enable_ifIXLb1EEEPwPKw",
   "parameters" :
   [
    {
     "referenced_type" : "_ZTIPw"
    },
    {
     "referenced_type" : "_ZTIPKw"
    }
   ],
   "return_type" : "_ZTIPw",
   "source_file" : "external/libcxx/include/wchar.h"
  },
  {
   "function_name" : "wcsrchr",
   "linker_set_key" : "_Z7wcsrchrUa9enable_ifIXLb1EEEPKww",
   "parameters" :
   [
    {
     "referenced_type" : "_ZTIPKw"
    },
    {
     "referenced_type" : "_ZTIw"
    }
   ],
   "return_type" : "_ZTIPKw",
   "source_file" : "external/libcxx/include/wchar.h"
  },
  {
   "function_name" : "wcsrchr",
   "linker_set_key" : "_Z7wcsrchrUa9enable_ifIXLb1EEEPww",
   "parameters" :
   [
    {
     "referenced_type" : "_ZTIPw"
    },
    {
     "referenced_type" : "_ZTIw"
    }
   ],
   "return_type" : "_ZTIPw",
   "source_file" : "external/libcxx/include/wchar.h"
  },
  {
   "function_name" : "wmemchr",
   "linker_set_key" : "_Z7wmemchrUa9enable_ifIXLb1EEEPKwwm",
   "parameters" :
   [
    {
     "referenced_type" : "_ZTIPKw"
    },
    {
     "referenced_type" : "_ZTIw"
    },
    {
     "referenced_type" : "_ZTIm"
    }
   ],
   "return_type" : "_ZTIPKw",
   "source_file" : "external/libcxx/include/wchar.h"
  },
  {
   "function_name" : "wmemchr",
   "linker_set_key" : "_Z7wmemchrUa9enable_ifIXLb1EEEPwwm",
   "parameters" :
   [
    {
     "referenced_type" : "_ZTIPw"
    },
    {
     "referenced_type" : "_ZTIw"
    },
    {
     "referenced_type" : "_ZTIm"
    }
   ],
   "return_type" : "_ZTIPw",
   "source_file" : "external/libcxx/include/wchar.h"
  },
  {
   "function_name" : "std::exception_ptr::operator bool",
   "linker_set_key" : "_ZNKSt13exception_ptrcvbEv",
   "parameters" :
   [
    {
     "is_this_ptr" : true,
     "referenced_type" : "_ZTIPKSt13exception_ptr"
    }
   ],
   "return_type" : "_ZTIb",
   "source_file" : "external/libcxx/include/exception"
  },
  {
   "function_name" : "std::nested_exception::nested_ptr",
   "linker_set_key" : "_ZNKSt16nested_exception10nested_ptrEv",
   "parameters" :
   [
    {
     "is_this_ptr" : true,
     "referenced_type" : "_ZTIPKSt16nested_exception"
    }
   ],
   "return_type" : "_ZTISt13exception_ptr",
   "source_file" : "external/libcxx/include/exception"
  },
  {
   "function_name" : "std::__1::__scalar_hash<std::__1::_PairT, 2>::operator()",
   "linker_set_key" : "_ZNKSt3__113__scalar_hashINS_6_PairTELm2EEclES1_",
   "parameters" :
   [
    {
     "is_this_ptr" : true,
     "referenced_type" : "_ZTIPKNSt3__113__scalar_hashINS_6_PairTELm2EEE"
    },
    {
     "referenced_type" : "_ZTINSt3__16_PairTE"
    }
   ],
   "return_type" : "_ZTIm",
   "source_file" : "external/libcxx/include/utility"
  },
  {
   "function_name" : "std::__1::__scalar_hash<double, 1>::operator()",
   "linker_set_key" : "_ZNKSt3__113__scalar_hashIdLm1EEclEd",
   "parameters" :
   [
    {
     "is_this_ptr" : true,
     "referenced_type" : "_ZTIPKNSt3__113__scalar_hashIdLm1EEE"
    },
    {
     "referenced_type" : "_ZTId"
    }
   ],
   "return_type" : "_ZTIm",
   "source_file" : "external/libcxx/include/utility"
  },
  {
   "function_name" : "std::__1::__scalar_hash<long double, 2>::operator()",
   "linker_set_key" : "_ZNKSt3__113__scalar_hashIeLm2EEclEe",
   "parameters" :
   [
    {
     "is_this_ptr" : true,
     "referenced_type" : "_ZTIPKNSt3__113__scalar_hashIeLm2EEE"
    },
    {
     "referenced_type" : "_ZTIe"
    }
   ],
   "return_type" : "_ZTIm",
   "source_file" : "external/libcxx/include/utility"
  },
  {
   "function_name" : "std::__1::__scalar_hash<float, 0>::operator()",
   "linker_set_key" : "_ZNKSt3__113__scalar_hashIfLm0EEclEf",
   "parameters" :
   [
    {
     "is_this_ptr" : true,
     "referenced_type" : "_ZTIPKNSt3__113__scalar_hashIfLm0EEE"
    },
    {
     "referenced_type" : "_ZTIf"
    }
   ],
   "return_type" : "_ZTIm",
   "source_file" : "external/libcxx/include/utility"
  },
  {
   "function_name" : "std::__1::__shared_count::use_count",
   "linker_set_key" : "_ZNKSt3__114__shared_count9use_countEv",
   "parameters" :
   [
    {
     "is_this_ptr" : true,
     "referenced_type" : "_ZTIPKNSt3__114__shared_countE"
    }
   ],
   "return_type" : "_ZTIl",
   "source_file" : "external/libcxx/include/memory"
  },
  {
   "function_name" : "std::__1::pointer_safety::operator int",
   "linker_set_key" : "_ZNKSt3__114pointer_safetycviEv",
   "parameters" :
   [
    {
     "is_this_ptr" : true,
     "referenced_type" : "_ZTIPKNSt3__114pointer_safetyE"
    }
   ],
   "return_type" : "_ZTIi",
   "source_file" : "external/libcxx/include/memory"
  },
  {
   "function_name" : "std::__1::__libcpp_refstring::c_str",
   "linker_set_key" : "_ZNKSt3__118__libcpp_refstring5c_strEv",
   "parameters" :
   [
    {
     "is_this_ptr" : true,
     "referenced_type" : "_ZTIPKNSt3__118__libcpp_refstringE"
    }
   ],
   "return_type" : "_ZTIPKc",
   "source_file" : "external/libcxx/include/stdexcept"
  },
  {
   "function_name" : "std::__1::__shared_weak_count::use_count",
   "linker_set_key" : "_ZNKSt3__119__shared_weak_count9use_countEv",
   "parameters" :
   [
    {
     "is_this_ptr" : true,
     "referenced_type" : "_ZTIPKNSt3__119__shared_weak_countE"
    }
   ],
   "return_type" : "_ZTIl",
   "source_file" : "external/libcxx/include/memory"
  },
  {
   "function_name" : "std::__1::hash<char32_t>::operator()",
   "linker_set_key" : "_ZNKSt3__14hashIDiEclEDi",
   "parameters" :
   [
    {
     "is_this_ptr" : true,
     "referenced_type" : "_ZTIPKNSt3__14hashIDiEE"
    },
    {
     "referenced_type" : "_ZTIDi"
    }
   ],
   "return_type" : "_ZTIm",
   "source_file" : "external/libcxx/include/utility"
  },
  {
   "function_name" : "std::__1::hash<char16_t>::operator()",
   "linker_set_key" : "_ZNKSt3__14hashIDsEclEDs",
   "parameters" :
   [
    {
     "is_this_ptr" : true,
     "referenced_type" : "_ZTIPKNSt3__14hashIDsEE"
    },
    {
     "referenced_type" : "_ZTIDs"
    }
   ],
   "return_type" : "_ZTIm",
   "source_file" : "external/libcxx/include/utility"
  },
  {
   "function_name" : "std::__1::hash<signed char>::operator()",
   "linker_set_key" : "_ZNKSt3__14hashIaEclEa",
   "parameters" :
   [
    {
     "is_this_ptr" : true,
     "referenced_type" : "_ZTIPKNSt3__14hashIaEE"
    },
    {
     "referenced_type" : "_ZTIa"
    }
   ],
   "return_type" : "_ZTIm",
   "source_file" : "external/libcxx/include/utility"
  },
  {
   "function_name" : "std::__1::hash<bool>::operator()",
   "linker_set_key" : "_ZNKSt3__14hashIbEclEb",
   "parameters" :
   [
    {
     "is_this_ptr" : true,
     "referenced_type" : "_ZTIPKNSt3__14hashIbEE"
    },
    {
     "referenced_type" : "_ZTIb"
    }
   ],
   "return_type" : "_ZTIm",
   "source_file" : "external/libcxx/include/utility"
  },
  {
   "function_name" : "std::__1::hash<char>::operator()",
   "linker_set_key" : "_ZNKSt3__14hashIcEclEc",
   "parameters" :
   [
    {
     "is_this_ptr" : true,
     "referenced_type" : "_ZTIPKNSt3__14hashIcEE"
    },
    {
     "referenced_type" : "_ZTIc"
    }
   ],
   "return_type" : "_ZTIm",
   "source_file" : "external/libcxx/include/utility"
  },
  {
   "function_name" : "std::__1::hash<double>::operator()",
   "linker_set_key" : "_ZNKSt3__14hashIdEclEd",
   "parameters" :
   [
    {
     "is_this_ptr" : true,
     "referenced_type" : "_ZTIPKNSt3__14hashIdEE"
    },
    {
     "referenced_type" : "_ZTId"
    }
   ],
   "return_type" : "_ZTIm",
   "source_file" : "external/libcxx/include/utility"
  },
  {
   "function_name" : "std::__1::hash<long double>::operator()",
   "linker_set_key" : "_ZNKSt3__14hashIeEclEe",
   "parameters" :
   [
    {
     "is_this_ptr" : true,
     "referenced_type" : "_ZTIPKNSt3__14hashIeEE"
    },
    {
     "referenced_type" : "_ZTIe"
    }
   ],
   "return_type" : "_ZTIm",
   "source_file" : "external/libcxx/include/utility"
  },
  {
   "function_name" : "std::__1::hash<float>::operator()",
   "linker_set_key" : "_ZNKSt3__14hashIfEclEf",
   "parameters" :
   [
    {
     "is_this_ptr" : true,
     "referenced_type" : "_ZTIPKNSt3__14hashIfEE"
    },
    {
     "referenced_type" : "_ZTIf"
    }
   ],
   "return_type" : "_ZTIm",
   "source_file" : "external/libcxx/include/utility"
  },
  {
   "function_name" : "std::__1::hash<unsigned char>::operator()",
   "linker_set_key" : "_ZNKSt3__14hashIhEclEh",
   "parameters" :
   [
    {
     "is_this_ptr" : true,
     "referenced_type" : "_ZTIPKNSt3__14hashIhEE"
    },
    {
     "referenced_type" : "_ZTIh"
    }
   ],
   "return_type" : "_ZTIm",
   "source_file" : "external/libcxx/include/utility"
  },
  {
   "function_name" : "std::__1::hash<int>::operator()",
   "linker_set_key" : "_ZNKSt3__14hashIiEclEi",
   "parameters" :
   [
    {
     "is_this_ptr" : true,
     "referenced_type" : "_ZTIPKNSt3__14hashIiEE"
    },
    {
     "referenced_type" : "_ZTIi"
    }
   ],
   "return_type" : "_ZTIm",
   "source_file" : "external/libcxx/include/utility"
  },
  {
   "function_name" : "std::__1::hash<unsigned int>::operator()",
   "linker_set_key" : "_ZNKSt3__14hashIjEclEj",
   "parameters" :
   [
    {
     "is_this_ptr" : true,
     "referenced_type" : "_ZTIPKNSt3__14hashIjEE"
    },
    {
     "referenced_type" : "_ZTIj"
    }
   ],
   "return_type" : "_ZTIm",
   "source_file" : "external/libcxx/include/utility"
  },
  {
   "function_name" : "std::__1::hash<long>::operator()",
   "linker_set_key" : "_ZNKSt3__14hashIlEclEl",
   "parameters" :
   [
    {
     "is_this_ptr" : true,
     "referenced_type" : "_ZTIPKNSt3__14hashIlEE"
    },
    {
     "referenced_type" : "_ZTIl"
    }
   ],
   "return_type" : "_ZTIm",
   "source_file" : "external/libcxx/include/utility"
  },
  {
   "function_name" : "std::__1::hash<unsigned long>::operator()",
   "linker_set_key" : "_ZNKSt3__14hashImEclEm",
   "parameters" :
   [
    {
     "is_this_ptr" : true,
     "referenced_type" : "_ZTIPKNSt3__14hashImEE"
    },
    {
     "referenced_type" : "_ZTIm"
    }
   ],
   "return_type" : "_ZTIm",
   "source_file" : "external/libcxx/include/utility"
  },
  {
   "function_name" : "std::__1::hash<short>::operator()",
   "linker_set_key" : "_ZNKSt3__14hashIsEclEs",
   "parameters" :
   [
    {
     "is_this_ptr" : true,
     "referenced_type" : "_ZTIPKNSt3__14hashIsEE"
    },
    {
     "referenced_type" : "_ZTIs"
    }
   ],
   "return_type" : "_ZTIm",
   "source_file" : "external/libcxx/include/utility"
  },
  {
   "function_name" : "std::__1::hash<unsigned short>::operator()",
   "linker_set_key" : "_ZNKSt3__14hashItEclEt",
   "parameters" :
   [
    {
     "is_this_ptr" : true,
     "referenced_type" : "_ZTIPKNSt3__14hashItEE"
    },
    {
     "referenced_type" : "_ZTIt"
    }
   ],
   "return_type" : "_ZTIm",
   "source_file" : "external/libcxx/include/utility"
  },
  {
   "function_name" : "std::__1::hash<wchar_t>::operator()",
   "linker_set_key" : "_ZNKSt3__14hashIwEclEw",
   "parameters" :
   [
    {
     "is_this_ptr" : true,
     "referenced_type" : "_ZTIPKNSt3__14hashIwEE"
    },
    {
     "referenced_type" : "_ZTIw"
    }
   ],
   "return_type" : "_ZTIm",
   "source_file" : "external/libcxx/include/utility"
  },
  {
   "function_name" : "std::type_info::name",
   "linker_set_key" : "_ZNKSt9type_info4nameEv",
   "parameters" :
   [
    {
     "is_this_ptr" : true,
     "referenced_type" : "_ZTIPKSt9type_info"
    }
   ],
   "return_type" : "_ZTIPKc",
   "source_file" : "external/libcxx/include/typeinfo"
  },
  {
   "function_name" : "std::type_info::before",
   "linker_set_key" : "_ZNKSt9type_info6beforeERKS_",
   "parameters" :
   [
    {
     "is_this_ptr" : true,
     "referenced_type" : "_ZTIPKSt9type_info"
    },
    {
     "referenced_type" : "_ZTIRKSt9type_info"
    }
   ],
   "return_type" : "_ZTIb",
   "source_file" : "external/libcxx/include/typeinfo"
  },
  {
   "function_name" : "std::type_info::hash_code",
   "linker_set_key" : "_ZNKSt9type_info9hash_codeEv",
   "parameters" :
   [
    {
     "is_this_ptr" : true,
     "referenced_type" : "_ZTIPKSt9type_info"
    }
   ],
   "return_type" : "_ZTIm",
   "source_file" : "external/libcxx/include/typeinfo"
  },
  {
   "function_name" : "std::type_info::operator==",
   "linker_set_key" : "_ZNKSt9type_infoeqERKS_",
   "parameters" :
   [
    {
     "is_this_ptr" : true,
     "referenced_type" : "_ZTIPKSt9type_info"
    },
    {
     "referenced_type" : "_ZTIRKSt9type_info"
    }
   ],
   "return_type" : "_ZTIb",
   "source_file" : "external/libcxx/include/typeinfo"
  },
  {
   "function_name" : "std::type_info::operator!=",
   "linker_set_key" : "_ZNKSt9type_infoneERKS_",
   "parameters" :
   [
    {
     "is_this_ptr" : true,
     "referenced_type" : "_ZTIPKSt9type_info"
    },
    {
     "referenced_type" : "_ZTIRKSt9type_info"
    }
   ],
   "return_type" : "_ZTIb",
   "source_file" : "external/libcxx/include/typeinfo"
  },
  {
   "function_name" : "std::range_error::range_error",
   "linker_set_key" : "_ZNSt11range_errorC1EPKc",
   "parameters" :
   [
    {
     "is_this_ptr" : true,
     "referenced_type" : "_ZTIPSt11range_error"
    },
    {
     "referenced_type" : "_ZTIPKc"
    }
   ],
   "return_type" : "_ZTIv",
   "source_file" : "external/libcxx/include/stdexcept"
  },
  {
   "function_name" : "std::range_error::range_error",
   "linker_set_key" : "_ZNSt11range_errorC1ERKNSt3__112basic_stringIcNS0_11char_traitsIcEENS0_9allocatorIcEEEE",
   "parameters" :
   [
    {
     "is_this_ptr" : true,
     "referenced_type" : "_ZTIPSt11range_error"
    },
    {
     "referenced_type" : "_ZTIRKNSt3__112basic_stringIcNS_11char_traitsIcEENS_9allocatorIcEEEE"
    }
   ],
   "return_type" : "_ZTIv",
   "source_file" : "external/libcxx/include/stdexcept"
  },
  {
   "function_name" : "std::range_error::range_error",
   "linker_set_key" : "_ZNSt11range_errorC2EPKc",
   "parameters" :
   [
    {
     "is_this_ptr" : true,
     "referenced_type" : "_ZTIPSt11range_error"
    },
    {
     "referenced_type" : "_ZTIPKc"
    }
   ],
   "return_type" : "_ZTIv",
   "source_file" : "external/libcxx/include/stdexcept"
  },
  {
   "function_name" : "std::range_error::range_error",
   "linker_set_key" : "_ZNSt11range_errorC2ERKNSt3__112basic_stringIcNS0_11char_traitsIcEENS0_9allocatorIcEEEE",
   "parameters" :
   [
    {
     "is_this_ptr" : true,
     "referenced_type" : "_ZTIPSt11range_error"
    },
    {
     "referenced_type" : "_ZTIRKNSt3__112basic_stringIcNS_11char_traitsIcEENS_9allocatorIcEEEE"
    }
   ],
   "return_type" : "_ZTIv",
   "source_file" : "external/libcxx/include/stdexcept"
  },
  {
   "function_name" : "std::domain_error::domain_error",
   "linker_set_key" : "_ZNSt12domain_errorC1EPKc",
   "parameters" :
   [
    {
     "is_this_ptr" : true,
     "referenced_type" : "_ZTIPSt12domain_error"
    },
    {
     "referenced_type" : "_ZTIPKc"
    }
   ],
   "return_type" : "_ZTIv",
   "source_file" : "external/libcxx/include/stdexcept"
  },
  {
   "function_name" : "std::domain_error::domain_error",
   "linker_set_key" : "_ZNSt12domain_errorC1ERKNSt3__112basic_stringIcNS0_11char_traitsIcEENS0_9allocatorIcEEEE",
   "parameters" :
   [
    {
     "is_this_ptr" : true,
     "referenced_type" : "_ZTIPSt12domain_error"
    },
    {
     "referenced_type" : "_ZTIRKNSt3__112basic_stringIcNS_11char_traitsIcEENS_9allocatorIcEEEE"
    }
   ],
   "return_type" : "_ZTIv",
   "source_file" : "external/libcxx/include/stdexcept"
  },
  {
   "function_name" : "std::domain_error::domain_error",
   "linker_set_key" : "_ZNSt12domain_errorC2EPKc",
   "parameters" :
   [
    {
     "is_this_ptr" : true,
     "referenced_type" : "_ZTIPSt12domain_error"
    },
    {
     "referenced_type" : "_ZTIPKc"
    }
   ],
   "return_type" : "_ZTIv",
   "source_file" : "external/libcxx/include/stdexcept"
  },
  {
   "function_name" : "std::domain_error::domain_error",
   "linker_set_key" : "_ZNSt12domain_errorC2ERKNSt3__112basic_stringIcNS0_11char_traitsIcEENS0_9allocatorIcEEEE",
   "parameters" :
   [
    {
     "is_this_ptr" : true,
     "referenced_type" : "_ZTIPSt12domain_error"
    },
    {
     "referenced_type" : "_ZTIRKNSt3__112basic_stringIcNS_11char_traitsIcEENS_9allocatorIcEEEE"
    }
   ],
   "return_type" : "_ZTIv",
   "source_file" : "external/libcxx/include/stdexcept"
  },
  {
   "function_name" : "std::length_error::length_error",
   "linker_set_key" : "_ZNSt12length_errorC1EPKc",
   "parameters" :
   [
    {
     "is_this_ptr" : true,
     "referenced_type" : "_ZTIPSt12length_error"
    },
    {
     "referenced_type" : "_ZTIPKc"
    }
   ],
   "return_type" : "_ZTIv",
   "source_file" : "external/libcxx/include/stdexcept"
  },
  {
   "function_name" : "std::length_error::length_error",
   "linker_set_key" : "_ZNSt12length_errorC1ERKNSt3__112basic_stringIcNS0_11char_traitsIcEENS0_9allocatorIcEEEE",
   "parameters" :
   [
    {
     "is_this_ptr" : true,
     "referenced_type" : "_ZTIPSt12length_error"
    },
    {
     "referenced_type" : "_ZTIRKNSt3__112basic_stringIcNS_11char_traitsIcEENS_9allocatorIcEEEE"
    }
   ],
   "return_type" : "_ZTIv",
   "source_file" : "external/libcxx/include/stdexcept"
  },
  {
   "function_name" : "std::length_error::length_error",
   "linker_set_key" : "_ZNSt12length_errorC2EPKc",
   "parameters" :
   [
    {
     "is_this_ptr" : true,
     "referenced_type" : "_ZTIPSt12length_error"
    },
    {
     "referenced_type" : "_ZTIPKc"
    }
   ],
   "return_type" : "_ZTIv",
   "source_file" : "external/libcxx/include/stdexcept"
  },
  {
   "function_name" : "std::length_error::length_error",
   "linker_set_key" : "_ZNSt12length_errorC2ERKNSt3__112basic_stringIcNS0_11char_traitsIcEENS0_9allocatorIcEEEE",
   "parameters" :
   [
    {
     "is_this_ptr" : true,
     "referenced_type" : "_ZTIPSt12length_error"
    },
    {
     "referenced_type" : "_ZTIRKNSt3__112basic_stringIcNS_11char_traitsIcEENS_9allocatorIcEEEE"
    }
   ],
   "return_type" : "_ZTIv",
   "source_file" : "external/libcxx/include/stdexcept"
  },
  {
   "function_name" : "std::out_of_range::out_of_range",
   "linker_set_key" : "_ZNSt12out_of_rangeC1EPKc",
   "parameters" :
   [
    {
     "is_this_ptr" : true,
     "referenced_type" : "_ZTIPSt12out_of_range"
    },
    {
     "referenced_type" : "_ZTIPKc"
    }
   ],
   "return_type" : "_ZTIv",
   "source_file" : "external/libcxx/include/stdexcept"
  },
  {
   "function_name" : "std::out_of_range::out_of_range",
   "linker_set_key" : "_ZNSt12out_of_rangeC1ERKNSt3__112basic_stringIcNS0_11char_traitsIcEENS0_9allocatorIcEEEE",
   "parameters" :
   [
    {
     "is_this_ptr" : true,
     "referenced_type" : "_ZTIPSt12out_of_range"
    },
    {
     "referenced_type" : "_ZTIRKNSt3__112basic_stringIcNS_11char_traitsIcEENS_9allocatorIcEEEE"
    }
   ],
   "return_type" : "_ZTIv",
   "source_file" : "external/libcxx/include/stdexcept"
  },
  {
   "function_name" : "std::out_of_range::out_of_range",
   "linker_set_key" : "_ZNSt12out_of_rangeC2EPKc",
   "parameters" :
   [
    {
     "is_this_ptr" : true,
     "referenced_type" : "_ZTIPSt12out_of_range"
    },
    {
     "referenced_type" : "_ZTIPKc"
    }
   ],
   "return_type" : "_ZTIv",
   "source_file" : "external/libcxx/include/stdexcept"
  },
  {
   "function_name" : "std::out_of_range::out_of_range",
   "linker_set_key" : "_ZNSt12out_of_rangeC2ERKNSt3__112basic_stringIcNS0_11char_traitsIcEENS0_9allocatorIcEEEE",
   "parameters" :
   [
    {
     "is_this_ptr" : true,
     "referenced_type" : "_ZTIPSt12out_of_range"
    },
    {
     "referenced_type" : "_ZTIRKNSt3__112basic_stringIcNS_11char_traitsIcEENS_9allocatorIcEEEE"
    }
   ],
   "return_type" : "_ZTIv",
   "source_file" : "external/libcxx/include/stdexcept"
  },
  {
   "function_name" : "std::bad_exception::bad_exception",
   "linker_set_key" : "_ZNSt13bad_exceptionC1Ev",
   "parameters" :
   [
    {
     "is_this_ptr" : true,
     "referenced_type" : "_ZTIPSt13bad_exception"
    }
   ],
   "return_type" : "_ZTIv",
   "source_file" : "external/libcxx/include/exception"
  },
  {
   "function_name" : "std::bad_exception::bad_exception",
   "linker_set_key" : "_ZNSt13bad_exceptionC2Ev",
   "parameters" :
   [
    {
     "is_this_ptr" : true,
     "referenced_type" : "_ZTIPSt13bad_exception"
    }
   ],
   "return_type" : "_ZTIv",
   "source_file" : "external/libcxx/include/exception"
  },
  {
   "function_name" : "std::exception_ptr::exception_ptr",
   "linker_set_key" : "_ZNSt13exception_ptrC1EDn",
   "parameters" :
   [
    {
     "is_this_ptr" : true,
     "referenced_type" : "_ZTIPSt13exception_ptr"
    },
    {
     "referenced_type" : "_ZTIDn"
    }
   ],
   "return_type" : "_ZTIv",
   "source_file" : "external/libcxx/include/exception"
  },
  {
   "function_name" : "std::exception_ptr::exception_ptr",
   "linker_set_key" : "_ZNSt13exception_ptrC1Ev",
   "parameters" :
   [
    {
     "is_this_ptr" : true,
     "referenced_type" : "_ZTIPSt13exception_ptr"
    }
   ],
   "return_type" : "_ZTIv",
   "source_file" : "external/libcxx/include/exception"
  },
  {
   "function_name" : "std::exception_ptr::exception_ptr",
   "linker_set_key" : "_ZNSt13exception_ptrC2EDn",
   "parameters" :
   [
    {
     "is_this_ptr" : true,
     "referenced_type" : "_ZTIPSt13exception_ptr"
    },
    {
     "referenced_type" : "_ZTIDn"
    }
   ],
   "return_type" : "_ZTIv",
   "source_file" : "external/libcxx/include/exception"
  },
  {
   "function_name" : "std::exception_ptr::exception_ptr",
   "linker_set_key" : "_ZNSt13exception_ptrC2Ev",
   "parameters" :
   [
    {
     "is_this_ptr" : true,
     "referenced_type" : "_ZTIPSt13exception_ptr"
    }
   ],
   "return_type" : "_ZTIv",
   "source_file" : "external/libcxx/include/exception"
  },
  {
   "function_name" : "std::overflow_error::overflow_error",
   "linker_set_key" : "_ZNSt14overflow_errorC1EPKc",
   "parameters" :
   [
    {
     "is_this_ptr" : true,
     "referenced_type" : "_ZTIPSt14overflow_error"
    },
    {
     "referenced_type" : "_ZTIPKc"
    }
   ],
   "return_type" : "_ZTIv",
   "source_file" : "external/libcxx/include/stdexcept"
  },
  {
   "function_name" : "std::overflow_error::overflow_error",
   "linker_set_key" : "_ZNSt14overflow_errorC1ERKNSt3__112basic_stringIcNS0_11char_traitsIcEENS0_9allocatorIcEEEE",
   "parameters" :
   [
    {
     "is_this_ptr" : true,
     "referenced_type" : "_ZTIPSt14overflow_error"
    },
    {
     "referenced_type" : "_ZTIRKNSt3__112basic_stringIcNS_11char_traitsIcEENS_9allocatorIcEEEE"
    }
   ],
   "return_type" : "_ZTIv",
   "source_file" : "external/libcxx/include/stdexcept"
  },
  {
   "function_name" : "std::overflow_error::overflow_error",
   "linker_set_key" : "_ZNSt14overflow_errorC2EPKc",
   "parameters" :
   [
    {
     "is_this_ptr" : true,
     "referenced_type" : "_ZTIPSt14overflow_error"
    },
    {
     "referenced_type" : "_ZTIPKc"
    }
   ],
   "return_type" : "_ZTIv",
   "source_file" : "external/libcxx/include/stdexcept"
  },
  {
   "function_name" : "std::overflow_error::overflow_error",
   "linker_set_key" : "_ZNSt14overflow_errorC2ERKNSt3__112basic_stringIcNS0_11char_traitsIcEENS0_9allocatorIcEEEE",
   "parameters" :
   [
    {
     "is_this_ptr" : true,
     "referenced_type" : "_ZTIPSt14overflow_error"
    },
    {
     "referenced_type" : "_ZTIRKNSt3__112basic_stringIcNS_11char_traitsIcEENS_9allocatorIcEEEE"
    }
   ],
   "return_type" : "_ZTIv",
   "source_file" : "external/libcxx/include/stdexcept"
  },
  {
   "function_name" : "std::underflow_error::underflow_error",
   "linker_set_key" : "_ZNSt15underflow_errorC1EPKc",
   "parameters" :
   [
    {
     "is_this_ptr" : true,
     "referenced_type" : "_ZTIPSt15underflow_error"
    },
    {
     "referenced_type" : "_ZTIPKc"
    }
   ],
   "return_type" : "_ZTIv",
   "source_file" : "external/libcxx/include/stdexcept"
  },
  {
   "function_name" : "std::underflow_error::underflow_error",
   "linker_set_key" : "_ZNSt15underflow_errorC1ERKNSt3__112basic_stringIcNS0_11char_traitsIcEENS0_9allocatorIcEEEE",
   "parameters" :
   [
    {
     "is_this_ptr" : true,
     "referenced_type" : "_ZTIPSt15underflow_error"
    },
    {
     "referenced_type" : "_ZTIRKNSt3__112basic_stringIcNS_11char_traitsIcEENS_9allocatorIcEEEE"
    }
   ],
   "return_type" : "_ZTIv",
   "source_file" : "external/libcxx/include/stdexcept"
  },
  {
   "function_name" : "std::underflow_error::underflow_error",
   "linker_set_key" : "_ZNSt15underflow_errorC2EPKc",
   "parameters" :
   [
    {
     "is_this_ptr" : true,
     "referenced_type" : "_ZTIPSt15underflow_error"
    },
    {
     "referenced_type" : "_ZTIPKc"
    }
   ],
   "return_type" : "_ZTIv",
   "source_file" : "external/libcxx/include/stdexcept"
  },
  {
   "function_name" : "std::underflow_error::underflow_error",
   "linker_set_key" : "_ZNSt15underflow_errorC2ERKNSt3__112basic_stringIcNS0_11char_traitsIcEENS0_9allocatorIcEEEE",
   "parameters" :
   [
    {
     "is_this_ptr" : true,
     "referenced_type" : "_ZTIPSt15underflow_error"
    },
    {
     "referenced_type" : "_ZTIRKNSt3__112basic_stringIcNS_11char_traitsIcEENS_9allocatorIcEEEE"
    }
   ],
   "return_type" : "_ZTIv",
   "source_file" : "external/libcxx/include/stdexcept"
  },
  {
   "function_name" : "std::invalid_argument::invalid_argument",
   "linker_set_key" : "_ZNSt16invalid_argumentC1EPKc",
   "parameters" :
   [
    {
     "is_this_ptr" : true,
     "referenced_type" : "_ZTIPSt16invalid_argument"
    },
    {
     "referenced_type" : "_ZTIPKc"
    }
   ],
   "return_type" : "_ZTIv",
   "source_file" : "external/libcxx/include/stdexcept"
  },
  {
   "function_name" : "std::invalid_argument::invalid_argument",
   "linker_set_key" : "_ZNSt16invalid_argumentC1ERKNSt3__112basic_stringIcNS0_11char_traitsIcEENS0_9allocatorIcEEEE",
   "parameters" :
   [
    {
     "is_this_ptr" : true,
     "referenced_type" : "_ZTIPSt16invalid_argument"
    },
    {
     "referenced_type" : "_ZTIRKNSt3__112basic_stringIcNS_11char_traitsIcEENS_9allocatorIcEEEE"
    }
   ],
   "return_type" : "_ZTIv",
   "source_file" : "external/libcxx/include/stdexcept"
  },
  {
   "function_name" : "std::invalid_argument::invalid_argument",
   "linker_set_key" : "_ZNSt16invalid_argumentC2EPKc",
   "parameters" :
   [
    {
     "is_this_ptr" : true,
     "referenced_type" : "_ZTIPSt16invalid_argument"
    },
    {
     "referenced_type" : "_ZTIPKc"
    }
   ],
   "return_type" : "_ZTIv",
   "source_file" : "external/libcxx/include/stdexcept"
  },
  {
   "function_name" : "std::invalid_argument::invalid_argument",
   "linker_set_key" : "_ZNSt16invalid_argumentC2ERKNSt3__112basic_stringIcNS0_11char_traitsIcEENS0_9allocatorIcEEEE",
   "parameters" :
   [
    {
     "is_this_ptr" : true,
     "referenced_type" : "_ZTIPSt16invalid_argument"
    },
    {
     "referenced_type" : "_ZTIRKNSt3__112basic_stringIcNS_11char_traitsIcEENS_9allocatorIcEEEE"
    }
   ],
   "return_type" : "_ZTIv",
   "source_file" : "external/libcxx/include/stdexcept"
  },
  {
   "function_name" : "std::__1::__loadword",
   "linker_set_key" : "_ZNSt3__110__loadwordIjEET_PKv",
   "parameters" :
   [
    {
     "referenced_type" : "_ZTIPKv"
    }
   ],
   "return_type" : "_ZTIj",
   "source_file" : "external/libcxx/include/utility",
   "template_args" : [ "_ZTIj" ]
  },
  {
   "function_name" : "std::__1::__loadword",
   "linker_set_key" : "_ZNSt3__110__loadwordImEET_PKv",
   "parameters" :
   [
    {
     "referenced_type" : "_ZTIPKv"
    }
   ],
   "return_type" : "_ZTIm",
   "source_file" : "external/libcxx/include/utility",
   "template_args" : [ "_ZTIm" ]
  },
  {
   "function_name" : "std::__1::atomic_flag::test_and_set",
   "linker_set_key" : "_ZNSt3__111atomic_flag12test_and_setENS_12memory_orderE",
   "parameters" :
   [
    {
     "is_this_ptr" : true,
     "referenced_type" : "_ZTIPNSt3__111atomic_flagE"
    },
    {
     "default_arg" : true,
     "referenced_type" : "_ZTINSt3__112memory_orderE"
    }
   ],
   "return_type" : "_ZTIb",
   "source_file" : "external/libcxx/include/atomic"
  },
  {
   "function_name" : "std::__1::atomic_flag::clear",
   "linker_set_key" : "_ZNSt3__111atomic_flag5clearENS_12memory_orderE",
   "parameters" :
   [
    {
     "is_this_ptr" : true,
     "referenced_type" : "_ZTIPNSt3__111atomic_flagE"
    },
    {
     "default_arg" : true,
     "referenced_type" : "_ZTINSt3__112memory_orderE"
    }
   ],
   "return_type" : "_ZTIv",
   "source_file" : "external/libcxx/include/atomic"
  },
  {
   "function_name" : "std::__1::atomic_flag::atomic_flag",
   "linker_set_key" : "_ZNSt3__111atomic_flagC1Eb",
   "parameters" :
   [
    {
     "is_this_ptr" : true,
     "referenced_type" : "_ZTIPNSt3__111atomic_flagE"
    },
    {
     "referenced_type" : "_ZTIb"
    }
   ],
   "return_type" : "_ZTIv",
   "source_file" : "external/libcxx/include/atomic"
  },
  {
   "function_name" : "std::__1::atomic_flag::atomic_flag",
   "linker_set_key" : "_ZNSt3__111atomic_flagC1Ev",
   "parameters" :
   [
    {
     "is_this_ptr" : true,
     "referenced_type" : "_ZTIPNSt3__111atomic_flagE"
    }
   ],
   "return_type" : "_ZTIv",
   "source_file" : "external/libcxx/include/atomic"
  },
  {
   "function_name" : "std::__1::atomic_flag::atomic_flag",
   "linker_set_key" : "_ZNSt3__111atomic_flagC2Eb",
   "parameters" :
   [
    {
     "is_this_ptr" : true,
     "referenced_type" : "_ZTIPNSt3__111atomic_flagE"
    },
    {
     "referenced_type" : "_ZTIb"
    }
   ],
   "return_type" : "_ZTIv",
   "source_file" : "external/libcxx/include/atomic"
  },
  {
   "function_name" : "std::__1::atomic_flag::atomic_flag",
   "linker_set_key" : "_ZNSt3__111atomic_flagC2Ev",
   "parameters" :
   [
    {
     "is_this_ptr" : true,
     "referenced_type" : "_ZTIPNSt3__111atomic_flagE"
    }
   ],
   "return_type" : "_ZTIv",
   "source_file" : "external/libcxx/include/atomic"
  },
  {
   "access" : "private",
   "function_name" : "std::__1::__destruct_n::__set",
   "linker_set_key" : "_ZNSt3__112__destruct_n5__setEmNS_17integral_constantIbLb0EEE",
   "parameters" :
   [
    {
     "is_this_ptr" : true,
     "referenced_type" : "_ZTIPNSt3__112__destruct_nE"
    },
    {
     "referenced_type" : "_ZTIm"
    },
    {
     "referenced_type" : "_ZTINSt3__117integral_constantIbLb0EEE"
    }
   ],
   "return_type" : "_ZTIv",
   "source_file" : "external/libcxx/include/memory"
  },
  {
   "access" : "private",
   "function_name" : "std::__1::__destruct_n::__set",
   "linker_set_key" : "_ZNSt3__112__destruct_n5__setEmNS_17integral_constantIbLb1EEE",
   "parameters" :
   [
    {
     "is_this_ptr" : true,
     "referenced_type" : "_ZTIPNSt3__112__destruct_nE"
    },
    {
     "referenced_type" : "_ZTIm"
    },
    {
     "referenced_type" : "_ZTINSt3__117integral_constantIbLb1EEE"
    }
   ],
   "return_type" : "_ZTIv",
   "source_file" : "external/libcxx/include/memory"
  },
  {
   "access" : "private",
   "function_name" : "std::__1::__destruct_n::__incr",
   "linker_set_key" : "_ZNSt3__112__destruct_n6__incrENS_17integral_constantIbLb0EEE",
   "parameters" :
   [
    {
     "is_this_ptr" : true,
     "referenced_type" : "_ZTIPNSt3__112__destruct_nE"
    },
    {
     "referenced_type" : "_ZTINSt3__117integral_constantIbLb0EEE"
    }
   ],
   "return_type" : "_ZTIv",
   "source_file" : "external/libcxx/include/memory"
  },
  {
   "access" : "private",
   "function_name" : "std::__1::__destruct_n::__incr",
   "linker_set_key" : "_ZNSt3__112__destruct_n6__incrENS_17integral_constantIbLb1EEE",
   "parameters" :
   [
    {
     "is_this_ptr" : true,
     "referenced_type" : "_ZTIPNSt3__112__destruct_nE"
    },
    {
     "referenced_type" : "_ZTINSt3__117integral_constantIbLb1EEE"
    }
   ],
   "return_type" : "_ZTIv",
   "source_file" : "external/libcxx/include/memory"
  },
  {
   "function_name" : "std::__1::__destruct_n::__destruct_n",
   "linker_set_key" : "_ZNSt3__112__destruct_nC1Em",
   "parameters" :
   [
    {
     "is_this_ptr" : true,
     "referenced_type" : "_ZTIPNSt3__112__destruct_nE"
    },
    {
     "referenced_type" : "_ZTIm"
    }
   ],
   "return_type" : "_ZTIv",
   "source_file" : "external/libcxx/include/memory"
  },
  {
   "function_name" : "std::__1::__destruct_n::__destruct_n",
   "linker_set_key" : "_ZNSt3__112__destruct_nC2Em",
   "parameters" :
   [
    {
     "is_this_ptr" : true,
     "referenced_type" : "_ZTIPNSt3__112__destruct_nE"
    },
    {
     "referenced_type" : "_ZTIm"
    }
   ],
   "return_type" : "_ZTIv",
   "source_file" : "external/libcxx/include/memory"
  },
  {
   "function_name" : "std::__1::__find_detail::__find_idx_return",
   "linker_set_key" : "_ZNSt3__113__find_detail17__find_idx_returnEmmb",
   "parameters" :
   [
    {
     "referenced_type" : "_ZTIm"
    },
    {
     "referenced_type" : "_ZTIm"
    },
    {
     "referenced_type" : "_ZTIb"
    }
   ],
   "return_type" : "_ZTIm",
   "source_file" : "external/libcxx/include/tuple"
  },
  {
   "function_name" : "std::__1::__hash_combine",
   "linker_set_key" : "_ZNSt3__114__hash_combineEmm",
   "parameters" :
   [
    {
     "referenced_type" : "_ZTIm"
    },
    {
     "referenced_type" : "_ZTIm"
    }
   ],
   "return_type" : "_ZTIm",
   "source_file" : "external/libcxx/include/utility"
  },
  {
   "function_name" : "std::__1::__shared_count::__shared_count",
   "linker_set_key" : "_ZNSt3__114__shared_countC2El",
   "parameters" :
   [
    {
     "is_this_ptr" : true,
     "referenced_type" : "_ZTIPNSt3__114__shared_countE"
    },
    {
     "default_arg" : true,
     "referenced_type" : "_ZTIl"
    }
   ],
   "return_type" : "_ZTIv",
   "source_file" : "external/libcxx/include/memory"
  },
  {
   "function_name" : "std::__1::pointer_safety::pointer_safety",
   "linker_set_key" : "_ZNSt3__114pointer_safetyC1ENS0_4__lxE",
   "parameters" :
   [
    {
     "is_this_ptr" : true,
     "referenced_type" : "_ZTIPNSt3__114pointer_safetyE"
    },
    {
     "referenced_type" : "_ZTINSt3__114pointer_safety4__lxE"
    }
   ],
   "return_type" : "_ZTIv",
   "source_file" : "external/libcxx/include/memory"
  },
  {
   "function_name" : "std::__1::pointer_safety::pointer_safety",
   "linker_set_key" : "_ZNSt3__114pointer_safetyC1Ev",
   "parameters" :
   [
    {
     "is_this_ptr" : true,
     "referenced_type" : "_ZTIPNSt3__114pointer_safetyE"
    }
   ],
   "return_type" : "_ZTIv",
   "source_file" : "external/libcxx/include/memory"
  },
  {
   "function_name" : "std::__1::pointer_safety::pointer_safety",
   "linker_set_key" : "_ZNSt3__114pointer_safetyC2ENS0_4__lxE",
   "parameters" :
   [
    {
     "is_this_ptr" : true,
     "referenced_type" : "_ZTIPNSt3__114pointer_safetyE"
    },
    {
     "referenced_type" : "_ZTINSt3__114pointer_safety4__lxE"
    }
   ],
   "return_type" : "_ZTIv",
   "source_file" : "external/libcxx/include/memory"
  },
  {
   "function_name" : "std::__1::pointer_safety::pointer_safety",
   "linker_set_key" : "_ZNSt3__114pointer_safetyC2Ev",
   "parameters" :
   [
    {
     "is_this_ptr" : true,
     "referenced_type" : "_ZTIPNSt3__114pointer_safetyE"
    }
   ],
   "return_type" : "_ZTIv",
   "source_file" : "external/libcxx/include/memory"
  },
  {
   "function_name" : "std::__1::__throw_bad_cast",
   "linker_set_key" : "_ZNSt3__116__throw_bad_castEv",
   "return_type" : "_ZTIv",
   "source_file" : "external/libcxx/include/typeinfo"
  },
  {
   "access" : "private",
   "function_name" : "std::__1::_DeallocateCaller::__do_deallocate_handle_size",
   "linker_set_key" : "_ZNSt3__117_DeallocateCaller27__do_deallocate_handle_sizeEPvm",
   "parameters" :
   [
    {
     "referenced_type" : "_ZTIPv"
    },
    {
     "referenced_type" : "_ZTIm"
    }
   ],
   "return_type" : "_ZTIv",
   "source_file" : "external/libcxx/include/new"
  },
  {
   "function_name" : "std::__1::_DeallocateCaller::__do_deallocate_handle_align",
   "linker_set_key" : "_ZNSt3__117_DeallocateCaller28__do_deallocate_handle_alignEPvm",
   "parameters" :
   [
    {
     "referenced_type" : "_ZTIPv"
    },
    {
     "referenced_type" : "_ZTIm"
    }
   ],
   "return_type" : "_ZTIv",
   "source_file" : "external/libcxx/include/new"
  },
  {
   "function_name" : "std::__1::_DeallocateCaller::__do_deallocate_handle_size_align",
   "linker_set_key" : "_ZNSt3__117_DeallocateCaller33__do_deallocate_handle_size_alignEPvmm",
   "parameters" :
   [
    {
     "referenced_type" : "_ZTIPv"
    },
    {
     "referenced_type" : "_ZTIm"
    },
    {
     "referenced_type" : "_ZTIm"
    }
   ],
   "return_type" : "_ZTIv",
   "source_file" : "external/libcxx/include/new"
  },
  {
   "access" : "private",
   "function_name" : "std::__1::_DeallocateCaller::__do_call",
   "linker_set_key" : "_ZNSt3__117_DeallocateCaller9__do_callEPv",
   "parameters" :
   [
    {
     "referenced_type" : "_ZTIPv"
    }
   ],
   "return_type" : "_ZTIv",
   "source_file" : "external/libcxx/include/new"
  },
  {
   "function_name" : "std::__1::__libcpp_allocate",
   "linker_set_key" : "_ZNSt3__117__libcpp_allocateEmm",
   "parameters" :
   [
    {
     "referenced_type" : "_ZTIm"
    },
    {
     "referenced_type" : "_ZTIm"
    }
   ],
   "return_type" : "_ZTIPv",
   "source_file" : "external/libcxx/include/new"
  },
  {
   "function_name" : "std::__1::atomic_flag_clear",
   "linker_set_key" : "_ZNSt3__117atomic_flag_clearEPNS_11atomic_flagE",
   "parameters" :
   [
    {
     "referenced_type" : "_ZTIPNSt3__111atomic_flagE"
    }
   ],
   "return_type" : "_ZTIv",
   "source_file" : "external/libcxx/include/atomic"
  },
  {
   "function_name" : "std::__1::atomic_flag_clear",
   "linker_set_key" : "_ZNSt3__117atomic_flag_clearEPVNS_11atomic_flagE",
   "parameters" :
   [
    {
     "referenced_type" : "_ZTIPVNSt3__111atomic_flagE"
    }
   ],
   "return_type" : "_ZTIv",
   "source_file" : "external/libcxx/include/atomic"
  },
  {
   "function_name" : "std::__1::__libcpp_deallocate",
   "linker_set_key" : "_ZNSt3__119__libcpp_deallocateEPvmm",
   "parameters" :
   [
    {
     "referenced_type" : "_ZTIPv"
    },
    {
     "referenced_type" : "_ZTIm"
    },
    {
     "referenced_type" : "_ZTIm"
    }
   ],
   "return_type" : "_ZTIv",
   "source_file" : "external/libcxx/include/new"
  },
  {
   "function_name" : "std::__1::__libcpp_debug_info::__libcpp_debug_info",
   "linker_set_key" : "_ZNSt3__119__libcpp_debug_infoC1EPKciS2_S2_",
   "parameters" :
   [
    {
     "is_this_ptr" : true,
     "referenced_type" : "_ZTIPNSt3__119__libcpp_debug_infoE"
    },
    {
     "referenced_type" : "_ZTIPKc"
    },
    {
     "referenced_type" : "_ZTIi"
    },
    {
     "referenced_type" : "_ZTIPKc"
    },
    {
     "referenced_type" : "_ZTIPKc"
    }
   ],
   "return_type" : "_ZTIv",
   "source_file" : "external/libcxx/include/__debug"
  },
  {
   "function_name" : "std::__1::__libcpp_debug_info::__libcpp_debug_info",
   "linker_set_key" : "_ZNSt3__119__libcpp_debug_infoC1Ev",
   "parameters" :
   [
    {
     "is_this_ptr" : true,
     "referenced_type" : "_ZTIPNSt3__119__libcpp_debug_infoE"
    }
   ],
   "return_type" : "_ZTIv",
   "source_file" : "external/libcxx/include/__debug"
  },
  {
   "function_name" : "std::__1::__libcpp_debug_info::__libcpp_debug_info",
   "linker_set_key" : "_ZNSt3__119__libcpp_debug_infoC2EPKciS2_S2_",
   "parameters" :
   [
    {
     "is_this_ptr" : true,
     "referenced_type" : "_ZTIPNSt3__119__libcpp_debug_infoE"
    },
    {
     "referenced_type" : "_ZTIPKc"
    },
    {
     "referenced_type" : "_ZTIi"
    },
    {
     "referenced_type" : "_ZTIPKc"
    },
    {
     "referenced_type" : "_ZTIPKc"
    }
   ],
   "return_type" : "_ZTIv",
   "source_file" : "external/libcxx/include/__debug"
  },
  {
   "function_name" : "std::__1::__libcpp_debug_info::__libcpp_debug_info",
   "linker_set_key" : "_ZNSt3__119__libcpp_debug_infoC2Ev",
   "parameters" :
   [
    {
     "is_this_ptr" : true,
     "referenced_type" : "_ZTIPNSt3__119__libcpp_debug_infoE"
    }
   ],
   "return_type" : "_ZTIv",
   "source_file" : "external/libcxx/include/__debug"
  },
  {
   "function_name" : "std::__1::__shared_weak_count::__shared_weak_count",
   "linker_set_key" : "_ZNSt3__119__shared_weak_countC2El",
   "parameters" :
   [
    {
     "is_this_ptr" : true,
     "referenced_type" : "_ZTIPNSt3__119__shared_weak_countE"
    },
    {
     "default_arg" : true,
     "referenced_type" : "_ZTIl"
    }
   ],
   "return_type" : "_ZTIv",
   "source_file" : "external/libcxx/include/memory"
  },
  {
   "function_name" : "std::__1::__throw_logic_error",
   "linker_set_key" : "_ZNSt3__119__throw_logic_errorEPKc",
   "parameters" :
   [
    {
     "referenced_type" : "_ZTIPKc"
    }
   ],
   "return_type" : "_ZTIv",
   "source_file" : "external/libcxx/include/stdexcept"
  },
  {
   "function_name" : "std::__1::__throw_range_error",
   "linker_set_key" : "_ZNSt3__119__throw_range_errorEPKc",
   "parameters" :
   [
    {
     "referenced_type" : "_ZTIPKc"
    }
   ],
   "return_type" : "_ZTIv",
   "source_file" : "external/libcxx/include/stdexcept"
  },
  {
   "function_name" : "std::__1::atomic_signal_fence",
   "linker_set_key" : "_ZNSt3__119atomic_signal_fenceENS_12memory_orderE",
   "parameters" :
   [
    {
     "referenced_type" : "_ZTINSt3__112memory_orderE"
    }
   ],
   "return_type" : "_ZTIv",
   "source_file" : "external/libcxx/include/atomic"
  },
  {
   "function_name" : "std::__1::atomic_thread_fence",
   "linker_set_key" : "_ZNSt3__119atomic_thread_fenceENS_12memory_orderE",
   "parameters" :
   [
    {
     "referenced_type" : "_ZTINSt3__112memory_orderE"
    }
   ],
   "return_type" : "_ZTIv",
   "source_file" : "external/libcxx/include/atomic"
  },
  {
   "function_name" : "std::__1::__throw_bad_weak_ptr",
   "linker_set_key" : "_ZNSt3__120__throw_bad_weak_ptrEv",
   "return_type" : "_ZTIv",
   "source_file" : "external/libcxx/include/memory"
  },
  {
   "function_name" : "std::__1::__throw_domain_error",
   "linker_set_key" : "_ZNSt3__120__throw_domain_errorEPKc",
   "parameters" :
   [
    {
     "referenced_type" : "_ZTIPKc"
    }
   ],
   "return_type" : "_ZTIv",
   "source_file" : "external/libcxx/include/stdexcept"
  },
  {
   "function_name" : "std::__1::__throw_length_error",
   "linker_set_key" : "_ZNSt3__120__throw_length_errorEPKc",
   "parameters" :
   [
    {
     "referenced_type" : "_ZTIPKc"
    }
   ],
   "return_type" : "_ZTIv",
   "source_file" : "external/libcxx/include/stdexcept"
  },
  {
   "function_name" : "std::__1::__throw_out_of_range",
   "linker_set_key" : "_ZNSt3__120__throw_out_of_rangeEPKc",
   "parameters" :
   [
    {
     "referenced_type" : "_ZTIPKc"
    }
   ],
   "return_type" : "_ZTIv",
   "source_file" : "external/libcxx/include/stdexcept"
  },
  {
   "function_name" : "std::__1::__convert_to_integral",
   "linker_set_key" : "_ZNSt3__121__convert_to_integralEi",
   "parameters" :
   [
    {
     "referenced_type" : "_ZTIi"
    }
   ],
   "return_type" : "_ZTIi",
   "source_file" : "external/libcxx/include/type_traits"
  },
  {
   "function_name" : "std::__1::__convert_to_integral",
   "linker_set_key" : "_ZNSt3__121__convert_to_integralEj",
   "parameters" :
   [
    {
     "referenced_type" : "_ZTIj"
    }
   ],
   "return_type" : "_ZTIj",
   "source_file" : "external/libcxx/include/type_traits"
  },
  {
   "function_name" : "std::__1::__convert_to_integral",
   "linker_set_key" : "_ZNSt3__121__convert_to_integralEl",
   "parameters" :
   [
    {
     "referenced_type" : "_ZTIl"
    }
   ],
   "return_type" : "_ZTIl",
   "source_file" : "external/libcxx/include/type_traits"
  },
  {
   "function_name" : "std::__1::__convert_to_integral",
   "linker_set_key" : "_ZNSt3__121__convert_to_integralEm",
   "parameters" :
   [
    {
     "referenced_type" : "_ZTIm"
    }
   ],
   "return_type" : "_ZTIm",
   "source_file" : "external/libcxx/include/type_traits"
  },
  {
   "function_name" : "std::__1::__convert_to_integral",
   "linker_set_key" : "_ZNSt3__121__convert_to_integralEn",
   "parameters" :
   [
    {
     "referenced_type" : "_ZTIn"
    }
   ],
   "return_type" : "_ZTIn",
   "source_file" : "external/libcxx/include/type_traits"
  },
  {
   "function_name" : "std::__1::__convert_to_integral",
   "linker_set_key" : "_ZNSt3__121__convert_to_integralEo",
   "parameters" :
   [
    {
     "referenced_type" : "_ZTIo"
    }
   ],
   "return_type" : "_ZTIo",
   "source_file" : "external/libcxx/include/type_traits"
  },
  {
   "function_name" : "std::__1::__convert_to_integral",
   "linker_set_key" : "_ZNSt3__121__convert_to_integralEx",
   "parameters" :
   [
    {
     "referenced_type" : "_ZTIx"
    }
   ],
   "return_type" : "_ZTIx",
   "source_file" : "external/libcxx/include/type_traits"
  },
  {
   "function_name" : "std::__1::__convert_to_integral",
   "linker_set_key" : "_ZNSt3__121__convert_to_integralEy",
   "parameters" :
   [
    {
     "referenced_type" : "_ZTIy"
    }
   ],
   "return_type" : "_ZTIy",
   "source_file" : "external/libcxx/include/type_traits"
  },
  {
   "function_name" : "std::__1::__libcpp_relaxed_load",
   "linker_set_key" : "_ZNSt3__121__libcpp_relaxed_loadIlEET_PKS1_",
   "parameters" :
   [
    {
     "referenced_type" : "_ZTIPKl"
    }
   ],
   "return_type" : "_ZTIl",
   "source_file" : "external/libcxx/include/memory",
   "template_args" : [ "_ZTIl" ]
  },
  {
   "access" : "private",
   "function_name" : "std::__1::__murmur2_or_cityhash<unsigned long, 64>::__shift_mix",
   "linker_set_key" : "_ZNSt3__121__murmur2_or_cityhashImLm64EE11__shift_mixEm",
   "parameters" :
   [
    {
     "referenced_type" : "_ZTIm"
    }
   ],
   "return_type" : "_ZTIm",
   "source_file" : "external/libcxx/include/utility"
  },
  {
   "access" : "private",
   "function_name" : "std::__1::__murmur2_or_cityhash<unsigned long, 64>::__hash_len_16",
   "linker_set_key" : "_ZNSt3__121__murmur2_or_cityhashImLm64EE13__hash_len_16Emm",
   "parameters" :
   [
    {
     "referenced_type" : "_ZTIm"
    },
    {
     "referenced_type" : "_ZTIm"
    }
   ],
   "return_type" : "_ZTIm",
   "source_file" : "external/libcxx/include/utility"
  },
  {
   "access" : "private",
   "function_name" : "std::__1::__murmur2_or_cityhash<unsigned long, 64>::__hash_len_0_to_16",
   "linker_set_key" : "_ZNSt3__121__murmur2_or_cityhashImLm64EE18__hash_len_0_to_16EPKcm",
   "parameters" :
   [
    {
     "referenced_type" : "_ZTIPKc"
    },
    {
     "referenced_type" : "_ZTIm"
    }
   ],
   "return_type" : "_ZTIm",
   "source_file" : "external/libcxx/include/utility"
  },
  {
   "access" : "private",
   "function_name" : "std::__1::__murmur2_or_cityhash<unsigned long, 64>::__hash_len_17_to_32",
   "linker_set_key" : "_ZNSt3__121__murmur2_or_cityhashImLm64EE19__hash_len_17_to_32EPKcm",
   "parameters" :
   [
    {
     "referenced_type" : "_ZTIPKc"
    },
    {
     "referenced_type" : "_ZTIm"
    }
   ],
   "return_type" : "_ZTIm",
   "source_file" : "external/libcxx/include/utility"
  },
  {
   "access" : "private",
   "function_name" : "std::__1::__murmur2_or_cityhash<unsigned long, 64>::__hash_len_33_to_64",
   "linker_set_key" : "_ZNSt3__121__murmur2_or_cityhashImLm64EE19__hash_len_33_to_64EPKcm",
   "parameters" :
   [
    {
     "referenced_type" : "_ZTIPKc"
    },
    {
     "referenced_type" : "_ZTIm"
    }
   ],
   "return_type" : "_ZTIm",
   "source_file" : "external/libcxx/include/utility"
  },
  {
   "access" : "private",
   "function_name" : "std::__1::__murmur2_or_cityhash<unsigned long, 64>::__rotate_by_at_least_1",
   "linker_set_key" : "_ZNSt3__121__murmur2_or_cityhashImLm64EE22__rotate_by_at_least_1Emi",
   "parameters" :
   [
    {
     "referenced_type" : "_ZTIm"
    },
    {
     "referenced_type" : "_ZTIi"
    }
   ],
   "return_type" : "_ZTIm",
   "source_file" : "external/libcxx/include/utility"
  },
  {
   "access" : "private",
   "function_name" : "std::__1::__murmur2_or_cityhash<unsigned long, 64>::__weak_hash_len_32_with_seeds",
   "linker_set_key" : "_ZNSt3__121__murmur2_or_cityhashImLm64EE29__weak_hash_len_32_with_seedsEPKcmm",
   "parameters" :
   [
    {
     "referenced_type" : "_ZTIPKc"
    },
    {
     "referenced_type" : "_ZTIm"
    },
    {
     "referenced_type" : "_ZTIm"
    }
   ],
   "return_type" : "_ZTINSt3__14pairImmEE",
   "source_file" : "external/libcxx/include/utility"
  },
  {
   "access" : "private",
   "function_name" : "std::__1::__murmur2_or_cityhash<unsigned long, 64>::__weak_hash_len_32_with_seeds",
   "linker_set_key" : "_ZNSt3__121__murmur2_or_cityhashImLm64EE29__weak_hash_len_32_with_seedsEmmmmmm",
   "parameters" :
   [
    {
     "referenced_type" : "_ZTIm"
    },
    {
     "referenced_type" : "_ZTIm"
    },
    {
     "referenced_type" : "_ZTIm"
    },
    {
     "referenced_type" : "_ZTIm"
    },
    {
     "referenced_type" : "_ZTIm"
    },
    {
     "referenced_type" : "_ZTIm"
    }
   ],
   "return_type" : "_ZTINSt3__14pairImmEE",
   "source_file" : "external/libcxx/include/utility"
  },
  {
   "access" : "private",
   "function_name" : "std::__1::__murmur2_or_cityhash<unsigned long, 64>::__rotate",
   "linker_set_key" : "_ZNSt3__121__murmur2_or_cityhashImLm64EE8__rotateEmi",
   "parameters" :
   [
    {
     "referenced_type" : "_ZTIm"
    },
    {
     "referenced_type" : "_ZTIi"
    }
   ],
   "return_type" : "_ZTIm",
   "source_file" : "external/libcxx/include/utility"
  },
  {
   "function_name" : "std::__1::__murmur2_or_cityhash<unsigned long, 64>::operator()",
   "linker_set_key" : "_ZNSt3__121__murmur2_or_cityhashImLm64EEclEPKvm",
   "parameters" :
   [
    {
     "is_this_ptr" : true,
     "referenced_type" : "_ZTIPNSt3__121__murmur2_or_cityhashImLm64EEE"
    },
    {
     "referenced_type" : "_ZTIPKv"
    },
    {
     "referenced_type" : "_ZTIm"
    }
   ],
   "return_type" : "_ZTIm",
   "source_file" : "external/libcxx/include/utility"
  },
  {
   "function_name" : "std::__1::__throw_overflow_error",
   "linker_set_key" : "_ZNSt3__122__throw_overflow_errorEPKc",
   "parameters" :
   [
    {
     "referenced_type" : "_ZTIPKc"
    }
   ],
   "return_type" : "_ZTIv",
   "source_file" : "external/libcxx/include/stdexcept"
  },
  {
   "access" : "protected",
   "function_name" : "std::__1::__libcpp_numeric_limits<bool, true>::denorm_min",
   "linker_set_key" : "_ZNSt3__123__libcpp_numeric_limitsIbLb1EE10denorm_minEv",
   "return_type" : "_ZTIb",
   "source_file" : "external/libcxx/include/limits"
  },
  {
   "access" : "protected",
   "function_name" : "std::__1::__libcpp_numeric_limits<bool, true>::round_error",
   "linker_set_key" : "_ZNSt3__123__libcpp_numeric_limitsIbLb1EE11round_errorEv",
   "return_type" : "_ZTIb",
   "source_file" : "external/libcxx/include/limits"
  },
  {
   "access" : "protected",
   "function_name" : "std::__1::__libcpp_numeric_limits<bool, true>::signaling_NaN",
   "linker_set_key" : "_ZNSt3__123__libcpp_numeric_limitsIbLb1EE13signaling_NaNEv",
   "return_type" : "_ZTIb",
   "source_file" : "external/libcxx/include/limits"
  },
  {
   "access" : "protected",
   "function_name" : "std::__1::__libcpp_numeric_limits<bool, true>::max",
   "linker_set_key" : "_ZNSt3__123__libcpp_numeric_limitsIbLb1EE3maxEv",
   "return_type" : "_ZTIb",
   "source_file" : "external/libcxx/include/limits"
  },
  {
   "access" : "protected",
   "function_name" : "std::__1::__libcpp_numeric_limits<bool, true>::min",
   "linker_set_key" : "_ZNSt3__123__libcpp_numeric_limitsIbLb1EE3minEv",
   "return_type" : "_ZTIb",
   "source_file" : "external/libcxx/include/limits"
  },
  {
   "access" : "protected",
   "function_name" : "std::__1::__libcpp_numeric_limits<bool, true>::lowest",
   "linker_set_key" : "_ZNSt3__123__libcpp_numeric_limitsIbLb1EE6lowestEv",
   "return_type" : "_ZTIb",
   "source_file" : "external/libcxx/include/limits"
  },
  {
   "access" : "protected",
   "function_name" : "std::__1::__libcpp_numeric_limits<bool, true>::epsilon",
   "linker_set_key" : "_ZNSt3__123__libcpp_numeric_limitsIbLb1EE7epsilonEv",
   "return_type" : "_ZTIb",
   "source_file" : "external/libcxx/include/limits"
  },
  {
   "access" : "protected",
   "function_name" : "std::__1::__libcpp_numeric_limits<bool, true>::infinity",
   "linker_set_key" : "_ZNSt3__123__libcpp_numeric_limitsIbLb1EE8infinityEv",
   "return_type" : "_ZTIb",
   "source_file" : "external/libcxx/include/limits"
  },
  {
   "access" : "protected",
   "function_name" : "std::__1::__libcpp_numeric_limits<bool, true>::quiet_NaN",
   "linker_set_key" : "_ZNSt3__123__libcpp_numeric_limitsIbLb1EE9quiet_NaNEv",
   "return_type" : "_ZTIb",
   "source_file" : "external/libcxx/include/limits"
  },
  {
   "access" : "protected",
   "function_name" : "std::__1::__libcpp_numeric_limits<double, true>::denorm_min",
   "linker_set_key" : "_ZNSt3__123__libcpp_numeric_limitsIdLb1EE10denorm_minEv",
   "return_type" : "_ZTId",
   "source_file" : "external/libcxx/include/limits"
  },
  {
   "access" : "protected",
   "function_name" : "std::__1::__libcpp_numeric_limits<double, true>::round_error",
   "linker_set_key" : "_ZNSt3__123__libcpp_numeric_limitsIdLb1EE11round_errorEv",
   "return_type" : "_ZTId",
   "source_file" : "external/libcxx/include/limits"
  },
  {
   "access" : "protected",
   "function_name" : "std::__1::__libcpp_numeric_limits<double, true>::signaling_NaN",
   "linker_set_key" : "_ZNSt3__123__libcpp_numeric_limitsIdLb1EE13signaling_NaNEv",
   "return_type" : "_ZTId",
   "source_file" : "external/libcxx/include/limits"
  },
  {
   "access" : "protected",
   "function_name" : "std::__1::__libcpp_numeric_limits<double, true>::max",
   "linker_set_key" : "_ZNSt3__123__libcpp_numeric_limitsIdLb1EE3maxEv",
   "return_type" : "_ZTId",
   "source_file" : "external/libcxx/include/limits"
  },
  {
   "access" : "protected",
   "function_name" : "std::__1::__libcpp_numeric_limits<double, true>::min",
   "linker_set_key" : "_ZNSt3__123__libcpp_numeric_limitsIdLb1EE3minEv",
   "return_type" : "_ZTId",
   "source_file" : "external/libcxx/include/limits"
  },
  {
   "access" : "protected",
   "function_name" : "std::__1::__libcpp_numeric_limits<double, true>::lowest",
   "linker_set_key" : "_ZNSt3__123__libcpp_numeric_limitsIdLb1EE6lowestEv",
   "return_type" : "_ZTId",
   "source_file" : "external/libcxx/include/limits"
  },
  {
   "access" : "protected",
   "function_name" : "std::__1::__libcpp_numeric_limits<double, true>::epsilon",
   "linker_set_key" : "_ZNSt3__123__libcpp_numeric_limitsIdLb1EE7epsilonEv",
   "return_type" : "_ZTId",
   "source_file" : "external/libcxx/include/limits"
  },
  {
   "access" : "protected",
   "function_name" : "std::__1::__libcpp_numeric_limits<double, true>::infinity",
   "linker_set_key" : "_ZNSt3__123__libcpp_numeric_limitsIdLb1EE8infinityEv",
   "return_type" : "_ZTId",
   "source_file" : "external/libcxx/include/limits"
  },
  {
   "access" : "protected",
   "function_name" : "std::__1::__libcpp_numeric_limits<double, true>::quiet_NaN",
   "linker_set_key" : "_ZNSt3__123__libcpp_numeric_limitsIdLb1EE9quiet_NaNEv",
   "return_type" : "_ZTId",
   "source_file" : "external/libcxx/include/limits"
  },
  {
   "access" : "protected",
   "function_name" : "std::__1::__libcpp_numeric_limits<long double, true>::denorm_min",
   "linker_set_key" : "_ZNSt3__123__libcpp_numeric_limitsIeLb1EE10denorm_minEv",
   "return_type" : "_ZTIe",
   "source_file" : "external/libcxx/include/limits"
  },
  {
   "access" : "protected",
   "function_name" : "std::__1::__libcpp_numeric_limits<long double, true>::round_error",
   "linker_set_key" : "_ZNSt3__123__libcpp_numeric_limitsIeLb1EE11round_errorEv",
   "return_type" : "_ZTIe",
   "source_file" : "external/libcxx/include/limits"
  },
  {
   "access" : "protected",
   "function_name" : "std::__1::__libcpp_numeric_limits<long double, true>::signaling_NaN",
   "linker_set_key" : "_ZNSt3__123__libcpp_numeric_limitsIeLb1EE13signaling_NaNEv",
   "return_type" : "_ZTIe",
   "source_file" : "external/libcxx/include/limits"
  },
  {
   "access" : "protected",
   "function_name" : "std::__1::__libcpp_numeric_limits<long double, true>::max",
   "linker_set_key" : "_ZNSt3__123__libcpp_numeric_limitsIeLb1EE3maxEv",
   "return_type" : "_ZTIe",
   "source_file" : "external/libcxx/include/limits"
  },
  {
   "access" : "protected",
   "function_name" : "std::__1::__libcpp_numeric_limits<long double, true>::min",
   "linker_set_key" : "_ZNSt3__123__libcpp_numeric_limitsIeLb1EE3minEv",
   "return_type" : "_ZTIe",
   "source_file" : "external/libcxx/include/limits"
  },
  {
   "access" : "protected",
   "function_name" : "std::__1::__libcpp_numeric_limits<long double, true>::lowest",
   "linker_set_key" : "_ZNSt3__123__libcpp_numeric_limitsIeLb1EE6lowestEv",
   "return_type" : "_ZTIe",
   "source_file" : "external/libcxx/include/limits"
  },
  {
   "access" : "protected",
   "function_name" : "std::__1::__libcpp_numeric_limits<long double, true>::epsilon",
   "linker_set_key" : "_ZNSt3__123__libcpp_numeric_limitsIeLb1EE7epsilonEv",
   "return_type" : "_ZTIe",
   "source_file" : "external/libcxx/include/limits"
  },
  {
   "access" : "protected",
   "function_name" : "std::__1::__libcpp_numeric_limits<long double, true>::infinity",
   "linker_set_key" : "_ZNSt3__123__libcpp_numeric_limitsIeLb1EE8infinityEv",
   "return_type" : "_ZTIe",
   "source_file" : "external/libcxx/include/limits"
  },
  {
   "access" : "protected",
   "function_name" : "std::__1::__libcpp_numeric_limits<long double, true>::quiet_NaN",
   "linker_set_key" : "_ZNSt3__123__libcpp_numeric_limitsIeLb1EE9quiet_NaNEv",
   "return_type" : "_ZTIe",
   "source_file" : "external/libcxx/include/limits"
  },
  {
   "access" : "protected",
   "function_name" : "std::__1::__libcpp_numeric_limits<float, true>::denorm_min",
   "linker_set_key" : "_ZNSt3__123__libcpp_numeric_limitsIfLb1EE10denorm_minEv",
   "return_type" : "_ZTIf",
   "source_file" : "external/libcxx/include/limits"
  },
  {
   "access" : "protected",
   "function_name" : "std::__1::__libcpp_numeric_limits<float, true>::round_error",
   "linker_set_key" : "_ZNSt3__123__libcpp_numeric_limitsIfLb1EE11round_errorEv",
   "return_type" : "_ZTIf",
   "source_file" : "external/libcxx/include/limits"
  },
  {
   "access" : "protected",
   "function_name" : "std::__1::__libcpp_numeric_limits<float, true>::signaling_NaN",
   "linker_set_key" : "_ZNSt3__123__libcpp_numeric_limitsIfLb1EE13signaling_NaNEv",
   "return_type" : "_ZTIf",
   "source_file" : "external/libcxx/include/limits"
  },
  {
   "access" : "protected",
   "function_name" : "std::__1::__libcpp_numeric_limits<float, true>::max",
   "linker_set_key" : "_ZNSt3__123__libcpp_numeric_limitsIfLb1EE3maxEv",
   "return_type" : "_ZTIf",
   "source_file" : "external/libcxx/include/limits"
  },
  {
   "access" : "protected",
   "function_name" : "std::__1::__libcpp_numeric_limits<float, true>::min",
   "linker_set_key" : "_ZNSt3__123__libcpp_numeric_limitsIfLb1EE3minEv",
   "return_type" : "_ZTIf",
   "source_file" : "external/libcxx/include/limits"
  },
  {
   "access" : "protected",
   "function_name" : "std::__1::__libcpp_numeric_limits<float, true>::lowest",
   "linker_set_key" : "_ZNSt3__123__libcpp_numeric_limitsIfLb1EE6lowestEv",
   "return_type" : "_ZTIf",
   "source_file" : "external/libcxx/include/limits"
  },
  {
   "access" : "protected",
   "function_name" : "std::__1::__libcpp_numeric_limits<float, true>::epsilon",
   "linker_set_key" : "_ZNSt3__123__libcpp_numeric_limitsIfLb1EE7epsilonEv",
   "return_type" : "_ZTIf",
   "source_file" : "external/libcxx/include/limits"
  },
  {
   "access" : "protected",
   "function_name" : "std::__1::__libcpp_numeric_limits<float, true>::infinity",
   "linker_set_key" : "_ZNSt3__123__libcpp_numeric_limitsIfLb1EE8infinityEv",
   "return_type" : "_ZTIf",
   "source_file" : "external/libcxx/include/limits"
  },
  {
   "access" : "protected",
   "function_name" : "std::__1::__libcpp_numeric_limits<float, true>::quiet_NaN",
   "linker_set_key" : "_ZNSt3__123__libcpp_numeric_limitsIfLb1EE9quiet_NaNEv",
   "return_type" : "_ZTIf",
   "source_file" : "external/libcxx/include/limits"
  },
  {
   "function_name" : "std::__1::__throw_underflow_error",
   "linker_set_key" : "_ZNSt3__123__throw_underflow_errorEPKc",
   "parameters" :
   [
    {
     "referenced_type" : "_ZTIPKc"
    }
   ],
   "return_type" : "_ZTIv",
   "source_file" : "external/libcxx/include/stdexcept"
  },
  {
   "function_name" : "std::__1::__is_overaligned_for_new",
   "linker_set_key" : "_ZNSt3__124__is_overaligned_for_newEm",
   "parameters" :
   [
    {
     "referenced_type" : "_ZTIm"
    }
   ],
   "return_type" : "_ZTIb",
   "source_file" : "external/libcxx/include/new"
  },
  {
   "function_name" : "std::__1::__throw_invalid_argument",
   "linker_set_key" : "_ZNSt3__124__throw_invalid_argumentEPKc",
   "parameters" :
   [
    {
     "referenced_type" : "_ZTIPKc"
    }
   ],
   "return_type" : "_ZTIv",
   "source_file" : "external/libcxx/include/stdexcept"
  },
  {
   "function_name" : "std::__1::atomic_flag_test_and_set",
   "linker_set_key" : "_ZNSt3__124atomic_flag_test_and_setEPNS_11atomic_flagE",
   "parameters" :
   [
    {
     "referenced_type" : "_ZTIPNSt3__111atomic_flagE"
    }
   ],
   "return_type" : "_ZTIb",
   "source_file" : "external/libcxx/include/atomic"
  },
  {
   "function_name" : "std::__1::atomic_flag_test_and_set",
   "linker_set_key" : "_ZNSt3__124atomic_flag_test_and_setEPVNS_11atomic_flagE",
   "parameters" :
   [
    {
     "referenced_type" : "_ZTIPVNSt3__111atomic_flagE"
    }
   ],
   "return_type" : "_ZTIb",
   "source_file" : "external/libcxx/include/atomic"
  },
  {
   "function_name" : "std::__1::atomic_flag_clear_explicit",
   "linker_set_key" : "_ZNSt3__126atomic_flag_clear_explicitEPNS_11atomic_flagENS_12memory_orderE",
   "parameters" :
   [
    {
     "referenced_type" : "_ZTIPNSt3__111atomic_flagE"
    },
    {
     "referenced_type" : "_ZTINSt3__112memory_orderE"
    }
   ],
   "return_type" : "_ZTIv",
   "source_file" : "external/libcxx/include/atomic"
  },
  {
   "function_name" : "std::__1::atomic_flag_clear_explicit",
   "linker_set_key" : "_ZNSt3__126atomic_flag_clear_explicitEPVNS_11atomic_flagENS_12memory_orderE",
   "parameters" :
   [
    {
     "referenced_type" : "_ZTIPVNSt3__111atomic_flagE"
    },
    {
     "referenced_type" : "_ZTINSt3__112memory_orderE"
    }
   ],
   "return_type" : "_ZTIv",
   "source_file" : "external/libcxx/include/atomic"
  },
  {
   "function_name" : "std::__1::__libcpp_deallocate_unsized",
   "linker_set_key" : "_ZNSt3__127__libcpp_deallocate_unsizedEPvm",
   "parameters" :
   [
    {
     "referenced_type" : "_ZTIPv"
    },
    {
     "referenced_type" : "_ZTIm"
    }
   ],
   "return_type" : "_ZTIv",
   "source_file" : "external/libcxx/include/new"
  },
  {
   "function_name" : "std::__1::__check_tuple_constructor_fail::__enable_assign",
   "linker_set_key" : "_ZNSt3__130__check_tuple_constructor_fail15__enable_assignIJNS_4pairImmEEEEEbv",
   "return_type" : "_ZTIb",
   "source_file" : "external/libcxx/include/__tuple"
  },
  {
   "function_name" : "std::__1::__check_tuple_constructor_fail::__enable_implicit",
   "linker_set_key" : "_ZNSt3__130__check_tuple_constructor_fail17__enable_implicitIJNS_4pairImmEEEEEbv",
   "return_type" : "_ZTIb",
   "source_file" : "external/libcxx/include/__tuple"
  },
  {
   "function_name" : "std::__1::atomic_flag_test_and_set_explicit",
   "linker_set_key" : "_ZNSt3__133atomic_flag_test_and_set_explicitEPNS_11atomic_flagENS_12memory_orderE",
   "parameters" :
   [
    {
     "referenced_type" : "_ZTIPNSt3__111atomic_flagE"
    },
    {
     "referenced_type" : "_ZTINSt3__112memory_orderE"
    }
   ],
   "return_type" : "_ZTIb",
   "source_file" : "external/libcxx/include/atomic"
  },
  {
   "function_name" : "std::__1::atomic_flag_test_and_set_explicit",
   "linker_set_key" : "_ZNSt3__133atomic_flag_test_and_set_explicitEPVNS_11atomic_flagENS_12memory_orderE",
   "parameters" :
   [
    {
     "referenced_type" : "_ZTIPVNSt3__111atomic_flagE"
    },
    {
     "referenced_type" : "_ZTINSt3__112memory_orderE"
    }
   ],
   "return_type" : "_ZTIb",
   "source_file" : "external/libcxx/include/atomic"
  },
  {
   "function_name" : "std::__1::move",
   "linker_set_key" : "_ZNSt3__14moveIRmEEONS_16remove_referenceIT_E4typeEOS3_",
   "parameters" :
   [
    {
     "referenced_type" : "_ZTIRm"
    }
   ],
   "return_type" : "_ZTIOm",
   "source_file" : "external/libcxx/include/type_traits",
   "template_args" : [ "_ZTIRm" ]
  },
  {
   "function_name" : "std::__1::pair<unsigned long, unsigned long>::_CheckArgs::__enable_explicit",
   "linker_set_key" : "_ZNSt3__14pairImmE10_CheckArgs17__enable_explicitIRKmS5_EEbv",
   "return_type" : "_ZTIb",
   "source_file" : "external/libcxx/include/utility",
   "template_args" : [ "_ZTIRKm", "_ZTIRKm" ]
  },
  {
   "function_name" : "std::__1::pair<unsigned long, unsigned long>::_CheckArgs::__enable_explicit",
   "linker_set_key" : "_ZNSt3__14pairImmE10_CheckArgs17__enable_explicitImmEEbv",
   "return_type" : "_ZTIb",
   "source_file" : "external/libcxx/include/utility",
   "template_args" : [ "_ZTIm", "_ZTIm" ]
  },
  {
   "function_name" : "std::__1::pair<unsigned long, unsigned long>::_CheckArgs::__enable_implicit",
   "linker_set_key" : "_ZNSt3__14pairImmE10_CheckArgs17__enable_implicitIRKmS5_EEbv",
   "return_type" : "_ZTIb",
   "source_file" : "external/libcxx/include/utility",
   "template_args" : [ "_ZTIRKm", "_ZTIRKm" ]
  },
  {
   "function_name" : "std::__1::pair<unsigned long, unsigned long>::_CheckArgs::__enable_implicit",
   "linker_set_key" : "_ZNSt3__14pairImmE10_CheckArgs17__enable_implicitImmEEbv",
   "return_type" : "_ZTIb",
   "source_file" : "external/libcxx/include/utility",
   "template_args" : [ "_ZTIm", "_ZTIm" ]
  },
  {
   "function_name" : "std::__1::pair<unsigned long, unsigned long>::pair",
   "linker_set_key" : "_ZNSt3__14pairImmEC1EOS1_",
   "parameters" :
   [
    {
     "is_this_ptr" : true,
     "referenced_type" : "_ZTIPNSt3__14pairImmEE"
    },
    {
     "referenced_type" : "_ZTIONSt3__14pairImmEE"
    }
   ],
   "return_type" : "_ZTIv",
   "source_file" : "external/libcxx/include/utility"
  },
  {
   "function_name" : "std::__1::pair<unsigned long, unsigned long>::pair",
   "linker_set_key" : "_ZNSt3__14pairImmEC1ERKS1_",
   "parameters" :
   [
    {
     "is_this_ptr" : true,
     "referenced_type" : "_ZTIPNSt3__14pairImmEE"
    },
    {
     "referenced_type" : "_ZTIRKNSt3__14pairImmEE"
    }
   ],
   "return_type" : "_ZTIv",
   "source_file" : "external/libcxx/include/utility"
  },
  {
   "function_name" : "std::__1::pair<unsigned long, unsigned long>::pair",
   "linker_set_key" : "_ZNSt3__14pairImmEC1ImmLb0EEEOT_OT0_",
   "parameters" :
   [
    {
     "is_this_ptr" : true,
     "referenced_type" : "_ZTIPNSt3__14pairImmEE"
    },
    {
     "referenced_type" : "_ZTIOm"
    },
    {
     "referenced_type" : "_ZTIOm"
    }
   ],
   "return_type" : "_ZTIv",
   "source_file" : "external/libcxx/include/utility",
   "template_args" : [ "_ZTIm", "_ZTIm" ]
  },
  {
   "function_name" : "std::__1::pair<unsigned long, unsigned long>::pair",
   "linker_set_key" : "_ZNSt3__14pairImmEC2EOS1_",
   "parameters" :
   [
    {
     "is_this_ptr" : true,
     "referenced_type" : "_ZTIPNSt3__14pairImmEE"
    },
    {
     "referenced_type" : "_ZTIONSt3__14pairImmEE"
    }
   ],
   "return_type" : "_ZTIv",
   "source_file" : "external/libcxx/include/utility"
  },
  {
   "function_name" : "std::__1::pair<unsigned long, unsigned long>::pair",
   "linker_set_key" : "_ZNSt3__14pairImmEC2ERKS1_",
   "parameters" :
   [
    {
     "is_this_ptr" : true,
     "referenced_type" : "_ZTIPNSt3__14pairImmEE"
    },
    {
     "referenced_type" : "_ZTIRKNSt3__14pairImmEE"
    }
   ],
   "return_type" : "_ZTIv",
   "source_file" : "external/libcxx/include/utility"
  },
  {
   "function_name" : "std::__1::pair<unsigned long, unsigned long>::pair",
   "linker_set_key" : "_ZNSt3__14pairImmEC2ImmLb0EEEOT_OT0_",
   "parameters" :
   [
    {
     "is_this_ptr" : true,
     "referenced_type" : "_ZTIPNSt3__14pairImmEE"
    },
    {
     "referenced_type" : "_ZTIOm"
    },
    {
     "referenced_type" : "_ZTIOm"
    }
   ],
   "return_type" : "_ZTIv",
   "source_file" : "external/libcxx/include/utility",
   "template_args" : [ "_ZTIm", "_ZTIm" ]
  },
  {
   "function_name" : "std::__1::pair<unsigned long, unsigned long>::operator=",
   "linker_set_key" : "_ZNSt3__14pairImmEaSEOS1_",
   "parameters" :
   [
    {
     "is_this_ptr" : true,
     "referenced_type" : "_ZTIPNSt3__14pairImmEE"
    },
    {
     "referenced_type" : "_ZTIONSt3__14pairImmEE"
    }
   ],
   "return_type" : "_ZTIRNSt3__14pairImmEE",
   "source_file" : "external/libcxx/include/utility"
  },
  {
   "function_name" : "std::__1::swap",
   "linker_set_key" : "_ZNSt3__14swapImEENS_9enable_ifIXaasr21is_move_constructibleIT_EE5valuesr18is_move_assignableIS2_EE5valueEvE4typeERS2_S5_",
   "parameters" :
   [
    {
     "referenced_type" : "_ZTIRm"
    },
    {
     "referenced_type" : "_ZTIRm"
    }
   ],
   "return_type" : "_ZTIv",
   "source_file" : "external/libcxx/include/type_traits",
   "template_args" : [ "_ZTIm" ]
  },
  {
   "function_name" : "std::__1::tuple<>::swap",
   "linker_set_key" : "_ZNSt3__15tupleIJEE4swapERS1_",
   "parameters" :
   [
    {
     "is_this_ptr" : true,
     "referenced_type" : "_ZTIPNSt3__15tupleIJEEE"
    },
    {
     "referenced_type" : "_ZTIRNSt3__15tupleIJEEE"
    }
   ],
   "return_type" : "_ZTIv",
   "source_file" : "external/libcxx/include/tuple"
  },
  {
   "function_name" : "std::__1::tuple<>::tuple",
   "linker_set_key" : "_ZNSt3__15tupleIJEEC1Ev",
   "parameters" :
   [
    {
     "is_this_ptr" : true,
     "referenced_type" : "_ZTIPNSt3__15tupleIJEEE"
    }
   ],
   "return_type" : "_ZTIv",
   "source_file" : "external/libcxx/include/tuple"
  },
  {
   "function_name" : "std::__1::tuple<>::tuple",
   "linker_set_key" : "_ZNSt3__15tupleIJEEC2Ev",
   "parameters" :
   [
    {
     "is_this_ptr" : true,
     "referenced_type" : "_ZTIPNSt3__15tupleIJEEE"
    }
   ],
   "return_type" : "_ZTIv",
   "source_file" : "external/libcxx/include/tuple"
  },
  {
   "function_name" : "std::__1::forward",
   "linker_set_key" : "_ZNSt3__17forwardImEEOT_RNS_16remove_referenceIS1_E4typeE",
   "parameters" :
   [
    {
     "referenced_type" : "_ZTIRm"
    }
   ],
   "return_type" : "_ZTIOm",
   "source_file" : "external/libcxx/include/type_traits",
   "template_args" : [ "_ZTIm" ]
  },
  {
   "function_name" : "std::__1::__c_node::__c_node",
   "linker_set_key" : "_ZNSt3__18__c_nodeC2EPvPS0_",
   "parameters" :
   [
    {
     "is_this_ptr" : true,
     "referenced_type" : "_ZTIPNSt3__18__c_nodeE"
    },
    {
     "referenced_type" : "_ZTIPv"
    },
    {
     "referenced_type" : "_ZTIPNSt3__18__c_nodeE"
    }
   ],
   "return_type" : "_ZTIv",
   "source_file" : "external/libcxx/include/__debug"
  },
  {
   "function_name" : "std::__1::__i_node::__i_node",
   "linker_set_key" : "_ZNSt3__18__i_nodeC1EPvPS0_PNS_8__c_nodeE",
   "parameters" :
   [
    {
     "is_this_ptr" : true,
     "referenced_type" : "_ZTIPNSt3__18__i_nodeE"
    },
    {
     "referenced_type" : "_ZTIPv"
    },
    {
     "referenced_type" : "_ZTIPNSt3__18__i_nodeE"
    },
    {
     "referenced_type" : "_ZTIPNSt3__18__c_nodeE"
    }
   ],
   "return_type" : "_ZTIv",
   "source_file" : "external/libcxx/include/__debug"
  },
  {
   "function_name" : "std::__1::__i_node::__i_node",
   "linker_set_key" : "_ZNSt3__18__i_nodeC2EPvPS0_PNS_8__c_nodeE",
   "parameters" :
   [
    {
     "is_this_ptr" : true,
     "referenced_type" : "_ZTIPNSt3__18__i_nodeE"
    },
    {
     "referenced_type" : "_ZTIPv"
    },
    {
     "referenced_type" : "_ZTIPNSt3__18__i_nodeE"
    },
    {
     "referenced_type" : "_ZTIPNSt3__18__c_nodeE"
    }
   ],
   "return_type" : "_ZTIv",
   "source_file" : "external/libcxx/include/__debug"
  },
  {
   "function_name" : "std::__1::tuple_cat",
   "linker_set_key" : "_ZNSt3__19tuple_catEv",
   "return_type" : "_ZTINSt3__15tupleIJEEE",
   "source_file" : "external/libcxx/include/tuple"
  },
  {
   "function_name" : "std::exception::exception",
   "linker_set_key" : "_ZNSt9exceptionC1Ev",
   "parameters" :
   [
    {
     "is_this_ptr" : true,
     "referenced_type" : "_ZTIPSt9exception"
    }
   ],
   "return_type" : "_ZTIv",
   "source_file" : "external/libcxx/include/exception"
  },
  {
   "function_name" : "std::exception::exception",
   "linker_set_key" : "_ZNSt9exceptionC2Ev",
   "parameters" :
   [
    {
     "is_this_ptr" : true,
     "referenced_type" : "_ZTIPSt9exception"
    }
   ],
   "return_type" : "_ZTIv",
   "source_file" : "external/libcxx/include/exception"
  },
  {
   "access" : "protected",
   "function_name" : "std::type_info::type_info",
   "linker_set_key" : "_ZNSt9type_infoC1EPKc",
   "parameters" :
   [
    {
     "is_this_ptr" : true,
     "referenced_type" : "_ZTIPSt9type_info"
    },
    {
     "referenced_type" : "_ZTIPKc"
    }
   ],
   "return_type" : "_ZTIv",
   "source_file" : "external/libcxx/include/typeinfo"
  },
  {
   "access" : "protected",
   "function_name" : "std::type_info::type_info",
   "linker_set_key" : "_ZNSt9type_infoC2EPKc",
   "parameters" :
   [
    {
     "is_this_ptr" : true,
     "referenced_type" : "_ZTIPSt9type_info"
    },
    {
     "referenced_type" : "_ZTIPKc"
    }
   ],
   "return_type" : "_ZTIv",
   "source_file" : "external/libcxx/include/typeinfo"
  },
  {
   "function_name" : "std::__1::atomic_flag::test_and_set",
   "linker_set_key" : "_ZNVSt3__111atomic_flag12test_and_setENS_12memory_orderE",
   "parameters" :
   [
    {
     "is_this_ptr" : true,
     "referenced_type" : "_ZTIPVNSt3__111atomic_flagE"
    },
    {
     "default_arg" : true,
     "referenced_type" : "_ZTINSt3__112memory_orderE"
    }
   ],
   "return_type" : "_ZTIb",
   "source_file" : "external/libcxx/include/atomic"
  },
  {
   "function_name" : "std::__1::atomic_flag::clear",
   "linker_set_key" : "_ZNVSt3__111atomic_flag5clearENS_12memory_orderE",
   "parameters" :
   [
    {
     "is_this_ptr" : true,
     "referenced_type" : "_ZTIPVNSt3__111atomic_flagE"
    },
    {
     "default_arg" : true,
     "referenced_type" : "_ZTINSt3__112memory_orderE"
    }
   ],
   "return_type" : "_ZTIv",
   "source_file" : "external/libcxx/include/atomic"
  },
  {
   "function_name" : "std::__throw_bad_alloc",
   "linker_set_key" : "_ZSt17__throw_bad_allocv",
   "return_type" : "_ZTIv",
   "source_file" : "external/libcxx/include/new"
  },
  {
   "function_name" : "std::operator==",
   "linker_set_key" : "_ZSteqRKSt13exception_ptrS1_",
   "parameters" :
   [
    {
     "referenced_type" : "_ZTIRKSt13exception_ptr"
    },
    {
     "referenced_type" : "_ZTIRKSt13exception_ptr"
    }
   ],
   "return_type" : "_ZTIb",
   "source_file" : "external/libcxx/include/exception"
  },
  {
   "function_name" : "std::operator!=",
   "linker_set_key" : "_ZStneRKSt13exception_ptrS1_",
   "parameters" :
   [
    {
     "referenced_type" : "_ZTIRKSt13exception_ptr"
    },
    {
     "referenced_type" : "_ZTIRKSt13exception_ptr"
    }
   ],
   "return_type" : "_ZTIb",
   "source_file" : "external/libcxx/include/exception"
  },
  {
   "function_name" : "operator delete[]",
   "linker_set_key" : "_ZdaPv",
   "parameters" :
   [
    {
     "referenced_type" : "_ZTIPv"
    }
   ],
   "return_type" : "_ZTIv",
   "source_file" : "external/libcxx/include/new"
  },
  {
   "function_name" : "operator delete[]",
   "linker_set_key" : "_ZdaPvRKSt9nothrow_t",
   "parameters" :
   [
    {
     "referenced_type" : "_ZTIPv"
    },
    {
     "referenced_type" : "_ZTIRKSt9nothrow_t"
    }
   ],
   "return_type" : "_ZTIv",
   "source_file" : "external/libcxx/include/new"
  },
  {
   "function_name" : "operator delete[]",
   "linker_set_key" : "_ZdaPvS_",
   "parameters" :
   [
    {
     "referenced_type" : "_ZTIPv"
    },
    {
     "referenced_type" : "_ZTIPv"
    }
   ],
   "return_type" : "_ZTIv",
   "source_file" : "external/libcxx/include/new"
  },
  {
   "function_name" : "operator delete[]",
   "linker_set_key" : "_ZdaPvSt11align_val_t",
   "parameters" :
   [
    {
     "referenced_type" : "_ZTIPv"
    },
    {
     "referenced_type" : "_ZTISt11align_val_t"
    }
   ],
   "return_type" : "_ZTIv",
   "source_file" : "external/libcxx/include/new"
  },
  {
   "function_name" : "operator delete[]",
   "linker_set_key" : "_ZdaPvSt11align_val_tRKSt9nothrow_t",
   "parameters" :
   [
    {
     "referenced_type" : "_ZTIPv"
    },
    {
     "referenced_type" : "_ZTISt11align_val_t"
    },
    {
     "referenced_type" : "_ZTIRKSt9nothrow_t"
    }
   ],
   "return_type" : "_ZTIv",
   "source_file" : "external/libcxx/include/new"
  },
  {
   "function_name" : "operator delete[]",
   "linker_set_key" : "_ZdaPvm",
   "parameters" :
   [
    {
     "referenced_type" : "_ZTIPv"
    },
    {
     "referenced_type" : "_ZTIm"
    }
   ],
   "return_type" : "_ZTIv",
   "source_file" : "external/libcxx/include/new"
  },
  {
   "function_name" : "operator delete[]",
   "linker_set_key" : "_ZdaPvmSt11align_val_t",
   "parameters" :
   [
    {
     "referenced_type" : "_ZTIPv"
    },
    {
     "referenced_type" : "_ZTIm"
    },
    {
     "referenced_type" : "_ZTISt11align_val_t"
    }
   ],
   "return_type" : "_ZTIv",
   "source_file" : "external/libcxx/include/new"
  },
  {
   "function_name" : "operator delete",
   "linker_set_key" : "_ZdlPv",
   "parameters" :
   [
    {
     "referenced_type" : "_ZTIPv"
    }
   ],
   "return_type" : "_ZTIv",
   "source_file" : "external/libcxx/include/new"
  },
  {
   "function_name" : "operator delete",
   "linker_set_key" : "_ZdlPvRKSt9nothrow_t",
   "parameters" :
   [
    {
     "referenced_type" : "_ZTIPv"
    },
    {
     "referenced_type" : "_ZTIRKSt9nothrow_t"
    }
   ],
   "return_type" : "_ZTIv",
   "source_file" : "external/libcxx/include/new"
  },
  {
   "function_name" : "operator delete",
   "linker_set_key" : "_ZdlPvS_",
   "parameters" :
   [
    {
     "referenced_type" : "_ZTIPv"
    },
    {
     "referenced_type" : "_ZTIPv"
    }
   ],
   "return_type" : "_ZTIv",
   "source_file" : "external/libcxx/include/new"
  },
  {
   "function_name" : "operator delete",
   "linker_set_key" : "_ZdlPvSt11align_val_t",
   "parameters" :
   [
    {
     "referenced_type" : "_ZTIPv"
    },
    {
     "referenced_type" : "_ZTISt11align_val_t"
    }
   ],
   "return_type" : "_ZTIv",
   "source_file" : "external/libcxx/include/new"
  },
  {
   "function_name" : "operator delete",
   "linker_set_key" : "_ZdlPvSt11align_val_tRKSt9nothrow_t",
   "parameters" :
   [
    {
     "referenced_type" : "_ZTIPv"
    },
    {
     "referenced_type" : "_ZTISt11align_val_t"
    },
    {
     "referenced_type" : "_ZTIRKSt9nothrow_t"
    }
   ],
   "return_type" : "_ZTIv",
   "source_file" : "external/libcxx/include/new"
  },
  {
   "function_name" : "operator delete",
   "linker_set_key" : "_ZdlPvm",
   "parameters" :
   [
    {
     "referenced_type" : "_ZTIPv"
    },
    {
     "referenced_type" : "_ZTIm"
    }
   ],
   "return_type" : "_ZTIv",
   "source_file" : "external/libcxx/include/new"
  },
  {
   "function_name" : "operator delete",
   "linker_set_key" : "_ZdlPvmSt11align_val_t",
   "parameters" :
   [
    {
     "referenced_type" : "_ZTIPv"
    },
    {
     "referenced_type" : "_ZTIm"
    },
    {
     "referenced_type" : "_ZTISt11align_val_t"
    }
   ],
   "return_type" : "_ZTIv",
   "source_file" : "external/libcxx/include/new"
  },
  {
   "function_name" : "operator new[]",
   "linker_set_key" : "_Znam",
   "parameters" :
   [
    {
     "referenced_type" : "_ZTIm"
    }
   ],
   "return_type" : "_ZTIPv",
   "source_file" : "external/libcxx/include/new"
  },
  {
   "function_name" : "operator new[]",
   "linker_set_key" : "_ZnamPv",
   "parameters" :
   [
    {
     "referenced_type" : "_ZTIm"
    },
    {
     "referenced_type" : "_ZTIPv"
    }
   ],
   "return_type" : "_ZTIPv",
   "source_file" : "external/libcxx/include/new"
  },
  {
   "function_name" : "operator new[]",
   "linker_set_key" : "_ZnamRKSt9nothrow_t",
   "parameters" :
   [
    {
     "referenced_type" : "_ZTIm"
    },
    {
     "referenced_type" : "_ZTIRKSt9nothrow_t"
    }
   ],
   "return_type" : "_ZTIPv",
   "source_file" : "external/libcxx/include/new"
  },
  {
   "function_name" : "operator new[]",
   "linker_set_key" : "_ZnamSt11align_val_t",
   "parameters" :
   [
    {
     "referenced_type" : "_ZTIm"
    },
    {
     "referenced_type" : "_ZTISt11align_val_t"
    }
   ],
   "return_type" : "_ZTIPv",
   "source_file" : "external/libcxx/include/new"
  },
  {
   "function_name" : "operator new[]",
   "linker_set_key" : "_ZnamSt11align_val_tRKSt9nothrow_t",
   "parameters" :
   [
    {
     "referenced_type" : "_ZTIm"
    },
    {
     "referenced_type" : "_ZTISt11align_val_t"
    },
    {
     "referenced_type" : "_ZTIRKSt9nothrow_t"
    }
   ],
   "return_type" : "_ZTIPv",
   "source_file" : "external/libcxx/include/new"
  },
  {
   "function_name" : "operator new",
   "linker_set_key" : "_Znwm",
   "parameters" :
   [
    {
     "referenced_type" : "_ZTIm"
    }
   ],
   "return_type" : "_ZTIPv",
   "source_file" : "external/libcxx/include/new"
  },
  {
   "function_name" : "operator new",
   "linker_set_key" : "_ZnwmPv",
   "parameters" :
   [
    {
     "referenced_type" : "_ZTIm"
    },
    {
     "referenced_type" : "_ZTIPv"
    }
   ],
   "return_type" : "_ZTIPv",
   "source_file" : "external/libcxx/include/new"
  },
  {
   "function_name" : "operator new",
   "linker_set_key" : "_ZnwmRKSt9nothrow_t",
   "parameters" :
   [
    {
     "referenced_type" : "_ZTIm"
    },
    {
     "referenced_type" : "_ZTIRKSt9nothrow_t"
    }
   ],
   "return_type" : "_ZTIPv",
   "source_file" : "external/libcxx/include/new"
  },
  {
   "function_name" : "operator new",
   "linker_set_key" : "_ZnwmSt11align_val_t",
   "parameters" :
   [
    {
     "referenced_type" : "_ZTIm"
    },
    {
     "referenced_type" : "_ZTISt11align_val_t"
    }
   ],
   "return_type" : "_ZTIPv",
   "source_file" : "external/libcxx/include/new"
  },
  {
   "function_name" : "operator new",
   "linker_set_key" : "_ZnwmSt11align_val_tRKSt9nothrow_t",
   "parameters" :
   [
    {
     "referenced_type" : "_ZTIm"
    },
    {
     "referenced_type" : "_ZTISt11align_val_t"
    },
    {
     "referenced_type" : "_ZTIRKSt9nothrow_t"
    }
   ],
   "return_type" : "_ZTIPv",
   "source_file" : "external/libcxx/include/new"
  }
 ],
 "global_vars" :
 [
  {
   "linker_set_key" : "_ZNSt3__112_GLOBAL__N_16ignoreE",
   "name" : "std::__1::(anonymous namespace)::ignore",
   "referenced_type" : "_ZTIKNSt3__110__ignore_tIhEE",
   "source_file" : "external/libcxx/include/tuple"
  },
  {
   "linker_set_key" : "_ZNSt3__112__align_type5valueE",
   "name" : "std::__1::__align_type::value",
   "referenced_type" : "_ZTIKm",
   "source_file" : "external/libcxx/include/type_traits"
  },
  {
   "linker_set_key" : "_ZNSt3__112__has_rebind5valueE",
   "name" : "std::__1::__has_rebind::value",
   "referenced_type" : "_ZTIKb",
   "source_file" : "external/libcxx/include/memory"
  },
  {
   "linker_set_key" : "_ZNSt3__112__static_maxIXT_EJEE5valueE",
   "name" : "std::__1::__static_max<_I0>::value",
   "referenced_type" : "_ZTIKm",
   "source_file" : "external/libcxx/include/type_traits"
  },
  {
   "linker_set_key" : "_ZNSt3__112__static_maxIXT_EJXT0_EXspT1_EEE5valueE",
   "name" : "std::__1::__static_max<_I0, _I1, _In...>::value",
   "referenced_type" : "_ZTIKm",
   "source_file" : "external/libcxx/include/type_traits"
  },
  {
   "linker_set_key" : "_ZNSt3__113__find_detail26__find_exactly_one_checked5valueE",
   "name" : "std::__1::__find_detail::__find_exactly_one_checked::value",
   "referenced_type" : "_ZTIKm",
   "source_file" : "external/libcxx/include/tuple"
  },
  {
   "linker_set_key" : "_ZNSt3__113__find_detailL11__ambiguousE",
   "name" : "std::__1::__find_detail::__ambiguous",
   "referenced_type" : "_ZTIKm",
   "source_file" : "external/libcxx/include/tuple"
  },
  {
   "linker_set_key" : "_ZNSt3__113__find_detailL11__not_foundE",
   "name" : "std::__1::__find_detail::__not_found",
   "referenced_type" : "_ZTIKm",
   "source_file" : "external/libcxx/include/tuple"
  },
  {
   "linker_set_key" : "_ZNSt3__113__invokable_r5valueE",
   "name" : "std::__1::__invokable_r::value",
   "referenced_type" : "_ZTIKb",
   "source_file" : "external/libcxx/include/type_traits"
  },
  {
   "linker_set_key" : "_ZNSt3__113__promote_imp5valueE",
   "name" : "std::__1::__promote_imp::value",
   "referenced_type" : "_ZTIKb",
   "source_file" : "external/libcxx/include/type_traits"
  },
  {
   "linker_set_key" : "_ZNSt3__113__promote_impIT_T0_T1_Lb1EE5valueE",
   "name" : "std::__1::__promote_imp<type-parameter-0-0, type-parameter-0-1, type-parameter-0-2, true>::value",
   "referenced_type" : "_ZTIKb",
   "source_file" : "external/libcxx/include/type_traits"
  },
  {
   "linker_set_key" : "_ZNSt3__113__promote_impIT_T0_vLb1EE5valueE",
   "name" : "std::__1::__promote_imp<type-parameter-0-0, type-parameter-0-1, void, true>::value",
   "referenced_type" : "_ZTIKb",
   "source_file" : "external/libcxx/include/type_traits"
  },
  {
   "linker_set_key" : "_ZNSt3__113__promote_impIT_vvLb1EE5valueE",
   "name" : "std::__1::__promote_imp<type-parameter-0-0, void, void, true>::value",
   "referenced_type" : "_ZTIKb",
   "source_file" : "external/libcxx/include/type_traits"
  },
  {
   "linker_set_key" : "_ZNSt3__113aligned_union15alignment_valueE",
   "name" : "std::__1::aligned_union::alignment_value",
   "referenced_type" : "_ZTIKm",
   "source_file" : "external/libcxx/include/type_traits"
  },
  {
   "linker_set_key" : "_ZNSt3__113aligned_union5__lenE",
   "name" : "std::__1::aligned_union::__len",
   "referenced_type" : "_ZTIKm",
   "source_file" : "external/libcxx/include/type_traits"
  },
  {
   "linker_set_key" : "_ZNSt3__113allocator_argE",
   "name" : "std::__1::allocator_arg",
   "referenced_type" : "_ZTIKNSt3__115allocator_arg_tE",
   "source_file" : "external/libcxx/include/__functional_base"
  },
  {
   "linker_set_key" : "_ZNSt3__114__numeric_type5valueE",
   "name" : "std::__1::__numeric_type::value",
   "referenced_type" : "_ZTIKb",
   "source_file" : "external/libcxx/include/type_traits"
  },
  {
   "linker_set_key" : "_ZNSt3__114__numeric_typeIvE5valueE",
   "name" : "std::__1::__numeric_type<void>::value",
   "referenced_type" : "_ZTIKb",
   "source_file" : "external/libcxx/include/type_traits"
  },
  {
   "access" : "private",
   "linker_set_key" : "_ZNSt3__114__select_align5__maxE",
   "name" : "std::__1::__select_align::__max",
   "referenced_type" : "_ZTIKm",
   "source_file" : "external/libcxx/include/type_traits"
  },
  {
   "access" : "private",
   "linker_set_key" : "_ZNSt3__114__select_align5__minE",
   "name" : "std::__1::__select_align::__min",
   "referenced_type" : "_ZTIKm",
   "source_file" : "external/libcxx/include/type_traits"
  },
  {
   "linker_set_key" : "_ZNSt3__114__select_align5valueE",
   "name" : "std::__1::__select_align::value",
   "referenced_type" : "_ZTIKm",
   "source_file" : "external/libcxx/include/type_traits"
  },
  {
   "linker_set_key" : "_ZNSt3__114numeric_limits10has_denormE",
   "name" : "std::__1::numeric_limits::has_denorm",
   "referenced_type" : "_ZTIKNSt3__118float_denorm_styleE",
   "source_file" : "external/libcxx/include/limits"
  },
  {
   "linker_set_key" : "_ZNSt3__114numeric_limits10is_boundedE",
   "name" : "std::__1::numeric_limits::is_bounded",
   "referenced_type" : "_ZTIKb",
   "source_file" : "external/libcxx/include/limits"
  },
  {
   "linker_set_key" : "_ZNSt3__114numeric_limits10is_integerE",
   "name" : "std::__1::numeric_limits::is_integer",
   "referenced_type" : "_ZTIKb",
   "source_file" : "external/libcxx/include/limits"
  },
  {
   "linker_set_key" : "_ZNSt3__114numeric_limits11round_styleE",
   "name" : "std::__1::numeric_limits::round_style",
   "referenced_type" : "_ZTIKNSt3__117float_round_styleE",
   "source_file" : "external/libcxx/include/limits"
  },
  {
   "linker_set_key" : "_ZNSt3__114numeric_limits12has_infinityE",
   "name" : "std::__1::numeric_limits::has_infinity",
   "referenced_type" : "_ZTIKb",
   "source_file" : "external/libcxx/include/limits"
  },
  {
   "linker_set_key" : "_ZNSt3__114numeric_limits12max_digits10E",
   "name" : "std::__1::numeric_limits::max_digits10",
   "referenced_type" : "_ZTIKi",
   "source_file" : "external/libcxx/include/limits"
  },
  {
   "linker_set_key" : "_ZNSt3__114numeric_limits12max_exponentE",
   "name" : "std::__1::numeric_limits::max_exponent",
   "referenced_type" : "_ZTIKi",
   "source_file" : "external/libcxx/include/limits"
  },
  {
   "linker_set_key" : "_ZNSt3__114numeric_limits12min_exponentE",
   "name" : "std::__1::numeric_limits::min_exponent",
   "referenced_type" : "_ZTIKi",
   "source_file" : "external/libcxx/include/limits"
  },
  {
   "linker_set_key" : "_ZNSt3__114numeric_limits13has_quiet_NaNE",
   "name" : "std::__1::numeric_limits::has_quiet_NaN",
   "referenced_type" : "_ZTIKb",
   "source_file" : "external/libcxx/include/limits"
  },
  {
   "linker_set_key" : "_ZNSt3__114numeric_limits14is_specializedE",
   "name" : "std::__1::numeric_limits::is_specialized",
   "referenced_type" : "_ZTIKb",
   "source_file" : "external/libcxx/include/limits"
  },
  {
   "linker_set_key" : "_ZNSt3__114numeric_limits14max_exponent10E",
   "name" : "std::__1::numeric_limits::max_exponent10",
   "referenced_type" : "_ZTIKi",
   "source_file" : "external/libcxx/include/limits"
  },
  {
   "linker_set_key" : "_ZNSt3__114numeric_limits14min_exponent10E",
   "name" : "std::__1::numeric_limits::min_exponent10",
   "referenced_type" : "_ZTIKi",
   "source_file" : "external/libcxx/include/limits"
  },
  {
   "linker_set_key" : "_ZNSt3__114numeric_limits15has_denorm_lossE",
   "name" : "std::__1::numeric_limits::has_denorm_loss",
   "referenced_type" : "_ZTIKb",
   "source_file" : "external/libcxx/include/limits"
  },
  {
   "linker_set_key" : "_ZNSt3__114numeric_limits15tinyness_beforeE",
   "name" : "std::__1::numeric_limits::tinyness_before",
   "referenced_type" : "_ZTIKb",
   "source_file" : "external/libcxx/include/limits"
  },
  {
   "linker_set_key" : "_ZNSt3__114numeric_limits17has_signaling_NaNE",
   "name" : "std::__1::numeric_limits::has_signaling_NaN",
   "referenced_type" : "_ZTIKb",
   "source_file" : "external/libcxx/include/limits"
  },
  {
   "linker_set_key" : "_ZNSt3__114numeric_limits5radixE",
   "name" : "std::__1::numeric_limits::radix",
   "referenced_type" : "_ZTIKi",
   "source_file" : "external/libcxx/include/limits"
  },
  {
   "linker_set_key" : "_ZNSt3__114numeric_limits5trapsE",
   "name" : "std::__1::numeric_limits::traps",
   "referenced_type" : "_ZTIKb",
   "source_file" : "external/libcxx/include/limits"
  },
  {
   "linker_set_key" : "_ZNSt3__114numeric_limits6digitsE",
   "name" : "std::__1::numeric_limits::digits",
   "referenced_type" : "_ZTIKi",
   "source_file" : "external/libcxx/include/limits"
  },
  {
   "linker_set_key" : "_ZNSt3__114numeric_limits8digits10E",
   "name" : "std::__1::numeric_limits::digits10",
   "referenced_type" : "_ZTIKi",
   "source_file" : "external/libcxx/include/limits"
  },
  {
   "linker_set_key" : "_ZNSt3__114numeric_limits8is_exactE",
   "name" : "std::__1::numeric_limits::is_exact",
   "referenced_type" : "_ZTIKb",
   "source_file" : "external/libcxx/include/limits"
  },
  {
   "linker_set_key" : "_ZNSt3__114numeric_limits9is_iec559E",
   "name" : "std::__1::numeric_limits::is_iec559",
   "referenced_type" : "_ZTIKb",
   "source_file" : "external/libcxx/include/limits"
  },
  {
   "linker_set_key" : "_ZNSt3__114numeric_limits9is_moduloE",
   "name" : "std::__1::numeric_limits::is_modulo",
   "referenced_type" : "_ZTIKb",
   "source_file" : "external/libcxx/include/limits"
  },
  {
   "linker_set_key" : "_ZNSt3__114numeric_limits9is_signedE",
   "name" : "std::__1::numeric_limits::is_signed",
   "referenced_type" : "_ZTIKb",
   "source_file" : "external/libcxx/include/limits"
  },
  {
   "linker_set_key" : "_ZNSt3__114numeric_limitsIKT_E10has_denormE",
   "name" : "std::__1::numeric_limits<const type-parameter-0-0>::has_denorm",
   "referenced_type" : "_ZTIKNSt3__118float_denorm_styleE",
   "source_file" : "external/libcxx/include/limits"
  },
  {
   "linker_set_key" : "_ZNSt3__114numeric_limitsIKT_E10is_boundedE",
   "name" : "std::__1::numeric_limits<const type-parameter-0-0>::is_bounded",
   "referenced_type" : "_ZTIKb",
   "source_file" : "external/libcxx/include/limits"
  },
  {
   "linker_set_key" : "_ZNSt3__114numeric_limitsIKT_E10is_integerE",
   "name" : "std::__1::numeric_limits<const type-parameter-0-0>::is_integer",
   "referenced_type" : "_ZTIKb",
   "source_file" : "external/libcxx/include/limits"
  },
  {
   "linker_set_key" : "_ZNSt3__114numeric_limitsIKT_E11round_styleE",
   "name" : "std::__1::numeric_limits<const type-parameter-0-0>::round_style",
   "referenced_type" : "_ZTIKNSt3__117float_round_styleE",
   "source_file" : "external/libcxx/include/limits"
  },
  {
   "linker_set_key" : "_ZNSt3__114numeric_limitsIKT_E12has_infinityE",
   "name" : "std::__1::numeric_limits<const type-parameter-0-0>::has_infinity",
   "referenced_type" : "_ZTIKb",
   "source_file" : "external/libcxx/include/limits"
  },
  {
   "linker_set_key" : "_ZNSt3__114numeric_limitsIKT_E12max_digits10E",
   "name" : "std::__1::numeric_limits<const type-parameter-0-0>::max_digits10",
   "referenced_type" : "_ZTIKi",
   "source_file" : "external/libcxx/include/limits"
  },
  {
   "linker_set_key" : "_ZNSt3__114numeric_limitsIKT_E12max_exponentE",
   "name" : "std::__1::numeric_limits<const type-parameter-0-0>::max_exponent",
   "referenced_type" : "_ZTIKi",
   "source_file" : "external/libcxx/include/limits"
  },
  {
   "linker_set_key" : "_ZNSt3__114numeric_limitsIKT_E12min_exponentE",
   "name" : "std::__1::numeric_limits<const type-parameter-0-0>::min_exponent",
   "referenced_type" : "_ZTIKi",
   "source_file" : "external/libcxx/include/limits"
  },
  {
   "linker_set_key" : "_ZNSt3__114numeric_limitsIKT_E13has_quiet_NaNE",
   "name" : "std::__1::numeric_limits<const type-parameter-0-0>::has_quiet_NaN",
   "referenced_type" : "_ZTIKb",
   "source_file" : "external/libcxx/include/limits"
  },
  {
   "linker_set_key" : "_ZNSt3__114numeric_limitsIKT_E14is_specializedE",
   "name" : "std::__1::numeric_limits<const type-parameter-0-0>::is_specialized",
   "referenced_type" : "_ZTIKb",
   "source_file" : "external/libcxx/include/limits"
  },
  {
   "linker_set_key" : "_ZNSt3__114numeric_limitsIKT_E14max_exponent10E",
   "name" : "std::__1::numeric_limits<const type-parameter-0-0>::max_exponent10",
   "referenced_type" : "_ZTIKi",
   "source_file" : "external/libcxx/include/limits"
  },
  {
   "linker_set_key" : "_ZNSt3__114numeric_limitsIKT_E14min_exponent10E",
   "name" : "std::__1::numeric_limits<const type-parameter-0-0>::min_exponent10",
   "referenced_type" : "_ZTIKi",
   "source_file" : "external/libcxx/include/limits"
  },
  {
   "linker_set_key" : "_ZNSt3__114numeric_limitsIKT_E15has_denorm_lossE",
   "name" : "std::__1::numeric_limits<const type-parameter-0-0>::has_denorm_loss",
   "referenced_type" : "_ZTIKb",
   "source_file" : "external/libcxx/include/limits"
  },
  {
   "linker_set_key" : "_ZNSt3__114numeric_limitsIKT_E15tinyness_beforeE",
   "name" : "std::__1::numeric_limits<const type-parameter-0-0>::tinyness_before",
   "referenced_type" : "_ZTIKb",
   "source_file" : "external/libcxx/include/limits"
  },
  {
   "linker_set_key" : "_ZNSt3__114numeric_limitsIKT_E17has_signaling_NaNE",
   "name" : "std::__1::numeric_limits<const type-parameter-0-0>::has_signaling_NaN",
   "referenced_type" : "_ZTIKb",
   "source_file" : "external/libcxx/include/limits"
  },
  {
   "linker_set_key" : "_ZNSt3__114numeric_limitsIKT_E5radixE",
   "name" : "std::__1::numeric_limits<const type-parameter-0-0>::radix",
   "referenced_type" : "_ZTIKi",
   "source_file" : "external/libcxx/include/limits"
  },
  {
   "linker_set_key" : "_ZNSt3__114numeric_limitsIKT_E5trapsE",
   "name" : "std::__1::numeric_limits<const type-parameter-0-0>::traps",
   "referenced_type" : "_ZTIKb",
   "source_file" : "external/libcxx/include/limits"
  },
  {
   "linker_set_key" : "_ZNSt3__114numeric_limitsIKT_E6digitsE",
   "name" : "std::__1::numeric_limits<const type-parameter-0-0>::digits",
   "referenced_type" : "_ZTIKi",
   "source_file" : "external/libcxx/include/limits"
  },
  {
   "linker_set_key" : "_ZNSt3__114numeric_limitsIKT_E8digits10E",
   "name" : "std::__1::numeric_limits<const type-parameter-0-0>::digits10",
   "referenced_type" : "_ZTIKi",
   "source_file" : "external/libcxx/include/limits"
  },
  {
   "linker_set_key" : "_ZNSt3__114numeric_limitsIKT_E8is_exactE",
   "name" : "std::__1::numeric_limits<const type-parameter-0-0>::is_exact",
   "referenced_type" : "_ZTIKb",
   "source_file" : "external/libcxx/include/limits"
  },
  {
   "linker_set_key" : "_ZNSt3__114numeric_limitsIKT_E9is_iec559E",
   "name" : "std::__1::numeric_limits<const type-parameter-0-0>::is_iec559",
   "referenced_type" : "_ZTIKb",
   "source_file" : "external/libcxx/include/limits"
  },
  {
   "linker_set_key" : "_ZNSt3__114numeric_limitsIKT_E9is_moduloE",
   "name" : "std::__1::numeric_limits<const type-parameter-0-0>::is_modulo",
   "referenced_type" : "_ZTIKb",
   "source_file" : "external/libcxx/include/limits"
  },
  {
   "linker_set_key" : "_ZNSt3__114numeric_limitsIKT_E9is_signedE",
   "name" : "std::__1::numeric_limits<const type-parameter-0-0>::is_signed",
   "referenced_type" : "_ZTIKb",
   "source_file" : "external/libcxx/include/limits"
  },
  {
   "linker_set_key" : "_ZNSt3__114numeric_limitsIVKT_E10has_denormE",
   "name" : "std::__1::numeric_limits<const volatile type-parameter-0-0>::has_denorm",
   "referenced_type" : "_ZTIKNSt3__118float_denorm_styleE",
   "source_file" : "external/libcxx/include/limits"
  },
  {
   "linker_set_key" : "_ZNSt3__114numeric_limitsIVKT_E10is_boundedE",
   "name" : "std::__1::numeric_limits<const volatile type-parameter-0-0>::is_bounded",
   "referenced_type" : "_ZTIKb",
   "source_file" : "external/libcxx/include/limits"
  },
  {
   "linker_set_key" : "_ZNSt3__114numeric_limitsIVKT_E10is_integerE",
   "name" : "std::__1::numeric_limits<const volatile type-parameter-0-0>::is_integer",
   "referenced_type" : "_ZTIKb",
   "source_file" : "external/libcxx/include/limits"
  },
  {
   "linker_set_key" : "_ZNSt3__114numeric_limitsIVKT_E11round_styleE",
   "name" : "std::__1::numeric_limits<const volatile type-parameter-0-0>::round_style",
   "referenced_type" : "_ZTIKNSt3__117float_round_styleE",
   "source_file" : "external/libcxx/include/limits"
  },
  {
   "linker_set_key" : "_ZNSt3__114numeric_limitsIVKT_E12has_infinityE",
   "name" : "std::__1::numeric_limits<const volatile type-parameter-0-0>::has_infinity",
   "referenced_type" : "_ZTIKb",
   "source_file" : "external/libcxx/include/limits"
  },
  {
   "linker_set_key" : "_ZNSt3__114numeric_limitsIVKT_E12max_digits10E",
   "name" : "std::__1::numeric_limits<const volatile type-parameter-0-0>::max_digits10",
   "referenced_type" : "_ZTIKi",
   "source_file" : "external/libcxx/include/limits"
  },
  {
   "linker_set_key" : "_ZNSt3__114numeric_limitsIVKT_E12max_exponentE",
   "name" : "std::__1::numeric_limits<const volatile type-parameter-0-0>::max_exponent",
   "referenced_type" : "_ZTIKi",
   "source_file" : "external/libcxx/include/limits"
  },
  {
   "linker_set_key" : "_ZNSt3__114numeric_limitsIVKT_E12min_exponentE",
   "name" : "std::__1::numeric_limits<const volatile type-parameter-0-0>::min_exponent",
   "referenced_type" : "_ZTIKi",
   "source_file" : "external/libcxx/include/limits"
  },
  {
   "linker_set_key" : "_ZNSt3__114numeric_limitsIVKT_E13has_quiet_NaNE",
   "name" : "std::__1::numeric_limits<const volatile type-parameter-0-0>::has_quiet_NaN",
   "referenced_type" : "_ZTIKb",
   "source_file" : "external/libcxx/include/limits"
  },
  {
   "linker_set_key" : "_ZNSt3__114numeric_limitsIVKT_E14is_specializedE",
   "name" : "std::__1::numeric_limits<const volatile type-parameter-0-0>::is_specialized",
   "referenced_type" : "_ZTIKb",
   "source_file" : "external/libcxx/include/limits"
  },
  {
   "linker_set_key" : "_ZNSt3__114numeric_limitsIVKT_E14max_exponent10E",
   "name" : "std::__1::numeric_limits<const volatile type-parameter-0-0>::max_exponent10",
   "referenced_type" : "_ZTIKi",
   "source_file" : "external/libcxx/include/limits"
  },
  {
   "linker_set_key" : "_ZNSt3__114numeric_limitsIVKT_E14min_exponent10E",
   "name" : "std::__1::numeric_limits<const volatile type-parameter-0-0>::min_exponent10",
   "referenced_type" : "_ZTIKi",
   "source_file" : "external/libcxx/include/limits"
  },
  {
   "linker_set_key" : "_ZNSt3__114numeric_limitsIVKT_E15has_denorm_lossE",
   "name" : "std::__1::numeric_limits<const volatile type-parameter-0-0>::has_denorm_loss",
   "referenced_type" : "_ZTIKb",
   "source_file" : "external/libcxx/include/limits"
  },
  {
   "linker_set_key" : "_ZNSt3__114numeric_limitsIVKT_E15tinyness_beforeE",
   "name" : "std::__1::numeric_limits<const volatile type-parameter-0-0>::tinyness_before",
   "referenced_type" : "_ZTIKb",
   "source_file" : "external/libcxx/include/limits"
  },
  {
   "linker_set_key" : "_ZNSt3__114numeric_limitsIVKT_E17has_signaling_NaNE",
   "name" : "std::__1::numeric_limits<const volatile type-parameter-0-0>::has_signaling_NaN",
   "referenced_type" : "_ZTIKb",
   "source_file" : "external/libcxx/include/limits"
  },
  {
   "linker_set_key" : "_ZNSt3__114numeric_limitsIVKT_E5radixE",
   "name" : "std::__1::numeric_limits<const volatile type-parameter-0-0>::radix",
   "referenced_type" : "_ZTIKi",
   "source_file" : "external/libcxx/include/limits"
  },
  {
   "linker_set_key" : "_ZNSt3__114numeric_limitsIVKT_E5trapsE",
   "name" : "std::__1::numeric_limits<const volatile type-parameter-0-0>::traps",
   "referenced_type" : "_ZTIKb",
   "source_file" : "external/libcxx/include/limits"
  },
  {
   "linker_set_key" : "_ZNSt3__114numeric_limitsIVKT_E6digitsE",
   "name" : "std::__1::numeric_limits<const volatile type-parameter-0-0>::digits",
   "referenced_type" : "_ZTIKi",
   "source_file" : "external/libcxx/include/limits"
  },
  {
   "linker_set_key" : "_ZNSt3__114numeric_limitsIVKT_E8digits10E",
   "name" : "std::__1::numeric_limits<const volatile type-parameter-0-0>::digits10",
   "referenced_type" : "_ZTIKi",
   "source_file" : "external/libcxx/include/limits"
  },
  {
   "linker_set_key" : "_ZNSt3__114numeric_limitsIVKT_E8is_exactE",
   "name" : "std::__1::numeric_limits<const volatile type-parameter-0-0>::is_exact",
   "referenced_type" : "_ZTIKb",
   "source_file" : "external/libcxx/include/limits"
  },
  {
   "linker_set_key" : "_ZNSt3__114numeric_limitsIVKT_E9is_iec559E",
   "name" : "std::__1::numeric_limits<const volatile type-parameter-0-0>::is_iec559",
   "referenced_type" : "_ZTIKb",
   "source_file" : "external/libcxx/include/limits"
  },
  {
   "linker_set_key" : "_ZNSt3__114numeric_limitsIVKT_E9is_moduloE",
   "name" : "std::__1::numeric_limits<const volatile type-parameter-0-0>::is_modulo",
   "referenced_type" : "_ZTIKb",
   "source_file" : "external/libcxx/include/limits"
  },
  {
   "linker_set_key" : "_ZNSt3__114numeric_limitsIVKT_E9is_signedE",
   "name" : "std::__1::numeric_limits<const volatile type-parameter-0-0>::is_signed",
   "referenced_type" : "_ZTIKb",
   "source_file" : "external/libcxx/include/limits"
  },
  {
   "linker_set_key" : "_ZNSt3__114numeric_limitsIVT_E10has_denormE",
   "name" : "std::__1::numeric_limits<volatile type-parameter-0-0>::has_denorm",
   "referenced_type" : "_ZTIKNSt3__118float_denorm_styleE",
   "source_file" : "external/libcxx/include/limits"
  },
  {
   "linker_set_key" : "_ZNSt3__114numeric_limitsIVT_E10is_boundedE",
   "name" : "std::__1::numeric_limits<volatile type-parameter-0-0>::is_bounded",
   "referenced_type" : "_ZTIKb",
   "source_file" : "external/libcxx/include/limits"
  },
  {
   "linker_set_key" : "_ZNSt3__114numeric_limitsIVT_E10is_integerE",
   "name" : "std::__1::numeric_limits<volatile type-parameter-0-0>::is_integer",
   "referenced_type" : "_ZTIKb",
   "source_file" : "external/libcxx/include/limits"
  },
  {
   "linker_set_key" : "_ZNSt3__114numeric_limitsIVT_E11round_styleE",
   "name" : "std::__1::numeric_limits<volatile type-parameter-0-0>::round_style",
   "referenced_type" : "_ZTIKNSt3__117float_round_styleE",
   "source_file" : "external/libcxx/include/limits"
  },
  {
   "linker_set_key" : "_ZNSt3__114numeric_limitsIVT_E12has_infinityE",
   "name" : "std::__1::numeric_limits<volatile type-parameter-0-0>::has_infinity",
   "referenced_type" : "_ZTIKb",
   "source_file" : "external/libcxx/include/limits"
  },
  {
   "linker_set_key" : "_ZNSt3__114numeric_limitsIVT_E12max_digits10E",
   "name" : "std::__1::numeric_limits<volatile type-parameter-0-0>::max_digits10",
   "referenced_type" : "_ZTIKi",
   "source_file" : "external/libcxx/include/limits"
  },
  {
   "linker_set_key" : "_ZNSt3__114numeric_limitsIVT_E12max_exponentE",
   "name" : "std::__1::numeric_limits<volatile type-parameter-0-0>::max_exponent",
   "referenced_type" : "_ZTIKi",
   "source_file" : "external/libcxx/include/limits"
  },
  {
   "linker_set_key" : "_ZNSt3__114numeric_limitsIVT_E12min_exponentE",
   "name" : "std::__1::numeric_limits<volatile type-parameter-0-0>::min_exponent",
   "referenced_type" : "_ZTIKi",
   "source_file" : "external/libcxx/include/limits"
  },
  {
   "linker_set_key" : "_ZNSt3__114numeric_limitsIVT_E13has_quiet_NaNE",
   "name" : "std::__1::numeric_limits<volatile type-parameter-0-0>::has_quiet_NaN",
   "referenced_type" : "_ZTIKb",
   "source_file" : "external/libcxx/include/limits"
  },
  {
   "linker_set_key" : "_ZNSt3__114numeric_limitsIVT_E14is_specializedE",
   "name" : "std::__1::numeric_limits<volatile type-parameter-0-0>::is_specialized",
   "referenced_type" : "_ZTIKb",
   "source_file" : "external/libcxx/include/limits"
  },
  {
   "linker_set_key" : "_ZNSt3__114numeric_limitsIVT_E14max_exponent10E",
   "name" : "std::__1::numeric_limits<volatile type-parameter-0-0>::max_exponent10",
   "referenced_type" : "_ZTIKi",
   "source_file" : "external/libcxx/include/limits"
  },
  {
   "linker_set_key" : "_ZNSt3__114numeric_limitsIVT_E14min_exponent10E",
   "name" : "std::__1::numeric_limits<volatile type-parameter-0-0>::min_exponent10",
   "referenced_type" : "_ZTIKi",
   "source_file" : "external/libcxx/include/limits"
  },
  {
   "linker_set_key" : "_ZNSt3__114numeric_limitsIVT_E15has_denorm_lossE",
   "name" : "std::__1::numeric_limits<volatile type-parameter-0-0>::has_denorm_loss",
   "referenced_type" : "_ZTIKb",
   "source_file" : "external/libcxx/include/limits"
  },
  {
   "linker_set_key" : "_ZNSt3__114numeric_limitsIVT_E15tinyness_beforeE",
   "name" : "std::__1::numeric_limits<volatile type-parameter-0-0>::tinyness_before",
   "referenced_type" : "_ZTIKb",
   "source_file" : "external/libcxx/include/limits"
  },
  {
   "linker_set_key" : "_ZNSt3__114numeric_limitsIVT_E17has_signaling_NaNE",
   "name" : "std::__1::numeric_limits<volatile type-parameter-0-0>::has_signaling_NaN",
   "referenced_type" : "_ZTIKb",
   "source_file" : "external/libcxx/include/limits"
  },
  {
   "linker_set_key" : "_ZNSt3__114numeric_limitsIVT_E5radixE",
   "name" : "std::__1::numeric_limits<volatile type-parameter-0-0>::radix",
   "referenced_type" : "_ZTIKi",
   "source_file" : "external/libcxx/include/limits"
  },
  {
   "linker_set_key" : "_ZNSt3__114numeric_limitsIVT_E5trapsE",
   "name" : "std::__1::numeric_limits<volatile type-parameter-0-0>::traps",
   "referenced_type" : "_ZTIKb",
   "source_file" : "external/libcxx/include/limits"
  },
  {
   "linker_set_key" : "_ZNSt3__114numeric_limitsIVT_E6digitsE",
   "name" : "std::__1::numeric_limits<volatile type-parameter-0-0>::digits",
   "referenced_type" : "_ZTIKi",
   "source_file" : "external/libcxx/include/limits"
  },
  {
   "linker_set_key" : "_ZNSt3__114numeric_limitsIVT_E8digits10E",
   "name" : "std::__1::numeric_limits<volatile type-parameter-0-0>::digits10",
   "referenced_type" : "_ZTIKi",
   "source_file" : "external/libcxx/include/limits"
  },
  {
   "linker_set_key" : "_ZNSt3__114numeric_limitsIVT_E8is_exactE",
   "name" : "std::__1::numeric_limits<volatile type-parameter-0-0>::is_exact",
   "referenced_type" : "_ZTIKb",
   "source_file" : "external/libcxx/include/limits"
  },
  {
   "linker_set_key" : "_ZNSt3__114numeric_limitsIVT_E9is_iec559E",
   "name" : "std::__1::numeric_limits<volatile type-parameter-0-0>::is_iec559",
   "referenced_type" : "_ZTIKb",
   "source_file" : "external/libcxx/include/limits"
  },
  {
   "linker_set_key" : "_ZNSt3__114numeric_limitsIVT_E9is_moduloE",
   "name" : "std::__1::numeric_limits<volatile type-parameter-0-0>::is_modulo",
   "referenced_type" : "_ZTIKb",
   "source_file" : "external/libcxx/include/limits"
  },
  {
   "linker_set_key" : "_ZNSt3__114numeric_limitsIVT_E9is_signedE",
   "name" : "std::__1::numeric_limits<volatile type-parameter-0-0>::is_signed",
   "referenced_type" : "_ZTIKb",
   "source_file" : "external/libcxx/include/limits"
  },
  {
   "linker_set_key" : "_ZNSt3__117__has_result_type5valueE",
   "name" : "std::__1::__has_result_type::value",
   "referenced_type" : "_ZTIKb",
   "source_file" : "external/libcxx/include/__functional_base"
  },
  {
   "linker_set_key" : "_ZNSt3__117integral_constantIbLb0EE5valueE",
   "name" : "std::__1::integral_constant<bool, false>::value",
   "referenced_type" : "_ZTIKb",
   "source_file" : "external/libcxx/include/type_traits"
  },
  {
   "linker_set_key" : "_ZNSt3__117integral_constantIbLb1EE5valueE",
   "name" : "std::__1::integral_constant<bool, true>::value",
   "referenced_type" : "_ZTIKb",
   "source_file" : "external/libcxx/include/type_traits"
  },
  {
   "linker_set_key" : "_ZNSt3__117integral_constantIiLi0EE5valueE",
   "name" : "std::__1::integral_constant<int, 0>::value",
   "referenced_type" : "_ZTIKi",
   "source_file" : "external/libcxx/include/type_traits"
  },
  {
   "linker_set_key" : "_ZNSt3__117integral_constantIiLi1EE5valueE",
   "name" : "std::__1::integral_constant<int, 1>::value",
   "referenced_type" : "_ZTIKi",
   "source_file" : "external/libcxx/include/type_traits"
  },
  {
   "linker_set_key" : "_ZNSt3__117integral_constantIiLi2EE5valueE",
   "name" : "std::__1::integral_constant<int, 2>::value",
   "referenced_type" : "_ZTIKi",
   "source_file" : "external/libcxx/include/type_traits"
  },
  {
   "linker_set_key" : "_ZNSt3__117integral_constantImLm0EE5valueE",
   "name" : "std::__1::integral_constant<unsigned long, 0>::value",
   "referenced_type" : "_ZTIKm",
   "source_file" : "external/libcxx/include/type_traits"
  },
  {
   "linker_set_key" : "_ZNSt3__117integral_constantImLm2EE5valueE",
   "name" : "std::__1::integral_constant<unsigned long, 2>::value",
   "referenced_type" : "_ZTIKm",
   "source_file" : "external/libcxx/include/type_traits"
  },
  {
   "linker_set_key" : "_ZNSt3__118__has_rebind_other5valueE",
   "name" : "std::__1::__has_rebind_other::value",
   "referenced_type" : "_ZTIKb",
   "source_file" : "external/libcxx/include/memory"
  },
  {
   "linker_set_key" : "_ZNSt3__118__has_rebind_otherIT_T0_Lb0EE5valueE",
   "name" : "std::__1::__has_rebind_other<type-parameter-0-0, type-parameter-0-1, false>::value",
   "referenced_type" : "_ZTIKb",
   "source_file" : "external/libcxx/include/memory"
  },
  {
   "linker_set_key" : "_ZNSt3__119piecewise_constructE",
   "name" : "std::__1::piecewise_construct",
   "referenced_type" : "_ZTIKNSt3__121piecewise_construct_tE",
   "source_file" : "external/libcxx/include/utility"
  },
  {
   "linker_set_key" : "_ZNSt3__120__has_allocator_type5valueE",
   "name" : "std::__1::__has_allocator_type::value",
   "referenced_type" : "_ZTIKb",
   "source_file" : "external/libcxx/include/__functional_base"
  },
  {
   "access" : "private",
   "linker_set_key" : "_ZNSt3__121__murmur2_or_cityhashImLm64EE4__k0E",
   "name" : "std::__1::__murmur2_or_cityhash<unsigned long, 64>::__k0",
   "referenced_type" : "_ZTIKm",
   "source_file" : "external/libcxx/include/utility"
  },
  {
   "access" : "private",
   "linker_set_key" : "_ZNSt3__121__murmur2_or_cityhashImLm64EE4__k1E",
   "name" : "std::__1::__murmur2_or_cityhash<unsigned long, 64>::__k1",
   "referenced_type" : "_ZTIKm",
   "source_file" : "external/libcxx/include/utility"
  },
  {
   "access" : "private",
   "linker_set_key" : "_ZNSt3__121__murmur2_or_cityhashImLm64EE4__k2E",
   "name" : "std::__1::__murmur2_or_cityhash<unsigned long, 64>::__k2",
   "referenced_type" : "_ZTIKm",
   "source_file" : "external/libcxx/include/utility"
  },
  {
   "access" : "private",
   "linker_set_key" : "_ZNSt3__121__murmur2_or_cityhashImLm64EE4__k3E",
   "name" : "std::__1::__murmur2_or_cityhash<unsigned long, 64>::__k3",
   "referenced_type" : "_ZTIKm",
   "source_file" : "external/libcxx/include/utility"
  },
  {
   "linker_set_key" : "_ZNSt3__121__uses_alloc_ctor_imp4__icE",
   "name" : "std::__1::__uses_alloc_ctor_imp::__ic",
   "referenced_type" : "_ZTIKb",
   "source_file" : "external/libcxx/include/__functional_base"
  },
  {
   "linker_set_key" : "_ZNSt3__121__uses_alloc_ctor_imp4__uaE",
   "name" : "std::__1::__uses_alloc_ctor_imp::__ua",
   "referenced_type" : "_ZTIKb",
   "source_file" : "external/libcxx/include/__functional_base"
  },
  {
   "linker_set_key" : "_ZNSt3__121__uses_alloc_ctor_imp5valueE",
   "name" : "std::__1::__uses_alloc_ctor_imp::value",
   "referenced_type" : "_ZTIKi",
   "source_file" : "external/libcxx/include/__functional_base"
  },
  {
   "linker_set_key" : "_ZNSt3__123__has_iterator_category5valueE",
   "name" : "std::__1::__has_iterator_category::value",
   "referenced_type" : "_ZTIKb",
   "source_file" : "external/libcxx/include/iterator"
  },
  {
   "linker_set_key" : "_ZNSt3__123__has_iterator_typedefs5valueE",
   "name" : "std::__1::__has_iterator_typedefs::value",
   "referenced_type" : "_ZTIKb",
   "source_file" : "external/libcxx/include/iterator"
  },
  {
   "linker_set_key" : "_ZNSt3__123__libcpp_debug_functionE",
   "name" : "std::__1::__libcpp_debug_function",
   "referenced_type" : "_ZTIPFvRKNSt3__119__libcpp_debug_infoEE",
   "source_file" : "external/libcxx/include/__debug"
  },
  {
   "access" : "protected",
   "linker_set_key" : "_ZNSt3__123__libcpp_numeric_limits10has_denormE",
   "name" : "std::__1::__libcpp_numeric_limits::has_denorm",
   "referenced_type" : "_ZTIKNSt3__118float_denorm_styleE",
   "source_file" : "external/libcxx/include/limits"
  },
  {
   "access" : "protected",
   "linker_set_key" : "_ZNSt3__123__libcpp_numeric_limits10is_boundedE",
   "name" : "std::__1::__libcpp_numeric_limits::is_bounded",
   "referenced_type" : "_ZTIKb",
   "source_file" : "external/libcxx/include/limits"
  },
  {
   "access" : "protected",
   "linker_set_key" : "_ZNSt3__123__libcpp_numeric_limits10is_integerE",
   "name" : "std::__1::__libcpp_numeric_limits::is_integer",
   "referenced_type" : "_ZTIKb",
   "source_file" : "external/libcxx/include/limits"
  },
  {
   "access" : "protected",
   "linker_set_key" : "_ZNSt3__123__libcpp_numeric_limits11round_styleE",
   "name" : "std::__1::__libcpp_numeric_limits::round_style",
   "referenced_type" : "_ZTIKNSt3__117float_round_styleE",
   "source_file" : "external/libcxx/include/limits"
  },
  {
   "access" : "protected",
   "linker_set_key" : "_ZNSt3__123__libcpp_numeric_limits12has_infinityE",
   "name" : "std::__1::__libcpp_numeric_limits::has_infinity",
   "referenced_type" : "_ZTIKb",
   "source_file" : "external/libcxx/include/limits"
  },
  {
   "access" : "protected",
   "linker_set_key" : "_ZNSt3__123__libcpp_numeric_limits12max_digits10E",
   "name" : "std::__1::__libcpp_numeric_limits::max_digits10",
   "referenced_type" : "_ZTIKi",
   "source_file" : "external/libcxx/include/limits"
  },
  {
   "access" : "protected",
   "linker_set_key" : "_ZNSt3__123__libcpp_numeric_limits12max_exponentE",
   "name" : "std::__1::__libcpp_numeric_limits::max_exponent",
   "referenced_type" : "_ZTIKi",
   "source_file" : "external/libcxx/include/limits"
  },
  {
   "access" : "protected",
   "linker_set_key" : "_ZNSt3__123__libcpp_numeric_limits12min_exponentE",
   "name" : "std::__1::__libcpp_numeric_limits::min_exponent",
   "referenced_type" : "_ZTIKi",
   "source_file" : "external/libcxx/include/limits"
  },
  {
   "access" : "protected",
   "linker_set_key" : "_ZNSt3__123__libcpp_numeric_limits13has_quiet_NaNE",
   "name" : "std::__1::__libcpp_numeric_limits::has_quiet_NaN",
   "referenced_type" : "_ZTIKb",
   "source_file" : "external/libcxx/include/limits"
  },
  {
   "access" : "protected",
   "linker_set_key" : "_ZNSt3__123__libcpp_numeric_limits14is_specializedE",
   "name" : "std::__1::__libcpp_numeric_limits::is_specialized",
   "referenced_type" : "_ZTIKb",
   "source_file" : "external/libcxx/include/limits"
  },
  {
   "access" : "protected",
   "linker_set_key" : "_ZNSt3__123__libcpp_numeric_limits14max_exponent10E",
   "name" : "std::__1::__libcpp_numeric_limits::max_exponent10",
   "referenced_type" : "_ZTIKi",
   "source_file" : "external/libcxx/include/limits"
  },
  {
   "access" : "protected",
   "linker_set_key" : "_ZNSt3__123__libcpp_numeric_limits14min_exponent10E",
   "name" : "std::__1::__libcpp_numeric_limits::min_exponent10",
   "referenced_type" : "_ZTIKi",
   "source_file" : "external/libcxx/include/limits"
  },
  {
   "access" : "protected",
   "linker_set_key" : "_ZNSt3__123__libcpp_numeric_limits15has_denorm_lossE",
   "name" : "std::__1::__libcpp_numeric_limits::has_denorm_loss",
   "referenced_type" : "_ZTIKb",
   "source_file" : "external/libcxx/include/limits"
  },
  {
   "access" : "protected",
   "linker_set_key" : "_ZNSt3__123__libcpp_numeric_limits15tinyness_beforeE",
   "name" : "std::__1::__libcpp_numeric_limits::tinyness_before",
   "referenced_type" : "_ZTIKb",
   "source_file" : "external/libcxx/include/limits"
  },
  {
   "access" : "protected",
   "linker_set_key" : "_ZNSt3__123__libcpp_numeric_limits17has_signaling_NaNE",
   "name" : "std::__1::__libcpp_numeric_limits::has_signaling_NaN",
   "referenced_type" : "_ZTIKb",
   "source_file" : "external/libcxx/include/limits"
  },
  {
   "access" : "protected",
   "linker_set_key" : "_ZNSt3__123__libcpp_numeric_limits5radixE",
   "name" : "std::__1::__libcpp_numeric_limits::radix",
   "referenced_type" : "_ZTIKi",
   "source_file" : "external/libcxx/include/limits"
  },
  {
   "access" : "protected",
   "linker_set_key" : "_ZNSt3__123__libcpp_numeric_limits5trapsE",
   "name" : "std::__1::__libcpp_numeric_limits::traps",
   "referenced_type" : "_ZTIKb",
   "source_file" : "external/libcxx/include/limits"
  },
  {
   "access" : "protected",
   "linker_set_key" : "_ZNSt3__123__libcpp_numeric_limits6digitsE",
   "name" : "std::__1::__libcpp_numeric_limits::digits",
   "referenced_type" : "_ZTIKi",
   "source_file" : "external/libcxx/include/limits"
  },
  {
   "access" : "protected",
   "linker_set_key" : "_ZNSt3__123__libcpp_numeric_limits8digits10E",
   "name" : "std::__1::__libcpp_numeric_limits::digits10",
   "referenced_type" : "_ZTIKi",
   "source_file" : "external/libcxx/include/limits"
  },
  {
   "access" : "protected",
   "linker_set_key" : "_ZNSt3__123__libcpp_numeric_limits8is_exactE",
   "name" : "std::__1::__libcpp_numeric_limits::is_exact",
   "referenced_type" : "_ZTIKb",
   "source_file" : "external/libcxx/include/limits"
  },
  {
   "access" : "protected",
   "linker_set_key" : "_ZNSt3__123__libcpp_numeric_limits9is_iec559E",
   "name" : "std::__1::__libcpp_numeric_limits::is_iec559",
   "referenced_type" : "_ZTIKb",
   "source_file" : "external/libcxx/include/limits"
  },
  {
   "access" : "protected",
   "linker_set_key" : "_ZNSt3__123__libcpp_numeric_limits9is_moduloE",
   "name" : "std::__1::__libcpp_numeric_limits::is_modulo",
   "referenced_type" : "_ZTIKb",
   "source_file" : "external/libcxx/include/limits"
  },
  {
   "access" : "protected",
   "linker_set_key" : "_ZNSt3__123__libcpp_numeric_limits9is_signedE",
   "name" : "std::__1::__libcpp_numeric_limits::is_signed",
   "referenced_type" : "_ZTIKb",
   "source_file" : "external/libcxx/include/limits"
  },
  {
   "access" : "protected",
   "linker_set_key" : "_ZNSt3__123__libcpp_numeric_limitsIT_Lb1EE10has_denormE",
   "name" : "std::__1::__libcpp_numeric_limits<type-parameter-0-0, true>::has_denorm",
   "referenced_type" : "_ZTIKNSt3__118float_denorm_styleE",
   "source_file" : "external/libcxx/include/limits"
  },
  {
   "access" : "protected",
   "linker_set_key" : "_ZNSt3__123__libcpp_numeric_limitsIT_Lb1EE10is_boundedE",
   "name" : "std::__1::__libcpp_numeric_limits<type-parameter-0-0, true>::is_bounded",
   "referenced_type" : "_ZTIKb",
   "source_file" : "external/libcxx/include/limits"
  },
  {
   "access" : "protected",
   "linker_set_key" : "_ZNSt3__123__libcpp_numeric_limitsIT_Lb1EE10is_integerE",
   "name" : "std::__1::__libcpp_numeric_limits<type-parameter-0-0, true>::is_integer",
   "referenced_type" : "_ZTIKb",
   "source_file" : "external/libcxx/include/limits"
  },
  {
   "access" : "protected",
   "linker_set_key" : "_ZNSt3__123__libcpp_numeric_limitsIT_Lb1EE11round_styleE",
   "name" : "std::__1::__libcpp_numeric_limits<type-parameter-0-0, true>::round_style",
   "referenced_type" : "_ZTIKNSt3__117float_round_styleE",
   "source_file" : "external/libcxx/include/limits"
  },
  {
   "access" : "protected",
   "linker_set_key" : "_ZNSt3__123__libcpp_numeric_limitsIT_Lb1EE12has_infinityE",
   "name" : "std::__1::__libcpp_numeric_limits<type-parameter-0-0, true>::has_infinity",
   "referenced_type" : "_ZTIKb",
   "source_file" : "external/libcxx/include/limits"
  },
  {
   "access" : "protected",
   "linker_set_key" : "_ZNSt3__123__libcpp_numeric_limitsIT_Lb1EE12max_digits10E",
   "name" : "std::__1::__libcpp_numeric_limits<type-parameter-0-0, true>::max_digits10",
   "referenced_type" : "_ZTIKi",
   "source_file" : "external/libcxx/include/limits"
  },
  {
   "access" : "protected",
   "linker_set_key" : "_ZNSt3__123__libcpp_numeric_limitsIT_Lb1EE12max_exponentE",
   "name" : "std::__1::__libcpp_numeric_limits<type-parameter-0-0, true>::max_exponent",
   "referenced_type" : "_ZTIKi",
   "source_file" : "external/libcxx/include/limits"
  },
  {
   "access" : "protected",
   "linker_set_key" : "_ZNSt3__123__libcpp_numeric_limitsIT_Lb1EE12min_exponentE",
   "name" : "std::__1::__libcpp_numeric_limits<type-parameter-0-0, true>::min_exponent",
   "referenced_type" : "_ZTIKi",
   "source_file" : "external/libcxx/include/limits"
  },
  {
   "access" : "protected",
   "linker_set_key" : "_ZNSt3__123__libcpp_numeric_limitsIT_Lb1EE13has_quiet_NaNE",
   "name" : "std::__1::__libcpp_numeric_limits<type-parameter-0-0, true>::has_quiet_NaN",
   "referenced_type" : "_ZTIKb",
   "source_file" : "external/libcxx/include/limits"
  },
  {
   "access" : "protected",
   "linker_set_key" : "_ZNSt3__123__libcpp_numeric_limitsIT_Lb1EE14is_specializedE",
   "name" : "std::__1::__libcpp_numeric_limits<type-parameter-0-0, true>::is_specialized",
   "referenced_type" : "_ZTIKb",
   "source_file" : "external/libcxx/include/limits"
  },
  {
   "access" : "protected",
   "linker_set_key" : "_ZNSt3__123__libcpp_numeric_limitsIT_Lb1EE14max_exponent10E",
   "name" : "std::__1::__libcpp_numeric_limits<type-parameter-0-0, true>::max_exponent10",
   "referenced_type" : "_ZTIKi",
   "source_file" : "external/libcxx/include/limits"
  },
  {
   "access" : "protected",
   "linker_set_key" : "_ZNSt3__123__libcpp_numeric_limitsIT_Lb1EE14min_exponent10E",
   "name" : "std::__1::__libcpp_numeric_limits<type-parameter-0-0, true>::min_exponent10",
   "referenced_type" : "_ZTIKi",
   "source_file" : "external/libcxx/include/limits"
  },
  {
   "access" : "protected",
   "linker_set_key" : "_ZNSt3__123__libcpp_numeric_limitsIT_Lb1EE15has_denorm_lossE",
   "name" : "std::__1::__libcpp_numeric_limits<type-parameter-0-0, true>::has_denorm_loss",
   "referenced_type" : "_ZTIKb",
   "source_file" : "external/libcxx/include/limits"
  },
  {
   "access" : "protected",
   "linker_set_key" : "_ZNSt3__123__libcpp_numeric_limitsIT_Lb1EE15tinyness_beforeE",
   "name" : "std::__1::__libcpp_numeric_limits<type-parameter-0-0, true>::tinyness_before",
   "referenced_type" : "_ZTIKb",
   "source_file" : "external/libcxx/include/limits"
  },
  {
   "access" : "protected",
   "linker_set_key" : "_ZNSt3__123__libcpp_numeric_limitsIT_Lb1EE17has_signaling_NaNE",
   "name" : "std::__1::__libcpp_numeric_limits<type-parameter-0-0, true>::has_signaling_NaN",
   "referenced_type" : "_ZTIKb",
   "source_file" : "external/libcxx/include/limits"
  },
  {
   "access" : "protected",
   "linker_set_key" : "_ZNSt3__123__libcpp_numeric_limitsIT_Lb1EE5radixE",
   "name" : "std::__1::__libcpp_numeric_limits<type-parameter-0-0, true>::radix",
   "referenced_type" : "_ZTIKi",
   "source_file" : "external/libcxx/include/limits"
  },
  {
   "access" : "protected",
   "linker_set_key" : "_ZNSt3__123__libcpp_numeric_limitsIT_Lb1EE5trapsE",
   "name" : "std::__1::__libcpp_numeric_limits<type-parameter-0-0, true>::traps",
   "referenced_type" : "_ZTIKb",
   "source_file" : "external/libcxx/include/limits"
  },
  {
   "access" : "protected",
   "linker_set_key" : "_ZNSt3__123__libcpp_numeric_limitsIT_Lb1EE6digitsE",
   "name" : "std::__1::__libcpp_numeric_limits<type-parameter-0-0, true>::digits",
   "referenced_type" : "_ZTIKi",
   "source_file" : "external/libcxx/include/limits"
  },
  {
   "access" : "protected",
   "linker_set_key" : "_ZNSt3__123__libcpp_numeric_limitsIT_Lb1EE8digits10E",
   "name" : "std::__1::__libcpp_numeric_limits<type-parameter-0-0, true>::digits10",
   "referenced_type" : "_ZTIKi",
   "source_file" : "external/libcxx/include/limits"
  },
  {
   "access" : "protected",
   "linker_set_key" : "_ZNSt3__123__libcpp_numeric_limitsIT_Lb1EE8is_exactE",
   "name" : "std::__1::__libcpp_numeric_limits<type-parameter-0-0, true>::is_exact",
   "referenced_type" : "_ZTIKb",
   "source_file" : "external/libcxx/include/limits"
  },
  {
   "access" : "protected",
   "linker_set_key" : "_ZNSt3__123__libcpp_numeric_limitsIT_Lb1EE9is_iec559E",
   "name" : "std::__1::__libcpp_numeric_limits<type-parameter-0-0, true>::is_iec559",
   "referenced_type" : "_ZTIKb",
   "source_file" : "external/libcxx/include/limits"
  },
  {
   "access" : "protected",
   "linker_set_key" : "_ZNSt3__123__libcpp_numeric_limitsIT_Lb1EE9is_moduloE",
   "name" : "std::__1::__libcpp_numeric_limits<type-parameter-0-0, true>::is_modulo",
   "referenced_type" : "_ZTIKb",
   "source_file" : "external/libcxx/include/limits"
  },
  {
   "access" : "protected",
   "linker_set_key" : "_ZNSt3__123__libcpp_numeric_limitsIT_Lb1EE9is_signedE",
   "name" : "std::__1::__libcpp_numeric_limits<type-parameter-0-0, true>::is_signed",
   "referenced_type" : "_ZTIKb",
   "source_file" : "external/libcxx/include/limits"
  },
  {
   "access" : "protected",
   "linker_set_key" : "_ZNSt3__123__libcpp_numeric_limitsIbLb1EE10has_denormE",
   "name" : "std::__1::__libcpp_numeric_limits<bool, true>::has_denorm",
   "referenced_type" : "_ZTIKNSt3__118float_denorm_styleE",
   "source_file" : "external/libcxx/include/limits"
  },
  {
   "access" : "protected",
   "linker_set_key" : "_ZNSt3__123__libcpp_numeric_limitsIbLb1EE10is_boundedE",
   "name" : "std::__1::__libcpp_numeric_limits<bool, true>::is_bounded",
   "referenced_type" : "_ZTIKb",
   "source_file" : "external/libcxx/include/limits"
  },
  {
   "access" : "protected",
   "linker_set_key" : "_ZNSt3__123__libcpp_numeric_limitsIbLb1EE10is_integerE",
   "name" : "std::__1::__libcpp_numeric_limits<bool, true>::is_integer",
   "referenced_type" : "_ZTIKb",
   "source_file" : "external/libcxx/include/limits"
  },
  {
   "access" : "protected",
   "linker_set_key" : "_ZNSt3__123__libcpp_numeric_limitsIbLb1EE11round_styleE",
   "name" : "std::__1::__libcpp_numeric_limits<bool, true>::round_style",
   "referenced_type" : "_ZTIKNSt3__117float_round_styleE",
   "source_file" : "external/libcxx/include/limits"
  },
  {
   "access" : "protected",
   "linker_set_key" : "_ZNSt3__123__libcpp_numeric_limitsIbLb1EE12has_infinityE",
   "name" : "std::__1::__libcpp_numeric_limits<bool, true>::has_infinity",
   "referenced_type" : "_ZTIKb",
   "source_file" : "external/libcxx/include/limits"
  },
  {
   "access" : "protected",
   "linker_set_key" : "_ZNSt3__123__libcpp_numeric_limitsIbLb1EE12max_digits10E",
   "name" : "std::__1::__libcpp_numeric_limits<bool, true>::max_digits10",
   "referenced_type" : "_ZTIKi",
   "source_file" : "external/libcxx/include/limits"
  },
  {
   "access" : "protected",
   "linker_set_key" : "_ZNSt3__123__libcpp_numeric_limitsIbLb1EE12max_exponentE",
   "name" : "std::__1::__libcpp_numeric_limits<bool, true>::max_exponent",
   "referenced_type" : "_ZTIKi",
   "source_file" : "external/libcxx/include/limits"
  },
  {
   "access" : "protected",
   "linker_set_key" : "_ZNSt3__123__libcpp_numeric_limitsIbLb1EE12min_exponentE",
   "name" : "std::__1::__libcpp_numeric_limits<bool, true>::min_exponent",
   "referenced_type" : "_ZTIKi",
   "source_file" : "external/libcxx/include/limits"
  },
  {
   "access" : "protected",
   "linker_set_key" : "_ZNSt3__123__libcpp_numeric_limitsIbLb1EE13has_quiet_NaNE",
   "name" : "std::__1::__libcpp_numeric_limits<bool, true>::has_quiet_NaN",
   "referenced_type" : "_ZTIKb",
   "source_file" : "external/libcxx/include/limits"
  },
  {
   "access" : "protected",
   "linker_set_key" : "_ZNSt3__123__libcpp_numeric_limitsIbLb1EE14is_specializedE",
   "name" : "std::__1::__libcpp_numeric_limits<bool, true>::is_specialized",
   "referenced_type" : "_ZTIKb",
   "source_file" : "external/libcxx/include/limits"
  },
  {
   "access" : "protected",
   "linker_set_key" : "_ZNSt3__123__libcpp_numeric_limitsIbLb1EE14max_exponent10E",
   "name" : "std::__1::__libcpp_numeric_limits<bool, true>::max_exponent10",
   "referenced_type" : "_ZTIKi",
   "source_file" : "external/libcxx/include/limits"
  },
  {
   "access" : "protected",
   "linker_set_key" : "_ZNSt3__123__libcpp_numeric_limitsIbLb1EE14min_exponent10E",
   "name" : "std::__1::__libcpp_numeric_limits<bool, true>::min_exponent10",
   "referenced_type" : "_ZTIKi",
   "source_file" : "external/libcxx/include/limits"
  },
  {
   "access" : "protected",
   "linker_set_key" : "_ZNSt3__123__libcpp_numeric_limitsIbLb1EE15has_denorm_lossE",
   "name" : "std::__1::__libcpp_numeric_limits<bool, true>::has_denorm_loss",
   "referenced_type" : "_ZTIKb",
   "source_file" : "external/libcxx/include/limits"
  },
  {
   "access" : "protected",
   "linker_set_key" : "_ZNSt3__123__libcpp_numeric_limitsIbLb1EE15tinyness_beforeE",
   "name" : "std::__1::__libcpp_numeric_limits<bool, true>::tinyness_before",
   "referenced_type" : "_ZTIKb",
   "source_file" : "external/libcxx/include/limits"
  },
  {
   "access" : "protected",
   "linker_set_key" : "_ZNSt3__123__libcpp_numeric_limitsIbLb1EE17has_signaling_NaNE",
   "name" : "std::__1::__libcpp_numeric_limits<bool, true>::has_signaling_NaN",
   "referenced_type" : "_ZTIKb",
   "source_file" : "external/libcxx/include/limits"
  },
  {
   "access" : "protected",
   "linker_set_key" : "_ZNSt3__123__libcpp_numeric_limitsIbLb1EE5__maxE",
   "name" : "std::__1::__libcpp_numeric_limits<bool, true>::__max",
   "referenced_type" : "_ZTIKb",
   "source_file" : "external/libcxx/include/limits"
  },
  {
   "access" : "protected",
   "linker_set_key" : "_ZNSt3__123__libcpp_numeric_limitsIbLb1EE5__minE",
   "name" : "std::__1::__libcpp_numeric_limits<bool, true>::__min",
   "referenced_type" : "_ZTIKb",
   "source_file" : "external/libcxx/include/limits"
  },
  {
   "access" : "protected",
   "linker_set_key" : "_ZNSt3__123__libcpp_numeric_limitsIbLb1EE5radixE",
   "name" : "std::__1::__libcpp_numeric_limits<bool, true>::radix",
   "referenced_type" : "_ZTIKi",
   "source_file" : "external/libcxx/include/limits"
  },
  {
   "access" : "protected",
   "linker_set_key" : "_ZNSt3__123__libcpp_numeric_limitsIbLb1EE5trapsE",
   "name" : "std::__1::__libcpp_numeric_limits<bool, true>::traps",
   "referenced_type" : "_ZTIKb",
   "source_file" : "external/libcxx/include/limits"
  },
  {
   "access" : "protected",
   "linker_set_key" : "_ZNSt3__123__libcpp_numeric_limitsIbLb1EE6digitsE",
   "name" : "std::__1::__libcpp_numeric_limits<bool, true>::digits",
   "referenced_type" : "_ZTIKi",
   "source_file" : "external/libcxx/include/limits"
  },
  {
   "access" : "protected",
   "linker_set_key" : "_ZNSt3__123__libcpp_numeric_limitsIbLb1EE8digits10E",
   "name" : "std::__1::__libcpp_numeric_limits<bool, true>::digits10",
   "referenced_type" : "_ZTIKi",
   "source_file" : "external/libcxx/include/limits"
  },
  {
   "access" : "protected",
   "linker_set_key" : "_ZNSt3__123__libcpp_numeric_limitsIbLb1EE8is_exactE",
   "name" : "std::__1::__libcpp_numeric_limits<bool, true>::is_exact",
   "referenced_type" : "_ZTIKb",
   "source_file" : "external/libcxx/include/limits"
  },
  {
   "access" : "protected",
   "linker_set_key" : "_ZNSt3__123__libcpp_numeric_limitsIbLb1EE9is_iec559E",
   "name" : "std::__1::__libcpp_numeric_limits<bool, true>::is_iec559",
   "referenced_type" : "_ZTIKb",
   "source_file" : "external/libcxx/include/limits"
  },
  {
   "access" : "protected",
   "linker_set_key" : "_ZNSt3__123__libcpp_numeric_limitsIbLb1EE9is_moduloE",
   "name" : "std::__1::__libcpp_numeric_limits<bool, true>::is_modulo",
   "referenced_type" : "_ZTIKb",
   "source_file" : "external/libcxx/include/limits"
  },
  {
   "access" : "protected",
   "linker_set_key" : "_ZNSt3__123__libcpp_numeric_limitsIbLb1EE9is_signedE",
   "name" : "std::__1::__libcpp_numeric_limits<bool, true>::is_signed",
   "referenced_type" : "_ZTIKb",
   "source_file" : "external/libcxx/include/limits"
  },
  {
   "access" : "protected",
   "linker_set_key" : "_ZNSt3__123__libcpp_numeric_limitsIdLb1EE10has_denormE",
   "name" : "std::__1::__libcpp_numeric_limits<double, true>::has_denorm",
   "referenced_type" : "_ZTIKNSt3__118float_denorm_styleE",
   "source_file" : "external/libcxx/include/limits"
  },
  {
   "access" : "protected",
   "linker_set_key" : "_ZNSt3__123__libcpp_numeric_limitsIdLb1EE10is_boundedE",
   "name" : "std::__1::__libcpp_numeric_limits<double, true>::is_bounded",
   "referenced_type" : "_ZTIKb",
   "source_file" : "external/libcxx/include/limits"
  },
  {
   "access" : "protected",
   "linker_set_key" : "_ZNSt3__123__libcpp_numeric_limitsIdLb1EE10is_integerE",
   "name" : "std::__1::__libcpp_numeric_limits<double, true>::is_integer",
   "referenced_type" : "_ZTIKb",
   "source_file" : "external/libcxx/include/limits"
  },
  {
   "access" : "protected",
   "linker_set_key" : "_ZNSt3__123__libcpp_numeric_limitsIdLb1EE11round_styleE",
   "name" : "std::__1::__libcpp_numeric_limits<double, true>::round_style",
   "referenced_type" : "_ZTIKNSt3__117float_round_styleE",
   "source_file" : "external/libcxx/include/limits"
  },
  {
   "access" : "protected",
   "linker_set_key" : "_ZNSt3__123__libcpp_numeric_limitsIdLb1EE12has_infinityE",
   "name" : "std::__1::__libcpp_numeric_limits<double, true>::has_infinity",
   "referenced_type" : "_ZTIKb",
   "source_file" : "external/libcxx/include/limits"
  },
  {
   "access" : "protected",
   "linker_set_key" : "_ZNSt3__123__libcpp_numeric_limitsIdLb1EE12max_digits10E",
   "name" : "std::__1::__libcpp_numeric_limits<double, true>::max_digits10",
   "referenced_type" : "_ZTIKi",
   "source_file" : "external/libcxx/include/limits"
  },
  {
   "access" : "protected",
   "linker_set_key" : "_ZNSt3__123__libcpp_numeric_limitsIdLb1EE12max_exponentE",
   "name" : "std::__1::__libcpp_numeric_limits<double, true>::max_exponent",
   "referenced_type" : "_ZTIKi",
   "source_file" : "external/libcxx/include/limits"
  },
  {
   "access" : "protected",
   "linker_set_key" : "_ZNSt3__123__libcpp_numeric_limitsIdLb1EE12min_exponentE",
   "name" : "std::__1::__libcpp_numeric_limits<double, true>::min_exponent",
   "referenced_type" : "_ZTIKi",
   "source_file" : "external/libcxx/include/limits"
  },
  {
   "access" : "protected",
   "linker_set_key" : "_ZNSt3__123__libcpp_numeric_limitsIdLb1EE13has_quiet_NaNE",
   "name" : "std::__1::__libcpp_numeric_limits<double, true>::has_quiet_NaN",
   "referenced_type" : "_ZTIKb",
   "source_file" : "external/libcxx/include/limits"
  },
  {
   "access" : "protected",
   "linker_set_key" : "_ZNSt3__123__libcpp_numeric_limitsIdLb1EE14is_specializedE",
   "name" : "std::__1::__libcpp_numeric_limits<double, true>::is_specialized",
   "referenced_type" : "_ZTIKb",
   "source_file" : "external/libcxx/include/limits"
  },
  {
   "access" : "protected",
   "linker_set_key" : "_ZNSt3__123__libcpp_numeric_limitsIdLb1EE14max_exponent10E",
   "name" : "std::__1::__libcpp_numeric_limits<double, true>::max_exponent10",
   "referenced_type" : "_ZTIKi",
   "source_file" : "external/libcxx/include/limits"
  },
  {
   "access" : "protected",
   "linker_set_key" : "_ZNSt3__123__libcpp_numeric_limitsIdLb1EE14min_exponent10E",
   "name" : "std::__1::__libcpp_numeric_limits<double, true>::min_exponent10",
   "referenced_type" : "_ZTIKi",
   "source_file" : "external/libcxx/include/limits"
  },
  {
   "access" : "protected",
   "linker_set_key" : "_ZNSt3__123__libcpp_numeric_limitsIdLb1EE15has_denorm_lossE",
   "name" : "std::__1::__libcpp_numeric_limits<double, true>::has_denorm_loss",
   "referenced_type" : "_ZTIKb",
   "source_file" : "external/libcxx/include/limits"
  },
  {
   "access" : "protected",
   "linker_set_key" : "_ZNSt3__123__libcpp_numeric_limitsIdLb1EE15tinyness_beforeE",
   "name" : "std::__1::__libcpp_numeric_limits<double, true>::tinyness_before",
   "referenced_type" : "_ZTIKb",
   "source_file" : "external/libcxx/include/limits"
  },
  {
   "access" : "protected",
   "linker_set_key" : "_ZNSt3__123__libcpp_numeric_limitsIdLb1EE17has_signaling_NaNE",
   "name" : "std::__1::__libcpp_numeric_limits<double, true>::has_signaling_NaN",
   "referenced_type" : "_ZTIKb",
   "source_file" : "external/libcxx/include/limits"
  },
  {
   "access" : "protected",
   "linker_set_key" : "_ZNSt3__123__libcpp_numeric_limitsIdLb1EE5radixE",
   "name" : "std::__1::__libcpp_numeric_limits<double, true>::radix",
   "referenced_type" : "_ZTIKi",
   "source_file" : "external/libcxx/include/limits"
  },
  {
   "access" : "protected",
   "linker_set_key" : "_ZNSt3__123__libcpp_numeric_limitsIdLb1EE5trapsE",
   "name" : "std::__1::__libcpp_numeric_limits<double, true>::traps",
   "referenced_type" : "_ZTIKb",
   "source_file" : "external/libcxx/include/limits"
  },
  {
   "access" : "protected",
   "linker_set_key" : "_ZNSt3__123__libcpp_numeric_limitsIdLb1EE6digitsE",
   "name" : "std::__1::__libcpp_numeric_limits<double, true>::digits",
   "referenced_type" : "_ZTIKi",
   "source_file" : "external/libcxx/include/limits"
  },
  {
   "access" : "protected",
   "linker_set_key" : "_ZNSt3__123__libcpp_numeric_limitsIdLb1EE8digits10E",
   "name" : "std::__1::__libcpp_numeric_limits<double, true>::digits10",
   "referenced_type" : "_ZTIKi",
   "source_file" : "external/libcxx/include/limits"
  },
  {
   "access" : "protected",
   "linker_set_key" : "_ZNSt3__123__libcpp_numeric_limitsIdLb1EE8is_exactE",
   "name" : "std::__1::__libcpp_numeric_limits<double, true>::is_exact",
   "referenced_type" : "_ZTIKb",
   "source_file" : "external/libcxx/include/limits"
  },
  {
   "access" : "protected",
   "linker_set_key" : "_ZNSt3__123__libcpp_numeric_limitsIdLb1EE9is_iec559E",
   "name" : "std::__1::__libcpp_numeric_limits<double, true>::is_iec559",
   "referenced_type" : "_ZTIKb",
   "source_file" : "external/libcxx/include/limits"
  },
  {
   "access" : "protected",
   "linker_set_key" : "_ZNSt3__123__libcpp_numeric_limitsIdLb1EE9is_moduloE",
   "name" : "std::__1::__libcpp_numeric_limits<double, true>::is_modulo",
   "referenced_type" : "_ZTIKb",
   "source_file" : "external/libcxx/include/limits"
  },
  {
   "access" : "protected",
   "linker_set_key" : "_ZNSt3__123__libcpp_numeric_limitsIdLb1EE9is_signedE",
   "name" : "std::__1::__libcpp_numeric_limits<double, true>::is_signed",
   "referenced_type" : "_ZTIKb",
   "source_file" : "external/libcxx/include/limits"
  },
  {
   "access" : "protected",
   "linker_set_key" : "_ZNSt3__123__libcpp_numeric_limitsIeLb1EE10has_denormE",
   "name" : "std::__1::__libcpp_numeric_limits<long double, true>::has_denorm",
   "referenced_type" : "_ZTIKNSt3__118float_denorm_styleE",
   "source_file" : "external/libcxx/include/limits"
  },
  {
   "access" : "protected",
   "linker_set_key" : "_ZNSt3__123__libcpp_numeric_limitsIeLb1EE10is_boundedE",
   "name" : "std::__1::__libcpp_numeric_limits<long double, true>::is_bounded",
   "referenced_type" : "_ZTIKb",
   "source_file" : "external/libcxx/include/limits"
  },
  {
   "access" : "protected",
   "linker_set_key" : "_ZNSt3__123__libcpp_numeric_limitsIeLb1EE10is_integerE",
   "name" : "std::__1::__libcpp_numeric_limits<long double, true>::is_integer",
   "referenced_type" : "_ZTIKb",
   "source_file" : "external/libcxx/include/limits"
  },
  {
   "access" : "protected",
   "linker_set_key" : "_ZNSt3__123__libcpp_numeric_limitsIeLb1EE11round_styleE",
   "name" : "std::__1::__libcpp_numeric_limits<long double, true>::round_style",
   "referenced_type" : "_ZTIKNSt3__117float_round_styleE",
   "source_file" : "external/libcxx/include/limits"
  },
  {
   "access" : "protected",
   "linker_set_key" : "_ZNSt3__123__libcpp_numeric_limitsIeLb1EE12has_infinityE",
   "name" : "std::__1::__libcpp_numeric_limits<long double, true>::has_infinity",
   "referenced_type" : "_ZTIKb",
   "source_file" : "external/libcxx/include/limits"
  },
  {
   "access" : "protected",
   "linker_set_key" : "_ZNSt3__123__libcpp_numeric_limitsIeLb1EE12max_digits10E",
   "name" : "std::__1::__libcpp_numeric_limits<long double, true>::max_digits10",
   "referenced_type" : "_ZTIKi",
   "source_file" : "external/libcxx/include/limits"
  },
  {
   "access" : "protected",
   "linker_set_key" : "_ZNSt3__123__libcpp_numeric_limitsIeLb1EE12max_exponentE",
   "name" : "std::__1::__libcpp_numeric_limits<long double, true>::max_exponent",
   "referenced_type" : "_ZTIKi",
   "source_file" : "external/libcxx/include/limits"
  },
  {
   "access" : "protected",
   "linker_set_key" : "_ZNSt3__123__libcpp_numeric_limitsIeLb1EE12min_exponentE",
   "name" : "std::__1::__libcpp_numeric_limits<long double, true>::min_exponent",
   "referenced_type" : "_ZTIKi",
   "source_file" : "external/libcxx/include/limits"
  },
  {
   "access" : "protected",
   "linker_set_key" : "_ZNSt3__123__libcpp_numeric_limitsIeLb1EE13has_quiet_NaNE",
   "name" : "std::__1::__libcpp_numeric_limits<long double, true>::has_quiet_NaN",
   "referenced_type" : "_ZTIKb",
   "source_file" : "external/libcxx/include/limits"
  },
  {
   "access" : "protected",
   "linker_set_key" : "_ZNSt3__123__libcpp_numeric_limitsIeLb1EE14is_specializedE",
   "name" : "std::__1::__libcpp_numeric_limits<long double, true>::is_specialized",
   "referenced_type" : "_ZTIKb",
   "source_file" : "external/libcxx/include/limits"
  },
  {
   "access" : "protected",
   "linker_set_key" : "_ZNSt3__123__libcpp_numeric_limitsIeLb1EE14max_exponent10E",
   "name" : "std::__1::__libcpp_numeric_limits<long double, true>::max_exponent10",
   "referenced_type" : "_ZTIKi",
   "source_file" : "external/libcxx/include/limits"
  },
  {
   "access" : "protected",
   "linker_set_key" : "_ZNSt3__123__libcpp_numeric_limitsIeLb1EE14min_exponent10E",
   "name" : "std::__1::__libcpp_numeric_limits<long double, true>::min_exponent10",
   "referenced_type" : "_ZTIKi",
   "source_file" : "external/libcxx/include/limits"
  },
  {
   "access" : "protected",
   "linker_set_key" : "_ZNSt3__123__libcpp_numeric_limitsIeLb1EE15has_denorm_lossE",
   "name" : "std::__1::__libcpp_numeric_limits<long double, true>::has_denorm_loss",
   "referenced_type" : "_ZTIKb",
   "source_file" : "external/libcxx/include/limits"
  },
  {
   "access" : "protected",
   "linker_set_key" : "_ZNSt3__123__libcpp_numeric_limitsIeLb1EE15tinyness_beforeE",
   "name" : "std::__1::__libcpp_numeric_limits<long double, true>::tinyness_before",
   "referenced_type" : "_ZTIKb",
   "source_file" : "external/libcxx/include/limits"
  },
  {
   "access" : "protected",
   "linker_set_key" : "_ZNSt3__123__libcpp_numeric_limitsIeLb1EE17has_signaling_NaNE",
   "name" : "std::__1::__libcpp_numeric_limits<long double, true>::has_signaling_NaN",
   "referenced_type" : "_ZTIKb",
   "source_file" : "external/libcxx/include/limits"
  },
  {
   "access" : "protected",
   "linker_set_key" : "_ZNSt3__123__libcpp_numeric_limitsIeLb1EE5radixE",
   "name" : "std::__1::__libcpp_numeric_limits<long double, true>::radix",
   "referenced_type" : "_ZTIKi",
   "source_file" : "external/libcxx/include/limits"
  },
  {
   "access" : "protected",
   "linker_set_key" : "_ZNSt3__123__libcpp_numeric_limitsIeLb1EE5trapsE",
   "name" : "std::__1::__libcpp_numeric_limits<long double, true>::traps",
   "referenced_type" : "_ZTIKb",
   "source_file" : "external/libcxx/include/limits"
  },
  {
   "access" : "protected",
   "linker_set_key" : "_ZNSt3__123__libcpp_numeric_limitsIeLb1EE6digitsE",
   "name" : "std::__1::__libcpp_numeric_limits<long double, true>::digits",
   "referenced_type" : "_ZTIKi",
   "source_file" : "external/libcxx/include/limits"
  },
  {
   "access" : "protected",
   "linker_set_key" : "_ZNSt3__123__libcpp_numeric_limitsIeLb1EE8digits10E",
   "name" : "std::__1::__libcpp_numeric_limits<long double, true>::digits10",
   "referenced_type" : "_ZTIKi",
   "source_file" : "external/libcxx/include/limits"
  },
  {
   "access" : "protected",
   "linker_set_key" : "_ZNSt3__123__libcpp_numeric_limitsIeLb1EE8is_exactE",
   "name" : "std::__1::__libcpp_numeric_limits<long double, true>::is_exact",
   "referenced_type" : "_ZTIKb",
   "source_file" : "external/libcxx/include/limits"
  },
  {
   "access" : "protected",
   "linker_set_key" : "_ZNSt3__123__libcpp_numeric_limitsIeLb1EE9is_iec559E",
   "name" : "std::__1::__libcpp_numeric_limits<long double, true>::is_iec559",
   "referenced_type" : "_ZTIKb",
   "source_file" : "external/libcxx/include/limits"
  },
  {
   "access" : "protected",
   "linker_set_key" : "_ZNSt3__123__libcpp_numeric_limitsIeLb1EE9is_moduloE",
   "name" : "std::__1::__libcpp_numeric_limits<long double, true>::is_modulo",
   "referenced_type" : "_ZTIKb",
   "source_file" : "external/libcxx/include/limits"
  },
  {
   "access" : "protected",
   "linker_set_key" : "_ZNSt3__123__libcpp_numeric_limitsIeLb1EE9is_signedE",
   "name" : "std::__1::__libcpp_numeric_limits<long double, true>::is_signed",
   "referenced_type" : "_ZTIKb",
   "source_file" : "external/libcxx/include/limits"
  },
  {
   "access" : "protected",
   "linker_set_key" : "_ZNSt3__123__libcpp_numeric_limitsIfLb1EE10has_denormE",
   "name" : "std::__1::__libcpp_numeric_limits<float, true>::has_denorm",
   "referenced_type" : "_ZTIKNSt3__118float_denorm_styleE",
   "source_file" : "external/libcxx/include/limits"
  },
  {
   "access" : "protected",
   "linker_set_key" : "_ZNSt3__123__libcpp_numeric_limitsIfLb1EE10is_boundedE",
   "name" : "std::__1::__libcpp_numeric_limits<float, true>::is_bounded",
   "referenced_type" : "_ZTIKb",
   "source_file" : "external/libcxx/include/limits"
  },
  {
   "access" : "protected",
   "linker_set_key" : "_ZNSt3__123__libcpp_numeric_limitsIfLb1EE10is_integerE",
   "name" : "std::__1::__libcpp_numeric_limits<float, true>::is_integer",
   "referenced_type" : "_ZTIKb",
   "source_file" : "external/libcxx/include/limits"
  },
  {
   "access" : "protected",
   "linker_set_key" : "_ZNSt3__123__libcpp_numeric_limitsIfLb1EE11round_styleE",
   "name" : "std::__1::__libcpp_numeric_limits<float, true>::round_style",
   "referenced_type" : "_ZTIKNSt3__117float_round_styleE",
   "source_file" : "external/libcxx/include/limits"
  },
  {
   "access" : "protected",
   "linker_set_key" : "_ZNSt3__123__libcpp_numeric_limitsIfLb1EE12has_infinityE",
   "name" : "std::__1::__libcpp_numeric_limits<float, true>::has_infinity",
   "referenced_type" : "_ZTIKb",
   "source_file" : "external/libcxx/include/limits"
  },
  {
   "access" : "protected",
   "linker_set_key" : "_ZNSt3__123__libcpp_numeric_limitsIfLb1EE12max_digits10E",
   "name" : "std::__1::__libcpp_numeric_limits<float, true>::max_digits10",
   "referenced_type" : "_ZTIKi",
   "source_file" : "external/libcxx/include/limits"
  },
  {
   "access" : "protected",
   "linker_set_key" : "_ZNSt3__123__libcpp_numeric_limitsIfLb1EE12max_exponentE",
   "name" : "std::__1::__libcpp_numeric_limits<float, true>::max_exponent",
   "referenced_type" : "_ZTIKi",
   "source_file" : "external/libcxx/include/limits"
  },
  {
   "access" : "protected",
   "linker_set_key" : "_ZNSt3__123__libcpp_numeric_limitsIfLb1EE12min_exponentE",
   "name" : "std::__1::__libcpp_numeric_limits<float, true>::min_exponent",
   "referenced_type" : "_ZTIKi",
   "source_file" : "external/libcxx/include/limits"
  },
  {
   "access" : "protected",
   "linker_set_key" : "_ZNSt3__123__libcpp_numeric_limitsIfLb1EE13has_quiet_NaNE",
   "name" : "std::__1::__libcpp_numeric_limits<float, true>::has_quiet_NaN",
   "referenced_type" : "_ZTIKb",
   "source_file" : "external/libcxx/include/limits"
  },
  {
   "access" : "protected",
   "linker_set_key" : "_ZNSt3__123__libcpp_numeric_limitsIfLb1EE14is_specializedE",
   "name" : "std::__1::__libcpp_numeric_limits<float, true>::is_specialized",
   "referenced_type" : "_ZTIKb",
   "source_file" : "external/libcxx/include/limits"
  },
  {
   "access" : "protected",
   "linker_set_key" : "_ZNSt3__123__libcpp_numeric_limitsIfLb1EE14max_exponent10E",
   "name" : "std::__1::__libcpp_numeric_limits<float, true>::max_exponent10",
   "referenced_type" : "_ZTIKi",
   "source_file" : "external/libcxx/include/limits"
  },
  {
   "access" : "protected",
   "linker_set_key" : "_ZNSt3__123__libcpp_numeric_limitsIfLb1EE14min_exponent10E",
   "name" : "std::__1::__libcpp_numeric_limits<float, true>::min_exponent10",
   "referenced_type" : "_ZTIKi",
   "source_file" : "external/libcxx/include/limits"
  },
  {
   "access" : "protected",
   "linker_set_key" : "_ZNSt3__123__libcpp_numeric_limitsIfLb1EE15has_denorm_lossE",
   "name" : "std::__1::__libcpp_numeric_limits<float, true>::has_denorm_loss",
   "referenced_type" : "_ZTIKb",
   "source_file" : "external/libcxx/include/limits"
  },
  {
   "access" : "protected",
   "linker_set_key" : "_ZNSt3__123__libcpp_numeric_limitsIfLb1EE15tinyness_beforeE",
   "name" : "std::__1::__libcpp_numeric_limits<float, true>::tinyness_before",
   "referenced_type" : "_ZTIKb",
   "source_file" : "external/libcxx/include/limits"
  },
  {
   "access" : "protected",
   "linker_set_key" : "_ZNSt3__123__libcpp_numeric_limitsIfLb1EE17has_signaling_NaNE",
   "name" : "std::__1::__libcpp_numeric_limits<float, true>::has_signaling_NaN",
   "referenced_type" : "_ZTIKb",
   "source_file" : "external/libcxx/include/limits"
  },
  {
   "access" : "protected",
   "linker_set_key" : "_ZNSt3__123__libcpp_numeric_limitsIfLb1EE5radixE",
   "name" : "std::__1::__libcpp_numeric_limits<float, true>::radix",
   "referenced_type" : "_ZTIKi",
   "source_file" : "external/libcxx/include/limits"
  },
  {
   "access" : "protected",
   "linker_set_key" : "_ZNSt3__123__libcpp_numeric_limitsIfLb1EE5trapsE",
   "name" : "std::__1::__libcpp_numeric_limits<float, true>::traps",
   "referenced_type" : "_ZTIKb",
   "source_file" : "external/libcxx/include/limits"
  },
  {
   "access" : "protected",
   "linker_set_key" : "_ZNSt3__123__libcpp_numeric_limitsIfLb1EE6digitsE",
   "name" : "std::__1::__libcpp_numeric_limits<float, true>::digits",
   "referenced_type" : "_ZTIKi",
   "source_file" : "external/libcxx/include/limits"
  },
  {
   "access" : "protected",
   "linker_set_key" : "_ZNSt3__123__libcpp_numeric_limitsIfLb1EE8digits10E",
   "name" : "std::__1::__libcpp_numeric_limits<float, true>::digits10",
   "referenced_type" : "_ZTIKi",
   "source_file" : "external/libcxx/include/limits"
  },
  {
   "access" : "protected",
   "linker_set_key" : "_ZNSt3__123__libcpp_numeric_limitsIfLb1EE8is_exactE",
   "name" : "std::__1::__libcpp_numeric_limits<float, true>::is_exact",
   "referenced_type" : "_ZTIKb",
   "source_file" : "external/libcxx/include/limits"
  },
  {
   "access" : "protected",
   "linker_set_key" : "_ZNSt3__123__libcpp_numeric_limitsIfLb1EE9is_iec559E",
   "name" : "std::__1::__libcpp_numeric_limits<float, true>::is_iec559",
   "referenced_type" : "_ZTIKb",
   "source_file" : "external/libcxx/include/limits"
  },
  {
   "access" : "protected",
   "linker_set_key" : "_ZNSt3__123__libcpp_numeric_limitsIfLb1EE9is_moduloE",
   "name" : "std::__1::__libcpp_numeric_limits<float, true>::is_modulo",
   "referenced_type" : "_ZTIKb",
   "source_file" : "external/libcxx/include/limits"
  },
  {
   "access" : "protected",
   "linker_set_key" : "_ZNSt3__123__libcpp_numeric_limitsIfLb1EE9is_signedE",
   "name" : "std::__1::__libcpp_numeric_limits<float, true>::is_signed",
   "referenced_type" : "_ZTIKb",
   "source_file" : "external/libcxx/include/limits"
  },
  {
   "linker_set_key" : "_ZNSt3__125__nothrow_invokable_r_imp5valueE",
   "name" : "std::__1::__nothrow_invokable_r_imp::value",
   "referenced_type" : "_ZTIKb",
   "source_file" : "external/libcxx/include/type_traits"
  },
  {
   "linker_set_key" : "_ZNSt3__125__nothrow_invokable_r_impILb1ELb0ET_T0_JDpT1_EE5valueE",
   "name" : "std::__1::__nothrow_invokable_r_imp<true, false, type-parameter-0-0, type-parameter-0-1, type-parameter-0-2...>::value",
   "referenced_type" : "_ZTIKb",
   "source_file" : "external/libcxx/include/type_traits"
  },
  {
   "linker_set_key" : "_ZNSt3__125__nothrow_invokable_r_impILb1ELb1ET_T0_JDpT1_EE5valueE",
   "name" : "std::__1::__nothrow_invokable_r_imp<true, true, type-parameter-0-0, type-parameter-0-1, type-parameter-0-2...>::value",
   "referenced_type" : "_ZTIKb",
   "source_file" : "external/libcxx/include/type_traits"
  },
  {
   "linker_set_key" : "_ZNSt3__126__is_destructor_wellformed5valueE",
   "name" : "std::__1::__is_destructor_wellformed::value",
   "referenced_type" : "_ZTIKb",
   "source_file" : "external/libcxx/include/type_traits"
  },
  {
   "linker_set_key" : "_ZNSt3__129__derives_from_unary_function5valueE",
   "name" : "std::__1::__derives_from_unary_function::value",
   "referenced_type" : "_ZTIKb",
   "source_file" : "external/libcxx/include/__functional_base"
  },
  {
   "linker_set_key" : "_ZNSt3__130__derives_from_binary_function5valueE",
   "name" : "std::__1::__derives_from_binary_function::value",
   "referenced_type" : "_ZTIKb",
   "source_file" : "external/libcxx/include/__functional_base"
  },
  {
   "linker_set_key" : "_ZNSt3__133__has_operator_addressof_free_imp5valueE",
   "name" : "std::__1::__has_operator_addressof_free_imp::value",
   "referenced_type" : "_ZTIKb",
   "source_file" : "external/libcxx/include/type_traits"
  },
  {
   "linker_set_key" : "_ZNSt3__135__has_operator_addressof_member_imp5valueE",
   "name" : "std::__1::__has_operator_addressof_member_imp::value",
   "referenced_type" : "_ZTIKb",
   "source_file" : "external/libcxx/include/type_traits"
  },
  {
   "access" : "private",
   "linker_set_key" : "_ZNSt3__15tuple36_EnableImplicitReducedArityExtensionE",
   "name" : "std::__1::tuple::_EnableImplicitReducedArityExtension",
   "referenced_type" : "_ZTIKb",
   "source_file" : "external/libcxx/include/tuple"
  },
  {
   "linker_set_key" : "_ZNSt3__18__detail16__swappable_with5valueE",
   "name" : "std::__1::__detail::__swappable_with::value",
   "referenced_type" : "_ZTIKb",
   "source_file" : "external/libcxx/include/type_traits"
  },
  {
   "linker_set_key" : "_ZNSt3__18__detail24__nothrow_swappable_with5valueE",
   "name" : "std::__1::__detail::__nothrow_swappable_with::value",
   "referenced_type" : "_ZTIKb",
   "source_file" : "external/libcxx/include/type_traits"
  },
  {
   "linker_set_key" : "_ZSt7nothrow",
   "name" : "std::nothrow",
   "referenced_type" : "_ZTIKSt9nothrow_t",
   "source_file" : "external/libcxx/include/new"
  }
 ],
 "lvalue_reference_types" :
 [
  {
   "alignment" : 8,
   "linker_set_key" : "_ZTIRKNSt3__112basic_stringIcNS_11char_traitsIcEENS_9allocatorIcEEEE",
   "name" : "const std::basic_string<char, std::char_traits<char>, std::allocator<char>> &",
   "referenced_type" : "_ZTIKNSt3__112basic_stringIcNS_11char_traitsIcEENS_9allocatorIcEEEE",
   "self_type" : "_ZTIRKNSt3__112basic_stringIcNS_11char_traitsIcEENS_9allocatorIcEEEE",
   "size" : 8,
   "source_file" : "external/libcxx/include/stdexcept"
  },
  {
   "alignment" : 8,
   "linker_set_key" : "_ZTIRKNSt3__119__libcpp_debug_infoE",
   "name" : "const std::__libcpp_debug_info &",
   "referenced_type" : "_ZTIKNSt3__119__libcpp_debug_infoE",
   "self_type" : "_ZTIRKNSt3__119__libcpp_debug_infoE",
   "size" : 8,
   "source_file" : "external/libcxx/include/__debug"
  },
  {
   "alignment" : 8,
   "linker_set_key" : "_ZTIRKNSt3__14pairImmEE",
   "name" : "const std::pair<unsigned long, unsigned long> &",
   "referenced_type" : "_ZTIKNSt3__14pairImmEE",
   "self_type" : "_ZTIRKNSt3__14pairImmEE",
   "size" : 8,
   "source_file" : "external/libcxx/include/utility"
  },
  {
   "alignment" : 8,
   "linker_set_key" : "_ZTIRKSt13exception_ptr",
   "name" : "const std::exception_ptr &",
   "referenced_type" : "_ZTIKSt13exception_ptr",
   "self_type" : "_ZTIRKSt13exception_ptr",
   "size" : 8,
   "source_file" : "external/libcxx/include/exception"
  },
  {
   "alignment" : 8,
   "linker_set_key" : "_ZTIRKSt9nothrow_t",
   "name" : "const std::nothrow_t &",
   "referenced_type" : "_ZTIKSt9nothrow_t",
   "self_type" : "_ZTIRKSt9nothrow_t",
   "size" : 8,
   "source_file" : "external/libcxx/include/new"
  },
  {
   "alignment" : 8,
   "linker_set_key" : "_ZTIRKSt9type_info",
   "name" : "const std::type_info &",
   "referenced_type" : "_ZTIKSt9type_info",
   "self_type" : "_ZTIRKSt9type_info",
   "size" : 8,
   "source_file" : "external/libcxx/include/typeinfo"
  },
  {
   "alignment" : 8,
   "linker_set_key" : "_ZTIRKm",
   "name" : "const unsigned long &",
   "referenced_type" : "_ZTIKm",
   "self_type" : "_ZTIRKm",
   "size" : 8,
   "source_file" : "external/libcxx/include/utility"
  },
  {
   "alignment" : 8,
   "linker_set_key" : "_ZTIRNSt3__14pairImmEE",
   "name" : "std::pair<unsigned long, unsigned long> &",
   "referenced_type" : "_ZTINSt3__14pairImmEE",
   "self_type" : "_ZTIRNSt3__14pairImmEE",
   "size" : 8,
   "source_file" : "external/libcxx/include/utility"
  },
  {
   "alignment" : 8,
   "linker_set_key" : "_ZTIRNSt3__15tupleIJEEE",
   "name" : "std::tuple<> &",
   "referenced_type" : "_ZTINSt3__15tupleIJEEE",
   "self_type" : "_ZTIRNSt3__15tupleIJEEE",
   "size" : 8,
   "source_file" : "external/libcxx/include/tuple"
  },
  {
   "alignment" : 8,
   "linker_set_key" : "_ZTIRm",
   "name" : "unsigned long &",
   "referenced_type" : "_ZTIm",
   "self_type" : "_ZTIRm",
   "size" : 8,
   "source_file" : "external/libcxx/include/type_traits"
  }
 ],
 "pointer_types" :
 [
  {
   "alignment" : 8,
   "linker_set_key" : "_ZTIPFvRKNSt3__119__libcpp_debug_infoEE",
   "name" : "void (*)(const std::__1::__libcpp_debug_info &)",
   "referenced_type" : "_ZTIFvRKNSt3__119__libcpp_debug_infoEE",
   "self_type" : "_ZTIPFvRKNSt3__119__libcpp_debug_infoEE",
   "size" : 8,
   "source_file" : "external/libcxx/include/__debug"
  },
  {
   "alignment" : 8,
   "linker_set_key" : "_ZTIPKNSt3__113__scalar_hashINS_6_PairTELm2EEE",
   "name" : "const std::__scalar_hash<std::_PairT, 2> *",
   "referenced_type" : "_ZTIKNSt3__113__scalar_hashINS_6_PairTELm2EEE",
   "self_type" : "_ZTIPKNSt3__113__scalar_hashINS_6_PairTELm2EEE",
   "size" : 8,
   "source_file" : "external/libcxx/include/utility"
  },
  {
   "alignment" : 8,
   "linker_set_key" : "_ZTIPKNSt3__113__scalar_hashIdLm1EEE",
   "name" : "const std::__scalar_hash<double, 1> *",
   "referenced_type" : "_ZTIKNSt3__113__scalar_hashIdLm1EEE",
   "self_type" : "_ZTIPKNSt3__113__scalar_hashIdLm1EEE",
   "size" : 8,
   "source_file" : "external/libcxx/include/utility"
  },
  {
   "alignment" : 8,
   "linker_set_key" : "_ZTIPKNSt3__113__scalar_hashIeLm2EEE",
   "name" : "const std::__scalar_hash<long double, 2> *",
   "referenced_type" : "_ZTIKNSt3__113__scalar_hashIeLm2EEE",
   "self_type" : "_ZTIPKNSt3__113__scalar_hashIeLm2EEE",
   "size" : 8,
   "source_file" : "external/libcxx/include/utility"
  },
  {
   "alignment" : 8,
   "linker_set_key" : "_ZTIPKNSt3__113__scalar_hashIfLm0EEE",
   "name" : "const std::__scalar_hash<float, 0> *",
   "referenced_type" : "_ZTIKNSt3__113__scalar_hashIfLm0EEE",
   "self_type" : "_ZTIPKNSt3__113__scalar_hashIfLm0EEE",
   "size" : 8,
   "source_file" : "external/libcxx/include/utility"
  },
  {
   "alignment" : 8,
   "linker_set_key" : "_ZTIPKNSt3__114__shared_countE",
   "name" : "const std::__shared_count *",
   "referenced_type" : "_ZTIKNSt3__114__shared_countE",
   "self_type" : "_ZTIPKNSt3__114__shared_countE",
   "size" : 8,
   "source_file" : "external/libcxx/include/memory"
  },
  {
   "alignment" : 8,
   "linker_set_key" : "_ZTIPKNSt3__114pointer_safetyE",
   "name" : "const std::pointer_safety *",
   "referenced_type" : "_ZTIKNSt3__114pointer_safetyE",
   "self_type" : "_ZTIPKNSt3__114pointer_safetyE",
   "size" : 8,
   "source_file" : "external/libcxx/include/memory"
  },
  {
   "alignment" : 8,
   "linker_set_key" : "_ZTIPKNSt3__118__libcpp_refstringE",
   "name" : "const std::__libcpp_refstring *",
   "referenced_type" : "_ZTIKNSt3__118__libcpp_refstringE",
   "self_type" : "_ZTIPKNSt3__118__libcpp_refstringE",
   "size" : 8,
   "source_file" : "external/libcxx/include/stdexcept"
  },
  {
   "alignment" : 8,
   "linker_set_key" : "_ZTIPKNSt3__119__shared_weak_countE",
   "name" : "const std::__shared_weak_count *",
   "referenced_type" : "_ZTIKNSt3__119__shared_weak_countE",
   "self_type" : "_ZTIPKNSt3__119__shared_weak_countE",
   "size" : 8,
   "source_file" : "external/libcxx/include/memory"
  },
  {
   "alignment" : 8,
   "linker_set_key" : "_ZTIPKNSt3__14hashIDiEE",
   "name" : "const std::hash<char32_t> *",
   "referenced_type" : "_ZTIKNSt3__14hashIDiEE",
   "self_type" : "_ZTIPKNSt3__14hashIDiEE",
   "size" : 8,
   "source_file" : "external/libcxx/include/utility"
  },
  {
   "alignment" : 8,
   "linker_set_key" : "_ZTIPKNSt3__14hashIDsEE",
   "name" : "const std::hash<char16_t> *",
   "referenced_type" : "_ZTIKNSt3__14hashIDsEE",
   "self_type" : "_ZTIPKNSt3__14hashIDsEE",
   "size" : 8,
   "source_file" : "external/libcxx/include/utility"
  },
  {
   "alignment" : 8,
   "linker_set_key" : "_ZTIPKNSt3__14hashIaEE",
   "name" : "const std::hash<signed char> *",
   "referenced_type" : "_ZTIKNSt3__14hashIaEE",
   "self_type" : "_ZTIPKNSt3__14hashIaEE",
   "size" : 8,
   "source_file" : "external/libcxx/include/utility"
  },
  {
   "alignment" : 8,
   "linker_set_key" : "_ZTIPKNSt3__14hashIbEE",
   "name" : "const std::hash<bool> *",
   "referenced_type" : "_ZTIKNSt3__14hashIbEE",
   "self_type" : "_ZTIPKNSt3__14hashIbEE",
   "size" : 8,
   "source_file" : "external/libcxx/include/utility"
  },
  {
   "alignment" : 8,
   "linker_set_key" : "_ZTIPKNSt3__14hashIcEE",
   "name" : "const std::hash<char> *",
   "referenced_type" : "_ZTIKNSt3__14hashIcEE",
   "self_type" : "_ZTIPKNSt3__14hashIcEE",
   "size" : 8,
   "source_file" : "external/libcxx/include/utility"
  },
  {
   "alignment" : 8,
   "linker_set_key" : "_ZTIPKNSt3__14hashIdEE",
   "name" : "const std::hash<double> *",
   "referenced_type" : "_ZTIKNSt3__14hashIdEE",
   "self_type" : "_ZTIPKNSt3__14hashIdEE",
   "size" : 8,
   "source_file" : "external/libcxx/include/utility"
  },
  {
   "alignment" : 8,
   "linker_set_key" : "_ZTIPKNSt3__14hashIeEE",
   "name" : "const std::hash<long double> *",
   "referenced_type" : "_ZTIKNSt3__14hashIeEE",
   "self_type" : "_ZTIPKNSt3__14hashIeEE",
   "size" : 8,
   "source_file" : "external/libcxx/include/utility"
  },
  {
   "alignment" : 8,
   "linker_set_key" : "_ZTIPKNSt3__14hashIfEE",
   "name" : "const std::hash<float> *",
   "referenced_type" : "_ZTIKNSt3__14hashIfEE",
   "self_type" : "_ZTIPKNSt3__14hashIfEE",
   "size" : 8,
   "source_file" : "external/libcxx/include/utility"
  },
  {
   "alignment" : 8,
   "linker_set_key" : "_ZTIPKNSt3__14hashIhEE",
   "name" : "const std::hash<unsigned char> *",
   "referenced_type" : "_ZTIKNSt3__14hashIhEE",
   "self_type" : "_ZTIPKNSt3__14hashIhEE",
   "size" : 8,
   "source_file" : "external/libcxx/include/utility"
  },
  {
   "alignment" : 8,
   "linker_set_key" : "_ZTIPKNSt3__14hashIiEE",
   "name" : "const std::hash<int> *",
   "referenced_type" : "_ZTIKNSt3__14hashIiEE",
   "self_type" : "_ZTIPKNSt3__14hashIiEE",
   "size" : 8,
   "source_file" : "external/libcxx/include/utility"
  },
  {
   "alignment" : 8,
   "linker_set_key" : "_ZTIPKNSt3__14hashIjEE",
   "name" : "const std::hash<unsigned int> *",
   "referenced_type" : "_ZTIKNSt3__14hashIjEE",
   "self_type" : "_ZTIPKNSt3__14hashIjEE",
   "size" : 8,
   "source_file" : "external/libcxx/include/utility"
  },
  {
   "alignment" : 8,
   "linker_set_key" : "_ZTIPKNSt3__14hashIlEE",
   "name" : "const std::hash<long> *",
   "referenced_type" : "_ZTIKNSt3__14hashIlEE",
   "self_type" : "_ZTIPKNSt3__14hashIlEE",
   "size" : 8,
   "source_file" : "external/libcxx/include/utility"
  },
  {
   "alignment" : 8,
   "linker_set_key" : "_ZTIPKNSt3__14hashImEE",
   "name" : "const std::hash<unsigned long> *",
   "referenced_type" : "_ZTIKNSt3__14hashImEE",
   "self_type" : "_ZTIPKNSt3__14hashImEE",
   "size" : 8,
   "source_file" : "external/libcxx/include/utility"
  },
  {
   "alignment" : 8,
   "linker_set_key" : "_ZTIPKNSt3__14hashIsEE",
   "name" : "const std::hash<short> *",
   "referenced_type" : "_ZTIKNSt3__14hashIsEE",
   "self_type" : "_ZTIPKNSt3__14hashIsEE",
   "size" : 8,
   "source_file" : "external/libcxx/include/utility"
  },
  {
   "alignment" : 8,
   "linker_set_key" : "_ZTIPKNSt3__14hashItEE",
   "name" : "const std::hash<unsigned short> *",
   "referenced_type" : "_ZTIKNSt3__14hashItEE",
   "self_type" : "_ZTIPKNSt3__14hashItEE",
   "size" : 8,
   "source_file" : "external/libcxx/include/utility"
  },
  {
   "alignment" : 8,
   "linker_set_key" : "_ZTIPKNSt3__14hashIwEE",
   "name" : "const std::hash<wchar_t> *",
   "referenced_type" : "_ZTIKNSt3__14hashIwEE",
   "self_type" : "_ZTIPKNSt3__14hashIwEE",
   "size" : 8,
   "source_file" : "external/libcxx/include/utility"
  },
  {
   "alignment" : 8,
   "linker_set_key" : "_ZTIPKSt13exception_ptr",
   "name" : "const std::exception_ptr *",
   "referenced_type" : "_ZTIKSt13exception_ptr",
   "self_type" : "_ZTIPKSt13exception_ptr",
   "size" : 8,
   "source_file" : "external/libcxx/include/exception"
  },
  {
   "alignment" : 8,
   "linker_set_key" : "_ZTIPKSt16nested_exception",
   "name" : "const std::nested_exception *",
   "referenced_type" : "_ZTIKSt16nested_exception",
   "self_type" : "_ZTIPKSt16nested_exception",
   "size" : 8,
   "source_file" : "external/libcxx/include/exception"
  },
  {
   "alignment" : 8,
   "linker_set_key" : "_ZTIPKSt9type_info",
   "name" : "const std::type_info *",
   "referenced_type" : "_ZTIKSt9type_info",
   "self_type" : "_ZTIPKSt9type_info",
   "size" : 8,
   "source_file" : "external/libcxx/include/typeinfo"
  },
  {
   "alignment" : 8,
   "linker_set_key" : "_ZTIPKc",
   "name" : "const char *",
   "referenced_type" : "_ZTIKc",
   "self_type" : "_ZTIPKc",
   "size" : 8,
   "source_file" : "external/libcxx/include/typeinfo"
  },
  {
   "alignment" : 8,
   "linker_set_key" : "_ZTIPKl",
   "name" : "const long *",
   "referenced_type" : "_ZTIKl",
   "self_type" : "_ZTIPKl",
   "size" : 8,
   "source_file" : "external/libcxx/include/memory"
  },
  {
   "alignment" : 8,
   "linker_set_key" : "_ZTIPKv",
   "name" : "const void *",
   "referenced_type" : "_ZTIKv",
   "self_type" : "_ZTIPKv",
   "size" : 8,
   "source_file" : "external/libcxx/include/string.h"
  },
  {
   "alignment" : 8,
   "linker_set_key" : "_ZTIPKw",
   "name" : "const wchar_t *",
   "referenced_type" : "_ZTIKw",
   "self_type" : "_ZTIPKw",
   "size" : 8,
   "source_file" : "external/libcxx/include/wchar.h"
  },
  {
   "alignment" : 8,
   "linker_set_key" : "_ZTIPNSt3__111atomic_flagE",
   "name" : "std::atomic_flag *",
   "referenced_type" : "_ZTINSt3__111atomic_flagE",
   "self_type" : "_ZTIPNSt3__111atomic_flagE",
   "size" : 8,
   "source_file" : "external/libcxx/include/atomic"
  },
  {
   "alignment" : 8,
   "linker_set_key" : "_ZTIPNSt3__112__destruct_nE",
   "name" : "std::__destruct_n *",
   "referenced_type" : "_ZTINSt3__112__destruct_nE",
   "self_type" : "_ZTIPNSt3__112__destruct_nE",
   "size" : 8,
   "source_file" : "external/libcxx/include/memory"
  },
  {
   "alignment" : 8,
   "linker_set_key" : "_ZTIPNSt3__114__shared_countE",
   "name" : "std::__shared_count *",
   "referenced_type" : "_ZTINSt3__114__shared_countE",
   "self_type" : "_ZTIPNSt3__114__shared_countE",
   "size" : 8,
   "source_file" : "external/libcxx/include/memory"
  },
  {
   "alignment" : 8,
   "linker_set_key" : "_ZTIPNSt3__114pointer_safetyE",
   "name" : "std::pointer_safety *",
   "referenced_type" : "_ZTINSt3__114pointer_safetyE",
   "self_type" : "_ZTIPNSt3__114pointer_safetyE",
   "size" : 8,
   "source_file" : "external/libcxx/include/memory"
  },
  {
   "alignment" : 8,
   "linker_set_key" : "_ZTIPNSt3__119__libcpp_debug_infoE",
   "name" : "std::__libcpp_debug_info *",
   "referenced_type" : "_ZTINSt3__119__libcpp_debug_infoE",
   "self_type" : "_ZTIPNSt3__119__libcpp_debug_infoE",
   "size" : 8,
   "source_file" : "external/libcxx/include/__debug"
  },
  {
   "alignment" : 8,
   "linker_set_key" : "_ZTIPNSt3__119__shared_weak_countE",
   "name" : "std::__shared_weak_count *",
   "referenced_type" : "_ZTINSt3__119__shared_weak_countE",
   "self_type" : "_ZTIPNSt3__119__shared_weak_countE",
   "size" : 8,
   "source_file" : "external/libcxx/include/memory"
  },
  {
   "alignment" : 8,
   "linker_set_key" : "_ZTIPNSt3__121__murmur2_or_cityhashImLm64EEE",
   "name" : "std::__murmur2_or_cityhash<unsigned long, 64> *",
   "referenced_type" : "_ZTINSt3__121__murmur2_or_cityhashImLm64EEE",
   "self_type" : "_ZTIPNSt3__121__murmur2_or_cityhashImLm64EEE",
   "size" : 8,
   "source_file" : "external/libcxx/include/utility"
  },
  {
   "alignment" : 8,
   "linker_set_key" : "_ZTIPNSt3__124__libcpp_debug_exception28__libcpp_debug_exception_impE",
   "name" : "std::__libcpp_debug_exception::__libcpp_debug_exception_imp *",
   "referenced_type" : "_ZTINSt3__124__libcpp_debug_exception28__libcpp_debug_exception_impE",
   "self_type" : "_ZTIPNSt3__124__libcpp_debug_exception28__libcpp_debug_exception_impE",
   "size" : 8,
   "source_file" : "external/libcxx/include/__debug"
  },
  {
   "alignment" : 8,
   "linker_set_key" : "_ZTIPNSt3__14pairImmEE",
   "name" : "std::pair<unsigned long, unsigned long> *",
   "referenced_type" : "_ZTINSt3__14pairImmEE",
   "self_type" : "_ZTIPNSt3__14pairImmEE",
   "size" : 8,
   "source_file" : "external/libcxx/include/utility"
  },
  {
   "alignment" : 8,
   "linker_set_key" : "_ZTIPNSt3__15tupleIJEEE",
   "name" : "std::tuple<> *",
   "referenced_type" : "_ZTINSt3__15tupleIJEEE",
   "self_type" : "_ZTIPNSt3__15tupleIJEEE",
   "size" : 8,
   "source_file" : "external/libcxx/include/tuple"
  },
  {
   "alignment" : 8,
   "linker_set_key" : "_ZTIPNSt3__18__c_nodeE",
   "name" : "std::__c_node *",
   "referenced_type" : "_ZTINSt3__18__c_nodeE",
   "self_type" : "_ZTIPNSt3__18__c_nodeE",
   "size" : 8,
   "source_file" : "external/libcxx/include/__debug"
  },
  {
   "alignment" : 8,
   "linker_set_key" : "_ZTIPNSt3__18__i_nodeE",
   "name" : "std::__i_node *",
   "referenced_type" : "_ZTINSt3__18__i_nodeE",
   "self_type" : "_ZTIPNSt3__18__i_nodeE",
   "size" : 8,
   "source_file" : "external/libcxx/include/__debug"
  },
  {
   "alignment" : 8,
   "linker_set_key" : "_ZTIPPNSt3__18__c_nodeE",
   "name" : "std::__c_node **",
   "referenced_type" : "_ZTIPNSt3__18__c_nodeE",
   "self_type" : "_ZTIPPNSt3__18__c_nodeE",
   "size" : 8,
   "source_file" : "external/libcxx/include/__debug"
  },
  {
   "alignment" : 8,
   "linker_set_key" : "_ZTIPPNSt3__18__i_nodeE",
   "name" : "std::__i_node **",
   "referenced_type" : "_ZTIPNSt3__18__i_nodeE",
   "self_type" : "_ZTIPPNSt3__18__i_nodeE",
   "size" : 8,
   "source_file" : "external/libcxx/include/__debug"
  },
  {
   "alignment" : 8,
   "linker_set_key" : "_ZTIPSt11range_error",
   "name" : "std::range_error *",
   "referenced_type" : "_ZTISt11range_error",
   "self_type" : "_ZTIPSt11range_error",
   "size" : 8,
   "source_file" : "external/libcxx/include/stdexcept"
  },
  {
   "alignment" : 8,
   "linker_set_key" : "_ZTIPSt12domain_error",
   "name" : "std::domain_error *",
   "referenced_type" : "_ZTISt12domain_error",
   "self_type" : "_ZTIPSt12domain_error",
   "size" : 8,
   "source_file" : "external/libcxx/include/stdexcept"
  },
  {
   "alignment" : 8,
   "linker_set_key" : "_ZTIPSt12length_error",
   "name" : "std::length_error *",
   "referenced_type" : "_ZTISt12length_error",
   "self_type" : "_ZTIPSt12length_error",
   "size" : 8,
   "source_file" : "external/libcxx/include/stdexcept"
  },
  {
   "alignment" : 8,
   "linker_set_key" : "_ZTIPSt12out_of_range",
   "name" : "std::out_of_range *",
   "referenced_type" : "_ZTISt12out_of_range",
   "self_type" : "_ZTIPSt12out_of_range",
   "size" : 8,
   "source_file" : "external/libcxx/include/stdexcept"
  },
  {
   "alignment" : 8,
   "linker_set_key" : "_ZTIPSt13bad_exception",
   "name" : "std::bad_exception *",
   "referenced_type" : "_ZTISt13bad_exception",
   "self_type" : "_ZTIPSt13bad_exception",
   "size" : 8,
   "source_file" : "external/libcxx/include/exception"
  },
  {
   "alignment" : 8,
   "linker_set_key" : "_ZTIPSt13exception_ptr",
   "name" : "std::exception_ptr *",
   "referenced_type" : "_ZTISt13exception_ptr",
   "self_type" : "_ZTIPSt13exception_ptr",
   "size" : 8,
   "source_file" : "external/libcxx/include/exception"
  },
  {
   "alignment" : 8,
   "linker_set_key" : "_ZTIPSt14overflow_error",
   "name" : "std::overflow_error *",
   "referenced_type" : "_ZTISt14overflow_error",
   "self_type" : "_ZTIPSt14overflow_error",
   "size" : 8,
   "source_file" : "external/libcxx/include/stdexcept"
  },
  {
   "alignment" : 8,
   "linker_set_key" : "_ZTIPSt15underflow_error",
   "name" : "std::underflow_error *",
   "referenced_type" : "_ZTISt15underflow_error",
   "self_type" : "_ZTIPSt15underflow_error",
   "size" : 8,
   "source_file" : "external/libcxx/include/stdexcept"
  },
  {
   "alignment" : 8,
   "linker_set_key" : "_ZTIPSt16invalid_argument",
   "name" : "std::invalid_argument *",
   "referenced_type" : "_ZTISt16invalid_argument",
   "self_type" : "_ZTIPSt16invalid_argument",
   "size" : 8,
   "source_file" : "external/libcxx/include/stdexcept"
  },
  {
   "alignment" : 8,
   "linker_set_key" : "_ZTIPSt9exception",
   "name" : "std::exception *",
   "referenced_type" : "_ZTISt9exception",
   "self_type" : "_ZTIPSt9exception",
   "size" : 8,
   "source_file" : "external/libcxx/include/exception"
  },
  {
   "alignment" : 8,
   "linker_set_key" : "_ZTIPSt9type_info",
   "name" : "std::type_info *",
   "referenced_type" : "_ZTISt9type_info",
   "self_type" : "_ZTIPSt9type_info",
   "size" : 8,
   "source_file" : "external/libcxx/include/typeinfo"
  },
  {
   "alignment" : 8,
   "linker_set_key" : "_ZTIPVNSt3__111atomic_flagE",
   "name" : "volatile std::atomic_flag *",
   "referenced_type" : "_ZTIVNSt3__111atomic_flagE",
   "self_type" : "_ZTIPVNSt3__111atomic_flagE",
   "size" : 8,
   "source_file" : "external/libcxx/include/atomic"
  },
  {
   "alignment" : 8,
   "linker_set_key" : "_ZTIPc",
   "name" : "char *",
   "referenced_type" : "_ZTIc",
   "self_type" : "_ZTIPc",
   "size" : 8,
   "source_file" : "external/libcxx/include/string.h"
  },
  {
   "alignment" : 8,
   "linker_set_key" : "_ZTIPv",
   "name" : "void *",
   "referenced_type" : "_ZTIv",
   "self_type" : "_ZTIPv",
   "size" : 8,
   "source_file" : "external/libcxx/include/exception"
  },
  {
   "alignment" : 8,
   "linker_set_key" : "_ZTIPw",
   "name" : "wchar_t *",
   "referenced_type" : "_ZTIw",
   "self_type" : "_ZTIPw",
   "size" : 8,
   "source_file" : "external/libcxx/include/wchar.h"
  }
 ],
 "qualified_types" :
 [
  {
   "alignment" : 1,
   "is_const" : true,
   "linker_set_key" : "_ZTIKNSt3__110__ignore_tIhEE",
   "name" : "const std::__ignore_t<unsigned char>",
   "referenced_type" : "_ZTINSt3__110__ignore_tIhEE",
   "self_type" : "_ZTIKNSt3__110__ignore_tIhEE",
   "size" : 1,
   "source_file" : "external/libcxx/include/tuple"
  },
  {
   "is_const" : true,
   "linker_set_key" : "_ZTIKNSt3__112basic_stringIcNS_11char_traitsIcEENS_9allocatorIcEEEE",
   "name" : "const std::basic_string<char, std::char_traits<char>, std::allocator<char>>",
   "referenced_type" : "_ZTINSt3__112basic_stringIcNS_11char_traitsIcEENS_9allocatorIcEEEE",
   "self_type" : "_ZTIKNSt3__112basic_stringIcNS_11char_traitsIcEENS_9allocatorIcEEEE",
   "source_file" : "external/libcxx/include/stdexcept"
  },
  {
   "alignment" : 1,
   "is_const" : true,
   "linker_set_key" : "_ZTIKNSt3__113__scalar_hashINS_6_PairTELm2EEE",
   "name" : "const std::__scalar_hash<std::_PairT, 2>",
   "referenced_type" : "_ZTINSt3__113__scalar_hashINS_6_PairTELm2EEE",
   "self_type" : "_ZTIKNSt3__113__scalar_hashINS_6_PairTELm2EEE",
   "size" : 1,
   "source_file" : "external/libcxx/include/utility"
  },
  {
   "alignment" : 1,
   "is_const" : true,
   "linker_set_key" : "_ZTIKNSt3__113__scalar_hashIdLm1EEE",
   "name" : "const std::__scalar_hash<double, 1>",
   "referenced_type" : "_ZTINSt3__113__scalar_hashIdLm1EEE",
   "self_type" : "_ZTIKNSt3__113__scalar_hashIdLm1EEE",
   "size" : 1,
   "source_file" : "external/libcxx/include/utility"
  },
  {
   "alignment" : 1,
   "is_const" : true,
   "linker_set_key" : "_ZTIKNSt3__113__scalar_hashIeLm2EEE",
   "name" : "const std::__scalar_hash<long double, 2>",
   "referenced_type" : "_ZTINSt3__113__scalar_hashIeLm2EEE",
   "self_type" : "_ZTIKNSt3__113__scalar_hashIeLm2EEE",
   "size" : 1,
   "source_file" : "external/libcxx/include/utility"
  },
  {
   "alignment" : 1,
   "is_const" : true,
   "linker_set_key" : "_ZTIKNSt3__113__scalar_hashIfLm0EEE",
   "name" : "const std::__scalar_hash<float, 0>",
   "referenced_type" : "_ZTINSt3__113__scalar_hashIfLm0EEE",
   "self_type" : "_ZTIKNSt3__113__scalar_hashIfLm0EEE",
   "size" : 1,
   "source_file" : "external/libcxx/include/utility"
  },
  {
   "alignment" : 8,
   "is_const" : true,
   "linker_set_key" : "_ZTIKNSt3__114__shared_countE",
   "name" : "const std::__shared_count",
   "referenced_type" : "_ZTINSt3__114__shared_countE",
   "self_type" : "_ZTIKNSt3__114__shared_countE",
   "size" : 16,
   "source_file" : "external/libcxx/include/memory"
  },
  {
   "alignment" : 4,
   "is_const" : true,
   "linker_set_key" : "_ZTIKNSt3__114pointer_safetyE",
   "name" : "const std::pointer_safety",
   "referenced_type" : "_ZTINSt3__114pointer_safetyE",
   "self_type" : "_ZTIKNSt3__114pointer_safetyE",
   "size" : 4,
   "source_file" : "external/libcxx/include/memory"
  },
  {
   "alignment" : 1,
   "is_const" : true,
   "linker_set_key" : "_ZTIKNSt3__115allocator_arg_tE",
   "name" : "const std::allocator_arg_t",
   "referenced_type" : "_ZTINSt3__115allocator_arg_tE",
   "self_type" : "_ZTIKNSt3__115allocator_arg_tE",
   "size" : 1,
   "source_file" : "external/libcxx/include/__functional_base"
  },
  {
   "alignment" : 4,
   "is_const" : true,
   "linker_set_key" : "_ZTIKNSt3__117float_round_styleE",
   "name" : "const std::float_round_style",
   "referenced_type" : "_ZTINSt3__117float_round_styleE",
   "self_type" : "_ZTIKNSt3__117float_round_styleE",
   "size" : 4,
   "source_file" : "external/libcxx/include/limits"
  },
  {
   "alignment" : 8,
   "is_const" : true,
   "linker_set_key" : "_ZTIKNSt3__118__libcpp_refstringE",
   "name" : "const std::__libcpp_refstring",
   "referenced_type" : "_ZTINSt3__118__libcpp_refstringE",
   "self_type" : "_ZTIKNSt3__118__libcpp_refstringE",
   "size" : 8,
   "source_file" : "external/libcxx/include/stdexcept"
  },
  {
   "alignment" : 4,
   "is_const" : true,
   "linker_set_key" : "_ZTIKNSt3__118float_denorm_styleE",
   "name" : "const std::float_denorm_style",
   "referenced_type" : "_ZTINSt3__118float_denorm_styleE",
   "self_type" : "_ZTIKNSt3__118float_denorm_styleE",
   "size" : 4,
   "source_file" : "external/libcxx/include/limits"
  },
  {
   "alignment" : 8,
   "is_const" : true,
   "linker_set_key" : "_ZTIKNSt3__119__libcpp_debug_infoE",
   "name" : "const std::__libcpp_debug_info",
   "referenced_type" : "_ZTINSt3__119__libcpp_debug_infoE",
   "self_type" : "_ZTIKNSt3__119__libcpp_debug_infoE",
   "size" : 32,
   "source_file" : "external/libcxx/include/__debug"
  },
  {
   "alignment" : 8,
   "is_const" : true,
   "linker_set_key" : "_ZTIKNSt3__119__shared_weak_countE",
   "name" : "const std::__shared_weak_count",
   "referenced_type" : "_ZTINSt3__119__shared_weak_countE",
   "self_type" : "_ZTIKNSt3__119__shared_weak_countE",
   "size" : 24,
   "source_file" : "external/libcxx/include/memory"
  },
  {
   "alignment" : 1,
   "is_const" : true,
   "linker_set_key" : "_ZTIKNSt3__121piecewise_construct_tE",
   "name" : "const std::piecewise_construct_t",
   "referenced_type" : "_ZTINSt3__121piecewise_construct_tE",
   "self_type" : "_ZTIKNSt3__121piecewise_construct_tE",
   "size" : 1,
   "source_file" : "external/libcxx/include/utility"
  },
  {
   "alignment" : 1,
   "is_const" : true,
   "linker_set_key" : "_ZTIKNSt3__14hashIDiEE",
   "name" : "const std::hash<char32_t>",
   "referenced_type" : "_ZTINSt3__14hashIDiEE",
   "self_type" : "_ZTIKNSt3__14hashIDiEE",
   "size" : 1,
   "source_file" : "external/libcxx/include/utility"
  },
  {
   "alignment" : 1,
   "is_const" : true,
   "linker_set_key" : "_ZTIKNSt3__14hashIDsEE",
   "name" : "const std::hash<char16_t>",
   "referenced_type" : "_ZTINSt3__14hashIDsEE",
   "self_type" : "_ZTIKNSt3__14hashIDsEE",
   "size" : 1,
   "source_file" : "external/libcxx/include/utility"
  },
  {
   "alignment" : 1,
   "is_const" : true,
   "linker_set_key" : "_ZTIKNSt3__14hashIaEE",
   "name" : "const std::hash<signed char>",
   "referenced_type" : "_ZTINSt3__14hashIaEE",
   "self_type" : "_ZTIKNSt3__14hashIaEE",
   "size" : 1,
   "source_file" : "external/libcxx/include/utility"
  },
  {
   "alignment" : 1,
   "is_const" : true,
   "linker_set_key" : "_ZTIKNSt3__14hashIbEE",
   "name" : "const std::hash<bool>",
   "referenced_type" : "_ZTINSt3__14hashIbEE",
   "self_type" : "_ZTIKNSt3__14hashIbEE",
   "size" : 1,
   "source_file" : "external/libcxx/include/utility"
  },
  {
   "alignment" : 1,
   "is_const" : true,
   "linker_set_key" : "_ZTIKNSt3__14hashIcEE",
   "name" : "const std::hash<char>",
   "referenced_type" : "_ZTINSt3__14hashIcEE",
   "self_type" : "_ZTIKNSt3__14hashIcEE",
   "size" : 1,
   "source_file" : "external/libcxx/include/utility"
  },
  {
   "alignment" : 1,
   "is_const" : true,
   "linker_set_key" : "_ZTIKNSt3__14hashIdEE",
   "name" : "const std::hash<double>",
   "referenced_type" : "_ZTINSt3__14hashIdEE",
   "self_type" : "_ZTIKNSt3__14hashIdEE",
   "size" : 1,
   "source_file" : "external/libcxx/include/utility"
  },
  {
   "alignment" : 1,
   "is_const" : true,
   "linker_set_key" : "_ZTIKNSt3__14hashIeEE",
   "name" : "const std::hash<long double>",
   "referenced_type" : "_ZTINSt3__14hashIeEE",
   "self_type" : "_ZTIKNSt3__14hashIeEE",
   "size" : 1,
   "source_file" : "external/libcxx/include/utility"
  },
  {
   "alignment" : 1,
   "is_const" : true,
   "linker_set_key" : "_ZTIKNSt3__14hashIfEE",
   "name" : "const std::hash<float>",
   "referenced_type" : "_ZTINSt3__14hashIfEE",
   "self_type" : "_ZTIKNSt3__14hashIfEE",
   "size" : 1,
   "source_file" : "external/libcxx/include/utility"
  },
  {
   "alignment" : 1,
   "is_const" : true,
   "linker_set_key" : "_ZTIKNSt3__14hashIhEE",
   "name" : "const std::hash<unsigned char>",
   "referenced_type" : "_ZTINSt3__14hashIhEE",
   "self_type" : "_ZTIKNSt3__14hashIhEE",
   "size" : 1,
   "source_file" : "external/libcxx/include/utility"
  },
  {
   "alignment" : 1,
   "is_const" : true,
   "linker_set_key" : "_ZTIKNSt3__14hashIiEE",
   "name" : "const std::hash<int>",
   "referenced_type" : "_ZTINSt3__14hashIiEE",
   "self_type" : "_ZTIKNSt3__14hashIiEE",
   "size" : 1,
   "source_file" : "external/libcxx/include/utility"
  },
  {
   "alignment" : 1,
   "is_const" : true,
   "linker_set_key" : "_ZTIKNSt3__14hashIjEE",
   "name" : "const std::hash<unsigned int>",
   "referenced_type" : "_ZTINSt3__14hashIjEE",
   "self_type" : "_ZTIKNSt3__14hashIjEE",
   "size" : 1,
   "source_file" : "external/libcxx/include/utility"
  },
  {
   "alignment" : 1,
   "is_const" : true,
   "linker_set_key" : "_ZTIKNSt3__14hashIlEE",
   "name" : "const std::hash<long>",
   "referenced_type" : "_ZTINSt3__14hashIlEE",
   "self_type" : "_ZTIKNSt3__14hashIlEE",
   "size" : 1,
   "source_file" : "external/libcxx/include/utility"
  },
  {
   "alignment" : 1,
   "is_const" : true,
   "linker_set_key" : "_ZTIKNSt3__14hashImEE",
   "name" : "const std::hash<unsigned long>",
   "referenced_type" : "_ZTINSt3__14hashImEE",
   "self_type" : "_ZTIKNSt3__14hashImEE",
   "size" : 1,
   "source_file" : "external/libcxx/include/utility"
  },
  {
   "alignment" : 1,
   "is_const" : true,
   "linker_set_key" : "_ZTIKNSt3__14hashIsEE",
   "name" : "const std::hash<short>",
   "referenced_type" : "_ZTINSt3__14hashIsEE",
   "self_type" : "_ZTIKNSt3__14hashIsEE",
   "size" : 1,
   "source_file" : "external/libcxx/include/utility"
  },
  {
   "alignment" : 1,
   "is_const" : true,
   "linker_set_key" : "_ZTIKNSt3__14hashItEE",
   "name" : "const std::hash<unsigned short>",
   "referenced_type" : "_ZTINSt3__14hashItEE",
   "self_type" : "_ZTIKNSt3__14hashItEE",
   "size" : 1,
   "source_file" : "external/libcxx/include/utility"
  },
  {
   "alignment" : 1,
   "is_const" : true,
   "linker_set_key" : "_ZTIKNSt3__14hashIwEE",
   "name" : "const std::hash<wchar_t>",
   "referenced_type" : "_ZTINSt3__14hashIwEE",
   "self_type" : "_ZTIKNSt3__14hashIwEE",
   "size" : 1,
   "source_file" : "external/libcxx/include/utility"
  },
  {
   "alignment" : 8,
   "is_const" : true,
   "linker_set_key" : "_ZTIKNSt3__14pairImmEE",
   "name" : "const std::pair<unsigned long, unsigned long>",
   "referenced_type" : "_ZTINSt3__14pairImmEE",
   "self_type" : "_ZTIKNSt3__14pairImmEE",
   "size" : 16,
   "source_file" : "external/libcxx/include/utility"
  },
  {
   "alignment" : 8,
   "is_const" : true,
   "linker_set_key" : "_ZTIKSt13exception_ptr",
   "name" : "const std::exception_ptr",
   "referenced_type" : "_ZTISt13exception_ptr",
   "self_type" : "_ZTIKSt13exception_ptr",
   "size" : 8,
   "source_file" : "external/libcxx/include/exception"
  },
  {
   "alignment" : 8,
   "is_const" : true,
   "linker_set_key" : "_ZTIKSt16nested_exception",
   "name" : "const std::nested_exception",
   "referenced_type" : "_ZTISt16nested_exception",
   "self_type" : "_ZTIKSt16nested_exception",
   "size" : 16,
   "source_file" : "external/libcxx/include/exception"
  },
  {
   "alignment" : 1,
   "is_const" : true,
   "linker_set_key" : "_ZTIKSt9nothrow_t",
   "name" : "const std::nothrow_t",
   "referenced_type" : "_ZTISt9nothrow_t",
   "self_type" : "_ZTIKSt9nothrow_t",
   "size" : 1,
   "source_file" : "external/libcxx/include/new"
  },
  {
   "alignment" : 8,
   "is_const" : true,
   "linker_set_key" : "_ZTIKSt9type_info",
   "name" : "const std::type_info",
   "referenced_type" : "_ZTISt9type_info",
   "self_type" : "_ZTIKSt9type_info",
   "size" : 16,
   "source_file" : "external/libcxx/include/typeinfo"
  },
  {
   "alignment" : 1,
   "is_const" : true,
   "linker_set_key" : "_ZTIKb",
   "name" : "const bool",
   "referenced_type" : "_ZTIb",
   "self_type" : "_ZTIKb",
   "size" : 1,
   "source_file" : "external/libcxx/include/type_traits"
  },
  {
   "alignment" : 1,
   "is_const" : true,
   "linker_set_key" : "_ZTIKc",
   "name" : "const char",
   "referenced_type" : "_ZTIc",
   "self_type" : "_ZTIKc",
   "size" : 1,
   "source_file" : "external/libcxx/include/typeinfo"
  },
  {
   "alignment" : 4,
   "is_const" : true,
   "linker_set_key" : "_ZTIKi",
   "name" : "const int",
   "referenced_type" : "_ZTIi",
   "self_type" : "_ZTIKi",
   "size" : 4,
   "source_file" : "external/libcxx/include/type_traits"
  },
  {
   "alignment" : 8,
   "is_const" : true,
   "linker_set_key" : "_ZTIKl",
   "name" : "const long",
   "referenced_type" : "_ZTIl",
   "self_type" : "_ZTIKl",
   "size" : 8,
   "source_file" : "external/libcxx/include/memory"
  },
  {
   "alignment" : 8,
   "is_const" : true,
   "linker_set_key" : "_ZTIKm",
   "name" : "const unsigned long",
   "referenced_type" : "_ZTIm",
   "self_type" : "_ZTIKm",
   "size" : 8,
   "source_file" : "external/libcxx/include/utility"
  },
  {
   "is_const" : true,
   "linker_set_key" : "_ZTIKv",
   "name" : "const void",
   "referenced_type" : "_ZTIv",
   "self_type" : "_ZTIKv",
   "source_file" : "external/libcxx/include/string.h"
  },
  {
   "alignment" : 4,
   "is_const" : true,
   "linker_set_key" : "_ZTIKw",
   "name" : "const wchar_t",
   "referenced_type" : "_ZTIw",
   "self_type" : "_ZTIKw",
   "size" : 4,
   "source_file" : "external/libcxx/include/wchar.h"
  },
  {
   "alignment" : 1,
   "is_volatile" : true,
   "linker_set_key" : "_ZTIVNSt3__111atomic_flagE",
   "name" : "volatile std::atomic_flag",
   "referenced_type" : "_ZTINSt3__111atomic_flagE",
   "self_type" : "_ZTIVNSt3__111atomic_flagE",
   "size" : 1,
   "source_file" : "external/libcxx/include/atomic"
  }
 ],
 "record_types" :
 [
  {
   "alignment" : 1,
   "linker_set_key" : "_ZTINSt3__110__get_pairILm0EEE",
   "name" : "std::__get_pair<0>",
   "referenced_type" : "_ZTINSt3__110__get_pairILm0EEE",
   "self_type" : "_ZTINSt3__110__get_pairILm0EEE",
   "size" : 1,
   "source_file" : "external/libcxx/include/utility"
  },
  {
   "alignment" : 1,
   "linker_set_key" : "_ZTINSt3__110__get_pairILm1EEE",
   "name" : "std::__get_pair<1>",
   "referenced_type" : "_ZTINSt3__110__get_pairILm1EEE",
   "self_type" : "_ZTINSt3__110__get_pairILm1EEE",
   "size" : 1,
   "source_file" : "external/libcxx/include/utility"
  },
  {
   "alignment" : 1,
   "linker_set_key" : "_ZTINSt3__110__ignore_tIhEE",
   "name" : "std::__ignore_t<unsigned char>",
   "referenced_type" : "_ZTINSt3__110__ignore_tIhEE",
   "self_type" : "_ZTINSt3__110__ignore_tIhEE",
   "size" : 1,
   "source_file" : "external/libcxx/include/tuple",
   "template_args" : [ "_ZTIh" ]
  },
  {
   "alignment" : 1,
   "base_specifiers" :
   [
    {
     "referenced_type" : "_ZTINSt3__117integral_constantImLm2EEE"
    }
   ],
   "linker_set_key" : "_ZTINSt3__110tuple_sizeINS_4pairImmEEEE",
   "name" : "std::tuple_size<std::pair<unsigned long, unsigned long>>",
   "referenced_type" : "_ZTINSt3__110tuple_sizeINS_4pairImmEEEE",
   "self_type" : "_ZTINSt3__110tuple_sizeINS_4pairImmEEEE",
   "size" : 1,
   "source_file" : "external/libcxx/include/utility",
   "template_args" : [ "_ZTINSt3__14pairImmEE" ]
  },
  {
   "alignment" : 1,
   "linker_set_key" : "_ZTINSt3__111__add_constImLb0EEE",
   "name" : "std::__add_const<unsigned long, false>",
   "referenced_type" : "_ZTINSt3__111__add_constImLb0EEE",
   "self_type" : "_ZTINSt3__111__add_constImLb0EEE",
   "size" : 1,
   "source_file" : "external/libcxx/include/type_traits",
   "template_args" : [ "_ZTIm" ]
  },
  {
   "alignment" : 8,
   "fields" :
   [
    {
     "access" : "private",
     "field_name" : "__cbeg_",
     "referenced_type" : "_ZTIPPNSt3__18__c_nodeE"
    },
    {
     "access" : "private",
     "field_name" : "__cend_",
     "field_offset" : 64,
     "referenced_type" : "_ZTIPPNSt3__18__c_nodeE"
    },
    {
     "access" : "private",
     "field_name" : "__csz_",
     "field_offset" : 128,
     "referenced_type" : "_ZTIm"
    },
    {
     "access" : "private",
     "field_name" : "__ibeg_",
     "field_offset" : 192,
     "referenced_type" : "_ZTIPPNSt3__18__i_nodeE"
    },
    {
     "access" : "private",
     "field_name" : "__iend_",
     "field_offset" : 256,
     "referenced_type" : "_ZTIPPNSt3__18__i_nodeE"
    },
    {
     "access" : "private",
     "field_name" : "__isz_",
     "field_offset" : 320,
     "referenced_type" : "_ZTIm"
    }
   ],
   "linker_set_key" : "_ZTINSt3__111__libcpp_dbE",
   "name" : "std::__libcpp_db",
   "record_kind" : "class",
   "referenced_type" : "_ZTINSt3__111__libcpp_dbE",
   "self_type" : "_ZTINSt3__111__libcpp_dbE",
   "size" : 48,
   "source_file" : "external/libcxx/include/__debug"
  },
  {
   "alignment" : 1,
   "linker_set_key" : "_ZTINSt3__111__type_listIaNS0_IsNS0_IiNS0_IlNS0_IxNS0_InNS_5__natEEEEEEEEEEEEE",
   "name" : "std::__type_list<signed char, std::__type_list<short, std::__type_list<int, std::__type_list<long, std::__type_list<long long, std::__type_list<__int128, std::__nat>>>>>>",
   "referenced_type" : "_ZTINSt3__111__type_listIaNS0_IsNS0_IiNS0_IlNS0_IxNS0_InNS_5__natEEEEEEEEEEEEE",
   "self_type" : "_ZTINSt3__111__type_listIaNS0_IsNS0_IiNS0_IlNS0_IxNS0_InNS_5__natEEEEEEEEEEEEE",
   "size" : 1,
   "source_file" : "external/libcxx/include/type_traits",
   "template_args" :
   [
    "_ZTIa",
    "_ZTINSt3__111__type_listIsNS0_IiNS0_IlNS0_IxNS0_InNS_5__natEEEEEEEEEEE"
   ]
  },
  {
   "alignment" : 1,
   "linker_set_key" : "_ZTINSt3__111__type_listIhNS0_ItNS0_IjNS0_ImNS0_IyNS0_IoNS_5__natEEEEEEEEEEEEE",
   "name" : "std::__type_list<unsigned char, std::__type_list<unsigned short, std::__type_list<unsigned int, std::__type_list<unsigned long, std::__type_list<unsigned long long, std::__type_list<unsigned __int128, std::__nat>>>>>>",
   "referenced_type" : "_ZTINSt3__111__type_listIhNS0_ItNS0_IjNS0_ImNS0_IyNS0_IoNS_5__natEEEEEEEEEEEEE",
   "self_type" : "_ZTINSt3__111__type_listIhNS0_ItNS0_IjNS0_ImNS0_IyNS0_IoNS_5__natEEEEEEEEEEEEE",
   "size" : 1,
   "source_file" : "external/libcxx/include/type_traits",
   "template_args" :
   [
    "_ZTIh",
    "_ZTINSt3__111__type_listItNS0_IjNS0_ImNS0_IyNS0_IoNS_5__natEEEEEEEEEEE"
   ]
  },
  {
   "alignment" : 1,
   "linker_set_key" : "_ZTINSt3__111add_pointerINS_4pairImmEEEE",
   "name" : "std::add_pointer<std::pair<unsigned long, unsigned long>>",
   "referenced_type" : "_ZTINSt3__111add_pointerINS_4pairImmEEEE",
   "self_type" : "_ZTINSt3__111add_pointerINS_4pairImmEEEE",
   "size" : 1,
   "source_file" : "external/libcxx/include/type_traits",
   "template_args" : [ "_ZTINSt3__14pairImmEE" ]
  },
  {
   "alignment" : 1,
   "fields" :
   [
    {
     "field_name" : "__a_",
     "referenced_type" : "_ZTIU7_Atomicb"
    }
   ],
   "linker_set_key" : "_ZTINSt3__111atomic_flagE",
   "name" : "std::atomic_flag",
   "referenced_type" : "_ZTINSt3__111atomic_flagE",
   "self_type" : "_ZTINSt3__111atomic_flagE",
   "size" : 1,
   "source_file" : "external/libcxx/include/atomic"
  },
  {
   "alignment" : 1,
   "linker_set_key" : "_ZTINSt3__111conditionalILb0ENS_4pairImmE26_CheckTupleLikeConstructorENS_30__check_tuple_constructor_failEEE",
   "name" : "std::conditional<false, std::pair<unsigned long, unsigned long>::_CheckTupleLikeConstructor, std::__check_tuple_constructor_fail>",
   "referenced_type" : "_ZTINSt3__111conditionalILb0ENS_4pairImmE26_CheckTupleLikeConstructorENS_30__check_tuple_constructor_failEEE",
   "self_type" : "_ZTINSt3__111conditionalILb0ENS_4pairImmE26_CheckTupleLikeConstructorENS_30__check_tuple_constructor_failEEE",
   "size" : 1,
   "source_file" : "external/libcxx/include/type_traits",
   "template_args" :
   [
    "_ZTINSt3__14pairImmE26_CheckTupleLikeConstructorE",
    "_ZTINSt3__130__check_tuple_constructor_failE"
   ]
  },
  {
   "alignment" : 1,
   "linker_set_key" : "_ZTINSt3__111conditionalILb0EPNS_4pairImmEES2_EE",
   "name" : "std::conditional<false, std::pair<unsigned long, unsigned long> *, std::pair<unsigned long, unsigned long>>",
   "referenced_type" : "_ZTINSt3__111conditionalILb0EPNS_4pairImmEES2_EE",
   "self_type" : "_ZTINSt3__111conditionalILb0EPNS_4pairImmEES2_EE",
   "size" : 1,
   "source_file" : "external/libcxx/include/type_traits",
   "template_args" : [ "_ZTIPNSt3__14pairImmEE", "_ZTINSt3__14pairImmEE" ]
  },
  {
   "alignment" : 1,
   "linker_set_key" : "_ZTINSt3__111conditionalILb1ENS_4pairImmE10_CheckArgsENS_30__check_tuple_constructor_failEEE",
   "name" : "std::conditional<true, std::pair<unsigned long, unsigned long>::_CheckArgs, std::__check_tuple_constructor_fail>",
   "referenced_type" : "_ZTINSt3__111conditionalILb1ENS_4pairImmE10_CheckArgsENS_30__check_tuple_constructor_failEEE",
   "self_type" : "_ZTINSt3__111conditionalILb1ENS_4pairImmE10_CheckArgsENS_30__check_tuple_constructor_failEEE",
   "size" : 1,
   "source_file" : "external/libcxx/include/type_traits",
   "template_args" :
   [
    "_ZTINSt3__14pairImmE10_CheckArgsE",
    "_ZTINSt3__130__check_tuple_constructor_failE"
   ]
  },
  {
   "alignment" : 1,
   "linker_set_key" : "_ZTINSt3__111conditionalILb1ENS_4pairImmEENS_5__natEEE",
   "name" : "std::conditional<true, std::pair<unsigned long, unsigned long>, std::__nat>",
   "referenced_type" : "_ZTINSt3__111conditionalILb1ENS_4pairImmEENS_5__natEEE",
   "self_type" : "_ZTINSt3__111conditionalILb1ENS_4pairImmEENS_5__natEEE",
   "size" : 1,
   "source_file" : "external/libcxx/include/type_traits",
   "template_args" : [ "_ZTINSt3__14pairImmEE", "_ZTINSt3__15__natE" ]
  },
  {
   "alignment" : 1,
   "base_specifiers" :
   [
    {
     "referenced_type" : "_ZTINSt3__117integral_constantIbLb0EEE"
    }
   ],
   "linker_set_key" : "_ZTINSt3__111is_abstractImEE",
   "name" : "std::is_abstract<unsigned long>",
   "referenced_type" : "_ZTINSt3__111is_abstractImEE",
   "self_type" : "_ZTINSt3__111is_abstractImEE",
   "size" : 1,
   "source_file" : "external/libcxx/include/type_traits",
   "template_args" : [ "_ZTIm" ]
  },
  {
   "alignment" : 1,
   "base_specifiers" :
   [
    {
     "referenced_type" : "_ZTINSt3__120__libcpp_is_functionINS_4pairImmEELb1EEE"
    }
   ],
   "linker_set_key" : "_ZTINSt3__111is_functionINS_4pairImmEEEE",
   "name" : "std::is_function<std::pair<unsigned long, unsigned long>>",
   "referenced_type" : "_ZTINSt3__111is_functionINS_4pairImmEEEE",
   "self_type" : "_ZTINSt3__111is_functionINS_4pairImmEEEE",
   "size" : 1,
   "source_file" : "external/libcxx/include/type_traits",
   "template_args" : [ "_ZTINSt3__14pairImmEE" ]
  },
  {
   "alignment" : 1,
   "base_specifiers" :
   [
    {
     "referenced_type" : "_ZTINSt3__120__libcpp_is_functionImLb0EEE"
    }
   ],
   "linker_set_key" : "_ZTINSt3__111is_functionImEE",
   "name" : "std::is_function<unsigned long>",
   "referenced_type" : "_ZTINSt3__111is_functionImEE",
   "self_type" : "_ZTINSt3__111is_functionImEE",
   "size" : 1,
   "source_file" : "external/libcxx/include/type_traits",
   "template_args" : [ "_ZTIm" ]
  },
  {
   "alignment" : 8,
   "fields" :
   [
    {
     "access" : "private",
     "field_name" : "__size_",
     "referenced_type" : "_ZTIm"
    }
   ],
   "linker_set_key" : "_ZTINSt3__112__destruct_nE",
   "name" : "std::__destruct_n",
   "referenced_type" : "_ZTINSt3__112__destruct_nE",
   "self_type" : "_ZTINSt3__112__destruct_nE",
   "size" : 8,
   "source_file" : "external/libcxx/include/memory"
  },
  {
   "alignment" : 1,
   "linker_set_key" : "_ZTINSt3__112__second_tagE",
   "name" : "std::__second_tag",
   "referenced_type" : "_ZTINSt3__112__second_tagE",
   "self_type" : "_ZTINSt3__112__second_tagE",
   "size" : 1,
   "source_file" : "external/libcxx/include/memory"
  },
  {
   "alignment" : 1,
   "linker_set_key" : "_ZTINSt3__112__select_2ndIRmNS_17integral_constantIbLb1EEEEE",
   "name" : "std::__select_2nd<unsigned long &, std::integral_constant<bool, true>>",
   "referenced_type" : "_ZTINSt3__112__select_2ndIRmNS_17integral_constantIbLb1EEEEE",
   "self_type" : "_ZTINSt3__112__select_2ndIRmNS_17integral_constantIbLb1EEEEE",
   "size" : 1,
   "source_file" : "external/libcxx/include/type_traits",
   "template_args" : [ "_ZTIRm", "_ZTINSt3__117integral_constantIbLb1EEE" ]
  },
  {
   "alignment" : 1,
   "linker_set_key" : "_ZTINSt3__112__tuple_lessILm0EEE",
   "name" : "std::__tuple_less<0>",
   "referenced_type" : "_ZTINSt3__112__tuple_lessILm0EEE",
   "self_type" : "_ZTINSt3__112__tuple_lessILm0EEE",
   "size" : 1,
   "source_file" : "external/libcxx/include/tuple"
  },
  {
   "alignment" : 1,
   "base_specifiers" :
   [
    {
     "referenced_type" : "_ZTINSt3__117integral_constantIbLb1EEE"
    }
   ],
   "linker_set_key" : "_ZTINSt3__112__tuple_likeINS_4pairImmEEEE",
   "name" : "std::__tuple_like<std::pair<unsigned long, unsigned long>>",
   "referenced_type" : "_ZTINSt3__112__tuple_likeINS_4pairImmEEEE",
   "self_type" : "_ZTINSt3__112__tuple_likeINS_4pairImmEEEE",
   "size" : 1,
   "source_file" : "external/libcxx/include/__tuple",
   "template_args" : [ "_ZTINSt3__14pairImmEE" ]
  },
  {
   "alignment" : 8,
   "base_specifiers" :
   [
    {
     "referenced_type" : "_ZTISt9exception"
    }
   ],
   "linker_set_key" : "_ZTINSt3__112bad_weak_ptrE",
   "name" : "std::bad_weak_ptr",
   "record_kind" : "class",
   "referenced_type" : "_ZTINSt3__112bad_weak_ptrE",
   "self_type" : "_ZTINSt3__112bad_weak_ptrE",
   "size" : 8,
   "source_file" : "external/libcxx/include/memory",
   "vtable_components" :
   [
    {
     "kind" : "offset_to_top"
    },
    {
     "kind" : "rtti",
     "mangled_component_name" : "_ZTINSt3__112bad_weak_ptrE"
    },
    {
     "kind" : "complete_dtor_pointer",
     "mangled_component_name" : "_ZNSt3__112bad_weak_ptrD1Ev"
    },
    {
     "kind" : "deleting_dtor_pointer",
     "mangled_component_name" : "_ZNSt3__112bad_weak_ptrD0Ev"
    },
    {
     "mangled_component_name" : "_ZNKSt3__112bad_weak_ptr4whatEv"
    }
   ]
  },
  {
   "alignment" : 1,
   "base_specifiers" :
   [
    {
     "referenced_type" : "_ZTINSt3__117integral_constantIbLb0EEE"
    }
   ],
   "linker_set_key" : "_ZTINSt3__112is_referenceINS_4pairImmEEEE",
   "name" : "std::is_reference<std::pair<unsigned long, unsigned long>>",
   "referenced_type" : "_ZTINSt3__112is_referenceINS_4pairImmEEEE",
   "self_type" : "_ZTINSt3__112is_referenceINS_4pairImmEEEE",
   "size" : 1,
   "source_file" : "external/libcxx/include/type_traits",
   "template_args" : [ "_ZTINSt3__14pairImmEE" ]
  },
  {
   "alignment" : 1,
   "base_specifiers" :
   [
    {
     "referenced_type" : "_ZTINSt3__117integral_constantIbLb0EEE"
    }
   ],
   "linker_set_key" : "_ZTINSt3__112is_referenceImEE",
   "name" : "std::is_reference<unsigned long>",
   "referenced_type" : "_ZTINSt3__112is_referenceImEE",
   "self_type" : "_ZTINSt3__112is_referenceImEE",
   "size" : 1,
   "source_file" : "external/libcxx/include/type_traits",
   "template_args" : [ "_ZTIm" ]
  },
  {
   "alignment" : 1,
   "linker_set_key" : "_ZTINSt3__112remove_constINS_4pairImmEEEE",
   "name" : "std::remove_const<std::pair<unsigned long, unsigned long>>",
   "referenced_type" : "_ZTINSt3__112remove_constINS_4pairImmEEEE",
   "self_type" : "_ZTINSt3__112remove_constINS_4pairImmEEEE",
   "size" : 1,
   "source_file" : "external/libcxx/include/type_traits",
   "template_args" : [ "_ZTINSt3__14pairImmEE" ]
  },
  {
   "alignment" : 1,
   "linker_set_key" : "_ZTINSt3__112remove_constIOmEE",
   "name" : "std::remove_const<unsigned long &&>",
   "referenced_type" : "_ZTINSt3__112remove_constIOmEE",
   "self_type" : "_ZTINSt3__112remove_constIOmEE",
   "size" : 1,
   "source_file" : "external/libcxx/include/type_traits",
   "template_args" : [ "_ZTIOm" ]
  },
  {
   "alignment" : 1,
   "linker_set_key" : "_ZTINSt3__112remove_constIRKmEE",
   "name" : "std::remove_const<const unsigned long &>",
   "referenced_type" : "_ZTINSt3__112remove_constIRKmEE",
   "self_type" : "_ZTINSt3__112remove_constIRKmEE",
   "size" : 1,
   "source_file" : "external/libcxx/include/type_traits",
   "template_args" : [ "_ZTIRKm" ]
  },
  {
   "alignment" : 1,
   "linker_set_key" : "_ZTINSt3__112remove_constIRmEE",
   "name" : "std::remove_const<unsigned long &>",
   "referenced_type" : "_ZTINSt3__112remove_constIRmEE",
   "self_type" : "_ZTINSt3__112remove_constIRmEE",
   "size" : 1,
   "source_file" : "external/libcxx/include/type_traits",
   "template_args" : [ "_ZTIRm" ]
  },
  {
   "alignment" : 1,
   "linker_set_key" : "_ZTINSt3__112remove_constImEE",
   "name" : "std::remove_const<unsigned long>",
   "referenced_type" : "_ZTINSt3__112remove_constImEE",
   "self_type" : "_ZTINSt3__112remove_constImEE",
   "size" : 1,
   "source_file" : "external/libcxx/include/type_traits",
   "template_args" : [ "_ZTIm" ]
  },
  {
   "alignment" : 1,
   "linker_set_key" : "_ZTINSt3__113__apply_cv_mfILb0ELb0ELb0EEE",
   "name" : "std::__apply_cv_mf<false, false, false>",
   "referenced_type" : "_ZTINSt3__113__apply_cv_mfILb0ELb0ELb0EEE",
   "self_type" : "_ZTINSt3__113__apply_cv_mfILb0ELb0ELb0EEE",
   "size" : 1,
   "source_file" : "external/libcxx/include/__tuple"
  },
  {
   "alignment" : 1,
   "linker_set_key" : "_ZTINSt3__113__apply_cv_mfILb0ELb0ELb1EEE",
   "name" : "std::__apply_cv_mf<false, false, true>",
   "referenced_type" : "_ZTINSt3__113__apply_cv_mfILb0ELb0ELb1EEE",
   "self_type" : "_ZTINSt3__113__apply_cv_mfILb0ELb0ELb1EEE",
   "size" : 1,
   "source_file" : "external/libcxx/include/__tuple"
  },
  {
   "alignment" : 1,
   "linker_set_key" : "_ZTINSt3__113__apply_cv_mfILb0ELb1ELb0EEE",
   "name" : "std::__apply_cv_mf<false, true, false>",
   "referenced_type" : "_ZTINSt3__113__apply_cv_mfILb0ELb1ELb0EEE",
   "self_type" : "_ZTINSt3__113__apply_cv_mfILb0ELb1ELb0EEE",
   "size" : 1,
   "source_file" : "external/libcxx/include/__tuple"
  },
  {
   "alignment" : 1,
   "linker_set_key" : "_ZTINSt3__113__apply_cv_mfILb0ELb1ELb1EEE",
   "name" : "std::__apply_cv_mf<false, true, true>",
   "referenced_type" : "_ZTINSt3__113__apply_cv_mfILb0ELb1ELb1EEE",
   "self_type" : "_ZTINSt3__113__apply_cv_mfILb0ELb1ELb1EEE",
   "size" : 1,
   "source_file" : "external/libcxx/include/__tuple"
  },
  {
   "alignment" : 1,
   "linker_set_key" : "_ZTINSt3__113__apply_cv_mfILb1ELb0ELb0EEE",
   "name" : "std::__apply_cv_mf<true, false, false>",
   "referenced_type" : "_ZTINSt3__113__apply_cv_mfILb1ELb0ELb0EEE",
   "self_type" : "_ZTINSt3__113__apply_cv_mfILb1ELb0ELb0EEE",
   "size" : 1,
   "source_file" : "external/libcxx/include/__tuple"
  },
  {
   "alignment" : 1,
   "linker_set_key" : "_ZTINSt3__113__apply_cv_mfILb1ELb0ELb1EEE",
   "name" : "std::__apply_cv_mf<true, false, true>",
   "referenced_type" : "_ZTINSt3__113__apply_cv_mfILb1ELb0ELb1EEE",
   "self_type" : "_ZTINSt3__113__apply_cv_mfILb1ELb0ELb1EEE",
   "size" : 1,
   "source_file" : "external/libcxx/include/__tuple"
  },
  {
   "alignment" : 1,
   "linker_set_key" : "_ZTINSt3__113__apply_cv_mfILb1ELb1ELb0EEE",
   "name" : "std::__apply_cv_mf<true, true, false>",
   "referenced_type" : "_ZTINSt3__113__apply_cv_mfILb1ELb1ELb0EEE",
   "self_type" : "_ZTINSt3__113__apply_cv_mfILb1ELb1ELb0EEE",
   "size" : 1,
   "source_file" : "external/libcxx/include/__tuple"
  },
  {
   "alignment" : 1,
   "linker_set_key" : "_ZTINSt3__113__apply_cv_mfILb1ELb1ELb1EEE",
   "name" : "std::__apply_cv_mf<true, true, true>",
   "referenced_type" : "_ZTINSt3__113__apply_cv_mfILb1ELb1ELb1EEE",
   "self_type" : "_ZTINSt3__113__apply_cv_mfILb1ELb1ELb1EEE",
   "size" : 1,
   "source_file" : "external/libcxx/include/__tuple"
  },
  {
   "alignment" : 1,
   "linker_set_key" : "_ZTINSt3__113__make_signedIbLb1EEE",
   "name" : "std::__make_signed<bool, true>",
   "referenced_type" : "_ZTINSt3__113__make_signedIbLb1EEE",
   "self_type" : "_ZTINSt3__113__make_signedIbLb1EEE",
   "size" : 1,
   "source_file" : "external/libcxx/include/type_traits",
   "template_args" : [ "_ZTIb" ]
  },
  {
   "alignment" : 1,
   "linker_set_key" : "_ZTINSt3__113__make_signedIiLb1EEE",
   "name" : "std::__make_signed<int, true>",
   "referenced_type" : "_ZTINSt3__113__make_signedIiLb1EEE",
   "self_type" : "_ZTINSt3__113__make_signedIiLb1EEE",
   "size" : 1,
   "source_file" : "external/libcxx/include/type_traits",
   "template_args" : [ "_ZTIi" ]
  },
  {
   "alignment" : 1,
   "linker_set_key" : "_ZTINSt3__113__make_signedIjLb1EEE",
   "name" : "std::__make_signed<unsigned int, true>",
   "referenced_type" : "_ZTINSt3__113__make_signedIjLb1EEE",
   "self_type" : "_ZTINSt3__113__make_signedIjLb1EEE",
   "size" : 1,
   "source_file" : "external/libcxx/include/type_traits",
   "template_args" : [ "_ZTIj" ]
  },
  {
   "alignment" : 1,
   "linker_set_key" : "_ZTINSt3__113__make_signedIlLb1EEE",
   "name" : "std::__make_signed<long, true>",
   "referenced_type" : "_ZTINSt3__113__make_signedIlLb1EEE",
   "self_type" : "_ZTINSt3__113__make_signedIlLb1EEE",
   "size" : 1,
   "source_file" : "external/libcxx/include/type_traits",
   "template_args" : [ "_ZTIl" ]
  },
  {
   "alignment" : 1,
   "linker_set_key" : "_ZTINSt3__113__make_signedImLb1EEE",
   "name" : "std::__make_signed<unsigned long, true>",
   "referenced_type" : "_ZTINSt3__113__make_signedImLb1EEE",
   "self_type" : "_ZTINSt3__113__make_signedImLb1EEE",
   "size" : 1,
   "source_file" : "external/libcxx/include/type_traits",
   "template_args" : [ "_ZTIm" ]
  },
  {
   "alignment" : 1,
   "linker_set_key" : "_ZTINSt3__113__make_signedInLb1EEE",
   "name" : "std::__make_signed<__int128_t, true>",
   "referenced_type" : "_ZTINSt3__113__make_signedInLb1EEE",
   "self_type" : "_ZTINSt3__113__make_signedInLb1EEE",
   "size" : 1,
   "source_file" : "external/libcxx/include/type_traits",
   "template_args" : [ "_ZTIn" ]
  },
  {
   "alignment" : 1,
   "linker_set_key" : "_ZTINSt3__113__make_signedIoLb1EEE",
   "name" : "std::__make_signed<__uint128_t, true>",
   "referenced_type" : "_ZTINSt3__113__make_signedIoLb1EEE",
   "self_type" : "_ZTINSt3__113__make_signedIoLb1EEE",
   "size" : 1,
   "source_file" : "external/libcxx/include/type_traits",
   "template_args" : [ "_ZTIo" ]
  },
  {
   "alignment" : 1,
   "linker_set_key" : "_ZTINSt3__113__make_signedIsLb1EEE",
   "name" : "std::__make_signed<short, true>",
   "referenced_type" : "_ZTINSt3__113__make_signedIsLb1EEE",
   "self_type" : "_ZTINSt3__113__make_signedIsLb1EEE",
   "size" : 1,
   "source_file" : "external/libcxx/include/type_traits",
   "template_args" : [ "_ZTIs" ]
  },
  {
   "alignment" : 1,
   "linker_set_key" : "_ZTINSt3__113__make_signedItLb1EEE",
   "name" : "std::__make_signed<unsigned short, true>",
   "referenced_type" : "_ZTINSt3__113__make_signedItLb1EEE",
   "self_type" : "_ZTINSt3__113__make_signedItLb1EEE",
   "size" : 1,
   "source_file" : "external/libcxx/include/type_traits",
   "template_args" : [ "_ZTIt" ]
  },
  {
   "alignment" : 1,
   "linker_set_key" : "_ZTINSt3__113__make_signedIxLb1EEE",
   "name" : "std::__make_signed<long long, true>",
   "referenced_type" : "_ZTINSt3__113__make_signedIxLb1EEE",
   "self_type" : "_ZTINSt3__113__make_signedIxLb1EEE",
   "size" : 1,
   "source_file" : "external/libcxx/include/type_traits",
   "template_args" : [ "_ZTIx" ]
  },
  {
   "alignment" : 1,
   "linker_set_key" : "_ZTINSt3__113__make_signedIyLb1EEE",
   "name" : "std::__make_signed<unsigned long long, true>",
   "referenced_type" : "_ZTINSt3__113__make_signedIyLb1EEE",
   "self_type" : "_ZTINSt3__113__make_signedIyLb1EEE",
   "size" : 1,
   "source_file" : "external/libcxx/include/type_traits",
   "template_args" : [ "_ZTIy" ]
  },
  {
   "alignment" : 1,
   "base_specifiers" :
   [
    {
     "referenced_type" : "_ZTINSt3__114unary_functionINS_6_PairTEmEE"
    }
   ],
   "linker_set_key" : "_ZTINSt3__113__scalar_hashINS_6_PairTELm2EEE",
   "name" : "std::__scalar_hash<std::_PairT, 2>",
   "referenced_type" : "_ZTINSt3__113__scalar_hashINS_6_PairTELm2EEE",
   "self_type" : "_ZTINSt3__113__scalar_hashINS_6_PairTELm2EEE",
   "size" : 1,
   "source_file" : "external/libcxx/include/utility",
   "template_args" : [ "_ZTINSt3__16_PairTE" ]
  },
  {
   "alignment" : 1,
   "base_specifiers" :
   [
    {
     "referenced_type" : "_ZTINSt3__114unary_functionIdmEE"
    }
   ],
   "linker_set_key" : "_ZTINSt3__113__scalar_hashIdLm1EEE",
   "name" : "std::__scalar_hash<double, 1>",
   "referenced_type" : "_ZTINSt3__113__scalar_hashIdLm1EEE",
   "self_type" : "_ZTINSt3__113__scalar_hashIdLm1EEE",
   "size" : 1,
   "source_file" : "external/libcxx/include/utility",
   "template_args" : [ "_ZTId" ]
  },
  {
   "alignment" : 1,
   "base_specifiers" :
   [
    {
     "referenced_type" : "_ZTINSt3__114unary_functionIemEE"
    }
   ],
   "linker_set_key" : "_ZTINSt3__113__scalar_hashIeLm2EEE",
   "name" : "std::__scalar_hash<long double, 2>",
   "referenced_type" : "_ZTINSt3__113__scalar_hashIeLm2EEE",
   "self_type" : "_ZTINSt3__113__scalar_hashIeLm2EEE",
   "size" : 1,
   "source_file" : "external/libcxx/include/utility",
   "template_args" : [ "_ZTIe" ]
  },
  {
   "alignment" : 1,
   "base_specifiers" :
   [
    {
     "referenced_type" : "_ZTINSt3__114unary_functionIfmEE"
    }
   ],
   "linker_set_key" : "_ZTINSt3__113__scalar_hashIfLm0EEE",
   "name" : "std::__scalar_hash<float, 0>",
   "referenced_type" : "_ZTINSt3__113__scalar_hashIfLm0EEE",
   "self_type" : "_ZTINSt3__113__scalar_hashIfLm0EEE",
   "size" : 1,
   "source_file" : "external/libcxx/include/utility",
   "template_args" : [ "_ZTIf" ]
  },
  {
   "alignment" : 1,
   "base_specifiers" :
   [
    {
     "referenced_type" : "_ZTINSt3__114unary_functionInmEE"
    }
   ],
   "linker_set_key" : "_ZTINSt3__113__scalar_hashInLm2EEE",
   "name" : "std::__scalar_hash<__int128, 2>",
   "referenced_type" : "_ZTINSt3__113__scalar_hashInLm2EEE",
   "self_type" : "_ZTINSt3__113__scalar_hashInLm2EEE",
   "size" : 1,
   "source_file" : "external/libcxx/include/utility",
   "template_args" : [ "_ZTIn" ]
  },
  {
   "alignment" : 1,
   "base_specifiers" :
   [
    {
     "referenced_type" : "_ZTINSt3__114unary_functionIomEE"
    }
   ],
   "linker_set_key" : "_ZTINSt3__113__scalar_hashIoLm2EEE",
   "name" : "std::__scalar_hash<unsigned __int128, 2>",
   "referenced_type" : "_ZTINSt3__113__scalar_hashIoLm2EEE",
   "self_type" : "_ZTINSt3__113__scalar_hashIoLm2EEE",
   "size" : 1,
   "source_file" : "external/libcxx/include/utility",
   "template_args" : [ "_ZTIo" ]
  },
  {
   "alignment" : 1,
   "base_specifiers" :
   [
    {
     "referenced_type" : "_ZTINSt3__114unary_functionIxmEE"
    }
   ],
   "linker_set_key" : "_ZTINSt3__113__scalar_hashIxLm1EEE",
   "name" : "std::__scalar_hash<long long, 1>",
   "referenced_type" : "_ZTINSt3__113__scalar_hashIxLm1EEE",
   "self_type" : "_ZTINSt3__113__scalar_hashIxLm1EEE",
   "size" : 1,
   "source_file" : "external/libcxx/include/utility",
   "template_args" : [ "_ZTIx" ]
  },
  {
   "alignment" : 1,
   "base_specifiers" :
   [
    {
     "referenced_type" : "_ZTINSt3__114unary_functionIymEE"
    }
   ],
   "linker_set_key" : "_ZTINSt3__113__scalar_hashIyLm1EEE",
   "name" : "std::__scalar_hash<unsigned long long, 1>",
   "referenced_type" : "_ZTINSt3__113__scalar_hashIyLm1EEE",
   "self_type" : "_ZTINSt3__113__scalar_hashIyLm1EEE",
   "size" : 1,
   "source_file" : "external/libcxx/include/utility",
   "template_args" : [ "_ZTIy" ]
  },
  {
   "alignment" : 1,
   "linker_set_key" : "_ZTINSt3__113__tuple_equalILm0EEE",
   "name" : "std::__tuple_equal<0>",
   "referenced_type" : "_ZTINSt3__113__tuple_equalILm0EEE",
   "self_type" : "_ZTINSt3__113__tuple_equalILm0EEE",
   "size" : 1,
   "source_file" : "external/libcxx/include/tuple"
  },
  {
   "alignment" : 1,
   "linker_set_key" : "_ZTINSt3__113__tuple_typesIJEEE",
   "name" : "std::__tuple_types<>",
   "referenced_type" : "_ZTINSt3__113__tuple_typesIJEEE",
   "self_type" : "_ZTINSt3__113__tuple_typesIJEEE",
   "size" : 1,
   "source_file" : "external/libcxx/include/__tuple"
  },
  {
   "alignment" : 1,
   "base_specifiers" :
   [
    {
     "referenced_type" : "_ZTINSt3__119__is_assignable_impIRmOmLb0EEE"
    }
   ],
   "linker_set_key" : "_ZTINSt3__113is_assignableIRmOmEE",
   "name" : "std::is_assignable<unsigned long &, unsigned long &&>",
   "referenced_type" : "_ZTINSt3__113is_assignableIRmOmEE",
   "self_type" : "_ZTINSt3__113is_assignableIRmOmEE",
   "size" : 1,
   "source_file" : "external/libcxx/include/type_traits",
   "template_args" : [ "_ZTIRm", "_ZTIOm" ]
  },
  {
   "alignment" : 1,
   "base_specifiers" :
   [
    {
     "referenced_type" : "_ZTINSt3__119__is_assignable_impIRmRKmLb0EEE"
    }
   ],
   "linker_set_key" : "_ZTINSt3__113is_assignableIRmRKmEE",
   "name" : "std::is_assignable<unsigned long &, const unsigned long &>",
   "referenced_type" : "_ZTINSt3__113is_assignableIRmRKmEE",
   "self_type" : "_ZTINSt3__113is_assignableIRmRKmEE",
   "size" : 1,
   "source_file" : "external/libcxx/include/type_traits",
   "template_args" : [ "_ZTIRm", "_ZTIRKm" ]
  },
  {
   "alignment" : 1,
   "linker_set_key" : "_ZTINSt3__113remove_extentINS_4pairImmEEEE",
   "name" : "std::remove_extent<std::pair<unsigned long, unsigned long>>",
   "referenced_type" : "_ZTINSt3__113remove_extentINS_4pairImmEEEE",
   "self_type" : "_ZTINSt3__113remove_extentINS_4pairImmEEEE",
   "size" : 1,
   "source_file" : "external/libcxx/include/type_traits",
   "template_args" : [ "_ZTINSt3__14pairImmEE" ]
  },
  {
   "alignment" : 1,
   "linker_set_key" : "_ZTINSt3__114__is_construct5__natE",
   "name" : "std::__is_construct::__nat",
   "referenced_type" : "_ZTINSt3__114__is_construct5__natE",
   "self_type" : "_ZTINSt3__114__is_construct5__natE",
   "size" : 1,
   "source_file" : "external/libcxx/include/type_traits"
  },
  {
   "alignment" : 1,
   "base_specifiers" :
   [
    {
     "referenced_type" : "_ZTINSt3__119__is_nullptr_t_implINS_4pairImmEEEE"
    }
   ],
   "linker_set_key" : "_ZTINSt3__114__is_nullptr_tINS_4pairImmEEEE",
   "name" : "std::__is_nullptr_t<std::pair<unsigned long, unsigned long>>",
   "referenced_type" : "_ZTINSt3__114__is_nullptr_tINS_4pairImmEEEE",
   "self_type" : "_ZTINSt3__114__is_nullptr_tINS_4pairImmEEEE",
   "size" : 1,
   "source_file" : "external/libcxx/include/type_traits",
   "template_args" : [ "_ZTINSt3__14pairImmEE" ]
  },
  {
   "alignment" : 1,
   "base_specifiers" :
   [
    {
     "referenced_type" : "_ZTINSt3__119__is_nullptr_t_implImEE"
    }
   ],
   "linker_set_key" : "_ZTINSt3__114__is_nullptr_tImEE",
   "name" : "std::__is_nullptr_t<unsigned long>",
   "referenced_type" : "_ZTINSt3__114__is_nullptr_tImEE",
   "self_type" : "_ZTINSt3__114__is_nullptr_tImEE",
   "size" : 1,
   "source_file" : "external/libcxx/include/type_traits",
   "template_args" : [ "_ZTIm" ]
  },
  {
   "alignment" : 1,
   "base_specifiers" :
   [
    {
     "referenced_type" : "_ZTINSt3__117integral_constantIbLb0EEE"
    }
   ],
   "linker_set_key" : "_ZTINSt3__114__lazy_or_implILb0EJEEE",
   "name" : "std::__lazy_or_impl<false>",
   "referenced_type" : "_ZTINSt3__114__lazy_or_implILb0EJEEE",
   "self_type" : "_ZTINSt3__114__lazy_or_implILb0EJEEE",
   "size" : 1,
   "source_file" : "external/libcxx/include/type_traits"
  },
  {
   "alignment" : 1,
   "linker_set_key" : "_ZTINSt3__114__numeric_typeIvEE",
   "name" : "std::__numeric_type<void>",
   "referenced_type" : "_ZTINSt3__114__numeric_typeIvEE",
   "self_type" : "_ZTINSt3__114__numeric_typeIvEE",
   "size" : 1,
   "source_file" : "external/libcxx/include/type_traits",
   "template_args" : [ "_ZTIv" ]
  },
  {
   "alignment" : 8,
   "fields" :
   [
    {
     "access" : "protected",
     "field_name" : "__shared_owners_",
     "field_offset" : 64,
     "referenced_type" : "_ZTIl"
    }
   ],
   "linker_set_key" : "_ZTINSt3__114__shared_countE",
   "name" : "std::__shared_count",
   "record_kind" : "class",
   "referenced_type" : "_ZTINSt3__114__shared_countE",
   "self_type" : "_ZTINSt3__114__shared_countE",
   "size" : 16,
   "source_file" : "external/libcxx/include/memory",
   "vtable_components" :
   [
    {
     "kind" : "offset_to_top"
    },
    {
     "kind" : "rtti",
     "mangled_component_name" : "_ZTINSt3__114__shared_countE"
    },
    {
     "kind" : "complete_dtor_pointer",
     "mangled_component_name" : "_ZNSt3__114__shared_countD1Ev"
    },
    {
     "kind" : "deleting_dtor_pointer",
     "mangled_component_name" : "_ZNSt3__114__shared_countD0Ev"
    },
    {
     "is_pure" : true,
     "mangled_component_name" : "_ZNSt3__114__shared_count16__on_zero_sharedEv"
    }
   ]
  },
  {
   "alignment" : 1,
   "base_specifiers" :
   [
    {
     "referenced_type" : "_ZTINSt3__117integral_constantIbLb1EEE"
    }
   ],
   "linker_set_key" : "_ZTINSt3__114is_convertibleIRKmmEE",
   "name" : "std::is_convertible<const unsigned long &, unsigned long>",
   "referenced_type" : "_ZTINSt3__114is_convertibleIRKmmEE",
   "self_type" : "_ZTINSt3__114is_convertibleIRKmmEE",
   "size" : 1,
   "source_file" : "external/libcxx/include/type_traits",
   "template_args" : [ "_ZTIRKm", "_ZTIm" ]
  },
  {
   "alignment" : 1,
   "base_specifiers" :
   [
    {
     "referenced_type" : "_ZTINSt3__117integral_constantIbLb1EEE"
    }
   ],
   "linker_set_key" : "_ZTINSt3__114is_convertibleImmEE",
   "name" : "std::is_convertible<unsigned long, unsigned long>",
   "referenced_type" : "_ZTINSt3__114is_convertibleImmEE",
   "self_type" : "_ZTINSt3__114is_convertibleImmEE",
   "size" : 1,
   "source_file" : "external/libcxx/include/type_traits",
   "template_args" : [ "_ZTIm", "_ZTIm" ]
  },
  {
   "alignment" : 4,
   "fields" :
   [
    {
     "field_name" : "__v_",
     "referenced_type" : "_ZTINSt3__114pointer_safety4__lxE"
    }
   ],
   "linker_set_key" : "_ZTINSt3__114pointer_safetyE",
   "name" : "std::pointer_safety",
   "referenced_type" : "_ZTINSt3__114pointer_safetyE",
   "self_type" : "_ZTINSt3__114pointer_safetyE",
   "size" : 4,
   "source_file" : "external/libcxx/include/memory"
  },
  {
   "alignment" : 1,
   "linker_set_key" : "_ZTINSt3__114unary_functionIDimEE",
   "name" : "std::unary_function<char32_t, unsigned long>",
   "referenced_type" : "_ZTINSt3__114unary_functionIDimEE",
   "self_type" : "_ZTINSt3__114unary_functionIDimEE",
   "size" : 1,
   "source_file" : "external/libcxx/include/utility",
   "template_args" : [ "_ZTIDi", "_ZTIm" ]
  },
  {
   "alignment" : 1,
   "linker_set_key" : "_ZTINSt3__114unary_functionIDsmEE",
   "name" : "std::unary_function<char16_t, unsigned long>",
   "referenced_type" : "_ZTINSt3__114unary_functionIDsmEE",
   "self_type" : "_ZTINSt3__114unary_functionIDsmEE",
   "size" : 1,
   "source_file" : "external/libcxx/include/utility",
   "template_args" : [ "_ZTIDs", "_ZTIm" ]
  },
  {
   "alignment" : 1,
   "linker_set_key" : "_ZTINSt3__114unary_functionINS_6_PairTEmEE",
   "name" : "std::unary_function<std::_PairT, unsigned long>",
   "referenced_type" : "_ZTINSt3__114unary_functionINS_6_PairTEmEE",
   "self_type" : "_ZTINSt3__114unary_functionINS_6_PairTEmEE",
   "size" : 1,
   "source_file" : "external/libcxx/include/utility",
   "template_args" : [ "_ZTINSt3__16_PairTE", "_ZTIm" ]
  },
  {
   "alignment" : 1,
   "linker_set_key" : "_ZTINSt3__114unary_functionIamEE",
   "name" : "std::unary_function<signed char, unsigned long>",
   "referenced_type" : "_ZTINSt3__114unary_functionIamEE",
   "self_type" : "_ZTINSt3__114unary_functionIamEE",
   "size" : 1,
   "source_file" : "external/libcxx/include/utility",
   "template_args" : [ "_ZTIa", "_ZTIm" ]
  },
  {
   "alignment" : 1,
   "linker_set_key" : "_ZTINSt3__114unary_functionIbmEE",
   "name" : "std::unary_function<bool, unsigned long>",
   "referenced_type" : "_ZTINSt3__114unary_functionIbmEE",
   "self_type" : "_ZTINSt3__114unary_functionIbmEE",
   "size" : 1,
   "source_file" : "external/libcxx/include/utility",
   "template_args" : [ "_ZTIb", "_ZTIm" ]
  },
  {
   "alignment" : 1,
   "linker_set_key" : "_ZTINSt3__114unary_functionIcmEE",
   "name" : "std::unary_function<char, unsigned long>",
   "referenced_type" : "_ZTINSt3__114unary_functionIcmEE",
   "self_type" : "_ZTINSt3__114unary_functionIcmEE",
   "size" : 1,
   "source_file" : "external/libcxx/include/utility",
   "template_args" : [ "_ZTIc", "_ZTIm" ]
  },
  {
   "alignment" : 1,
   "linker_set_key" : "_ZTINSt3__114unary_functionIdmEE",
   "name" : "std::unary_function<double, unsigned long>",
   "referenced_type" : "_ZTINSt3__114unary_functionIdmEE",
   "self_type" : "_ZTINSt3__114unary_functionIdmEE",
   "size" : 1,
   "source_file" : "external/libcxx/include/utility",
   "template_args" : [ "_ZTId", "_ZTIm" ]
  },
  {
   "alignment" : 1,
   "linker_set_key" : "_ZTINSt3__114unary_functionIemEE",
   "name" : "std::unary_function<long double, unsigned long>",
   "referenced_type" : "_ZTINSt3__114unary_functionIemEE",
   "self_type" : "_ZTINSt3__114unary_functionIemEE",
   "size" : 1,
   "source_file" : "external/libcxx/include/utility",
   "template_args" : [ "_ZTIe", "_ZTIm" ]
  },
  {
   "alignment" : 1,
   "linker_set_key" : "_ZTINSt3__114unary_functionIfmEE",
   "name" : "std::unary_function<float, unsigned long>",
   "referenced_type" : "_ZTINSt3__114unary_functionIfmEE",
   "self_type" : "_ZTINSt3__114unary_functionIfmEE",
   "size" : 1,
   "source_file" : "external/libcxx/include/utility",
   "template_args" : [ "_ZTIf", "_ZTIm" ]
  },
  {
   "alignment" : 1,
   "linker_set_key" : "_ZTINSt3__114unary_functionIhmEE",
   "name" : "std::unary_function<unsigned char, unsigned long>",
   "referenced_type" : "_ZTINSt3__114unary_functionIhmEE",
   "self_type" : "_ZTINSt3__114unary_functionIhmEE",
   "size" : 1,
   "source_file" : "external/libcxx/include/utility",
   "template_args" : [ "_ZTIh", "_ZTIm" ]
  },
  {
   "alignment" : 1,
   "linker_set_key" : "_ZTINSt3__114unary_functionIimEE",
   "name" : "std::unary_function<int, unsigned long>",
   "referenced_type" : "_ZTINSt3__114unary_functionIimEE",
   "self_type" : "_ZTINSt3__114unary_functionIimEE",
   "size" : 1,
   "source_file" : "external/libcxx/include/utility",
   "template_args" : [ "_ZTIi", "_ZTIm" ]
  },
  {
   "alignment" : 1,
   "linker_set_key" : "_ZTINSt3__114unary_functionIjmEE",
   "name" : "std::unary_function<unsigned int, unsigned long>",
   "referenced_type" : "_ZTINSt3__114unary_functionIjmEE",
   "self_type" : "_ZTINSt3__114unary_functionIjmEE",
   "size" : 1,
   "source_file" : "external/libcxx/include/utility",
   "template_args" : [ "_ZTIj", "_ZTIm" ]
  },
  {
   "alignment" : 1,
   "linker_set_key" : "_ZTINSt3__114unary_functionIlmEE",
   "name" : "std::unary_function<long, unsigned long>",
   "referenced_type" : "_ZTINSt3__114unary_functionIlmEE",
   "self_type" : "_ZTINSt3__114unary_functionIlmEE",
   "size" : 1,
   "source_file" : "external/libcxx/include/utility",
   "template_args" : [ "_ZTIl", "_ZTIm" ]
  },
  {
   "alignment" : 1,
   "linker_set_key" : "_ZTINSt3__114unary_functionImmEE",
   "name" : "std::unary_function<unsigned long, unsigned long>",
   "referenced_type" : "_ZTINSt3__114unary_functionImmEE",
   "self_type" : "_ZTINSt3__114unary_functionImmEE",
   "size" : 1,
   "source_file" : "external/libcxx/include/utility",
   "template_args" : [ "_ZTIm", "_ZTIm" ]
  },
  {
   "alignment" : 1,
   "linker_set_key" : "_ZTINSt3__114unary_functionInmEE",
   "name" : "std::unary_function<__int128, unsigned long>",
   "referenced_type" : "_ZTINSt3__114unary_functionInmEE",
   "self_type" : "_ZTINSt3__114unary_functionInmEE",
   "size" : 1,
   "source_file" : "external/libcxx/include/utility",
   "template_args" : [ "_ZTIn", "_ZTIm" ]
  },
  {
   "alignment" : 1,
   "linker_set_key" : "_ZTINSt3__114unary_functionIomEE",
   "name" : "std::unary_function<unsigned __int128, unsigned long>",
   "referenced_type" : "_ZTINSt3__114unary_functionIomEE",
   "self_type" : "_ZTINSt3__114unary_functionIomEE",
   "size" : 1,
   "source_file" : "external/libcxx/include/utility",
   "template_args" : [ "_ZTIo", "_ZTIm" ]
  },
  {
   "alignment" : 1,
   "linker_set_key" : "_ZTINSt3__114unary_functionIsmEE",
   "name" : "std::unary_function<short, unsigned long>",
   "referenced_type" : "_ZTINSt3__114unary_functionIsmEE",
   "self_type" : "_ZTINSt3__114unary_functionIsmEE",
   "size" : 1,
   "source_file" : "external/libcxx/include/utility",
   "template_args" : [ "_ZTIs", "_ZTIm" ]
  },
  {
   "alignment" : 1,
   "linker_set_key" : "_ZTINSt3__114unary_functionItmEE",
   "name" : "std::unary_function<unsigned short, unsigned long>",
   "referenced_type" : "_ZTINSt3__114unary_functionItmEE",
   "self_type" : "_ZTINSt3__114unary_functionItmEE",
   "size" : 1,
   "source_file" : "external/libcxx/include/utility",
   "template_args" : [ "_ZTIt", "_ZTIm" ]
  },
  {
   "alignment" : 1,
   "linker_set_key" : "_ZTINSt3__114unary_functionIwmEE",
   "name" : "std::unary_function<wchar_t, unsigned long>",
   "referenced_type" : "_ZTINSt3__114unary_functionIwmEE",
   "self_type" : "_ZTINSt3__114unary_functionIwmEE",
   "size" : 1,
   "source_file" : "external/libcxx/include/utility",
   "template_args" : [ "_ZTIw", "_ZTIm" ]
  },
  {
   "alignment" : 1,
   "linker_set_key" : "_ZTINSt3__114unary_functionIxmEE",
   "name" : "std::unary_function<long long, unsigned long>",
   "referenced_type" : "_ZTINSt3__114unary_functionIxmEE",
   "self_type" : "_ZTINSt3__114unary_functionIxmEE",
   "size" : 1,
   "source_file" : "external/libcxx/include/utility",
   "template_args" : [ "_ZTIx", "_ZTIm" ]
  },
  {
   "alignment" : 1,
   "linker_set_key" : "_ZTINSt3__114unary_functionIymEE",
   "name" : "std::unary_function<unsigned long long, unsigned long>",
   "referenced_type" : "_ZTINSt3__114unary_functionIymEE",
   "self_type" : "_ZTINSt3__114unary_functionIymEE",
   "size" : 1,
   "source_file" : "external/libcxx/include/utility",
   "template_args" : [ "_ZTIy", "_ZTIm" ]
  },
  {
   "alignment" : 1,
   "base_specifiers" :
   [
    {
     "referenced_type" : "_ZTINSt3__117integral_constantIbLb1EEE"
    }
   ],
   "linker_set_key" : "_ZTINSt3__115__lazy_and_implILb1EJEEE",
   "name" : "std::__lazy_and_impl<true>",
   "referenced_type" : "_ZTINSt3__115__lazy_and_implILb1EJEEE",
   "self_type" : "_ZTINSt3__115__lazy_and_implILb1EJEEE",
   "size" : 1,
   "source_file" : "external/libcxx/include/type_traits"
  },
  {
   "alignment" : 1,
   "linker_set_key" : "_ZTINSt3__115__make_unsignedIbLb1EEE",
   "name" : "std::__make_unsigned<bool, true>",
   "referenced_type" : "_ZTINSt3__115__make_unsignedIbLb1EEE",
   "self_type" : "_ZTINSt3__115__make_unsignedIbLb1EEE",
   "size" : 1,
   "source_file" : "external/libcxx/include/type_traits",
   "template_args" : [ "_ZTIb" ]
  },
  {
   "alignment" : 1,
   "linker_set_key" : "_ZTINSt3__115__make_unsignedIiLb1EEE",
   "name" : "std::__make_unsigned<int, true>",
   "referenced_type" : "_ZTINSt3__115__make_unsignedIiLb1EEE",
   "self_type" : "_ZTINSt3__115__make_unsignedIiLb1EEE",
   "size" : 1,
   "source_file" : "external/libcxx/include/type_traits",
   "template_args" : [ "_ZTIi" ]
  },
  {
   "alignment" : 1,
   "linker_set_key" : "_ZTINSt3__115__make_unsignedIjLb1EEE",
   "name" : "std::__make_unsigned<unsigned int, true>",
   "referenced_type" : "_ZTINSt3__115__make_unsignedIjLb1EEE",
   "self_type" : "_ZTINSt3__115__make_unsignedIjLb1EEE",
   "size" : 1,
   "source_file" : "external/libcxx/include/type_traits",
   "template_args" : [ "_ZTIj" ]
  },
  {
   "alignment" : 1,
   "linker_set_key" : "_ZTINSt3__115__make_unsignedIlLb1EEE",
   "name" : "std::__make_unsigned<long, true>",
   "referenced_type" : "_ZTINSt3__115__make_unsignedIlLb1EEE",
   "self_type" : "_ZTINSt3__115__make_unsignedIlLb1EEE",
   "size" : 1,
   "source_file" : "external/libcxx/include/type_traits",
   "template_args" : [ "_ZTIl" ]
  },
  {
   "alignment" : 1,
   "linker_set_key" : "_ZTINSt3__115__make_unsignedImLb1EEE",
   "name" : "std::__make_unsigned<unsigned long, true>",
   "referenced_type" : "_ZTINSt3__115__make_unsignedImLb1EEE",
   "self_type" : "_ZTINSt3__115__make_unsignedImLb1EEE",
   "size" : 1,
   "source_file" : "external/libcxx/include/type_traits",
   "template_args" : [ "_ZTIm" ]
  },
  {
   "alignment" : 1,
   "linker_set_key" : "_ZTINSt3__115__make_unsignedInLb1EEE",
   "name" : "std::__make_unsigned<__int128_t, true>",
   "referenced_type" : "_ZTINSt3__115__make_unsignedInLb1EEE",
   "self_type" : "_ZTINSt3__115__make_unsignedInLb1EEE",
   "size" : 1,
   "source_file" : "external/libcxx/include/type_traits",
   "template_args" : [ "_ZTIn" ]
  },
  {
   "alignment" : 1,
   "linker_set_key" : "_ZTINSt3__115__make_unsignedIoLb1EEE",
   "name" : "std::__make_unsigned<__uint128_t, true>",
   "referenced_type" : "_ZTINSt3__115__make_unsignedIoLb1EEE",
   "self_type" : "_ZTINSt3__115__make_unsignedIoLb1EEE",
   "size" : 1,
   "source_file" : "external/libcxx/include/type_traits",
   "template_args" : [ "_ZTIo" ]
  },
  {
   "alignment" : 1,
   "linker_set_key" : "_ZTINSt3__115__make_unsignedIsLb1EEE",
   "name" : "std::__make_unsigned<short, true>",
   "referenced_type" : "_ZTINSt3__115__make_unsignedIsLb1EEE",
   "self_type" : "_ZTINSt3__115__make_unsignedIsLb1EEE",
   "size" : 1,
   "source_file" : "external/libcxx/include/type_traits",
   "template_args" : [ "_ZTIs" ]
  },
  {
   "alignment" : 1,
   "linker_set_key" : "_ZTINSt3__115__make_unsignedItLb1EEE",
   "name" : "std::__make_unsigned<unsigned short, true>",
   "referenced_type" : "_ZTINSt3__115__make_unsignedItLb1EEE",
   "self_type" : "_ZTINSt3__115__make_unsignedItLb1EEE",
   "size" : 1,
   "source_file" : "external/libcxx/include/type_traits",
   "template_args" : [ "_ZTIt" ]
  },
  {
   "alignment" : 1,
   "linker_set_key" : "_ZTINSt3__115__make_unsignedIxLb1EEE",
   "name" : "std::__make_unsigned<long long, true>",
   "referenced_type" : "_ZTINSt3__115__make_unsignedIxLb1EEE",
   "self_type" : "_ZTINSt3__115__make_unsignedIxLb1EEE",
   "size" : 1,
   "source_file" : "external/libcxx/include/type_traits",
   "template_args" : [ "_ZTIx" ]
  },
  {
   "alignment" : 1,
   "linker_set_key" : "_ZTINSt3__115__make_unsignedIyLb1EEE",
   "name" : "std::__make_unsigned<unsigned long long, true>",
   "referenced_type" : "_ZTINSt3__115__make_unsignedIyLb1EEE",
   "self_type" : "_ZTINSt3__115__make_unsignedIyLb1EEE",
   "size" : 1,
   "source_file" : "external/libcxx/include/type_traits",
   "template_args" : [ "_ZTIy" ]
  },
  {
   "alignment" : 16,
   "fields" :
   [
    {
     "field_name" : "__lx",
     "referenced_type" : "_ZTIe"
    }
   ],
   "linker_set_key" : "_ZTINSt3__115__struct_doubleE",
   "name" : "std::__struct_double",
   "referenced_type" : "_ZTINSt3__115__struct_doubleE",
   "self_type" : "_ZTINSt3__115__struct_doubleE",
   "size" : 16,
   "source_file" : "external/libcxx/include/type_traits"
  },
  {
   "alignment" : 1,
   "linker_set_key" : "_ZTINSt3__115__tuple_indicesIJEEE",
   "name" : "std::__tuple_indices<>",
   "referenced_type" : "_ZTINSt3__115__tuple_indicesIJEEE",
   "self_type" : "_ZTINSt3__115__tuple_indicesIJEEE",
   "size" : 1,
   "source_file" : "external/libcxx/include/__tuple"
  },
  {
   "alignment" : 1,
   "linker_set_key" : "_ZTINSt3__115allocator_arg_tE",
   "name" : "std::allocator_arg_t",
   "referenced_type" : "_ZTINSt3__115allocator_arg_tE",
   "self_type" : "_ZTINSt3__115allocator_arg_tE",
   "size" : 1,
   "source_file" : "external/libcxx/include/__functional_base"
  },
  {
   "alignment" : 1,
   "base_specifiers" :
   [
    {
     "referenced_type" : "_ZTINSt3__117integral_constantIbLb0EEE"
    }
   ],
   "linker_set_key" : "_ZTINSt3__115is_destructibleIvEE",
   "name" : "std::is_destructible<void>",
   "referenced_type" : "_ZTINSt3__115is_destructibleIvEE",
   "self_type" : "_ZTINSt3__115is_destructibleIvEE",
   "size" : 1,
   "source_file" : "external/libcxx/include/type_traits",
   "template_args" : [ "_ZTIv" ]
  },
  {
   "alignment" : 1,
   "linker_set_key" : "_ZTINSt3__115remove_volatileINS_4pairImmEEEE",
   "name" : "std::remove_volatile<std::pair<unsigned long, unsigned long>>",
   "referenced_type" : "_ZTINSt3__115remove_volatileINS_4pairImmEEEE",
   "self_type" : "_ZTINSt3__115remove_volatileINS_4pairImmEEEE",
   "size" : 1,
   "source_file" : "external/libcxx/include/type_traits",
   "template_args" : [ "_ZTINSt3__14pairImmEE" ]
  },
  {
   "alignment" : 1,
   "linker_set_key" : "_ZTINSt3__115remove_volatileIOmEE",
   "name" : "std::remove_volatile<unsigned long &&>",
   "referenced_type" : "_ZTINSt3__115remove_volatileIOmEE",
   "self_type" : "_ZTINSt3__115remove_volatileIOmEE",
   "size" : 1,
   "source_file" : "external/libcxx/include/type_traits",
   "template_args" : [ "_ZTIOm" ]
  },
  {
   "alignment" : 1,
   "linker_set_key" : "_ZTINSt3__115remove_volatileIRKmEE",
   "name" : "std::remove_volatile<const unsigned long &>",
   "referenced_type" : "_ZTINSt3__115remove_volatileIRKmEE",
   "self_type" : "_ZTINSt3__115remove_volatileIRKmEE",
   "size" : 1,
   "source_file" : "external/libcxx/include/type_traits",
   "template_args" : [ "_ZTIRKm" ]
  },
  {
   "alignment" : 1,
   "linker_set_key" : "_ZTINSt3__115remove_volatileIRmEE",
   "name" : "std::remove_volatile<unsigned long &>",
   "referenced_type" : "_ZTINSt3__115remove_volatileIRmEE",
   "self_type" : "_ZTINSt3__115remove_volatileIRmEE",
   "size" : 1,
   "source_file" : "external/libcxx/include/type_traits",
   "template_args" : [ "_ZTIRm" ]
  },
  {
   "alignment" : 1,
   "linker_set_key" : "_ZTINSt3__115remove_volatileImEE",
   "name" : "std::remove_volatile<unsigned long>",
   "referenced_type" : "_ZTINSt3__115remove_volatileImEE",
   "self_type" : "_ZTINSt3__115remove_volatileImEE",
   "size" : 1,
   "source_file" : "external/libcxx/include/type_traits",
   "template_args" : [ "_ZTIm" ]
  },
  {
   "alignment" : 1,
   "base_specifiers" :
   [
    {
     "referenced_type" : "_ZTINSt3__117integral_constantIbLb0EEE"
    }
   ],
   "linker_set_key" : "_ZTINSt3__116__libcpp_is_voidINS_4pairImmEEEE",
   "name" : "std::__libcpp_is_void<std::pair<unsigned long, unsigned long>>",
   "referenced_type" : "_ZTINSt3__116__libcpp_is_voidINS_4pairImmEEEE",
   "self_type" : "_ZTINSt3__116__libcpp_is_voidINS_4pairImmEEEE",
   "size" : 1,
   "source_file" : "external/libcxx/include/type_traits",
   "template_args" : [ "_ZTINSt3__14pairImmEE" ]
  },
  {
   "alignment" : 1,
   "base_specifiers" :
   [
    {
     "referenced_type" : "_ZTINSt3__117integral_constantIbLb0EEE"
    }
   ],
   "linker_set_key" : "_ZTINSt3__116__libcpp_is_voidIOmEE",
   "name" : "std::__libcpp_is_void<unsigned long &&>",
   "referenced_type" : "_ZTINSt3__116__libcpp_is_voidIOmEE",
   "self_type" : "_ZTINSt3__116__libcpp_is_voidIOmEE",
   "size" : 1,
   "source_file" : "external/libcxx/include/type_traits",
   "template_args" : [ "_ZTIOm" ]
  },
  {
   "alignment" : 1,
   "base_specifiers" :
   [
    {
     "referenced_type" : "_ZTINSt3__117integral_constantIbLb0EEE"
    }
   ],
   "linker_set_key" : "_ZTINSt3__116__libcpp_is_voidIRKmEE",
   "name" : "std::__libcpp_is_void<const unsigned long &>",
   "referenced_type" : "_ZTINSt3__116__libcpp_is_voidIRKmEE",
   "self_type" : "_ZTINSt3__116__libcpp_is_voidIRKmEE",
   "size" : 1,
   "source_file" : "external/libcxx/include/type_traits",
   "template_args" : [ "_ZTIRKm" ]
  },
  {
   "alignment" : 1,
   "base_specifiers" :
   [
    {
     "referenced_type" : "_ZTINSt3__117integral_constantIbLb0EEE"
    }
   ],
   "linker_set_key" : "_ZTINSt3__116__libcpp_is_voidIRmEE",
   "name" : "std::__libcpp_is_void<unsigned long &>",
   "referenced_type" : "_ZTINSt3__116__libcpp_is_voidIRmEE",
   "self_type" : "_ZTINSt3__116__libcpp_is_voidIRmEE",
   "size" : 1,
   "source_file" : "external/libcxx/include/type_traits",
   "template_args" : [ "_ZTIRm" ]
  },
  {
   "alignment" : 1,
   "base_specifiers" :
   [
    {
     "referenced_type" : "_ZTINSt3__117integral_constantIbLb0EEE"
    }
   ],
   "linker_set_key" : "_ZTINSt3__116__libcpp_is_voidImEE",
   "name" : "std::__libcpp_is_void<unsigned long>",
   "referenced_type" : "_ZTINSt3__116__libcpp_is_voidImEE",
   "self_type" : "_ZTINSt3__116__libcpp_is_voidImEE",
   "size" : 1,
   "source_file" : "external/libcxx/include/type_traits",
   "template_args" : [ "_ZTIm" ]
  },
  {
   "alignment" : 1,
   "base_specifiers" :
   [
    {
     "referenced_type" : "_ZTINSt3__117integral_constantIbLb1EEE"
    }
   ],
   "linker_set_key" : "_ZTINSt3__116__libcpp_is_voidIvEE",
   "name" : "std::__libcpp_is_void<void>",
   "referenced_type" : "_ZTINSt3__116__libcpp_is_voidIvEE",
   "self_type" : "_ZTINSt3__116__libcpp_is_voidIvEE",
   "size" : 1,
   "source_file" : "external/libcxx/include/type_traits",
   "template_args" : [ "_ZTIv" ]
  },
  {
   "alignment" : 8,
   "fields" :
   [
    {
     "field_name" : "__lx",
     "referenced_type" : "_ZTIA4_d"
    }
   ],
   "linker_set_key" : "_ZTINSt3__116__struct_double4E",
   "name" : "std::__struct_double4",
   "referenced_type" : "_ZTINSt3__116__struct_double4E",
   "self_type" : "_ZTINSt3__116__struct_double4E",
   "size" : 32,
   "source_file" : "external/libcxx/include/type_traits"
  },
  {
   "alignment" : 1,
   "base_specifiers" :
   [
    {
     "referenced_type" : "_ZTINSt3__117integral_constantIbLb1EEE"
    }
   ],
   "linker_set_key" : "_ZTINSt3__116is_constructibleImJOmEEE",
   "name" : "std::is_constructible<unsigned long, unsigned long &&>",
   "referenced_type" : "_ZTINSt3__116is_constructibleImJOmEEE",
   "self_type" : "_ZTINSt3__116is_constructibleImJOmEEE",
   "size" : 1,
   "source_file" : "external/libcxx/include/type_traits",
   "template_args" : [ "_ZTIm" ]
  },
  {
   "alignment" : 1,
   "base_specifiers" :
   [
    {
     "referenced_type" : "_ZTINSt3__117integral_constantIbLb1EEE"
    }
   ],
   "linker_set_key" : "_ZTINSt3__116is_constructibleImJRKmEEE",
   "name" : "std::is_constructible<unsigned long, const unsigned long &>",
   "referenced_type" : "_ZTINSt3__116is_constructibleImJRKmEEE",
   "self_type" : "_ZTINSt3__116is_constructibleImJRKmEEE",
   "size" : 1,
   "source_file" : "external/libcxx/include/type_traits",
   "template_args" : [ "_ZTIm" ]
  },
  {
   "alignment" : 1,
   "base_specifiers" :
   [
    {
     "referenced_type" : "_ZTINSt3__117integral_constantIbLb1EEE"
    }
   ],
   "linker_set_key" : "_ZTINSt3__116is_constructibleImJmEEE",
   "name" : "std::is_constructible<unsigned long, unsigned long>",
   "referenced_type" : "_ZTINSt3__116is_constructibleImJmEEE",
   "self_type" : "_ZTINSt3__116is_constructibleImJmEEE",
   "size" : 1,
   "source_file" : "external/libcxx/include/type_traits",
   "template_args" : [ "_ZTIm" ]
  },
  {
   "alignment" : 1,
   "linker_set_key" : "_ZTINSt3__116remove_referenceINS_4pairImmEEEE",
   "name" : "std::remove_reference<std::pair<unsigned long, unsigned long>>",
   "referenced_type" : "_ZTINSt3__116remove_referenceINS_4pairImmEEEE",
   "self_type" : "_ZTINSt3__116remove_referenceINS_4pairImmEEEE",
   "size" : 1,
   "source_file" : "external/libcxx/include/type_traits",
   "template_args" : [ "_ZTINSt3__14pairImmEE" ]
  },
  {
   "alignment" : 1,
   "linker_set_key" : "_ZTINSt3__116remove_referenceIRmEE",
   "name" : "std::remove_reference<unsigned long &>",
   "referenced_type" : "_ZTINSt3__116remove_referenceIRmEE",
   "self_type" : "_ZTINSt3__116remove_referenceIRmEE",
   "size" : 1,
   "source_file" : "external/libcxx/include/type_traits",
   "template_args" : [ "_ZTIRm" ]
  },
  {
   "alignment" : 1,
   "linker_set_key" : "_ZTINSt3__116remove_referenceImEE",
   "name" : "std::remove_reference<unsigned long>",
   "referenced_type" : "_ZTINSt3__116remove_referenceImEE",
   "self_type" : "_ZTINSt3__116remove_referenceImEE",
   "size" : 1,
   "source_file" : "external/libcxx/include/type_traits",
   "template_args" : [ "_ZTIm" ]
  },
  {
   "alignment" : 1,
   "linker_set_key" : "_ZTINSt3__117_DeallocateCallerE",
   "name" : "std::_DeallocateCaller",
   "referenced_type" : "_ZTINSt3__117_DeallocateCallerE",
   "self_type" : "_ZTINSt3__117_DeallocateCallerE",
   "size" : 1,
   "source_file" : "external/libcxx/include/new"
  },
  {
   "alignment" : 1,
   "linker_set_key" : "_ZTINSt3__117integral_constantIbLb0EEE",
   "name" : "std::integral_constant<bool, false>",
   "referenced_type" : "_ZTINSt3__117integral_constantIbLb0EEE",
   "self_type" : "_ZTINSt3__117integral_constantIbLb0EEE",
   "size" : 1,
   "source_file" : "external/libcxx/include/type_traits",
   "template_args" : [ "_ZTIb" ]
  },
  {
   "alignment" : 1,
   "linker_set_key" : "_ZTINSt3__117integral_constantIbLb1EEE",
   "name" : "std::integral_constant<bool, true>",
   "referenced_type" : "_ZTINSt3__117integral_constantIbLb1EEE",
   "self_type" : "_ZTINSt3__117integral_constantIbLb1EEE",
   "size" : 1,
   "source_file" : "external/libcxx/include/type_traits",
   "template_args" : [ "_ZTIb" ]
  },
  {
   "alignment" : 1,
   "linker_set_key" : "_ZTINSt3__117integral_constantIiLi0EEE",
   "name" : "std::integral_constant<int, 0>",
   "referenced_type" : "_ZTINSt3__117integral_constantIiLi0EEE",
   "self_type" : "_ZTINSt3__117integral_constantIiLi0EEE",
   "size" : 1,
   "source_file" : "external/libcxx/include/type_traits",
   "template_args" : [ "_ZTIi" ]
  },
  {
   "alignment" : 1,
   "linker_set_key" : "_ZTINSt3__117integral_constantIiLi1EEE",
   "name" : "std::integral_constant<int, 1>",
   "referenced_type" : "_ZTINSt3__117integral_constantIiLi1EEE",
   "self_type" : "_ZTINSt3__117integral_constantIiLi1EEE",
   "size" : 1,
   "source_file" : "external/libcxx/include/type_traits",
   "template_args" : [ "_ZTIi" ]
  },
  {
   "alignment" : 1,
   "linker_set_key" : "_ZTINSt3__117integral_constantIiLi2EEE",
   "name" : "std::integral_constant<int, 2>",
   "referenced_type" : "_ZTINSt3__117integral_constantIiLi2EEE",
   "self_type" : "_ZTINSt3__117integral_constantIiLi2EEE",
   "size" : 1,
   "source_file" : "external/libcxx/include/type_traits",
   "template_args" : [ "_ZTIi" ]
  },
  {
   "alignment" : 1,
   "linker_set_key" : "_ZTINSt3__117integral_constantImLm0EEE",
   "name" : "std::integral_constant<unsigned long, 0>",
   "referenced_type" : "_ZTINSt3__117integral_constantImLm0EEE",
   "self_type" : "_ZTINSt3__117integral_constantImLm0EEE",
   "size" : 1,
   "source_file" : "external/libcxx/include/type_traits",
   "template_args" : [ "_ZTIm" ]
  },
  {
   "alignment" : 1,
   "linker_set_key" : "_ZTINSt3__117integral_constantImLm2EEE",
   "name" : "std::integral_constant<unsigned long, 2>",
   "referenced_type" : "_ZTINSt3__117integral_constantImLm2EEE",
   "self_type" : "_ZTINSt3__117integral_constantImLm2EEE",
   "size" : 1,
   "source_file" : "external/libcxx/include/type_traits",
   "template_args" : [ "_ZTIm" ]
  },
  {
   "alignment" : 1,
   "linker_set_key" : "_ZTINSt3__118__add_pointer_implINS_4pairImmEELb1EEE",
   "name" : "std::__add_pointer_impl<std::pair<unsigned long, unsigned long>, true>",
   "referenced_type" : "_ZTINSt3__118__add_pointer_implINS_4pairImmEELb1EEE",
   "self_type" : "_ZTINSt3__118__add_pointer_implINS_4pairImmEELb1EEE",
   "size" : 1,
   "source_file" : "external/libcxx/include/type_traits",
   "template_args" : [ "_ZTINSt3__14pairImmEE" ]
  },
  {
   "alignment" : 1,
   "linker_set_key" : "_ZTINSt3__118__integer_sequenceImJEEE",
   "name" : "std::__integer_sequence<unsigned long>",
   "referenced_type" : "_ZTINSt3__118__integer_sequenceImJEEE",
   "self_type" : "_ZTINSt3__118__integer_sequenceImJEEE",
   "size" : 1,
   "source_file" : "external/libcxx/include/__tuple",
   "template_args" : [ "_ZTIm" ]
  },
  {
   "alignment" : 1,
   "base_specifiers" :
   [
    {
     "referenced_type" : "_ZTINSt3__117integral_constantIbLb1EEE"
    }
   ],
   "linker_set_key" : "_ZTINSt3__118__is_referenceableIKmEE",
   "name" : "std::__is_referenceable<const unsigned long>",
   "referenced_type" : "_ZTINSt3__118__is_referenceableIKmEE",
   "self_type" : "_ZTINSt3__118__is_referenceableIKmEE",
   "size" : 1,
   "source_file" : "external/libcxx/include/type_traits",
   "template_args" : [ "_ZTIKm" ]
  },
  {
   "alignment" : 1,
   "base_specifiers" :
   [
    {
     "referenced_type" : "_ZTINSt3__117integral_constantIbLb1EEE"
    }
   ],
   "linker_set_key" : "_ZTINSt3__118__is_referenceableINS_4pairImmEEEE",
   "name" : "std::__is_referenceable<std::pair<unsigned long, unsigned long>>",
   "referenced_type" : "_ZTINSt3__118__is_referenceableINS_4pairImmEEEE",
   "self_type" : "_ZTINSt3__118__is_referenceableINS_4pairImmEEEE",
   "size" : 1,
   "source_file" : "external/libcxx/include/type_traits",
   "template_args" : [ "_ZTINSt3__14pairImmEE" ]
  },
  {
   "alignment" : 1,
   "base_specifiers" :
   [
    {
     "referenced_type" : "_ZTINSt3__117integral_constantIbLb1EEE"
    }
   ],
   "linker_set_key" : "_ZTINSt3__118__is_referenceableImEE",
   "name" : "std::__is_referenceable<unsigned long>",
   "referenced_type" : "_ZTINSt3__118__is_referenceableImEE",
   "self_type" : "_ZTINSt3__118__is_referenceableImEE",
   "size" : 1,
   "source_file" : "external/libcxx/include/type_traits",
   "template_args" : [ "_ZTIm" ]
  },
  {
   "alignment" : 8,
   "fields" :
   [
    {
     "access" : "private",
     "field_name" : "__imp_",
     "referenced_type" : "_ZTIPKc"
    }
   ],
   "linker_set_key" : "_ZTINSt3__118__libcpp_refstringE",
   "name" : "std::__libcpp_refstring",
   "record_kind" : "class",
   "referenced_type" : "_ZTINSt3__118__libcpp_refstringE",
   "self_type" : "_ZTINSt3__118__libcpp_refstringE",
   "size" : 8,
   "source_file" : "external/libcxx/include/stdexcept"
  },
  {
   "alignment" : 1,
   "linker_set_key" : "_ZTINSt3__118__tuple_cat_returnIJEEE",
   "name" : "std::__tuple_cat_return<>",
   "referenced_type" : "_ZTINSt3__118__tuple_cat_returnIJEEE",
   "self_type" : "_ZTINSt3__118__tuple_cat_returnIJEEE",
   "size" : 1,
   "source_file" : "external/libcxx/include/tuple"
  },
  {
   "alignment" : 1,
   "linker_set_key" : "_ZTINSt3__118input_iterator_tagE",
   "name" : "std::input_iterator_tag",
   "referenced_type" : "_ZTINSt3__118input_iterator_tagE",
   "self_type" : "_ZTINSt3__118input_iterator_tagE",
   "size" : 1,
   "source_file" : "external/libcxx/include/iterator"
  },
  {
   "alignment" : 1,
   "base_specifiers" :
   [
    {
     "referenced_type" : "_ZTINSt3__113is_assignableIRmRKmEE"
    }
   ],
   "linker_set_key" : "_ZTINSt3__118is_copy_assignableImEE",
   "name" : "std::is_copy_assignable<unsigned long>",
   "referenced_type" : "_ZTINSt3__118is_copy_assignableImEE",
   "self_type" : "_ZTINSt3__118is_copy_assignableImEE",
   "size" : 1,
   "source_file" : "external/libcxx/include/type_traits",
   "template_args" : [ "_ZTIm" ]
  },
  {
   "alignment" : 1,
   "base_specifiers" :
   [
    {
     "referenced_type" : "_ZTINSt3__113is_assignableIRmOmEE"
    }
   ],
   "linker_set_key" : "_ZTINSt3__118is_move_assignableImEE",
   "name" : "std::is_move_assignable<unsigned long>",
   "referenced_type" : "_ZTINSt3__118is_move_assignableImEE",
   "self_type" : "_ZTINSt3__118is_move_assignableImEE",
   "size" : 1,
   "source_file" : "external/libcxx/include/type_traits",
   "template_args" : [ "_ZTIm" ]
  },
  {
   "alignment" : 1,
   "base_specifiers" :
   [
    {
     "referenced_type" : "_ZTINSt3__117integral_constantIbLb1EEE"
    }
   ],
   "linker_set_key" : "_ZTINSt3__119__is_assignable_impIRmOmLb0EEE",
   "name" : "std::__is_assignable_imp<unsigned long &, unsigned long &&, false>",
   "referenced_type" : "_ZTINSt3__119__is_assignable_impIRmOmLb0EEE",
   "self_type" : "_ZTINSt3__119__is_assignable_impIRmOmLb0EEE",
   "size" : 1,
   "source_file" : "external/libcxx/include/type_traits",
   "template_args" : [ "_ZTIRm", "_ZTIOm" ]
  },
  {
   "alignment" : 1,
   "base_specifiers" :
   [
    {
     "referenced_type" : "_ZTINSt3__117integral_constantIbLb1EEE"
    }
   ],
   "linker_set_key" : "_ZTINSt3__119__is_assignable_impIRmRKmLb0EEE",
   "name" : "std::__is_assignable_imp<unsigned long &, const unsigned long &, false>",
   "referenced_type" : "_ZTINSt3__119__is_assignable_impIRmRKmLb0EEE",
   "self_type" : "_ZTINSt3__119__is_assignable_impIRmRKmLb0EEE",
   "size" : 1,
   "source_file" : "external/libcxx/include/type_traits",
   "template_args" : [ "_ZTIRm", "_ZTIRKm" ]
  },
  {
   "alignment" : 1,
   "base_specifiers" :
   [
    {
     "referenced_type" : "_ZTINSt3__117integral_constantIbLb1EEE"
    }
   ],
   "linker_set_key" : "_ZTINSt3__119__is_nullptr_t_implIDnEE",
   "name" : "std::__is_nullptr_t_impl<nullptr_t>",
   "referenced_type" : "_ZTINSt3__119__is_nullptr_t_implIDnEE",
   "self_type" : "_ZTINSt3__119__is_nullptr_t_implIDnEE",
   "size" : 1,
   "source_file" : "external/libcxx/include/type_traits",
   "template_args" : [ "_ZTIDn" ]
  },
  {
   "alignment" : 1,
   "base_specifiers" :
   [
    {
     "referenced_type" : "_ZTINSt3__117integral_constantIbLb0EEE"
    }
   ],
   "linker_set_key" : "_ZTINSt3__119__is_nullptr_t_implINS_4pairImmEEEE",
   "name" : "std::__is_nullptr_t_impl<std::pair<unsigned long, unsigned long>>",
   "referenced_type" : "_ZTINSt3__119__is_nullptr_t_implINS_4pairImmEEEE",
   "self_type" : "_ZTINSt3__119__is_nullptr_t_implINS_4pairImmEEEE",
   "size" : 1,
   "source_file" : "external/libcxx/include/type_traits",
   "template_args" : [ "_ZTINSt3__14pairImmEE" ]
  },
  {
   "alignment" : 1,
   "base_specifiers" :
   [
    {
     "referenced_type" : "_ZTINSt3__117integral_constantIbLb0EEE"
    }
   ],
   "linker_set_key" : "_ZTINSt3__119__is_nullptr_t_implImEE",
   "name" : "std::__is_nullptr_t_impl<unsigned long>",
   "referenced_type" : "_ZTINSt3__119__is_nullptr_t_implImEE",
   "self_type" : "_ZTINSt3__119__is_nullptr_t_implImEE",
   "size" : 1,
   "source_file" : "external/libcxx/include/type_traits",
   "template_args" : [ "_ZTIm" ]
  },
  {
   "alignment" : 8,
   "fields" :
   [
    {
     "field_name" : "__file_",
     "referenced_type" : "_ZTIPKc"
    },
    {
     "field_name" : "__line_",
     "field_offset" : 64,
     "referenced_type" : "_ZTIi"
    },
    {
     "field_name" : "__pred_",
     "field_offset" : 128,
     "referenced_type" : "_ZTIPKc"
    },
    {
     "field_name" : "__msg_",
     "field_offset" : 192,
     "referenced_type" : "_ZTIPKc"
    }
   ],
   "linker_set_key" : "_ZTINSt3__119__libcpp_debug_infoE",
   "name" : "std::__libcpp_debug_info",
   "referenced_type" : "_ZTINSt3__119__libcpp_debug_infoE",
   "self_type" : "_ZTINSt3__119__libcpp_debug_infoE",
   "size" : 32,
   "source_file" : "external/libcxx/include/__debug"
  },
  {
   "alignment" : 8,
   "base_specifiers" :
   [
    {
     "access" : "private",
     "referenced_type" : "_ZTINSt3__114__shared_countE"
    }
   ],
   "fields" :
   [
    {
     "access" : "private",
     "field_name" : "__shared_weak_owners_",
     "field_offset" : 128,
     "referenced_type" : "_ZTIl"
    }
   ],
   "linker_set_key" : "_ZTINSt3__119__shared_weak_countE",
   "name" : "std::__shared_weak_count",
   "record_kind" : "class",
   "referenced_type" : "_ZTINSt3__119__shared_weak_countE",
   "self_type" : "_ZTINSt3__119__shared_weak_countE",
   "size" : 24,
   "source_file" : "external/libcxx/include/memory",
   "vtable_components" :
   [
    {
     "kind" : "offset_to_top"
    },
    {
     "kind" : "rtti",
     "mangled_component_name" : "_ZTINSt3__119__shared_weak_countE"
    },
    {
     "kind" : "complete_dtor_pointer",
     "mangled_component_name" : "_ZNSt3__119__shared_weak_countD1Ev"
    },
    {
     "kind" : "deleting_dtor_pointer",
     "mangled_component_name" : "_ZNSt3__119__shared_weak_countD0Ev"
    },
    {
     "is_pure" : true,
     "mangled_component_name" : "_ZNSt3__114__shared_count16__on_zero_sharedEv"
    },
    {
     "mangled_component_name" : "_ZNKSt3__119__shared_weak_count13__get_deleterERKSt9type_info"
    },
    {
     "is_pure" : true,
     "mangled_component_name" : "_ZNSt3__119__shared_weak_count21__on_zero_shared_weakEv"
    }
   ]
  },
  {
   "alignment" : 1,
   "linker_set_key" : "_ZTINSt3__119__tuple_sfinae_baseE",
   "name" : "std::__tuple_sfinae_base",
   "referenced_type" : "_ZTINSt3__119__tuple_sfinae_baseE",
   "self_type" : "_ZTINSt3__119__tuple_sfinae_baseE",
   "size" : 1,
   "source_file" : "external/libcxx/include/__tuple"
  },
  {
   "alignment" : 1,
   "linker_set_key" : "_ZTINSt3__119output_iterator_tagE",
   "name" : "std::output_iterator_tag",
   "referenced_type" : "_ZTINSt3__119output_iterator_tagE",
   "self_type" : "_ZTINSt3__119output_iterator_tagE",
   "size" : 1,
   "source_file" : "external/libcxx/include/iterator"
  },
  {
   "alignment" : 1,
   "base_specifiers" :
   [
    {
     "referenced_type" : "_ZTINSt3__117integral_constantIbLb0EEE"
    }
   ],
   "linker_set_key" : "_ZTINSt3__120__libcpp_is_functionINS_4pairImmEELb1EEE",
   "name" : "std::__libcpp_is_function<std::pair<unsigned long, unsigned long>, true>",
   "referenced_type" : "_ZTINSt3__120__libcpp_is_functionINS_4pairImmEELb1EEE",
   "self_type" : "_ZTINSt3__120__libcpp_is_functionINS_4pairImmEELb1EEE",
   "size" : 1,
   "source_file" : "external/libcxx/include/type_traits",
   "template_args" : [ "_ZTINSt3__14pairImmEE" ]
  },
  {
   "alignment" : 1,
   "base_specifiers" :
   [
    {
     "referenced_type" : "_ZTINSt3__117integral_constantIbLb0EEE"
    }
   ],
   "linker_set_key" : "_ZTINSt3__120__libcpp_is_functionImLb0EEE",
   "name" : "std::__libcpp_is_function<unsigned long, false>",
   "referenced_type" : "_ZTINSt3__120__libcpp_is_functionImLb0EEE",
   "self_type" : "_ZTINSt3__120__libcpp_is_functionImLb0EEE",
   "size" : 1,
   "source_file" : "external/libcxx/include/type_traits",
   "template_args" : [ "_ZTIm" ]
  },
  {
   "alignment" : 1,
   "base_specifiers" :
   [
    {
     "referenced_type" : "_ZTINSt3__117integral_constantIbLb1EEE"
    }
   ],
   "linker_set_key" : "_ZTINSt3__120__libcpp_is_integralIDiEE",
   "name" : "std::__libcpp_is_integral<char32_t>",
   "referenced_type" : "_ZTINSt3__120__libcpp_is_integralIDiEE",
   "self_type" : "_ZTINSt3__120__libcpp_is_integralIDiEE",
   "size" : 1,
   "source_file" : "external/libcxx/include/type_traits",
   "template_args" : [ "_ZTIDi" ]
  },
  {
   "alignment" : 1,
   "base_specifiers" :
   [
    {
     "referenced_type" : "_ZTINSt3__117integral_constantIbLb1EEE"
    }
   ],
   "linker_set_key" : "_ZTINSt3__120__libcpp_is_integralIDsEE",
   "name" : "std::__libcpp_is_integral<char16_t>",
   "referenced_type" : "_ZTINSt3__120__libcpp_is_integralIDsEE",
   "self_type" : "_ZTINSt3__120__libcpp_is_integralIDsEE",
   "size" : 1,
   "source_file" : "external/libcxx/include/type_traits",
   "template_args" : [ "_ZTIDs" ]
  },
  {
   "alignment" : 1,
   "base_specifiers" :
   [
    {
     "referenced_type" : "_ZTINSt3__117integral_constantIbLb1EEE"
    }
   ],
   "linker_set_key" : "_ZTINSt3__120__libcpp_is_integralIaEE",
   "name" : "std::__libcpp_is_integral<signed char>",
   "referenced_type" : "_ZTINSt3__120__libcpp_is_integralIaEE",
   "self_type" : "_ZTINSt3__120__libcpp_is_integralIaEE",
   "size" : 1,
   "source_file" : "external/libcxx/include/type_traits",
   "template_args" : [ "_ZTIa" ]
  },
  {
   "alignment" : 1,
   "base_specifiers" :
   [
    {
     "referenced_type" : "_ZTINSt3__117integral_constantIbLb1EEE"
    }
   ],
   "linker_set_key" : "_ZTINSt3__120__libcpp_is_integralIbEE",
   "name" : "std::__libcpp_is_integral<bool>",
   "referenced_type" : "_ZTINSt3__120__libcpp_is_integralIbEE",
   "self_type" : "_ZTINSt3__120__libcpp_is_integralIbEE",
   "size" : 1,
   "source_file" : "external/libcxx/include/type_traits",
   "template_args" : [ "_ZTIb" ]
  },
  {
   "alignment" : 1,
   "base_specifiers" :
   [
    {
     "referenced_type" : "_ZTINSt3__117integral_constantIbLb1EEE"
    }
   ],
   "linker_set_key" : "_ZTINSt3__120__libcpp_is_integralIcEE",
   "name" : "std::__libcpp_is_integral<char>",
   "referenced_type" : "_ZTINSt3__120__libcpp_is_integralIcEE",
   "self_type" : "_ZTINSt3__120__libcpp_is_integralIcEE",
   "size" : 1,
   "source_file" : "external/libcxx/include/type_traits",
   "template_args" : [ "_ZTIc" ]
  },
  {
   "alignment" : 1,
   "base_specifiers" :
   [
    {
     "referenced_type" : "_ZTINSt3__117integral_constantIbLb1EEE"
    }
   ],
   "linker_set_key" : "_ZTINSt3__120__libcpp_is_integralIhEE",
   "name" : "std::__libcpp_is_integral<unsigned char>",
   "referenced_type" : "_ZTINSt3__120__libcpp_is_integralIhEE",
   "self_type" : "_ZTINSt3__120__libcpp_is_integralIhEE",
   "size" : 1,
   "source_file" : "external/libcxx/include/type_traits",
   "template_args" : [ "_ZTIh" ]
  },
  {
   "alignment" : 1,
   "base_specifiers" :
   [
    {
     "referenced_type" : "_ZTINSt3__117integral_constantIbLb1EEE"
    }
   ],
   "linker_set_key" : "_ZTINSt3__120__libcpp_is_integralIiEE",
   "name" : "std::__libcpp_is_integral<int>",
   "referenced_type" : "_ZTINSt3__120__libcpp_is_integralIiEE",
   "self_type" : "_ZTINSt3__120__libcpp_is_integralIiEE",
   "size" : 1,
   "source_file" : "external/libcxx/include/type_traits",
   "template_args" : [ "_ZTIi" ]
  },
  {
   "alignment" : 1,
   "base_specifiers" :
   [
    {
     "referenced_type" : "_ZTINSt3__117integral_constantIbLb1EEE"
    }
   ],
   "linker_set_key" : "_ZTINSt3__120__libcpp_is_integralIjEE",
   "name" : "std::__libcpp_is_integral<unsigned int>",
   "referenced_type" : "_ZTINSt3__120__libcpp_is_integralIjEE",
   "self_type" : "_ZTINSt3__120__libcpp_is_integralIjEE",
   "size" : 1,
   "source_file" : "external/libcxx/include/type_traits",
   "template_args" : [ "_ZTIj" ]
  },
  {
   "alignment" : 1,
   "base_specifiers" :
   [
    {
     "referenced_type" : "_ZTINSt3__117integral_constantIbLb1EEE"
    }
   ],
   "linker_set_key" : "_ZTINSt3__120__libcpp_is_integralIlEE",
   "name" : "std::__libcpp_is_integral<long>",
   "referenced_type" : "_ZTINSt3__120__libcpp_is_integralIlEE",
   "self_type" : "_ZTINSt3__120__libcpp_is_integralIlEE",
   "size" : 1,
   "source_file" : "external/libcxx/include/type_traits",
   "template_args" : [ "_ZTIl" ]
  },
  {
   "alignment" : 1,
   "base_specifiers" :
   [
    {
     "referenced_type" : "_ZTINSt3__117integral_constantIbLb1EEE"
    }
   ],
   "linker_set_key" : "_ZTINSt3__120__libcpp_is_integralImEE",
   "name" : "std::__libcpp_is_integral<unsigned long>",
   "referenced_type" : "_ZTINSt3__120__libcpp_is_integralImEE",
   "self_type" : "_ZTINSt3__120__libcpp_is_integralImEE",
   "size" : 1,
   "source_file" : "external/libcxx/include/type_traits",
   "template_args" : [ "_ZTIm" ]
  },
  {
   "alignment" : 1,
   "base_specifiers" :
   [
    {
     "referenced_type" : "_ZTINSt3__117integral_constantIbLb1EEE"
    }
   ],
   "linker_set_key" : "_ZTINSt3__120__libcpp_is_integralInEE",
   "name" : "std::__libcpp_is_integral<__int128_t>",
   "referenced_type" : "_ZTINSt3__120__libcpp_is_integralInEE",
   "self_type" : "_ZTINSt3__120__libcpp_is_integralInEE",
   "size" : 1,
   "source_file" : "external/libcxx/include/type_traits",
   "template_args" : [ "_ZTIn" ]
  },
  {
   "alignment" : 1,
   "base_specifiers" :
   [
    {
     "referenced_type" : "_ZTINSt3__117integral_constantIbLb1EEE"
    }
   ],
   "linker_set_key" : "_ZTINSt3__120__libcpp_is_integralIoEE",
   "name" : "std::__libcpp_is_integral<__uint128_t>",
   "referenced_type" : "_ZTINSt3__120__libcpp_is_integralIoEE",
   "self_type" : "_ZTINSt3__120__libcpp_is_integralIoEE",
   "size" : 1,
   "source_file" : "external/libcxx/include/type_traits",
   "template_args" : [ "_ZTIo" ]
  },
  {
   "alignment" : 1,
   "base_specifiers" :
   [
    {
     "referenced_type" : "_ZTINSt3__117integral_constantIbLb1EEE"
    }
   ],
   "linker_set_key" : "_ZTINSt3__120__libcpp_is_integralIsEE",
   "name" : "std::__libcpp_is_integral<short>",
   "referenced_type" : "_ZTINSt3__120__libcpp_is_integralIsEE",
   "self_type" : "_ZTINSt3__120__libcpp_is_integralIsEE",
   "size" : 1,
   "source_file" : "external/libcxx/include/type_traits",
   "template_args" : [ "_ZTIs" ]
  },
  {
   "alignment" : 1,
   "base_specifiers" :
   [
    {
     "referenced_type" : "_ZTINSt3__117integral_constantIbLb1EEE"
    }
   ],
   "linker_set_key" : "_ZTINSt3__120__libcpp_is_integralItEE",
   "name" : "std::__libcpp_is_integral<unsigned short>",
   "referenced_type" : "_ZTINSt3__120__libcpp_is_integralItEE",
   "self_type" : "_ZTINSt3__120__libcpp_is_integralItEE",
   "size" : 1,
   "source_file" : "external/libcxx/include/type_traits",
   "template_args" : [ "_ZTIt" ]
  },
  {
   "alignment" : 1,
   "base_specifiers" :
   [
    {
     "referenced_type" : "_ZTINSt3__117integral_constantIbLb1EEE"
    }
   ],
   "linker_set_key" : "_ZTINSt3__120__libcpp_is_integralIwEE",
   "name" : "std::__libcpp_is_integral<wchar_t>",
   "referenced_type" : "_ZTINSt3__120__libcpp_is_integralIwEE",
   "self_type" : "_ZTINSt3__120__libcpp_is_integralIwEE",
   "size" : 1,
   "source_file" : "external/libcxx/include/type_traits",
   "template_args" : [ "_ZTIw" ]
  },
  {
   "alignment" : 1,
   "base_specifiers" :
   [
    {
     "referenced_type" : "_ZTINSt3__117integral_constantIbLb1EEE"
    }
   ],
   "linker_set_key" : "_ZTINSt3__120__libcpp_is_integralIxEE",
   "name" : "std::__libcpp_is_integral<long long>",
   "referenced_type" : "_ZTINSt3__120__libcpp_is_integralIxEE",
   "self_type" : "_ZTINSt3__120__libcpp_is_integralIxEE",
   "size" : 1,
   "source_file" : "external/libcxx/include/type_traits",
   "template_args" : [ "_ZTIx" ]
  },
  {
   "alignment" : 1,
   "base_specifiers" :
   [
    {
     "referenced_type" : "_ZTINSt3__117integral_constantIbLb1EEE"
    }
   ],
   "linker_set_key" : "_ZTINSt3__120__libcpp_is_integralIyEE",
   "name" : "std::__libcpp_is_integral<unsigned long long>",
   "referenced_type" : "_ZTINSt3__120__libcpp_is_integralIyEE",
   "self_type" : "_ZTINSt3__120__libcpp_is_integralIyEE",
   "size" : 1,
   "source_file" : "external/libcxx/include/type_traits",
   "template_args" : [ "_ZTIy" ]
  },
  {
   "alignment" : 1,
   "linker_set_key" : "_ZTINSt3__120__make_tuple_indicesILm0ELm0EEE",
   "name" : "std::__make_tuple_indices<0, 0>",
   "referenced_type" : "_ZTINSt3__120__make_tuple_indicesILm0ELm0EEE",
   "self_type" : "_ZTINSt3__120__make_tuple_indicesILm0ELm0EEE",
   "size" : 1,
   "source_file" : "external/libcxx/include/__tuple"
  },
  {
   "alignment" : 1,
   "linker_set_key" : "_ZTINSt3__120add_lvalue_referenceIKmEE",
   "name" : "std::add_lvalue_reference<const unsigned long>",
   "referenced_type" : "_ZTINSt3__120add_lvalue_referenceIKmEE",
   "self_type" : "_ZTINSt3__120add_lvalue_referenceIKmEE",
   "size" : 1,
   "source_file" : "external/libcxx/include/type_traits",
   "template_args" : [ "_ZTIKm" ]
  },
  {
   "alignment" : 1,
   "linker_set_key" : "_ZTINSt3__120add_lvalue_referenceImEE",
   "name" : "std::add_lvalue_reference<unsigned long>",
   "referenced_type" : "_ZTINSt3__120add_lvalue_referenceImEE",
   "self_type" : "_ZTINSt3__120add_lvalue_referenceImEE",
   "size" : 1,
   "source_file" : "external/libcxx/include/type_traits",
   "template_args" : [ "_ZTIm" ]
  },
  {
   "alignment" : 1,
   "linker_set_key" : "_ZTINSt3__120add_rvalue_referenceImEE",
   "name" : "std::add_rvalue_reference<unsigned long>",
   "referenced_type" : "_ZTINSt3__120add_rvalue_referenceImEE",
   "self_type" : "_ZTINSt3__120add_rvalue_referenceImEE",
   "size" : 1,
   "source_file" : "external/libcxx/include/type_traits",
   "template_args" : [ "_ZTIm" ]
  },
  {
   "alignment" : 1,
   "base_specifiers" :
   [
    {
     "referenced_type" : "_ZTINSt3__118input_iterator_tagE"
    }
   ],
   "linker_set_key" : "_ZTINSt3__120forward_iterator_tagE",
   "name" : "std::forward_iterator_tag",
   "referenced_type" : "_ZTINSt3__120forward_iterator_tagE",
   "self_type" : "_ZTINSt3__120forward_iterator_tagE",
   "size" : 1,
   "source_file" : "external/libcxx/include/iterator"
  },
  {
   "alignment" : 1,
   "linker_set_key" : "_ZTINSt3__121__murmur2_or_cityhashImLm64EEE",
   "name" : "std::__murmur2_or_cityhash<unsigned long, 64>",
   "referenced_type" : "_ZTINSt3__121__murmur2_or_cityhashImLm64EEE",
   "self_type" : "_ZTINSt3__121__murmur2_or_cityhashImLm64EEE",
   "size" : 1,
   "source_file" : "external/libcxx/include/utility",
   "template_args" : [ "_ZTIm" ]
  },
  {
   "alignment" : 1,
   "base_specifiers" :
   [
    {
     "referenced_type" : "_ZTINSt3__116is_constructibleImJOmEEE"
    }
   ],
   "linker_set_key" : "_ZTINSt3__121is_move_constructibleImEE",
   "name" : "std::is_move_constructible<unsigned long>",
   "referenced_type" : "_ZTINSt3__121is_move_constructibleImEE",
   "self_type" : "_ZTINSt3__121is_move_constructibleImEE",
   "size" : 1,
   "source_file" : "external/libcxx/include/type_traits",
   "template_args" : [ "_ZTIm" ]
  },
  {
   "alignment" : 1,
   "base_specifiers" :
   [
    {
     "referenced_type" : "_ZTINSt3__130__libcpp_is_nothrow_assignableILb1ERmOmEE"
    }
   ],
   "linker_set_key" : "_ZTINSt3__121is_nothrow_assignableIRmOmEE",
   "name" : "std::is_nothrow_assignable<unsigned long &, unsigned long &&>",
   "referenced_type" : "_ZTINSt3__121is_nothrow_assignableIRmOmEE",
   "self_type" : "_ZTINSt3__121is_nothrow_assignableIRmOmEE",
   "size" : 1,
   "source_file" : "external/libcxx/include/type_traits",
   "template_args" : [ "_ZTIRm", "_ZTIOm" ]
  },
  {
   "alignment" : 1,
   "linker_set_key" : "_ZTINSt3__121piecewise_construct_tE",
   "name" : "std::piecewise_construct_t",
   "referenced_type" : "_ZTINSt3__121piecewise_construct_tE",
   "self_type" : "_ZTINSt3__121piecewise_construct_tE",
   "size" : 1,
   "source_file" : "external/libcxx/include/utility"
  },
  {
   "alignment" : 1,
   "linker_set_key" : "_ZTINSt3__122__extract_key_fail_tagE",
   "name" : "std::__extract_key_fail_tag",
   "referenced_type" : "_ZTINSt3__122__extract_key_fail_tagE",
   "self_type" : "_ZTINSt3__122__extract_key_fail_tagE",
   "size" : 1,
   "source_file" : "external/libcxx/include/type_traits"
  },
  {
   "alignment" : 1,
   "linker_set_key" : "_ZTINSt3__122__extract_key_self_tagE",
   "name" : "std::__extract_key_self_tag",
   "referenced_type" : "_ZTINSt3__122__extract_key_self_tagE",
   "self_type" : "_ZTINSt3__122__extract_key_self_tagE",
   "size" : 1,
   "source_file" : "external/libcxx/include/type_traits"
  },
  {
   "alignment" : 1,
   "linker_set_key" : "_ZTINSt3__123__extract_key_first_tagE",
   "name" : "std::__extract_key_first_tag",
   "referenced_type" : "_ZTINSt3__123__extract_key_first_tagE",
   "self_type" : "_ZTINSt3__123__extract_key_first_tagE",
   "size" : 1,
   "source_file" : "external/libcxx/include/type_traits"
  },
  {
   "alignment" : 1,
   "linker_set_key" : "_ZTINSt3__123__is_referenceable_implE",
   "name" : "std::__is_referenceable_impl",
   "referenced_type" : "_ZTINSt3__123__is_referenceable_implE",
   "self_type" : "_ZTINSt3__123__is_referenceable_implE",
   "size" : 1,
   "source_file" : "external/libcxx/include/type_traits"
  },
  {
   "alignment" : 1,
   "linker_set_key" : "_ZTINSt3__123__libcpp_numeric_limitsIbLb1EEE",
   "name" : "std::__libcpp_numeric_limits<bool, true>",
   "record_kind" : "class",
   "referenced_type" : "_ZTINSt3__123__libcpp_numeric_limitsIbLb1EEE",
   "self_type" : "_ZTINSt3__123__libcpp_numeric_limitsIbLb1EEE",
   "size" : 1,
   "source_file" : "external/libcxx/include/limits",
   "template_args" : [ "_ZTIb" ]
  },
  {
   "alignment" : 1,
   "linker_set_key" : "_ZTINSt3__123__libcpp_numeric_limitsIdLb1EEE",
   "name" : "std::__libcpp_numeric_limits<double, true>",
   "record_kind" : "class",
   "referenced_type" : "_ZTINSt3__123__libcpp_numeric_limitsIdLb1EEE",
   "self_type" : "_ZTINSt3__123__libcpp_numeric_limitsIdLb1EEE",
   "size" : 1,
   "source_file" : "external/libcxx/include/limits",
   "template_args" : [ "_ZTId" ]
  },
  {
   "alignment" : 1,
   "linker_set_key" : "_ZTINSt3__123__libcpp_numeric_limitsIeLb1EEE",
   "name" : "std::__libcpp_numeric_limits<long double, true>",
   "record_kind" : "class",
   "referenced_type" : "_ZTINSt3__123__libcpp_numeric_limitsIeLb1EEE",
   "self_type" : "_ZTINSt3__123__libcpp_numeric_limitsIeLb1EEE",
   "size" : 1,
   "source_file" : "external/libcxx/include/limits",
   "template_args" : [ "_ZTIe" ]
  },
  {
   "alignment" : 1,
   "linker_set_key" : "_ZTINSt3__123__libcpp_numeric_limitsIfLb1EEE",
   "name" : "std::__libcpp_numeric_limits<float, true>",
   "record_kind" : "class",
   "referenced_type" : "_ZTINSt3__123__libcpp_numeric_limitsIfLb1EEE",
   "self_type" : "_ZTINSt3__123__libcpp_numeric_limitsIfLb1EEE",
   "size" : 1,
   "source_file" : "external/libcxx/include/limits",
   "template_args" : [ "_ZTIf" ]
  },
  {
   "alignment" : 8,
   "base_specifiers" :
   [
    {
     "referenced_type" : "_ZTISt9exception"
    }
   ],
   "fields" :
   [
    {
     "access" : "private",
     "field_name" : "__imp_",
     "field_offset" : 64,
     "referenced_type" : "_ZTIPNSt3__124__libcpp_debug_exception28__libcpp_debug_exception_impE"
    }
   ],
   "linker_set_key" : "_ZTINSt3__124__libcpp_debug_exceptionE",
   "name" : "std::__libcpp_debug_exception",
   "record_kind" : "class",
   "referenced_type" : "_ZTINSt3__124__libcpp_debug_exceptionE",
   "self_type" : "_ZTINSt3__124__libcpp_debug_exceptionE",
   "size" : 16,
   "source_file" : "external/libcxx/include/__debug",
   "vtable_components" :
   [
    {
     "kind" : "offset_to_top"
    },
    {
     "kind" : "rtti",
     "mangled_component_name" : "_ZTINSt3__124__libcpp_debug_exceptionE"
    },
    {
     "kind" : "complete_dtor_pointer",
     "mangled_component_name" : "_ZNSt3__124__libcpp_debug_exceptionD1Ev"
    },
    {
     "kind" : "deleting_dtor_pointer",
     "mangled_component_name" : "_ZNSt3__124__libcpp_debug_exceptionD0Ev"
    },
    {
     "mangled_component_name" : "_ZNKSt3__124__libcpp_debug_exception4whatEv"
    }
   ]
  },
  {
   "alignment" : 1,
   "linker_set_key" : "_ZTINSt3__124__libcpp_is_function_imp12__dummy_typeE",
   "name" : "std::__libcpp_is_function_imp::__dummy_type",
   "referenced_type" : "_ZTINSt3__124__libcpp_is_function_imp12__dummy_typeE",
   "self_type" : "_ZTINSt3__124__libcpp_is_function_imp12__dummy_typeE",
   "size" : 1,
   "source_file" : "external/libcxx/include/type_traits"
  },
  {
   "alignment" : 1,
   "base_specifiers" :
   [
    {
     "referenced_type" : "_ZTINSt3__133__libcpp_is_nothrow_constructibleILb1ELb0EmJOmEEE"
    }
   ],
   "linker_set_key" : "_ZTINSt3__124is_nothrow_constructibleImJOmEEE",
   "name" : "std::is_nothrow_constructible<unsigned long, unsigned long &&>",
   "referenced_type" : "_ZTINSt3__124is_nothrow_constructibleImJOmEEE",
   "self_type" : "_ZTINSt3__124is_nothrow_constructibleImJOmEEE",
   "size" : 1,
   "source_file" : "external/libcxx/include/type_traits",
   "template_args" : [ "_ZTIm" ]
  },
  {
   "alignment" : 1,
   "base_specifiers" :
   [
    {
     "referenced_type" : "_ZTINSt3__133__libcpp_is_nothrow_constructibleILb1ELb0EmJmEEE"
    }
   ],
   "linker_set_key" : "_ZTINSt3__124is_nothrow_constructibleImJmEEE",
   "name" : "std::is_nothrow_constructible<unsigned long, unsigned long>",
   "referenced_type" : "_ZTINSt3__124is_nothrow_constructibleImJmEEE",
   "self_type" : "_ZTINSt3__124is_nothrow_constructibleImJmEEE",
   "size" : 1,
   "source_file" : "external/libcxx/include/type_traits",
   "template_args" : [ "_ZTIm" ]
  },
  {
   "alignment" : 1,
   "base_specifiers" :
   [
    {
     "referenced_type" : "_ZTINSt3__117integral_constantIbLb1EEE"
    }
   ],
   "linker_set_key" : "_ZTINSt3__126__libcpp_is_floating_pointIdEE",
   "name" : "std::__libcpp_is_floating_point<double>",
   "referenced_type" : "_ZTINSt3__126__libcpp_is_floating_pointIdEE",
   "self_type" : "_ZTINSt3__126__libcpp_is_floating_pointIdEE",
   "size" : 1,
   "source_file" : "external/libcxx/include/type_traits",
   "template_args" : [ "_ZTId" ]
  },
  {
   "alignment" : 1,
   "base_specifiers" :
   [
    {
     "referenced_type" : "_ZTINSt3__117integral_constantIbLb1EEE"
    }
   ],
   "linker_set_key" : "_ZTINSt3__126__libcpp_is_floating_pointIeEE",
   "name" : "std::__libcpp_is_floating_point<long double>",
   "referenced_type" : "_ZTINSt3__126__libcpp_is_floating_pointIeEE",
   "self_type" : "_ZTINSt3__126__libcpp_is_floating_pointIeEE",
   "size" : 1,
   "source_file" : "external/libcxx/include/type_traits",
   "template_args" : [ "_ZTIe" ]
  },
  {
   "alignment" : 1,
   "base_specifiers" :
   [
    {
     "referenced_type" : "_ZTINSt3__117integral_constantIbLb1EEE"
    }
   ],
   "linker_set_key" : "_ZTINSt3__126__libcpp_is_floating_pointIfEE",
   "name" : "std::__libcpp_is_floating_point<float>",
   "referenced_type" : "_ZTINSt3__126__libcpp_is_floating_pointIfEE",
   "self_type" : "_ZTINSt3__126__libcpp_is_floating_pointIfEE",
   "size" : 1,
   "source_file" : "external/libcxx/include/type_traits",
   "template_args" : [ "_ZTIf" ]
  },
  {
   "alignment" : 1,
   "base_specifiers" :
   [
    {
     "referenced_type" : "_ZTINSt3__117integral_constantIbLb1EEE"
    }
   ],
   "linker_set_key" : "_ZTINSt3__126__tuple_like_with_size_impILb1ENS_10tuple_sizeINS_4pairImmEEEELm2EEE",
   "name" : "std::__tuple_like_with_size_imp<true, std::tuple_size<std::pair<unsigned long, unsigned long>>, 2>",
   "referenced_type" : "_ZTINSt3__126__tuple_like_with_size_impILb1ENS_10tuple_sizeINS_4pairImmEEEELm2EEE",
   "self_type" : "_ZTINSt3__126__tuple_like_with_size_impILb1ENS_10tuple_sizeINS_4pairImmEEEELm2EEE",
   "size" : 1,
   "source_file" : "external/libcxx/include/__tuple",
   "template_args" : [ "_ZTINSt3__110tuple_sizeINS_4pairImmEEEE" ]
  },
  {
   "alignment" : 1,
   "base_specifiers" :
   [
    {
     "referenced_type" : "_ZTINSt3__120forward_iterator_tagE"
    }
   ],
   "linker_set_key" : "_ZTINSt3__126bidirectional_iterator_tagE",
   "name" : "std::bidirectional_iterator_tag",
   "referenced_type" : "_ZTINSt3__126bidirectional_iterator_tagE",
   "self_type" : "_ZTINSt3__126bidirectional_iterator_tagE",
   "size" : 1,
   "source_file" : "external/libcxx/include/iterator"
  },
  {
   "alignment" : 1,
   "base_specifiers" :
   [
    {
     "referenced_type" : "_ZTINSt3__121is_nothrow_assignableIRmOmEE"
    }
   ],
   "linker_set_key" : "_ZTINSt3__126is_nothrow_move_assignableImEE",
   "name" : "std::is_nothrow_move_assignable<unsigned long>",
   "referenced_type" : "_ZTINSt3__126is_nothrow_move_assignableImEE",
   "self_type" : "_ZTINSt3__126is_nothrow_move_assignableImEE",
   "size" : 1,
   "source_file" : "external/libcxx/include/type_traits",
   "template_args" : [ "_ZTIm" ]
  },
  {
   "alignment" : 1,
   "base_specifiers" :
   [
    {
     "referenced_type" : "_ZTINSt3__126bidirectional_iterator_tagE"
    }
   ],
   "linker_set_key" : "_ZTINSt3__126random_access_iterator_tagE",
   "name" : "std::random_access_iterator_tag",
   "referenced_type" : "_ZTINSt3__126random_access_iterator_tagE",
   "self_type" : "_ZTINSt3__126random_access_iterator_tagE",
   "size" : 1,
   "source_file" : "external/libcxx/include/iterator"
  },
  {
   "alignment" : 1,
   "linker_set_key" : "_ZTINSt3__127__add_lvalue_reference_implIKmLb1EEE",
   "name" : "std::__add_lvalue_reference_impl<const unsigned long, true>",
   "referenced_type" : "_ZTINSt3__127__add_lvalue_reference_implIKmLb1EEE",
   "self_type" : "_ZTINSt3__127__add_lvalue_reference_implIKmLb1EEE",
   "size" : 1,
   "source_file" : "external/libcxx/include/type_traits",
   "template_args" : [ "_ZTIKm" ]
  },
  {
   "alignment" : 1,
   "linker_set_key" : "_ZTINSt3__127__add_lvalue_reference_implImLb1EEE",
   "name" : "std::__add_lvalue_reference_impl<unsigned long, true>",
   "referenced_type" : "_ZTINSt3__127__add_lvalue_reference_implImLb1EEE",
   "self_type" : "_ZTINSt3__127__add_lvalue_reference_implImLb1EEE",
   "size" : 1,
   "source_file" : "external/libcxx/include/type_traits",
   "template_args" : [ "_ZTIm" ]
  },
  {
   "alignment" : 1,
   "linker_set_key" : "_ZTINSt3__127__add_rvalue_reference_implImLb1EEE",
   "name" : "std::__add_rvalue_reference_impl<unsigned long, true>",
   "referenced_type" : "_ZTINSt3__127__add_rvalue_reference_implImLb1EEE",
   "self_type" : "_ZTINSt3__127__add_rvalue_reference_implImLb1EEE",
   "size" : 1,
   "source_file" : "external/libcxx/include/type_traits",
   "template_args" : [ "_ZTIm" ]
  },
  {
   "alignment" : 1,
   "linker_set_key" : "_ZTINSt3__128__invoke_void_return_wrapperIvEE",
   "name" : "std::__invoke_void_return_wrapper<void>",
   "referenced_type" : "_ZTINSt3__128__invoke_void_return_wrapperIvEE",
   "self_type" : "_ZTINSt3__128__invoke_void_return_wrapperIvEE",
   "size" : 1,
   "source_file" : "external/libcxx/include/__functional_base",
   "template_args" : [ "_ZTIv" ]
  },
  {
   "alignment" : 1,
   "base_specifiers" :
   [
    {
     "referenced_type" : "_ZTINSt3__124is_nothrow_constructibleImJOmEEE"
    }
   ],
   "linker_set_key" : "_ZTINSt3__129is_nothrow_move_constructibleImEE",
   "name" : "std::is_nothrow_move_constructible<unsigned long>",
   "referenced_type" : "_ZTINSt3__129is_nothrow_move_constructibleImEE",
   "self_type" : "_ZTINSt3__129is_nothrow_move_constructibleImEE",
   "size" : 1,
   "source_file" : "external/libcxx/include/type_traits",
   "template_args" : [ "_ZTIm" ]
  },
  {
   "alignment" : 1,
   "linker_set_key" : "_ZTINSt3__130__check_tuple_constructor_failE",
   "name" : "std::__check_tuple_constructor_fail",
   "referenced_type" : "_ZTINSt3__130__check_tuple_constructor_failE",
   "self_type" : "_ZTINSt3__130__check_tuple_constructor_failE",
   "size" : 1,
   "source_file" : "external/libcxx/include/__tuple"
  },
  {
   "alignment" : 1,
   "base_specifiers" :
   [
    {
     "referenced_type" : "_ZTINSt3__117integral_constantIbLb1EEE"
    }
   ],
   "linker_set_key" : "_ZTINSt3__130__libcpp_is_nothrow_assignableILb1ERmOmEE",
   "name" : "std::__libcpp_is_nothrow_assignable<true, unsigned long &, unsigned long &&>",
   "referenced_type" : "_ZTINSt3__130__libcpp_is_nothrow_assignableILb1ERmOmEE",
   "self_type" : "_ZTINSt3__130__libcpp_is_nothrow_assignableILb1ERmOmEE",
   "size" : 1,
   "source_file" : "external/libcxx/include/type_traits",
   "template_args" : [ "_ZTIRm", "_ZTIOm" ]
  },
  {
   "alignment" : 1,
   "base_specifiers" :
   [
    {
     "referenced_type" : "_ZTINSt3__117integral_constantIbLb1EEE"
    }
   ],
   "linker_set_key" : "_ZTINSt3__133__libcpp_is_nothrow_constructibleILb1ELb0EmJOmEEE",
   "name" : "std::__libcpp_is_nothrow_constructible<true, false, unsigned long, unsigned long &&>",
   "referenced_type" : "_ZTINSt3__133__libcpp_is_nothrow_constructibleILb1ELb0EmJOmEEE",
   "self_type" : "_ZTINSt3__133__libcpp_is_nothrow_constructibleILb1ELb0EmJOmEEE",
   "size" : 1,
   "source_file" : "external/libcxx/include/type_traits",
   "template_args" : [ "_ZTIm" ]
  },
  {
   "alignment" : 1,
   "base_specifiers" :
   [
    {
     "referenced_type" : "_ZTINSt3__117integral_constantIbLb1EEE"
    }
   ],
   "linker_set_key" : "_ZTINSt3__133__libcpp_is_nothrow_constructibleILb1ELb0EmJmEEE",
   "name" : "std::__libcpp_is_nothrow_constructible<true, false, unsigned long, unsigned long>",
   "referenced_type" : "_ZTINSt3__133__libcpp_is_nothrow_constructibleILb1ELb0EmJmEEE",
   "self_type" : "_ZTINSt3__133__libcpp_is_nothrow_constructibleILb1ELb0EmJmEEE",
   "size" : 1,
   "source_file" : "external/libcxx/include/type_traits",
   "template_args" : [ "_ZTIm" ]
  },
  {
   "alignment" : 1,
   "base_specifiers" :
   [
    {
     "referenced_type" : "_ZTINSt3__114unary_functionIDimEE"
    }
   ],
   "linker_set_key" : "_ZTINSt3__14hashIDiEE",
   "name" : "std::hash<char32_t>",
   "referenced_type" : "_ZTINSt3__14hashIDiEE",
   "self_type" : "_ZTINSt3__14hashIDiEE",
   "size" : 1,
   "source_file" : "external/libcxx/include/utility",
   "template_args" : [ "_ZTIDi" ]
  },
  {
   "alignment" : 1,
   "base_specifiers" :
   [
    {
     "referenced_type" : "_ZTINSt3__114unary_functionIDsmEE"
    }
   ],
   "linker_set_key" : "_ZTINSt3__14hashIDsEE",
   "name" : "std::hash<char16_t>",
   "referenced_type" : "_ZTINSt3__14hashIDsEE",
   "self_type" : "_ZTINSt3__14hashIDsEE",
   "size" : 1,
   "source_file" : "external/libcxx/include/utility",
   "template_args" : [ "_ZTIDs" ]
  },
  {
   "alignment" : 1,
   "base_specifiers" :
   [
    {
     "referenced_type" : "_ZTINSt3__114unary_functionIamEE"
    }
   ],
   "linker_set_key" : "_ZTINSt3__14hashIaEE",
   "name" : "std::hash<signed char>",
   "referenced_type" : "_ZTINSt3__14hashIaEE",
   "self_type" : "_ZTINSt3__14hashIaEE",
   "size" : 1,
   "source_file" : "external/libcxx/include/utility",
   "template_args" : [ "_ZTIa" ]
  },
  {
   "alignment" : 1,
   "base_specifiers" :
   [
    {
     "referenced_type" : "_ZTINSt3__114unary_functionIbmEE"
    }
   ],
   "linker_set_key" : "_ZTINSt3__14hashIbEE",
   "name" : "std::hash<bool>",
   "referenced_type" : "_ZTINSt3__14hashIbEE",
   "self_type" : "_ZTINSt3__14hashIbEE",
   "size" : 1,
   "source_file" : "external/libcxx/include/utility",
   "template_args" : [ "_ZTIb" ]
  },
  {
   "alignment" : 1,
   "base_specifiers" :
   [
    {
     "referenced_type" : "_ZTINSt3__114unary_functionIcmEE"
    }
   ],
   "linker_set_key" : "_ZTINSt3__14hashIcEE",
   "name" : "std::hash<char>",
   "referenced_type" : "_ZTINSt3__14hashIcEE",
   "self_type" : "_ZTINSt3__14hashIcEE",
   "size" : 1,
   "source_file" : "external/libcxx/include/utility",
   "template_args" : [ "_ZTIc" ]
  },
  {
   "alignment" : 1,
   "base_specifiers" :
   [
    {
     "referenced_type" : "_ZTINSt3__113__scalar_hashIdLm1EEE"
    }
   ],
   "linker_set_key" : "_ZTINSt3__14hashIdEE",
   "name" : "std::hash<double>",
   "referenced_type" : "_ZTINSt3__14hashIdEE",
   "self_type" : "_ZTINSt3__14hashIdEE",
   "size" : 1,
   "source_file" : "external/libcxx/include/utility",
   "template_args" : [ "_ZTId" ]
  },
  {
   "alignment" : 1,
   "base_specifiers" :
   [
    {
     "referenced_type" : "_ZTINSt3__113__scalar_hashIeLm2EEE"
    }
   ],
   "linker_set_key" : "_ZTINSt3__14hashIeEE",
   "name" : "std::hash<long double>",
   "referenced_type" : "_ZTINSt3__14hashIeEE",
   "self_type" : "_ZTINSt3__14hashIeEE",
   "size" : 1,
   "source_file" : "external/libcxx/include/utility",
   "template_args" : [ "_ZTIe" ]
  },
  {
   "alignment" : 1,
   "base_specifiers" :
   [
    {
     "referenced_type" : "_ZTINSt3__113__scalar_hashIfLm0EEE"
    }
   ],
   "linker_set_key" : "_ZTINSt3__14hashIfEE",
   "name" : "std::hash<float>",
   "referenced_type" : "_ZTINSt3__14hashIfEE",
   "self_type" : "_ZTINSt3__14hashIfEE",
   "size" : 1,
   "source_file" : "external/libcxx/include/utility",
   "template_args" : [ "_ZTIf" ]
  },
  {
   "alignment" : 1,
   "base_specifiers" :
   [
    {
     "referenced_type" : "_ZTINSt3__114unary_functionIhmEE"
    }
   ],
   "linker_set_key" : "_ZTINSt3__14hashIhEE",
   "name" : "std::hash<unsigned char>",
   "referenced_type" : "_ZTINSt3__14hashIhEE",
   "self_type" : "_ZTINSt3__14hashIhEE",
   "size" : 1,
   "source_file" : "external/libcxx/include/utility",
   "template_args" : [ "_ZTIh" ]
  },
  {
   "alignment" : 1,
   "base_specifiers" :
   [
    {
     "referenced_type" : "_ZTINSt3__114unary_functionIimEE"
    }
   ],
   "linker_set_key" : "_ZTINSt3__14hashIiEE",
   "name" : "std::hash<int>",
   "referenced_type" : "_ZTINSt3__14hashIiEE",
   "self_type" : "_ZTINSt3__14hashIiEE",
   "size" : 1,
   "source_file" : "external/libcxx/include/utility",
   "template_args" : [ "_ZTIi" ]
  },
  {
   "alignment" : 1,
   "base_specifiers" :
   [
    {
     "referenced_type" : "_ZTINSt3__114unary_functionIjmEE"
    }
   ],
   "linker_set_key" : "_ZTINSt3__14hashIjEE",
   "name" : "std::hash<unsigned int>",
   "referenced_type" : "_ZTINSt3__14hashIjEE",
   "self_type" : "_ZTINSt3__14hashIjEE",
   "size" : 1,
   "source_file" : "external/libcxx/include/utility",
   "template_args" : [ "_ZTIj" ]
  },
  {
   "alignment" : 1,
   "base_specifiers" :
   [
    {
     "referenced_type" : "_ZTINSt3__114unary_functionIlmEE"
    }
   ],
   "linker_set_key" : "_ZTINSt3__14hashIlEE",
   "name" : "std::hash<long>",
   "referenced_type" : "_ZTINSt3__14hashIlEE",
   "self_type" : "_ZTINSt3__14hashIlEE",
   "size" : 1,
   "source_file" : "external/libcxx/include/utility",
   "template_args" : [ "_ZTIl" ]
  },
  {
   "alignment" : 1,
   "base_specifiers" :
   [
    {
     "referenced_type" : "_ZTINSt3__114unary_functionImmEE"
    }
   ],
   "linker_set_key" : "_ZTINSt3__14hashImEE",
   "name" : "std::hash<unsigned long>",
   "referenced_type" : "_ZTINSt3__14hashImEE",
   "self_type" : "_ZTINSt3__14hashImEE",
   "size" : 1,
   "source_file" : "external/libcxx/include/utility",
   "template_args" : [ "_ZTIm" ]
  },
  {
   "alignment" : 1,
   "base_specifiers" :
   [
    {
     "referenced_type" : "_ZTINSt3__113__scalar_hashInLm2EEE"
    }
   ],
   "linker_set_key" : "_ZTINSt3__14hashInEE",
   "name" : "std::hash<__int128_t>",
   "referenced_type" : "_ZTINSt3__14hashInEE",
   "self_type" : "_ZTINSt3__14hashInEE",
   "size" : 1,
   "source_file" : "external/libcxx/include/utility",
   "template_args" : [ "_ZTIn" ]
  },
  {
   "alignment" : 1,
   "base_specifiers" :
   [
    {
     "referenced_type" : "_ZTINSt3__113__scalar_hashIoLm2EEE"
    }
   ],
   "linker_set_key" : "_ZTINSt3__14hashIoEE",
   "name" : "std::hash<__uint128_t>",
   "referenced_type" : "_ZTINSt3__14hashIoEE",
   "self_type" : "_ZTINSt3__14hashIoEE",
   "size" : 1,
   "source_file" : "external/libcxx/include/utility",
   "template_args" : [ "_ZTIo" ]
  },
  {
   "alignment" : 1,
   "base_specifiers" :
   [
    {
     "referenced_type" : "_ZTINSt3__114unary_functionIsmEE"
    }
   ],
   "linker_set_key" : "_ZTINSt3__14hashIsEE",
   "name" : "std::hash<short>",
   "referenced_type" : "_ZTINSt3__14hashIsEE",
   "self_type" : "_ZTINSt3__14hashIsEE",
   "size" : 1,
   "source_file" : "external/libcxx/include/utility",
   "template_args" : [ "_ZTIs" ]
  },
  {
   "alignment" : 1,
   "base_specifiers" :
   [
    {
     "referenced_type" : "_ZTINSt3__114unary_functionItmEE"
    }
   ],
   "linker_set_key" : "_ZTINSt3__14hashItEE",
   "name" : "std::hash<unsigned short>",
   "referenced_type" : "_ZTINSt3__14hashItEE",
   "self_type" : "_ZTINSt3__14hashItEE",
   "size" : 1,
   "source_file" : "external/libcxx/include/utility",
   "template_args" : [ "_ZTIt" ]
  },
  {
   "alignment" : 1,
   "base_specifiers" :
   [
    {
     "referenced_type" : "_ZTINSt3__114unary_functionIwmEE"
    }
   ],
   "linker_set_key" : "_ZTINSt3__14hashIwEE",
   "name" : "std::hash<wchar_t>",
   "referenced_type" : "_ZTINSt3__14hashIwEE",
   "self_type" : "_ZTINSt3__14hashIwEE",
   "size" : 1,
   "source_file" : "external/libcxx/include/utility",
   "template_args" : [ "_ZTIw" ]
  },
  {
   "alignment" : 1,
   "base_specifiers" :
   [
    {
     "referenced_type" : "_ZTINSt3__113__scalar_hashIxLm1EEE"
    }
   ],
   "linker_set_key" : "_ZTINSt3__14hashIxEE",
   "name" : "std::hash<long long>",
   "referenced_type" : "_ZTINSt3__14hashIxEE",
   "self_type" : "_ZTINSt3__14hashIxEE",
   "size" : 1,
   "source_file" : "external/libcxx/include/utility",
   "template_args" : [ "_ZTIx" ]
  },
  {
   "alignment" : 1,
   "base_specifiers" :
   [
    {
     "referenced_type" : "_ZTINSt3__113__scalar_hashIyLm1EEE"
    }
   ],
   "linker_set_key" : "_ZTINSt3__14hashIyEE",
   "name" : "std::hash<unsigned long long>",
   "referenced_type" : "_ZTINSt3__14hashIyEE",
   "self_type" : "_ZTINSt3__14hashIyEE",
   "size" : 1,
   "source_file" : "external/libcxx/include/utility",
   "template_args" : [ "_ZTIy" ]
  },
  {
   "alignment" : 1,
   "linker_set_key" : "_ZTINSt3__14lessIvEE",
   "name" : "std::less<void>",
   "referenced_type" : "_ZTINSt3__14lessIvEE",
   "self_type" : "_ZTINSt3__14lessIvEE",
   "size" : 1,
   "source_file" : "external/libcxx/include/__functional_base",
   "template_args" : [ "_ZTIv" ]
  },
  {
   "alignment" : 1,
   "linker_set_key" : "_ZTINSt3__14pairImmE10_CheckArgsE",
   "name" : "std::pair<unsigned long, unsigned long>::_CheckArgs",
   "referenced_type" : "_ZTINSt3__14pairImmE10_CheckArgsE",
   "self_type" : "_ZTINSt3__14pairImmE10_CheckArgsE",
   "size" : 1,
   "source_file" : "external/libcxx/include/utility"
  },
  {
   "alignment" : 8,
   "fields" :
   [
    {
     "field_name" : "first",
     "referenced_type" : "_ZTIm"
    },
    {
     "field_name" : "second",
     "field_offset" : 64,
     "referenced_type" : "_ZTIm"
    }
   ],
   "linker_set_key" : "_ZTINSt3__14pairImmEE",
   "name" : "std::pair<unsigned long, unsigned long>",
   "referenced_type" : "_ZTINSt3__14pairImmEE",
   "self_type" : "_ZTINSt3__14pairImmEE",
   "size" : 16,
   "source_file" : "external/libcxx/include/utility",
   "template_args" : [ "_ZTIm", "_ZTIm" ]
  },
  {
   "alignment" : 1,
   "linker_set_key" : "_ZTINSt3__15__anyE",
   "name" : "std::__any",
   "referenced_type" : "_ZTINSt3__15__anyE",
   "self_type" : "_ZTINSt3__15__anyE",
   "size" : 1,
   "source_file" : "external/libcxx/include/type_traits"
  },
  {
   "alignment" : 1,
   "linker_set_key" : "_ZTINSt3__15__natE",
   "name" : "std::__nat",
   "referenced_type" : "_ZTINSt3__15__natE",
   "self_type" : "_ZTINSt3__15__natE",
   "size" : 1,
   "source_file" : "external/libcxx/include/type_traits"
  },
  {
   "alignment" : 1,
   "base_specifiers" :
   [
    {
     "referenced_type" : "_ZTINSt3__117integral_constantIbLb0EEE"
    }
   ],
   "linker_set_key" : "_ZTINSt3__15__or_IJEEE",
   "name" : "std::__or_<>",
   "referenced_type" : "_ZTINSt3__15__or_IJEEE",
   "self_type" : "_ZTINSt3__15__or_IJEEE",
   "size" : 1,
   "source_file" : "external/libcxx/include/type_traits"
  },
  {
   "alignment" : 1,
   "fields" :
   [
    {
     "field_name" : "__lx",
     "referenced_type" : "_ZTIA2_c"
    }
   ],
   "linker_set_key" : "_ZTINSt3__15__twoE",
   "name" : "std::__two",
   "referenced_type" : "_ZTINSt3__15__twoE",
   "self_type" : "_ZTINSt3__15__twoE",
   "size" : 2,
   "source_file" : "external/libcxx/include/type_traits"
  },
  {
   "alignment" : 1,
   "linker_set_key" : "_ZTINSt3__15decayINS_4pairImmEEEE",
   "name" : "std::decay<std::pair<unsigned long, unsigned long>>",
   "referenced_type" : "_ZTINSt3__15decayINS_4pairImmEEEE",
   "self_type" : "_ZTINSt3__15decayINS_4pairImmEEEE",
   "size" : 1,
   "source_file" : "external/libcxx/include/type_traits",
   "template_args" : [ "_ZTINSt3__14pairImmEE" ]
  },
  {
   "alignment" : 1,
   "linker_set_key" : "_ZTINSt3__15tupleIJEEE",
   "name" : "std::tuple<>",
   "record_kind" : "class",
   "referenced_type" : "_ZTINSt3__15tupleIJEEE",
   "self_type" : "_ZTINSt3__15tupleIJEEE",
   "size" : 1,
   "source_file" : "external/libcxx/include/tuple"
  },
  {
   "alignment" : 8,
   "fields" :
   [
    {
     "field_name" : "first",
     "referenced_type" : "_ZTIm"
    },
    {
     "field_name" : "second",
     "field_offset" : 64,
     "referenced_type" : "_ZTIm"
    }
   ],
   "linker_set_key" : "_ZTINSt3__16_PairTE",
   "name" : "std::_PairT",
   "referenced_type" : "_ZTINSt3__16_PairTE",
   "self_type" : "_ZTINSt3__16_PairTE",
   "size" : 16,
   "source_file" : "external/libcxx/include/utility"
  },
  {
   "alignment" : 1,
   "base_specifiers" :
   [
    {
     "referenced_type" : "_ZTINSt3__117integral_constantIbLb1EEE"
    }
   ],
   "linker_set_key" : "_ZTINSt3__16__and_IJEEE",
   "name" : "std::__and_<>",
   "referenced_type" : "_ZTINSt3__16__and_IJEEE",
   "self_type" : "_ZTINSt3__16__and_IJEEE",
   "size" : 1,
   "source_file" : "external/libcxx/include/type_traits"
  },
  {
   "alignment" : 1,
   "linker_set_key" : "_ZTINSt3__17__decayINS_4pairImmEELb1EEE",
   "name" : "std::__decay<std::pair<unsigned long, unsigned long>, true>",
   "referenced_type" : "_ZTINSt3__17__decayINS_4pairImmEELb1EEE",
   "self_type" : "_ZTINSt3__17__decayINS_4pairImmEELb1EEE",
   "size" : 1,
   "source_file" : "external/libcxx/include/type_traits",
   "template_args" : [ "_ZTINSt3__14pairImmEE" ]
  },
  {
   "alignment" : 1,
   "base_specifiers" :
   [
    {
     "referenced_type" : "_ZTINSt3__117integral_constantIbLb1EEE"
    }
   ],
   "linker_set_key" : "_ZTINSt3__17is_sameINS_4pairImmEES2_EE",
   "name" : "std::is_same<std::pair<unsigned long, unsigned long>, std::pair<unsigned long, unsigned long>>",
   "referenced_type" : "_ZTINSt3__17is_sameINS_4pairImmEES2_EE",
   "self_type" : "_ZTINSt3__17is_sameINS_4pairImmEES2_EE",
   "size" : 1,
   "source_file" : "external/libcxx/include/type_traits",
   "template_args" : [ "_ZTINSt3__14pairImmEE", "_ZTINSt3__14pairImmEE" ]
  },
  {
   "alignment" : 1,
   "base_specifiers" :
   [
    {
     "referenced_type" : "_ZTINSt3__117integral_constantIbLb0EEE"
    }
   ],
   "linker_set_key" : "_ZTINSt3__17is_sameINS_4pairImmEEvEE",
   "name" : "std::is_same<std::pair<unsigned long, unsigned long>, void>",
   "referenced_type" : "_ZTINSt3__17is_sameINS_4pairImmEEvEE",
   "self_type" : "_ZTINSt3__17is_sameINS_4pairImmEEvEE",
   "size" : 1,
   "source_file" : "external/libcxx/include/type_traits",
   "template_args" : [ "_ZTINSt3__14pairImmEE", "_ZTIv" ]
  },
  {
   "alignment" : 1,
   "base_specifiers" :
   [
    {
     "referenced_type" : "_ZTINSt3__117integral_constantIbLb0EEE"
    }
   ],
   "linker_set_key" : "_ZTINSt3__17is_sameIRKmNS_5__twoEEE",
   "name" : "std::is_same<const unsigned long &, std::__two>",
   "referenced_type" : "_ZTINSt3__17is_sameIRKmNS_5__twoEEE",
   "self_type" : "_ZTINSt3__17is_sameIRKmNS_5__twoEEE",
   "size" : 1,
   "source_file" : "external/libcxx/include/type_traits",
   "template_args" : [ "_ZTIRKm", "_ZTINSt3__15__twoE" ]
  },
  {
   "alignment" : 1,
   "base_specifiers" :
   [
    {
     "referenced_type" : "_ZTINSt3__117integral_constantIbLb0EEE"
    }
   ],
   "linker_set_key" : "_ZTINSt3__17is_sameIRNS_4pairImmEENS_5__twoEEE",
   "name" : "std::is_same<std::pair<unsigned long, unsigned long> &, std::__two>",
   "referenced_type" : "_ZTINSt3__17is_sameIRNS_4pairImmEENS_5__twoEEE",
   "self_type" : "_ZTINSt3__17is_sameIRNS_4pairImmEENS_5__twoEEE",
   "size" : 1,
   "source_file" : "external/libcxx/include/type_traits",
   "template_args" : [ "_ZTIRNSt3__14pairImmEE", "_ZTINSt3__15__twoE" ]
  },
  {
   "alignment" : 1,
   "base_specifiers" :
   [
    {
     "referenced_type" : "_ZTINSt3__117integral_constantIbLb0EEE"
    }
   ],
   "linker_set_key" : "_ZTINSt3__17is_sameIRmNS_5__twoEEE",
   "name" : "std::is_same<unsigned long &, std::__two>",
   "referenced_type" : "_ZTINSt3__17is_sameIRmNS_5__twoEEE",
   "self_type" : "_ZTINSt3__17is_sameIRmNS_5__twoEEE",
   "size" : 1,
   "source_file" : "external/libcxx/include/type_traits",
   "template_args" : [ "_ZTIRm", "_ZTINSt3__15__twoE" ]
  },
  {
   "alignment" : 1,
   "base_specifiers" :
   [
    {
     "referenced_type" : "_ZTINSt3__116__libcpp_is_voidINS_4pairImmEEEE"
    }
   ],
   "linker_set_key" : "_ZTINSt3__17is_voidINS_4pairImmEEEE",
   "name" : "std::is_void<std::pair<unsigned long, unsigned long>>",
   "referenced_type" : "_ZTINSt3__17is_voidINS_4pairImmEEEE",
   "self_type" : "_ZTINSt3__17is_voidINS_4pairImmEEEE",
   "size" : 1,
   "source_file" : "external/libcxx/include/type_traits",
   "template_args" : [ "_ZTINSt3__14pairImmEE" ]
  },
  {
   "alignment" : 1,
   "base_specifiers" :
   [
    {
     "referenced_type" : "_ZTINSt3__116__libcpp_is_voidIOmEE"
    }
   ],
   "linker_set_key" : "_ZTINSt3__17is_voidIOmEE",
   "name" : "std::is_void<unsigned long &&>",
   "referenced_type" : "_ZTINSt3__17is_voidIOmEE",
   "self_type" : "_ZTINSt3__17is_voidIOmEE",
   "size" : 1,
   "source_file" : "external/libcxx/include/type_traits",
   "template_args" : [ "_ZTIOm" ]
  },
  {
   "alignment" : 1,
   "base_specifiers" :
   [
    {
     "referenced_type" : "_ZTINSt3__116__libcpp_is_voidIRKmEE"
    }
   ],
   "linker_set_key" : "_ZTINSt3__17is_voidIRKmEE",
   "name" : "std::is_void<const unsigned long &>",
   "referenced_type" : "_ZTINSt3__17is_voidIRKmEE",
   "self_type" : "_ZTINSt3__17is_voidIRKmEE",
   "size" : 1,
   "source_file" : "external/libcxx/include/type_traits",
   "template_args" : [ "_ZTIRKm" ]
  },
  {
   "alignment" : 1,
   "base_specifiers" :
   [
    {
     "referenced_type" : "_ZTINSt3__116__libcpp_is_voidIRmEE"
    }
   ],
   "linker_set_key" : "_ZTINSt3__17is_voidIRmEE",
   "name" : "std::is_void<unsigned long &>",
   "referenced_type" : "_ZTINSt3__17is_voidIRmEE",
   "self_type" : "_ZTINSt3__17is_voidIRmEE",
   "size" : 1,
   "source_file" : "external/libcxx/include/type_traits",
   "template_args" : [ "_ZTIRm" ]
  },
  {
   "alignment" : 1,
   "base_specifiers" :
   [
    {
     "referenced_type" : "_ZTINSt3__116__libcpp_is_voidImEE"
    }
   ],
   "linker_set_key" : "_ZTINSt3__17is_voidImEE",
   "name" : "std::is_void<unsigned long>",
   "referenced_type" : "_ZTINSt3__17is_voidImEE",
   "self_type" : "_ZTINSt3__17is_voidImEE",
   "size" : 1,
   "source_file" : "external/libcxx/include/type_traits",
   "template_args" : [ "_ZTIm" ]
  },
  {
   "alignment" : 8,
   "fields" :
   [
    {
     "field_name" : "__c_",
     "field_offset" : 64,
     "referenced_type" : "_ZTIPv"
    },
    {
     "field_name" : "__next_",
     "field_offset" : 128,
     "referenced_type" : "_ZTIPNSt3__18__c_nodeE"
    },
    {
     "field_name" : "beg_",
     "field_offset" : 192,
     "referenced_type" : "_ZTIPPNSt3__18__i_nodeE"
    },
    {
     "field_name" : "end_",
     "field_offset" : 256,
     "referenced_type" : "_ZTIPPNSt3__18__i_nodeE"
    },
    {
     "field_name" : "cap_",
     "field_offset" : 320,
     "referenced_type" : "_ZTIPPNSt3__18__i_nodeE"
    }
   ],
   "linker_set_key" : "_ZTINSt3__18__c_nodeE",
   "name" : "std::__c_node",
   "referenced_type" : "_ZTINSt3__18__c_nodeE",
   "self_type" : "_ZTINSt3__18__c_nodeE",
   "size" : 48,
   "source_file" : "external/libcxx/include/__debug",
   "vtable_components" :
   [
    {
     "kind" : "offset_to_top"
    },
    {
     "kind" : "rtti",
     "mangled_component_name" : "_ZTINSt3__18__c_nodeE"
    },
    {
     "kind" : "complete_dtor_pointer",
     "mangled_component_name" : "_ZNSt3__18__c_nodeD1Ev"
    },
    {
     "kind" : "deleting_dtor_pointer",
     "mangled_component_name" : "_ZNSt3__18__c_nodeD0Ev"
    },
    {
     "is_pure" : true,
     "mangled_component_name" : "_ZNKSt3__18__c_node17__dereferenceableEPKv"
    },
    {
     "is_pure" : true,
     "mangled_component_name" : "_ZNKSt3__18__c_node15__decrementableEPKv"
    },
    {
     "is_pure" : true,
     "mangled_component_name" : "_ZNKSt3__18__c_node9__addableEPKvl"
    },
    {
     "is_pure" : true,
     "mangled_component_name" : "_ZNKSt3__18__c_node15__subscriptableEPKvl"
    }
   ]
  },
  {
   "alignment" : 8,
   "fields" :
   [
    {
     "field_name" : "__i_",
     "referenced_type" : "_ZTIPv"
    },
    {
     "field_name" : "__next_",
     "field_offset" : 64,
     "referenced_type" : "_ZTIPNSt3__18__i_nodeE"
    },
    {
     "field_name" : "__c_",
     "field_offset" : 128,
     "referenced_type" : "_ZTIPNSt3__18__c_nodeE"
    }
   ],
   "linker_set_key" : "_ZTINSt3__18__i_nodeE",
   "name" : "std::__i_node",
   "referenced_type" : "_ZTINSt3__18__i_nodeE",
   "self_type" : "_ZTINSt3__18__i_nodeE",
   "size" : 24,
   "source_file" : "external/libcxx/include/__debug"
  },
  {
   "alignment" : 8,
   "fields" :
   [
    {
     "access" : "private",
     "field_name" : "__lx",
     "referenced_type" : "_ZTIPv"
    }
   ],
   "linker_set_key" : "_ZTINSt3__18__sp_mutE",
   "name" : "std::__sp_mut",
   "record_kind" : "class",
   "referenced_type" : "_ZTINSt3__18__sp_mutE",
   "self_type" : "_ZTINSt3__18__sp_mutE",
   "size" : 8,
   "source_file" : "external/libcxx/include/memory"
  },
  {
   "alignment" : 1,
   "linker_set_key" : "_ZTINSt3__18auto_ptrIvEE",
   "name" : "std::auto_ptr<void>",
   "record_kind" : "class",
   "referenced_type" : "_ZTINSt3__18auto_ptrIvEE",
   "self_type" : "_ZTINSt3__18auto_ptrIvEE",
   "size" : 1,
   "source_file" : "external/libcxx/include/memory",
   "template_args" : [ "_ZTIv" ]
  },
  {
   "alignment" : 1,
   "base_specifiers" :
   [
    {
     "referenced_type" : "_ZTINSt3__117integral_constantIbLb0EEE"
    }
   ],
   "linker_set_key" : "_ZTINSt3__18is_arrayINS_4pairImmEEEE",
   "name" : "std::is_array<std::pair<unsigned long, unsigned long>>",
   "referenced_type" : "_ZTINSt3__18is_arrayINS_4pairImmEEEE",
   "self_type" : "_ZTINSt3__18is_arrayINS_4pairImmEEEE",
   "size" : 1,
   "source_file" : "external/libcxx/include/type_traits",
   "template_args" : [ "_ZTINSt3__14pairImmEE" ]
  },
  {
   "alignment" : 1,
   "base_specifiers" :
   [
    {
     "referenced_type" : "_ZTINSt3__117integral_constantIbLb1EEE"
    }
   ],
   "linker_set_key" : "_ZTINSt3__18is_classINS_4pairImmEEEE",
   "name" : "std::is_class<std::pair<unsigned long, unsigned long>>",
   "referenced_type" : "_ZTINSt3__18is_classINS_4pairImmEEEE",
   "self_type" : "_ZTINSt3__18is_classINS_4pairImmEEEE",
   "size" : 1,
   "source_file" : "external/libcxx/include/type_traits",
   "template_args" : [ "_ZTINSt3__14pairImmEE" ]
  },
  {
   "alignment" : 1,
   "base_specifiers" :
   [
    {
     "referenced_type" : "_ZTINSt3__117integral_constantIbLb0EEE"
    }
   ],
   "linker_set_key" : "_ZTINSt3__18is_classImEE",
   "name" : "std::is_class<unsigned long>",
   "referenced_type" : "_ZTINSt3__18is_classImEE",
   "self_type" : "_ZTINSt3__18is_classImEE",
   "size" : 1,
   "source_file" : "external/libcxx/include/type_traits",
   "template_args" : [ "_ZTIm" ]
  },
  {
   "alignment" : 1,
   "base_specifiers" :
   [
    {
     "referenced_type" : "_ZTINSt3__117integral_constantIbLb0EEE"
    }
   ],
   "linker_set_key" : "_ZTINSt3__18is_constImEE",
   "name" : "std::is_const<unsigned long>",
   "referenced_type" : "_ZTINSt3__18is_constImEE",
   "self_type" : "_ZTINSt3__18is_constImEE",
   "size" : 1,
   "source_file" : "external/libcxx/include/type_traits",
   "template_args" : [ "_ZTIm" ]
  },
  {
   "alignment" : 1,
   "base_specifiers" :
   [
    {
     "referenced_type" : "_ZTINSt3__117integral_constantIbLb0EEE"
    }
   ],
   "linker_set_key" : "_ZTINSt3__18is_unionINS_4pairImmEEEE",
   "name" : "std::is_union<std::pair<unsigned long, unsigned long>>",
   "referenced_type" : "_ZTINSt3__18is_unionINS_4pairImmEEEE",
   "self_type" : "_ZTINSt3__18is_unionINS_4pairImmEEEE",
   "size" : 1,
   "source_file" : "external/libcxx/include/type_traits",
   "template_args" : [ "_ZTINSt3__14pairImmEE" ]
  },
  {
   "alignment" : 1,
   "base_specifiers" :
   [
    {
     "referenced_type" : "_ZTINSt3__117integral_constantIbLb0EEE"
    }
   ],
   "linker_set_key" : "_ZTINSt3__18is_unionImEE",
   "name" : "std::is_union<unsigned long>",
   "referenced_type" : "_ZTINSt3__18is_unionImEE",
   "self_type" : "_ZTINSt3__18is_unionImEE",
   "size" : 1,
   "source_file" : "external/libcxx/include/type_traits",
   "template_args" : [ "_ZTIm" ]
  },
  {
   "alignment" : 1,
   "linker_set_key" : "_ZTINSt3__18iteratorINS_19output_iterator_tagEvvvvEE",
   "name" : "std::iterator<std::output_iterator_tag, void, void, void, void>",
   "referenced_type" : "_ZTINSt3__18iteratorINS_19output_iterator_tagEvvvvEE",
   "self_type" : "_ZTINSt3__18iteratorINS_19output_iterator_tagEvvvvEE",
   "size" : 1,
   "source_file" : "external/libcxx/include/iterator",
   "template_args" :
   [
    "_ZTINSt3__119output_iterator_tagE",
    "_ZTIv",
    "_ZTIv",
    "_ZTIv",
    "_ZTIv"
   ]
  },
  {
   "alignment" : 1,
   "linker_set_key" : "_ZTINSt3__19__uncvrefINS_4pairImmEEEE",
   "name" : "std::__uncvref<std::pair<unsigned long, unsigned long>>",
   "referenced_type" : "_ZTINSt3__19__uncvrefINS_4pairImmEEEE",
   "self_type" : "_ZTINSt3__19__uncvrefINS_4pairImmEEEE",
   "size" : 1,
   "source_file" : "external/libcxx/include/type_traits",
   "template_args" : [ "_ZTINSt3__14pairImmEE" ]
  },
  {
   "alignment" : 1,
   "linker_set_key" : "_ZTINSt3__19add_constImEE",
   "name" : "std::add_const<unsigned long>",
   "referenced_type" : "_ZTINSt3__19add_constImEE",
   "self_type" : "_ZTINSt3__19add_constImEE",
   "size" : 1,
   "source_file" : "external/libcxx/include/type_traits",
   "template_args" : [ "_ZTIm" ]
  },
  {
   "alignment" : 1,
   "linker_set_key" : "_ZTINSt3__19allocatorIKvEE",
   "name" : "std::allocator<const void>",
   "record_kind" : "class",
   "referenced_type" : "_ZTINSt3__19allocatorIKvEE",
   "self_type" : "_ZTINSt3__19allocatorIKvEE",
   "size" : 1,
   "source_file" : "external/libcxx/include/memory",
   "template_args" : [ "_ZTIKv" ]
  },
  {
   "alignment" : 1,
   "linker_set_key" : "_ZTINSt3__19allocatorINS_40__shared_ptr_dummy_rebind_allocator_typeEEE",
   "name" : "std::allocator<std::__shared_ptr_dummy_rebind_allocator_type>",
   "record_kind" : "class",
   "referenced_type" : "_ZTINSt3__19allocatorINS_40__shared_ptr_dummy_rebind_allocator_typeEEE",
   "self_type" : "_ZTINSt3__19allocatorINS_40__shared_ptr_dummy_rebind_allocator_typeEEE",
   "size" : 1,
   "source_file" : "external/libcxx/include/memory",
   "template_args" : [ "_ZTINSt3__140__shared_ptr_dummy_rebind_allocator_typeE" ]
  },
  {
   "alignment" : 1,
   "linker_set_key" : "_ZTINSt3__19allocatorIvEE",
   "name" : "std::allocator<void>",
   "record_kind" : "class",
   "referenced_type" : "_ZTINSt3__19allocatorIvEE",
   "self_type" : "_ZTINSt3__19allocatorIvEE",
   "size" : 1,
   "source_file" : "external/libcxx/include/memory",
   "template_args" : [ "_ZTIv" ]
  },
  {
   "alignment" : 1,
   "linker_set_key" : "_ZTINSt3__19enable_ifILb0EbEE",
   "name" : "std::enable_if<false, bool>",
   "referenced_type" : "_ZTINSt3__19enable_ifILb0EbEE",
   "self_type" : "_ZTINSt3__19enable_ifILb0EbEE",
   "size" : 1,
   "source_file" : "external/libcxx/include/type_traits",
   "template_args" : [ "_ZTIb" ]
  },
  {
   "alignment" : 1,
   "linker_set_key" : "_ZTINSt3__19enable_ifILb1EbEE",
   "name" : "std::enable_if<true, bool>",
   "referenced_type" : "_ZTINSt3__19enable_ifILb1EbEE",
   "self_type" : "_ZTINSt3__19enable_ifILb1EbEE",
   "size" : 1,
   "source_file" : "external/libcxx/include/type_traits",
   "template_args" : [ "_ZTIb" ]
  },
  {
   "alignment" : 1,
   "linker_set_key" : "_ZTINSt3__19enable_ifILb1EvEE",
   "name" : "std::enable_if<true, void>",
   "referenced_type" : "_ZTINSt3__19enable_ifILb1EvEE",
   "self_type" : "_ZTINSt3__19enable_ifILb1EvEE",
   "size" : 1,
   "source_file" : "external/libcxx/include/type_traits",
   "template_args" : [ "_ZTIv" ]
  },
  {
   "alignment" : 1,
   "base_specifiers" :
   [
    {
     "referenced_type" : "_ZTINSt3__117integral_constantIbLb1EEE"
    }
   ],
   "linker_set_key" : "_ZTINSt3__19is_scalarIDnEE",
   "name" : "std::is_scalar<nullptr_t>",
   "referenced_type" : "_ZTINSt3__19is_scalarIDnEE",
   "self_type" : "_ZTINSt3__19is_scalarIDnEE",
   "size" : 1,
   "source_file" : "external/libcxx/include/type_traits",
   "template_args" : [ "_ZTIDn" ]
  },
  {
   "alignment" : 1,
   "linker_set_key" : "_ZTINSt3__19remove_cvINS_4pairImmEEEE",
   "name" : "std::remove_cv<std::pair<unsigned long, unsigned long>>",
   "referenced_type" : "_ZTINSt3__19remove_cvINS_4pairImmEEEE",
   "self_type" : "_ZTINSt3__19remove_cvINS_4pairImmEEEE",
   "size" : 1,
   "source_file" : "external/libcxx/include/type_traits",
   "template_args" : [ "_ZTINSt3__14pairImmEE" ]
  },
  {
   "alignment" : 1,
   "linker_set_key" : "_ZTINSt3__19remove_cvIOmEE",
   "name" : "std::remove_cv<unsigned long &&>",
   "referenced_type" : "_ZTINSt3__19remove_cvIOmEE",
   "self_type" : "_ZTINSt3__19remove_cvIOmEE",
   "size" : 1,
   "source_file" : "external/libcxx/include/type_traits",
   "template_args" : [ "_ZTIOm" ]
  },
  {
   "alignment" : 1,
   "linker_set_key" : "_ZTINSt3__19remove_cvIRKmEE",
   "name" : "std::remove_cv<const unsigned long &>",
   "referenced_type" : "_ZTINSt3__19remove_cvIRKmEE",
   "self_type" : "_ZTINSt3__19remove_cvIRKmEE",
   "size" : 1,
   "source_file" : "external/libcxx/include/type_traits",
   "template_args" : [ "_ZTIRKm" ]
  },
  {
   "alignment" : 1,
   "linker_set_key" : "_ZTINSt3__19remove_cvIRmEE",
   "name" : "std::remove_cv<unsigned long &>",
   "referenced_type" : "_ZTINSt3__19remove_cvIRmEE",
   "self_type" : "_ZTINSt3__19remove_cvIRmEE",
   "size" : 1,
   "source_file" : "external/libcxx/include/type_traits",
   "template_args" : [ "_ZTIRm" ]
  },
  {
   "alignment" : 1,
   "linker_set_key" : "_ZTINSt3__19remove_cvImEE",
   "name" : "std::remove_cv<unsigned long>",
   "referenced_type" : "_ZTINSt3__19remove_cvImEE",
   "self_type" : "_ZTINSt3__19remove_cvImEE",
   "size" : 1,
   "source_file" : "external/libcxx/include/type_traits",
   "template_args" : [ "_ZTIm" ]
  },
  {
   "alignment" : 8,
   "base_specifiers" :
   [
    {
     "referenced_type" : "_ZTISt9exception"
    }
   ],
   "linker_set_key" : "_ZTISt10bad_typeid",
   "name" : "std::bad_typeid",
   "record_kind" : "class",
   "referenced_type" : "_ZTISt10bad_typeid",
   "self_type" : "_ZTISt10bad_typeid",
   "size" : 8,
   "source_file" : "external/libcxx/include/typeinfo",
   "vtable_components" :
   [
    {
     "kind" : "offset_to_top"
    },
    {
     "kind" : "rtti",
     "mangled_component_name" : "_ZTISt10bad_typeid"
    },
    {
     "kind" : "complete_dtor_pointer",
     "mangled_component_name" : "_ZNSt10bad_typeidD1Ev"
    },
    {
     "kind" : "deleting_dtor_pointer",
     "mangled_component_name" : "_ZNSt10bad_typeidD0Ev"
    },
    {
     "mangled_component_name" : "_ZNKSt10bad_typeid4whatEv"
    }
   ]
  },
  {
   "alignment" : 8,
   "base_specifiers" :
   [
    {
     "referenced_type" : "_ZTISt9exception"
    }
   ],
   "fields" :
   [
    {
     "access" : "private",
     "field_name" : "__imp_",
     "field_offset" : 64,
     "referenced_type" : "_ZTINSt3__118__libcpp_refstringE"
    }
   ],
   "linker_set_key" : "_ZTISt11logic_error",
   "name" : "std::logic_error",
   "record_kind" : "class",
   "referenced_type" : "_ZTISt11logic_error",
   "self_type" : "_ZTISt11logic_error",
   "size" : 16,
   "source_file" : "external/libcxx/include/stdexcept",
   "vtable_components" :
   [
    {
     "kind" : "offset_to_top"
    },
    {
     "kind" : "rtti",
     "mangled_component_name" : "_ZTISt11logic_error"
    },
    {
     "kind" : "complete_dtor_pointer",
     "mangled_component_name" : "_ZNSt11logic_errorD1Ev"
    },
    {
     "kind" : "deleting_dtor_pointer",
     "mangled_component_name" : "_ZNSt11logic_errorD0Ev"
    },
    {
     "mangled_component_name" : "_ZNKSt11logic_error4whatEv"
    }
   ]
  },
  {
   "alignment" : 8,
   "base_specifiers" :
   [
    {
     "referenced_type" : "_ZTISt13runtime_error"
    }
   ],
   "linker_set_key" : "_ZTISt11range_error",
   "name" : "std::range_error",
   "record_kind" : "class",
   "referenced_type" : "_ZTISt11range_error",
   "self_type" : "_ZTISt11range_error",
   "size" : 16,
   "source_file" : "external/libcxx/include/stdexcept",
   "vtable_components" :
   [
    {
     "kind" : "offset_to_top"
    },
    {
     "kind" : "rtti",
     "mangled_component_name" : "_ZTISt11range_error"
    },
    {
     "kind" : "complete_dtor_pointer",
     "mangled_component_name" : "_ZNSt11range_errorD1Ev"
    },
    {
     "kind" : "deleting_dtor_pointer",
     "mangled_component_name" : "_ZNSt11range_errorD0Ev"
    },
    {
     "mangled_component_name" : "_ZNKSt13runtime_error4whatEv"
    }
   ]
  },
  {
   "alignment" : 8,
   "base_specifiers" :
   [
    {
     "referenced_type" : "_ZTISt11logic_error"
    }
   ],
   "linker_set_key" : "_ZTISt12domain_error",
   "name" : "std::domain_error",
   "record_kind" : "class",
   "referenced_type" : "_ZTISt12domain_error",
   "self_type" : "_ZTISt12domain_error",
   "size" : 16,
   "source_file" : "external/libcxx/include/stdexcept",
   "vtable_components" :
   [
    {
     "kind" : "offset_to_top"
    },
    {
     "kind" : "rtti",
     "mangled_component_name" : "_ZTISt12domain_error"
    },
    {
     "kind" : "complete_dtor_pointer",
     "mangled_component_name" : "_ZNSt12domain_errorD1Ev"
    },
    {
     "kind" : "deleting_dtor_pointer",
     "mangled_component_name" : "_ZNSt12domain_errorD0Ev"
    },
    {
     "mangled_component_name" : "_ZNKSt11logic_error4whatEv"
    }
   ]
  },
  {
   "alignment" : 8,
   "base_specifiers" :
   [
    {
     "referenced_type" : "_ZTISt11logic_error"
    }
   ],
   "linker_set_key" : "_ZTISt12length_error",
   "name" : "std::length_error",
   "record_kind" : "class",
   "referenced_type" : "_ZTISt12length_error",
   "self_type" : "_ZTISt12length_error",
   "size" : 16,
   "source_file" : "external/libcxx/include/stdexcept",
   "vtable_components" :
   [
    {
     "kind" : "offset_to_top"
    },
    {
     "kind" : "rtti",
     "mangled_component_name" : "_ZTISt12length_error"
    },
    {
     "kind" : "complete_dtor_pointer",
     "mangled_component_name" : "_ZNSt12length_errorD1Ev"
    },
    {
     "kind" : "deleting_dtor_pointer",
     "mangled_component_name" : "_ZNSt12length_errorD0Ev"
    },
    {
     "mangled_component_name" : "_ZNKSt11logic_error4whatEv"
    }
   ]
  },
  {
   "alignment" : 8,
   "base_specifiers" :
   [
    {
     "referenced_type" : "_ZTISt11logic_error"
    }
   ],
   "linker_set_key" : "_ZTISt12out_of_range",
   "name" : "std::out_of_range",
   "record_kind" : "class",
   "referenced_type" : "_ZTISt12out_of_range",
   "self_type" : "_ZTISt12out_of_range",
   "size" : 16,
   "source_file" : "external/libcxx/include/stdexcept",
   "vtable_components" :
   [
    {
     "kind" : "offset_to_top"
    },
    {
     "kind" : "rtti",
     "mangled_component_name" : "_ZTISt12out_of_range"
    },
    {
     "kind" : "complete_dtor_pointer",
     "mangled_component_name" : "_ZNSt12out_of_rangeD1Ev"
    },
    {
     "kind" : "deleting_dtor_pointer",
     "mangled_component_name" : "_ZNSt12out_of_rangeD0Ev"
    },
    {
     "mangled_component_name" : "_ZNKSt11logic_error4whatEv"
    }
   ]
  },
  {
   "alignment" : 8,
   "base_specifiers" :
   [
    {
     "referenced_type" : "_ZTISt9exception"
    }
   ],
   "linker_set_key" : "_ZTISt13bad_exception",
   "name" : "std::bad_exception",
   "record_kind" : "class",
   "referenced_type" : "_ZTISt13bad_exception",
   "self_type" : "_ZTISt13bad_exception",
   "size" : 8,
   "source_file" : "external/libcxx/include/exception",
   "vtable_components" :
   [
    {
     "kind" : "offset_to_top"
    },
    {
     "kind" : "rtti",
     "mangled_component_name" : "_ZTISt13bad_exception"
    },
    {
     "kind" : "complete_dtor_pointer",
     "mangled_component_name" : "_ZNSt13bad_exceptionD1Ev"
    },
    {
     "kind" : "deleting_dtor_pointer",
     "mangled_component_name" : "_ZNSt13bad_exceptionD0Ev"
    },
    {
     "mangled_component_name" : "_ZNKSt13bad_exception4whatEv"
    }
   ]
  },
  {
   "alignment" : 8,
   "fields" :
   [
    {
     "access" : "private",
     "field_name" : "__ptr_",
     "referenced_type" : "_ZTIPv"
    }
   ],
   "linker_set_key" : "_ZTISt13exception_ptr",
   "name" : "std::exception_ptr",
   "record_kind" : "class",
   "referenced_type" : "_ZTISt13exception_ptr",
   "self_type" : "_ZTISt13exception_ptr",
   "size" : 8,
   "source_file" : "external/libcxx/include/exception"
  },
  {
   "alignment" : 8,
   "base_specifiers" :
   [
    {
     "referenced_type" : "_ZTISt9exception"
    }
   ],
   "fields" :
   [
    {
     "access" : "private",
     "field_name" : "__imp_",
     "field_offset" : 64,
     "referenced_type" : "_ZTINSt3__118__libcpp_refstringE"
    }
   ],
   "linker_set_key" : "_ZTISt13runtime_error",
   "name" : "std::runtime_error",
   "record_kind" : "class",
   "referenced_type" : "_ZTISt13runtime_error",
   "self_type" : "_ZTISt13runtime_error",
   "size" : 16,
   "source_file" : "external/libcxx/include/stdexcept",
   "vtable_components" :
   [
    {
     "kind" : "offset_to_top"
    },
    {
     "kind" : "rtti",
     "mangled_component_name" : "_ZTISt13runtime_error"
    },
    {
     "kind" : "complete_dtor_pointer",
     "mangled_component_name" : "_ZNSt13runtime_errorD1Ev"
    },
    {
     "kind" : "deleting_dtor_pointer",
     "mangled_component_name" : "_ZNSt13runtime_errorD0Ev"
    },
    {
     "mangled_component_name" : "_ZNKSt13runtime_error4whatEv"
    }
   ]
  },
  {
   "alignment" : 8,
   "base_specifiers" :
   [
    {
     "referenced_type" : "_ZTISt13runtime_error"
    }
   ],
   "linker_set_key" : "_ZTISt14overflow_error",
   "name" : "std::overflow_error",
   "record_kind" : "class",
   "referenced_type" : "_ZTISt14overflow_error",
   "self_type" : "_ZTISt14overflow_error",
   "size" : 16,
   "source_file" : "external/libcxx/include/stdexcept",
   "vtable_components" :
   [
    {
     "kind" : "offset_to_top"
    },
    {
     "kind" : "rtti",
     "mangled_component_name" : "_ZTISt14overflow_error"
    },
    {
     "kind" : "complete_dtor_pointer",
     "mangled_component_name" : "_ZNSt14overflow_errorD1Ev"
    },
    {
     "kind" : "deleting_dtor_pointer",
     "mangled_component_name" : "_ZNSt14overflow_errorD0Ev"
    },
    {
     "mangled_component_name" : "_ZNKSt13runtime_error4whatEv"
    }
   ]
  },
  {
   "alignment" : 8,
   "base_specifiers" :
   [
    {
     "referenced_type" : "_ZTISt13runtime_error"
    }
   ],
   "linker_set_key" : "_ZTISt15underflow_error",
   "name" : "std::underflow_error",
   "record_kind" : "class",
   "referenced_type" : "_ZTISt15underflow_error",
   "self_type" : "_ZTISt15underflow_error",
   "size" : 16,
   "source_file" : "external/libcxx/include/stdexcept",
   "vtable_components" :
   [
    {
     "kind" : "offset_to_top"
    },
    {
     "kind" : "rtti",
     "mangled_component_name" : "_ZTISt15underflow_error"
    },
    {
     "kind" : "complete_dtor_pointer",
     "mangled_component_name" : "_ZNSt15underflow_errorD1Ev"
    },
    {
     "kind" : "deleting_dtor_pointer",
     "mangled_component_name" : "_ZNSt15underflow_errorD0Ev"
    },
    {
     "mangled_component_name" : "_ZNKSt13runtime_error4whatEv"
    }
   ]
  },
  {
   "alignment" : 8,
   "base_specifiers" :
   [
    {
     "referenced_type" : "_ZTISt11logic_error"
    }
   ],
   "linker_set_key" : "_ZTISt16invalid_argument",
   "name" : "std::invalid_argument",
   "record_kind" : "class",
   "referenced_type" : "_ZTISt16invalid_argument",
   "self_type" : "_ZTISt16invalid_argument",
   "size" : 16,
   "source_file" : "external/libcxx/include/stdexcept",
   "vtable_components" :
   [
    {
     "kind" : "offset_to_top"
    },
    {
     "kind" : "rtti",
     "mangled_component_name" : "_ZTISt16invalid_argument"
    },
    {
     "kind" : "complete_dtor_pointer",
     "mangled_component_name" : "_ZNSt16invalid_argumentD1Ev"
    },
    {
     "kind" : "deleting_dtor_pointer",
     "mangled_component_name" : "_ZNSt16invalid_argumentD0Ev"
    },
    {
     "mangled_component_name" : "_ZNKSt11logic_error4whatEv"
    }
   ]
  },
  {
   "alignment" : 8,
   "fields" :
   [
    {
     "access" : "private",
     "field_name" : "__ptr_",
     "field_offset" : 64,
     "referenced_type" : "_ZTISt13exception_ptr"
    }
   ],
   "linker_set_key" : "_ZTISt16nested_exception",
   "name" : "std::nested_exception",
   "record_kind" : "class",
   "referenced_type" : "_ZTISt16nested_exception",
   "self_type" : "_ZTISt16nested_exception",
   "size" : 16,
   "source_file" : "external/libcxx/include/exception",
   "vtable_components" :
   [
    {
     "kind" : "offset_to_top"
    },
    {
     "kind" : "rtti",
     "mangled_component_name" : "_ZTISt16nested_exception"
    },
    {
     "kind" : "complete_dtor_pointer",
     "mangled_component_name" : "_ZNSt16nested_exceptionD1Ev"
    },
    {
     "kind" : "deleting_dtor_pointer",
     "mangled_component_name" : "_ZNSt16nested_exceptionD0Ev"
    }
   ]
  },
  {
   "alignment" : 8,
   "base_specifiers" :
   [
    {
     "referenced_type" : "_ZTISt9bad_alloc"
    }
   ],
   "linker_set_key" : "_ZTISt20bad_array_new_length",
   "name" : "std::bad_array_new_length",
   "record_kind" : "class",
   "referenced_type" : "_ZTISt20bad_array_new_length",
   "self_type" : "_ZTISt20bad_array_new_length",
   "size" : 8,
   "source_file" : "external/libcxx/include/new",
   "vtable_components" :
   [
    {
     "kind" : "offset_to_top"
    },
    {
     "kind" : "rtti",
     "mangled_component_name" : "_ZTISt20bad_array_new_length"
    },
    {
     "kind" : "complete_dtor_pointer",
     "mangled_component_name" : "_ZNSt20bad_array_new_lengthD1Ev"
    },
    {
     "kind" : "deleting_dtor_pointer",
     "mangled_component_name" : "_ZNSt20bad_array_new_lengthD0Ev"
    },
    {
     "mangled_component_name" : "_ZNKSt20bad_array_new_length4whatEv"
    }
   ]
  },
  {
   "alignment" : 8,
   "base_specifiers" :
   [
    {
     "referenced_type" : "_ZTISt9exception"
    }
   ],
   "linker_set_key" : "_ZTISt8bad_cast",
   "name" : "std::bad_cast",
   "record_kind" : "class",
   "referenced_type" : "_ZTISt8bad_cast",
   "self_type" : "_ZTISt8bad_cast",
   "size" : 8,
   "source_file" : "external/libcxx/include/typeinfo",
   "vtable_components" :
   [
    {
     "kind" : "offset_to_top"
    },
    {
     "kind" : "rtti",
     "mangled_component_name" : "_ZTISt8bad_cast"
    },
    {
     "kind" : "complete_dtor_pointer",
     "mangled_component_name" : "_ZNSt8bad_castD1Ev"
    },
    {
     "kind" : "deleting_dtor_pointer",
     "mangled_component_name" : "_ZNSt8bad_castD0Ev"
    },
    {
     "mangled_component_name" : "_ZNKSt8bad_cast4whatEv"
    }
   ]
  },
  {
   "alignment" : 8,
   "base_specifiers" :
   [
    {
     "referenced_type" : "_ZTISt9exception"
    }
   ],
   "linker_set_key" : "_ZTISt9bad_alloc",
   "name" : "std::bad_alloc",
   "record_kind" : "class",
   "referenced_type" : "_ZTISt9bad_alloc",
   "self_type" : "_ZTISt9bad_alloc",
   "size" : 8,
   "source_file" : "external/libcxx/include/new",
   "vtable_components" :
   [
    {
     "kind" : "offset_to_top"
    },
    {
     "kind" : "rtti",
     "mangled_component_name" : "_ZTISt9bad_alloc"
    },
    {
     "kind" : "complete_dtor_pointer",
     "mangled_component_name" : "_ZNSt9bad_allocD1Ev"
    },
    {
     "kind" : "deleting_dtor_pointer",
     "mangled_component_name" : "_ZNSt9bad_allocD0Ev"
    },
    {
     "mangled_component_name" : "_ZNKSt9bad_alloc4whatEv"
    }
   ]
  },
  {
   "alignment" : 8,
   "linker_set_key" : "_ZTISt9exception",
   "name" : "std::exception",
   "record_kind" : "class",
   "referenced_type" : "_ZTISt9exception",
   "self_type" : "_ZTISt9exception",
   "size" : 8,
   "source_file" : "external/libcxx/include/exception",
   "vtable_components" :
   [
    {
     "kind" : "offset_to_top"
    },
    {
     "kind" : "rtti",
     "mangled_component_name" : "_ZTISt9exception"
    },
    {
     "kind" : "complete_dtor_pointer",
     "mangled_component_name" : "_ZNSt9exceptionD1Ev"
    },
    {
     "kind" : "deleting_dtor_pointer",
     "mangled_component_name" : "_ZNSt9exceptionD0Ev"
    },
    {
     "mangled_component_name" : "_ZNKSt9exception4whatEv"
    }
   ]
  },
  {
   "alignment" : 1,
   "linker_set_key" : "_ZTISt9nothrow_t",
   "name" : "std::nothrow_t",
   "referenced_type" : "_ZTISt9nothrow_t",
   "self_type" : "_ZTISt9nothrow_t",
   "size" : 1,
   "source_file" : "external/libcxx/include/new"
  },
  {
   "alignment" : 8,
   "fields" :
   [
    {
     "access" : "protected",
     "field_name" : "__type_name",
     "field_offset" : 64,
     "referenced_type" : "_ZTIPKc"
    }
   ],
   "linker_set_key" : "_ZTISt9type_info",
   "name" : "std::type_info",
   "record_kind" : "class",
   "referenced_type" : "_ZTISt9type_info",
   "self_type" : "_ZTISt9type_info",
   "size" : 16,
   "source_file" : "external/libcxx/include/typeinfo",
   "vtable_components" :
   [
    {
     "kind" : "offset_to_top"
    },
    {
     "kind" : "rtti",
     "mangled_component_name" : "_ZTISt9type_info"
    },
    {
     "kind" : "complete_dtor_pointer",
     "mangled_component_name" : "_ZNSt9type_infoD1Ev"
    },
    {
     "kind" : "deleting_dtor_pointer",
     "mangled_component_name" : "_ZNSt9type_infoD0Ev"
    }
   ]
  }
 ],
 "rvalue_reference_types" :
 [
  {
   "alignment" : 8,
   "linker_set_key" : "_ZTIONSt3__14pairImmEE",
   "name" : "std::pair<unsigned long, unsigned long> &&",
   "referenced_type" : "_ZTINSt3__14pairImmEE",
   "self_type" : "_ZTIONSt3__14pairImmEE",
   "size" : 8,
   "source_file" : "external/libcxx/include/utility"
  },
  {
   "alignment" : 8,
   "linker_set_key" : "_ZTIOm",
   "name" : "unsigned long &&",
   "referenced_type" : "_ZTIm",
   "self_type" : "_ZTIOm",
   "size" : 8,
   "source_file" : "external/libcxx/include/utility"
  }
 ]
}
