{
 "array_types" :
 [
  {
   "alignment" : 4,
   "linker_set_key" : "_ZTIA1_N3art3dex20AnnotationSetRefItemE",
   "name" : "art::dex::AnnotationSetRefItem [1]",
   "referenced_type" : "_ZTIN3art3dex20AnnotationSetRefItemE",
   "self_type" : "_ZTIA1_N3art3dex20AnnotationSetRefItemE",
   "size" : 4,
   "source_file" : "art/libdexfile/dex/dex_file_structs.h"
  },
  {
   "alignment" : 4,
   "linker_set_key" : "_ZTIA1_N3art3dex7MapItemE",
   "name" : "art::dex::MapItem [1]",
   "referenced_type" : "_ZTIN3art3dex7MapItemE",
   "self_type" : "_ZTIA1_N3art3dex7MapItemE",
   "size" : 12,
   "source_file" : "art/libdexfile/dex/dex_file_structs.h"
  },
  {
   "alignment" : 2,
   "linker_set_key" : "_ZTIA1_N3art3dex8TypeItemE",
   "name" : "art::dex::TypeItem [1]",
   "referenced_type" : "_ZTIN3art3dex8TypeItemE",
   "self_type" : "_ZTIA1_N3art3dex8TypeItemE",
   "size" : 2,
   "source_file" : "art/libdexfile/dex/dex_file_structs.h"
  },
  {
   "alignment" : 1,
   "linker_set_key" : "_ZTIA1_h",
   "name" : "unsigned char [1]",
   "referenced_type" : "_ZTIh",
   "self_type" : "_ZTIA1_h",
   "size" : 1,
   "source_file" : "art/libdexfile/dex/dex_file_structs.h"
  },
  {
   "alignment" : 4,
   "linker_set_key" : "_ZTIA1_j",
   "name" : "unsigned int [1]",
   "referenced_type" : "_ZTIj",
   "self_type" : "_ZTIA1_j",
   "size" : 4,
   "source_file" : "art/libdexfile/dex/dex_file_structs.h"
  },
  {
   "alignment" : 2,
   "linker_set_key" : "_ZTIA1_t",
   "name" : "unsigned short [1]",
   "referenced_type" : "_ZTIt",
   "self_type" : "_ZTIA1_t",
   "size" : 2,
   "source_file" : "art/libdexfile/dex/compact_dex_file.h"
  },
  {
   "alignment" : 1,
   "linker_set_key" : "_ZTIA20_h",
   "name" : "unsigned char [20]",
   "referenced_type" : "_ZTIh",
   "self_type" : "_ZTIA20_h",
   "size" : 20,
   "source_file" : "art/libdexfile/dex/dex_file.h"
  },
  {
   "alignment" : 1,
   "linker_set_key" : "_ZTIA22_c",
   "name" : "char [22]",
   "referenced_type" : "_ZTIc",
   "self_type" : "_ZTIA22_c",
   "size" : 22,
   "source_file" : "art/libartbase/base/file_utils.h"
  },
  {
   "alignment" : 1,
   "linker_set_key" : "_ZTIA23_c",
   "name" : "char [23]",
   "referenced_type" : "_ZTIc",
   "self_type" : "_ZTIA23_c",
   "size" : 23,
   "source_file" : "art/libartbase/base/file_utils.h"
  },
  {
   "alignment" : 1,
   "linker_set_key" : "_ZTIA28_c",
   "name" : "char [28]",
   "referenced_type" : "_ZTIc",
   "self_type" : "_ZTIA28_c",
   "size" : 28,
   "source_file" : "art/libartbase/base/file_utils.h"
  },
  {
   "alignment" : 1,
   "linker_set_key" : "_ZTIA36_c",
   "name" : "char [36]",
   "referenced_type" : "_ZTIc",
   "self_type" : "_ZTIA36_c",
   "size" : 36,
   "source_file" : "art/libartbase/base/file_utils.h"
  },
  {
   "alignment" : 1,
   "linker_set_key" : "_ZTIA4_c",
   "name" : "char [4]",
   "referenced_type" : "_ZTIc",
   "self_type" : "_ZTIA4_c",
   "size" : 4,
   "source_file" : "art/libartbase/base/file_utils.h"
  },
  {
   "alignment" : 1,
   "linker_set_key" : "_ZTIA4_h",
   "name" : "unsigned char [4]",
   "referenced_type" : "_ZTIh",
   "self_type" : "_ZTIA4_h",
   "size" : 4,
   "source_file" : "art/libdexfile/dex/compact_dex_file.h"
  },
  {
   "alignment" : 1,
   "linker_set_key" : "_ZTIA5_A4_h",
   "name" : "unsigned char [5][4]",
   "referenced_type" : "_ZTIA4_h",
   "self_type" : "_ZTIA5_A4_h",
   "size" : 20,
   "source_file" : "art/libdexfile/dex/standard_dex_file.h"
  },
  {
   "alignment" : 1,
   "linker_set_key" : "_ZTIA8_h",
   "name" : "unsigned char [8]",
   "referenced_type" : "_ZTIh",
   "self_type" : "_ZTIA8_h",
   "size" : 8,
   "source_file" : "art/libdexfile/dex/dex_file.h"
  }
 ],
 "builtin_types" :
 [
  {
   "alignment" : 8,
   "linker_set_key" : "_ZTIDn",
   "name" : "nullptr_t",
   "referenced_type" : "_ZTIDn",
   "self_type" : "_ZTIDn",
   "size" : 8
  },
  {
   "alignment" : 1,
   "is_integral" : true,
   "is_unsigned" : true,
   "linker_set_key" : "_ZTIb",
   "name" : "bool",
   "referenced_type" : "_ZTIb",
   "self_type" : "_ZTIb",
   "size" : 1
  },
  {
   "alignment" : 1,
   "is_integral" : true,
   "is_unsigned" : true,
   "linker_set_key" : "_ZTIc",
   "name" : "char",
   "referenced_type" : "_ZTIc",
   "self_type" : "_ZTIc",
   "size" : 1
  },
  {
   "alignment" : 1,
   "is_integral" : true,
   "is_unsigned" : true,
   "linker_set_key" : "_ZTIh",
   "name" : "unsigned char",
   "referenced_type" : "_ZTIh",
   "self_type" : "_ZTIh",
   "size" : 1
  },
  {
   "alignment" : 4,
   "is_integral" : true,
   "linker_set_key" : "_ZTIi",
   "name" : "int",
   "referenced_type" : "_ZTIi",
   "self_type" : "_ZTIi",
   "size" : 4
  },
  {
   "alignment" : 4,
   "is_integral" : true,
   "is_unsigned" : true,
   "linker_set_key" : "_ZTIj",
   "name" : "unsigned int",
   "referenced_type" : "_ZTIj",
   "self_type" : "_ZTIj",
   "size" : 4
  },
  {
   "alignment" : 8,
   "is_integral" : true,
   "linker_set_key" : "_ZTIl",
   "name" : "long",
   "referenced_type" : "_ZTIl",
   "self_type" : "_ZTIl",
   "size" : 8
  },
  {
   "alignment" : 8,
   "is_integral" : true,
   "is_unsigned" : true,
   "linker_set_key" : "_ZTIm",
   "name" : "unsigned long",
   "referenced_type" : "_ZTIm",
   "self_type" : "_ZTIm",
   "size" : 8
  },
  {
   "alignment" : 2,
   "is_integral" : true,
   "is_unsigned" : true,
   "linker_set_key" : "_ZTIt",
   "name" : "unsigned short",
   "referenced_type" : "_ZTIt",
   "self_type" : "_ZTIt",
   "size" : 2
  },
  {
   "linker_set_key" : "_ZTIv",
   "name" : "void",
   "referenced_type" : "_ZTIv",
   "self_type" : "_ZTIv"
  }
 ],
 "elf_functions" : [],
 "elf_objects" : [],
 "enum_types" :
 [
  {
   "alignment" : 8,
   "enum_fields" :
   [
    {
     "enum_field_value" : 4,
     "name" : "art::PointerSize::k32"
    },
    {
     "enum_field_value" : 8,
     "name" : "art::PointerSize::k64"
    }
   ],
   "linker_set_key" : "_ZTIN3art11PointerSizeE",
   "name" : "art::PointerSize",
   "referenced_type" : "_ZTIN3art11PointerSizeE",
   "self_type" : "_ZTIN3art11PointerSizeE",
   "size" : 8,
   "source_file" : "art/libartbase/base/enums.h",
   "underlying_type" : "_ZTIm"
  },
  {
   "access" : "protected",
   "alignment" : 4,
   "enum_fields" :
   [
    {
     "enum_field_value" : 0,
     "name" : "art::DexFileLoader::VerifyResult::kVerifyNotAttempted"
    },
    {
     "enum_field_value" : 1,
     "name" : "art::DexFileLoader::VerifyResult::kVerifySucceeded"
    },
    {
     "enum_field_value" : 2,
     "name" : "art::DexFileLoader::VerifyResult::kVerifyFailed"
    }
   ],
   "linker_set_key" : "_ZTIN3art13DexFileLoader12VerifyResultE",
   "name" : "art::DexFileLoader::VerifyResult",
   "referenced_type" : "_ZTIN3art13DexFileLoader12VerifyResultE",
   "self_type" : "_ZTIN3art13DexFileLoader12VerifyResultE",
   "size" : 4,
   "source_file" : "art/libdexfile/dex/dex_file_loader.h",
   "underlying_type" : "_ZTIi"
  },
  {
   "alignment" : 4,
   "enum_fields" :
   [
    {
     "enum_field_value" : 1,
     "name" : "art::CompactDexFile::FeatureFlags::kDefaultMethods"
    }
   ],
   "linker_set_key" : "_ZTIN3art14CompactDexFile12FeatureFlagsE",
   "name" : "art::CompactDexFile::FeatureFlags",
   "referenced_type" : "_ZTIN3art14CompactDexFile12FeatureFlagsE",
   "self_type" : "_ZTIN3art14CompactDexFile12FeatureFlagsE",
   "size" : 4,
   "source_file" : "art/libdexfile/dex/compact_dex_file.h",
   "underlying_type" : "_ZTIj"
  },
  {
   "alignment" : 4,
   "enum_fields" :
   [
    {
     "enum_field_value" : 0,
     "name" : "art::InstructionSet::kNone"
    },
    {
     "enum_field_value" : 1,
     "name" : "art::InstructionSet::kArm"
    },
    {
     "enum_field_value" : 2,
     "name" : "art::InstructionSet::kArm64"
    },
    {
     "enum_field_value" : 3,
     "name" : "art::InstructionSet::kThumb2"
    },
    {
     "enum_field_value" : 4,
     "name" : "art::InstructionSet::kX86"
    },
    {
     "enum_field_value" : 5,
     "name" : "art::InstructionSet::kX86_64"
    },
    {
     "enum_field_value" : 5,
     "name" : "art::InstructionSet::kLast"
    }
   ],
   "linker_set_key" : "_ZTIN3art14InstructionSetE",
   "name" : "art::InstructionSet",
   "referenced_type" : "_ZTIN3art14InstructionSetE",
   "self_type" : "_ZTIN3art14InstructionSetE",
   "size" : 4,
   "source_file" : "art/libartbase/arch/instruction_set.h",
   "underlying_type" : "_ZTIi"
  },
  {
   "alignment" : 4,
   "enum_fields" :
   [
    {
     "enum_field_value" : 0,
     "name" : "art::DexFileLoaderErrorCode::kNoError"
    },
    {
     "enum_field_value" : 1,
     "name" : "art::DexFileLoaderErrorCode::kEntryNotFound"
    },
    {
     "enum_field_value" : 2,
     "name" : "art::DexFileLoaderErrorCode::kExtractToMemoryError"
    },
    {
     "enum_field_value" : 3,
     "name" : "art::DexFileLoaderErrorCode::kDexFileError"
    },
    {
     "enum_field_value" : 4,
     "name" : "art::DexFileLoaderErrorCode::kMakeReadOnlyError"
    },
    {
     "enum_field_value" : 5,
     "name" : "art::DexFileLoaderErrorCode::kVerifyError"
    }
   ],
   "linker_set_key" : "_ZTIN3art22DexFileLoaderErrorCodeE",
   "name" : "art::DexFileLoaderErrorCode",
   "referenced_type" : "_ZTIN3art22DexFileLoaderErrorCodeE",
   "self_type" : "_ZTIN3art22DexFileLoaderErrorCodeE",
   "size" : 4,
   "source_file" : "art/libdexfile/dex/dex_file_loader.h",
   "underlying_type" : "_ZTIi"
  },
  {
   "alignment" : 4,
   "enum_fields" :
   [
    {
     "enum_field_value" : 0,
     "name" : "art::EncodedArrayValueIterator::kByte"
    },
    {
     "enum_field_value" : 2,
     "name" : "art::EncodedArrayValueIterator::kShort"
    },
    {
     "enum_field_value" : 3,
     "name" : "art::EncodedArrayValueIterator::kChar"
    },
    {
     "enum_field_value" : 4,
     "name" : "art::EncodedArrayValueIterator::kInt"
    },
    {
     "enum_field_value" : 6,
     "name" : "art::EncodedArrayValueIterator::kLong"
    },
    {
     "enum_field_value" : 16,
     "name" : "art::EncodedArrayValueIterator::kFloat"
    },
    {
     "enum_field_value" : 17,
     "name" : "art::EncodedArrayValueIterator::kDouble"
    },
    {
     "enum_field_value" : 21,
     "name" : "art::EncodedArrayValueIterator::kMethodType"
    },
    {
     "enum_field_value" : 22,
     "name" : "art::EncodedArrayValueIterator::kMethodHandle"
    },
    {
     "enum_field_value" : 23,
     "name" : "art::EncodedArrayValueIterator::kString"
    },
    {
     "enum_field_value" : 24,
     "name" : "art::EncodedArrayValueIterator::kType"
    },
    {
     "enum_field_value" : 25,
     "name" : "art::EncodedArrayValueIterator::kField"
    },
    {
     "enum_field_value" : 26,
     "name" : "art::EncodedArrayValueIterator::kMethod"
    },
    {
     "enum_field_value" : 27,
     "name" : "art::EncodedArrayValueIterator::kEnum"
    },
    {
     "enum_field_value" : 28,
     "name" : "art::EncodedArrayValueIterator::kArray"
    },
    {
     "enum_field_value" : 29,
     "name" : "art::EncodedArrayValueIterator::kAnnotation"
    },
    {
     "enum_field_value" : 30,
     "name" : "art::EncodedArrayValueIterator::kNull"
    },
    {
     "enum_field_value" : 31,
     "name" : "art::EncodedArrayValueIterator::kBoolean"
    }
   ],
   "linker_set_key" : "_ZTIN3art25EncodedArrayValueIterator9ValueTypeE",
   "name" : "art::EncodedArrayValueIterator::ValueType",
   "referenced_type" : "_ZTIN3art25EncodedArrayValueIterator9ValueTypeE",
   "self_type" : "_ZTIN3art25EncodedArrayValueIterator9ValueTypeE",
   "size" : 4,
   "source_file" : "art/libdexfile/dex/dex_file.h",
   "underlying_type" : "_ZTIj"
  },
  {
   "alignment" : 2,
   "enum_fields" :
   [
    {
     "enum_field_value" : 0,
     "name" : "art::DexFile::kDexTypeHeaderItem"
    },
    {
     "enum_field_value" : 1,
     "name" : "art::DexFile::kDexTypeStringIdItem"
    },
    {
     "enum_field_value" : 2,
     "name" : "art::DexFile::kDexTypeTypeIdItem"
    },
    {
     "enum_field_value" : 3,
     "name" : "art::DexFile::kDexTypeProtoIdItem"
    },
    {
     "enum_field_value" : 4,
     "name" : "art::DexFile::kDexTypeFieldIdItem"
    },
    {
     "enum_field_value" : 5,
     "name" : "art::DexFile::kDexTypeMethodIdItem"
    },
    {
     "enum_field_value" : 6,
     "name" : "art::DexFile::kDexTypeClassDefItem"
    },
    {
     "enum_field_value" : 7,
     "name" : "art::DexFile::kDexTypeCallSiteIdItem"
    },
    {
     "enum_field_value" : 8,
     "name" : "art::DexFile::kDexTypeMethodHandleItem"
    },
    {
     "enum_field_value" : 4096,
     "name" : "art::DexFile::kDexTypeMapList"
    },
    {
     "enum_field_value" : 4097,
     "name" : "art::DexFile::kDexTypeTypeList"
    },
    {
     "enum_field_value" : 4098,
     "name" : "art::DexFile::kDexTypeAnnotationSetRefList"
    },
    {
     "enum_field_value" : 4099,
     "name" : "art::DexFile::kDexTypeAnnotationSetItem"
    },
    {
     "enum_field_value" : 8192,
     "name" : "art::DexFile::kDexTypeClassDataItem"
    },
    {
     "enum_field_value" : 8193,
     "name" : "art::DexFile::kDexTypeCodeItem"
    },
    {
     "enum_field_value" : 8194,
     "name" : "art::DexFile::kDexTypeStringDataItem"
    },
    {
     "enum_field_value" : 8195,
     "name" : "art::DexFile::kDexTypeDebugInfoItem"
    },
    {
     "enum_field_value" : 8196,
     "name" : "art::DexFile::kDexTypeAnnotationItem"
    },
    {
     "enum_field_value" : 8197,
     "name" : "art::DexFile::kDexTypeEncodedArrayItem"
    },
    {
     "enum_field_value" : 8198,
     "name" : "art::DexFile::kDexTypeAnnotationsDirectoryItem"
    },
    {
     "enum_field_value" : 61440,
     "name" : "art::DexFile::kDexTypeHiddenapiClassData"
    }
   ],
   "linker_set_key" : "_ZTIN3art7DexFile11MapItemTypeE",
   "name" : "art::DexFile::MapItemType",
   "referenced_type" : "_ZTIN3art7DexFile11MapItemTypeE",
   "self_type" : "_ZTIN3art7DexFile11MapItemTypeE",
   "size" : 2,
   "source_file" : "art/libdexfile/dex/dex_file.h",
   "underlying_type" : "_ZTIt"
  },
  {
   "alignment" : 2,
   "enum_fields" :
   [
    {
     "enum_field_value" : 0,
     "name" : "art::DexFile::MethodHandleType::kStaticPut"
    },
    {
     "enum_field_value" : 1,
     "name" : "art::DexFile::MethodHandleType::kStaticGet"
    },
    {
     "enum_field_value" : 2,
     "name" : "art::DexFile::MethodHandleType::kInstancePut"
    },
    {
     "enum_field_value" : 3,
     "name" : "art::DexFile::MethodHandleType::kInstanceGet"
    },
    {
     "enum_field_value" : 4,
     "name" : "art::DexFile::MethodHandleType::kInvokeStatic"
    },
    {
     "enum_field_value" : 5,
     "name" : "art::DexFile::MethodHandleType::kInvokeInstance"
    },
    {
     "enum_field_value" : 6,
     "name" : "art::DexFile::MethodHandleType::kInvokeConstructor"
    },
    {
     "enum_field_value" : 7,
     "name" : "art::DexFile::MethodHandleType::kInvokeDirect"
    },
    {
     "enum_field_value" : 8,
     "name" : "art::DexFile::MethodHandleType::kInvokeInterface"
    },
    {
     "enum_field_value" : 8,
     "name" : "art::DexFile::MethodHandleType::kLast"
    }
   ],
   "linker_set_key" : "_ZTIN3art7DexFile16MethodHandleTypeE",
   "name" : "art::DexFile::MethodHandleType",
   "referenced_type" : "_ZTIN3art7DexFile16MethodHandleTypeE",
   "self_type" : "_ZTIN3art7DexFile16MethodHandleTypeE",
   "size" : 2,
   "source_file" : "art/libdexfile/dex/dex_file.h",
   "underlying_type" : "_ZTIt"
  },
  {
   "alignment" : 4,
   "enum_fields" :
   [
    {
     "enum_field_value" : 0,
     "name" : "art::DexFile::DBG_END_SEQUENCE"
    },
    {
     "enum_field_value" : 1,
     "name" : "art::DexFile::DBG_ADVANCE_PC"
    },
    {
     "enum_field_value" : 2,
     "name" : "art::DexFile::DBG_ADVANCE_LINE"
    },
    {
     "enum_field_value" : 3,
     "name" : "art::DexFile::DBG_START_LOCAL"
    },
    {
     "enum_field_value" : 4,
     "name" : "art::DexFile::DBG_START_LOCAL_EXTENDED"
    },
    {
     "enum_field_value" : 5,
     "name" : "art::DexFile::DBG_END_LOCAL"
    },
    {
     "enum_field_value" : 6,
     "name" : "art::DexFile::DBG_RESTART_LOCAL"
    },
    {
     "enum_field_value" : 7,
     "name" : "art::DexFile::DBG_SET_PROLOGUE_END"
    },
    {
     "enum_field_value" : 8,
     "name" : "art::DexFile::DBG_SET_EPILOGUE_BEGIN"
    },
    {
     "enum_field_value" : 9,
     "name" : "art::DexFile::DBG_SET_FILE"
    },
    {
     "enum_field_value" : 10,
     "name" : "art::DexFile::DBG_FIRST_SPECIAL"
    },
    {
     "enum_field_value" : -4,
     "name" : "art::DexFile::DBG_LINE_BASE"
    },
    {
     "enum_field_value" : 15,
     "name" : "art::DexFile::DBG_LINE_RANGE"
    }
   ],
   "linker_set_key" : "_ZTIN3art7DexFile17$DBG_ADVANCE_LINEE",
   "name" : "art::DexFile::(anonymous enum at art/libdexfile/dex/dex_file.h:653:3)",
   "referenced_type" : "_ZTIN3art7DexFile17$DBG_ADVANCE_LINEE",
   "self_type" : "_ZTIN3art7DexFile17$DBG_ADVANCE_LINEE",
   "size" : 4,
   "source_file" : "art/libdexfile/dex/dex_file.h",
   "underlying_type" : "_ZTIi"
  },
  {
   "alignment" : 4,
   "enum_fields" :
   [
    {
     "enum_field_value" : 0,
     "name" : "art::DexFile::kAllObjects"
    },
    {
     "enum_field_value" : 1,
     "name" : "art::DexFile::kPrimitivesOrObjects"
    },
    {
     "enum_field_value" : 2,
     "name" : "art::DexFile::kAllRaw"
    }
   ],
   "linker_set_key" : "_ZTIN3art7DexFile21AnnotationResultStyleE",
   "name" : "art::DexFile::AnnotationResultStyle",
   "referenced_type" : "_ZTIN3art7DexFile21AnnotationResultStyleE",
   "self_type" : "_ZTIN3art7DexFile21AnnotationResultStyleE",
   "size" : 4,
   "source_file" : "art/libdexfile/dex/dex_file.h",
   "underlying_type" : "_ZTIj"
  },
  {
   "alignment" : 4,
   "enum_fields" :
   [
    {
     "enum_field_value" : 0,
     "name" : "art::DexFile::kDexVisibilityBuild"
    },
    {
     "enum_field_value" : 1,
     "name" : "art::DexFile::kDexVisibilityRuntime"
    },
    {
     "enum_field_value" : 2,
     "name" : "art::DexFile::kDexVisibilitySystem"
    },
    {
     "enum_field_value" : 0,
     "name" : "art::DexFile::kDexAnnotationByte"
    },
    {
     "enum_field_value" : 2,
     "name" : "art::DexFile::kDexAnnotationShort"
    },
    {
     "enum_field_value" : 3,
     "name" : "art::DexFile::kDexAnnotationChar"
    },
    {
     "enum_field_value" : 4,
     "name" : "art::DexFile::kDexAnnotationInt"
    },
    {
     "enum_field_value" : 6,
     "name" : "art::DexFile::kDexAnnotationLong"
    },
    {
     "enum_field_value" : 16,
     "name" : "art::DexFile::kDexAnnotationFloat"
    },
    {
     "enum_field_value" : 17,
     "name" : "art::DexFile::kDexAnnotationDouble"
    },
    {
     "enum_field_value" : 21,
     "name" : "art::DexFile::kDexAnnotationMethodType"
    },
    {
     "enum_field_value" : 22,
     "name" : "art::DexFile::kDexAnnotationMethodHandle"
    },
    {
     "enum_field_value" : 23,
     "name" : "art::DexFile::kDexAnnotationString"
    },
    {
     "enum_field_value" : 24,
     "name" : "art::DexFile::kDexAnnotationType"
    },
    {
     "enum_field_value" : 25,
     "name" : "art::DexFile::kDexAnnotationField"
    },
    {
     "enum_field_value" : 26,
     "name" : "art::DexFile::kDexAnnotationMethod"
    },
    {
     "enum_field_value" : 27,
     "name" : "art::DexFile::kDexAnnotationEnum"
    },
    {
     "enum_field_value" : 28,
     "name" : "art::DexFile::kDexAnnotationArray"
    },
    {
     "enum_field_value" : 29,
     "name" : "art::DexFile::kDexAnnotationAnnotation"
    },
    {
     "enum_field_value" : 30,
     "name" : "art::DexFile::kDexAnnotationNull"
    },
    {
     "enum_field_value" : 31,
     "name" : "art::DexFile::kDexAnnotationBoolean"
    },
    {
     "enum_field_value" : 31,
     "name" : "art::DexFile::kDexAnnotationValueTypeMask"
    },
    {
     "enum_field_value" : 5,
     "name" : "art::DexFile::kDexAnnotationValueArgShift"
    }
   ],
   "linker_set_key" : "_ZTIN3art7DexFile25$kDexAnnotationAnnotationE",
   "name" : "art::DexFile::(anonymous enum at art/libdexfile/dex/dex_file.h:162:3)",
   "referenced_type" : "_ZTIN3art7DexFile25$kDexAnnotationAnnotationE",
   "self_type" : "_ZTIN3art7DexFile25$kDexAnnotationAnnotationE",
   "size" : 4,
   "source_file" : "art/libdexfile/dex/dex_file.h",
   "underlying_type" : "_ZTIj"
  },
  {
   "alignment" : 4,
   "enum_fields" :
   [
    {
     "enum_field_value" : 0,
     "name" : "android::base::VERBOSE"
    },
    {
     "enum_field_value" : 1,
     "name" : "android::base::DEBUG"
    },
    {
     "enum_field_value" : 2,
     "name" : "android::base::INFO"
    },
    {
     "enum_field_value" : 3,
     "name" : "android::base::WARNING"
    },
    {
     "enum_field_value" : 4,
     "name" : "android::base::ERROR"
    },
    {
     "enum_field_value" : 5,
     "name" : "android::base::FATAL_WITHOUT_ABORT"
    },
    {
     "enum_field_value" : 6,
     "name" : "android::base::FATAL"
    }
   ],
   "linker_set_key" : "_ZTIN7android4base11LogSeverityE",
   "name" : "android::base::LogSeverity",
   "referenced_type" : "_ZTIN7android4base11LogSeverityE",
   "self_type" : "_ZTIN7android4base11LogSeverityE",
   "size" : 4,
   "source_file" : "system/libbase/include/android-base/logging.h",
   "underlying_type" : "_ZTIj"
  },
  {
   "alignment" : 4,
   "enum_fields" :
   [
    {
     "enum_field_value" : 0,
     "name" : "android::base::DEFAULT"
    },
    {
     "enum_field_value" : 1,
     "name" : "android::base::MAIN"
    },
    {
     "enum_field_value" : 2,
     "name" : "android::base::SYSTEM"
    },
    {
     "enum_field_value" : 3,
     "name" : "android::base::RADIO"
    },
    {
     "enum_field_value" : 4,
     "name" : "android::base::CRASH"
    }
   ],
   "linker_set_key" : "_ZTIN7android4base5LogIdE",
   "name" : "android::base::LogId",
   "referenced_type" : "_ZTIN7android4base5LogIdE",
   "self_type" : "_ZTIN7android4base5LogIdE",
   "size" : 4,
   "source_file" : "system/libbase/include/android-base/logging.h",
   "underlying_type" : "_ZTIj"
  },
  {
   "alignment" : 4,
   "enum_fields" :
   [
    {
     "enum_field_value" : 0,
     "name" : "unix_file::FdFile::GuardState::kBase"
    },
    {
     "enum_field_value" : 1,
     "name" : "unix_file::FdFile::GuardState::kFlushed"
    },
    {
     "enum_field_value" : 2,
     "name" : "unix_file::FdFile::GuardState::kClosed"
    },
    {
     "enum_field_value" : 3,
     "name" : "unix_file::FdFile::GuardState::kNoCheck"
    }
   ],
   "linker_set_key" : "_ZTIN9unix_file6FdFile10GuardStateE",
   "name" : "unix_file::FdFile::GuardState",
   "referenced_type" : "_ZTIN9unix_file6FdFile10GuardStateE",
   "self_type" : "_ZTIN9unix_file6FdFile10GuardStateE",
   "size" : 4,
   "source_file" : "art/libartbase/base/unix_file/fd_file.h",
   "underlying_type" : "_ZTIi"
  }
 ],
 "function_types" : [],
 "functions" :
 [
  {
   "access" : "private",
   "function_name" : "art::ZipArchive::ZipArchive",
   "linker_set_key" : "_ZN3art10ZipArchiveC1EP10ZipArchive",
   "parameters" :
   [
    {
     "is_this_ptr" : true,
     "referenced_type" : "_ZTIPN3art10ZipArchiveE"
    },
    {
     "referenced_type" : "_ZTIP10ZipArchive"
    }
   ],
   "return_type" : "_ZTIv",
   "source_file" : "art/libartbase/base/zip_archive.h"
  },
  {
   "access" : "private",
   "function_name" : "art::ZipArchive::ZipArchive",
   "linker_set_key" : "_ZN3art10ZipArchiveC2EP10ZipArchive",
   "parameters" :
   [
    {
     "is_this_ptr" : true,
     "referenced_type" : "_ZTIPN3art10ZipArchiveE"
    },
    {
     "referenced_type" : "_ZTIP10ZipArchive"
    }
   ],
   "return_type" : "_ZTIv",
   "source_file" : "art/libartbase/base/zip_archive.h"
  },
  {
   "function_name" : "art::ATraceBegin",
   "linker_set_key" : "_ZN3art11ATraceBeginEPKc",
   "parameters" :
   [
    {
     "referenced_type" : "_ZTIPKc"
    }
   ],
   "return_type" : "_ZTIv",
   "source_file" : "art/libartbase/base/systrace.h"
  },
  {
   "function_name" : "art::ScopedTrace::ScopedTrace",
   "linker_set_key" : "_ZN3art11ScopedTraceC1EPKc",
   "parameters" :
   [
    {
     "is_this_ptr" : true,
     "referenced_type" : "_ZTIPN3art11ScopedTraceE"
    },
    {
     "referenced_type" : "_ZTIPKc"
    }
   ],
   "return_type" : "_ZTIv",
   "source_file" : "art/libartbase/base/systrace.h"
  },
  {
   "function_name" : "art::ScopedTrace::ScopedTrace",
   "linker_set_key" : "_ZN3art11ScopedTraceC1ERKNSt3__112basic_stringIcNS1_11char_traitsIcEENS1_9allocatorIcEEEE",
   "parameters" :
   [
    {
     "is_this_ptr" : true,
     "referenced_type" : "_ZTIPN3art11ScopedTraceE"
    },
    {
     "referenced_type" : "_ZTIRKNSt3__112basic_stringIcNS_11char_traitsIcEENS_9allocatorIcEEEE"
    }
   ],
   "return_type" : "_ZTIv",
   "source_file" : "art/libartbase/base/systrace.h"
  },
  {
   "function_name" : "art::ScopedTrace::ScopedTrace",
   "linker_set_key" : "_ZN3art11ScopedTraceC2EPKc",
   "parameters" :
   [
    {
     "is_this_ptr" : true,
     "referenced_type" : "_ZTIPN3art11ScopedTraceE"
    },
    {
     "referenced_type" : "_ZTIPKc"
    }
   ],
   "return_type" : "_ZTIv",
   "source_file" : "art/libartbase/base/systrace.h"
  },
  {
   "function_name" : "art::ScopedTrace::ScopedTrace",
   "linker_set_key" : "_ZN3art11ScopedTraceC2ERKNSt3__112basic_stringIcNS1_11char_traitsIcEENS1_9allocatorIcEEEE",
   "parameters" :
   [
    {
     "is_this_ptr" : true,
     "referenced_type" : "_ZTIPN3art11ScopedTraceE"
    },
    {
     "referenced_type" : "_ZTIRKNSt3__112basic_stringIcNS_11char_traitsIcEENS_9allocatorIcEEEE"
    }
   ],
   "return_type" : "_ZTIv",
   "source_file" : "art/libartbase/base/systrace.h"
  },
  {
   "function_name" : "art::ScopedTrace::~ScopedTrace",
   "linker_set_key" : "_ZN3art11ScopedTraceD1Ev",
   "parameters" :
   [
    {
     "is_this_ptr" : true,
     "referenced_type" : "_ZTIPN3art11ScopedTraceE"
    }
   ],
   "return_type" : "_ZTIv",
   "source_file" : "art/libartbase/base/systrace.h"
  },
  {
   "function_name" : "art::ScopedTrace::~ScopedTrace",
   "linker_set_key" : "_ZN3art11ScopedTraceD2Ev",
   "parameters" :
   [
    {
     "is_this_ptr" : true,
     "referenced_type" : "_ZTIPN3art11ScopedTraceE"
    }
   ],
   "return_type" : "_ZTIv",
   "source_file" : "art/libartbase/base/systrace.h"
  },
  {
   "function_name" : "art::SplitString",
   "linker_set_key" : "_ZN3art11SplitStringENSt3__117basic_string_viewIcNS0_11char_traitsIcEEEEc",
   "parameters" :
   [
    {
     "referenced_type" : "_ZTINSt3__117basic_string_viewIcNS_11char_traitsIcEEEE"
    },
    {
     "referenced_type" : "_ZTIc"
    }
   ],
   "return_type" : "_ZTIN3art14IterationRangeINS_15SplitStringIterEEE",
   "source_file" : "art/libartbase/base/stl_util.h"
  },
  {
   "function_name" : "art::ValueObject::operator delete",
   "linker_set_key" : "_ZN3art11ValueObjectdlEPvS1_",
   "parameters" :
   [
    {
     "referenced_type" : "_ZTIPv"
    },
    {
     "referenced_type" : "_ZTIPv"
    }
   ],
   "return_type" : "_ZTIv",
   "source_file" : "art/libartbase/base/value_object.h"
  },
  {
   "function_name" : "art::ValueObject::operator delete",
   "linker_set_key" : "_ZN3art11ValueObjectdlEPvm",
   "parameters" :
   [
    {
     "referenced_type" : "_ZTIPv"
    },
    {
     "referenced_type" : "_ZTIm"
    }
   ],
   "return_type" : "_ZTIv",
   "source_file" : "art/libartbase/base/value_object.h"
  },
  {
   "function_name" : "art::ValueObject::operator new",
   "linker_set_key" : "_ZN3art11ValueObjectnwEmPv",
   "parameters" :
   [
    {
     "referenced_type" : "_ZTIm"
    },
    {
     "referenced_type" : "_ZTIPv"
    }
   ],
   "return_type" : "_ZTIPv",
   "source_file" : "art/libartbase/base/value_object.h"
  },
  {
   "function_name" : "art::ATraceEnabled",
   "linker_set_key" : "_ZN3art13ATraceEnabledEv",
   "return_type" : "_ZTIb",
   "source_file" : "art/libartbase/base/systrace.h"
  },
  {
   "function_name" : "art::DexFileLoader::GetBaseLocation",
   "linker_set_key" : "_ZN3art13DexFileLoader15GetBaseLocationEPKc",
   "parameters" :
   [
    {
     "referenced_type" : "_ZTIPKc"
    }
   ],
   "return_type" : "_ZTINSt3__112basic_stringIcNS_11char_traitsIcEENS_9allocatorIcEEEE",
   "source_file" : "art/libdexfile/dex/dex_file_loader.h"
  },
  {
   "function_name" : "art::DexFileLoader::GetBaseLocation",
   "linker_set_key" : "_ZN3art13DexFileLoader15GetBaseLocationERKNSt3__112basic_stringIcNS1_11char_traitsIcEENS1_9allocatorIcEEEE",
   "parameters" :
   [
    {
     "referenced_type" : "_ZTIRKNSt3__112basic_stringIcNS_11char_traitsIcEENS_9allocatorIcEEEE"
    }
   ],
   "return_type" : "_ZTINSt3__112basic_stringIcNS_11char_traitsIcEENS_9allocatorIcEEEE",
   "source_file" : "art/libdexfile/dex/dex_file_loader.h"
  },
  {
   "function_name" : "art::DexFileLoader::GetMultiDexSuffix",
   "linker_set_key" : "_ZN3art13DexFileLoader17GetMultiDexSuffixERKNSt3__112basic_stringIcNS1_11char_traitsIcEENS1_9allocatorIcEEEE",
   "parameters" :
   [
    {
     "referenced_type" : "_ZTIRKNSt3__112basic_stringIcNS_11char_traitsIcEENS_9allocatorIcEEEE"
    }
   ],
   "return_type" : "_ZTINSt3__112basic_stringIcNS_11char_traitsIcEENS_9allocatorIcEEEE",
   "source_file" : "art/libdexfile/dex/dex_file_loader.h"
  },
  {
   "function_name" : "art::DexFileLoader::~DexFileLoader",
   "linker_set_key" : "_ZN3art13DexFileLoaderD0Ev",
   "parameters" :
   [
    {
     "is_this_ptr" : true,
     "referenced_type" : "_ZTIPN3art13DexFileLoaderE"
    }
   ],
   "return_type" : "_ZTIv",
   "source_file" : "art/libdexfile/dex/dex_file_loader.h"
  },
  {
   "function_name" : "art::DexFileLoader::~DexFileLoader",
   "linker_set_key" : "_ZN3art13DexFileLoaderD1Ev",
   "parameters" :
   [
    {
     "is_this_ptr" : true,
     "referenced_type" : "_ZTIPN3art13DexFileLoaderE"
    }
   ],
   "return_type" : "_ZTIv",
   "source_file" : "art/libdexfile/dex/dex_file_loader.h"
  },
  {
   "function_name" : "art::DexFileLoader::~DexFileLoader",
   "linker_set_key" : "_ZN3art13DexFileLoaderD2Ev",
   "parameters" :
   [
    {
     "is_this_ptr" : true,
     "referenced_type" : "_ZTIPN3art13DexFileLoaderE"
    }
   ],
   "return_type" : "_ZTIv",
   "source_file" : "art/libdexfile/dex/dex_file_loader.h"
  },
  {
   "function_name" : "art::CompactDexFile::Header::At",
   "linker_set_key" : "_ZN3art14CompactDexFile6Header2AtEPKv",
   "parameters" :
   [
    {
     "referenced_type" : "_ZTIPKv"
    }
   ],
   "return_type" : "_ZTIPKN3art14CompactDexFile6HeaderE",
   "source_file" : "art/libdexfile/dex/compact_dex_file.h"
  },
  {
   "function_name" : "art::CompactDexFile::CodeItem::InsnsOffset",
   "linker_set_key" : "_ZN3art14CompactDexFile8CodeItem11InsnsOffsetEv",
   "return_type" : "_ZTIm",
   "source_file" : "art/libdexfile/dex/compact_dex_file.h"
  },
  {
   "function_name" : "art::CompactDexFile::CodeItem::FieldsOffset",
   "linker_set_key" : "_ZN3art14CompactDexFile8CodeItem12FieldsOffsetEv",
   "return_type" : "_ZTIm",
   "source_file" : "art/libdexfile/dex/compact_dex_file.h"
  },
  {
   "access" : "private",
   "function_name" : "art::CompactDexFile::CodeItem::GetPreHeader",
   "linker_set_key" : "_ZN3art14CompactDexFile8CodeItem12GetPreHeaderEv",
   "parameters" :
   [
    {
     "is_this_ptr" : true,
     "referenced_type" : "_ZTIPN3art14CompactDexFile8CodeItemE"
    }
   ],
   "return_type" : "_ZTIPt",
   "source_file" : "art/libdexfile/dex/compact_dex_file.h"
  },
  {
   "access" : "private",
   "function_name" : "art::CompactDexFile::CodeItem::HasAnyPreHeader",
   "linker_set_key" : "_ZN3art14CompactDexFile8CodeItem15HasAnyPreHeaderEt",
   "parameters" :
   [
    {
     "referenced_type" : "_ZTIt"
    }
   ],
   "return_type" : "_ZTIb",
   "source_file" : "art/libdexfile/dex/compact_dex_file.h"
  },
  {
   "function_name" : "art::CompactDexFile::CodeItem::InsnsCountAndFlagsOffset",
   "linker_set_key" : "_ZN3art14CompactDexFile8CodeItem24InsnsCountAndFlagsOffsetEv",
   "return_type" : "_ZTIm",
   "source_file" : "art/libdexfile/dex/compact_dex_file.h"
  },
  {
   "access" : "private",
   "function_name" : "art::CompactDexFile::CodeItem::Create",
   "linker_set_key" : "_ZN3art14CompactDexFile8CodeItem6CreateEttttjPt",
   "parameters" :
   [
    {
     "is_this_ptr" : true,
     "referenced_type" : "_ZTIPN3art14CompactDexFile8CodeItemE"
    },
    {
     "referenced_type" : "_ZTIt"
    },
    {
     "referenced_type" : "_ZTIt"
    },
    {
     "referenced_type" : "_ZTIt"
    },
    {
     "referenced_type" : "_ZTIt"
    },
    {
     "referenced_type" : "_ZTIj"
    },
    {
     "referenced_type" : "_ZTIPt"
    }
   ],
   "return_type" : "_ZTIPt",
   "source_file" : "art/libdexfile/dex/compact_dex_file.h"
  },
  {
   "access" : "private",
   "function_name" : "art::CompactDexFile::CodeItem::CodeItem",
   "linker_set_key" : "_ZN3art14CompactDexFile8CodeItemC1Ev",
   "parameters" :
   [
    {
     "is_this_ptr" : true,
     "referenced_type" : "_ZTIPN3art14CompactDexFile8CodeItemE"
    }
   ],
   "return_type" : "_ZTIv",
   "source_file" : "art/libdexfile/dex/compact_dex_file.h"
  },
  {
   "access" : "private",
   "function_name" : "art::CompactDexFile::CodeItem::CodeItem",
   "linker_set_key" : "_ZN3art14CompactDexFile8CodeItemC2Ev",
   "parameters" :
   [
    {
     "is_this_ptr" : true,
     "referenced_type" : "_ZTIPN3art14CompactDexFile8CodeItemE"
    }
   ],
   "return_type" : "_ZTIv",
   "source_file" : "art/libdexfile/dex/compact_dex_file.h"
  },
  {
   "function_name" : "art::IterationRange<art::SplitStringIter>::IterationRange",
   "linker_set_key" : "_ZN3art14IterationRangeINS_15SplitStringIterEEC1ES1_S1_",
   "parameters" :
   [
    {
     "is_this_ptr" : true,
     "referenced_type" : "_ZTIPN3art14IterationRangeINS_15SplitStringIterEEE"
    },
    {
     "referenced_type" : "_ZTIN3art15SplitStringIterE"
    },
    {
     "referenced_type" : "_ZTIN3art15SplitStringIterE"
    }
   ],
   "return_type" : "_ZTIv",
   "source_file" : "art/libartbase/base/iteration_range.h"
  },
  {
   "function_name" : "art::IterationRange<art::SplitStringIter>::IterationRange",
   "linker_set_key" : "_ZN3art14IterationRangeINS_15SplitStringIterEEC2ES1_S1_",
   "parameters" :
   [
    {
     "is_this_ptr" : true,
     "referenced_type" : "_ZTIPN3art14IterationRangeINS_15SplitStringIterEEE"
    },
    {
     "referenced_type" : "_ZTIN3art15SplitStringIterE"
    },
    {
     "referenced_type" : "_ZTIN3art15SplitStringIterE"
    }
   ],
   "return_type" : "_ZTIv",
   "source_file" : "art/libartbase/base/iteration_range.h"
  },
  {
   "function_name" : "art::IterationRange<art::CountIter>::IterationRange",
   "linker_set_key" : "_ZN3art14IterationRangeINS_9CountIterEEC1ES1_S1_",
   "parameters" :
   [
    {
     "is_this_ptr" : true,
     "referenced_type" : "_ZTIPN3art14IterationRangeINS_9CountIterEEE"
    },
    {
     "referenced_type" : "_ZTIN3art9CountIterE"
    },
    {
     "referenced_type" : "_ZTIN3art9CountIterE"
    }
   ],
   "return_type" : "_ZTIv",
   "source_file" : "art/libartbase/base/iteration_range.h"
  },
  {
   "function_name" : "art::IterationRange<art::CountIter>::IterationRange",
   "linker_set_key" : "_ZN3art14IterationRangeINS_9CountIterEEC2ES1_S1_",
   "parameters" :
   [
    {
     "is_this_ptr" : true,
     "referenced_type" : "_ZTIPN3art14IterationRangeINS_9CountIterEEE"
    },
    {
     "referenced_type" : "_ZTIN3art9CountIterE"
    },
    {
     "referenced_type" : "_ZTIN3art9CountIterE"
    }
   ],
   "return_type" : "_ZTIv",
   "source_file" : "art/libartbase/base/iteration_range.h"
  },
  {
   "function_name" : "art::SplitStringIter::SplitStringIter",
   "linker_set_key" : "_ZN3art15SplitStringIterC1EOS0_",
   "parameters" :
   [
    {
     "is_this_ptr" : true,
     "referenced_type" : "_ZTIPN3art15SplitStringIterE"
    },
    {
     "referenced_type" : "_ZTION3art15SplitStringIterE"
    }
   ],
   "return_type" : "_ZTIv",
   "source_file" : "art/libartbase/base/stl_util.h"
  },
  {
   "function_name" : "art::SplitStringIter::SplitStringIter",
   "linker_set_key" : "_ZN3art15SplitStringIterC1ERKS0_",
   "parameters" :
   [
    {
     "is_this_ptr" : true,
     "referenced_type" : "_ZTIPN3art15SplitStringIterE"
    },
    {
     "referenced_type" : "_ZTIRKN3art15SplitStringIterE"
    }
   ],
   "return_type" : "_ZTIv",
   "source_file" : "art/libartbase/base/stl_util.h"
  },
  {
   "function_name" : "art::SplitStringIter::SplitStringIter",
   "linker_set_key" : "_ZN3art15SplitStringIterC1EmcNSt3__117basic_string_viewIcNS1_11char_traitsIcEEEE",
   "parameters" :
   [
    {
     "is_this_ptr" : true,
     "referenced_type" : "_ZTIPN3art15SplitStringIterE"
    },
    {
     "referenced_type" : "_ZTIm"
    },
    {
     "referenced_type" : "_ZTIc"
    },
    {
     "referenced_type" : "_ZTINSt3__117basic_string_viewIcNS_11char_traitsIcEEEE"
    }
   ],
   "return_type" : "_ZTIv",
   "source_file" : "art/libartbase/base/stl_util.h"
  },
  {
   "function_name" : "art::SplitStringIter::SplitStringIter",
   "linker_set_key" : "_ZN3art15SplitStringIterC2EOS0_",
   "parameters" :
   [
    {
     "is_this_ptr" : true,
     "referenced_type" : "_ZTIPN3art15SplitStringIterE"
    },
    {
     "referenced_type" : "_ZTION3art15SplitStringIterE"
    }
   ],
   "return_type" : "_ZTIv",
   "source_file" : "art/libartbase/base/stl_util.h"
  },
  {
   "function_name" : "art::SplitStringIter::SplitStringIter",
   "linker_set_key" : "_ZN3art15SplitStringIterC2ERKS0_",
   "parameters" :
   [
    {
     "is_this_ptr" : true,
     "referenced_type" : "_ZTIPN3art15SplitStringIterE"
    },
    {
     "referenced_type" : "_ZTIRKN3art15SplitStringIterE"
    }
   ],
   "return_type" : "_ZTIv",
   "source_file" : "art/libartbase/base/stl_util.h"
  },
  {
   "function_name" : "art::SplitStringIter::SplitStringIter",
   "linker_set_key" : "_ZN3art15SplitStringIterC2EmcNSt3__117basic_string_viewIcNS1_11char_traitsIcEEEE",
   "parameters" :
   [
    {
     "is_this_ptr" : true,
     "referenced_type" : "_ZTIPN3art15SplitStringIterE"
    },
    {
     "referenced_type" : "_ZTIm"
    },
    {
     "referenced_type" : "_ZTIc"
    },
    {
     "referenced_type" : "_ZTINSt3__117basic_string_viewIcNS_11char_traitsIcEEEE"
    }
   ],
   "return_type" : "_ZTIv",
   "source_file" : "art/libartbase/base/stl_util.h"
  },
  {
   "function_name" : "art::SplitStringIter::operator=",
   "linker_set_key" : "_ZN3art15SplitStringIteraSEOS0_",
   "parameters" :
   [
    {
     "is_this_ptr" : true,
     "referenced_type" : "_ZTIPN3art15SplitStringIterE"
    },
    {
     "referenced_type" : "_ZTION3art15SplitStringIterE"
    }
   ],
   "return_type" : "_ZTIRN3art15SplitStringIterE",
   "source_file" : "art/libartbase/base/stl_util.h"
  },
  {
   "function_name" : "art::SplitStringIter::operator=",
   "linker_set_key" : "_ZN3art15SplitStringIteraSERKS0_",
   "parameters" :
   [
    {
     "is_this_ptr" : true,
     "referenced_type" : "_ZTIPN3art15SplitStringIterE"
    },
    {
     "referenced_type" : "_ZTIRKN3art15SplitStringIterE"
    }
   ],
   "return_type" : "_ZTIRN3art15SplitStringIterE",
   "source_file" : "art/libartbase/base/stl_util.h"
  },
  {
   "function_name" : "art::SplitStringIter::operator++",
   "linker_set_key" : "_ZN3art15SplitStringIterppEi",
   "parameters" :
   [
    {
     "is_this_ptr" : true,
     "referenced_type" : "_ZTIPN3art15SplitStringIterE"
    },
    {
     "referenced_type" : "_ZTIi"
    }
   ],
   "return_type" : "_ZTIN3art15SplitStringIterE",
   "source_file" : "art/libartbase/base/stl_util.h"
  },
  {
   "function_name" : "art::SplitStringIter::operator++",
   "linker_set_key" : "_ZN3art15SplitStringIterppEv",
   "parameters" :
   [
    {
     "is_this_ptr" : true,
     "referenced_type" : "_ZTIPN3art15SplitStringIterE"
    }
   ],
   "return_type" : "_ZTIRN3art15SplitStringIterE",
   "source_file" : "art/libartbase/base/stl_util.h"
  },
  {
   "function_name" : "art::StandardDexFile::CodeItem::InsnsOffset",
   "linker_set_key" : "_ZN3art15StandardDexFile8CodeItem11InsnsOffsetEv",
   "return_type" : "_ZTIm",
   "source_file" : "art/libdexfile/dex/standard_dex_file.h"
  },
  {
   "function_name" : "art::StandardDexFile::CodeItem::InsSizeOffset",
   "linker_set_key" : "_ZN3art15StandardDexFile8CodeItem13InsSizeOffsetEv",
   "return_type" : "_ZTIm",
   "source_file" : "art/libdexfile/dex/standard_dex_file.h"
  },
  {
   "function_name" : "art::StandardDexFile::CodeItem::OutsSizeOffset",
   "linker_set_key" : "_ZN3art15StandardDexFile8CodeItem14OutsSizeOffsetEv",
   "return_type" : "_ZTIm",
   "source_file" : "art/libdexfile/dex/standard_dex_file.h"
  },
  {
   "function_name" : "art::StandardDexFile::CodeItem::RegistersSizeOffset",
   "linker_set_key" : "_ZN3art15StandardDexFile8CodeItem19RegistersSizeOffsetEv",
   "return_type" : "_ZTIm",
   "source_file" : "art/libdexfile/dex/standard_dex_file.h"
  },
  {
   "access" : "private",
   "function_name" : "art::StandardDexFile::CodeItem::CodeItem",
   "linker_set_key" : "_ZN3art15StandardDexFile8CodeItemC1Ev",
   "parameters" :
   [
    {
     "is_this_ptr" : true,
     "referenced_type" : "_ZTIPN3art15StandardDexFile8CodeItemE"
    }
   ],
   "return_type" : "_ZTIv",
   "source_file" : "art/libdexfile/dex/standard_dex_file.h"
  },
  {
   "access" : "private",
   "function_name" : "art::StandardDexFile::CodeItem::CodeItem",
   "linker_set_key" : "_ZN3art15StandardDexFile8CodeItemC2Ev",
   "parameters" :
   [
    {
     "is_this_ptr" : true,
     "referenced_type" : "_ZTIPN3art15StandardDexFile8CodeItemE"
    }
   ],
   "return_type" : "_ZTIv",
   "source_file" : "art/libdexfile/dex/standard_dex_file.h"
  },
  {
   "access" : "private",
   "function_name" : "art::StandardDexFile::StandardDexFile",
   "linker_set_key" : "_ZN3art15StandardDexFileC1EPKhmRKNSt3__112basic_stringIcNS3_11char_traitsIcEENS3_9allocatorIcEEEEjPKNS_10OatDexFileENS3_10unique_ptrINS_16DexFileContainerENS3_14default_deleteISG_EEEE",
   "parameters" :
   [
    {
     "is_this_ptr" : true,
     "referenced_type" : "_ZTIPN3art15StandardDexFileE"
    },
    {
     "referenced_type" : "_ZTIPKh"
    },
    {
     "referenced_type" : "_ZTIm"
    },
    {
     "referenced_type" : "_ZTIRKNSt3__112basic_stringIcNS_11char_traitsIcEENS_9allocatorIcEEEE"
    },
    {
     "referenced_type" : "_ZTIj"
    },
    {
     "referenced_type" : "_ZTIPKN3art10OatDexFileE"
    },
    {
     "referenced_type" : "_ZTINSt3__110unique_ptrIN3art16DexFileContainerENS_14default_deleteIS2_EEEE"
    }
   ],
   "return_type" : "_ZTIv",
   "source_file" : "art/libdexfile/dex/standard_dex_file.h"
  },
  {
   "access" : "private",
   "function_name" : "art::StandardDexFile::StandardDexFile",
   "linker_set_key" : "_ZN3art15StandardDexFileC2EPKhmRKNSt3__112basic_stringIcNS3_11char_traitsIcEENS3_9allocatorIcEEEEjPKNS_10OatDexFileENS3_10unique_ptrINS_16DexFileContainerENS3_14default_deleteISG_EEEE",
   "parameters" :
   [
    {
     "is_this_ptr" : true,
     "referenced_type" : "_ZTIPN3art15StandardDexFileE"
    },
    {
     "referenced_type" : "_ZTIPKh"
    },
    {
     "referenced_type" : "_ZTIm"
    },
    {
     "referenced_type" : "_ZTIRKNSt3__112basic_stringIcNS_11char_traitsIcEENS_9allocatorIcEEEE"
    },
    {
     "referenced_type" : "_ZTIj"
    },
    {
     "referenced_type" : "_ZTIPKN3art10OatDexFileE"
    },
    {
     "referenced_type" : "_ZTINSt3__110unique_ptrIN3art16DexFileContainerENS_14default_deleteIS2_EEEE"
    }
   ],
   "return_type" : "_ZTIv",
   "source_file" : "art/libdexfile/dex/standard_dex_file.h"
  },
  {
   "access" : "private",
   "function_name" : "art::ArtDexFileLoader::OpenCommon",
   "linker_set_key" : "_ZN3art16ArtDexFileLoader10OpenCommonEPKhmS2_mRKNSt3__112basic_stringIcNS3_11char_traitsIcEENS3_9allocatorIcEEEEjPKNS_10OatDexFileEbbPS9_NS3_10unique_ptrINS_16DexFileContainerENS3_14default_deleteISH_EEEEPNS_13DexFileLoader12VerifyResultE",
   "parameters" :
   [
    {
     "referenced_type" : "_ZTIPKh"
    },
    {
     "referenced_type" : "_ZTIm"
    },
    {
     "referenced_type" : "_ZTIPKh"
    },
    {
     "referenced_type" : "_ZTIm"
    },
    {
     "referenced_type" : "_ZTIRKNSt3__112basic_stringIcNS_11char_traitsIcEENS_9allocatorIcEEEE"
    },
    {
     "referenced_type" : "_ZTIj"
    },
    {
     "referenced_type" : "_ZTIPKN3art10OatDexFileE"
    },
    {
     "referenced_type" : "_ZTIb"
    },
    {
     "referenced_type" : "_ZTIb"
    },
    {
     "referenced_type" : "_ZTIPNSt3__112basic_stringIcNS_11char_traitsIcEENS_9allocatorIcEEEE"
    },
    {
     "referenced_type" : "_ZTINSt3__110unique_ptrIN3art16DexFileContainerENS_14default_deleteIS2_EEEE"
    },
    {
     "referenced_type" : "_ZTIPN3art13DexFileLoader12VerifyResultE"
    }
   ],
   "return_type" : "_ZTINSt3__110unique_ptrIN3art7DexFileENS_14default_deleteIS2_EEEE",
   "source_file" : "art/libdexfile/dex/art_dex_file_loader.h"
  },
  {
   "function_name" : "art::ArtDexFileLoader::~ArtDexFileLoader",
   "linker_set_key" : "_ZN3art16ArtDexFileLoaderD0Ev",
   "parameters" :
   [
    {
     "is_this_ptr" : true,
     "referenced_type" : "_ZTIPN3art16ArtDexFileLoaderE"
    }
   ],
   "return_type" : "_ZTIv",
   "source_file" : "art/libdexfile/dex/art_dex_file_loader.h"
  },
  {
   "function_name" : "art::ArtDexFileLoader::~ArtDexFileLoader",
   "linker_set_key" : "_ZN3art16ArtDexFileLoaderD1Ev",
   "parameters" :
   [
    {
     "is_this_ptr" : true,
     "referenced_type" : "_ZTIPN3art16ArtDexFileLoaderE"
    }
   ],
   "return_type" : "_ZTIv",
   "source_file" : "art/libdexfile/dex/art_dex_file_loader.h"
  },
  {
   "function_name" : "art::ArtDexFileLoader::~ArtDexFileLoader",
   "linker_set_key" : "_ZN3art16ArtDexFileLoaderD2Ev",
   "parameters" :
   [
    {
     "is_this_ptr" : true,
     "referenced_type" : "_ZTIPN3art16ArtDexFileLoaderE"
    }
   ],
   "return_type" : "_ZTIv",
   "source_file" : "art/libdexfile/dex/art_dex_file_loader.h"
  },
  {
   "function_name" : "art::DexFileContainer::DexFileContainer",
   "linker_set_key" : "_ZN3art16DexFileContainerC2Ev",
   "parameters" :
   [
    {
     "is_this_ptr" : true,
     "referenced_type" : "_ZTIPN3art16DexFileContainerE"
    }
   ],
   "return_type" : "_ZTIv",
   "source_file" : "art/libdexfile/dex/dex_file.h"
  },
  {
   "function_name" : "art::DexFileContainer::~DexFileContainer",
   "linker_set_key" : "_ZN3art16DexFileContainerD0Ev",
   "parameters" :
   [
    {
     "is_this_ptr" : true,
     "referenced_type" : "_ZTIPN3art16DexFileContainerE"
    }
   ],
   "return_type" : "_ZTIv",
   "source_file" : "art/libdexfile/dex/dex_file.h"
  },
  {
   "function_name" : "art::DexFileContainer::~DexFileContainer",
   "linker_set_key" : "_ZN3art16DexFileContainerD1Ev",
   "parameters" :
   [
    {
     "is_this_ptr" : true,
     "referenced_type" : "_ZTIPN3art16DexFileContainerE"
    }
   ],
   "return_type" : "_ZTIv",
   "source_file" : "art/libdexfile/dex/dex_file.h"
  },
  {
   "function_name" : "art::DexFileContainer::~DexFileContainer",
   "linker_set_key" : "_ZN3art16DexFileContainerD2Ev",
   "parameters" :
   [
    {
     "is_this_ptr" : true,
     "referenced_type" : "_ZTIPN3art16DexFileContainerE"
    }
   ],
   "return_type" : "_ZTIv",
   "source_file" : "art/libdexfile/dex/dex_file.h"
  },
  {
   "function_name" : "art::ATraceIntegerValue",
   "linker_set_key" : "_ZN3art18ATraceIntegerValueEPKci",
   "parameters" :
   [
    {
     "referenced_type" : "_ZTIPKc"
    },
    {
     "referenced_type" : "_ZTIi"
    }
   ],
   "return_type" : "_ZTIv",
   "source_file" : "art/libartbase/base/systrace.h"
  },
  {
   "function_name" : "art::IsAbsoluteLocation",
   "linker_set_key" : "_ZN3art18IsAbsoluteLocationERKNSt3__112basic_stringIcNS0_11char_traitsIcEENS0_9allocatorIcEEEE",
   "parameters" :
   [
    {
     "referenced_type" : "_ZTIRKNSt3__112basic_stringIcNS_11char_traitsIcEENS_9allocatorIcEEEE"
    }
   ],
   "return_type" : "_ZTIb",
   "source_file" : "art/libartbase/base/file_utils.h"
  },
  {
   "function_name" : "art::MakeIterationRange",
   "linker_set_key" : "_ZN3art18MakeIterationRangeINS_15SplitStringIterEEENS_14IterationRangeIT_EERKS3_S6_",
   "parameters" :
   [
    {
     "referenced_type" : "_ZTIRKN3art15SplitStringIterE"
    },
    {
     "referenced_type" : "_ZTIRKN3art15SplitStringIterE"
    }
   ],
   "return_type" : "_ZTIN3art14IterationRangeINS_15SplitStringIterEEE",
   "source_file" : "art/libartbase/base/iteration_range.h",
   "template_args" : [ "_ZTIN3art15SplitStringIterE" ]
  },
  {
   "function_name" : "art::ScopedTraceNoStart::ScopedTraceMessageHelper::stream",
   "linker_set_key" : "_ZN3art18ScopedTraceNoStart24ScopedTraceMessageHelper6streamEv",
   "parameters" :
   [
    {
     "is_this_ptr" : true,
     "referenced_type" : "_ZTIPN3art18ScopedTraceNoStart24ScopedTraceMessageHelperE"
    }
   ],
   "return_type" : "_ZTIRNSt3__113basic_ostreamIcNS_11char_traitsIcEEEE",
   "source_file" : "art/libartbase/base/systrace.h"
  },
  {
   "function_name" : "art::ScopedTraceNoStart::ScopedTraceMessageHelper::ScopedTraceMessageHelper",
   "linker_set_key" : "_ZN3art18ScopedTraceNoStart24ScopedTraceMessageHelperC1Ev",
   "parameters" :
   [
    {
     "is_this_ptr" : true,
     "referenced_type" : "_ZTIPN3art18ScopedTraceNoStart24ScopedTraceMessageHelperE"
    }
   ],
   "return_type" : "_ZTIv",
   "source_file" : "art/libartbase/base/systrace.h"
  },
  {
   "function_name" : "art::ScopedTraceNoStart::ScopedTraceMessageHelper::ScopedTraceMessageHelper",
   "linker_set_key" : "_ZN3art18ScopedTraceNoStart24ScopedTraceMessageHelperC2Ev",
   "parameters" :
   [
    {
     "is_this_ptr" : true,
     "referenced_type" : "_ZTIPN3art18ScopedTraceNoStart24ScopedTraceMessageHelperE"
    }
   ],
   "return_type" : "_ZTIv",
   "source_file" : "art/libartbase/base/systrace.h"
  },
  {
   "function_name" : "art::ScopedTraceNoStart::ScopedTraceMessageHelper::~ScopedTraceMessageHelper",
   "linker_set_key" : "_ZN3art18ScopedTraceNoStart24ScopedTraceMessageHelperD1Ev",
   "parameters" :
   [
    {
     "is_this_ptr" : true,
     "referenced_type" : "_ZTIPN3art18ScopedTraceNoStart24ScopedTraceMessageHelperE"
    }
   ],
   "return_type" : "_ZTIv",
   "source_file" : "art/libartbase/base/systrace.h"
  },
  {
   "function_name" : "art::ScopedTraceNoStart::ScopedTraceMessageHelper::~ScopedTraceMessageHelper",
   "linker_set_key" : "_ZN3art18ScopedTraceNoStart24ScopedTraceMessageHelperD2Ev",
   "parameters" :
   [
    {
     "is_this_ptr" : true,
     "referenced_type" : "_ZTIPN3art18ScopedTraceNoStart24ScopedTraceMessageHelperE"
    }
   ],
   "return_type" : "_ZTIv",
   "source_file" : "art/libartbase/base/systrace.h"
  },
  {
   "function_name" : "art::ScopedTraceNoStart::ScopedTraceNoStart",
   "linker_set_key" : "_ZN3art18ScopedTraceNoStartC1Ev",
   "parameters" :
   [
    {
     "is_this_ptr" : true,
     "referenced_type" : "_ZTIPN3art18ScopedTraceNoStartE"
    }
   ],
   "return_type" : "_ZTIv",
   "source_file" : "art/libartbase/base/systrace.h"
  },
  {
   "function_name" : "art::ScopedTraceNoStart::ScopedTraceNoStart",
   "linker_set_key" : "_ZN3art18ScopedTraceNoStartC2Ev",
   "parameters" :
   [
    {
     "is_this_ptr" : true,
     "referenced_type" : "_ZTIPN3art18ScopedTraceNoStartE"
    }
   ],
   "return_type" : "_ZTIv",
   "source_file" : "art/libartbase/base/systrace.h"
  },
  {
   "function_name" : "art::ScopedTraceNoStart::~ScopedTraceNoStart",
   "linker_set_key" : "_ZN3art18ScopedTraceNoStartD1Ev",
   "parameters" :
   [
    {
     "is_this_ptr" : true,
     "referenced_type" : "_ZTIPN3art18ScopedTraceNoStartE"
    }
   ],
   "return_type" : "_ZTIv",
   "source_file" : "art/libartbase/base/systrace.h"
  },
  {
   "function_name" : "art::ScopedTraceNoStart::~ScopedTraceNoStart",
   "linker_set_key" : "_ZN3art18ScopedTraceNoStartD2Ev",
   "parameters" :
   [
    {
     "is_this_ptr" : true,
     "referenced_type" : "_ZTIPN3art18ScopedTraceNoStartE"
    }
   ],
   "return_type" : "_ZTIv",
   "source_file" : "art/libartbase/base/systrace.h"
  },
  {
   "function_name" : "art::Is64BitInstructionSet",
   "linker_set_key" : "_ZN3art21Is64BitInstructionSetENS_14InstructionSetE",
   "parameters" :
   [
    {
     "referenced_type" : "_ZTIN3art14InstructionSetE"
    }
   ],
   "return_type" : "_ZTIb",
   "source_file" : "art/libartbase/arch/instruction_set.h"
  },
  {
   "function_name" : "art::IsValidInstructionSet",
   "linker_set_key" : "_ZN3art21IsValidInstructionSetENS_14InstructionSetE",
   "parameters" :
   [
    {
     "referenced_type" : "_ZTIN3art14InstructionSetE"
    }
   ],
   "return_type" : "_ZTIb",
   "source_file" : "art/libartbase/arch/instruction_set.h"
  },
  {
   "function_name" : "art::dchecked_integral_cast",
   "linker_set_key" : "_ZN3art22dchecked_integral_castIjmEET_T0_",
   "parameters" :
   [
    {
     "referenced_type" : "_ZTIm"
    }
   ],
   "return_type" : "_ZTIj",
   "source_file" : "art/libartbase/base/casts.h",
   "template_args" : [ "_ZTIj", "_ZTIm" ]
  },
  {
   "function_name" : "art::DexFileParameterIterator::GetTypeIdx",
   "linker_set_key" : "_ZN3art24DexFileParameterIterator10GetTypeIdxEv",
   "parameters" :
   [
    {
     "is_this_ptr" : true,
     "referenced_type" : "_ZTIPN3art24DexFileParameterIteratorE"
    }
   ],
   "return_type" : "_ZTIN3art3dex9TypeIndexE",
   "source_file" : "art/libdexfile/dex/dex_file.h"
  },
  {
   "function_name" : "art::DexFileParameterIterator::GetDescriptor",
   "linker_set_key" : "_ZN3art24DexFileParameterIterator13GetDescriptorEv",
   "parameters" :
   [
    {
     "is_this_ptr" : true,
     "referenced_type" : "_ZTIPN3art24DexFileParameterIteratorE"
    }
   ],
   "return_type" : "_ZTIPKc",
   "source_file" : "art/libdexfile/dex/dex_file.h"
  },
  {
   "function_name" : "art::DexFileParameterIterator::Next",
   "linker_set_key" : "_ZN3art24DexFileParameterIterator4NextEv",
   "parameters" :
   [
    {
     "is_this_ptr" : true,
     "referenced_type" : "_ZTIPN3art24DexFileParameterIteratorE"
    }
   ],
   "return_type" : "_ZTIv",
   "source_file" : "art/libdexfile/dex/dex_file.h"
  },
  {
   "function_name" : "art::DexFileParameterIterator::DexFileParameterIterator",
   "linker_set_key" : "_ZN3art24DexFileParameterIteratorC1ERKNS_7DexFileERKNS_3dex7ProtoIdE",
   "parameters" :
   [
    {
     "is_this_ptr" : true,
     "referenced_type" : "_ZTIPN3art24DexFileParameterIteratorE"
    },
    {
     "referenced_type" : "_ZTIRKN3art7DexFileE"
    },
    {
     "referenced_type" : "_ZTIRKN3art3dex7ProtoIdE"
    }
   ],
   "return_type" : "_ZTIv",
   "source_file" : "art/libdexfile/dex/dex_file.h"
  },
  {
   "function_name" : "art::DexFileParameterIterator::DexFileParameterIterator",
   "linker_set_key" : "_ZN3art24DexFileParameterIteratorC2ERKNS_7DexFileERKNS_3dex7ProtoIdE",
   "parameters" :
   [
    {
     "is_this_ptr" : true,
     "referenced_type" : "_ZTIPN3art24DexFileParameterIteratorE"
    },
    {
     "referenced_type" : "_ZTIRKN3art7DexFileE"
    },
    {
     "referenced_type" : "_ZTIRKN3art3dex7ProtoIdE"
    }
   ],
   "return_type" : "_ZTIv",
   "source_file" : "art/libdexfile/dex/dex_file.h"
  },
  {
   "function_name" : "art::InstructionSetPointerSize",
   "linker_set_key" : "_ZN3art25InstructionSetPointerSizeENS_14InstructionSetE",
   "parameters" :
   [
    {
     "referenced_type" : "_ZTIN3art14InstructionSetE"
    }
   ],
   "return_type" : "_ZTIN3art11PointerSizeE",
   "source_file" : "art/libartbase/arch/instruction_set.h"
  },
  {
   "function_name" : "art::CallSiteArrayValueIterator::CallSiteArrayValueIterator",
   "linker_set_key" : "_ZN3art26CallSiteArrayValueIteratorC1ERKNS_7DexFileERKNS_3dex14CallSiteIdItemE",
   "parameters" :
   [
    {
     "is_this_ptr" : true,
     "referenced_type" : "_ZTIPN3art26CallSiteArrayValueIteratorE"
    },
    {
     "referenced_type" : "_ZTIRKN3art7DexFileE"
    },
    {
     "referenced_type" : "_ZTIRKN3art3dex14CallSiteIdItemE"
    }
   ],
   "return_type" : "_ZTIv",
   "source_file" : "art/libdexfile/dex/dex_file.h"
  },
  {
   "function_name" : "art::CallSiteArrayValueIterator::CallSiteArrayValueIterator",
   "linker_set_key" : "_ZN3art26CallSiteArrayValueIteratorC2ERKNS_7DexFileERKNS_3dex14CallSiteIdItemE",
   "parameters" :
   [
    {
     "is_this_ptr" : true,
     "referenced_type" : "_ZTIPN3art26CallSiteArrayValueIteratorE"
    },
    {
     "referenced_type" : "_ZTIRKN3art7DexFileE"
    },
    {
     "referenced_type" : "_ZTIRKN3art3dex14CallSiteIdItemE"
    }
   ],
   "return_type" : "_ZTIv",
   "source_file" : "art/libdexfile/dex/dex_file.h"
  },
  {
   "function_name" : "art::GetBytesPerFprSpillLocation",
   "linker_set_key" : "_ZN3art27GetBytesPerFprSpillLocationENS_14InstructionSetE",
   "parameters" :
   [
    {
     "referenced_type" : "_ZTIN3art14InstructionSetE"
    }
   ],
   "return_type" : "_ZTIm",
   "source_file" : "art/libartbase/arch/instruction_set.h"
  },
  {
   "function_name" : "art::GetBytesPerGprSpillLocation",
   "linker_set_key" : "_ZN3art27GetBytesPerGprSpillLocationENS_14InstructionSetE",
   "parameters" :
   [
    {
     "referenced_type" : "_ZTIN3art14InstructionSetE"
    }
   ],
   "return_type" : "_ZTIm",
   "source_file" : "art/libartbase/arch/instruction_set.h"
  },
  {
   "function_name" : "art::GetInstructionSetPointerSize",
   "linker_set_key" : "_ZN3art28GetInstructionSetPointerSizeENS_14InstructionSetE",
   "parameters" :
   [
    {
     "referenced_type" : "_ZTIN3art14InstructionSetE"
    }
   ],
   "return_type" : "_ZTIN3art11PointerSizeE",
   "source_file" : "art/libartbase/arch/instruction_set.h"
  },
  {
   "function_name" : "art::GetStackOverflowReservedBytes",
   "linker_set_key" : "_ZN3art29GetStackOverflowReservedBytesENS_14InstructionSetE",
   "parameters" :
   [
    {
     "referenced_type" : "_ZTIN3art14InstructionSetE"
    }
   ],
   "return_type" : "_ZTIm",
   "source_file" : "art/libartbase/arch/instruction_set.h"
  },
  {
   "function_name" : "art::EncodedStaticFieldValueIterator::EncodedStaticFieldValueIterator",
   "linker_set_key" : "_ZN3art31EncodedStaticFieldValueIteratorC1ERKNS_7DexFileERKNS_3dex8ClassDefE",
   "parameters" :
   [
    {
     "is_this_ptr" : true,
     "referenced_type" : "_ZTIPN3art31EncodedStaticFieldValueIteratorE"
    },
    {
     "referenced_type" : "_ZTIRKN3art7DexFileE"
    },
    {
     "referenced_type" : "_ZTIRKN3art3dex8ClassDefE"
    }
   ],
   "return_type" : "_ZTIv",
   "source_file" : "art/libdexfile/dex/dex_file.h"
  },
  {
   "function_name" : "art::EncodedStaticFieldValueIterator::EncodedStaticFieldValueIterator",
   "linker_set_key" : "_ZN3art31EncodedStaticFieldValueIteratorC2ERKNS_7DexFileERKNS_3dex8ClassDefE",
   "parameters" :
   [
    {
     "is_this_ptr" : true,
     "referenced_type" : "_ZTIPN3art31EncodedStaticFieldValueIteratorE"
    },
    {
     "referenced_type" : "_ZTIRKN3art7DexFileE"
    },
    {
     "referenced_type" : "_ZTIRKN3art3dex8ClassDefE"
    }
   ],
   "return_type" : "_ZTIv",
   "source_file" : "art/libdexfile/dex/dex_file.h"
  },
  {
   "function_name" : "art::GetInstructionSetInstructionAlignment",
   "linker_set_key" : "_ZN3art37GetInstructionSetInstructionAlignmentENS_14InstructionSetE",
   "parameters" :
   [
    {
     "referenced_type" : "_ZTIN3art14InstructionSetE"
    }
   ],
   "return_type" : "_ZTIm",
   "source_file" : "art/libartbase/arch/instruction_set.h"
  },
  {
   "function_name" : "art::dex::ProtoIndex::Invalid",
   "linker_set_key" : "_ZN3art3dex10ProtoIndex7InvalidEv",
   "return_type" : "_ZTIN3art3dex10ProtoIndexE",
   "source_file" : "art/libdexfile/dex/dex_file_types.h"
  },
  {
   "function_name" : "art::dex::ProtoIndex::ProtoIndex",
   "linker_set_key" : "_ZN3art3dex10ProtoIndexC1Et",
   "parameters" :
   [
    {
     "is_this_ptr" : true,
     "referenced_type" : "_ZTIPN3art3dex10ProtoIndexE"
    },
    {
     "referenced_type" : "_ZTIt"
    }
   ],
   "return_type" : "_ZTIv",
   "source_file" : "art/libdexfile/dex/dex_file_types.h"
  },
  {
   "function_name" : "art::dex::ProtoIndex::ProtoIndex",
   "linker_set_key" : "_ZN3art3dex10ProtoIndexC1Ev",
   "parameters" :
   [
    {
     "is_this_ptr" : true,
     "referenced_type" : "_ZTIPN3art3dex10ProtoIndexE"
    }
   ],
   "return_type" : "_ZTIv",
   "source_file" : "art/libdexfile/dex/dex_file_types.h"
  },
  {
   "function_name" : "art::dex::ProtoIndex::ProtoIndex",
   "linker_set_key" : "_ZN3art3dex10ProtoIndexC2Et",
   "parameters" :
   [
    {
     "is_this_ptr" : true,
     "referenced_type" : "_ZTIPN3art3dex10ProtoIndexE"
    },
    {
     "referenced_type" : "_ZTIt"
    }
   ],
   "return_type" : "_ZTIv",
   "source_file" : "art/libdexfile/dex/dex_file_types.h"
  },
  {
   "function_name" : "art::dex::ProtoIndex::ProtoIndex",
   "linker_set_key" : "_ZN3art3dex10ProtoIndexC2Ev",
   "parameters" :
   [
    {
     "is_this_ptr" : true,
     "referenced_type" : "_ZTIPN3art3dex10ProtoIndexE"
    }
   ],
   "return_type" : "_ZTIv",
   "source_file" : "art/libdexfile/dex/dex_file_types.h"
  },
  {
   "function_name" : "art::dex::StringIndex::Invalid",
   "linker_set_key" : "_ZN3art3dex11StringIndex7InvalidEv",
   "return_type" : "_ZTIN3art3dex11StringIndexE",
   "source_file" : "art/libdexfile/dex/dex_file_types.h"
  },
  {
   "function_name" : "art::dex::StringIndex::StringIndex",
   "linker_set_key" : "_ZN3art3dex11StringIndexC1Ej",
   "parameters" :
   [
    {
     "is_this_ptr" : true,
     "referenced_type" : "_ZTIPN3art3dex11StringIndexE"
    },
    {
     "referenced_type" : "_ZTIj"
    }
   ],
   "return_type" : "_ZTIv",
   "source_file" : "art/libdexfile/dex/dex_file_types.h"
  },
  {
   "function_name" : "art::dex::StringIndex::StringIndex",
   "linker_set_key" : "_ZN3art3dex11StringIndexC1Ev",
   "parameters" :
   [
    {
     "is_this_ptr" : true,
     "referenced_type" : "_ZTIPN3art3dex11StringIndexE"
    }
   ],
   "return_type" : "_ZTIv",
   "source_file" : "art/libdexfile/dex/dex_file_types.h"
  },
  {
   "function_name" : "art::dex::StringIndex::StringIndex",
   "linker_set_key" : "_ZN3art3dex11StringIndexC2Ej",
   "parameters" :
   [
    {
     "is_this_ptr" : true,
     "referenced_type" : "_ZTIPN3art3dex11StringIndexE"
    },
    {
     "referenced_type" : "_ZTIj"
    }
   ],
   "return_type" : "_ZTIv",
   "source_file" : "art/libdexfile/dex/dex_file_types.h"
  },
  {
   "function_name" : "art::dex::StringIndex::StringIndex",
   "linker_set_key" : "_ZN3art3dex11StringIndexC2Ev",
   "parameters" :
   [
    {
     "is_this_ptr" : true,
     "referenced_type" : "_ZTIPN3art3dex11StringIndexE"
    }
   ],
   "return_type" : "_ZTIv",
   "source_file" : "art/libdexfile/dex/dex_file_types.h"
  },
  {
   "access" : "private",
   "function_name" : "art::dex::TryItem::TryItem",
   "linker_set_key" : "_ZN3art3dex7TryItemC1Ev",
   "parameters" :
   [
    {
     "is_this_ptr" : true,
     "referenced_type" : "_ZTIPN3art3dex7TryItemE"
    }
   ],
   "return_type" : "_ZTIv",
   "source_file" : "art/libdexfile/dex/dex_file_structs.h"
  },
  {
   "access" : "private",
   "function_name" : "art::dex::TryItem::TryItem",
   "linker_set_key" : "_ZN3art3dex7TryItemC2Ev",
   "parameters" :
   [
    {
     "is_this_ptr" : true,
     "referenced_type" : "_ZTIPN3art3dex7TryItemE"
    }
   ],
   "return_type" : "_ZTIv",
   "source_file" : "art/libdexfile/dex/dex_file_structs.h"
  },
  {
   "access" : "protected",
   "function_name" : "art::dex::CodeItem::CodeItem",
   "linker_set_key" : "_ZN3art3dex8CodeItemC1Ev",
   "parameters" :
   [
    {
     "is_this_ptr" : true,
     "referenced_type" : "_ZTIPN3art3dex8CodeItemE"
    }
   ],
   "return_type" : "_ZTIv",
   "source_file" : "art/libdexfile/dex/dex_file_structs.h"
  },
  {
   "access" : "protected",
   "function_name" : "art::dex::CodeItem::CodeItem",
   "linker_set_key" : "_ZN3art3dex8CodeItemC2Ev",
   "parameters" :
   [
    {
     "is_this_ptr" : true,
     "referenced_type" : "_ZTIPN3art3dex8CodeItemE"
    }
   ],
   "return_type" : "_ZTIv",
   "source_file" : "art/libdexfile/dex/dex_file_structs.h"
  },
  {
   "function_name" : "art::dex::DexIndex<unsigned int>::DexIndex",
   "linker_set_key" : "_ZN3art3dex8DexIndexIjEC1Ej",
   "parameters" :
   [
    {
     "is_this_ptr" : true,
     "referenced_type" : "_ZTIPN3art3dex8DexIndexIjEE"
    },
    {
     "referenced_type" : "_ZTIj"
    }
   ],
   "return_type" : "_ZTIv",
   "source_file" : "art/libdexfile/dex/dex_file_types.h"
  },
  {
   "function_name" : "art::dex::DexIndex<unsigned int>::DexIndex",
   "linker_set_key" : "_ZN3art3dex8DexIndexIjEC1Ev",
   "parameters" :
   [
    {
     "is_this_ptr" : true,
     "referenced_type" : "_ZTIPN3art3dex8DexIndexIjEE"
    }
   ],
   "return_type" : "_ZTIv",
   "source_file" : "art/libdexfile/dex/dex_file_types.h"
  },
  {
   "function_name" : "art::dex::DexIndex<unsigned int>::DexIndex",
   "linker_set_key" : "_ZN3art3dex8DexIndexIjEC2Ej",
   "parameters" :
   [
    {
     "is_this_ptr" : true,
     "referenced_type" : "_ZTIPN3art3dex8DexIndexIjEE"
    },
    {
     "referenced_type" : "_ZTIj"
    }
   ],
   "return_type" : "_ZTIv",
   "source_file" : "art/libdexfile/dex/dex_file_types.h"
  },
  {
   "function_name" : "art::dex::DexIndex<unsigned int>::DexIndex",
   "linker_set_key" : "_ZN3art3dex8DexIndexIjEC2Ev",
   "parameters" :
   [
    {
     "is_this_ptr" : true,
     "referenced_type" : "_ZTIPN3art3dex8DexIndexIjEE"
    }
   ],
   "return_type" : "_ZTIv",
   "source_file" : "art/libdexfile/dex/dex_file_types.h"
  },
  {
   "function_name" : "art::dex::DexIndex<unsigned short>::DexIndex",
   "linker_set_key" : "_ZN3art3dex8DexIndexItEC1Et",
   "parameters" :
   [
    {
     "is_this_ptr" : true,
     "referenced_type" : "_ZTIPN3art3dex8DexIndexItEE"
    },
    {
     "referenced_type" : "_ZTIt"
    }
   ],
   "return_type" : "_ZTIv",
   "source_file" : "art/libdexfile/dex/dex_file_types.h"
  },
  {
   "function_name" : "art::dex::DexIndex<unsigned short>::DexIndex",
   "linker_set_key" : "_ZN3art3dex8DexIndexItEC1Ev",
   "parameters" :
   [
    {
     "is_this_ptr" : true,
     "referenced_type" : "_ZTIPN3art3dex8DexIndexItEE"
    }
   ],
   "return_type" : "_ZTIv",
   "source_file" : "art/libdexfile/dex/dex_file_types.h"
  },
  {
   "function_name" : "art::dex::DexIndex<unsigned short>::DexIndex",
   "linker_set_key" : "_ZN3art3dex8DexIndexItEC2Et",
   "parameters" :
   [
    {
     "is_this_ptr" : true,
     "referenced_type" : "_ZTIPN3art3dex8DexIndexItEE"
    },
    {
     "referenced_type" : "_ZTIt"
    }
   ],
   "return_type" : "_ZTIv",
   "source_file" : "art/libdexfile/dex/dex_file_types.h"
  },
  {
   "function_name" : "art::dex::DexIndex<unsigned short>::DexIndex",
   "linker_set_key" : "_ZN3art3dex8DexIndexItEC2Ev",
   "parameters" :
   [
    {
     "is_this_ptr" : true,
     "referenced_type" : "_ZTIPN3art3dex8DexIndexItEE"
    }
   ],
   "return_type" : "_ZTIv",
   "source_file" : "art/libdexfile/dex/dex_file_types.h"
  },
  {
   "function_name" : "art::dex::TypeList::GetListSize",
   "linker_set_key" : "_ZN3art3dex8TypeList11GetListSizeEm",
   "parameters" :
   [
    {
     "referenced_type" : "_ZTIm"
    }
   ],
   "return_type" : "_ZTIm",
   "source_file" : "art/libdexfile/dex/dex_file_structs.h"
  },
  {
   "function_name" : "art::dex::TypeList::GetHeaderSize",
   "linker_set_key" : "_ZN3art3dex8TypeList13GetHeaderSizeEv",
   "return_type" : "_ZTIm",
   "source_file" : "art/libdexfile/dex/dex_file_structs.h"
  },
  {
   "function_name" : "art::dex::TypeIndex::Invalid",
   "linker_set_key" : "_ZN3art3dex9TypeIndex7InvalidEv",
   "return_type" : "_ZTIN3art3dex9TypeIndexE",
   "source_file" : "art/libdexfile/dex/dex_file_types.h"
  },
  {
   "function_name" : "art::dex::TypeIndex::TypeIndex",
   "linker_set_key" : "_ZN3art3dex9TypeIndexC1Et",
   "parameters" :
   [
    {
     "is_this_ptr" : true,
     "referenced_type" : "_ZTIPN3art3dex9TypeIndexE"
    },
    {
     "referenced_type" : "_ZTIt"
    }
   ],
   "return_type" : "_ZTIv",
   "source_file" : "art/libdexfile/dex/dex_file_types.h"
  },
  {
   "function_name" : "art::dex::TypeIndex::TypeIndex",
   "linker_set_key" : "_ZN3art3dex9TypeIndexC1Ev",
   "parameters" :
   [
    {
     "is_this_ptr" : true,
     "referenced_type" : "_ZTIPN3art3dex9TypeIndexE"
    }
   ],
   "return_type" : "_ZTIv",
   "source_file" : "art/libdexfile/dex/dex_file_types.h"
  },
  {
   "function_name" : "art::dex::TypeIndex::TypeIndex",
   "linker_set_key" : "_ZN3art3dex9TypeIndexC2Et",
   "parameters" :
   [
    {
     "is_this_ptr" : true,
     "referenced_type" : "_ZTIPN3art3dex9TypeIndexE"
    },
    {
     "referenced_type" : "_ZTIt"
    }
   ],
   "return_type" : "_ZTIv",
   "source_file" : "art/libdexfile/dex/dex_file_types.h"
  },
  {
   "function_name" : "art::dex::TypeIndex::TypeIndex",
   "linker_set_key" : "_ZN3art3dex9TypeIndexC2Ev",
   "parameters" :
   [
    {
     "is_this_ptr" : true,
     "referenced_type" : "_ZTIPN3art3dex9TypeIndexE"
    }
   ],
   "return_type" : "_ZTIv",
   "source_file" : "art/libdexfile/dex/dex_file_types.h"
  },
  {
   "function_name" : "art::swap",
   "linker_set_key" : "_ZN3art4swapERNS_6MemMapES1_",
   "parameters" :
   [
    {
     "referenced_type" : "_ZTIRN3art6MemMapE"
    },
    {
     "referenced_type" : "_ZTIRN3art6MemMapE"
    }
   ],
   "return_type" : "_ZTIv",
   "source_file" : "art/libartbase/base/mem_map.h"
  },
  {
   "function_name" : "art::MemMap::MapAnonymous",
   "linker_set_key" : "_ZN3art6MemMap12MapAnonymousEPKcmibPNSt3__112basic_stringIcNS3_11char_traitsIcEENS3_9allocatorIcEEEE",
   "parameters" :
   [
    {
     "referenced_type" : "_ZTIPKc"
    },
    {
     "referenced_type" : "_ZTIm"
    },
    {
     "referenced_type" : "_ZTIi"
    },
    {
     "referenced_type" : "_ZTIb"
    },
    {
     "referenced_type" : "_ZTIPNSt3__112basic_stringIcNS_11char_traitsIcEENS_9allocatorIcEEEE"
    }
   ],
   "return_type" : "_ZTIN3art6MemMapE",
   "source_file" : "art/libartbase/base/mem_map.h"
  },
  {
   "function_name" : "art::MemMap::MapAnonymous",
   "linker_set_key" : "_ZN3art6MemMap12MapAnonymousEPKcmibPS0_PNSt3__112basic_stringIcNS4_11char_traitsIcEENS4_9allocatorIcEEEE",
   "parameters" :
   [
    {
     "referenced_type" : "_ZTIPKc"
    },
    {
     "referenced_type" : "_ZTIm"
    },
    {
     "referenced_type" : "_ZTIi"
    },
    {
     "referenced_type" : "_ZTIb"
    },
    {
     "referenced_type" : "_ZTIPN3art6MemMapE"
    },
    {
     "referenced_type" : "_ZTIPNSt3__112basic_stringIcNS_11char_traitsIcEENS_9allocatorIcEEEE"
    }
   ],
   "return_type" : "_ZTIN3art6MemMapE",
   "source_file" : "art/libartbase/base/mem_map.h"
  },
  {
   "function_name" : "art::MemMap::GetMemMapsLock",
   "linker_set_key" : "_ZN3art6MemMap14GetMemMapsLockEv",
   "return_type" : "_ZTIPNSt3__15mutexE",
   "source_file" : "art/libartbase/base/mem_map.h"
  },
  {
   "function_name" : "art::MemMap::Reset",
   "linker_set_key" : "_ZN3art6MemMap5ResetEv",
   "parameters" :
   [
    {
     "is_this_ptr" : true,
     "referenced_type" : "_ZTIPN3art6MemMapE"
    }
   ],
   "return_type" : "_ZTIv",
   "source_file" : "art/libartbase/base/mem_map.h"
  },
  {
   "function_name" : "art::MemMap::Invalid",
   "linker_set_key" : "_ZN3art6MemMap7InvalidEv",
   "return_type" : "_ZTIN3art6MemMapE",
   "source_file" : "art/libartbase/base/mem_map.h"
  },
  {
   "function_name" : "art::MemMap::MapFile",
   "linker_set_key" : "_ZN3art6MemMap7MapFileEmiiilbPKcPNSt3__112basic_stringIcNS3_11char_traitsIcEENS3_9allocatorIcEEEE",
   "parameters" :
   [
    {
     "referenced_type" : "_ZTIm"
    },
    {
     "referenced_type" : "_ZTIi"
    },
    {
     "referenced_type" : "_ZTIi"
    },
    {
     "referenced_type" : "_ZTIi"
    },
    {
     "referenced_type" : "_ZTIl"
    },
    {
     "referenced_type" : "_ZTIb"
    },
    {
     "referenced_type" : "_ZTIPKc"
    },
    {
     "referenced_type" : "_ZTIPNSt3__112basic_stringIcNS_11char_traitsIcEENS_9allocatorIcEEEE"
    }
   ],
   "return_type" : "_ZTIN3art6MemMapE",
   "source_file" : "art/libartbase/base/mem_map.h"
  },
  {
   "function_name" : "art::MemMap::MemMap",
   "linker_set_key" : "_ZN3art6MemMapC1Ev",
   "parameters" :
   [
    {
     "is_this_ptr" : true,
     "referenced_type" : "_ZTIPN3art6MemMapE"
    }
   ],
   "return_type" : "_ZTIv",
   "source_file" : "art/libartbase/base/mem_map.h"
  },
  {
   "function_name" : "art::MemMap::MemMap",
   "linker_set_key" : "_ZN3art6MemMapC2Ev",
   "parameters" :
   [
    {
     "is_this_ptr" : true,
     "referenced_type" : "_ZTIPN3art6MemMapE"
    }
   ],
   "return_type" : "_ZTIv",
   "source_file" : "art/libartbase/base/mem_map.h"
  },
  {
   "function_name" : "art::MemMap::operator=",
   "linker_set_key" : "_ZN3art6MemMapaSEOS0_",
   "parameters" :
   [
    {
     "is_this_ptr" : true,
     "referenced_type" : "_ZTIPN3art6MemMapE"
    },
    {
     "referenced_type" : "_ZTION3art6MemMapE"
    }
   ],
   "return_type" : "_ZTIRN3art6MemMapE",
   "source_file" : "art/libartbase/base/mem_map.h"
  },
  {
   "function_name" : "art::DexFile::PositionInfo::PositionInfo",
   "linker_set_key" : "_ZN3art7DexFile12PositionInfoC1Ev",
   "parameters" :
   [
    {
     "is_this_ptr" : true,
     "referenced_type" : "_ZTIPN3art7DexFile12PositionInfoE"
    }
   ],
   "return_type" : "_ZTIv",
   "source_file" : "art/libdexfile/dex/dex_file.h"
  },
  {
   "function_name" : "art::DexFile::PositionInfo::PositionInfo",
   "linker_set_key" : "_ZN3art7DexFile12PositionInfoC2Ev",
   "parameters" :
   [
    {
     "is_this_ptr" : true,
     "referenced_type" : "_ZTIPN3art7DexFile12PositionInfoE"
    }
   ],
   "return_type" : "_ZTIv",
   "source_file" : "art/libdexfile/dex/dex_file.h"
  },
  {
   "function_name" : "art::DexFile::LocalInfo::LocalInfo",
   "linker_set_key" : "_ZN3art7DexFile9LocalInfoC1Ev",
   "parameters" :
   [
    {
     "is_this_ptr" : true,
     "referenced_type" : "_ZTIPN3art7DexFile9LocalInfoE"
    }
   ],
   "return_type" : "_ZTIv",
   "source_file" : "art/libdexfile/dex/dex_file.h"
  },
  {
   "function_name" : "art::DexFile::LocalInfo::LocalInfo",
   "linker_set_key" : "_ZN3art7DexFile9LocalInfoC2Ev",
   "parameters" :
   [
    {
     "is_this_ptr" : true,
     "referenced_type" : "_ZTIPN3art7DexFile9LocalInfoE"
    }
   ],
   "return_type" : "_ZTIv",
   "source_file" : "art/libdexfile/dex/dex_file.h"
  },
  {
   "access" : "private",
   "function_name" : "art::ZipEntry::ZipEntry",
   "linker_set_key" : "_ZN3art8ZipEntryC1EP10ZipArchiveP8ZipEntryRKNSt3__112basic_stringIcNS5_11char_traitsIcEENS5_9allocatorIcEEEE",
   "parameters" :
   [
    {
     "is_this_ptr" : true,
     "referenced_type" : "_ZTIPN3art8ZipEntryE"
    },
    {
     "referenced_type" : "_ZTIP10ZipArchive"
    },
    {
     "referenced_type" : "_ZTIP8ZipEntry"
    },
    {
     "referenced_type" : "_ZTIRKNSt3__112basic_stringIcNS_11char_traitsIcEENS_9allocatorIcEEEE"
    }
   ],
   "return_type" : "_ZTIv",
   "source_file" : "art/libartbase/base/zip_archive.h"
  },
  {
   "access" : "private",
   "function_name" : "art::ZipEntry::ZipEntry",
   "linker_set_key" : "_ZN3art8ZipEntryC2EP10ZipArchiveP8ZipEntryRKNSt3__112basic_stringIcNS5_11char_traitsIcEENS5_9allocatorIcEEEE",
   "parameters" :
   [
    {
     "is_this_ptr" : true,
     "referenced_type" : "_ZTIPN3art8ZipEntryE"
    },
    {
     "referenced_type" : "_ZTIP10ZipArchive"
    },
    {
     "referenced_type" : "_ZTIP8ZipEntry"
    },
    {
     "referenced_type" : "_ZTIRKNSt3__112basic_stringIcNS_11char_traitsIcEENS_9allocatorIcEEEE"
    }
   ],
   "return_type" : "_ZTIv",
   "source_file" : "art/libartbase/base/zip_archive.h"
  },
  {
   "function_name" : "art::ATraceEnd",
   "linker_set_key" : "_ZN3art9ATraceEndEv",
   "return_type" : "_ZTIv",
   "source_file" : "art/libartbase/base/systrace.h"
  },
  {
   "function_name" : "art::CountIter::CountIter",
   "linker_set_key" : "_ZN3art9CountIterC1Em",
   "parameters" :
   [
    {
     "is_this_ptr" : true,
     "referenced_type" : "_ZTIPN3art9CountIterE"
    },
    {
     "referenced_type" : "_ZTIm"
    }
   ],
   "return_type" : "_ZTIv",
   "source_file" : "art/libartbase/base/stl_util.h"
  },
  {
   "function_name" : "art::CountIter::CountIter",
   "linker_set_key" : "_ZN3art9CountIterC1Ev",
   "parameters" :
   [
    {
     "is_this_ptr" : true,
     "referenced_type" : "_ZTIPN3art9CountIterE"
    }
   ],
   "return_type" : "_ZTIv",
   "source_file" : "art/libartbase/base/stl_util.h"
  },
  {
   "function_name" : "art::CountIter::CountIter",
   "linker_set_key" : "_ZN3art9CountIterC2Em",
   "parameters" :
   [
    {
     "is_this_ptr" : true,
     "referenced_type" : "_ZTIPN3art9CountIterE"
    },
    {
     "referenced_type" : "_ZTIm"
    }
   ],
   "return_type" : "_ZTIv",
   "source_file" : "art/libartbase/base/stl_util.h"
  },
  {
   "function_name" : "art::CountIter::CountIter",
   "linker_set_key" : "_ZN3art9CountIterC2Ev",
   "parameters" :
   [
    {
     "is_this_ptr" : true,
     "referenced_type" : "_ZTIPN3art9CountIterE"
    }
   ],
   "return_type" : "_ZTIv",
   "source_file" : "art/libartbase/base/stl_util.h"
  },
  {
   "function_name" : "art::CountIter::operator++",
   "linker_set_key" : "_ZN3art9CountIterppEi",
   "parameters" :
   [
    {
     "is_this_ptr" : true,
     "referenced_type" : "_ZTIPN3art9CountIterE"
    },
    {
     "referenced_type" : "_ZTIi"
    }
   ],
   "return_type" : "_ZTIN3art9CountIterE",
   "source_file" : "art/libartbase/base/stl_util.h"
  },
  {
   "function_name" : "art::CountIter::operator++",
   "linker_set_key" : "_ZN3art9CountIterppEv",
   "parameters" :
   [
    {
     "is_this_ptr" : true,
     "referenced_type" : "_ZTIPN3art9CountIterE"
    }
   ],
   "return_type" : "_ZTIRN3art9CountIterE",
   "source_file" : "art/libartbase/base/stl_util.h"
  },
  {
   "function_name" : "art::down_cast",
   "linker_set_key" : "_ZN3art9down_castIRKNS_14CompactDexFile6HeaderEKNS_7DexFile6HeaderEEET_RT0_",
   "parameters" :
   [
    {
     "referenced_type" : "_ZTIRKN3art7DexFile6HeaderE"
    }
   ],
   "return_type" : "_ZTIRKN3art14CompactDexFile6HeaderE",
   "source_file" : "art/libartbase/base/casts.h",
   "template_args" : [ "_ZTIRKN3art14CompactDexFile6HeaderE", "_ZTIKN3art7DexFile6HeaderE" ]
  },
  {
   "function_name" : "android::base::log_detail::EagerEvaluator<const art::dex::TypeId *, const art::dex::TypeId *>::EagerEvaluator",
   "linker_set_key" : "_ZN7android4base10log_detail14EagerEvaluatorIPKN3art3dex6TypeIdES7_EC1IS7_RKS7_EEOT_OT0_",
   "parameters" :
   [
    {
     "is_this_ptr" : true,
     "referenced_type" : "_ZTIPN7android4base10log_detail14EagerEvaluatorIPKN3art3dex6TypeIdES7_EE"
    },
    {
     "referenced_type" : "_ZTIOPKN3art3dex6TypeIdE"
    },
    {
     "referenced_type" : "_ZTIRKPKN3art3dex6TypeIdE"
    }
   ],
   "return_type" : "_ZTIv",
   "source_file" : "system/libbase/include/android-base/logging.h",
   "template_args" : [ "_ZTIPKN3art3dex6TypeIdE", "_ZTIRKPKN3art3dex6TypeIdE" ]
  },
  {
   "function_name" : "android::base::log_detail::EagerEvaluator<const art::dex::TypeId *, const art::dex::TypeId *>::EagerEvaluator",
   "linker_set_key" : "_ZN7android4base10log_detail14EagerEvaluatorIPKN3art3dex6TypeIdES7_EC1IS7_S7_EEOT_OT0_",
   "parameters" :
   [
    {
     "is_this_ptr" : true,
     "referenced_type" : "_ZTIPN7android4base10log_detail14EagerEvaluatorIPKN3art3dex6TypeIdES7_EE"
    },
    {
     "referenced_type" : "_ZTIOPKN3art3dex6TypeIdE"
    },
    {
     "referenced_type" : "_ZTIOPKN3art3dex6TypeIdE"
    }
   ],
   "return_type" : "_ZTIv",
   "source_file" : "system/libbase/include/android-base/logging.h",
   "template_args" : [ "_ZTIPKN3art3dex6TypeIdE", "_ZTIPKN3art3dex6TypeIdE" ]
  },
  {
   "function_name" : "android::base::log_detail::EagerEvaluator<const art::dex::TypeId *, const art::dex::TypeId *>::EagerEvaluator",
   "linker_set_key" : "_ZN7android4base10log_detail14EagerEvaluatorIPKN3art3dex6TypeIdES7_EC2IS7_RKS7_EEOT_OT0_",
   "parameters" :
   [
    {
     "is_this_ptr" : true,
     "referenced_type" : "_ZTIPN7android4base10log_detail14EagerEvaluatorIPKN3art3dex6TypeIdES7_EE"
    },
    {
     "referenced_type" : "_ZTIOPKN3art3dex6TypeIdE"
    },
    {
     "referenced_type" : "_ZTIRKPKN3art3dex6TypeIdE"
    }
   ],
   "return_type" : "_ZTIv",
   "source_file" : "system/libbase/include/android-base/logging.h",
   "template_args" : [ "_ZTIPKN3art3dex6TypeIdE", "_ZTIRKPKN3art3dex6TypeIdE" ]
  },
  {
   "function_name" : "android::base::log_detail::EagerEvaluator<const art::dex::TypeId *, const art::dex::TypeId *>::EagerEvaluator",
   "linker_set_key" : "_ZN7android4base10log_detail14EagerEvaluatorIPKN3art3dex6TypeIdES7_EC2IS7_S7_EEOT_OT0_",
   "parameters" :
   [
    {
     "is_this_ptr" : true,
     "referenced_type" : "_ZTIPN7android4base10log_detail14EagerEvaluatorIPKN3art3dex6TypeIdES7_EE"
    },
    {
     "referenced_type" : "_ZTIOPKN3art3dex6TypeIdE"
    },
    {
     "referenced_type" : "_ZTIOPKN3art3dex6TypeIdE"
    }
   ],
   "return_type" : "_ZTIv",
   "source_file" : "system/libbase/include/android-base/logging.h",
   "template_args" : [ "_ZTIPKN3art3dex6TypeIdE", "_ZTIPKN3art3dex6TypeIdE" ]
  },
  {
   "function_name" : "android::base::log_detail::EagerEvaluator<const art::dex::FieldId *, const art::dex::FieldId *>::EagerEvaluator",
   "linker_set_key" : "_ZN7android4base10log_detail14EagerEvaluatorIPKN3art3dex7FieldIdES7_EC1IS7_RKS7_EEOT_OT0_",
   "parameters" :
   [
    {
     "is_this_ptr" : true,
     "referenced_type" : "_ZTIPN7android4base10log_detail14EagerEvaluatorIPKN3art3dex7FieldIdES7_EE"
    },
    {
     "referenced_type" : "_ZTIOPKN3art3dex7FieldIdE"
    },
    {
     "referenced_type" : "_ZTIRKPKN3art3dex7FieldIdE"
    }
   ],
   "return_type" : "_ZTIv",
   "source_file" : "system/libbase/include/android-base/logging.h",
   "template_args" : [ "_ZTIPKN3art3dex7FieldIdE", "_ZTIRKPKN3art3dex7FieldIdE" ]
  },
  {
   "function_name" : "android::base::log_detail::EagerEvaluator<const art::dex::FieldId *, const art::dex::FieldId *>::EagerEvaluator",
   "linker_set_key" : "_ZN7android4base10log_detail14EagerEvaluatorIPKN3art3dex7FieldIdES7_EC1IS7_S7_EEOT_OT0_",
   "parameters" :
   [
    {
     "is_this_ptr" : true,
     "referenced_type" : "_ZTIPN7android4base10log_detail14EagerEvaluatorIPKN3art3dex7FieldIdES7_EE"
    },
    {
     "referenced_type" : "_ZTIOPKN3art3dex7FieldIdE"
    },
    {
     "referenced_type" : "_ZTIOPKN3art3dex7FieldIdE"
    }
   ],
   "return_type" : "_ZTIv",
   "source_file" : "system/libbase/include/android-base/logging.h",
   "template_args" : [ "_ZTIPKN3art3dex7FieldIdE", "_ZTIPKN3art3dex7FieldIdE" ]
  },
  {
   "function_name" : "android::base::log_detail::EagerEvaluator<const art::dex::FieldId *, const art::dex::FieldId *>::EagerEvaluator",
   "linker_set_key" : "_ZN7android4base10log_detail14EagerEvaluatorIPKN3art3dex7FieldIdES7_EC2IS7_RKS7_EEOT_OT0_",
   "parameters" :
   [
    {
     "is_this_ptr" : true,
     "referenced_type" : "_ZTIPN7android4base10log_detail14EagerEvaluatorIPKN3art3dex7FieldIdES7_EE"
    },
    {
     "referenced_type" : "_ZTIOPKN3art3dex7FieldIdE"
    },
    {
     "referenced_type" : "_ZTIRKPKN3art3dex7FieldIdE"
    }
   ],
   "return_type" : "_ZTIv",
   "source_file" : "system/libbase/include/android-base/logging.h",
   "template_args" : [ "_ZTIPKN3art3dex7FieldIdE", "_ZTIRKPKN3art3dex7FieldIdE" ]
  },
  {
   "function_name" : "android::base::log_detail::EagerEvaluator<const art::dex::FieldId *, const art::dex::FieldId *>::EagerEvaluator",
   "linker_set_key" : "_ZN7android4base10log_detail14EagerEvaluatorIPKN3art3dex7FieldIdES7_EC2IS7_S7_EEOT_OT0_",
   "parameters" :
   [
    {
     "is_this_ptr" : true,
     "referenced_type" : "_ZTIPN7android4base10log_detail14EagerEvaluatorIPKN3art3dex7FieldIdES7_EE"
    },
    {
     "referenced_type" : "_ZTIOPKN3art3dex7FieldIdE"
    },
    {
     "referenced_type" : "_ZTIOPKN3art3dex7FieldIdE"
    }
   ],
   "return_type" : "_ZTIv",
   "source_file" : "system/libbase/include/android-base/logging.h",
   "template_args" : [ "_ZTIPKN3art3dex7FieldIdE", "_ZTIPKN3art3dex7FieldIdE" ]
  },
  {
   "function_name" : "android::base::log_detail::EagerEvaluator<const art::dex::ProtoId *, const art::dex::ProtoId *>::EagerEvaluator",
   "linker_set_key" : "_ZN7android4base10log_detail14EagerEvaluatorIPKN3art3dex7ProtoIdES7_EC1IS7_RKS7_EEOT_OT0_",
   "parameters" :
   [
    {
     "is_this_ptr" : true,
     "referenced_type" : "_ZTIPN7android4base10log_detail14EagerEvaluatorIPKN3art3dex7ProtoIdES7_EE"
    },
    {
     "referenced_type" : "_ZTIOPKN3art3dex7ProtoIdE"
    },
    {
     "referenced_type" : "_ZTIRKPKN3art3dex7ProtoIdE"
    }
   ],
   "return_type" : "_ZTIv",
   "source_file" : "system/libbase/include/android-base/logging.h",
   "template_args" : [ "_ZTIPKN3art3dex7ProtoIdE", "_ZTIRKPKN3art3dex7ProtoIdE" ]
  },
  {
   "function_name" : "android::base::log_detail::EagerEvaluator<const art::dex::ProtoId *, const art::dex::ProtoId *>::EagerEvaluator",
   "linker_set_key" : "_ZN7android4base10log_detail14EagerEvaluatorIPKN3art3dex7ProtoIdES7_EC1IS7_S7_EEOT_OT0_",
   "parameters" :
   [
    {
     "is_this_ptr" : true,
     "referenced_type" : "_ZTIPN7android4base10log_detail14EagerEvaluatorIPKN3art3dex7ProtoIdES7_EE"
    },
    {
     "referenced_type" : "_ZTIOPKN3art3dex7ProtoIdE"
    },
    {
     "referenced_type" : "_ZTIOPKN3art3dex7ProtoIdE"
    }
   ],
   "return_type" : "_ZTIv",
   "source_file" : "system/libbase/include/android-base/logging.h",
   "template_args" : [ "_ZTIPKN3art3dex7ProtoIdE", "_ZTIPKN3art3dex7ProtoIdE" ]
  },
  {
   "function_name" : "android::base::log_detail::EagerEvaluator<const art::dex::ProtoId *, const art::dex::ProtoId *>::EagerEvaluator",
   "linker_set_key" : "_ZN7android4base10log_detail14EagerEvaluatorIPKN3art3dex7ProtoIdES7_EC2IS7_RKS7_EEOT_OT0_",
   "parameters" :
   [
    {
     "is_this_ptr" : true,
     "referenced_type" : "_ZTIPN7android4base10log_detail14EagerEvaluatorIPKN3art3dex7ProtoIdES7_EE"
    },
    {
     "referenced_type" : "_ZTIOPKN3art3dex7ProtoIdE"
    },
    {
     "referenced_type" : "_ZTIRKPKN3art3dex7ProtoIdE"
    }
   ],
   "return_type" : "_ZTIv",
   "source_file" : "system/libbase/include/android-base/logging.h",
   "template_args" : [ "_ZTIPKN3art3dex7ProtoIdE", "_ZTIRKPKN3art3dex7ProtoIdE" ]
  },
  {
   "function_name" : "android::base::log_detail::EagerEvaluator<const art::dex::ProtoId *, const art::dex::ProtoId *>::EagerEvaluator",
   "linker_set_key" : "_ZN7android4base10log_detail14EagerEvaluatorIPKN3art3dex7ProtoIdES7_EC2IS7_S7_EEOT_OT0_",
   "parameters" :
   [
    {
     "is_this_ptr" : true,
     "referenced_type" : "_ZTIPN7android4base10log_detail14EagerEvaluatorIPKN3art3dex7ProtoIdES7_EE"
    },
    {
     "referenced_type" : "_ZTIOPKN3art3dex7ProtoIdE"
    },
    {
     "referenced_type" : "_ZTIOPKN3art3dex7ProtoIdE"
    }
   ],
   "return_type" : "_ZTIv",
   "source_file" : "system/libbase/include/android-base/logging.h",
   "template_args" : [ "_ZTIPKN3art3dex7ProtoIdE", "_ZTIPKN3art3dex7ProtoIdE" ]
  },
  {
   "function_name" : "android::base::log_detail::EagerEvaluator<const art::dex::ClassDef *, const art::dex::ClassDef *>::EagerEvaluator",
   "linker_set_key" : "_ZN7android4base10log_detail14EagerEvaluatorIPKN3art3dex8ClassDefES7_EC1IS7_RKS7_EEOT_OT0_",
   "parameters" :
   [
    {
     "is_this_ptr" : true,
     "referenced_type" : "_ZTIPN7android4base10log_detail14EagerEvaluatorIPKN3art3dex8ClassDefES7_EE"
    },
    {
     "referenced_type" : "_ZTIOPKN3art3dex8ClassDefE"
    },
    {
     "referenced_type" : "_ZTIRKPKN3art3dex8ClassDefE"
    }
   ],
   "return_type" : "_ZTIv",
   "source_file" : "system/libbase/include/android-base/logging.h",
   "template_args" : [ "_ZTIPKN3art3dex8ClassDefE", "_ZTIRKPKN3art3dex8ClassDefE" ]
  },
  {
   "function_name" : "android::base::log_detail::EagerEvaluator<const art::dex::ClassDef *, const art::dex::ClassDef *>::EagerEvaluator",
   "linker_set_key" : "_ZN7android4base10log_detail14EagerEvaluatorIPKN3art3dex8ClassDefES7_EC1IS7_S7_EEOT_OT0_",
   "parameters" :
   [
    {
     "is_this_ptr" : true,
     "referenced_type" : "_ZTIPN7android4base10log_detail14EagerEvaluatorIPKN3art3dex8ClassDefES7_EE"
    },
    {
     "referenced_type" : "_ZTIOPKN3art3dex8ClassDefE"
    },
    {
     "referenced_type" : "_ZTIOPKN3art3dex8ClassDefE"
    }
   ],
   "return_type" : "_ZTIv",
   "source_file" : "system/libbase/include/android-base/logging.h",
   "template_args" : [ "_ZTIPKN3art3dex8ClassDefE", "_ZTIPKN3art3dex8ClassDefE" ]
  },
  {
   "function_name" : "android::base::log_detail::EagerEvaluator<const art::dex::ClassDef *, const art::dex::ClassDef *>::EagerEvaluator",
   "linker_set_key" : "_ZN7android4base10log_detail14EagerEvaluatorIPKN3art3dex8ClassDefES7_EC2IS7_RKS7_EEOT_OT0_",
   "parameters" :
   [
    {
     "is_this_ptr" : true,
     "referenced_type" : "_ZTIPN7android4base10log_detail14EagerEvaluatorIPKN3art3dex8ClassDefES7_EE"
    },
    {
     "referenced_type" : "_ZTIOPKN3art3dex8ClassDefE"
    },
    {
     "referenced_type" : "_ZTIRKPKN3art3dex8ClassDefE"
    }
   ],
   "return_type" : "_ZTIv",
   "source_file" : "system/libbase/include/android-base/logging.h",
   "template_args" : [ "_ZTIPKN3art3dex8ClassDefE", "_ZTIRKPKN3art3dex8ClassDefE" ]
  },
  {
   "function_name" : "android::base::log_detail::EagerEvaluator<const art::dex::ClassDef *, const art::dex::ClassDef *>::EagerEvaluator",
   "linker_set_key" : "_ZN7android4base10log_detail14EagerEvaluatorIPKN3art3dex8ClassDefES7_EC2IS7_S7_EEOT_OT0_",
   "parameters" :
   [
    {
     "is_this_ptr" : true,
     "referenced_type" : "_ZTIPN7android4base10log_detail14EagerEvaluatorIPKN3art3dex8ClassDefES7_EE"
    },
    {
     "referenced_type" : "_ZTIOPKN3art3dex8ClassDefE"
    },
    {
     "referenced_type" : "_ZTIOPKN3art3dex8ClassDefE"
    }
   ],
   "return_type" : "_ZTIv",
   "source_file" : "system/libbase/include/android-base/logging.h",
   "template_args" : [ "_ZTIPKN3art3dex8ClassDefE", "_ZTIPKN3art3dex8ClassDefE" ]
  },
  {
   "function_name" : "android::base::log_detail::EagerEvaluator<const art::dex::MethodId *, const art::dex::MethodId *>::EagerEvaluator",
   "linker_set_key" : "_ZN7android4base10log_detail14EagerEvaluatorIPKN3art3dex8MethodIdES7_EC1IS7_RKS7_EEOT_OT0_",
   "parameters" :
   [
    {
     "is_this_ptr" : true,
     "referenced_type" : "_ZTIPN7android4base10log_detail14EagerEvaluatorIPKN3art3dex8MethodIdES7_EE"
    },
    {
     "referenced_type" : "_ZTIOPKN3art3dex8MethodIdE"
    },
    {
     "referenced_type" : "_ZTIRKPKN3art3dex8MethodIdE"
    }
   ],
   "return_type" : "_ZTIv",
   "source_file" : "system/libbase/include/android-base/logging.h",
   "template_args" : [ "_ZTIPKN3art3dex8MethodIdE", "_ZTIRKPKN3art3dex8MethodIdE" ]
  },
  {
   "function_name" : "android::base::log_detail::EagerEvaluator<const art::dex::MethodId *, const art::dex::MethodId *>::EagerEvaluator",
   "linker_set_key" : "_ZN7android4base10log_detail14EagerEvaluatorIPKN3art3dex8MethodIdES7_EC1IS7_S7_EEOT_OT0_",
   "parameters" :
   [
    {
     "is_this_ptr" : true,
     "referenced_type" : "_ZTIPN7android4base10log_detail14EagerEvaluatorIPKN3art3dex8MethodIdES7_EE"
    },
    {
     "referenced_type" : "_ZTIOPKN3art3dex8MethodIdE"
    },
    {
     "referenced_type" : "_ZTIOPKN3art3dex8MethodIdE"
    }
   ],
   "return_type" : "_ZTIv",
   "source_file" : "system/libbase/include/android-base/logging.h",
   "template_args" : [ "_ZTIPKN3art3dex8MethodIdE", "_ZTIPKN3art3dex8MethodIdE" ]
  },
  {
   "function_name" : "android::base::log_detail::EagerEvaluator<const art::dex::MethodId *, const art::dex::MethodId *>::EagerEvaluator",
   "linker_set_key" : "_ZN7android4base10log_detail14EagerEvaluatorIPKN3art3dex8MethodIdES7_EC2IS7_RKS7_EEOT_OT0_",
   "parameters" :
   [
    {
     "is_this_ptr" : true,
     "referenced_type" : "_ZTIPN7android4base10log_detail14EagerEvaluatorIPKN3art3dex8MethodIdES7_EE"
    },
    {
     "referenced_type" : "_ZTIOPKN3art3dex8MethodIdE"
    },
    {
     "referenced_type" : "_ZTIRKPKN3art3dex8MethodIdE"
    }
   ],
   "return_type" : "_ZTIv",
   "source_file" : "system/libbase/include/android-base/logging.h",
   "template_args" : [ "_ZTIPKN3art3dex8MethodIdE", "_ZTIRKPKN3art3dex8MethodIdE" ]
  },
  {
   "function_name" : "android::base::log_detail::EagerEvaluator<const art::dex::MethodId *, const art::dex::MethodId *>::EagerEvaluator",
   "linker_set_key" : "_ZN7android4base10log_detail14EagerEvaluatorIPKN3art3dex8MethodIdES7_EC2IS7_S7_EEOT_OT0_",
   "parameters" :
   [
    {
     "is_this_ptr" : true,
     "referenced_type" : "_ZTIPN7android4base10log_detail14EagerEvaluatorIPKN3art3dex8MethodIdES7_EE"
    },
    {
     "referenced_type" : "_ZTIOPKN3art3dex8MethodIdE"
    },
    {
     "referenced_type" : "_ZTIOPKN3art3dex8MethodIdE"
    }
   ],
   "return_type" : "_ZTIv",
   "source_file" : "system/libbase/include/android-base/logging.h",
   "template_args" : [ "_ZTIPKN3art3dex8MethodIdE", "_ZTIPKN3art3dex8MethodIdE" ]
  },
  {
   "function_name" : "android::base::log_detail::EagerEvaluator<const art::dex::StringId *, const art::dex::StringId *>::EagerEvaluator",
   "linker_set_key" : "_ZN7android4base10log_detail14EagerEvaluatorIPKN3art3dex8StringIdES7_EC1IS7_RKS7_EEOT_OT0_",
   "parameters" :
   [
    {
     "is_this_ptr" : true,
     "referenced_type" : "_ZTIPN7android4base10log_detail14EagerEvaluatorIPKN3art3dex8StringIdES7_EE"
    },
    {
     "referenced_type" : "_ZTIOPKN3art3dex8StringIdE"
    },
    {
     "referenced_type" : "_ZTIRKPKN3art3dex8StringIdE"
    }
   ],
   "return_type" : "_ZTIv",
   "source_file" : "system/libbase/include/android-base/logging.h",
   "template_args" : [ "_ZTIPKN3art3dex8StringIdE", "_ZTIRKPKN3art3dex8StringIdE" ]
  },
  {
   "function_name" : "android::base::log_detail::EagerEvaluator<const art::dex::StringId *, const art::dex::StringId *>::EagerEvaluator",
   "linker_set_key" : "_ZN7android4base10log_detail14EagerEvaluatorIPKN3art3dex8StringIdES7_EC1IS7_S7_EEOT_OT0_",
   "parameters" :
   [
    {
     "is_this_ptr" : true,
     "referenced_type" : "_ZTIPN7android4base10log_detail14EagerEvaluatorIPKN3art3dex8StringIdES7_EE"
    },
    {
     "referenced_type" : "_ZTIOPKN3art3dex8StringIdE"
    },
    {
     "referenced_type" : "_ZTIOPKN3art3dex8StringIdE"
    }
   ],
   "return_type" : "_ZTIv",
   "source_file" : "system/libbase/include/android-base/logging.h",
   "template_args" : [ "_ZTIPKN3art3dex8StringIdE", "_ZTIPKN3art3dex8StringIdE" ]
  },
  {
   "function_name" : "android::base::log_detail::EagerEvaluator<const art::dex::StringId *, const art::dex::StringId *>::EagerEvaluator",
   "linker_set_key" : "_ZN7android4base10log_detail14EagerEvaluatorIPKN3art3dex8StringIdES7_EC2IS7_RKS7_EEOT_OT0_",
   "parameters" :
   [
    {
     "is_this_ptr" : true,
     "referenced_type" : "_ZTIPN7android4base10log_detail14EagerEvaluatorIPKN3art3dex8StringIdES7_EE"
    },
    {
     "referenced_type" : "_ZTIOPKN3art3dex8StringIdE"
    },
    {
     "referenced_type" : "_ZTIRKPKN3art3dex8StringIdE"
    }
   ],
   "return_type" : "_ZTIv",
   "source_file" : "system/libbase/include/android-base/logging.h",
   "template_args" : [ "_ZTIPKN3art3dex8StringIdE", "_ZTIRKPKN3art3dex8StringIdE" ]
  },
  {
   "function_name" : "android::base::log_detail::EagerEvaluator<const art::dex::StringId *, const art::dex::StringId *>::EagerEvaluator",
   "linker_set_key" : "_ZN7android4base10log_detail14EagerEvaluatorIPKN3art3dex8StringIdES7_EC2IS7_S7_EEOT_OT0_",
   "parameters" :
   [
    {
     "is_this_ptr" : true,
     "referenced_type" : "_ZTIPN7android4base10log_detail14EagerEvaluatorIPKN3art3dex8StringIdES7_EE"
    },
    {
     "referenced_type" : "_ZTIOPKN3art3dex8StringIdE"
    },
    {
     "referenced_type" : "_ZTIOPKN3art3dex8StringIdE"
    }
   ],
   "return_type" : "_ZTIv",
   "source_file" : "system/libbase/include/android-base/logging.h",
   "template_args" : [ "_ZTIPKN3art3dex8StringIdE", "_ZTIPKN3art3dex8StringIdE" ]
  },
  {
   "function_name" : "android::base::log_detail::EagerEvaluator<unsigned int, unsigned int>::EagerEvaluator",
   "linker_set_key" : "_ZN7android4base10log_detail14EagerEvaluatorIjjEC1IRjRKjEEOT_OT0_",
   "parameters" :
   [
    {
     "is_this_ptr" : true,
     "referenced_type" : "_ZTIPN7android4base10log_detail14EagerEvaluatorIjjEE"
    },
    {
     "referenced_type" : "_ZTIRj"
    },
    {
     "referenced_type" : "_ZTIRKj"
    }
   ],
   "return_type" : "_ZTIv",
   "source_file" : "system/libbase/include/android-base/logging.h",
   "template_args" : [ "_ZTIRj", "_ZTIRKj" ]
  },
  {
   "function_name" : "android::base::log_detail::EagerEvaluator<unsigned int, unsigned int>::EagerEvaluator",
   "linker_set_key" : "_ZN7android4base10log_detail14EagerEvaluatorIjjEC1IRjjEEOT_OT0_",
   "parameters" :
   [
    {
     "is_this_ptr" : true,
     "referenced_type" : "_ZTIPN7android4base10log_detail14EagerEvaluatorIjjEE"
    },
    {
     "referenced_type" : "_ZTIRj"
    },
    {
     "referenced_type" : "_ZTIOj"
    }
   ],
   "return_type" : "_ZTIv",
   "source_file" : "system/libbase/include/android-base/logging.h",
   "template_args" : [ "_ZTIRj", "_ZTIj" ]
  },
  {
   "function_name" : "android::base::log_detail::EagerEvaluator<unsigned int, unsigned int>::EagerEvaluator",
   "linker_set_key" : "_ZN7android4base10log_detail14EagerEvaluatorIjjEC2IRjRKjEEOT_OT0_",
   "parameters" :
   [
    {
     "is_this_ptr" : true,
     "referenced_type" : "_ZTIPN7android4base10log_detail14EagerEvaluatorIjjEE"
    },
    {
     "referenced_type" : "_ZTIRj"
    },
    {
     "referenced_type" : "_ZTIRKj"
    }
   ],
   "return_type" : "_ZTIv",
   "source_file" : "system/libbase/include/android-base/logging.h",
   "template_args" : [ "_ZTIRj", "_ZTIRKj" ]
  },
  {
   "function_name" : "android::base::log_detail::EagerEvaluator<unsigned int, unsigned int>::EagerEvaluator",
   "linker_set_key" : "_ZN7android4base10log_detail14EagerEvaluatorIjjEC2IRjjEEOT_OT0_",
   "parameters" :
   [
    {
     "is_this_ptr" : true,
     "referenced_type" : "_ZTIPN7android4base10log_detail14EagerEvaluatorIjjEE"
    },
    {
     "referenced_type" : "_ZTIRj"
    },
    {
     "referenced_type" : "_ZTIOj"
    }
   ],
   "return_type" : "_ZTIv",
   "source_file" : "system/libbase/include/android-base/logging.h",
   "template_args" : [ "_ZTIRj", "_ZTIj" ]
  },
  {
   "function_name" : "android::base::log_detail::EagerEvaluator<unsigned int, unsigned long>::EagerEvaluator",
   "linker_set_key" : "_ZN7android4base10log_detail14EagerEvaluatorIjmEC1IRjmEEOT_OT0_",
   "parameters" :
   [
    {
     "is_this_ptr" : true,
     "referenced_type" : "_ZTIPN7android4base10log_detail14EagerEvaluatorIjmEE"
    },
    {
     "referenced_type" : "_ZTIRj"
    },
    {
     "referenced_type" : "_ZTIOm"
    }
   ],
   "return_type" : "_ZTIv",
   "source_file" : "system/libbase/include/android-base/logging.h",
   "template_args" : [ "_ZTIRj", "_ZTIm" ]
  },
  {
   "function_name" : "android::base::log_detail::EagerEvaluator<unsigned int, unsigned long>::EagerEvaluator",
   "linker_set_key" : "_ZN7android4base10log_detail14EagerEvaluatorIjmEC2IRjmEEOT_OT0_",
   "parameters" :
   [
    {
     "is_this_ptr" : true,
     "referenced_type" : "_ZTIPN7android4base10log_detail14EagerEvaluatorIjmEE"
    },
    {
     "referenced_type" : "_ZTIRj"
    },
    {
     "referenced_type" : "_ZTIOm"
    }
   ],
   "return_type" : "_ZTIv",
   "source_file" : "system/libbase/include/android-base/logging.h",
   "template_args" : [ "_ZTIRj", "_ZTIm" ]
  },
  {
   "function_name" : "android::base::log_detail::EagerEvaluator<unsigned long, unsigned int>::EagerEvaluator",
   "linker_set_key" : "_ZN7android4base10log_detail14EagerEvaluatorImjEC1IRmjEEOT_OT0_",
   "parameters" :
   [
    {
     "is_this_ptr" : true,
     "referenced_type" : "_ZTIPN7android4base10log_detail14EagerEvaluatorImjEE"
    },
    {
     "referenced_type" : "_ZTIRm"
    },
    {
     "referenced_type" : "_ZTIOj"
    }
   ],
   "return_type" : "_ZTIv",
   "source_file" : "system/libbase/include/android-base/logging.h",
   "template_args" : [ "_ZTIRm", "_ZTIj" ]
  },
  {
   "function_name" : "android::base::log_detail::EagerEvaluator<unsigned long, unsigned int>::EagerEvaluator",
   "linker_set_key" : "_ZN7android4base10log_detail14EagerEvaluatorImjEC2IRmjEEOT_OT0_",
   "parameters" :
   [
    {
     "is_this_ptr" : true,
     "referenced_type" : "_ZTIPN7android4base10log_detail14EagerEvaluatorImjEE"
    },
    {
     "referenced_type" : "_ZTIRm"
    },
    {
     "referenced_type" : "_ZTIOj"
    }
   ],
   "return_type" : "_ZTIv",
   "source_file" : "system/libbase/include/android-base/logging.h",
   "template_args" : [ "_ZTIRm", "_ZTIj" ]
  },
  {
   "function_name" : "android::base::log_detail::EagerEvaluator<unsigned long, unsigned long>::EagerEvaluator",
   "linker_set_key" : "_ZN7android4base10log_detail14EagerEvaluatorImmEC1IRmmEEOT_OT0_",
   "parameters" :
   [
    {
     "is_this_ptr" : true,
     "referenced_type" : "_ZTIPN7android4base10log_detail14EagerEvaluatorImmEE"
    },
    {
     "referenced_type" : "_ZTIRm"
    },
    {
     "referenced_type" : "_ZTIOm"
    }
   ],
   "return_type" : "_ZTIv",
   "source_file" : "system/libbase/include/android-base/logging.h",
   "template_args" : [ "_ZTIRm", "_ZTIm" ]
  },
  {
   "function_name" : "android::base::log_detail::EagerEvaluator<unsigned long, unsigned long>::EagerEvaluator",
   "linker_set_key" : "_ZN7android4base10log_detail14EagerEvaluatorImmEC2IRmmEEOT_OT0_",
   "parameters" :
   [
    {
     "is_this_ptr" : true,
     "referenced_type" : "_ZTIPN7android4base10log_detail14EagerEvaluatorImmEE"
    },
    {
     "referenced_type" : "_ZTIRm"
    },
    {
     "referenced_type" : "_ZTIOm"
    }
   ],
   "return_type" : "_ZTIv",
   "source_file" : "system/libbase/include/android-base/logging.h",
   "template_args" : [ "_ZTIRm", "_ZTIm" ]
  },
  {
   "function_name" : "android::base::log_detail::EagerEvaluator<unsigned short, unsigned int>::EagerEvaluator",
   "linker_set_key" : "_ZN7android4base10log_detail14EagerEvaluatorItjEC1IRtjEEOT_OT0_",
   "parameters" :
   [
    {
     "is_this_ptr" : true,
     "referenced_type" : "_ZTIPN7android4base10log_detail14EagerEvaluatorItjEE"
    },
    {
     "referenced_type" : "_ZTIRt"
    },
    {
     "referenced_type" : "_ZTIOj"
    }
   ],
   "return_type" : "_ZTIv",
   "source_file" : "system/libbase/include/android-base/logging.h",
   "template_args" : [ "_ZTIRt", "_ZTIj" ]
  },
  {
   "function_name" : "android::base::log_detail::EagerEvaluator<unsigned short, unsigned int>::EagerEvaluator",
   "linker_set_key" : "_ZN7android4base10log_detail14EagerEvaluatorItjEC2IRtjEEOT_OT0_",
   "parameters" :
   [
    {
     "is_this_ptr" : true,
     "referenced_type" : "_ZTIPN7android4base10log_detail14EagerEvaluatorItjEE"
    },
    {
     "referenced_type" : "_ZTIRt"
    },
    {
     "referenced_type" : "_ZTIOj"
    }
   ],
   "return_type" : "_ZTIv",
   "source_file" : "system/libbase/include/android-base/logging.h",
   "template_args" : [ "_ZTIRt", "_ZTIj" ]
  },
  {
   "function_name" : "android::base::log_detail::EagerEvaluator<unsigned short, unsigned long>::EagerEvaluator",
   "linker_set_key" : "_ZN7android4base10log_detail14EagerEvaluatorItmEC1IRtmEEOT_OT0_",
   "parameters" :
   [
    {
     "is_this_ptr" : true,
     "referenced_type" : "_ZTIPN7android4base10log_detail14EagerEvaluatorItmEE"
    },
    {
     "referenced_type" : "_ZTIRt"
    },
    {
     "referenced_type" : "_ZTIOm"
    }
   ],
   "return_type" : "_ZTIv",
   "source_file" : "system/libbase/include/android-base/logging.h",
   "template_args" : [ "_ZTIRt", "_ZTIm" ]
  },
  {
   "function_name" : "android::base::log_detail::EagerEvaluator<unsigned short, unsigned long>::EagerEvaluator",
   "linker_set_key" : "_ZN7android4base10log_detail14EagerEvaluatorItmEC2IRtmEEOT_OT0_",
   "parameters" :
   [
    {
     "is_this_ptr" : true,
     "referenced_type" : "_ZTIPN7android4base10log_detail14EagerEvaluatorItmEE"
    },
    {
     "referenced_type" : "_ZTIRt"
    },
    {
     "referenced_type" : "_ZTIOm"
    }
   ],
   "return_type" : "_ZTIv",
   "source_file" : "system/libbase/include/android-base/logging.h",
   "template_args" : [ "_ZTIRt", "_ZTIm" ]
  },
  {
   "function_name" : "android::base::log_detail::EagerEvaluator<unsigned short, unsigned short>::EagerEvaluator",
   "linker_set_key" : "_ZN7android4base10log_detail14EagerEvaluatorIttEC1IRtS5_EEOT_OT0_",
   "parameters" :
   [
    {
     "is_this_ptr" : true,
     "referenced_type" : "_ZTIPN7android4base10log_detail14EagerEvaluatorIttEE"
    },
    {
     "referenced_type" : "_ZTIRt"
    },
    {
     "referenced_type" : "_ZTIRt"
    }
   ],
   "return_type" : "_ZTIv",
   "source_file" : "system/libbase/include/android-base/logging.h",
   "template_args" : [ "_ZTIRt", "_ZTIRt" ]
  },
  {
   "function_name" : "android::base::log_detail::EagerEvaluator<unsigned short, unsigned short>::EagerEvaluator",
   "linker_set_key" : "_ZN7android4base10log_detail14EagerEvaluatorIttEC2IRtS5_EEOT_OT0_",
   "parameters" :
   [
    {
     "is_this_ptr" : true,
     "referenced_type" : "_ZTIPN7android4base10log_detail14EagerEvaluatorIttEE"
    },
    {
     "referenced_type" : "_ZTIRt"
    },
    {
     "referenced_type" : "_ZTIRt"
    }
   ],
   "return_type" : "_ZTIv",
   "source_file" : "system/libbase/include/android-base/logging.h",
   "template_args" : [ "_ZTIRt", "_ZTIRt" ]
  },
  {
   "function_name" : "android::base::log_detail::Storage<const art::dex::TypeId *>::Storage",
   "linker_set_key" : "_ZN7android4base10log_detail7StorageIPKN3art3dex6TypeIdEEC1IRKS7_EEOT_",
   "parameters" :
   [
    {
     "is_this_ptr" : true,
     "referenced_type" : "_ZTIPN7android4base10log_detail7StorageIPKN3art3dex6TypeIdEEE"
    },
    {
     "referenced_type" : "_ZTIRKPKN3art3dex6TypeIdE"
    }
   ],
   "return_type" : "_ZTIv",
   "source_file" : "system/libbase/include/android-base/logging.h",
   "template_args" : [ "_ZTIRKPKN3art3dex6TypeIdE" ]
  },
  {
   "function_name" : "android::base::log_detail::Storage<const art::dex::TypeId *>::Storage",
   "linker_set_key" : "_ZN7android4base10log_detail7StorageIPKN3art3dex6TypeIdEEC1IS7_EEOT_",
   "parameters" :
   [
    {
     "is_this_ptr" : true,
     "referenced_type" : "_ZTIPN7android4base10log_detail7StorageIPKN3art3dex6TypeIdEEE"
    },
    {
     "referenced_type" : "_ZTIOPKN3art3dex6TypeIdE"
    }
   ],
   "return_type" : "_ZTIv",
   "source_file" : "system/libbase/include/android-base/logging.h",
   "template_args" : [ "_ZTIPKN3art3dex6TypeIdE" ]
  },
  {
   "function_name" : "android::base::log_detail::Storage<const art::dex::TypeId *>::Storage",
   "linker_set_key" : "_ZN7android4base10log_detail7StorageIPKN3art3dex6TypeIdEEC2IRKS7_EEOT_",
   "parameters" :
   [
    {
     "is_this_ptr" : true,
     "referenced_type" : "_ZTIPN7android4base10log_detail7StorageIPKN3art3dex6TypeIdEEE"
    },
    {
     "referenced_type" : "_ZTIRKPKN3art3dex6TypeIdE"
    }
   ],
   "return_type" : "_ZTIv",
   "source_file" : "system/libbase/include/android-base/logging.h",
   "template_args" : [ "_ZTIRKPKN3art3dex6TypeIdE" ]
  },
  {
   "function_name" : "android::base::log_detail::Storage<const art::dex::TypeId *>::Storage",
   "linker_set_key" : "_ZN7android4base10log_detail7StorageIPKN3art3dex6TypeIdEEC2IS7_EEOT_",
   "parameters" :
   [
    {
     "is_this_ptr" : true,
     "referenced_type" : "_ZTIPN7android4base10log_detail7StorageIPKN3art3dex6TypeIdEEE"
    },
    {
     "referenced_type" : "_ZTIOPKN3art3dex6TypeIdE"
    }
   ],
   "return_type" : "_ZTIv",
   "source_file" : "system/libbase/include/android-base/logging.h",
   "template_args" : [ "_ZTIPKN3art3dex6TypeIdE" ]
  },
  {
   "function_name" : "android::base::log_detail::Storage<const art::dex::FieldId *>::Storage",
   "linker_set_key" : "_ZN7android4base10log_detail7StorageIPKN3art3dex7FieldIdEEC1IRKS7_EEOT_",
   "parameters" :
   [
    {
     "is_this_ptr" : true,
     "referenced_type" : "_ZTIPN7android4base10log_detail7StorageIPKN3art3dex7FieldIdEEE"
    },
    {
     "referenced_type" : "_ZTIRKPKN3art3dex7FieldIdE"
    }
   ],
   "return_type" : "_ZTIv",
   "source_file" : "system/libbase/include/android-base/logging.h",
   "template_args" : [ "_ZTIRKPKN3art3dex7FieldIdE" ]
  },
  {
   "function_name" : "android::base::log_detail::Storage<const art::dex::FieldId *>::Storage",
   "linker_set_key" : "_ZN7android4base10log_detail7StorageIPKN3art3dex7FieldIdEEC1IS7_EEOT_",
   "parameters" :
   [
    {
     "is_this_ptr" : true,
     "referenced_type" : "_ZTIPN7android4base10log_detail7StorageIPKN3art3dex7FieldIdEEE"
    },
    {
     "referenced_type" : "_ZTIOPKN3art3dex7FieldIdE"
    }
   ],
   "return_type" : "_ZTIv",
   "source_file" : "system/libbase/include/android-base/logging.h",
   "template_args" : [ "_ZTIPKN3art3dex7FieldIdE" ]
  },
  {
   "function_name" : "android::base::log_detail::Storage<const art::dex::FieldId *>::Storage",
   "linker_set_key" : "_ZN7android4base10log_detail7StorageIPKN3art3dex7FieldIdEEC2IRKS7_EEOT_",
   "parameters" :
   [
    {
     "is_this_ptr" : true,
     "referenced_type" : "_ZTIPN7android4base10log_detail7StorageIPKN3art3dex7FieldIdEEE"
    },
    {
     "referenced_type" : "_ZTIRKPKN3art3dex7FieldIdE"
    }
   ],
   "return_type" : "_ZTIv",
   "source_file" : "system/libbase/include/android-base/logging.h",
   "template_args" : [ "_ZTIRKPKN3art3dex7FieldIdE" ]
  },
  {
   "function_name" : "android::base::log_detail::Storage<const art::dex::FieldId *>::Storage",
   "linker_set_key" : "_ZN7android4base10log_detail7StorageIPKN3art3dex7FieldIdEEC2IS7_EEOT_",
   "parameters" :
   [
    {
     "is_this_ptr" : true,
     "referenced_type" : "_ZTIPN7android4base10log_detail7StorageIPKN3art3dex7FieldIdEEE"
    },
    {
     "referenced_type" : "_ZTIOPKN3art3dex7FieldIdE"
    }
   ],
   "return_type" : "_ZTIv",
   "source_file" : "system/libbase/include/android-base/logging.h",
   "template_args" : [ "_ZTIPKN3art3dex7FieldIdE" ]
  },
  {
   "function_name" : "android::base::log_detail::Storage<const art::dex::ProtoId *>::Storage",
   "linker_set_key" : "_ZN7android4base10log_detail7StorageIPKN3art3dex7ProtoIdEEC1IRKS7_EEOT_",
   "parameters" :
   [
    {
     "is_this_ptr" : true,
     "referenced_type" : "_ZTIPN7android4base10log_detail7StorageIPKN3art3dex7ProtoIdEEE"
    },
    {
     "referenced_type" : "_ZTIRKPKN3art3dex7ProtoIdE"
    }
   ],
   "return_type" : "_ZTIv",
   "source_file" : "system/libbase/include/android-base/logging.h",
   "template_args" : [ "_ZTIRKPKN3art3dex7ProtoIdE" ]
  },
  {
   "function_name" : "android::base::log_detail::Storage<const art::dex::ProtoId *>::Storage",
   "linker_set_key" : "_ZN7android4base10log_detail7StorageIPKN3art3dex7ProtoIdEEC1IS7_EEOT_",
   "parameters" :
   [
    {
     "is_this_ptr" : true,
     "referenced_type" : "_ZTIPN7android4base10log_detail7StorageIPKN3art3dex7ProtoIdEEE"
    },
    {
     "referenced_type" : "_ZTIOPKN3art3dex7ProtoIdE"
    }
   ],
   "return_type" : "_ZTIv",
   "source_file" : "system/libbase/include/android-base/logging.h",
   "template_args" : [ "_ZTIPKN3art3dex7ProtoIdE" ]
  },
  {
   "function_name" : "android::base::log_detail::Storage<const art::dex::ProtoId *>::Storage",
   "linker_set_key" : "_ZN7android4base10log_detail7StorageIPKN3art3dex7ProtoIdEEC2IRKS7_EEOT_",
   "parameters" :
   [
    {
     "is_this_ptr" : true,
     "referenced_type" : "_ZTIPN7android4base10log_detail7StorageIPKN3art3dex7ProtoIdEEE"
    },
    {
     "referenced_type" : "_ZTIRKPKN3art3dex7ProtoIdE"
    }
   ],
   "return_type" : "_ZTIv",
   "source_file" : "system/libbase/include/android-base/logging.h",
   "template_args" : [ "_ZTIRKPKN3art3dex7ProtoIdE" ]
  },
  {
   "function_name" : "android::base::log_detail::Storage<const art::dex::ProtoId *>::Storage",
   "linker_set_key" : "_ZN7android4base10log_detail7StorageIPKN3art3dex7ProtoIdEEC2IS7_EEOT_",
   "parameters" :
   [
    {
     "is_this_ptr" : true,
     "referenced_type" : "_ZTIPN7android4base10log_detail7StorageIPKN3art3dex7ProtoIdEEE"
    },
    {
     "referenced_type" : "_ZTIOPKN3art3dex7ProtoIdE"
    }
   ],
   "return_type" : "_ZTIv",
   "source_file" : "system/libbase/include/android-base/logging.h",
   "template_args" : [ "_ZTIPKN3art3dex7ProtoIdE" ]
  },
  {
   "function_name" : "android::base::log_detail::Storage<const art::dex::ClassDef *>::Storage",
   "linker_set_key" : "_ZN7android4base10log_detail7StorageIPKN3art3dex8ClassDefEEC1IRKS7_EEOT_",
   "parameters" :
   [
    {
     "is_this_ptr" : true,
     "referenced_type" : "_ZTIPN7android4base10log_detail7StorageIPKN3art3dex8ClassDefEEE"
    },
    {
     "referenced_type" : "_ZTIRKPKN3art3dex8ClassDefE"
    }
   ],
   "return_type" : "_ZTIv",
   "source_file" : "system/libbase/include/android-base/logging.h",
   "template_args" : [ "_ZTIRKPKN3art3dex8ClassDefE" ]
  },
  {
   "function_name" : "android::base::log_detail::Storage<const art::dex::ClassDef *>::Storage",
   "linker_set_key" : "_ZN7android4base10log_detail7StorageIPKN3art3dex8ClassDefEEC1IS7_EEOT_",
   "parameters" :
   [
    {
     "is_this_ptr" : true,
     "referenced_type" : "_ZTIPN7android4base10log_detail7StorageIPKN3art3dex8ClassDefEEE"
    },
    {
     "referenced_type" : "_ZTIOPKN3art3dex8ClassDefE"
    }
   ],
   "return_type" : "_ZTIv",
   "source_file" : "system/libbase/include/android-base/logging.h",
   "template_args" : [ "_ZTIPKN3art3dex8ClassDefE" ]
  },
  {
   "function_name" : "android::base::log_detail::Storage<const art::dex::ClassDef *>::Storage",
   "linker_set_key" : "_ZN7android4base10log_detail7StorageIPKN3art3dex8ClassDefEEC2IRKS7_EEOT_",
   "parameters" :
   [
    {
     "is_this_ptr" : true,
     "referenced_type" : "_ZTIPN7android4base10log_detail7StorageIPKN3art3dex8ClassDefEEE"
    },
    {
     "referenced_type" : "_ZTIRKPKN3art3dex8ClassDefE"
    }
   ],
   "return_type" : "_ZTIv",
   "source_file" : "system/libbase/include/android-base/logging.h",
   "template_args" : [ "_ZTIRKPKN3art3dex8ClassDefE" ]
  },
  {
   "function_name" : "android::base::log_detail::Storage<const art::dex::ClassDef *>::Storage",
   "linker_set_key" : "_ZN7android4base10log_detail7StorageIPKN3art3dex8ClassDefEEC2IS7_EEOT_",
   "parameters" :
   [
    {
     "is_this_ptr" : true,
     "referenced_type" : "_ZTIPN7android4base10log_detail7StorageIPKN3art3dex8ClassDefEEE"
    },
    {
     "referenced_type" : "_ZTIOPKN3art3dex8ClassDefE"
    }
   ],
   "return_type" : "_ZTIv",
   "source_file" : "system/libbase/include/android-base/logging.h",
   "template_args" : [ "_ZTIPKN3art3dex8ClassDefE" ]
  },
  {
   "function_name" : "android::base::log_detail::Storage<const art::dex::MethodId *>::Storage",
   "linker_set_key" : "_ZN7android4base10log_detail7StorageIPKN3art3dex8MethodIdEEC1IRKS7_EEOT_",
   "parameters" :
   [
    {
     "is_this_ptr" : true,
     "referenced_type" : "_ZTIPN7android4base10log_detail7StorageIPKN3art3dex8MethodIdEEE"
    },
    {
     "referenced_type" : "_ZTIRKPKN3art3dex8MethodIdE"
    }
   ],
   "return_type" : "_ZTIv",
   "source_file" : "system/libbase/include/android-base/logging.h",
   "template_args" : [ "_ZTIRKPKN3art3dex8MethodIdE" ]
  },
  {
   "function_name" : "android::base::log_detail::Storage<const art::dex::MethodId *>::Storage",
   "linker_set_key" : "_ZN7android4base10log_detail7StorageIPKN3art3dex8MethodIdEEC1IS7_EEOT_",
   "parameters" :
   [
    {
     "is_this_ptr" : true,
     "referenced_type" : "_ZTIPN7android4base10log_detail7StorageIPKN3art3dex8MethodIdEEE"
    },
    {
     "referenced_type" : "_ZTIOPKN3art3dex8MethodIdE"
    }
   ],
   "return_type" : "_ZTIv",
   "source_file" : "system/libbase/include/android-base/logging.h",
   "template_args" : [ "_ZTIPKN3art3dex8MethodIdE" ]
  },
  {
   "function_name" : "android::base::log_detail::Storage<const art::dex::MethodId *>::Storage",
   "linker_set_key" : "_ZN7android4base10log_detail7StorageIPKN3art3dex8MethodIdEEC2IRKS7_EEOT_",
   "parameters" :
   [
    {
     "is_this_ptr" : true,
     "referenced_type" : "_ZTIPN7android4base10log_detail7StorageIPKN3art3dex8MethodIdEEE"
    },
    {
     "referenced_type" : "_ZTIRKPKN3art3dex8MethodIdE"
    }
   ],
   "return_type" : "_ZTIv",
   "source_file" : "system/libbase/include/android-base/logging.h",
   "template_args" : [ "_ZTIRKPKN3art3dex8MethodIdE" ]
  },
  {
   "function_name" : "android::base::log_detail::Storage<const art::dex::MethodId *>::Storage",
   "linker_set_key" : "_ZN7android4base10log_detail7StorageIPKN3art3dex8MethodIdEEC2IS7_EEOT_",
   "parameters" :
   [
    {
     "is_this_ptr" : true,
     "referenced_type" : "_ZTIPN7android4base10log_detail7StorageIPKN3art3dex8MethodIdEEE"
    },
    {
     "referenced_type" : "_ZTIOPKN3art3dex8MethodIdE"
    }
   ],
   "return_type" : "_ZTIv",
   "source_file" : "system/libbase/include/android-base/logging.h",
   "template_args" : [ "_ZTIPKN3art3dex8MethodIdE" ]
  },
  {
   "function_name" : "android::base::log_detail::Storage<const art::dex::StringId *>::Storage",
   "linker_set_key" : "_ZN7android4base10log_detail7StorageIPKN3art3dex8StringIdEEC1IRKS7_EEOT_",
   "parameters" :
   [
    {
     "is_this_ptr" : true,
     "referenced_type" : "_ZTIPN7android4base10log_detail7StorageIPKN3art3dex8StringIdEEE"
    },
    {
     "referenced_type" : "_ZTIRKPKN3art3dex8StringIdE"
    }
   ],
   "return_type" : "_ZTIv",
   "source_file" : "system/libbase/include/android-base/logging.h",
   "template_args" : [ "_ZTIRKPKN3art3dex8StringIdE" ]
  },
  {
   "function_name" : "android::base::log_detail::Storage<const art::dex::StringId *>::Storage",
   "linker_set_key" : "_ZN7android4base10log_detail7StorageIPKN3art3dex8StringIdEEC1IS7_EEOT_",
   "parameters" :
   [
    {
     "is_this_ptr" : true,
     "referenced_type" : "_ZTIPN7android4base10log_detail7StorageIPKN3art3dex8StringIdEEE"
    },
    {
     "referenced_type" : "_ZTIOPKN3art3dex8StringIdE"
    }
   ],
   "return_type" : "_ZTIv",
   "source_file" : "system/libbase/include/android-base/logging.h",
   "template_args" : [ "_ZTIPKN3art3dex8StringIdE" ]
  },
  {
   "function_name" : "android::base::log_detail::Storage<const art::dex::StringId *>::Storage",
   "linker_set_key" : "_ZN7android4base10log_detail7StorageIPKN3art3dex8StringIdEEC2IRKS7_EEOT_",
   "parameters" :
   [
    {
     "is_this_ptr" : true,
     "referenced_type" : "_ZTIPN7android4base10log_detail7StorageIPKN3art3dex8StringIdEEE"
    },
    {
     "referenced_type" : "_ZTIRKPKN3art3dex8StringIdE"
    }
   ],
   "return_type" : "_ZTIv",
   "source_file" : "system/libbase/include/android-base/logging.h",
   "template_args" : [ "_ZTIRKPKN3art3dex8StringIdE" ]
  },
  {
   "function_name" : "android::base::log_detail::Storage<const art::dex::StringId *>::Storage",
   "linker_set_key" : "_ZN7android4base10log_detail7StorageIPKN3art3dex8StringIdEEC2IS7_EEOT_",
   "parameters" :
   [
    {
     "is_this_ptr" : true,
     "referenced_type" : "_ZTIPN7android4base10log_detail7StorageIPKN3art3dex8StringIdEEE"
    },
    {
     "referenced_type" : "_ZTIOPKN3art3dex8StringIdE"
    }
   ],
   "return_type" : "_ZTIv",
   "source_file" : "system/libbase/include/android-base/logging.h",
   "template_args" : [ "_ZTIPKN3art3dex8StringIdE" ]
  },
  {
   "function_name" : "android::base::log_detail::Storage<unsigned int>::Storage",
   "linker_set_key" : "_ZN7android4base10log_detail7StorageIjEC1IRKjEEOT_",
   "parameters" :
   [
    {
     "is_this_ptr" : true,
     "referenced_type" : "_ZTIPN7android4base10log_detail7StorageIjEE"
    },
    {
     "referenced_type" : "_ZTIRKj"
    }
   ],
   "return_type" : "_ZTIv",
   "source_file" : "system/libbase/include/android-base/logging.h",
   "template_args" : [ "_ZTIRKj" ]
  },
  {
   "function_name" : "android::base::log_detail::Storage<unsigned int>::Storage",
   "linker_set_key" : "_ZN7android4base10log_detail7StorageIjEC1IRjEEOT_",
   "parameters" :
   [
    {
     "is_this_ptr" : true,
     "referenced_type" : "_ZTIPN7android4base10log_detail7StorageIjEE"
    },
    {
     "referenced_type" : "_ZTIRj"
    }
   ],
   "return_type" : "_ZTIv",
   "source_file" : "system/libbase/include/android-base/logging.h",
   "template_args" : [ "_ZTIRj" ]
  },
  {
   "function_name" : "android::base::log_detail::Storage<unsigned int>::Storage",
   "linker_set_key" : "_ZN7android4base10log_detail7StorageIjEC1IjEEOT_",
   "parameters" :
   [
    {
     "is_this_ptr" : true,
     "referenced_type" : "_ZTIPN7android4base10log_detail7StorageIjEE"
    },
    {
     "referenced_type" : "_ZTIOj"
    }
   ],
   "return_type" : "_ZTIv",
   "source_file" : "system/libbase/include/android-base/logging.h",
   "template_args" : [ "_ZTIj" ]
  },
  {
   "function_name" : "android::base::log_detail::Storage<unsigned int>::Storage",
   "linker_set_key" : "_ZN7android4base10log_detail7StorageIjEC2IRKjEEOT_",
   "parameters" :
   [
    {
     "is_this_ptr" : true,
     "referenced_type" : "_ZTIPN7android4base10log_detail7StorageIjEE"
    },
    {
     "referenced_type" : "_ZTIRKj"
    }
   ],
   "return_type" : "_ZTIv",
   "source_file" : "system/libbase/include/android-base/logging.h",
   "template_args" : [ "_ZTIRKj" ]
  },
  {
   "function_name" : "android::base::log_detail::Storage<unsigned int>::Storage",
   "linker_set_key" : "_ZN7android4base10log_detail7StorageIjEC2IRjEEOT_",
   "parameters" :
   [
    {
     "is_this_ptr" : true,
     "referenced_type" : "_ZTIPN7android4base10log_detail7StorageIjEE"
    },
    {
     "referenced_type" : "_ZTIRj"
    }
   ],
   "return_type" : "_ZTIv",
   "source_file" : "system/libbase/include/android-base/logging.h",
   "template_args" : [ "_ZTIRj" ]
  },
  {
   "function_name" : "android::base::log_detail::Storage<unsigned int>::Storage",
   "linker_set_key" : "_ZN7android4base10log_detail7StorageIjEC2IjEEOT_",
   "parameters" :
   [
    {
     "is_this_ptr" : true,
     "referenced_type" : "_ZTIPN7android4base10log_detail7StorageIjEE"
    },
    {
     "referenced_type" : "_ZTIOj"
    }
   ],
   "return_type" : "_ZTIv",
   "source_file" : "system/libbase/include/android-base/logging.h",
   "template_args" : [ "_ZTIj" ]
  },
  {
   "function_name" : "android::base::log_detail::Storage<unsigned long>::Storage",
   "linker_set_key" : "_ZN7android4base10log_detail7StorageImEC1IRmEEOT_",
   "parameters" :
   [
    {
     "is_this_ptr" : true,
     "referenced_type" : "_ZTIPN7android4base10log_detail7StorageImEE"
    },
    {
     "referenced_type" : "_ZTIRm"
    }
   ],
   "return_type" : "_ZTIv",
   "source_file" : "system/libbase/include/android-base/logging.h",
   "template_args" : [ "_ZTIRm" ]
  },
  {
   "function_name" : "android::base::log_detail::Storage<unsigned long>::Storage",
   "linker_set_key" : "_ZN7android4base10log_detail7StorageImEC1ImEEOT_",
   "parameters" :
   [
    {
     "is_this_ptr" : true,
     "referenced_type" : "_ZTIPN7android4base10log_detail7StorageImEE"
    },
    {
     "referenced_type" : "_ZTIOm"
    }
   ],
   "return_type" : "_ZTIv",
   "source_file" : "system/libbase/include/android-base/logging.h",
   "template_args" : [ "_ZTIm" ]
  },
  {
   "function_name" : "android::base::log_detail::Storage<unsigned long>::Storage",
   "linker_set_key" : "_ZN7android4base10log_detail7StorageImEC2IRmEEOT_",
   "parameters" :
   [
    {
     "is_this_ptr" : true,
     "referenced_type" : "_ZTIPN7android4base10log_detail7StorageImEE"
    },
    {
     "referenced_type" : "_ZTIRm"
    }
   ],
   "return_type" : "_ZTIv",
   "source_file" : "system/libbase/include/android-base/logging.h",
   "template_args" : [ "_ZTIRm" ]
  },
  {
   "function_name" : "android::base::log_detail::Storage<unsigned long>::Storage",
   "linker_set_key" : "_ZN7android4base10log_detail7StorageImEC2ImEEOT_",
   "parameters" :
   [
    {
     "is_this_ptr" : true,
     "referenced_type" : "_ZTIPN7android4base10log_detail7StorageImEE"
    },
    {
     "referenced_type" : "_ZTIOm"
    }
   ],
   "return_type" : "_ZTIv",
   "source_file" : "system/libbase/include/android-base/logging.h",
   "template_args" : [ "_ZTIm" ]
  },
  {
   "function_name" : "android::base::log_detail::Storage<unsigned short>::Storage",
   "linker_set_key" : "_ZN7android4base10log_detail7StorageItEC1IRtEEOT_",
   "parameters" :
   [
    {
     "is_this_ptr" : true,
     "referenced_type" : "_ZTIPN7android4base10log_detail7StorageItEE"
    },
    {
     "referenced_type" : "_ZTIRt"
    }
   ],
   "return_type" : "_ZTIv",
   "source_file" : "system/libbase/include/android-base/logging.h",
   "template_args" : [ "_ZTIRt" ]
  },
  {
   "function_name" : "android::base::log_detail::Storage<unsigned short>::Storage",
   "linker_set_key" : "_ZN7android4base10log_detail7StorageItEC2IRtEEOT_",
   "parameters" :
   [
    {
     "is_this_ptr" : true,
     "referenced_type" : "_ZTIPN7android4base10log_detail7StorageItEE"
    },
    {
     "referenced_type" : "_ZTIRt"
    }
   ],
   "return_type" : "_ZTIv",
   "source_file" : "system/libbase/include/android-base/logging.h",
   "template_args" : [ "_ZTIRt" ]
  },
  {
   "function_name" : "android::base::LogNullGuard<nullptr_t>::Guard",
   "linker_set_key" : "_ZN7android4base12LogNullGuardIDnE5GuardERKDn",
   "parameters" :
   [
    {
     "referenced_type" : "_ZTIRKDn"
    }
   ],
   "return_type" : "_ZTIPKc",
   "source_file" : "system/libbase/include/android-base/logging.h"
  },
  {
   "function_name" : "android::base::LogNullGuard<const art::dex::TypeId *>::Guard",
   "linker_set_key" : "_ZN7android4base12LogNullGuardIPKN3art3dex6TypeIdEE5GuardERKS6_",
   "parameters" :
   [
    {
     "referenced_type" : "_ZTIRKPKN3art3dex6TypeIdE"
    }
   ],
   "return_type" : "_ZTIRKPKN3art3dex6TypeIdE",
   "source_file" : "system/libbase/include/android-base/logging.h"
  },
  {
   "function_name" : "android::base::LogNullGuard<const art::dex::FieldId *>::Guard",
   "linker_set_key" : "_ZN7android4base12LogNullGuardIPKN3art3dex7FieldIdEE5GuardERKS6_",
   "parameters" :
   [
    {
     "referenced_type" : "_ZTIRKPKN3art3dex7FieldIdE"
    }
   ],
   "return_type" : "_ZTIRKPKN3art3dex7FieldIdE",
   "source_file" : "system/libbase/include/android-base/logging.h"
  },
  {
   "function_name" : "android::base::LogNullGuard<const art::dex::ProtoId *>::Guard",
   "linker_set_key" : "_ZN7android4base12LogNullGuardIPKN3art3dex7ProtoIdEE5GuardERKS6_",
   "parameters" :
   [
    {
     "referenced_type" : "_ZTIRKPKN3art3dex7ProtoIdE"
    }
   ],
   "return_type" : "_ZTIRKPKN3art3dex7ProtoIdE",
   "source_file" : "system/libbase/include/android-base/logging.h"
  },
  {
   "function_name" : "android::base::LogNullGuard<const art::dex::ClassDef *>::Guard",
   "linker_set_key" : "_ZN7android4base12LogNullGuardIPKN3art3dex8ClassDefEE5GuardERKS6_",
   "parameters" :
   [
    {
     "referenced_type" : "_ZTIRKPKN3art3dex8ClassDefE"
    }
   ],
   "return_type" : "_ZTIRKPKN3art3dex8ClassDefE",
   "source_file" : "system/libbase/include/android-base/logging.h"
  },
  {
   "function_name" : "android::base::LogNullGuard<const art::dex::MethodId *>::Guard",
   "linker_set_key" : "_ZN7android4base12LogNullGuardIPKN3art3dex8MethodIdEE5GuardERKS6_",
   "parameters" :
   [
    {
     "referenced_type" : "_ZTIRKPKN3art3dex8MethodIdE"
    }
   ],
   "return_type" : "_ZTIRKPKN3art3dex8MethodIdE",
   "source_file" : "system/libbase/include/android-base/logging.h"
  },
  {
   "function_name" : "android::base::LogNullGuard<const art::dex::StringId *>::Guard",
   "linker_set_key" : "_ZN7android4base12LogNullGuardIPKN3art3dex8StringIdEE5GuardERKS6_",
   "parameters" :
   [
    {
     "referenced_type" : "_ZTIRKPKN3art3dex8StringIdE"
    }
   ],
   "return_type" : "_ZTIRKPKN3art3dex8StringIdE",
   "source_file" : "system/libbase/include/android-base/logging.h"
  },
  {
   "function_name" : "android::base::LogNullGuard<const char *>::Guard",
   "linker_set_key" : "_ZN7android4base12LogNullGuardIPKcE5GuardES3_",
   "parameters" :
   [
    {
     "referenced_type" : "_ZTIPKc"
    }
   ],
   "return_type" : "_ZTIPKc",
   "source_file" : "system/libbase/include/android-base/logging.h"
  },
  {
   "function_name" : "android::base::LogNullGuard<char *>::Guard",
   "linker_set_key" : "_ZN7android4base12LogNullGuardIPcE5GuardEPKc",
   "parameters" :
   [
    {
     "referenced_type" : "_ZTIPKc"
    }
   ],
   "return_type" : "_ZTIPKc",
   "source_file" : "system/libbase/include/android-base/logging.h"
  },
  {
   "function_name" : "android::base::LogNullGuard<unsigned int>::Guard",
   "linker_set_key" : "_ZN7android4base12LogNullGuardIjE5GuardERKj",
   "parameters" :
   [
    {
     "referenced_type" : "_ZTIRKj"
    }
   ],
   "return_type" : "_ZTIRKj",
   "source_file" : "system/libbase/include/android-base/logging.h"
  },
  {
   "function_name" : "android::base::LogNullGuard<unsigned long>::Guard",
   "linker_set_key" : "_ZN7android4base12LogNullGuardImE5GuardERKm",
   "parameters" :
   [
    {
     "referenced_type" : "_ZTIRKm"
    }
   ],
   "return_type" : "_ZTIRKm",
   "source_file" : "system/libbase/include/android-base/logging.h"
  },
  {
   "function_name" : "android::base::LogNullGuard<unsigned short>::Guard",
   "linker_set_key" : "_ZN7android4base12LogNullGuardItE5GuardERKt",
   "parameters" :
   [
    {
     "referenced_type" : "_ZTIRKt"
    }
   ],
   "return_type" : "_ZTIRKt",
   "source_file" : "system/libbase/include/android-base/logging.h"
  },
  {
   "function_name" : "android::base::ErrnoRestorer::ErrnoRestorer",
   "linker_set_key" : "_ZN7android4base13ErrnoRestorerC1Ev",
   "parameters" :
   [
    {
     "is_this_ptr" : true,
     "referenced_type" : "_ZTIPN7android4base13ErrnoRestorerE"
    }
   ],
   "return_type" : "_ZTIv",
   "source_file" : "system/libbase/include/android-base/errno_restorer.h"
  },
  {
   "function_name" : "android::base::ErrnoRestorer::ErrnoRestorer",
   "linker_set_key" : "_ZN7android4base13ErrnoRestorerC2Ev",
   "parameters" :
   [
    {
     "is_this_ptr" : true,
     "referenced_type" : "_ZTIPN7android4base13ErrnoRestorerE"
    }
   ],
   "return_type" : "_ZTIv",
   "source_file" : "system/libbase/include/android-base/errno_restorer.h"
  },
  {
   "function_name" : "android::base::ErrnoRestorer::~ErrnoRestorer",
   "linker_set_key" : "_ZN7android4base13ErrnoRestorerD1Ev",
   "parameters" :
   [
    {
     "is_this_ptr" : true,
     "referenced_type" : "_ZTIPN7android4base13ErrnoRestorerE"
    }
   ],
   "return_type" : "_ZTIv",
   "source_file" : "system/libbase/include/android-base/errno_restorer.h"
  },
  {
   "function_name" : "android::base::ErrnoRestorer::~ErrnoRestorer",
   "linker_set_key" : "_ZN7android4base13ErrnoRestorerD2Ev",
   "parameters" :
   [
    {
     "is_this_ptr" : true,
     "referenced_type" : "_ZTIPN7android4base13ErrnoRestorerE"
    }
   ],
   "return_type" : "_ZTIv",
   "source_file" : "system/libbase/include/android-base/errno_restorer.h"
  },
  {
   "function_name" : "android::base::MakeEagerEvaluator",
   "linker_set_key" : "_ZN7android4base18MakeEagerEvaluatorIPKN3art3dex6TypeIdERKS6_EEDaOT_OT0_",
   "parameters" :
   [
    {
     "referenced_type" : "_ZTIOPKN3art3dex6TypeIdE"
    },
    {
     "referenced_type" : "_ZTIRKPKN3art3dex6TypeIdE"
    }
   ],
   "return_type" : "_ZTIN7android4base10log_detail14EagerEvaluatorIPKN3art3dex6TypeIdES7_EE",
   "source_file" : "system/libbase/include/android-base/logging.h",
   "template_args" : [ "_ZTIPKN3art3dex6TypeIdE", "_ZTIRKPKN3art3dex6TypeIdE" ]
  },
  {
   "function_name" : "android::base::MakeEagerEvaluator",
   "linker_set_key" : "_ZN7android4base18MakeEagerEvaluatorIPKN3art3dex6TypeIdES6_EEDaOT_OT0_",
   "parameters" :
   [
    {
     "referenced_type" : "_ZTIOPKN3art3dex6TypeIdE"
    },
    {
     "referenced_type" : "_ZTIOPKN3art3dex6TypeIdE"
    }
   ],
   "return_type" : "_ZTIN7android4base10log_detail14EagerEvaluatorIPKN3art3dex6TypeIdES7_EE",
   "source_file" : "system/libbase/include/android-base/logging.h",
   "template_args" : [ "_ZTIPKN3art3dex6TypeIdE", "_ZTIPKN3art3dex6TypeIdE" ]
  },
  {
   "function_name" : "android::base::MakeEagerEvaluator",
   "linker_set_key" : "_ZN7android4base18MakeEagerEvaluatorIPKN3art3dex7FieldIdERKS6_EEDaOT_OT0_",
   "parameters" :
   [
    {
     "referenced_type" : "_ZTIOPKN3art3dex7FieldIdE"
    },
    {
     "referenced_type" : "_ZTIRKPKN3art3dex7FieldIdE"
    }
   ],
   "return_type" : "_ZTIN7android4base10log_detail14EagerEvaluatorIPKN3art3dex7FieldIdES7_EE",
   "source_file" : "system/libbase/include/android-base/logging.h",
   "template_args" : [ "_ZTIPKN3art3dex7FieldIdE", "_ZTIRKPKN3art3dex7FieldIdE" ]
  },
  {
   "function_name" : "android::base::MakeEagerEvaluator",
   "linker_set_key" : "_ZN7android4base18MakeEagerEvaluatorIPKN3art3dex7FieldIdES6_EEDaOT_OT0_",
   "parameters" :
   [
    {
     "referenced_type" : "_ZTIOPKN3art3dex7FieldIdE"
    },
    {
     "referenced_type" : "_ZTIOPKN3art3dex7FieldIdE"
    }
   ],
   "return_type" : "_ZTIN7android4base10log_detail14EagerEvaluatorIPKN3art3dex7FieldIdES7_EE",
   "source_file" : "system/libbase/include/android-base/logging.h",
   "template_args" : [ "_ZTIPKN3art3dex7FieldIdE", "_ZTIPKN3art3dex7FieldIdE" ]
  },
  {
   "function_name" : "android::base::MakeEagerEvaluator",
   "linker_set_key" : "_ZN7android4base18MakeEagerEvaluatorIPKN3art3dex7ProtoIdERKS6_EEDaOT_OT0_",
   "parameters" :
   [
    {
     "referenced_type" : "_ZTIOPKN3art3dex7ProtoIdE"
    },
    {
     "referenced_type" : "_ZTIRKPKN3art3dex7ProtoIdE"
    }
   ],
   "return_type" : "_ZTIN7android4base10log_detail14EagerEvaluatorIPKN3art3dex7ProtoIdES7_EE",
   "source_file" : "system/libbase/include/android-base/logging.h",
   "template_args" : [ "_ZTIPKN3art3dex7ProtoIdE", "_ZTIRKPKN3art3dex7ProtoIdE" ]
  },
  {
   "function_name" : "android::base::MakeEagerEvaluator",
   "linker_set_key" : "_ZN7android4base18MakeEagerEvaluatorIPKN3art3dex7ProtoIdES6_EEDaOT_OT0_",
   "parameters" :
   [
    {
     "referenced_type" : "_ZTIOPKN3art3dex7ProtoIdE"
    },
    {
     "referenced_type" : "_ZTIOPKN3art3dex7ProtoIdE"
    }
   ],
   "return_type" : "_ZTIN7android4base10log_detail14EagerEvaluatorIPKN3art3dex7ProtoIdES7_EE",
   "source_file" : "system/libbase/include/android-base/logging.h",
   "template_args" : [ "_ZTIPKN3art3dex7ProtoIdE", "_ZTIPKN3art3dex7ProtoIdE" ]
  },
  {
   "function_name" : "android::base::MakeEagerEvaluator",
   "linker_set_key" : "_ZN7android4base18MakeEagerEvaluatorIPKN3art3dex8ClassDefERKS6_EEDaOT_OT0_",
   "parameters" :
   [
    {
     "referenced_type" : "_ZTIOPKN3art3dex8ClassDefE"
    },
    {
     "referenced_type" : "_ZTIRKPKN3art3dex8ClassDefE"
    }
   ],
   "return_type" : "_ZTIN7android4base10log_detail14EagerEvaluatorIPKN3art3dex8ClassDefES7_EE",
   "source_file" : "system/libbase/include/android-base/logging.h",
   "template_args" : [ "_ZTIPKN3art3dex8ClassDefE", "_ZTIRKPKN3art3dex8ClassDefE" ]
  },
  {
   "function_name" : "android::base::MakeEagerEvaluator",
   "linker_set_key" : "_ZN7android4base18MakeEagerEvaluatorIPKN3art3dex8ClassDefES6_EEDaOT_OT0_",
   "parameters" :
   [
    {
     "referenced_type" : "_ZTIOPKN3art3dex8ClassDefE"
    },
    {
     "referenced_type" : "_ZTIOPKN3art3dex8ClassDefE"
    }
   ],
   "return_type" : "_ZTIN7android4base10log_detail14EagerEvaluatorIPKN3art3dex8ClassDefES7_EE",
   "source_file" : "system/libbase/include/android-base/logging.h",
   "template_args" : [ "_ZTIPKN3art3dex8ClassDefE", "_ZTIPKN3art3dex8ClassDefE" ]
  },
  {
   "function_name" : "android::base::MakeEagerEvaluator",
   "linker_set_key" : "_ZN7android4base18MakeEagerEvaluatorIPKN3art3dex8MethodIdERKS6_EEDaOT_OT0_",
   "parameters" :
   [
    {
     "referenced_type" : "_ZTIOPKN3art3dex8MethodIdE"
    },
    {
     "referenced_type" : "_ZTIRKPKN3art3dex8MethodIdE"
    }
   ],
   "return_type" : "_ZTIN7android4base10log_detail14EagerEvaluatorIPKN3art3dex8MethodIdES7_EE",
   "source_file" : "system/libbase/include/android-base/logging.h",
   "template_args" : [ "_ZTIPKN3art3dex8MethodIdE", "_ZTIRKPKN3art3dex8MethodIdE" ]
  },
  {
   "function_name" : "android::base::MakeEagerEvaluator",
   "linker_set_key" : "_ZN7android4base18MakeEagerEvaluatorIPKN3art3dex8MethodIdES6_EEDaOT_OT0_",
   "parameters" :
   [
    {
     "referenced_type" : "_ZTIOPKN3art3dex8MethodIdE"
    },
    {
     "referenced_type" : "_ZTIOPKN3art3dex8MethodIdE"
    }
   ],
   "return_type" : "_ZTIN7android4base10log_detail14EagerEvaluatorIPKN3art3dex8MethodIdES7_EE",
   "source_file" : "system/libbase/include/android-base/logging.h",
   "template_args" : [ "_ZTIPKN3art3dex8MethodIdE", "_ZTIPKN3art3dex8MethodIdE" ]
  },
  {
   "function_name" : "android::base::MakeEagerEvaluator",
   "linker_set_key" : "_ZN7android4base18MakeEagerEvaluatorIPKN3art3dex8StringIdERKS6_EEDaOT_OT0_",
   "parameters" :
   [
    {
     "referenced_type" : "_ZTIOPKN3art3dex8StringIdE"
    },
    {
     "referenced_type" : "_ZTIRKPKN3art3dex8StringIdE"
    }
   ],
   "return_type" : "_ZTIN7android4base10log_detail14EagerEvaluatorIPKN3art3dex8StringIdES7_EE",
   "source_file" : "system/libbase/include/android-base/logging.h",
   "template_args" : [ "_ZTIPKN3art3dex8StringIdE", "_ZTIRKPKN3art3dex8StringIdE" ]
  },
  {
   "function_name" : "android::base::MakeEagerEvaluator",
   "linker_set_key" : "_ZN7android4base18MakeEagerEvaluatorIPKN3art3dex8StringIdES6_EEDaOT_OT0_",
   "parameters" :
   [
    {
     "referenced_type" : "_ZTIOPKN3art3dex8StringIdE"
    },
    {
     "referenced_type" : "_ZTIOPKN3art3dex8StringIdE"
    }
   ],
   "return_type" : "_ZTIN7android4base10log_detail14EagerEvaluatorIPKN3art3dex8StringIdES7_EE",
   "source_file" : "system/libbase/include/android-base/logging.h",
   "template_args" : [ "_ZTIPKN3art3dex8StringIdE", "_ZTIPKN3art3dex8StringIdE" ]
  },
  {
   "function_name" : "android::base::MakeEagerEvaluator",
   "linker_set_key" : "_ZN7android4base18MakeEagerEvaluatorIRjRKjEEDaOT_OT0_",
   "parameters" :
   [
    {
     "referenced_type" : "_ZTIRj"
    },
    {
     "referenced_type" : "_ZTIRKj"
    }
   ],
   "return_type" : "_ZTIN7android4base10log_detail14EagerEvaluatorIjjEE",
   "source_file" : "system/libbase/include/android-base/logging.h",
   "template_args" : [ "_ZTIRj", "_ZTIRKj" ]
  },
  {
   "function_name" : "android::base::MakeEagerEvaluator",
   "linker_set_key" : "_ZN7android4base18MakeEagerEvaluatorIRjjEEDaOT_OT0_",
   "parameters" :
   [
    {
     "referenced_type" : "_ZTIRj"
    },
    {
     "referenced_type" : "_ZTIOj"
    }
   ],
   "return_type" : "_ZTIN7android4base10log_detail14EagerEvaluatorIjjEE",
   "source_file" : "system/libbase/include/android-base/logging.h",
   "template_args" : [ "_ZTIRj", "_ZTIj" ]
  },
  {
   "function_name" : "android::base::MakeEagerEvaluator",
   "linker_set_key" : "_ZN7android4base18MakeEagerEvaluatorIRjmEEDaOT_OT0_",
   "parameters" :
   [
    {
     "referenced_type" : "_ZTIRj"
    },
    {
     "referenced_type" : "_ZTIOm"
    }
   ],
   "return_type" : "_ZTIN7android4base10log_detail14EagerEvaluatorIjmEE",
   "source_file" : "system/libbase/include/android-base/logging.h",
   "template_args" : [ "_ZTIRj", "_ZTIm" ]
  },
  {
   "function_name" : "android::base::MakeEagerEvaluator",
   "linker_set_key" : "_ZN7android4base18MakeEagerEvaluatorIRmjEEDaOT_OT0_",
   "parameters" :
   [
    {
     "referenced_type" : "_ZTIRm"
    },
    {
     "referenced_type" : "_ZTIOj"
    }
   ],
   "return_type" : "_ZTIN7android4base10log_detail14EagerEvaluatorImjEE",
   "source_file" : "system/libbase/include/android-base/logging.h",
   "template_args" : [ "_ZTIRm", "_ZTIj" ]
  },
  {
   "function_name" : "android::base::MakeEagerEvaluator",
   "linker_set_key" : "_ZN7android4base18MakeEagerEvaluatorIRmmEEDaOT_OT0_",
   "parameters" :
   [
    {
     "referenced_type" : "_ZTIRm"
    },
    {
     "referenced_type" : "_ZTIOm"
    }
   ],
   "return_type" : "_ZTIN7android4base10log_detail14EagerEvaluatorImmEE",
   "source_file" : "system/libbase/include/android-base/logging.h",
   "template_args" : [ "_ZTIRm", "_ZTIm" ]
  },
  {
   "function_name" : "android::base::MakeEagerEvaluator",
   "linker_set_key" : "_ZN7android4base18MakeEagerEvaluatorIRtS2_EEDaOT_OT0_",
   "parameters" :
   [
    {
     "referenced_type" : "_ZTIRt"
    },
    {
     "referenced_type" : "_ZTIRt"
    }
   ],
   "return_type" : "_ZTIN7android4base10log_detail14EagerEvaluatorIttEE",
   "source_file" : "system/libbase/include/android-base/logging.h",
   "template_args" : [ "_ZTIRt", "_ZTIRt" ]
  },
  {
   "function_name" : "android::base::MakeEagerEvaluator",
   "linker_set_key" : "_ZN7android4base18MakeEagerEvaluatorIRtjEEDaOT_OT0_",
   "parameters" :
   [
    {
     "referenced_type" : "_ZTIRt"
    },
    {
     "referenced_type" : "_ZTIOj"
    }
   ],
   "return_type" : "_ZTIN7android4base10log_detail14EagerEvaluatorItjEE",
   "source_file" : "system/libbase/include/android-base/logging.h",
   "template_args" : [ "_ZTIRt", "_ZTIj" ]
  },
  {
   "function_name" : "android::base::MakeEagerEvaluator",
   "linker_set_key" : "_ZN7android4base18MakeEagerEvaluatorIRtmEEDaOT_OT0_",
   "parameters" :
   [
    {
     "referenced_type" : "_ZTIRt"
    },
    {
     "referenced_type" : "_ZTIOm"
    }
   ],
   "return_type" : "_ZTIN7android4base10log_detail14EagerEvaluatorItmEE",
   "source_file" : "system/libbase/include/android-base/logging.h",
   "template_args" : [ "_ZTIRt", "_ZTIm" ]
  },
  {
   "function_name" : "android::base::ScopedLockAssertion::ScopedLockAssertion",
   "linker_set_key" : "_ZN7android4base19ScopedLockAssertionC1ERNSt3__15mutexE",
   "parameters" :
   [
    {
     "is_this_ptr" : true,
     "referenced_type" : "_ZTIPN7android4base19ScopedLockAssertionE"
    },
    {
     "referenced_type" : "_ZTIRNSt3__15mutexE"
    }
   ],
   "return_type" : "_ZTIv",
   "source_file" : "system/libbase/include/android-base/thread_annotations.h"
  },
  {
   "function_name" : "android::base::ScopedLockAssertion::ScopedLockAssertion",
   "linker_set_key" : "_ZN7android4base19ScopedLockAssertionC2ERNSt3__15mutexE",
   "parameters" :
   [
    {
     "is_this_ptr" : true,
     "referenced_type" : "_ZTIPN7android4base19ScopedLockAssertionE"
    },
    {
     "referenced_type" : "_ZTIRNSt3__15mutexE"
    }
   ],
   "return_type" : "_ZTIv",
   "source_file" : "system/libbase/include/android-base/thread_annotations.h"
  },
  {
   "function_name" : "android::base::ScopedLockAssertion::~ScopedLockAssertion",
   "linker_set_key" : "_ZN7android4base19ScopedLockAssertionD1Ev",
   "parameters" :
   [
    {
     "is_this_ptr" : true,
     "referenced_type" : "_ZTIPN7android4base19ScopedLockAssertionE"
    }
   ],
   "return_type" : "_ZTIv",
   "source_file" : "system/libbase/include/android-base/thread_annotations.h"
  },
  {
   "function_name" : "android::base::ScopedLockAssertion::~ScopedLockAssertion",
   "linker_set_key" : "_ZN7android4base19ScopedLockAssertionD2Ev",
   "parameters" :
   [
    {
     "is_this_ptr" : true,
     "referenced_type" : "_ZTIPN7android4base19ScopedLockAssertionE"
    }
   ],
   "return_type" : "_ZTIv",
   "source_file" : "system/libbase/include/android-base/thread_annotations.h"
  },
  {
   "function_name" : "unix_file::RandomAccessFile::~RandomAccessFile",
   "linker_set_key" : "_ZN9unix_file16RandomAccessFileD0Ev",
   "parameters" :
   [
    {
     "is_this_ptr" : true,
     "referenced_type" : "_ZTIPN9unix_file16RandomAccessFileE"
    }
   ],
   "return_type" : "_ZTIv",
   "source_file" : "art/libartbase/base/unix_file/random_access_file.h"
  },
  {
   "function_name" : "unix_file::RandomAccessFile::~RandomAccessFile",
   "linker_set_key" : "_ZN9unix_file16RandomAccessFileD1Ev",
   "parameters" :
   [
    {
     "is_this_ptr" : true,
     "referenced_type" : "_ZTIPN9unix_file16RandomAccessFileE"
    }
   ],
   "return_type" : "_ZTIv",
   "source_file" : "art/libartbase/base/unix_file/random_access_file.h"
  },
  {
   "function_name" : "unix_file::RandomAccessFile::~RandomAccessFile",
   "linker_set_key" : "_ZN9unix_file16RandomAccessFileD2Ev",
   "parameters" :
   [
    {
     "is_this_ptr" : true,
     "referenced_type" : "_ZTIPN9unix_file16RandomAccessFileE"
    }
   ],
   "return_type" : "_ZTIv",
   "source_file" : "art/libartbase/base/unix_file/random_access_file.h"
  },
  {
   "access" : "protected",
   "function_name" : "unix_file::FdFile::resetGuard",
   "linker_set_key" : "_ZN9unix_file6FdFile10resetGuardENS0_10GuardStateE",
   "parameters" :
   [
    {
     "is_this_ptr" : true,
     "referenced_type" : "_ZTIPN9unix_file6FdFileE"
    },
    {
     "referenced_type" : "_ZTIN9unix_file6FdFile10GuardStateE"
    }
   ],
   "return_type" : "_ZTIv",
   "source_file" : "art/libartbase/base/unix_file/fd_file.h"
  },
  {
   "function_name" : "unix_file::FdFile::FdFile",
   "linker_set_key" : "_ZN9unix_file6FdFileC1ERKNSt3__112basic_stringIcNS1_11char_traitsIcEENS1_9allocatorIcEEEEib",
   "parameters" :
   [
    {
     "is_this_ptr" : true,
     "referenced_type" : "_ZTIPN9unix_file6FdFileE"
    },
    {
     "referenced_type" : "_ZTIRKNSt3__112basic_stringIcNS_11char_traitsIcEENS_9allocatorIcEEEE"
    },
    {
     "referenced_type" : "_ZTIi"
    },
    {
     "referenced_type" : "_ZTIb"
    }
   ],
   "return_type" : "_ZTIv",
   "source_file" : "art/libartbase/base/unix_file/fd_file.h"
  },
  {
   "function_name" : "unix_file::FdFile::FdFile",
   "linker_set_key" : "_ZN9unix_file6FdFileC1Ev",
   "parameters" :
   [
    {
     "is_this_ptr" : true,
     "referenced_type" : "_ZTIPN9unix_file6FdFileE"
    }
   ],
   "return_type" : "_ZTIv",
   "source_file" : "art/libartbase/base/unix_file/fd_file.h"
  },
  {
   "function_name" : "unix_file::FdFile::FdFile",
   "linker_set_key" : "_ZN9unix_file6FdFileC2ERKNSt3__112basic_stringIcNS1_11char_traitsIcEENS1_9allocatorIcEEEEib",
   "parameters" :
   [
    {
     "is_this_ptr" : true,
     "referenced_type" : "_ZTIPN9unix_file6FdFileE"
    },
    {
     "referenced_type" : "_ZTIRKNSt3__112basic_stringIcNS_11char_traitsIcEENS_9allocatorIcEEEE"
    },
    {
     "referenced_type" : "_ZTIi"
    },
    {
     "referenced_type" : "_ZTIb"
    }
   ],
   "return_type" : "_ZTIv",
   "source_file" : "art/libartbase/base/unix_file/fd_file.h"
  },
  {
   "function_name" : "unix_file::FdFile::FdFile",
   "linker_set_key" : "_ZN9unix_file6FdFileC2Ev",
   "parameters" :
   [
    {
     "is_this_ptr" : true,
     "referenced_type" : "_ZTIPN9unix_file6FdFileE"
    }
   ],
   "return_type" : "_ZTIv",
   "source_file" : "art/libartbase/base/unix_file/fd_file.h"
  },
  {
   "function_name" : "art::FreeDelete::operator()",
   "linker_set_key" : "_ZNK3art10FreeDeleteclEPKv",
   "parameters" :
   [
    {
     "is_this_ptr" : true,
     "referenced_type" : "_ZTIPKN3art10FreeDeleteE"
    },
    {
     "referenced_type" : "_ZTIPKv"
    }
   ],
   "return_type" : "_ZTIv",
   "source_file" : "art/libartbase/base/stl_util.h"
  },
  {
   "function_name" : "art::CompactDexFile::GetDebugInfoOffset",
   "linker_set_key" : "_ZNK3art14CompactDexFile18GetDebugInfoOffsetEj",
   "parameters" :
   [
    {
     "is_this_ptr" : true,
     "referenced_type" : "_ZTIPKN3art14CompactDexFileE"
    },
    {
     "referenced_type" : "_ZTIj"
    }
   ],
   "return_type" : "_ZTIj",
   "source_file" : "art/libdexfile/dex/compact_dex_file.h"
  },
  {
   "function_name" : "art::CompactDexFile::GetDequickenedSize",
   "linker_set_key" : "_ZNK3art14CompactDexFile18GetDequickenedSizeEv",
   "parameters" :
   [
    {
     "is_this_ptr" : true,
     "referenced_type" : "_ZTIPKN3art14CompactDexFileE"
    }
   ],
   "return_type" : "_ZTIm",
   "source_file" : "art/libdexfile/dex/compact_dex_file.h"
  },
  {
   "function_name" : "art::CompactDexFile::Header::GetDataSize",
   "linker_set_key" : "_ZNK3art14CompactDexFile6Header11GetDataSizeEv",
   "parameters" :
   [
    {
     "is_this_ptr" : true,
     "referenced_type" : "_ZTIPKN3art14CompactDexFile6HeaderE"
    }
   ],
   "return_type" : "_ZTIj",
   "source_file" : "art/libdexfile/dex/compact_dex_file.h"
  },
  {
   "function_name" : "art::CompactDexFile::Header::OwnedDataEnd",
   "linker_set_key" : "_ZNK3art14CompactDexFile6Header12OwnedDataEndEv",
   "parameters" :
   [
    {
     "is_this_ptr" : true,
     "referenced_type" : "_ZTIPKN3art14CompactDexFile6HeaderE"
    }
   ],
   "return_type" : "_ZTIj",
   "source_file" : "art/libdexfile/dex/compact_dex_file.h"
  },
  {
   "function_name" : "art::CompactDexFile::Header::GetDataOffset",
   "linker_set_key" : "_ZNK3art14CompactDexFile6Header13GetDataOffsetEv",
   "parameters" :
   [
    {
     "is_this_ptr" : true,
     "referenced_type" : "_ZTIPKN3art14CompactDexFile6HeaderE"
    }
   ],
   "return_type" : "_ZTIj",
   "source_file" : "art/libdexfile/dex/compact_dex_file.h"
  },
  {
   "function_name" : "art::CompactDexFile::Header::OwnedDataBegin",
   "linker_set_key" : "_ZNK3art14CompactDexFile6Header14OwnedDataBeginEv",
   "parameters" :
   [
    {
     "is_this_ptr" : true,
     "referenced_type" : "_ZTIPKN3art14CompactDexFile6HeaderE"
    }
   ],
   "return_type" : "_ZTIj",
   "source_file" : "art/libdexfile/dex/compact_dex_file.h"
  },
  {
   "function_name" : "art::CompactDexFile::Header::GetFeatureFlags",
   "linker_set_key" : "_ZNK3art14CompactDexFile6Header15GetFeatureFlagsEv",
   "parameters" :
   [
    {
     "is_this_ptr" : true,
     "referenced_type" : "_ZTIPKN3art14CompactDexFile6HeaderE"
    }
   ],
   "return_type" : "_ZTIj",
   "source_file" : "art/libdexfile/dex/compact_dex_file.h"
  },
  {
   "access" : "private",
   "function_name" : "art::CompactDexFile::CodeItem::GetPreHeader",
   "linker_set_key" : "_ZNK3art14CompactDexFile8CodeItem12GetPreHeaderEv",
   "parameters" :
   [
    {
     "is_this_ptr" : true,
     "referenced_type" : "_ZTIPKN3art14CompactDexFile8CodeItemE"
    }
   ],
   "return_type" : "_ZTIPKt",
   "source_file" : "art/libdexfile/dex/compact_dex_file.h"
  },
  {
   "access" : "private",
   "function_name" : "art::CompactDexFile::CodeItem::HasPreHeader",
   "linker_set_key" : "_ZNK3art14CompactDexFile8CodeItem12HasPreHeaderEt",
   "parameters" :
   [
    {
     "is_this_ptr" : true,
     "referenced_type" : "_ZTIPKN3art14CompactDexFile8CodeItemE"
    },
    {
     "referenced_type" : "_ZTIt"
    }
   ],
   "return_type" : "_ZTIb",
   "source_file" : "art/libdexfile/dex/compact_dex_file.h"
  },
  {
   "function_name" : "art::CompactDexFile::GetHeader",
   "linker_set_key" : "_ZNK3art14CompactDexFile9GetHeaderEv",
   "parameters" :
   [
    {
     "is_this_ptr" : true,
     "referenced_type" : "_ZTIPKN3art14CompactDexFileE"
    }
   ],
   "return_type" : "_ZTIRKN3art14CompactDexFile6HeaderE",
   "source_file" : "art/libdexfile/dex/compact_dex_file.h"
  },
  {
   "function_name" : "art::SplitStringIter::operator*",
   "linker_set_key" : "_ZNK3art15SplitStringIterdeEv",
   "parameters" :
   [
    {
     "is_this_ptr" : true,
     "referenced_type" : "_ZTIPKN3art15SplitStringIterE"
    }
   ],
   "return_type" : "_ZTINSt3__117basic_string_viewIcNS_11char_traitsIcEEEE",
   "source_file" : "art/libartbase/base/stl_util.h"
  },
  {
   "function_name" : "art::SplitStringIter::operator==",
   "linker_set_key" : "_ZNK3art15SplitStringItereqERKS0_",
   "parameters" :
   [
    {
     "is_this_ptr" : true,
     "referenced_type" : "_ZTIPKN3art15SplitStringIterE"
    },
    {
     "referenced_type" : "_ZTIRKN3art15SplitStringIterE"
    }
   ],
   "return_type" : "_ZTIb",
   "source_file" : "art/libartbase/base/stl_util.h"
  },
  {
   "function_name" : "art::SplitStringIter::operator!=",
   "linker_set_key" : "_ZNK3art15SplitStringIterneERKS0_",
   "parameters" :
   [
    {
     "is_this_ptr" : true,
     "referenced_type" : "_ZTIPKN3art15SplitStringIterE"
    },
    {
     "referenced_type" : "_ZTIRKN3art15SplitStringIterE"
    }
   ],
   "return_type" : "_ZTIb",
   "source_file" : "art/libartbase/base/stl_util.h"
  },
  {
   "function_name" : "art::StandardDexFile::GetDequickenedSize",
   "linker_set_key" : "_ZNK3art15StandardDexFile18GetDequickenedSizeEv",
   "parameters" :
   [
    {
     "is_this_ptr" : true,
     "referenced_type" : "_ZTIPKN3art15StandardDexFileE"
    }
   ],
   "return_type" : "_ZTIm",
   "source_file" : "art/libdexfile/dex/standard_dex_file.h"
  },
  {
   "access" : "private",
   "function_name" : "art::ArtDexFileLoader::OpenWithMagic",
   "linker_set_key" : "_ZNK3art16ArtDexFileLoader13OpenWithMagicEjiRKNSt3__112basic_stringIcNS1_11char_traitsIcEENS1_9allocatorIcEEEEbbPS7_PNS1_6vectorINS1_10unique_ptrIKNS_7DexFileENS1_14default_deleteISE_EEEENS5_ISH_EEEE",
   "parameters" :
   [
    {
     "is_this_ptr" : true,
     "referenced_type" : "_ZTIPKN3art16ArtDexFileLoaderE"
    },
    {
     "referenced_type" : "_ZTIj"
    },
    {
     "referenced_type" : "_ZTIi"
    },
    {
     "referenced_type" : "_ZTIRKNSt3__112basic_stringIcNS_11char_traitsIcEENS_9allocatorIcEEEE"
    },
    {
     "referenced_type" : "_ZTIb"
    },
    {
     "referenced_type" : "_ZTIb"
    },
    {
     "referenced_type" : "_ZTIPNSt3__112basic_stringIcNS_11char_traitsIcEENS_9allocatorIcEEEE"
    },
    {
     "referenced_type" : "_ZTIPNSt3__16vectorINS_10unique_ptrIKN3art7DexFileENS_14default_deleteIS4_EEEENS_9allocatorIS7_EEEE"
    }
   ],
   "return_type" : "_ZTIb",
   "source_file" : "art/libdexfile/dex/art_dex_file_loader.h"
  },
  {
   "function_name" : "art::ArtDexFileLoader::GetMultiDexChecksums",
   "linker_set_key" : "_ZNK3art16ArtDexFileLoader20GetMultiDexChecksumsEPKcPNSt3__16vectorIjNS3_9allocatorIjEEEEPNS4_INS3_12basic_stringIcNS3_11char_traitsIcEENS5_IcEEEENS5_ISD_EEEEPSD_iPb",
   "parameters" :
   [
    {
     "is_this_ptr" : true,
     "referenced_type" : "_ZTIPKN3art16ArtDexFileLoaderE"
    },
    {
     "referenced_type" : "_ZTIPKc"
    },
    {
     "referenced_type" : "_ZTIPNSt3__16vectorIjNS_9allocatorIjEEEE"
    },
    {
     "referenced_type" : "_ZTIPNSt3__16vectorINS_12basic_stringIcNS_11char_traitsIcEENS_9allocatorIcEEEENS4_IS6_EEEE"
    },
    {
     "referenced_type" : "_ZTIPNSt3__112basic_stringIcNS_11char_traitsIcEENS_9allocatorIcEEEE"
    },
    {
     "default_arg" : true,
     "referenced_type" : "_ZTIi"
    },
    {
     "default_arg" : true,
     "referenced_type" : "_ZTIPb"
    }
   ],
   "return_type" : "_ZTIb",
   "source_file" : "art/libdexfile/dex/art_dex_file_loader.h"
  },
  {
   "access" : "private",
   "function_name" : "art::ArtDexFileLoader::OpenOneDexFileFromZip",
   "linker_set_key" : "_ZNK3art16ArtDexFileLoader21OpenOneDexFileFromZipERKNS_10ZipArchiveEPKcRKNSt3__112basic_stringIcNS6_11char_traitsIcEENS6_9allocatorIcEEEEbbPSC_PNS_22DexFileLoaderErrorCodeE",
   "parameters" :
   [
    {
     "is_this_ptr" : true,
     "referenced_type" : "_ZTIPKN3art16ArtDexFileLoaderE"
    },
    {
     "referenced_type" : "_ZTIRKN3art10ZipArchiveE"
    },
    {
     "referenced_type" : "_ZTIPKc"
    },
    {
     "referenced_type" : "_ZTIRKNSt3__112basic_stringIcNS_11char_traitsIcEENS_9allocatorIcEEEE"
    },
    {
     "referenced_type" : "_ZTIb"
    },
    {
     "referenced_type" : "_ZTIb"
    },
    {
     "referenced_type" : "_ZTIPNSt3__112basic_stringIcNS_11char_traitsIcEENS_9allocatorIcEEEE"
    },
    {
     "referenced_type" : "_ZTIPN3art22DexFileLoaderErrorCodeE"
    }
   ],
   "return_type" : "_ZTINSt3__110unique_ptrIKN3art7DexFileENS_14default_deleteIS3_EEEE",
   "source_file" : "art/libdexfile/dex/art_dex_file_loader.h"
  },
  {
   "access" : "private",
   "function_name" : "art::ArtDexFileLoader::OpenAllDexFilesFromZip",
   "linker_set_key" : "_ZNK3art16ArtDexFileLoader22OpenAllDexFilesFromZipERKNS_10ZipArchiveERKNSt3__112basic_stringIcNS4_11char_traitsIcEENS4_9allocatorIcEEEEbbPSA_PNS4_6vectorINS4_10unique_ptrIKNS_7DexFileENS4_14default_deleteISH_EEEENS8_ISK_EEEE",
   "parameters" :
   [
    {
     "is_this_ptr" : true,
     "referenced_type" : "_ZTIPKN3art16ArtDexFileLoaderE"
    },
    {
     "referenced_type" : "_ZTIRKN3art10ZipArchiveE"
    },
    {
     "referenced_type" : "_ZTIRKNSt3__112basic_stringIcNS_11char_traitsIcEENS_9allocatorIcEEEE"
    },
    {
     "referenced_type" : "_ZTIb"
    },
    {
     "referenced_type" : "_ZTIb"
    },
    {
     "referenced_type" : "_ZTIPNSt3__112basic_stringIcNS_11char_traitsIcEENS_9allocatorIcEEEE"
    },
    {
     "referenced_type" : "_ZTIPNSt3__16vectorINS_10unique_ptrIKN3art7DexFileENS_14default_deleteIS4_EEEENS_9allocatorIS7_EEEE"
    }
   ],
   "return_type" : "_ZTIb",
   "source_file" : "art/libdexfile/dex/art_dex_file_loader.h"
  },
  {
   "function_name" : "art::ArtDexFileLoader::Open",
   "linker_set_key" : "_ZNK3art16ArtDexFileLoader4OpenEPKcRKNSt3__112basic_stringIcNS3_11char_traitsIcEENS3_9allocatorIcEEEEbbPS9_PNS3_6vectorINS3_10unique_ptrIKNS_7DexFileENS3_14default_deleteISG_EEEENS7_ISJ_EEEE",
   "parameters" :
   [
    {
     "is_this_ptr" : true,
     "referenced_type" : "_ZTIPKN3art16ArtDexFileLoaderE"
    },
    {
     "referenced_type" : "_ZTIPKc"
    },
    {
     "referenced_type" : "_ZTIRKNSt3__112basic_stringIcNS_11char_traitsIcEENS_9allocatorIcEEEE"
    },
    {
     "referenced_type" : "_ZTIb"
    },
    {
     "referenced_type" : "_ZTIb"
    },
    {
     "referenced_type" : "_ZTIPNSt3__112basic_stringIcNS_11char_traitsIcEENS_9allocatorIcEEEE"
    },
    {
     "referenced_type" : "_ZTIPNSt3__16vectorINS_10unique_ptrIKN3art7DexFileENS_14default_deleteIS4_EEEENS_9allocatorIS7_EEEE"
    }
   ],
   "return_type" : "_ZTIb",
   "source_file" : "art/libdexfile/dex/art_dex_file_loader.h"
  },
  {
   "function_name" : "art::ArtDexFileLoader::Open",
   "linker_set_key" : "_ZNK3art16ArtDexFileLoader4OpenEPKciRKNSt3__112basic_stringIcNS3_11char_traitsIcEENS3_9allocatorIcEEEEbbPS9_PNS3_6vectorINS3_10unique_ptrIKNS_7DexFileENS3_14default_deleteISG_EEEENS7_ISJ_EEEE",
   "parameters" :
   [
    {
     "is_this_ptr" : true,
     "referenced_type" : "_ZTIPKN3art16ArtDexFileLoaderE"
    },
    {
     "referenced_type" : "_ZTIPKc"
    },
    {
     "referenced_type" : "_ZTIi"
    },
    {
     "referenced_type" : "_ZTIRKNSt3__112basic_stringIcNS_11char_traitsIcEENS_9allocatorIcEEEE"
    },
    {
     "referenced_type" : "_ZTIb"
    },
    {
     "referenced_type" : "_ZTIb"
    },
    {
     "referenced_type" : "_ZTIPNSt3__112basic_stringIcNS_11char_traitsIcEENS_9allocatorIcEEEE"
    },
    {
     "referenced_type" : "_ZTIPNSt3__16vectorINS_10unique_ptrIKN3art7DexFileENS_14default_deleteIS4_EEEENS_9allocatorIS7_EEEE"
    }
   ],
   "return_type" : "_ZTIb",
   "source_file" : "art/libdexfile/dex/art_dex_file_loader.h"
  },
  {
   "function_name" : "art::ArtDexFileLoader::Open",
   "linker_set_key" : "_ZNK3art16ArtDexFileLoader4OpenEPKhmRKNSt3__112basic_stringIcNS3_11char_traitsIcEENS3_9allocatorIcEEEEjPKNS_10OatDexFileEbbPS9_NS3_10unique_ptrINS_16DexFileContainerENS3_14default_deleteISH_EEEE",
   "parameters" :
   [
    {
     "is_this_ptr" : true,
     "referenced_type" : "_ZTIPKN3art16ArtDexFileLoaderE"
    },
    {
     "referenced_type" : "_ZTIPKh"
    },
    {
     "referenced_type" : "_ZTIm"
    },
    {
     "referenced_type" : "_ZTIRKNSt3__112basic_stringIcNS_11char_traitsIcEENS_9allocatorIcEEEE"
    },
    {
     "referenced_type" : "_ZTIj"
    },
    {
     "referenced_type" : "_ZTIPKN3art10OatDexFileE"
    },
    {
     "referenced_type" : "_ZTIb"
    },
    {
     "referenced_type" : "_ZTIb"
    },
    {
     "referenced_type" : "_ZTIPNSt3__112basic_stringIcNS_11char_traitsIcEENS_9allocatorIcEEEE"
    },
    {
     "default_arg" : true,
     "referenced_type" : "_ZTINSt3__110unique_ptrIN3art16DexFileContainerENS_14default_deleteIS2_EEEE"
    }
   ],
   "return_type" : "_ZTINSt3__110unique_ptrIKN3art7DexFileENS_14default_deleteIS3_EEEE",
   "source_file" : "art/libdexfile/dex/art_dex_file_loader.h"
  },
  {
   "function_name" : "art::ArtDexFileLoader::Open",
   "linker_set_key" : "_ZNK3art16ArtDexFileLoader4OpenERKNSt3__112basic_stringIcNS1_11char_traitsIcEENS1_9allocatorIcEEEEjONS_6MemMapEbbPS7_",
   "parameters" :
   [
    {
     "is_this_ptr" : true,
     "referenced_type" : "_ZTIPKN3art16ArtDexFileLoaderE"
    },
    {
     "referenced_type" : "_ZTIRKNSt3__112basic_stringIcNS_11char_traitsIcEENS_9allocatorIcEEEE"
    },
    {
     "referenced_type" : "_ZTIj"
    },
    {
     "referenced_type" : "_ZTION3art6MemMapE"
    },
    {
     "referenced_type" : "_ZTIb"
    },
    {
     "referenced_type" : "_ZTIb"
    },
    {
     "referenced_type" : "_ZTIPNSt3__112basic_stringIcNS_11char_traitsIcEENS_9allocatorIcEEEE"
    }
   ],
   "return_type" : "_ZTINSt3__110unique_ptrIKN3art7DexFileENS_14default_deleteIS3_EEEE",
   "source_file" : "art/libdexfile/dex/art_dex_file_loader.h"
  },
  {
   "function_name" : "art::ArtDexFileLoader::Open",
   "linker_set_key" : "_ZNK3art16ArtDexFileLoader4OpenEiRKNSt3__112basic_stringIcNS1_11char_traitsIcEENS1_9allocatorIcEEEEbbPS7_PNS1_6vectorINS1_10unique_ptrIKNS_7DexFileENS1_14default_deleteISE_EEEENS5_ISH_EEEE",
   "parameters" :
   [
    {
     "is_this_ptr" : true,
     "referenced_type" : "_ZTIPKN3art16ArtDexFileLoaderE"
    },
    {
     "referenced_type" : "_ZTIi"
    },
    {
     "referenced_type" : "_ZTIRKNSt3__112basic_stringIcNS_11char_traitsIcEENS_9allocatorIcEEEE"
    },
    {
     "referenced_type" : "_ZTIb"
    },
    {
     "referenced_type" : "_ZTIb"
    },
    {
     "referenced_type" : "_ZTIPNSt3__112basic_stringIcNS_11char_traitsIcEENS_9allocatorIcEEEE"
    },
    {
     "referenced_type" : "_ZTIPNSt3__16vectorINS_10unique_ptrIKN3art7DexFileENS_14default_deleteIS4_EEEENS_9allocatorIS7_EEEE"
    }
   ],
   "return_type" : "_ZTIb",
   "source_file" : "art/libdexfile/dex/art_dex_file_loader.h"
  },
  {
   "function_name" : "art::ArtDexFileLoader::OpenDex",
   "linker_set_key" : "_ZNK3art16ArtDexFileLoader7OpenDexEiRKNSt3__112basic_stringIcNS1_11char_traitsIcEENS1_9allocatorIcEEEEbbbPS7_",
   "parameters" :
   [
    {
     "is_this_ptr" : true,
     "referenced_type" : "_ZTIPKN3art16ArtDexFileLoaderE"
    },
    {
     "referenced_type" : "_ZTIi"
    },
    {
     "referenced_type" : "_ZTIRKNSt3__112basic_stringIcNS_11char_traitsIcEENS_9allocatorIcEEEE"
    },
    {
     "referenced_type" : "_ZTIb"
    },
    {
     "referenced_type" : "_ZTIb"
    },
    {
     "referenced_type" : "_ZTIb"
    },
    {
     "referenced_type" : "_ZTIPNSt3__112basic_stringIcNS_11char_traitsIcEENS_9allocatorIcEEEE"
    }
   ],
   "return_type" : "_ZTINSt3__110unique_ptrIKN3art7DexFileENS_14default_deleteIS3_EEEE",
   "source_file" : "art/libdexfile/dex/art_dex_file_loader.h"
  },
  {
   "function_name" : "art::ArtDexFileLoader::OpenZip",
   "linker_set_key" : "_ZNK3art16ArtDexFileLoader7OpenZipEiRKNSt3__112basic_stringIcNS1_11char_traitsIcEENS1_9allocatorIcEEEEbbPS7_PNS1_6vectorINS1_10unique_ptrIKNS_7DexFileENS1_14default_deleteISE_EEEENS5_ISH_EEEE",
   "parameters" :
   [
    {
     "is_this_ptr" : true,
     "referenced_type" : "_ZTIPKN3art16ArtDexFileLoaderE"
    },
    {
     "referenced_type" : "_ZTIi"
    },
    {
     "referenced_type" : "_ZTIRKNSt3__112basic_stringIcNS_11char_traitsIcEENS_9allocatorIcEEEE"
    },
    {
     "referenced_type" : "_ZTIb"
    },
    {
     "referenced_type" : "_ZTIb"
    },
    {
     "referenced_type" : "_ZTIPNSt3__112basic_stringIcNS_11char_traitsIcEENS_9allocatorIcEEEE"
    },
    {
     "referenced_type" : "_ZTIPNSt3__16vectorINS_10unique_ptrIKN3art7DexFileENS_14default_deleteIS4_EEEENS_9allocatorIS7_EEEE"
    }
   ],
   "return_type" : "_ZTIb",
   "source_file" : "art/libdexfile/dex/art_dex_file_loader.h"
  },
  {
   "access" : "private",
   "function_name" : "art::ArtDexFileLoader::OpenFile",
   "linker_set_key" : "_ZNK3art16ArtDexFileLoader8OpenFileEiRKNSt3__112basic_stringIcNS1_11char_traitsIcEENS1_9allocatorIcEEEEbbbPS7_",
   "parameters" :
   [
    {
     "is_this_ptr" : true,
     "referenced_type" : "_ZTIPKN3art16ArtDexFileLoaderE"
    },
    {
     "referenced_type" : "_ZTIi"
    },
    {
     "referenced_type" : "_ZTIRKNSt3__112basic_stringIcNS_11char_traitsIcEENS_9allocatorIcEEEE"
    },
    {
     "referenced_type" : "_ZTIb"
    },
    {
     "referenced_type" : "_ZTIb"
    },
    {
     "referenced_type" : "_ZTIb"
    },
    {
     "referenced_type" : "_ZTIPNSt3__112basic_stringIcNS_11char_traitsIcEENS_9allocatorIcEEEE"
    }
   ],
   "return_type" : "_ZTINSt3__110unique_ptrIKN3art7DexFileENS_14default_deleteIS3_EEEE",
   "source_file" : "art/libdexfile/dex/art_dex_file_loader.h"
  },
  {
   "function_name" : "art::DexFileParameterIterator::Size",
   "linker_set_key" : "_ZNK3art24DexFileParameterIterator4SizeEv",
   "parameters" :
   [
    {
     "is_this_ptr" : true,
     "referenced_type" : "_ZTIPKN3art24DexFileParameterIteratorE"
    }
   ],
   "return_type" : "_ZTIm",
   "source_file" : "art/libdexfile/dex/dex_file.h"
  },
  {
   "function_name" : "art::DexFileParameterIterator::HasNext",
   "linker_set_key" : "_ZNK3art24DexFileParameterIterator7HasNextEv",
   "parameters" :
   [
    {
     "is_this_ptr" : true,
     "referenced_type" : "_ZTIPKN3art24DexFileParameterIteratorE"
    }
   ],
   "return_type" : "_ZTIb",
   "source_file" : "art/libdexfile/dex/dex_file.h"
  },
  {
   "function_name" : "art::EncodedArrayValueIterator::GetJavaValue",
   "linker_set_key" : "_ZNK3art25EncodedArrayValueIterator12GetJavaValueEv",
   "parameters" :
   [
    {
     "is_this_ptr" : true,
     "referenced_type" : "_ZTIPKN3art25EncodedArrayValueIteratorE"
    }
   ],
   "return_type" : "_ZTIRK6jvalue",
   "source_file" : "art/libdexfile/dex/dex_file.h"
  },
  {
   "function_name" : "art::EncodedArrayValueIterator::GetValueType",
   "linker_set_key" : "_ZNK3art25EncodedArrayValueIterator12GetValueTypeEv",
   "parameters" :
   [
    {
     "is_this_ptr" : true,
     "referenced_type" : "_ZTIPKN3art25EncodedArrayValueIteratorE"
    }
   ],
   "return_type" : "_ZTIN3art25EncodedArrayValueIterator9ValueTypeE",
   "source_file" : "art/libdexfile/dex/dex_file.h"
  },
  {
   "function_name" : "art::EncodedArrayValueIterator::HasNext",
   "linker_set_key" : "_ZNK3art25EncodedArrayValueIterator7HasNextEv",
   "parameters" :
   [
    {
     "is_this_ptr" : true,
     "referenced_type" : "_ZTIPKN3art25EncodedArrayValueIteratorE"
    }
   ],
   "return_type" : "_ZTIb",
   "source_file" : "art/libdexfile/dex/dex_file.h"
  },
  {
   "function_name" : "art::CallSiteArrayValueIterator::Size",
   "linker_set_key" : "_ZNK3art26CallSiteArrayValueIterator4SizeEv",
   "parameters" :
   [
    {
     "is_this_ptr" : true,
     "referenced_type" : "_ZTIPKN3art26CallSiteArrayValueIteratorE"
    }
   ],
   "return_type" : "_ZTIj",
   "source_file" : "art/libdexfile/dex/dex_file.h"
  },
  {
   "function_name" : "art::dex::HiddenapiClassData::GetFlagsPointer",
   "linker_set_key" : "_ZNK3art3dex18HiddenapiClassData15GetFlagsPointerEj",
   "parameters" :
   [
    {
     "is_this_ptr" : true,
     "referenced_type" : "_ZTIPKN3art3dex18HiddenapiClassDataE"
    },
    {
     "referenced_type" : "_ZTIj"
    }
   ],
   "return_type" : "_ZTIPKh",
   "source_file" : "art/libdexfile/dex/dex_file_structs.h"
  },
  {
   "function_name" : "art::dex::MapList::Size",
   "linker_set_key" : "_ZNK3art3dex7MapList4SizeEv",
   "parameters" :
   [
    {
     "is_this_ptr" : true,
     "referenced_type" : "_ZTIPKN3art3dex7MapListE"
    }
   ],
   "return_type" : "_ZTIm",
   "source_file" : "art/libdexfile/dex/dex_file_structs.h"
  },
  {
   "function_name" : "art::dex::ClassDef::GetJavaAccessFlags",
   "linker_set_key" : "_ZNK3art3dex8ClassDef18GetJavaAccessFlagsEv",
   "parameters" :
   [
    {
     "is_this_ptr" : true,
     "referenced_type" : "_ZTIPKN3art3dex8ClassDefE"
    }
   ],
   "return_type" : "_ZTIj",
   "source_file" : "art/libdexfile/dex/dex_file_structs.h"
  },
  {
   "function_name" : "art::dex::DexIndex<unsigned int>::IsValid",
   "linker_set_key" : "_ZNK3art3dex8DexIndexIjE7IsValidEv",
   "parameters" :
   [
    {
     "is_this_ptr" : true,
     "referenced_type" : "_ZTIPKN3art3dex8DexIndexIjEE"
    }
   ],
   "return_type" : "_ZTIb",
   "source_file" : "art/libdexfile/dex/dex_file_types.h"
  },
  {
   "function_name" : "art::dex::DexIndex<unsigned short>::IsValid",
   "linker_set_key" : "_ZNK3art3dex8DexIndexItE7IsValidEv",
   "parameters" :
   [
    {
     "is_this_ptr" : true,
     "referenced_type" : "_ZTIPKN3art3dex8DexIndexItEE"
    }
   ],
   "return_type" : "_ZTIb",
   "source_file" : "art/libdexfile/dex/dex_file_types.h"
  },
  {
   "function_name" : "art::dex::TypeList::GetTypeItem",
   "linker_set_key" : "_ZNK3art3dex8TypeList11GetTypeItemEj",
   "parameters" :
   [
    {
     "is_this_ptr" : true,
     "referenced_type" : "_ZTIPKN3art3dex8TypeListE"
    },
    {
     "referenced_type" : "_ZTIj"
    }
   ],
   "return_type" : "_ZTIRKN3art3dex8TypeItemE",
   "source_file" : "art/libdexfile/dex/dex_file_structs.h"
  },
  {
   "function_name" : "art::dex::TypeList::Size",
   "linker_set_key" : "_ZNK3art3dex8TypeList4SizeEv",
   "parameters" :
   [
    {
     "is_this_ptr" : true,
     "referenced_type" : "_ZTIPKN3art3dex8TypeListE"
    }
   ],
   "return_type" : "_ZTIj",
   "source_file" : "art/libdexfile/dex/dex_file_structs.h"
  },
  {
   "function_name" : "art::MemMap::GetProtect",
   "linker_set_key" : "_ZNK3art6MemMap10GetProtectEv",
   "parameters" :
   [
    {
     "is_this_ptr" : true,
     "referenced_type" : "_ZTIPKN3art6MemMapE"
    }
   ],
   "return_type" : "_ZTIi",
   "source_file" : "art/libartbase/base/mem_map.h"
  },
  {
   "function_name" : "art::MemMap::HasAddress",
   "linker_set_key" : "_ZNK3art6MemMap10HasAddressEPKv",
   "parameters" :
   [
    {
     "is_this_ptr" : true,
     "referenced_type" : "_ZTIPKN3art6MemMapE"
    },
    {
     "referenced_type" : "_ZTIPKv"
    }
   ],
   "return_type" : "_ZTIb",
   "source_file" : "art/libartbase/base/mem_map.h"
  },
  {
   "function_name" : "art::MemMap::End",
   "linker_set_key" : "_ZNK3art6MemMap3EndEv",
   "parameters" :
   [
    {
     "is_this_ptr" : true,
     "referenced_type" : "_ZTIPKN3art6MemMapE"
    }
   ],
   "return_type" : "_ZTIPh",
   "source_file" : "art/libartbase/base/mem_map.h"
  },
  {
   "function_name" : "art::MemMap::Size",
   "linker_set_key" : "_ZNK3art6MemMap4SizeEv",
   "parameters" :
   [
    {
     "is_this_ptr" : true,
     "referenced_type" : "_ZTIPKN3art6MemMapE"
    }
   ],
   "return_type" : "_ZTIm",
   "source_file" : "art/libartbase/base/mem_map.h"
  },
  {
   "function_name" : "art::MemMap::Begin",
   "linker_set_key" : "_ZNK3art6MemMap5BeginEv",
   "parameters" :
   [
    {
     "is_this_ptr" : true,
     "referenced_type" : "_ZTIPKN3art6MemMapE"
    }
   ],
   "return_type" : "_ZTIPh",
   "source_file" : "art/libartbase/base/mem_map.h"
  },
  {
   "function_name" : "art::MemMap::BaseEnd",
   "linker_set_key" : "_ZNK3art6MemMap7BaseEndEv",
   "parameters" :
   [
    {
     "is_this_ptr" : true,
     "referenced_type" : "_ZTIPKN3art6MemMapE"
    }
   ],
   "return_type" : "_ZTIPv",
   "source_file" : "art/libartbase/base/mem_map.h"
  },
  {
   "function_name" : "art::MemMap::GetName",
   "linker_set_key" : "_ZNK3art6MemMap7GetNameEv",
   "parameters" :
   [
    {
     "is_this_ptr" : true,
     "referenced_type" : "_ZTIPKN3art6MemMapE"
    }
   ],
   "return_type" : "_ZTIRKNSt3__112basic_stringIcNS_11char_traitsIcEENS_9allocatorIcEEEE",
   "source_file" : "art/libartbase/base/mem_map.h"
  },
  {
   "function_name" : "art::MemMap::IsValid",
   "linker_set_key" : "_ZNK3art6MemMap7IsValidEv",
   "parameters" :
   [
    {
     "is_this_ptr" : true,
     "referenced_type" : "_ZTIPKN3art6MemMapE"
    }
   ],
   "return_type" : "_ZTIb",
   "source_file" : "art/libartbase/base/mem_map.h"
  },
  {
   "function_name" : "art::MemMap::BaseSize",
   "linker_set_key" : "_ZNK3art6MemMap8BaseSizeEv",
   "parameters" :
   [
    {
     "is_this_ptr" : true,
     "referenced_type" : "_ZTIPKN3art6MemMapE"
    }
   ],
   "return_type" : "_ZTIm",
   "source_file" : "art/libartbase/base/mem_map.h"
  },
  {
   "function_name" : "art::MemMap::BaseBegin",
   "linker_set_key" : "_ZNK3art6MemMap9BaseBeginEv",
   "parameters" :
   [
    {
     "is_this_ptr" : true,
     "referenced_type" : "_ZTIPKN3art6MemMapE"
    }
   ],
   "return_type" : "_ZTIPv",
   "source_file" : "art/libartbase/base/mem_map.h"
  },
  {
   "function_name" : "art::DexFile::FindTypeId",
   "linker_set_key" : "_ZNK3art7DexFile10FindTypeIdENSt3__117basic_string_viewIcNS1_11char_traitsIcEEEE",
   "parameters" :
   [
    {
     "is_this_ptr" : true,
     "referenced_type" : "_ZTIPKN3art7DexFileE"
    },
    {
     "referenced_type" : "_ZTINSt3__117basic_string_viewIcNS_11char_traitsIcEEEE"
    }
   ],
   "return_type" : "_ZTIPKN3art3dex6TypeIdE",
   "source_file" : "art/libdexfile/dex/dex_file.h"
  },
  {
   "function_name" : "art::DexFile::GetFieldId",
   "linker_set_key" : "_ZNK3art7DexFile10GetFieldIdEj",
   "parameters" :
   [
    {
     "is_this_ptr" : true,
     "referenced_type" : "_ZTIPKN3art7DexFileE"
    },
    {
     "referenced_type" : "_ZTIj"
    }
   ],
   "return_type" : "_ZTIRKN3art3dex7FieldIdE",
   "source_file" : "art/libdexfile/dex/dex_file.h"
  },
  {
   "function_name" : "art::DexFile::GetMapList",
   "linker_set_key" : "_ZNK3art7DexFile10GetMapListEv",
   "parameters" :
   [
    {
     "is_this_ptr" : true,
     "referenced_type" : "_ZTIPKN3art7DexFileE"
    }
   ],
   "return_type" : "_ZTIPKN3art3dex7MapListE",
   "source_file" : "art/libdexfile/dex/dex_file.h"
  },
  {
   "function_name" : "art::DexFile::GetProtoId",
   "linker_set_key" : "_ZNK3art7DexFile10GetProtoIdENS_3dex10ProtoIndexE",
   "parameters" :
   [
    {
     "is_this_ptr" : true,
     "referenced_type" : "_ZTIPKN3art7DexFileE"
    },
    {
     "referenced_type" : "_ZTIN3art3dex10ProtoIndexE"
    }
   ],
   "return_type" : "_ZTIRKN3art3dex7ProtoIdE",
   "source_file" : "art/libdexfile/dex/dex_file.h"
  },
  {
   "function_name" : "art::DexFile::NumTypeIds",
   "linker_set_key" : "_ZNK3art7DexFile10NumTypeIdsEv",
   "parameters" :
   [
    {
     "is_this_ptr" : true,
     "referenced_type" : "_ZTIPKN3art7DexFileE"
    }
   ],
   "return_type" : "_ZTIj",
   "source_file" : "art/libdexfile/dex/dex_file.h"
  },
  {
   "function_name" : "art::DexFile::DataPointer",
   "linker_set_key" : "_ZNK3art7DexFile11DataPointerINS_3dex14AnnotationItemEEEPKT_m",
   "parameters" :
   [
    {
     "is_this_ptr" : true,
     "referenced_type" : "_ZTIPKN3art7DexFileE"
    },
    {
     "referenced_type" : "_ZTIm"
    }
   ],
   "return_type" : "_ZTIPKN3art3dex14AnnotationItemE",
   "source_file" : "art/libdexfile/dex/dex_file.h",
   "template_args" : [ "_ZTIN3art3dex14AnnotationItemE" ]
  },
  {
   "function_name" : "art::DexFile::DataPointer",
   "linker_set_key" : "_ZNK3art7DexFile11DataPointerINS_3dex17AnnotationSetItemEEEPKT_m",
   "parameters" :
   [
    {
     "is_this_ptr" : true,
     "referenced_type" : "_ZTIPKN3art7DexFileE"
    },
    {
     "referenced_type" : "_ZTIm"
    }
   ],
   "return_type" : "_ZTIPKN3art3dex17AnnotationSetItemE",
   "source_file" : "art/libdexfile/dex/dex_file.h",
   "template_args" : [ "_ZTIN3art3dex17AnnotationSetItemE" ]
  },
  {
   "function_name" : "art::DexFile::DataPointer",
   "linker_set_key" : "_ZNK3art7DexFile11DataPointerINS_3dex18HiddenapiClassDataEEEPKT_m",
   "parameters" :
   [
    {
     "is_this_ptr" : true,
     "referenced_type" : "_ZTIPKN3art7DexFileE"
    },
    {
     "referenced_type" : "_ZTIm"
    }
   ],
   "return_type" : "_ZTIPKN3art3dex18HiddenapiClassDataE",
   "source_file" : "art/libdexfile/dex/dex_file.h",
   "template_args" : [ "_ZTIN3art3dex18HiddenapiClassDataE" ]
  },
  {
   "function_name" : "art::DexFile::DataPointer",
   "linker_set_key" : "_ZNK3art7DexFile11DataPointerINS_3dex20AnnotationSetRefListEEEPKT_m",
   "parameters" :
   [
    {
     "is_this_ptr" : true,
     "referenced_type" : "_ZTIPKN3art7DexFileE"
    },
    {
     "referenced_type" : "_ZTIm"
    }
   ],
   "return_type" : "_ZTIPKN3art3dex20AnnotationSetRefListE",
   "source_file" : "art/libdexfile/dex/dex_file.h",
   "template_args" : [ "_ZTIN3art3dex20AnnotationSetRefListE" ]
  },
  {
   "function_name" : "art::DexFile::DataPointer",
   "linker_set_key" : "_ZNK3art7DexFile11DataPointerINS_3dex24AnnotationsDirectoryItemEEEPKT_m",
   "parameters" :
   [
    {
     "is_this_ptr" : true,
     "referenced_type" : "_ZTIPKN3art7DexFileE"
    },
    {
     "referenced_type" : "_ZTIm"
    }
   ],
   "return_type" : "_ZTIPKN3art3dex24AnnotationsDirectoryItemE",
   "source_file" : "art/libdexfile/dex/dex_file.h",
   "template_args" : [ "_ZTIN3art3dex24AnnotationsDirectoryItemE" ]
  },
  {
   "function_name" : "art::DexFile::DataPointer",
   "linker_set_key" : "_ZNK3art7DexFile11DataPointerINS_3dex8CodeItemEEEPKT_m",
   "parameters" :
   [
    {
     "is_this_ptr" : true,
     "referenced_type" : "_ZTIPKN3art7DexFileE"
    },
    {
     "referenced_type" : "_ZTIm"
    }
   ],
   "return_type" : "_ZTIPKN3art3dex8CodeItemE",
   "source_file" : "art/libdexfile/dex/dex_file.h",
   "template_args" : [ "_ZTIN3art3dex8CodeItemE" ]
  },
  {
   "function_name" : "art::DexFile::DataPointer",
   "linker_set_key" : "_ZNK3art7DexFile11DataPointerINS_3dex8TypeListEEEPKT_m",
   "parameters" :
   [
    {
     "is_this_ptr" : true,
     "referenced_type" : "_ZTIPKN3art7DexFileE"
    },
    {
     "referenced_type" : "_ZTIm"
    }
   ],
   "return_type" : "_ZTIPKN3art3dex8TypeListE",
   "source_file" : "art/libdexfile/dex/dex_file.h",
   "template_args" : [ "_ZTIN3art3dex8TypeListE" ]
  },
  {
   "function_name" : "art::DexFile::DataPointer",
   "linker_set_key" : "_ZNK3art7DexFile11DataPointerIhEEPKT_m",
   "parameters" :
   [
    {
     "is_this_ptr" : true,
     "referenced_type" : "_ZTIPKN3art7DexFileE"
    },
    {
     "referenced_type" : "_ZTIm"
    }
   ],
   "return_type" : "_ZTIPKh",
   "source_file" : "art/libdexfile/dex/dex_file.h",
   "template_args" : [ "_ZTIh" ]
  },
  {
   "function_name" : "art::DexFile::FindProtoId",
   "linker_set_key" : "_ZNK3art7DexFile11FindProtoIdENS_3dex9TypeIndexERKNSt3__16vectorIS2_NS3_9allocatorIS2_EEEE",
   "parameters" :
   [
    {
     "is_this_ptr" : true,
     "referenced_type" : "_ZTIPKN3art7DexFileE"
    },
    {
     "referenced_type" : "_ZTIN3art3dex9TypeIndexE"
    },
    {
     "referenced_type" : "_ZTIRKNSt3__16vectorIN3art3dex9TypeIndexENS_9allocatorIS3_EEEE"
    }
   ],
   "return_type" : "_ZTIPKN3art3dex7ProtoIdE",
   "source_file" : "art/libdexfile/dex/dex_file.h"
  },
  {
   "function_name" : "art::DexFile::GetClassDef",
   "linker_set_key" : "_ZNK3art7DexFile11GetClassDefEt",
   "parameters" :
   [
    {
     "is_this_ptr" : true,
     "referenced_type" : "_ZTIPKN3art7DexFileE"
    },
    {
     "referenced_type" : "_ZTIt"
    }
   ],
   "return_type" : "_ZTIRKN3art3dex8ClassDefE",
   "source_file" : "art/libdexfile/dex/dex_file.h"
  },
  {
   "function_name" : "art::DexFile::GetCodeItem",
   "linker_set_key" : "_ZNK3art7DexFile11GetCodeItemEj",
   "parameters" :
   [
    {
     "is_this_ptr" : true,
     "referenced_type" : "_ZTIPKN3art7DexFileE"
    },
    {
     "referenced_type" : "_ZTIKj"
    }
   ],
   "return_type" : "_ZTIPKN3art3dex8CodeItemE",
   "source_file" : "art/libdexfile/dex/dex_file.h"
  },
  {
   "function_name" : "art::DexFile::GetLocation",
   "linker_set_key" : "_ZNK3art7DexFile11GetLocationEv",
   "parameters" :
   [
    {
     "is_this_ptr" : true,
     "referenced_type" : "_ZTIPKN3art7DexFileE"
    }
   ],
   "return_type" : "_ZTIRKNSt3__112basic_stringIcNS_11char_traitsIcEENS_9allocatorIcEEEE",
   "source_file" : "art/libdexfile/dex/dex_file.h"
  },
  {
   "function_name" : "art::DexFile::GetMethodId",
   "linker_set_key" : "_ZNK3art7DexFile11GetMethodIdEj",
   "parameters" :
   [
    {
     "is_this_ptr" : true,
     "referenced_type" : "_ZTIPKN3art7DexFileE"
    },
    {
     "referenced_type" : "_ZTIj"
    }
   ],
   "return_type" : "_ZTIRKN3art3dex8MethodIdE",
   "source_file" : "art/libdexfile/dex/dex_file.h"
  },
  {
   "function_name" : "art::DexFile::GetStringId",
   "linker_set_key" : "_ZNK3art7DexFile11GetStringIdENS_3dex11StringIndexE",
   "parameters" :
   [
    {
     "is_this_ptr" : true,
     "referenced_type" : "_ZTIPKN3art7DexFileE"
    },
    {
     "referenced_type" : "_ZTIN3art3dex11StringIndexE"
    }
   ],
   "return_type" : "_ZTIRKN3art3dex8StringIdE",
   "source_file" : "art/libdexfile/dex/dex_file.h"
  },
  {
   "function_name" : "art::DexFile::NumFieldIds",
   "linker_set_key" : "_ZNK3art7DexFile11NumFieldIdsEv",
   "parameters" :
   [
    {
     "is_this_ptr" : true,
     "referenced_type" : "_ZTIPKN3art7DexFileE"
    }
   ],
   "return_type" : "_ZTIm",
   "source_file" : "art/libdexfile/dex/dex_file.h"
  },
  {
   "function_name" : "art::DexFile::NumProtoIds",
   "linker_set_key" : "_ZNK3art7DexFile11NumProtoIdsEv",
   "parameters" :
   [
    {
     "is_this_ptr" : true,
     "referenced_type" : "_ZTIPKN3art7DexFileE"
    }
   ],
   "return_type" : "_ZTIm",
   "source_file" : "art/libdexfile/dex/dex_file.h"
  },
  {
   "function_name" : "art::DexFile::GetClassData",
   "linker_set_key" : "_ZNK3art7DexFile12GetClassDataERKNS_3dex8ClassDefE",
   "parameters" :
   [
    {
     "is_this_ptr" : true,
     "referenced_type" : "_ZTIPKN3art7DexFileE"
    },
    {
     "referenced_type" : "_ZTIRKN3art3dex8ClassDefE"
    }
   ],
   "return_type" : "_ZTIPKh",
   "source_file" : "art/libdexfile/dex/dex_file.h"
  },
  {
   "function_name" : "art::DexFile::GetContainer",
   "linker_set_key" : "_ZNK3art7DexFile12GetContainerEv",
   "parameters" :
   [
    {
     "is_this_ptr" : true,
     "referenced_type" : "_ZTIPKN3art7DexFileE"
    }
   ],
   "return_type" : "_ZTIPN3art16DexFileContainerE",
   "source_file" : "art/libdexfile/dex/dex_file.h"
  },
  {
   "function_name" : "art::DexFile::NumClassDefs",
   "linker_set_key" : "_ZNK3art7DexFile12NumClassDefsEv",
   "parameters" :
   [
    {
     "is_this_ptr" : true,
     "referenced_type" : "_ZTIPKN3art7DexFileE"
    }
   ],
   "return_type" : "_ZTIj",
   "source_file" : "art/libdexfile/dex/dex_file.h"
  },
  {
   "function_name" : "art::DexFile::NumMethodIds",
   "linker_set_key" : "_ZNK3art7DexFile12NumMethodIdsEv",
   "parameters" :
   [
    {
     "is_this_ptr" : true,
     "referenced_type" : "_ZTIPKN3art7DexFileE"
    }
   ],
   "return_type" : "_ZTIm",
   "source_file" : "art/libdexfile/dex/dex_file.h"
  },
  {
   "function_name" : "art::DexFile::NumStringIds",
   "linker_set_key" : "_ZNK3art7DexFile12NumStringIdsEv",
   "parameters" :
   [
    {
     "is_this_ptr" : true,
     "referenced_type" : "_ZTIPKN3art7DexFileE"
    }
   ],
   "return_type" : "_ZTIm",
   "source_file" : "art/libdexfile/dex/dex_file.h"
  },
  {
   "function_name" : "art::DexFile::PrettyMethod",
   "linker_set_key" : "_ZNK3art7DexFile12PrettyMethodEjb",
   "parameters" :
   [
    {
     "is_this_ptr" : true,
     "referenced_type" : "_ZTIPKN3art7DexFileE"
    },
    {
     "referenced_type" : "_ZTIj"
    },
    {
     "default_arg" : true,
     "referenced_type" : "_ZTIb"
    }
   ],
   "return_type" : "_ZTINSt3__112basic_stringIcNS_11char_traitsIcEENS_9allocatorIcEEEE",
   "source_file" : "art/libdexfile/dex/dex_file.h"
  },
  {
   "function_name" : "art::DexFile::GetCallSiteId",
   "linker_set_key" : "_ZNK3art7DexFile13GetCallSiteIdEj",
   "parameters" :
   [
    {
     "is_this_ptr" : true,
     "referenced_type" : "_ZTIPKN3art7DexFileE"
    },
    {
     "referenced_type" : "_ZTIj"
    }
   ],
   "return_type" : "_ZTIRKN3art3dex14CallSiteIdItemE",
   "source_file" : "art/libdexfile/dex/dex_file.h"
  },
  {
   "function_name" : "art::DexFile::GetDexVersion",
   "linker_set_key" : "_ZNK3art7DexFile13GetDexVersionEv",
   "parameters" :
   [
    {
     "is_this_ptr" : true,
     "referenced_type" : "_ZTIPKN3art7DexFileE"
    }
   ],
   "return_type" : "_ZTIj",
   "source_file" : "art/libdexfile/dex/dex_file.h"
  },
  {
   "function_name" : "art::DexFile::GetOatDexFile",
   "linker_set_key" : "_ZNK3art7DexFile13GetOatDexFileEv",
   "parameters" :
   [
    {
     "is_this_ptr" : true,
     "referenced_type" : "_ZTIPKN3art7DexFileE"
    }
   ],
   "return_type" : "_ZTIPKN3art10OatDexFileE",
   "source_file" : "art/libdexfile/dex/dex_file.h"
  },
  {
   "function_name" : "art::DexFile::GetSourceFile",
   "linker_set_key" : "_ZNK3art7DexFile13GetSourceFileERKNS_3dex8ClassDefE",
   "parameters" :
   [
    {
     "is_this_ptr" : true,
     "referenced_type" : "_ZTIPKN3art7DexFileE"
    },
    {
     "referenced_type" : "_ZTIRKN3art3dex8ClassDefE"
    }
   ],
   "return_type" : "_ZTIPKc",
   "source_file" : "art/libdexfile/dex/dex_file.h"
  },
  {
   "function_name" : "art::DexFile::SetOatDexFile",
   "linker_set_key" : "_ZNK3art7DexFile13SetOatDexFileEPKNS_10OatDexFileE",
   "parameters" :
   [
    {
     "is_this_ptr" : true,
     "referenced_type" : "_ZTIPKN3art7DexFileE"
    },
    {
     "referenced_type" : "_ZTIPKN3art10OatDexFileE"
    }
   ],
   "return_type" : "_ZTIv",
   "source_file" : "art/libdexfile/dex/dex_file.h"
  },
  {
   "function_name" : "art::DexFile::NumCallSiteIds",
   "linker_set_key" : "_ZNK3art7DexFile14NumCallSiteIdsEv",
   "parameters" :
   [
    {
     "is_this_ptr" : true,
     "referenced_type" : "_ZTIPKN3art7DexFileE"
    }
   ],
   "return_type" : "_ZTIj",
   "source_file" : "art/libdexfile/dex/dex_file.h"
  },
  {
   "function_name" : "art::DexFile::GetMethodHandle",
   "linker_set_key" : "_ZNK3art7DexFile15GetMethodHandleEj",
   "parameters" :
   [
    {
     "is_this_ptr" : true,
     "referenced_type" : "_ZTIPKN3art7DexFileE"
    },
    {
     "referenced_type" : "_ZTIj"
    }
   ],
   "return_type" : "_ZTIRKN3art3dex16MethodHandleItemE",
   "source_file" : "art/libdexfile/dex/dex_file.h"
  },
  {
   "function_name" : "art::DexFile::IsInDataSection",
   "linker_set_key" : "_ZNK3art7DexFile15IsInDataSectionEPKv",
   "parameters" :
   [
    {
     "is_this_ptr" : true,
     "referenced_type" : "_ZTIPKN3art7DexFileE"
    },
    {
     "referenced_type" : "_ZTIPKv"
    }
   ],
   "return_type" : "_ZTIb",
   "source_file" : "art/libdexfile/dex/dex_file.h"
  },
  {
   "function_name" : "art::DexFile::IsInMainSection",
   "linker_set_key" : "_ZNK3art7DexFile15IsInMainSectionEPKv",
   "parameters" :
   [
    {
     "is_this_ptr" : true,
     "referenced_type" : "_ZTIPKN3art7DexFileE"
    },
    {
     "referenced_type" : "_ZTIPKv"
    }
   ],
   "return_type" : "_ZTIb",
   "source_file" : "art/libdexfile/dex/dex_file.h"
  },
  {
   "function_name" : "art::DexFile::IsCompactDexFile",
   "linker_set_key" : "_ZNK3art7DexFile16IsCompactDexFileEv",
   "parameters" :
   [
    {
     "is_this_ptr" : true,
     "referenced_type" : "_ZTIPKN3art7DexFileE"
    }
   ],
   "return_type" : "_ZTIb",
   "source_file" : "art/libdexfile/dex/dex_file.h"
  },
  {
   "function_name" : "art::DexFile::IsTypeIndexValid",
   "linker_set_key" : "_ZNK3art7DexFile16IsTypeIndexValidENS_3dex9TypeIndexE",
   "parameters" :
   [
    {
     "is_this_ptr" : true,
     "referenced_type" : "_ZTIPKN3art7DexFileE"
    },
    {
     "referenced_type" : "_ZTIN3art3dex9TypeIndexE"
    }
   ],
   "return_type" : "_ZTIb",
   "source_file" : "art/libdexfile/dex/dex_file.h"
  },
  {
   "function_name" : "art::DexFile::NumMethodHandles",
   "linker_set_key" : "_ZNK3art7DexFile16NumMethodHandlesEv",
   "parameters" :
   [
    {
     "is_this_ptr" : true,
     "referenced_type" : "_ZTIPKN3art7DexFileE"
    }
   ],
   "return_type" : "_ZTIj",
   "source_file" : "art/libdexfile/dex/dex_file.h"
  },
  {
   "function_name" : "art::DexFile::GetAnnotationItem",
   "linker_set_key" : "_ZNK3art7DexFile17GetAnnotationItemEPKNS_3dex17AnnotationSetItemEj",
   "parameters" :
   [
    {
     "is_this_ptr" : true,
     "referenced_type" : "_ZTIPKN3art7DexFileE"
    },
    {
     "referenced_type" : "_ZTIPKN3art3dex17AnnotationSetItemE"
    },
    {
     "referenced_type" : "_ZTIj"
    }
   ],
   "return_type" : "_ZTIPKN3art3dex14AnnotationItemE",
   "source_file" : "art/libdexfile/dex/dex_file.h"
  },
  {
   "function_name" : "art::DexFile::GetIndexForTypeId",
   "linker_set_key" : "_ZNK3art7DexFile17GetIndexForTypeIdERKNS_3dex6TypeIdE",
   "parameters" :
   [
    {
     "is_this_ptr" : true,
     "referenced_type" : "_ZTIPKN3art7DexFileE"
    },
    {
     "referenced_type" : "_ZTIRKN3art3dex6TypeIdE"
    }
   ],
   "return_type" : "_ZTIN3art3dex9TypeIndexE",
   "source_file" : "art/libdexfile/dex/dex_file.h"
  },
  {
   "function_name" : "art::DexFile::GetInterfacesList",
   "linker_set_key" : "_ZNK3art7DexFile17GetInterfacesListERKNS_3dex8ClassDefE",
   "parameters" :
   [
    {
     "is_this_ptr" : true,
     "referenced_type" : "_ZTIPKN3art7DexFileE"
    },
    {
     "referenced_type" : "_ZTIRKN3art3dex8ClassDefE"
    }
   ],
   "return_type" : "_ZTIPKN3art3dex8TypeListE",
   "source_file" : "art/libdexfile/dex/dex_file.h"
  },
  {
   "function_name" : "art::DexFile::GetSetRefItemItem",
   "linker_set_key" : "_ZNK3art7DexFile17GetSetRefItemItemEPKNS_3dex20AnnotationSetRefItemE",
   "parameters" :
   [
    {
     "is_this_ptr" : true,
     "referenced_type" : "_ZTIPKN3art7DexFileE"
    },
    {
     "referenced_type" : "_ZTIPKN3art3dex20AnnotationSetRefItemE"
    }
   ],
   "return_type" : "_ZTIPKN3art3dex17AnnotationSetItemE",
   "source_file" : "art/libdexfile/dex/dex_file.h"
  },
  {
   "function_name" : "art::DexFile::IsStandardDexFile",
   "linker_set_key" : "_ZNK3art7DexFile17IsStandardDexFileEv",
   "parameters" :
   [
    {
     "is_this_ptr" : true,
     "referenced_type" : "_ZTIPKN3art7DexFileE"
    }
   ],
   "return_type" : "_ZTIb",
   "source_file" : "art/libdexfile/dex/dex_file.h"
  },
  {
   "function_name" : "art::DexFile::GetDebugInfoStream",
   "linker_set_key" : "_ZNK3art7DexFile18GetDebugInfoStreamEj",
   "parameters" :
   [
    {
     "is_this_ptr" : true,
     "referenced_type" : "_ZTIPKN3art7DexFileE"
    },
    {
     "referenced_type" : "_ZTIj"
    }
   ],
   "return_type" : "_ZTIPKh",
   "source_file" : "art/libdexfile/dex/dex_file.h"
  },
  {
   "function_name" : "art::DexFile::GetHiddenapiDomain",
   "linker_set_key" : "_ZNK3art7DexFile18GetHiddenapiDomainEv",
   "parameters" :
   [
    {
     "is_this_ptr" : true,
     "referenced_type" : "_ZTIPKN3art7DexFileE"
    }
   ],
   "return_type" : "_ZTIN3art9hiddenapi6DomainE",
   "source_file" : "art/libdexfile/dex/dex_file.h"
  },
  {
   "function_name" : "art::DexFile::GetIndexForFieldId",
   "linker_set_key" : "_ZNK3art7DexFile18GetIndexForFieldIdERKNS_3dex7FieldIdE",
   "parameters" :
   [
    {
     "is_this_ptr" : true,
     "referenced_type" : "_ZTIPKN3art7DexFileE"
    },
    {
     "referenced_type" : "_ZTIRKN3art3dex7FieldIdE"
    }
   ],
   "return_type" : "_ZTIj",
   "source_file" : "art/libdexfile/dex/dex_file.h"
  },
  {
   "function_name" : "art::DexFile::GetIndexForProtoId",
   "linker_set_key" : "_ZNK3art7DexFile18GetIndexForProtoIdERKNS_3dex7ProtoIdE",
   "parameters" :
   [
    {
     "is_this_ptr" : true,
     "referenced_type" : "_ZTIPKN3art7DexFileE"
    },
    {
     "referenced_type" : "_ZTIRKN3art3dex7ProtoIdE"
    }
   ],
   "return_type" : "_ZTIN3art3dex10ProtoIndexE",
   "source_file" : "art/libdexfile/dex/dex_file.h"
  },
  {
   "function_name" : "art::DexFile::GetMethodPrototype",
   "linker_set_key" : "_ZNK3art7DexFile18GetMethodPrototypeERKNS_3dex8MethodIdE",
   "parameters" :
   [
    {
     "is_this_ptr" : true,
     "referenced_type" : "_ZTIPKN3art7DexFileE"
    },
    {
     "referenced_type" : "_ZTIRKN3art3dex8MethodIdE"
    }
   ],
   "return_type" : "_ZTIRKN3art3dex7ProtoIdE",
   "source_file" : "art/libdexfile/dex/dex_file.h"
  },
  {
   "function_name" : "art::DexFile::GetProtoParameters",
   "linker_set_key" : "_ZNK3art7DexFile18GetProtoParametersERKNS_3dex7ProtoIdE",
   "parameters" :
   [
    {
     "is_this_ptr" : true,
     "referenced_type" : "_ZTIPKN3art7DexFileE"
    },
    {
     "referenced_type" : "_ZTIRKN3art3dex7ProtoIdE"
    }
   ],
   "return_type" : "_ZTIPKN3art3dex8TypeListE",
   "source_file" : "art/libdexfile/dex/dex_file.h"
  },
  {
   "function_name" : "art::DexFile::SetHiddenapiDomain",
   "linker_set_key" : "_ZNK3art7DexFile18SetHiddenapiDomainENS_9hiddenapi6DomainE",
   "parameters" :
   [
    {
     "is_this_ptr" : true,
     "referenced_type" : "_ZTIPKN3art7DexFileE"
    },
    {
     "referenced_type" : "_ZTIN3art9hiddenapi6DomainE"
    }
   ],
   "return_type" : "_ZTIv",
   "source_file" : "art/libdexfile/dex/dex_file.h"
  },
  {
   "function_name" : "art::DexFile::GetFieldAnnotations",
   "linker_set_key" : "_ZNK3art7DexFile19GetFieldAnnotationsEPKNS_3dex24AnnotationsDirectoryItemE",
   "parameters" :
   [
    {
     "is_this_ptr" : true,
     "referenced_type" : "_ZTIPKN3art7DexFileE"
    },
    {
     "referenced_type" : "_ZTIPKN3art3dex24AnnotationsDirectoryItemE"
    }
   ],
   "return_type" : "_ZTIPKN3art3dex20FieldAnnotationsItemE",
   "source_file" : "art/libdexfile/dex/dex_file.h"
  },
  {
   "function_name" : "art::DexFile::GetIndexForClassDef",
   "linker_set_key" : "_ZNK3art7DexFile19GetIndexForClassDefERKNS_3dex8ClassDefE",
   "parameters" :
   [
    {
     "is_this_ptr" : true,
     "referenced_type" : "_ZTIPKN3art7DexFileE"
    },
    {
     "referenced_type" : "_ZTIRKN3art3dex8ClassDefE"
    }
   ],
   "return_type" : "_ZTIt",
   "source_file" : "art/libdexfile/dex/dex_file.h"
  },
  {
   "function_name" : "art::DexFile::GetIndexForMethodId",
   "linker_set_key" : "_ZNK3art7DexFile19GetIndexForMethodIdERKNS_3dex8MethodIdE",
   "parameters" :
   [
    {
     "is_this_ptr" : true,
     "referenced_type" : "_ZTIPKN3art7DexFileE"
    },
    {
     "referenced_type" : "_ZTIRKN3art3dex8MethodIdE"
    }
   ],
   "return_type" : "_ZTIj",
   "source_file" : "art/libdexfile/dex/dex_file.h"
  },
  {
   "function_name" : "art::DexFile::GetIndexForStringId",
   "linker_set_key" : "_ZNK3art7DexFile19GetIndexForStringIdERKNS_3dex8StringIdE",
   "parameters" :
   [
    {
     "is_this_ptr" : true,
     "referenced_type" : "_ZTIPKN3art7DexFileE"
    },
    {
     "referenced_type" : "_ZTIRKN3art3dex8StringIdE"
    }
   ],
   "return_type" : "_ZTIN3art3dex11StringIndexE",
   "source_file" : "art/libdexfile/dex/dex_file.h"
  },
  {
   "function_name" : "art::DexFile::GetLocationChecksum",
   "linker_set_key" : "_ZNK3art7DexFile19GetLocationChecksumEv",
   "parameters" :
   [
    {
     "is_this_ptr" : true,
     "referenced_type" : "_ZTIPKN3art7DexFileE"
    }
   ],
   "return_type" : "_ZTIj",
   "source_file" : "art/libdexfile/dex/dex_file.h"
  },
  {
   "function_name" : "art::DexFile::GetMethodAnnotations",
   "linker_set_key" : "_ZNK3art7DexFile20GetMethodAnnotationsEPKNS_3dex24AnnotationsDirectoryItemE",
   "parameters" :
   [
    {
     "is_this_ptr" : true,
     "referenced_type" : "_ZTIPKN3art7DexFileE"
    },
    {
     "referenced_type" : "_ZTIPKN3art3dex24AnnotationsDirectoryItemE"
    }
   ],
   "return_type" : "_ZTIPKN3art3dex21MethodAnnotationsItemE",
   "source_file" : "art/libdexfile/dex/dex_file.h"
  },
  {
   "function_name" : "art::DexFile::GetClassAnnotationSet",
   "linker_set_key" : "_ZNK3art7DexFile21GetClassAnnotationSetEPKNS_3dex24AnnotationsDirectoryItemE",
   "parameters" :
   [
    {
     "is_this_ptr" : true,
     "referenced_type" : "_ZTIPKN3art7DexFileE"
    },
    {
     "referenced_type" : "_ZTIPKN3art3dex24AnnotationsDirectoryItemE"
    }
   ],
   "return_type" : "_ZTIPKN3art3dex17AnnotationSetItemE",
   "source_file" : "art/libdexfile/dex/dex_file.h"
  },
  {
   "function_name" : "art::DexFile::GetHiddenapiClassData",
   "linker_set_key" : "_ZNK3art7DexFile21GetHiddenapiClassDataEv",
   "parameters" :
   [
    {
     "is_this_ptr" : true,
     "referenced_type" : "_ZTIPKN3art7DexFileE"
    }
   ],
   "return_type" : "_ZTIPKN3art3dex18HiddenapiClassDataE",
   "source_file" : "art/libdexfile/dex/dex_file.h"
  },
  {
   "function_name" : "art::DexFile::HasHiddenapiClassData",
   "linker_set_key" : "_ZNK3art7DexFile21HasHiddenapiClassDataEv",
   "parameters" :
   [
    {
     "is_this_ptr" : true,
     "referenced_type" : "_ZTIPKN3art7DexFileE"
    }
   ],
   "return_type" : "_ZTIb",
   "source_file" : "art/libdexfile/dex/dex_file.h"
  },
  {
   "function_name" : "art::DexFile::GetAnnotationsDirectory",
   "linker_set_key" : "_ZNK3art7DexFile23GetAnnotationsDirectoryERKNS_3dex8ClassDefE",
   "parameters" :
   [
    {
     "is_this_ptr" : true,
     "referenced_type" : "_ZTIPKN3art7DexFileE"
    },
    {
     "referenced_type" : "_ZTIRKN3art3dex8ClassDefE"
    }
   ],
   "return_type" : "_ZTIPKN3art3dex24AnnotationsDirectoryItemE",
   "source_file" : "art/libdexfile/dex/dex_file.h"
  },
  {
   "function_name" : "art::DexFile::GetParameterAnnotations",
   "linker_set_key" : "_ZNK3art7DexFile23GetParameterAnnotationsEPKNS_3dex24AnnotationsDirectoryItemE",
   "parameters" :
   [
    {
     "is_this_ptr" : true,
     "referenced_type" : "_ZTIPKN3art7DexFileE"
    },
    {
     "referenced_type" : "_ZTIPKN3art3dex24AnnotationsDirectoryItemE"
    }
   ],
   "return_type" : "_ZTIPKN3art3dex24ParameterAnnotationsItemE",
   "source_file" : "art/libdexfile/dex/dex_file.h"
  },
  {
   "function_name" : "art::DexFile::GetAnnotationItemAtOffset",
   "linker_set_key" : "_ZNK3art7DexFile25GetAnnotationItemAtOffsetEj",
   "parameters" :
   [
    {
     "is_this_ptr" : true,
     "referenced_type" : "_ZTIPKN3art7DexFileE"
    },
    {
     "referenced_type" : "_ZTIj"
    }
   ],
   "return_type" : "_ZTIPKN3art3dex14AnnotationItemE",
   "source_file" : "art/libdexfile/dex/dex_file.h"
  },
  {
   "function_name" : "art::DexFile::GetFieldAnnotationSetItem",
   "linker_set_key" : "_ZNK3art7DexFile25GetFieldAnnotationSetItemERKNS_3dex20FieldAnnotationsItemE",
   "parameters" :
   [
    {
     "is_this_ptr" : true,
     "referenced_type" : "_ZTIPKN3art7DexFileE"
    },
    {
     "referenced_type" : "_ZTIRKN3art3dex20FieldAnnotationsItemE"
    }
   ],
   "return_type" : "_ZTIPKN3art3dex17AnnotationSetItemE",
   "source_file" : "art/libdexfile/dex/dex_file.h"
  },
  {
   "function_name" : "art::DexFile::GetMethodAnnotationSetItem",
   "linker_set_key" : "_ZNK3art7DexFile26GetMethodAnnotationSetItemERKNS_3dex21MethodAnnotationsItemE",
   "parameters" :
   [
    {
     "is_this_ptr" : true,
     "referenced_type" : "_ZTIPKN3art7DexFileE"
    },
    {
     "referenced_type" : "_ZTIRKN3art3dex21MethodAnnotationsItemE"
    }
   ],
   "return_type" : "_ZTIPKN3art3dex17AnnotationSetItemE",
   "source_file" : "art/libdexfile/dex/dex_file.h"
  },
  {
   "function_name" : "art::DexFile::GetCallSiteEncodedValuesArray",
   "linker_set_key" : "_ZNK3art7DexFile29GetCallSiteEncodedValuesArrayERKNS_3dex14CallSiteIdItemE",
   "parameters" :
   [
    {
     "is_this_ptr" : true,
     "referenced_type" : "_ZTIPKN3art7DexFileE"
    },
    {
     "referenced_type" : "_ZTIRKN3art3dex14CallSiteIdItemE"
    }
   ],
   "return_type" : "_ZTIPKh",
   "source_file" : "art/libdexfile/dex/dex_file.h"
  },
  {
   "function_name" : "art::DexFile::GetHiddenapiClassDataAtOffset",
   "linker_set_key" : "_ZNK3art7DexFile29GetHiddenapiClassDataAtOffsetEj",
   "parameters" :
   [
    {
     "is_this_ptr" : true,
     "referenced_type" : "_ZTIPKN3art7DexFileE"
    },
    {
     "referenced_type" : "_ZTIj"
    }
   ],
   "return_type" : "_ZTIPKN3art3dex18HiddenapiClassDataE",
   "source_file" : "art/libdexfile/dex/dex_file.h"
  },
  {
   "function_name" : "art::DexFile::GetEncodedStaticFieldValuesArray",
   "linker_set_key" : "_ZNK3art7DexFile32GetEncodedStaticFieldValuesArrayERKNS_3dex8ClassDefE",
   "parameters" :
   [
    {
     "is_this_ptr" : true,
     "referenced_type" : "_ZTIPKN3art7DexFileE"
    },
    {
     "referenced_type" : "_ZTIRKN3art3dex8ClassDefE"
    }
   ],
   "return_type" : "_ZTIPKh",
   "source_file" : "art/libdexfile/dex/dex_file.h"
  },
  {
   "function_name" : "art::DexFile::GetFieldDeclaringClassDescriptor",
   "linker_set_key" : "_ZNK3art7DexFile32GetFieldDeclaringClassDescriptorERKNS_3dex7FieldIdE",
   "parameters" :
   [
    {
     "is_this_ptr" : true,
     "referenced_type" : "_ZTIPKN3art7DexFileE"
    },
    {
     "referenced_type" : "_ZTIRKN3art3dex7FieldIdE"
    }
   ],
   "return_type" : "_ZTIPKc",
   "source_file" : "art/libdexfile/dex/dex_file.h"
  },
  {
   "function_name" : "art::DexFile::GetParameterAnnotationSetRefList",
   "linker_set_key" : "_ZNK3art7DexFile32GetParameterAnnotationSetRefListEPKNS_3dex24ParameterAnnotationsItemE",
   "parameters" :
   [
    {
     "is_this_ptr" : true,
     "referenced_type" : "_ZTIPKN3art7DexFileE"
    },
    {
     "referenced_type" : "_ZTIPKN3art3dex24ParameterAnnotationsItemE"
    }
   ],
   "return_type" : "_ZTIPKN3art3dex20AnnotationSetRefListE",
   "source_file" : "art/libdexfile/dex/dex_file.h"
  },
  {
   "function_name" : "art::DexFile::Size",
   "linker_set_key" : "_ZNK3art7DexFile4SizeEv",
   "parameters" :
   [
    {
     "is_this_ptr" : true,
     "referenced_type" : "_ZTIPKN3art7DexFileE"
    }
   ],
   "return_type" : "_ZTIm",
   "source_file" : "art/libdexfile/dex/dex_file.h"
  },
  {
   "function_name" : "art::DexFile::Begin",
   "linker_set_key" : "_ZNK3art7DexFile5BeginEv",
   "parameters" :
   [
    {
     "is_this_ptr" : true,
     "referenced_type" : "_ZTIPKN3art7DexFileE"
    }
   ],
   "return_type" : "_ZTIPKh",
   "source_file" : "art/libdexfile/dex/dex_file.h"
  },
  {
   "function_name" : "art::DexFile::DataSize",
   "linker_set_key" : "_ZNK3art7DexFile8DataSizeEv",
   "parameters" :
   [
    {
     "is_this_ptr" : true,
     "referenced_type" : "_ZTIPKN3art7DexFileE"
    }
   ],
   "return_type" : "_ZTIm",
   "source_file" : "art/libdexfile/dex/dex_file.h"
  },
  {
   "function_name" : "art::DexFile::DataBegin",
   "linker_set_key" : "_ZNK3art7DexFile9DataBeginEv",
   "parameters" :
   [
    {
     "is_this_ptr" : true,
     "referenced_type" : "_ZTIPKN3art7DexFileE"
    }
   ],
   "return_type" : "_ZTIPKh",
   "source_file" : "art/libdexfile/dex/dex_file.h"
  },
  {
   "function_name" : "art::DexFile::GetHeader",
   "linker_set_key" : "_ZNK3art7DexFile9GetHeaderEv",
   "parameters" :
   [
    {
     "is_this_ptr" : true,
     "referenced_type" : "_ZTIPKN3art7DexFileE"
    }
   ],
   "return_type" : "_ZTIRKN3art7DexFile6HeaderE",
   "source_file" : "art/libdexfile/dex/dex_file.h"
  },
  {
   "function_name" : "art::DexFile::GetTypeId",
   "linker_set_key" : "_ZNK3art7DexFile9GetTypeIdENS_3dex9TypeIndexE",
   "parameters" :
   [
    {
     "is_this_ptr" : true,
     "referenced_type" : "_ZTIPKN3art7DexFileE"
    },
    {
     "referenced_type" : "_ZTIN3art3dex9TypeIndexE"
    }
   ],
   "return_type" : "_ZTIRKN3art3dex6TypeIdE",
   "source_file" : "art/libdexfile/dex/dex_file.h"
  },
  {
   "function_name" : "art::CountIter::operator*",
   "linker_set_key" : "_ZNK3art9CountIterdeEv",
   "parameters" :
   [
    {
     "is_this_ptr" : true,
     "referenced_type" : "_ZTIPKN3art9CountIterE"
    }
   ],
   "return_type" : "_ZTIm",
   "source_file" : "art/libartbase/base/stl_util.h"
  },
  {
   "function_name" : "art::CountIter::operator==",
   "linker_set_key" : "_ZNK3art9CountItereqERKS0_",
   "parameters" :
   [
    {
     "is_this_ptr" : true,
     "referenced_type" : "_ZTIPKN3art9CountIterE"
    },
    {
     "referenced_type" : "_ZTIRKN3art9CountIterE"
    }
   ],
   "return_type" : "_ZTIb",
   "source_file" : "art/libartbase/base/stl_util.h"
  },
  {
   "function_name" : "art::CountIter::operator!=",
   "linker_set_key" : "_ZNK3art9CountIterneERKS0_",
   "parameters" :
   [
    {
     "is_this_ptr" : true,
     "referenced_type" : "_ZTIPKN3art9CountIterE"
    },
    {
     "referenced_type" : "_ZTIRKN3art9CountIterE"
    }
   ],
   "return_type" : "_ZTIb",
   "source_file" : "art/libartbase/base/stl_util.h"
  },
  {
   "function_name" : "android::base::ErrnoRestorer::operator bool",
   "linker_set_key" : "_ZNK7android4base13ErrnoRestorercvbEv",
   "parameters" :
   [
    {
     "is_this_ptr" : true,
     "referenced_type" : "_ZTIPKN7android4base13ErrnoRestorerE"
    }
   ],
   "return_type" : "_ZTIb",
   "source_file" : "system/libbase/include/android-base/errno_restorer.h"
  },
  {
   "function_name" : "unix_file::FdFile::GetPath",
   "linker_set_key" : "_ZNK9unix_file6FdFile7GetPathEv",
   "parameters" :
   [
    {
     "is_this_ptr" : true,
     "referenced_type" : "_ZTIPKN9unix_file6FdFileE"
    }
   ],
   "return_type" : "_ZTIRKNSt3__112basic_stringIcNS_11char_traitsIcEENS_9allocatorIcEEEE",
   "source_file" : "art/libartbase/base/unix_file/fd_file.h"
  },
  {
   "function_name" : "unix_file::FdFile::IsValid",
   "linker_set_key" : "_ZNK9unix_file6FdFile7IsValidEv",
   "parameters" :
   [
    {
     "is_this_ptr" : true,
     "referenced_type" : "_ZTIPKN9unix_file6FdFileE"
    }
   ],
   "return_type" : "_ZTIb",
   "source_file" : "art/libartbase/base/unix_file/fd_file.h"
  },
  {
   "function_name" : "std::__1::hash<art::dex::ProtoIndex>::operator()",
   "linker_set_key" : "_ZNKSt3__14hashIN3art3dex10ProtoIndexEEclERKS3_",
   "parameters" :
   [
    {
     "is_this_ptr" : true,
     "referenced_type" : "_ZTIPKNSt3__14hashIN3art3dex10ProtoIndexEEE"
    },
    {
     "referenced_type" : "_ZTIRKN3art3dex10ProtoIndexE"
    }
   ],
   "return_type" : "_ZTIm",
   "source_file" : "art/libdexfile/dex/dex_file_types.h"
  },
  {
   "function_name" : "std::__1::hash<art::dex::StringIndex>::operator()",
   "linker_set_key" : "_ZNKSt3__14hashIN3art3dex11StringIndexEEclERKS3_",
   "parameters" :
   [
    {
     "is_this_ptr" : true,
     "referenced_type" : "_ZTIPKNSt3__14hashIN3art3dex11StringIndexEEE"
    },
    {
     "referenced_type" : "_ZTIRKN3art3dex11StringIndexE"
    }
   ],
   "return_type" : "_ZTIm",
   "source_file" : "art/libdexfile/dex/dex_file_types.h"
  },
  {
   "function_name" : "std::__1::hash<art::dex::TypeIndex>::operator()",
   "linker_set_key" : "_ZNKSt3__14hashIN3art3dex9TypeIndexEEclERKS3_",
   "parameters" :
   [
    {
     "is_this_ptr" : true,
     "referenced_type" : "_ZTIPKNSt3__14hashIN3art3dex9TypeIndexEEE"
    },
    {
     "referenced_type" : "_ZTIRKN3art3dex9TypeIndexE"
    }
   ],
   "return_type" : "_ZTIm",
   "source_file" : "art/libdexfile/dex/dex_file_types.h"
  },
  {
   "function_name" : "std::operator<<",
   "linker_set_key" : "_ZStlsRNSt3__113basic_ostreamIcNS_11char_traitsIcEEEEPKNS_12basic_stringIcS2_NS_9allocatorIcEEEE",
   "parameters" :
   [
    {
     "referenced_type" : "_ZTIRNSt3__113basic_ostreamIcNS_11char_traitsIcEEEE"
    },
    {
     "referenced_type" : "_ZTIPKNSt3__112basic_stringIcNS_11char_traitsIcEENS_9allocatorIcEEEE"
    }
   ],
   "return_type" : "_ZTIRNSt3__113basic_ostreamIcNS_11char_traitsIcEEEE",
   "source_file" : "system/libbase/include/android-base/logging.h"
  }
 ],
 "global_vars" :
 [
  {
   "linker_set_key" : "_ZN3art13DexFileLoader11kClassesDexE",
   "name" : "art::DexFileLoader::kClassesDex",
   "referenced_type" : "_ZTIKPKc",
   "source_file" : "art/libdexfile/dex/dex_file_loader.h"
  },
  {
   "linker_set_key" : "_ZN3art13DexFileLoader18kMultiDexSeparatorE",
   "name" : "art::DexFileLoader::kMultiDexSeparator",
   "referenced_type" : "_ZTIKc",
   "source_file" : "art/libdexfile/dex/dex_file_loader.h"
  },
  {
   "linker_set_key" : "_ZN3art14CompactDexFile16kDexMagicVersionE",
   "name" : "art::CompactDexFile::kDexMagicVersion",
   "referenced_type" : "_ZTIA4_Kh",
   "source_file" : "art/libdexfile/dex/compact_dex_file.h"
  },
  {
   "linker_set_key" : "_ZN3art14CompactDexFile8CodeItem10kAlignmentE",
   "name" : "art::CompactDexFile::CodeItem::kAlignment",
   "referenced_type" : "_ZTIKm",
   "source_file" : "art/libdexfile/dex/compact_dex_file.h"
  },
  {
   "linker_set_key" : "_ZN3art14CompactDexFile8CodeItem13kInsSizeShiftE",
   "name" : "art::CompactDexFile::CodeItem::kInsSizeShift",
   "referenced_type" : "_ZTIKm",
   "source_file" : "art/libdexfile/dex/compact_dex_file.h"
  },
  {
   "linker_set_key" : "_ZN3art14CompactDexFile8CodeItem14kInsnsSizeBitsE",
   "name" : "art::CompactDexFile::CodeItem::kInsnsSizeBits",
   "referenced_type" : "_ZTIKm",
   "source_file" : "art/libdexfile/dex/compact_dex_file.h"
  },
  {
   "linker_set_key" : "_ZN3art14CompactDexFile8CodeItem14kOutsSizeShiftE",
   "name" : "art::CompactDexFile::CodeItem::kOutsSizeShift",
   "referenced_type" : "_ZTIKm",
   "source_file" : "art/libdexfile/dex/compact_dex_file.h"
  },
  {
   "linker_set_key" : "_ZN3art14CompactDexFile8CodeItem15kInsnsSizeShiftE",
   "name" : "art::CompactDexFile::CodeItem::kInsnsSizeShift",
   "referenced_type" : "_ZTIKm",
   "source_file" : "art/libdexfile/dex/compact_dex_file.h"
  },
  {
   "linker_set_key" : "_ZN3art14CompactDexFile8CodeItem17kMaxPreHeaderSizeE",
   "name" : "art::CompactDexFile::CodeItem::kMaxPreHeaderSize",
   "referenced_type" : "_ZTIKm",
   "source_file" : "art/libdexfile/dex/compact_dex_file.h"
  },
  {
   "linker_set_key" : "_ZN3art14CompactDexFile8CodeItem19kRegistersSizeShiftE",
   "name" : "art::CompactDexFile::CodeItem::kRegistersSizeShift",
   "referenced_type" : "_ZTIKm",
   "source_file" : "art/libdexfile/dex/compact_dex_file.h"
  },
  {
   "linker_set_key" : "_ZN3art14CompactDexFile8CodeItem19kTriesSizeSizeShiftE",
   "name" : "art::CompactDexFile::CodeItem::kTriesSizeSizeShift",
   "referenced_type" : "_ZTIKm",
   "source_file" : "art/libdexfile/dex/compact_dex_file.h"
  },
  {
   "linker_set_key" : "_ZN3art14CompactDexFile8CodeItem20kBitPreHeaderInsSizeE",
   "name" : "art::CompactDexFile::CodeItem::kBitPreHeaderInsSize",
   "referenced_type" : "_ZTIKt",
   "source_file" : "art/libdexfile/dex/compact_dex_file.h"
  },
  {
   "linker_set_key" : "_ZN3art14CompactDexFile8CodeItem21kBitPreHeaderOutsSizeE",
   "name" : "art::CompactDexFile::CodeItem::kBitPreHeaderOutsSize",
   "referenced_type" : "_ZTIKt",
   "source_file" : "art/libdexfile/dex/compact_dex_file.h"
  },
  {
   "linker_set_key" : "_ZN3art14CompactDexFile8CodeItem21kFlagPreHeaderInsSizeE",
   "name" : "art::CompactDexFile::CodeItem::kFlagPreHeaderInsSize",
   "referenced_type" : "_ZTIKt",
   "source_file" : "art/libdexfile/dex/compact_dex_file.h"
  },
  {
   "linker_set_key" : "_ZN3art14CompactDexFile8CodeItem22kBitPreHeaderInsnsSizeE",
   "name" : "art::CompactDexFile::CodeItem::kBitPreHeaderInsnsSize",
   "referenced_type" : "_ZTIKt",
   "source_file" : "art/libdexfile/dex/compact_dex_file.h"
  },
  {
   "linker_set_key" : "_ZN3art14CompactDexFile8CodeItem22kBitPreHeaderTriesSizeE",
   "name" : "art::CompactDexFile::CodeItem::kBitPreHeaderTriesSize",
   "referenced_type" : "_ZTIKt",
   "source_file" : "art/libdexfile/dex/compact_dex_file.h"
  },
  {
   "access" : "private",
   "linker_set_key" : "_ZN3art14CompactDexFile8CodeItem22kFlagPreHeaderCombinedE",
   "name" : "art::CompactDexFile::CodeItem::kFlagPreHeaderCombined",
   "referenced_type" : "_ZTIKt",
   "source_file" : "art/libdexfile/dex/compact_dex_file.h"
  },
  {
   "linker_set_key" : "_ZN3art14CompactDexFile8CodeItem22kFlagPreHeaderOutsSizeE",
   "name" : "art::CompactDexFile::CodeItem::kFlagPreHeaderOutsSize",
   "referenced_type" : "_ZTIKt",
   "source_file" : "art/libdexfile/dex/compact_dex_file.h"
  },
  {
   "linker_set_key" : "_ZN3art14CompactDexFile8CodeItem23kFlagPreHeaderInsnsSizeE",
   "name" : "art::CompactDexFile::CodeItem::kFlagPreHeaderInsnsSize",
   "referenced_type" : "_ZTIKt",
   "source_file" : "art/libdexfile/dex/compact_dex_file.h"
  },
  {
   "linker_set_key" : "_ZN3art14CompactDexFile8CodeItem23kFlagPreHeaderTriesSizeE",
   "name" : "art::CompactDexFile::CodeItem::kFlagPreHeaderTriesSize",
   "referenced_type" : "_ZTIKt",
   "source_file" : "art/libdexfile/dex/compact_dex_file.h"
  },
  {
   "linker_set_key" : "_ZN3art14CompactDexFile8CodeItem26kBitPreHeaderRegistersSizeE",
   "name" : "art::CompactDexFile::CodeItem::kBitPreHeaderRegistersSize",
   "referenced_type" : "_ZTIKt",
   "source_file" : "art/libdexfile/dex/compact_dex_file.h"
  },
  {
   "linker_set_key" : "_ZN3art14CompactDexFile8CodeItem27kFlagPreHeaderRegistersSizeE",
   "name" : "art::CompactDexFile::CodeItem::kFlagPreHeaderRegistersSize",
   "referenced_type" : "_ZTIKt",
   "source_file" : "art/libdexfile/dex/compact_dex_file.h"
  },
  {
   "linker_set_key" : "_ZN3art14CompactDexFile9kDexMagicE",
   "name" : "art::CompactDexFile::kDexMagic",
   "referenced_type" : "_ZTIA4_Kh",
   "source_file" : "art/libdexfile/dex/compact_dex_file.h"
  },
  {
   "linker_set_key" : "_ZN3art15StandardDexFile15kNumDexVersionsE",
   "name" : "art::StandardDexFile::kNumDexVersions",
   "referenced_type" : "_ZTIKm",
   "source_file" : "art/libdexfile/dex/standard_dex_file.h"
  },
  {
   "linker_set_key" : "_ZN3art15StandardDexFile17kDexMagicVersionsE",
   "name" : "art::StandardDexFile::kDexMagicVersions",
   "referenced_type" : "_ZTIA5_A4_Kh",
   "source_file" : "art/libdexfile/dex/standard_dex_file.h"
  },
  {
   "linker_set_key" : "_ZN3art15StandardDexFile8CodeItem10kAlignmentE",
   "name" : "art::StandardDexFile::CodeItem::kAlignment",
   "referenced_type" : "_ZTIKm",
   "source_file" : "art/libdexfile/dex/standard_dex_file.h"
  },
  {
   "linker_set_key" : "_ZN3art15StandardDexFile9kDexMagicE",
   "name" : "art::StandardDexFile::kDexMagic",
   "referenced_type" : "_ZTIA4_Kh",
   "source_file" : "art/libdexfile/dex/standard_dex_file.h"
  },
  {
   "linker_set_key" : "_ZN3art18CompactOffsetTable10kAlignmentE",
   "name" : "art::CompactOffsetTable::kAlignment",
   "referenced_type" : "_ZTIKm",
   "source_file" : "art/libdexfile/dex/compact_offset_table.h"
  },
  {
   "linker_set_key" : "_ZN3art18CompactOffsetTable17kElementsPerIndexE",
   "name" : "art::CompactOffsetTable::kElementsPerIndex",
   "referenced_type" : "_ZTIKm",
   "source_file" : "art/libdexfile/dex/compact_offset_table.h"
  },
  {
   "linker_set_key" : "_ZN3art23instruction_set_detailsL30kArmStackOverflowReservedBytesE",
   "name" : "art::instruction_set_details::kArmStackOverflowReservedBytes",
   "referenced_type" : "_ZTIKm",
   "source_file" : "art/libartbase/arch/instruction_set.h"
  },
  {
   "linker_set_key" : "_ZN3art23instruction_set_detailsL30kX86StackOverflowReservedBytesE",
   "name" : "art::instruction_set_details::kX86StackOverflowReservedBytes",
   "referenced_type" : "_ZTIKm",
   "source_file" : "art/libartbase/arch/instruction_set.h"
  },
  {
   "linker_set_key" : "_ZN3art23instruction_set_detailsL32kArm64StackOverflowReservedBytesE",
   "name" : "art::instruction_set_details::kArm64StackOverflowReservedBytes",
   "referenced_type" : "_ZTIKm",
   "source_file" : "art/libartbase/arch/instruction_set.h"
  },
  {
   "linker_set_key" : "_ZN3art23instruction_set_detailsL33kX86_64StackOverflowReservedBytesE",
   "name" : "art::instruction_set_details::kX86_64StackOverflowReservedBytes",
   "referenced_type" : "_ZTIKm",
   "source_file" : "art/libartbase/arch/instruction_set.h"
  },
  {
   "access" : "protected",
   "linker_set_key" : "_ZN3art25EncodedArrayValueIterator21kEncodedValueArgShiftE",
   "name" : "art::EncodedArrayValueIterator::kEncodedValueArgShift",
   "referenced_type" : "_ZTIKh",
   "source_file" : "art/libdexfile/dex/dex_file.h"
  },
  {
   "access" : "protected",
   "linker_set_key" : "_ZN3art25EncodedArrayValueIterator21kEncodedValueTypeMaskE",
   "name" : "art::EncodedArrayValueIterator::kEncodedValueTypeMask",
   "referenced_type" : "_ZTIKh",
   "source_file" : "art/libdexfile/dex/dex_file.h"
  },
  {
   "linker_set_key" : "_ZN3art3dex7TryItem10kAlignmentE",
   "name" : "art::dex::TryItem::kAlignment",
   "referenced_type" : "_ZTIKm",
   "source_file" : "art/libdexfile/dex/dex_file_structs.h"
  },
  {
   "linker_set_key" : "_ZN3art3dexL11kDexNoIndexE",
   "name" : "art::dex::kDexNoIndex",
   "referenced_type" : "_ZTIKj",
   "source_file" : "art/libdexfile/dex/dex_file_types.h"
  },
  {
   "access" : "private",
   "linker_set_key" : "_ZN3art6MemMap13next_mem_pos_E",
   "name" : "art::MemMap::next_mem_pos_",
   "referenced_type" : "_ZTIm",
   "source_file" : "art/libartbase/base/mem_map.h"
  },
  {
   "access" : "private",
   "linker_set_key" : "_ZN3art6MemMap14mem_maps_lock_E",
   "name" : "art::MemMap::mem_maps_lock_",
   "referenced_type" : "_ZTIPNSt3__15mutexE",
   "source_file" : "art/libartbase/base/mem_map.h"
  },
  {
   "linker_set_key" : "_ZN3art6MemMap18kCanReplaceMappingE",
   "name" : "art::MemMap::kCanReplaceMapping",
   "referenced_type" : "_ZTIKb",
   "source_file" : "art/libartbase/base/mem_map.h"
  },
  {
   "linker_set_key" : "_ZN3art7DexFile13kDexMagicSizeE",
   "name" : "art::DexFile::kDexMagicSize",
   "referenced_type" : "_ZTIKm",
   "source_file" : "art/libdexfile/dex/dex_file.h"
  },
  {
   "linker_set_key" : "_ZN3art7DexFile13kDexNoIndex16E",
   "name" : "art::DexFile::kDexNoIndex16",
   "referenced_type" : "_ZTIKt",
   "source_file" : "art/libdexfile/dex/dex_file.h"
  },
  {
   "linker_set_key" : "_ZN3art7DexFile13kDexNoIndex32E",
   "name" : "art::DexFile::kDexNoIndex32",
   "referenced_type" : "_ZTIKj",
   "source_file" : "art/libdexfile/dex/dex_file.h"
  },
  {
   "linker_set_key" : "_ZN3art7DexFile14kDexVersionLenE",
   "name" : "art::DexFile::kDexVersionLen",
   "referenced_type" : "_ZTIKm",
   "source_file" : "art/libdexfile/dex/dex_file.h"
  },
  {
   "linker_set_key" : "_ZN3art7DexFile15kSha1DigestSizeE",
   "name" : "art::DexFile::kSha1DigestSize",
   "referenced_type" : "_ZTIKm",
   "source_file" : "art/libdexfile/dex/dex_file.h"
  },
  {
   "linker_set_key" : "_ZN3art7DexFile18kDexEndianConstantE",
   "name" : "art::DexFile::kDexEndianConstant",
   "referenced_type" : "_ZTIKj",
   "source_file" : "art/libdexfile/dex/dex_file.h"
  },
  {
   "linker_set_key" : "_ZN3art7DexFile20kNumNonChecksumBytesE",
   "name" : "art::DexFile::kNumNonChecksumBytes",
   "referenced_type" : "_ZTIKj",
   "source_file" : "art/libdexfile/dex/dex_file.h"
  },
  {
   "access" : "protected",
   "linker_set_key" : "_ZN3art7DexFile22kDefaultMethodsVersionE",
   "name" : "art::DexFile::kDefaultMethodsVersion",
   "referenced_type" : "_ZTIKj",
   "source_file" : "art/libdexfile/dex/dex_file.h"
  },
  {
   "linker_set_key" : "_ZN3art7DexFile36kClassDefinitionOrderEnforcedVersionE",
   "name" : "art::DexFile::kClassDefinitionOrderEnforcedVersion",
   "referenced_type" : "_ZTIKj",
   "source_file" : "art/libdexfile/dex/dex_file.h"
  },
  {
   "linker_set_key" : "_ZN3artL10kAccBridgeE",
   "name" : "art::kAccBridge",
   "referenced_type" : "_ZTIKj",
   "source_file" : "art/libdexfile/dex/modifiers.h"
  },
  {
   "linker_set_key" : "_ZN3artL10kAccCopiedE",
   "name" : "art::kAccCopied",
   "referenced_type" : "_ZTIKj",
   "source_file" : "art/libdexfile/dex/modifiers.h"
  },
  {
   "linker_set_key" : "_ZN3artL10kAccNativeE",
   "name" : "art::kAccNative",
   "referenced_type" : "_ZTIKj",
   "source_file" : "art/libdexfile/dex/modifiers.h"
  },
  {
   "linker_set_key" : "_ZN3artL10kAccPublicE",
   "name" : "art::kAccPublic",
   "referenced_type" : "_ZTIKj",
   "source_file" : "art/libdexfile/dex/modifiers.h"
  },
  {
   "linker_set_key" : "_ZN3artL10kAccStaticE",
   "name" : "art::kAccStatic",
   "referenced_type" : "_ZTIKj",
   "source_file" : "art/libdexfile/dex/modifiers.h"
  },
  {
   "linker_set_key" : "_ZN3artL10kAccStrictE",
   "name" : "art::kAccStrict",
   "referenced_type" : "_ZTIKj",
   "source_file" : "art/libdexfile/dex/modifiers.h"
  },
  {
   "linker_set_key" : "_ZN3artL11kAccDefaultE",
   "name" : "art::kAccDefault",
   "referenced_type" : "_ZTIKj",
   "source_file" : "art/libdexfile/dex/modifiers.h"
  },
  {
   "linker_set_key" : "_ZN3artL11kAccPrivateE",
   "name" : "art::kAccPrivate",
   "referenced_type" : "_ZTIKj",
   "source_file" : "art/libdexfile/dex/modifiers.h"
  },
  {
   "linker_set_key" : "_ZN3artL11kAccVarargsE",
   "name" : "art::kAccVarargs",
   "referenced_type" : "_ZTIKj",
   "source_file" : "art/libdexfile/dex/modifiers.h"
  },
  {
   "linker_set_key" : "_ZN3artL11kRuntimeISAE",
   "name" : "art::kRuntimeISA",
   "referenced_type" : "_ZTIKN3art14InstructionSetE",
   "source_file" : "art/libartbase/arch/instruction_set.h"
  },
  {
   "linker_set_key" : "_ZN3artL12kAccAbstractE",
   "name" : "art::kAccAbstract",
   "referenced_type" : "_ZTIKj",
   "source_file" : "art/libdexfile/dex/modifiers.h"
  },
  {
   "linker_set_key" : "_ZN3artL12kAccVolatileE",
   "name" : "art::kAccVolatile",
   "referenced_type" : "_ZTIKj",
   "source_file" : "art/libdexfile/dex/modifiers.h"
  },
  {
   "linker_set_key" : "_ZN3artL12kBitsPerByteE",
   "name" : "art::kBitsPerByte",
   "referenced_type" : "_ZTIKm",
   "source_file" : "art/libartbase/base/globals.h"
  },
  {
   "linker_set_key" : "_ZN3artL13kAccInterfaceE",
   "name" : "art::kAccInterface",
   "referenced_type" : "_ZTIKj",
   "source_file" : "art/libdexfile/dex/modifiers.h"
  },
  {
   "linker_set_key" : "_ZN3artL13kAccIntrinsicE",
   "name" : "art::kAccIntrinsic",
   "referenced_type" : "_ZTIKj",
   "source_file" : "art/libdexfile/dex/modifiers.h"
  },
  {
   "linker_set_key" : "_ZN3artL13kAccProtectedE",
   "name" : "art::kAccProtected",
   "referenced_type" : "_ZTIKj",
   "source_file" : "art/libdexfile/dex/modifiers.h"
  },
  {
   "linker_set_key" : "_ZN3artL13kAccPublicApiE",
   "name" : "art::kAccPublicApi",
   "referenced_type" : "_ZTIKj",
   "source_file" : "art/libdexfile/dex/modifiers.h"
  },
  {
   "linker_set_key" : "_ZN3artL13kAccSyntheticE",
   "name" : "art::kAccSynthetic",
   "referenced_type" : "_ZTIKj",
   "source_file" : "art/libdexfile/dex/modifiers.h"
  },
  {
   "linker_set_key" : "_ZN3artL13kAccTransientE",
   "name" : "art::kAccTransient",
   "referenced_type" : "_ZTIKj",
   "source_file" : "art/libdexfile/dex/modifiers.h"
  },
  {
   "linker_set_key" : "_ZN3artL13kArmAlignmentE",
   "name" : "art::kArmAlignment",
   "referenced_type" : "_ZTIKm",
   "source_file" : "art/libartbase/arch/instruction_set.h"
  },
  {
   "linker_set_key" : "_ZN3artL13kIsDebugBuildE",
   "name" : "art::kIsDebugBuild",
   "referenced_type" : "_ZTIKb",
   "source_file" : "art/libartbase/base/globals.h"
  },
  {
   "linker_set_key" : "_ZN3artL13kX86AlignmentE",
   "name" : "art::kX86Alignment",
   "referenced_type" : "_ZTIKm",
   "source_file" : "art/libartbase/arch/instruction_set.h"
  },
  {
   "linker_set_key" : "_ZN3artL14kAccAnnotationE",
   "name" : "art::kAccAnnotation",
   "referenced_type" : "_ZTIKj",
   "source_file" : "art/libdexfile/dex/modifiers.h"
  },
  {
   "linker_set_key" : "_ZN3artL14kAccFastNativeE",
   "name" : "art::kAccFastNative",
   "referenced_type" : "_ZTIKj",
   "source_file" : "art/libdexfile/dex/modifiers.h"
  },
  {
   "linker_set_key" : "_ZN3artL14kIsTargetBuildE",
   "name" : "art::kIsTargetBuild",
   "referenced_type" : "_ZTIKb",
   "source_file" : "art/libartbase/base/globals.h"
  },
  {
   "linker_set_key" : "_ZN3artL14kIsTargetLinuxE",
   "name" : "art::kIsTargetLinux",
   "referenced_type" : "_ZTIKb",
   "source_file" : "art/libartbase/base/globals.h"
  },
  {
   "linker_set_key" : "_ZN3artL14kMadviseZeroesE",
   "name" : "art::kMadviseZeroes",
   "referenced_type" : "_ZTIKb",
   "source_file" : "art/libartbase/base/mem_map.h"
  },
  {
   "linker_set_key" : "_ZN3artL15kAccConstructorE",
   "name" : "art::kAccConstructor",
   "referenced_type" : "_ZTIKj",
   "source_file" : "art/libdexfile/dex/modifiers.h"
  },
  {
   "linker_set_key" : "_ZN3artL15kAccPreCompiledE",
   "name" : "art::kAccPreCompiled",
   "referenced_type" : "_ZTIKj",
   "source_file" : "art/libdexfile/dex/modifiers.h"
  },
  {
   "linker_set_key" : "_ZN3artL15kArm64AlignmentE",
   "name" : "art::kArm64Alignment",
   "referenced_type" : "_ZTIKm",
   "source_file" : "art/libartbase/arch/instruction_set.h"
  },
  {
   "linker_set_key" : "_ZN3artL15kArmPointerSizeE",
   "name" : "art::kArmPointerSize",
   "referenced_type" : "_ZTIKN3art11PointerSizeE",
   "source_file" : "art/libartbase/arch/instruction_set.h"
  },
  {
   "linker_set_key" : "_ZN3artL15kBitsPerIntPtrTE",
   "name" : "art::kBitsPerIntPtrT",
   "referenced_type" : "_ZTIKi",
   "source_file" : "art/libartbase/base/globals.h"
  },
  {
   "linker_set_key" : "_ZN3artL15kStackAlignmentE",
   "name" : "art::kStackAlignment",
   "referenced_type" : "_ZTIKm",
   "source_file" : "art/libartbase/base/globals.h"
  },
  {
   "linker_set_key" : "_ZN3artL15kX86PointerSizeE",
   "name" : "art::kX86PointerSize",
   "referenced_type" : "_ZTIKN3art11PointerSizeE",
   "source_file" : "art/libartbase/arch/instruction_set.h"
  },
  {
   "linker_set_key" : "_ZN3artL16kAccClassIsProxyE",
   "name" : "art::kAccClassIsProxy",
   "referenced_type" : "_ZTIKj",
   "source_file" : "art/libdexfile/dex/modifiers.h"
  },
  {
   "linker_set_key" : "_ZN3artL16kAccSynchronizedE",
   "name" : "art::kAccSynchronized",
   "referenced_type" : "_ZTIKj",
   "source_file" : "art/libdexfile/dex/modifiers.h"
  },
  {
   "linker_set_key" : "_ZN3artL16kBitsPerByteLog2E",
   "name" : "art::kBitsPerByteLog2",
   "referenced_type" : "_ZTIKm",
   "source_file" : "art/libartbase/base/globals.h"
  },
  {
   "linker_set_key" : "_ZN3artL16kIsTargetFuchsiaE",
   "name" : "art::kIsTargetFuchsia",
   "referenced_type" : "_ZTIKb",
   "source_file" : "art/libartbase/base/globals.h"
  },
  {
   "linker_set_key" : "_ZN3artL17kAccHiddenapiBitsE",
   "name" : "art::kAccHiddenapiBits",
   "referenced_type" : "_ZTIKj",
   "source_file" : "art/libdexfile/dex/modifiers.h"
  },
  {
   "linker_set_key" : "_ZN3artL17kAccIntrinsicBitsE",
   "name" : "art::kAccIntrinsicBits",
   "referenced_type" : "_ZTIKj",
   "source_file" : "art/libdexfile/dex/modifiers.h"
  },
  {
   "linker_set_key" : "_ZN3artL17kAccJavaFlagsMaskE",
   "name" : "art::kAccJavaFlagsMask",
   "referenced_type" : "_ZTIKj",
   "source_file" : "art/libdexfile/dex/modifiers.h"
  },
  {
   "linker_set_key" : "_ZN3artL17kArm64PointerSizeE",
   "name" : "art::kArm64PointerSize",
   "referenced_type" : "_ZTIKN3art11PointerSizeE",
   "source_file" : "art/libartbase/arch/instruction_set.h"
  },
  {
   "linker_set_key" : "_ZN3artL18kAccCriticalNativeE",
   "name" : "art::kAccCriticalNative",
   "referenced_type" : "_ZTIKj",
   "source_file" : "art/libdexfile/dex/modifiers.h"
  },
  {
   "linker_set_key" : "_ZN3artL18kAccMustCountLocksE",
   "name" : "art::kAccMustCountLocks",
   "referenced_type" : "_ZTIKj",
   "source_file" : "art/libdexfile/dex/modifiers.h"
  },
  {
   "linker_set_key" : "_ZN3artL18kAccObsoleteMethodE",
   "name" : "art::kAccObsoleteMethod",
   "referenced_type" : "_ZTIKj",
   "source_file" : "art/libdexfile/dex/modifiers.h"
  },
  {
   "linker_set_key" : "_ZN3artL18kAccObsoleteObjectE",
   "name" : "art::kAccObsoleteObject",
   "referenced_type" : "_ZTIKj",
   "source_file" : "art/libdexfile/dex/modifiers.h"
  },
  {
   "linker_set_key" : "_ZN3artL18kAccPreviouslyWarmE",
   "name" : "art::kAccPreviouslyWarm",
   "referenced_type" : "_ZTIKj",
   "source_file" : "art/libdexfile/dex/modifiers.h"
  },
  {
   "linker_set_key" : "_ZN3artL18kArtImageExtensionE",
   "name" : "art::kArtImageExtension",
   "referenced_type" : "_ZTIA4_Kc",
   "source_file" : "art/libartbase/base/file_utils.h"
  },
  {
   "linker_set_key" : "_ZN3artL18kX86_64PointerSizeE",
   "name" : "art::kX86_64PointerSize",
   "referenced_type" : "_ZTIKN3art11PointerSizeE",
   "source_file" : "art/libartbase/arch/instruction_set.h"
  },
  {
   "linker_set_key" : "_ZN3artL19kAccCorePlatformApiE",
   "name" : "art::kAccCorePlatformApi",
   "referenced_type" : "_ZTIKj",
   "source_file" : "art/libdexfile/dex/modifiers.h"
  },
  {
   "linker_set_key" : "_ZN3artL19kAccValidClassFlagsE",
   "name" : "art::kAccValidClassFlags",
   "referenced_type" : "_ZTIKj",
   "source_file" : "art/libdexfile/dex/modifiers.h"
  },
  {
   "linker_set_key" : "_ZN3artL19kAccValidFieldFlagsE",
   "name" : "art::kAccValidFieldFlags",
   "referenced_type" : "_ZTIKj",
   "source_file" : "art/libdexfile/dex/modifiers.h"
  },
  {
   "linker_set_key" : "_ZN3artL19kAccVisibilityFlagsE",
   "name" : "art::kAccVisibilityFlags",
   "referenced_type" : "_ZTIKj",
   "source_file" : "art/libdexfile/dex/modifiers.h"
  },
  {
   "linker_set_key" : "_ZN3artL19kRuntimePointerSizeE",
   "name" : "art::kRuntimePointerSize",
   "referenced_type" : "_ZTIKN3art11PointerSizeE",
   "source_file" : "art/libartbase/base/enums.h"
  },
  {
   "linker_set_key" : "_ZN3artL20kAccHasDefaultMethodE",
   "name" : "art::kAccHasDefaultMethod",
   "referenced_type" : "_ZTIKj",
   "source_file" : "art/libdexfile/dex/modifiers.h"
  },
  {
   "linker_set_key" : "_ZN3artL20kAccSkipAccessChecksE",
   "name" : "art::kAccSkipAccessChecks",
   "referenced_type" : "_ZTIKj",
   "source_file" : "art/libdexfile/dex/modifiers.h"
  },
  {
   "linker_set_key" : "_ZN3artL20kAccValidMethodFlagsE",
   "name" : "art::kAccValidMethodFlags",
   "referenced_type" : "_ZTIKj",
   "source_file" : "art/libdexfile/dex/modifiers.h"
  },
  {
   "linker_set_key" : "_ZN3artL21kAccCompileDontBotherE",
   "name" : "art::kAccCompileDontBother",
   "referenced_type" : "_ZTIKj",
   "source_file" : "art/libdexfile/dex/modifiers.h"
  },
  {
   "linker_set_key" : "_ZN3artL21kIsPGOInstrumentationE",
   "name" : "art::kIsPGOInstrumentation",
   "referenced_type" : "_ZTIKb",
   "source_file" : "art/libartbase/base/globals.h"
  },
  {
   "linker_set_key" : "_ZN3artL22kAccClassIsFinalizableE",
   "name" : "art::kAccClassIsFinalizable",
   "referenced_type" : "_ZTIKj",
   "source_file" : "art/libdexfile/dex/modifiers.h"
  },
  {
   "linker_set_key" : "_ZN3artL23kAccSkipHiddenapiChecksE",
   "name" : "art::kAccSkipHiddenapiChecks",
   "referenced_type" : "_ZTIKj",
   "source_file" : "art/libdexfile/dex/modifiers.h"
  },
  {
   "linker_set_key" : "_ZN3artL23kAccValidInterfaceFlagsE",
   "name" : "art::kAccValidInterfaceFlags",
   "referenced_type" : "_ZTIKj",
   "source_file" : "art/libdexfile/dex/modifiers.h"
  },
  {
   "linker_set_key" : "_ZN3artL23kArtApexDataDefaultPathE",
   "name" : "art::kArtApexDataDefaultPath",
   "referenced_type" : "_ZTIA36_Kc",
   "source_file" : "art/libartbase/base/file_utils.h"
  },
  {
   "linker_set_key" : "_ZN3artL23kHostStaticBuildEnabledE",
   "name" : "art::kHostStaticBuildEnabled",
   "referenced_type" : "_ZTIKb",
   "source_file" : "art/libartbase/base/globals.h"
  },
  {
   "linker_set_key" : "_ZN3artL24kAccDeclaredSynchronizedE",
   "name" : "art::kAccDeclaredSynchronized",
   "referenced_type" : "_ZTIKj",
   "source_file" : "art/libdexfile/dex/modifiers.h"
  },
  {
   "linker_set_key" : "_ZN3artL24kAccSingleImplementationE",
   "name" : "art::kAccSingleImplementation",
   "referenced_type" : "_ZTIKj",
   "source_file" : "art/libdexfile/dex/modifiers.h"
  },
  {
   "linker_set_key" : "_ZN3artL24kX86InstructionAlignmentE",
   "name" : "art::kX86InstructionAlignment",
   "referenced_type" : "_ZTIKm",
   "source_file" : "art/libartbase/arch/instruction_set.h"
  },
  {
   "linker_set_key" : "_ZN3artL25kAccVerificationAttemptedE",
   "name" : "art::kAccVerificationAttempted",
   "referenced_type" : "_ZTIKj",
   "source_file" : "art/libdexfile/dex/modifiers.h"
  },
  {
   "linker_set_key" : "_ZN3artL26kAccRecursivelyInitializedE",
   "name" : "art::kAccRecursivelyInitialized",
   "referenced_type" : "_ZTIKj",
   "source_file" : "art/libdexfile/dex/modifiers.h"
  },
  {
   "linker_set_key" : "_ZN3artL26kAndroidArtApexDefaultPathE",
   "name" : "art::kAndroidArtApexDefaultPath",
   "referenced_type" : "_ZTIA22_Kc",
   "source_file" : "art/libartbase/base/file_utils.h"
  },
  {
   "linker_set_key" : "_ZN3artL26kArm64InstructionAlignmentE",
   "name" : "art::kArm64InstructionAlignment",
   "referenced_type" : "_ZTIKm",
   "source_file" : "art/libartbase/arch/instruction_set.h"
  },
  {
   "linker_set_key" : "_ZN3artL27kAccNterpInvokeFastPathFlagE",
   "name" : "art::kAccNterpInvokeFastPathFlag",
   "referenced_type" : "_ZTIKj",
   "source_file" : "art/libdexfile/dex/modifiers.h"
  },
  {
   "linker_set_key" : "_ZN3artL27kAndroidI18nApexDefaultPathE",
   "name" : "art::kAndroidI18nApexDefaultPath",
   "referenced_type" : "_ZTIA23_Kc",
   "source_file" : "art/libartbase/base/file_utils.h"
  },
  {
   "linker_set_key" : "_ZN3artL27kThumb2InstructionAlignmentE",
   "name" : "art::kThumb2InstructionAlignment",
   "referenced_type" : "_ZTIKm",
   "source_file" : "art/libartbase/arch/instruction_set.h"
  },
  {
   "linker_set_key" : "_ZN3artL27kX86_64InstructionAlignmentE",
   "name" : "art::kX86_64InstructionAlignment",
   "referenced_type" : "_ZTIKm",
   "source_file" : "art/libartbase/arch/instruction_set.h"
  },
  {
   "linker_set_key" : "_ZN3artL28kArm64DefaultSVEVectorLengthE",
   "name" : "art::kArm64DefaultSVEVectorLength",
   "referenced_type" : "_ZTIKm",
   "source_file" : "art/libartbase/arch/instruction_set.h"
  },
  {
   "linker_set_key" : "_ZN3artL2GBE",
   "name" : "art::GB",
   "referenced_type" : "_ZTIKm",
   "source_file" : "art/libartbase/base/globals.h"
  },
  {
   "linker_set_key" : "_ZN3artL2KBE",
   "name" : "art::KB",
   "referenced_type" : "_ZTIKm",
   "source_file" : "art/libartbase/base/globals.h"
  },
  {
   "linker_set_key" : "_ZN3artL2MBE",
   "name" : "art::MB",
   "referenced_type" : "_ZTIKm",
   "source_file" : "art/libartbase/base/globals.h"
  },
  {
   "linker_set_key" : "_ZN3artL31kAccNterpEntryPointFastPathFlagE",
   "name" : "art::kAccNterpEntryPointFastPathFlag",
   "referenced_type" : "_ZTIKj",
   "source_file" : "art/libdexfile/dex/modifiers.h"
  },
  {
   "linker_set_key" : "_ZN3artL32kAndroidConscryptApexDefaultPathE",
   "name" : "art::kAndroidConscryptApexDefaultPath",
   "referenced_type" : "_ZTIA28_Kc",
   "source_file" : "art/libartbase/base/file_utils.h"
  },
  {
   "linker_set_key" : "_ZN3artL38kAccFastInterpreterToInterpreterInvokeE",
   "name" : "art::kAccFastInterpreterToInterpreterInvoke",
   "referenced_type" : "_ZTIKj",
   "source_file" : "art/libdexfile/dex/modifiers.h"
  },
  {
   "linker_set_key" : "_ZN3artL8kAccEnumE",
   "name" : "art::kAccEnum",
   "referenced_type" : "_ZTIKj",
   "source_file" : "art/libdexfile/dex/modifiers.h"
  },
  {
   "linker_set_key" : "_ZN3artL9kAccFinalE",
   "name" : "art::kAccFinal",
   "referenced_type" : "_ZTIKj",
   "source_file" : "art/libdexfile/dex/modifiers.h"
  },
  {
   "linker_set_key" : "_ZN3artL9kAccSuperE",
   "name" : "art::kAccSuper",
   "referenced_type" : "_ZTIKj",
   "source_file" : "art/libdexfile/dex/modifiers.h"
  },
  {
   "linker_set_key" : "_ZN3artL9kPageSizeE",
   "name" : "art::kPageSize",
   "referenced_type" : "_ZTIKm",
   "source_file" : "art/libartbase/base/globals.h"
  },
  {
   "linker_set_key" : "_ZN7android4base10log_detail12StorageTypes7voidptrE",
   "name" : "android::base::log_detail::StorageTypes::voidptr",
   "referenced_type" : "_ZTIKb",
   "source_file" : "system/libbase/include/android-base/logging.h"
  },
  {
   "linker_set_key" : "_ZN7android4base10log_detail12StorageTypesIPKN3art3dex6TypeIdES7_E7voidptrE",
   "name" : "android::base::log_detail::StorageTypes<const art::dex::TypeId *, const art::dex::TypeId *>::voidptr",
   "referenced_type" : "_ZTIKb",
   "source_file" : "system/libbase/include/android-base/logging.h"
  },
  {
   "linker_set_key" : "_ZN7android4base10log_detail12StorageTypesIPKN3art3dex7FieldIdES7_E7voidptrE",
   "name" : "android::base::log_detail::StorageTypes<const art::dex::FieldId *, const art::dex::FieldId *>::voidptr",
   "referenced_type" : "_ZTIKb",
   "source_file" : "system/libbase/include/android-base/logging.h"
  },
  {
   "linker_set_key" : "_ZN7android4base10log_detail12StorageTypesIPKN3art3dex7ProtoIdES7_E7voidptrE",
   "name" : "android::base::log_detail::StorageTypes<const art::dex::ProtoId *, const art::dex::ProtoId *>::voidptr",
   "referenced_type" : "_ZTIKb",
   "source_file" : "system/libbase/include/android-base/logging.h"
  },
  {
   "linker_set_key" : "_ZN7android4base10log_detail12StorageTypesIPKN3art3dex8ClassDefES7_E7voidptrE",
   "name" : "android::base::log_detail::StorageTypes<const art::dex::ClassDef *, const art::dex::ClassDef *>::voidptr",
   "referenced_type" : "_ZTIKb",
   "source_file" : "system/libbase/include/android-base/logging.h"
  },
  {
   "linker_set_key" : "_ZN7android4base10log_detail12StorageTypesIPKN3art3dex8MethodIdES7_E7voidptrE",
   "name" : "android::base::log_detail::StorageTypes<const art::dex::MethodId *, const art::dex::MethodId *>::voidptr",
   "referenced_type" : "_ZTIKb",
   "source_file" : "system/libbase/include/android-base/logging.h"
  },
  {
   "linker_set_key" : "_ZN7android4base10log_detail12StorageTypesIPKN3art3dex8StringIdES7_E7voidptrE",
   "name" : "android::base::log_detail::StorageTypes<const art::dex::StringId *, const art::dex::StringId *>::voidptr",
   "referenced_type" : "_ZTIKb",
   "source_file" : "system/libbase/include/android-base/logging.h"
  },
  {
   "linker_set_key" : "_ZN7android4base10log_detail12StorageTypesIjjE7voidptrE",
   "name" : "android::base::log_detail::StorageTypes<unsigned int, unsigned int>::voidptr",
   "referenced_type" : "_ZTIKb",
   "source_file" : "system/libbase/include/android-base/logging.h"
  },
  {
   "linker_set_key" : "_ZN7android4base10log_detail12StorageTypesIjmE7voidptrE",
   "name" : "android::base::log_detail::StorageTypes<unsigned int, unsigned long>::voidptr",
   "referenced_type" : "_ZTIKb",
   "source_file" : "system/libbase/include/android-base/logging.h"
  },
  {
   "linker_set_key" : "_ZN7android4base10log_detail12StorageTypesImjE7voidptrE",
   "name" : "android::base::log_detail::StorageTypes<unsigned long, unsigned int>::voidptr",
   "referenced_type" : "_ZTIKb",
   "source_file" : "system/libbase/include/android-base/logging.h"
  },
  {
   "linker_set_key" : "_ZN7android4base10log_detail12StorageTypesImmE7voidptrE",
   "name" : "android::base::log_detail::StorageTypes<unsigned long, unsigned long>::voidptr",
   "referenced_type" : "_ZTIKb",
   "source_file" : "system/libbase/include/android-base/logging.h"
  },
  {
   "linker_set_key" : "_ZN7android4base10log_detail12StorageTypesItjE7voidptrE",
   "name" : "android::base::log_detail::StorageTypes<unsigned short, unsigned int>::voidptr",
   "referenced_type" : "_ZTIKb",
   "source_file" : "system/libbase/include/android-base/logging.h"
  },
  {
   "linker_set_key" : "_ZN7android4base10log_detail12StorageTypesItmE7voidptrE",
   "name" : "android::base::log_detail::StorageTypes<unsigned short, unsigned long>::voidptr",
   "referenced_type" : "_ZTIKb",
   "source_file" : "system/libbase/include/android-base/logging.h"
  },
  {
   "linker_set_key" : "_ZN7android4base10log_detail12StorageTypesIttE7voidptrE",
   "name" : "android::base::log_detail::StorageTypes<unsigned short, unsigned short>::voidptr",
   "referenced_type" : "_ZTIKb",
   "source_file" : "system/libbase/include/android-base/logging.h"
  },
  {
   "linker_set_key" : "_ZN7android4base10log_detail13IsCharPointer5valueE",
   "name" : "android::base::log_detail::IsCharPointer::value",
   "referenced_type" : "_ZTIKb",
   "source_file" : "system/libbase/include/android-base/logging.h"
  },
  {
   "linker_set_key" : "_ZN7android4base10log_detail13IsCharPointerIPKN3art3dex6TypeIdEE5valueE",
   "name" : "android::base::log_detail::IsCharPointer<const art::dex::TypeId *>::value",
   "referenced_type" : "_ZTIKb",
   "source_file" : "system/libbase/include/android-base/logging.h"
  },
  {
   "linker_set_key" : "_ZN7android4base10log_detail13IsCharPointerIPKN3art3dex7FieldIdEE5valueE",
   "name" : "android::base::log_detail::IsCharPointer<const art::dex::FieldId *>::value",
   "referenced_type" : "_ZTIKb",
   "source_file" : "system/libbase/include/android-base/logging.h"
  },
  {
   "linker_set_key" : "_ZN7android4base10log_detail13IsCharPointerIPKN3art3dex7ProtoIdEE5valueE",
   "name" : "android::base::log_detail::IsCharPointer<const art::dex::ProtoId *>::value",
   "referenced_type" : "_ZTIKb",
   "source_file" : "system/libbase/include/android-base/logging.h"
  },
  {
   "linker_set_key" : "_ZN7android4base10log_detail13IsCharPointerIPKN3art3dex8ClassDefEE5valueE",
   "name" : "android::base::log_detail::IsCharPointer<const art::dex::ClassDef *>::value",
   "referenced_type" : "_ZTIKb",
   "source_file" : "system/libbase/include/android-base/logging.h"
  },
  {
   "linker_set_key" : "_ZN7android4base10log_detail13IsCharPointerIPKN3art3dex8MethodIdEE5valueE",
   "name" : "android::base::log_detail::IsCharPointer<const art::dex::MethodId *>::value",
   "referenced_type" : "_ZTIKb",
   "source_file" : "system/libbase/include/android-base/logging.h"
  },
  {
   "linker_set_key" : "_ZN7android4base10log_detail13IsCharPointerIPKN3art3dex8StringIdEE5valueE",
   "name" : "android::base::log_detail::IsCharPointer<const art::dex::StringId *>::value",
   "referenced_type" : "_ZTIKb",
   "source_file" : "system/libbase/include/android-base/logging.h"
  },
  {
   "linker_set_key" : "_ZN7android4base10log_detail13IsCharPointerIjE5valueE",
   "name" : "android::base::log_detail::IsCharPointer<unsigned int>::value",
   "referenced_type" : "_ZTIKb",
   "source_file" : "system/libbase/include/android-base/logging.h"
  },
  {
   "linker_set_key" : "_ZN7android4base10log_detail13IsCharPointerImE5valueE",
   "name" : "android::base::log_detail::IsCharPointer<unsigned long>::value",
   "referenced_type" : "_ZTIKb",
   "source_file" : "system/libbase/include/android-base/logging.h"
  },
  {
   "linker_set_key" : "_ZN7android4base10log_detail13IsCharPointerItE5valueE",
   "name" : "android::base::log_detail::IsCharPointer<unsigned short>::value",
   "referenced_type" : "_ZTIKb",
   "source_file" : "system/libbase/include/android-base/logging.h"
  },
  {
   "linker_set_key" : "_ZN7android4baseL14kEnableDChecksE",
   "name" : "android::base::kEnableDChecks",
   "referenced_type" : "_ZTIKb",
   "source_file" : "system/libbase/include/android-base/logging.h"
  },
  {
   "linker_set_key" : "_ZN9unix_file6FdFile10kInvalidFdE",
   "name" : "unix_file::FdFile::kInvalidFd",
   "referenced_type" : "_ZTIKi",
   "source_file" : "art/libartbase/base/unix_file/fd_file.h"
  },
  {
   "linker_set_key" : "_ZN9unix_fileL15kCheckSafeUsageE",
   "name" : "unix_file::kCheckSafeUsage",
   "referenced_type" : "_ZTIKb",
   "source_file" : "art/libartbase/base/unix_file/fd_file.h"
  }
 ],
 "lvalue_reference_types" :
 [
  {
   "alignment" : 8,
   "linker_set_key" : "_ZTIRK6jvalue",
   "name" : "const jvalue &",
   "referenced_type" : "_ZTIK6jvalue",
   "self_type" : "_ZTIRK6jvalue",
   "size" : 8,
   "source_file" : "art/libdexfile/dex/dex_file.h"
  },
  {
   "alignment" : 8,
   "linker_set_key" : "_ZTIRKDn",
   "name" : "const nullptr_t &",
   "referenced_type" : "_ZTIKDn",
   "self_type" : "_ZTIRKDn",
   "size" : 8,
   "source_file" : "system/libbase/include/android-base/logging.h"
  },
  {
   "alignment" : 8,
   "linker_set_key" : "_ZTIRKN3art10ZipArchiveE",
   "name" : "const art::ZipArchive &",
   "referenced_type" : "_ZTIKN3art10ZipArchiveE",
   "self_type" : "_ZTIRKN3art10ZipArchiveE",
   "size" : 8,
   "source_file" : "art/libdexfile/dex/art_dex_file_loader.h"
  },
  {
   "alignment" : 8,
   "linker_set_key" : "_ZTIRKN3art14CompactDexFile6HeaderE",
   "name" : "const art::CompactDexFile::Header &",
   "referenced_type" : "_ZTIKN3art14CompactDexFile6HeaderE",
   "self_type" : "_ZTIRKN3art14CompactDexFile6HeaderE",
   "size" : 8,
   "source_file" : "art/libartbase/base/casts.h"
  },
  {
   "alignment" : 8,
   "linker_set_key" : "_ZTIRKN3art15SplitStringIterE",
   "name" : "const art::SplitStringIter &",
   "referenced_type" : "_ZTIKN3art15SplitStringIterE",
   "self_type" : "_ZTIRKN3art15SplitStringIterE",
   "size" : 8,
   "source_file" : "art/libartbase/base/iteration_range.h"
  },
  {
   "alignment" : 8,
   "linker_set_key" : "_ZTIRKN3art3dex10ProtoIndexE",
   "name" : "const art::dex::ProtoIndex &",
   "referenced_type" : "_ZTIKN3art3dex10ProtoIndexE",
   "self_type" : "_ZTIRKN3art3dex10ProtoIndexE",
   "size" : 8,
   "source_file" : "art/libdexfile/dex/dex_file_types.h"
  },
  {
   "alignment" : 8,
   "linker_set_key" : "_ZTIRKN3art3dex11StringIndexE",
   "name" : "const art::dex::StringIndex &",
   "referenced_type" : "_ZTIKN3art3dex11StringIndexE",
   "self_type" : "_ZTIRKN3art3dex11StringIndexE",
   "size" : 8,
   "source_file" : "art/libdexfile/dex/dex_file_types.h"
  },
  {
   "alignment" : 8,
   "linker_set_key" : "_ZTIRKN3art3dex14CallSiteIdItemE",
   "name" : "const art::dex::CallSiteIdItem &",
   "referenced_type" : "_ZTIKN3art3dex14CallSiteIdItemE",
   "self_type" : "_ZTIRKN3art3dex14CallSiteIdItemE",
   "size" : 8,
   "source_file" : "art/libdexfile/dex/dex_file.h"
  },
  {
   "alignment" : 8,
   "linker_set_key" : "_ZTIRKN3art3dex16MethodHandleItemE",
   "name" : "const art::dex::MethodHandleItem &",
   "referenced_type" : "_ZTIKN3art3dex16MethodHandleItemE",
   "self_type" : "_ZTIRKN3art3dex16MethodHandleItemE",
   "size" : 8,
   "source_file" : "art/libdexfile/dex/dex_file.h"
  },
  {
   "alignment" : 8,
   "linker_set_key" : "_ZTIRKN3art3dex20FieldAnnotationsItemE",
   "name" : "const art::dex::FieldAnnotationsItem &",
   "referenced_type" : "_ZTIKN3art3dex20FieldAnnotationsItemE",
   "self_type" : "_ZTIRKN3art3dex20FieldAnnotationsItemE",
   "size" : 8,
   "source_file" : "art/libdexfile/dex/dex_file.h"
  },
  {
   "alignment" : 8,
   "linker_set_key" : "_ZTIRKN3art3dex21MethodAnnotationsItemE",
   "name" : "const art::dex::MethodAnnotationsItem &",
   "referenced_type" : "_ZTIKN3art3dex21MethodAnnotationsItemE",
   "self_type" : "_ZTIRKN3art3dex21MethodAnnotationsItemE",
   "size" : 8,
   "source_file" : "art/libdexfile/dex/dex_file.h"
  },
  {
   "alignment" : 8,
   "linker_set_key" : "_ZTIRKN3art3dex6TypeIdE",
   "name" : "const art::dex::TypeId &",
   "referenced_type" : "_ZTIKN3art3dex6TypeIdE",
   "self_type" : "_ZTIRKN3art3dex6TypeIdE",
   "size" : 8,
   "source_file" : "art/libdexfile/dex/dex_file.h"
  },
  {
   "alignment" : 8,
   "linker_set_key" : "_ZTIRKN3art3dex7FieldIdE",
   "name" : "const art::dex::FieldId &",
   "referenced_type" : "_ZTIKN3art3dex7FieldIdE",
   "self_type" : "_ZTIRKN3art3dex7FieldIdE",
   "size" : 8,
   "source_file" : "art/libdexfile/dex/dex_file.h"
  },
  {
   "alignment" : 8,
   "linker_set_key" : "_ZTIRKN3art3dex7ProtoIdE",
   "name" : "const art::dex::ProtoId &",
   "referenced_type" : "_ZTIKN3art3dex7ProtoIdE",
   "self_type" : "_ZTIRKN3art3dex7ProtoIdE",
   "size" : 8,
   "source_file" : "art/libdexfile/dex/dex_file.h"
  },
  {
   "alignment" : 8,
   "linker_set_key" : "_ZTIRKN3art3dex8ClassDefE",
   "name" : "const art::dex::ClassDef &",
   "referenced_type" : "_ZTIKN3art3dex8ClassDefE",
   "self_type" : "_ZTIRKN3art3dex8ClassDefE",
   "size" : 8,
   "source_file" : "art/libdexfile/dex/dex_file.h"
  },
  {
   "alignment" : 8,
   "linker_set_key" : "_ZTIRKN3art3dex8MethodIdE",
   "name" : "const art::dex::MethodId &",
   "referenced_type" : "_ZTIKN3art3dex8MethodIdE",
   "self_type" : "_ZTIRKN3art3dex8MethodIdE",
   "size" : 8,
   "source_file" : "art/libdexfile/dex/dex_file.h"
  },
  {
   "alignment" : 8,
   "linker_set_key" : "_ZTIRKN3art3dex8StringIdE",
   "name" : "const art::dex::StringId &",
   "referenced_type" : "_ZTIKN3art3dex8StringIdE",
   "self_type" : "_ZTIRKN3art3dex8StringIdE",
   "size" : 8,
   "source_file" : "art/libdexfile/dex/dex_file.h"
  },
  {
   "alignment" : 8,
   "linker_set_key" : "_ZTIRKN3art3dex8TypeItemE",
   "name" : "const art::dex::TypeItem &",
   "referenced_type" : "_ZTIKN3art3dex8TypeItemE",
   "self_type" : "_ZTIRKN3art3dex8TypeItemE",
   "size" : 8,
   "source_file" : "art/libdexfile/dex/dex_file_structs.h"
  },
  {
   "alignment" : 8,
   "linker_set_key" : "_ZTIRKN3art3dex9TypeIndexE",
   "name" : "const art::dex::TypeIndex &",
   "referenced_type" : "_ZTIKN3art3dex9TypeIndexE",
   "self_type" : "_ZTIRKN3art3dex9TypeIndexE",
   "size" : 8,
   "source_file" : "art/libdexfile/dex/dex_file_types.h"
  },
  {
   "alignment" : 8,
   "linker_set_key" : "_ZTIRKN3art7DexFile6HeaderE",
   "name" : "const art::DexFile::Header &",
   "referenced_type" : "_ZTIKN3art7DexFile6HeaderE",
   "self_type" : "_ZTIRKN3art7DexFile6HeaderE",
   "size" : 8,
   "source_file" : "art/libartbase/base/casts.h"
  },
  {
   "alignment" : 8,
   "linker_set_key" : "_ZTIRKN3art7DexFileE",
   "name" : "const art::DexFile &",
   "referenced_type" : "_ZTIKN3art7DexFileE",
   "self_type" : "_ZTIRKN3art7DexFileE",
   "size" : 8,
   "source_file" : "art/libdexfile/dex/dex_file.h"
  },
  {
   "alignment" : 8,
   "linker_set_key" : "_ZTIRKN3art9CountIterE",
   "name" : "const art::CountIter &",
   "referenced_type" : "_ZTIKN3art9CountIterE",
   "self_type" : "_ZTIRKN3art9CountIterE",
   "size" : 8,
   "source_file" : "art/libartbase/base/stl_util.h"
  },
  {
   "alignment" : 8,
   "linker_set_key" : "_ZTIRKNSt3__112basic_stringIcNS_11char_traitsIcEENS_9allocatorIcEEEE",
   "name" : "const std::basic_string<char, std::char_traits<char>, std::allocator<char>> &",
   "referenced_type" : "_ZTIKNSt3__112basic_stringIcNS_11char_traitsIcEENS_9allocatorIcEEEE",
   "self_type" : "_ZTIRKNSt3__112basic_stringIcNS_11char_traitsIcEENS_9allocatorIcEEEE",
   "size" : 8,
   "source_file" : "art/libdexfile/dex/dex_file_loader.h"
  },
  {
   "alignment" : 8,
   "linker_set_key" : "_ZTIRKNSt3__16vectorIN3art3dex9TypeIndexENS_9allocatorIS3_EEEE",
   "name" : "const std::vector<art::dex::TypeIndex, std::allocator<art::dex::TypeIndex>> &",
   "referenced_type" : "_ZTIKNSt3__16vectorIN3art3dex9TypeIndexENS_9allocatorIS3_EEEE",
   "self_type" : "_ZTIRKNSt3__16vectorIN3art3dex9TypeIndexENS_9allocatorIS3_EEEE",
   "size" : 8,
   "source_file" : "art/libdexfile/dex/dex_file.h"
  },
  {
   "alignment" : 8,
   "linker_set_key" : "_ZTIRKPKN3art3dex6TypeIdE",
   "name" : "const art::dex::TypeId *const &",
   "referenced_type" : "_ZTIKPKN3art3dex6TypeIdE",
   "self_type" : "_ZTIRKPKN3art3dex6TypeIdE",
   "size" : 8,
   "source_file" : "system/libbase/include/android-base/logging.h"
  },
  {
   "alignment" : 8,
   "linker_set_key" : "_ZTIRKPKN3art3dex7FieldIdE",
   "name" : "const art::dex::FieldId *const &",
   "referenced_type" : "_ZTIKPKN3art3dex7FieldIdE",
   "self_type" : "_ZTIRKPKN3art3dex7FieldIdE",
   "size" : 8,
   "source_file" : "system/libbase/include/android-base/logging.h"
  },
  {
   "alignment" : 8,
   "linker_set_key" : "_ZTIRKPKN3art3dex7ProtoIdE",
   "name" : "const art::dex::ProtoId *const &",
   "referenced_type" : "_ZTIKPKN3art3dex7ProtoIdE",
   "self_type" : "_ZTIRKPKN3art3dex7ProtoIdE",
   "size" : 8,
   "source_file" : "system/libbase/include/android-base/logging.h"
  },
  {
   "alignment" : 8,
   "linker_set_key" : "_ZTIRKPKN3art3dex8ClassDefE",
   "name" : "const art::dex::ClassDef *const &",
   "referenced_type" : "_ZTIKPKN3art3dex8ClassDefE",
   "self_type" : "_ZTIRKPKN3art3dex8ClassDefE",
   "size" : 8,
   "source_file" : "system/libbase/include/android-base/logging.h"
  },
  {
   "alignment" : 8,
   "linker_set_key" : "_ZTIRKPKN3art3dex8MethodIdE",
   "name" : "const art::dex::MethodId *const &",
   "referenced_type" : "_ZTIKPKN3art3dex8MethodIdE",
   "self_type" : "_ZTIRKPKN3art3dex8MethodIdE",
   "size" : 8,
   "source_file" : "system/libbase/include/android-base/logging.h"
  },
  {
   "alignment" : 8,
   "linker_set_key" : "_ZTIRKPKN3art3dex8StringIdE",
   "name" : "const art::dex::StringId *const &",
   "referenced_type" : "_ZTIKPKN3art3dex8StringIdE",
   "self_type" : "_ZTIRKPKN3art3dex8StringIdE",
   "size" : 8,
   "source_file" : "system/libbase/include/android-base/logging.h"
  },
  {
   "alignment" : 8,
   "linker_set_key" : "_ZTIRKj",
   "name" : "const unsigned int &",
   "referenced_type" : "_ZTIKj",
   "self_type" : "_ZTIRKj",
   "size" : 8,
   "source_file" : "system/libbase/include/android-base/logging.h"
  },
  {
   "alignment" : 8,
   "linker_set_key" : "_ZTIRKm",
   "name" : "const unsigned long &",
   "referenced_type" : "_ZTIKm",
   "self_type" : "_ZTIRKm",
   "size" : 8,
   "source_file" : "system/libbase/include/android-base/logging.h"
  },
  {
   "alignment" : 8,
   "linker_set_key" : "_ZTIRKt",
   "name" : "const unsigned short &",
   "referenced_type" : "_ZTIKt",
   "self_type" : "_ZTIRKt",
   "size" : 8,
   "source_file" : "system/libbase/include/android-base/logging.h"
  },
  {
   "alignment" : 8,
   "linker_set_key" : "_ZTIRN3art15SplitStringIterE",
   "name" : "art::SplitStringIter &",
   "referenced_type" : "_ZTIN3art15SplitStringIterE",
   "self_type" : "_ZTIRN3art15SplitStringIterE",
   "size" : 8,
   "source_file" : "art/libartbase/base/stl_util.h"
  },
  {
   "alignment" : 8,
   "linker_set_key" : "_ZTIRN3art6MemMapE",
   "name" : "art::MemMap &",
   "referenced_type" : "_ZTIN3art6MemMapE",
   "self_type" : "_ZTIRN3art6MemMapE",
   "size" : 8,
   "source_file" : "art/libartbase/base/mem_map.h"
  },
  {
   "alignment" : 8,
   "linker_set_key" : "_ZTIRN3art9CountIterE",
   "name" : "art::CountIter &",
   "referenced_type" : "_ZTIN3art9CountIterE",
   "self_type" : "_ZTIRN3art9CountIterE",
   "size" : 8,
   "source_file" : "art/libartbase/base/stl_util.h"
  },
  {
   "alignment" : 8,
   "linker_set_key" : "_ZTIRNSt3__113basic_ostreamIcNS_11char_traitsIcEEEE",
   "name" : "std::basic_ostream<char, std::char_traits<char>> &",
   "referenced_type" : "_ZTINSt3__113basic_ostreamIcNS_11char_traitsIcEEEE",
   "self_type" : "_ZTIRNSt3__113basic_ostreamIcNS_11char_traitsIcEEEE",
   "size" : 8,
   "source_file" : "system/libbase/include/android-base/logging.h"
  },
  {
   "alignment" : 8,
   "linker_set_key" : "_ZTIRNSt3__15mutexE",
   "name" : "std::mutex &",
   "referenced_type" : "_ZTINSt3__15mutexE",
   "self_type" : "_ZTIRNSt3__15mutexE",
   "size" : 8,
   "source_file" : "system/libbase/include/android-base/thread_annotations.h"
  },
  {
   "alignment" : 8,
   "linker_set_key" : "_ZTIRj",
   "name" : "unsigned int &",
   "referenced_type" : "_ZTIj",
   "self_type" : "_ZTIRj",
   "size" : 8,
   "source_file" : "system/libbase/include/android-base/logging.h"
  },
  {
   "alignment" : 8,
   "linker_set_key" : "_ZTIRm",
   "name" : "unsigned long &",
   "referenced_type" : "_ZTIm",
   "self_type" : "_ZTIRm",
   "size" : 8,
   "source_file" : "system/libbase/include/android-base/logging.h"
  },
  {
   "alignment" : 8,
   "linker_set_key" : "_ZTIRt",
   "name" : "unsigned short &",
   "referenced_type" : "_ZTIt",
   "self_type" : "_ZTIRt",
   "size" : 8,
   "source_file" : "system/libbase/include/android-base/logging.h"
  }
 ],
 "pointer_types" :
 [
  {
   "alignment" : 8,
   "linker_set_key" : "_ZTIP10ZipArchive",
   "name" : "ZipArchive *",
   "referenced_type" : "_ZTI10ZipArchive",
   "self_type" : "_ZTIP10ZipArchive",
   "size" : 8,
   "source_file" : "art/libartbase/base/zip_archive.h"
  },
  {
   "alignment" : 8,
   "linker_set_key" : "_ZTIP8ZipEntry",
   "name" : "ZipEntry *",
   "referenced_type" : "_ZTI8ZipEntry",
   "self_type" : "_ZTIP8ZipEntry",
   "size" : 8,
   "source_file" : "art/libartbase/base/zip_archive.h"
  },
  {
   "alignment" : 8,
   "linker_set_key" : "_ZTIPKN3art10FreeDeleteE",
   "name" : "const art::FreeDelete *",
   "referenced_type" : "_ZTIKN3art10FreeDeleteE",
   "self_type" : "_ZTIPKN3art10FreeDeleteE",
   "size" : 8,
   "source_file" : "art/libartbase/base/stl_util.h"
  },
  {
   "alignment" : 8,
   "linker_set_key" : "_ZTIPKN3art10OatDexFileE",
   "name" : "const art::OatDexFile *",
   "referenced_type" : "_ZTIKN3art10OatDexFileE",
   "self_type" : "_ZTIPKN3art10OatDexFileE",
   "size" : 8,
   "source_file" : "art/libdexfile/dex/art_dex_file_loader.h"
  },
  {
   "alignment" : 8,
   "linker_set_key" : "_ZTIPKN3art14CompactDexFile6HeaderE",
   "name" : "const art::CompactDexFile::Header *",
   "referenced_type" : "_ZTIKN3art14CompactDexFile6HeaderE",
   "self_type" : "_ZTIPKN3art14CompactDexFile6HeaderE",
   "size" : 8,
   "source_file" : "art/libdexfile/dex/compact_dex_file.h"
  },
  {
   "alignment" : 8,
   "linker_set_key" : "_ZTIPKN3art14CompactDexFile8CodeItemE",
   "name" : "const art::CompactDexFile::CodeItem *",
   "referenced_type" : "_ZTIKN3art14CompactDexFile8CodeItemE",
   "self_type" : "_ZTIPKN3art14CompactDexFile8CodeItemE",
   "size" : 8,
   "source_file" : "art/libdexfile/dex/compact_dex_file.h"
  },
  {
   "alignment" : 8,
   "linker_set_key" : "_ZTIPKN3art14CompactDexFileE",
   "name" : "const art::CompactDexFile *",
   "referenced_type" : "_ZTIKN3art14CompactDexFileE",
   "self_type" : "_ZTIPKN3art14CompactDexFileE",
   "size" : 8,
   "source_file" : "art/libdexfile/dex/compact_dex_file.h"
  },
  {
   "alignment" : 8,
   "linker_set_key" : "_ZTIPKN3art15SplitStringIterE",
   "name" : "const art::SplitStringIter *",
   "referenced_type" : "_ZTIKN3art15SplitStringIterE",
   "self_type" : "_ZTIPKN3art15SplitStringIterE",
   "size" : 8,
   "source_file" : "art/libartbase/base/stl_util.h"
  },
  {
   "alignment" : 8,
   "linker_set_key" : "_ZTIPKN3art15StandardDexFileE",
   "name" : "const art::StandardDexFile *",
   "referenced_type" : "_ZTIKN3art15StandardDexFileE",
   "self_type" : "_ZTIPKN3art15StandardDexFileE",
   "size" : 8,
   "source_file" : "art/libdexfile/dex/standard_dex_file.h"
  },
  {
   "alignment" : 8,
   "linker_set_key" : "_ZTIPKN3art16ArtDexFileLoaderE",
   "name" : "const art::ArtDexFileLoader *",
   "referenced_type" : "_ZTIKN3art16ArtDexFileLoaderE",
   "self_type" : "_ZTIPKN3art16ArtDexFileLoaderE",
   "size" : 8,
   "source_file" : "art/libdexfile/dex/art_dex_file_loader.h"
  },
  {
   "alignment" : 8,
   "linker_set_key" : "_ZTIPKN3art24DexFileParameterIteratorE",
   "name" : "const art::DexFileParameterIterator *",
   "referenced_type" : "_ZTIKN3art24DexFileParameterIteratorE",
   "self_type" : "_ZTIPKN3art24DexFileParameterIteratorE",
   "size" : 8,
   "source_file" : "art/libdexfile/dex/dex_file.h"
  },
  {
   "alignment" : 8,
   "linker_set_key" : "_ZTIPKN3art25EncodedArrayValueIteratorE",
   "name" : "const art::EncodedArrayValueIterator *",
   "referenced_type" : "_ZTIKN3art25EncodedArrayValueIteratorE",
   "self_type" : "_ZTIPKN3art25EncodedArrayValueIteratorE",
   "size" : 8,
   "source_file" : "art/libdexfile/dex/dex_file.h"
  },
  {
   "alignment" : 8,
   "linker_set_key" : "_ZTIPKN3art26CallSiteArrayValueIteratorE",
   "name" : "const art::CallSiteArrayValueIterator *",
   "referenced_type" : "_ZTIKN3art26CallSiteArrayValueIteratorE",
   "self_type" : "_ZTIPKN3art26CallSiteArrayValueIteratorE",
   "size" : 8,
   "source_file" : "art/libdexfile/dex/dex_file.h"
  },
  {
   "alignment" : 8,
   "linker_set_key" : "_ZTIPKN3art3dex14AnnotationItemE",
   "name" : "const art::dex::AnnotationItem *",
   "referenced_type" : "_ZTIKN3art3dex14AnnotationItemE",
   "self_type" : "_ZTIPKN3art3dex14AnnotationItemE",
   "size" : 8,
   "source_file" : "art/libdexfile/dex/dex_file.h"
  },
  {
   "alignment" : 8,
   "linker_set_key" : "_ZTIPKN3art3dex14CallSiteIdItemE",
   "name" : "const art::dex::CallSiteIdItem *",
   "referenced_type" : "_ZTIKN3art3dex14CallSiteIdItemE",
   "self_type" : "_ZTIPKN3art3dex14CallSiteIdItemE",
   "size" : 8,
   "source_file" : "art/libdexfile/dex/dex_file.h"
  },
  {
   "alignment" : 8,
   "linker_set_key" : "_ZTIPKN3art3dex16MethodHandleItemE",
   "name" : "const art::dex::MethodHandleItem *",
   "referenced_type" : "_ZTIKN3art3dex16MethodHandleItemE",
   "self_type" : "_ZTIPKN3art3dex16MethodHandleItemE",
   "size" : 8,
   "source_file" : "art/libdexfile/dex/dex_file.h"
  },
  {
   "alignment" : 8,
   "linker_set_key" : "_ZTIPKN3art3dex17AnnotationSetItemE",
   "name" : "const art::dex::AnnotationSetItem *",
   "referenced_type" : "_ZTIKN3art3dex17AnnotationSetItemE",
   "self_type" : "_ZTIPKN3art3dex17AnnotationSetItemE",
   "size" : 8,
   "source_file" : "art/libdexfile/dex/dex_file.h"
  },
  {
   "alignment" : 8,
   "linker_set_key" : "_ZTIPKN3art3dex18HiddenapiClassDataE",
   "name" : "const art::dex::HiddenapiClassData *",
   "referenced_type" : "_ZTIKN3art3dex18HiddenapiClassDataE",
   "self_type" : "_ZTIPKN3art3dex18HiddenapiClassDataE",
   "size" : 8,
   "source_file" : "art/libdexfile/dex/dex_file_structs.h"
  },
  {
   "alignment" : 8,
   "linker_set_key" : "_ZTIPKN3art3dex20AnnotationSetRefItemE",
   "name" : "const art::dex::AnnotationSetRefItem *",
   "referenced_type" : "_ZTIKN3art3dex20AnnotationSetRefItemE",
   "self_type" : "_ZTIPKN3art3dex20AnnotationSetRefItemE",
   "size" : 8,
   "source_file" : "art/libdexfile/dex/dex_file.h"
  },
  {
   "alignment" : 8,
   "linker_set_key" : "_ZTIPKN3art3dex20AnnotationSetRefListE",
   "name" : "const art::dex::AnnotationSetRefList *",
   "referenced_type" : "_ZTIKN3art3dex20AnnotationSetRefListE",
   "self_type" : "_ZTIPKN3art3dex20AnnotationSetRefListE",
   "size" : 8,
   "source_file" : "art/libdexfile/dex/dex_file.h"
  },
  {
   "alignment" : 8,
   "linker_set_key" : "_ZTIPKN3art3dex20FieldAnnotationsItemE",
   "name" : "const art::dex::FieldAnnotationsItem *",
   "referenced_type" : "_ZTIKN3art3dex20FieldAnnotationsItemE",
   "self_type" : "_ZTIPKN3art3dex20FieldAnnotationsItemE",
   "size" : 8,
   "source_file" : "art/libdexfile/dex/dex_file.h"
  },
  {
   "alignment" : 8,
   "linker_set_key" : "_ZTIPKN3art3dex21MethodAnnotationsItemE",
   "name" : "const art::dex::MethodAnnotationsItem *",
   "referenced_type" : "_ZTIKN3art3dex21MethodAnnotationsItemE",
   "self_type" : "_ZTIPKN3art3dex21MethodAnnotationsItemE",
   "size" : 8,
   "source_file" : "art/libdexfile/dex/dex_file.h"
  },
  {
   "alignment" : 8,
   "linker_set_key" : "_ZTIPKN3art3dex24AnnotationsDirectoryItemE",
   "name" : "const art::dex::AnnotationsDirectoryItem *",
   "referenced_type" : "_ZTIKN3art3dex24AnnotationsDirectoryItemE",
   "self_type" : "_ZTIPKN3art3dex24AnnotationsDirectoryItemE",
   "size" : 8,
   "source_file" : "art/libdexfile/dex/dex_file.h"
  },
  {
   "alignment" : 8,
   "linker_set_key" : "_ZTIPKN3art3dex24ParameterAnnotationsItemE",
   "name" : "const art::dex::ParameterAnnotationsItem *",
   "referenced_type" : "_ZTIKN3art3dex24ParameterAnnotationsItemE",
   "self_type" : "_ZTIPKN3art3dex24ParameterAnnotationsItemE",
   "size" : 8,
   "source_file" : "art/libdexfile/dex/dex_file.h"
  },
  {
   "alignment" : 8,
   "linker_set_key" : "_ZTIPKN3art3dex6TypeIdE",
   "name" : "const art::dex::TypeId *",
   "referenced_type" : "_ZTIKN3art3dex6TypeIdE",
   "self_type" : "_ZTIPKN3art3dex6TypeIdE",
   "size" : 8,
   "source_file" : "system/libbase/include/android-base/logging.h"
  },
  {
   "alignment" : 8,
   "linker_set_key" : "_ZTIPKN3art3dex7FieldIdE",
   "name" : "const art::dex::FieldId *",
   "referenced_type" : "_ZTIKN3art3dex7FieldIdE",
   "self_type" : "_ZTIPKN3art3dex7FieldIdE",
   "size" : 8,
   "source_file" : "system/libbase/include/android-base/logging.h"
  },
  {
   "alignment" : 8,
   "linker_set_key" : "_ZTIPKN3art3dex7MapListE",
   "name" : "const art::dex::MapList *",
   "referenced_type" : "_ZTIKN3art3dex7MapListE",
   "self_type" : "_ZTIPKN3art3dex7MapListE",
   "size" : 8,
   "source_file" : "art/libdexfile/dex/dex_file_structs.h"
  },
  {
   "alignment" : 8,
   "linker_set_key" : "_ZTIPKN3art3dex7ProtoIdE",
   "name" : "const art::dex::ProtoId *",
   "referenced_type" : "_ZTIKN3art3dex7ProtoIdE",
   "self_type" : "_ZTIPKN3art3dex7ProtoIdE",
   "size" : 8,
   "source_file" : "system/libbase/include/android-base/logging.h"
  },
  {
   "alignment" : 8,
   "linker_set_key" : "_ZTIPKN3art3dex8ClassDefE",
   "name" : "const art::dex::ClassDef *",
   "referenced_type" : "_ZTIKN3art3dex8ClassDefE",
   "self_type" : "_ZTIPKN3art3dex8ClassDefE",
   "size" : 8,
   "source_file" : "system/libbase/include/android-base/logging.h"
  },
  {
   "alignment" : 8,
   "linker_set_key" : "_ZTIPKN3art3dex8CodeItemE",
   "name" : "const art::dex::CodeItem *",
   "referenced_type" : "_ZTIKN3art3dex8CodeItemE",
   "self_type" : "_ZTIPKN3art3dex8CodeItemE",
   "size" : 8,
   "source_file" : "art/libdexfile/dex/dex_file.h"
  },
  {
   "alignment" : 8,
   "linker_set_key" : "_ZTIPKN3art3dex8DexIndexIjEE",
   "name" : "const art::dex::DexIndex<unsigned int> *",
   "referenced_type" : "_ZTIKN3art3dex8DexIndexIjEE",
   "self_type" : "_ZTIPKN3art3dex8DexIndexIjEE",
   "size" : 8,
   "source_file" : "art/libdexfile/dex/dex_file_types.h"
  },
  {
   "alignment" : 8,
   "linker_set_key" : "_ZTIPKN3art3dex8DexIndexItEE",
   "name" : "const art::dex::DexIndex<unsigned short> *",
   "referenced_type" : "_ZTIKN3art3dex8DexIndexItEE",
   "self_type" : "_ZTIPKN3art3dex8DexIndexItEE",
   "size" : 8,
   "source_file" : "art/libdexfile/dex/dex_file_types.h"
  },
  {
   "alignment" : 8,
   "linker_set_key" : "_ZTIPKN3art3dex8MethodIdE",
   "name" : "const art::dex::MethodId *",
   "referenced_type" : "_ZTIKN3art3dex8MethodIdE",
   "self_type" : "_ZTIPKN3art3dex8MethodIdE",
   "size" : 8,
   "source_file" : "system/libbase/include/android-base/logging.h"
  },
  {
   "alignment" : 8,
   "linker_set_key" : "_ZTIPKN3art3dex8StringIdE",
   "name" : "const art::dex::StringId *",
   "referenced_type" : "_ZTIKN3art3dex8StringIdE",
   "self_type" : "_ZTIPKN3art3dex8StringIdE",
   "size" : 8,
   "source_file" : "system/libbase/include/android-base/logging.h"
  },
  {
   "alignment" : 8,
   "linker_set_key" : "_ZTIPKN3art3dex8TypeListE",
   "name" : "const art::dex::TypeList *",
   "referenced_type" : "_ZTIKN3art3dex8TypeListE",
   "self_type" : "_ZTIPKN3art3dex8TypeListE",
   "size" : 8,
   "source_file" : "art/libdexfile/dex/dex_file_structs.h"
  },
  {
   "alignment" : 8,
   "linker_set_key" : "_ZTIPKN3art6MemMapE",
   "name" : "const art::MemMap *",
   "referenced_type" : "_ZTIKN3art6MemMapE",
   "self_type" : "_ZTIPKN3art6MemMapE",
   "size" : 8,
   "source_file" : "art/libartbase/base/mem_map.h"
  },
  {
   "alignment" : 8,
   "linker_set_key" : "_ZTIPKN3art7DexFile6HeaderE",
   "name" : "const art::DexFile::Header *",
   "referenced_type" : "_ZTIKN3art7DexFile6HeaderE",
   "self_type" : "_ZTIPKN3art7DexFile6HeaderE",
   "size" : 8,
   "source_file" : "art/libdexfile/dex/dex_file.h"
  },
  {
   "alignment" : 8,
   "linker_set_key" : "_ZTIPKN3art7DexFileE",
   "name" : "const art::DexFile *",
   "referenced_type" : "_ZTIKN3art7DexFileE",
   "self_type" : "_ZTIPKN3art7DexFileE",
   "size" : 8,
   "source_file" : "art/libdexfile/dex/dex_file.h"
  },
  {
   "alignment" : 8,
   "linker_set_key" : "_ZTIPKN3art9CountIterE",
   "name" : "const art::CountIter *",
   "referenced_type" : "_ZTIKN3art9CountIterE",
   "self_type" : "_ZTIPKN3art9CountIterE",
   "size" : 8,
   "source_file" : "art/libartbase/base/stl_util.h"
  },
  {
   "alignment" : 8,
   "linker_set_key" : "_ZTIPKN7android4base13ErrnoRestorerE",
   "name" : "const android::base::ErrnoRestorer *",
   "referenced_type" : "_ZTIKN7android4base13ErrnoRestorerE",
   "self_type" : "_ZTIPKN7android4base13ErrnoRestorerE",
   "size" : 8,
   "source_file" : "system/libbase/include/android-base/errno_restorer.h"
  },
  {
   "alignment" : 8,
   "linker_set_key" : "_ZTIPKN9unix_file6FdFileE",
   "name" : "const unix_file::FdFile *",
   "referenced_type" : "_ZTIKN9unix_file6FdFileE",
   "self_type" : "_ZTIPKN9unix_file6FdFileE",
   "size" : 8,
   "source_file" : "art/libartbase/base/unix_file/fd_file.h"
  },
  {
   "alignment" : 8,
   "linker_set_key" : "_ZTIPKNSt3__112basic_stringIcNS_11char_traitsIcEENS_9allocatorIcEEEE",
   "name" : "const std::basic_string<char, std::char_traits<char>, std::allocator<char>> *",
   "referenced_type" : "_ZTIKNSt3__112basic_stringIcNS_11char_traitsIcEENS_9allocatorIcEEEE",
   "self_type" : "_ZTIPKNSt3__112basic_stringIcNS_11char_traitsIcEENS_9allocatorIcEEEE",
   "size" : 8,
   "source_file" : "system/libbase/include/android-base/logging.h"
  },
  {
   "alignment" : 8,
   "linker_set_key" : "_ZTIPKNSt3__14hashIN3art3dex10ProtoIndexEEE",
   "name" : "const std::hash<art::dex::ProtoIndex> *",
   "referenced_type" : "_ZTIKNSt3__14hashIN3art3dex10ProtoIndexEEE",
   "self_type" : "_ZTIPKNSt3__14hashIN3art3dex10ProtoIndexEEE",
   "size" : 8,
   "source_file" : "art/libdexfile/dex/dex_file_types.h"
  },
  {
   "alignment" : 8,
   "linker_set_key" : "_ZTIPKNSt3__14hashIN3art3dex11StringIndexEEE",
   "name" : "const std::hash<art::dex::StringIndex> *",
   "referenced_type" : "_ZTIKNSt3__14hashIN3art3dex11StringIndexEEE",
   "self_type" : "_ZTIPKNSt3__14hashIN3art3dex11StringIndexEEE",
   "size" : 8,
   "source_file" : "art/libdexfile/dex/dex_file_types.h"
  },
  {
   "alignment" : 8,
   "linker_set_key" : "_ZTIPKNSt3__14hashIN3art3dex9TypeIndexEEE",
   "name" : "const std::hash<art::dex::TypeIndex> *",
   "referenced_type" : "_ZTIKNSt3__14hashIN3art3dex9TypeIndexEEE",
   "self_type" : "_ZTIPKNSt3__14hashIN3art3dex9TypeIndexEEE",
   "size" : 8,
   "source_file" : "art/libdexfile/dex/dex_file_types.h"
  },
  {
   "alignment" : 8,
   "linker_set_key" : "_ZTIPKc",
   "name" : "const char *",
   "referenced_type" : "_ZTIKc",
   "self_type" : "_ZTIPKc",
   "size" : 8,
   "source_file" : "art/libdexfile/dex/dex_file_loader.h"
  },
  {
   "alignment" : 8,
   "linker_set_key" : "_ZTIPKh",
   "name" : "const unsigned char *",
   "referenced_type" : "_ZTIKh",
   "self_type" : "_ZTIPKh",
   "size" : 8,
   "source_file" : "art/libdexfile/dex/art_dex_file_loader.h"
  },
  {
   "alignment" : 8,
   "linker_set_key" : "_ZTIPKj",
   "name" : "const unsigned int *",
   "referenced_type" : "_ZTIKj",
   "self_type" : "_ZTIPKj",
   "size" : 8,
   "source_file" : "art/libdexfile/dex/compact_offset_table.h"
  },
  {
   "alignment" : 8,
   "linker_set_key" : "_ZTIPKt",
   "name" : "const unsigned short *",
   "referenced_type" : "_ZTIKt",
   "self_type" : "_ZTIPKt",
   "size" : 8,
   "source_file" : "art/libdexfile/dex/compact_dex_file.h"
  },
  {
   "alignment" : 8,
   "linker_set_key" : "_ZTIPKv",
   "name" : "const void *",
   "referenced_type" : "_ZTIKv",
   "self_type" : "_ZTIPKv",
   "size" : 8,
   "source_file" : "art/libartbase/base/mem_map.h"
  },
  {
   "alignment" : 8,
   "linker_set_key" : "_ZTIPN3art10ZipArchiveE",
   "name" : "art::ZipArchive *",
   "referenced_type" : "_ZTIN3art10ZipArchiveE",
   "self_type" : "_ZTIPN3art10ZipArchiveE",
   "size" : 8,
   "source_file" : "art/libartbase/base/zip_archive.h"
  },
  {
   "alignment" : 8,
   "linker_set_key" : "_ZTIPN3art11ScopedTraceE",
   "name" : "art::ScopedTrace *",
   "referenced_type" : "_ZTIN3art11ScopedTraceE",
   "self_type" : "_ZTIPN3art11ScopedTraceE",
   "size" : 8,
   "source_file" : "art/libartbase/base/systrace.h"
  },
  {
   "alignment" : 8,
   "linker_set_key" : "_ZTIPN3art13DexFileLoader12VerifyResultE",
   "name" : "art::DexFileLoader::VerifyResult *",
   "referenced_type" : "_ZTIN3art13DexFileLoader12VerifyResultE",
   "self_type" : "_ZTIPN3art13DexFileLoader12VerifyResultE",
   "size" : 8,
   "source_file" : "art/libdexfile/dex/art_dex_file_loader.h"
  },
  {
   "alignment" : 8,
   "linker_set_key" : "_ZTIPN3art13DexFileLoaderE",
   "name" : "art::DexFileLoader *",
   "referenced_type" : "_ZTIN3art13DexFileLoaderE",
   "self_type" : "_ZTIPN3art13DexFileLoaderE",
   "size" : 8,
   "source_file" : "art/libdexfile/dex/dex_file_loader.h"
  },
  {
   "alignment" : 8,
   "linker_set_key" : "_ZTIPN3art14CompactDexFile8CodeItemE",
   "name" : "art::CompactDexFile::CodeItem *",
   "referenced_type" : "_ZTIN3art14CompactDexFile8CodeItemE",
   "self_type" : "_ZTIPN3art14CompactDexFile8CodeItemE",
   "size" : 8,
   "source_file" : "art/libdexfile/dex/compact_dex_file.h"
  },
  {
   "alignment" : 8,
   "linker_set_key" : "_ZTIPN3art14IterationRangeINS_15SplitStringIterEEE",
   "name" : "art::IterationRange<art::SplitStringIter> *",
   "referenced_type" : "_ZTIN3art14IterationRangeINS_15SplitStringIterEEE",
   "self_type" : "_ZTIPN3art14IterationRangeINS_15SplitStringIterEEE",
   "size" : 8,
   "source_file" : "art/libartbase/base/iteration_range.h"
  },
  {
   "alignment" : 8,
   "linker_set_key" : "_ZTIPN3art14IterationRangeINS_9CountIterEEE",
   "name" : "art::IterationRange<art::CountIter> *",
   "referenced_type" : "_ZTIN3art14IterationRangeINS_9CountIterEEE",
   "self_type" : "_ZTIPN3art14IterationRangeINS_9CountIterEEE",
   "size" : 8,
   "source_file" : "art/libartbase/base/iteration_range.h"
  },
  {
   "alignment" : 8,
   "linker_set_key" : "_ZTIPN3art15SplitStringIterE",
   "name" : "art::SplitStringIter *",
   "referenced_type" : "_ZTIN3art15SplitStringIterE",
   "self_type" : "_ZTIPN3art15SplitStringIterE",
   "size" : 8,
   "source_file" : "art/libartbase/base/stl_util.h"
  },
  {
   "alignment" : 8,
   "linker_set_key" : "_ZTIPN3art15StandardDexFile8CodeItemE",
   "name" : "art::StandardDexFile::CodeItem *",
   "referenced_type" : "_ZTIN3art15StandardDexFile8CodeItemE",
   "self_type" : "_ZTIPN3art15StandardDexFile8CodeItemE",
   "size" : 8,
   "source_file" : "art/libdexfile/dex/standard_dex_file.h"
  },
  {
   "alignment" : 8,
   "linker_set_key" : "_ZTIPN3art15StandardDexFileE",
   "name" : "art::StandardDexFile *",
   "referenced_type" : "_ZTIN3art15StandardDexFileE",
   "self_type" : "_ZTIPN3art15StandardDexFileE",
   "size" : 8,
   "source_file" : "art/libdexfile/dex/standard_dex_file.h"
  },
  {
   "alignment" : 8,
   "linker_set_key" : "_ZTIPN3art16ArtDexFileLoaderE",
   "name" : "art::ArtDexFileLoader *",
   "referenced_type" : "_ZTIN3art16ArtDexFileLoaderE",
   "self_type" : "_ZTIPN3art16ArtDexFileLoaderE",
   "size" : 8,
   "source_file" : "art/libdexfile/dex/art_dex_file_loader.h"
  },
  {
   "alignment" : 8,
   "linker_set_key" : "_ZTIPN3art16DexFileContainerE",
   "name" : "art::DexFileContainer *",
   "referenced_type" : "_ZTIN3art16DexFileContainerE",
   "self_type" : "_ZTIPN3art16DexFileContainerE",
   "size" : 8,
   "source_file" : "art/libdexfile/dex/dex_file.h"
  },
  {
   "alignment" : 8,
   "linker_set_key" : "_ZTIPN3art18ScopedTraceNoStart24ScopedTraceMessageHelperE",
   "name" : "art::ScopedTraceNoStart::ScopedTraceMessageHelper *",
   "referenced_type" : "_ZTIN3art18ScopedTraceNoStart24ScopedTraceMessageHelperE",
   "self_type" : "_ZTIPN3art18ScopedTraceNoStart24ScopedTraceMessageHelperE",
   "size" : 8,
   "source_file" : "art/libartbase/base/systrace.h"
  },
  {
   "alignment" : 8,
   "linker_set_key" : "_ZTIPN3art18ScopedTraceNoStartE",
   "name" : "art::ScopedTraceNoStart *",
   "referenced_type" : "_ZTIN3art18ScopedTraceNoStartE",
   "self_type" : "_ZTIPN3art18ScopedTraceNoStartE",
   "size" : 8,
   "source_file" : "art/libartbase/base/systrace.h"
  },
  {
   "alignment" : 8,
   "linker_set_key" : "_ZTIPN3art22DexFileLoaderErrorCodeE",
   "name" : "art::DexFileLoaderErrorCode *",
   "referenced_type" : "_ZTIN3art22DexFileLoaderErrorCodeE",
   "self_type" : "_ZTIPN3art22DexFileLoaderErrorCodeE",
   "size" : 8,
   "source_file" : "art/libdexfile/dex/art_dex_file_loader.h"
  },
  {
   "alignment" : 8,
   "linker_set_key" : "_ZTIPN3art24DexFileParameterIteratorE",
   "name" : "art::DexFileParameterIterator *",
   "referenced_type" : "_ZTIN3art24DexFileParameterIteratorE",
   "self_type" : "_ZTIPN3art24DexFileParameterIteratorE",
   "size" : 8,
   "source_file" : "art/libdexfile/dex/dex_file.h"
  },
  {
   "alignment" : 8,
   "linker_set_key" : "_ZTIPN3art26CallSiteArrayValueIteratorE",
   "name" : "art::CallSiteArrayValueIterator *",
   "referenced_type" : "_ZTIN3art26CallSiteArrayValueIteratorE",
   "self_type" : "_ZTIPN3art26CallSiteArrayValueIteratorE",
   "size" : 8,
   "source_file" : "art/libdexfile/dex/dex_file.h"
  },
  {
   "alignment" : 8,
   "linker_set_key" : "_ZTIPN3art31EncodedStaticFieldValueIteratorE",
   "name" : "art::EncodedStaticFieldValueIterator *",
   "referenced_type" : "_ZTIN3art31EncodedStaticFieldValueIteratorE",
   "self_type" : "_ZTIPN3art31EncodedStaticFieldValueIteratorE",
   "size" : 8,
   "source_file" : "art/libdexfile/dex/dex_file.h"
  },
  {
   "alignment" : 8,
   "linker_set_key" : "_ZTIPN3art3dex10ProtoIndexE",
   "name" : "art::dex::ProtoIndex *",
   "referenced_type" : "_ZTIN3art3dex10ProtoIndexE",
   "self_type" : "_ZTIPN3art3dex10ProtoIndexE",
   "size" : 8,
   "source_file" : "art/libdexfile/dex/dex_file_types.h"
  },
  {
   "alignment" : 8,
   "linker_set_key" : "_ZTIPN3art3dex11StringIndexE",
   "name" : "art::dex::StringIndex *",
   "referenced_type" : "_ZTIN3art3dex11StringIndexE",
   "self_type" : "_ZTIPN3art3dex11StringIndexE",
   "size" : 8,
   "source_file" : "art/libdexfile/dex/dex_file_types.h"
  },
  {
   "alignment" : 8,
   "linker_set_key" : "_ZTIPN3art3dex7TryItemE",
   "name" : "art::dex::TryItem *",
   "referenced_type" : "_ZTIN3art3dex7TryItemE",
   "self_type" : "_ZTIPN3art3dex7TryItemE",
   "size" : 8,
   "source_file" : "art/libdexfile/dex/dex_file_structs.h"
  },
  {
   "alignment" : 8,
   "linker_set_key" : "_ZTIPN3art3dex8CodeItemE",
   "name" : "art::dex::CodeItem *",
   "referenced_type" : "_ZTIN3art3dex8CodeItemE",
   "self_type" : "_ZTIPN3art3dex8CodeItemE",
   "size" : 8,
   "source_file" : "art/libdexfile/dex/dex_file_structs.h"
  },
  {
   "alignment" : 8,
   "linker_set_key" : "_ZTIPN3art3dex8DexIndexIjEE",
   "name" : "art::dex::DexIndex<unsigned int> *",
   "referenced_type" : "_ZTIN3art3dex8DexIndexIjEE",
   "self_type" : "_ZTIPN3art3dex8DexIndexIjEE",
   "size" : 8,
   "source_file" : "art/libdexfile/dex/dex_file_types.h"
  },
  {
   "alignment" : 8,
   "linker_set_key" : "_ZTIPN3art3dex8DexIndexItEE",
   "name" : "art::dex::DexIndex<unsigned short> *",
   "referenced_type" : "_ZTIN3art3dex8DexIndexItEE",
   "self_type" : "_ZTIPN3art3dex8DexIndexItEE",
   "size" : 8,
   "source_file" : "art/libdexfile/dex/dex_file_types.h"
  },
  {
   "alignment" : 8,
   "linker_set_key" : "_ZTIPN3art3dex9TypeIndexE",
   "name" : "art::dex::TypeIndex *",
   "referenced_type" : "_ZTIN3art3dex9TypeIndexE",
   "self_type" : "_ZTIPN3art3dex9TypeIndexE",
   "size" : 8,
   "source_file" : "art/libdexfile/dex/dex_file_types.h"
  },
  {
   "alignment" : 8,
   "linker_set_key" : "_ZTIPN3art6MemMapE",
   "name" : "art::MemMap *",
   "referenced_type" : "_ZTIN3art6MemMapE",
   "self_type" : "_ZTIPN3art6MemMapE",
   "size" : 8,
   "source_file" : "art/libartbase/base/mem_map.h"
  },
  {
   "alignment" : 8,
   "linker_set_key" : "_ZTIPN3art7DexFile12PositionInfoE",
   "name" : "art::DexFile::PositionInfo *",
   "referenced_type" : "_ZTIN3art7DexFile12PositionInfoE",
   "self_type" : "_ZTIPN3art7DexFile12PositionInfoE",
   "size" : 8,
   "source_file" : "art/libdexfile/dex/dex_file.h"
  },
  {
   "alignment" : 8,
   "linker_set_key" : "_ZTIPN3art7DexFile9LocalInfoE",
   "name" : "art::DexFile::LocalInfo *",
   "referenced_type" : "_ZTIN3art7DexFile9LocalInfoE",
   "self_type" : "_ZTIPN3art7DexFile9LocalInfoE",
   "size" : 8,
   "source_file" : "art/libdexfile/dex/dex_file.h"
  },
  {
   "alignment" : 8,
   "linker_set_key" : "_ZTIPN3art8ZipEntryE",
   "name" : "art::ZipEntry *",
   "referenced_type" : "_ZTIN3art8ZipEntryE",
   "self_type" : "_ZTIPN3art8ZipEntryE",
   "size" : 8,
   "source_file" : "art/libartbase/base/zip_archive.h"
  },
  {
   "alignment" : 8,
   "linker_set_key" : "_ZTIPN3art9CountIterE",
   "name" : "art::CountIter *",
   "referenced_type" : "_ZTIN3art9CountIterE",
   "self_type" : "_ZTIPN3art9CountIterE",
   "size" : 8,
   "source_file" : "art/libartbase/base/stl_util.h"
  },
  {
   "alignment" : 8,
   "linker_set_key" : "_ZTIPN7android4base10log_detail14EagerEvaluatorIPKN3art3dex6TypeIdES7_EE",
   "name" : "android::base::log_detail::EagerEvaluator<const art::dex::TypeId *, const art::dex::TypeId *> *",
   "referenced_type" : "_ZTIN7android4base10log_detail14EagerEvaluatorIPKN3art3dex6TypeIdES7_EE",
   "self_type" : "_ZTIPN7android4base10log_detail14EagerEvaluatorIPKN3art3dex6TypeIdES7_EE",
   "size" : 8,
   "source_file" : "system/libbase/include/android-base/logging.h"
  },
  {
   "alignment" : 8,
   "linker_set_key" : "_ZTIPN7android4base10log_detail14EagerEvaluatorIPKN3art3dex7FieldIdES7_EE",
   "name" : "android::base::log_detail::EagerEvaluator<const art::dex::FieldId *, const art::dex::FieldId *> *",
   "referenced_type" : "_ZTIN7android4base10log_detail14EagerEvaluatorIPKN3art3dex7FieldIdES7_EE",
   "self_type" : "_ZTIPN7android4base10log_detail14EagerEvaluatorIPKN3art3dex7FieldIdES7_EE",
   "size" : 8,
   "source_file" : "system/libbase/include/android-base/logging.h"
  },
  {
   "alignment" : 8,
   "linker_set_key" : "_ZTIPN7android4base10log_detail14EagerEvaluatorIPKN3art3dex7ProtoIdES7_EE",
   "name" : "android::base::log_detail::EagerEvaluator<const art::dex::ProtoId *, const art::dex::ProtoId *> *",
   "referenced_type" : "_ZTIN7android4base10log_detail14EagerEvaluatorIPKN3art3dex7ProtoIdES7_EE",
   "self_type" : "_ZTIPN7android4base10log_detail14EagerEvaluatorIPKN3art3dex7ProtoIdES7_EE",
   "size" : 8,
   "source_file" : "system/libbase/include/android-base/logging.h"
  },
  {
   "alignment" : 8,
   "linker_set_key" : "_ZTIPN7android4base10log_detail14EagerEvaluatorIPKN3art3dex8ClassDefES7_EE",
   "name" : "android::base::log_detail::EagerEvaluator<const art::dex::ClassDef *, const art::dex::ClassDef *> *",
   "referenced_type" : "_ZTIN7android4base10log_detail14EagerEvaluatorIPKN3art3dex8ClassDefES7_EE",
   "self_type" : "_ZTIPN7android4base10log_detail14EagerEvaluatorIPKN3art3dex8ClassDefES7_EE",
   "size" : 8,
   "source_file" : "system/libbase/include/android-base/logging.h"
  },
  {
   "alignment" : 8,
   "linker_set_key" : "_ZTIPN7android4base10log_detail14EagerEvaluatorIPKN3art3dex8MethodIdES7_EE",
   "name" : "android::base::log_detail::EagerEvaluator<const art::dex::MethodId *, const art::dex::MethodId *> *",
   "referenced_type" : "_ZTIN7android4base10log_detail14EagerEvaluatorIPKN3art3dex8MethodIdES7_EE",
   "self_type" : "_ZTIPN7android4base10log_detail14EagerEvaluatorIPKN3art3dex8MethodIdES7_EE",
   "size" : 8,
   "source_file" : "system/libbase/include/android-base/logging.h"
  },
  {
   "alignment" : 8,
   "linker_set_key" : "_ZTIPN7android4base10log_detail14EagerEvaluatorIPKN3art3dex8StringIdES7_EE",
   "name" : "android::base::log_detail::EagerEvaluator<const art::dex::StringId *, const art::dex::StringId *> *",
   "referenced_type" : "_ZTIN7android4base10log_detail14EagerEvaluatorIPKN3art3dex8StringIdES7_EE",
   "self_type" : "_ZTIPN7android4base10log_detail14EagerEvaluatorIPKN3art3dex8StringIdES7_EE",
   "size" : 8,
   "source_file" : "system/libbase/include/android-base/logging.h"
  },
  {
   "alignment" : 8,
   "linker_set_key" : "_ZTIPN7android4base10log_detail14EagerEvaluatorIjjEE",
   "name" : "android::base::log_detail::EagerEvaluator<unsigned int, unsigned int> *",
   "referenced_type" : "_ZTIN7android4base10log_detail14EagerEvaluatorIjjEE",
   "self_type" : "_ZTIPN7android4base10log_detail14EagerEvaluatorIjjEE",
   "size" : 8,
   "source_file" : "system/libbase/include/android-base/logging.h"
  },
  {
   "alignment" : 8,
   "linker_set_key" : "_ZTIPN7android4base10log_detail14EagerEvaluatorIjmEE",
   "name" : "android::base::log_detail::EagerEvaluator<unsigned int, unsigned long> *",
   "referenced_type" : "_ZTIN7android4base10log_detail14EagerEvaluatorIjmEE",
   "self_type" : "_ZTIPN7android4base10log_detail14EagerEvaluatorIjmEE",
   "size" : 8,
   "source_file" : "system/libbase/include/android-base/logging.h"
  },
  {
   "alignment" : 8,
   "linker_set_key" : "_ZTIPN7android4base10log_detail14EagerEvaluatorImjEE",
   "name" : "android::base::log_detail::EagerEvaluator<unsigned long, unsigned int> *",
   "referenced_type" : "_ZTIN7android4base10log_detail14EagerEvaluatorImjEE",
   "self_type" : "_ZTIPN7android4base10log_detail14EagerEvaluatorImjEE",
   "size" : 8,
   "source_file" : "system/libbase/include/android-base/logging.h"
  },
  {
   "alignment" : 8,
   "linker_set_key" : "_ZTIPN7android4base10log_detail14EagerEvaluatorImmEE",
   "name" : "android::base::log_detail::EagerEvaluator<unsigned long, unsigned long> *",
   "referenced_type" : "_ZTIN7android4base10log_detail14EagerEvaluatorImmEE",
   "self_type" : "_ZTIPN7android4base10log_detail14EagerEvaluatorImmEE",
   "size" : 8,
   "source_file" : "system/libbase/include/android-base/logging.h"
  },
  {
   "alignment" : 8,
   "linker_set_key" : "_ZTIPN7android4base10log_detail14EagerEvaluatorItjEE",
   "name" : "android::base::log_detail::EagerEvaluator<unsigned short, unsigned int> *",
   "referenced_type" : "_ZTIN7android4base10log_detail14EagerEvaluatorItjEE",
   "self_type" : "_ZTIPN7android4base10log_detail14EagerEvaluatorItjEE",
   "size" : 8,
   "source_file" : "system/libbase/include/android-base/logging.h"
  },
  {
   "alignment" : 8,
   "linker_set_key" : "_ZTIPN7android4base10log_detail14EagerEvaluatorItmEE",
   "name" : "android::base::log_detail::EagerEvaluator<unsigned short, unsigned long> *",
   "referenced_type" : "_ZTIN7android4base10log_detail14EagerEvaluatorItmEE",
   "self_type" : "_ZTIPN7android4base10log_detail14EagerEvaluatorItmEE",
   "size" : 8,
   "source_file" : "system/libbase/include/android-base/logging.h"
  },
  {
   "alignment" : 8,
   "linker_set_key" : "_ZTIPN7android4base10log_detail14EagerEvaluatorIttEE",
   "name" : "android::base::log_detail::EagerEvaluator<unsigned short, unsigned short> *",
   "referenced_type" : "_ZTIN7android4base10log_detail14EagerEvaluatorIttEE",
   "self_type" : "_ZTIPN7android4base10log_detail14EagerEvaluatorIttEE",
   "size" : 8,
   "source_file" : "system/libbase/include/android-base/logging.h"
  },
  {
   "alignment" : 8,
   "linker_set_key" : "_ZTIPN7android4base10log_detail7StorageIPKN3art3dex6TypeIdEEE",
   "name" : "android::base::log_detail::Storage<const art::dex::TypeId *> *",
   "referenced_type" : "_ZTIN7android4base10log_detail7StorageIPKN3art3dex6TypeIdEEE",
   "self_type" : "_ZTIPN7android4base10log_detail7StorageIPKN3art3dex6TypeIdEEE",
   "size" : 8,
   "source_file" : "system/libbase/include/android-base/logging.h"
  },
  {
   "alignment" : 8,
   "linker_set_key" : "_ZTIPN7android4base10log_detail7StorageIPKN3art3dex7FieldIdEEE",
   "name" : "android::base::log_detail::Storage<const art::dex::FieldId *> *",
   "referenced_type" : "_ZTIN7android4base10log_detail7StorageIPKN3art3dex7FieldIdEEE",
   "self_type" : "_ZTIPN7android4base10log_detail7StorageIPKN3art3dex7FieldIdEEE",
   "size" : 8,
   "source_file" : "system/libbase/include/android-base/logging.h"
  },
  {
   "alignment" : 8,
   "linker_set_key" : "_ZTIPN7android4base10log_detail7StorageIPKN3art3dex7ProtoIdEEE",
   "name" : "android::base::log_detail::Storage<const art::dex::ProtoId *> *",
   "referenced_type" : "_ZTIN7android4base10log_detail7StorageIPKN3art3dex7ProtoIdEEE",
   "self_type" : "_ZTIPN7android4base10log_detail7StorageIPKN3art3dex7ProtoIdEEE",
   "size" : 8,
   "source_file" : "system/libbase/include/android-base/logging.h"
  },
  {
   "alignment" : 8,
   "linker_set_key" : "_ZTIPN7android4base10log_detail7StorageIPKN3art3dex8ClassDefEEE",
   "name" : "android::base::log_detail::Storage<const art::dex::ClassDef *> *",
   "referenced_type" : "_ZTIN7android4base10log_detail7StorageIPKN3art3dex8ClassDefEEE",
   "self_type" : "_ZTIPN7android4base10log_detail7StorageIPKN3art3dex8ClassDefEEE",
   "size" : 8,
   "source_file" : "system/libbase/include/android-base/logging.h"
  },
  {
   "alignment" : 8,
   "linker_set_key" : "_ZTIPN7android4base10log_detail7StorageIPKN3art3dex8MethodIdEEE",
   "name" : "android::base::log_detail::Storage<const art::dex::MethodId *> *",
   "referenced_type" : "_ZTIN7android4base10log_detail7StorageIPKN3art3dex8MethodIdEEE",
   "self_type" : "_ZTIPN7android4base10log_detail7StorageIPKN3art3dex8MethodIdEEE",
   "size" : 8,
   "source_file" : "system/libbase/include/android-base/logging.h"
  },
  {
   "alignment" : 8,
   "linker_set_key" : "_ZTIPN7android4base10log_detail7StorageIPKN3art3dex8StringIdEEE",
   "name" : "android::base::log_detail::Storage<const art::dex::StringId *> *",
   "referenced_type" : "_ZTIN7android4base10log_detail7StorageIPKN3art3dex8StringIdEEE",
   "self_type" : "_ZTIPN7android4base10log_detail7StorageIPKN3art3dex8StringIdEEE",
   "size" : 8,
   "source_file" : "system/libbase/include/android-base/logging.h"
  },
  {
   "alignment" : 8,
   "linker_set_key" : "_ZTIPN7android4base10log_detail7StorageIjEE",
   "name" : "android::base::log_detail::Storage<unsigned int> *",
   "referenced_type" : "_ZTIN7android4base10log_detail7StorageIjEE",
   "self_type" : "_ZTIPN7android4base10log_detail7StorageIjEE",
   "size" : 8,
   "source_file" : "system/libbase/include/android-base/logging.h"
  },
  {
   "alignment" : 8,
   "linker_set_key" : "_ZTIPN7android4base10log_detail7StorageImEE",
   "name" : "android::base::log_detail::Storage<unsigned long> *",
   "referenced_type" : "_ZTIN7android4base10log_detail7StorageImEE",
   "self_type" : "_ZTIPN7android4base10log_detail7StorageImEE",
   "size" : 8,
   "source_file" : "system/libbase/include/android-base/logging.h"
  },
  {
   "alignment" : 8,
   "linker_set_key" : "_ZTIPN7android4base10log_detail7StorageItEE",
   "name" : "android::base::log_detail::Storage<unsigned short> *",
   "referenced_type" : "_ZTIN7android4base10log_detail7StorageItEE",
   "self_type" : "_ZTIPN7android4base10log_detail7StorageItEE",
   "size" : 8,
   "source_file" : "system/libbase/include/android-base/logging.h"
  },
  {
   "alignment" : 8,
   "linker_set_key" : "_ZTIPN7android4base13ErrnoRestorerE",
   "name" : "android::base::ErrnoRestorer *",
   "referenced_type" : "_ZTIN7android4base13ErrnoRestorerE",
   "self_type" : "_ZTIPN7android4base13ErrnoRestorerE",
   "size" : 8,
   "source_file" : "system/libbase/include/android-base/errno_restorer.h"
  },
  {
   "alignment" : 8,
   "linker_set_key" : "_ZTIPN7android4base19ScopedLockAssertionE",
   "name" : "android::base::ScopedLockAssertion *",
   "referenced_type" : "_ZTIN7android4base19ScopedLockAssertionE",
   "self_type" : "_ZTIPN7android4base19ScopedLockAssertionE",
   "size" : 8,
   "source_file" : "system/libbase/include/android-base/thread_annotations.h"
  },
  {
   "alignment" : 8,
   "linker_set_key" : "_ZTIPN9unix_file16RandomAccessFileE",
   "name" : "unix_file::RandomAccessFile *",
   "referenced_type" : "_ZTIN9unix_file16RandomAccessFileE",
   "self_type" : "_ZTIPN9unix_file16RandomAccessFileE",
   "size" : 8,
   "source_file" : "art/libartbase/base/unix_file/random_access_file.h"
  },
  {
   "alignment" : 8,
   "linker_set_key" : "_ZTIPN9unix_file6FdFileE",
   "name" : "unix_file::FdFile *",
   "referenced_type" : "_ZTIN9unix_file6FdFileE",
   "self_type" : "_ZTIPN9unix_file6FdFileE",
   "size" : 8,
   "source_file" : "art/libartbase/base/unix_file/fd_file.h"
  },
  {
   "alignment" : 8,
   "linker_set_key" : "_ZTIPNSt3__112basic_stringIcNS_11char_traitsIcEENS_9allocatorIcEEEE",
   "name" : "std::basic_string<char, std::char_traits<char>, std::allocator<char>> *",
   "referenced_type" : "_ZTINSt3__112basic_stringIcNS_11char_traitsIcEENS_9allocatorIcEEEE",
   "self_type" : "_ZTIPNSt3__112basic_stringIcNS_11char_traitsIcEENS_9allocatorIcEEEE",
   "size" : 8,
   "source_file" : "art/libdexfile/dex/art_dex_file_loader.h"
  },
  {
   "alignment" : 8,
   "linker_set_key" : "_ZTIPNSt3__15mutexE",
   "name" : "std::mutex *",
   "referenced_type" : "_ZTINSt3__15mutexE",
   "self_type" : "_ZTIPNSt3__15mutexE",
   "size" : 8,
   "source_file" : "art/libartbase/base/mem_map.h"
  },
  {
   "alignment" : 8,
   "linker_set_key" : "_ZTIPNSt3__16vectorINS_10unique_ptrIKN3art7DexFileENS_14default_deleteIS4_EEEENS_9allocatorIS7_EEEE",
   "name" : "std::vector<std::unique_ptr<const art::DexFile, std::default_delete<const art::DexFile>>, std::allocator<std::unique_ptr<const art::DexFile, std::default_delete<const art::DexFile>>>> *",
   "referenced_type" : "_ZTINSt3__16vectorINS_10unique_ptrIKN3art7DexFileENS_14default_deleteIS4_EEEENS_9allocatorIS7_EEEE",
   "self_type" : "_ZTIPNSt3__16vectorINS_10unique_ptrIKN3art7DexFileENS_14default_deleteIS4_EEEENS_9allocatorIS7_EEEE",
   "size" : 8,
   "source_file" : "art/libdexfile/dex/art_dex_file_loader.h"
  },
  {
   "alignment" : 8,
   "linker_set_key" : "_ZTIPNSt3__16vectorINS_12basic_stringIcNS_11char_traitsIcEENS_9allocatorIcEEEENS4_IS6_EEEE",
   "name" : "std::vector<std::basic_string<char, std::char_traits<char>, std::allocator<char>>, std::allocator<std::basic_string<char, std::char_traits<char>, std::allocator<char>>>> *",
   "referenced_type" : "_ZTINSt3__16vectorINS_12basic_stringIcNS_11char_traitsIcEENS_9allocatorIcEEEENS4_IS6_EEEE",
   "self_type" : "_ZTIPNSt3__16vectorINS_12basic_stringIcNS_11char_traitsIcEENS_9allocatorIcEEEENS4_IS6_EEEE",
   "size" : 8,
   "source_file" : "art/libdexfile/dex/art_dex_file_loader.h"
  },
  {
   "alignment" : 8,
   "linker_set_key" : "_ZTIPNSt3__16vectorIjNS_9allocatorIjEEEE",
   "name" : "std::vector<unsigned int, std::allocator<unsigned int>> *",
   "referenced_type" : "_ZTINSt3__16vectorIjNS_9allocatorIjEEEE",
   "self_type" : "_ZTIPNSt3__16vectorIjNS_9allocatorIjEEEE",
   "size" : 8,
   "source_file" : "art/libdexfile/dex/art_dex_file_loader.h"
  },
  {
   "alignment" : 8,
   "linker_set_key" : "_ZTIPb",
   "name" : "bool *",
   "referenced_type" : "_ZTIb",
   "self_type" : "_ZTIPb",
   "size" : 8,
   "source_file" : "art/libdexfile/dex/art_dex_file_loader.h"
  },
  {
   "alignment" : 8,
   "linker_set_key" : "_ZTIPc",
   "name" : "char *",
   "referenced_type" : "_ZTIc",
   "self_type" : "_ZTIPc",
   "size" : 8,
   "source_file" : "system/libbase/include/android-base/logging.h"
  },
  {
   "alignment" : 8,
   "linker_set_key" : "_ZTIPh",
   "name" : "unsigned char *",
   "referenced_type" : "_ZTIh",
   "self_type" : "_ZTIPh",
   "size" : 8,
   "source_file" : "art/libartbase/base/mem_map.h"
  },
  {
   "alignment" : 8,
   "linker_set_key" : "_ZTIPt",
   "name" : "unsigned short *",
   "referenced_type" : "_ZTIt",
   "self_type" : "_ZTIPt",
   "size" : 8,
   "source_file" : "art/libdexfile/dex/compact_dex_file.h"
  },
  {
   "alignment" : 8,
   "linker_set_key" : "_ZTIPv",
   "name" : "void *",
   "referenced_type" : "_ZTIv",
   "self_type" : "_ZTIPv",
   "size" : 8,
   "source_file" : "art/libartbase/base/mem_map.h"
  }
 ],
 "qualified_types" :
 [
  {
   "alignment" : 1,
   "is_const" : true,
   "linker_set_key" : "_ZTIA22_Kc",
   "name" : "char const[22]",
   "referenced_type" : "_ZTIA22_c",
   "self_type" : "_ZTIA22_Kc",
   "size" : 22,
   "source_file" : "art/libartbase/base/file_utils.h"
  },
  {
   "alignment" : 1,
   "is_const" : true,
   "linker_set_key" : "_ZTIA23_Kc",
   "name" : "char const[23]",
   "referenced_type" : "_ZTIA23_c",
   "self_type" : "_ZTIA23_Kc",
   "size" : 23,
   "source_file" : "art/libartbase/base/file_utils.h"
  },
  {
   "alignment" : 1,
   "is_const" : true,
   "linker_set_key" : "_ZTIA28_Kc",
   "name" : "char const[28]",
   "referenced_type" : "_ZTIA28_c",
   "self_type" : "_ZTIA28_Kc",
   "size" : 28,
   "source_file" : "art/libartbase/base/file_utils.h"
  },
  {
   "alignment" : 1,
   "is_const" : true,
   "linker_set_key" : "_ZTIA36_Kc",
   "name" : "char const[36]",
   "referenced_type" : "_ZTIA36_c",
   "self_type" : "_ZTIA36_Kc",
   "size" : 36,
   "source_file" : "art/libartbase/base/file_utils.h"
  },
  {
   "alignment" : 1,
   "is_const" : true,
   "linker_set_key" : "_ZTIA4_Kc",
   "name" : "char const[4]",
   "referenced_type" : "_ZTIA4_c",
   "self_type" : "_ZTIA4_Kc",
   "size" : 4,
   "source_file" : "art/libartbase/base/file_utils.h"
  },
  {
   "alignment" : 1,
   "is_const" : true,
   "linker_set_key" : "_ZTIA4_Kh",
   "name" : "unsigned char const[4]",
   "referenced_type" : "_ZTIA4_h",
   "self_type" : "_ZTIA4_Kh",
   "size" : 4,
   "source_file" : "art/libdexfile/dex/compact_dex_file.h"
  },
  {
   "alignment" : 1,
   "is_const" : true,
   "linker_set_key" : "_ZTIA5_A4_Kh",
   "name" : "unsigned char const[5][4]",
   "referenced_type" : "_ZTIA5_A4_h",
   "self_type" : "_ZTIA5_A4_Kh",
   "size" : 20,
   "source_file" : "art/libdexfile/dex/standard_dex_file.h"
  },
  {
   "alignment" : 8,
   "is_const" : true,
   "linker_set_key" : "_ZTIK6jvalue",
   "name" : "const jvalue",
   "referenced_type" : "_ZTI6jvalue",
   "self_type" : "_ZTIK6jvalue",
   "size" : 8,
   "source_file" : "art/libdexfile/dex/dex_file.h"
  },
  {
   "alignment" : 8,
   "is_const" : true,
   "linker_set_key" : "_ZTIKDn",
   "name" : "const nullptr_t",
   "referenced_type" : "_ZTIDn",
   "self_type" : "_ZTIKDn",
   "size" : 8,
   "source_file" : "system/libbase/include/android-base/logging.h"
  },
  {
   "alignment" : 1,
   "is_const" : true,
   "linker_set_key" : "_ZTIKN3art10FreeDeleteE",
   "name" : "const art::FreeDelete",
   "referenced_type" : "_ZTIN3art10FreeDeleteE",
   "self_type" : "_ZTIKN3art10FreeDeleteE",
   "size" : 1,
   "source_file" : "art/libartbase/base/stl_util.h"
  },
  {
   "is_const" : true,
   "linker_set_key" : "_ZTIKN3art10OatDexFileE",
   "name" : "const art::OatDexFile",
   "referenced_type" : "_ZTIN3art10OatDexFileE",
   "self_type" : "_ZTIKN3art10OatDexFileE",
   "source_file" : "art/libdexfile/dex/art_dex_file_loader.h"
  },
  {
   "alignment" : 8,
   "is_const" : true,
   "linker_set_key" : "_ZTIKN3art10ZipArchiveE",
   "name" : "const art::ZipArchive",
   "referenced_type" : "_ZTIN3art10ZipArchiveE",
   "self_type" : "_ZTIKN3art10ZipArchiveE",
   "size" : 8,
   "source_file" : "art/libdexfile/dex/art_dex_file_loader.h"
  },
  {
   "alignment" : 8,
   "is_const" : true,
   "linker_set_key" : "_ZTIKN3art11PointerSizeE",
   "name" : "const art::PointerSize",
   "referenced_type" : "_ZTIN3art11PointerSizeE",
   "self_type" : "_ZTIKN3art11PointerSizeE",
   "size" : 8,
   "source_file" : "art/libartbase/base/enums.h"
  },
  {
   "alignment" : 4,
   "is_const" : true,
   "linker_set_key" : "_ZTIKN3art14CompactDexFile6HeaderE",
   "name" : "const art::CompactDexFile::Header",
   "referenced_type" : "_ZTIN3art14CompactDexFile6HeaderE",
   "self_type" : "_ZTIKN3art14CompactDexFile6HeaderE",
   "size" : 136,
   "source_file" : "art/libartbase/base/casts.h"
  },
  {
   "alignment" : 2,
   "is_const" : true,
   "linker_set_key" : "_ZTIKN3art14CompactDexFile8CodeItemE",
   "name" : "const art::CompactDexFile::CodeItem",
   "referenced_type" : "_ZTIN3art14CompactDexFile8CodeItemE",
   "self_type" : "_ZTIKN3art14CompactDexFile8CodeItemE",
   "size" : 6,
   "source_file" : "art/libdexfile/dex/compact_dex_file.h"
  },
  {
   "alignment" : 8,
   "is_const" : true,
   "linker_set_key" : "_ZTIKN3art14CompactDexFileE",
   "name" : "const art::CompactDexFile",
   "referenced_type" : "_ZTIN3art14CompactDexFileE",
   "self_type" : "_ZTIKN3art14CompactDexFileE",
   "size" : 216,
   "source_file" : "art/libdexfile/dex/compact_dex_file.h"
  },
  {
   "alignment" : 4,
   "is_const" : true,
   "linker_set_key" : "_ZTIKN3art14InstructionSetE",
   "name" : "const art::InstructionSet",
   "referenced_type" : "_ZTIN3art14InstructionSetE",
   "self_type" : "_ZTIKN3art14InstructionSetE",
   "size" : 4,
   "source_file" : "art/libartbase/arch/instruction_set.h"
  },
  {
   "alignment" : 8,
   "is_const" : true,
   "linker_set_key" : "_ZTIKN3art15SplitStringIterE",
   "name" : "const art::SplitStringIter",
   "referenced_type" : "_ZTIN3art15SplitStringIterE",
   "self_type" : "_ZTIKN3art15SplitStringIterE",
   "size" : 32,
   "source_file" : "art/libartbase/base/iteration_range.h"
  },
  {
   "alignment" : 8,
   "is_const" : true,
   "linker_set_key" : "_ZTIKN3art15StandardDexFileE",
   "name" : "const art::StandardDexFile",
   "referenced_type" : "_ZTIN3art15StandardDexFileE",
   "self_type" : "_ZTIKN3art15StandardDexFileE",
   "size" : 192,
   "source_file" : "art/libdexfile/dex/standard_dex_file.h"
  },
  {
   "alignment" : 8,
   "is_const" : true,
   "linker_set_key" : "_ZTIKN3art16ArtDexFileLoaderE",
   "name" : "const art::ArtDexFileLoader",
   "referenced_type" : "_ZTIN3art16ArtDexFileLoaderE",
   "self_type" : "_ZTIKN3art16ArtDexFileLoaderE",
   "size" : 8,
   "source_file" : "art/libdexfile/dex/art_dex_file_loader.h"
  },
  {
   "alignment" : 8,
   "is_const" : true,
   "linker_set_key" : "_ZTIKN3art24DexFileParameterIteratorE",
   "name" : "const art::DexFileParameterIterator",
   "referenced_type" : "_ZTIN3art24DexFileParameterIteratorE",
   "self_type" : "_ZTIKN3art24DexFileParameterIteratorE",
   "size" : 24,
   "source_file" : "art/libdexfile/dex/dex_file.h"
  },
  {
   "alignment" : 8,
   "is_const" : true,
   "linker_set_key" : "_ZTIKN3art25EncodedArrayValueIteratorE",
   "name" : "const art::EncodedArrayValueIterator",
   "referenced_type" : "_ZTIN3art25EncodedArrayValueIteratorE",
   "self_type" : "_ZTIKN3art25EncodedArrayValueIteratorE",
   "size" : 48,
   "source_file" : "art/libdexfile/dex/dex_file.h"
  },
  {
   "alignment" : 8,
   "is_const" : true,
   "linker_set_key" : "_ZTIKN3art26CallSiteArrayValueIteratorE",
   "name" : "const art::CallSiteArrayValueIterator",
   "referenced_type" : "_ZTIN3art26CallSiteArrayValueIteratorE",
   "self_type" : "_ZTIKN3art26CallSiteArrayValueIteratorE",
   "size" : 48,
   "source_file" : "art/libdexfile/dex/dex_file.h"
  },
  {
   "alignment" : 2,
   "is_const" : true,
   "linker_set_key" : "_ZTIKN3art3dex10ProtoIndexE",
   "name" : "const art::dex::ProtoIndex",
   "referenced_type" : "_ZTIN3art3dex10ProtoIndexE",
   "self_type" : "_ZTIKN3art3dex10ProtoIndexE",
   "size" : 2,
   "source_file" : "art/libdexfile/dex/dex_file_types.h"
  },
  {
   "alignment" : 4,
   "is_const" : true,
   "linker_set_key" : "_ZTIKN3art3dex11StringIndexE",
   "name" : "const art::dex::StringIndex",
   "referenced_type" : "_ZTIN3art3dex11StringIndexE",
   "self_type" : "_ZTIKN3art3dex11StringIndexE",
   "size" : 4,
   "source_file" : "art/libdexfile/dex/dex_file_types.h"
  },
  {
   "alignment" : 1,
   "is_const" : true,
   "linker_set_key" : "_ZTIKN3art3dex14AnnotationItemE",
   "name" : "const art::dex::AnnotationItem",
   "referenced_type" : "_ZTIN3art3dex14AnnotationItemE",
   "self_type" : "_ZTIKN3art3dex14AnnotationItemE",
   "size" : 2,
   "source_file" : "art/libdexfile/dex/dex_file.h"
  },
  {
   "alignment" : 4,
   "is_const" : true,
   "linker_set_key" : "_ZTIKN3art3dex14CallSiteIdItemE",
   "name" : "const art::dex::CallSiteIdItem",
   "referenced_type" : "_ZTIN3art3dex14CallSiteIdItemE",
   "self_type" : "_ZTIKN3art3dex14CallSiteIdItemE",
   "size" : 4,
   "source_file" : "art/libdexfile/dex/dex_file.h"
  },
  {
   "alignment" : 2,
   "is_const" : true,
   "linker_set_key" : "_ZTIKN3art3dex16MethodHandleItemE",
   "name" : "const art::dex::MethodHandleItem",
   "referenced_type" : "_ZTIN3art3dex16MethodHandleItemE",
   "self_type" : "_ZTIKN3art3dex16MethodHandleItemE",
   "size" : 8,
   "source_file" : "art/libdexfile/dex/dex_file.h"
  },
  {
   "alignment" : 4,
   "is_const" : true,
   "linker_set_key" : "_ZTIKN3art3dex17AnnotationSetItemE",
   "name" : "const art::dex::AnnotationSetItem",
   "referenced_type" : "_ZTIN3art3dex17AnnotationSetItemE",
   "self_type" : "_ZTIKN3art3dex17AnnotationSetItemE",
   "size" : 8,
   "source_file" : "art/libdexfile/dex/dex_file.h"
  },
  {
   "alignment" : 4,
   "is_const" : true,
   "linker_set_key" : "_ZTIKN3art3dex18HiddenapiClassDataE",
   "name" : "const art::dex::HiddenapiClassData",
   "referenced_type" : "_ZTIN3art3dex18HiddenapiClassDataE",
   "self_type" : "_ZTIKN3art3dex18HiddenapiClassDataE",
   "size" : 8,
   "source_file" : "art/libdexfile/dex/dex_file_structs.h"
  },
  {
   "alignment" : 4,
   "is_const" : true,
   "linker_set_key" : "_ZTIKN3art3dex20AnnotationSetRefItemE",
   "name" : "const art::dex::AnnotationSetRefItem",
   "referenced_type" : "_ZTIN3art3dex20AnnotationSetRefItemE",
   "self_type" : "_ZTIKN3art3dex20AnnotationSetRefItemE",
   "size" : 4,
   "source_file" : "art/libdexfile/dex/dex_file.h"
  },
  {
   "alignment" : 4,
   "is_const" : true,
   "linker_set_key" : "_ZTIKN3art3dex20AnnotationSetRefListE",
   "name" : "const art::dex::AnnotationSetRefList",
   "referenced_type" : "_ZTIN3art3dex20AnnotationSetRefListE",
   "self_type" : "_ZTIKN3art3dex20AnnotationSetRefListE",
   "size" : 8,
   "source_file" : "art/libdexfile/dex/dex_file.h"
  },
  {
   "alignment" : 4,
   "is_const" : true,
   "linker_set_key" : "_ZTIKN3art3dex20FieldAnnotationsItemE",
   "name" : "const art::dex::FieldAnnotationsItem",
   "referenced_type" : "_ZTIN3art3dex20FieldAnnotationsItemE",
   "self_type" : "_ZTIKN3art3dex20FieldAnnotationsItemE",
   "size" : 8,
   "source_file" : "art/libdexfile/dex/dex_file.h"
  },
  {
   "alignment" : 4,
   "is_const" : true,
   "linker_set_key" : "_ZTIKN3art3dex21MethodAnnotationsItemE",
   "name" : "const art::dex::MethodAnnotationsItem",
   "referenced_type" : "_ZTIN3art3dex21MethodAnnotationsItemE",
   "self_type" : "_ZTIKN3art3dex21MethodAnnotationsItemE",
   "size" : 8,
   "source_file" : "art/libdexfile/dex/dex_file.h"
  },
  {
   "alignment" : 4,
   "is_const" : true,
   "linker_set_key" : "_ZTIKN3art3dex24AnnotationsDirectoryItemE",
   "name" : "const art::dex::AnnotationsDirectoryItem",
   "referenced_type" : "_ZTIN3art3dex24AnnotationsDirectoryItemE",
   "self_type" : "_ZTIKN3art3dex24AnnotationsDirectoryItemE",
   "size" : 16,
   "source_file" : "art/libdexfile/dex/dex_file.h"
  },
  {
   "alignment" : 4,
   "is_const" : true,
   "linker_set_key" : "_ZTIKN3art3dex24ParameterAnnotationsItemE",
   "name" : "const art::dex::ParameterAnnotationsItem",
   "referenced_type" : "_ZTIN3art3dex24ParameterAnnotationsItemE",
   "self_type" : "_ZTIKN3art3dex24ParameterAnnotationsItemE",
   "size" : 8,
   "source_file" : "art/libdexfile/dex/dex_file.h"
  },
  {
   "alignment" : 4,
   "is_const" : true,
   "linker_set_key" : "_ZTIKN3art3dex6TypeIdE",
   "name" : "const art::dex::TypeId",
   "referenced_type" : "_ZTIN3art3dex6TypeIdE",
   "self_type" : "_ZTIKN3art3dex6TypeIdE",
   "size" : 4,
   "source_file" : "system/libbase/include/android-base/logging.h"
  },
  {
   "alignment" : 4,
   "is_const" : true,
   "linker_set_key" : "_ZTIKN3art3dex7FieldIdE",
   "name" : "const art::dex::FieldId",
   "referenced_type" : "_ZTIN3art3dex7FieldIdE",
   "self_type" : "_ZTIKN3art3dex7FieldIdE",
   "size" : 8,
   "source_file" : "system/libbase/include/android-base/logging.h"
  },
  {
   "alignment" : 4,
   "is_const" : true,
   "linker_set_key" : "_ZTIKN3art3dex7MapListE",
   "name" : "const art::dex::MapList",
   "referenced_type" : "_ZTIN3art3dex7MapListE",
   "self_type" : "_ZTIKN3art3dex7MapListE",
   "size" : 16,
   "source_file" : "art/libdexfile/dex/dex_file_structs.h"
  },
  {
   "alignment" : 4,
   "is_const" : true,
   "linker_set_key" : "_ZTIKN3art3dex7ProtoIdE",
   "name" : "const art::dex::ProtoId",
   "referenced_type" : "_ZTIN3art3dex7ProtoIdE",
   "self_type" : "_ZTIKN3art3dex7ProtoIdE",
   "size" : 12,
   "source_file" : "system/libbase/include/android-base/logging.h"
  },
  {
   "alignment" : 4,
   "is_const" : true,
   "linker_set_key" : "_ZTIKN3art3dex8ClassDefE",
   "name" : "const art::dex::ClassDef",
   "referenced_type" : "_ZTIN3art3dex8ClassDefE",
   "self_type" : "_ZTIKN3art3dex8ClassDefE",
   "size" : 32,
   "source_file" : "system/libbase/include/android-base/logging.h"
  },
  {
   "alignment" : 1,
   "is_const" : true,
   "linker_set_key" : "_ZTIKN3art3dex8CodeItemE",
   "name" : "const art::dex::CodeItem",
   "referenced_type" : "_ZTIN3art3dex8CodeItemE",
   "self_type" : "_ZTIKN3art3dex8CodeItemE",
   "size" : 1,
   "source_file" : "art/libdexfile/dex/dex_file.h"
  },
  {
   "alignment" : 4,
   "is_const" : true,
   "linker_set_key" : "_ZTIKN3art3dex8DexIndexIjEE",
   "name" : "const art::dex::DexIndex<unsigned int>",
   "referenced_type" : "_ZTIN3art3dex8DexIndexIjEE",
   "self_type" : "_ZTIKN3art3dex8DexIndexIjEE",
   "size" : 4,
   "source_file" : "art/libdexfile/dex/dex_file_types.h"
  },
  {
   "alignment" : 2,
   "is_const" : true,
   "linker_set_key" : "_ZTIKN3art3dex8DexIndexItEE",
   "name" : "const art::dex::DexIndex<unsigned short>",
   "referenced_type" : "_ZTIN3art3dex8DexIndexItEE",
   "self_type" : "_ZTIKN3art3dex8DexIndexItEE",
   "size" : 2,
   "source_file" : "art/libdexfile/dex/dex_file_types.h"
  },
  {
   "alignment" : 4,
   "is_const" : true,
   "linker_set_key" : "_ZTIKN3art3dex8MethodIdE",
   "name" : "const art::dex::MethodId",
   "referenced_type" : "_ZTIN3art3dex8MethodIdE",
   "self_type" : "_ZTIKN3art3dex8MethodIdE",
   "size" : 8,
   "source_file" : "system/libbase/include/android-base/logging.h"
  },
  {
   "alignment" : 4,
   "is_const" : true,
   "linker_set_key" : "_ZTIKN3art3dex8StringIdE",
   "name" : "const art::dex::StringId",
   "referenced_type" : "_ZTIN3art3dex8StringIdE",
   "self_type" : "_ZTIKN3art3dex8StringIdE",
   "size" : 4,
   "source_file" : "system/libbase/include/android-base/logging.h"
  },
  {
   "alignment" : 2,
   "is_const" : true,
   "linker_set_key" : "_ZTIKN3art3dex8TypeItemE",
   "name" : "const art::dex::TypeItem",
   "referenced_type" : "_ZTIN3art3dex8TypeItemE",
   "self_type" : "_ZTIKN3art3dex8TypeItemE",
   "size" : 2,
   "source_file" : "art/libdexfile/dex/dex_file_structs.h"
  },
  {
   "alignment" : 4,
   "is_const" : true,
   "linker_set_key" : "_ZTIKN3art3dex8TypeListE",
   "name" : "const art::dex::TypeList",
   "referenced_type" : "_ZTIN3art3dex8TypeListE",
   "self_type" : "_ZTIKN3art3dex8TypeListE",
   "size" : 8,
   "source_file" : "art/libdexfile/dex/dex_file_structs.h"
  },
  {
   "alignment" : 2,
   "is_const" : true,
   "linker_set_key" : "_ZTIKN3art3dex9TypeIndexE",
   "name" : "const art::dex::TypeIndex",
   "referenced_type" : "_ZTIN3art3dex9TypeIndexE",
   "self_type" : "_ZTIKN3art3dex9TypeIndexE",
   "size" : 2,
   "source_file" : "art/libdexfile/dex/dex_file_types.h"
  },
  {
   "alignment" : 8,
   "is_const" : true,
   "linker_set_key" : "_ZTIKN3art6MemMapE",
   "name" : "const art::MemMap",
   "referenced_type" : "_ZTIN3art6MemMapE",
   "self_type" : "_ZTIKN3art6MemMapE",
   "size" : 72,
   "source_file" : "art/libartbase/base/mem_map.h"
  },
  {
   "alignment" : 4,
   "is_const" : true,
   "linker_set_key" : "_ZTIKN3art7DexFile6HeaderE",
   "name" : "const art::DexFile::Header",
   "referenced_type" : "_ZTIN3art7DexFile6HeaderE",
   "self_type" : "_ZTIKN3art7DexFile6HeaderE",
   "size" : 112,
   "source_file" : "art/libartbase/base/casts.h"
  },
  {
   "alignment" : 8,
   "is_const" : true,
   "linker_set_key" : "_ZTIKN3art7DexFileE",
   "name" : "const art::DexFile",
   "referenced_type" : "_ZTIN3art7DexFileE",
   "self_type" : "_ZTIKN3art7DexFileE",
   "size" : 192,
   "source_file" : "art/libdexfile/dex/dex_file.h"
  },
  {
   "alignment" : 8,
   "is_const" : true,
   "linker_set_key" : "_ZTIKN3art9CountIterE",
   "name" : "const art::CountIter",
   "referenced_type" : "_ZTIN3art9CountIterE",
   "self_type" : "_ZTIKN3art9CountIterE",
   "size" : 8,
   "source_file" : "art/libartbase/base/stl_util.h"
  },
  {
   "alignment" : 8,
   "is_const" : true,
   "linker_set_key" : "_ZTIKN7android4base10log_detail7StorageIPKN3art3dex6TypeIdEEE",
   "name" : "const android::base::log_detail::Storage<const art::dex::TypeId *>",
   "referenced_type" : "_ZTIN7android4base10log_detail7StorageIPKN3art3dex6TypeIdEEE",
   "self_type" : "_ZTIKN7android4base10log_detail7StorageIPKN3art3dex6TypeIdEEE",
   "size" : 8,
   "source_file" : "system/libbase/include/android-base/logging.h"
  },
  {
   "alignment" : 8,
   "is_const" : true,
   "linker_set_key" : "_ZTIKN7android4base10log_detail7StorageIPKN3art3dex7FieldIdEEE",
   "name" : "const android::base::log_detail::Storage<const art::dex::FieldId *>",
   "referenced_type" : "_ZTIN7android4base10log_detail7StorageIPKN3art3dex7FieldIdEEE",
   "self_type" : "_ZTIKN7android4base10log_detail7StorageIPKN3art3dex7FieldIdEEE",
   "size" : 8,
   "source_file" : "system/libbase/include/android-base/logging.h"
  },
  {
   "alignment" : 8,
   "is_const" : true,
   "linker_set_key" : "_ZTIKN7android4base10log_detail7StorageIPKN3art3dex7ProtoIdEEE",
   "name" : "const android::base::log_detail::Storage<const art::dex::ProtoId *>",
   "referenced_type" : "_ZTIN7android4base10log_detail7StorageIPKN3art3dex7ProtoIdEEE",
   "self_type" : "_ZTIKN7android4base10log_detail7StorageIPKN3art3dex7ProtoIdEEE",
   "size" : 8,
   "source_file" : "system/libbase/include/android-base/logging.h"
  },
  {
   "alignment" : 8,
   "is_const" : true,
   "linker_set_key" : "_ZTIKN7android4base10log_detail7StorageIPKN3art3dex8ClassDefEEE",
   "name" : "const android::base::log_detail::Storage<const art::dex::ClassDef *>",
   "referenced_type" : "_ZTIN7android4base10log_detail7StorageIPKN3art3dex8ClassDefEEE",
   "self_type" : "_ZTIKN7android4base10log_detail7StorageIPKN3art3dex8ClassDefEEE",
   "size" : 8,
   "source_file" : "system/libbase/include/android-base/logging.h"
  },
  {
   "alignment" : 8,
   "is_const" : true,
   "linker_set_key" : "_ZTIKN7android4base10log_detail7StorageIPKN3art3dex8MethodIdEEE",
   "name" : "const android::base::log_detail::Storage<const art::dex::MethodId *>",
   "referenced_type" : "_ZTIN7android4base10log_detail7StorageIPKN3art3dex8MethodIdEEE",
   "self_type" : "_ZTIKN7android4base10log_detail7StorageIPKN3art3dex8MethodIdEEE",
   "size" : 8,
   "source_file" : "system/libbase/include/android-base/logging.h"
  },
  {
   "alignment" : 8,
   "is_const" : true,
   "linker_set_key" : "_ZTIKN7android4base10log_detail7StorageIPKN3art3dex8StringIdEEE",
   "name" : "const android::base::log_detail::Storage<const art::dex::StringId *>",
   "referenced_type" : "_ZTIN7android4base10log_detail7StorageIPKN3art3dex8StringIdEEE",
   "self_type" : "_ZTIKN7android4base10log_detail7StorageIPKN3art3dex8StringIdEEE",
   "size" : 8,
   "source_file" : "system/libbase/include/android-base/logging.h"
  },
  {
   "alignment" : 4,
   "is_const" : true,
   "linker_set_key" : "_ZTIKN7android4base10log_detail7StorageIjEE",
   "name" : "const android::base::log_detail::Storage<unsigned int>",
   "referenced_type" : "_ZTIN7android4base10log_detail7StorageIjEE",
   "self_type" : "_ZTIKN7android4base10log_detail7StorageIjEE",
   "size" : 4,
   "source_file" : "system/libbase/include/android-base/logging.h"
  },
  {
   "alignment" : 8,
   "is_const" : true,
   "linker_set_key" : "_ZTIKN7android4base10log_detail7StorageImEE",
   "name" : "const android::base::log_detail::Storage<unsigned long>",
   "referenced_type" : "_ZTIN7android4base10log_detail7StorageImEE",
   "self_type" : "_ZTIKN7android4base10log_detail7StorageImEE",
   "size" : 8,
   "source_file" : "system/libbase/include/android-base/logging.h"
  },
  {
   "alignment" : 2,
   "is_const" : true,
   "linker_set_key" : "_ZTIKN7android4base10log_detail7StorageItEE",
   "name" : "const android::base::log_detail::Storage<unsigned short>",
   "referenced_type" : "_ZTIN7android4base10log_detail7StorageItEE",
   "self_type" : "_ZTIKN7android4base10log_detail7StorageItEE",
   "size" : 2,
   "source_file" : "system/libbase/include/android-base/logging.h"
  },
  {
   "alignment" : 4,
   "is_const" : true,
   "linker_set_key" : "_ZTIKN7android4base13ErrnoRestorerE",
   "name" : "const android::base::ErrnoRestorer",
   "referenced_type" : "_ZTIN7android4base13ErrnoRestorerE",
   "self_type" : "_ZTIKN7android4base13ErrnoRestorerE",
   "size" : 4,
   "source_file" : "system/libbase/include/android-base/errno_restorer.h"
  },
  {
   "alignment" : 8,
   "is_const" : true,
   "linker_set_key" : "_ZTIKN9unix_file6FdFileE",
   "name" : "const unix_file::FdFile",
   "referenced_type" : "_ZTIN9unix_file6FdFileE",
   "self_type" : "_ZTIKN9unix_file6FdFileE",
   "size" : 48,
   "source_file" : "art/libartbase/base/unix_file/fd_file.h"
  },
  {
   "alignment" : 8,
   "is_const" : true,
   "linker_set_key" : "_ZTIKNSt3__110unique_ptrIN7android4base14LogMessageDataENS_14default_deleteIS3_EEEE",
   "name" : "const std::unique_ptr<android::base::LogMessageData, std::default_delete<android::base::LogMessageData>>",
   "referenced_type" : "_ZTINSt3__110unique_ptrIN7android4base14LogMessageDataENS_14default_deleteIS3_EEEE",
   "self_type" : "_ZTIKNSt3__110unique_ptrIN7android4base14LogMessageDataENS_14default_deleteIS3_EEEE",
   "size" : 8,
   "source_file" : "system/libbase/include/android-base/logging.h"
  },
  {
   "alignment" : 8,
   "is_const" : true,
   "linker_set_key" : "_ZTIKNSt3__112basic_stringIcNS_11char_traitsIcEENS_9allocatorIcEEEE",
   "name" : "const std::basic_string<char, std::char_traits<char>, std::allocator<char>>",
   "referenced_type" : "_ZTINSt3__112basic_stringIcNS_11char_traitsIcEENS_9allocatorIcEEEE",
   "self_type" : "_ZTIKNSt3__112basic_stringIcNS_11char_traitsIcEENS_9allocatorIcEEEE",
   "size" : 24,
   "source_file" : "art/libdexfile/dex/dex_file_loader.h"
  },
  {
   "alignment" : 1,
   "is_const" : true,
   "linker_set_key" : "_ZTIKNSt3__14hashIN3art3dex10ProtoIndexEEE",
   "name" : "const std::hash<art::dex::ProtoIndex>",
   "referenced_type" : "_ZTINSt3__14hashIN3art3dex10ProtoIndexEEE",
   "self_type" : "_ZTIKNSt3__14hashIN3art3dex10ProtoIndexEEE",
   "size" : 1,
   "source_file" : "art/libdexfile/dex/dex_file_types.h"
  },
  {
   "alignment" : 1,
   "is_const" : true,
   "linker_set_key" : "_ZTIKNSt3__14hashIN3art3dex11StringIndexEEE",
   "name" : "const std::hash<art::dex::StringIndex>",
   "referenced_type" : "_ZTINSt3__14hashIN3art3dex11StringIndexEEE",
   "self_type" : "_ZTIKNSt3__14hashIN3art3dex11StringIndexEEE",
   "size" : 1,
   "source_file" : "art/libdexfile/dex/dex_file_types.h"
  },
  {
   "alignment" : 1,
   "is_const" : true,
   "linker_set_key" : "_ZTIKNSt3__14hashIN3art3dex9TypeIndexEEE",
   "name" : "const std::hash<art::dex::TypeIndex>",
   "referenced_type" : "_ZTINSt3__14hashIN3art3dex9TypeIndexEEE",
   "self_type" : "_ZTIKNSt3__14hashIN3art3dex9TypeIndexEEE",
   "size" : 1,
   "source_file" : "art/libdexfile/dex/dex_file_types.h"
  },
  {
   "alignment" : 8,
   "is_const" : true,
   "linker_set_key" : "_ZTIKNSt3__16vectorIN3art3dex9TypeIndexENS_9allocatorIS3_EEEE",
   "name" : "const std::vector<art::dex::TypeIndex, std::allocator<art::dex::TypeIndex>>",
   "referenced_type" : "_ZTINSt3__16vectorIN3art3dex9TypeIndexENS_9allocatorIS3_EEEE",
   "self_type" : "_ZTIKNSt3__16vectorIN3art3dex9TypeIndexENS_9allocatorIS3_EEEE",
   "size" : 24,
   "source_file" : "art/libdexfile/dex/dex_file.h"
  },
  {
   "alignment" : 8,
   "is_const" : true,
   "linker_set_key" : "_ZTIKP8ZipEntry",
   "name" : "ZipEntry *const",
   "referenced_type" : "_ZTIP8ZipEntry",
   "self_type" : "_ZTIKP8ZipEntry",
   "size" : 8,
   "source_file" : "art/libartbase/base/zip_archive.h"
  },
  {
   "alignment" : 8,
   "is_const" : true,
   "linker_set_key" : "_ZTIKPKN3art3dex6TypeIdE",
   "name" : "const art::dex::TypeId *const",
   "referenced_type" : "_ZTIPKN3art3dex6TypeIdE",
   "self_type" : "_ZTIKPKN3art3dex6TypeIdE",
   "size" : 8,
   "source_file" : "system/libbase/include/android-base/logging.h"
  },
  {
   "alignment" : 8,
   "is_const" : true,
   "linker_set_key" : "_ZTIKPKN3art3dex7FieldIdE",
   "name" : "const art::dex::FieldId *const",
   "referenced_type" : "_ZTIPKN3art3dex7FieldIdE",
   "self_type" : "_ZTIKPKN3art3dex7FieldIdE",
   "size" : 8,
   "source_file" : "system/libbase/include/android-base/logging.h"
  },
  {
   "alignment" : 8,
   "is_const" : true,
   "linker_set_key" : "_ZTIKPKN3art3dex7ProtoIdE",
   "name" : "const art::dex::ProtoId *const",
   "referenced_type" : "_ZTIPKN3art3dex7ProtoIdE",
   "self_type" : "_ZTIKPKN3art3dex7ProtoIdE",
   "size" : 8,
   "source_file" : "system/libbase/include/android-base/logging.h"
  },
  {
   "alignment" : 8,
   "is_const" : true,
   "linker_set_key" : "_ZTIKPKN3art3dex8ClassDefE",
   "name" : "const art::dex::ClassDef *const",
   "referenced_type" : "_ZTIPKN3art3dex8ClassDefE",
   "self_type" : "_ZTIKPKN3art3dex8ClassDefE",
   "size" : 8,
   "source_file" : "system/libbase/include/android-base/logging.h"
  },
  {
   "alignment" : 8,
   "is_const" : true,
   "linker_set_key" : "_ZTIKPKN3art3dex8MethodIdE",
   "name" : "const art::dex::MethodId *const",
   "referenced_type" : "_ZTIPKN3art3dex8MethodIdE",
   "self_type" : "_ZTIKPKN3art3dex8MethodIdE",
   "size" : 8,
   "source_file" : "system/libbase/include/android-base/logging.h"
  },
  {
   "alignment" : 8,
   "is_const" : true,
   "linker_set_key" : "_ZTIKPKN3art3dex8StringIdE",
   "name" : "const art::dex::StringId *const",
   "referenced_type" : "_ZTIPKN3art3dex8StringIdE",
   "self_type" : "_ZTIKPKN3art3dex8StringIdE",
   "size" : 8,
   "source_file" : "system/libbase/include/android-base/logging.h"
  },
  {
   "alignment" : 8,
   "is_const" : true,
   "linker_set_key" : "_ZTIKPKN3art7DexFile6HeaderE",
   "name" : "const art::DexFile::Header *const",
   "referenced_type" : "_ZTIPKN3art7DexFile6HeaderE",
   "self_type" : "_ZTIKPKN3art7DexFile6HeaderE",
   "size" : 8,
   "source_file" : "art/libdexfile/dex/dex_file.h"
  },
  {
   "alignment" : 8,
   "is_const" : true,
   "linker_set_key" : "_ZTIKPKc",
   "name" : "const char *const",
   "referenced_type" : "_ZTIPKc",
   "self_type" : "_ZTIKPKc",
   "size" : 8,
   "source_file" : "art/libdexfile/dex/dex_file_loader.h"
  },
  {
   "alignment" : 8,
   "is_const" : true,
   "linker_set_key" : "_ZTIKPKh",
   "name" : "const unsigned char *const",
   "referenced_type" : "_ZTIPKh",
   "self_type" : "_ZTIKPKh",
   "size" : 8,
   "source_file" : "art/libdexfile/dex/dex_file.h"
  },
  {
   "alignment" : 8,
   "is_const" : true,
   "linker_set_key" : "_ZTIKPKj",
   "name" : "const unsigned int *const",
   "referenced_type" : "_ZTIPKj",
   "self_type" : "_ZTIKPKj",
   "size" : 8,
   "source_file" : "art/libdexfile/dex/compact_offset_table.h"
  },
  {
   "alignment" : 1,
   "is_const" : true,
   "linker_set_key" : "_ZTIKb",
   "name" : "const bool",
   "referenced_type" : "_ZTIb",
   "self_type" : "_ZTIKb",
   "size" : 1,
   "source_file" : "system/libbase/include/android-base/logging.h"
  },
  {
   "alignment" : 1,
   "is_const" : true,
   "linker_set_key" : "_ZTIKc",
   "name" : "const char",
   "referenced_type" : "_ZTIc",
   "self_type" : "_ZTIKc",
   "size" : 1,
   "source_file" : "art/libdexfile/dex/dex_file_loader.h"
  },
  {
   "alignment" : 1,
   "is_const" : true,
   "linker_set_key" : "_ZTIKh",
   "name" : "const unsigned char",
   "referenced_type" : "_ZTIh",
   "self_type" : "_ZTIKh",
   "size" : 1,
   "source_file" : "art/libdexfile/dex/art_dex_file_loader.h"
  },
  {
   "alignment" : 4,
   "is_const" : true,
   "linker_set_key" : "_ZTIKi",
   "name" : "const int",
   "referenced_type" : "_ZTIi",
   "self_type" : "_ZTIKi",
   "size" : 4,
   "source_file" : "system/libbase/include/android-base/errno_restorer.h"
  },
  {
   "alignment" : 4,
   "is_const" : true,
   "linker_set_key" : "_ZTIKj",
   "name" : "const unsigned int",
   "referenced_type" : "_ZTIj",
   "self_type" : "_ZTIKj",
   "size" : 4,
   "source_file" : "system/libbase/include/android-base/logging.h"
  },
  {
   "alignment" : 8,
   "is_const" : true,
   "linker_set_key" : "_ZTIKm",
   "name" : "const unsigned long",
   "referenced_type" : "_ZTIm",
   "self_type" : "_ZTIKm",
   "size" : 8,
   "source_file" : "system/libbase/include/android-base/logging.h"
  },
  {
   "alignment" : 2,
   "is_const" : true,
   "linker_set_key" : "_ZTIKt",
   "name" : "const unsigned short",
   "referenced_type" : "_ZTIt",
   "self_type" : "_ZTIKt",
   "size" : 2,
   "source_file" : "system/libbase/include/android-base/logging.h"
  },
  {
   "is_const" : true,
   "linker_set_key" : "_ZTIKv",
   "name" : "const void",
   "referenced_type" : "_ZTIv",
   "self_type" : "_ZTIKv",
   "source_file" : "art/libartbase/base/mem_map.h"
  }
 ],
 "record_types" :
 [
  {
   "alignment" : 1,
   "linker_set_key" : "_ZTIN3art10FreeDeleteE",
   "name" : "art::FreeDelete",
   "referenced_type" : "_ZTIN3art10FreeDeleteE",
   "self_type" : "_ZTIN3art10FreeDeleteE",
   "size" : 1,
   "source_file" : "art/libartbase/base/stl_util.h"
  },
  {
   "alignment" : 8,
   "fields" :
   [
    {
     "access" : "private",
     "field_name" : "handle_",
     "referenced_type" : "_ZTIP10ZipArchive"
    }
   ],
   "linker_set_key" : "_ZTIN3art10ZipArchiveE",
   "name" : "art::ZipArchive",
   "record_kind" : "class",
   "referenced_type" : "_ZTIN3art10ZipArchiveE",
   "self_type" : "_ZTIN3art10ZipArchiveE",
   "size" : 8,
   "source_file" : "art/libartbase/base/zip_archive.h"
  },
  {
   "alignment" : 1,
   "linker_set_key" : "_ZTIN3art11ScopedTraceE",
   "name" : "art::ScopedTrace",
   "record_kind" : "class",
   "referenced_type" : "_ZTIN3art11ScopedTraceE",
   "self_type" : "_ZTIN3art11ScopedTraceE",
   "size" : 1,
   "source_file" : "art/libartbase/base/systrace.h"
  },
  {
   "alignment" : 1,
   "linker_set_key" : "_ZTIN3art11ValueObjectE",
   "name" : "art::ValueObject",
   "record_kind" : "class",
   "referenced_type" : "_ZTIN3art11ValueObjectE",
   "self_type" : "_ZTIN3art11ValueObjectE",
   "size" : 1,
   "source_file" : "art/libartbase/base/value_object.h"
  },
  {
   "alignment" : 8,
   "linker_set_key" : "_ZTIN3art13DexFileLoaderE",
   "name" : "art::DexFileLoader",
   "record_kind" : "class",
   "referenced_type" : "_ZTIN3art13DexFileLoaderE",
   "self_type" : "_ZTIN3art13DexFileLoaderE",
   "size" : 8,
   "source_file" : "art/libdexfile/dex/dex_file_loader.h",
   "vtable_components" :
   [
    {
     "kind" : "offset_to_top"
    },
    {
     "kind" : "rtti",
     "mangled_component_name" : "_ZTIN3art13DexFileLoaderE"
    },
    {
     "kind" : "complete_dtor_pointer",
     "mangled_component_name" : "_ZN3art13DexFileLoaderD1Ev"
    },
    {
     "kind" : "deleting_dtor_pointer",
     "mangled_component_name" : "_ZN3art13DexFileLoaderD0Ev"
    },
    {
     "mangled_component_name" : "_ZNK3art13DexFileLoader20GetMultiDexChecksumsEPKcPNSt3__16vectorIjNS3_9allocatorIjEEEEPNS4_INS3_12basic_stringIcNS3_11char_traitsIcEENS5_IcEEEENS5_ISD_EEEEPSD_iPb"
    },
    {
     "mangled_component_name" : "_ZNK3art13DexFileLoader4OpenEPKhmRKNSt3__112basic_stringIcNS3_11char_traitsIcEENS3_9allocatorIcEEEEjPKNS_10OatDexFileEbbPS9_NS3_10unique_ptrINS_16DexFileContainerENS3_14default_deleteISH_EEEE"
    },
    {
     "mangled_component_name" : "_ZNK3art13DexFileLoader19OpenWithDataSectionEPKhmS2_mRKNSt3__112basic_stringIcNS3_11char_traitsIcEENS3_9allocatorIcEEEEjPKNS_10OatDexFileEbbPS9_"
    },
    {
     "mangled_component_name" : "_ZNK3art13DexFileLoader7OpenAllEPKhmRKNSt3__112basic_stringIcNS3_11char_traitsIcEENS3_9allocatorIcEEEEbbPNS_22DexFileLoaderErrorCodeEPS9_PNS3_6vectorINS3_10unique_ptrIKNS_7DexFileENS3_14default_deleteISI_EEEENS7_ISL_EEEE"
    }
   ]
  },
  {
   "alignment" : 8,
   "fields" :
   [
    {
     "field_name" : "lo",
     "referenced_type" : "_ZTIm"
    },
    {
     "field_name" : "hi",
     "field_offset" : 64,
     "referenced_type" : "_ZTIm"
    }
   ],
   "linker_set_key" : "_ZTIN3art13TwoWordReturnE",
   "name" : "art::TwoWordReturn",
   "referenced_type" : "_ZTIN3art13TwoWordReturnE",
   "self_type" : "_ZTIN3art13TwoWordReturnE",
   "size" : 16,
   "source_file" : "art/libartbase/arch/instruction_set.h"
  },
  {
   "alignment" : 4,
   "base_specifiers" :
   [
    {
     "referenced_type" : "_ZTIN3art7DexFile6HeaderE"
    }
   ],
   "fields" :
   [
    {
     "access" : "private",
     "field_name" : "feature_flags_",
     "field_offset" : 896,
     "referenced_type" : "_ZTIj"
    },
    {
     "access" : "private",
     "field_name" : "debug_info_offsets_pos_",
     "field_offset" : 928,
     "referenced_type" : "_ZTIj"
    },
    {
     "access" : "private",
     "field_name" : "debug_info_offsets_table_offset_",
     "field_offset" : 960,
     "referenced_type" : "_ZTIj"
    },
    {
     "access" : "private",
     "field_name" : "debug_info_base_",
     "field_offset" : 992,
     "referenced_type" : "_ZTIj"
    },
    {
     "access" : "private",
     "field_name" : "owned_data_begin_",
     "field_offset" : 1024,
     "referenced_type" : "_ZTIj"
    },
    {
     "access" : "private",
     "field_name" : "owned_data_end_",
     "field_offset" : 1056,
     "referenced_type" : "_ZTIj"
    }
   ],
   "linker_set_key" : "_ZTIN3art14CompactDexFile6HeaderE",
   "name" : "art::CompactDexFile::Header",
   "record_kind" : "class",
   "referenced_type" : "_ZTIN3art14CompactDexFile6HeaderE",
   "self_type" : "_ZTIN3art14CompactDexFile6HeaderE",
   "size" : 136,
   "source_file" : "art/libdexfile/dex/compact_dex_file.h"
  },
  {
   "alignment" : 2,
   "base_specifiers" :
   [
    {
     "referenced_type" : "_ZTIN3art3dex8CodeItemE"
    }
   ],
   "fields" :
   [
    {
     "access" : "private",
     "field_name" : "fields_",
     "referenced_type" : "_ZTIt"
    },
    {
     "access" : "private",
     "field_name" : "insns_count_and_flags_",
     "field_offset" : 16,
     "referenced_type" : "_ZTIt"
    },
    {
     "access" : "private",
     "field_name" : "insns_",
     "field_offset" : 32,
     "referenced_type" : "_ZTIA1_t"
    }
   ],
   "linker_set_key" : "_ZTIN3art14CompactDexFile8CodeItemE",
   "name" : "art::CompactDexFile::CodeItem",
   "referenced_type" : "_ZTIN3art14CompactDexFile8CodeItemE",
   "self_type" : "_ZTIN3art14CompactDexFile8CodeItemE",
   "size" : 6,
   "source_file" : "art/libdexfile/dex/compact_dex_file.h"
  },
  {
   "alignment" : 8,
   "base_specifiers" :
   [
    {
     "referenced_type" : "_ZTIN3art7DexFileE"
    }
   ],
   "fields" :
   [
    {
     "access" : "private",
     "field_name" : "debug_info_offsets_",
     "field_offset" : 1536,
     "referenced_type" : "_ZTIN3art18CompactOffsetTable8AccessorE"
    }
   ],
   "linker_set_key" : "_ZTIN3art14CompactDexFileE",
   "name" : "art::CompactDexFile",
   "record_kind" : "class",
   "referenced_type" : "_ZTIN3art14CompactDexFileE",
   "self_type" : "_ZTIN3art14CompactDexFileE",
   "size" : 216,
   "source_file" : "art/libdexfile/dex/compact_dex_file.h",
   "vtable_components" :
   [
    {
     "kind" : "offset_to_top"
    },
    {
     "kind" : "rtti",
     "mangled_component_name" : "_ZTIN3art14CompactDexFileE"
    },
    {
     "kind" : "complete_dtor_pointer",
     "mangled_component_name" : "_ZN3art14CompactDexFileD1Ev"
    },
    {
     "kind" : "deleting_dtor_pointer",
     "mangled_component_name" : "_ZN3art14CompactDexFileD0Ev"
    },
    {
     "mangled_component_name" : "_ZNK3art14CompactDexFile12IsMagicValidEv"
    },
    {
     "mangled_component_name" : "_ZNK3art14CompactDexFile14IsVersionValidEv"
    },
    {
     "mangled_component_name" : "_ZNK3art14CompactDexFile22SupportsDefaultMethodsEv"
    },
    {
     "mangled_component_name" : "_ZNK3art14CompactDexFile18GetDequickenedSizeEv"
    },
    {
     "mangled_component_name" : "_ZNK3art14CompactDexFile15GetCodeItemSizeERKNS_3dex8CodeItemE"
    },
    {
     "mangled_component_name" : "_ZNK3art14CompactDexFile17CalculateChecksumEv"
    }
   ]
  },
  {
   "alignment" : 8,
   "fields" :
   [
    {
     "access" : "protected",
     "field_name" : "first_",
     "referenced_type" : "_ZTIN3art15SplitStringIterE"
    },
    {
     "access" : "protected",
     "field_name" : "last_",
     "field_offset" : 256,
     "referenced_type" : "_ZTIN3art15SplitStringIterE"
    }
   ],
   "linker_set_key" : "_ZTIN3art14IterationRangeINS_15SplitStringIterEEE",
   "name" : "art::IterationRange<art::SplitStringIter>",
   "record_kind" : "class",
   "referenced_type" : "_ZTIN3art14IterationRangeINS_15SplitStringIterEEE",
   "self_type" : "_ZTIN3art14IterationRangeINS_15SplitStringIterEEE",
   "size" : 64,
   "source_file" : "art/libartbase/base/iteration_range.h",
   "template_args" : [ "_ZTIN3art15SplitStringIterE" ]
  },
  {
   "alignment" : 8,
   "fields" :
   [
    {
     "access" : "protected",
     "field_name" : "first_",
     "referenced_type" : "_ZTIN3art9CountIterE"
    },
    {
     "access" : "protected",
     "field_name" : "last_",
     "field_offset" : 64,
     "referenced_type" : "_ZTIN3art9CountIterE"
    }
   ],
   "linker_set_key" : "_ZTIN3art14IterationRangeINS_9CountIterEEE",
   "name" : "art::IterationRange<art::CountIter>",
   "record_kind" : "class",
   "referenced_type" : "_ZTIN3art14IterationRangeINS_9CountIterEEE",
   "self_type" : "_ZTIN3art14IterationRangeINS_9CountIterEEE",
   "size" : 16,
   "source_file" : "art/libartbase/base/iteration_range.h",
   "template_args" : [ "_ZTIN3art9CountIterE" ]
  },
  {
   "alignment" : 8,
   "base_specifiers" :
   [
    {
     "referenced_type" : "_ZTINSt3__18iteratorINS_20forward_iterator_tagENS_17basic_string_viewIcNS_11char_traitsIcEEEElPS5_RS5_EE"
    }
   ],
   "fields" :
   [
    {
     "access" : "private",
     "field_name" : "cur_index_",
     "referenced_type" : "_ZTIm"
    },
    {
     "access" : "private",
     "field_name" : "split_on_",
     "field_offset" : 64,
     "referenced_type" : "_ZTIc"
    },
    {
     "access" : "private",
     "field_name" : "sv_",
     "field_offset" : 128,
     "referenced_type" : "_ZTINSt3__117basic_string_viewIcNS_11char_traitsIcEEEE"
    }
   ],
   "linker_set_key" : "_ZTIN3art15SplitStringIterE",
   "name" : "art::SplitStringIter",
   "referenced_type" : "_ZTIN3art15SplitStringIterE",
   "self_type" : "_ZTIN3art15SplitStringIterE",
   "size" : 32,
   "source_file" : "art/libartbase/base/stl_util.h"
  },
  {
   "alignment" : 4,
   "base_specifiers" :
   [
    {
     "referenced_type" : "_ZTIN3art7DexFile6HeaderE"
    }
   ],
   "linker_set_key" : "_ZTIN3art15StandardDexFile6HeaderE",
   "name" : "art::StandardDexFile::Header",
   "record_kind" : "class",
   "referenced_type" : "_ZTIN3art15StandardDexFile6HeaderE",
   "self_type" : "_ZTIN3art15StandardDexFile6HeaderE",
   "size" : 112,
   "source_file" : "art/libdexfile/dex/standard_dex_file.h"
  },
  {
   "alignment" : 4,
   "base_specifiers" :
   [
    {
     "referenced_type" : "_ZTIN3art3dex8CodeItemE"
    }
   ],
   "fields" :
   [
    {
     "access" : "private",
     "field_name" : "registers_size_",
     "referenced_type" : "_ZTIt"
    },
    {
     "access" : "private",
     "field_name" : "ins_size_",
     "field_offset" : 16,
     "referenced_type" : "_ZTIt"
    },
    {
     "access" : "private",
     "field_name" : "outs_size_",
     "field_offset" : 32,
     "referenced_type" : "_ZTIt"
    },
    {
     "access" : "private",
     "field_name" : "tries_size_",
     "field_offset" : 48,
     "referenced_type" : "_ZTIt"
    },
    {
     "access" : "private",
     "field_name" : "debug_info_off_",
     "field_offset" : 64,
     "referenced_type" : "_ZTIj"
    },
    {
     "access" : "private",
     "field_name" : "insns_size_in_code_units_",
     "field_offset" : 96,
     "referenced_type" : "_ZTIj"
    },
    {
     "access" : "private",
     "field_name" : "insns_",
     "field_offset" : 128,
     "referenced_type" : "_ZTIA1_t"
    }
   ],
   "linker_set_key" : "_ZTIN3art15StandardDexFile8CodeItemE",
   "name" : "art::StandardDexFile::CodeItem",
   "referenced_type" : "_ZTIN3art15StandardDexFile8CodeItemE",
   "self_type" : "_ZTIN3art15StandardDexFile8CodeItemE",
   "size" : 20,
   "source_file" : "art/libdexfile/dex/standard_dex_file.h"
  },
  {
   "alignment" : 8,
   "base_specifiers" :
   [
    {
     "referenced_type" : "_ZTIN3art7DexFileE"
    }
   ],
   "linker_set_key" : "_ZTIN3art15StandardDexFileE",
   "name" : "art::StandardDexFile",
   "record_kind" : "class",
   "referenced_type" : "_ZTIN3art15StandardDexFileE",
   "self_type" : "_ZTIN3art15StandardDexFileE",
   "size" : 192,
   "source_file" : "art/libdexfile/dex/standard_dex_file.h",
   "vtable_components" :
   [
    {
     "kind" : "offset_to_top"
    },
    {
     "kind" : "rtti",
     "mangled_component_name" : "_ZTIN3art15StandardDexFileE"
    },
    {
     "kind" : "complete_dtor_pointer",
     "mangled_component_name" : "_ZN3art15StandardDexFileD1Ev"
    },
    {
     "kind" : "deleting_dtor_pointer",
     "mangled_component_name" : "_ZN3art15StandardDexFileD0Ev"
    },
    {
     "mangled_component_name" : "_ZNK3art15StandardDexFile12IsMagicValidEv"
    },
    {
     "mangled_component_name" : "_ZNK3art15StandardDexFile14IsVersionValidEv"
    },
    {
     "mangled_component_name" : "_ZNK3art15StandardDexFile22SupportsDefaultMethodsEv"
    },
    {
     "mangled_component_name" : "_ZNK3art15StandardDexFile18GetDequickenedSizeEv"
    },
    {
     "mangled_component_name" : "_ZNK3art15StandardDexFile15GetCodeItemSizeERKNS_3dex8CodeItemE"
    },
    {
     "mangled_component_name" : "_ZNK3art7DexFile17CalculateChecksumEv"
    }
   ]
  },
  {
   "alignment" : 8,
   "base_specifiers" :
   [
    {
     "referenced_type" : "_ZTIN3art13DexFileLoaderE"
    }
   ],
   "linker_set_key" : "_ZTIN3art16ArtDexFileLoaderE",
   "name" : "art::ArtDexFileLoader",
   "record_kind" : "class",
   "referenced_type" : "_ZTIN3art16ArtDexFileLoaderE",
   "self_type" : "_ZTIN3art16ArtDexFileLoaderE",
   "size" : 8,
   "source_file" : "art/libdexfile/dex/art_dex_file_loader.h",
   "vtable_components" :
   [
    {
     "kind" : "offset_to_top"
    },
    {
     "kind" : "rtti",
     "mangled_component_name" : "_ZTIN3art16ArtDexFileLoaderE"
    },
    {
     "kind" : "complete_dtor_pointer",
     "mangled_component_name" : "_ZN3art16ArtDexFileLoaderD1Ev"
    },
    {
     "kind" : "deleting_dtor_pointer",
     "mangled_component_name" : "_ZN3art16ArtDexFileLoaderD0Ev"
    },
    {
     "mangled_component_name" : "_ZNK3art16ArtDexFileLoader20GetMultiDexChecksumsEPKcPNSt3__16vectorIjNS3_9allocatorIjEEEEPNS4_INS3_12basic_stringIcNS3_11char_traitsIcEENS5_IcEEEENS5_ISD_EEEEPSD_iPb"
    },
    {
     "mangled_component_name" : "_ZNK3art16ArtDexFileLoader4OpenEPKhmRKNSt3__112basic_stringIcNS3_11char_traitsIcEENS3_9allocatorIcEEEEjPKNS_10OatDexFileEbbPS9_NS3_10unique_ptrINS_16DexFileContainerENS3_14default_deleteISH_EEEE"
    },
    {
     "mangled_component_name" : "_ZNK3art13DexFileLoader19OpenWithDataSectionEPKhmS2_mRKNSt3__112basic_stringIcNS3_11char_traitsIcEENS3_9allocatorIcEEEEjPKNS_10OatDexFileEbbPS9_"
    },
    {
     "mangled_component_name" : "_ZNK3art13DexFileLoader7OpenAllEPKhmRKNSt3__112basic_stringIcNS3_11char_traitsIcEENS3_9allocatorIcEEEEbbPNS_22DexFileLoaderErrorCodeEPS9_PNS3_6vectorINS3_10unique_ptrIKNS_7DexFileENS3_14default_deleteISI_EEEENS7_ISL_EEEE"
    }
   ]
  },
  {
   "alignment" : 8,
   "linker_set_key" : "_ZTIN3art16DexFileContainerE",
   "name" : "art::DexFileContainer",
   "record_kind" : "class",
   "referenced_type" : "_ZTIN3art16DexFileContainerE",
   "self_type" : "_ZTIN3art16DexFileContainerE",
   "size" : 8,
   "source_file" : "art/libdexfile/dex/dex_file.h",
   "vtable_components" :
   [
    {
     "kind" : "offset_to_top"
    },
    {
     "kind" : "rtti",
     "mangled_component_name" : "_ZTIN3art16DexFileContainerE"
    },
    {
     "kind" : "complete_dtor_pointer",
     "mangled_component_name" : "_ZN3art16DexFileContainerD1Ev"
    },
    {
     "kind" : "deleting_dtor_pointer",
     "mangled_component_name" : "_ZN3art16DexFileContainerD0Ev"
    },
    {
     "is_pure" : true,
     "mangled_component_name" : "_ZN3art16DexFileContainer14GetPermissionsEv"
    },
    {
     "is_pure" : true,
     "mangled_component_name" : "_ZN3art16DexFileContainer10IsReadOnlyEv"
    },
    {
     "is_pure" : true,
     "mangled_component_name" : "_ZN3art16DexFileContainer11EnableWriteEv"
    },
    {
     "is_pure" : true,
     "mangled_component_name" : "_ZN3art16DexFileContainer12DisableWriteEv"
    }
   ]
  },
  {
   "alignment" : 8,
   "fields" :
   [
    {
     "access" : "private",
     "field_name" : "table_",
     "referenced_type" : "_ZTIKPKj"
    },
    {
     "access" : "private",
     "field_name" : "minimum_offset_",
     "field_offset" : 64,
     "referenced_type" : "_ZTIKj"
    },
    {
     "access" : "private",
     "field_name" : "data_begin_",
     "field_offset" : 128,
     "referenced_type" : "_ZTIKPKh"
    }
   ],
   "linker_set_key" : "_ZTIN3art18CompactOffsetTable8AccessorE",
   "name" : "art::CompactOffsetTable::Accessor",
   "record_kind" : "class",
   "referenced_type" : "_ZTIN3art18CompactOffsetTable8AccessorE",
   "self_type" : "_ZTIN3art18CompactOffsetTable8AccessorE",
   "size" : 24,
   "source_file" : "art/libdexfile/dex/compact_offset_table.h"
  },
  {
   "alignment" : 1,
   "linker_set_key" : "_ZTIN3art18CompactOffsetTableE",
   "name" : "art::CompactOffsetTable",
   "record_kind" : "class",
   "referenced_type" : "_ZTIN3art18CompactOffsetTableE",
   "self_type" : "_ZTIN3art18CompactOffsetTableE",
   "size" : 1,
   "source_file" : "art/libdexfile/dex/compact_offset_table.h"
  },
  {
   "alignment" : 8,
   "fields" :
   [
    {
     "access" : "private",
     "field_name" : "buffer_",
     "referenced_type" : "_ZTINSt3__119basic_ostringstreamIcNS_11char_traitsIcEENS_9allocatorIcEEEE"
    }
   ],
   "linker_set_key" : "_ZTIN3art18ScopedTraceNoStart24ScopedTraceMessageHelperE",
   "name" : "art::ScopedTraceNoStart::ScopedTraceMessageHelper",
   "record_kind" : "class",
   "referenced_type" : "_ZTIN3art18ScopedTraceNoStart24ScopedTraceMessageHelperE",
   "self_type" : "_ZTIN3art18ScopedTraceNoStart24ScopedTraceMessageHelperE",
   "size" : 264,
   "source_file" : "art/libartbase/base/systrace.h"
  },
  {
   "alignment" : 1,
   "linker_set_key" : "_ZTIN3art18ScopedTraceNoStartE",
   "name" : "art::ScopedTraceNoStart",
   "record_kind" : "class",
   "referenced_type" : "_ZTIN3art18ScopedTraceNoStartE",
   "self_type" : "_ZTIN3art18ScopedTraceNoStartE",
   "size" : 1,
   "source_file" : "art/libartbase/base/systrace.h"
  },
  {
   "alignment" : 8,
   "fields" :
   [
    {
     "access" : "private",
     "field_name" : "dex_file_",
     "referenced_type" : "_ZTIRKN3art7DexFileE"
    },
    {
     "access" : "private",
     "field_name" : "type_list_",
     "field_offset" : 64,
     "referenced_type" : "_ZTIPKN3art3dex8TypeListE"
    },
    {
     "access" : "private",
     "field_name" : "size_",
     "field_offset" : 128,
     "referenced_type" : "_ZTIj"
    },
    {
     "access" : "private",
     "field_name" : "pos_",
     "field_offset" : 160,
     "referenced_type" : "_ZTIj"
    }
   ],
   "linker_set_key" : "_ZTIN3art24DexFileParameterIteratorE",
   "name" : "art::DexFileParameterIterator",
   "record_kind" : "class",
   "referenced_type" : "_ZTIN3art24DexFileParameterIteratorE",
   "self_type" : "_ZTIN3art24DexFileParameterIteratorE",
   "size" : 24,
   "source_file" : "art/libdexfile/dex/dex_file.h"
  },
  {
   "alignment" : 8,
   "fields" :
   [
    {
     "access" : "protected",
     "field_name" : "dex_file_",
     "referenced_type" : "_ZTIRKN3art7DexFileE"
    },
    {
     "access" : "protected",
     "field_name" : "array_size_",
     "field_offset" : 64,
     "referenced_type" : "_ZTIm"
    },
    {
     "access" : "protected",
     "field_name" : "pos_",
     "field_offset" : 128,
     "referenced_type" : "_ZTIm"
    },
    {
     "access" : "protected",
     "field_name" : "ptr_",
     "field_offset" : 192,
     "referenced_type" : "_ZTIPKh"
    },
    {
     "access" : "protected",
     "field_name" : "type_",
     "field_offset" : 256,
     "referenced_type" : "_ZTIN3art25EncodedArrayValueIterator9ValueTypeE"
    },
    {
     "access" : "protected",
     "field_name" : "jval_",
     "field_offset" : 320,
     "referenced_type" : "_ZTI6jvalue"
    }
   ],
   "linker_set_key" : "_ZTIN3art25EncodedArrayValueIteratorE",
   "name" : "art::EncodedArrayValueIterator",
   "record_kind" : "class",
   "referenced_type" : "_ZTIN3art25EncodedArrayValueIteratorE",
   "self_type" : "_ZTIN3art25EncodedArrayValueIteratorE",
   "size" : 48,
   "source_file" : "art/libdexfile/dex/dex_file.h"
  },
  {
   "alignment" : 8,
   "base_specifiers" :
   [
    {
     "referenced_type" : "_ZTIN3art25EncodedArrayValueIteratorE"
    }
   ],
   "linker_set_key" : "_ZTIN3art26CallSiteArrayValueIteratorE",
   "name" : "art::CallSiteArrayValueIterator",
   "record_kind" : "class",
   "referenced_type" : "_ZTIN3art26CallSiteArrayValueIteratorE",
   "self_type" : "_ZTIN3art26CallSiteArrayValueIteratorE",
   "size" : 48,
   "source_file" : "art/libdexfile/dex/dex_file.h"
  },
  {
   "alignment" : 1,
   "linker_set_key" : "_ZTIN3art2OSE",
   "name" : "art::OS",
   "record_kind" : "class",
   "referenced_type" : "_ZTIN3art2OSE",
   "self_type" : "_ZTIN3art2OSE",
   "size" : 1,
   "source_file" : "art/libartbase/base/os.h"
  },
  {
   "alignment" : 8,
   "base_specifiers" :
   [
    {
     "referenced_type" : "_ZTIN3art25EncodedArrayValueIteratorE"
    }
   ],
   "linker_set_key" : "_ZTIN3art31EncodedStaticFieldValueIteratorE",
   "name" : "art::EncodedStaticFieldValueIterator",
   "record_kind" : "class",
   "referenced_type" : "_ZTIN3art31EncodedStaticFieldValueIteratorE",
   "self_type" : "_ZTIN3art31EncodedStaticFieldValueIteratorE",
   "size" : 48,
   "source_file" : "art/libdexfile/dex/dex_file.h"
  },
  {
   "alignment" : 2,
   "base_specifiers" :
   [
    {
     "referenced_type" : "_ZTIN3art3dex8DexIndexItEE"
    }
   ],
   "linker_set_key" : "_ZTIN3art3dex10ProtoIndexE",
   "name" : "art::dex::ProtoIndex",
   "record_kind" : "class",
   "referenced_type" : "_ZTIN3art3dex10ProtoIndexE",
   "self_type" : "_ZTIN3art3dex10ProtoIndexE",
   "size" : 2,
   "source_file" : "art/libdexfile/dex/dex_file_types.h"
  },
  {
   "alignment" : 4,
   "base_specifiers" :
   [
    {
     "referenced_type" : "_ZTIN3art3dex8DexIndexIjEE"
    }
   ],
   "linker_set_key" : "_ZTIN3art3dex11StringIndexE",
   "name" : "art::dex::StringIndex",
   "record_kind" : "class",
   "referenced_type" : "_ZTIN3art3dex11StringIndexE",
   "self_type" : "_ZTIN3art3dex11StringIndexE",
   "size" : 4,
   "source_file" : "art/libdexfile/dex/dex_file_types.h"
  },
  {
   "alignment" : 1,
   "fields" :
   [
    {
     "field_name" : "visibility_",
     "referenced_type" : "_ZTIh"
    },
    {
     "field_name" : "annotation_",
     "field_offset" : 8,
     "referenced_type" : "_ZTIA1_h"
    }
   ],
   "linker_set_key" : "_ZTIN3art3dex14AnnotationItemE",
   "name" : "art::dex::AnnotationItem",
   "referenced_type" : "_ZTIN3art3dex14AnnotationItemE",
   "self_type" : "_ZTIN3art3dex14AnnotationItemE",
   "size" : 2,
   "source_file" : "art/libdexfile/dex/dex_file_structs.h"
  },
  {
   "alignment" : 4,
   "fields" :
   [
    {
     "field_name" : "data_off_",
     "referenced_type" : "_ZTIj"
    }
   ],
   "linker_set_key" : "_ZTIN3art3dex14CallSiteIdItemE",
   "name" : "art::dex::CallSiteIdItem",
   "referenced_type" : "_ZTIN3art3dex14CallSiteIdItemE",
   "self_type" : "_ZTIN3art3dex14CallSiteIdItemE",
   "size" : 4,
   "source_file" : "art/libdexfile/dex/dex_file_structs.h"
  },
  {
   "alignment" : 2,
   "fields" :
   [
    {
     "field_name" : "method_handle_type_",
     "referenced_type" : "_ZTIt"
    },
    {
     "field_name" : "reserved1_",
     "field_offset" : 16,
     "referenced_type" : "_ZTIt"
    },
    {
     "field_name" : "field_or_method_idx_",
     "field_offset" : 32,
     "referenced_type" : "_ZTIt"
    },
    {
     "field_name" : "reserved2_",
     "field_offset" : 48,
     "referenced_type" : "_ZTIt"
    }
   ],
   "linker_set_key" : "_ZTIN3art3dex16MethodHandleItemE",
   "name" : "art::dex::MethodHandleItem",
   "referenced_type" : "_ZTIN3art3dex16MethodHandleItemE",
   "self_type" : "_ZTIN3art3dex16MethodHandleItemE",
   "size" : 8,
   "source_file" : "art/libdexfile/dex/dex_file_structs.h"
  },
  {
   "alignment" : 4,
   "fields" :
   [
    {
     "field_name" : "size_",
     "referenced_type" : "_ZTIj"
    },
    {
     "field_name" : "entries_",
     "field_offset" : 32,
     "referenced_type" : "_ZTIA1_j"
    }
   ],
   "linker_set_key" : "_ZTIN3art3dex17AnnotationSetItemE",
   "name" : "art::dex::AnnotationSetItem",
   "referenced_type" : "_ZTIN3art3dex17AnnotationSetItemE",
   "self_type" : "_ZTIN3art3dex17AnnotationSetItemE",
   "size" : 8,
   "source_file" : "art/libdexfile/dex/dex_file_structs.h"
  },
  {
   "alignment" : 4,
   "fields" :
   [
    {
     "field_name" : "size_",
     "referenced_type" : "_ZTIj"
    },
    {
     "field_name" : "flags_offset_",
     "field_offset" : 32,
     "referenced_type" : "_ZTIA1_j"
    }
   ],
   "linker_set_key" : "_ZTIN3art3dex18HiddenapiClassDataE",
   "name" : "art::dex::HiddenapiClassData",
   "referenced_type" : "_ZTIN3art3dex18HiddenapiClassDataE",
   "self_type" : "_ZTIN3art3dex18HiddenapiClassDataE",
   "size" : 8,
   "source_file" : "art/libdexfile/dex/dex_file_structs.h"
  },
  {
   "alignment" : 4,
   "fields" :
   [
    {
     "field_name" : "annotations_off_",
     "referenced_type" : "_ZTIj"
    }
   ],
   "linker_set_key" : "_ZTIN3art3dex20AnnotationSetRefItemE",
   "name" : "art::dex::AnnotationSetRefItem",
   "referenced_type" : "_ZTIN3art3dex20AnnotationSetRefItemE",
   "self_type" : "_ZTIN3art3dex20AnnotationSetRefItemE",
   "size" : 4,
   "source_file" : "art/libdexfile/dex/dex_file_structs.h"
  },
  {
   "alignment" : 4,
   "fields" :
   [
    {
     "field_name" : "size_",
     "referenced_type" : "_ZTIj"
    },
    {
     "field_name" : "list_",
     "field_offset" : 32,
     "referenced_type" : "_ZTIA1_N3art3dex20AnnotationSetRefItemE"
    }
   ],
   "linker_set_key" : "_ZTIN3art3dex20AnnotationSetRefListE",
   "name" : "art::dex::AnnotationSetRefList",
   "referenced_type" : "_ZTIN3art3dex20AnnotationSetRefListE",
   "self_type" : "_ZTIN3art3dex20AnnotationSetRefListE",
   "size" : 8,
   "source_file" : "art/libdexfile/dex/dex_file_structs.h"
  },
  {
   "alignment" : 4,
   "fields" :
   [
    {
     "field_name" : "field_idx_",
     "referenced_type" : "_ZTIj"
    },
    {
     "field_name" : "annotations_off_",
     "field_offset" : 32,
     "referenced_type" : "_ZTIj"
    }
   ],
   "linker_set_key" : "_ZTIN3art3dex20FieldAnnotationsItemE",
   "name" : "art::dex::FieldAnnotationsItem",
   "referenced_type" : "_ZTIN3art3dex20FieldAnnotationsItemE",
   "self_type" : "_ZTIN3art3dex20FieldAnnotationsItemE",
   "size" : 8,
   "source_file" : "art/libdexfile/dex/dex_file_structs.h"
  },
  {
   "alignment" : 4,
   "fields" :
   [
    {
     "field_name" : "method_idx_",
     "referenced_type" : "_ZTIj"
    },
    {
     "field_name" : "annotations_off_",
     "field_offset" : 32,
     "referenced_type" : "_ZTIj"
    }
   ],
   "linker_set_key" : "_ZTIN3art3dex21MethodAnnotationsItemE",
   "name" : "art::dex::MethodAnnotationsItem",
   "referenced_type" : "_ZTIN3art3dex21MethodAnnotationsItemE",
   "self_type" : "_ZTIN3art3dex21MethodAnnotationsItemE",
   "size" : 8,
   "source_file" : "art/libdexfile/dex/dex_file_structs.h"
  },
  {
   "alignment" : 4,
   "fields" :
   [
    {
     "field_name" : "class_annotations_off_",
     "referenced_type" : "_ZTIj"
    },
    {
     "field_name" : "fields_size_",
     "field_offset" : 32,
     "referenced_type" : "_ZTIj"
    },
    {
     "field_name" : "methods_size_",
     "field_offset" : 64,
     "referenced_type" : "_ZTIj"
    },
    {
     "field_name" : "parameters_size_",
     "field_offset" : 96,
     "referenced_type" : "_ZTIj"
    }
   ],
   "linker_set_key" : "_ZTIN3art3dex24AnnotationsDirectoryItemE",
   "name" : "art::dex::AnnotationsDirectoryItem",
   "referenced_type" : "_ZTIN3art3dex24AnnotationsDirectoryItemE",
   "self_type" : "_ZTIN3art3dex24AnnotationsDirectoryItemE",
   "size" : 16,
   "source_file" : "art/libdexfile/dex/dex_file_structs.h"
  },
  {
   "alignment" : 4,
   "fields" :
   [
    {
     "field_name" : "method_idx_",
     "referenced_type" : "_ZTIj"
    },
    {
     "field_name" : "annotations_off_",
     "field_offset" : 32,
     "referenced_type" : "_ZTIj"
    }
   ],
   "linker_set_key" : "_ZTIN3art3dex24ParameterAnnotationsItemE",
   "name" : "art::dex::ParameterAnnotationsItem",
   "referenced_type" : "_ZTIN3art3dex24ParameterAnnotationsItemE",
   "self_type" : "_ZTIN3art3dex24ParameterAnnotationsItemE",
   "size" : 8,
   "source_file" : "art/libdexfile/dex/dex_file_structs.h"
  },
  {
   "alignment" : 4,
   "fields" :
   [
    {
     "field_name" : "descriptor_idx_",
     "referenced_type" : "_ZTIN3art3dex11StringIndexE"
    }
   ],
   "linker_set_key" : "_ZTIN3art3dex6TypeIdE",
   "name" : "art::dex::TypeId",
   "referenced_type" : "_ZTIN3art3dex6TypeIdE",
   "self_type" : "_ZTIN3art3dex6TypeIdE",
   "size" : 4,
   "source_file" : "art/libdexfile/dex/dex_file_structs.h"
  },
  {
   "alignment" : 4,
   "fields" :
   [
    {
     "field_name" : "class_idx_",
     "referenced_type" : "_ZTIN3art3dex9TypeIndexE"
    },
    {
     "field_name" : "type_idx_",
     "field_offset" : 16,
     "referenced_type" : "_ZTIN3art3dex9TypeIndexE"
    },
    {
     "field_name" : "name_idx_",
     "field_offset" : 32,
     "referenced_type" : "_ZTIN3art3dex11StringIndexE"
    }
   ],
   "linker_set_key" : "_ZTIN3art3dex7FieldIdE",
   "name" : "art::dex::FieldId",
   "referenced_type" : "_ZTIN3art3dex7FieldIdE",
   "self_type" : "_ZTIN3art3dex7FieldIdE",
   "size" : 8,
   "source_file" : "art/libdexfile/dex/dex_file_structs.h"
  },
  {
   "alignment" : 4,
   "fields" :
   [
    {
     "field_name" : "type_",
     "referenced_type" : "_ZTIt"
    },
    {
     "field_name" : "unused_",
     "field_offset" : 16,
     "referenced_type" : "_ZTIt"
    },
    {
     "field_name" : "size_",
     "field_offset" : 32,
     "referenced_type" : "_ZTIj"
    },
    {
     "field_name" : "offset_",
     "field_offset" : 64,
     "referenced_type" : "_ZTIj"
    }
   ],
   "linker_set_key" : "_ZTIN3art3dex7MapItemE",
   "name" : "art::dex::MapItem",
   "referenced_type" : "_ZTIN3art3dex7MapItemE",
   "self_type" : "_ZTIN3art3dex7MapItemE",
   "size" : 12,
   "source_file" : "art/libdexfile/dex/dex_file_structs.h"
  },
  {
   "alignment" : 4,
   "fields" :
   [
    {
     "field_name" : "size_",
     "referenced_type" : "_ZTIj"
    },
    {
     "field_name" : "list_",
     "field_offset" : 32,
     "referenced_type" : "_ZTIA1_N3art3dex7MapItemE"
    }
   ],
   "linker_set_key" : "_ZTIN3art3dex7MapListE",
   "name" : "art::dex::MapList",
   "referenced_type" : "_ZTIN3art3dex7MapListE",
   "self_type" : "_ZTIN3art3dex7MapListE",
   "size" : 16,
   "source_file" : "art/libdexfile/dex/dex_file_structs.h"
  },
  {
   "alignment" : 4,
   "fields" :
   [
    {
     "field_name" : "shorty_idx_",
     "referenced_type" : "_ZTIN3art3dex11StringIndexE"
    },
    {
     "field_name" : "return_type_idx_",
     "field_offset" : 32,
     "referenced_type" : "_ZTIN3art3dex9TypeIndexE"
    },
    {
     "field_name" : "pad_",
     "field_offset" : 48,
     "referenced_type" : "_ZTIt"
    },
    {
     "field_name" : "parameters_off_",
     "field_offset" : 64,
     "referenced_type" : "_ZTIj"
    }
   ],
   "linker_set_key" : "_ZTIN3art3dex7ProtoIdE",
   "name" : "art::dex::ProtoId",
   "referenced_type" : "_ZTIN3art3dex7ProtoIdE",
   "self_type" : "_ZTIN3art3dex7ProtoIdE",
   "size" : 12,
   "source_file" : "art/libdexfile/dex/dex_file_structs.h"
  },
  {
   "alignment" : 4,
   "fields" :
   [
    {
     "field_name" : "start_addr_",
     "referenced_type" : "_ZTIj"
    },
    {
     "field_name" : "insn_count_",
     "field_offset" : 32,
     "referenced_type" : "_ZTIt"
    },
    {
     "field_name" : "handler_off_",
     "field_offset" : 48,
     "referenced_type" : "_ZTIt"
    }
   ],
   "linker_set_key" : "_ZTIN3art3dex7TryItemE",
   "name" : "art::dex::TryItem",
   "referenced_type" : "_ZTIN3art3dex7TryItemE",
   "self_type" : "_ZTIN3art3dex7TryItemE",
   "size" : 8,
   "source_file" : "art/libdexfile/dex/dex_file_structs.h"
  },
  {
   "alignment" : 4,
   "fields" :
   [
    {
     "field_name" : "class_idx_",
     "referenced_type" : "_ZTIN3art3dex9TypeIndexE"
    },
    {
     "field_name" : "pad1_",
     "field_offset" : 16,
     "referenced_type" : "_ZTIt"
    },
    {
     "field_name" : "access_flags_",
     "field_offset" : 32,
     "referenced_type" : "_ZTIj"
    },
    {
     "field_name" : "superclass_idx_",
     "field_offset" : 64,
     "referenced_type" : "_ZTIN3art3dex9TypeIndexE"
    },
    {
     "field_name" : "pad2_",
     "field_offset" : 80,
     "referenced_type" : "_ZTIt"
    },
    {
     "field_name" : "interfaces_off_",
     "field_offset" : 96,
     "referenced_type" : "_ZTIj"
    },
    {
     "field_name" : "source_file_idx_",
     "field_offset" : 128,
     "referenced_type" : "_ZTIN3art3dex11StringIndexE"
    },
    {
     "field_name" : "annotations_off_",
     "field_offset" : 160,
     "referenced_type" : "_ZTIj"
    },
    {
     "field_name" : "class_data_off_",
     "field_offset" : 192,
     "referenced_type" : "_ZTIj"
    },
    {
     "field_name" : "static_values_off_",
     "field_offset" : 224,
     "referenced_type" : "_ZTIj"
    }
   ],
   "linker_set_key" : "_ZTIN3art3dex8ClassDefE",
   "name" : "art::dex::ClassDef",
   "referenced_type" : "_ZTIN3art3dex8ClassDefE",
   "self_type" : "_ZTIN3art3dex8ClassDefE",
   "size" : 32,
   "source_file" : "art/libdexfile/dex/dex_file_structs.h"
  },
  {
   "alignment" : 1,
   "linker_set_key" : "_ZTIN3art3dex8CodeItemE",
   "name" : "art::dex::CodeItem",
   "referenced_type" : "_ZTIN3art3dex8CodeItemE",
   "self_type" : "_ZTIN3art3dex8CodeItemE",
   "size" : 1,
   "source_file" : "art/libdexfile/dex/dex_file_structs.h"
  },
  {
   "alignment" : 4,
   "fields" :
   [
    {
     "field_name" : "index_",
     "referenced_type" : "_ZTIj"
    }
   ],
   "linker_set_key" : "_ZTIN3art3dex8DexIndexIjEE",
   "name" : "art::dex::DexIndex<unsigned int>",
   "record_kind" : "class",
   "referenced_type" : "_ZTIN3art3dex8DexIndexIjEE",
   "self_type" : "_ZTIN3art3dex8DexIndexIjEE",
   "size" : 4,
   "source_file" : "art/libdexfile/dex/dex_file_types.h",
   "template_args" : [ "_ZTIj" ]
  },
  {
   "alignment" : 2,
   "fields" :
   [
    {
     "field_name" : "index_",
     "referenced_type" : "_ZTIt"
    }
   ],
   "linker_set_key" : "_ZTIN3art3dex8DexIndexItEE",
   "name" : "art::dex::DexIndex<unsigned short>",
   "record_kind" : "class",
   "referenced_type" : "_ZTIN3art3dex8DexIndexItEE",
   "self_type" : "_ZTIN3art3dex8DexIndexItEE",
   "size" : 2,
   "source_file" : "art/libdexfile/dex/dex_file_types.h",
   "template_args" : [ "_ZTIt" ]
  },
  {
   "alignment" : 4,
   "fields" :
   [
    {
     "field_name" : "class_idx_",
     "referenced_type" : "_ZTIN3art3dex9TypeIndexE"
    },
    {
     "field_name" : "proto_idx_",
     "field_offset" : 16,
     "referenced_type" : "_ZTIN3art3dex10ProtoIndexE"
    },
    {
     "field_name" : "name_idx_",
     "field_offset" : 32,
     "referenced_type" : "_ZTIN3art3dex11StringIndexE"
    }
   ],
   "linker_set_key" : "_ZTIN3art3dex8MethodIdE",
   "name" : "art::dex::MethodId",
   "referenced_type" : "_ZTIN3art3dex8MethodIdE",
   "self_type" : "_ZTIN3art3dex8MethodIdE",
   "size" : 8,
   "source_file" : "art/libdexfile/dex/dex_file_structs.h"
  },
  {
   "alignment" : 4,
   "fields" :
   [
    {
     "field_name" : "string_data_off_",
     "referenced_type" : "_ZTIj"
    }
   ],
   "linker_set_key" : "_ZTIN3art3dex8StringIdE",
   "name" : "art::dex::StringId",
   "referenced_type" : "_ZTIN3art3dex8StringIdE",
   "self_type" : "_ZTIN3art3dex8StringIdE",
   "size" : 4,
   "source_file" : "art/libdexfile/dex/dex_file_structs.h"
  },
  {
   "alignment" : 2,
   "fields" :
   [
    {
     "field_name" : "type_idx_",
     "referenced_type" : "_ZTIN3art3dex9TypeIndexE"
    }
   ],
   "linker_set_key" : "_ZTIN3art3dex8TypeItemE",
   "name" : "art::dex::TypeItem",
   "referenced_type" : "_ZTIN3art3dex8TypeItemE",
   "self_type" : "_ZTIN3art3dex8TypeItemE",
   "size" : 2,
   "source_file" : "art/libdexfile/dex/dex_file_structs.h"
  },
  {
   "alignment" : 4,
   "fields" :
   [
    {
     "access" : "private",
     "field_name" : "size_",
     "referenced_type" : "_ZTIj"
    },
    {
     "access" : "private",
     "field_name" : "list_",
     "field_offset" : 32,
     "referenced_type" : "_ZTIA1_N3art3dex8TypeItemE"
    }
   ],
   "linker_set_key" : "_ZTIN3art3dex8TypeListE",
   "name" : "art::dex::TypeList",
   "record_kind" : "class",
   "referenced_type" : "_ZTIN3art3dex8TypeListE",
   "self_type" : "_ZTIN3art3dex8TypeListE",
   "size" : 8,
   "source_file" : "art/libdexfile/dex/dex_file_structs.h"
  },
  {
   "alignment" : 2,
   "base_specifiers" :
   [
    {
     "referenced_type" : "_ZTIN3art3dex8DexIndexItEE"
    }
   ],
   "linker_set_key" : "_ZTIN3art3dex9TypeIndexE",
   "name" : "art::dex::TypeIndex",
   "record_kind" : "class",
   "referenced_type" : "_ZTIN3art3dex9TypeIndexE",
   "self_type" : "_ZTIN3art3dex9TypeIndexE",
   "size" : 2,
   "source_file" : "art/libdexfile/dex/dex_file_types.h"
  },
  {
   "alignment" : 8,
   "fields" :
   [
    {
     "access" : "private",
     "field_name" : "name_",
     "referenced_type" : "_ZTINSt3__112basic_stringIcNS_11char_traitsIcEENS_9allocatorIcEEEE"
    },
    {
     "access" : "private",
     "field_name" : "begin_",
     "field_offset" : 192,
     "referenced_type" : "_ZTIPh"
    },
    {
     "access" : "private",
     "field_name" : "size_",
     "field_offset" : 256,
     "referenced_type" : "_ZTIm"
    },
    {
     "access" : "private",
     "field_name" : "base_begin_",
     "field_offset" : 320,
     "referenced_type" : "_ZTIPv"
    },
    {
     "access" : "private",
     "field_name" : "base_size_",
     "field_offset" : 384,
     "referenced_type" : "_ZTIm"
    },
    {
     "access" : "private",
     "field_name" : "prot_",
     "field_offset" : 448,
     "referenced_type" : "_ZTIi"
    },
    {
     "access" : "private",
     "field_name" : "reuse_",
     "field_offset" : 480,
     "referenced_type" : "_ZTIb"
    },
    {
     "access" : "private",
     "field_name" : "already_unmapped_",
     "field_offset" : 488,
     "referenced_type" : "_ZTIb"
    },
    {
     "access" : "private",
     "field_name" : "redzone_size_",
     "field_offset" : 512,
     "referenced_type" : "_ZTIm"
    }
   ],
   "linker_set_key" : "_ZTIN3art6MemMapE",
   "name" : "art::MemMap",
   "record_kind" : "class",
   "referenced_type" : "_ZTIN3art6MemMapE",
   "self_type" : "_ZTIN3art6MemMapE",
   "size" : 72,
   "source_file" : "art/libartbase/base/mem_map.h"
  },
  {
   "alignment" : 8,
   "fields" :
   [
    {
     "field_name" : "address_",
     "referenced_type" : "_ZTIj"
    },
    {
     "field_name" : "line_",
     "field_offset" : 32,
     "referenced_type" : "_ZTIj"
    },
    {
     "field_name" : "source_file_",
     "field_offset" : 64,
     "referenced_type" : "_ZTIPKc"
    },
    {
     "field_name" : "prologue_end_",
     "field_offset" : 128,
     "referenced_type" : "_ZTIb"
    },
    {
     "field_name" : "epilogue_begin_",
     "field_offset" : 136,
     "referenced_type" : "_ZTIb"
    }
   ],
   "linker_set_key" : "_ZTIN3art7DexFile12PositionInfoE",
   "name" : "art::DexFile::PositionInfo",
   "referenced_type" : "_ZTIN3art7DexFile12PositionInfoE",
   "self_type" : "_ZTIN3art7DexFile12PositionInfoE",
   "size" : 24,
   "source_file" : "art/libdexfile/dex/dex_file.h"
  },
  {
   "alignment" : 4,
   "fields" :
   [
    {
     "field_name" : "magic_",
     "referenced_type" : "_ZTIA8_h"
    },
    {
     "field_name" : "checksum_",
     "field_offset" : 64,
     "referenced_type" : "_ZTIj"
    },
    {
     "field_name" : "signature_",
     "field_offset" : 96,
     "referenced_type" : "_ZTIA20_h"
    },
    {
     "field_name" : "file_size_",
     "field_offset" : 256,
     "referenced_type" : "_ZTIj"
    },
    {
     "field_name" : "header_size_",
     "field_offset" : 288,
     "referenced_type" : "_ZTIj"
    },
    {
     "field_name" : "endian_tag_",
     "field_offset" : 320,
     "referenced_type" : "_ZTIj"
    },
    {
     "field_name" : "link_size_",
     "field_offset" : 352,
     "referenced_type" : "_ZTIj"
    },
    {
     "field_name" : "link_off_",
     "field_offset" : 384,
     "referenced_type" : "_ZTIj"
    },
    {
     "field_name" : "map_off_",
     "field_offset" : 416,
     "referenced_type" : "_ZTIj"
    },
    {
     "field_name" : "string_ids_size_",
     "field_offset" : 448,
     "referenced_type" : "_ZTIj"
    },
    {
     "field_name" : "string_ids_off_",
     "field_offset" : 480,
     "referenced_type" : "_ZTIj"
    },
    {
     "field_name" : "type_ids_size_",
     "field_offset" : 512,
     "referenced_type" : "_ZTIj"
    },
    {
     "field_name" : "type_ids_off_",
     "field_offset" : 544,
     "referenced_type" : "_ZTIj"
    },
    {
     "field_name" : "proto_ids_size_",
     "field_offset" : 576,
     "referenced_type" : "_ZTIj"
    },
    {
     "field_name" : "proto_ids_off_",
     "field_offset" : 608,
     "referenced_type" : "_ZTIj"
    },
    {
     "field_name" : "field_ids_size_",
     "field_offset" : 640,
     "referenced_type" : "_ZTIj"
    },
    {
     "field_name" : "field_ids_off_",
     "field_offset" : 672,
     "referenced_type" : "_ZTIj"
    },
    {
     "field_name" : "method_ids_size_",
     "field_offset" : 704,
     "referenced_type" : "_ZTIj"
    },
    {
     "field_name" : "method_ids_off_",
     "field_offset" : 736,
     "referenced_type" : "_ZTIj"
    },
    {
     "field_name" : "class_defs_size_",
     "field_offset" : 768,
     "referenced_type" : "_ZTIj"
    },
    {
     "field_name" : "class_defs_off_",
     "field_offset" : 800,
     "referenced_type" : "_ZTIj"
    },
    {
     "field_name" : "data_size_",
     "field_offset" : 832,
     "referenced_type" : "_ZTIj"
    },
    {
     "field_name" : "data_off_",
     "field_offset" : 864,
     "referenced_type" : "_ZTIj"
    }
   ],
   "linker_set_key" : "_ZTIN3art7DexFile6HeaderE",
   "name" : "art::DexFile::Header",
   "referenced_type" : "_ZTIN3art7DexFile6HeaderE",
   "self_type" : "_ZTIN3art7DexFile6HeaderE",
   "size" : 112,
   "source_file" : "art/libdexfile/dex/dex_file.h"
  },
  {
   "alignment" : 8,
   "fields" :
   [
    {
     "field_name" : "name_",
     "referenced_type" : "_ZTIPKc"
    },
    {
     "field_name" : "descriptor_",
     "field_offset" : 64,
     "referenced_type" : "_ZTIPKc"
    },
    {
     "field_name" : "signature_",
     "field_offset" : 128,
     "referenced_type" : "_ZTIPKc"
    },
    {
     "field_name" : "start_address_",
     "field_offset" : 192,
     "referenced_type" : "_ZTIj"
    },
    {
     "field_name" : "end_address_",
     "field_offset" : 224,
     "referenced_type" : "_ZTIj"
    },
    {
     "field_name" : "reg_",
     "field_offset" : 256,
     "referenced_type" : "_ZTIt"
    },
    {
     "field_name" : "is_live_",
     "field_offset" : 272,
     "referenced_type" : "_ZTIb"
    }
   ],
   "linker_set_key" : "_ZTIN3art7DexFile9LocalInfoE",
   "name" : "art::DexFile::LocalInfo",
   "referenced_type" : "_ZTIN3art7DexFile9LocalInfoE",
   "self_type" : "_ZTIN3art7DexFile9LocalInfoE",
   "size" : 40,
   "source_file" : "art/libdexfile/dex/dex_file.h"
  },
  {
   "alignment" : 8,
   "fields" :
   [
    {
     "access" : "protected",
     "field_name" : "begin_",
     "field_offset" : 64,
     "referenced_type" : "_ZTIKPKh"
    },
    {
     "access" : "protected",
     "field_name" : "size_",
     "field_offset" : 128,
     "referenced_type" : "_ZTIKm"
    },
    {
     "access" : "protected",
     "field_name" : "data_begin_",
     "field_offset" : 192,
     "referenced_type" : "_ZTIKPKh"
    },
    {
     "access" : "protected",
     "field_name" : "data_size_",
     "field_offset" : 256,
     "referenced_type" : "_ZTIKm"
    },
    {
     "access" : "protected",
     "field_name" : "location_",
     "field_offset" : 320,
     "referenced_type" : "_ZTIKNSt3__112basic_stringIcNS_11char_traitsIcEENS_9allocatorIcEEEE"
    },
    {
     "access" : "protected",
     "field_name" : "location_checksum_",
     "field_offset" : 512,
     "referenced_type" : "_ZTIKj"
    },
    {
     "access" : "protected",
     "field_name" : "header_",
     "field_offset" : 576,
     "referenced_type" : "_ZTIKPKN3art7DexFile6HeaderE"
    },
    {
     "access" : "protected",
     "field_name" : "string_ids_",
     "field_offset" : 640,
     "referenced_type" : "_ZTIKPKN3art3dex8StringIdE"
    },
    {
     "access" : "protected",
     "field_name" : "type_ids_",
     "field_offset" : 704,
     "referenced_type" : "_ZTIKPKN3art3dex6TypeIdE"
    },
    {
     "access" : "protected",
     "field_name" : "field_ids_",
     "field_offset" : 768,
     "referenced_type" : "_ZTIKPKN3art3dex7FieldIdE"
    },
    {
     "access" : "protected",
     "field_name" : "method_ids_",
     "field_offset" : 832,
     "referenced_type" : "_ZTIKPKN3art3dex8MethodIdE"
    },
    {
     "access" : "protected",
     "field_name" : "proto_ids_",
     "field_offset" : 896,
     "referenced_type" : "_ZTIKPKN3art3dex7ProtoIdE"
    },
    {
     "access" : "protected",
     "field_name" : "class_defs_",
     "field_offset" : 960,
     "referenced_type" : "_ZTIKPKN3art3dex8ClassDefE"
    },
    {
     "access" : "protected",
     "field_name" : "method_handles_",
     "field_offset" : 1024,
     "referenced_type" : "_ZTIPKN3art3dex16MethodHandleItemE"
    },
    {
     "access" : "protected",
     "field_name" : "num_method_handles_",
     "field_offset" : 1088,
     "referenced_type" : "_ZTIm"
    },
    {
     "access" : "protected",
     "field_name" : "call_site_ids_",
     "field_offset" : 1152,
     "referenced_type" : "_ZTIPKN3art3dex14CallSiteIdItemE"
    },
    {
     "access" : "protected",
     "field_name" : "num_call_site_ids_",
     "field_offset" : 1216,
     "referenced_type" : "_ZTIm"
    },
    {
     "access" : "protected",
     "field_name" : "hiddenapi_class_data_",
     "field_offset" : 1280,
     "referenced_type" : "_ZTIPKN3art3dex18HiddenapiClassDataE"
    },
    {
     "access" : "protected",
     "field_name" : "oat_dex_file_",
     "field_offset" : 1344,
     "referenced_type" : "_ZTIPKN3art10OatDexFileE"
    },
    {
     "access" : "protected",
     "field_name" : "container_",
     "field_offset" : 1408,
     "referenced_type" : "_ZTINSt3__110unique_ptrIN3art16DexFileContainerENS_14default_deleteIS2_EEEE"
    },
    {
     "access" : "protected",
     "field_name" : "is_compact_dex_",
     "field_offset" : 1472,
     "referenced_type" : "_ZTIKb"
    },
    {
     "access" : "protected",
     "field_name" : "hiddenapi_domain_",
     "field_offset" : 1480,
     "referenced_type" : "_ZTIN3art9hiddenapi6DomainE"
    }
   ],
   "linker_set_key" : "_ZTIN3art7DexFileE",
   "name" : "art::DexFile",
   "record_kind" : "class",
   "referenced_type" : "_ZTIN3art7DexFileE",
   "self_type" : "_ZTIN3art7DexFileE",
   "size" : 192,
   "source_file" : "art/libdexfile/dex/dex_file.h",
   "vtable_components" :
   [
    {
     "kind" : "offset_to_top"
    },
    {
     "kind" : "rtti",
     "mangled_component_name" : "_ZTIN3art7DexFileE"
    },
    {
     "kind" : "complete_dtor_pointer",
     "mangled_component_name" : "_ZN3art7DexFileD1Ev"
    },
    {
     "kind" : "deleting_dtor_pointer",
     "mangled_component_name" : "_ZN3art7DexFileD0Ev"
    },
    {
     "is_pure" : true,
     "mangled_component_name" : "_ZNK3art7DexFile12IsMagicValidEv"
    },
    {
     "is_pure" : true,
     "mangled_component_name" : "_ZNK3art7DexFile14IsVersionValidEv"
    },
    {
     "is_pure" : true,
     "mangled_component_name" : "_ZNK3art7DexFile22SupportsDefaultMethodsEv"
    },
    {
     "is_pure" : true,
     "mangled_component_name" : "_ZNK3art7DexFile18GetDequickenedSizeEv"
    },
    {
     "is_pure" : true,
     "mangled_component_name" : "_ZNK3art7DexFile15GetCodeItemSizeERKNS_3dex8CodeItemE"
    },
    {
     "mangled_component_name" : "_ZNK3art7DexFile17CalculateChecksumEv"
    }
   ]
  },
  {
   "alignment" : 8,
   "fields" :
   [
    {
     "access" : "private",
     "field_name" : "handle_",
     "field_offset" : 64,
     "referenced_type" : "_ZTIP10ZipArchive"
    },
    {
     "access" : "private",
     "field_name" : "zip_entry_",
     "field_offset" : 128,
     "referenced_type" : "_ZTIKP8ZipEntry"
    },
    {
     "access" : "private",
     "field_name" : "entry_name_",
     "field_offset" : 192,
     "referenced_type" : "_ZTIKNSt3__112basic_stringIcNS_11char_traitsIcEENS_9allocatorIcEEEE"
    }
   ],
   "linker_set_key" : "_ZTIN3art8ZipEntryE",
   "name" : "art::ZipEntry",
   "record_kind" : "class",
   "referenced_type" : "_ZTIN3art8ZipEntryE",
   "self_type" : "_ZTIN3art8ZipEntryE",
   "size" : 48,
   "source_file" : "art/libartbase/base/zip_archive.h",
   "vtable_components" :
   [
    {
     "kind" : "offset_to_top"
    },
    {
     "kind" : "rtti",
     "mangled_component_name" : "_ZTIN3art8ZipEntryE"
    },
    {
     "kind" : "complete_dtor_pointer",
     "mangled_component_name" : "_ZN3art8ZipEntryD1Ev"
    },
    {
     "kind" : "deleting_dtor_pointer",
     "mangled_component_name" : "_ZN3art8ZipEntryD0Ev"
    }
   ]
  },
  {
   "alignment" : 8,
   "base_specifiers" :
   [
    {
     "referenced_type" : "_ZTINSt3__18iteratorINS_20forward_iterator_tagEmmmmEE"
    }
   ],
   "fields" :
   [
    {
     "access" : "private",
     "field_name" : "count_",
     "referenced_type" : "_ZTIm"
    }
   ],
   "linker_set_key" : "_ZTIN3art9CountIterE",
   "name" : "art::CountIter",
   "record_kind" : "class",
   "referenced_type" : "_ZTIN3art9CountIterE",
   "self_type" : "_ZTIN3art9CountIterE",
   "size" : 8,
   "source_file" : "art/libartbase/base/stl_util.h"
  },
  {
   "alignment" : 8,
   "fields" :
   [
    {
     "access" : "private",
     "field_name" : "data_",
     "referenced_type" : "_ZTIKNSt3__110unique_ptrIN7android4base14LogMessageDataENS_14default_deleteIS3_EEEE"
    }
   ],
   "linker_set_key" : "_ZTIN7android4base10LogMessageE",
   "name" : "android::base::LogMessage",
   "record_kind" : "class",
   "referenced_type" : "_ZTIN7android4base10LogMessageE",
   "self_type" : "_ZTIN7android4base10LogMessageE",
   "size" : 8,
   "source_file" : "system/libbase/include/android-base/logging.h"
  },
  {
   "alignment" : 4,
   "fields" :
   [
    {
     "access" : "private",
     "field_name" : "default_log_id_",
     "referenced_type" : "_ZTIN7android4base5LogIdE"
    }
   ],
   "linker_set_key" : "_ZTIN7android4base10LogdLoggerE",
   "name" : "android::base::LogdLogger",
   "record_kind" : "class",
   "referenced_type" : "_ZTIN7android4base10LogdLoggerE",
   "self_type" : "_ZTIN7android4base10LogdLoggerE",
   "size" : 4,
   "source_file" : "system/libbase/include/android-base/logging.h"
  },
  {
   "alignment" : 1,
   "linker_set_key" : "_ZTIN7android4base10log_detail12StorageTypesIPKN3art3dex6TypeIdES7_EE",
   "name" : "android::base::log_detail::StorageTypes<const art::dex::TypeId *, const art::dex::TypeId *>",
   "referenced_type" : "_ZTIN7android4base10log_detail12StorageTypesIPKN3art3dex6TypeIdES7_EE",
   "self_type" : "_ZTIN7android4base10log_detail12StorageTypesIPKN3art3dex6TypeIdES7_EE",
   "size" : 1,
   "source_file" : "system/libbase/include/android-base/logging.h",
   "template_args" : [ "_ZTIPKN3art3dex6TypeIdE", "_ZTIPKN3art3dex6TypeIdE" ]
  },
  {
   "alignment" : 1,
   "linker_set_key" : "_ZTIN7android4base10log_detail12StorageTypesIPKN3art3dex7FieldIdES7_EE",
   "name" : "android::base::log_detail::StorageTypes<const art::dex::FieldId *, const art::dex::FieldId *>",
   "referenced_type" : "_ZTIN7android4base10log_detail12StorageTypesIPKN3art3dex7FieldIdES7_EE",
   "self_type" : "_ZTIN7android4base10log_detail12StorageTypesIPKN3art3dex7FieldIdES7_EE",
   "size" : 1,
   "source_file" : "system/libbase/include/android-base/logging.h",
   "template_args" : [ "_ZTIPKN3art3dex7FieldIdE", "_ZTIPKN3art3dex7FieldIdE" ]
  },
  {
   "alignment" : 1,
   "linker_set_key" : "_ZTIN7android4base10log_detail12StorageTypesIPKN3art3dex7ProtoIdES7_EE",
   "name" : "android::base::log_detail::StorageTypes<const art::dex::ProtoId *, const art::dex::ProtoId *>",
   "referenced_type" : "_ZTIN7android4base10log_detail12StorageTypesIPKN3art3dex7ProtoIdES7_EE",
   "self_type" : "_ZTIN7android4base10log_detail12StorageTypesIPKN3art3dex7ProtoIdES7_EE",
   "size" : 1,
   "source_file" : "system/libbase/include/android-base/logging.h",
   "template_args" : [ "_ZTIPKN3art3dex7ProtoIdE", "_ZTIPKN3art3dex7ProtoIdE" ]
  },
  {
   "alignment" : 1,
   "linker_set_key" : "_ZTIN7android4base10log_detail12StorageTypesIPKN3art3dex8ClassDefES7_EE",
   "name" : "android::base::log_detail::StorageTypes<const art::dex::ClassDef *, const art::dex::ClassDef *>",
   "referenced_type" : "_ZTIN7android4base10log_detail12StorageTypesIPKN3art3dex8ClassDefES7_EE",
   "self_type" : "_ZTIN7android4base10log_detail12StorageTypesIPKN3art3dex8ClassDefES7_EE",
   "size" : 1,
   "source_file" : "system/libbase/include/android-base/logging.h",
   "template_args" : [ "_ZTIPKN3art3dex8ClassDefE", "_ZTIPKN3art3dex8ClassDefE" ]
  },
  {
   "alignment" : 1,
   "linker_set_key" : "_ZTIN7android4base10log_detail12StorageTypesIPKN3art3dex8MethodIdES7_EE",
   "name" : "android::base::log_detail::StorageTypes<const art::dex::MethodId *, const art::dex::MethodId *>",
   "referenced_type" : "_ZTIN7android4base10log_detail12StorageTypesIPKN3art3dex8MethodIdES7_EE",
   "self_type" : "_ZTIN7android4base10log_detail12StorageTypesIPKN3art3dex8MethodIdES7_EE",
   "size" : 1,
   "source_file" : "system/libbase/include/android-base/logging.h",
   "template_args" : [ "_ZTIPKN3art3dex8MethodIdE", "_ZTIPKN3art3dex8MethodIdE" ]
  },
  {
   "alignment" : 1,
   "linker_set_key" : "_ZTIN7android4base10log_detail12StorageTypesIPKN3art3dex8StringIdES7_EE",
   "name" : "android::base::log_detail::StorageTypes<const art::dex::StringId *, const art::dex::StringId *>",
   "referenced_type" : "_ZTIN7android4base10log_detail12StorageTypesIPKN3art3dex8StringIdES7_EE",
   "self_type" : "_ZTIN7android4base10log_detail12StorageTypesIPKN3art3dex8StringIdES7_EE",
   "size" : 1,
   "source_file" : "system/libbase/include/android-base/logging.h",
   "template_args" : [ "_ZTIPKN3art3dex8StringIdE", "_ZTIPKN3art3dex8StringIdE" ]
  },
  {
   "alignment" : 1,
   "linker_set_key" : "_ZTIN7android4base10log_detail12StorageTypesIjjEE",
   "name" : "android::base::log_detail::StorageTypes<unsigned int, unsigned int>",
   "referenced_type" : "_ZTIN7android4base10log_detail12StorageTypesIjjEE",
   "self_type" : "_ZTIN7android4base10log_detail12StorageTypesIjjEE",
   "size" : 1,
   "source_file" : "system/libbase/include/android-base/logging.h",
   "template_args" : [ "_ZTIj", "_ZTIj" ]
  },
  {
   "alignment" : 1,
   "linker_set_key" : "_ZTIN7android4base10log_detail12StorageTypesIjmEE",
   "name" : "android::base::log_detail::StorageTypes<unsigned int, unsigned long>",
   "referenced_type" : "_ZTIN7android4base10log_detail12StorageTypesIjmEE",
   "self_type" : "_ZTIN7android4base10log_detail12StorageTypesIjmEE",
   "size" : 1,
   "source_file" : "system/libbase/include/android-base/logging.h",
   "template_args" : [ "_ZTIj", "_ZTIm" ]
  },
  {
   "alignment" : 1,
   "linker_set_key" : "_ZTIN7android4base10log_detail12StorageTypesImjEE",
   "name" : "android::base::log_detail::StorageTypes<unsigned long, unsigned int>",
   "referenced_type" : "_ZTIN7android4base10log_detail12StorageTypesImjEE",
   "self_type" : "_ZTIN7android4base10log_detail12StorageTypesImjEE",
   "size" : 1,
   "source_file" : "system/libbase/include/android-base/logging.h",
   "template_args" : [ "_ZTIm", "_ZTIj" ]
  },
  {
   "alignment" : 1,
   "linker_set_key" : "_ZTIN7android4base10log_detail12StorageTypesImmEE",
   "name" : "android::base::log_detail::StorageTypes<unsigned long, unsigned long>",
   "referenced_type" : "_ZTIN7android4base10log_detail12StorageTypesImmEE",
   "self_type" : "_ZTIN7android4base10log_detail12StorageTypesImmEE",
   "size" : 1,
   "source_file" : "system/libbase/include/android-base/logging.h",
   "template_args" : [ "_ZTIm", "_ZTIm" ]
  },
  {
   "alignment" : 1,
   "linker_set_key" : "_ZTIN7android4base10log_detail12StorageTypesItjEE",
   "name" : "android::base::log_detail::StorageTypes<unsigned short, unsigned int>",
   "referenced_type" : "_ZTIN7android4base10log_detail12StorageTypesItjEE",
   "self_type" : "_ZTIN7android4base10log_detail12StorageTypesItjEE",
   "size" : 1,
   "source_file" : "system/libbase/include/android-base/logging.h",
   "template_args" : [ "_ZTIt", "_ZTIj" ]
  },
  {
   "alignment" : 1,
   "linker_set_key" : "_ZTIN7android4base10log_detail12StorageTypesItmEE",
   "name" : "android::base::log_detail::StorageTypes<unsigned short, unsigned long>",
   "referenced_type" : "_ZTIN7android4base10log_detail12StorageTypesItmEE",
   "self_type" : "_ZTIN7android4base10log_detail12StorageTypesItmEE",
   "size" : 1,
   "source_file" : "system/libbase/include/android-base/logging.h",
   "template_args" : [ "_ZTIt", "_ZTIm" ]
  },
  {
   "alignment" : 1,
   "linker_set_key" : "_ZTIN7android4base10log_detail12StorageTypesIttEE",
   "name" : "android::base::log_detail::StorageTypes<unsigned short, unsigned short>",
   "referenced_type" : "_ZTIN7android4base10log_detail12StorageTypesIttEE",
   "self_type" : "_ZTIN7android4base10log_detail12StorageTypesIttEE",
   "size" : 1,
   "source_file" : "system/libbase/include/android-base/logging.h",
   "template_args" : [ "_ZTIt", "_ZTIt" ]
  },
  {
   "alignment" : 1,
   "linker_set_key" : "_ZTIN7android4base10log_detail13IsCharPointerIPKN3art3dex6TypeIdEEE",
   "name" : "android::base::log_detail::IsCharPointer<const art::dex::TypeId *>",
   "referenced_type" : "_ZTIN7android4base10log_detail13IsCharPointerIPKN3art3dex6TypeIdEEE",
   "self_type" : "_ZTIN7android4base10log_detail13IsCharPointerIPKN3art3dex6TypeIdEEE",
   "size" : 1,
   "source_file" : "system/libbase/include/android-base/logging.h",
   "template_args" : [ "_ZTIPKN3art3dex6TypeIdE" ]
  },
  {
   "alignment" : 1,
   "linker_set_key" : "_ZTIN7android4base10log_detail13IsCharPointerIPKN3art3dex7FieldIdEEE",
   "name" : "android::base::log_detail::IsCharPointer<const art::dex::FieldId *>",
   "referenced_type" : "_ZTIN7android4base10log_detail13IsCharPointerIPKN3art3dex7FieldIdEEE",
   "self_type" : "_ZTIN7android4base10log_detail13IsCharPointerIPKN3art3dex7FieldIdEEE",
   "size" : 1,
   "source_file" : "system/libbase/include/android-base/logging.h",
   "template_args" : [ "_ZTIPKN3art3dex7FieldIdE" ]
  },
  {
   "alignment" : 1,
   "linker_set_key" : "_ZTIN7android4base10log_detail13IsCharPointerIPKN3art3dex7ProtoIdEEE",
   "name" : "android::base::log_detail::IsCharPointer<const art::dex::ProtoId *>",
   "referenced_type" : "_ZTIN7android4base10log_detail13IsCharPointerIPKN3art3dex7ProtoIdEEE",
   "self_type" : "_ZTIN7android4base10log_detail13IsCharPointerIPKN3art3dex7ProtoIdEEE",
   "size" : 1,
   "source_file" : "system/libbase/include/android-base/logging.h",
   "template_args" : [ "_ZTIPKN3art3dex7ProtoIdE" ]
  },
  {
   "alignment" : 1,
   "linker_set_key" : "_ZTIN7android4base10log_detail13IsCharPointerIPKN3art3dex8ClassDefEEE",
   "name" : "android::base::log_detail::IsCharPointer<const art::dex::ClassDef *>",
   "referenced_type" : "_ZTIN7android4base10log_detail13IsCharPointerIPKN3art3dex8ClassDefEEE",
   "self_type" : "_ZTIN7android4base10log_detail13IsCharPointerIPKN3art3dex8ClassDefEEE",
   "size" : 1,
   "source_file" : "system/libbase/include/android-base/logging.h",
   "template_args" : [ "_ZTIPKN3art3dex8ClassDefE" ]
  },
  {
   "alignment" : 1,
   "linker_set_key" : "_ZTIN7android4base10log_detail13IsCharPointerIPKN3art3dex8MethodIdEEE",
   "name" : "android::base::log_detail::IsCharPointer<const art::dex::MethodId *>",
   "referenced_type" : "_ZTIN7android4base10log_detail13IsCharPointerIPKN3art3dex8MethodIdEEE",
   "self_type" : "_ZTIN7android4base10log_detail13IsCharPointerIPKN3art3dex8MethodIdEEE",
   "size" : 1,
   "source_file" : "system/libbase/include/android-base/logging.h",
   "template_args" : [ "_ZTIPKN3art3dex8MethodIdE" ]
  },
  {
   "alignment" : 1,
   "linker_set_key" : "_ZTIN7android4base10log_detail13IsCharPointerIPKN3art3dex8StringIdEEE",
   "name" : "android::base::log_detail::IsCharPointer<const art::dex::StringId *>",
   "referenced_type" : "_ZTIN7android4base10log_detail13IsCharPointerIPKN3art3dex8StringIdEEE",
   "self_type" : "_ZTIN7android4base10log_detail13IsCharPointerIPKN3art3dex8StringIdEEE",
   "size" : 1,
   "source_file" : "system/libbase/include/android-base/logging.h",
   "template_args" : [ "_ZTIPKN3art3dex8StringIdE" ]
  },
  {
   "alignment" : 1,
   "linker_set_key" : "_ZTIN7android4base10log_detail13IsCharPointerIjEE",
   "name" : "android::base::log_detail::IsCharPointer<unsigned int>",
   "referenced_type" : "_ZTIN7android4base10log_detail13IsCharPointerIjEE",
   "self_type" : "_ZTIN7android4base10log_detail13IsCharPointerIjEE",
   "size" : 1,
   "source_file" : "system/libbase/include/android-base/logging.h",
   "template_args" : [ "_ZTIj" ]
  },
  {
   "alignment" : 1,
   "linker_set_key" : "_ZTIN7android4base10log_detail13IsCharPointerImEE",
   "name" : "android::base::log_detail::IsCharPointer<unsigned long>",
   "referenced_type" : "_ZTIN7android4base10log_detail13IsCharPointerImEE",
   "self_type" : "_ZTIN7android4base10log_detail13IsCharPointerImEE",
   "size" : 1,
   "source_file" : "system/libbase/include/android-base/logging.h",
   "template_args" : [ "_ZTIm" ]
  },
  {
   "alignment" : 1,
   "linker_set_key" : "_ZTIN7android4base10log_detail13IsCharPointerItEE",
   "name" : "android::base::log_detail::IsCharPointer<unsigned short>",
   "referenced_type" : "_ZTIN7android4base10log_detail13IsCharPointerItEE",
   "self_type" : "_ZTIN7android4base10log_detail13IsCharPointerItEE",
   "size" : 1,
   "source_file" : "system/libbase/include/android-base/logging.h",
   "template_args" : [ "_ZTIt" ]
  },
  {
   "alignment" : 8,
   "fields" :
   [
    {
     "field_name" : "lhs",
     "referenced_type" : "_ZTIKN7android4base10log_detail7StorageIPKN3art3dex6TypeIdEEE"
    },
    {
     "field_name" : "rhs",
     "field_offset" : 64,
     "referenced_type" : "_ZTIKN7android4base10log_detail7StorageIPKN3art3dex6TypeIdEEE"
    }
   ],
   "linker_set_key" : "_ZTIN7android4base10log_detail14EagerEvaluatorIPKN3art3dex6TypeIdES7_EE",
   "name" : "android::base::log_detail::EagerEvaluator<const art::dex::TypeId *, const art::dex::TypeId *>",
   "referenced_type" : "_ZTIN7android4base10log_detail14EagerEvaluatorIPKN3art3dex6TypeIdES7_EE",
   "self_type" : "_ZTIN7android4base10log_detail14EagerEvaluatorIPKN3art3dex6TypeIdES7_EE",
   "size" : 16,
   "source_file" : "system/libbase/include/android-base/logging.h",
   "template_args" : [ "_ZTIPKN3art3dex6TypeIdE", "_ZTIPKN3art3dex6TypeIdE" ]
  },
  {
   "alignment" : 8,
   "fields" :
   [
    {
     "field_name" : "lhs",
     "referenced_type" : "_ZTIKN7android4base10log_detail7StorageIPKN3art3dex7FieldIdEEE"
    },
    {
     "field_name" : "rhs",
     "field_offset" : 64,
     "referenced_type" : "_ZTIKN7android4base10log_detail7StorageIPKN3art3dex7FieldIdEEE"
    }
   ],
   "linker_set_key" : "_ZTIN7android4base10log_detail14EagerEvaluatorIPKN3art3dex7FieldIdES7_EE",
   "name" : "android::base::log_detail::EagerEvaluator<const art::dex::FieldId *, const art::dex::FieldId *>",
   "referenced_type" : "_ZTIN7android4base10log_detail14EagerEvaluatorIPKN3art3dex7FieldIdES7_EE",
   "self_type" : "_ZTIN7android4base10log_detail14EagerEvaluatorIPKN3art3dex7FieldIdES7_EE",
   "size" : 16,
   "source_file" : "system/libbase/include/android-base/logging.h",
   "template_args" : [ "_ZTIPKN3art3dex7FieldIdE", "_ZTIPKN3art3dex7FieldIdE" ]
  },
  {
   "alignment" : 8,
   "fields" :
   [
    {
     "field_name" : "lhs",
     "referenced_type" : "_ZTIKN7android4base10log_detail7StorageIPKN3art3dex7ProtoIdEEE"
    },
    {
     "field_name" : "rhs",
     "field_offset" : 64,
     "referenced_type" : "_ZTIKN7android4base10log_detail7StorageIPKN3art3dex7ProtoIdEEE"
    }
   ],
   "linker_set_key" : "_ZTIN7android4base10log_detail14EagerEvaluatorIPKN3art3dex7ProtoIdES7_EE",
   "name" : "android::base::log_detail::EagerEvaluator<const art::dex::ProtoId *, const art::dex::ProtoId *>",
   "referenced_type" : "_ZTIN7android4base10log_detail14EagerEvaluatorIPKN3art3dex7ProtoIdES7_EE",
   "self_type" : "_ZTIN7android4base10log_detail14EagerEvaluatorIPKN3art3dex7ProtoIdES7_EE",
   "size" : 16,
   "source_file" : "system/libbase/include/android-base/logging.h",
   "template_args" : [ "_ZTIPKN3art3dex7ProtoIdE", "_ZTIPKN3art3dex7ProtoIdE" ]
  },
  {
   "alignment" : 8,
   "fields" :
   [
    {
     "field_name" : "lhs",
     "referenced_type" : "_ZTIKN7android4base10log_detail7StorageIPKN3art3dex8ClassDefEEE"
    },
    {
     "field_name" : "rhs",
     "field_offset" : 64,
     "referenced_type" : "_ZTIKN7android4base10log_detail7StorageIPKN3art3dex8ClassDefEEE"
    }
   ],
   "linker_set_key" : "_ZTIN7android4base10log_detail14EagerEvaluatorIPKN3art3dex8ClassDefES7_EE",
   "name" : "android::base::log_detail::EagerEvaluator<const art::dex::ClassDef *, const art::dex::ClassDef *>",
   "referenced_type" : "_ZTIN7android4base10log_detail14EagerEvaluatorIPKN3art3dex8ClassDefES7_EE",
   "self_type" : "_ZTIN7android4base10log_detail14EagerEvaluatorIPKN3art3dex8ClassDefES7_EE",
   "size" : 16,
   "source_file" : "system/libbase/include/android-base/logging.h",
   "template_args" : [ "_ZTIPKN3art3dex8ClassDefE", "_ZTIPKN3art3dex8ClassDefE" ]
  },
  {
   "alignment" : 8,
   "fields" :
   [
    {
     "field_name" : "lhs",
     "referenced_type" : "_ZTIKN7android4base10log_detail7StorageIPKN3art3dex8MethodIdEEE"
    },
    {
     "field_name" : "rhs",
     "field_offset" : 64,
     "referenced_type" : "_ZTIKN7android4base10log_detail7StorageIPKN3art3dex8MethodIdEEE"
    }
   ],
   "linker_set_key" : "_ZTIN7android4base10log_detail14EagerEvaluatorIPKN3art3dex8MethodIdES7_EE",
   "name" : "android::base::log_detail::EagerEvaluator<const art::dex::MethodId *, const art::dex::MethodId *>",
   "referenced_type" : "_ZTIN7android4base10log_detail14EagerEvaluatorIPKN3art3dex8MethodIdES7_EE",
   "self_type" : "_ZTIN7android4base10log_detail14EagerEvaluatorIPKN3art3dex8MethodIdES7_EE",
   "size" : 16,
   "source_file" : "system/libbase/include/android-base/logging.h",
   "template_args" : [ "_ZTIPKN3art3dex8MethodIdE", "_ZTIPKN3art3dex8MethodIdE" ]
  },
  {
   "alignment" : 8,
   "fields" :
   [
    {
     "field_name" : "lhs",
     "referenced_type" : "_ZTIKN7android4base10log_detail7StorageIPKN3art3dex8StringIdEEE"
    },
    {
     "field_name" : "rhs",
     "field_offset" : 64,
     "referenced_type" : "_ZTIKN7android4base10log_detail7StorageIPKN3art3dex8StringIdEEE"
    }
   ],
   "linker_set_key" : "_ZTIN7android4base10log_detail14EagerEvaluatorIPKN3art3dex8StringIdES7_EE",
   "name" : "android::base::log_detail::EagerEvaluator<const art::dex::StringId *, const art::dex::StringId *>",
   "referenced_type" : "_ZTIN7android4base10log_detail14EagerEvaluatorIPKN3art3dex8StringIdES7_EE",
   "self_type" : "_ZTIN7android4base10log_detail14EagerEvaluatorIPKN3art3dex8StringIdES7_EE",
   "size" : 16,
   "source_file" : "system/libbase/include/android-base/logging.h",
   "template_args" : [ "_ZTIPKN3art3dex8StringIdE", "_ZTIPKN3art3dex8StringIdE" ]
  },
  {
   "alignment" : 4,
   "fields" :
   [
    {
     "field_name" : "lhs",
     "referenced_type" : "_ZTIKN7android4base10log_detail7StorageIjEE"
    },
    {
     "field_name" : "rhs",
     "field_offset" : 32,
     "referenced_type" : "_ZTIKN7android4base10log_detail7StorageIjEE"
    }
   ],
   "linker_set_key" : "_ZTIN7android4base10log_detail14EagerEvaluatorIjjEE",
   "name" : "android::base::log_detail::EagerEvaluator<unsigned int, unsigned int>",
   "referenced_type" : "_ZTIN7android4base10log_detail14EagerEvaluatorIjjEE",
   "self_type" : "_ZTIN7android4base10log_detail14EagerEvaluatorIjjEE",
   "size" : 8,
   "source_file" : "system/libbase/include/android-base/logging.h",
   "template_args" : [ "_ZTIj", "_ZTIj" ]
  },
  {
   "alignment" : 8,
   "fields" :
   [
    {
     "field_name" : "lhs",
     "referenced_type" : "_ZTIKN7android4base10log_detail7StorageIjEE"
    },
    {
     "field_name" : "rhs",
     "field_offset" : 64,
     "referenced_type" : "_ZTIKN7android4base10log_detail7StorageImEE"
    }
   ],
   "linker_set_key" : "_ZTIN7android4base10log_detail14EagerEvaluatorIjmEE",
   "name" : "android::base::log_detail::EagerEvaluator<unsigned int, unsigned long>",
   "referenced_type" : "_ZTIN7android4base10log_detail14EagerEvaluatorIjmEE",
   "self_type" : "_ZTIN7android4base10log_detail14EagerEvaluatorIjmEE",
   "size" : 16,
   "source_file" : "system/libbase/include/android-base/logging.h",
   "template_args" : [ "_ZTIj", "_ZTIm" ]
  },
  {
   "alignment" : 8,
   "fields" :
   [
    {
     "field_name" : "lhs",
     "referenced_type" : "_ZTIKN7android4base10log_detail7StorageImEE"
    },
    {
     "field_name" : "rhs",
     "field_offset" : 64,
     "referenced_type" : "_ZTIKN7android4base10log_detail7StorageIjEE"
    }
   ],
   "linker_set_key" : "_ZTIN7android4base10log_detail14EagerEvaluatorImjEE",
   "name" : "android::base::log_detail::EagerEvaluator<unsigned long, unsigned int>",
   "referenced_type" : "_ZTIN7android4base10log_detail14EagerEvaluatorImjEE",
   "self_type" : "_ZTIN7android4base10log_detail14EagerEvaluatorImjEE",
   "size" : 16,
   "source_file" : "system/libbase/include/android-base/logging.h",
   "template_args" : [ "_ZTIm", "_ZTIj" ]
  },
  {
   "alignment" : 8,
   "fields" :
   [
    {
     "field_name" : "lhs",
     "referenced_type" : "_ZTIKN7android4base10log_detail7StorageImEE"
    },
    {
     "field_name" : "rhs",
     "field_offset" : 64,
     "referenced_type" : "_ZTIKN7android4base10log_detail7StorageImEE"
    }
   ],
   "linker_set_key" : "_ZTIN7android4base10log_detail14EagerEvaluatorImmEE",
   "name" : "android::base::log_detail::EagerEvaluator<unsigned long, unsigned long>",
   "referenced_type" : "_ZTIN7android4base10log_detail14EagerEvaluatorImmEE",
   "self_type" : "_ZTIN7android4base10log_detail14EagerEvaluatorImmEE",
   "size" : 16,
   "source_file" : "system/libbase/include/android-base/logging.h",
   "template_args" : [ "_ZTIm", "_ZTIm" ]
  },
  {
   "alignment" : 4,
   "fields" :
   [
    {
     "field_name" : "lhs",
     "referenced_type" : "_ZTIKN7android4base10log_detail7StorageItEE"
    },
    {
     "field_name" : "rhs",
     "field_offset" : 32,
     "referenced_type" : "_ZTIKN7android4base10log_detail7StorageIjEE"
    }
   ],
   "linker_set_key" : "_ZTIN7android4base10log_detail14EagerEvaluatorItjEE",
   "name" : "android::base::log_detail::EagerEvaluator<unsigned short, unsigned int>",
   "referenced_type" : "_ZTIN7android4base10log_detail14EagerEvaluatorItjEE",
   "self_type" : "_ZTIN7android4base10log_detail14EagerEvaluatorItjEE",
   "size" : 8,
   "source_file" : "system/libbase/include/android-base/logging.h",
   "template_args" : [ "_ZTIt", "_ZTIj" ]
  },
  {
   "alignment" : 8,
   "fields" :
   [
    {
     "field_name" : "lhs",
     "referenced_type" : "_ZTIKN7android4base10log_detail7StorageItEE"
    },
    {
     "field_name" : "rhs",
     "field_offset" : 64,
     "referenced_type" : "_ZTIKN7android4base10log_detail7StorageImEE"
    }
   ],
   "linker_set_key" : "_ZTIN7android4base10log_detail14EagerEvaluatorItmEE",
   "name" : "android::base::log_detail::EagerEvaluator<unsigned short, unsigned long>",
   "referenced_type" : "_ZTIN7android4base10log_detail14EagerEvaluatorItmEE",
   "self_type" : "_ZTIN7android4base10log_detail14EagerEvaluatorItmEE",
   "size" : 16,
   "source_file" : "system/libbase/include/android-base/logging.h",
   "template_args" : [ "_ZTIt", "_ZTIm" ]
  },
  {
   "alignment" : 2,
   "fields" :
   [
    {
     "field_name" : "lhs",
     "referenced_type" : "_ZTIKN7android4base10log_detail7StorageItEE"
    },
    {
     "field_name" : "rhs",
     "field_offset" : 16,
     "referenced_type" : "_ZTIKN7android4base10log_detail7StorageItEE"
    }
   ],
   "linker_set_key" : "_ZTIN7android4base10log_detail14EagerEvaluatorIttEE",
   "name" : "android::base::log_detail::EagerEvaluator<unsigned short, unsigned short>",
   "referenced_type" : "_ZTIN7android4base10log_detail14EagerEvaluatorIttEE",
   "self_type" : "_ZTIN7android4base10log_detail14EagerEvaluatorIttEE",
   "size" : 4,
   "source_file" : "system/libbase/include/android-base/logging.h",
   "template_args" : [ "_ZTIt", "_ZTIt" ]
  },
  {
   "alignment" : 8,
   "fields" :
   [
    {
     "field_name" : "v",
     "referenced_type" : "_ZTIPKN3art3dex6TypeIdE"
    }
   ],
   "linker_set_key" : "_ZTIN7android4base10log_detail7StorageIPKN3art3dex6TypeIdEEE",
   "name" : "android::base::log_detail::Storage<const art::dex::TypeId *>",
   "referenced_type" : "_ZTIN7android4base10log_detail7StorageIPKN3art3dex6TypeIdEEE",
   "self_type" : "_ZTIN7android4base10log_detail7StorageIPKN3art3dex6TypeIdEEE",
   "size" : 8,
   "source_file" : "system/libbase/include/android-base/logging.h",
   "template_args" : [ "_ZTIPKN3art3dex6TypeIdE" ]
  },
  {
   "alignment" : 8,
   "fields" :
   [
    {
     "field_name" : "v",
     "referenced_type" : "_ZTIPKN3art3dex7FieldIdE"
    }
   ],
   "linker_set_key" : "_ZTIN7android4base10log_detail7StorageIPKN3art3dex7FieldIdEEE",
   "name" : "android::base::log_detail::Storage<const art::dex::FieldId *>",
   "referenced_type" : "_ZTIN7android4base10log_detail7StorageIPKN3art3dex7FieldIdEEE",
   "self_type" : "_ZTIN7android4base10log_detail7StorageIPKN3art3dex7FieldIdEEE",
   "size" : 8,
   "source_file" : "system/libbase/include/android-base/logging.h",
   "template_args" : [ "_ZTIPKN3art3dex7FieldIdE" ]
  },
  {
   "alignment" : 8,
   "fields" :
   [
    {
     "field_name" : "v",
     "referenced_type" : "_ZTIPKN3art3dex7ProtoIdE"
    }
   ],
   "linker_set_key" : "_ZTIN7android4base10log_detail7StorageIPKN3art3dex7ProtoIdEEE",
   "name" : "android::base::log_detail::Storage<const art::dex::ProtoId *>",
   "referenced_type" : "_ZTIN7android4base10log_detail7StorageIPKN3art3dex7ProtoIdEEE",
   "self_type" : "_ZTIN7android4base10log_detail7StorageIPKN3art3dex7ProtoIdEEE",
   "size" : 8,
   "source_file" : "system/libbase/include/android-base/logging.h",
   "template_args" : [ "_ZTIPKN3art3dex7ProtoIdE" ]
  },
  {
   "alignment" : 8,
   "fields" :
   [
    {
     "field_name" : "v",
     "referenced_type" : "_ZTIPKN3art3dex8ClassDefE"
    }
   ],
   "linker_set_key" : "_ZTIN7android4base10log_detail7StorageIPKN3art3dex8ClassDefEEE",
   "name" : "android::base::log_detail::Storage<const art::dex::ClassDef *>",
   "referenced_type" : "_ZTIN7android4base10log_detail7StorageIPKN3art3dex8ClassDefEEE",
   "self_type" : "_ZTIN7android4base10log_detail7StorageIPKN3art3dex8ClassDefEEE",
   "size" : 8,
   "source_file" : "system/libbase/include/android-base/logging.h",
   "template_args" : [ "_ZTIPKN3art3dex8ClassDefE" ]
  },
  {
   "alignment" : 8,
   "fields" :
   [
    {
     "field_name" : "v",
     "referenced_type" : "_ZTIPKN3art3dex8MethodIdE"
    }
   ],
   "linker_set_key" : "_ZTIN7android4base10log_detail7StorageIPKN3art3dex8MethodIdEEE",
   "name" : "android::base::log_detail::Storage<const art::dex::MethodId *>",
   "referenced_type" : "_ZTIN7android4base10log_detail7StorageIPKN3art3dex8MethodIdEEE",
   "self_type" : "_ZTIN7android4base10log_detail7StorageIPKN3art3dex8MethodIdEEE",
   "size" : 8,
   "source_file" : "system/libbase/include/android-base/logging.h",
   "template_args" : [ "_ZTIPKN3art3dex8MethodIdE" ]
  },
  {
   "alignment" : 8,
   "fields" :
   [
    {
     "field_name" : "v",
     "referenced_type" : "_ZTIPKN3art3dex8StringIdE"
    }
   ],
   "linker_set_key" : "_ZTIN7android4base10log_detail7StorageIPKN3art3dex8StringIdEEE",
   "name" : "android::base::log_detail::Storage<const art::dex::StringId *>",
   "referenced_type" : "_ZTIN7android4base10log_detail7StorageIPKN3art3dex8StringIdEEE",
   "self_type" : "_ZTIN7android4base10log_detail7StorageIPKN3art3dex8StringIdEEE",
   "size" : 8,
   "source_file" : "system/libbase/include/android-base/logging.h",
   "template_args" : [ "_ZTIPKN3art3dex8StringIdE" ]
  },
  {
   "alignment" : 4,
   "fields" :
   [
    {
     "field_name" : "v",
     "referenced_type" : "_ZTIj"
    }
   ],
   "linker_set_key" : "_ZTIN7android4base10log_detail7StorageIjEE",
   "name" : "android::base::log_detail::Storage<unsigned int>",
   "referenced_type" : "_ZTIN7android4base10log_detail7StorageIjEE",
   "self_type" : "_ZTIN7android4base10log_detail7StorageIjEE",
   "size" : 4,
   "source_file" : "system/libbase/include/android-base/logging.h",
   "template_args" : [ "_ZTIj" ]
  },
  {
   "alignment" : 8,
   "fields" :
   [
    {
     "field_name" : "v",
     "referenced_type" : "_ZTIm"
    }
   ],
   "linker_set_key" : "_ZTIN7android4base10log_detail7StorageImEE",
   "name" : "android::base::log_detail::Storage<unsigned long>",
   "referenced_type" : "_ZTIN7android4base10log_detail7StorageImEE",
   "self_type" : "_ZTIN7android4base10log_detail7StorageImEE",
   "size" : 8,
   "source_file" : "system/libbase/include/android-base/logging.h",
   "template_args" : [ "_ZTIm" ]
  },
  {
   "alignment" : 2,
   "fields" :
   [
    {
     "field_name" : "v",
     "referenced_type" : "_ZTIt"
    }
   ],
   "linker_set_key" : "_ZTIN7android4base10log_detail7StorageItEE",
   "name" : "android::base::log_detail::Storage<unsigned short>",
   "referenced_type" : "_ZTIN7android4base10log_detail7StorageItEE",
   "self_type" : "_ZTIN7android4base10log_detail7StorageItEE",
   "size" : 2,
   "source_file" : "system/libbase/include/android-base/logging.h",
   "template_args" : [ "_ZTIt" ]
  },
  {
   "alignment" : 1,
   "linker_set_key" : "_ZTIN7android4base12LogNullGuardIDnEE",
   "name" : "android::base::LogNullGuard<std::nullptr_t>",
   "referenced_type" : "_ZTIN7android4base12LogNullGuardIDnEE",
   "self_type" : "_ZTIN7android4base12LogNullGuardIDnEE",
   "size" : 1,
   "source_file" : "system/libbase/include/android-base/logging.h",
   "template_args" : [ "_ZTIDn" ]
  },
  {
   "alignment" : 1,
   "linker_set_key" : "_ZTIN7android4base12LogNullGuardIPKN3art3dex6TypeIdEEE",
   "name" : "android::base::LogNullGuard<const art::dex::TypeId *>",
   "referenced_type" : "_ZTIN7android4base12LogNullGuardIPKN3art3dex6TypeIdEEE",
   "self_type" : "_ZTIN7android4base12LogNullGuardIPKN3art3dex6TypeIdEEE",
   "size" : 1,
   "source_file" : "system/libbase/include/android-base/logging.h",
   "template_args" : [ "_ZTIPKN3art3dex6TypeIdE" ]
  },
  {
   "alignment" : 1,
   "linker_set_key" : "_ZTIN7android4base12LogNullGuardIPKN3art3dex7FieldIdEEE",
   "name" : "android::base::LogNullGuard<const art::dex::FieldId *>",
   "referenced_type" : "_ZTIN7android4base12LogNullGuardIPKN3art3dex7FieldIdEEE",
   "self_type" : "_ZTIN7android4base12LogNullGuardIPKN3art3dex7FieldIdEEE",
   "size" : 1,
   "source_file" : "system/libbase/include/android-base/logging.h",
   "template_args" : [ "_ZTIPKN3art3dex7FieldIdE" ]
  },
  {
   "alignment" : 1,
   "linker_set_key" : "_ZTIN7android4base12LogNullGuardIPKN3art3dex7ProtoIdEEE",
   "name" : "android::base::LogNullGuard<const art::dex::ProtoId *>",
   "referenced_type" : "_ZTIN7android4base12LogNullGuardIPKN3art3dex7ProtoIdEEE",
   "self_type" : "_ZTIN7android4base12LogNullGuardIPKN3art3dex7ProtoIdEEE",
   "size" : 1,
   "source_file" : "system/libbase/include/android-base/logging.h",
   "template_args" : [ "_ZTIPKN3art3dex7ProtoIdE" ]
  },
  {
   "alignment" : 1,
   "linker_set_key" : "_ZTIN7android4base12LogNullGuardIPKN3art3dex8ClassDefEEE",
   "name" : "android::base::LogNullGuard<const art::dex::ClassDef *>",
   "referenced_type" : "_ZTIN7android4base12LogNullGuardIPKN3art3dex8ClassDefEEE",
   "self_type" : "_ZTIN7android4base12LogNullGuardIPKN3art3dex8ClassDefEEE",
   "size" : 1,
   "source_file" : "system/libbase/include/android-base/logging.h",
   "template_args" : [ "_ZTIPKN3art3dex8ClassDefE" ]
  },
  {
   "alignment" : 1,
   "linker_set_key" : "_ZTIN7android4base12LogNullGuardIPKN3art3dex8MethodIdEEE",
   "name" : "android::base::LogNullGuard<const art::dex::MethodId *>",
   "referenced_type" : "_ZTIN7android4base12LogNullGuardIPKN3art3dex8MethodIdEEE",
   "self_type" : "_ZTIN7android4base12LogNullGuardIPKN3art3dex8MethodIdEEE",
   "size" : 1,
   "source_file" : "system/libbase/include/android-base/logging.h",
   "template_args" : [ "_ZTIPKN3art3dex8MethodIdE" ]
  },
  {
   "alignment" : 1,
   "linker_set_key" : "_ZTIN7android4base12LogNullGuardIPKN3art3dex8StringIdEEE",
   "name" : "android::base::LogNullGuard<const art::dex::StringId *>",
   "referenced_type" : "_ZTIN7android4base12LogNullGuardIPKN3art3dex8StringIdEEE",
   "self_type" : "_ZTIN7android4base12LogNullGuardIPKN3art3dex8StringIdEEE",
   "size" : 1,
   "source_file" : "system/libbase/include/android-base/logging.h",
   "template_args" : [ "_ZTIPKN3art3dex8StringIdE" ]
  },
  {
   "alignment" : 1,
   "linker_set_key" : "_ZTIN7android4base12LogNullGuardIPKcEE",
   "name" : "android::base::LogNullGuard<const char *>",
   "referenced_type" : "_ZTIN7android4base12LogNullGuardIPKcEE",
   "self_type" : "_ZTIN7android4base12LogNullGuardIPKcEE",
   "size" : 1,
   "source_file" : "system/libbase/include/android-base/logging.h",
   "template_args" : [ "_ZTIPKc" ]
  },
  {
   "alignment" : 1,
   "linker_set_key" : "_ZTIN7android4base12LogNullGuardIPcEE",
   "name" : "android::base::LogNullGuard<char *>",
   "referenced_type" : "_ZTIN7android4base12LogNullGuardIPcEE",
   "self_type" : "_ZTIN7android4base12LogNullGuardIPcEE",
   "size" : 1,
   "source_file" : "system/libbase/include/android-base/logging.h",
   "template_args" : [ "_ZTIPc" ]
  },
  {
   "alignment" : 1,
   "linker_set_key" : "_ZTIN7android4base12LogNullGuardIjEE",
   "name" : "android::base::LogNullGuard<unsigned int>",
   "referenced_type" : "_ZTIN7android4base12LogNullGuardIjEE",
   "self_type" : "_ZTIN7android4base12LogNullGuardIjEE",
   "size" : 1,
   "source_file" : "system/libbase/include/android-base/logging.h",
   "template_args" : [ "_ZTIj" ]
  },
  {
   "alignment" : 1,
   "linker_set_key" : "_ZTIN7android4base12LogNullGuardImEE",
   "name" : "android::base::LogNullGuard<unsigned long>",
   "referenced_type" : "_ZTIN7android4base12LogNullGuardImEE",
   "self_type" : "_ZTIN7android4base12LogNullGuardImEE",
   "size" : 1,
   "source_file" : "system/libbase/include/android-base/logging.h",
   "template_args" : [ "_ZTIm" ]
  },
  {
   "alignment" : 1,
   "linker_set_key" : "_ZTIN7android4base12LogNullGuardItEE",
   "name" : "android::base::LogNullGuard<unsigned short>",
   "referenced_type" : "_ZTIN7android4base12LogNullGuardItEE",
   "self_type" : "_ZTIN7android4base12LogNullGuardItEE",
   "size" : 1,
   "source_file" : "system/libbase/include/android-base/logging.h",
   "template_args" : [ "_ZTIt" ]
  },
  {
   "alignment" : 4,
   "fields" :
   [
    {
     "access" : "private",
     "field_name" : "saved_errno_",
     "referenced_type" : "_ZTIKi"
    }
   ],
   "linker_set_key" : "_ZTIN7android4base13ErrnoRestorerE",
   "name" : "android::base::ErrnoRestorer",
   "record_kind" : "class",
   "referenced_type" : "_ZTIN7android4base13ErrnoRestorerE",
   "self_type" : "_ZTIN7android4base13ErrnoRestorerE",
   "size" : 4,
   "source_file" : "system/libbase/include/android-base/errno_restorer.h"
  },
  {
   "alignment" : 4,
   "fields" :
   [
    {
     "access" : "private",
     "field_name" : "old_",
     "referenced_type" : "_ZTIN7android4base11LogSeverityE"
    }
   ],
   "linker_set_key" : "_ZTIN7android4base17ScopedLogSeverityE",
   "name" : "android::base::ScopedLogSeverity",
   "record_kind" : "class",
   "referenced_type" : "_ZTIN7android4base17ScopedLogSeverityE",
   "self_type" : "_ZTIN7android4base17ScopedLogSeverityE",
   "size" : 4,
   "source_file" : "system/libbase/include/android-base/logging.h"
  },
  {
   "alignment" : 1,
   "linker_set_key" : "_ZTIN7android4base19ScopedLockAssertionE",
   "name" : "android::base::ScopedLockAssertion",
   "record_kind" : "class",
   "referenced_type" : "_ZTIN7android4base19ScopedLockAssertionE",
   "self_type" : "_ZTIN7android4base19ScopedLockAssertionE",
   "size" : 1,
   "source_file" : "system/libbase/include/android-base/thread_annotations.h"
  },
  {
   "alignment" : 8,
   "linker_set_key" : "_ZTIN9unix_file16RandomAccessFileE",
   "name" : "unix_file::RandomAccessFile",
   "record_kind" : "class",
   "referenced_type" : "_ZTIN9unix_file16RandomAccessFileE",
   "self_type" : "_ZTIN9unix_file16RandomAccessFileE",
   "size" : 8,
   "source_file" : "art/libartbase/base/unix_file/random_access_file.h",
   "vtable_components" :
   [
    {
     "kind" : "offset_to_top"
    },
    {
     "kind" : "rtti",
     "mangled_component_name" : "_ZTIN9unix_file16RandomAccessFileE"
    },
    {
     "kind" : "complete_dtor_pointer",
     "mangled_component_name" : "_ZN9unix_file16RandomAccessFileD1Ev"
    },
    {
     "kind" : "deleting_dtor_pointer",
     "mangled_component_name" : "_ZN9unix_file16RandomAccessFileD0Ev"
    },
    {
     "is_pure" : true,
     "mangled_component_name" : "_ZN9unix_file16RandomAccessFile5CloseEv"
    },
    {
     "is_pure" : true,
     "mangled_component_name" : "_ZNK9unix_file16RandomAccessFile4ReadEPcll"
    },
    {
     "is_pure" : true,
     "mangled_component_name" : "_ZN9unix_file16RandomAccessFile9SetLengthEl"
    },
    {
     "is_pure" : true,
     "mangled_component_name" : "_ZNK9unix_file16RandomAccessFile9GetLengthEv"
    },
    {
     "is_pure" : true,
     "mangled_component_name" : "_ZN9unix_file16RandomAccessFile5WriteEPKcll"
    },
    {
     "is_pure" : true,
     "mangled_component_name" : "_ZN9unix_file16RandomAccessFile5FlushEv"
    }
   ]
  },
  {
   "alignment" : 8,
   "base_specifiers" :
   [
    {
     "referenced_type" : "_ZTIN9unix_file16RandomAccessFileE"
    }
   ],
   "fields" :
   [
    {
     "access" : "protected",
     "field_name" : "guard_state_",
     "field_offset" : 64,
     "referenced_type" : "_ZTIN9unix_file6FdFile10GuardStateE"
    },
    {
     "access" : "private",
     "field_name" : "fd_",
     "field_offset" : 96,
     "referenced_type" : "_ZTIi"
    },
    {
     "access" : "private",
     "field_name" : "file_path_",
     "field_offset" : 128,
     "referenced_type" : "_ZTINSt3__112basic_stringIcNS_11char_traitsIcEENS_9allocatorIcEEEE"
    },
    {
     "access" : "private",
     "field_name" : "read_only_mode_",
     "field_offset" : 320,
     "referenced_type" : "_ZTIb"
    }
   ],
   "linker_set_key" : "_ZTIN9unix_file6FdFileE",
   "name" : "unix_file::FdFile",
   "record_kind" : "class",
   "referenced_type" : "_ZTIN9unix_file6FdFileE",
   "self_type" : "_ZTIN9unix_file6FdFileE",
   "size" : 48,
   "source_file" : "art/libartbase/base/unix_file/fd_file.h",
   "vtable_components" :
   [
    {
     "kind" : "offset_to_top"
    },
    {
     "kind" : "rtti",
     "mangled_component_name" : "_ZTIN9unix_file6FdFileE"
    },
    {
     "kind" : "complete_dtor_pointer",
     "mangled_component_name" : "_ZN9unix_file6FdFileD1Ev"
    },
    {
     "kind" : "deleting_dtor_pointer",
     "mangled_component_name" : "_ZN9unix_file6FdFileD0Ev"
    },
    {
     "mangled_component_name" : "_ZN9unix_file6FdFile5CloseEv"
    },
    {
     "mangled_component_name" : "_ZNK9unix_file6FdFile4ReadEPcll"
    },
    {
     "mangled_component_name" : "_ZN9unix_file6FdFile9SetLengthEl"
    },
    {
     "mangled_component_name" : "_ZNK9unix_file6FdFile9GetLengthEv"
    },
    {
     "mangled_component_name" : "_ZN9unix_file6FdFile5WriteEPKcll"
    },
    {
     "mangled_component_name" : "_ZN9unix_file6FdFile5FlushEv"
    }
   ]
  },
  {
   "alignment" : 1,
   "linker_set_key" : "_ZTINSt3__14hashIN3art3dex10ProtoIndexEEE",
   "name" : "std::hash<art::dex::ProtoIndex>",
   "referenced_type" : "_ZTINSt3__14hashIN3art3dex10ProtoIndexEEE",
   "self_type" : "_ZTINSt3__14hashIN3art3dex10ProtoIndexEEE",
   "size" : 1,
   "source_file" : "art/libdexfile/dex/dex_file_types.h",
   "template_args" : [ "_ZTIN3art3dex10ProtoIndexE" ]
  },
  {
   "alignment" : 1,
   "linker_set_key" : "_ZTINSt3__14hashIN3art3dex11StringIndexEEE",
   "name" : "std::hash<art::dex::StringIndex>",
   "referenced_type" : "_ZTINSt3__14hashIN3art3dex11StringIndexEEE",
   "self_type" : "_ZTINSt3__14hashIN3art3dex11StringIndexEEE",
   "size" : 1,
   "source_file" : "art/libdexfile/dex/dex_file_types.h",
   "template_args" : [ "_ZTIN3art3dex11StringIndexE" ]
  },
  {
   "alignment" : 1,
   "linker_set_key" : "_ZTINSt3__14hashIN3art3dex9TypeIndexEEE",
   "name" : "std::hash<art::dex::TypeIndex>",
   "referenced_type" : "_ZTINSt3__14hashIN3art3dex9TypeIndexEEE",
   "self_type" : "_ZTINSt3__14hashIN3art3dex9TypeIndexEEE",
   "size" : 1,
   "source_file" : "art/libdexfile/dex/dex_file_types.h",
   "template_args" : [ "_ZTIN3art3dex9TypeIndexE" ]
  }
 ],
 "rvalue_reference_types" :
 [
  {
   "alignment" : 8,
   "linker_set_key" : "_ZTION3art15SplitStringIterE",
   "name" : "art::SplitStringIter &&",
   "referenced_type" : "_ZTIN3art15SplitStringIterE",
   "self_type" : "_ZTION3art15SplitStringIterE",
   "size" : 8,
   "source_file" : "art/libartbase/base/stl_util.h"
  },
  {
   "alignment" : 8,
   "linker_set_key" : "_ZTION3art6MemMapE",
   "name" : "art::MemMap &&",
   "referenced_type" : "_ZTIN3art6MemMapE",
   "self_type" : "_ZTION3art6MemMapE",
   "size" : 8,
   "source_file" : "art/libdexfile/dex/art_dex_file_loader.h"
  },
  {
   "alignment" : 8,
   "linker_set_key" : "_ZTIOPKN3art3dex6TypeIdE",
   "name" : "const art::dex::TypeId *&&",
   "referenced_type" : "_ZTIPKN3art3dex6TypeIdE",
   "self_type" : "_ZTIOPKN3art3dex6TypeIdE",
   "size" : 8,
   "source_file" : "system/libbase/include/android-base/logging.h"
  },
  {
   "alignment" : 8,
   "linker_set_key" : "_ZTIOPKN3art3dex7FieldIdE",
   "name" : "const art::dex::FieldId *&&",
   "referenced_type" : "_ZTIPKN3art3dex7FieldIdE",
   "self_type" : "_ZTIOPKN3art3dex7FieldIdE",
   "size" : 8,
   "source_file" : "system/libbase/include/android-base/logging.h"
  },
  {
   "alignment" : 8,
   "linker_set_key" : "_ZTIOPKN3art3dex7ProtoIdE",
   "name" : "const art::dex::ProtoId *&&",
   "referenced_type" : "_ZTIPKN3art3dex7ProtoIdE",
   "self_type" : "_ZTIOPKN3art3dex7ProtoIdE",
   "size" : 8,
   "source_file" : "system/libbase/include/android-base/logging.h"
  },
  {
   "alignment" : 8,
   "linker_set_key" : "_ZTIOPKN3art3dex8ClassDefE",
   "name" : "const art::dex::ClassDef *&&",
   "referenced_type" : "_ZTIPKN3art3dex8ClassDefE",
   "self_type" : "_ZTIOPKN3art3dex8ClassDefE",
   "size" : 8,
   "source_file" : "system/libbase/include/android-base/logging.h"
  },
  {
   "alignment" : 8,
   "linker_set_key" : "_ZTIOPKN3art3dex8MethodIdE",
   "name" : "const art::dex::MethodId *&&",
   "referenced_type" : "_ZTIPKN3art3dex8MethodIdE",
   "self_type" : "_ZTIOPKN3art3dex8MethodIdE",
   "size" : 8,
   "source_file" : "system/libbase/include/android-base/logging.h"
  },
  {
   "alignment" : 8,
   "linker_set_key" : "_ZTIOPKN3art3dex8StringIdE",
   "name" : "const art::dex::StringId *&&",
   "referenced_type" : "_ZTIPKN3art3dex8StringIdE",
   "self_type" : "_ZTIOPKN3art3dex8StringIdE",
   "size" : 8,
   "source_file" : "system/libbase/include/android-base/logging.h"
  },
  {
   "alignment" : 8,
   "linker_set_key" : "_ZTIOj",
   "name" : "unsigned int &&",
   "referenced_type" : "_ZTIj",
   "self_type" : "_ZTIOj",
   "size" : 8,
   "source_file" : "system/libbase/include/android-base/logging.h"
  },
  {
   "alignment" : 8,
   "linker_set_key" : "_ZTIOm",
   "name" : "unsigned long &&",
   "referenced_type" : "_ZTIm",
   "self_type" : "_ZTIOm",
   "size" : 8,
   "source_file" : "system/libbase/include/android-base/logging.h"
  }
 ]
}
