{
 "array_types" : [],
 "builtin_types" :
 [
  {
   "alignment" : 1,
   "is_integral" : true,
   "is_unsigned" : true,
   "linker_set_key" : "_ZTIb",
   "name" : "bool",
   "referenced_type" : "_ZTIb",
   "self_type" : "_ZTIb",
   "size" : 1
  },
  {
   "alignment" : 1,
   "is_integral" : true,
   "is_unsigned" : true,
   "linker_set_key" : "_ZTIc",
   "name" : "char",
   "referenced_type" : "_ZTIc",
   "self_type" : "_ZTIc",
   "size" : 1
  },
  {
   "alignment" : 8,
   "linker_set_key" : "_ZTId",
   "name" : "double",
   "referenced_type" : "_ZTId",
   "self_type" : "_ZTId",
   "size" : 8
  },
  {
   "alignment" : 4,
   "linker_set_key" : "_ZTIf",
   "name" : "float",
   "referenced_type" : "_ZTIf",
   "self_type" : "_ZTIf",
   "size" : 4
  },
  {
   "alignment" : 4,
   "is_integral" : true,
   "linker_set_key" : "_ZTIi",
   "name" : "int",
   "referenced_type" : "_ZTIi",
   "self_type" : "_ZTIi",
   "size" : 4
  },
  {
   "alignment" : 4,
   "is_integral" : true,
   "is_unsigned" : true,
   "linker_set_key" : "_ZTIj",
   "name" : "unsigned int",
   "referenced_type" : "_ZTIj",
   "self_type" : "_ZTIj",
   "size" : 4
  },
  {
   "alignment" : 8,
   "is_integral" : true,
   "linker_set_key" : "_ZTIl",
   "name" : "long",
   "referenced_type" : "_ZTIl",
   "self_type" : "_ZTIl",
   "size" : 8
  },
  {
   "alignment" : 8,
   "is_integral" : true,
   "is_unsigned" : true,
   "linker_set_key" : "_ZTIm",
   "name" : "unsigned long",
   "referenced_type" : "_ZTIm",
   "self_type" : "_ZTIm",
   "size" : 8
  },
  {
   "linker_set_key" : "_ZTIv",
   "name" : "void",
   "referenced_type" : "_ZTIv",
   "self_type" : "_ZTIv"
  }
 ],
 "elf_functions" : [],
 "elf_objects" : [],
 "enum_types" :
 [
  {
   "access" : "private",
   "alignment" : 4,
   "enum_fields" :
   [
    {
     "enum_field_value" : 0,
     "name" : "Json::PathArgument::kindNone"
    },
    {
     "enum_field_value" : 1,
     "name" : "Json::PathArgument::kindIndex"
    },
    {
     "enum_field_value" : 2,
     "name" : "Json::PathArgument::kindKey"
    }
   ],
   "linker_set_key" : "_ZTIN4Json12PathArgument4KindE",
   "name" : "Json::PathArgument::Kind",
   "referenced_type" : "_ZTIN4Json12PathArgument4KindE",
   "self_type" : "_ZTIN4Json12PathArgument4KindE",
   "size" : 4,
   "source_file" : "external/jsoncpp/include/json/value.h",
   "underlying_type" : "_ZTIj"
  },
  {
   "alignment" : 4,
   "enum_fields" :
   [
    {
     "enum_field_value" : 0,
     "name" : "Json::significantDigits"
    },
    {
     "enum_field_value" : 1,
     "name" : "Json::decimalPlaces"
    }
   ],
   "linker_set_key" : "_ZTIN4Json13PrecisionTypeE",
   "name" : "Json::PrecisionType",
   "referenced_type" : "_ZTIN4Json13PrecisionTypeE",
   "self_type" : "_ZTIN4Json13PrecisionTypeE",
   "size" : 4,
   "source_file" : "external/jsoncpp/include/json/value.h",
   "underlying_type" : "_ZTIj"
  },
  {
   "alignment" : 4,
   "enum_fields" :
   [
    {
     "enum_field_value" : 0,
     "name" : "Json::commentBefore"
    },
    {
     "enum_field_value" : 1,
     "name" : "Json::commentAfterOnSameLine"
    },
    {
     "enum_field_value" : 2,
     "name" : "Json::commentAfter"
    },
    {
     "enum_field_value" : 3,
     "name" : "Json::numberOfCommentPlacement"
    }
   ],
   "linker_set_key" : "_ZTIN4Json16CommentPlacementE",
   "name" : "Json::CommentPlacement",
   "referenced_type" : "_ZTIN4Json16CommentPlacementE",
   "self_type" : "_ZTIN4Json16CommentPlacementE",
   "size" : 4,
   "source_file" : "external/jsoncpp/include/json/value.h",
   "underlying_type" : "_ZTIj"
  },
  {
   "alignment" : 4,
   "enum_fields" :
   [
    {
     "enum_field_value" : 0,
     "name" : "Json::Value::CZString::noDuplication"
    },
    {
     "enum_field_value" : 1,
     "name" : "Json::Value::CZString::duplicate"
    },
    {
     "enum_field_value" : 2,
     "name" : "Json::Value::CZString::duplicateOnCopy"
    }
   ],
   "linker_set_key" : "_ZTIN4Json5Value8CZString17DuplicationPolicyE",
   "name" : "Json::Value::CZString::DuplicationPolicy",
   "referenced_type" : "_ZTIN4Json5Value8CZString17DuplicationPolicyE",
   "self_type" : "_ZTIN4Json5Value8CZString17DuplicationPolicyE",
   "size" : 4,
   "source_file" : "external/jsoncpp/include/json/value.h",
   "underlying_type" : "_ZTIj"
  },
  {
   "access" : "private",
   "alignment" : 4,
   "enum_fields" :
   [
    {
     "enum_field_value" : 0,
     "name" : "Json::Reader::tokenEndOfStream"
    },
    {
     "enum_field_value" : 1,
     "name" : "Json::Reader::tokenObjectBegin"
    },
    {
     "enum_field_value" : 2,
     "name" : "Json::Reader::tokenObjectEnd"
    },
    {
     "enum_field_value" : 3,
     "name" : "Json::Reader::tokenArrayBegin"
    },
    {
     "enum_field_value" : 4,
     "name" : "Json::Reader::tokenArrayEnd"
    },
    {
     "enum_field_value" : 5,
     "name" : "Json::Reader::tokenString"
    },
    {
     "enum_field_value" : 6,
     "name" : "Json::Reader::tokenNumber"
    },
    {
     "enum_field_value" : 7,
     "name" : "Json::Reader::tokenTrue"
    },
    {
     "enum_field_value" : 8,
     "name" : "Json::Reader::tokenFalse"
    },
    {
     "enum_field_value" : 9,
     "name" : "Json::Reader::tokenNull"
    },
    {
     "enum_field_value" : 10,
     "name" : "Json::Reader::tokenArraySeparator"
    },
    {
     "enum_field_value" : 11,
     "name" : "Json::Reader::tokenMemberSeparator"
    },
    {
     "enum_field_value" : 12,
     "name" : "Json::Reader::tokenComment"
    },
    {
     "enum_field_value" : 13,
     "name" : "Json::Reader::tokenError"
    }
   ],
   "linker_set_key" : "_ZTIN4Json6Reader9TokenTypeE",
   "name" : "Json::Reader::TokenType",
   "referenced_type" : "_ZTIN4Json6Reader9TokenTypeE",
   "self_type" : "_ZTIN4Json6Reader9TokenTypeE",
   "size" : 4,
   "source_file" : "external/jsoncpp/include/json/reader.h",
   "underlying_type" : "_ZTIj"
  },
  {
   "alignment" : 4,
   "enum_fields" :
   [
    {
     "enum_field_value" : 0,
     "name" : "Json::nullValue"
    },
    {
     "enum_field_value" : 1,
     "name" : "Json::intValue"
    },
    {
     "enum_field_value" : 2,
     "name" : "Json::uintValue"
    },
    {
     "enum_field_value" : 3,
     "name" : "Json::realValue"
    },
    {
     "enum_field_value" : 4,
     "name" : "Json::stringValue"
    },
    {
     "enum_field_value" : 5,
     "name" : "Json::booleanValue"
    },
    {
     "enum_field_value" : 6,
     "name" : "Json::arrayValue"
    },
    {
     "enum_field_value" : 7,
     "name" : "Json::objectValue"
    }
   ],
   "linker_set_key" : "_ZTIN4Json9ValueTypeE",
   "name" : "Json::ValueType",
   "referenced_type" : "_ZTIN4Json9ValueTypeE",
   "self_type" : "_ZTIN4Json9ValueTypeE",
   "size" : 4,
   "source_file" : "external/jsoncpp/include/json/value.h",
   "underlying_type" : "_ZTIj"
  }
 ],
 "function_types" : [],
 "functions" :
 [
  {
   "function_name" : "Json::CharReader::Factory::~Factory",
   "linker_set_key" : "_ZN4Json10CharReader7FactoryD0Ev",
   "parameters" :
   [
    {
     "is_this_ptr" : true,
     "referenced_type" : "_ZTIPN4Json10CharReader7FactoryE"
    }
   ],
   "return_type" : "_ZTIv",
   "source_file" : "external/jsoncpp/include/json/reader.h"
  },
  {
   "function_name" : "Json::CharReader::Factory::~Factory",
   "linker_set_key" : "_ZN4Json10CharReader7FactoryD1Ev",
   "parameters" :
   [
    {
     "is_this_ptr" : true,
     "referenced_type" : "_ZTIPN4Json10CharReader7FactoryE"
    }
   ],
   "return_type" : "_ZTIv",
   "source_file" : "external/jsoncpp/include/json/reader.h"
  },
  {
   "function_name" : "Json::CharReader::Factory::~Factory",
   "linker_set_key" : "_ZN4Json10CharReader7FactoryD2Ev",
   "parameters" :
   [
    {
     "is_this_ptr" : true,
     "referenced_type" : "_ZTIPN4Json10CharReader7FactoryE"
    }
   ],
   "return_type" : "_ZTIv",
   "source_file" : "external/jsoncpp/include/json/reader.h"
  },
  {
   "function_name" : "Json::CharReader::~CharReader",
   "linker_set_key" : "_ZN4Json10CharReaderD0Ev",
   "parameters" :
   [
    {
     "is_this_ptr" : true,
     "referenced_type" : "_ZTIPN4Json10CharReaderE"
    }
   ],
   "return_type" : "_ZTIv",
   "source_file" : "external/jsoncpp/include/json/reader.h"
  },
  {
   "function_name" : "Json::CharReader::~CharReader",
   "linker_set_key" : "_ZN4Json10CharReaderD1Ev",
   "parameters" :
   [
    {
     "is_this_ptr" : true,
     "referenced_type" : "_ZTIPN4Json10CharReaderE"
    }
   ],
   "return_type" : "_ZTIv",
   "source_file" : "external/jsoncpp/include/json/reader.h"
  },
  {
   "function_name" : "Json::CharReader::~CharReader",
   "linker_set_key" : "_ZN4Json10CharReaderD2Ev",
   "parameters" :
   [
    {
     "is_this_ptr" : true,
     "referenced_type" : "_ZTIPN4Json10CharReaderE"
    }
   ],
   "return_type" : "_ZTIv",
   "source_file" : "external/jsoncpp/include/json/reader.h"
  },
  {
   "function_name" : "Json::StaticString::StaticString",
   "linker_set_key" : "_ZN4Json12StaticStringC1EPKc",
   "parameters" :
   [
    {
     "is_this_ptr" : true,
     "referenced_type" : "_ZTIPN4Json12StaticStringE"
    },
    {
     "referenced_type" : "_ZTIPKc"
    }
   ],
   "return_type" : "_ZTIv",
   "source_file" : "external/jsoncpp/include/json/value.h"
  },
  {
   "function_name" : "Json::StaticString::StaticString",
   "linker_set_key" : "_ZN4Json12StaticStringC2EPKc",
   "parameters" :
   [
    {
     "is_this_ptr" : true,
     "referenced_type" : "_ZTIPN4Json12StaticStringE"
    },
    {
     "referenced_type" : "_ZTIPKc"
    }
   ],
   "return_type" : "_ZTIv",
   "source_file" : "external/jsoncpp/include/json/value.h"
  },
  {
   "function_name" : "Json::ValueIterator::operator*",
   "linker_set_key" : "_ZN4Json13ValueIteratordeEv",
   "parameters" :
   [
    {
     "is_this_ptr" : true,
     "referenced_type" : "_ZTIPN4Json13ValueIteratorE"
    }
   ],
   "return_type" : "_ZTIRN4Json5ValueE",
   "source_file" : "external/jsoncpp/include/json/value.h"
  },
  {
   "function_name" : "Json::ValueIterator::operator--",
   "linker_set_key" : "_ZN4Json13ValueIteratormmEi",
   "parameters" :
   [
    {
     "is_this_ptr" : true,
     "referenced_type" : "_ZTIPN4Json13ValueIteratorE"
    },
    {
     "referenced_type" : "_ZTIi"
    }
   ],
   "return_type" : "_ZTIN4Json13ValueIteratorE",
   "source_file" : "external/jsoncpp/include/json/value.h"
  },
  {
   "function_name" : "Json::ValueIterator::operator--",
   "linker_set_key" : "_ZN4Json13ValueIteratormmEv",
   "parameters" :
   [
    {
     "is_this_ptr" : true,
     "referenced_type" : "_ZTIPN4Json13ValueIteratorE"
    }
   ],
   "return_type" : "_ZTIRN4Json13ValueIteratorE",
   "source_file" : "external/jsoncpp/include/json/value.h"
  },
  {
   "function_name" : "Json::ValueIterator::operator++",
   "linker_set_key" : "_ZN4Json13ValueIteratorppEi",
   "parameters" :
   [
    {
     "is_this_ptr" : true,
     "referenced_type" : "_ZTIPN4Json13ValueIteratorE"
    },
    {
     "referenced_type" : "_ZTIi"
    }
   ],
   "return_type" : "_ZTIN4Json13ValueIteratorE",
   "source_file" : "external/jsoncpp/include/json/value.h"
  },
  {
   "function_name" : "Json::ValueIterator::operator++",
   "linker_set_key" : "_ZN4Json13ValueIteratorppEv",
   "parameters" :
   [
    {
     "is_this_ptr" : true,
     "referenced_type" : "_ZTIPN4Json13ValueIteratorE"
    }
   ],
   "return_type" : "_ZTIRN4Json13ValueIteratorE",
   "source_file" : "external/jsoncpp/include/json/value.h"
  },
  {
   "function_name" : "Json::ValueIterator::operator->",
   "linker_set_key" : "_ZN4Json13ValueIteratorptEv",
   "parameters" :
   [
    {
     "is_this_ptr" : true,
     "referenced_type" : "_ZTIPN4Json13ValueIteratorE"
    }
   ],
   "return_type" : "_ZTIPN4Json5ValueE",
   "source_file" : "external/jsoncpp/include/json/value.h"
  },
  {
   "function_name" : "Json::parseFromStream",
   "linker_set_key" : "_ZN4Json15parseFromStreamERKNS_10CharReader7FactoryERNSt3__113basic_istreamIcNS4_11char_traitsIcEEEEPNS_5ValueEPNS4_12basic_stringIcS7_NS4_9allocatorIcEEEE",
   "parameters" :
   [
    {
     "referenced_type" : "_ZTIRKN4Json10CharReader7FactoryE"
    },
    {
     "referenced_type" : "_ZTIRNSt3__113basic_istreamIcNS_11char_traitsIcEEEE"
    },
    {
     "referenced_type" : "_ZTIPN4Json5ValueE"
    },
    {
     "referenced_type" : "_ZTIPNSt3__112basic_stringIcNS_11char_traitsIcEENS_9allocatorIcEEEE"
    }
   ],
   "return_type" : "_ZTIb",
   "source_file" : "external/jsoncpp/include/json/reader.h"
  },
  {
   "function_name" : "Json::CharReaderBuilder::strictMode",
   "linker_set_key" : "_ZN4Json17CharReaderBuilder10strictModeEPNS_5ValueE",
   "parameters" :
   [
    {
     "referenced_type" : "_ZTIPN4Json5ValueE"
    }
   ],
   "return_type" : "_ZTIv",
   "source_file" : "external/jsoncpp/include/json/reader.h"
  },
  {
   "function_name" : "Json::CharReaderBuilder::setDefaults",
   "linker_set_key" : "_ZN4Json17CharReaderBuilder11setDefaultsEPNS_5ValueE",
   "parameters" :
   [
    {
     "referenced_type" : "_ZTIPN4Json5ValueE"
    }
   ],
   "return_type" : "_ZTIv",
   "source_file" : "external/jsoncpp/include/json/reader.h"
  },
  {
   "function_name" : "Json::CharReaderBuilder::CharReaderBuilder",
   "linker_set_key" : "_ZN4Json17CharReaderBuilderC1Ev",
   "parameters" :
   [
    {
     "is_this_ptr" : true,
     "referenced_type" : "_ZTIPN4Json17CharReaderBuilderE"
    }
   ],
   "return_type" : "_ZTIv",
   "source_file" : "external/jsoncpp/include/json/reader.h"
  },
  {
   "function_name" : "Json::CharReaderBuilder::CharReaderBuilder",
   "linker_set_key" : "_ZN4Json17CharReaderBuilderC2Ev",
   "parameters" :
   [
    {
     "is_this_ptr" : true,
     "referenced_type" : "_ZTIPN4Json17CharReaderBuilderE"
    }
   ],
   "return_type" : "_ZTIv",
   "source_file" : "external/jsoncpp/include/json/reader.h"
  },
  {
   "function_name" : "Json::CharReaderBuilder::~CharReaderBuilder",
   "linker_set_key" : "_ZN4Json17CharReaderBuilderD0Ev",
   "parameters" :
   [
    {
     "is_this_ptr" : true,
     "referenced_type" : "_ZTIPN4Json17CharReaderBuilderE"
    }
   ],
   "return_type" : "_ZTIv",
   "source_file" : "external/jsoncpp/include/json/reader.h"
  },
  {
   "function_name" : "Json::CharReaderBuilder::~CharReaderBuilder",
   "linker_set_key" : "_ZN4Json17CharReaderBuilderD1Ev",
   "parameters" :
   [
    {
     "is_this_ptr" : true,
     "referenced_type" : "_ZTIPN4Json17CharReaderBuilderE"
    }
   ],
   "return_type" : "_ZTIv",
   "source_file" : "external/jsoncpp/include/json/reader.h"
  },
  {
   "function_name" : "Json::CharReaderBuilder::~CharReaderBuilder",
   "linker_set_key" : "_ZN4Json17CharReaderBuilderD2Ev",
   "parameters" :
   [
    {
     "is_this_ptr" : true,
     "referenced_type" : "_ZTIPN4Json17CharReaderBuilderE"
    }
   ],
   "return_type" : "_ZTIv",
   "source_file" : "external/jsoncpp/include/json/reader.h"
  },
  {
   "function_name" : "Json::CharReaderBuilder::operator[]",
   "linker_set_key" : "_ZN4Json17CharReaderBuilderixERKNSt3__112basic_stringIcNS1_11char_traitsIcEENS1_9allocatorIcEEEE",
   "parameters" :
   [
    {
     "is_this_ptr" : true,
     "referenced_type" : "_ZTIPN4Json17CharReaderBuilderE"
    },
    {
     "referenced_type" : "_ZTIRKNSt3__112basic_stringIcNS_11char_traitsIcEENS_9allocatorIcEEEE"
    }
   ],
   "return_type" : "_ZTIRN4Json5ValueE",
   "source_file" : "external/jsoncpp/include/json/reader.h"
  },
  {
   "function_name" : "Json::ValueConstIterator::operator--",
   "linker_set_key" : "_ZN4Json18ValueConstIteratormmEi",
   "parameters" :
   [
    {
     "is_this_ptr" : true,
     "referenced_type" : "_ZTIPN4Json18ValueConstIteratorE"
    },
    {
     "referenced_type" : "_ZTIi"
    }
   ],
   "return_type" : "_ZTIN4Json18ValueConstIteratorE",
   "source_file" : "external/jsoncpp/include/json/value.h"
  },
  {
   "function_name" : "Json::ValueConstIterator::operator--",
   "linker_set_key" : "_ZN4Json18ValueConstIteratormmEv",
   "parameters" :
   [
    {
     "is_this_ptr" : true,
     "referenced_type" : "_ZTIPN4Json18ValueConstIteratorE"
    }
   ],
   "return_type" : "_ZTIRN4Json18ValueConstIteratorE",
   "source_file" : "external/jsoncpp/include/json/value.h"
  },
  {
   "function_name" : "Json::ValueConstIterator::operator++",
   "linker_set_key" : "_ZN4Json18ValueConstIteratorppEi",
   "parameters" :
   [
    {
     "is_this_ptr" : true,
     "referenced_type" : "_ZTIPN4Json18ValueConstIteratorE"
    },
    {
     "referenced_type" : "_ZTIi"
    }
   ],
   "return_type" : "_ZTIN4Json18ValueConstIteratorE",
   "source_file" : "external/jsoncpp/include/json/value.h"
  },
  {
   "function_name" : "Json::ValueConstIterator::operator++",
   "linker_set_key" : "_ZN4Json18ValueConstIteratorppEv",
   "parameters" :
   [
    {
     "is_this_ptr" : true,
     "referenced_type" : "_ZTIPN4Json18ValueConstIteratorE"
    }
   ],
   "return_type" : "_ZTIRN4Json18ValueConstIteratorE",
   "source_file" : "external/jsoncpp/include/json/value.h"
  },
  {
   "function_name" : "Json::swap",
   "linker_set_key" : "_ZN4Json4swapERNS_5ValueES1_",
   "parameters" :
   [
    {
     "referenced_type" : "_ZTIRN4Json5ValueE"
    },
    {
     "referenced_type" : "_ZTIRN4Json5ValueE"
    }
   ],
   "return_type" : "_ZTIv",
   "source_file" : "external/jsoncpp/include/json/value.h"
  },
  {
   "function_name" : "Json::Value::setComment",
   "linker_set_key" : "_ZN4Json5Value10setCommentEPKcNS_16CommentPlacementE",
   "parameters" :
   [
    {
     "is_this_ptr" : true,
     "referenced_type" : "_ZTIPN4Json5ValueE"
    },
    {
     "referenced_type" : "_ZTIPKc"
    },
    {
     "referenced_type" : "_ZTIN4Json16CommentPlacementE"
    }
   ],
   "return_type" : "_ZTIv",
   "source_file" : "external/jsoncpp/include/json/value.h"
  },
  {
   "function_name" : "Json::Value::setComment",
   "linker_set_key" : "_ZN4Json5Value10setCommentEPKcmNS_16CommentPlacementE",
   "parameters" :
   [
    {
     "is_this_ptr" : true,
     "referenced_type" : "_ZTIPN4Json5ValueE"
    },
    {
     "referenced_type" : "_ZTIPKc"
    },
    {
     "referenced_type" : "_ZTIm"
    },
    {
     "referenced_type" : "_ZTIN4Json16CommentPlacementE"
    }
   ],
   "return_type" : "_ZTIv",
   "source_file" : "external/jsoncpp/include/json/value.h"
  },
  {
   "access" : "private",
   "function_name" : "Json::Value::setIsAllocated",
   "linker_set_key" : "_ZN4Json5Value14setIsAllocatedEb",
   "parameters" :
   [
    {
     "is_this_ptr" : true,
     "referenced_type" : "_ZTIPN4Json5ValueE"
    },
    {
     "referenced_type" : "_ZTIb"
    }
   ],
   "return_type" : "_ZTIv",
   "source_file" : "external/jsoncpp/include/json/value.h"
  },
  {
   "access" : "private",
   "function_name" : "Json::Value::setType",
   "linker_set_key" : "_ZN4Json5Value7setTypeENS_9ValueTypeE",
   "parameters" :
   [
    {
     "is_this_ptr" : true,
     "referenced_type" : "_ZTIPN4Json5ValueE"
    },
    {
     "referenced_type" : "_ZTIN4Json9ValueTypeE"
    }
   ],
   "return_type" : "_ZTIv",
   "source_file" : "external/jsoncpp/include/json/value.h"
  },
  {
   "function_name" : "Json::Value::Comments::Comments",
   "linker_set_key" : "_ZN4Json5Value8CommentsC1Ev",
   "parameters" :
   [
    {
     "is_this_ptr" : true,
     "referenced_type" : "_ZTIPN4Json5Value8CommentsE"
    }
   ],
   "return_type" : "_ZTIv",
   "source_file" : "external/jsoncpp/include/json/value.h"
  },
  {
   "function_name" : "Json::Value::Comments::Comments",
   "linker_set_key" : "_ZN4Json5Value8CommentsC2Ev",
   "parameters" :
   [
    {
     "is_this_ptr" : true,
     "referenced_type" : "_ZTIPN4Json5Value8CommentsE"
    }
   ],
   "return_type" : "_ZTIv",
   "source_file" : "external/jsoncpp/include/json/value.h"
  },
  {
   "access" : "private",
   "function_name" : "Json::Reader::addComment",
   "linker_set_key" : "_ZN4Json6Reader10addCommentEPKcS2_NS_16CommentPlacementE",
   "parameters" :
   [
    {
     "is_this_ptr" : true,
     "referenced_type" : "_ZTIPN4Json6ReaderE"
    },
    {
     "referenced_type" : "_ZTIPKc"
    },
    {
     "referenced_type" : "_ZTIPKc"
    },
    {
     "referenced_type" : "_ZTIN4Json16CommentPlacementE"
    }
   ],
   "return_type" : "_ZTIv",
   "source_file" : "external/jsoncpp/include/json/reader.h"
  },
  {
   "access" : "private",
   "function_name" : "Json::Reader::readNumber",
   "linker_set_key" : "_ZN4Json6Reader10readNumberEv",
   "parameters" :
   [
    {
     "is_this_ptr" : true,
     "referenced_type" : "_ZTIPN4Json6ReaderE"
    }
   ],
   "return_type" : "_ZTIv",
   "source_file" : "external/jsoncpp/include/json/reader.h"
  },
  {
   "access" : "private",
   "function_name" : "Json::Reader::readObject",
   "linker_set_key" : "_ZN4Json6Reader10readObjectERNS0_5TokenE",
   "parameters" :
   [
    {
     "is_this_ptr" : true,
     "referenced_type" : "_ZTIPN4Json6ReaderE"
    },
    {
     "referenced_type" : "_ZTIRN4Json6Reader5TokenE"
    }
   ],
   "return_type" : "_ZTIb",
   "source_file" : "external/jsoncpp/include/json/reader.h"
  },
  {
   "access" : "private",
   "function_name" : "Json::Reader::readString",
   "linker_set_key" : "_ZN4Json6Reader10readStringEv",
   "parameters" :
   [
    {
     "is_this_ptr" : true,
     "referenced_type" : "_ZTIPN4Json6ReaderE"
    }
   ],
   "return_type" : "_ZTIb",
   "source_file" : "external/jsoncpp/include/json/reader.h"
  },
  {
   "access" : "private",
   "function_name" : "Json::Reader::skipSpaces",
   "linker_set_key" : "_ZN4Json6Reader10skipSpacesEv",
   "parameters" :
   [
    {
     "is_this_ptr" : true,
     "referenced_type" : "_ZTIPN4Json6ReaderE"
    }
   ],
   "return_type" : "_ZTIv",
   "source_file" : "external/jsoncpp/include/json/reader.h"
  },
  {
   "access" : "private",
   "function_name" : "Json::Reader::getNextChar",
   "linker_set_key" : "_ZN4Json6Reader11getNextCharEv",
   "parameters" :
   [
    {
     "is_this_ptr" : true,
     "referenced_type" : "_ZTIPN4Json6ReaderE"
    }
   ],
   "return_type" : "_ZTIc",
   "source_file" : "external/jsoncpp/include/json/reader.h"
  },
  {
   "access" : "private",
   "function_name" : "Json::Reader::readComment",
   "linker_set_key" : "_ZN4Json6Reader11readCommentEv",
   "parameters" :
   [
    {
     "is_this_ptr" : true,
     "referenced_type" : "_ZTIPN4Json6ReaderE"
    }
   ],
   "return_type" : "_ZTIb",
   "source_file" : "external/jsoncpp/include/json/reader.h"
  },
  {
   "access" : "private",
   "function_name" : "Json::Reader::currentValue",
   "linker_set_key" : "_ZN4Json6Reader12currentValueEv",
   "parameters" :
   [
    {
     "is_this_ptr" : true,
     "referenced_type" : "_ZTIPN4Json6ReaderE"
    }
   ],
   "return_type" : "_ZTIRN4Json5ValueE",
   "source_file" : "external/jsoncpp/include/json/reader.h"
  },
  {
   "access" : "private",
   "function_name" : "Json::Reader::decodeDouble",
   "linker_set_key" : "_ZN4Json6Reader12decodeDoubleERNS0_5TokenE",
   "parameters" :
   [
    {
     "is_this_ptr" : true,
     "referenced_type" : "_ZTIPN4Json6ReaderE"
    },
    {
     "referenced_type" : "_ZTIRN4Json6Reader5TokenE"
    }
   ],
   "return_type" : "_ZTIb",
   "source_file" : "external/jsoncpp/include/json/reader.h"
  },
  {
   "access" : "private",
   "function_name" : "Json::Reader::decodeDouble",
   "linker_set_key" : "_ZN4Json6Reader12decodeDoubleERNS0_5TokenERNS_5ValueE",
   "parameters" :
   [
    {
     "is_this_ptr" : true,
     "referenced_type" : "_ZTIPN4Json6ReaderE"
    },
    {
     "referenced_type" : "_ZTIRN4Json6Reader5TokenE"
    },
    {
     "referenced_type" : "_ZTIRN4Json5ValueE"
    }
   ],
   "return_type" : "_ZTIb",
   "source_file" : "external/jsoncpp/include/json/reader.h"
  },
  {
   "access" : "private",
   "function_name" : "Json::Reader::decodeNumber",
   "linker_set_key" : "_ZN4Json6Reader12decodeNumberERNS0_5TokenE",
   "parameters" :
   [
    {
     "is_this_ptr" : true,
     "referenced_type" : "_ZTIPN4Json6ReaderE"
    },
    {
     "referenced_type" : "_ZTIRN4Json6Reader5TokenE"
    }
   ],
   "return_type" : "_ZTIb",
   "source_file" : "external/jsoncpp/include/json/reader.h"
  },
  {
   "access" : "private",
   "function_name" : "Json::Reader::decodeNumber",
   "linker_set_key" : "_ZN4Json6Reader12decodeNumberERNS0_5TokenERNS_5ValueE",
   "parameters" :
   [
    {
     "is_this_ptr" : true,
     "referenced_type" : "_ZTIPN4Json6ReaderE"
    },
    {
     "referenced_type" : "_ZTIRN4Json6Reader5TokenE"
    },
    {
     "referenced_type" : "_ZTIRN4Json5ValueE"
    }
   ],
   "return_type" : "_ZTIb",
   "source_file" : "external/jsoncpp/include/json/reader.h"
  },
  {
   "access" : "private",
   "function_name" : "Json::Reader::decodeString",
   "linker_set_key" : "_ZN4Json6Reader12decodeStringERNS0_5TokenE",
   "parameters" :
   [
    {
     "is_this_ptr" : true,
     "referenced_type" : "_ZTIPN4Json6ReaderE"
    },
    {
     "referenced_type" : "_ZTIRN4Json6Reader5TokenE"
    }
   ],
   "return_type" : "_ZTIb",
   "source_file" : "external/jsoncpp/include/json/reader.h"
  },
  {
   "access" : "private",
   "function_name" : "Json::Reader::decodeString",
   "linker_set_key" : "_ZN4Json6Reader12decodeStringERNS0_5TokenERNSt3__112basic_stringIcNS3_11char_traitsIcEENS3_9allocatorIcEEEE",
   "parameters" :
   [
    {
     "is_this_ptr" : true,
     "referenced_type" : "_ZTIPN4Json6ReaderE"
    },
    {
     "referenced_type" : "_ZTIRN4Json6Reader5TokenE"
    },
    {
     "referenced_type" : "_ZTIRNSt3__112basic_stringIcNS_11char_traitsIcEENS_9allocatorIcEEEE"
    }
   ],
   "return_type" : "_ZTIb",
   "source_file" : "external/jsoncpp/include/json/reader.h"
  },
  {
   "access" : "private",
   "function_name" : "Json::Reader::normalizeEOL",
   "linker_set_key" : "_ZN4Json6Reader12normalizeEOLEPKcS2_",
   "parameters" :
   [
    {
     "referenced_type" : "_ZTIPKc"
    },
    {
     "referenced_type" : "_ZTIPKc"
    }
   ],
   "return_type" : "_ZTINSt3__112basic_stringIcNS_11char_traitsIcEENS_9allocatorIcEEEE",
   "source_file" : "external/jsoncpp/include/json/reader.h"
  },
  {
   "access" : "private",
   "function_name" : "Json::Reader::containsNewLine",
   "linker_set_key" : "_ZN4Json6Reader15containsNewLineEPKcS2_",
   "parameters" :
   [
    {
     "referenced_type" : "_ZTIPKc"
    },
    {
     "referenced_type" : "_ZTIPKc"
    }
   ],
   "return_type" : "_ZTIb",
   "source_file" : "external/jsoncpp/include/json/reader.h"
  },
  {
   "access" : "private",
   "function_name" : "Json::Reader::recoverFromError",
   "linker_set_key" : "_ZN4Json6Reader16recoverFromErrorENS0_9TokenTypeE",
   "parameters" :
   [
    {
     "is_this_ptr" : true,
     "referenced_type" : "_ZTIPN4Json6ReaderE"
    },
    {
     "referenced_type" : "_ZTIN4Json6Reader9TokenTypeE"
    }
   ],
   "return_type" : "_ZTIb",
   "source_file" : "external/jsoncpp/include/json/reader.h"
  },
  {
   "access" : "private",
   "function_name" : "Json::Reader::readCStyleComment",
   "linker_set_key" : "_ZN4Json6Reader17readCStyleCommentEv",
   "parameters" :
   [
    {
     "is_this_ptr" : true,
     "referenced_type" : "_ZTIPN4Json6ReaderE"
    }
   ],
   "return_type" : "_ZTIb",
   "source_file" : "external/jsoncpp/include/json/reader.h"
  },
  {
   "access" : "private",
   "function_name" : "Json::Reader::skipCommentTokens",
   "linker_set_key" : "_ZN4Json6Reader17skipCommentTokensERNS0_5TokenE",
   "parameters" :
   [
    {
     "is_this_ptr" : true,
     "referenced_type" : "_ZTIPN4Json6ReaderE"
    },
    {
     "referenced_type" : "_ZTIRN4Json6Reader5TokenE"
    }
   ],
   "return_type" : "_ZTIv",
   "source_file" : "external/jsoncpp/include/json/reader.h"
  },
  {
   "access" : "private",
   "function_name" : "Json::Reader::addErrorAndRecover",
   "linker_set_key" : "_ZN4Json6Reader18addErrorAndRecoverERKNSt3__112basic_stringIcNS1_11char_traitsIcEENS1_9allocatorIcEEEERNS0_5TokenENS0_9TokenTypeE",
   "parameters" :
   [
    {
     "is_this_ptr" : true,
     "referenced_type" : "_ZTIPN4Json6ReaderE"
    },
    {
     "referenced_type" : "_ZTIRKNSt3__112basic_stringIcNS_11char_traitsIcEENS_9allocatorIcEEEE"
    },
    {
     "referenced_type" : "_ZTIRN4Json6Reader5TokenE"
    },
    {
     "referenced_type" : "_ZTIN4Json6Reader9TokenTypeE"
    }
   ],
   "return_type" : "_ZTIb",
   "source_file" : "external/jsoncpp/include/json/reader.h"
  },
  {
   "access" : "private",
   "function_name" : "Json::Reader::readCppStyleComment",
   "linker_set_key" : "_ZN4Json6Reader19readCppStyleCommentEv",
   "parameters" :
   [
    {
     "is_this_ptr" : true,
     "referenced_type" : "_ZTIPN4Json6ReaderE"
    }
   ],
   "return_type" : "_ZTIb",
   "source_file" : "external/jsoncpp/include/json/reader.h"
  },
  {
   "access" : "private",
   "function_name" : "Json::Reader::decodeUnicodeCodePoint",
   "linker_set_key" : "_ZN4Json6Reader22decodeUnicodeCodePointERNS0_5TokenERPKcS4_Rj",
   "parameters" :
   [
    {
     "is_this_ptr" : true,
     "referenced_type" : "_ZTIPN4Json6ReaderE"
    },
    {
     "referenced_type" : "_ZTIRN4Json6Reader5TokenE"
    },
    {
     "referenced_type" : "_ZTIRPKc"
    },
    {
     "referenced_type" : "_ZTIPKc"
    },
    {
     "referenced_type" : "_ZTIRj"
    }
   ],
   "return_type" : "_ZTIb",
   "source_file" : "external/jsoncpp/include/json/reader.h"
  },
  {
   "access" : "private",
   "function_name" : "Json::Reader::decodeUnicodeEscapeSequence",
   "linker_set_key" : "_ZN4Json6Reader27decodeUnicodeEscapeSequenceERNS0_5TokenERPKcS4_Rj",
   "parameters" :
   [
    {
     "is_this_ptr" : true,
     "referenced_type" : "_ZTIPN4Json6ReaderE"
    },
    {
     "referenced_type" : "_ZTIRN4Json6Reader5TokenE"
    },
    {
     "referenced_type" : "_ZTIRPKc"
    },
    {
     "referenced_type" : "_ZTIPKc"
    },
    {
     "referenced_type" : "_ZTIRj"
    }
   ],
   "return_type" : "_ZTIb",
   "source_file" : "external/jsoncpp/include/json/reader.h"
  },
  {
   "access" : "private",
   "function_name" : "Json::Reader::match",
   "linker_set_key" : "_ZN4Json6Reader5matchEPKci",
   "parameters" :
   [
    {
     "is_this_ptr" : true,
     "referenced_type" : "_ZTIPN4Json6ReaderE"
    },
    {
     "referenced_type" : "_ZTIPKc"
    },
    {
     "referenced_type" : "_ZTIi"
    }
   ],
   "return_type" : "_ZTIb",
   "source_file" : "external/jsoncpp/include/json/reader.h"
  },
  {
   "function_name" : "Json::Reader::parse",
   "linker_set_key" : "_ZN4Json6Reader5parseEPKcS2_RNS_5ValueEb",
   "parameters" :
   [
    {
     "is_this_ptr" : true,
     "referenced_type" : "_ZTIPN4Json6ReaderE"
    },
    {
     "referenced_type" : "_ZTIPKc"
    },
    {
     "referenced_type" : "_ZTIPKc"
    },
    {
     "referenced_type" : "_ZTIRN4Json5ValueE"
    },
    {
     "default_arg" : true,
     "referenced_type" : "_ZTIb"
    }
   ],
   "return_type" : "_ZTIb",
   "source_file" : "external/jsoncpp/include/json/reader.h"
  },
  {
   "function_name" : "Json::Reader::parse",
   "linker_set_key" : "_ZN4Json6Reader5parseERKNSt3__112basic_stringIcNS1_11char_traitsIcEENS1_9allocatorIcEEEERNS_5ValueEb",
   "parameters" :
   [
    {
     "is_this_ptr" : true,
     "referenced_type" : "_ZTIPN4Json6ReaderE"
    },
    {
     "referenced_type" : "_ZTIRKNSt3__112basic_stringIcNS_11char_traitsIcEENS_9allocatorIcEEEE"
    },
    {
     "referenced_type" : "_ZTIRN4Json5ValueE"
    },
    {
     "default_arg" : true,
     "referenced_type" : "_ZTIb"
    }
   ],
   "return_type" : "_ZTIb",
   "source_file" : "external/jsoncpp/include/json/reader.h"
  },
  {
   "function_name" : "Json::Reader::parse",
   "linker_set_key" : "_ZN4Json6Reader5parseERNSt3__113basic_istreamIcNS1_11char_traitsIcEEEERNS_5ValueEb",
   "parameters" :
   [
    {
     "is_this_ptr" : true,
     "referenced_type" : "_ZTIPN4Json6ReaderE"
    },
    {
     "referenced_type" : "_ZTIRNSt3__113basic_istreamIcNS_11char_traitsIcEEEE"
    },
    {
     "referenced_type" : "_ZTIRN4Json5ValueE"
    },
    {
     "default_arg" : true,
     "referenced_type" : "_ZTIb"
    }
   ],
   "return_type" : "_ZTIb",
   "source_file" : "external/jsoncpp/include/json/reader.h"
  },
  {
   "access" : "private",
   "function_name" : "Json::Reader::addError",
   "linker_set_key" : "_ZN4Json6Reader8addErrorERKNSt3__112basic_stringIcNS1_11char_traitsIcEENS1_9allocatorIcEEEERNS0_5TokenEPKc",
   "parameters" :
   [
    {
     "is_this_ptr" : true,
     "referenced_type" : "_ZTIPN4Json6ReaderE"
    },
    {
     "referenced_type" : "_ZTIRKNSt3__112basic_stringIcNS_11char_traitsIcEENS_9allocatorIcEEEE"
    },
    {
     "referenced_type" : "_ZTIRN4Json6Reader5TokenE"
    },
    {
     "default_arg" : true,
     "referenced_type" : "_ZTIPKc"
    }
   ],
   "return_type" : "_ZTIb",
   "source_file" : "external/jsoncpp/include/json/reader.h"
  },
  {
   "function_name" : "Json::Reader::pushError",
   "linker_set_key" : "_ZN4Json6Reader9pushErrorERKNS_5ValueERKNSt3__112basic_stringIcNS4_11char_traitsIcEENS4_9allocatorIcEEEE",
   "parameters" :
   [
    {
     "is_this_ptr" : true,
     "referenced_type" : "_ZTIPN4Json6ReaderE"
    },
    {
     "referenced_type" : "_ZTIRKN4Json5ValueE"
    },
    {
     "referenced_type" : "_ZTIRKNSt3__112basic_stringIcNS_11char_traitsIcEENS_9allocatorIcEEEE"
    }
   ],
   "return_type" : "_ZTIb",
   "source_file" : "external/jsoncpp/include/json/reader.h"
  },
  {
   "function_name" : "Json::Reader::pushError",
   "linker_set_key" : "_ZN4Json6Reader9pushErrorERKNS_5ValueERKNSt3__112basic_stringIcNS4_11char_traitsIcEENS4_9allocatorIcEEEES3_",
   "parameters" :
   [
    {
     "is_this_ptr" : true,
     "referenced_type" : "_ZTIPN4Json6ReaderE"
    },
    {
     "referenced_type" : "_ZTIRKN4Json5ValueE"
    },
    {
     "referenced_type" : "_ZTIRKNSt3__112basic_stringIcNS_11char_traitsIcEENS_9allocatorIcEEEE"
    },
    {
     "referenced_type" : "_ZTIRKN4Json5ValueE"
    }
   ],
   "return_type" : "_ZTIb",
   "source_file" : "external/jsoncpp/include/json/reader.h"
  },
  {
   "access" : "private",
   "function_name" : "Json::Reader::readArray",
   "linker_set_key" : "_ZN4Json6Reader9readArrayERNS0_5TokenE",
   "parameters" :
   [
    {
     "is_this_ptr" : true,
     "referenced_type" : "_ZTIPN4Json6ReaderE"
    },
    {
     "referenced_type" : "_ZTIRN4Json6Reader5TokenE"
    }
   ],
   "return_type" : "_ZTIb",
   "source_file" : "external/jsoncpp/include/json/reader.h"
  },
  {
   "access" : "private",
   "function_name" : "Json::Reader::readToken",
   "linker_set_key" : "_ZN4Json6Reader9readTokenERNS0_5TokenE",
   "parameters" :
   [
    {
     "is_this_ptr" : true,
     "referenced_type" : "_ZTIPN4Json6ReaderE"
    },
    {
     "referenced_type" : "_ZTIRN4Json6Reader5TokenE"
    }
   ],
   "return_type" : "_ZTIb",
   "source_file" : "external/jsoncpp/include/json/reader.h"
  },
  {
   "access" : "private",
   "function_name" : "Json::Reader::readValue",
   "linker_set_key" : "_ZN4Json6Reader9readValueEv",
   "parameters" :
   [
    {
     "is_this_ptr" : true,
     "referenced_type" : "_ZTIPN4Json6ReaderE"
    }
   ],
   "return_type" : "_ZTIb",
   "source_file" : "external/jsoncpp/include/json/reader.h"
  },
  {
   "function_name" : "Json::Reader::Reader",
   "linker_set_key" : "_ZN4Json6ReaderC1ERKNS_8FeaturesE",
   "parameters" :
   [
    {
     "is_this_ptr" : true,
     "referenced_type" : "_ZTIPN4Json6ReaderE"
    },
    {
     "referenced_type" : "_ZTIRKN4Json8FeaturesE"
    }
   ],
   "return_type" : "_ZTIv",
   "source_file" : "external/jsoncpp/include/json/reader.h"
  },
  {
   "function_name" : "Json::Reader::Reader",
   "linker_set_key" : "_ZN4Json6ReaderC1Ev",
   "parameters" :
   [
    {
     "is_this_ptr" : true,
     "referenced_type" : "_ZTIPN4Json6ReaderE"
    }
   ],
   "return_type" : "_ZTIv",
   "source_file" : "external/jsoncpp/include/json/reader.h"
  },
  {
   "function_name" : "Json::Reader::Reader",
   "linker_set_key" : "_ZN4Json6ReaderC2ERKNS_8FeaturesE",
   "parameters" :
   [
    {
     "is_this_ptr" : true,
     "referenced_type" : "_ZTIPN4Json6ReaderE"
    },
    {
     "referenced_type" : "_ZTIRKN4Json8FeaturesE"
    }
   ],
   "return_type" : "_ZTIv",
   "source_file" : "external/jsoncpp/include/json/reader.h"
  },
  {
   "function_name" : "Json::Reader::Reader",
   "linker_set_key" : "_ZN4Json6ReaderC2Ev",
   "parameters" :
   [
    {
     "is_this_ptr" : true,
     "referenced_type" : "_ZTIPN4Json6ReaderE"
    }
   ],
   "return_type" : "_ZTIv",
   "source_file" : "external/jsoncpp/include/json/reader.h"
  },
  {
   "function_name" : "Json::Features::strictMode",
   "linker_set_key" : "_ZN4Json8Features10strictModeEv",
   "return_type" : "_ZTIN4Json8FeaturesE",
   "source_file" : "external/jsoncpp/include/json/json_features.h"
  },
  {
   "function_name" : "Json::Features::all",
   "linker_set_key" : "_ZN4Json8Features3allEv",
   "return_type" : "_ZTIN4Json8FeaturesE",
   "source_file" : "external/jsoncpp/include/json/json_features.h"
  },
  {
   "function_name" : "Json::Features::Features",
   "linker_set_key" : "_ZN4Json8FeaturesC1Ev",
   "parameters" :
   [
    {
     "is_this_ptr" : true,
     "referenced_type" : "_ZTIPN4Json8FeaturesE"
    }
   ],
   "return_type" : "_ZTIv",
   "source_file" : "external/jsoncpp/include/json/json_features.h"
  },
  {
   "function_name" : "Json::Features::Features",
   "linker_set_key" : "_ZN4Json8FeaturesC2Ev",
   "parameters" :
   [
    {
     "is_this_ptr" : true,
     "referenced_type" : "_ZTIPN4Json8FeaturesE"
    }
   ],
   "return_type" : "_ZTIv",
   "source_file" : "external/jsoncpp/include/json/json_features.h"
  },
  {
   "function_name" : "Json::operator>>",
   "linker_set_key" : "_ZN4JsonrsERNSt3__113basic_istreamIcNS0_11char_traitsIcEEEERNS_5ValueE",
   "parameters" :
   [
    {
     "referenced_type" : "_ZTIRNSt3__113basic_istreamIcNS_11char_traitsIcEEEE"
    },
    {
     "referenced_type" : "_ZTIRN4Json5ValueE"
    }
   ],
   "return_type" : "_ZTIRNSt3__113basic_istreamIcNS_11char_traitsIcEEEE",
   "source_file" : "external/jsoncpp/include/json/reader.h"
  },
  {
   "function_name" : "Json::StaticString::c_str",
   "linker_set_key" : "_ZNK4Json12StaticString5c_strEv",
   "parameters" :
   [
    {
     "is_this_ptr" : true,
     "referenced_type" : "_ZTIPKN4Json12StaticStringE"
    }
   ],
   "return_type" : "_ZTIPKc",
   "source_file" : "external/jsoncpp/include/json/value.h"
  },
  {
   "function_name" : "Json::StaticString::operator const char *",
   "linker_set_key" : "_ZNK4Json12StaticStringcvPKcEv",
   "parameters" :
   [
    {
     "is_this_ptr" : true,
     "referenced_type" : "_ZTIPKN4Json12StaticStringE"
    }
   ],
   "return_type" : "_ZTIPKc",
   "source_file" : "external/jsoncpp/include/json/value.h"
  },
  {
   "function_name" : "Json::CharReaderBuilder::newCharReader",
   "linker_set_key" : "_ZNK4Json17CharReaderBuilder13newCharReaderEv",
   "parameters" :
   [
    {
     "is_this_ptr" : true,
     "referenced_type" : "_ZTIPKN4Json17CharReaderBuilderE"
    }
   ],
   "return_type" : "_ZTIPN4Json10CharReaderE",
   "source_file" : "external/jsoncpp/include/json/reader.h"
  },
  {
   "function_name" : "Json::CharReaderBuilder::validate",
   "linker_set_key" : "_ZNK4Json17CharReaderBuilder8validateEPNS_5ValueE",
   "parameters" :
   [
    {
     "is_this_ptr" : true,
     "referenced_type" : "_ZTIPKN4Json17CharReaderBuilderE"
    },
    {
     "referenced_type" : "_ZTIPN4Json5ValueE"
    }
   ],
   "return_type" : "_ZTIb",
   "source_file" : "external/jsoncpp/include/json/reader.h"
  },
  {
   "function_name" : "Json::ValueIteratorBase::operator==",
   "linker_set_key" : "_ZNK4Json17ValueIteratorBaseeqERKS0_",
   "parameters" :
   [
    {
     "is_this_ptr" : true,
     "referenced_type" : "_ZTIPKN4Json17ValueIteratorBaseE"
    },
    {
     "referenced_type" : "_ZTIRKN4Json17ValueIteratorBaseE"
    }
   ],
   "return_type" : "_ZTIb",
   "source_file" : "external/jsoncpp/include/json/value.h"
  },
  {
   "function_name" : "Json::ValueIteratorBase::operator-",
   "linker_set_key" : "_ZNK4Json17ValueIteratorBasemiERKS0_",
   "parameters" :
   [
    {
     "is_this_ptr" : true,
     "referenced_type" : "_ZTIPKN4Json17ValueIteratorBaseE"
    },
    {
     "referenced_type" : "_ZTIRKN4Json17ValueIteratorBaseE"
    }
   ],
   "return_type" : "_ZTIi",
   "source_file" : "external/jsoncpp/include/json/value.h"
  },
  {
   "function_name" : "Json::ValueIteratorBase::operator!=",
   "linker_set_key" : "_ZNK4Json17ValueIteratorBaseneERKS0_",
   "parameters" :
   [
    {
     "is_this_ptr" : true,
     "referenced_type" : "_ZTIPKN4Json17ValueIteratorBaseE"
    },
    {
     "referenced_type" : "_ZTIRKN4Json17ValueIteratorBaseE"
    }
   ],
   "return_type" : "_ZTIb",
   "source_file" : "external/jsoncpp/include/json/value.h"
  },
  {
   "function_name" : "Json::ValueConstIterator::operator*",
   "linker_set_key" : "_ZNK4Json18ValueConstIteratordeEv",
   "parameters" :
   [
    {
     "is_this_ptr" : true,
     "referenced_type" : "_ZTIPKN4Json18ValueConstIteratorE"
    }
   ],
   "return_type" : "_ZTIRKN4Json5ValueE",
   "source_file" : "external/jsoncpp/include/json/value.h"
  },
  {
   "function_name" : "Json::ValueConstIterator::operator->",
   "linker_set_key" : "_ZNK4Json18ValueConstIteratorptEv",
   "parameters" :
   [
    {
     "is_this_ptr" : true,
     "referenced_type" : "_ZTIPKN4Json18ValueConstIteratorE"
    }
   ],
   "return_type" : "_ZTIPKN4Json5ValueE",
   "source_file" : "external/jsoncpp/include/json/value.h"
  },
  {
   "access" : "private",
   "function_name" : "Json::Value::isAllocated",
   "linker_set_key" : "_ZNK4Json5Value11isAllocatedEv",
   "parameters" :
   [
    {
     "is_this_ptr" : true,
     "referenced_type" : "_ZTIPKN4Json5ValueE"
    }
   ],
   "return_type" : "_ZTIb",
   "source_file" : "external/jsoncpp/include/json/value.h"
  },
  {
   "function_name" : "Json::Value::as",
   "linker_set_key" : "_ZNK4Json5Value2asINSt3__112basic_stringIcNS2_11char_traitsIcEENS2_9allocatorIcEEEEEET_v",
   "parameters" :
   [
    {
     "is_this_ptr" : true,
     "referenced_type" : "_ZTIPKN4Json5ValueE"
    }
   ],
   "return_type" : "_ZTINSt3__112basic_stringIcNS_11char_traitsIcEENS_9allocatorIcEEEE",
   "source_file" : "external/jsoncpp/include/json/value.h",
   "template_args" : [ "_ZTINSt3__112basic_stringIcNS_11char_traitsIcEENS_9allocatorIcEEEE" ]
  },
  {
   "function_name" : "Json::Value::as",
   "linker_set_key" : "_ZNK4Json5Value2asIPKcEET_v",
   "parameters" :
   [
    {
     "is_this_ptr" : true,
     "referenced_type" : "_ZTIPKN4Json5ValueE"
    }
   ],
   "return_type" : "_ZTIPKc",
   "source_file" : "external/jsoncpp/include/json/value.h",
   "template_args" : [ "_ZTIPKc" ]
  },
  {
   "function_name" : "Json::Value::as",
   "linker_set_key" : "_ZNK4Json5Value2asIbEET_v",
   "parameters" :
   [
    {
     "is_this_ptr" : true,
     "referenced_type" : "_ZTIPKN4Json5ValueE"
    }
   ],
   "return_type" : "_ZTIb",
   "source_file" : "external/jsoncpp/include/json/value.h",
   "template_args" : [ "_ZTIb" ]
  },
  {
   "function_name" : "Json::Value::as",
   "linker_set_key" : "_ZNK4Json5Value2asIdEET_v",
   "parameters" :
   [
    {
     "is_this_ptr" : true,
     "referenced_type" : "_ZTIPKN4Json5ValueE"
    }
   ],
   "return_type" : "_ZTId",
   "source_file" : "external/jsoncpp/include/json/value.h",
   "template_args" : [ "_ZTId" ]
  },
  {
   "function_name" : "Json::Value::as",
   "linker_set_key" : "_ZNK4Json5Value2asIfEET_v",
   "parameters" :
   [
    {
     "is_this_ptr" : true,
     "referenced_type" : "_ZTIPKN4Json5ValueE"
    }
   ],
   "return_type" : "_ZTIf",
   "source_file" : "external/jsoncpp/include/json/value.h",
   "template_args" : [ "_ZTIf" ]
  },
  {
   "function_name" : "Json::Value::as",
   "linker_set_key" : "_ZNK4Json5Value2asIiEET_v",
   "parameters" :
   [
    {
     "is_this_ptr" : true,
     "referenced_type" : "_ZTIPKN4Json5ValueE"
    }
   ],
   "return_type" : "_ZTIi",
   "source_file" : "external/jsoncpp/include/json/value.h",
   "template_args" : [ "_ZTIi" ]
  },
  {
   "function_name" : "Json::Value::as",
   "linker_set_key" : "_ZNK4Json5Value2asIjEET_v",
   "parameters" :
   [
    {
     "is_this_ptr" : true,
     "referenced_type" : "_ZTIPKN4Json5ValueE"
    }
   ],
   "return_type" : "_ZTIj",
   "source_file" : "external/jsoncpp/include/json/value.h",
   "template_args" : [ "_ZTIj" ]
  },
  {
   "function_name" : "Json::Value::as",
   "linker_set_key" : "_ZNK4Json5Value2asIlEET_v",
   "parameters" :
   [
    {
     "is_this_ptr" : true,
     "referenced_type" : "_ZTIPKN4Json5ValueE"
    }
   ],
   "return_type" : "_ZTIl",
   "source_file" : "external/jsoncpp/include/json/value.h",
   "template_args" : [ "_ZTIl" ]
  },
  {
   "function_name" : "Json::Value::as",
   "linker_set_key" : "_ZNK4Json5Value2asImEET_v",
   "parameters" :
   [
    {
     "is_this_ptr" : true,
     "referenced_type" : "_ZTIPKN4Json5ValueE"
    }
   ],
   "return_type" : "_ZTIm",
   "source_file" : "external/jsoncpp/include/json/value.h",
   "template_args" : [ "_ZTIm" ]
  },
  {
   "function_name" : "Json::Value::is",
   "linker_set_key" : "_ZNK4Json5Value2isINSt3__112basic_stringIcNS2_11char_traitsIcEENS2_9allocatorIcEEEEEEbv",
   "parameters" :
   [
    {
     "is_this_ptr" : true,
     "referenced_type" : "_ZTIPKN4Json5ValueE"
    }
   ],
   "return_type" : "_ZTIb",
   "source_file" : "external/jsoncpp/include/json/value.h",
   "template_args" : [ "_ZTINSt3__112basic_stringIcNS_11char_traitsIcEENS_9allocatorIcEEEE" ]
  },
  {
   "function_name" : "Json::Value::is",
   "linker_set_key" : "_ZNK4Json5Value2isIbEEbv",
   "parameters" :
   [
    {
     "is_this_ptr" : true,
     "referenced_type" : "_ZTIPKN4Json5ValueE"
    }
   ],
   "return_type" : "_ZTIb",
   "source_file" : "external/jsoncpp/include/json/value.h",
   "template_args" : [ "_ZTIb" ]
  },
  {
   "function_name" : "Json::Value::is",
   "linker_set_key" : "_ZNK4Json5Value2isIdEEbv",
   "parameters" :
   [
    {
     "is_this_ptr" : true,
     "referenced_type" : "_ZTIPKN4Json5ValueE"
    }
   ],
   "return_type" : "_ZTIb",
   "source_file" : "external/jsoncpp/include/json/value.h",
   "template_args" : [ "_ZTId" ]
  },
  {
   "function_name" : "Json::Value::is",
   "linker_set_key" : "_ZNK4Json5Value2isIiEEbv",
   "parameters" :
   [
    {
     "is_this_ptr" : true,
     "referenced_type" : "_ZTIPKN4Json5ValueE"
    }
   ],
   "return_type" : "_ZTIb",
   "source_file" : "external/jsoncpp/include/json/value.h",
   "template_args" : [ "_ZTIi" ]
  },
  {
   "function_name" : "Json::Value::is",
   "linker_set_key" : "_ZNK4Json5Value2isIjEEbv",
   "parameters" :
   [
    {
     "is_this_ptr" : true,
     "referenced_type" : "_ZTIPKN4Json5ValueE"
    }
   ],
   "return_type" : "_ZTIb",
   "source_file" : "external/jsoncpp/include/json/value.h",
   "template_args" : [ "_ZTIj" ]
  },
  {
   "function_name" : "Json::Value::is",
   "linker_set_key" : "_ZNK4Json5Value2isIlEEbv",
   "parameters" :
   [
    {
     "is_this_ptr" : true,
     "referenced_type" : "_ZTIPKN4Json5ValueE"
    }
   ],
   "return_type" : "_ZTIb",
   "source_file" : "external/jsoncpp/include/json/value.h",
   "template_args" : [ "_ZTIl" ]
  },
  {
   "function_name" : "Json::Value::is",
   "linker_set_key" : "_ZNK4Json5Value2isImEEbv",
   "parameters" :
   [
    {
     "is_this_ptr" : true,
     "referenced_type" : "_ZTIPKN4Json5ValueE"
    }
   ],
   "return_type" : "_ZTIb",
   "source_file" : "external/jsoncpp/include/json/value.h",
   "template_args" : [ "_ZTIm" ]
  },
  {
   "function_name" : "Json::Reader::getStructuredErrors",
   "linker_set_key" : "_ZNK4Json6Reader19getStructuredErrorsEv",
   "parameters" :
   [
    {
     "is_this_ptr" : true,
     "referenced_type" : "_ZTIPKN4Json6ReaderE"
    }
   ],
   "return_type" : "_ZTINSt3__16vectorIN4Json6Reader15StructuredErrorENS_9allocatorIS3_EEEE",
   "source_file" : "external/jsoncpp/include/json/reader.h"
  },
  {
   "function_name" : "Json::Reader::getFormatedErrorMessages",
   "linker_set_key" : "_ZNK4Json6Reader24getFormatedErrorMessagesEv",
   "parameters" :
   [
    {
     "is_this_ptr" : true,
     "referenced_type" : "_ZTIPKN4Json6ReaderE"
    }
   ],
   "return_type" : "_ZTINSt3__112basic_stringIcNS_11char_traitsIcEENS_9allocatorIcEEEE",
   "source_file" : "external/jsoncpp/include/json/reader.h"
  },
  {
   "access" : "private",
   "function_name" : "Json::Reader::getLocationLineAndColumn",
   "linker_set_key" : "_ZNK4Json6Reader24getLocationLineAndColumnEPKc",
   "parameters" :
   [
    {
     "is_this_ptr" : true,
     "referenced_type" : "_ZTIPKN4Json6ReaderE"
    },
    {
     "referenced_type" : "_ZTIPKc"
    }
   ],
   "return_type" : "_ZTINSt3__112basic_stringIcNS_11char_traitsIcEENS_9allocatorIcEEEE",
   "source_file" : "external/jsoncpp/include/json/reader.h"
  },
  {
   "access" : "private",
   "function_name" : "Json::Reader::getLocationLineAndColumn",
   "linker_set_key" : "_ZNK4Json6Reader24getLocationLineAndColumnEPKcRiS3_",
   "parameters" :
   [
    {
     "is_this_ptr" : true,
     "referenced_type" : "_ZTIPKN4Json6ReaderE"
    },
    {
     "referenced_type" : "_ZTIPKc"
    },
    {
     "referenced_type" : "_ZTIRi"
    },
    {
     "referenced_type" : "_ZTIRi"
    }
   ],
   "return_type" : "_ZTIv",
   "source_file" : "external/jsoncpp/include/json/reader.h"
  },
  {
   "function_name" : "Json::Reader::getFormattedErrorMessages",
   "linker_set_key" : "_ZNK4Json6Reader25getFormattedErrorMessagesEv",
   "parameters" :
   [
    {
     "is_this_ptr" : true,
     "referenced_type" : "_ZTIPKN4Json6ReaderE"
    }
   ],
   "return_type" : "_ZTINSt3__112basic_stringIcNS_11char_traitsIcEENS_9allocatorIcEEEE",
   "source_file" : "external/jsoncpp/include/json/reader.h"
  },
  {
   "function_name" : "Json::Reader::good",
   "linker_set_key" : "_ZNK4Json6Reader4goodEv",
   "parameters" :
   [
    {
     "is_this_ptr" : true,
     "referenced_type" : "_ZTIPKN4Json6ReaderE"
    }
   ],
   "return_type" : "_ZTIb",
   "source_file" : "external/jsoncpp/include/json/reader.h"
  }
 ],
 "global_vars" :
 [
  {
   "linker_set_key" : "_ZN4Json5Value13maxLargestIntE",
   "name" : "Json::Value::maxLargestInt",
   "referenced_type" : "_ZTIKl",
   "source_file" : "external/jsoncpp/include/json/value.h"
  },
  {
   "linker_set_key" : "_ZN4Json5Value13minLargestIntE",
   "name" : "Json::Value::minLargestInt",
   "referenced_type" : "_ZTIKl",
   "source_file" : "external/jsoncpp/include/json/value.h"
  },
  {
   "linker_set_key" : "_ZN4Json5Value14maxLargestUIntE",
   "name" : "Json::Value::maxLargestUInt",
   "referenced_type" : "_ZTIKm",
   "source_file" : "external/jsoncpp/include/json/value.h"
  },
  {
   "linker_set_key" : "_ZN4Json5Value17maxUInt64AsDoubleE",
   "name" : "Json::Value::maxUInt64AsDouble",
   "referenced_type" : "_ZTIKd",
   "source_file" : "external/jsoncpp/include/json/value.h"
  },
  {
   "linker_set_key" : "_ZN4Json5Value20defaultRealPrecisionE",
   "name" : "Json::Value::defaultRealPrecision",
   "referenced_type" : "_ZTIKj",
   "source_file" : "external/jsoncpp/include/json/value.h"
  },
  {
   "linker_set_key" : "_ZN4Json5Value4nullE",
   "name" : "Json::Value::null",
   "referenced_type" : "_ZTIRKN4Json5ValueE",
   "source_file" : "external/jsoncpp/include/json/value.h"
  },
  {
   "linker_set_key" : "_ZN4Json5Value6maxIntE",
   "name" : "Json::Value::maxInt",
   "referenced_type" : "_ZTIKi",
   "source_file" : "external/jsoncpp/include/json/value.h"
  },
  {
   "linker_set_key" : "_ZN4Json5Value6minIntE",
   "name" : "Json::Value::minInt",
   "referenced_type" : "_ZTIKi",
   "source_file" : "external/jsoncpp/include/json/value.h"
  },
  {
   "linker_set_key" : "_ZN4Json5Value7maxUIntE",
   "name" : "Json::Value::maxUInt",
   "referenced_type" : "_ZTIKj",
   "source_file" : "external/jsoncpp/include/json/value.h"
  },
  {
   "linker_set_key" : "_ZN4Json5Value7nullRefE",
   "name" : "Json::Value::nullRef",
   "referenced_type" : "_ZTIRKN4Json5ValueE",
   "source_file" : "external/jsoncpp/include/json/value.h"
  },
  {
   "linker_set_key" : "_ZN4Json5Value8maxInt64E",
   "name" : "Json::Value::maxInt64",
   "referenced_type" : "_ZTIKl",
   "source_file" : "external/jsoncpp/include/json/value.h"
  },
  {
   "linker_set_key" : "_ZN4Json5Value8minInt64E",
   "name" : "Json::Value::minInt64",
   "referenced_type" : "_ZTIKl",
   "source_file" : "external/jsoncpp/include/json/value.h"
  },
  {
   "linker_set_key" : "_ZN4Json5Value9maxUInt64E",
   "name" : "Json::Value::maxUInt64",
   "referenced_type" : "_ZTIKm",
   "source_file" : "external/jsoncpp/include/json/value.h"
  }
 ],
 "lvalue_reference_types" :
 [
  {
   "alignment" : 8,
   "linker_set_key" : "_ZTIRKN4Json10CharReader7FactoryE",
   "name" : "const Json::CharReader::Factory &",
   "referenced_type" : "_ZTIKN4Json10CharReader7FactoryE",
   "self_type" : "_ZTIRKN4Json10CharReader7FactoryE",
   "size" : 8,
   "source_file" : "external/jsoncpp/include/json/reader.h"
  },
  {
   "alignment" : 8,
   "linker_set_key" : "_ZTIRKN4Json17ValueIteratorBaseE",
   "name" : "const Json::ValueIteratorBase &",
   "referenced_type" : "_ZTIKN4Json17ValueIteratorBaseE",
   "self_type" : "_ZTIRKN4Json17ValueIteratorBaseE",
   "size" : 8,
   "source_file" : "external/jsoncpp/include/json/value.h"
  },
  {
   "alignment" : 8,
   "linker_set_key" : "_ZTIRKN4Json5ValueE",
   "name" : "const Json::Value &",
   "referenced_type" : "_ZTIKN4Json5ValueE",
   "self_type" : "_ZTIRKN4Json5ValueE",
   "size" : 8,
   "source_file" : "external/jsoncpp/include/json/value.h"
  },
  {
   "alignment" : 8,
   "linker_set_key" : "_ZTIRKN4Json8FeaturesE",
   "name" : "const Json::Features &",
   "referenced_type" : "_ZTIKN4Json8FeaturesE",
   "self_type" : "_ZTIRKN4Json8FeaturesE",
   "size" : 8,
   "source_file" : "external/jsoncpp/include/json/reader.h"
  },
  {
   "alignment" : 8,
   "linker_set_key" : "_ZTIRKNSt3__112basic_stringIcNS_11char_traitsIcEENS_9allocatorIcEEEE",
   "name" : "const std::basic_string<char, std::char_traits<char>, std::allocator<char>> &",
   "referenced_type" : "_ZTIKNSt3__112basic_stringIcNS_11char_traitsIcEENS_9allocatorIcEEEE",
   "self_type" : "_ZTIRKNSt3__112basic_stringIcNS_11char_traitsIcEENS_9allocatorIcEEEE",
   "size" : 8,
   "source_file" : "external/jsoncpp/include/json/reader.h"
  },
  {
   "alignment" : 8,
   "linker_set_key" : "_ZTIRN4Json13ValueIteratorE",
   "name" : "Json::ValueIterator &",
   "referenced_type" : "_ZTIN4Json13ValueIteratorE",
   "self_type" : "_ZTIRN4Json13ValueIteratorE",
   "size" : 8,
   "source_file" : "external/jsoncpp/include/json/value.h"
  },
  {
   "alignment" : 8,
   "linker_set_key" : "_ZTIRN4Json18ValueConstIteratorE",
   "name" : "Json::ValueConstIterator &",
   "referenced_type" : "_ZTIN4Json18ValueConstIteratorE",
   "self_type" : "_ZTIRN4Json18ValueConstIteratorE",
   "size" : 8,
   "source_file" : "external/jsoncpp/include/json/value.h"
  },
  {
   "alignment" : 8,
   "linker_set_key" : "_ZTIRN4Json5ValueE",
   "name" : "Json::Value &",
   "referenced_type" : "_ZTIN4Json5ValueE",
   "self_type" : "_ZTIRN4Json5ValueE",
   "size" : 8,
   "source_file" : "external/jsoncpp/include/json/value.h"
  },
  {
   "alignment" : 8,
   "linker_set_key" : "_ZTIRN4Json6Reader5TokenE",
   "name" : "Json::Reader::Token &",
   "referenced_type" : "_ZTIN4Json6Reader5TokenE",
   "self_type" : "_ZTIRN4Json6Reader5TokenE",
   "size" : 8,
   "source_file" : "external/jsoncpp/include/json/reader.h"
  },
  {
   "alignment" : 8,
   "linker_set_key" : "_ZTIRNSt3__112basic_stringIcNS_11char_traitsIcEENS_9allocatorIcEEEE",
   "name" : "std::basic_string<char, std::char_traits<char>, std::allocator<char>> &",
   "referenced_type" : "_ZTINSt3__112basic_stringIcNS_11char_traitsIcEENS_9allocatorIcEEEE",
   "self_type" : "_ZTIRNSt3__112basic_stringIcNS_11char_traitsIcEENS_9allocatorIcEEEE",
   "size" : 8,
   "source_file" : "external/jsoncpp/include/json/reader.h"
  },
  {
   "alignment" : 8,
   "linker_set_key" : "_ZTIRNSt3__113basic_istreamIcNS_11char_traitsIcEEEE",
   "name" : "std::basic_istream<char, std::char_traits<char>> &",
   "referenced_type" : "_ZTINSt3__113basic_istreamIcNS_11char_traitsIcEEEE",
   "self_type" : "_ZTIRNSt3__113basic_istreamIcNS_11char_traitsIcEEEE",
   "size" : 8,
   "source_file" : "external/jsoncpp/include/json/reader.h"
  },
  {
   "alignment" : 8,
   "linker_set_key" : "_ZTIRPKc",
   "name" : "const char *&",
   "referenced_type" : "_ZTIPKc",
   "self_type" : "_ZTIRPKc",
   "size" : 8,
   "source_file" : "external/jsoncpp/include/json/reader.h"
  },
  {
   "alignment" : 8,
   "linker_set_key" : "_ZTIRi",
   "name" : "int &",
   "referenced_type" : "_ZTIi",
   "self_type" : "_ZTIRi",
   "size" : 8,
   "source_file" : "external/jsoncpp/include/json/reader.h"
  },
  {
   "alignment" : 8,
   "linker_set_key" : "_ZTIRj",
   "name" : "unsigned int &",
   "referenced_type" : "_ZTIj",
   "self_type" : "_ZTIRj",
   "size" : 8,
   "source_file" : "external/jsoncpp/include/json/reader.h"
  }
 ],
 "pointer_types" :
 [
  {
   "alignment" : 8,
   "linker_set_key" : "_ZTIPKN4Json12StaticStringE",
   "name" : "const Json::StaticString *",
   "referenced_type" : "_ZTIKN4Json12StaticStringE",
   "self_type" : "_ZTIPKN4Json12StaticStringE",
   "size" : 8,
   "source_file" : "external/jsoncpp/include/json/value.h"
  },
  {
   "alignment" : 8,
   "linker_set_key" : "_ZTIPKN4Json17CharReaderBuilderE",
   "name" : "const Json::CharReaderBuilder *",
   "referenced_type" : "_ZTIKN4Json17CharReaderBuilderE",
   "self_type" : "_ZTIPKN4Json17CharReaderBuilderE",
   "size" : 8,
   "source_file" : "external/jsoncpp/include/json/reader.h"
  },
  {
   "alignment" : 8,
   "linker_set_key" : "_ZTIPKN4Json17ValueIteratorBaseE",
   "name" : "const Json::ValueIteratorBase *",
   "referenced_type" : "_ZTIKN4Json17ValueIteratorBaseE",
   "self_type" : "_ZTIPKN4Json17ValueIteratorBaseE",
   "size" : 8,
   "source_file" : "external/jsoncpp/include/json/value.h"
  },
  {
   "alignment" : 8,
   "linker_set_key" : "_ZTIPKN4Json18ValueConstIteratorE",
   "name" : "const Json::ValueConstIterator *",
   "referenced_type" : "_ZTIKN4Json18ValueConstIteratorE",
   "self_type" : "_ZTIPKN4Json18ValueConstIteratorE",
   "size" : 8,
   "source_file" : "external/jsoncpp/include/json/value.h"
  },
  {
   "alignment" : 8,
   "linker_set_key" : "_ZTIPKN4Json5ValueE",
   "name" : "const Json::Value *",
   "referenced_type" : "_ZTIKN4Json5ValueE",
   "self_type" : "_ZTIPKN4Json5ValueE",
   "size" : 8,
   "source_file" : "external/jsoncpp/include/json/value.h"
  },
  {
   "alignment" : 8,
   "linker_set_key" : "_ZTIPKN4Json6ReaderE",
   "name" : "const Json::Reader *",
   "referenced_type" : "_ZTIKN4Json6ReaderE",
   "self_type" : "_ZTIPKN4Json6ReaderE",
   "size" : 8,
   "source_file" : "external/jsoncpp/include/json/reader.h"
  },
  {
   "alignment" : 8,
   "linker_set_key" : "_ZTIPKc",
   "name" : "const char *",
   "referenced_type" : "_ZTIKc",
   "self_type" : "_ZTIPKc",
   "size" : 8,
   "source_file" : "external/jsoncpp/include/json/value.h"
  },
  {
   "alignment" : 8,
   "linker_set_key" : "_ZTIPN4Json10CharReader7FactoryE",
   "name" : "Json::CharReader::Factory *",
   "referenced_type" : "_ZTIN4Json10CharReader7FactoryE",
   "self_type" : "_ZTIPN4Json10CharReader7FactoryE",
   "size" : 8,
   "source_file" : "external/jsoncpp/include/json/reader.h"
  },
  {
   "alignment" : 8,
   "linker_set_key" : "_ZTIPN4Json10CharReaderE",
   "name" : "Json::CharReader *",
   "referenced_type" : "_ZTIN4Json10CharReaderE",
   "self_type" : "_ZTIPN4Json10CharReaderE",
   "size" : 8,
   "source_file" : "external/jsoncpp/include/json/reader.h"
  },
  {
   "alignment" : 8,
   "linker_set_key" : "_ZTIPN4Json12StaticStringE",
   "name" : "Json::StaticString *",
   "referenced_type" : "_ZTIN4Json12StaticStringE",
   "self_type" : "_ZTIPN4Json12StaticStringE",
   "size" : 8,
   "source_file" : "external/jsoncpp/include/json/value.h"
  },
  {
   "alignment" : 8,
   "linker_set_key" : "_ZTIPN4Json13ValueIteratorE",
   "name" : "Json::ValueIterator *",
   "referenced_type" : "_ZTIN4Json13ValueIteratorE",
   "self_type" : "_ZTIPN4Json13ValueIteratorE",
   "size" : 8,
   "source_file" : "external/jsoncpp/include/json/value.h"
  },
  {
   "alignment" : 8,
   "linker_set_key" : "_ZTIPN4Json17CharReaderBuilderE",
   "name" : "Json::CharReaderBuilder *",
   "referenced_type" : "_ZTIN4Json17CharReaderBuilderE",
   "self_type" : "_ZTIPN4Json17CharReaderBuilderE",
   "size" : 8,
   "source_file" : "external/jsoncpp/include/json/reader.h"
  },
  {
   "alignment" : 8,
   "linker_set_key" : "_ZTIPN4Json18ValueConstIteratorE",
   "name" : "Json::ValueConstIterator *",
   "referenced_type" : "_ZTIN4Json18ValueConstIteratorE",
   "self_type" : "_ZTIPN4Json18ValueConstIteratorE",
   "size" : 8,
   "source_file" : "external/jsoncpp/include/json/value.h"
  },
  {
   "alignment" : 8,
   "linker_set_key" : "_ZTIPN4Json5Value8CommentsE",
   "name" : "Json::Value::Comments *",
   "referenced_type" : "_ZTIN4Json5Value8CommentsE",
   "self_type" : "_ZTIPN4Json5Value8CommentsE",
   "size" : 8,
   "source_file" : "external/jsoncpp/include/json/value.h"
  },
  {
   "alignment" : 8,
   "linker_set_key" : "_ZTIPN4Json5ValueE",
   "name" : "Json::Value *",
   "referenced_type" : "_ZTIN4Json5ValueE",
   "self_type" : "_ZTIPN4Json5ValueE",
   "size" : 8,
   "source_file" : "external/jsoncpp/include/json/value.h"
  },
  {
   "alignment" : 8,
   "linker_set_key" : "_ZTIPN4Json6ReaderE",
   "name" : "Json::Reader *",
   "referenced_type" : "_ZTIN4Json6ReaderE",
   "self_type" : "_ZTIPN4Json6ReaderE",
   "size" : 8,
   "source_file" : "external/jsoncpp/include/json/reader.h"
  },
  {
   "alignment" : 8,
   "linker_set_key" : "_ZTIPN4Json8FeaturesE",
   "name" : "Json::Features *",
   "referenced_type" : "_ZTIN4Json8FeaturesE",
   "self_type" : "_ZTIPN4Json8FeaturesE",
   "size" : 8,
   "source_file" : "external/jsoncpp/include/json/json_features.h"
  },
  {
   "alignment" : 8,
   "linker_set_key" : "_ZTIPNSt3__112basic_stringIcNS_11char_traitsIcEENS_9allocatorIcEEEE",
   "name" : "std::basic_string<char, std::char_traits<char>, std::allocator<char>> *",
   "referenced_type" : "_ZTINSt3__112basic_stringIcNS_11char_traitsIcEENS_9allocatorIcEEEE",
   "self_type" : "_ZTIPNSt3__112basic_stringIcNS_11char_traitsIcEENS_9allocatorIcEEEE",
   "size" : 8,
   "source_file" : "external/jsoncpp/include/json/reader.h"
  },
  {
   "alignment" : 8,
   "linker_set_key" : "_ZTIPNSt3__13mapIN4Json5Value8CZStringES2_NS_4lessIS3_EENS_9allocatorINS_4pairIKS3_S2_EEEEEE",
   "name" : "std::map<Json::Value::CZString, Json::Value, std::less<Json::Value::CZString>, std::allocator<std::pair<const Json::Value::CZString, Json::Value>>> *",
   "referenced_type" : "_ZTINSt3__13mapIN4Json5Value8CZStringES2_NS_4lessIS3_EENS_9allocatorINS_4pairIKS3_S2_EEEEEE",
   "self_type" : "_ZTIPNSt3__13mapIN4Json5Value8CZStringES2_NS_4lessIS3_EENS_9allocatorINS_4pairIKS3_S2_EEEEEE",
   "size" : 8,
   "source_file" : "external/jsoncpp/include/json/value.h"
  },
  {
   "alignment" : 8,
   "linker_set_key" : "_ZTIPc",
   "name" : "char *",
   "referenced_type" : "_ZTIc",
   "self_type" : "_ZTIPc",
   "size" : 8,
   "source_file" : "external/jsoncpp/include/json/value.h"
  }
 ],
 "qualified_types" :
 [
  {
   "alignment" : 8,
   "is_const" : true,
   "linker_set_key" : "_ZTIKN4Json10CharReader7FactoryE",
   "name" : "const Json::CharReader::Factory",
   "referenced_type" : "_ZTIN4Json10CharReader7FactoryE",
   "self_type" : "_ZTIKN4Json10CharReader7FactoryE",
   "size" : 8,
   "source_file" : "external/jsoncpp/include/json/reader.h"
  },
  {
   "alignment" : 8,
   "is_const" : true,
   "linker_set_key" : "_ZTIKN4Json12StaticStringE",
   "name" : "const Json::StaticString",
   "referenced_type" : "_ZTIN4Json12StaticStringE",
   "self_type" : "_ZTIKN4Json12StaticStringE",
   "size" : 8,
   "source_file" : "external/jsoncpp/include/json/value.h"
  },
  {
   "alignment" : 8,
   "is_const" : true,
   "linker_set_key" : "_ZTIKN4Json17CharReaderBuilderE",
   "name" : "const Json::CharReaderBuilder",
   "referenced_type" : "_ZTIN4Json17CharReaderBuilderE",
   "self_type" : "_ZTIKN4Json17CharReaderBuilderE",
   "size" : 48,
   "source_file" : "external/jsoncpp/include/json/reader.h"
  },
  {
   "alignment" : 8,
   "is_const" : true,
   "linker_set_key" : "_ZTIKN4Json17ValueIteratorBaseE",
   "name" : "const Json::ValueIteratorBase",
   "referenced_type" : "_ZTIN4Json17ValueIteratorBaseE",
   "self_type" : "_ZTIKN4Json17ValueIteratorBaseE",
   "size" : 16,
   "source_file" : "external/jsoncpp/include/json/value.h"
  },
  {
   "alignment" : 8,
   "is_const" : true,
   "linker_set_key" : "_ZTIKN4Json18ValueConstIteratorE",
   "name" : "const Json::ValueConstIterator",
   "referenced_type" : "_ZTIN4Json18ValueConstIteratorE",
   "self_type" : "_ZTIKN4Json18ValueConstIteratorE",
   "size" : 16,
   "source_file" : "external/jsoncpp/include/json/value.h"
  },
  {
   "alignment" : 8,
   "is_const" : true,
   "linker_set_key" : "_ZTIKN4Json5ValueE",
   "name" : "const Json::Value",
   "referenced_type" : "_ZTIN4Json5ValueE",
   "self_type" : "_ZTIKN4Json5ValueE",
   "size" : 40,
   "source_file" : "external/jsoncpp/include/json/value.h"
  },
  {
   "alignment" : 8,
   "is_const" : true,
   "linker_set_key" : "_ZTIKN4Json6ReaderE",
   "name" : "const Json::Reader",
   "referenced_type" : "_ZTIN4Json6ReaderE",
   "self_type" : "_ZTIKN4Json6ReaderE",
   "size" : 192,
   "source_file" : "external/jsoncpp/include/json/reader.h"
  },
  {
   "alignment" : 1,
   "is_const" : true,
   "linker_set_key" : "_ZTIKN4Json8FeaturesE",
   "name" : "const Json::Features",
   "referenced_type" : "_ZTIN4Json8FeaturesE",
   "self_type" : "_ZTIKN4Json8FeaturesE",
   "size" : 4,
   "source_file" : "external/jsoncpp/include/json/reader.h"
  },
  {
   "alignment" : 8,
   "is_const" : true,
   "linker_set_key" : "_ZTIKNSt3__112basic_stringIcNS_11char_traitsIcEENS_9allocatorIcEEEE",
   "name" : "const std::basic_string<char, std::char_traits<char>, std::allocator<char>>",
   "referenced_type" : "_ZTINSt3__112basic_stringIcNS_11char_traitsIcEENS_9allocatorIcEEEE",
   "self_type" : "_ZTIKNSt3__112basic_stringIcNS_11char_traitsIcEENS_9allocatorIcEEEE",
   "size" : 24,
   "source_file" : "external/jsoncpp/include/json/reader.h"
  },
  {
   "alignment" : 1,
   "is_const" : true,
   "linker_set_key" : "_ZTIKc",
   "name" : "const char",
   "referenced_type" : "_ZTIc",
   "self_type" : "_ZTIKc",
   "size" : 1,
   "source_file" : "external/jsoncpp/include/json/value.h"
  },
  {
   "alignment" : 8,
   "is_const" : true,
   "linker_set_key" : "_ZTIKd",
   "name" : "const double",
   "referenced_type" : "_ZTId",
   "self_type" : "_ZTIKd",
   "size" : 8,
   "source_file" : "external/jsoncpp/include/json/value.h"
  },
  {
   "alignment" : 4,
   "is_const" : true,
   "linker_set_key" : "_ZTIKi",
   "name" : "const int",
   "referenced_type" : "_ZTIi",
   "self_type" : "_ZTIKi",
   "size" : 4,
   "source_file" : "external/jsoncpp/include/json/value.h"
  },
  {
   "alignment" : 4,
   "is_const" : true,
   "linker_set_key" : "_ZTIKj",
   "name" : "const unsigned int",
   "referenced_type" : "_ZTIj",
   "self_type" : "_ZTIKj",
   "size" : 4,
   "source_file" : "external/jsoncpp/include/json/value.h"
  },
  {
   "alignment" : 8,
   "is_const" : true,
   "linker_set_key" : "_ZTIKl",
   "name" : "const long",
   "referenced_type" : "_ZTIl",
   "self_type" : "_ZTIKl",
   "size" : 8,
   "source_file" : "external/jsoncpp/include/json/value.h"
  },
  {
   "alignment" : 8,
   "is_const" : true,
   "linker_set_key" : "_ZTIKm",
   "name" : "const unsigned long",
   "referenced_type" : "_ZTIm",
   "self_type" : "_ZTIKm",
   "size" : 8,
   "source_file" : "external/jsoncpp/include/json/value.h"
  }
 ],
 "record_types" :
 [
  {
   "alignment" : 8,
   "linker_set_key" : "_ZTIN4Json10CharReader7FactoryE",
   "name" : "Json::CharReader::Factory",
   "record_kind" : "class",
   "referenced_type" : "_ZTIN4Json10CharReader7FactoryE",
   "self_type" : "_ZTIN4Json10CharReader7FactoryE",
   "size" : 8,
   "source_file" : "external/jsoncpp/include/json/reader.h",
   "vtable_components" :
   [
    {
     "kind" : "offset_to_top"
    },
    {
     "kind" : "rtti",
     "mangled_component_name" : "_ZTIN4Json10CharReader7FactoryE"
    },
    {
     "kind" : "complete_dtor_pointer",
     "mangled_component_name" : "_ZN4Json10CharReader7FactoryD1Ev"
    },
    {
     "kind" : "deleting_dtor_pointer",
     "mangled_component_name" : "_ZN4Json10CharReader7FactoryD0Ev"
    },
    {
     "is_pure" : true,
     "mangled_component_name" : "_ZNK4Json10CharReader7Factory13newCharReaderEv"
    }
   ]
  },
  {
   "alignment" : 8,
   "linker_set_key" : "_ZTIN4Json10CharReaderE",
   "name" : "Json::CharReader",
   "record_kind" : "class",
   "referenced_type" : "_ZTIN4Json10CharReaderE",
   "self_type" : "_ZTIN4Json10CharReaderE",
   "size" : 8,
   "source_file" : "external/jsoncpp/include/json/reader.h",
   "vtable_components" :
   [
    {
     "kind" : "offset_to_top"
    },
    {
     "kind" : "rtti",
     "mangled_component_name" : "_ZTIN4Json10CharReaderE"
    },
    {
     "kind" : "complete_dtor_pointer",
     "mangled_component_name" : "_ZN4Json10CharReaderD1Ev"
    },
    {
     "kind" : "deleting_dtor_pointer",
     "mangled_component_name" : "_ZN4Json10CharReaderD0Ev"
    },
    {
     "is_pure" : true,
     "mangled_component_name" : "_ZN4Json10CharReader5parseEPKcS2_PNS_5ValueEPNSt3__112basic_stringIcNS5_11char_traitsIcEENS5_9allocatorIcEEEE"
    }
   ]
  },
  {
   "alignment" : 8,
   "fields" :
   [
    {
     "access" : "private",
     "field_name" : "key_",
     "referenced_type" : "_ZTINSt3__112basic_stringIcNS_11char_traitsIcEENS_9allocatorIcEEEE"
    },
    {
     "access" : "private",
     "field_name" : "index_",
     "field_offset" : 192,
     "referenced_type" : "_ZTIj"
    },
    {
     "access" : "private",
     "field_name" : "kind_",
     "field_offset" : 224,
     "referenced_type" : "_ZTIN4Json12PathArgument4KindE"
    }
   ],
   "linker_set_key" : "_ZTIN4Json12PathArgumentE",
   "name" : "Json::PathArgument",
   "record_kind" : "class",
   "referenced_type" : "_ZTIN4Json12PathArgumentE",
   "self_type" : "_ZTIN4Json12PathArgumentE",
   "size" : 32,
   "source_file" : "external/jsoncpp/include/json/value.h"
  },
  {
   "alignment" : 8,
   "fields" :
   [
    {
     "access" : "private",
     "field_name" : "c_str_",
     "referenced_type" : "_ZTIPKc"
    }
   ],
   "linker_set_key" : "_ZTIN4Json12StaticStringE",
   "name" : "Json::StaticString",
   "record_kind" : "class",
   "referenced_type" : "_ZTIN4Json12StaticStringE",
   "self_type" : "_ZTIN4Json12StaticStringE",
   "size" : 8,
   "source_file" : "external/jsoncpp/include/json/value.h"
  },
  {
   "alignment" : 8,
   "base_specifiers" :
   [
    {
     "referenced_type" : "_ZTIN4Json17ValueIteratorBaseE"
    }
   ],
   "linker_set_key" : "_ZTIN4Json13ValueIteratorE",
   "name" : "Json::ValueIterator",
   "record_kind" : "class",
   "referenced_type" : "_ZTIN4Json13ValueIteratorE",
   "self_type" : "_ZTIN4Json13ValueIteratorE",
   "size" : 16,
   "source_file" : "external/jsoncpp/include/json/value.h"
  },
  {
   "alignment" : 8,
   "base_specifiers" :
   [
    {
     "referenced_type" : "_ZTIN4Json10CharReader7FactoryE"
    }
   ],
   "fields" :
   [
    {
     "field_name" : "settings_",
     "field_offset" : 64,
     "referenced_type" : "_ZTIN4Json5ValueE"
    }
   ],
   "linker_set_key" : "_ZTIN4Json17CharReaderBuilderE",
   "name" : "Json::CharReaderBuilder",
   "record_kind" : "class",
   "referenced_type" : "_ZTIN4Json17CharReaderBuilderE",
   "self_type" : "_ZTIN4Json17CharReaderBuilderE",
   "size" : 48,
   "source_file" : "external/jsoncpp/include/json/reader.h",
   "vtable_components" :
   [
    {
     "kind" : "offset_to_top"
    },
    {
     "kind" : "rtti",
     "mangled_component_name" : "_ZTIN4Json17CharReaderBuilderE"
    },
    {
     "kind" : "complete_dtor_pointer",
     "mangled_component_name" : "_ZN4Json17CharReaderBuilderD1Ev"
    },
    {
     "kind" : "deleting_dtor_pointer",
     "mangled_component_name" : "_ZN4Json17CharReaderBuilderD0Ev"
    },
    {
     "mangled_component_name" : "_ZNK4Json17CharReaderBuilder13newCharReaderEv"
    }
   ]
  },
  {
   "alignment" : 8,
   "fields" :
   [
    {
     "access" : "private",
     "field_name" : "current_",
     "referenced_type" : "_ZTINSt3__114__map_iteratorINS_15__tree_iteratorINS_12__value_typeIN4Json5Value8CZStringES4_EEPNS_11__tree_nodeIS6_PvEElEEEE"
    },
    {
     "access" : "private",
     "field_name" : "isNull_",
     "field_offset" : 64,
     "referenced_type" : "_ZTIb"
    }
   ],
   "linker_set_key" : "_ZTIN4Json17ValueIteratorBaseE",
   "name" : "Json::ValueIteratorBase",
   "record_kind" : "class",
   "referenced_type" : "_ZTIN4Json17ValueIteratorBaseE",
   "self_type" : "_ZTIN4Json17ValueIteratorBaseE",
   "size" : 16,
   "source_file" : "external/jsoncpp/include/json/value.h"
  },
  {
   "alignment" : 8,
   "base_specifiers" :
   [
    {
     "referenced_type" : "_ZTIN4Json17ValueIteratorBaseE"
    }
   ],
   "linker_set_key" : "_ZTIN4Json18ValueConstIteratorE",
   "name" : "Json::ValueConstIterator",
   "record_kind" : "class",
   "referenced_type" : "_ZTIN4Json18ValueConstIteratorE",
   "self_type" : "_ZTIN4Json18ValueConstIteratorE",
   "size" : 16,
   "source_file" : "external/jsoncpp/include/json/value.h"
  },
  {
   "alignment" : 8,
   "fields" :
   [
    {
     "access" : "private",
     "field_name" : "args_",
     "referenced_type" : "_ZTINSt3__16vectorIN4Json12PathArgumentENS_9allocatorIS2_EEEE"
    }
   ],
   "linker_set_key" : "_ZTIN4Json4PathE",
   "name" : "Json::Path",
   "record_kind" : "class",
   "referenced_type" : "_ZTIN4Json4PathE",
   "self_type" : "_ZTIN4Json4PathE",
   "size" : 24,
   "source_file" : "external/jsoncpp/include/json/value.h"
  },
  {
   "access" : "private",
   "alignment" : 8,
   "fields" :
   [
    {
     "field_name" : "int_",
     "referenced_type" : "_ZTIl"
    },
    {
     "field_name" : "uint_",
     "referenced_type" : "_ZTIm"
    },
    {
     "field_name" : "real_",
     "referenced_type" : "_ZTId"
    },
    {
     "field_name" : "bool_",
     "referenced_type" : "_ZTIb"
    },
    {
     "field_name" : "string_",
     "referenced_type" : "_ZTIPc"
    },
    {
     "field_name" : "map_",
     "referenced_type" : "_ZTIPNSt3__13mapIN4Json5Value8CZStringES2_NS_4lessIS3_EENS_9allocatorINS_4pairIKS3_S2_EEEEEE"
    }
   ],
   "linker_set_key" : "_ZTIN4Json5Value11ValueHolderE",
   "name" : "Json::Value::ValueHolder",
   "record_kind" : "union",
   "referenced_type" : "_ZTIN4Json5Value11ValueHolderE",
   "self_type" : "_ZTIN4Json5Value11ValueHolderE",
   "size" : 8,
   "source_file" : "external/jsoncpp/include/json/value.h"
  },
  {
   "access" : "private",
   "alignment" : 4,
   "fields" :
   [
    {
     "field_name" : "policy_",
     "referenced_type" : "_ZTIj"
    },
    {
     "field_name" : "length_",
     "field_offset" : 2,
     "referenced_type" : "_ZTIj"
    }
   ],
   "linker_set_key" : "_ZTIN4Json5Value8CZString13StringStorageE",
   "name" : "Json::Value::CZString::StringStorage",
   "referenced_type" : "_ZTIN4Json5Value8CZString13StringStorageE",
   "self_type" : "_ZTIN4Json5Value8CZString13StringStorageE",
   "size" : 4,
   "source_file" : "external/jsoncpp/include/json/value.h"
  },
  {
   "access" : "private",
   "alignment" : 8,
   "fields" :
   [
    {
     "access" : "private",
     "field_name" : "cstr_",
     "referenced_type" : "_ZTIPKc"
    },
    {
     "access" : "private",
     "field_offset" : 64,
     "referenced_type" : "_ZTIN4Json5Value8CZStringUt_E"
    }
   ],
   "linker_set_key" : "_ZTIN4Json5Value8CZStringE",
   "name" : "Json::Value::CZString",
   "record_kind" : "class",
   "referenced_type" : "_ZTIN4Json5Value8CZStringE",
   "self_type" : "_ZTIN4Json5Value8CZStringE",
   "size" : 16,
   "source_file" : "external/jsoncpp/include/json/value.h"
  },
  {
   "access" : "private",
   "alignment" : 4,
   "fields" :
   [
    {
     "field_name" : "index_",
     "referenced_type" : "_ZTIj"
    },
    {
     "field_name" : "storage_",
     "referenced_type" : "_ZTIN4Json5Value8CZString13StringStorageE"
    }
   ],
   "is_anonymous" : true,
   "linker_set_key" : "_ZTIN4Json5Value8CZStringUt_E",
   "name" : "Json::Value::CZString::(anonymous union at external/jsoncpp/include/json/value.h:288:5)",
   "record_kind" : "union",
   "referenced_type" : "_ZTIN4Json5Value8CZStringUt_E",
   "self_type" : "_ZTIN4Json5Value8CZStringUt_E",
   "size" : 4,
   "source_file" : "external/jsoncpp/include/json/value.h"
  },
  {
   "access" : "private",
   "alignment" : 8,
   "fields" :
   [
    {
     "access" : "private",
     "field_name" : "ptr_",
     "referenced_type" : "_ZTINSt3__110unique_ptrINS_5arrayINS_12basic_stringIcNS_11char_traitsIcEENS_9allocatorIcEEEELm3EEENS_14default_deleteIS8_EEEE"
    }
   ],
   "linker_set_key" : "_ZTIN4Json5Value8CommentsE",
   "name" : "Json::Value::Comments",
   "record_kind" : "class",
   "referenced_type" : "_ZTIN4Json5Value8CommentsE",
   "self_type" : "_ZTIN4Json5Value8CommentsE",
   "size" : 8,
   "source_file" : "external/jsoncpp/include/json/value.h"
  },
  {
   "alignment" : 8,
   "fields" :
   [
    {
     "access" : "private",
     "field_name" : "value_",
     "referenced_type" : "_ZTIN4Json5Value11ValueHolderE"
    },
    {
     "access" : "private",
     "field_name" : "bits_",
     "field_offset" : 64,
     "referenced_type" : "_ZTIN4Json5ValueUt_E"
    },
    {
     "access" : "private",
     "field_name" : "comments_",
     "field_offset" : 128,
     "referenced_type" : "_ZTIN4Json5Value8CommentsE"
    },
    {
     "access" : "private",
     "field_name" : "start_",
     "field_offset" : 192,
     "referenced_type" : "_ZTIl"
    },
    {
     "access" : "private",
     "field_name" : "limit_",
     "field_offset" : 256,
     "referenced_type" : "_ZTIl"
    }
   ],
   "linker_set_key" : "_ZTIN4Json5ValueE",
   "name" : "Json::Value",
   "record_kind" : "class",
   "referenced_type" : "_ZTIN4Json5ValueE",
   "self_type" : "_ZTIN4Json5ValueE",
   "size" : 40,
   "source_file" : "external/jsoncpp/include/json/value.h"
  },
  {
   "access" : "private",
   "alignment" : 4,
   "fields" :
   [
    {
     "field_name" : "value_type_",
     "referenced_type" : "_ZTIj"
    },
    {
     "field_name" : "allocated_",
     "field_offset" : 8,
     "referenced_type" : "_ZTIj"
    }
   ],
   "is_anonymous" : true,
   "linker_set_key" : "_ZTIN4Json5ValueUt_E",
   "name" : "Json::Value::(anonymous struct at external/jsoncpp/include/json/value.h:627:3)",
   "referenced_type" : "_ZTIN4Json5ValueUt_E",
   "self_type" : "_ZTIN4Json5ValueUt_E",
   "size" : 4,
   "source_file" : "external/jsoncpp/include/json/value.h"
  },
  {
   "alignment" : 8,
   "fields" :
   [
    {
     "field_name" : "offset_start",
     "referenced_type" : "_ZTIl"
    },
    {
     "field_name" : "offset_limit",
     "field_offset" : 64,
     "referenced_type" : "_ZTIl"
    },
    {
     "field_name" : "message",
     "field_offset" : 128,
     "referenced_type" : "_ZTINSt3__112basic_stringIcNS_11char_traitsIcEENS_9allocatorIcEEEE"
    }
   ],
   "linker_set_key" : "_ZTIN4Json6Reader15StructuredErrorE",
   "name" : "Json::Reader::StructuredError",
   "referenced_type" : "_ZTIN4Json6Reader15StructuredErrorE",
   "self_type" : "_ZTIN4Json6Reader15StructuredErrorE",
   "size" : 40,
   "source_file" : "external/jsoncpp/include/json/reader.h"
  },
  {
   "access" : "private",
   "alignment" : 8,
   "fields" :
   [
    {
     "field_name" : "type_",
     "referenced_type" : "_ZTIN4Json6Reader9TokenTypeE"
    },
    {
     "field_name" : "start_",
     "field_offset" : 64,
     "referenced_type" : "_ZTIPKc"
    },
    {
     "field_name" : "end_",
     "field_offset" : 128,
     "referenced_type" : "_ZTIPKc"
    }
   ],
   "linker_set_key" : "_ZTIN4Json6Reader5TokenE",
   "name" : "Json::Reader::Token",
   "record_kind" : "class",
   "referenced_type" : "_ZTIN4Json6Reader5TokenE",
   "self_type" : "_ZTIN4Json6Reader5TokenE",
   "size" : 24,
   "source_file" : "external/jsoncpp/include/json/reader.h"
  },
  {
   "access" : "private",
   "alignment" : 8,
   "fields" :
   [
    {
     "field_name" : "token_",
     "referenced_type" : "_ZTIN4Json6Reader5TokenE"
    },
    {
     "field_name" : "message_",
     "field_offset" : 192,
     "referenced_type" : "_ZTINSt3__112basic_stringIcNS_11char_traitsIcEENS_9allocatorIcEEEE"
    },
    {
     "field_name" : "extra_",
     "field_offset" : 384,
     "referenced_type" : "_ZTIPKc"
    }
   ],
   "linker_set_key" : "_ZTIN4Json6Reader9ErrorInfoE",
   "name" : "Json::Reader::ErrorInfo",
   "record_kind" : "class",
   "referenced_type" : "_ZTIN4Json6Reader9ErrorInfoE",
   "self_type" : "_ZTIN4Json6Reader9ErrorInfoE",
   "size" : 56,
   "source_file" : "external/jsoncpp/include/json/reader.h"
  },
  {
   "alignment" : 8,
   "fields" :
   [
    {
     "access" : "private",
     "field_name" : "nodes_",
     "referenced_type" : "_ZTINSt3__15stackIPN4Json5ValueENS_5dequeIS3_NS_9allocatorIS3_EEEEEE"
    },
    {
     "access" : "private",
     "field_name" : "errors_",
     "field_offset" : 384,
     "referenced_type" : "_ZTINSt3__15dequeIN4Json6Reader9ErrorInfoENS_9allocatorIS3_EEEE"
    },
    {
     "access" : "private",
     "field_name" : "document_",
     "field_offset" : 768,
     "referenced_type" : "_ZTINSt3__112basic_stringIcNS_11char_traitsIcEENS_9allocatorIcEEEE"
    },
    {
     "access" : "private",
     "field_name" : "begin_",
     "field_offset" : 960,
     "referenced_type" : "_ZTIPKc"
    },
    {
     "access" : "private",
     "field_name" : "end_",
     "field_offset" : 1024,
     "referenced_type" : "_ZTIPKc"
    },
    {
     "access" : "private",
     "field_name" : "current_",
     "field_offset" : 1088,
     "referenced_type" : "_ZTIPKc"
    },
    {
     "access" : "private",
     "field_name" : "lastValueEnd_",
     "field_offset" : 1152,
     "referenced_type" : "_ZTIPKc"
    },
    {
     "access" : "private",
     "field_name" : "lastValue_",
     "field_offset" : 1216,
     "referenced_type" : "_ZTIPN4Json5ValueE"
    },
    {
     "access" : "private",
     "field_name" : "commentsBefore_",
     "field_offset" : 1280,
     "referenced_type" : "_ZTINSt3__112basic_stringIcNS_11char_traitsIcEENS_9allocatorIcEEEE"
    },
    {
     "access" : "private",
     "field_name" : "features_",
     "field_offset" : 1472,
     "referenced_type" : "_ZTIN4Json8FeaturesE"
    },
    {
     "access" : "private",
     "field_name" : "collectComments_",
     "field_offset" : 1504,
     "referenced_type" : "_ZTIb"
    }
   ],
   "linker_set_key" : "_ZTIN4Json6ReaderE",
   "name" : "Json::Reader",
   "record_kind" : "class",
   "referenced_type" : "_ZTIN4Json6ReaderE",
   "self_type" : "_ZTIN4Json6ReaderE",
   "size" : 192,
   "source_file" : "external/jsoncpp/include/json/reader.h"
  },
  {
   "alignment" : 1,
   "fields" :
   [
    {
     "field_name" : "allowComments_",
     "referenced_type" : "_ZTIb"
    },
    {
     "field_name" : "strictRoot_",
     "field_offset" : 8,
     "referenced_type" : "_ZTIb"
    },
    {
     "field_name" : "allowDroppedNullPlaceholders_",
     "field_offset" : 16,
     "referenced_type" : "_ZTIb"
    },
    {
     "field_name" : "allowNumericKeys_",
     "field_offset" : 24,
     "referenced_type" : "_ZTIb"
    }
   ],
   "linker_set_key" : "_ZTIN4Json8FeaturesE",
   "name" : "Json::Features",
   "record_kind" : "class",
   "referenced_type" : "_ZTIN4Json8FeaturesE",
   "self_type" : "_ZTIN4Json8FeaturesE",
   "size" : 4,
   "source_file" : "external/jsoncpp/include/json/json_features.h"
  }
 ],
 "rvalue_reference_types" : []
}
