{
 "array_types" :
 [
  {
   "alignment" : 4,
   "linker_set_key" : "_ZTIA0_i",
   "name" : "int [0]",
   "referenced_type" : "_ZTIi",
   "self_type" : "_ZTIA0_i",
   "source_file" : "system/core/libcutils/include/cutils/native_handle.h"
  },
  {
   "alignment" : 2,
   "linker_set_key" : "_ZTIA16_Ds",
   "name" : "char16_t [16]",
   "referenced_type" : "_ZTIDs",
   "self_type" : "_ZTIA16_Ds",
   "size" : 32,
   "source_file" : "system/core/libutils/include/utils/String16.h"
  },
  {
   "alignment" : 2,
   "linker_set_key" : "_ZTIA18_Ds",
   "name" : "char16_t [18]",
   "referenced_type" : "_ZTIDs",
   "self_type" : "_ZTIA18_Ds",
   "size" : 36,
   "source_file" : "system/core/libutils/include/utils/String16.h"
  },
  {
   "alignment" : 8,
   "linker_set_key" : "_ZTIA1_PKc",
   "name" : "const char *[1]",
   "referenced_type" : "_ZTIPKc",
   "self_type" : "_ZTIA1_PKc",
   "size" : 8,
   "source_file" : "frameworks/native/libs/binder/include/binder/IInterface.h"
  },
  {
   "alignment" : 2,
   "linker_set_key" : "_ZTIA20_Ds",
   "name" : "char16_t [20]",
   "referenced_type" : "_ZTIDs",
   "self_type" : "_ZTIA20_Ds",
   "size" : 40,
   "source_file" : "system/core/libutils/include/utils/String16.h"
  },
  {
   "alignment" : 2,
   "linker_set_key" : "_ZTIA21_Ds",
   "name" : "char16_t [21]",
   "referenced_type" : "_ZTIDs",
   "self_type" : "_ZTIA21_Ds",
   "size" : 42,
   "source_file" : "system/core/libutils/include/utils/String16.h"
  },
  {
   "alignment" : 2,
   "linker_set_key" : "_ZTIA24_Ds",
   "name" : "char16_t [24]",
   "referenced_type" : "_ZTIDs",
   "self_type" : "_ZTIA24_Ds",
   "size" : 48,
   "source_file" : "system/core/libutils/include/utils/String16.h"
  },
  {
   "alignment" : 2,
   "linker_set_key" : "_ZTIA25_Ds",
   "name" : "char16_t [25]",
   "referenced_type" : "_ZTIDs",
   "self_type" : "_ZTIA25_Ds",
   "size" : 50,
   "source_file" : "system/core/libutils/include/utils/String16.h"
  },
  {
   "alignment" : 2,
   "linker_set_key" : "_ZTIA26_Ds",
   "name" : "char16_t [26]",
   "referenced_type" : "_ZTIDs",
   "self_type" : "_ZTIA26_Ds",
   "size" : 52,
   "source_file" : "system/core/libutils/include/utils/String16.h"
  },
  {
   "alignment" : 2,
   "linker_set_key" : "_ZTIA27_Ds",
   "name" : "char16_t [27]",
   "referenced_type" : "_ZTIDs",
   "self_type" : "_ZTIA27_Ds",
   "size" : 54,
   "source_file" : "system/core/libutils/include/utils/String16.h"
  },
  {
   "alignment" : 2,
   "linker_set_key" : "_ZTIA30_Ds",
   "name" : "char16_t [30]",
   "referenced_type" : "_ZTIDs",
   "self_type" : "_ZTIA30_Ds",
   "size" : 60,
   "source_file" : "system/core/libutils/include/utils/String16.h"
  },
  {
   "alignment" : 2,
   "linker_set_key" : "_ZTIA31_Ds",
   "name" : "char16_t [31]",
   "referenced_type" : "_ZTIDs",
   "self_type" : "_ZTIA31_Ds",
   "size" : 62,
   "source_file" : "system/core/libutils/include/utils/String16.h"
  },
  {
   "alignment" : 2,
   "linker_set_key" : "_ZTIA32_Ds",
   "name" : "char16_t [32]",
   "referenced_type" : "_ZTIDs",
   "self_type" : "_ZTIA32_Ds",
   "size" : 64,
   "source_file" : "system/core/libutils/include/utils/String16.h"
  },
  {
   "alignment" : 2,
   "linker_set_key" : "_ZTIA33_Ds",
   "name" : "char16_t [33]",
   "referenced_type" : "_ZTIDs",
   "self_type" : "_ZTIA33_Ds",
   "size" : 66,
   "source_file" : "system/core/libutils/include/utils/String16.h"
  },
  {
   "alignment" : 2,
   "linker_set_key" : "_ZTIA35_Ds",
   "name" : "char16_t [35]",
   "referenced_type" : "_ZTIDs",
   "self_type" : "_ZTIA35_Ds",
   "size" : 70,
   "source_file" : "system/core/libutils/include/utils/String16.h"
  },
  {
   "alignment" : 2,
   "linker_set_key" : "_ZTIA36_Ds",
   "name" : "char16_t [36]",
   "referenced_type" : "_ZTIDs",
   "self_type" : "_ZTIA36_Ds",
   "size" : 72,
   "source_file" : "system/core/libutils/include/utils/String16.h"
  },
  {
   "alignment" : 2,
   "linker_set_key" : "_ZTIA38_Ds",
   "name" : "char16_t [38]",
   "referenced_type" : "_ZTIDs",
   "self_type" : "_ZTIA38_Ds",
   "size" : 76,
   "source_file" : "system/core/libutils/include/utils/String16.h"
  },
  {
   "alignment" : 2,
   "linker_set_key" : "_ZTIA39_Ds",
   "name" : "char16_t [39]",
   "referenced_type" : "_ZTIDs",
   "self_type" : "_ZTIA39_Ds",
   "size" : 78,
   "source_file" : "system/core/libutils/include/utils/String16.h"
  },
  {
   "alignment" : 2,
   "linker_set_key" : "_ZTIA40_Ds",
   "name" : "char16_t [40]",
   "referenced_type" : "_ZTIDs",
   "self_type" : "_ZTIA40_Ds",
   "size" : 80,
   "source_file" : "system/core/libutils/include/utils/String16.h"
  },
  {
   "alignment" : 2,
   "linker_set_key" : "_ZTIA43_Ds",
   "name" : "char16_t [43]",
   "referenced_type" : "_ZTIDs",
   "self_type" : "_ZTIA43_Ds",
   "size" : 86,
   "source_file" : "system/core/libutils/include/utils/String16.h"
  },
  {
   "alignment" : 8,
   "linker_set_key" : "_ZTIA76_PKc",
   "name" : "const char *[76]",
   "referenced_type" : "_ZTIPKc",
   "self_type" : "_ZTIA76_PKc",
   "size" : 608,
   "source_file" : "frameworks/native/libs/binder/include/binder/IInterface.h"
  },
  {
   "alignment" : 4,
   "linker_set_key" : "_ZTIA8_j",
   "name" : "unsigned int [8]",
   "referenced_type" : "_ZTIj",
   "self_type" : "_ZTIA8_j",
   "size" : 32,
   "source_file" : "system/core/libsystem/include/system/graphics.h"
  },
  {
   "linker_set_key" : "_ZTIA_f",
   "name" : "float []",
   "referenced_type" : "_ZTIf",
   "self_type" : "_ZTIA_f",
   "source_file" : "system/core/libsystem/include/system/graphics.h"
  }
 ],
 "builtin_types" :
 [
  {
   "alignment" : 2,
   "is_integral" : true,
   "is_unsigned" : true,
   "linker_set_key" : "_ZTIDs",
   "name" : "char16_t",
   "referenced_type" : "_ZTIDs",
   "self_type" : "_ZTIDs",
   "size" : 2
  },
  {
   "alignment" : 1,
   "is_integral" : true,
   "linker_set_key" : "_ZTIa",
   "name" : "signed char",
   "referenced_type" : "_ZTIa",
   "self_type" : "_ZTIa",
   "size" : 1
  },
  {
   "alignment" : 1,
   "is_integral" : true,
   "is_unsigned" : true,
   "linker_set_key" : "_ZTIb",
   "name" : "bool",
   "referenced_type" : "_ZTIb",
   "self_type" : "_ZTIb",
   "size" : 1
  },
  {
   "alignment" : 1,
   "is_integral" : true,
   "is_unsigned" : true,
   "linker_set_key" : "_ZTIc",
   "name" : "char",
   "referenced_type" : "_ZTIc",
   "self_type" : "_ZTIc",
   "size" : 1
  },
  {
   "alignment" : 8,
   "linker_set_key" : "_ZTId",
   "name" : "double",
   "referenced_type" : "_ZTId",
   "self_type" : "_ZTId",
   "size" : 8
  },
  {
   "alignment" : 4,
   "linker_set_key" : "_ZTIf",
   "name" : "float",
   "referenced_type" : "_ZTIf",
   "self_type" : "_ZTIf",
   "size" : 4
  },
  {
   "alignment" : 1,
   "is_integral" : true,
   "is_unsigned" : true,
   "linker_set_key" : "_ZTIh",
   "name" : "unsigned char",
   "referenced_type" : "_ZTIh",
   "self_type" : "_ZTIh",
   "size" : 1
  },
  {
   "alignment" : 4,
   "is_integral" : true,
   "linker_set_key" : "_ZTIi",
   "name" : "int",
   "referenced_type" : "_ZTIi",
   "self_type" : "_ZTIi",
   "size" : 4
  },
  {
   "alignment" : 4,
   "is_integral" : true,
   "is_unsigned" : true,
   "linker_set_key" : "_ZTIj",
   "name" : "unsigned int",
   "referenced_type" : "_ZTIj",
   "self_type" : "_ZTIj",
   "size" : 4
  },
  {
   "alignment" : 8,
   "is_integral" : true,
   "linker_set_key" : "_ZTIl",
   "name" : "long",
   "referenced_type" : "_ZTIl",
   "self_type" : "_ZTIl",
   "size" : 8
  },
  {
   "alignment" : 8,
   "is_integral" : true,
   "is_unsigned" : true,
   "linker_set_key" : "_ZTIm",
   "name" : "unsigned long",
   "referenced_type" : "_ZTIm",
   "self_type" : "_ZTIm",
   "size" : 8
  },
  {
   "alignment" : 2,
   "is_integral" : true,
   "linker_set_key" : "_ZTIs",
   "name" : "short",
   "referenced_type" : "_ZTIs",
   "self_type" : "_ZTIs",
   "size" : 2
  },
  {
   "alignment" : 2,
   "is_integral" : true,
   "is_unsigned" : true,
   "linker_set_key" : "_ZTIt",
   "name" : "unsigned short",
   "referenced_type" : "_ZTIt",
   "self_type" : "_ZTIt",
   "size" : 2
  },
  {
   "linker_set_key" : "_ZTIv",
   "name" : "void",
   "referenced_type" : "_ZTIv",
   "self_type" : "_ZTIv"
  },
  {
   "alignment" : 8,
   "is_integral" : true,
   "linker_set_key" : "_ZTIx",
   "name" : "long long",
   "referenced_type" : "_ZTIx",
   "self_type" : "_ZTIx",
   "size" : 8
  },
  {
   "alignment" : 8,
   "is_integral" : true,
   "is_unsigned" : true,
   "linker_set_key" : "_ZTIy",
   "name" : "unsigned long long",
   "referenced_type" : "_ZTIy",
   "self_type" : "_ZTIy",
   "size" : 8
  }
 ],
 "elf_functions" :
 [
  {
   "name" : "AAudioStreamBuilder_delete"
  },
  {
   "name" : "AAudioStreamBuilder_openStream"
  },
  {
   "name" : "AAudioStreamBuilder_setAllowedCapturePolicy"
  },
  {
   "name" : "AAudioStreamBuilder_setAttributionTag"
  },
  {
   "name" : "AAudioStreamBuilder_setBufferCapacityInFrames"
  },
  {
   "name" : "AAudioStreamBuilder_setChannelCount"
  },
  {
   "name" : "AAudioStreamBuilder_setChannelMask"
  },
  {
   "name" : "AAudioStreamBuilder_setContentType"
  },
  {
   "name" : "AAudioStreamBuilder_setDataCallback"
  },
  {
   "name" : "AAudioStreamBuilder_setDeviceId"
  },
  {
   "name" : "AAudioStreamBuilder_setDirection"
  },
  {
   "name" : "AAudioStreamBuilder_setErrorCallback"
  },
  {
   "name" : "AAudioStreamBuilder_setFormat"
  },
  {
   "name" : "AAudioStreamBuilder_setFramesPerDataCallback"
  },
  {
   "name" : "AAudioStreamBuilder_setInputPreset"
  },
  {
   "name" : "AAudioStreamBuilder_setIsContentSpatialized"
  },
  {
   "name" : "AAudioStreamBuilder_setPackageName"
  },
  {
   "name" : "AAudioStreamBuilder_setPerformanceMode"
  },
  {
   "name" : "AAudioStreamBuilder_setPrivacySensitive"
  },
  {
   "name" : "AAudioStreamBuilder_setSampleRate"
  },
  {
   "name" : "AAudioStreamBuilder_setSamplesPerFrame"
  },
  {
   "name" : "AAudioStreamBuilder_setSessionId"
  },
  {
   "name" : "AAudioStreamBuilder_setSharingMode"
  },
  {
   "name" : "AAudioStreamBuilder_setSpatializationBehavior"
  },
  {
   "name" : "AAudioStreamBuilder_setUsage"
  },
  {
   "name" : "AAudioStream_close"
  },
  {
   "name" : "AAudioStream_getAllowedCapturePolicy"
  },
  {
   "name" : "AAudioStream_getBufferCapacityInFrames"
  },
  {
   "name" : "AAudioStream_getBufferSizeInFrames"
  },
  {
   "name" : "AAudioStream_getChannelCount"
  },
  {
   "name" : "AAudioStream_getChannelMask"
  },
  {
   "name" : "AAudioStream_getContentType"
  },
  {
   "name" : "AAudioStream_getDeviceId"
  },
  {
   "name" : "AAudioStream_getDirection"
  },
  {
   "name" : "AAudioStream_getFormat"
  },
  {
   "name" : "AAudioStream_getFramesPerBurst"
  },
  {
   "name" : "AAudioStream_getFramesPerDataCallback"
  },
  {
   "name" : "AAudioStream_getFramesRead"
  },
  {
   "name" : "AAudioStream_getFramesWritten"
  },
  {
   "name" : "AAudioStream_getInputPreset"
  },
  {
   "name" : "AAudioStream_getPerformanceMode"
  },
  {
   "name" : "AAudioStream_getSampleRate"
  },
  {
   "name" : "AAudioStream_getSamplesPerFrame"
  },
  {
   "name" : "AAudioStream_getSessionId"
  },
  {
   "name" : "AAudioStream_getSharingMode"
  },
  {
   "name" : "AAudioStream_getSpatializationBehavior"
  },
  {
   "name" : "AAudioStream_getState"
  },
  {
   "name" : "AAudioStream_getTimestamp"
  },
  {
   "name" : "AAudioStream_getUsage"
  },
  {
   "name" : "AAudioStream_getXRunCount"
  },
  {
   "name" : "AAudioStream_isContentSpatialized"
  },
  {
   "name" : "AAudioStream_isMMapUsed"
  },
  {
   "name" : "AAudioStream_isPrivacySensitive"
  },
  {
   "name" : "AAudioStream_read"
  },
  {
   "name" : "AAudioStream_release"
  },
  {
   "name" : "AAudioStream_requestFlush"
  },
  {
   "name" : "AAudioStream_requestPause"
  },
  {
   "name" : "AAudioStream_requestStart"
  },
  {
   "name" : "AAudioStream_requestStop"
  },
  {
   "name" : "AAudioStream_setBufferSizeInFrames"
  },
  {
   "name" : "AAudioStream_waitForStateChange"
  },
  {
   "name" : "AAudioStream_write"
  },
  {
   "name" : "AAudio_convertResultToText"
  },
  {
   "name" : "AAudio_convertStreamStateToText"
  },
  {
   "name" : "AAudio_createStreamBuilder"
  },
  {
   "name" : "AAudio_getMMapPolicy"
  },
  {
   "name" : "AAudio_setMMapPolicy"
  }
 ],
 "elf_objects" : [],
 "enum_types" :
 [
  {
   "alignment" : 4,
   "enum_fields" :
   [
    {
     "enum_field_value" : 1,
     "name" : "HAL_HDR_DOLBY_VISION"
    },
    {
     "enum_field_value" : 2,
     "name" : "HAL_HDR_HDR10"
    },
    {
     "enum_field_value" : 3,
     "name" : "HAL_HDR_HLG"
    }
   ],
   "linker_set_key" : "_ZTI13android_hdr_t",
   "name" : "android_hdr_t",
   "referenced_type" : "_ZTI13android_hdr_t",
   "self_type" : "_ZTI13android_hdr_t",
   "size" : 4,
   "source_file" : "system/core/libsystem/include/system/graphics-base-v1.0.h",
   "underlying_type" : "_ZTIj"
  },
  {
   "alignment" : 4,
   "enum_fields" :
   [
    {
     "enum_field_value" : 0,
     "name" : "AAUDIO_OK"
    },
    {
     "enum_field_value" : -900,
     "name" : "AAUDIO_ERROR_BASE"
    },
    {
     "enum_field_value" : -899,
     "name" : "AAUDIO_ERROR_DISCONNECTED"
    },
    {
     "enum_field_value" : -898,
     "name" : "AAUDIO_ERROR_ILLEGAL_ARGUMENT"
    },
    {
     "enum_field_value" : -896,
     "name" : "AAUDIO_ERROR_INTERNAL"
    },
    {
     "enum_field_value" : -895,
     "name" : "AAUDIO_ERROR_INVALID_STATE"
    },
    {
     "enum_field_value" : -892,
     "name" : "AAUDIO_ERROR_INVALID_HANDLE"
    },
    {
     "enum_field_value" : -890,
     "name" : "AAUDIO_ERROR_UNIMPLEMENTED"
    },
    {
     "enum_field_value" : -889,
     "name" : "AAUDIO_ERROR_UNAVAILABLE"
    },
    {
     "enum_field_value" : -888,
     "name" : "AAUDIO_ERROR_NO_FREE_HANDLES"
    },
    {
     "enum_field_value" : -887,
     "name" : "AAUDIO_ERROR_NO_MEMORY"
    },
    {
     "enum_field_value" : -886,
     "name" : "AAUDIO_ERROR_NULL"
    },
    {
     "enum_field_value" : -885,
     "name" : "AAUDIO_ERROR_TIMEOUT"
    },
    {
     "enum_field_value" : -884,
     "name" : "AAUDIO_ERROR_WOULD_BLOCK"
    },
    {
     "enum_field_value" : -883,
     "name" : "AAUDIO_ERROR_INVALID_FORMAT"
    },
    {
     "enum_field_value" : -882,
     "name" : "AAUDIO_ERROR_OUT_OF_RANGE"
    },
    {
     "enum_field_value" : -881,
     "name" : "AAUDIO_ERROR_NO_SERVICE"
    },
    {
     "enum_field_value" : -880,
     "name" : "AAUDIO_ERROR_INVALID_RATE"
    }
   ],
   "linker_set_key" : "_ZTI18$AAUDIO_ERROR_BASE",
   "name" : "(anonymous enum at frameworks/av/media/libaaudio/include/aaudio/AAudio.h:116:1)",
   "referenced_type" : "_ZTI18$AAUDIO_ERROR_BASE",
   "self_type" : "_ZTI18$AAUDIO_ERROR_BASE",
   "size" : 4,
   "source_file" : "frameworks/av/media/libaaudio/include/aaudio/AAudio.h",
   "underlying_type" : "_ZTIi"
  },
  {
   "alignment" : 4,
   "enum_fields" :
   [
    {
     "enum_field_value" : 4,
     "name" : "HAL_HDR_HDR10_PLUS"
    }
   ],
   "linker_set_key" : "_ZTI18android_hdr_v1_2_t",
   "name" : "android_hdr_v1_2_t",
   "referenced_type" : "_ZTI18android_hdr_v1_2_t",
   "self_type" : "_ZTI18android_hdr_v1_2_t",
   "size" : 4,
   "source_file" : "system/core/libsystem/include/system/graphics-base-v1.2.h",
   "underlying_type" : "_ZTIj"
  },
  {
   "alignment" : 4,
   "enum_fields" :
   [
    {
     "enum_field_value" : 10,
     "name" : "EVENT_TYPE_LIST_STOP"
    },
    {
     "enum_field_value" : 63,
     "name" : "EVENT_TYPE_UNKNOWN"
    },
    {
     "enum_field_value" : 0,
     "name" : "EVENT_TYPE_INT"
    },
    {
     "enum_field_value" : 1,
     "name" : "EVENT_TYPE_LONG"
    },
    {
     "enum_field_value" : 2,
     "name" : "EVENT_TYPE_STRING"
    },
    {
     "enum_field_value" : 3,
     "name" : "EVENT_TYPE_LIST"
    },
    {
     "enum_field_value" : 4,
     "name" : "EVENT_TYPE_FLOAT"
    }
   ],
   "linker_set_key" : "_ZTI19AndroidEventLogType",
   "name" : "AndroidEventLogType",
   "referenced_type" : "_ZTI19AndroidEventLogType",
   "self_type" : "_ZTI19AndroidEventLogType",
   "size" : 4,
   "source_file" : "system/logging/liblog/include/log/log.h",
   "underlying_type" : "_ZTIj"
  },
  {
   "alignment" : 4,
   "enum_fields" :
   [
    {
     "enum_field_value" : 0,
     "name" : "ANDROID_LOG_UNKNOWN"
    },
    {
     "enum_field_value" : 1,
     "name" : "ANDROID_LOG_DEFAULT"
    },
    {
     "enum_field_value" : 2,
     "name" : "ANDROID_LOG_VERBOSE"
    },
    {
     "enum_field_value" : 3,
     "name" : "ANDROID_LOG_DEBUG"
    },
    {
     "enum_field_value" : 4,
     "name" : "ANDROID_LOG_INFO"
    },
    {
     "enum_field_value" : 5,
     "name" : "ANDROID_LOG_WARN"
    },
    {
     "enum_field_value" : 6,
     "name" : "ANDROID_LOG_ERROR"
    },
    {
     "enum_field_value" : 7,
     "name" : "ANDROID_LOG_FATAL"
    },
    {
     "enum_field_value" : 8,
     "name" : "ANDROID_LOG_SILENT"
    }
   ],
   "linker_set_key" : "_ZTI19android_LogPriority",
   "name" : "android_LogPriority",
   "referenced_type" : "_ZTI19android_LogPriority",
   "self_type" : "_ZTI19android_LogPriority",
   "size" : 4,
   "source_file" : "system/logging/liblog/include/android/log.h",
   "underlying_type" : "_ZTIj"
  },
  {
   "alignment" : 4,
   "enum_fields" :
   [
    {
     "enum_field_value" : 0,
     "name" : "HAL_DATASPACE_UNKNOWN"
    },
    {
     "enum_field_value" : 1,
     "name" : "HAL_DATASPACE_ARBITRARY"
    },
    {
     "enum_field_value" : 16,
     "name" : "HAL_DATASPACE_STANDARD_SHIFT"
    },
    {
     "enum_field_value" : 4128768,
     "name" : "HAL_DATASPACE_STANDARD_MASK"
    },
    {
     "enum_field_value" : 0,
     "name" : "HAL_DATASPACE_STANDARD_UNSPECIFIED"
    },
    {
     "enum_field_value" : 65536,
     "name" : "HAL_DATASPACE_STANDARD_BT709"
    },
    {
     "enum_field_value" : 131072,
     "name" : "HAL_DATASPACE_STANDARD_BT601_625"
    },
    {
     "enum_field_value" : 196608,
     "name" : "HAL_DATASPACE_STANDARD_BT601_625_UNADJUSTED"
    },
    {
     "enum_field_value" : 262144,
     "name" : "HAL_DATASPACE_STANDARD_BT601_525"
    },
    {
     "enum_field_value" : 327680,
     "name" : "HAL_DATASPACE_STANDARD_BT601_525_UNADJUSTED"
    },
    {
     "enum_field_value" : 393216,
     "name" : "HAL_DATASPACE_STANDARD_BT2020"
    },
    {
     "enum_field_value" : 458752,
     "name" : "HAL_DATASPACE_STANDARD_BT2020_CONSTANT_LUMINANCE"
    },
    {
     "enum_field_value" : 524288,
     "name" : "HAL_DATASPACE_STANDARD_BT470M"
    },
    {
     "enum_field_value" : 589824,
     "name" : "HAL_DATASPACE_STANDARD_FILM"
    },
    {
     "enum_field_value" : 655360,
     "name" : "HAL_DATASPACE_STANDARD_DCI_P3"
    },
    {
     "enum_field_value" : 720896,
     "name" : "HAL_DATASPACE_STANDARD_ADOBE_RGB"
    },
    {
     "enum_field_value" : 22,
     "name" : "HAL_DATASPACE_TRANSFER_SHIFT"
    },
    {
     "enum_field_value" : 130023424,
     "name" : "HAL_DATASPACE_TRANSFER_MASK"
    },
    {
     "enum_field_value" : 0,
     "name" : "HAL_DATASPACE_TRANSFER_UNSPECIFIED"
    },
    {
     "enum_field_value" : 4194304,
     "name" : "HAL_DATASPACE_TRANSFER_LINEAR"
    },
    {
     "enum_field_value" : 8388608,
     "name" : "HAL_DATASPACE_TRANSFER_SRGB"
    },
    {
     "enum_field_value" : 12582912,
     "name" : "HAL_DATASPACE_TRANSFER_SMPTE_170M"
    },
    {
     "enum_field_value" : 16777216,
     "name" : "HAL_DATASPACE_TRANSFER_GAMMA2_2"
    },
    {
     "enum_field_value" : 20971520,
     "name" : "HAL_DATASPACE_TRANSFER_GAMMA2_6"
    },
    {
     "enum_field_value" : 25165824,
     "name" : "HAL_DATASPACE_TRANSFER_GAMMA2_8"
    },
    {
     "enum_field_value" : 29360128,
     "name" : "HAL_DATASPACE_TRANSFER_ST2084"
    },
    {
     "enum_field_value" : 33554432,
     "name" : "HAL_DATASPACE_TRANSFER_HLG"
    },
    {
     "enum_field_value" : 27,
     "name" : "HAL_DATASPACE_RANGE_SHIFT"
    },
    {
     "enum_field_value" : 939524096,
     "name" : "HAL_DATASPACE_RANGE_MASK"
    },
    {
     "enum_field_value" : 0,
     "name" : "HAL_DATASPACE_RANGE_UNSPECIFIED"
    },
    {
     "enum_field_value" : 134217728,
     "name" : "HAL_DATASPACE_RANGE_FULL"
    },
    {
     "enum_field_value" : 268435456,
     "name" : "HAL_DATASPACE_RANGE_LIMITED"
    },
    {
     "enum_field_value" : 402653184,
     "name" : "HAL_DATASPACE_RANGE_EXTENDED"
    },
    {
     "enum_field_value" : 512,
     "name" : "HAL_DATASPACE_SRGB_LINEAR"
    },
    {
     "enum_field_value" : 138477568,
     "name" : "HAL_DATASPACE_V0_SRGB_LINEAR"
    },
    {
     "enum_field_value" : 406913024,
     "name" : "HAL_DATASPACE_V0_SCRGB_LINEAR"
    },
    {
     "enum_field_value" : 513,
     "name" : "HAL_DATASPACE_SRGB"
    },
    {
     "enum_field_value" : 142671872,
     "name" : "HAL_DATASPACE_V0_SRGB"
    },
    {
     "enum_field_value" : 411107328,
     "name" : "HAL_DATASPACE_V0_SCRGB"
    },
    {
     "enum_field_value" : 257,
     "name" : "HAL_DATASPACE_JFIF"
    },
    {
     "enum_field_value" : 146931712,
     "name" : "HAL_DATASPACE_V0_JFIF"
    },
    {
     "enum_field_value" : 258,
     "name" : "HAL_DATASPACE_BT601_625"
    },
    {
     "enum_field_value" : 281149440,
     "name" : "HAL_DATASPACE_V0_BT601_625"
    },
    {
     "enum_field_value" : 259,
     "name" : "HAL_DATASPACE_BT601_525"
    },
    {
     "enum_field_value" : 281280512,
     "name" : "HAL_DATASPACE_V0_BT601_525"
    },
    {
     "enum_field_value" : 260,
     "name" : "HAL_DATASPACE_BT709"
    },
    {
     "enum_field_value" : 281083904,
     "name" : "HAL_DATASPACE_V0_BT709"
    },
    {
     "enum_field_value" : 139067392,
     "name" : "HAL_DATASPACE_DCI_P3_LINEAR"
    },
    {
     "enum_field_value" : 155844608,
     "name" : "HAL_DATASPACE_DCI_P3"
    },
    {
     "enum_field_value" : 139067392,
     "name" : "HAL_DATASPACE_DISPLAY_P3_LINEAR"
    },
    {
     "enum_field_value" : 143261696,
     "name" : "HAL_DATASPACE_DISPLAY_P3"
    },
    {
     "enum_field_value" : 151715840,
     "name" : "HAL_DATASPACE_ADOBE_RGB"
    },
    {
     "enum_field_value" : 138805248,
     "name" : "HAL_DATASPACE_BT2020_LINEAR"
    },
    {
     "enum_field_value" : 147193856,
     "name" : "HAL_DATASPACE_BT2020"
    },
    {
     "enum_field_value" : 163971072,
     "name" : "HAL_DATASPACE_BT2020_PQ"
    },
    {
     "enum_field_value" : 4096,
     "name" : "HAL_DATASPACE_DEPTH"
    },
    {
     "enum_field_value" : 4097,
     "name" : "HAL_DATASPACE_SENSOR"
    }
   ],
   "linker_set_key" : "_ZTI19android_dataspace_t",
   "name" : "android_dataspace_t",
   "referenced_type" : "_ZTI19android_dataspace_t",
   "self_type" : "_ZTI19android_dataspace_t",
   "size" : 4,
   "source_file" : "system/core/libsystem/include/system/graphics-base-v1.0.h",
   "underlying_type" : "_ZTIj"
  },
  {
   "alignment" : 4,
   "enum_fields" :
   [
    {
     "enum_field_value" : 0,
     "name" : "FLEX_FORMAT_INVALID"
    },
    {
     "enum_field_value" : 1,
     "name" : "FLEX_FORMAT_Y"
    },
    {
     "enum_field_value" : 7,
     "name" : "FLEX_FORMAT_YCbCr"
    },
    {
     "enum_field_value" : 1073741831,
     "name" : "FLEX_FORMAT_YCbCrA"
    },
    {
     "enum_field_value" : 7168,
     "name" : "FLEX_FORMAT_RGB"
    },
    {
     "enum_field_value" : 1073748992,
     "name" : "FLEX_FORMAT_RGBA"
    }
   ],
   "linker_set_key" : "_ZTI19android_flex_format",
   "name" : "android_flex_format",
   "referenced_type" : "_ZTI19android_flex_format",
   "self_type" : "_ZTI19android_flex_format",
   "size" : 4,
   "source_file" : "system/core/libsystem/include/system/graphics.h",
   "underlying_type" : "_ZTIj"
  },
  {
   "alignment" : 4,
   "enum_fields" :
   [
    {
     "enum_field_value" : 1,
     "name" : "HAL_TRANSFORM_FLIP_H"
    },
    {
     "enum_field_value" : 2,
     "name" : "HAL_TRANSFORM_FLIP_V"
    },
    {
     "enum_field_value" : 4,
     "name" : "HAL_TRANSFORM_ROT_90"
    },
    {
     "enum_field_value" : 3,
     "name" : "HAL_TRANSFORM_ROT_180"
    },
    {
     "enum_field_value" : 7,
     "name" : "HAL_TRANSFORM_ROT_270"
    }
   ],
   "linker_set_key" : "_ZTI19android_transform_t",
   "name" : "android_transform_t",
   "referenced_type" : "_ZTI19android_transform_t",
   "self_type" : "_ZTI19android_transform_t",
   "size" : 4,
   "source_file" : "system/core/libsystem/include/system/graphics-base-v1.0.h",
   "underlying_type" : "_ZTIj"
  },
  {
   "alignment" : 4,
   "enum_fields" :
   [
    {
     "enum_field_value" : 0,
     "name" : "HAL_COLOR_MODE_NATIVE"
    },
    {
     "enum_field_value" : 1,
     "name" : "HAL_COLOR_MODE_STANDARD_BT601_625"
    },
    {
     "enum_field_value" : 2,
     "name" : "HAL_COLOR_MODE_STANDARD_BT601_625_UNADJUSTED"
    },
    {
     "enum_field_value" : 3,
     "name" : "HAL_COLOR_MODE_STANDARD_BT601_525"
    },
    {
     "enum_field_value" : 4,
     "name" : "HAL_COLOR_MODE_STANDARD_BT601_525_UNADJUSTED"
    },
    {
     "enum_field_value" : 5,
     "name" : "HAL_COLOR_MODE_STANDARD_BT709"
    },
    {
     "enum_field_value" : 6,
     "name" : "HAL_COLOR_MODE_DCI_P3"
    },
    {
     "enum_field_value" : 7,
     "name" : "HAL_COLOR_MODE_SRGB"
    },
    {
     "enum_field_value" : 8,
     "name" : "HAL_COLOR_MODE_ADOBE_RGB"
    },
    {
     "enum_field_value" : 9,
     "name" : "HAL_COLOR_MODE_DISPLAY_P3"
    }
   ],
   "linker_set_key" : "_ZTI20android_color_mode_t",
   "name" : "android_color_mode_t",
   "referenced_type" : "_ZTI20android_color_mode_t",
   "self_type" : "_ZTI20android_color_mode_t",
   "size" : 4,
   "source_file" : "system/core/libsystem/include/system/graphics-base-v1.0.h",
   "underlying_type" : "_ZTIj"
  },
  {
   "alignment" : 4,
   "enum_fields" :
   [
    {
     "enum_field_value" : 1,
     "name" : "AAUDIO_POLICY_NEVER"
    },
    {
     "enum_field_value" : 2,
     "name" : "AAUDIO_POLICY_AUTO"
    },
    {
     "enum_field_value" : 3,
     "name" : "AAUDIO_POLICY_ALWAYS"
    }
   ],
   "linker_set_key" : "_ZTI21$AAUDIO_POLICY_ALWAYS",
   "name" : "(anonymous enum at frameworks/av/media/libaaudio/include/aaudio/AAudioTesting.h:34:1)",
   "referenced_type" : "_ZTI21$AAUDIO_POLICY_ALWAYS",
   "self_type" : "_ZTI21$AAUDIO_POLICY_ALWAYS",
   "size" : 4,
   "source_file" : "frameworks/av/media/libaaudio/include/aaudio/AAudioTesting.h",
   "underlying_type" : "_ZTIj"
  },
  {
   "alignment" : 4,
   "enum_fields" :
   [
    {
     "enum_field_value" : 0,
     "name" : "SYSTEM_TIME_REALTIME"
    },
    {
     "enum_field_value" : 1,
     "name" : "SYSTEM_TIME_MONOTONIC"
    },
    {
     "enum_field_value" : 2,
     "name" : "SYSTEM_TIME_PROCESS"
    },
    {
     "enum_field_value" : 3,
     "name" : "SYSTEM_TIME_THREAD"
    },
    {
     "enum_field_value" : 4,
     "name" : "SYSTEM_TIME_BOOTTIME"
    }
   ],
   "linker_set_key" : "_ZTI21$SYSTEM_TIME_BOOTTIME",
   "name" : "(anonymous enum at system/core/libutils/include/utils/Timers.h:75:1)",
   "referenced_type" : "_ZTI21$SYSTEM_TIME_BOOTTIME",
   "self_type" : "_ZTI21$SYSTEM_TIME_BOOTTIME",
   "size" : 4,
   "source_file" : "system/core/libutils/include/utils/Timers.h",
   "underlying_type" : "_ZTIj"
  },
  {
   "alignment" : 4,
   "enum_fields" :
   [
    {
     "enum_field_value" : -1,
     "name" : "AAUDIO_FORMAT_INVALID"
    },
    {
     "enum_field_value" : 0,
     "name" : "AAUDIO_FORMAT_UNSPECIFIED"
    },
    {
     "enum_field_value" : 1,
     "name" : "AAUDIO_FORMAT_PCM_I16"
    },
    {
     "enum_field_value" : 2,
     "name" : "AAUDIO_FORMAT_PCM_FLOAT"
    },
    {
     "enum_field_value" : 3,
     "name" : "AAUDIO_FORMAT_PCM_I24_PACKED"
    },
    {
     "enum_field_value" : 4,
     "name" : "AAUDIO_FORMAT_PCM_I32"
    }
   ],
   "linker_set_key" : "_ZTI22$AAUDIO_FORMAT_INVALID",
   "name" : "(anonymous enum at frameworks/av/media/libaaudio/include/aaudio/AAudio.h:62:1)",
   "referenced_type" : "_ZTI22$AAUDIO_FORMAT_INVALID",
   "self_type" : "_ZTI22$AAUDIO_FORMAT_INVALID",
   "size" : 4,
   "source_file" : "frameworks/av/media/libaaudio/include/aaudio/AAudio.h",
   "underlying_type" : "_ZTIi"
  },
  {
   "alignment" : 4,
   "enum_fields" :
   [
    {
     "enum_field_value" : 1,
     "name" : "FLEX_COMPONENT_Y"
    },
    {
     "enum_field_value" : 2,
     "name" : "FLEX_COMPONENT_Cb"
    },
    {
     "enum_field_value" : 4,
     "name" : "FLEX_COMPONENT_Cr"
    },
    {
     "enum_field_value" : 1024,
     "name" : "FLEX_COMPONENT_R"
    },
    {
     "enum_field_value" : 2048,
     "name" : "FLEX_COMPONENT_G"
    },
    {
     "enum_field_value" : 4096,
     "name" : "FLEX_COMPONENT_B"
    },
    {
     "enum_field_value" : 1073741824,
     "name" : "FLEX_COMPONENT_A"
    }
   ],
   "linker_set_key" : "_ZTI22android_flex_component",
   "name" : "android_flex_component",
   "referenced_type" : "_ZTI22android_flex_component",
   "self_type" : "_ZTI22android_flex_component",
   "size" : 4,
   "source_file" : "system/core/libsystem/include/system/graphics.h",
   "underlying_type" : "_ZTIj"
  },
  {
   "alignment" : 4,
   "enum_fields" :
   [
    {
     "enum_field_value" : 1,
     "name" : "HAL_PIXEL_FORMAT_RGBA_8888"
    },
    {
     "enum_field_value" : 2,
     "name" : "HAL_PIXEL_FORMAT_RGBX_8888"
    },
    {
     "enum_field_value" : 3,
     "name" : "HAL_PIXEL_FORMAT_RGB_888"
    },
    {
     "enum_field_value" : 4,
     "name" : "HAL_PIXEL_FORMAT_RGB_565"
    },
    {
     "enum_field_value" : 5,
     "name" : "HAL_PIXEL_FORMAT_BGRA_8888"
    },
    {
     "enum_field_value" : 16,
     "name" : "HAL_PIXEL_FORMAT_YCBCR_422_SP"
    },
    {
     "enum_field_value" : 17,
     "name" : "HAL_PIXEL_FORMAT_YCRCB_420_SP"
    },
    {
     "enum_field_value" : 20,
     "name" : "HAL_PIXEL_FORMAT_YCBCR_422_I"
    },
    {
     "enum_field_value" : 22,
     "name" : "HAL_PIXEL_FORMAT_RGBA_FP16"
    },
    {
     "enum_field_value" : 32,
     "name" : "HAL_PIXEL_FORMAT_RAW16"
    },
    {
     "enum_field_value" : 33,
     "name" : "HAL_PIXEL_FORMAT_BLOB"
    },
    {
     "enum_field_value" : 34,
     "name" : "HAL_PIXEL_FORMAT_IMPLEMENTATION_DEFINED"
    },
    {
     "enum_field_value" : 35,
     "name" : "HAL_PIXEL_FORMAT_YCBCR_420_888"
    },
    {
     "enum_field_value" : 36,
     "name" : "HAL_PIXEL_FORMAT_RAW_OPAQUE"
    },
    {
     "enum_field_value" : 37,
     "name" : "HAL_PIXEL_FORMAT_RAW10"
    },
    {
     "enum_field_value" : 38,
     "name" : "HAL_PIXEL_FORMAT_RAW12"
    },
    {
     "enum_field_value" : 43,
     "name" : "HAL_PIXEL_FORMAT_RGBA_1010102"
    },
    {
     "enum_field_value" : 538982489,
     "name" : "HAL_PIXEL_FORMAT_Y8"
    },
    {
     "enum_field_value" : 540422489,
     "name" : "HAL_PIXEL_FORMAT_Y16"
    },
    {
     "enum_field_value" : 842094169,
     "name" : "HAL_PIXEL_FORMAT_YV12"
    }
   ],
   "linker_set_key" : "_ZTI22android_pixel_format_t",
   "name" : "android_pixel_format_t",
   "referenced_type" : "_ZTI22android_pixel_format_t",
   "self_type" : "_ZTI22android_pixel_format_t",
   "size" : 4,
   "source_file" : "system/core/libsystem/include/system/graphics-base-v1.0.h",
   "underlying_type" : "_ZTIj"
  },
  {
   "alignment" : 4,
   "enum_fields" :
   [
    {
     "enum_field_value" : 0,
     "name" : "AAUDIO_DIRECTION_OUTPUT"
    },
    {
     "enum_field_value" : 1,
     "name" : "AAUDIO_DIRECTION_INPUT"
    }
   ],
   "linker_set_key" : "_ZTI23$AAUDIO_DIRECTION_INPUT",
   "name" : "(anonymous enum at frameworks/av/media/libaaudio/include/aaudio/AAudio.h:48:1)",
   "referenced_type" : "_ZTI23$AAUDIO_DIRECTION_INPUT",
   "self_type" : "_ZTI23$AAUDIO_DIRECTION_INPUT",
   "size" : 4,
   "source_file" : "frameworks/av/media/libaaudio/include/aaudio/AAudio.h",
   "underlying_type" : "_ZTIj"
  },
  {
   "alignment" : 4,
   "enum_fields" :
   [
    {
     "enum_field_value" : 281411584,
     "name" : "HAL_DATASPACE_BT2020_ITU"
    },
    {
     "enum_field_value" : 298188800,
     "name" : "HAL_DATASPACE_BT2020_ITU_PQ"
    },
    {
     "enum_field_value" : 302383104,
     "name" : "HAL_DATASPACE_BT2020_ITU_HLG"
    },
    {
     "enum_field_value" : 168165376,
     "name" : "HAL_DATASPACE_BT2020_HLG"
    }
   ],
   "linker_set_key" : "_ZTI24android_dataspace_v1_1_t",
   "name" : "android_dataspace_v1_1_t",
   "referenced_type" : "_ZTI24android_dataspace_v1_1_t",
   "self_type" : "_ZTI24android_dataspace_v1_1_t",
   "size" : 4,
   "source_file" : "system/core/libsystem/include/system/graphics-base-v1.1.h",
   "underlying_type" : "_ZTIj"
  },
  {
   "alignment" : 4,
   "enum_fields" :
   [
    {
     "enum_field_value" : 142999552,
     "name" : "HAL_DATASPACE_DISPLAY_BT2020"
    },
    {
     "enum_field_value" : 4098,
     "name" : "HAL_DATASPACE_DYNAMIC_DEPTH"
    },
    {
     "enum_field_value" : 4099,
     "name" : "HAL_DATASPACE_JPEG_APP_SEGMENTS"
    },
    {
     "enum_field_value" : 4100,
     "name" : "HAL_DATASPACE_HEIF"
    }
   ],
   "linker_set_key" : "_ZTI24android_dataspace_v1_2_t",
   "name" : "android_dataspace_v1_2_t",
   "referenced_type" : "_ZTI24android_dataspace_v1_2_t",
   "self_type" : "_ZTI24android_dataspace_v1_2_t",
   "size" : 4,
   "source_file" : "system/core/libsystem/include/system/graphics-base-v1.2.h",
   "underlying_type" : "_ZTIj"
  },
  {
   "alignment" : 4,
   "enum_fields" :
   [
    {
     "enum_field_value" : 10,
     "name" : "HAL_COLOR_MODE_BT2020"
    },
    {
     "enum_field_value" : 11,
     "name" : "HAL_COLOR_MODE_BT2100_PQ"
    },
    {
     "enum_field_value" : 12,
     "name" : "HAL_COLOR_MODE_BT2100_HLG"
    }
   ],
   "linker_set_key" : "_ZTI25android_color_mode_v1_1_t",
   "name" : "android_color_mode_v1_1_t",
   "referenced_type" : "_ZTI25android_color_mode_v1_1_t",
   "self_type" : "_ZTI25android_color_mode_v1_1_t",
   "size" : 4,
   "source_file" : "system/core/libsystem/include/system/graphics-base-v1.1.h",
   "underlying_type" : "_ZTIj"
  },
  {
   "alignment" : 4,
   "enum_fields" :
   [
    {
     "enum_field_value" : 0,
     "name" : "HAL_COLOR_TRANSFORM_IDENTITY"
    },
    {
     "enum_field_value" : 1,
     "name" : "HAL_COLOR_TRANSFORM_ARBITRARY_MATRIX"
    },
    {
     "enum_field_value" : 2,
     "name" : "HAL_COLOR_TRANSFORM_VALUE_INVERSE"
    },
    {
     "enum_field_value" : 3,
     "name" : "HAL_COLOR_TRANSFORM_GRAYSCALE"
    },
    {
     "enum_field_value" : 4,
     "name" : "HAL_COLOR_TRANSFORM_CORRECT_PROTANOPIA"
    },
    {
     "enum_field_value" : 5,
     "name" : "HAL_COLOR_TRANSFORM_CORRECT_DEUTERANOPIA"
    },
    {
     "enum_field_value" : 6,
     "name" : "HAL_COLOR_TRANSFORM_CORRECT_TRITANOPIA"
    }
   ],
   "linker_set_key" : "_ZTI25android_color_transform_t",
   "name" : "android_color_transform_t",
   "referenced_type" : "_ZTI25android_color_transform_t",
   "self_type" : "_ZTI25android_color_transform_t",
   "size" : 4,
   "source_file" : "system/core/libsystem/include/system/graphics-base-v1.0.h",
   "underlying_type" : "_ZTIj"
  },
  {
   "alignment" : 4,
   "enum_fields" :
   [
    {
     "enum_field_value" : 39,
     "name" : "HAL_PIXEL_FORMAT_YCBCR_422_888"
    },
    {
     "enum_field_value" : 40,
     "name" : "HAL_PIXEL_FORMAT_YCBCR_444_888"
    },
    {
     "enum_field_value" : 41,
     "name" : "HAL_PIXEL_FORMAT_FLEX_RGB_888"
    },
    {
     "enum_field_value" : 42,
     "name" : "HAL_PIXEL_FORMAT_FLEX_RGBA_8888"
    }
   ],
   "linker_set_key" : "_ZTI25android_pixel_format_sw_t",
   "name" : "android_pixel_format_sw_t",
   "referenced_type" : "_ZTI25android_pixel_format_sw_t",
   "self_type" : "_ZTI25android_pixel_format_sw_t",
   "size" : 4,
   "source_file" : "system/core/libsystem/include/system/graphics-sw.h",
   "underlying_type" : "_ZTIj"
  },
  {
   "alignment" : 4,
   "enum_fields" :
   [
    {
     "enum_field_value" : 1,
     "name" : "AAUDIO_CONTENT_TYPE_SPEECH"
    },
    {
     "enum_field_value" : 2,
     "name" : "AAUDIO_CONTENT_TYPE_MUSIC"
    },
    {
     "enum_field_value" : 3,
     "name" : "AAUDIO_CONTENT_TYPE_MOVIE"
    },
    {
     "enum_field_value" : 4,
     "name" : "AAUDIO_CONTENT_TYPE_SONIFICATION"
    }
   ],
   "linker_set_key" : "_ZTI26$AAUDIO_CONTENT_TYPE_MOVIE",
   "name" : "(anonymous enum at frameworks/av/media/libaaudio/include/aaudio/AAudio.h:422:1)",
   "referenced_type" : "_ZTI26$AAUDIO_CONTENT_TYPE_MOVIE",
   "self_type" : "_ZTI26$AAUDIO_CONTENT_TYPE_MOVIE",
   "size" : 4,
   "source_file" : "frameworks/av/media/libaaudio/include/aaudio/AAudio.h",
   "underlying_type" : "_ZTIj"
  },
  {
   "alignment" : 4,
   "enum_fields" :
   [
    {
     "enum_field_value" : -1,
     "name" : "AAUDIO_SESSION_ID_NONE"
    },
    {
     "enum_field_value" : 0,
     "name" : "AAUDIO_SESSION_ID_ALLOCATE"
    }
   ],
   "linker_set_key" : "_ZTI27$AAUDIO_SESSION_ID_ALLOCATE",
   "name" : "(anonymous enum at frameworks/av/media/libaaudio/include/aaudio/AAudio.h:561:1)",
   "referenced_type" : "_ZTI27$AAUDIO_SESSION_ID_ALLOCATE",
   "self_type" : "_ZTI27$AAUDIO_SESSION_ID_ALLOCATE",
   "size" : 4,
   "source_file" : "frameworks/av/media/libaaudio/include/aaudio/AAudio.h",
   "underlying_type" : "_ZTIi"
  },
  {
   "alignment" : 4,
   "enum_fields" :
   [
    {
     "enum_field_value" : 0,
     "name" : "AAUDIO_STREAM_STATE_UNINITIALIZED"
    },
    {
     "enum_field_value" : 1,
     "name" : "AAUDIO_STREAM_STATE_UNKNOWN"
    },
    {
     "enum_field_value" : 2,
     "name" : "AAUDIO_STREAM_STATE_OPEN"
    },
    {
     "enum_field_value" : 3,
     "name" : "AAUDIO_STREAM_STATE_STARTING"
    },
    {
     "enum_field_value" : 4,
     "name" : "AAUDIO_STREAM_STATE_STARTED"
    },
    {
     "enum_field_value" : 5,
     "name" : "AAUDIO_STREAM_STATE_PAUSING"
    },
    {
     "enum_field_value" : 6,
     "name" : "AAUDIO_STREAM_STATE_PAUSED"
    },
    {
     "enum_field_value" : 7,
     "name" : "AAUDIO_STREAM_STATE_FLUSHING"
    },
    {
     "enum_field_value" : 8,
     "name" : "AAUDIO_STREAM_STATE_FLUSHED"
    },
    {
     "enum_field_value" : 9,
     "name" : "AAUDIO_STREAM_STATE_STOPPING"
    },
    {
     "enum_field_value" : 10,
     "name" : "AAUDIO_STREAM_STATE_STOPPED"
    },
    {
     "enum_field_value" : 11,
     "name" : "AAUDIO_STREAM_STATE_CLOSING"
    },
    {
     "enum_field_value" : 12,
     "name" : "AAUDIO_STREAM_STATE_CLOSED"
    },
    {
     "enum_field_value" : 13,
     "name" : "AAUDIO_STREAM_STATE_DISCONNECTED"
    }
   ],
   "linker_set_key" : "_ZTI27$AAUDIO_STREAM_STATE_CLOSED",
   "name" : "(anonymous enum at frameworks/av/media/libaaudio/include/aaudio/AAudio.h:206:1)",
   "referenced_type" : "_ZTI27$AAUDIO_STREAM_STATE_CLOSED",
   "self_type" : "_ZTI27$AAUDIO_STREAM_STATE_CLOSED",
   "size" : 4,
   "source_file" : "frameworks/av/media/libaaudio/include/aaudio/AAudio.h",
   "underlying_type" : "_ZTIj"
  },
  {
   "alignment" : 4,
   "enum_fields" :
   [
    {
     "enum_field_value" : 48,
     "name" : "HAL_PIXEL_FORMAT_DEPTH_16"
    },
    {
     "enum_field_value" : 49,
     "name" : "HAL_PIXEL_FORMAT_DEPTH_24"
    },
    {
     "enum_field_value" : 50,
     "name" : "HAL_PIXEL_FORMAT_DEPTH_24_STENCIL_8"
    },
    {
     "enum_field_value" : 51,
     "name" : "HAL_PIXEL_FORMAT_DEPTH_32F"
    },
    {
     "enum_field_value" : 52,
     "name" : "HAL_PIXEL_FORMAT_DEPTH_32F_STENCIL_8"
    },
    {
     "enum_field_value" : 53,
     "name" : "HAL_PIXEL_FORMAT_STENCIL_8"
    },
    {
     "enum_field_value" : 54,
     "name" : "HAL_PIXEL_FORMAT_YCBCR_P010"
    }
   ],
   "linker_set_key" : "_ZTI27android_pixel_format_v1_1_t",
   "name" : "android_pixel_format_v1_1_t",
   "referenced_type" : "_ZTI27android_pixel_format_v1_1_t",
   "self_type" : "_ZTI27android_pixel_format_v1_1_t",
   "size" : 4,
   "source_file" : "system/core/libsystem/include/system/graphics-base-v1.1.h",
   "underlying_type" : "_ZTIj"
  },
  {
   "alignment" : 4,
   "enum_fields" :
   [
    {
     "enum_field_value" : 55,
     "name" : "HAL_PIXEL_FORMAT_HSV_888"
    }
   ],
   "linker_set_key" : "_ZTI27android_pixel_format_v1_2_t",
   "name" : "android_pixel_format_v1_2_t",
   "referenced_type" : "_ZTI27android_pixel_format_v1_2_t",
   "self_type" : "_ZTI27android_pixel_format_v1_2_t",
   "size" : 4,
   "source_file" : "system/core/libsystem/include/system/graphics-base-v1.2.h",
   "underlying_type" : "_ZTIj"
  },
  {
   "alignment" : 4,
   "enum_fields" :
   [
    {
     "enum_field_value" : 1,
     "name" : "AAUDIO_ALLOW_CAPTURE_BY_ALL"
    },
    {
     "enum_field_value" : 2,
     "name" : "AAUDIO_ALLOW_CAPTURE_BY_SYSTEM"
    },
    {
     "enum_field_value" : 3,
     "name" : "AAUDIO_ALLOW_CAPTURE_BY_NONE"
    }
   ],
   "linker_set_key" : "_ZTI28$AAUDIO_ALLOW_CAPTURE_BY_ALL",
   "name" : "(anonymous enum at frameworks/av/media/libaaudio/include/aaudio/AAudio.h:519:1)",
   "referenced_type" : "_ZTI28$AAUDIO_ALLOW_CAPTURE_BY_ALL",
   "self_type" : "_ZTI28$AAUDIO_ALLOW_CAPTURE_BY_ALL",
   "size" : 4,
   "source_file" : "frameworks/av/media/libaaudio/include/aaudio/AAudio.h",
   "underlying_type" : "_ZTIj"
  },
  {
   "alignment" : 4,
   "enum_fields" :
   [
    {
     "enum_field_value" : 0,
     "name" : "HAL_RENDER_INTENT_COLORIMETRIC"
    },
    {
     "enum_field_value" : 1,
     "name" : "HAL_RENDER_INTENT_ENHANCE"
    },
    {
     "enum_field_value" : 2,
     "name" : "HAL_RENDER_INTENT_TONE_MAP_COLORIMETRIC"
    },
    {
     "enum_field_value" : 3,
     "name" : "HAL_RENDER_INTENT_TONE_MAP_ENHANCE"
    }
   ],
   "linker_set_key" : "_ZTI28android_render_intent_v1_1_t",
   "name" : "android_render_intent_v1_1_t",
   "referenced_type" : "_ZTI28android_render_intent_v1_1_t",
   "self_type" : "_ZTI28android_render_intent_v1_1_t",
   "size" : 4,
   "source_file" : "system/core/libsystem/include/system/graphics-base-v1.1.h",
   "underlying_type" : "_ZTIj"
  },
  {
   "alignment" : 4,
   "enum_fields" :
   [
    {
     "enum_field_value" : -1,
     "name" : "AAUDIO_CHANNEL_INVALID"
    },
    {
     "enum_field_value" : 1,
     "name" : "AAUDIO_CHANNEL_FRONT_LEFT"
    },
    {
     "enum_field_value" : 2,
     "name" : "AAUDIO_CHANNEL_FRONT_RIGHT"
    },
    {
     "enum_field_value" : 4,
     "name" : "AAUDIO_CHANNEL_FRONT_CENTER"
    },
    {
     "enum_field_value" : 8,
     "name" : "AAUDIO_CHANNEL_LOW_FREQUENCY"
    },
    {
     "enum_field_value" : 16,
     "name" : "AAUDIO_CHANNEL_BACK_LEFT"
    },
    {
     "enum_field_value" : 32,
     "name" : "AAUDIO_CHANNEL_BACK_RIGHT"
    },
    {
     "enum_field_value" : 64,
     "name" : "AAUDIO_CHANNEL_FRONT_LEFT_OF_CENTER"
    },
    {
     "enum_field_value" : 128,
     "name" : "AAUDIO_CHANNEL_FRONT_RIGHT_OF_CENTER"
    },
    {
     "enum_field_value" : 256,
     "name" : "AAUDIO_CHANNEL_BACK_CENTER"
    },
    {
     "enum_field_value" : 512,
     "name" : "AAUDIO_CHANNEL_SIDE_LEFT"
    },
    {
     "enum_field_value" : 1024,
     "name" : "AAUDIO_CHANNEL_SIDE_RIGHT"
    },
    {
     "enum_field_value" : 2048,
     "name" : "AAUDIO_CHANNEL_TOP_CENTER"
    },
    {
     "enum_field_value" : 4096,
     "name" : "AAUDIO_CHANNEL_TOP_FRONT_LEFT"
    },
    {
     "enum_field_value" : 8192,
     "name" : "AAUDIO_CHANNEL_TOP_FRONT_CENTER"
    },
    {
     "enum_field_value" : 16384,
     "name" : "AAUDIO_CHANNEL_TOP_FRONT_RIGHT"
    },
    {
     "enum_field_value" : 32768,
     "name" : "AAUDIO_CHANNEL_TOP_BACK_LEFT"
    },
    {
     "enum_field_value" : 65536,
     "name" : "AAUDIO_CHANNEL_TOP_BACK_CENTER"
    },
    {
     "enum_field_value" : 131072,
     "name" : "AAUDIO_CHANNEL_TOP_BACK_RIGHT"
    },
    {
     "enum_field_value" : 262144,
     "name" : "AAUDIO_CHANNEL_TOP_SIDE_LEFT"
    },
    {
     "enum_field_value" : 524288,
     "name" : "AAUDIO_CHANNEL_TOP_SIDE_RIGHT"
    },
    {
     "enum_field_value" : 1048576,
     "name" : "AAUDIO_CHANNEL_BOTTOM_FRONT_LEFT"
    },
    {
     "enum_field_value" : 2097152,
     "name" : "AAUDIO_CHANNEL_BOTTOM_FRONT_CENTER"
    },
    {
     "enum_field_value" : 4194304,
     "name" : "AAUDIO_CHANNEL_BOTTOM_FRONT_RIGHT"
    },
    {
     "enum_field_value" : 8388608,
     "name" : "AAUDIO_CHANNEL_LOW_FREQUENCY_2"
    },
    {
     "enum_field_value" : 16777216,
     "name" : "AAUDIO_CHANNEL_FRONT_WIDE_LEFT"
    },
    {
     "enum_field_value" : 33554432,
     "name" : "AAUDIO_CHANNEL_FRONT_WIDE_RIGHT"
    },
    {
     "enum_field_value" : 1,
     "name" : "AAUDIO_CHANNEL_MONO"
    },
    {
     "enum_field_value" : 3,
     "name" : "AAUDIO_CHANNEL_STEREO"
    },
    {
     "enum_field_value" : 11,
     "name" : "AAUDIO_CHANNEL_2POINT1"
    },
    {
     "enum_field_value" : 7,
     "name" : "AAUDIO_CHANNEL_TRI"
    },
    {
     "enum_field_value" : 259,
     "name" : "AAUDIO_CHANNEL_TRI_BACK"
    },
    {
     "enum_field_value" : 15,
     "name" : "AAUDIO_CHANNEL_3POINT1"
    },
    {
     "enum_field_value" : 786435,
     "name" : "AAUDIO_CHANNEL_2POINT0POINT2"
    },
    {
     "enum_field_value" : 786443,
     "name" : "AAUDIO_CHANNEL_2POINT1POINT2"
    },
    {
     "enum_field_value" : 786439,
     "name" : "AAUDIO_CHANNEL_3POINT0POINT2"
    },
    {
     "enum_field_value" : 786447,
     "name" : "AAUDIO_CHANNEL_3POINT1POINT2"
    },
    {
     "enum_field_value" : 51,
     "name" : "AAUDIO_CHANNEL_QUAD"
    },
    {
     "enum_field_value" : 1539,
     "name" : "AAUDIO_CHANNEL_QUAD_SIDE"
    },
    {
     "enum_field_value" : 263,
     "name" : "AAUDIO_CHANNEL_SURROUND"
    },
    {
     "enum_field_value" : 55,
     "name" : "AAUDIO_CHANNEL_PENTA"
    },
    {
     "enum_field_value" : 63,
     "name" : "AAUDIO_CHANNEL_5POINT1"
    },
    {
     "enum_field_value" : 1551,
     "name" : "AAUDIO_CHANNEL_5POINT1_SIDE"
    },
    {
     "enum_field_value" : 319,
     "name" : "AAUDIO_CHANNEL_6POINT1"
    },
    {
     "enum_field_value" : 1599,
     "name" : "AAUDIO_CHANNEL_7POINT1"
    },
    {
     "enum_field_value" : 786495,
     "name" : "AAUDIO_CHANNEL_5POINT1POINT2"
    },
    {
     "enum_field_value" : 184383,
     "name" : "AAUDIO_CHANNEL_5POINT1POINT4"
    },
    {
     "enum_field_value" : 788031,
     "name" : "AAUDIO_CHANNEL_7POINT1POINT2"
    },
    {
     "enum_field_value" : 185919,
     "name" : "AAUDIO_CHANNEL_7POINT1POINT4"
    },
    {
     "enum_field_value" : 50517567,
     "name" : "AAUDIO_CHANNEL_9POINT1POINT4"
    },
    {
     "enum_field_value" : 51303999,
     "name" : "AAUDIO_CHANNEL_9POINT1POINT6"
    },
    {
     "enum_field_value" : 260,
     "name" : "AAUDIO_CHANNEL_FRONT_BACK"
    }
   ],
   "linker_set_key" : "_ZTI29$AAUDIO_CHANNEL_2POINT0POINT2",
   "name" : "(anonymous enum at frameworks/av/media/libaaudio/include/aaudio/AAudio.h:593:1)",
   "referenced_type" : "_ZTI29$AAUDIO_CHANNEL_2POINT0POINT2",
   "self_type" : "_ZTI29$AAUDIO_CHANNEL_2POINT0POINT2",
   "size" : 4,
   "source_file" : "frameworks/av/media/libaaudio/include/aaudio/AAudio.h",
   "underlying_type" : "_ZTIi"
  },
  {
   "alignment" : 4,
   "enum_fields" :
   [
    {
     "enum_field_value" : 1,
     "name" : "AAUDIO_INPUT_PRESET_GENERIC"
    },
    {
     "enum_field_value" : 5,
     "name" : "AAUDIO_INPUT_PRESET_CAMCORDER"
    },
    {
     "enum_field_value" : 6,
     "name" : "AAUDIO_INPUT_PRESET_VOICE_RECOGNITION"
    },
    {
     "enum_field_value" : 7,
     "name" : "AAUDIO_INPUT_PRESET_VOICE_COMMUNICATION"
    },
    {
     "enum_field_value" : 9,
     "name" : "AAUDIO_INPUT_PRESET_UNPROCESSED"
    },
    {
     "enum_field_value" : 10,
     "name" : "AAUDIO_INPUT_PRESET_VOICE_PERFORMANCE"
    }
   ],
   "linker_set_key" : "_ZTI30$AAUDIO_INPUT_PRESET_CAMCORDER",
   "name" : "(anonymous enum at frameworks/av/media/libaaudio/include/aaudio/AAudio.h:472:1)",
   "referenced_type" : "_ZTI30$AAUDIO_INPUT_PRESET_CAMCORDER",
   "self_type" : "_ZTI30$AAUDIO_INPUT_PRESET_CAMCORDER",
   "size" : 4,
   "source_file" : "frameworks/av/media/libaaudio/include/aaudio/AAudio.h",
   "underlying_type" : "_ZTIj"
  },
  {
   "alignment" : 4,
   "enum_fields" :
   [
    {
     "enum_field_value" : 0,
     "name" : "AAUDIO_SHARING_MODE_EXCLUSIVE"
    },
    {
     "enum_field_value" : 1,
     "name" : "AAUDIO_SHARING_MODE_SHARED"
    }
   ],
   "linker_set_key" : "_ZTI30$AAUDIO_SHARING_MODE_EXCLUSIVE",
   "name" : "(anonymous enum at frameworks/av/media/libaaudio/include/aaudio/AAudio.h:270:1)",
   "referenced_type" : "_ZTI30$AAUDIO_SHARING_MODE_EXCLUSIVE",
   "self_type" : "_ZTI30$AAUDIO_SHARING_MODE_EXCLUSIVE",
   "size" : 4,
   "source_file" : "frameworks/av/media/libaaudio/include/aaudio/AAudio.h",
   "underlying_type" : "_ZTIj"
  },
  {
   "alignment" : 4,
   "enum_fields" :
   [
    {
     "enum_field_value" : 0,
     "name" : "AAUDIO_CALLBACK_RESULT_CONTINUE"
    },
    {
     "enum_field_value" : 1,
     "name" : "AAUDIO_CALLBACK_RESULT_STOP"
    }
   ],
   "linker_set_key" : "_ZTI32$AAUDIO_CALLBACK_RESULT_CONTINUE",
   "name" : "(anonymous enum at frameworks/av/media/libaaudio/include/aaudio/AAudio.h:1124:1)",
   "referenced_type" : "_ZTI32$AAUDIO_CALLBACK_RESULT_CONTINUE",
   "self_type" : "_ZTI32$AAUDIO_CALLBACK_RESULT_CONTINUE",
   "size" : 4,
   "source_file" : "frameworks/av/media/libaaudio/include/aaudio/AAudio.h",
   "underlying_type" : "_ZTIj"
  },
  {
   "alignment" : 4,
   "enum_fields" :
   [
    {
     "enum_field_value" : 1,
     "name" : "AAUDIO_USAGE_MEDIA"
    },
    {
     "enum_field_value" : 2,
     "name" : "AAUDIO_USAGE_VOICE_COMMUNICATION"
    },
    {
     "enum_field_value" : 3,
     "name" : "AAUDIO_USAGE_VOICE_COMMUNICATION_SIGNALLING"
    },
    {
     "enum_field_value" : 4,
     "name" : "AAUDIO_USAGE_ALARM"
    },
    {
     "enum_field_value" : 5,
     "name" : "AAUDIO_USAGE_NOTIFICATION"
    },
    {
     "enum_field_value" : 6,
     "name" : "AAUDIO_USAGE_NOTIFICATION_RINGTONE"
    },
    {
     "enum_field_value" : 10,
     "name" : "AAUDIO_USAGE_NOTIFICATION_EVENT"
    },
    {
     "enum_field_value" : 11,
     "name" : "AAUDIO_USAGE_ASSISTANCE_ACCESSIBILITY"
    },
    {
     "enum_field_value" : 12,
     "name" : "AAUDIO_USAGE_ASSISTANCE_NAVIGATION_GUIDANCE"
    },
    {
     "enum_field_value" : 13,
     "name" : "AAUDIO_USAGE_ASSISTANCE_SONIFICATION"
    },
    {
     "enum_field_value" : 14,
     "name" : "AAUDIO_USAGE_GAME"
    },
    {
     "enum_field_value" : 16,
     "name" : "AAUDIO_USAGE_ASSISTANT"
    },
    {
     "enum_field_value" : 1000,
     "name" : "AAUDIO_SYSTEM_USAGE_EMERGENCY"
    },
    {
     "enum_field_value" : 1001,
     "name" : "AAUDIO_SYSTEM_USAGE_SAFETY"
    },
    {
     "enum_field_value" : 1002,
     "name" : "AAUDIO_SYSTEM_USAGE_VEHICLE_STATUS"
    },
    {
     "enum_field_value" : 1003,
     "name" : "AAUDIO_SYSTEM_USAGE_ANNOUNCEMENT"
    }
   ],
   "linker_set_key" : "_ZTI33$AAUDIO_SYSTEM_USAGE_ANNOUNCEMENT",
   "name" : "(anonymous enum at frameworks/av/media/libaaudio/include/aaudio/AAudio.h:320:1)",
   "referenced_type" : "_ZTI33$AAUDIO_SYSTEM_USAGE_ANNOUNCEMENT",
   "self_type" : "_ZTI33$AAUDIO_SYSTEM_USAGE_ANNOUNCEMENT",
   "size" : 4,
   "source_file" : "frameworks/av/media/libaaudio/include/aaudio/AAudio.h",
   "underlying_type" : "_ZTIj"
  },
  {
   "alignment" : 4,
   "enum_fields" :
   [
    {
     "enum_field_value" : 10,
     "name" : "AAUDIO_PERFORMANCE_MODE_NONE"
    },
    {
     "enum_field_value" : 11,
     "name" : "AAUDIO_PERFORMANCE_MODE_POWER_SAVING"
    },
    {
     "enum_field_value" : 12,
     "name" : "AAUDIO_PERFORMANCE_MODE_LOW_LATENCY"
    }
   ],
   "linker_set_key" : "_ZTI36$AAUDIO_PERFORMANCE_MODE_LOW_LATENCY",
   "name" : "(anonymous enum at frameworks/av/media/libaaudio/include/aaudio/AAudio.h:286:1)",
   "referenced_type" : "_ZTI36$AAUDIO_PERFORMANCE_MODE_LOW_LATENCY",
   "self_type" : "_ZTI36$AAUDIO_PERFORMANCE_MODE_LOW_LATENCY",
   "size" : 4,
   "source_file" : "frameworks/av/media/libaaudio/include/aaudio/AAudio.h",
   "underlying_type" : "_ZTIj"
  },
  {
   "alignment" : 4,
   "enum_fields" :
   [
    {
     "enum_field_value" : 1,
     "name" : "AAUDIO_SPATIALIZATION_BEHAVIOR_AUTO"
    },
    {
     "enum_field_value" : 2,
     "name" : "AAUDIO_SPATIALIZATION_BEHAVIOR_NEVER"
    }
   ],
   "linker_set_key" : "_ZTI36$AAUDIO_SPATIALIZATION_BEHAVIOR_AUTO",
   "name" : "(anonymous enum at frameworks/av/media/libaaudio/include/aaudio/AAudio.h:447:1)",
   "referenced_type" : "_ZTI36$AAUDIO_SPATIALIZATION_BEHAVIOR_AUTO",
   "self_type" : "_ZTI36$AAUDIO_SPATIALIZATION_BEHAVIOR_AUTO",
   "size" : 4,
   "source_file" : "frameworks/av/media/libaaudio/include/aaudio/AAudio.h",
   "underlying_type" : "_ZTIj"
  },
  {
   "alignment" : 4,
   "enum_fields" :
   [
    {
     "enum_field_value" : 0,
     "name" : "LOG_ID_MIN"
    },
    {
     "enum_field_value" : 0,
     "name" : "LOG_ID_MAIN"
    },
    {
     "enum_field_value" : 1,
     "name" : "LOG_ID_RADIO"
    },
    {
     "enum_field_value" : 2,
     "name" : "LOG_ID_EVENTS"
    },
    {
     "enum_field_value" : 3,
     "name" : "LOG_ID_SYSTEM"
    },
    {
     "enum_field_value" : 4,
     "name" : "LOG_ID_CRASH"
    },
    {
     "enum_field_value" : 5,
     "name" : "LOG_ID_STATS"
    },
    {
     "enum_field_value" : 6,
     "name" : "LOG_ID_SECURITY"
    },
    {
     "enum_field_value" : 7,
     "name" : "LOG_ID_KERNEL"
    },
    {
     "enum_field_value" : 8,
     "name" : "LOG_ID_MAX"
    },
    {
     "enum_field_value" : 2147483647,
     "name" : "LOG_ID_DEFAULT"
    }
   ],
   "linker_set_key" : "_ZTI6log_id",
   "name" : "log_id",
   "referenced_type" : "_ZTI6log_id",
   "self_type" : "_ZTI6log_id",
   "size" : 4,
   "source_file" : "system/logging/liblog/include/android/log.h",
   "underlying_type" : "_ZTIj"
  },
  {
   "alignment" : 4,
   "enum_fields" :
   [
    {
     "enum_field_value" : 0,
     "name" : "android::Parcelable::Stability::STABILITY_LOCAL"
    },
    {
     "enum_field_value" : 1,
     "name" : "android::Parcelable::Stability::STABILITY_VINTF"
    }
   ],
   "linker_set_key" : "_ZTIN7android10Parcelable9StabilityE",
   "name" : "android::Parcelable::Stability",
   "referenced_type" : "_ZTIN7android10Parcelable9StabilityE",
   "self_type" : "_ZTIN7android10Parcelable9StabilityE",
   "size" : 4,
   "source_file" : "frameworks/native/libs/binder/include/binder/Parcelable.h",
   "underlying_type" : "_ZTIi"
  },
  {
   "alignment" : 4,
   "enum_fields" :
   [
    {
     "enum_field_value" : 1,
     "name" : "android::VectorImpl::HAS_TRIVIAL_CTOR"
    },
    {
     "enum_field_value" : 2,
     "name" : "android::VectorImpl::HAS_TRIVIAL_DTOR"
    },
    {
     "enum_field_value" : 4,
     "name" : "android::VectorImpl::HAS_TRIVIAL_COPY"
    }
   ],
   "linker_set_key" : "_ZTIN7android10VectorImpl17$HAS_TRIVIAL_COPYE",
   "name" : "android::VectorImpl::(anonymous enum at system/core/libutils/include/utils/VectorImpl.h:43:5)",
   "referenced_type" : "_ZTIN7android10VectorImpl17$HAS_TRIVIAL_COPYE",
   "self_type" : "_ZTIN7android10VectorImpl17$HAS_TRIVIAL_COPYE",
   "size" : 4,
   "source_file" : "system/core/libutils/include/utils/VectorImpl.h",
   "underlying_type" : "_ZTIj"
  },
  {
   "alignment" : 4,
   "enum_fields" :
   [
    {
     "enum_field_value" : 0,
     "name" : "android::trait_pointer<android::key_value_pair_t<android::String8, android::String8>>::value"
    }
   ],
   "linker_set_key" : "_ZTIN7android13trait_pointerINS_16key_value_pair_tINS_7String8ES2_EEE6$valueE",
   "name" : "android::trait_pointer<key_value_pair_t<String8, String8>>::(anonymous enum at system/core/libutils/include/utils/TypeHelpers.h:39:51)",
   "referenced_type" : "_ZTIN7android13trait_pointerINS_16key_value_pair_tINS_7String8ES2_EEE6$valueE",
   "self_type" : "_ZTIN7android13trait_pointerINS_16key_value_pair_tINS_7String8ES2_EEE6$valueE",
   "size" : 4,
   "source_file" : "system/core/libutils/include/utils/TypeHelpers.h",
   "underlying_type" : "_ZTIj"
  },
  {
   "alignment" : 4,
   "enum_fields" :
   [
    {
     "enum_field_value" : 0,
     "name" : "android::trait_pointer<android::key_value_pair_t<int, android::sp<android::AudioIoDescriptor>>>::value"
    }
   ],
   "linker_set_key" : "_ZTIN7android13trait_pointerINS_16key_value_pair_tIiNS_2spINS_17AudioIoDescriptorEEEEEE6$valueE",
   "name" : "android::trait_pointer<key_value_pair_t<int, sp<AudioIoDescriptor>>>::(anonymous enum at system/core/libutils/include/utils/TypeHelpers.h:39:51)",
   "referenced_type" : "_ZTIN7android13trait_pointerINS_16key_value_pair_tIiNS_2spINS_17AudioIoDescriptorEEEEEE6$valueE",
   "self_type" : "_ZTIN7android13trait_pointerINS_16key_value_pair_tIiNS_2spINS_17AudioIoDescriptorEEEEEE6$valueE",
   "size" : 4,
   "source_file" : "system/core/libutils/include/utils/TypeHelpers.h",
   "underlying_type" : "_ZTIj"
  },
  {
   "alignment" : 4,
   "enum_fields" :
   [
    {
     "enum_field_value" : 0,
     "name" : "android::trait_pointer<android::AudioMixMatchCriterion>::value"
    }
   ],
   "linker_set_key" : "_ZTIN7android13trait_pointerINS_22AudioMixMatchCriterionEE6$valueE",
   "name" : "android::trait_pointer<AudioMixMatchCriterion>::(anonymous enum at system/core/libutils/include/utils/TypeHelpers.h:39:51)",
   "referenced_type" : "_ZTIN7android13trait_pointerINS_22AudioMixMatchCriterionEE6$valueE",
   "self_type" : "_ZTIN7android13trait_pointerINS_22AudioMixMatchCriterionEE6$valueE",
   "size" : 4,
   "source_file" : "system/core/libutils/include/utils/TypeHelpers.h",
   "underlying_type" : "_ZTIj"
  },
  {
   "alignment" : 4,
   "enum_fields" :
   [
    {
     "enum_field_value" : 0,
     "name" : "android::trait_pointer<android::sp<android::AudioSystem::AudioPortCallback>>::value"
    }
   ],
   "linker_set_key" : "_ZTIN7android13trait_pointerINS_2spINS_11AudioSystem17AudioPortCallbackEEEE6$valueE",
   "name" : "android::trait_pointer<sp<AudioPortCallback>>::(anonymous enum at system/core/libutils/include/utils/TypeHelpers.h:39:51)",
   "referenced_type" : "_ZTIN7android13trait_pointerINS_2spINS_11AudioSystem17AudioPortCallbackEEEE6$valueE",
   "self_type" : "_ZTIN7android13trait_pointerINS_2spINS_11AudioSystem17AudioPortCallbackEEEE6$valueE",
   "size" : 4,
   "source_file" : "system/core/libutils/include/utils/TypeHelpers.h",
   "underlying_type" : "_ZTIj"
  },
  {
   "alignment" : 4,
   "enum_fields" :
   [
    {
     "enum_field_value" : 0,
     "name" : "android::trait_pointer<android::sp<android::AudioSystem::AudioVolumeGroupCallback>>::value"
    }
   ],
   "linker_set_key" : "_ZTIN7android13trait_pointerINS_2spINS_11AudioSystem24AudioVolumeGroupCallbackEEEE6$valueE",
   "name" : "android::trait_pointer<sp<AudioVolumeGroupCallback>>::(anonymous enum at system/core/libutils/include/utils/TypeHelpers.h:39:51)",
   "referenced_type" : "_ZTIN7android13trait_pointerINS_2spINS_11AudioSystem24AudioVolumeGroupCallbackEEEE6$valueE",
   "self_type" : "_ZTIN7android13trait_pointerINS_2spINS_11AudioSystem24AudioVolumeGroupCallbackEEEE6$valueE",
   "size" : 4,
   "source_file" : "system/core/libutils/include/utils/TypeHelpers.h",
   "underlying_type" : "_ZTIj"
  },
  {
   "alignment" : 4,
   "enum_fields" :
   [
    {
     "enum_field_value" : 0,
     "name" : "android::trait_pointer<android::sp<android::AudioIoDescriptor>>::value"
    }
   ],
   "linker_set_key" : "_ZTIN7android13trait_pointerINS_2spINS_17AudioIoDescriptorEEEE6$valueE",
   "name" : "android::trait_pointer<sp<AudioIoDescriptor>>::(anonymous enum at system/core/libutils/include/utils/TypeHelpers.h:39:51)",
   "referenced_type" : "_ZTIN7android13trait_pointerINS_2spINS_17AudioIoDescriptorEEEE6$valueE",
   "self_type" : "_ZTIN7android13trait_pointerINS_2spINS_17AudioIoDescriptorEEEE6$valueE",
   "size" : 4,
   "source_file" : "system/core/libutils/include/utils/TypeHelpers.h",
   "underlying_type" : "_ZTIj"
  },
  {
   "alignment" : 4,
   "enum_fields" :
   [
    {
     "enum_field_value" : 0,
     "name" : "android::trait_pointer<android::String8>::value"
    }
   ],
   "linker_set_key" : "_ZTIN7android13trait_pointerINS_7String8EE6$valueE",
   "name" : "android::trait_pointer<String8>::(anonymous enum at system/core/libutils/include/utils/TypeHelpers.h:39:51)",
   "referenced_type" : "_ZTIN7android13trait_pointerINS_7String8EE6$valueE",
   "self_type" : "_ZTIN7android13trait_pointerINS_7String8EE6$valueE",
   "size" : 4,
   "source_file" : "system/core/libutils/include/utils/TypeHelpers.h",
   "underlying_type" : "_ZTIj"
  },
  {
   "alignment" : 4,
   "enum_fields" :
   [
    {
     "enum_field_value" : 0,
     "name" : "android::trait_pointer<int>::value"
    }
   ],
   "linker_set_key" : "_ZTIN7android13trait_pointerIiE6$valueE",
   "name" : "android::trait_pointer<int>::(anonymous enum at system/core/libutils/include/utils/TypeHelpers.h:39:51)",
   "referenced_type" : "_ZTIN7android13trait_pointerIiE6$valueE",
   "self_type" : "_ZTIN7android13trait_pointerIiE6$valueE",
   "size" : 4,
   "source_file" : "system/core/libutils/include/utils/TypeHelpers.h",
   "underlying_type" : "_ZTIj"
  },
  {
   "alignment" : 4,
   "enum_fields" :
   [
    {
     "enum_field_value" : 0,
     "name" : "android::OK"
    },
    {
     "enum_field_value" : 0,
     "name" : "android::NO_ERROR"
    },
    {
     "enum_field_value" : -2147483648,
     "name" : "android::UNKNOWN_ERROR"
    },
    {
     "enum_field_value" : -12,
     "name" : "android::NO_MEMORY"
    },
    {
     "enum_field_value" : -38,
     "name" : "android::INVALID_OPERATION"
    },
    {
     "enum_field_value" : -22,
     "name" : "android::BAD_VALUE"
    },
    {
     "enum_field_value" : -2147483647,
     "name" : "android::BAD_TYPE"
    },
    {
     "enum_field_value" : -2,
     "name" : "android::NAME_NOT_FOUND"
    },
    {
     "enum_field_value" : -1,
     "name" : "android::PERMISSION_DENIED"
    },
    {
     "enum_field_value" : -19,
     "name" : "android::NO_INIT"
    },
    {
     "enum_field_value" : -17,
     "name" : "android::ALREADY_EXISTS"
    },
    {
     "enum_field_value" : -32,
     "name" : "android::DEAD_OBJECT"
    },
    {
     "enum_field_value" : -2147483646,
     "name" : "android::FAILED_TRANSACTION"
    },
    {
     "enum_field_value" : -75,
     "name" : "android::BAD_INDEX"
    },
    {
     "enum_field_value" : -61,
     "name" : "android::NOT_ENOUGH_DATA"
    },
    {
     "enum_field_value" : -11,
     "name" : "android::WOULD_BLOCK"
    },
    {
     "enum_field_value" : -110,
     "name" : "android::TIMED_OUT"
    },
    {
     "enum_field_value" : -74,
     "name" : "android::UNKNOWN_TRANSACTION"
    },
    {
     "enum_field_value" : -2147483641,
     "name" : "android::FDS_NOT_ALLOWED"
    },
    {
     "enum_field_value" : -2147483640,
     "name" : "android::UNEXPECTED_NULL"
    }
   ],
   "linker_set_key" : "_ZTIN7android15$ALREADY_EXISTSE",
   "name" : "android::(anonymous enum at system/core/libutils/include/utils/Errors.h:43:1)",
   "referenced_type" : "_ZTIN7android15$ALREADY_EXISTSE",
   "self_type" : "_ZTIN7android15$ALREADY_EXISTSE",
   "size" : 4,
   "source_file" : "system/core/libutils/include/utils/Errors.h",
   "underlying_type" : "_ZTIi"
  },
  {
   "alignment" : 4,
   "enum_fields" :
   [
    {
     "enum_field_value" : 0,
     "name" : "android::aggregate_traits<android::String8, android::String8>::is_pointer"
    },
    {
     "enum_field_value" : 0,
     "name" : "android::aggregate_traits<android::String8, android::String8>::has_trivial_ctor"
    },
    {
     "enum_field_value" : 0,
     "name" : "android::aggregate_traits<android::String8, android::String8>::has_trivial_dtor"
    },
    {
     "enum_field_value" : 0,
     "name" : "android::aggregate_traits<android::String8, android::String8>::has_trivial_copy"
    },
    {
     "enum_field_value" : 1,
     "name" : "android::aggregate_traits<android::String8, android::String8>::has_trivial_move"
    }
   ],
   "linker_set_key" : "_ZTIN7android16aggregate_traitsINS_7String8ES1_E17$has_trivial_copyE",
   "name" : "android::aggregate_traits<String8, String8>::(anonymous enum at system/core/libutils/include/utils/TypeHelpers.h:60:5)",
   "referenced_type" : "_ZTIN7android16aggregate_traitsINS_7String8ES1_E17$has_trivial_copyE",
   "self_type" : "_ZTIN7android16aggregate_traitsINS_7String8ES1_E17$has_trivial_copyE",
   "size" : 4,
   "source_file" : "system/core/libutils/include/utils/TypeHelpers.h",
   "underlying_type" : "_ZTIj"
  },
  {
   "alignment" : 4,
   "enum_fields" :
   [
    {
     "enum_field_value" : 0,
     "name" : "android::aggregate_traits<int, android::sp<android::AudioIoDescriptor>>::is_pointer"
    },
    {
     "enum_field_value" : 0,
     "name" : "android::aggregate_traits<int, android::sp<android::AudioIoDescriptor>>::has_trivial_ctor"
    },
    {
     "enum_field_value" : 0,
     "name" : "android::aggregate_traits<int, android::sp<android::AudioIoDescriptor>>::has_trivial_dtor"
    },
    {
     "enum_field_value" : 0,
     "name" : "android::aggregate_traits<int, android::sp<android::AudioIoDescriptor>>::has_trivial_copy"
    },
    {
     "enum_field_value" : 0,
     "name" : "android::aggregate_traits<int, android::sp<android::AudioIoDescriptor>>::has_trivial_move"
    }
   ],
   "linker_set_key" : "_ZTIN7android16aggregate_traitsIiNS_2spINS_17AudioIoDescriptorEEEE17$has_trivial_copyE",
   "name" : "android::aggregate_traits<int, sp<AudioIoDescriptor>>::(anonymous enum at system/core/libutils/include/utils/TypeHelpers.h:60:5)",
   "referenced_type" : "_ZTIN7android16aggregate_traitsIiNS_2spINS_17AudioIoDescriptorEEEE17$has_trivial_copyE",
   "self_type" : "_ZTIN7android16aggregate_traitsIiNS_2spINS_17AudioIoDescriptorEEEE17$has_trivial_copyE",
   "size" : 4,
   "source_file" : "system/core/libutils/include/utils/TypeHelpers.h",
   "underlying_type" : "_ZTIj"
  },
  {
   "alignment" : 4,
   "enum_fields" :
   [
    {
     "enum_field_value" : 0,
     "name" : "android::trait_trivial_copy<android::key_value_pair_t<android::String8, android::String8>>::value"
    }
   ],
   "linker_set_key" : "_ZTIN7android18trait_trivial_copyINS_16key_value_pair_tINS_7String8ES2_EEE6$valueE",
   "name" : "android::trait_trivial_copy<key_value_pair_t<String8, String8>>::(anonymous enum at system/core/libutils/include/utils/TypeHelpers.h:287:3)",
   "referenced_type" : "_ZTIN7android18trait_trivial_copyINS_16key_value_pair_tINS_7String8ES2_EEE6$valueE",
   "self_type" : "_ZTIN7android18trait_trivial_copyINS_16key_value_pair_tINS_7String8ES2_EEE6$valueE",
   "size" : 4,
   "source_file" : "system/core/libutils/include/utils/TypeHelpers.h",
   "underlying_type" : "_ZTIj"
  },
  {
   "alignment" : 4,
   "enum_fields" :
   [
    {
     "enum_field_value" : 0,
     "name" : "android::trait_trivial_copy<android::key_value_pair_t<int, android::sp<android::AudioIoDescriptor>>>::value"
    }
   ],
   "linker_set_key" : "_ZTIN7android18trait_trivial_copyINS_16key_value_pair_tIiNS_2spINS_17AudioIoDescriptorEEEEEE6$valueE",
   "name" : "android::trait_trivial_copy<key_value_pair_t<int, sp<AudioIoDescriptor>>>::(anonymous enum at system/core/libutils/include/utils/TypeHelpers.h:287:3)",
   "referenced_type" : "_ZTIN7android18trait_trivial_copyINS_16key_value_pair_tIiNS_2spINS_17AudioIoDescriptorEEEEEE6$valueE",
   "self_type" : "_ZTIN7android18trait_trivial_copyINS_16key_value_pair_tIiNS_2spINS_17AudioIoDescriptorEEEEEE6$valueE",
   "size" : 4,
   "source_file" : "system/core/libutils/include/utils/TypeHelpers.h",
   "underlying_type" : "_ZTIj"
  },
  {
   "alignment" : 4,
   "enum_fields" :
   [
    {
     "enum_field_value" : 0,
     "name" : "android::trait_trivial_copy<android::AudioMixMatchCriterion>::value"
    }
   ],
   "linker_set_key" : "_ZTIN7android18trait_trivial_copyINS_22AudioMixMatchCriterionEE6$valueE",
   "name" : "android::trait_trivial_copy<AudioMixMatchCriterion>::(anonymous enum at system/core/libutils/include/utils/TypeHelpers.h:37:51)",
   "referenced_type" : "_ZTIN7android18trait_trivial_copyINS_22AudioMixMatchCriterionEE6$valueE",
   "self_type" : "_ZTIN7android18trait_trivial_copyINS_22AudioMixMatchCriterionEE6$valueE",
   "size" : 4,
   "source_file" : "system/core/libutils/include/utils/TypeHelpers.h",
   "underlying_type" : "_ZTIj"
  },
  {
   "alignment" : 4,
   "enum_fields" :
   [
    {
     "enum_field_value" : 0,
     "name" : "android::trait_trivial_copy<android::sp<android::AudioSystem::AudioPortCallback>>::value"
    }
   ],
   "linker_set_key" : "_ZTIN7android18trait_trivial_copyINS_2spINS_11AudioSystem17AudioPortCallbackEEEE6$valueE",
   "name" : "android::trait_trivial_copy<sp<AudioPortCallback>>::(anonymous enum at system/core/libutils/include/utils/TypeHelpers.h:37:51)",
   "referenced_type" : "_ZTIN7android18trait_trivial_copyINS_2spINS_11AudioSystem17AudioPortCallbackEEEE6$valueE",
   "self_type" : "_ZTIN7android18trait_trivial_copyINS_2spINS_11AudioSystem17AudioPortCallbackEEEE6$valueE",
   "size" : 4,
   "source_file" : "system/core/libutils/include/utils/TypeHelpers.h",
   "underlying_type" : "_ZTIj"
  },
  {
   "alignment" : 4,
   "enum_fields" :
   [
    {
     "enum_field_value" : 0,
     "name" : "android::trait_trivial_copy<android::sp<android::AudioSystem::AudioVolumeGroupCallback>>::value"
    }
   ],
   "linker_set_key" : "_ZTIN7android18trait_trivial_copyINS_2spINS_11AudioSystem24AudioVolumeGroupCallbackEEEE6$valueE",
   "name" : "android::trait_trivial_copy<sp<AudioVolumeGroupCallback>>::(anonymous enum at system/core/libutils/include/utils/TypeHelpers.h:37:51)",
   "referenced_type" : "_ZTIN7android18trait_trivial_copyINS_2spINS_11AudioSystem24AudioVolumeGroupCallbackEEEE6$valueE",
   "self_type" : "_ZTIN7android18trait_trivial_copyINS_2spINS_11AudioSystem24AudioVolumeGroupCallbackEEEE6$valueE",
   "size" : 4,
   "source_file" : "system/core/libutils/include/utils/TypeHelpers.h",
   "underlying_type" : "_ZTIj"
  },
  {
   "alignment" : 4,
   "enum_fields" :
   [
    {
     "enum_field_value" : 0,
     "name" : "android::trait_trivial_copy<android::sp<android::AudioIoDescriptor>>::value"
    }
   ],
   "linker_set_key" : "_ZTIN7android18trait_trivial_copyINS_2spINS_17AudioIoDescriptorEEEE6$valueE",
   "name" : "android::trait_trivial_copy<sp<AudioIoDescriptor>>::(anonymous enum at system/core/libutils/include/utils/TypeHelpers.h:37:51)",
   "referenced_type" : "_ZTIN7android18trait_trivial_copyINS_2spINS_17AudioIoDescriptorEEEE6$valueE",
   "self_type" : "_ZTIN7android18trait_trivial_copyINS_2spINS_17AudioIoDescriptorEEEE6$valueE",
   "size" : 4,
   "source_file" : "system/core/libutils/include/utils/TypeHelpers.h",
   "underlying_type" : "_ZTIj"
  },
  {
   "alignment" : 4,
   "enum_fields" :
   [
    {
     "enum_field_value" : 0,
     "name" : "android::trait_trivial_copy<android::String8>::value"
    }
   ],
   "linker_set_key" : "_ZTIN7android18trait_trivial_copyINS_7String8EE6$valueE",
   "name" : "android::trait_trivial_copy<String8>::(anonymous enum at system/core/libutils/include/utils/TypeHelpers.h:37:51)",
   "referenced_type" : "_ZTIN7android18trait_trivial_copyINS_7String8EE6$valueE",
   "self_type" : "_ZTIN7android18trait_trivial_copyINS_7String8EE6$valueE",
   "size" : 4,
   "source_file" : "system/core/libutils/include/utils/TypeHelpers.h",
   "underlying_type" : "_ZTIj"
  },
  {
   "alignment" : 4,
   "enum_fields" :
   [
    {
     "enum_field_value" : 1,
     "name" : "android::trait_trivial_copy<bool>::value"
    }
   ],
   "linker_set_key" : "_ZTIN7android18trait_trivial_copyIbE6$valueE",
   "name" : "android::trait_trivial_copy<bool>::(anonymous enum at system/core/libutils/include/utils/TypeHelpers.h:98:1)",
   "referenced_type" : "_ZTIN7android18trait_trivial_copyIbE6$valueE",
   "self_type" : "_ZTIN7android18trait_trivial_copyIbE6$valueE",
   "size" : 4,
   "source_file" : "system/core/libutils/include/utils/TypeHelpers.h",
   "underlying_type" : "_ZTIj"
  },
  {
   "alignment" : 4,
   "enum_fields" :
   [
    {
     "enum_field_value" : 1,
     "name" : "android::trait_trivial_copy<char>::value"
    }
   ],
   "linker_set_key" : "_ZTIN7android18trait_trivial_copyIcE6$valueE",
   "name" : "android::trait_trivial_copy<char>::(anonymous enum at system/core/libutils/include/utils/TypeHelpers.h:99:1)",
   "referenced_type" : "_ZTIN7android18trait_trivial_copyIcE6$valueE",
   "self_type" : "_ZTIN7android18trait_trivial_copyIcE6$valueE",
   "size" : 4,
   "source_file" : "system/core/libutils/include/utils/TypeHelpers.h",
   "underlying_type" : "_ZTIj"
  },
  {
   "alignment" : 4,
   "enum_fields" :
   [
    {
     "enum_field_value" : 1,
     "name" : "android::trait_trivial_copy<double>::value"
    }
   ],
   "linker_set_key" : "_ZTIN7android18trait_trivial_copyIdE6$valueE",
   "name" : "android::trait_trivial_copy<double>::(anonymous enum at system/core/libutils/include/utils/TypeHelpers.h:110:1)",
   "referenced_type" : "_ZTIN7android18trait_trivial_copyIdE6$valueE",
   "self_type" : "_ZTIN7android18trait_trivial_copyIdE6$valueE",
   "size" : 4,
   "source_file" : "system/core/libutils/include/utils/TypeHelpers.h",
   "underlying_type" : "_ZTIj"
  },
  {
   "alignment" : 4,
   "enum_fields" :
   [
    {
     "enum_field_value" : 1,
     "name" : "android::trait_trivial_copy<float>::value"
    }
   ],
   "linker_set_key" : "_ZTIN7android18trait_trivial_copyIfE6$valueE",
   "name" : "android::trait_trivial_copy<float>::(anonymous enum at system/core/libutils/include/utils/TypeHelpers.h:109:1)",
   "referenced_type" : "_ZTIN7android18trait_trivial_copyIfE6$valueE",
   "self_type" : "_ZTIN7android18trait_trivial_copyIfE6$valueE",
   "size" : 4,
   "source_file" : "system/core/libutils/include/utils/TypeHelpers.h",
   "underlying_type" : "_ZTIj"
  },
  {
   "alignment" : 4,
   "enum_fields" :
   [
    {
     "enum_field_value" : 1,
     "name" : "android::trait_trivial_copy<unsigned char>::value"
    }
   ],
   "linker_set_key" : "_ZTIN7android18trait_trivial_copyIhE6$valueE",
   "name" : "android::trait_trivial_copy<unsigned char>::(anonymous enum at system/core/libutils/include/utils/TypeHelpers.h:100:1)",
   "referenced_type" : "_ZTIN7android18trait_trivial_copyIhE6$valueE",
   "self_type" : "_ZTIN7android18trait_trivial_copyIhE6$valueE",
   "size" : 4,
   "source_file" : "system/core/libutils/include/utils/TypeHelpers.h",
   "underlying_type" : "_ZTIj"
  },
  {
   "alignment" : 4,
   "enum_fields" :
   [
    {
     "enum_field_value" : 1,
     "name" : "android::trait_trivial_copy<int>::value"
    }
   ],
   "linker_set_key" : "_ZTIN7android18trait_trivial_copyIiE6$valueE",
   "name" : "android::trait_trivial_copy<int>::(anonymous enum at system/core/libutils/include/utils/TypeHelpers.h:103:1)",
   "referenced_type" : "_ZTIN7android18trait_trivial_copyIiE6$valueE",
   "self_type" : "_ZTIN7android18trait_trivial_copyIiE6$valueE",
   "size" : 4,
   "source_file" : "system/core/libutils/include/utils/TypeHelpers.h",
   "underlying_type" : "_ZTIj"
  },
  {
   "alignment" : 4,
   "enum_fields" :
   [
    {
     "enum_field_value" : 1,
     "name" : "android::trait_trivial_copy<unsigned int>::value"
    }
   ],
   "linker_set_key" : "_ZTIN7android18trait_trivial_copyIjE6$valueE",
   "name" : "android::trait_trivial_copy<unsigned int>::(anonymous enum at system/core/libutils/include/utils/TypeHelpers.h:104:1)",
   "referenced_type" : "_ZTIN7android18trait_trivial_copyIjE6$valueE",
   "self_type" : "_ZTIN7android18trait_trivial_copyIjE6$valueE",
   "size" : 4,
   "source_file" : "system/core/libutils/include/utils/TypeHelpers.h",
   "underlying_type" : "_ZTIj"
  },
  {
   "alignment" : 4,
   "enum_fields" :
   [
    {
     "enum_field_value" : 1,
     "name" : "android::trait_trivial_copy<long>::value"
    }
   ],
   "linker_set_key" : "_ZTIN7android18trait_trivial_copyIlE6$valueE",
   "name" : "android::trait_trivial_copy<long>::(anonymous enum at system/core/libutils/include/utils/TypeHelpers.h:105:1)",
   "referenced_type" : "_ZTIN7android18trait_trivial_copyIlE6$valueE",
   "self_type" : "_ZTIN7android18trait_trivial_copyIlE6$valueE",
   "size" : 4,
   "source_file" : "system/core/libutils/include/utils/TypeHelpers.h",
   "underlying_type" : "_ZTIj"
  },
  {
   "alignment" : 4,
   "enum_fields" :
   [
    {
     "enum_field_value" : 1,
     "name" : "android::trait_trivial_copy<unsigned long>::value"
    }
   ],
   "linker_set_key" : "_ZTIN7android18trait_trivial_copyImE6$valueE",
   "name" : "android::trait_trivial_copy<unsigned long>::(anonymous enum at system/core/libutils/include/utils/TypeHelpers.h:106:1)",
   "referenced_type" : "_ZTIN7android18trait_trivial_copyImE6$valueE",
   "self_type" : "_ZTIN7android18trait_trivial_copyImE6$valueE",
   "size" : 4,
   "source_file" : "system/core/libutils/include/utils/TypeHelpers.h",
   "underlying_type" : "_ZTIj"
  },
  {
   "alignment" : 4,
   "enum_fields" :
   [
    {
     "enum_field_value" : 1,
     "name" : "android::trait_trivial_copy<short>::value"
    }
   ],
   "linker_set_key" : "_ZTIN7android18trait_trivial_copyIsE6$valueE",
   "name" : "android::trait_trivial_copy<short>::(anonymous enum at system/core/libutils/include/utils/TypeHelpers.h:101:1)",
   "referenced_type" : "_ZTIN7android18trait_trivial_copyIsE6$valueE",
   "self_type" : "_ZTIN7android18trait_trivial_copyIsE6$valueE",
   "size" : 4,
   "source_file" : "system/core/libutils/include/utils/TypeHelpers.h",
   "underlying_type" : "_ZTIj"
  },
  {
   "alignment" : 4,
   "enum_fields" :
   [
    {
     "enum_field_value" : 1,
     "name" : "android::trait_trivial_copy<unsigned short>::value"
    }
   ],
   "linker_set_key" : "_ZTIN7android18trait_trivial_copyItE6$valueE",
   "name" : "android::trait_trivial_copy<unsigned short>::(anonymous enum at system/core/libutils/include/utils/TypeHelpers.h:102:1)",
   "referenced_type" : "_ZTIN7android18trait_trivial_copyItE6$valueE",
   "self_type" : "_ZTIN7android18trait_trivial_copyItE6$valueE",
   "size" : 4,
   "source_file" : "system/core/libutils/include/utils/TypeHelpers.h",
   "underlying_type" : "_ZTIj"
  },
  {
   "alignment" : 4,
   "enum_fields" :
   [
    {
     "enum_field_value" : 1,
     "name" : "android::trait_trivial_copy<void>::value"
    }
   ],
   "linker_set_key" : "_ZTIN7android18trait_trivial_copyIvE6$valueE",
   "name" : "android::trait_trivial_copy<void>::(anonymous enum at system/core/libutils/include/utils/TypeHelpers.h:97:1)",
   "referenced_type" : "_ZTIN7android18trait_trivial_copyIvE6$valueE",
   "self_type" : "_ZTIN7android18trait_trivial_copyIvE6$valueE",
   "size" : 4,
   "source_file" : "system/core/libutils/include/utils/TypeHelpers.h",
   "underlying_type" : "_ZTIj"
  },
  {
   "alignment" : 4,
   "enum_fields" :
   [
    {
     "enum_field_value" : 1,
     "name" : "android::trait_trivial_copy<long long>::value"
    }
   ],
   "linker_set_key" : "_ZTIN7android18trait_trivial_copyIxE6$valueE",
   "name" : "android::trait_trivial_copy<long long>::(anonymous enum at system/core/libutils/include/utils/TypeHelpers.h:107:1)",
   "referenced_type" : "_ZTIN7android18trait_trivial_copyIxE6$valueE",
   "self_type" : "_ZTIN7android18trait_trivial_copyIxE6$valueE",
   "size" : 4,
   "source_file" : "system/core/libutils/include/utils/TypeHelpers.h",
   "underlying_type" : "_ZTIj"
  },
  {
   "alignment" : 4,
   "enum_fields" :
   [
    {
     "enum_field_value" : 1,
     "name" : "android::trait_trivial_copy<unsigned long long>::value"
    }
   ],
   "linker_set_key" : "_ZTIN7android18trait_trivial_copyIyE6$valueE",
   "name" : "android::trait_trivial_copy<unsigned long long>::(anonymous enum at system/core/libutils/include/utils/TypeHelpers.h:108:1)",
   "referenced_type" : "_ZTIN7android18trait_trivial_copyIyE6$valueE",
   "self_type" : "_ZTIN7android18trait_trivial_copyIyE6$valueE",
   "size" : 4,
   "source_file" : "system/core/libutils/include/utils/TypeHelpers.h",
   "underlying_type" : "_ZTIj"
  },
  {
   "alignment" : 4,
   "enum_fields" :
   [
    {
     "enum_field_value" : 0,
     "name" : "android::trait_trivial_ctor<android::key_value_pair_t<android::String8, android::String8>>::value"
    }
   ],
   "linker_set_key" : "_ZTIN7android18trait_trivial_ctorINS_16key_value_pair_tINS_7String8ES2_EEE6$valueE",
   "name" : "android::trait_trivial_ctor<key_value_pair_t<String8, String8>>::(anonymous enum at system/core/libutils/include/utils/TypeHelpers.h:281:3)",
   "referenced_type" : "_ZTIN7android18trait_trivial_ctorINS_16key_value_pair_tINS_7String8ES2_EEE6$valueE",
   "self_type" : "_ZTIN7android18trait_trivial_ctorINS_16key_value_pair_tINS_7String8ES2_EEE6$valueE",
   "size" : 4,
   "source_file" : "system/core/libutils/include/utils/TypeHelpers.h",
   "underlying_type" : "_ZTIj"
  },
  {
   "alignment" : 4,
   "enum_fields" :
   [
    {
     "enum_field_value" : 0,
     "name" : "android::trait_trivial_ctor<android::key_value_pair_t<int, android::sp<android::AudioIoDescriptor>>>::value"
    }
   ],
   "linker_set_key" : "_ZTIN7android18trait_trivial_ctorINS_16key_value_pair_tIiNS_2spINS_17AudioIoDescriptorEEEEEE6$valueE",
   "name" : "android::trait_trivial_ctor<key_value_pair_t<int, sp<AudioIoDescriptor>>>::(anonymous enum at system/core/libutils/include/utils/TypeHelpers.h:281:3)",
   "referenced_type" : "_ZTIN7android18trait_trivial_ctorINS_16key_value_pair_tIiNS_2spINS_17AudioIoDescriptorEEEEEE6$valueE",
   "self_type" : "_ZTIN7android18trait_trivial_ctorINS_16key_value_pair_tIiNS_2spINS_17AudioIoDescriptorEEEEEE6$valueE",
   "size" : 4,
   "source_file" : "system/core/libutils/include/utils/TypeHelpers.h",
   "underlying_type" : "_ZTIj"
  },
  {
   "alignment" : 4,
   "enum_fields" :
   [
    {
     "enum_field_value" : 0,
     "name" : "android::trait_trivial_ctor<android::AudioMixMatchCriterion>::value"
    }
   ],
   "linker_set_key" : "_ZTIN7android18trait_trivial_ctorINS_22AudioMixMatchCriterionEE6$valueE",
   "name" : "android::trait_trivial_ctor<AudioMixMatchCriterion>::(anonymous enum at system/core/libutils/include/utils/TypeHelpers.h:35:51)",
   "referenced_type" : "_ZTIN7android18trait_trivial_ctorINS_22AudioMixMatchCriterionEE6$valueE",
   "self_type" : "_ZTIN7android18trait_trivial_ctorINS_22AudioMixMatchCriterionEE6$valueE",
   "size" : 4,
   "source_file" : "system/core/libutils/include/utils/TypeHelpers.h",
   "underlying_type" : "_ZTIj"
  },
  {
   "alignment" : 4,
   "enum_fields" :
   [
    {
     "enum_field_value" : 0,
     "name" : "android::trait_trivial_ctor<android::sp<android::AudioSystem::AudioPortCallback>>::value"
    }
   ],
   "linker_set_key" : "_ZTIN7android18trait_trivial_ctorINS_2spINS_11AudioSystem17AudioPortCallbackEEEE6$valueE",
   "name" : "android::trait_trivial_ctor<sp<AudioPortCallback>>::(anonymous enum at system/core/libutils/include/utils/TypeHelpers.h:35:51)",
   "referenced_type" : "_ZTIN7android18trait_trivial_ctorINS_2spINS_11AudioSystem17AudioPortCallbackEEEE6$valueE",
   "self_type" : "_ZTIN7android18trait_trivial_ctorINS_2spINS_11AudioSystem17AudioPortCallbackEEEE6$valueE",
   "size" : 4,
   "source_file" : "system/core/libutils/include/utils/TypeHelpers.h",
   "underlying_type" : "_ZTIj"
  },
  {
   "alignment" : 4,
   "enum_fields" :
   [
    {
     "enum_field_value" : 0,
     "name" : "android::trait_trivial_ctor<android::sp<android::AudioSystem::AudioVolumeGroupCallback>>::value"
    }
   ],
   "linker_set_key" : "_ZTIN7android18trait_trivial_ctorINS_2spINS_11AudioSystem24AudioVolumeGroupCallbackEEEE6$valueE",
   "name" : "android::trait_trivial_ctor<sp<AudioVolumeGroupCallback>>::(anonymous enum at system/core/libutils/include/utils/TypeHelpers.h:35:51)",
   "referenced_type" : "_ZTIN7android18trait_trivial_ctorINS_2spINS_11AudioSystem24AudioVolumeGroupCallbackEEEE6$valueE",
   "self_type" : "_ZTIN7android18trait_trivial_ctorINS_2spINS_11AudioSystem24AudioVolumeGroupCallbackEEEE6$valueE",
   "size" : 4,
   "source_file" : "system/core/libutils/include/utils/TypeHelpers.h",
   "underlying_type" : "_ZTIj"
  },
  {
   "alignment" : 4,
   "enum_fields" :
   [
    {
     "enum_field_value" : 0,
     "name" : "android::trait_trivial_ctor<android::sp<android::AudioIoDescriptor>>::value"
    }
   ],
   "linker_set_key" : "_ZTIN7android18trait_trivial_ctorINS_2spINS_17AudioIoDescriptorEEEE6$valueE",
   "name" : "android::trait_trivial_ctor<sp<AudioIoDescriptor>>::(anonymous enum at system/core/libutils/include/utils/TypeHelpers.h:35:51)",
   "referenced_type" : "_ZTIN7android18trait_trivial_ctorINS_2spINS_17AudioIoDescriptorEEEE6$valueE",
   "self_type" : "_ZTIN7android18trait_trivial_ctorINS_2spINS_17AudioIoDescriptorEEEE6$valueE",
   "size" : 4,
   "source_file" : "system/core/libutils/include/utils/TypeHelpers.h",
   "underlying_type" : "_ZTIj"
  },
  {
   "alignment" : 4,
   "enum_fields" :
   [
    {
     "enum_field_value" : 0,
     "name" : "android::trait_trivial_ctor<android::String8>::value"
    }
   ],
   "linker_set_key" : "_ZTIN7android18trait_trivial_ctorINS_7String8EE6$valueE",
   "name" : "android::trait_trivial_ctor<String8>::(anonymous enum at system/core/libutils/include/utils/TypeHelpers.h:35:51)",
   "referenced_type" : "_ZTIN7android18trait_trivial_ctorINS_7String8EE6$valueE",
   "self_type" : "_ZTIN7android18trait_trivial_ctorINS_7String8EE6$valueE",
   "size" : 4,
   "source_file" : "system/core/libutils/include/utils/TypeHelpers.h",
   "underlying_type" : "_ZTIj"
  },
  {
   "alignment" : 4,
   "enum_fields" :
   [
    {
     "enum_field_value" : 1,
     "name" : "android::trait_trivial_ctor<bool>::value"
    }
   ],
   "linker_set_key" : "_ZTIN7android18trait_trivial_ctorIbE6$valueE",
   "name" : "android::trait_trivial_ctor<bool>::(anonymous enum at system/core/libutils/include/utils/TypeHelpers.h:98:1)",
   "referenced_type" : "_ZTIN7android18trait_trivial_ctorIbE6$valueE",
   "self_type" : "_ZTIN7android18trait_trivial_ctorIbE6$valueE",
   "size" : 4,
   "source_file" : "system/core/libutils/include/utils/TypeHelpers.h",
   "underlying_type" : "_ZTIj"
  },
  {
   "alignment" : 4,
   "enum_fields" :
   [
    {
     "enum_field_value" : 1,
     "name" : "android::trait_trivial_ctor<char>::value"
    }
   ],
   "linker_set_key" : "_ZTIN7android18trait_trivial_ctorIcE6$valueE",
   "name" : "android::trait_trivial_ctor<char>::(anonymous enum at system/core/libutils/include/utils/TypeHelpers.h:99:1)",
   "referenced_type" : "_ZTIN7android18trait_trivial_ctorIcE6$valueE",
   "self_type" : "_ZTIN7android18trait_trivial_ctorIcE6$valueE",
   "size" : 4,
   "source_file" : "system/core/libutils/include/utils/TypeHelpers.h",
   "underlying_type" : "_ZTIj"
  },
  {
   "alignment" : 4,
   "enum_fields" :
   [
    {
     "enum_field_value" : 1,
     "name" : "android::trait_trivial_ctor<double>::value"
    }
   ],
   "linker_set_key" : "_ZTIN7android18trait_trivial_ctorIdE6$valueE",
   "name" : "android::trait_trivial_ctor<double>::(anonymous enum at system/core/libutils/include/utils/TypeHelpers.h:110:1)",
   "referenced_type" : "_ZTIN7android18trait_trivial_ctorIdE6$valueE",
   "self_type" : "_ZTIN7android18trait_trivial_ctorIdE6$valueE",
   "size" : 4,
   "source_file" : "system/core/libutils/include/utils/TypeHelpers.h",
   "underlying_type" : "_ZTIj"
  },
  {
   "alignment" : 4,
   "enum_fields" :
   [
    {
     "enum_field_value" : 1,
     "name" : "android::trait_trivial_ctor<float>::value"
    }
   ],
   "linker_set_key" : "_ZTIN7android18trait_trivial_ctorIfE6$valueE",
   "name" : "android::trait_trivial_ctor<float>::(anonymous enum at system/core/libutils/include/utils/TypeHelpers.h:109:1)",
   "referenced_type" : "_ZTIN7android18trait_trivial_ctorIfE6$valueE",
   "self_type" : "_ZTIN7android18trait_trivial_ctorIfE6$valueE",
   "size" : 4,
   "source_file" : "system/core/libutils/include/utils/TypeHelpers.h",
   "underlying_type" : "_ZTIj"
  },
  {
   "alignment" : 4,
   "enum_fields" :
   [
    {
     "enum_field_value" : 1,
     "name" : "android::trait_trivial_ctor<unsigned char>::value"
    }
   ],
   "linker_set_key" : "_ZTIN7android18trait_trivial_ctorIhE6$valueE",
   "name" : "android::trait_trivial_ctor<unsigned char>::(anonymous enum at system/core/libutils/include/utils/TypeHelpers.h:100:1)",
   "referenced_type" : "_ZTIN7android18trait_trivial_ctorIhE6$valueE",
   "self_type" : "_ZTIN7android18trait_trivial_ctorIhE6$valueE",
   "size" : 4,
   "source_file" : "system/core/libutils/include/utils/TypeHelpers.h",
   "underlying_type" : "_ZTIj"
  },
  {
   "alignment" : 4,
   "enum_fields" :
   [
    {
     "enum_field_value" : 1,
     "name" : "android::trait_trivial_ctor<int>::value"
    }
   ],
   "linker_set_key" : "_ZTIN7android18trait_trivial_ctorIiE6$valueE",
   "name" : "android::trait_trivial_ctor<int>::(anonymous enum at system/core/libutils/include/utils/TypeHelpers.h:103:1)",
   "referenced_type" : "_ZTIN7android18trait_trivial_ctorIiE6$valueE",
   "self_type" : "_ZTIN7android18trait_trivial_ctorIiE6$valueE",
   "size" : 4,
   "source_file" : "system/core/libutils/include/utils/TypeHelpers.h",
   "underlying_type" : "_ZTIj"
  },
  {
   "alignment" : 4,
   "enum_fields" :
   [
    {
     "enum_field_value" : 1,
     "name" : "android::trait_trivial_ctor<unsigned int>::value"
    }
   ],
   "linker_set_key" : "_ZTIN7android18trait_trivial_ctorIjE6$valueE",
   "name" : "android::trait_trivial_ctor<unsigned int>::(anonymous enum at system/core/libutils/include/utils/TypeHelpers.h:104:1)",
   "referenced_type" : "_ZTIN7android18trait_trivial_ctorIjE6$valueE",
   "self_type" : "_ZTIN7android18trait_trivial_ctorIjE6$valueE",
   "size" : 4,
   "source_file" : "system/core/libutils/include/utils/TypeHelpers.h",
   "underlying_type" : "_ZTIj"
  },
  {
   "alignment" : 4,
   "enum_fields" :
   [
    {
     "enum_field_value" : 1,
     "name" : "android::trait_trivial_ctor<long>::value"
    }
   ],
   "linker_set_key" : "_ZTIN7android18trait_trivial_ctorIlE6$valueE",
   "name" : "android::trait_trivial_ctor<long>::(anonymous enum at system/core/libutils/include/utils/TypeHelpers.h:105:1)",
   "referenced_type" : "_ZTIN7android18trait_trivial_ctorIlE6$valueE",
   "self_type" : "_ZTIN7android18trait_trivial_ctorIlE6$valueE",
   "size" : 4,
   "source_file" : "system/core/libutils/include/utils/TypeHelpers.h",
   "underlying_type" : "_ZTIj"
  },
  {
   "alignment" : 4,
   "enum_fields" :
   [
    {
     "enum_field_value" : 1,
     "name" : "android::trait_trivial_ctor<unsigned long>::value"
    }
   ],
   "linker_set_key" : "_ZTIN7android18trait_trivial_ctorImE6$valueE",
   "name" : "android::trait_trivial_ctor<unsigned long>::(anonymous enum at system/core/libutils/include/utils/TypeHelpers.h:106:1)",
   "referenced_type" : "_ZTIN7android18trait_trivial_ctorImE6$valueE",
   "self_type" : "_ZTIN7android18trait_trivial_ctorImE6$valueE",
   "size" : 4,
   "source_file" : "system/core/libutils/include/utils/TypeHelpers.h",
   "underlying_type" : "_ZTIj"
  },
  {
   "alignment" : 4,
   "enum_fields" :
   [
    {
     "enum_field_value" : 1,
     "name" : "android::trait_trivial_ctor<short>::value"
    }
   ],
   "linker_set_key" : "_ZTIN7android18trait_trivial_ctorIsE6$valueE",
   "name" : "android::trait_trivial_ctor<short>::(anonymous enum at system/core/libutils/include/utils/TypeHelpers.h:101:1)",
   "referenced_type" : "_ZTIN7android18trait_trivial_ctorIsE6$valueE",
   "self_type" : "_ZTIN7android18trait_trivial_ctorIsE6$valueE",
   "size" : 4,
   "source_file" : "system/core/libutils/include/utils/TypeHelpers.h",
   "underlying_type" : "_ZTIj"
  },
  {
   "alignment" : 4,
   "enum_fields" :
   [
    {
     "enum_field_value" : 1,
     "name" : "android::trait_trivial_ctor<unsigned short>::value"
    }
   ],
   "linker_set_key" : "_ZTIN7android18trait_trivial_ctorItE6$valueE",
   "name" : "android::trait_trivial_ctor<unsigned short>::(anonymous enum at system/core/libutils/include/utils/TypeHelpers.h:102:1)",
   "referenced_type" : "_ZTIN7android18trait_trivial_ctorItE6$valueE",
   "self_type" : "_ZTIN7android18trait_trivial_ctorItE6$valueE",
   "size" : 4,
   "source_file" : "system/core/libutils/include/utils/TypeHelpers.h",
   "underlying_type" : "_ZTIj"
  },
  {
   "alignment" : 4,
   "enum_fields" :
   [
    {
     "enum_field_value" : 1,
     "name" : "android::trait_trivial_ctor<void>::value"
    }
   ],
   "linker_set_key" : "_ZTIN7android18trait_trivial_ctorIvE6$valueE",
   "name" : "android::trait_trivial_ctor<void>::(anonymous enum at system/core/libutils/include/utils/TypeHelpers.h:97:1)",
   "referenced_type" : "_ZTIN7android18trait_trivial_ctorIvE6$valueE",
   "self_type" : "_ZTIN7android18trait_trivial_ctorIvE6$valueE",
   "size" : 4,
   "source_file" : "system/core/libutils/include/utils/TypeHelpers.h",
   "underlying_type" : "_ZTIj"
  },
  {
   "alignment" : 4,
   "enum_fields" :
   [
    {
     "enum_field_value" : 1,
     "name" : "android::trait_trivial_ctor<long long>::value"
    }
   ],
   "linker_set_key" : "_ZTIN7android18trait_trivial_ctorIxE6$valueE",
   "name" : "android::trait_trivial_ctor<long long>::(anonymous enum at system/core/libutils/include/utils/TypeHelpers.h:107:1)",
   "referenced_type" : "_ZTIN7android18trait_trivial_ctorIxE6$valueE",
   "self_type" : "_ZTIN7android18trait_trivial_ctorIxE6$valueE",
   "size" : 4,
   "source_file" : "system/core/libutils/include/utils/TypeHelpers.h",
   "underlying_type" : "_ZTIj"
  },
  {
   "alignment" : 4,
   "enum_fields" :
   [
    {
     "enum_field_value" : 1,
     "name" : "android::trait_trivial_ctor<unsigned long long>::value"
    }
   ],
   "linker_set_key" : "_ZTIN7android18trait_trivial_ctorIyE6$valueE",
   "name" : "android::trait_trivial_ctor<unsigned long long>::(anonymous enum at system/core/libutils/include/utils/TypeHelpers.h:108:1)",
   "referenced_type" : "_ZTIN7android18trait_trivial_ctorIyE6$valueE",
   "self_type" : "_ZTIN7android18trait_trivial_ctorIyE6$valueE",
   "size" : 4,
   "source_file" : "system/core/libutils/include/utils/TypeHelpers.h",
   "underlying_type" : "_ZTIj"
  },
  {
   "alignment" : 4,
   "enum_fields" :
   [
    {
     "enum_field_value" : 0,
     "name" : "android::trait_trivial_dtor<android::key_value_pair_t<android::String8, android::String8>>::value"
    }
   ],
   "linker_set_key" : "_ZTIN7android18trait_trivial_dtorINS_16key_value_pair_tINS_7String8ES2_EEE6$valueE",
   "name" : "android::trait_trivial_dtor<key_value_pair_t<String8, String8>>::(anonymous enum at system/core/libutils/include/utils/TypeHelpers.h:284:3)",
   "referenced_type" : "_ZTIN7android18trait_trivial_dtorINS_16key_value_pair_tINS_7String8ES2_EEE6$valueE",
   "self_type" : "_ZTIN7android18trait_trivial_dtorINS_16key_value_pair_tINS_7String8ES2_EEE6$valueE",
   "size" : 4,
   "source_file" : "system/core/libutils/include/utils/TypeHelpers.h",
   "underlying_type" : "_ZTIj"
  },
  {
   "alignment" : 4,
   "enum_fields" :
   [
    {
     "enum_field_value" : 0,
     "name" : "android::trait_trivial_dtor<android::key_value_pair_t<int, android::sp<android::AudioIoDescriptor>>>::value"
    }
   ],
   "linker_set_key" : "_ZTIN7android18trait_trivial_dtorINS_16key_value_pair_tIiNS_2spINS_17AudioIoDescriptorEEEEEE6$valueE",
   "name" : "android::trait_trivial_dtor<key_value_pair_t<int, sp<AudioIoDescriptor>>>::(anonymous enum at system/core/libutils/include/utils/TypeHelpers.h:284:3)",
   "referenced_type" : "_ZTIN7android18trait_trivial_dtorINS_16key_value_pair_tIiNS_2spINS_17AudioIoDescriptorEEEEEE6$valueE",
   "self_type" : "_ZTIN7android18trait_trivial_dtorINS_16key_value_pair_tIiNS_2spINS_17AudioIoDescriptorEEEEEE6$valueE",
   "size" : 4,
   "source_file" : "system/core/libutils/include/utils/TypeHelpers.h",
   "underlying_type" : "_ZTIj"
  },
  {
   "alignment" : 4,
   "enum_fields" :
   [
    {
     "enum_field_value" : 0,
     "name" : "android::trait_trivial_dtor<android::AudioMixMatchCriterion>::value"
    }
   ],
   "linker_set_key" : "_ZTIN7android18trait_trivial_dtorINS_22AudioMixMatchCriterionEE6$valueE",
   "name" : "android::trait_trivial_dtor<AudioMixMatchCriterion>::(anonymous enum at system/core/libutils/include/utils/TypeHelpers.h:36:51)",
   "referenced_type" : "_ZTIN7android18trait_trivial_dtorINS_22AudioMixMatchCriterionEE6$valueE",
   "self_type" : "_ZTIN7android18trait_trivial_dtorINS_22AudioMixMatchCriterionEE6$valueE",
   "size" : 4,
   "source_file" : "system/core/libutils/include/utils/TypeHelpers.h",
   "underlying_type" : "_ZTIj"
  },
  {
   "alignment" : 4,
   "enum_fields" :
   [
    {
     "enum_field_value" : 0,
     "name" : "android::trait_trivial_dtor<android::sp<android::AudioSystem::AudioPortCallback>>::value"
    }
   ],
   "linker_set_key" : "_ZTIN7android18trait_trivial_dtorINS_2spINS_11AudioSystem17AudioPortCallbackEEEE6$valueE",
   "name" : "android::trait_trivial_dtor<sp<AudioPortCallback>>::(anonymous enum at system/core/libutils/include/utils/TypeHelpers.h:36:51)",
   "referenced_type" : "_ZTIN7android18trait_trivial_dtorINS_2spINS_11AudioSystem17AudioPortCallbackEEEE6$valueE",
   "self_type" : "_ZTIN7android18trait_trivial_dtorINS_2spINS_11AudioSystem17AudioPortCallbackEEEE6$valueE",
   "size" : 4,
   "source_file" : "system/core/libutils/include/utils/TypeHelpers.h",
   "underlying_type" : "_ZTIj"
  },
  {
   "alignment" : 4,
   "enum_fields" :
   [
    {
     "enum_field_value" : 0,
     "name" : "android::trait_trivial_dtor<android::sp<android::AudioSystem::AudioVolumeGroupCallback>>::value"
    }
   ],
   "linker_set_key" : "_ZTIN7android18trait_trivial_dtorINS_2spINS_11AudioSystem24AudioVolumeGroupCallbackEEEE6$valueE",
   "name" : "android::trait_trivial_dtor<sp<AudioVolumeGroupCallback>>::(anonymous enum at system/core/libutils/include/utils/TypeHelpers.h:36:51)",
   "referenced_type" : "_ZTIN7android18trait_trivial_dtorINS_2spINS_11AudioSystem24AudioVolumeGroupCallbackEEEE6$valueE",
   "self_type" : "_ZTIN7android18trait_trivial_dtorINS_2spINS_11AudioSystem24AudioVolumeGroupCallbackEEEE6$valueE",
   "size" : 4,
   "source_file" : "system/core/libutils/include/utils/TypeHelpers.h",
   "underlying_type" : "_ZTIj"
  },
  {
   "alignment" : 4,
   "enum_fields" :
   [
    {
     "enum_field_value" : 0,
     "name" : "android::trait_trivial_dtor<android::sp<android::AudioIoDescriptor>>::value"
    }
   ],
   "linker_set_key" : "_ZTIN7android18trait_trivial_dtorINS_2spINS_17AudioIoDescriptorEEEE6$valueE",
   "name" : "android::trait_trivial_dtor<sp<AudioIoDescriptor>>::(anonymous enum at system/core/libutils/include/utils/TypeHelpers.h:36:51)",
   "referenced_type" : "_ZTIN7android18trait_trivial_dtorINS_2spINS_17AudioIoDescriptorEEEE6$valueE",
   "self_type" : "_ZTIN7android18trait_trivial_dtorINS_2spINS_17AudioIoDescriptorEEEE6$valueE",
   "size" : 4,
   "source_file" : "system/core/libutils/include/utils/TypeHelpers.h",
   "underlying_type" : "_ZTIj"
  },
  {
   "alignment" : 4,
   "enum_fields" :
   [
    {
     "enum_field_value" : 0,
     "name" : "android::trait_trivial_dtor<android::String8>::value"
    }
   ],
   "linker_set_key" : "_ZTIN7android18trait_trivial_dtorINS_7String8EE6$valueE",
   "name" : "android::trait_trivial_dtor<String8>::(anonymous enum at system/core/libutils/include/utils/TypeHelpers.h:36:51)",
   "referenced_type" : "_ZTIN7android18trait_trivial_dtorINS_7String8EE6$valueE",
   "self_type" : "_ZTIN7android18trait_trivial_dtorINS_7String8EE6$valueE",
   "size" : 4,
   "source_file" : "system/core/libutils/include/utils/TypeHelpers.h",
   "underlying_type" : "_ZTIj"
  },
  {
   "alignment" : 4,
   "enum_fields" :
   [
    {
     "enum_field_value" : 1,
     "name" : "android::trait_trivial_dtor<bool>::value"
    }
   ],
   "linker_set_key" : "_ZTIN7android18trait_trivial_dtorIbE6$valueE",
   "name" : "android::trait_trivial_dtor<bool>::(anonymous enum at system/core/libutils/include/utils/TypeHelpers.h:98:1)",
   "referenced_type" : "_ZTIN7android18trait_trivial_dtorIbE6$valueE",
   "self_type" : "_ZTIN7android18trait_trivial_dtorIbE6$valueE",
   "size" : 4,
   "source_file" : "system/core/libutils/include/utils/TypeHelpers.h",
   "underlying_type" : "_ZTIj"
  },
  {
   "alignment" : 4,
   "enum_fields" :
   [
    {
     "enum_field_value" : 1,
     "name" : "android::trait_trivial_dtor<char>::value"
    }
   ],
   "linker_set_key" : "_ZTIN7android18trait_trivial_dtorIcE6$valueE",
   "name" : "android::trait_trivial_dtor<char>::(anonymous enum at system/core/libutils/include/utils/TypeHelpers.h:99:1)",
   "referenced_type" : "_ZTIN7android18trait_trivial_dtorIcE6$valueE",
   "self_type" : "_ZTIN7android18trait_trivial_dtorIcE6$valueE",
   "size" : 4,
   "source_file" : "system/core/libutils/include/utils/TypeHelpers.h",
   "underlying_type" : "_ZTIj"
  },
  {
   "alignment" : 4,
   "enum_fields" :
   [
    {
     "enum_field_value" : 1,
     "name" : "android::trait_trivial_dtor<double>::value"
    }
   ],
   "linker_set_key" : "_ZTIN7android18trait_trivial_dtorIdE6$valueE",
   "name" : "android::trait_trivial_dtor<double>::(anonymous enum at system/core/libutils/include/utils/TypeHelpers.h:110:1)",
   "referenced_type" : "_ZTIN7android18trait_trivial_dtorIdE6$valueE",
   "self_type" : "_ZTIN7android18trait_trivial_dtorIdE6$valueE",
   "size" : 4,
   "source_file" : "system/core/libutils/include/utils/TypeHelpers.h",
   "underlying_type" : "_ZTIj"
  },
  {
   "alignment" : 4,
   "enum_fields" :
   [
    {
     "enum_field_value" : 1,
     "name" : "android::trait_trivial_dtor<float>::value"
    }
   ],
   "linker_set_key" : "_ZTIN7android18trait_trivial_dtorIfE6$valueE",
   "name" : "android::trait_trivial_dtor<float>::(anonymous enum at system/core/libutils/include/utils/TypeHelpers.h:109:1)",
   "referenced_type" : "_ZTIN7android18trait_trivial_dtorIfE6$valueE",
   "self_type" : "_ZTIN7android18trait_trivial_dtorIfE6$valueE",
   "size" : 4,
   "source_file" : "system/core/libutils/include/utils/TypeHelpers.h",
   "underlying_type" : "_ZTIj"
  },
  {
   "alignment" : 4,
   "enum_fields" :
   [
    {
     "enum_field_value" : 1,
     "name" : "android::trait_trivial_dtor<unsigned char>::value"
    }
   ],
   "linker_set_key" : "_ZTIN7android18trait_trivial_dtorIhE6$valueE",
   "name" : "android::trait_trivial_dtor<unsigned char>::(anonymous enum at system/core/libutils/include/utils/TypeHelpers.h:100:1)",
   "referenced_type" : "_ZTIN7android18trait_trivial_dtorIhE6$valueE",
   "self_type" : "_ZTIN7android18trait_trivial_dtorIhE6$valueE",
   "size" : 4,
   "source_file" : "system/core/libutils/include/utils/TypeHelpers.h",
   "underlying_type" : "_ZTIj"
  },
  {
   "alignment" : 4,
   "enum_fields" :
   [
    {
     "enum_field_value" : 1,
     "name" : "android::trait_trivial_dtor<int>::value"
    }
   ],
   "linker_set_key" : "_ZTIN7android18trait_trivial_dtorIiE6$valueE",
   "name" : "android::trait_trivial_dtor<int>::(anonymous enum at system/core/libutils/include/utils/TypeHelpers.h:103:1)",
   "referenced_type" : "_ZTIN7android18trait_trivial_dtorIiE6$valueE",
   "self_type" : "_ZTIN7android18trait_trivial_dtorIiE6$valueE",
   "size" : 4,
   "source_file" : "system/core/libutils/include/utils/TypeHelpers.h",
   "underlying_type" : "_ZTIj"
  },
  {
   "alignment" : 4,
   "enum_fields" :
   [
    {
     "enum_field_value" : 1,
     "name" : "android::trait_trivial_dtor<unsigned int>::value"
    }
   ],
   "linker_set_key" : "_ZTIN7android18trait_trivial_dtorIjE6$valueE",
   "name" : "android::trait_trivial_dtor<unsigned int>::(anonymous enum at system/core/libutils/include/utils/TypeHelpers.h:104:1)",
   "referenced_type" : "_ZTIN7android18trait_trivial_dtorIjE6$valueE",
   "self_type" : "_ZTIN7android18trait_trivial_dtorIjE6$valueE",
   "size" : 4,
   "source_file" : "system/core/libutils/include/utils/TypeHelpers.h",
   "underlying_type" : "_ZTIj"
  },
  {
   "alignment" : 4,
   "enum_fields" :
   [
    {
     "enum_field_value" : 1,
     "name" : "android::trait_trivial_dtor<long>::value"
    }
   ],
   "linker_set_key" : "_ZTIN7android18trait_trivial_dtorIlE6$valueE",
   "name" : "android::trait_trivial_dtor<long>::(anonymous enum at system/core/libutils/include/utils/TypeHelpers.h:105:1)",
   "referenced_type" : "_ZTIN7android18trait_trivial_dtorIlE6$valueE",
   "self_type" : "_ZTIN7android18trait_trivial_dtorIlE6$valueE",
   "size" : 4,
   "source_file" : "system/core/libutils/include/utils/TypeHelpers.h",
   "underlying_type" : "_ZTIj"
  },
  {
   "alignment" : 4,
   "enum_fields" :
   [
    {
     "enum_field_value" : 1,
     "name" : "android::trait_trivial_dtor<unsigned long>::value"
    }
   ],
   "linker_set_key" : "_ZTIN7android18trait_trivial_dtorImE6$valueE",
   "name" : "android::trait_trivial_dtor<unsigned long>::(anonymous enum at system/core/libutils/include/utils/TypeHelpers.h:106:1)",
   "referenced_type" : "_ZTIN7android18trait_trivial_dtorImE6$valueE",
   "self_type" : "_ZTIN7android18trait_trivial_dtorImE6$valueE",
   "size" : 4,
   "source_file" : "system/core/libutils/include/utils/TypeHelpers.h",
   "underlying_type" : "_ZTIj"
  },
  {
   "alignment" : 4,
   "enum_fields" :
   [
    {
     "enum_field_value" : 1,
     "name" : "android::trait_trivial_dtor<short>::value"
    }
   ],
   "linker_set_key" : "_ZTIN7android18trait_trivial_dtorIsE6$valueE",
   "name" : "android::trait_trivial_dtor<short>::(anonymous enum at system/core/libutils/include/utils/TypeHelpers.h:101:1)",
   "referenced_type" : "_ZTIN7android18trait_trivial_dtorIsE6$valueE",
   "self_type" : "_ZTIN7android18trait_trivial_dtorIsE6$valueE",
   "size" : 4,
   "source_file" : "system/core/libutils/include/utils/TypeHelpers.h",
   "underlying_type" : "_ZTIj"
  },
  {
   "alignment" : 4,
   "enum_fields" :
   [
    {
     "enum_field_value" : 1,
     "name" : "android::trait_trivial_dtor<unsigned short>::value"
    }
   ],
   "linker_set_key" : "_ZTIN7android18trait_trivial_dtorItE6$valueE",
   "name" : "android::trait_trivial_dtor<unsigned short>::(anonymous enum at system/core/libutils/include/utils/TypeHelpers.h:102:1)",
   "referenced_type" : "_ZTIN7android18trait_trivial_dtorItE6$valueE",
   "self_type" : "_ZTIN7android18trait_trivial_dtorItE6$valueE",
   "size" : 4,
   "source_file" : "system/core/libutils/include/utils/TypeHelpers.h",
   "underlying_type" : "_ZTIj"
  },
  {
   "alignment" : 4,
   "enum_fields" :
   [
    {
     "enum_field_value" : 1,
     "name" : "android::trait_trivial_dtor<void>::value"
    }
   ],
   "linker_set_key" : "_ZTIN7android18trait_trivial_dtorIvE6$valueE",
   "name" : "android::trait_trivial_dtor<void>::(anonymous enum at system/core/libutils/include/utils/TypeHelpers.h:97:1)",
   "referenced_type" : "_ZTIN7android18trait_trivial_dtorIvE6$valueE",
   "self_type" : "_ZTIN7android18trait_trivial_dtorIvE6$valueE",
   "size" : 4,
   "source_file" : "system/core/libutils/include/utils/TypeHelpers.h",
   "underlying_type" : "_ZTIj"
  },
  {
   "alignment" : 4,
   "enum_fields" :
   [
    {
     "enum_field_value" : 1,
     "name" : "android::trait_trivial_dtor<long long>::value"
    }
   ],
   "linker_set_key" : "_ZTIN7android18trait_trivial_dtorIxE6$valueE",
   "name" : "android::trait_trivial_dtor<long long>::(anonymous enum at system/core/libutils/include/utils/TypeHelpers.h:107:1)",
   "referenced_type" : "_ZTIN7android18trait_trivial_dtorIxE6$valueE",
   "self_type" : "_ZTIN7android18trait_trivial_dtorIxE6$valueE",
   "size" : 4,
   "source_file" : "system/core/libutils/include/utils/TypeHelpers.h",
   "underlying_type" : "_ZTIj"
  },
  {
   "alignment" : 4,
   "enum_fields" :
   [
    {
     "enum_field_value" : 1,
     "name" : "android::trait_trivial_dtor<unsigned long long>::value"
    }
   ],
   "linker_set_key" : "_ZTIN7android18trait_trivial_dtorIyE6$valueE",
   "name" : "android::trait_trivial_dtor<unsigned long long>::(anonymous enum at system/core/libutils/include/utils/TypeHelpers.h:108:1)",
   "referenced_type" : "_ZTIN7android18trait_trivial_dtorIyE6$valueE",
   "self_type" : "_ZTIN7android18trait_trivial_dtorIyE6$valueE",
   "size" : 4,
   "source_file" : "system/core/libutils/include/utils/TypeHelpers.h",
   "underlying_type" : "_ZTIj"
  },
  {
   "alignment" : 4,
   "enum_fields" :
   [
    {
     "enum_field_value" : 1,
     "name" : "android::trait_trivial_move<android::key_value_pair_t<android::String8, android::String8>>::value"
    }
   ],
   "linker_set_key" : "_ZTIN7android18trait_trivial_moveINS_16key_value_pair_tINS_7String8ES2_EEE6$valueE",
   "name" : "android::trait_trivial_move<key_value_pair_t<String8, String8>>::(anonymous enum at system/core/libutils/include/utils/TypeHelpers.h:290:3)",
   "referenced_type" : "_ZTIN7android18trait_trivial_moveINS_16key_value_pair_tINS_7String8ES2_EEE6$valueE",
   "self_type" : "_ZTIN7android18trait_trivial_moveINS_16key_value_pair_tINS_7String8ES2_EEE6$valueE",
   "size" : 4,
   "source_file" : "system/core/libutils/include/utils/TypeHelpers.h",
   "underlying_type" : "_ZTIj"
  },
  {
   "alignment" : 4,
   "enum_fields" :
   [
    {
     "enum_field_value" : 0,
     "name" : "android::trait_trivial_move<android::key_value_pair_t<int, android::sp<android::AudioIoDescriptor>>>::value"
    }
   ],
   "linker_set_key" : "_ZTIN7android18trait_trivial_moveINS_16key_value_pair_tIiNS_2spINS_17AudioIoDescriptorEEEEEE6$valueE",
   "name" : "android::trait_trivial_move<key_value_pair_t<int, sp<AudioIoDescriptor>>>::(anonymous enum at system/core/libutils/include/utils/TypeHelpers.h:290:3)",
   "referenced_type" : "_ZTIN7android18trait_trivial_moveINS_16key_value_pair_tIiNS_2spINS_17AudioIoDescriptorEEEEEE6$valueE",
   "self_type" : "_ZTIN7android18trait_trivial_moveINS_16key_value_pair_tIiNS_2spINS_17AudioIoDescriptorEEEEEE6$valueE",
   "size" : 4,
   "source_file" : "system/core/libutils/include/utils/TypeHelpers.h",
   "underlying_type" : "_ZTIj"
  },
  {
   "alignment" : 4,
   "enum_fields" :
   [
    {
     "enum_field_value" : 0,
     "name" : "android::trait_trivial_move<android::AudioMixMatchCriterion>::value"
    }
   ],
   "linker_set_key" : "_ZTIN7android18trait_trivial_moveINS_22AudioMixMatchCriterionEE6$valueE",
   "name" : "android::trait_trivial_move<AudioMixMatchCriterion>::(anonymous enum at system/core/libutils/include/utils/TypeHelpers.h:38:51)",
   "referenced_type" : "_ZTIN7android18trait_trivial_moveINS_22AudioMixMatchCriterionEE6$valueE",
   "self_type" : "_ZTIN7android18trait_trivial_moveINS_22AudioMixMatchCriterionEE6$valueE",
   "size" : 4,
   "source_file" : "system/core/libutils/include/utils/TypeHelpers.h",
   "underlying_type" : "_ZTIj"
  },
  {
   "alignment" : 4,
   "enum_fields" :
   [
    {
     "enum_field_value" : 0,
     "name" : "android::trait_trivial_move<android::sp<android::AudioSystem::AudioPortCallback>>::value"
    }
   ],
   "linker_set_key" : "_ZTIN7android18trait_trivial_moveINS_2spINS_11AudioSystem17AudioPortCallbackEEEE6$valueE",
   "name" : "android::trait_trivial_move<sp<AudioPortCallback>>::(anonymous enum at system/core/libutils/include/utils/TypeHelpers.h:38:51)",
   "referenced_type" : "_ZTIN7android18trait_trivial_moveINS_2spINS_11AudioSystem17AudioPortCallbackEEEE6$valueE",
   "self_type" : "_ZTIN7android18trait_trivial_moveINS_2spINS_11AudioSystem17AudioPortCallbackEEEE6$valueE",
   "size" : 4,
   "source_file" : "system/core/libutils/include/utils/TypeHelpers.h",
   "underlying_type" : "_ZTIj"
  },
  {
   "alignment" : 4,
   "enum_fields" :
   [
    {
     "enum_field_value" : 0,
     "name" : "android::trait_trivial_move<android::sp<android::AudioSystem::AudioVolumeGroupCallback>>::value"
    }
   ],
   "linker_set_key" : "_ZTIN7android18trait_trivial_moveINS_2spINS_11AudioSystem24AudioVolumeGroupCallbackEEEE6$valueE",
   "name" : "android::trait_trivial_move<sp<AudioVolumeGroupCallback>>::(anonymous enum at system/core/libutils/include/utils/TypeHelpers.h:38:51)",
   "referenced_type" : "_ZTIN7android18trait_trivial_moveINS_2spINS_11AudioSystem24AudioVolumeGroupCallbackEEEE6$valueE",
   "self_type" : "_ZTIN7android18trait_trivial_moveINS_2spINS_11AudioSystem24AudioVolumeGroupCallbackEEEE6$valueE",
   "size" : 4,
   "source_file" : "system/core/libutils/include/utils/TypeHelpers.h",
   "underlying_type" : "_ZTIj"
  },
  {
   "alignment" : 4,
   "enum_fields" :
   [
    {
     "enum_field_value" : 0,
     "name" : "android::trait_trivial_move<android::sp<android::AudioIoDescriptor>>::value"
    }
   ],
   "linker_set_key" : "_ZTIN7android18trait_trivial_moveINS_2spINS_17AudioIoDescriptorEEEE6$valueE",
   "name" : "android::trait_trivial_move<sp<AudioIoDescriptor>>::(anonymous enum at system/core/libutils/include/utils/TypeHelpers.h:38:51)",
   "referenced_type" : "_ZTIN7android18trait_trivial_moveINS_2spINS_17AudioIoDescriptorEEEE6$valueE",
   "self_type" : "_ZTIN7android18trait_trivial_moveINS_2spINS_17AudioIoDescriptorEEEE6$valueE",
   "size" : 4,
   "source_file" : "system/core/libutils/include/utils/TypeHelpers.h",
   "underlying_type" : "_ZTIj"
  },
  {
   "alignment" : 4,
   "enum_fields" :
   [
    {
     "enum_field_value" : 1,
     "name" : "android::trait_trivial_move<android::String8>::value"
    }
   ],
   "linker_set_key" : "_ZTIN7android18trait_trivial_moveINS_7String8EE6$valueE",
   "name" : "android::trait_trivial_move<String8>::(anonymous enum at system/core/libutils/include/utils/String8.h:231:1)",
   "referenced_type" : "_ZTIN7android18trait_trivial_moveINS_7String8EE6$valueE",
   "self_type" : "_ZTIN7android18trait_trivial_moveINS_7String8EE6$valueE",
   "size" : 4,
   "source_file" : "system/core/libutils/include/utils/String8.h",
   "underlying_type" : "_ZTIj"
  },
  {
   "alignment" : 4,
   "enum_fields" :
   [
    {
     "enum_field_value" : 1,
     "name" : "android::trait_trivial_move<android::String16>::value"
    }
   ],
   "linker_set_key" : "_ZTIN7android18trait_trivial_moveINS_8String16EE6$valueE",
   "name" : "android::trait_trivial_move<String16>::(anonymous enum at system/core/libutils/include/utils/String16.h:183:1)",
   "referenced_type" : "_ZTIN7android18trait_trivial_moveINS_8String16EE6$valueE",
   "self_type" : "_ZTIN7android18trait_trivial_moveINS_8String16EE6$valueE",
   "size" : 4,
   "source_file" : "system/core/libutils/include/utils/String16.h",
   "underlying_type" : "_ZTIj"
  },
  {
   "alignment" : 4,
   "enum_fields" :
   [
    {
     "enum_field_value" : 1,
     "name" : "android::trait_trivial_move<bool>::value"
    }
   ],
   "linker_set_key" : "_ZTIN7android18trait_trivial_moveIbE6$valueE",
   "name" : "android::trait_trivial_move<bool>::(anonymous enum at system/core/libutils/include/utils/TypeHelpers.h:98:1)",
   "referenced_type" : "_ZTIN7android18trait_trivial_moveIbE6$valueE",
   "self_type" : "_ZTIN7android18trait_trivial_moveIbE6$valueE",
   "size" : 4,
   "source_file" : "system/core/libutils/include/utils/TypeHelpers.h",
   "underlying_type" : "_ZTIj"
  },
  {
   "alignment" : 4,
   "enum_fields" :
   [
    {
     "enum_field_value" : 1,
     "name" : "android::trait_trivial_move<char>::value"
    }
   ],
   "linker_set_key" : "_ZTIN7android18trait_trivial_moveIcE6$valueE",
   "name" : "android::trait_trivial_move<char>::(anonymous enum at system/core/libutils/include/utils/TypeHelpers.h:99:1)",
   "referenced_type" : "_ZTIN7android18trait_trivial_moveIcE6$valueE",
   "self_type" : "_ZTIN7android18trait_trivial_moveIcE6$valueE",
   "size" : 4,
   "source_file" : "system/core/libutils/include/utils/TypeHelpers.h",
   "underlying_type" : "_ZTIj"
  },
  {
   "alignment" : 4,
   "enum_fields" :
   [
    {
     "enum_field_value" : 1,
     "name" : "android::trait_trivial_move<double>::value"
    }
   ],
   "linker_set_key" : "_ZTIN7android18trait_trivial_moveIdE6$valueE",
   "name" : "android::trait_trivial_move<double>::(anonymous enum at system/core/libutils/include/utils/TypeHelpers.h:110:1)",
   "referenced_type" : "_ZTIN7android18trait_trivial_moveIdE6$valueE",
   "self_type" : "_ZTIN7android18trait_trivial_moveIdE6$valueE",
   "size" : 4,
   "source_file" : "system/core/libutils/include/utils/TypeHelpers.h",
   "underlying_type" : "_ZTIj"
  },
  {
   "alignment" : 4,
   "enum_fields" :
   [
    {
     "enum_field_value" : 1,
     "name" : "android::trait_trivial_move<float>::value"
    }
   ],
   "linker_set_key" : "_ZTIN7android18trait_trivial_moveIfE6$valueE",
   "name" : "android::trait_trivial_move<float>::(anonymous enum at system/core/libutils/include/utils/TypeHelpers.h:109:1)",
   "referenced_type" : "_ZTIN7android18trait_trivial_moveIfE6$valueE",
   "self_type" : "_ZTIN7android18trait_trivial_moveIfE6$valueE",
   "size" : 4,
   "source_file" : "system/core/libutils/include/utils/TypeHelpers.h",
   "underlying_type" : "_ZTIj"
  },
  {
   "alignment" : 4,
   "enum_fields" :
   [
    {
     "enum_field_value" : 1,
     "name" : "android::trait_trivial_move<unsigned char>::value"
    }
   ],
   "linker_set_key" : "_ZTIN7android18trait_trivial_moveIhE6$valueE",
   "name" : "android::trait_trivial_move<unsigned char>::(anonymous enum at system/core/libutils/include/utils/TypeHelpers.h:100:1)",
   "referenced_type" : "_ZTIN7android18trait_trivial_moveIhE6$valueE",
   "self_type" : "_ZTIN7android18trait_trivial_moveIhE6$valueE",
   "size" : 4,
   "source_file" : "system/core/libutils/include/utils/TypeHelpers.h",
   "underlying_type" : "_ZTIj"
  },
  {
   "alignment" : 4,
   "enum_fields" :
   [
    {
     "enum_field_value" : 1,
     "name" : "android::trait_trivial_move<int>::value"
    }
   ],
   "linker_set_key" : "_ZTIN7android18trait_trivial_moveIiE6$valueE",
   "name" : "android::trait_trivial_move<int>::(anonymous enum at system/core/libutils/include/utils/TypeHelpers.h:103:1)",
   "referenced_type" : "_ZTIN7android18trait_trivial_moveIiE6$valueE",
   "self_type" : "_ZTIN7android18trait_trivial_moveIiE6$valueE",
   "size" : 4,
   "source_file" : "system/core/libutils/include/utils/TypeHelpers.h",
   "underlying_type" : "_ZTIj"
  },
  {
   "alignment" : 4,
   "enum_fields" :
   [
    {
     "enum_field_value" : 1,
     "name" : "android::trait_trivial_move<unsigned int>::value"
    }
   ],
   "linker_set_key" : "_ZTIN7android18trait_trivial_moveIjE6$valueE",
   "name" : "android::trait_trivial_move<unsigned int>::(anonymous enum at system/core/libutils/include/utils/TypeHelpers.h:104:1)",
   "referenced_type" : "_ZTIN7android18trait_trivial_moveIjE6$valueE",
   "self_type" : "_ZTIN7android18trait_trivial_moveIjE6$valueE",
   "size" : 4,
   "source_file" : "system/core/libutils/include/utils/TypeHelpers.h",
   "underlying_type" : "_ZTIj"
  },
  {
   "alignment" : 4,
   "enum_fields" :
   [
    {
     "enum_field_value" : 1,
     "name" : "android::trait_trivial_move<long>::value"
    }
   ],
   "linker_set_key" : "_ZTIN7android18trait_trivial_moveIlE6$valueE",
   "name" : "android::trait_trivial_move<long>::(anonymous enum at system/core/libutils/include/utils/TypeHelpers.h:105:1)",
   "referenced_type" : "_ZTIN7android18trait_trivial_moveIlE6$valueE",
   "self_type" : "_ZTIN7android18trait_trivial_moveIlE6$valueE",
   "size" : 4,
   "source_file" : "system/core/libutils/include/utils/TypeHelpers.h",
   "underlying_type" : "_ZTIj"
  },
  {
   "alignment" : 4,
   "enum_fields" :
   [
    {
     "enum_field_value" : 1,
     "name" : "android::trait_trivial_move<unsigned long>::value"
    }
   ],
   "linker_set_key" : "_ZTIN7android18trait_trivial_moveImE6$valueE",
   "name" : "android::trait_trivial_move<unsigned long>::(anonymous enum at system/core/libutils/include/utils/TypeHelpers.h:106:1)",
   "referenced_type" : "_ZTIN7android18trait_trivial_moveImE6$valueE",
   "self_type" : "_ZTIN7android18trait_trivial_moveImE6$valueE",
   "size" : 4,
   "source_file" : "system/core/libutils/include/utils/TypeHelpers.h",
   "underlying_type" : "_ZTIj"
  },
  {
   "alignment" : 4,
   "enum_fields" :
   [
    {
     "enum_field_value" : 1,
     "name" : "android::trait_trivial_move<short>::value"
    }
   ],
   "linker_set_key" : "_ZTIN7android18trait_trivial_moveIsE6$valueE",
   "name" : "android::trait_trivial_move<short>::(anonymous enum at system/core/libutils/include/utils/TypeHelpers.h:101:1)",
   "referenced_type" : "_ZTIN7android18trait_trivial_moveIsE6$valueE",
   "self_type" : "_ZTIN7android18trait_trivial_moveIsE6$valueE",
   "size" : 4,
   "source_file" : "system/core/libutils/include/utils/TypeHelpers.h",
   "underlying_type" : "_ZTIj"
  },
  {
   "alignment" : 4,
   "enum_fields" :
   [
    {
     "enum_field_value" : 1,
     "name" : "android::trait_trivial_move<unsigned short>::value"
    }
   ],
   "linker_set_key" : "_ZTIN7android18trait_trivial_moveItE6$valueE",
   "name" : "android::trait_trivial_move<unsigned short>::(anonymous enum at system/core/libutils/include/utils/TypeHelpers.h:102:1)",
   "referenced_type" : "_ZTIN7android18trait_trivial_moveItE6$valueE",
   "self_type" : "_ZTIN7android18trait_trivial_moveItE6$valueE",
   "size" : 4,
   "source_file" : "system/core/libutils/include/utils/TypeHelpers.h",
   "underlying_type" : "_ZTIj"
  },
  {
   "alignment" : 4,
   "enum_fields" :
   [
    {
     "enum_field_value" : 1,
     "name" : "android::trait_trivial_move<void>::value"
    }
   ],
   "linker_set_key" : "_ZTIN7android18trait_trivial_moveIvE6$valueE",
   "name" : "android::trait_trivial_move<void>::(anonymous enum at system/core/libutils/include/utils/TypeHelpers.h:97:1)",
   "referenced_type" : "_ZTIN7android18trait_trivial_moveIvE6$valueE",
   "self_type" : "_ZTIN7android18trait_trivial_moveIvE6$valueE",
   "size" : 4,
   "source_file" : "system/core/libutils/include/utils/TypeHelpers.h",
   "underlying_type" : "_ZTIj"
  },
  {
   "alignment" : 4,
   "enum_fields" :
   [
    {
     "enum_field_value" : 1,
     "name" : "android::trait_trivial_move<long long>::value"
    }
   ],
   "linker_set_key" : "_ZTIN7android18trait_trivial_moveIxE6$valueE",
   "name" : "android::trait_trivial_move<long long>::(anonymous enum at system/core/libutils/include/utils/TypeHelpers.h:107:1)",
   "referenced_type" : "_ZTIN7android18trait_trivial_moveIxE6$valueE",
   "self_type" : "_ZTIN7android18trait_trivial_moveIxE6$valueE",
   "size" : 4,
   "source_file" : "system/core/libutils/include/utils/TypeHelpers.h",
   "underlying_type" : "_ZTIj"
  },
  {
   "alignment" : 4,
   "enum_fields" :
   [
    {
     "enum_field_value" : 1,
     "name" : "android::trait_trivial_move<unsigned long long>::value"
    }
   ],
   "linker_set_key" : "_ZTIN7android18trait_trivial_moveIyE6$valueE",
   "name" : "android::trait_trivial_move<unsigned long long>::(anonymous enum at system/core/libutils/include/utils/TypeHelpers.h:108:1)",
   "referenced_type" : "_ZTIN7android18trait_trivial_moveIyE6$valueE",
   "self_type" : "_ZTIN7android18trait_trivial_moveIyE6$valueE",
   "size" : 4,
   "source_file" : "system/core/libutils/include/utils/TypeHelpers.h",
   "underlying_type" : "_ZTIj"
  },
  {
   "alignment" : 4,
   "enum_fields" :
   [
    {
     "enum_field_value" : 0,
     "name" : "android::Mutex::PRIVATE"
    },
    {
     "enum_field_value" : 1,
     "name" : "android::Mutex::SHARED"
    }
   ],
   "linker_set_key" : "_ZTIN7android5Mutex8$PRIVATEE",
   "name" : "android::Mutex::(anonymous enum at system/core/libutils/include/utils/Mutex.h:96:5)",
   "referenced_type" : "_ZTIN7android5Mutex8$PRIVATEE",
   "self_type" : "_ZTIN7android5Mutex8$PRIVATEE",
   "size" : 4,
   "source_file" : "system/core/libutils/include/utils/Mutex.h",
   "underlying_type" : "_ZTIj"
  },
  {
   "alignment" : 4,
   "enum_fields" :
   [
    {
     "enum_field_value" : -1,
     "name" : "android::media::audio::common::AudioFormat::INVALID"
    },
    {
     "enum_field_value" : 0,
     "name" : "android::media::audio::common::AudioFormat::DEFAULT"
    },
    {
     "enum_field_value" : 0,
     "name" : "android::media::audio::common::AudioFormat::PCM"
    },
    {
     "enum_field_value" : 16777216,
     "name" : "android::media::audio::common::AudioFormat::MP3"
    },
    {
     "enum_field_value" : 33554432,
     "name" : "android::media::audio::common::AudioFormat::AMR_NB"
    },
    {
     "enum_field_value" : 50331648,
     "name" : "android::media::audio::common::AudioFormat::AMR_WB"
    },
    {
     "enum_field_value" : 67108864,
     "name" : "android::media::audio::common::AudioFormat::AAC"
    },
    {
     "enum_field_value" : 83886080,
     "name" : "android::media::audio::common::AudioFormat::HE_AAC_V1"
    },
    {
     "enum_field_value" : 100663296,
     "name" : "android::media::audio::common::AudioFormat::HE_AAC_V2"
    },
    {
     "enum_field_value" : 117440512,
     "name" : "android::media::audio::common::AudioFormat::VORBIS"
    },
    {
     "enum_field_value" : 134217728,
     "name" : "android::media::audio::common::AudioFormat::OPUS"
    },
    {
     "enum_field_value" : 150994944,
     "name" : "android::media::audio::common::AudioFormat::AC3"
    },
    {
     "enum_field_value" : 167772160,
     "name" : "android::media::audio::common::AudioFormat::E_AC3"
    },
    {
     "enum_field_value" : 184549376,
     "name" : "android::media::audio::common::AudioFormat::DTS"
    },
    {
     "enum_field_value" : 201326592,
     "name" : "android::media::audio::common::AudioFormat::DTS_HD"
    },
    {
     "enum_field_value" : 218103808,
     "name" : "android::media::audio::common::AudioFormat::IEC61937"
    },
    {
     "enum_field_value" : 234881024,
     "name" : "android::media::audio::common::AudioFormat::DOLBY_TRUEHD"
    },
    {
     "enum_field_value" : 268435456,
     "name" : "android::media::audio::common::AudioFormat::EVRC"
    },
    {
     "enum_field_value" : 285212672,
     "name" : "android::media::audio::common::AudioFormat::EVRCB"
    },
    {
     "enum_field_value" : 301989888,
     "name" : "android::media::audio::common::AudioFormat::EVRCWB"
    },
    {
     "enum_field_value" : 318767104,
     "name" : "android::media::audio::common::AudioFormat::EVRCNW"
    },
    {
     "enum_field_value" : 335544320,
     "name" : "android::media::audio::common::AudioFormat::AAC_ADIF"
    },
    {
     "enum_field_value" : 352321536,
     "name" : "android::media::audio::common::AudioFormat::WMA"
    },
    {
     "enum_field_value" : 369098752,
     "name" : "android::media::audio::common::AudioFormat::WMA_PRO"
    },
    {
     "enum_field_value" : 385875968,
     "name" : "android::media::audio::common::AudioFormat::AMR_WB_PLUS"
    },
    {
     "enum_field_value" : 402653184,
     "name" : "android::media::audio::common::AudioFormat::MP2"
    },
    {
     "enum_field_value" : 419430400,
     "name" : "android::media::audio::common::AudioFormat::QCELP"
    },
    {
     "enum_field_value" : 436207616,
     "name" : "android::media::audio::common::AudioFormat::DSD"
    },
    {
     "enum_field_value" : 452984832,
     "name" : "android::media::audio::common::AudioFormat::FLAC"
    },
    {
     "enum_field_value" : 469762048,
     "name" : "android::media::audio::common::AudioFormat::ALAC"
    },
    {
     "enum_field_value" : 486539264,
     "name" : "android::media::audio::common::AudioFormat::APE"
    },
    {
     "enum_field_value" : 503316480,
     "name" : "android::media::audio::common::AudioFormat::AAC_ADTS"
    },
    {
     "enum_field_value" : 520093696,
     "name" : "android::media::audio::common::AudioFormat::SBC"
    },
    {
     "enum_field_value" : 536870912,
     "name" : "android::media::audio::common::AudioFormat::APTX"
    },
    {
     "enum_field_value" : 553648128,
     "name" : "android::media::audio::common::AudioFormat::APTX_HD"
    },
    {
     "enum_field_value" : 570425344,
     "name" : "android::media::audio::common::AudioFormat::AC4"
    },
    {
     "enum_field_value" : 587202560,
     "name" : "android::media::audio::common::AudioFormat::LDAC"
    },
    {
     "enum_field_value" : 603979776,
     "name" : "android::media::audio::common::AudioFormat::MAT"
    },
    {
     "enum_field_value" : 620756992,
     "name" : "android::media::audio::common::AudioFormat::AAC_LATM"
    },
    {
     "enum_field_value" : 637534208,
     "name" : "android::media::audio::common::AudioFormat::CELT"
    },
    {
     "enum_field_value" : 654311424,
     "name" : "android::media::audio::common::AudioFormat::APTX_ADAPTIVE"
    },
    {
     "enum_field_value" : 671088640,
     "name" : "android::media::audio::common::AudioFormat::LHDC"
    },
    {
     "enum_field_value" : 687865856,
     "name" : "android::media::audio::common::AudioFormat::LHDC_LL"
    },
    {
     "enum_field_value" : 704643072,
     "name" : "android::media::audio::common::AudioFormat::APTX_TWSP"
    },
    {
     "enum_field_value" : -16777216,
     "name" : "android::media::audio::common::AudioFormat::MAIN_MASK"
    },
    {
     "enum_field_value" : 16777215,
     "name" : "android::media::audio::common::AudioFormat::SUB_MASK"
    },
    {
     "enum_field_value" : 1,
     "name" : "android::media::audio::common::AudioFormat::PCM_SUB_16_BIT"
    },
    {
     "enum_field_value" : 2,
     "name" : "android::media::audio::common::AudioFormat::PCM_SUB_8_BIT"
    },
    {
     "enum_field_value" : 3,
     "name" : "android::media::audio::common::AudioFormat::PCM_SUB_32_BIT"
    },
    {
     "enum_field_value" : 4,
     "name" : "android::media::audio::common::AudioFormat::PCM_SUB_8_24_BIT"
    },
    {
     "enum_field_value" : 5,
     "name" : "android::media::audio::common::AudioFormat::PCM_SUB_FLOAT"
    },
    {
     "enum_field_value" : 6,
     "name" : "android::media::audio::common::AudioFormat::PCM_SUB_24_BIT_PACKED"
    },
    {
     "enum_field_value" : 0,
     "name" : "android::media::audio::common::AudioFormat::MP3_SUB_NONE"
    },
    {
     "enum_field_value" : 0,
     "name" : "android::media::audio::common::AudioFormat::AMR_SUB_NONE"
    },
    {
     "enum_field_value" : 1,
     "name" : "android::media::audio::common::AudioFormat::AAC_SUB_MAIN"
    },
    {
     "enum_field_value" : 2,
     "name" : "android::media::audio::common::AudioFormat::AAC_SUB_LC"
    },
    {
     "enum_field_value" : 4,
     "name" : "android::media::audio::common::AudioFormat::AAC_SUB_SSR"
    },
    {
     "enum_field_value" : 8,
     "name" : "android::media::audio::common::AudioFormat::AAC_SUB_LTP"
    },
    {
     "enum_field_value" : 16,
     "name" : "android::media::audio::common::AudioFormat::AAC_SUB_HE_V1"
    },
    {
     "enum_field_value" : 32,
     "name" : "android::media::audio::common::AudioFormat::AAC_SUB_SCALABLE"
    },
    {
     "enum_field_value" : 64,
     "name" : "android::media::audio::common::AudioFormat::AAC_SUB_ERLC"
    },
    {
     "enum_field_value" : 128,
     "name" : "android::media::audio::common::AudioFormat::AAC_SUB_LD"
    },
    {
     "enum_field_value" : 256,
     "name" : "android::media::audio::common::AudioFormat::AAC_SUB_HE_V2"
    },
    {
     "enum_field_value" : 512,
     "name" : "android::media::audio::common::AudioFormat::AAC_SUB_ELD"
    },
    {
     "enum_field_value" : 768,
     "name" : "android::media::audio::common::AudioFormat::AAC_SUB_XHE"
    },
    {
     "enum_field_value" : 0,
     "name" : "android::media::audio::common::AudioFormat::VORBIS_SUB_NONE"
    },
    {
     "enum_field_value" : 1,
     "name" : "android::media::audio::common::AudioFormat::E_AC3_SUB_JOC"
    },
    {
     "enum_field_value" : 1,
     "name" : "android::media::audio::common::AudioFormat::MAT_SUB_1_0"
    },
    {
     "enum_field_value" : 2,
     "name" : "android::media::audio::common::AudioFormat::MAT_SUB_2_0"
    },
    {
     "enum_field_value" : 3,
     "name" : "android::media::audio::common::AudioFormat::MAT_SUB_2_1"
    }
   ],
   "linker_set_key" : "_ZTIN7android5media5audio6common11AudioFormatE",
   "name" : "android::media::audio::common::AudioFormat",
   "referenced_type" : "_ZTIN7android5media5audio6common11AudioFormatE",
   "self_type" : "_ZTIN7android5media5audio6common11AudioFormatE",
   "size" : 4,
   "source_file" : "out/soong/.intermediates/frameworks/base/media/audio_common-aidl-cpp-source/gen/include/android/media/audio/common/AudioFormat.h",
   "underlying_type" : "_ZTIi"
  },
  {
   "access" : "private",
   "alignment" : 4,
   "enum_fields" :
   [
    {
     "enum_field_value" : 0,
     "name" : "android::Parcel::READ_FLAG_NONE"
    },
    {
     "enum_field_value" : 1,
     "name" : "android::Parcel::READ_FLAG_SP_NULLABLE"
    }
   ],
   "linker_set_key" : "_ZTIN7android6Parcel9ReadFlagsE",
   "name" : "android::Parcel::ReadFlags",
   "referenced_type" : "_ZTIN7android6Parcel9ReadFlagsE",
   "self_type" : "_ZTIN7android6Parcel9ReadFlagsE",
   "size" : 4,
   "source_file" : "frameworks/native/libs/binder/include/binder/Parcel.h",
   "underlying_type" : "_ZTIj"
  },
  {
   "alignment" : 4,
   "enum_fields" :
   [
    {
     "enum_field_value" : 0,
     "name" : "android::binder::Status::EX_NONE"
    },
    {
     "enum_field_value" : -1,
     "name" : "android::binder::Status::EX_SECURITY"
    },
    {
     "enum_field_value" : -2,
     "name" : "android::binder::Status::EX_BAD_PARCELABLE"
    },
    {
     "enum_field_value" : -3,
     "name" : "android::binder::Status::EX_ILLEGAL_ARGUMENT"
    },
    {
     "enum_field_value" : -4,
     "name" : "android::binder::Status::EX_NULL_POINTER"
    },
    {
     "enum_field_value" : -5,
     "name" : "android::binder::Status::EX_ILLEGAL_STATE"
    },
    {
     "enum_field_value" : -6,
     "name" : "android::binder::Status::EX_NETWORK_MAIN_THREAD"
    },
    {
     "enum_field_value" : -7,
     "name" : "android::binder::Status::EX_UNSUPPORTED_OPERATION"
    },
    {
     "enum_field_value" : -8,
     "name" : "android::binder::Status::EX_SERVICE_SPECIFIC"
    },
    {
     "enum_field_value" : -9,
     "name" : "android::binder::Status::EX_PARCELABLE"
    },
    {
     "enum_field_value" : -128,
     "name" : "android::binder::Status::EX_HAS_REPLY_HEADER"
    },
    {
     "enum_field_value" : -129,
     "name" : "android::binder::Status::EX_TRANSACTION_FAILED"
    }
   ],
   "linker_set_key" : "_ZTIN7android6binder6Status9ExceptionE",
   "name" : "android::binder::Status::Exception",
   "referenced_type" : "_ZTIN7android6binder6Status9ExceptionE",
   "self_type" : "_ZTIN7android6binder6Status9ExceptionE",
   "size" : 4,
   "source_file" : "frameworks/native/libs/binder/include/binder/Status.h",
   "underlying_type" : "_ZTIi"
  },
  {
   "alignment" : 4,
   "enum_fields" :
   [
    {
     "enum_field_value" : 0,
     "name" : "android::traits<android::key_value_pair_t<android::String8, android::String8>>::is_pointer"
    },
    {
     "enum_field_value" : 0,
     "name" : "android::traits<android::key_value_pair_t<android::String8, android::String8>>::has_trivial_ctor"
    },
    {
     "enum_field_value" : 0,
     "name" : "android::traits<android::key_value_pair_t<android::String8, android::String8>>::has_trivial_dtor"
    },
    {
     "enum_field_value" : 0,
     "name" : "android::traits<android::key_value_pair_t<android::String8, android::String8>>::has_trivial_copy"
    },
    {
     "enum_field_value" : 1,
     "name" : "android::traits<android::key_value_pair_t<android::String8, android::String8>>::has_trivial_move"
    }
   ],
   "linker_set_key" : "_ZTIN7android6traitsINS_16key_value_pair_tINS_7String8ES2_EEE17$has_trivial_copyE",
   "name" : "android::traits<key_value_pair_t<String8, String8>>::(anonymous enum at system/core/libutils/include/utils/TypeHelpers.h:44:5)",
   "referenced_type" : "_ZTIN7android6traitsINS_16key_value_pair_tINS_7String8ES2_EEE17$has_trivial_copyE",
   "self_type" : "_ZTIN7android6traitsINS_16key_value_pair_tINS_7String8ES2_EEE17$has_trivial_copyE",
   "size" : 4,
   "source_file" : "system/core/libutils/include/utils/TypeHelpers.h",
   "underlying_type" : "_ZTIj"
  },
  {
   "alignment" : 4,
   "enum_fields" :
   [
    {
     "enum_field_value" : 0,
     "name" : "android::traits<android::key_value_pair_t<int, android::sp<android::AudioIoDescriptor>>>::is_pointer"
    },
    {
     "enum_field_value" : 0,
     "name" : "android::traits<android::key_value_pair_t<int, android::sp<android::AudioIoDescriptor>>>::has_trivial_ctor"
    },
    {
     "enum_field_value" : 0,
     "name" : "android::traits<android::key_value_pair_t<int, android::sp<android::AudioIoDescriptor>>>::has_trivial_dtor"
    },
    {
     "enum_field_value" : 0,
     "name" : "android::traits<android::key_value_pair_t<int, android::sp<android::AudioIoDescriptor>>>::has_trivial_copy"
    },
    {
     "enum_field_value" : 0,
     "name" : "android::traits<android::key_value_pair_t<int, android::sp<android::AudioIoDescriptor>>>::has_trivial_move"
    }
   ],
   "linker_set_key" : "_ZTIN7android6traitsINS_16key_value_pair_tIiNS_2spINS_17AudioIoDescriptorEEEEEE17$has_trivial_copyE",
   "name" : "android::traits<key_value_pair_t<int, sp<AudioIoDescriptor>>>::(anonymous enum at system/core/libutils/include/utils/TypeHelpers.h:44:5)",
   "referenced_type" : "_ZTIN7android6traitsINS_16key_value_pair_tIiNS_2spINS_17AudioIoDescriptorEEEEEE17$has_trivial_copyE",
   "self_type" : "_ZTIN7android6traitsINS_16key_value_pair_tIiNS_2spINS_17AudioIoDescriptorEEEEEE17$has_trivial_copyE",
   "size" : 4,
   "source_file" : "system/core/libutils/include/utils/TypeHelpers.h",
   "underlying_type" : "_ZTIj"
  },
  {
   "alignment" : 4,
   "enum_fields" :
   [
    {
     "enum_field_value" : 0,
     "name" : "android::traits<android::AudioMixMatchCriterion>::is_pointer"
    },
    {
     "enum_field_value" : 0,
     "name" : "android::traits<android::AudioMixMatchCriterion>::has_trivial_ctor"
    },
    {
     "enum_field_value" : 0,
     "name" : "android::traits<android::AudioMixMatchCriterion>::has_trivial_dtor"
    },
    {
     "enum_field_value" : 0,
     "name" : "android::traits<android::AudioMixMatchCriterion>::has_trivial_copy"
    },
    {
     "enum_field_value" : 0,
     "name" : "android::traits<android::AudioMixMatchCriterion>::has_trivial_move"
    }
   ],
   "linker_set_key" : "_ZTIN7android6traitsINS_22AudioMixMatchCriterionEE17$has_trivial_copyE",
   "name" : "android::traits<AudioMixMatchCriterion>::(anonymous enum at system/core/libutils/include/utils/TypeHelpers.h:44:5)",
   "referenced_type" : "_ZTIN7android6traitsINS_22AudioMixMatchCriterionEE17$has_trivial_copyE",
   "self_type" : "_ZTIN7android6traitsINS_22AudioMixMatchCriterionEE17$has_trivial_copyE",
   "size" : 4,
   "source_file" : "system/core/libutils/include/utils/TypeHelpers.h",
   "underlying_type" : "_ZTIj"
  },
  {
   "alignment" : 4,
   "enum_fields" :
   [
    {
     "enum_field_value" : 0,
     "name" : "android::traits<android::sp<android::AudioSystem::AudioPortCallback>>::is_pointer"
    },
    {
     "enum_field_value" : 0,
     "name" : "android::traits<android::sp<android::AudioSystem::AudioPortCallback>>::has_trivial_ctor"
    },
    {
     "enum_field_value" : 0,
     "name" : "android::traits<android::sp<android::AudioSystem::AudioPortCallback>>::has_trivial_dtor"
    },
    {
     "enum_field_value" : 0,
     "name" : "android::traits<android::sp<android::AudioSystem::AudioPortCallback>>::has_trivial_copy"
    },
    {
     "enum_field_value" : 0,
     "name" : "android::traits<android::sp<android::AudioSystem::AudioPortCallback>>::has_trivial_move"
    }
   ],
   "linker_set_key" : "_ZTIN7android6traitsINS_2spINS_11AudioSystem17AudioPortCallbackEEEE17$has_trivial_copyE",
   "name" : "android::traits<sp<AudioPortCallback>>::(anonymous enum at system/core/libutils/include/utils/TypeHelpers.h:44:5)",
   "referenced_type" : "_ZTIN7android6traitsINS_2spINS_11AudioSystem17AudioPortCallbackEEEE17$has_trivial_copyE",
   "self_type" : "_ZTIN7android6traitsINS_2spINS_11AudioSystem17AudioPortCallbackEEEE17$has_trivial_copyE",
   "size" : 4,
   "source_file" : "system/core/libutils/include/utils/TypeHelpers.h",
   "underlying_type" : "_ZTIj"
  },
  {
   "alignment" : 4,
   "enum_fields" :
   [
    {
     "enum_field_value" : 0,
     "name" : "android::traits<android::sp<android::AudioSystem::AudioVolumeGroupCallback>>::is_pointer"
    },
    {
     "enum_field_value" : 0,
     "name" : "android::traits<android::sp<android::AudioSystem::AudioVolumeGroupCallback>>::has_trivial_ctor"
    },
    {
     "enum_field_value" : 0,
     "name" : "android::traits<android::sp<android::AudioSystem::AudioVolumeGroupCallback>>::has_trivial_dtor"
    },
    {
     "enum_field_value" : 0,
     "name" : "android::traits<android::sp<android::AudioSystem::AudioVolumeGroupCallback>>::has_trivial_copy"
    },
    {
     "enum_field_value" : 0,
     "name" : "android::traits<android::sp<android::AudioSystem::AudioVolumeGroupCallback>>::has_trivial_move"
    }
   ],
   "linker_set_key" : "_ZTIN7android6traitsINS_2spINS_11AudioSystem24AudioVolumeGroupCallbackEEEE17$has_trivial_copyE",
   "name" : "android::traits<sp<AudioVolumeGroupCallback>>::(anonymous enum at system/core/libutils/include/utils/TypeHelpers.h:44:5)",
   "referenced_type" : "_ZTIN7android6traitsINS_2spINS_11AudioSystem24AudioVolumeGroupCallbackEEEE17$has_trivial_copyE",
   "self_type" : "_ZTIN7android6traitsINS_2spINS_11AudioSystem24AudioVolumeGroupCallbackEEEE17$has_trivial_copyE",
   "size" : 4,
   "source_file" : "system/core/libutils/include/utils/TypeHelpers.h",
   "underlying_type" : "_ZTIj"
  },
  {
   "alignment" : 4,
   "enum_fields" :
   [
    {
     "enum_field_value" : 0,
     "name" : "android::traits<android::sp<android::AudioIoDescriptor>>::is_pointer"
    },
    {
     "enum_field_value" : 0,
     "name" : "android::traits<android::sp<android::AudioIoDescriptor>>::has_trivial_ctor"
    },
    {
     "enum_field_value" : 0,
     "name" : "android::traits<android::sp<android::AudioIoDescriptor>>::has_trivial_dtor"
    },
    {
     "enum_field_value" : 0,
     "name" : "android::traits<android::sp<android::AudioIoDescriptor>>::has_trivial_copy"
    },
    {
     "enum_field_value" : 0,
     "name" : "android::traits<android::sp<android::AudioIoDescriptor>>::has_trivial_move"
    }
   ],
   "linker_set_key" : "_ZTIN7android6traitsINS_2spINS_17AudioIoDescriptorEEEE17$has_trivial_copyE",
   "name" : "android::traits<sp<AudioIoDescriptor>>::(anonymous enum at system/core/libutils/include/utils/TypeHelpers.h:44:5)",
   "referenced_type" : "_ZTIN7android6traitsINS_2spINS_17AudioIoDescriptorEEEE17$has_trivial_copyE",
   "self_type" : "_ZTIN7android6traitsINS_2spINS_17AudioIoDescriptorEEEE17$has_trivial_copyE",
   "size" : 4,
   "source_file" : "system/core/libutils/include/utils/TypeHelpers.h",
   "underlying_type" : "_ZTIj"
  },
  {
   "alignment" : 4,
   "enum_fields" :
   [
    {
     "enum_field_value" : 0,
     "name" : "android::traits<android::String8>::is_pointer"
    },
    {
     "enum_field_value" : 0,
     "name" : "android::traits<android::String8>::has_trivial_ctor"
    },
    {
     "enum_field_value" : 0,
     "name" : "android::traits<android::String8>::has_trivial_dtor"
    },
    {
     "enum_field_value" : 0,
     "name" : "android::traits<android::String8>::has_trivial_copy"
    },
    {
     "enum_field_value" : 1,
     "name" : "android::traits<android::String8>::has_trivial_move"
    }
   ],
   "linker_set_key" : "_ZTIN7android6traitsINS_7String8EE17$has_trivial_copyE",
   "name" : "android::traits<String8>::(anonymous enum at system/core/libutils/include/utils/TypeHelpers.h:44:5)",
   "referenced_type" : "_ZTIN7android6traitsINS_7String8EE17$has_trivial_copyE",
   "self_type" : "_ZTIN7android6traitsINS_7String8EE17$has_trivial_copyE",
   "size" : 4,
   "source_file" : "system/core/libutils/include/utils/TypeHelpers.h",
   "underlying_type" : "_ZTIj"
  },
  {
   "alignment" : 4,
   "enum_fields" :
   [
    {
     "enum_field_value" : 0,
     "name" : "android::traits<int>::is_pointer"
    },
    {
     "enum_field_value" : 1,
     "name" : "android::traits<int>::has_trivial_ctor"
    },
    {
     "enum_field_value" : 1,
     "name" : "android::traits<int>::has_trivial_dtor"
    },
    {
     "enum_field_value" : 1,
     "name" : "android::traits<int>::has_trivial_copy"
    },
    {
     "enum_field_value" : 1,
     "name" : "android::traits<int>::has_trivial_move"
    }
   ],
   "linker_set_key" : "_ZTIN7android6traitsIiE17$has_trivial_copyE",
   "name" : "android::traits<int>::(anonymous enum at system/core/libutils/include/utils/TypeHelpers.h:44:5)",
   "referenced_type" : "_ZTIN7android6traitsIiE17$has_trivial_copyE",
   "self_type" : "_ZTIN7android6traitsIiE17$has_trivial_copyE",
   "size" : 4,
   "source_file" : "system/core/libutils/include/utils/TypeHelpers.h",
   "underlying_type" : "_ZTIj"
  },
  {
   "alignment" : 4,
   "enum_fields" :
   [
    {
     "enum_field_value" : 1,
     "name" : "android::IBinder::FIRST_CALL_TRANSACTION"
    },
    {
     "enum_field_value" : 16777215,
     "name" : "android::IBinder::LAST_CALL_TRANSACTION"
    },
    {
     "enum_field_value" : 1599098439,
     "name" : "android::IBinder::PING_TRANSACTION"
    },
    {
     "enum_field_value" : 1598311760,
     "name" : "android::IBinder::DUMP_TRANSACTION"
    },
    {
     "enum_field_value" : 1598246212,
     "name" : "android::IBinder::SHELL_COMMAND_TRANSACTION"
    },
    {
     "enum_field_value" : 1598968902,
     "name" : "android::IBinder::INTERFACE_TRANSACTION"
    },
    {
     "enum_field_value" : 1599295570,
     "name" : "android::IBinder::SYSPROPS_TRANSACTION"
    },
    {
     "enum_field_value" : 1598380116,
     "name" : "android::IBinder::EXTENSION_TRANSACTION"
    },
    {
     "enum_field_value" : 1599097156,
     "name" : "android::IBinder::DEBUG_PID_TRANSACTION"
    },
    {
     "enum_field_value" : 1599362900,
     "name" : "android::IBinder::TWEET_TRANSACTION"
    },
    {
     "enum_field_value" : 1598835019,
     "name" : "android::IBinder::LIKE_TRANSACTION"
    },
    {
     "enum_field_value" : 1,
     "name" : "android::IBinder::FLAG_ONEWAY"
    },
    {
     "enum_field_value" : 32,
     "name" : "android::IBinder::FLAG_CLEAR_BUF"
    },
    {
     "enum_field_value" : 268435456,
     "name" : "android::IBinder::FLAG_PRIVATE_VENDOR"
    }
   ],
   "linker_set_key" : "_ZTIN7android7IBinder22$DEBUG_PID_TRANSACTIONE",
   "name" : "android::IBinder::(anonymous enum at frameworks/native/libs/binder/include/binder/IBinder.h:52:5)",
   "referenced_type" : "_ZTIN7android7IBinder22$DEBUG_PID_TRANSACTIONE",
   "self_type" : "_ZTIN7android7IBinder22$DEBUG_PID_TRANSACTIONE",
   "size" : 4,
   "source_file" : "frameworks/native/libs/binder/include/binder/IBinder.h",
   "underlying_type" : "_ZTIj"
  },
  {
   "access" : "protected",
   "alignment" : 4,
   "enum_fields" :
   [
    {
     "enum_field_value" : 1,
     "name" : "android::RefBase::FIRST_INC_STRONG"
    }
   ],
   "linker_set_key" : "_ZTIN7android7RefBase17$FIRST_INC_STRONGE",
   "name" : "android::RefBase::(anonymous enum at system/core/libutils/include/utils/RefBase.h:358:5)",
   "referenced_type" : "_ZTIN7android7RefBase17$FIRST_INC_STRONGE",
   "self_type" : "_ZTIN7android7RefBase17$FIRST_INC_STRONGE",
   "size" : 4,
   "source_file" : "system/core/libutils/include/utils/RefBase.h",
   "underlying_type" : "_ZTIj"
  },
  {
   "access" : "protected",
   "alignment" : 4,
   "enum_fields" :
   [
    {
     "enum_field_value" : 0,
     "name" : "android::RefBase::OBJECT_LIFETIME_STRONG"
    },
    {
     "enum_field_value" : 1,
     "name" : "android::RefBase::OBJECT_LIFETIME_WEAK"
    },
    {
     "enum_field_value" : 1,
     "name" : "android::RefBase::OBJECT_LIFETIME_MASK"
    }
   ],
   "linker_set_key" : "_ZTIN7android7RefBase21$OBJECT_LIFETIME_MASKE",
   "name" : "android::RefBase::(anonymous enum at system/core/libutils/include/utils/RefBase.h:349:5)",
   "referenced_type" : "_ZTIN7android7RefBase21$OBJECT_LIFETIME_MASKE",
   "self_type" : "_ZTIN7android7RefBase21$OBJECT_LIFETIME_MASKE",
   "size" : 4,
   "source_file" : "system/core/libutils/include/utils/RefBase.h",
   "underlying_type" : "_ZTIj"
  },
  {
   "alignment" : 4,
   "enum_fields" :
   [
    {
     "enum_field_value" : 1,
     "name" : "android::internal::details::IsIterable<std::__1::vector<std::__1::optional<std::__1::basic_string<char>>, std::__1::allocator<std::__1::optional<std::__1::basic_string<char>>>>>::value"
    }
   ],
   "linker_set_key" : "_ZTIN7android8internal7details10IsIterableINSt3__16vectorINS3_8optionalINS3_12basic_stringIcNS3_11char_traitsIcEENS3_9allocatorIcEEEEEENS9_ISC_EEEEE6$valueE",
   "name" : "android::internal::details::IsIterable<vector<optional<basic_string<char>>, allocator<optional<basic_string<char>>>>>::(anonymous enum at frameworks/native/libs/binder/ndk/include_cpp/android/binder_to_string.h:131:5)",
   "referenced_type" : "_ZTIN7android8internal7details10IsIterableINSt3__16vectorINS3_8optionalINS3_12basic_stringIcNS3_11char_traitsIcEENS3_9allocatorIcEEEEEENS9_ISC_EEEEE6$valueE",
   "self_type" : "_ZTIN7android8internal7details10IsIterableINSt3__16vectorINS3_8optionalINS3_12basic_stringIcNS3_11char_traitsIcEENS3_9allocatorIcEEEEEENS9_ISC_EEEEE6$valueE",
   "size" : 4,
   "source_file" : "frameworks/native/libs/binder/ndk/include_cpp/android/binder_to_string.h",
   "underlying_type" : "_ZTIj"
  },
  {
   "alignment" : 4,
   "enum_fields" :
   [
    {
     "enum_field_value" : 1,
     "name" : "android::internal::details::IsIterable<std::__1::vector<android::media::AudioPortConfig, std::__1::allocator<android::media::AudioPortConfig>>>::value"
    }
   ],
   "linker_set_key" : "_ZTIN7android8internal7details10IsIterableINSt3__16vectorINS_5media15AudioPortConfigENS3_9allocatorIS6_EEEEE6$valueE",
   "name" : "android::internal::details::IsIterable<vector<AudioPortConfig, allocator<AudioPortConfig>>>::(anonymous enum at frameworks/native/libs/binder/ndk/include_cpp/android/binder_to_string.h:131:5)",
   "referenced_type" : "_ZTIN7android8internal7details10IsIterableINSt3__16vectorINS_5media15AudioPortConfigENS3_9allocatorIS6_EEEEE6$valueE",
   "self_type" : "_ZTIN7android8internal7details10IsIterableINSt3__16vectorINS_5media15AudioPortConfigENS3_9allocatorIS6_EEEEE6$valueE",
   "size" : 4,
   "source_file" : "frameworks/native/libs/binder/ndk/include_cpp/android/binder_to_string.h",
   "underlying_type" : "_ZTIj"
  },
  {
   "alignment" : 4,
   "enum_fields" :
   [
    {
     "enum_field_value" : 1,
     "name" : "android::internal::details::IsIterable<std::__1::vector<android::media::AudioStreamType, std::__1::allocator<android::media::AudioStreamType>>>::value"
    }
   ],
   "linker_set_key" : "_ZTIN7android8internal7details10IsIterableINSt3__16vectorINS_5media15AudioStreamTypeENS3_9allocatorIS6_EEEEE6$valueE",
   "name" : "android::internal::details::IsIterable<vector<AudioStreamType, allocator<AudioStreamType>>>::(anonymous enum at frameworks/native/libs/binder/ndk/include_cpp/android/binder_to_string.h:131:5)",
   "referenced_type" : "_ZTIN7android8internal7details10IsIterableINSt3__16vectorINS_5media15AudioStreamTypeENS3_9allocatorIS6_EEEEE6$valueE",
   "self_type" : "_ZTIN7android8internal7details10IsIterableINSt3__16vectorINS_5media15AudioStreamTypeENS3_9allocatorIS6_EEEEE6$valueE",
   "size" : 4,
   "source_file" : "frameworks/native/libs/binder/ndk/include_cpp/android/binder_to_string.h",
   "underlying_type" : "_ZTIj"
  },
  {
   "alignment" : 4,
   "enum_fields" :
   [
    {
     "enum_field_value" : 1,
     "name" : "android::internal::details::IsIterable<std::__1::vector<android::media::SharedFileRegion, std::__1::allocator<android::media::SharedFileRegion>>>::value"
    }
   ],
   "linker_set_key" : "_ZTIN7android8internal7details10IsIterableINSt3__16vectorINS_5media16SharedFileRegionENS3_9allocatorIS6_EEEEE6$valueE",
   "name" : "android::internal::details::IsIterable<vector<SharedFileRegion, allocator<SharedFileRegion>>>::(anonymous enum at frameworks/native/libs/binder/ndk/include_cpp/android/binder_to_string.h:131:5)",
   "referenced_type" : "_ZTIN7android8internal7details10IsIterableINSt3__16vectorINS_5media16SharedFileRegionENS3_9allocatorIS6_EEEEE6$valueE",
   "self_type" : "_ZTIN7android8internal7details10IsIterableINSt3__16vectorINS_5media16SharedFileRegionENS3_9allocatorIS6_EEEEE6$valueE",
   "size" : 4,
   "source_file" : "frameworks/native/libs/binder/ndk/include_cpp/android/binder_to_string.h",
   "underlying_type" : "_ZTIj"
  },
  {
   "alignment" : 4,
   "enum_fields" :
   [
    {
     "enum_field_value" : 1,
     "name" : "android::internal::details::IsIterable<std::__1::vector<android::media::AudioAttributesEx, std::__1::allocator<android::media::AudioAttributesEx>>>::value"
    }
   ],
   "linker_set_key" : "_ZTIN7android8internal7details10IsIterableINSt3__16vectorINS_5media17AudioAttributesExENS3_9allocatorIS6_EEEEE6$valueE",
   "name" : "android::internal::details::IsIterable<vector<AudioAttributesEx, allocator<AudioAttributesEx>>>::(anonymous enum at frameworks/native/libs/binder/ndk/include_cpp/android/binder_to_string.h:131:5)",
   "referenced_type" : "_ZTIN7android8internal7details10IsIterableINSt3__16vectorINS_5media17AudioAttributesExENS3_9allocatorIS6_EEEEE6$valueE",
   "self_type" : "_ZTIN7android8internal7details10IsIterableINSt3__16vectorINS_5media17AudioAttributesExENS3_9allocatorIS6_EEEEE6$valueE",
   "size" : 4,
   "source_file" : "frameworks/native/libs/binder/ndk/include_cpp/android/binder_to_string.h",
   "underlying_type" : "_ZTIj"
  },
  {
   "alignment" : 4,
   "enum_fields" :
   [
    {
     "enum_field_value" : 1,
     "name" : "android::internal::details::IsIterable<std::__1::vector<android::media::AudioAttributesInternal, std::__1::allocator<android::media::AudioAttributesInternal>>>::value"
    }
   ],
   "linker_set_key" : "_ZTIN7android8internal7details10IsIterableINSt3__16vectorINS_5media23AudioAttributesInternalENS3_9allocatorIS6_EEEEE6$valueE",
   "name" : "android::internal::details::IsIterable<vector<AudioAttributesInternal, allocator<AudioAttributesInternal>>>::(anonymous enum at frameworks/native/libs/binder/ndk/include_cpp/android/binder_to_string.h:131:5)",
   "referenced_type" : "_ZTIN7android8internal7details10IsIterableINSt3__16vectorINS_5media23AudioAttributesInternalENS3_9allocatorIS6_EEEEE6$valueE",
   "self_type" : "_ZTIN7android8internal7details10IsIterableINSt3__16vectorINS_5media23AudioAttributesInternalENS3_9allocatorIS6_EEEEE6$valueE",
   "size" : 4,
   "source_file" : "frameworks/native/libs/binder/ndk/include_cpp/android/binder_to_string.h",
   "underlying_type" : "_ZTIj"
  },
  {
   "alignment" : 4,
   "enum_fields" :
   [
    {
     "enum_field_value" : 1,
     "name" : "android::internal::details::IsIterable<std::__1::vector<android::content::AttributionSourceState, std::__1::allocator<android::content::AttributionSourceState>>>::value"
    }
   ],
   "linker_set_key" : "_ZTIN7android8internal7details10IsIterableINSt3__16vectorINS_7content22AttributionSourceStateENS3_9allocatorIS6_EEEEE6$valueE",
   "name" : "android::internal::details::IsIterable<vector<AttributionSourceState, allocator<AttributionSourceState>>>::(anonymous enum at frameworks/native/libs/binder/ndk/include_cpp/android/binder_to_string.h:131:5)",
   "referenced_type" : "_ZTIN7android8internal7details10IsIterableINSt3__16vectorINS_7content22AttributionSourceStateENS3_9allocatorIS6_EEEEE6$valueE",
   "self_type" : "_ZTIN7android8internal7details10IsIterableINSt3__16vectorINS_7content22AttributionSourceStateENS3_9allocatorIS6_EEEEE6$valueE",
   "size" : 4,
   "source_file" : "frameworks/native/libs/binder/ndk/include_cpp/android/binder_to_string.h",
   "underlying_type" : "_ZTIj"
  },
  {
   "alignment" : 4,
   "enum_fields" :
   [
    {
     "enum_field_value" : 1,
     "name" : "android::internal::details::IsIterable<std::__1::vector<float, std::__1::allocator<float>>>::value"
    }
   ],
   "linker_set_key" : "_ZTIN7android8internal7details10IsIterableINSt3__16vectorIfNS3_9allocatorIfEEEEE6$valueE",
   "name" : "android::internal::details::IsIterable<vector<float, allocator<float>>>::(anonymous enum at frameworks/native/libs/binder/ndk/include_cpp/android/binder_to_string.h:131:5)",
   "referenced_type" : "_ZTIN7android8internal7details10IsIterableINSt3__16vectorIfNS3_9allocatorIfEEEEE6$valueE",
   "self_type" : "_ZTIN7android8internal7details10IsIterableINSt3__16vectorIfNS3_9allocatorIfEEEEE6$valueE",
   "size" : 4,
   "source_file" : "frameworks/native/libs/binder/ndk/include_cpp/android/binder_to_string.h",
   "underlying_type" : "_ZTIj"
  },
  {
   "alignment" : 4,
   "enum_fields" :
   [
    {
     "enum_field_value" : 1,
     "name" : "android::internal::details::IsIterable<std::__1::vector<unsigned char, std::__1::allocator<unsigned char>>>::value"
    }
   ],
   "linker_set_key" : "_ZTIN7android8internal7details10IsIterableINSt3__16vectorIhNS3_9allocatorIhEEEEE6$valueE",
   "name" : "android::internal::details::IsIterable<vector<unsigned char, allocator<unsigned char>>>::(anonymous enum at frameworks/native/libs/binder/ndk/include_cpp/android/binder_to_string.h:131:5)",
   "referenced_type" : "_ZTIN7android8internal7details10IsIterableINSt3__16vectorIhNS3_9allocatorIhEEEEE6$valueE",
   "self_type" : "_ZTIN7android8internal7details10IsIterableINSt3__16vectorIhNS3_9allocatorIhEEEEE6$valueE",
   "size" : 4,
   "source_file" : "frameworks/native/libs/binder/ndk/include_cpp/android/binder_to_string.h",
   "underlying_type" : "_ZTIj"
  },
  {
   "alignment" : 4,
   "enum_fields" :
   [
    {
     "enum_field_value" : 1,
     "name" : "android::internal::details::IsIterable<std::__1::vector<int, std::__1::allocator<int>>>::value"
    }
   ],
   "linker_set_key" : "_ZTIN7android8internal7details10IsIterableINSt3__16vectorIiNS3_9allocatorIiEEEEE6$valueE",
   "name" : "android::internal::details::IsIterable<vector<int, allocator<int>>>::(anonymous enum at frameworks/native/libs/binder/ndk/include_cpp/android/binder_to_string.h:131:5)",
   "referenced_type" : "_ZTIN7android8internal7details10IsIterableINSt3__16vectorIiNS3_9allocatorIiEEEEE6$valueE",
   "self_type" : "_ZTIN7android8internal7details10IsIterableINSt3__16vectorIiNS3_9allocatorIiEEEEE6$valueE",
   "size" : 4,
   "source_file" : "frameworks/native/libs/binder/ndk/include_cpp/android/binder_to_string.h",
   "underlying_type" : "_ZTIj"
  },
  {
   "alignment" : 4,
   "enum_fields" :
   [
    {
     "enum_field_value" : 0,
     "name" : "android::internal::details::IsPointerLike<aaudio::RingBuffer>::value"
    }
   ],
   "linker_set_key" : "_ZTIN7android8internal7details13IsPointerLikeIN6aaudio10RingBufferEE6$valueE",
   "name" : "android::internal::details::IsPointerLike<RingBuffer>::(anonymous enum at frameworks/native/libs/binder/ndk/include_cpp/android/binder_to_string.h:118:5)",
   "referenced_type" : "_ZTIN7android8internal7details13IsPointerLikeIN6aaudio10RingBufferEE6$valueE",
   "self_type" : "_ZTIN7android8internal7details13IsPointerLikeIN6aaudio10RingBufferEE6$valueE",
   "size" : 4,
   "source_file" : "frameworks/native/libs/binder/ndk/include_cpp/android/binder_to_string.h",
   "underlying_type" : "_ZTIj"
  },
  {
   "alignment" : 4,
   "enum_fields" :
   [
    {
     "enum_field_value" : 0,
     "name" : "android::internal::details::IsPointerLike<aaudio::SharedRegion>::value"
    }
   ],
   "linker_set_key" : "_ZTIN7android8internal7details13IsPointerLikeIN6aaudio12SharedRegionEE6$valueE",
   "name" : "android::internal::details::IsPointerLike<SharedRegion>::(anonymous enum at frameworks/native/libs/binder/ndk/include_cpp/android/binder_to_string.h:118:5)",
   "referenced_type" : "_ZTIN7android8internal7details13IsPointerLikeIN6aaudio12SharedRegionEE6$valueE",
   "self_type" : "_ZTIN7android8internal7details13IsPointerLikeIN6aaudio12SharedRegionEE6$valueE",
   "size" : 4,
   "source_file" : "frameworks/native/libs/binder/ndk/include_cpp/android/binder_to_string.h",
   "underlying_type" : "_ZTIj"
  },
  {
   "alignment" : 4,
   "enum_fields" :
   [
    {
     "enum_field_value" : 0,
     "name" : "android::internal::details::IsPointerLike<aaudio::StreamParameters>::value"
    }
   ],
   "linker_set_key" : "_ZTIN7android8internal7details13IsPointerLikeIN6aaudio16StreamParametersEE6$valueE",
   "name" : "android::internal::details::IsPointerLike<StreamParameters>::(anonymous enum at frameworks/native/libs/binder/ndk/include_cpp/android/binder_to_string.h:118:5)",
   "referenced_type" : "_ZTIN7android8internal7details13IsPointerLikeIN6aaudio16StreamParametersEE6$valueE",
   "self_type" : "_ZTIN7android8internal7details13IsPointerLikeIN6aaudio16StreamParametersEE6$valueE",
   "size" : 4,
   "source_file" : "frameworks/native/libs/binder/ndk/include_cpp/android/binder_to_string.h",
   "underlying_type" : "_ZTIj"
  },
  {
   "alignment" : 4,
   "enum_fields" :
   [
    {
     "enum_field_value" : 1,
     "name" : "android::internal::details::IsPointerLike<android::sp<android::IBinder>>::value"
    }
   ],
   "linker_set_key" : "_ZTIN7android8internal7details13IsPointerLikeINS_2spINS_7IBinderEEEE6$valueE",
   "name" : "android::internal::details::IsPointerLike<sp<IBinder>>::(anonymous enum at frameworks/native/libs/binder/ndk/include_cpp/android/binder_to_string.h:118:5)",
   "referenced_type" : "_ZTIN7android8internal7details13IsPointerLikeINS_2spINS_7IBinderEEEE6$valueE",
   "self_type" : "_ZTIN7android8internal7details13IsPointerLikeINS_2spINS_7IBinderEEEE6$valueE",
   "size" : 4,
   "source_file" : "frameworks/native/libs/binder/ndk/include_cpp/android/binder_to_string.h",
   "underlying_type" : "_ZTIj"
  },
  {
   "alignment" : 4,
   "enum_fields" :
   [
    {
     "enum_field_value" : 0,
     "name" : "android::internal::details::IsPointerLike<android::media::AudioPatch>::value"
    }
   ],
   "linker_set_key" : "_ZTIN7android8internal7details13IsPointerLikeINS_5media10AudioPatchEE6$valueE",
   "name" : "android::internal::details::IsPointerLike<AudioPatch>::(anonymous enum at frameworks/native/libs/binder/ndk/include_cpp/android/binder_to_string.h:118:5)",
   "referenced_type" : "_ZTIN7android8internal7details13IsPointerLikeINS_5media10AudioPatchEE6$valueE",
   "self_type" : "_ZTIN7android8internal7details13IsPointerLikeINS_5media10AudioPatchEE6$valueE",
   "size" : 4,
   "source_file" : "frameworks/native/libs/binder/ndk/include_cpp/android/binder_to_string.h",
   "underlying_type" : "_ZTIj"
  },
  {
   "alignment" : 4,
   "enum_fields" :
   [
    {
     "enum_field_value" : 0,
     "name" : "android::internal::details::IsPointerLike<android::media::AudioUsage>::value"
    }
   ],
   "linker_set_key" : "_ZTIN7android8internal7details13IsPointerLikeINS_5media10AudioUsageEE6$valueE",
   "name" : "android::internal::details::IsPointerLike<AudioUsage>::(anonymous enum at frameworks/native/libs/binder/ndk/include_cpp/android/binder_to_string.h:118:5)",
   "referenced_type" : "_ZTIN7android8internal7details13IsPointerLikeINS_5media10AudioUsageEE6$valueE",
   "self_type" : "_ZTIN7android8internal7details13IsPointerLikeINS_5media10AudioUsageEE6$valueE",
   "size" : 4,
   "source_file" : "frameworks/native/libs/binder/ndk/include_cpp/android/binder_to_string.h",
   "underlying_type" : "_ZTIj"
  },
  {
   "alignment" : 4,
   "enum_fields" :
   [
    {
     "enum_field_value" : 0,
     "name" : "android::internal::details::IsPointerLike<android::media::AudioIoFlags>::value"
    }
   ],
   "linker_set_key" : "_ZTIN7android8internal7details13IsPointerLikeINS_5media12AudioIoFlagsEE6$valueE",
   "name" : "android::internal::details::IsPointerLike<AudioIoFlags>::(anonymous enum at frameworks/native/libs/binder/ndk/include_cpp/android/binder_to_string.h:118:5)",
   "referenced_type" : "_ZTIN7android8internal7details13IsPointerLikeINS_5media12AudioIoFlagsEE6$valueE",
   "self_type" : "_ZTIN7android8internal7details13IsPointerLikeINS_5media12AudioIoFlagsEE6$valueE",
   "size" : 4,
   "source_file" : "frameworks/native/libs/binder/ndk/include_cpp/android/binder_to_string.h",
   "underlying_type" : "_ZTIj"
  },
  {
   "alignment" : 4,
   "enum_fields" :
   [
    {
     "enum_field_value" : 0,
     "name" : "android::internal::details::IsPointerLike<android::media::AudioPortRole>::value"
    }
   ],
   "linker_set_key" : "_ZTIN7android8internal7details13IsPointerLikeINS_5media13AudioPortRoleEE6$valueE",
   "name" : "android::internal::details::IsPointerLike<AudioPortRole>::(anonymous enum at frameworks/native/libs/binder/ndk/include_cpp/android/binder_to_string.h:118:5)",
   "referenced_type" : "_ZTIN7android8internal7details13IsPointerLikeINS_5media13AudioPortRoleEE6$valueE",
   "self_type" : "_ZTIN7android8internal7details13IsPointerLikeINS_5media13AudioPortRoleEE6$valueE",
   "size" : 4,
   "source_file" : "frameworks/native/libs/binder/ndk/include_cpp/android/binder_to_string.h",
   "underlying_type" : "_ZTIj"
  },
  {
   "alignment" : 4,
   "enum_fields" :
   [
    {
     "enum_field_value" : 0,
     "name" : "android::internal::details::IsPointerLike<android::media::AudioPortType>::value"
    }
   ],
   "linker_set_key" : "_ZTIN7android8internal7details13IsPointerLikeINS_5media13AudioPortTypeEE6$valueE",
   "name" : "android::internal::details::IsPointerLike<AudioPortType>::(anonymous enum at frameworks/native/libs/binder/ndk/include_cpp/android/binder_to_string.h:118:5)",
   "referenced_type" : "_ZTIN7android8internal7details13IsPointerLikeINS_5media13AudioPortTypeEE6$valueE",
   "self_type" : "_ZTIN7android8internal7details13IsPointerLikeINS_5media13AudioPortTypeEE6$valueE",
   "size" : 4,
   "source_file" : "frameworks/native/libs/binder/ndk/include_cpp/android/binder_to_string.h",
   "underlying_type" : "_ZTIj"
  },
  {
   "alignment" : 4,
   "enum_fields" :
   [
    {
     "enum_field_value" : 0,
     "name" : "android::internal::details::IsPointerLike<android::media::AudioGainConfig>::value"
    }
   ],
   "linker_set_key" : "_ZTIN7android8internal7details13IsPointerLikeINS_5media15AudioGainConfigEE6$valueE",
   "name" : "android::internal::details::IsPointerLike<AudioGainConfig>::(anonymous enum at frameworks/native/libs/binder/ndk/include_cpp/android/binder_to_string.h:118:5)",
   "referenced_type" : "_ZTIN7android8internal7details13IsPointerLikeINS_5media15AudioGainConfigEE6$valueE",
   "self_type" : "_ZTIN7android8internal7details13IsPointerLikeINS_5media15AudioGainConfigEE6$valueE",
   "size" : 4,
   "source_file" : "frameworks/native/libs/binder/ndk/include_cpp/android/binder_to_string.h",
   "underlying_type" : "_ZTIj"
  },
  {
   "alignment" : 4,
   "enum_fields" :
   [
    {
     "enum_field_value" : 0,
     "name" : "android::internal::details::IsPointerLike<android::media::AudioPortConfig>::value"
    }
   ],
   "linker_set_key" : "_ZTIN7android8internal7details13IsPointerLikeINS_5media15AudioPortConfigEE6$valueE",
   "name" : "android::internal::details::IsPointerLike<AudioPortConfig>::(anonymous enum at frameworks/native/libs/binder/ndk/include_cpp/android/binder_to_string.h:118:5)",
   "referenced_type" : "_ZTIN7android8internal7details13IsPointerLikeINS_5media15AudioPortConfigEE6$valueE",
   "self_type" : "_ZTIN7android8internal7details13IsPointerLikeINS_5media15AudioPortConfigEE6$valueE",
   "size" : 4,
   "source_file" : "frameworks/native/libs/binder/ndk/include_cpp/android/binder_to_string.h",
   "underlying_type" : "_ZTIj"
  },
  {
   "alignment" : 4,
   "enum_fields" :
   [
    {
     "enum_field_value" : 0,
     "name" : "android::internal::details::IsPointerLike<android::media::AudioSourceType>::value"
    }
   ],
   "linker_set_key" : "_ZTIN7android8internal7details13IsPointerLikeINS_5media15AudioSourceTypeEE6$valueE",
   "name" : "android::internal::details::IsPointerLike<AudioSourceType>::(anonymous enum at frameworks/native/libs/binder/ndk/include_cpp/android/binder_to_string.h:118:5)",
   "referenced_type" : "_ZTIN7android8internal7details13IsPointerLikeINS_5media15AudioSourceTypeEE6$valueE",
   "self_type" : "_ZTIN7android8internal7details13IsPointerLikeINS_5media15AudioSourceTypeEE6$valueE",
   "size" : 4,
   "source_file" : "frameworks/native/libs/binder/ndk/include_cpp/android/binder_to_string.h",
   "underlying_type" : "_ZTIj"
  },
  {
   "alignment" : 4,
   "enum_fields" :
   [
    {
     "enum_field_value" : 0,
     "name" : "android::internal::details::IsPointerLike<android::media::AudioStreamType>::value"
    }
   ],
   "linker_set_key" : "_ZTIN7android8internal7details13IsPointerLikeINS_5media15AudioStreamTypeEE6$valueE",
   "name" : "android::internal::details::IsPointerLike<AudioStreamType>::(anonymous enum at frameworks/native/libs/binder/ndk/include_cpp/android/binder_to_string.h:118:5)",
   "referenced_type" : "_ZTIN7android8internal7details13IsPointerLikeINS_5media15AudioStreamTypeEE6$valueE",
   "self_type" : "_ZTIN7android8internal7details13IsPointerLikeINS_5media15AudioStreamTypeEE6$valueE",
   "size" : 4,
   "source_file" : "frameworks/native/libs/binder/ndk/include_cpp/android/binder_to_string.h",
   "underlying_type" : "_ZTIj"
  },
  {
   "alignment" : 4,
   "enum_fields" :
   [
    {
     "enum_field_value" : 0,
     "name" : "android::internal::details::IsPointerLike<android::media::AudioContentType>::value"
    }
   ],
   "linker_set_key" : "_ZTIN7android8internal7details13IsPointerLikeINS_5media16AudioContentTypeEE6$valueE",
   "name" : "android::internal::details::IsPointerLike<AudioContentType>::(anonymous enum at frameworks/native/libs/binder/ndk/include_cpp/android/binder_to_string.h:118:5)",
   "referenced_type" : "_ZTIN7android8internal7details13IsPointerLikeINS_5media16AudioContentTypeEE6$valueE",
   "self_type" : "_ZTIN7android8internal7details13IsPointerLikeINS_5media16AudioContentTypeEE6$valueE",
   "size" : 4,
   "source_file" : "frameworks/native/libs/binder/ndk/include_cpp/android/binder_to_string.h",
   "underlying_type" : "_ZTIj"
  },
  {
   "alignment" : 4,
   "enum_fields" :
   [
    {
     "enum_field_value" : 0,
     "name" : "android::internal::details::IsPointerLike<android::media::InterpolatorType>::value"
    }
   ],
   "linker_set_key" : "_ZTIN7android8internal7details13IsPointerLikeINS_5media16InterpolatorTypeEE6$valueE",
   "name" : "android::internal::details::IsPointerLike<InterpolatorType>::(anonymous enum at frameworks/native/libs/binder/ndk/include_cpp/android/binder_to_string.h:118:5)",
   "referenced_type" : "_ZTIN7android8internal7details13IsPointerLikeINS_5media16InterpolatorTypeEE6$valueE",
   "self_type" : "_ZTIN7android8internal7details13IsPointerLikeINS_5media16InterpolatorTypeEE6$valueE",
   "size" : 4,
   "source_file" : "frameworks/native/libs/binder/ndk/include_cpp/android/binder_to_string.h",
   "underlying_type" : "_ZTIj"
  },
  {
   "alignment" : 4,
   "enum_fields" :
   [
    {
     "enum_field_value" : 0,
     "name" : "android::internal::details::IsPointerLike<android::media::SharedFileRegion>::value"
    }
   ],
   "linker_set_key" : "_ZTIN7android8internal7details13IsPointerLikeINS_5media16SharedFileRegionEE6$valueE",
   "name" : "android::internal::details::IsPointerLike<SharedFileRegion>::(anonymous enum at frameworks/native/libs/binder/ndk/include_cpp/android/binder_to_string.h:118:5)",
   "referenced_type" : "_ZTIN7android8internal7details13IsPointerLikeINS_5media16SharedFileRegionEE6$valueE",
   "self_type" : "_ZTIN7android8internal7details13IsPointerLikeINS_5media16SharedFileRegionEE6$valueE",
   "size" : 4,
   "source_file" : "frameworks/native/libs/binder/ndk/include_cpp/android/binder_to_string.h",
   "underlying_type" : "_ZTIj"
  },
  {
   "alignment" : 4,
   "enum_fields" :
   [
    {
     "enum_field_value" : 0,
     "name" : "android::internal::details::IsPointerLike<android::media::AudioAttributesEx>::value"
    }
   ],
   "linker_set_key" : "_ZTIN7android8internal7details13IsPointerLikeINS_5media17AudioAttributesExEE6$valueE",
   "name" : "android::internal::details::IsPointerLike<AudioAttributesEx>::(anonymous enum at frameworks/native/libs/binder/ndk/include_cpp/android/binder_to_string.h:118:5)",
   "referenced_type" : "_ZTIN7android8internal7details13IsPointerLikeINS_5media17AudioAttributesExEE6$valueE",
   "self_type" : "_ZTIN7android8internal7details13IsPointerLikeINS_5media17AudioAttributesExEE6$valueE",
   "size" : 4,
   "source_file" : "frameworks/native/libs/binder/ndk/include_cpp/android/binder_to_string.h",
   "underlying_type" : "_ZTIj"
  },
  {
   "alignment" : 4,
   "enum_fields" :
   [
    {
     "enum_field_value" : 0,
     "name" : "android::internal::details::IsPointerLike<android::media::AudioPortConfigExt>::value"
    }
   ],
   "linker_set_key" : "_ZTIN7android8internal7details13IsPointerLikeINS_5media18AudioPortConfigExtEE6$valueE",
   "name" : "android::internal::details::IsPointerLike<AudioPortConfigExt>::(anonymous enum at frameworks/native/libs/binder/ndk/include_cpp/android/binder_to_string.h:118:5)",
   "referenced_type" : "_ZTIN7android8internal7details13IsPointerLikeINS_5media18AudioPortConfigExtEE6$valueE",
   "self_type" : "_ZTIN7android8internal7details13IsPointerLikeINS_5media18AudioPortConfigExtEE6$valueE",
   "size" : 4,
   "source_file" : "frameworks/native/libs/binder/ndk/include_cpp/android/binder_to_string.h",
   "underlying_type" : "_ZTIj"
  },
  {
   "alignment" : 4,
   "enum_fields" :
   [
    {
     "enum_field_value" : 0,
     "name" : "android::internal::details::IsPointerLike<android::media::InterpolatorConfig>::value"
    }
   ],
   "linker_set_key" : "_ZTIN7android8internal7details13IsPointerLikeINS_5media18InterpolatorConfigEE6$valueE",
   "name" : "android::internal::details::IsPointerLike<InterpolatorConfig>::(anonymous enum at frameworks/native/libs/binder/ndk/include_cpp/android/binder_to_string.h:118:5)",
   "referenced_type" : "_ZTIN7android8internal7details13IsPointerLikeINS_5media18InterpolatorConfigEE6$valueE",
   "self_type" : "_ZTIN7android8internal7details13IsPointerLikeINS_5media18InterpolatorConfigEE6$valueE",
   "size" : 4,
   "source_file" : "frameworks/native/libs/binder/ndk/include_cpp/android/binder_to_string.h",
   "underlying_type" : "_ZTIj"
  },
  {
   "alignment" : 4,
   "enum_fields" :
   [
    {
     "enum_field_value" : 0,
     "name" : "android::internal::details::IsPointerLike<android::media::AudioPortConfigMixExt>::value"
    }
   ],
   "linker_set_key" : "_ZTIN7android8internal7details13IsPointerLikeINS_5media21AudioPortConfigMixExtEE6$valueE",
   "name" : "android::internal::details::IsPointerLike<AudioPortConfigMixExt>::(anonymous enum at frameworks/native/libs/binder/ndk/include_cpp/android/binder_to_string.h:118:5)",
   "referenced_type" : "_ZTIN7android8internal7details13IsPointerLikeINS_5media21AudioPortConfigMixExtEE6$valueE",
   "self_type" : "_ZTIN7android8internal7details13IsPointerLikeINS_5media21AudioPortConfigMixExtEE6$valueE",
   "size" : 4,
   "source_file" : "frameworks/native/libs/binder/ndk/include_cpp/android/binder_to_string.h",
   "underlying_type" : "_ZTIj"
  },
  {
   "alignment" : 4,
   "enum_fields" :
   [
    {
     "enum_field_value" : 0,
     "name" : "android::internal::details::IsPointerLike<android::media::AudioAttributesInternal>::value"
    }
   ],
   "linker_set_key" : "_ZTIN7android8internal7details13IsPointerLikeINS_5media23AudioAttributesInternalEE6$valueE",
   "name" : "android::internal::details::IsPointerLike<AudioAttributesInternal>::(anonymous enum at frameworks/native/libs/binder/ndk/include_cpp/android/binder_to_string.h:118:5)",
   "referenced_type" : "_ZTIN7android8internal7details13IsPointerLikeINS_5media23AudioAttributesInternalEE6$valueE",
   "self_type" : "_ZTIN7android8internal7details13IsPointerLikeINS_5media23AudioAttributesInternalEE6$valueE",
   "size" : 4,
   "source_file" : "frameworks/native/libs/binder/ndk/include_cpp/android/binder_to_string.h",
   "underlying_type" : "_ZTIj"
  },
  {
   "alignment" : 4,
   "enum_fields" :
   [
    {
     "enum_field_value" : 0,
     "name" : "android::internal::details::IsPointerLike<android::media::AudioPortConfigDeviceExt>::value"
    }
   ],
   "linker_set_key" : "_ZTIN7android8internal7details13IsPointerLikeINS_5media24AudioPortConfigDeviceExtEE6$valueE",
   "name" : "android::internal::details::IsPointerLike<AudioPortConfigDeviceExt>::(anonymous enum at frameworks/native/libs/binder/ndk/include_cpp/android/binder_to_string.h:118:5)",
   "referenced_type" : "_ZTIN7android8internal7details13IsPointerLikeINS_5media24AudioPortConfigDeviceExtEE6$valueE",
   "self_type" : "_ZTIN7android8internal7details13IsPointerLikeINS_5media24AudioPortConfigDeviceExtEE6$valueE",
   "size" : 4,
   "source_file" : "frameworks/native/libs/binder/ndk/include_cpp/android/binder_to_string.h",
   "underlying_type" : "_ZTIj"
  },
  {
   "alignment" : 4,
   "enum_fields" :
   [
    {
     "enum_field_value" : 0,
     "name" : "android::internal::details::IsPointerLike<android::media::AudioPortConfigSessionExt>::value"
    }
   ],
   "linker_set_key" : "_ZTIN7android8internal7details13IsPointerLikeINS_5media25AudioPortConfigSessionExtEE6$valueE",
   "name" : "android::internal::details::IsPointerLike<AudioPortConfigSessionExt>::(anonymous enum at frameworks/native/libs/binder/ndk/include_cpp/android/binder_to_string.h:118:5)",
   "referenced_type" : "_ZTIN7android8internal7details13IsPointerLikeINS_5media25AudioPortConfigSessionExtEE6$valueE",
   "self_type" : "_ZTIN7android8internal7details13IsPointerLikeINS_5media25AudioPortConfigSessionExtEE6$valueE",
   "size" : 4,
   "source_file" : "frameworks/native/libs/binder/ndk/include_cpp/android/binder_to_string.h",
   "underlying_type" : "_ZTIj"
  },
  {
   "alignment" : 4,
   "enum_fields" :
   [
    {
     "enum_field_value" : 0,
     "name" : "android::internal::details::IsPointerLike<android::media::AudioPortConfigMixExtUseCase>::value"
    }
   ],
   "linker_set_key" : "_ZTIN7android8internal7details13IsPointerLikeINS_5media28AudioPortConfigMixExtUseCaseEE6$valueE",
   "name" : "android::internal::details::IsPointerLike<AudioPortConfigMixExtUseCase>::(anonymous enum at frameworks/native/libs/binder/ndk/include_cpp/android/binder_to_string.h:118:5)",
   "referenced_type" : "_ZTIN7android8internal7details13IsPointerLikeINS_5media28AudioPortConfigMixExtUseCaseEE6$valueE",
   "self_type" : "_ZTIN7android8internal7details13IsPointerLikeINS_5media28AudioPortConfigMixExtUseCaseEE6$valueE",
   "size" : 4,
   "source_file" : "frameworks/native/libs/binder/ndk/include_cpp/android/binder_to_string.h",
   "underlying_type" : "_ZTIj"
  },
  {
   "alignment" : 4,
   "enum_fields" :
   [
    {
     "enum_field_value" : 0,
     "name" : "android::internal::details::IsPointerLike<android::media::VolumeShaperConfigurationType>::value"
    }
   ],
   "linker_set_key" : "_ZTIN7android8internal7details13IsPointerLikeINS_5media29VolumeShaperConfigurationTypeEE6$valueE",
   "name" : "android::internal::details::IsPointerLike<VolumeShaperConfigurationType>::(anonymous enum at frameworks/native/libs/binder/ndk/include_cpp/android/binder_to_string.h:118:5)",
   "referenced_type" : "_ZTIN7android8internal7details13IsPointerLikeINS_5media29VolumeShaperConfigurationTypeEE6$valueE",
   "self_type" : "_ZTIN7android8internal7details13IsPointerLikeINS_5media29VolumeShaperConfigurationTypeEE6$valueE",
   "size" : 4,
   "source_file" : "frameworks/native/libs/binder/ndk/include_cpp/android/binder_to_string.h",
   "underlying_type" : "_ZTIj"
  },
  {
   "alignment" : 4,
   "enum_fields" :
   [
    {
     "enum_field_value" : 0,
     "name" : "android::internal::details::IsPointerLike<android::media::audio::common::AudioFormat>::value"
    }
   ],
   "linker_set_key" : "_ZTIN7android8internal7details13IsPointerLikeINS_5media5audio6common11AudioFormatEE6$valueE",
   "name" : "android::internal::details::IsPointerLike<AudioFormat>::(anonymous enum at frameworks/native/libs/binder/ndk/include_cpp/android/binder_to_string.h:118:5)",
   "referenced_type" : "_ZTIN7android8internal7details13IsPointerLikeINS_5media5audio6common11AudioFormatEE6$valueE",
   "self_type" : "_ZTIN7android8internal7details13IsPointerLikeINS_5media5audio6common11AudioFormatEE6$valueE",
   "size" : 4,
   "source_file" : "frameworks/native/libs/binder/ndk/include_cpp/android/binder_to_string.h",
   "underlying_type" : "_ZTIj"
  },
  {
   "alignment" : 4,
   "enum_fields" :
   [
    {
     "enum_field_value" : 0,
     "name" : "android::internal::details::IsPointerLike<android::media::AudioUuid>::value"
    }
   ],
   "linker_set_key" : "_ZTIN7android8internal7details13IsPointerLikeINS_5media9AudioUuidEE6$valueE",
   "name" : "android::internal::details::IsPointerLike<AudioUuid>::(anonymous enum at frameworks/native/libs/binder/ndk/include_cpp/android/binder_to_string.h:118:5)",
   "referenced_type" : "_ZTIN7android8internal7details13IsPointerLikeINS_5media9AudioUuidEE6$valueE",
   "self_type" : "_ZTIN7android8internal7details13IsPointerLikeINS_5media9AudioUuidEE6$valueE",
   "size" : 4,
   "source_file" : "frameworks/native/libs/binder/ndk/include_cpp/android/binder_to_string.h",
   "underlying_type" : "_ZTIj"
  },
  {
   "alignment" : 4,
   "enum_fields" :
   [
    {
     "enum_field_value" : 0,
     "name" : "android::internal::details::IsPointerLike<android::content::AttributionSourceState>::value"
    }
   ],
   "linker_set_key" : "_ZTIN7android8internal7details13IsPointerLikeINS_7content22AttributionSourceStateEE6$valueE",
   "name" : "android::internal::details::IsPointerLike<AttributionSourceState>::(anonymous enum at frameworks/native/libs/binder/ndk/include_cpp/android/binder_to_string.h:118:5)",
   "referenced_type" : "_ZTIN7android8internal7details13IsPointerLikeINS_7content22AttributionSourceStateEE6$valueE",
   "self_type" : "_ZTIN7android8internal7details13IsPointerLikeINS_7content22AttributionSourceStateEE6$valueE",
   "size" : 4,
   "source_file" : "frameworks/native/libs/binder/ndk/include_cpp/android/binder_to_string.h",
   "underlying_type" : "_ZTIj"
  },
  {
   "alignment" : 4,
   "enum_fields" :
   [
    {
     "enum_field_value" : 0,
     "name" : "android::internal::details::IsPointerLike<std::__1::vector<std::__1::optional<std::__1::basic_string<char>>, std::__1::allocator<std::__1::optional<std::__1::basic_string<char>>>>>::value"
    }
   ],
   "linker_set_key" : "_ZTIN7android8internal7details13IsPointerLikeINSt3__16vectorINS3_8optionalINS3_12basic_stringIcNS3_11char_traitsIcEENS3_9allocatorIcEEEEEENS9_ISC_EEEEE6$valueE",
   "name" : "android::internal::details::IsPointerLike<vector<optional<basic_string<char>>, allocator<optional<basic_string<char>>>>>::(anonymous enum at frameworks/native/libs/binder/ndk/include_cpp/android/binder_to_string.h:118:5)",
   "referenced_type" : "_ZTIN7android8internal7details13IsPointerLikeINSt3__16vectorINS3_8optionalINS3_12basic_stringIcNS3_11char_traitsIcEENS3_9allocatorIcEEEEEENS9_ISC_EEEEE6$valueE",
   "self_type" : "_ZTIN7android8internal7details13IsPointerLikeINSt3__16vectorINS3_8optionalINS3_12basic_stringIcNS3_11char_traitsIcEENS3_9allocatorIcEEEEEENS9_ISC_EEEEE6$valueE",
   "size" : 4,
   "source_file" : "frameworks/native/libs/binder/ndk/include_cpp/android/binder_to_string.h",
   "underlying_type" : "_ZTIj"
  },
  {
   "alignment" : 4,
   "enum_fields" :
   [
    {
     "enum_field_value" : 0,
     "name" : "android::internal::details::IsPointerLike<std::__1::vector<android::media::AudioPortConfig, std::__1::allocator<android::media::AudioPortConfig>>>::value"
    }
   ],
   "linker_set_key" : "_ZTIN7android8internal7details13IsPointerLikeINSt3__16vectorINS_5media15AudioPortConfigENS3_9allocatorIS6_EEEEE6$valueE",
   "name" : "android::internal::details::IsPointerLike<vector<AudioPortConfig, allocator<AudioPortConfig>>>::(anonymous enum at frameworks/native/libs/binder/ndk/include_cpp/android/binder_to_string.h:118:5)",
   "referenced_type" : "_ZTIN7android8internal7details13IsPointerLikeINSt3__16vectorINS_5media15AudioPortConfigENS3_9allocatorIS6_EEEEE6$valueE",
   "self_type" : "_ZTIN7android8internal7details13IsPointerLikeINSt3__16vectorINS_5media15AudioPortConfigENS3_9allocatorIS6_EEEEE6$valueE",
   "size" : 4,
   "source_file" : "frameworks/native/libs/binder/ndk/include_cpp/android/binder_to_string.h",
   "underlying_type" : "_ZTIj"
  },
  {
   "alignment" : 4,
   "enum_fields" :
   [
    {
     "enum_field_value" : 0,
     "name" : "android::internal::details::IsPointerLike<std::__1::vector<android::media::AudioStreamType, std::__1::allocator<android::media::AudioStreamType>>>::value"
    }
   ],
   "linker_set_key" : "_ZTIN7android8internal7details13IsPointerLikeINSt3__16vectorINS_5media15AudioStreamTypeENS3_9allocatorIS6_EEEEE6$valueE",
   "name" : "android::internal::details::IsPointerLike<vector<AudioStreamType, allocator<AudioStreamType>>>::(anonymous enum at frameworks/native/libs/binder/ndk/include_cpp/android/binder_to_string.h:118:5)",
   "referenced_type" : "_ZTIN7android8internal7details13IsPointerLikeINSt3__16vectorINS_5media15AudioStreamTypeENS3_9allocatorIS6_EEEEE6$valueE",
   "self_type" : "_ZTIN7android8internal7details13IsPointerLikeINSt3__16vectorINS_5media15AudioStreamTypeENS3_9allocatorIS6_EEEEE6$valueE",
   "size" : 4,
   "source_file" : "frameworks/native/libs/binder/ndk/include_cpp/android/binder_to_string.h",
   "underlying_type" : "_ZTIj"
  },
  {
   "alignment" : 4,
   "enum_fields" :
   [
    {
     "enum_field_value" : 0,
     "name" : "android::internal::details::IsPointerLike<std::__1::vector<android::media::SharedFileRegion, std::__1::allocator<android::media::SharedFileRegion>>>::value"
    }
   ],
   "linker_set_key" : "_ZTIN7android8internal7details13IsPointerLikeINSt3__16vectorINS_5media16SharedFileRegionENS3_9allocatorIS6_EEEEE6$valueE",
   "name" : "android::internal::details::IsPointerLike<vector<SharedFileRegion, allocator<SharedFileRegion>>>::(anonymous enum at frameworks/native/libs/binder/ndk/include_cpp/android/binder_to_string.h:118:5)",
   "referenced_type" : "_ZTIN7android8internal7details13IsPointerLikeINSt3__16vectorINS_5media16SharedFileRegionENS3_9allocatorIS6_EEEEE6$valueE",
   "self_type" : "_ZTIN7android8internal7details13IsPointerLikeINSt3__16vectorINS_5media16SharedFileRegionENS3_9allocatorIS6_EEEEE6$valueE",
   "size" : 4,
   "source_file" : "frameworks/native/libs/binder/ndk/include_cpp/android/binder_to_string.h",
   "underlying_type" : "_ZTIj"
  },
  {
   "alignment" : 4,
   "enum_fields" :
   [
    {
     "enum_field_value" : 0,
     "name" : "android::internal::details::IsPointerLike<std::__1::vector<android::media::AudioAttributesEx, std::__1::allocator<android::media::AudioAttributesEx>>>::value"
    }
   ],
   "linker_set_key" : "_ZTIN7android8internal7details13IsPointerLikeINSt3__16vectorINS_5media17AudioAttributesExENS3_9allocatorIS6_EEEEE6$valueE",
   "name" : "android::internal::details::IsPointerLike<vector<AudioAttributesEx, allocator<AudioAttributesEx>>>::(anonymous enum at frameworks/native/libs/binder/ndk/include_cpp/android/binder_to_string.h:118:5)",
   "referenced_type" : "_ZTIN7android8internal7details13IsPointerLikeINSt3__16vectorINS_5media17AudioAttributesExENS3_9allocatorIS6_EEEEE6$valueE",
   "self_type" : "_ZTIN7android8internal7details13IsPointerLikeINSt3__16vectorINS_5media17AudioAttributesExENS3_9allocatorIS6_EEEEE6$valueE",
   "size" : 4,
   "source_file" : "frameworks/native/libs/binder/ndk/include_cpp/android/binder_to_string.h",
   "underlying_type" : "_ZTIj"
  },
  {
   "alignment" : 4,
   "enum_fields" :
   [
    {
     "enum_field_value" : 0,
     "name" : "android::internal::details::IsPointerLike<std::__1::vector<android::media::AudioAttributesInternal, std::__1::allocator<android::media::AudioAttributesInternal>>>::value"
    }
   ],
   "linker_set_key" : "_ZTIN7android8internal7details13IsPointerLikeINSt3__16vectorINS_5media23AudioAttributesInternalENS3_9allocatorIS6_EEEEE6$valueE",
   "name" : "android::internal::details::IsPointerLike<vector<AudioAttributesInternal, allocator<AudioAttributesInternal>>>::(anonymous enum at frameworks/native/libs/binder/ndk/include_cpp/android/binder_to_string.h:118:5)",
   "referenced_type" : "_ZTIN7android8internal7details13IsPointerLikeINSt3__16vectorINS_5media23AudioAttributesInternalENS3_9allocatorIS6_EEEEE6$valueE",
   "self_type" : "_ZTIN7android8internal7details13IsPointerLikeINSt3__16vectorINS_5media23AudioAttributesInternalENS3_9allocatorIS6_EEEEE6$valueE",
   "size" : 4,
   "source_file" : "frameworks/native/libs/binder/ndk/include_cpp/android/binder_to_string.h",
   "underlying_type" : "_ZTIj"
  },
  {
   "alignment" : 4,
   "enum_fields" :
   [
    {
     "enum_field_value" : 0,
     "name" : "android::internal::details::IsPointerLike<std::__1::vector<android::content::AttributionSourceState, std::__1::allocator<android::content::AttributionSourceState>>>::value"
    }
   ],
   "linker_set_key" : "_ZTIN7android8internal7details13IsPointerLikeINSt3__16vectorINS_7content22AttributionSourceStateENS3_9allocatorIS6_EEEEE6$valueE",
   "name" : "android::internal::details::IsPointerLike<vector<AttributionSourceState, allocator<AttributionSourceState>>>::(anonymous enum at frameworks/native/libs/binder/ndk/include_cpp/android/binder_to_string.h:118:5)",
   "referenced_type" : "_ZTIN7android8internal7details13IsPointerLikeINSt3__16vectorINS_7content22AttributionSourceStateENS3_9allocatorIS6_EEEEE6$valueE",
   "self_type" : "_ZTIN7android8internal7details13IsPointerLikeINSt3__16vectorINS_7content22AttributionSourceStateENS3_9allocatorIS6_EEEEE6$valueE",
   "size" : 4,
   "source_file" : "frameworks/native/libs/binder/ndk/include_cpp/android/binder_to_string.h",
   "underlying_type" : "_ZTIj"
  },
  {
   "alignment" : 4,
   "enum_fields" :
   [
    {
     "enum_field_value" : 0,
     "name" : "android::internal::details::IsPointerLike<std::__1::vector<float, std::__1::allocator<float>>>::value"
    }
   ],
   "linker_set_key" : "_ZTIN7android8internal7details13IsPointerLikeINSt3__16vectorIfNS3_9allocatorIfEEEEE6$valueE",
   "name" : "android::internal::details::IsPointerLike<vector<float, allocator<float>>>::(anonymous enum at frameworks/native/libs/binder/ndk/include_cpp/android/binder_to_string.h:118:5)",
   "referenced_type" : "_ZTIN7android8internal7details13IsPointerLikeINSt3__16vectorIfNS3_9allocatorIfEEEEE6$valueE",
   "self_type" : "_ZTIN7android8internal7details13IsPointerLikeINSt3__16vectorIfNS3_9allocatorIfEEEEE6$valueE",
   "size" : 4,
   "source_file" : "frameworks/native/libs/binder/ndk/include_cpp/android/binder_to_string.h",
   "underlying_type" : "_ZTIj"
  },
  {
   "alignment" : 4,
   "enum_fields" :
   [
    {
     "enum_field_value" : 0,
     "name" : "android::internal::details::IsPointerLike<std::__1::vector<unsigned char, std::__1::allocator<unsigned char>>>::value"
    }
   ],
   "linker_set_key" : "_ZTIN7android8internal7details13IsPointerLikeINSt3__16vectorIhNS3_9allocatorIhEEEEE6$valueE",
   "name" : "android::internal::details::IsPointerLike<vector<unsigned char, allocator<unsigned char>>>::(anonymous enum at frameworks/native/libs/binder/ndk/include_cpp/android/binder_to_string.h:118:5)",
   "referenced_type" : "_ZTIN7android8internal7details13IsPointerLikeINSt3__16vectorIhNS3_9allocatorIhEEEEE6$valueE",
   "self_type" : "_ZTIN7android8internal7details13IsPointerLikeINSt3__16vectorIhNS3_9allocatorIhEEEEE6$valueE",
   "size" : 4,
   "source_file" : "frameworks/native/libs/binder/ndk/include_cpp/android/binder_to_string.h",
   "underlying_type" : "_ZTIj"
  },
  {
   "alignment" : 4,
   "enum_fields" :
   [
    {
     "enum_field_value" : 0,
     "name" : "android::internal::details::IsPointerLike<std::__1::vector<int, std::__1::allocator<int>>>::value"
    }
   ],
   "linker_set_key" : "_ZTIN7android8internal7details13IsPointerLikeINSt3__16vectorIiNS3_9allocatorIiEEEEE6$valueE",
   "name" : "android::internal::details::IsPointerLike<vector<int, allocator<int>>>::(anonymous enum at frameworks/native/libs/binder/ndk/include_cpp/android/binder_to_string.h:118:5)",
   "referenced_type" : "_ZTIN7android8internal7details13IsPointerLikeINSt3__16vectorIiNS3_9allocatorIiEEEEE6$valueE",
   "self_type" : "_ZTIN7android8internal7details13IsPointerLikeINSt3__16vectorIiNS3_9allocatorIiEEEEE6$valueE",
   "size" : 4,
   "source_file" : "frameworks/native/libs/binder/ndk/include_cpp/android/binder_to_string.h",
   "underlying_type" : "_ZTIj"
  },
  {
   "alignment" : 4,
   "enum_fields" :
   [
    {
     "enum_field_value" : 1,
     "name" : "android::internal::details::IsPointerLike<std::__1::optional<std::__1::basic_string<char>>>::value"
    }
   ],
   "linker_set_key" : "_ZTIN7android8internal7details13IsPointerLikeINSt3__18optionalINS3_12basic_stringIcNS3_11char_traitsIcEENS3_9allocatorIcEEEEEEE6$valueE",
   "name" : "android::internal::details::IsPointerLike<optional<basic_string<char>>>::(anonymous enum at frameworks/native/libs/binder/ndk/include_cpp/android/binder_to_string.h:118:5)",
   "referenced_type" : "_ZTIN7android8internal7details13IsPointerLikeINSt3__18optionalINS3_12basic_stringIcNS3_11char_traitsIcEENS3_9allocatorIcEEEEEEE6$valueE",
   "self_type" : "_ZTIN7android8internal7details13IsPointerLikeINSt3__18optionalINS3_12basic_stringIcNS3_11char_traitsIcEENS3_9allocatorIcEEEEEEE6$valueE",
   "size" : 4,
   "source_file" : "frameworks/native/libs/binder/ndk/include_cpp/android/binder_to_string.h",
   "underlying_type" : "_ZTIj"
  },
  {
   "alignment" : 4,
   "enum_fields" :
   [
    {
     "enum_field_value" : 1,
     "name" : "android::internal::details::IsPointerLike<std::__1::optional<std::__1::vector<std::__1::optional<std::__1::basic_string<char>>, std::__1::allocator<std::__1::optional<std::__1::basic_string<char>>>>>>::value"
    }
   ],
   "linker_set_key" : "_ZTIN7android8internal7details13IsPointerLikeINSt3__18optionalINS3_6vectorINS4_INS3_12basic_stringIcNS3_11char_traitsIcEENS3_9allocatorIcEEEEEENS9_ISC_EEEEEEE6$valueE",
   "name" : "android::internal::details::IsPointerLike<optional<vector<optional<basic_string<char>>, allocator<optional<basic_string<char>>>>>>::(anonymous enum at frameworks/native/libs/binder/ndk/include_cpp/android/binder_to_string.h:118:5)",
   "referenced_type" : "_ZTIN7android8internal7details13IsPointerLikeINSt3__18optionalINS3_6vectorINS4_INS3_12basic_stringIcNS3_11char_traitsIcEENS3_9allocatorIcEEEEEENS9_ISC_EEEEEEE6$valueE",
   "self_type" : "_ZTIN7android8internal7details13IsPointerLikeINSt3__18optionalINS3_6vectorINS4_INS3_12basic_stringIcNS3_11char_traitsIcEENS3_9allocatorIcEEEEEENS9_ISC_EEEEEEE6$valueE",
   "size" : 4,
   "source_file" : "frameworks/native/libs/binder/ndk/include_cpp/android/binder_to_string.h",
   "underlying_type" : "_ZTIj"
  },
  {
   "alignment" : 4,
   "enum_fields" :
   [
    {
     "enum_field_value" : 1,
     "name" : "android::internal::details::IsPointerLike<std::__1::optional<android::media::InterpolatorConfig>>::value"
    }
   ],
   "linker_set_key" : "_ZTIN7android8internal7details13IsPointerLikeINSt3__18optionalINS_5media18InterpolatorConfigEEEE6$valueE",
   "name" : "android::internal::details::IsPointerLike<optional<InterpolatorConfig>>::(anonymous enum at frameworks/native/libs/binder/ndk/include_cpp/android/binder_to_string.h:118:5)",
   "referenced_type" : "_ZTIN7android8internal7details13IsPointerLikeINSt3__18optionalINS_5media18InterpolatorConfigEEEE6$valueE",
   "self_type" : "_ZTIN7android8internal7details13IsPointerLikeINSt3__18optionalINS_5media18InterpolatorConfigEEEE6$valueE",
   "size" : 4,
   "source_file" : "frameworks/native/libs/binder/ndk/include_cpp/android/binder_to_string.h",
   "underlying_type" : "_ZTIj"
  },
  {
   "alignment" : 4,
   "enum_fields" :
   [
    {
     "enum_field_value" : 0,
     "name" : "android::internal::details::ToEmptyString<aaudio::RingBuffer>::value"
    }
   ],
   "linker_set_key" : "_ZTIN7android8internal7details13ToEmptyStringIN6aaudio10RingBufferEE6$valueE",
   "name" : "android::internal::details::ToEmptyString<RingBuffer>::(anonymous enum at frameworks/native/libs/binder/ndk/include_cpp/android/binder_to_string.h:153:5)",
   "referenced_type" : "_ZTIN7android8internal7details13ToEmptyStringIN6aaudio10RingBufferEE6$valueE",
   "self_type" : "_ZTIN7android8internal7details13ToEmptyStringIN6aaudio10RingBufferEE6$valueE",
   "size" : 4,
   "source_file" : "frameworks/native/libs/binder/ndk/include_cpp/android/binder_to_string.h",
   "underlying_type" : "_ZTIj"
  },
  {
   "alignment" : 4,
   "enum_fields" :
   [
    {
     "enum_field_value" : 0,
     "name" : "android::internal::details::ToEmptyString<aaudio::SharedRegion>::value"
    }
   ],
   "linker_set_key" : "_ZTIN7android8internal7details13ToEmptyStringIN6aaudio12SharedRegionEE6$valueE",
   "name" : "android::internal::details::ToEmptyString<SharedRegion>::(anonymous enum at frameworks/native/libs/binder/ndk/include_cpp/android/binder_to_string.h:153:5)",
   "referenced_type" : "_ZTIN7android8internal7details13ToEmptyStringIN6aaudio12SharedRegionEE6$valueE",
   "self_type" : "_ZTIN7android8internal7details13ToEmptyStringIN6aaudio12SharedRegionEE6$valueE",
   "size" : 4,
   "source_file" : "frameworks/native/libs/binder/ndk/include_cpp/android/binder_to_string.h",
   "underlying_type" : "_ZTIj"
  },
  {
   "alignment" : 4,
   "enum_fields" :
   [
    {
     "enum_field_value" : 0,
     "name" : "android::internal::details::ToEmptyString<aaudio::StreamParameters>::value"
    }
   ],
   "linker_set_key" : "_ZTIN7android8internal7details13ToEmptyStringIN6aaudio16StreamParametersEE6$valueE",
   "name" : "android::internal::details::ToEmptyString<StreamParameters>::(anonymous enum at frameworks/native/libs/binder/ndk/include_cpp/android/binder_to_string.h:153:5)",
   "referenced_type" : "_ZTIN7android8internal7details13ToEmptyStringIN6aaudio16StreamParametersEE6$valueE",
   "self_type" : "_ZTIN7android8internal7details13ToEmptyStringIN6aaudio16StreamParametersEE6$valueE",
   "size" : 4,
   "source_file" : "frameworks/native/libs/binder/ndk/include_cpp/android/binder_to_string.h",
   "underlying_type" : "_ZTIj"
  },
  {
   "alignment" : 4,
   "enum_fields" :
   [
    {
     "enum_field_value" : 1,
     "name" : "android::internal::details::ToEmptyString<android::os::ParcelFileDescriptor>::value"
    }
   ],
   "linker_set_key" : "_ZTIN7android8internal7details13ToEmptyStringINS_2os20ParcelFileDescriptorEE6$valueE",
   "name" : "android::internal::details::ToEmptyString<ParcelFileDescriptor>::(anonymous enum at frameworks/native/libs/binder/ndk/include_cpp/android/binder_to_string.h:153:5)",
   "referenced_type" : "_ZTIN7android8internal7details13ToEmptyStringINS_2os20ParcelFileDescriptorEE6$valueE",
   "self_type" : "_ZTIN7android8internal7details13ToEmptyStringINS_2os20ParcelFileDescriptorEE6$valueE",
   "size" : 4,
   "source_file" : "frameworks/native/libs/binder/ndk/include_cpp/android/binder_to_string.h",
   "underlying_type" : "_ZTIj"
  },
  {
   "alignment" : 4,
   "enum_fields" :
   [
    {
     "enum_field_value" : 0,
     "name" : "android::internal::details::ToEmptyString<android::sp<android::IBinder>>::value"
    }
   ],
   "linker_set_key" : "_ZTIN7android8internal7details13ToEmptyStringINS_2spINS_7IBinderEEEE6$valueE",
   "name" : "android::internal::details::ToEmptyString<sp<IBinder>>::(anonymous enum at frameworks/native/libs/binder/ndk/include_cpp/android/binder_to_string.h:153:5)",
   "referenced_type" : "_ZTIN7android8internal7details13ToEmptyStringINS_2spINS_7IBinderEEEE6$valueE",
   "self_type" : "_ZTIN7android8internal7details13ToEmptyStringINS_2spINS_7IBinderEEEE6$valueE",
   "size" : 4,
   "source_file" : "frameworks/native/libs/binder/ndk/include_cpp/android/binder_to_string.h",
   "underlying_type" : "_ZTIj"
  },
  {
   "alignment" : 4,
   "enum_fields" :
   [
    {
     "enum_field_value" : 0,
     "name" : "android::internal::details::ToEmptyString<android::media::AudioPatch>::value"
    }
   ],
   "linker_set_key" : "_ZTIN7android8internal7details13ToEmptyStringINS_5media10AudioPatchEE6$valueE",
   "name" : "android::internal::details::ToEmptyString<AudioPatch>::(anonymous enum at frameworks/native/libs/binder/ndk/include_cpp/android/binder_to_string.h:153:5)",
   "referenced_type" : "_ZTIN7android8internal7details13ToEmptyStringINS_5media10AudioPatchEE6$valueE",
   "self_type" : "_ZTIN7android8internal7details13ToEmptyStringINS_5media10AudioPatchEE6$valueE",
   "size" : 4,
   "source_file" : "frameworks/native/libs/binder/ndk/include_cpp/android/binder_to_string.h",
   "underlying_type" : "_ZTIj"
  },
  {
   "alignment" : 4,
   "enum_fields" :
   [
    {
     "enum_field_value" : 0,
     "name" : "android::internal::details::ToEmptyString<android::media::AudioUsage>::value"
    }
   ],
   "linker_set_key" : "_ZTIN7android8internal7details13ToEmptyStringINS_5media10AudioUsageEE6$valueE",
   "name" : "android::internal::details::ToEmptyString<AudioUsage>::(anonymous enum at frameworks/native/libs/binder/ndk/include_cpp/android/binder_to_string.h:153:5)",
   "referenced_type" : "_ZTIN7android8internal7details13ToEmptyStringINS_5media10AudioUsageEE6$valueE",
   "self_type" : "_ZTIN7android8internal7details13ToEmptyStringINS_5media10AudioUsageEE6$valueE",
   "size" : 4,
   "source_file" : "frameworks/native/libs/binder/ndk/include_cpp/android/binder_to_string.h",
   "underlying_type" : "_ZTIj"
  },
  {
   "alignment" : 4,
   "enum_fields" :
   [
    {
     "enum_field_value" : 0,
     "name" : "android::internal::details::ToEmptyString<android::media::AudioIoFlags>::value"
    }
   ],
   "linker_set_key" : "_ZTIN7android8internal7details13ToEmptyStringINS_5media12AudioIoFlagsEE6$valueE",
   "name" : "android::internal::details::ToEmptyString<AudioIoFlags>::(anonymous enum at frameworks/native/libs/binder/ndk/include_cpp/android/binder_to_string.h:153:5)",
   "referenced_type" : "_ZTIN7android8internal7details13ToEmptyStringINS_5media12AudioIoFlagsEE6$valueE",
   "self_type" : "_ZTIN7android8internal7details13ToEmptyStringINS_5media12AudioIoFlagsEE6$valueE",
   "size" : 4,
   "source_file" : "frameworks/native/libs/binder/ndk/include_cpp/android/binder_to_string.h",
   "underlying_type" : "_ZTIj"
  },
  {
   "alignment" : 4,
   "enum_fields" :
   [
    {
     "enum_field_value" : 0,
     "name" : "android::internal::details::ToEmptyString<android::media::AudioPortRole>::value"
    }
   ],
   "linker_set_key" : "_ZTIN7android8internal7details13ToEmptyStringINS_5media13AudioPortRoleEE6$valueE",
   "name" : "android::internal::details::ToEmptyString<AudioPortRole>::(anonymous enum at frameworks/native/libs/binder/ndk/include_cpp/android/binder_to_string.h:153:5)",
   "referenced_type" : "_ZTIN7android8internal7details13ToEmptyStringINS_5media13AudioPortRoleEE6$valueE",
   "self_type" : "_ZTIN7android8internal7details13ToEmptyStringINS_5media13AudioPortRoleEE6$valueE",
   "size" : 4,
   "source_file" : "frameworks/native/libs/binder/ndk/include_cpp/android/binder_to_string.h",
   "underlying_type" : "_ZTIj"
  },
  {
   "alignment" : 4,
   "enum_fields" :
   [
    {
     "enum_field_value" : 0,
     "name" : "android::internal::details::ToEmptyString<android::media::AudioPortType>::value"
    }
   ],
   "linker_set_key" : "_ZTIN7android8internal7details13ToEmptyStringINS_5media13AudioPortTypeEE6$valueE",
   "name" : "android::internal::details::ToEmptyString<AudioPortType>::(anonymous enum at frameworks/native/libs/binder/ndk/include_cpp/android/binder_to_string.h:153:5)",
   "referenced_type" : "_ZTIN7android8internal7details13ToEmptyStringINS_5media13AudioPortTypeEE6$valueE",
   "self_type" : "_ZTIN7android8internal7details13ToEmptyStringINS_5media13AudioPortTypeEE6$valueE",
   "size" : 4,
   "source_file" : "frameworks/native/libs/binder/ndk/include_cpp/android/binder_to_string.h",
   "underlying_type" : "_ZTIj"
  },
  {
   "alignment" : 4,
   "enum_fields" :
   [
    {
     "enum_field_value" : 0,
     "name" : "android::internal::details::ToEmptyString<android::media::AudioGainConfig>::value"
    }
   ],
   "linker_set_key" : "_ZTIN7android8internal7details13ToEmptyStringINS_5media15AudioGainConfigEE6$valueE",
   "name" : "android::internal::details::ToEmptyString<AudioGainConfig>::(anonymous enum at frameworks/native/libs/binder/ndk/include_cpp/android/binder_to_string.h:153:5)",
   "referenced_type" : "_ZTIN7android8internal7details13ToEmptyStringINS_5media15AudioGainConfigEE6$valueE",
   "self_type" : "_ZTIN7android8internal7details13ToEmptyStringINS_5media15AudioGainConfigEE6$valueE",
   "size" : 4,
   "source_file" : "frameworks/native/libs/binder/ndk/include_cpp/android/binder_to_string.h",
   "underlying_type" : "_ZTIj"
  },
  {
   "alignment" : 4,
   "enum_fields" :
   [
    {
     "enum_field_value" : 0,
     "name" : "android::internal::details::ToEmptyString<android::media::AudioPortConfig>::value"
    }
   ],
   "linker_set_key" : "_ZTIN7android8internal7details13ToEmptyStringINS_5media15AudioPortConfigEE6$valueE",
   "name" : "android::internal::details::ToEmptyString<AudioPortConfig>::(anonymous enum at frameworks/native/libs/binder/ndk/include_cpp/android/binder_to_string.h:153:5)",
   "referenced_type" : "_ZTIN7android8internal7details13ToEmptyStringINS_5media15AudioPortConfigEE6$valueE",
   "self_type" : "_ZTIN7android8internal7details13ToEmptyStringINS_5media15AudioPortConfigEE6$valueE",
   "size" : 4,
   "source_file" : "frameworks/native/libs/binder/ndk/include_cpp/android/binder_to_string.h",
   "underlying_type" : "_ZTIj"
  },
  {
   "alignment" : 4,
   "enum_fields" :
   [
    {
     "enum_field_value" : 0,
     "name" : "android::internal::details::ToEmptyString<android::media::AudioSourceType>::value"
    }
   ],
   "linker_set_key" : "_ZTIN7android8internal7details13ToEmptyStringINS_5media15AudioSourceTypeEE6$valueE",
   "name" : "android::internal::details::ToEmptyString<AudioSourceType>::(anonymous enum at frameworks/native/libs/binder/ndk/include_cpp/android/binder_to_string.h:153:5)",
   "referenced_type" : "_ZTIN7android8internal7details13ToEmptyStringINS_5media15AudioSourceTypeEE6$valueE",
   "self_type" : "_ZTIN7android8internal7details13ToEmptyStringINS_5media15AudioSourceTypeEE6$valueE",
   "size" : 4,
   "source_file" : "frameworks/native/libs/binder/ndk/include_cpp/android/binder_to_string.h",
   "underlying_type" : "_ZTIj"
  },
  {
   "alignment" : 4,
   "enum_fields" :
   [
    {
     "enum_field_value" : 0,
     "name" : "android::internal::details::ToEmptyString<android::media::AudioStreamType>::value"
    }
   ],
   "linker_set_key" : "_ZTIN7android8internal7details13ToEmptyStringINS_5media15AudioStreamTypeEE6$valueE",
   "name" : "android::internal::details::ToEmptyString<AudioStreamType>::(anonymous enum at frameworks/native/libs/binder/ndk/include_cpp/android/binder_to_string.h:153:5)",
   "referenced_type" : "_ZTIN7android8internal7details13ToEmptyStringINS_5media15AudioStreamTypeEE6$valueE",
   "self_type" : "_ZTIN7android8internal7details13ToEmptyStringINS_5media15AudioStreamTypeEE6$valueE",
   "size" : 4,
   "source_file" : "frameworks/native/libs/binder/ndk/include_cpp/android/binder_to_string.h",
   "underlying_type" : "_ZTIj"
  },
  {
   "alignment" : 4,
   "enum_fields" :
   [
    {
     "enum_field_value" : 0,
     "name" : "android::internal::details::ToEmptyString<android::media::AudioContentType>::value"
    }
   ],
   "linker_set_key" : "_ZTIN7android8internal7details13ToEmptyStringINS_5media16AudioContentTypeEE6$valueE",
   "name" : "android::internal::details::ToEmptyString<AudioContentType>::(anonymous enum at frameworks/native/libs/binder/ndk/include_cpp/android/binder_to_string.h:153:5)",
   "referenced_type" : "_ZTIN7android8internal7details13ToEmptyStringINS_5media16AudioContentTypeEE6$valueE",
   "self_type" : "_ZTIN7android8internal7details13ToEmptyStringINS_5media16AudioContentTypeEE6$valueE",
   "size" : 4,
   "source_file" : "frameworks/native/libs/binder/ndk/include_cpp/android/binder_to_string.h",
   "underlying_type" : "_ZTIj"
  },
  {
   "alignment" : 4,
   "enum_fields" :
   [
    {
     "enum_field_value" : 0,
     "name" : "android::internal::details::ToEmptyString<android::media::InterpolatorType>::value"
    }
   ],
   "linker_set_key" : "_ZTIN7android8internal7details13ToEmptyStringINS_5media16InterpolatorTypeEE6$valueE",
   "name" : "android::internal::details::ToEmptyString<InterpolatorType>::(anonymous enum at frameworks/native/libs/binder/ndk/include_cpp/android/binder_to_string.h:153:5)",
   "referenced_type" : "_ZTIN7android8internal7details13ToEmptyStringINS_5media16InterpolatorTypeEE6$valueE",
   "self_type" : "_ZTIN7android8internal7details13ToEmptyStringINS_5media16InterpolatorTypeEE6$valueE",
   "size" : 4,
   "source_file" : "frameworks/native/libs/binder/ndk/include_cpp/android/binder_to_string.h",
   "underlying_type" : "_ZTIj"
  },
  {
   "alignment" : 4,
   "enum_fields" :
   [
    {
     "enum_field_value" : 0,
     "name" : "android::internal::details::ToEmptyString<android::media::SharedFileRegion>::value"
    }
   ],
   "linker_set_key" : "_ZTIN7android8internal7details13ToEmptyStringINS_5media16SharedFileRegionEE6$valueE",
   "name" : "android::internal::details::ToEmptyString<SharedFileRegion>::(anonymous enum at frameworks/native/libs/binder/ndk/include_cpp/android/binder_to_string.h:153:5)",
   "referenced_type" : "_ZTIN7android8internal7details13ToEmptyStringINS_5media16SharedFileRegionEE6$valueE",
   "self_type" : "_ZTIN7android8internal7details13ToEmptyStringINS_5media16SharedFileRegionEE6$valueE",
   "size" : 4,
   "source_file" : "frameworks/native/libs/binder/ndk/include_cpp/android/binder_to_string.h",
   "underlying_type" : "_ZTIj"
  },
  {
   "alignment" : 4,
   "enum_fields" :
   [
    {
     "enum_field_value" : 0,
     "name" : "android::internal::details::ToEmptyString<android::media::AudioAttributesEx>::value"
    }
   ],
   "linker_set_key" : "_ZTIN7android8internal7details13ToEmptyStringINS_5media17AudioAttributesExEE6$valueE",
   "name" : "android::internal::details::ToEmptyString<AudioAttributesEx>::(anonymous enum at frameworks/native/libs/binder/ndk/include_cpp/android/binder_to_string.h:153:5)",
   "referenced_type" : "_ZTIN7android8internal7details13ToEmptyStringINS_5media17AudioAttributesExEE6$valueE",
   "self_type" : "_ZTIN7android8internal7details13ToEmptyStringINS_5media17AudioAttributesExEE6$valueE",
   "size" : 4,
   "source_file" : "frameworks/native/libs/binder/ndk/include_cpp/android/binder_to_string.h",
   "underlying_type" : "_ZTIj"
  },
  {
   "alignment" : 4,
   "enum_fields" :
   [
    {
     "enum_field_value" : 0,
     "name" : "android::internal::details::ToEmptyString<android::media::AudioPortConfigExt>::value"
    }
   ],
   "linker_set_key" : "_ZTIN7android8internal7details13ToEmptyStringINS_5media18AudioPortConfigExtEE6$valueE",
   "name" : "android::internal::details::ToEmptyString<AudioPortConfigExt>::(anonymous enum at frameworks/native/libs/binder/ndk/include_cpp/android/binder_to_string.h:153:5)",
   "referenced_type" : "_ZTIN7android8internal7details13ToEmptyStringINS_5media18AudioPortConfigExtEE6$valueE",
   "self_type" : "_ZTIN7android8internal7details13ToEmptyStringINS_5media18AudioPortConfigExtEE6$valueE",
   "size" : 4,
   "source_file" : "frameworks/native/libs/binder/ndk/include_cpp/android/binder_to_string.h",
   "underlying_type" : "_ZTIj"
  },
  {
   "alignment" : 4,
   "enum_fields" :
   [
    {
     "enum_field_value" : 0,
     "name" : "android::internal::details::ToEmptyString<android::media::InterpolatorConfig>::value"
    }
   ],
   "linker_set_key" : "_ZTIN7android8internal7details13ToEmptyStringINS_5media18InterpolatorConfigEE6$valueE",
   "name" : "android::internal::details::ToEmptyString<InterpolatorConfig>::(anonymous enum at frameworks/native/libs/binder/ndk/include_cpp/android/binder_to_string.h:153:5)",
   "referenced_type" : "_ZTIN7android8internal7details13ToEmptyStringINS_5media18InterpolatorConfigEE6$valueE",
   "self_type" : "_ZTIN7android8internal7details13ToEmptyStringINS_5media18InterpolatorConfigEE6$valueE",
   "size" : 4,
   "source_file" : "frameworks/native/libs/binder/ndk/include_cpp/android/binder_to_string.h",
   "underlying_type" : "_ZTIj"
  },
  {
   "alignment" : 4,
   "enum_fields" :
   [
    {
     "enum_field_value" : 0,
     "name" : "android::internal::details::ToEmptyString<android::media::AudioPortConfigMixExt>::value"
    }
   ],
   "linker_set_key" : "_ZTIN7android8internal7details13ToEmptyStringINS_5media21AudioPortConfigMixExtEE6$valueE",
   "name" : "android::internal::details::ToEmptyString<AudioPortConfigMixExt>::(anonymous enum at frameworks/native/libs/binder/ndk/include_cpp/android/binder_to_string.h:153:5)",
   "referenced_type" : "_ZTIN7android8internal7details13ToEmptyStringINS_5media21AudioPortConfigMixExtEE6$valueE",
   "self_type" : "_ZTIN7android8internal7details13ToEmptyStringINS_5media21AudioPortConfigMixExtEE6$valueE",
   "size" : 4,
   "source_file" : "frameworks/native/libs/binder/ndk/include_cpp/android/binder_to_string.h",
   "underlying_type" : "_ZTIj"
  },
  {
   "alignment" : 4,
   "enum_fields" :
   [
    {
     "enum_field_value" : 0,
     "name" : "android::internal::details::ToEmptyString<android::media::AudioAttributesInternal>::value"
    }
   ],
   "linker_set_key" : "_ZTIN7android8internal7details13ToEmptyStringINS_5media23AudioAttributesInternalEE6$valueE",
   "name" : "android::internal::details::ToEmptyString<AudioAttributesInternal>::(anonymous enum at frameworks/native/libs/binder/ndk/include_cpp/android/binder_to_string.h:153:5)",
   "referenced_type" : "_ZTIN7android8internal7details13ToEmptyStringINS_5media23AudioAttributesInternalEE6$valueE",
   "self_type" : "_ZTIN7android8internal7details13ToEmptyStringINS_5media23AudioAttributesInternalEE6$valueE",
   "size" : 4,
   "source_file" : "frameworks/native/libs/binder/ndk/include_cpp/android/binder_to_string.h",
   "underlying_type" : "_ZTIj"
  },
  {
   "alignment" : 4,
   "enum_fields" :
   [
    {
     "enum_field_value" : 0,
     "name" : "android::internal::details::ToEmptyString<android::media::AudioPortConfigDeviceExt>::value"
    }
   ],
   "linker_set_key" : "_ZTIN7android8internal7details13ToEmptyStringINS_5media24AudioPortConfigDeviceExtEE6$valueE",
   "name" : "android::internal::details::ToEmptyString<AudioPortConfigDeviceExt>::(anonymous enum at frameworks/native/libs/binder/ndk/include_cpp/android/binder_to_string.h:153:5)",
   "referenced_type" : "_ZTIN7android8internal7details13ToEmptyStringINS_5media24AudioPortConfigDeviceExtEE6$valueE",
   "self_type" : "_ZTIN7android8internal7details13ToEmptyStringINS_5media24AudioPortConfigDeviceExtEE6$valueE",
   "size" : 4,
   "source_file" : "frameworks/native/libs/binder/ndk/include_cpp/android/binder_to_string.h",
   "underlying_type" : "_ZTIj"
  },
  {
   "alignment" : 4,
   "enum_fields" :
   [
    {
     "enum_field_value" : 0,
     "name" : "android::internal::details::ToEmptyString<android::media::AudioPortConfigSessionExt>::value"
    }
   ],
   "linker_set_key" : "_ZTIN7android8internal7details13ToEmptyStringINS_5media25AudioPortConfigSessionExtEE6$valueE",
   "name" : "android::internal::details::ToEmptyString<AudioPortConfigSessionExt>::(anonymous enum at frameworks/native/libs/binder/ndk/include_cpp/android/binder_to_string.h:153:5)",
   "referenced_type" : "_ZTIN7android8internal7details13ToEmptyStringINS_5media25AudioPortConfigSessionExtEE6$valueE",
   "self_type" : "_ZTIN7android8internal7details13ToEmptyStringINS_5media25AudioPortConfigSessionExtEE6$valueE",
   "size" : 4,
   "source_file" : "frameworks/native/libs/binder/ndk/include_cpp/android/binder_to_string.h",
   "underlying_type" : "_ZTIj"
  },
  {
   "alignment" : 4,
   "enum_fields" :
   [
    {
     "enum_field_value" : 0,
     "name" : "android::internal::details::ToEmptyString<android::media::AudioPortConfigMixExtUseCase>::value"
    }
   ],
   "linker_set_key" : "_ZTIN7android8internal7details13ToEmptyStringINS_5media28AudioPortConfigMixExtUseCaseEE6$valueE",
   "name" : "android::internal::details::ToEmptyString<AudioPortConfigMixExtUseCase>::(anonymous enum at frameworks/native/libs/binder/ndk/include_cpp/android/binder_to_string.h:153:5)",
   "referenced_type" : "_ZTIN7android8internal7details13ToEmptyStringINS_5media28AudioPortConfigMixExtUseCaseEE6$valueE",
   "self_type" : "_ZTIN7android8internal7details13ToEmptyStringINS_5media28AudioPortConfigMixExtUseCaseEE6$valueE",
   "size" : 4,
   "source_file" : "frameworks/native/libs/binder/ndk/include_cpp/android/binder_to_string.h",
   "underlying_type" : "_ZTIj"
  },
  {
   "alignment" : 4,
   "enum_fields" :
   [
    {
     "enum_field_value" : 0,
     "name" : "android::internal::details::ToEmptyString<android::media::VolumeShaperConfigurationType>::value"
    }
   ],
   "linker_set_key" : "_ZTIN7android8internal7details13ToEmptyStringINS_5media29VolumeShaperConfigurationTypeEE6$valueE",
   "name" : "android::internal::details::ToEmptyString<VolumeShaperConfigurationType>::(anonymous enum at frameworks/native/libs/binder/ndk/include_cpp/android/binder_to_string.h:153:5)",
   "referenced_type" : "_ZTIN7android8internal7details13ToEmptyStringINS_5media29VolumeShaperConfigurationTypeEE6$valueE",
   "self_type" : "_ZTIN7android8internal7details13ToEmptyStringINS_5media29VolumeShaperConfigurationTypeEE6$valueE",
   "size" : 4,
   "source_file" : "frameworks/native/libs/binder/ndk/include_cpp/android/binder_to_string.h",
   "underlying_type" : "_ZTIj"
  },
  {
   "alignment" : 4,
   "enum_fields" :
   [
    {
     "enum_field_value" : 0,
     "name" : "android::internal::details::ToEmptyString<android::media::audio::common::AudioFormat>::value"
    }
   ],
   "linker_set_key" : "_ZTIN7android8internal7details13ToEmptyStringINS_5media5audio6common11AudioFormatEE6$valueE",
   "name" : "android::internal::details::ToEmptyString<AudioFormat>::(anonymous enum at frameworks/native/libs/binder/ndk/include_cpp/android/binder_to_string.h:153:5)",
   "referenced_type" : "_ZTIN7android8internal7details13ToEmptyStringINS_5media5audio6common11AudioFormatEE6$valueE",
   "self_type" : "_ZTIN7android8internal7details13ToEmptyStringINS_5media5audio6common11AudioFormatEE6$valueE",
   "size" : 4,
   "source_file" : "frameworks/native/libs/binder/ndk/include_cpp/android/binder_to_string.h",
   "underlying_type" : "_ZTIj"
  },
  {
   "alignment" : 4,
   "enum_fields" :
   [
    {
     "enum_field_value" : 0,
     "name" : "android::internal::details::ToEmptyString<android::media::AudioUuid>::value"
    }
   ],
   "linker_set_key" : "_ZTIN7android8internal7details13ToEmptyStringINS_5media9AudioUuidEE6$valueE",
   "name" : "android::internal::details::ToEmptyString<AudioUuid>::(anonymous enum at frameworks/native/libs/binder/ndk/include_cpp/android/binder_to_string.h:153:5)",
   "referenced_type" : "_ZTIN7android8internal7details13ToEmptyStringINS_5media9AudioUuidEE6$valueE",
   "self_type" : "_ZTIN7android8internal7details13ToEmptyStringINS_5media9AudioUuidEE6$valueE",
   "size" : 4,
   "source_file" : "frameworks/native/libs/binder/ndk/include_cpp/android/binder_to_string.h",
   "underlying_type" : "_ZTIj"
  },
  {
   "alignment" : 4,
   "enum_fields" :
   [
    {
     "enum_field_value" : 1,
     "name" : "android::internal::details::ToEmptyString<android::IBinder>::value"
    }
   ],
   "linker_set_key" : "_ZTIN7android8internal7details13ToEmptyStringINS_7IBinderEE6$valueE",
   "name" : "android::internal::details::ToEmptyString<IBinder>::(anonymous enum at frameworks/native/libs/binder/ndk/include_cpp/android/binder_to_string.h:153:5)",
   "referenced_type" : "_ZTIN7android8internal7details13ToEmptyStringINS_7IBinderEE6$valueE",
   "self_type" : "_ZTIN7android8internal7details13ToEmptyStringINS_7IBinderEE6$valueE",
   "size" : 4,
   "source_file" : "frameworks/native/libs/binder/ndk/include_cpp/android/binder_to_string.h",
   "underlying_type" : "_ZTIj"
  },
  {
   "alignment" : 4,
   "enum_fields" :
   [
    {
     "enum_field_value" : 0,
     "name" : "android::internal::details::ToEmptyString<android::content::AttributionSourceState>::value"
    }
   ],
   "linker_set_key" : "_ZTIN7android8internal7details13ToEmptyStringINS_7content22AttributionSourceStateEE6$valueE",
   "name" : "android::internal::details::ToEmptyString<AttributionSourceState>::(anonymous enum at frameworks/native/libs/binder/ndk/include_cpp/android/binder_to_string.h:153:5)",
   "referenced_type" : "_ZTIN7android8internal7details13ToEmptyStringINS_7content22AttributionSourceStateEE6$valueE",
   "self_type" : "_ZTIN7android8internal7details13ToEmptyStringINS_7content22AttributionSourceStateEE6$valueE",
   "size" : 4,
   "source_file" : "frameworks/native/libs/binder/ndk/include_cpp/android/binder_to_string.h",
   "underlying_type" : "_ZTIj"
  },
  {
   "alignment" : 4,
   "enum_fields" :
   [
    {
     "enum_field_value" : 0,
     "name" : "android::internal::details::ToEmptyString<std::__1::basic_string<char>>::value"
    }
   ],
   "linker_set_key" : "_ZTIN7android8internal7details13ToEmptyStringINSt3__112basic_stringIcNS3_11char_traitsIcEENS3_9allocatorIcEEEEE6$valueE",
   "name" : "android::internal::details::ToEmptyString<basic_string<char>>::(anonymous enum at frameworks/native/libs/binder/ndk/include_cpp/android/binder_to_string.h:153:5)",
   "referenced_type" : "_ZTIN7android8internal7details13ToEmptyStringINSt3__112basic_stringIcNS3_11char_traitsIcEENS3_9allocatorIcEEEEE6$valueE",
   "self_type" : "_ZTIN7android8internal7details13ToEmptyStringINSt3__112basic_stringIcNS3_11char_traitsIcEENS3_9allocatorIcEEEEE6$valueE",
   "size" : 4,
   "source_file" : "frameworks/native/libs/binder/ndk/include_cpp/android/binder_to_string.h",
   "underlying_type" : "_ZTIj"
  },
  {
   "alignment" : 4,
   "enum_fields" :
   [
    {
     "enum_field_value" : 0,
     "name" : "android::internal::details::ToEmptyString<std::__1::vector<std::__1::optional<std::__1::basic_string<char>>, std::__1::allocator<std::__1::optional<std::__1::basic_string<char>>>>>::value"
    }
   ],
   "linker_set_key" : "_ZTIN7android8internal7details13ToEmptyStringINSt3__16vectorINS3_8optionalINS3_12basic_stringIcNS3_11char_traitsIcEENS3_9allocatorIcEEEEEENS9_ISC_EEEEE6$valueE",
   "name" : "android::internal::details::ToEmptyString<vector<optional<basic_string<char>>, allocator<optional<basic_string<char>>>>>::(anonymous enum at frameworks/native/libs/binder/ndk/include_cpp/android/binder_to_string.h:153:5)",
   "referenced_type" : "_ZTIN7android8internal7details13ToEmptyStringINSt3__16vectorINS3_8optionalINS3_12basic_stringIcNS3_11char_traitsIcEENS3_9allocatorIcEEEEEENS9_ISC_EEEEE6$valueE",
   "self_type" : "_ZTIN7android8internal7details13ToEmptyStringINSt3__16vectorINS3_8optionalINS3_12basic_stringIcNS3_11char_traitsIcEENS3_9allocatorIcEEEEEENS9_ISC_EEEEE6$valueE",
   "size" : 4,
   "source_file" : "frameworks/native/libs/binder/ndk/include_cpp/android/binder_to_string.h",
   "underlying_type" : "_ZTIj"
  },
  {
   "alignment" : 4,
   "enum_fields" :
   [
    {
     "enum_field_value" : 0,
     "name" : "android::internal::details::ToEmptyString<std::__1::vector<android::media::AudioPortConfig, std::__1::allocator<android::media::AudioPortConfig>>>::value"
    }
   ],
   "linker_set_key" : "_ZTIN7android8internal7details13ToEmptyStringINSt3__16vectorINS_5media15AudioPortConfigENS3_9allocatorIS6_EEEEE6$valueE",
   "name" : "android::internal::details::ToEmptyString<vector<AudioPortConfig, allocator<AudioPortConfig>>>::(anonymous enum at frameworks/native/libs/binder/ndk/include_cpp/android/binder_to_string.h:153:5)",
   "referenced_type" : "_ZTIN7android8internal7details13ToEmptyStringINSt3__16vectorINS_5media15AudioPortConfigENS3_9allocatorIS6_EEEEE6$valueE",
   "self_type" : "_ZTIN7android8internal7details13ToEmptyStringINSt3__16vectorINS_5media15AudioPortConfigENS3_9allocatorIS6_EEEEE6$valueE",
   "size" : 4,
   "source_file" : "frameworks/native/libs/binder/ndk/include_cpp/android/binder_to_string.h",
   "underlying_type" : "_ZTIj"
  },
  {
   "alignment" : 4,
   "enum_fields" :
   [
    {
     "enum_field_value" : 0,
     "name" : "android::internal::details::ToEmptyString<std::__1::vector<android::media::AudioStreamType, std::__1::allocator<android::media::AudioStreamType>>>::value"
    }
   ],
   "linker_set_key" : "_ZTIN7android8internal7details13ToEmptyStringINSt3__16vectorINS_5media15AudioStreamTypeENS3_9allocatorIS6_EEEEE6$valueE",
   "name" : "android::internal::details::ToEmptyString<vector<AudioStreamType, allocator<AudioStreamType>>>::(anonymous enum at frameworks/native/libs/binder/ndk/include_cpp/android/binder_to_string.h:153:5)",
   "referenced_type" : "_ZTIN7android8internal7details13ToEmptyStringINSt3__16vectorINS_5media15AudioStreamTypeENS3_9allocatorIS6_EEEEE6$valueE",
   "self_type" : "_ZTIN7android8internal7details13ToEmptyStringINSt3__16vectorINS_5media15AudioStreamTypeENS3_9allocatorIS6_EEEEE6$valueE",
   "size" : 4,
   "source_file" : "frameworks/native/libs/binder/ndk/include_cpp/android/binder_to_string.h",
   "underlying_type" : "_ZTIj"
  },
  {
   "alignment" : 4,
   "enum_fields" :
   [
    {
     "enum_field_value" : 0,
     "name" : "android::internal::details::ToEmptyString<std::__1::vector<android::media::SharedFileRegion, std::__1::allocator<android::media::SharedFileRegion>>>::value"
    }
   ],
   "linker_set_key" : "_ZTIN7android8internal7details13ToEmptyStringINSt3__16vectorINS_5media16SharedFileRegionENS3_9allocatorIS6_EEEEE6$valueE",
   "name" : "android::internal::details::ToEmptyString<vector<SharedFileRegion, allocator<SharedFileRegion>>>::(anonymous enum at frameworks/native/libs/binder/ndk/include_cpp/android/binder_to_string.h:153:5)",
   "referenced_type" : "_ZTIN7android8internal7details13ToEmptyStringINSt3__16vectorINS_5media16SharedFileRegionENS3_9allocatorIS6_EEEEE6$valueE",
   "self_type" : "_ZTIN7android8internal7details13ToEmptyStringINSt3__16vectorINS_5media16SharedFileRegionENS3_9allocatorIS6_EEEEE6$valueE",
   "size" : 4,
   "source_file" : "frameworks/native/libs/binder/ndk/include_cpp/android/binder_to_string.h",
   "underlying_type" : "_ZTIj"
  },
  {
   "alignment" : 4,
   "enum_fields" :
   [
    {
     "enum_field_value" : 0,
     "name" : "android::internal::details::ToEmptyString<std::__1::vector<android::media::AudioAttributesEx, std::__1::allocator<android::media::AudioAttributesEx>>>::value"
    }
   ],
   "linker_set_key" : "_ZTIN7android8internal7details13ToEmptyStringINSt3__16vectorINS_5media17AudioAttributesExENS3_9allocatorIS6_EEEEE6$valueE",
   "name" : "android::internal::details::ToEmptyString<vector<AudioAttributesEx, allocator<AudioAttributesEx>>>::(anonymous enum at frameworks/native/libs/binder/ndk/include_cpp/android/binder_to_string.h:153:5)",
   "referenced_type" : "_ZTIN7android8internal7details13ToEmptyStringINSt3__16vectorINS_5media17AudioAttributesExENS3_9allocatorIS6_EEEEE6$valueE",
   "self_type" : "_ZTIN7android8internal7details13ToEmptyStringINSt3__16vectorINS_5media17AudioAttributesExENS3_9allocatorIS6_EEEEE6$valueE",
   "size" : 4,
   "source_file" : "frameworks/native/libs/binder/ndk/include_cpp/android/binder_to_string.h",
   "underlying_type" : "_ZTIj"
  },
  {
   "alignment" : 4,
   "enum_fields" :
   [
    {
     "enum_field_value" : 0,
     "name" : "android::internal::details::ToEmptyString<std::__1::vector<android::media::AudioAttributesInternal, std::__1::allocator<android::media::AudioAttributesInternal>>>::value"
    }
   ],
   "linker_set_key" : "_ZTIN7android8internal7details13ToEmptyStringINSt3__16vectorINS_5media23AudioAttributesInternalENS3_9allocatorIS6_EEEEE6$valueE",
   "name" : "android::internal::details::ToEmptyString<vector<AudioAttributesInternal, allocator<AudioAttributesInternal>>>::(anonymous enum at frameworks/native/libs/binder/ndk/include_cpp/android/binder_to_string.h:153:5)",
   "referenced_type" : "_ZTIN7android8internal7details13ToEmptyStringINSt3__16vectorINS_5media23AudioAttributesInternalENS3_9allocatorIS6_EEEEE6$valueE",
   "self_type" : "_ZTIN7android8internal7details13ToEmptyStringINSt3__16vectorINS_5media23AudioAttributesInternalENS3_9allocatorIS6_EEEEE6$valueE",
   "size" : 4,
   "source_file" : "frameworks/native/libs/binder/ndk/include_cpp/android/binder_to_string.h",
   "underlying_type" : "_ZTIj"
  },
  {
   "alignment" : 4,
   "enum_fields" :
   [
    {
     "enum_field_value" : 0,
     "name" : "android::internal::details::ToEmptyString<std::__1::vector<android::content::AttributionSourceState, std::__1::allocator<android::content::AttributionSourceState>>>::value"
    }
   ],
   "linker_set_key" : "_ZTIN7android8internal7details13ToEmptyStringINSt3__16vectorINS_7content22AttributionSourceStateENS3_9allocatorIS6_EEEEE6$valueE",
   "name" : "android::internal::details::ToEmptyString<vector<AttributionSourceState, allocator<AttributionSourceState>>>::(anonymous enum at frameworks/native/libs/binder/ndk/include_cpp/android/binder_to_string.h:153:5)",
   "referenced_type" : "_ZTIN7android8internal7details13ToEmptyStringINSt3__16vectorINS_7content22AttributionSourceStateENS3_9allocatorIS6_EEEEE6$valueE",
   "self_type" : "_ZTIN7android8internal7details13ToEmptyStringINSt3__16vectorINS_7content22AttributionSourceStateENS3_9allocatorIS6_EEEEE6$valueE",
   "size" : 4,
   "source_file" : "frameworks/native/libs/binder/ndk/include_cpp/android/binder_to_string.h",
   "underlying_type" : "_ZTIj"
  },
  {
   "alignment" : 4,
   "enum_fields" :
   [
    {
     "enum_field_value" : 0,
     "name" : "android::internal::details::ToEmptyString<std::__1::vector<float, std::__1::allocator<float>>>::value"
    }
   ],
   "linker_set_key" : "_ZTIN7android8internal7details13ToEmptyStringINSt3__16vectorIfNS3_9allocatorIfEEEEE6$valueE",
   "name" : "android::internal::details::ToEmptyString<vector<float, allocator<float>>>::(anonymous enum at frameworks/native/libs/binder/ndk/include_cpp/android/binder_to_string.h:153:5)",
   "referenced_type" : "_ZTIN7android8internal7details13ToEmptyStringINSt3__16vectorIfNS3_9allocatorIfEEEEE6$valueE",
   "self_type" : "_ZTIN7android8internal7details13ToEmptyStringINSt3__16vectorIfNS3_9allocatorIfEEEEE6$valueE",
   "size" : 4,
   "source_file" : "frameworks/native/libs/binder/ndk/include_cpp/android/binder_to_string.h",
   "underlying_type" : "_ZTIj"
  },
  {
   "alignment" : 4,
   "enum_fields" :
   [
    {
     "enum_field_value" : 0,
     "name" : "android::internal::details::ToEmptyString<std::__1::vector<unsigned char, std::__1::allocator<unsigned char>>>::value"
    }
   ],
   "linker_set_key" : "_ZTIN7android8internal7details13ToEmptyStringINSt3__16vectorIhNS3_9allocatorIhEEEEE6$valueE",
   "name" : "android::internal::details::ToEmptyString<vector<unsigned char, allocator<unsigned char>>>::(anonymous enum at frameworks/native/libs/binder/ndk/include_cpp/android/binder_to_string.h:153:5)",
   "referenced_type" : "_ZTIN7android8internal7details13ToEmptyStringINSt3__16vectorIhNS3_9allocatorIhEEEEE6$valueE",
   "self_type" : "_ZTIN7android8internal7details13ToEmptyStringINSt3__16vectorIhNS3_9allocatorIhEEEEE6$valueE",
   "size" : 4,
   "source_file" : "frameworks/native/libs/binder/ndk/include_cpp/android/binder_to_string.h",
   "underlying_type" : "_ZTIj"
  },
  {
   "alignment" : 4,
   "enum_fields" :
   [
    {
     "enum_field_value" : 0,
     "name" : "android::internal::details::ToEmptyString<std::__1::vector<int, std::__1::allocator<int>>>::value"
    }
   ],
   "linker_set_key" : "_ZTIN7android8internal7details13ToEmptyStringINSt3__16vectorIiNS3_9allocatorIiEEEEE6$valueE",
   "name" : "android::internal::details::ToEmptyString<vector<int, allocator<int>>>::(anonymous enum at frameworks/native/libs/binder/ndk/include_cpp/android/binder_to_string.h:153:5)",
   "referenced_type" : "_ZTIN7android8internal7details13ToEmptyStringINSt3__16vectorIiNS3_9allocatorIiEEEEE6$valueE",
   "self_type" : "_ZTIN7android8internal7details13ToEmptyStringINSt3__16vectorIiNS3_9allocatorIiEEEEE6$valueE",
   "size" : 4,
   "source_file" : "frameworks/native/libs/binder/ndk/include_cpp/android/binder_to_string.h",
   "underlying_type" : "_ZTIj"
  },
  {
   "alignment" : 4,
   "enum_fields" :
   [
    {
     "enum_field_value" : 0,
     "name" : "android::internal::details::ToEmptyString<std::__1::optional<std::__1::basic_string<char>>>::value"
    }
   ],
   "linker_set_key" : "_ZTIN7android8internal7details13ToEmptyStringINSt3__18optionalINS3_12basic_stringIcNS3_11char_traitsIcEENS3_9allocatorIcEEEEEEE6$valueE",
   "name" : "android::internal::details::ToEmptyString<optional<basic_string<char>>>::(anonymous enum at frameworks/native/libs/binder/ndk/include_cpp/android/binder_to_string.h:153:5)",
   "referenced_type" : "_ZTIN7android8internal7details13ToEmptyStringINSt3__18optionalINS3_12basic_stringIcNS3_11char_traitsIcEENS3_9allocatorIcEEEEEEE6$valueE",
   "self_type" : "_ZTIN7android8internal7details13ToEmptyStringINSt3__18optionalINS3_12basic_stringIcNS3_11char_traitsIcEENS3_9allocatorIcEEEEEEE6$valueE",
   "size" : 4,
   "source_file" : "frameworks/native/libs/binder/ndk/include_cpp/android/binder_to_string.h",
   "underlying_type" : "_ZTIj"
  },
  {
   "alignment" : 4,
   "enum_fields" :
   [
    {
     "enum_field_value" : 0,
     "name" : "android::internal::details::ToEmptyString<std::__1::optional<std::__1::vector<std::__1::optional<std::__1::basic_string<char>>, std::__1::allocator<std::__1::optional<std::__1::basic_string<char>>>>>>::value"
    }
   ],
   "linker_set_key" : "_ZTIN7android8internal7details13ToEmptyStringINSt3__18optionalINS3_6vectorINS4_INS3_12basic_stringIcNS3_11char_traitsIcEENS3_9allocatorIcEEEEEENS9_ISC_EEEEEEE6$valueE",
   "name" : "android::internal::details::ToEmptyString<optional<vector<optional<basic_string<char>>, allocator<optional<basic_string<char>>>>>>::(anonymous enum at frameworks/native/libs/binder/ndk/include_cpp/android/binder_to_string.h:153:5)",
   "referenced_type" : "_ZTIN7android8internal7details13ToEmptyStringINSt3__18optionalINS3_6vectorINS4_INS3_12basic_stringIcNS3_11char_traitsIcEENS3_9allocatorIcEEEEEENS9_ISC_EEEEEEE6$valueE",
   "self_type" : "_ZTIN7android8internal7details13ToEmptyStringINSt3__18optionalINS3_6vectorINS4_INS3_12basic_stringIcNS3_11char_traitsIcEENS3_9allocatorIcEEEEEENS9_ISC_EEEEEEE6$valueE",
   "size" : 4,
   "source_file" : "frameworks/native/libs/binder/ndk/include_cpp/android/binder_to_string.h",
   "underlying_type" : "_ZTIj"
  },
  {
   "alignment" : 4,
   "enum_fields" :
   [
    {
     "enum_field_value" : 0,
     "name" : "android::internal::details::ToEmptyString<std::__1::optional<android::media::InterpolatorConfig>>::value"
    }
   ],
   "linker_set_key" : "_ZTIN7android8internal7details13ToEmptyStringINSt3__18optionalINS_5media18InterpolatorConfigEEEE6$valueE",
   "name" : "android::internal::details::ToEmptyString<optional<InterpolatorConfig>>::(anonymous enum at frameworks/native/libs/binder/ndk/include_cpp/android/binder_to_string.h:153:5)",
   "referenced_type" : "_ZTIN7android8internal7details13ToEmptyStringINSt3__18optionalINS_5media18InterpolatorConfigEEEE6$valueE",
   "self_type" : "_ZTIN7android8internal7details13ToEmptyStringINSt3__18optionalINS_5media18InterpolatorConfigEEEE6$valueE",
   "size" : 4,
   "source_file" : "frameworks/native/libs/binder/ndk/include_cpp/android/binder_to_string.h",
   "underlying_type" : "_ZTIj"
  },
  {
   "alignment" : 4,
   "enum_fields" :
   [
    {
     "enum_field_value" : 0,
     "name" : "android::internal::details::ToEmptyString<bool>::value"
    }
   ],
   "linker_set_key" : "_ZTIN7android8internal7details13ToEmptyStringIbE6$valueE",
   "name" : "android::internal::details::ToEmptyString<bool>::(anonymous enum at frameworks/native/libs/binder/ndk/include_cpp/android/binder_to_string.h:153:5)",
   "referenced_type" : "_ZTIN7android8internal7details13ToEmptyStringIbE6$valueE",
   "self_type" : "_ZTIN7android8internal7details13ToEmptyStringIbE6$valueE",
   "size" : 4,
   "source_file" : "frameworks/native/libs/binder/ndk/include_cpp/android/binder_to_string.h",
   "underlying_type" : "_ZTIj"
  },
  {
   "alignment" : 4,
   "enum_fields" :
   [
    {
     "enum_field_value" : 0,
     "name" : "android::internal::details::ToEmptyString<double>::value"
    }
   ],
   "linker_set_key" : "_ZTIN7android8internal7details13ToEmptyStringIdE6$valueE",
   "name" : "android::internal::details::ToEmptyString<double>::(anonymous enum at frameworks/native/libs/binder/ndk/include_cpp/android/binder_to_string.h:153:5)",
   "referenced_type" : "_ZTIN7android8internal7details13ToEmptyStringIdE6$valueE",
   "self_type" : "_ZTIN7android8internal7details13ToEmptyStringIdE6$valueE",
   "size" : 4,
   "source_file" : "frameworks/native/libs/binder/ndk/include_cpp/android/binder_to_string.h",
   "underlying_type" : "_ZTIj"
  },
  {
   "alignment" : 4,
   "enum_fields" :
   [
    {
     "enum_field_value" : 0,
     "name" : "android::internal::details::ToEmptyString<float>::value"
    }
   ],
   "linker_set_key" : "_ZTIN7android8internal7details13ToEmptyStringIfE6$valueE",
   "name" : "android::internal::details::ToEmptyString<float>::(anonymous enum at frameworks/native/libs/binder/ndk/include_cpp/android/binder_to_string.h:153:5)",
   "referenced_type" : "_ZTIN7android8internal7details13ToEmptyStringIfE6$valueE",
   "self_type" : "_ZTIN7android8internal7details13ToEmptyStringIfE6$valueE",
   "size" : 4,
   "source_file" : "frameworks/native/libs/binder/ndk/include_cpp/android/binder_to_string.h",
   "underlying_type" : "_ZTIj"
  },
  {
   "alignment" : 4,
   "enum_fields" :
   [
    {
     "enum_field_value" : 0,
     "name" : "android::internal::details::ToEmptyString<unsigned char>::value"
    }
   ],
   "linker_set_key" : "_ZTIN7android8internal7details13ToEmptyStringIhE6$valueE",
   "name" : "android::internal::details::ToEmptyString<unsigned char>::(anonymous enum at frameworks/native/libs/binder/ndk/include_cpp/android/binder_to_string.h:153:5)",
   "referenced_type" : "_ZTIN7android8internal7details13ToEmptyStringIhE6$valueE",
   "self_type" : "_ZTIN7android8internal7details13ToEmptyStringIhE6$valueE",
   "size" : 4,
   "source_file" : "frameworks/native/libs/binder/ndk/include_cpp/android/binder_to_string.h",
   "underlying_type" : "_ZTIj"
  },
  {
   "alignment" : 4,
   "enum_fields" :
   [
    {
     "enum_field_value" : 0,
     "name" : "android::internal::details::ToEmptyString<int>::value"
    }
   ],
   "linker_set_key" : "_ZTIN7android8internal7details13ToEmptyStringIiE6$valueE",
   "name" : "android::internal::details::ToEmptyString<int>::(anonymous enum at frameworks/native/libs/binder/ndk/include_cpp/android/binder_to_string.h:153:5)",
   "referenced_type" : "_ZTIN7android8internal7details13ToEmptyStringIiE6$valueE",
   "self_type" : "_ZTIN7android8internal7details13ToEmptyStringIiE6$valueE",
   "size" : 4,
   "source_file" : "frameworks/native/libs/binder/ndk/include_cpp/android/binder_to_string.h",
   "underlying_type" : "_ZTIj"
  },
  {
   "alignment" : 4,
   "enum_fields" :
   [
    {
     "enum_field_value" : 0,
     "name" : "android::internal::details::ToEmptyString<long>::value"
    }
   ],
   "linker_set_key" : "_ZTIN7android8internal7details13ToEmptyStringIlE6$valueE",
   "name" : "android::internal::details::ToEmptyString<long>::(anonymous enum at frameworks/native/libs/binder/ndk/include_cpp/android/binder_to_string.h:153:5)",
   "referenced_type" : "_ZTIN7android8internal7details13ToEmptyStringIlE6$valueE",
   "self_type" : "_ZTIN7android8internal7details13ToEmptyStringIlE6$valueE",
   "size" : 4,
   "source_file" : "frameworks/native/libs/binder/ndk/include_cpp/android/binder_to_string.h",
   "underlying_type" : "_ZTIj"
  },
  {
   "alignment" : 4,
   "enum_fields" :
   [
    {
     "enum_field_value" : 1,
     "name" : "android::internal::details::HasToStringMethod<aaudio::RingBuffer>::value"
    }
   ],
   "linker_set_key" : "_ZTIN7android8internal7details17HasToStringMethodIN6aaudio10RingBufferEE6$valueE",
   "name" : "android::internal::details::HasToStringMethod<RingBuffer>::(anonymous enum at frameworks/native/libs/binder/ndk/include_cpp/android/binder_to_string.h:77:5)",
   "referenced_type" : "_ZTIN7android8internal7details17HasToStringMethodIN6aaudio10RingBufferEE6$valueE",
   "self_type" : "_ZTIN7android8internal7details17HasToStringMethodIN6aaudio10RingBufferEE6$valueE",
   "size" : 4,
   "source_file" : "frameworks/native/libs/binder/ndk/include_cpp/android/binder_to_string.h",
   "underlying_type" : "_ZTIj"
  },
  {
   "alignment" : 4,
   "enum_fields" :
   [
    {
     "enum_field_value" : 1,
     "name" : "android::internal::details::HasToStringMethod<aaudio::SharedRegion>::value"
    }
   ],
   "linker_set_key" : "_ZTIN7android8internal7details17HasToStringMethodIN6aaudio12SharedRegionEE6$valueE",
   "name" : "android::internal::details::HasToStringMethod<SharedRegion>::(anonymous enum at frameworks/native/libs/binder/ndk/include_cpp/android/binder_to_string.h:77:5)",
   "referenced_type" : "_ZTIN7android8internal7details17HasToStringMethodIN6aaudio12SharedRegionEE6$valueE",
   "self_type" : "_ZTIN7android8internal7details17HasToStringMethodIN6aaudio12SharedRegionEE6$valueE",
   "size" : 4,
   "source_file" : "frameworks/native/libs/binder/ndk/include_cpp/android/binder_to_string.h",
   "underlying_type" : "_ZTIj"
  },
  {
   "alignment" : 4,
   "enum_fields" :
   [
    {
     "enum_field_value" : 1,
     "name" : "android::internal::details::HasToStringMethod<aaudio::StreamParameters>::value"
    }
   ],
   "linker_set_key" : "_ZTIN7android8internal7details17HasToStringMethodIN6aaudio16StreamParametersEE6$valueE",
   "name" : "android::internal::details::HasToStringMethod<StreamParameters>::(anonymous enum at frameworks/native/libs/binder/ndk/include_cpp/android/binder_to_string.h:77:5)",
   "referenced_type" : "_ZTIN7android8internal7details17HasToStringMethodIN6aaudio16StreamParametersEE6$valueE",
   "self_type" : "_ZTIN7android8internal7details17HasToStringMethodIN6aaudio16StreamParametersEE6$valueE",
   "size" : 4,
   "source_file" : "frameworks/native/libs/binder/ndk/include_cpp/android/binder_to_string.h",
   "underlying_type" : "_ZTIj"
  },
  {
   "alignment" : 4,
   "enum_fields" :
   [
    {
     "enum_field_value" : 1,
     "name" : "android::internal::details::HasToStringMethod<android::media::AudioPatch>::value"
    }
   ],
   "linker_set_key" : "_ZTIN7android8internal7details17HasToStringMethodINS_5media10AudioPatchEE6$valueE",
   "name" : "android::internal::details::HasToStringMethod<AudioPatch>::(anonymous enum at frameworks/native/libs/binder/ndk/include_cpp/android/binder_to_string.h:77:5)",
   "referenced_type" : "_ZTIN7android8internal7details17HasToStringMethodINS_5media10AudioPatchEE6$valueE",
   "self_type" : "_ZTIN7android8internal7details17HasToStringMethodINS_5media10AudioPatchEE6$valueE",
   "size" : 4,
   "source_file" : "frameworks/native/libs/binder/ndk/include_cpp/android/binder_to_string.h",
   "underlying_type" : "_ZTIj"
  },
  {
   "alignment" : 4,
   "enum_fields" :
   [
    {
     "enum_field_value" : 0,
     "name" : "android::internal::details::HasToStringMethod<android::media::AudioUsage>::value"
    }
   ],
   "linker_set_key" : "_ZTIN7android8internal7details17HasToStringMethodINS_5media10AudioUsageEE6$valueE",
   "name" : "android::internal::details::HasToStringMethod<AudioUsage>::(anonymous enum at frameworks/native/libs/binder/ndk/include_cpp/android/binder_to_string.h:77:5)",
   "referenced_type" : "_ZTIN7android8internal7details17HasToStringMethodINS_5media10AudioUsageEE6$valueE",
   "self_type" : "_ZTIN7android8internal7details17HasToStringMethodINS_5media10AudioUsageEE6$valueE",
   "size" : 4,
   "source_file" : "frameworks/native/libs/binder/ndk/include_cpp/android/binder_to_string.h",
   "underlying_type" : "_ZTIj"
  },
  {
   "alignment" : 4,
   "enum_fields" :
   [
    {
     "enum_field_value" : 1,
     "name" : "android::internal::details::HasToStringMethod<android::media::AudioIoFlags>::value"
    }
   ],
   "linker_set_key" : "_ZTIN7android8internal7details17HasToStringMethodINS_5media12AudioIoFlagsEE6$valueE",
   "name" : "android::internal::details::HasToStringMethod<AudioIoFlags>::(anonymous enum at frameworks/native/libs/binder/ndk/include_cpp/android/binder_to_string.h:77:5)",
   "referenced_type" : "_ZTIN7android8internal7details17HasToStringMethodINS_5media12AudioIoFlagsEE6$valueE",
   "self_type" : "_ZTIN7android8internal7details17HasToStringMethodINS_5media12AudioIoFlagsEE6$valueE",
   "size" : 4,
   "source_file" : "frameworks/native/libs/binder/ndk/include_cpp/android/binder_to_string.h",
   "underlying_type" : "_ZTIj"
  },
  {
   "alignment" : 4,
   "enum_fields" :
   [
    {
     "enum_field_value" : 0,
     "name" : "android::internal::details::HasToStringMethod<android::media::AudioPortRole>::value"
    }
   ],
   "linker_set_key" : "_ZTIN7android8internal7details17HasToStringMethodINS_5media13AudioPortRoleEE6$valueE",
   "name" : "android::internal::details::HasToStringMethod<AudioPortRole>::(anonymous enum at frameworks/native/libs/binder/ndk/include_cpp/android/binder_to_string.h:77:5)",
   "referenced_type" : "_ZTIN7android8internal7details17HasToStringMethodINS_5media13AudioPortRoleEE6$valueE",
   "self_type" : "_ZTIN7android8internal7details17HasToStringMethodINS_5media13AudioPortRoleEE6$valueE",
   "size" : 4,
   "source_file" : "frameworks/native/libs/binder/ndk/include_cpp/android/binder_to_string.h",
   "underlying_type" : "_ZTIj"
  },
  {
   "alignment" : 4,
   "enum_fields" :
   [
    {
     "enum_field_value" : 0,
     "name" : "android::internal::details::HasToStringMethod<android::media::AudioPortType>::value"
    }
   ],
   "linker_set_key" : "_ZTIN7android8internal7details17HasToStringMethodINS_5media13AudioPortTypeEE6$valueE",
   "name" : "android::internal::details::HasToStringMethod<AudioPortType>::(anonymous enum at frameworks/native/libs/binder/ndk/include_cpp/android/binder_to_string.h:77:5)",
   "referenced_type" : "_ZTIN7android8internal7details17HasToStringMethodINS_5media13AudioPortTypeEE6$valueE",
   "self_type" : "_ZTIN7android8internal7details17HasToStringMethodINS_5media13AudioPortTypeEE6$valueE",
   "size" : 4,
   "source_file" : "frameworks/native/libs/binder/ndk/include_cpp/android/binder_to_string.h",
   "underlying_type" : "_ZTIj"
  },
  {
   "alignment" : 4,
   "enum_fields" :
   [
    {
     "enum_field_value" : 1,
     "name" : "android::internal::details::HasToStringMethod<android::media::AudioGainConfig>::value"
    }
   ],
   "linker_set_key" : "_ZTIN7android8internal7details17HasToStringMethodINS_5media15AudioGainConfigEE6$valueE",
   "name" : "android::internal::details::HasToStringMethod<AudioGainConfig>::(anonymous enum at frameworks/native/libs/binder/ndk/include_cpp/android/binder_to_string.h:77:5)",
   "referenced_type" : "_ZTIN7android8internal7details17HasToStringMethodINS_5media15AudioGainConfigEE6$valueE",
   "self_type" : "_ZTIN7android8internal7details17HasToStringMethodINS_5media15AudioGainConfigEE6$valueE",
   "size" : 4,
   "source_file" : "frameworks/native/libs/binder/ndk/include_cpp/android/binder_to_string.h",
   "underlying_type" : "_ZTIj"
  },
  {
   "alignment" : 4,
   "enum_fields" :
   [
    {
     "enum_field_value" : 1,
     "name" : "android::internal::details::HasToStringMethod<android::media::AudioPortConfig>::value"
    }
   ],
   "linker_set_key" : "_ZTIN7android8internal7details17HasToStringMethodINS_5media15AudioPortConfigEE6$valueE",
   "name" : "android::internal::details::HasToStringMethod<AudioPortConfig>::(anonymous enum at frameworks/native/libs/binder/ndk/include_cpp/android/binder_to_string.h:77:5)",
   "referenced_type" : "_ZTIN7android8internal7details17HasToStringMethodINS_5media15AudioPortConfigEE6$valueE",
   "self_type" : "_ZTIN7android8internal7details17HasToStringMethodINS_5media15AudioPortConfigEE6$valueE",
   "size" : 4,
   "source_file" : "frameworks/native/libs/binder/ndk/include_cpp/android/binder_to_string.h",
   "underlying_type" : "_ZTIj"
  },
  {
   "alignment" : 4,
   "enum_fields" :
   [
    {
     "enum_field_value" : 0,
     "name" : "android::internal::details::HasToStringMethod<android::media::AudioSourceType>::value"
    }
   ],
   "linker_set_key" : "_ZTIN7android8internal7details17HasToStringMethodINS_5media15AudioSourceTypeEE6$valueE",
   "name" : "android::internal::details::HasToStringMethod<AudioSourceType>::(anonymous enum at frameworks/native/libs/binder/ndk/include_cpp/android/binder_to_string.h:77:5)",
   "referenced_type" : "_ZTIN7android8internal7details17HasToStringMethodINS_5media15AudioSourceTypeEE6$valueE",
   "self_type" : "_ZTIN7android8internal7details17HasToStringMethodINS_5media15AudioSourceTypeEE6$valueE",
   "size" : 4,
   "source_file" : "frameworks/native/libs/binder/ndk/include_cpp/android/binder_to_string.h",
   "underlying_type" : "_ZTIj"
  },
  {
   "alignment" : 4,
   "enum_fields" :
   [
    {
     "enum_field_value" : 0,
     "name" : "android::internal::details::HasToStringMethod<android::media::AudioStreamType>::value"
    }
   ],
   "linker_set_key" : "_ZTIN7android8internal7details17HasToStringMethodINS_5media15AudioStreamTypeEE6$valueE",
   "name" : "android::internal::details::HasToStringMethod<AudioStreamType>::(anonymous enum at frameworks/native/libs/binder/ndk/include_cpp/android/binder_to_string.h:77:5)",
   "referenced_type" : "_ZTIN7android8internal7details17HasToStringMethodINS_5media15AudioStreamTypeEE6$valueE",
   "self_type" : "_ZTIN7android8internal7details17HasToStringMethodINS_5media15AudioStreamTypeEE6$valueE",
   "size" : 4,
   "source_file" : "frameworks/native/libs/binder/ndk/include_cpp/android/binder_to_string.h",
   "underlying_type" : "_ZTIj"
  },
  {
   "alignment" : 4,
   "enum_fields" :
   [
    {
     "enum_field_value" : 0,
     "name" : "android::internal::details::HasToStringMethod<android::media::AudioContentType>::value"
    }
   ],
   "linker_set_key" : "_ZTIN7android8internal7details17HasToStringMethodINS_5media16AudioContentTypeEE6$valueE",
   "name" : "android::internal::details::HasToStringMethod<AudioContentType>::(anonymous enum at frameworks/native/libs/binder/ndk/include_cpp/android/binder_to_string.h:77:5)",
   "referenced_type" : "_ZTIN7android8internal7details17HasToStringMethodINS_5media16AudioContentTypeEE6$valueE",
   "self_type" : "_ZTIN7android8internal7details17HasToStringMethodINS_5media16AudioContentTypeEE6$valueE",
   "size" : 4,
   "source_file" : "frameworks/native/libs/binder/ndk/include_cpp/android/binder_to_string.h",
   "underlying_type" : "_ZTIj"
  },
  {
   "alignment" : 4,
   "enum_fields" :
   [
    {
     "enum_field_value" : 0,
     "name" : "android::internal::details::HasToStringMethod<android::media::InterpolatorType>::value"
    }
   ],
   "linker_set_key" : "_ZTIN7android8internal7details17HasToStringMethodINS_5media16InterpolatorTypeEE6$valueE",
   "name" : "android::internal::details::HasToStringMethod<InterpolatorType>::(anonymous enum at frameworks/native/libs/binder/ndk/include_cpp/android/binder_to_string.h:77:5)",
   "referenced_type" : "_ZTIN7android8internal7details17HasToStringMethodINS_5media16InterpolatorTypeEE6$valueE",
   "self_type" : "_ZTIN7android8internal7details17HasToStringMethodINS_5media16InterpolatorTypeEE6$valueE",
   "size" : 4,
   "source_file" : "frameworks/native/libs/binder/ndk/include_cpp/android/binder_to_string.h",
   "underlying_type" : "_ZTIj"
  },
  {
   "alignment" : 4,
   "enum_fields" :
   [
    {
     "enum_field_value" : 1,
     "name" : "android::internal::details::HasToStringMethod<android::media::SharedFileRegion>::value"
    }
   ],
   "linker_set_key" : "_ZTIN7android8internal7details17HasToStringMethodINS_5media16SharedFileRegionEE6$valueE",
   "name" : "android::internal::details::HasToStringMethod<SharedFileRegion>::(anonymous enum at frameworks/native/libs/binder/ndk/include_cpp/android/binder_to_string.h:77:5)",
   "referenced_type" : "_ZTIN7android8internal7details17HasToStringMethodINS_5media16SharedFileRegionEE6$valueE",
   "self_type" : "_ZTIN7android8internal7details17HasToStringMethodINS_5media16SharedFileRegionEE6$valueE",
   "size" : 4,
   "source_file" : "frameworks/native/libs/binder/ndk/include_cpp/android/binder_to_string.h",
   "underlying_type" : "_ZTIj"
  },
  {
   "alignment" : 4,
   "enum_fields" :
   [
    {
     "enum_field_value" : 1,
     "name" : "android::internal::details::HasToStringMethod<android::media::AudioAttributesEx>::value"
    }
   ],
   "linker_set_key" : "_ZTIN7android8internal7details17HasToStringMethodINS_5media17AudioAttributesExEE6$valueE",
   "name" : "android::internal::details::HasToStringMethod<AudioAttributesEx>::(anonymous enum at frameworks/native/libs/binder/ndk/include_cpp/android/binder_to_string.h:77:5)",
   "referenced_type" : "_ZTIN7android8internal7details17HasToStringMethodINS_5media17AudioAttributesExEE6$valueE",
   "self_type" : "_ZTIN7android8internal7details17HasToStringMethodINS_5media17AudioAttributesExEE6$valueE",
   "size" : 4,
   "source_file" : "frameworks/native/libs/binder/ndk/include_cpp/android/binder_to_string.h",
   "underlying_type" : "_ZTIj"
  },
  {
   "alignment" : 4,
   "enum_fields" :
   [
    {
     "enum_field_value" : 1,
     "name" : "android::internal::details::HasToStringMethod<android::media::AudioPortConfigExt>::value"
    }
   ],
   "linker_set_key" : "_ZTIN7android8internal7details17HasToStringMethodINS_5media18AudioPortConfigExtEE6$valueE",
   "name" : "android::internal::details::HasToStringMethod<AudioPortConfigExt>::(anonymous enum at frameworks/native/libs/binder/ndk/include_cpp/android/binder_to_string.h:77:5)",
   "referenced_type" : "_ZTIN7android8internal7details17HasToStringMethodINS_5media18AudioPortConfigExtEE6$valueE",
   "self_type" : "_ZTIN7android8internal7details17HasToStringMethodINS_5media18AudioPortConfigExtEE6$valueE",
   "size" : 4,
   "source_file" : "frameworks/native/libs/binder/ndk/include_cpp/android/binder_to_string.h",
   "underlying_type" : "_ZTIj"
  },
  {
   "alignment" : 4,
   "enum_fields" :
   [
    {
     "enum_field_value" : 1,
     "name" : "android::internal::details::HasToStringMethod<android::media::InterpolatorConfig>::value"
    }
   ],
   "linker_set_key" : "_ZTIN7android8internal7details17HasToStringMethodINS_5media18InterpolatorConfigEE6$valueE",
   "name" : "android::internal::details::HasToStringMethod<InterpolatorConfig>::(anonymous enum at frameworks/native/libs/binder/ndk/include_cpp/android/binder_to_string.h:77:5)",
   "referenced_type" : "_ZTIN7android8internal7details17HasToStringMethodINS_5media18InterpolatorConfigEE6$valueE",
   "self_type" : "_ZTIN7android8internal7details17HasToStringMethodINS_5media18InterpolatorConfigEE6$valueE",
   "size" : 4,
   "source_file" : "frameworks/native/libs/binder/ndk/include_cpp/android/binder_to_string.h",
   "underlying_type" : "_ZTIj"
  },
  {
   "alignment" : 4,
   "enum_fields" :
   [
    {
     "enum_field_value" : 1,
     "name" : "android::internal::details::HasToStringMethod<android::media::AudioPortConfigMixExt>::value"
    }
   ],
   "linker_set_key" : "_ZTIN7android8internal7details17HasToStringMethodINS_5media21AudioPortConfigMixExtEE6$valueE",
   "name" : "android::internal::details::HasToStringMethod<AudioPortConfigMixExt>::(anonymous enum at frameworks/native/libs/binder/ndk/include_cpp/android/binder_to_string.h:77:5)",
   "referenced_type" : "_ZTIN7android8internal7details17HasToStringMethodINS_5media21AudioPortConfigMixExtEE6$valueE",
   "self_type" : "_ZTIN7android8internal7details17HasToStringMethodINS_5media21AudioPortConfigMixExtEE6$valueE",
   "size" : 4,
   "source_file" : "frameworks/native/libs/binder/ndk/include_cpp/android/binder_to_string.h",
   "underlying_type" : "_ZTIj"
  },
  {
   "alignment" : 4,
   "enum_fields" :
   [
    {
     "enum_field_value" : 1,
     "name" : "android::internal::details::HasToStringMethod<android::media::AudioAttributesInternal>::value"
    }
   ],
   "linker_set_key" : "_ZTIN7android8internal7details17HasToStringMethodINS_5media23AudioAttributesInternalEE6$valueE",
   "name" : "android::internal::details::HasToStringMethod<AudioAttributesInternal>::(anonymous enum at frameworks/native/libs/binder/ndk/include_cpp/android/binder_to_string.h:77:5)",
   "referenced_type" : "_ZTIN7android8internal7details17HasToStringMethodINS_5media23AudioAttributesInternalEE6$valueE",
   "self_type" : "_ZTIN7android8internal7details17HasToStringMethodINS_5media23AudioAttributesInternalEE6$valueE",
   "size" : 4,
   "source_file" : "frameworks/native/libs/binder/ndk/include_cpp/android/binder_to_string.h",
   "underlying_type" : "_ZTIj"
  },
  {
   "alignment" : 4,
   "enum_fields" :
   [
    {
     "enum_field_value" : 1,
     "name" : "android::internal::details::HasToStringMethod<android::media::AudioPortConfigDeviceExt>::value"
    }
   ],
   "linker_set_key" : "_ZTIN7android8internal7details17HasToStringMethodINS_5media24AudioPortConfigDeviceExtEE6$valueE",
   "name" : "android::internal::details::HasToStringMethod<AudioPortConfigDeviceExt>::(anonymous enum at frameworks/native/libs/binder/ndk/include_cpp/android/binder_to_string.h:77:5)",
   "referenced_type" : "_ZTIN7android8internal7details17HasToStringMethodINS_5media24AudioPortConfigDeviceExtEE6$valueE",
   "self_type" : "_ZTIN7android8internal7details17HasToStringMethodINS_5media24AudioPortConfigDeviceExtEE6$valueE",
   "size" : 4,
   "source_file" : "frameworks/native/libs/binder/ndk/include_cpp/android/binder_to_string.h",
   "underlying_type" : "_ZTIj"
  },
  {
   "alignment" : 4,
   "enum_fields" :
   [
    {
     "enum_field_value" : 1,
     "name" : "android::internal::details::HasToStringMethod<android::media::AudioPortConfigSessionExt>::value"
    }
   ],
   "linker_set_key" : "_ZTIN7android8internal7details17HasToStringMethodINS_5media25AudioPortConfigSessionExtEE6$valueE",
   "name" : "android::internal::details::HasToStringMethod<AudioPortConfigSessionExt>::(anonymous enum at frameworks/native/libs/binder/ndk/include_cpp/android/binder_to_string.h:77:5)",
   "referenced_type" : "_ZTIN7android8internal7details17HasToStringMethodINS_5media25AudioPortConfigSessionExtEE6$valueE",
   "self_type" : "_ZTIN7android8internal7details17HasToStringMethodINS_5media25AudioPortConfigSessionExtEE6$valueE",
   "size" : 4,
   "source_file" : "frameworks/native/libs/binder/ndk/include_cpp/android/binder_to_string.h",
   "underlying_type" : "_ZTIj"
  },
  {
   "alignment" : 4,
   "enum_fields" :
   [
    {
     "enum_field_value" : 1,
     "name" : "android::internal::details::HasToStringMethod<android::media::AudioPortConfigMixExtUseCase>::value"
    }
   ],
   "linker_set_key" : "_ZTIN7android8internal7details17HasToStringMethodINS_5media28AudioPortConfigMixExtUseCaseEE6$valueE",
   "name" : "android::internal::details::HasToStringMethod<AudioPortConfigMixExtUseCase>::(anonymous enum at frameworks/native/libs/binder/ndk/include_cpp/android/binder_to_string.h:77:5)",
   "referenced_type" : "_ZTIN7android8internal7details17HasToStringMethodINS_5media28AudioPortConfigMixExtUseCaseEE6$valueE",
   "self_type" : "_ZTIN7android8internal7details17HasToStringMethodINS_5media28AudioPortConfigMixExtUseCaseEE6$valueE",
   "size" : 4,
   "source_file" : "frameworks/native/libs/binder/ndk/include_cpp/android/binder_to_string.h",
   "underlying_type" : "_ZTIj"
  },
  {
   "alignment" : 4,
   "enum_fields" :
   [
    {
     "enum_field_value" : 0,
     "name" : "android::internal::details::HasToStringMethod<android::media::VolumeShaperConfigurationType>::value"
    }
   ],
   "linker_set_key" : "_ZTIN7android8internal7details17HasToStringMethodINS_5media29VolumeShaperConfigurationTypeEE6$valueE",
   "name" : "android::internal::details::HasToStringMethod<VolumeShaperConfigurationType>::(anonymous enum at frameworks/native/libs/binder/ndk/include_cpp/android/binder_to_string.h:77:5)",
   "referenced_type" : "_ZTIN7android8internal7details17HasToStringMethodINS_5media29VolumeShaperConfigurationTypeEE6$valueE",
   "self_type" : "_ZTIN7android8internal7details17HasToStringMethodINS_5media29VolumeShaperConfigurationTypeEE6$valueE",
   "size" : 4,
   "source_file" : "frameworks/native/libs/binder/ndk/include_cpp/android/binder_to_string.h",
   "underlying_type" : "_ZTIj"
  },
  {
   "alignment" : 4,
   "enum_fields" :
   [
    {
     "enum_field_value" : 0,
     "name" : "android::internal::details::HasToStringMethod<android::media::audio::common::AudioFormat>::value"
    }
   ],
   "linker_set_key" : "_ZTIN7android8internal7details17HasToStringMethodINS_5media5audio6common11AudioFormatEE6$valueE",
   "name" : "android::internal::details::HasToStringMethod<AudioFormat>::(anonymous enum at frameworks/native/libs/binder/ndk/include_cpp/android/binder_to_string.h:77:5)",
   "referenced_type" : "_ZTIN7android8internal7details17HasToStringMethodINS_5media5audio6common11AudioFormatEE6$valueE",
   "self_type" : "_ZTIN7android8internal7details17HasToStringMethodINS_5media5audio6common11AudioFormatEE6$valueE",
   "size" : 4,
   "source_file" : "frameworks/native/libs/binder/ndk/include_cpp/android/binder_to_string.h",
   "underlying_type" : "_ZTIj"
  },
  {
   "alignment" : 4,
   "enum_fields" :
   [
    {
     "enum_field_value" : 1,
     "name" : "android::internal::details::HasToStringMethod<android::media::AudioUuid>::value"
    }
   ],
   "linker_set_key" : "_ZTIN7android8internal7details17HasToStringMethodINS_5media9AudioUuidEE6$valueE",
   "name" : "android::internal::details::HasToStringMethod<AudioUuid>::(anonymous enum at frameworks/native/libs/binder/ndk/include_cpp/android/binder_to_string.h:77:5)",
   "referenced_type" : "_ZTIN7android8internal7details17HasToStringMethodINS_5media9AudioUuidEE6$valueE",
   "self_type" : "_ZTIN7android8internal7details17HasToStringMethodINS_5media9AudioUuidEE6$valueE",
   "size" : 4,
   "source_file" : "frameworks/native/libs/binder/ndk/include_cpp/android/binder_to_string.h",
   "underlying_type" : "_ZTIj"
  },
  {
   "alignment" : 4,
   "enum_fields" :
   [
    {
     "enum_field_value" : 1,
     "name" : "android::internal::details::HasToStringMethod<android::content::AttributionSourceState>::value"
    }
   ],
   "linker_set_key" : "_ZTIN7android8internal7details17HasToStringMethodINS_7content22AttributionSourceStateEE6$valueE",
   "name" : "android::internal::details::HasToStringMethod<AttributionSourceState>::(anonymous enum at frameworks/native/libs/binder/ndk/include_cpp/android/binder_to_string.h:77:5)",
   "referenced_type" : "_ZTIN7android8internal7details17HasToStringMethodINS_7content22AttributionSourceStateEE6$valueE",
   "self_type" : "_ZTIN7android8internal7details17HasToStringMethodINS_7content22AttributionSourceStateEE6$valueE",
   "size" : 4,
   "source_file" : "frameworks/native/libs/binder/ndk/include_cpp/android/binder_to_string.h",
   "underlying_type" : "_ZTIj"
  },
  {
   "alignment" : 4,
   "enum_fields" :
   [
    {
     "enum_field_value" : 0,
     "name" : "android::internal::details::HasToStringMethod<std::__1::vector<std::__1::optional<std::__1::basic_string<char>>, std::__1::allocator<std::__1::optional<std::__1::basic_string<char>>>>>::value"
    }
   ],
   "linker_set_key" : "_ZTIN7android8internal7details17HasToStringMethodINSt3__16vectorINS3_8optionalINS3_12basic_stringIcNS3_11char_traitsIcEENS3_9allocatorIcEEEEEENS9_ISC_EEEEE6$valueE",
   "name" : "android::internal::details::HasToStringMethod<vector<optional<basic_string<char>>, allocator<optional<basic_string<char>>>>>::(anonymous enum at frameworks/native/libs/binder/ndk/include_cpp/android/binder_to_string.h:77:5)",
   "referenced_type" : "_ZTIN7android8internal7details17HasToStringMethodINSt3__16vectorINS3_8optionalINS3_12basic_stringIcNS3_11char_traitsIcEENS3_9allocatorIcEEEEEENS9_ISC_EEEEE6$valueE",
   "self_type" : "_ZTIN7android8internal7details17HasToStringMethodINSt3__16vectorINS3_8optionalINS3_12basic_stringIcNS3_11char_traitsIcEENS3_9allocatorIcEEEEEENS9_ISC_EEEEE6$valueE",
   "size" : 4,
   "source_file" : "frameworks/native/libs/binder/ndk/include_cpp/android/binder_to_string.h",
   "underlying_type" : "_ZTIj"
  },
  {
   "alignment" : 4,
   "enum_fields" :
   [
    {
     "enum_field_value" : 0,
     "name" : "android::internal::details::HasToStringMethod<std::__1::vector<android::media::AudioPortConfig, std::__1::allocator<android::media::AudioPortConfig>>>::value"
    }
   ],
   "linker_set_key" : "_ZTIN7android8internal7details17HasToStringMethodINSt3__16vectorINS_5media15AudioPortConfigENS3_9allocatorIS6_EEEEE6$valueE",
   "name" : "android::internal::details::HasToStringMethod<vector<AudioPortConfig, allocator<AudioPortConfig>>>::(anonymous enum at frameworks/native/libs/binder/ndk/include_cpp/android/binder_to_string.h:77:5)",
   "referenced_type" : "_ZTIN7android8internal7details17HasToStringMethodINSt3__16vectorINS_5media15AudioPortConfigENS3_9allocatorIS6_EEEEE6$valueE",
   "self_type" : "_ZTIN7android8internal7details17HasToStringMethodINSt3__16vectorINS_5media15AudioPortConfigENS3_9allocatorIS6_EEEEE6$valueE",
   "size" : 4,
   "source_file" : "frameworks/native/libs/binder/ndk/include_cpp/android/binder_to_string.h",
   "underlying_type" : "_ZTIj"
  },
  {
   "alignment" : 4,
   "enum_fields" :
   [
    {
     "enum_field_value" : 0,
     "name" : "android::internal::details::HasToStringMethod<std::__1::vector<android::media::AudioStreamType, std::__1::allocator<android::media::AudioStreamType>>>::value"
    }
   ],
   "linker_set_key" : "_ZTIN7android8internal7details17HasToStringMethodINSt3__16vectorINS_5media15AudioStreamTypeENS3_9allocatorIS6_EEEEE6$valueE",
   "name" : "android::internal::details::HasToStringMethod<vector<AudioStreamType, allocator<AudioStreamType>>>::(anonymous enum at frameworks/native/libs/binder/ndk/include_cpp/android/binder_to_string.h:77:5)",
   "referenced_type" : "_ZTIN7android8internal7details17HasToStringMethodINSt3__16vectorINS_5media15AudioStreamTypeENS3_9allocatorIS6_EEEEE6$valueE",
   "self_type" : "_ZTIN7android8internal7details17HasToStringMethodINSt3__16vectorINS_5media15AudioStreamTypeENS3_9allocatorIS6_EEEEE6$valueE",
   "size" : 4,
   "source_file" : "frameworks/native/libs/binder/ndk/include_cpp/android/binder_to_string.h",
   "underlying_type" : "_ZTIj"
  },
  {
   "alignment" : 4,
   "enum_fields" :
   [
    {
     "enum_field_value" : 0,
     "name" : "android::internal::details::HasToStringMethod<std::__1::vector<android::media::SharedFileRegion, std::__1::allocator<android::media::SharedFileRegion>>>::value"
    }
   ],
   "linker_set_key" : "_ZTIN7android8internal7details17HasToStringMethodINSt3__16vectorINS_5media16SharedFileRegionENS3_9allocatorIS6_EEEEE6$valueE",
   "name" : "android::internal::details::HasToStringMethod<vector<SharedFileRegion, allocator<SharedFileRegion>>>::(anonymous enum at frameworks/native/libs/binder/ndk/include_cpp/android/binder_to_string.h:77:5)",
   "referenced_type" : "_ZTIN7android8internal7details17HasToStringMethodINSt3__16vectorINS_5media16SharedFileRegionENS3_9allocatorIS6_EEEEE6$valueE",
   "self_type" : "_ZTIN7android8internal7details17HasToStringMethodINSt3__16vectorINS_5media16SharedFileRegionENS3_9allocatorIS6_EEEEE6$valueE",
   "size" : 4,
   "source_file" : "frameworks/native/libs/binder/ndk/include_cpp/android/binder_to_string.h",
   "underlying_type" : "_ZTIj"
  },
  {
   "alignment" : 4,
   "enum_fields" :
   [
    {
     "enum_field_value" : 0,
     "name" : "android::internal::details::HasToStringMethod<std::__1::vector<android::media::AudioAttributesEx, std::__1::allocator<android::media::AudioAttributesEx>>>::value"
    }
   ],
   "linker_set_key" : "_ZTIN7android8internal7details17HasToStringMethodINSt3__16vectorINS_5media17AudioAttributesExENS3_9allocatorIS6_EEEEE6$valueE",
   "name" : "android::internal::details::HasToStringMethod<vector<AudioAttributesEx, allocator<AudioAttributesEx>>>::(anonymous enum at frameworks/native/libs/binder/ndk/include_cpp/android/binder_to_string.h:77:5)",
   "referenced_type" : "_ZTIN7android8internal7details17HasToStringMethodINSt3__16vectorINS_5media17AudioAttributesExENS3_9allocatorIS6_EEEEE6$valueE",
   "self_type" : "_ZTIN7android8internal7details17HasToStringMethodINSt3__16vectorINS_5media17AudioAttributesExENS3_9allocatorIS6_EEEEE6$valueE",
   "size" : 4,
   "source_file" : "frameworks/native/libs/binder/ndk/include_cpp/android/binder_to_string.h",
   "underlying_type" : "_ZTIj"
  },
  {
   "alignment" : 4,
   "enum_fields" :
   [
    {
     "enum_field_value" : 0,
     "name" : "android::internal::details::HasToStringMethod<std::__1::vector<android::media::AudioAttributesInternal, std::__1::allocator<android::media::AudioAttributesInternal>>>::value"
    }
   ],
   "linker_set_key" : "_ZTIN7android8internal7details17HasToStringMethodINSt3__16vectorINS_5media23AudioAttributesInternalENS3_9allocatorIS6_EEEEE6$valueE",
   "name" : "android::internal::details::HasToStringMethod<vector<AudioAttributesInternal, allocator<AudioAttributesInternal>>>::(anonymous enum at frameworks/native/libs/binder/ndk/include_cpp/android/binder_to_string.h:77:5)",
   "referenced_type" : "_ZTIN7android8internal7details17HasToStringMethodINSt3__16vectorINS_5media23AudioAttributesInternalENS3_9allocatorIS6_EEEEE6$valueE",
   "self_type" : "_ZTIN7android8internal7details17HasToStringMethodINSt3__16vectorINS_5media23AudioAttributesInternalENS3_9allocatorIS6_EEEEE6$valueE",
   "size" : 4,
   "source_file" : "frameworks/native/libs/binder/ndk/include_cpp/android/binder_to_string.h",
   "underlying_type" : "_ZTIj"
  },
  {
   "alignment" : 4,
   "enum_fields" :
   [
    {
     "enum_field_value" : 0,
     "name" : "android::internal::details::HasToStringMethod<std::__1::vector<android::content::AttributionSourceState, std::__1::allocator<android::content::AttributionSourceState>>>::value"
    }
   ],
   "linker_set_key" : "_ZTIN7android8internal7details17HasToStringMethodINSt3__16vectorINS_7content22AttributionSourceStateENS3_9allocatorIS6_EEEEE6$valueE",
   "name" : "android::internal::details::HasToStringMethod<vector<AttributionSourceState, allocator<AttributionSourceState>>>::(anonymous enum at frameworks/native/libs/binder/ndk/include_cpp/android/binder_to_string.h:77:5)",
   "referenced_type" : "_ZTIN7android8internal7details17HasToStringMethodINSt3__16vectorINS_7content22AttributionSourceStateENS3_9allocatorIS6_EEEEE6$valueE",
   "self_type" : "_ZTIN7android8internal7details17HasToStringMethodINSt3__16vectorINS_7content22AttributionSourceStateENS3_9allocatorIS6_EEEEE6$valueE",
   "size" : 4,
   "source_file" : "frameworks/native/libs/binder/ndk/include_cpp/android/binder_to_string.h",
   "underlying_type" : "_ZTIj"
  },
  {
   "alignment" : 4,
   "enum_fields" :
   [
    {
     "enum_field_value" : 0,
     "name" : "android::internal::details::HasToStringMethod<std::__1::vector<float, std::__1::allocator<float>>>::value"
    }
   ],
   "linker_set_key" : "_ZTIN7android8internal7details17HasToStringMethodINSt3__16vectorIfNS3_9allocatorIfEEEEE6$valueE",
   "name" : "android::internal::details::HasToStringMethod<vector<float, allocator<float>>>::(anonymous enum at frameworks/native/libs/binder/ndk/include_cpp/android/binder_to_string.h:77:5)",
   "referenced_type" : "_ZTIN7android8internal7details17HasToStringMethodINSt3__16vectorIfNS3_9allocatorIfEEEEE6$valueE",
   "self_type" : "_ZTIN7android8internal7details17HasToStringMethodINSt3__16vectorIfNS3_9allocatorIfEEEEE6$valueE",
   "size" : 4,
   "source_file" : "frameworks/native/libs/binder/ndk/include_cpp/android/binder_to_string.h",
   "underlying_type" : "_ZTIj"
  },
  {
   "alignment" : 4,
   "enum_fields" :
   [
    {
     "enum_field_value" : 0,
     "name" : "android::internal::details::HasToStringMethod<std::__1::vector<unsigned char, std::__1::allocator<unsigned char>>>::value"
    }
   ],
   "linker_set_key" : "_ZTIN7android8internal7details17HasToStringMethodINSt3__16vectorIhNS3_9allocatorIhEEEEE6$valueE",
   "name" : "android::internal::details::HasToStringMethod<vector<unsigned char, allocator<unsigned char>>>::(anonymous enum at frameworks/native/libs/binder/ndk/include_cpp/android/binder_to_string.h:77:5)",
   "referenced_type" : "_ZTIN7android8internal7details17HasToStringMethodINSt3__16vectorIhNS3_9allocatorIhEEEEE6$valueE",
   "self_type" : "_ZTIN7android8internal7details17HasToStringMethodINSt3__16vectorIhNS3_9allocatorIhEEEEE6$valueE",
   "size" : 4,
   "source_file" : "frameworks/native/libs/binder/ndk/include_cpp/android/binder_to_string.h",
   "underlying_type" : "_ZTIj"
  },
  {
   "alignment" : 4,
   "enum_fields" :
   [
    {
     "enum_field_value" : 0,
     "name" : "android::internal::details::HasToStringMethod<std::__1::vector<int, std::__1::allocator<int>>>::value"
    }
   ],
   "linker_set_key" : "_ZTIN7android8internal7details17HasToStringMethodINSt3__16vectorIiNS3_9allocatorIiEEEEE6$valueE",
   "name" : "android::internal::details::HasToStringMethod<vector<int, allocator<int>>>::(anonymous enum at frameworks/native/libs/binder/ndk/include_cpp/android/binder_to_string.h:77:5)",
   "referenced_type" : "_ZTIN7android8internal7details17HasToStringMethodINSt3__16vectorIiNS3_9allocatorIiEEEEE6$valueE",
   "self_type" : "_ZTIN7android8internal7details17HasToStringMethodINSt3__16vectorIiNS3_9allocatorIiEEEEE6$valueE",
   "size" : 4,
   "source_file" : "frameworks/native/libs/binder/ndk/include_cpp/android/binder_to_string.h",
   "underlying_type" : "_ZTIj"
  },
  {
   "alignment" : 4,
   "enum_fields" :
   [
    {
     "enum_field_value" : 1,
     "name" : "android::internal::details::HasToStringFunction<android::media::AudioUsage>::value"
    }
   ],
   "linker_set_key" : "_ZTIN7android8internal7details19HasToStringFunctionINS_5media10AudioUsageEE6$valueE",
   "name" : "android::internal::details::HasToStringFunction<AudioUsage>::(anonymous enum at frameworks/native/libs/binder/ndk/include_cpp/android/binder_to_string.h:89:5)",
   "referenced_type" : "_ZTIN7android8internal7details19HasToStringFunctionINS_5media10AudioUsageEE6$valueE",
   "self_type" : "_ZTIN7android8internal7details19HasToStringFunctionINS_5media10AudioUsageEE6$valueE",
   "size" : 4,
   "source_file" : "frameworks/native/libs/binder/ndk/include_cpp/android/binder_to_string.h",
   "underlying_type" : "_ZTIj"
  },
  {
   "alignment" : 4,
   "enum_fields" :
   [
    {
     "enum_field_value" : 1,
     "name" : "android::internal::details::HasToStringFunction<android::media::AudioPortRole>::value"
    }
   ],
   "linker_set_key" : "_ZTIN7android8internal7details19HasToStringFunctionINS_5media13AudioPortRoleEE6$valueE",
   "name" : "android::internal::details::HasToStringFunction<AudioPortRole>::(anonymous enum at frameworks/native/libs/binder/ndk/include_cpp/android/binder_to_string.h:89:5)",
   "referenced_type" : "_ZTIN7android8internal7details19HasToStringFunctionINS_5media13AudioPortRoleEE6$valueE",
   "self_type" : "_ZTIN7android8internal7details19HasToStringFunctionINS_5media13AudioPortRoleEE6$valueE",
   "size" : 4,
   "source_file" : "frameworks/native/libs/binder/ndk/include_cpp/android/binder_to_string.h",
   "underlying_type" : "_ZTIj"
  },
  {
   "alignment" : 4,
   "enum_fields" :
   [
    {
     "enum_field_value" : 1,
     "name" : "android::internal::details::HasToStringFunction<android::media::AudioPortType>::value"
    }
   ],
   "linker_set_key" : "_ZTIN7android8internal7details19HasToStringFunctionINS_5media13AudioPortTypeEE6$valueE",
   "name" : "android::internal::details::HasToStringFunction<AudioPortType>::(anonymous enum at frameworks/native/libs/binder/ndk/include_cpp/android/binder_to_string.h:89:5)",
   "referenced_type" : "_ZTIN7android8internal7details19HasToStringFunctionINS_5media13AudioPortTypeEE6$valueE",
   "self_type" : "_ZTIN7android8internal7details19HasToStringFunctionINS_5media13AudioPortTypeEE6$valueE",
   "size" : 4,
   "source_file" : "frameworks/native/libs/binder/ndk/include_cpp/android/binder_to_string.h",
   "underlying_type" : "_ZTIj"
  },
  {
   "alignment" : 4,
   "enum_fields" :
   [
    {
     "enum_field_value" : 1,
     "name" : "android::internal::details::HasToStringFunction<android::media::AudioSourceType>::value"
    }
   ],
   "linker_set_key" : "_ZTIN7android8internal7details19HasToStringFunctionINS_5media15AudioSourceTypeEE6$valueE",
   "name" : "android::internal::details::HasToStringFunction<AudioSourceType>::(anonymous enum at frameworks/native/libs/binder/ndk/include_cpp/android/binder_to_string.h:89:5)",
   "referenced_type" : "_ZTIN7android8internal7details19HasToStringFunctionINS_5media15AudioSourceTypeEE6$valueE",
   "self_type" : "_ZTIN7android8internal7details19HasToStringFunctionINS_5media15AudioSourceTypeEE6$valueE",
   "size" : 4,
   "source_file" : "frameworks/native/libs/binder/ndk/include_cpp/android/binder_to_string.h",
   "underlying_type" : "_ZTIj"
  },
  {
   "alignment" : 4,
   "enum_fields" :
   [
    {
     "enum_field_value" : 1,
     "name" : "android::internal::details::HasToStringFunction<android::media::AudioStreamType>::value"
    }
   ],
   "linker_set_key" : "_ZTIN7android8internal7details19HasToStringFunctionINS_5media15AudioStreamTypeEE6$valueE",
   "name" : "android::internal::details::HasToStringFunction<AudioStreamType>::(anonymous enum at frameworks/native/libs/binder/ndk/include_cpp/android/binder_to_string.h:89:5)",
   "referenced_type" : "_ZTIN7android8internal7details19HasToStringFunctionINS_5media15AudioStreamTypeEE6$valueE",
   "self_type" : "_ZTIN7android8internal7details19HasToStringFunctionINS_5media15AudioStreamTypeEE6$valueE",
   "size" : 4,
   "source_file" : "frameworks/native/libs/binder/ndk/include_cpp/android/binder_to_string.h",
   "underlying_type" : "_ZTIj"
  },
  {
   "alignment" : 4,
   "enum_fields" :
   [
    {
     "enum_field_value" : 1,
     "name" : "android::internal::details::HasToStringFunction<android::media::AudioContentType>::value"
    }
   ],
   "linker_set_key" : "_ZTIN7android8internal7details19HasToStringFunctionINS_5media16AudioContentTypeEE6$valueE",
   "name" : "android::internal::details::HasToStringFunction<AudioContentType>::(anonymous enum at frameworks/native/libs/binder/ndk/include_cpp/android/binder_to_string.h:89:5)",
   "referenced_type" : "_ZTIN7android8internal7details19HasToStringFunctionINS_5media16AudioContentTypeEE6$valueE",
   "self_type" : "_ZTIN7android8internal7details19HasToStringFunctionINS_5media16AudioContentTypeEE6$valueE",
   "size" : 4,
   "source_file" : "frameworks/native/libs/binder/ndk/include_cpp/android/binder_to_string.h",
   "underlying_type" : "_ZTIj"
  },
  {
   "alignment" : 4,
   "enum_fields" :
   [
    {
     "enum_field_value" : 1,
     "name" : "android::internal::details::HasToStringFunction<android::media::InterpolatorType>::value"
    }
   ],
   "linker_set_key" : "_ZTIN7android8internal7details19HasToStringFunctionINS_5media16InterpolatorTypeEE6$valueE",
   "name" : "android::internal::details::HasToStringFunction<InterpolatorType>::(anonymous enum at frameworks/native/libs/binder/ndk/include_cpp/android/binder_to_string.h:89:5)",
   "referenced_type" : "_ZTIN7android8internal7details19HasToStringFunctionINS_5media16InterpolatorTypeEE6$valueE",
   "self_type" : "_ZTIN7android8internal7details19HasToStringFunctionINS_5media16InterpolatorTypeEE6$valueE",
   "size" : 4,
   "source_file" : "frameworks/native/libs/binder/ndk/include_cpp/android/binder_to_string.h",
   "underlying_type" : "_ZTIj"
  },
  {
   "alignment" : 4,
   "enum_fields" :
   [
    {
     "enum_field_value" : 1,
     "name" : "android::internal::details::HasToStringFunction<android::media::VolumeShaperConfigurationType>::value"
    }
   ],
   "linker_set_key" : "_ZTIN7android8internal7details19HasToStringFunctionINS_5media29VolumeShaperConfigurationTypeEE6$valueE",
   "name" : "android::internal::details::HasToStringFunction<VolumeShaperConfigurationType>::(anonymous enum at frameworks/native/libs/binder/ndk/include_cpp/android/binder_to_string.h:89:5)",
   "referenced_type" : "_ZTIN7android8internal7details19HasToStringFunctionINS_5media29VolumeShaperConfigurationTypeEE6$valueE",
   "self_type" : "_ZTIN7android8internal7details19HasToStringFunctionINS_5media29VolumeShaperConfigurationTypeEE6$valueE",
   "size" : 4,
   "source_file" : "frameworks/native/libs/binder/ndk/include_cpp/android/binder_to_string.h",
   "underlying_type" : "_ZTIj"
  },
  {
   "alignment" : 4,
   "enum_fields" :
   [
    {
     "enum_field_value" : 1,
     "name" : "android::internal::details::HasToStringFunction<android::media::audio::common::AudioFormat>::value"
    }
   ],
   "linker_set_key" : "_ZTIN7android8internal7details19HasToStringFunctionINS_5media5audio6common11AudioFormatEE6$valueE",
   "name" : "android::internal::details::HasToStringFunction<AudioFormat>::(anonymous enum at frameworks/native/libs/binder/ndk/include_cpp/android/binder_to_string.h:89:5)",
   "referenced_type" : "_ZTIN7android8internal7details19HasToStringFunctionINS_5media5audio6common11AudioFormatEE6$valueE",
   "self_type" : "_ZTIN7android8internal7details19HasToStringFunctionINS_5media5audio6common11AudioFormatEE6$valueE",
   "size" : 4,
   "source_file" : "frameworks/native/libs/binder/ndk/include_cpp/android/binder_to_string.h",
   "underlying_type" : "_ZTIj"
  },
  {
   "alignment" : 4,
   "enum_fields" :
   [
    {
     "enum_field_value" : 0,
     "name" : "android::internal::details::HasToStringFunction<std::__1::vector<std::__1::optional<std::__1::basic_string<char>>, std::__1::allocator<std::__1::optional<std::__1::basic_string<char>>>>>::value"
    }
   ],
   "linker_set_key" : "_ZTIN7android8internal7details19HasToStringFunctionINSt3__16vectorINS3_8optionalINS3_12basic_stringIcNS3_11char_traitsIcEENS3_9allocatorIcEEEEEENS9_ISC_EEEEE6$valueE",
   "name" : "android::internal::details::HasToStringFunction<vector<optional<basic_string<char>>, allocator<optional<basic_string<char>>>>>::(anonymous enum at frameworks/native/libs/binder/ndk/include_cpp/android/binder_to_string.h:89:5)",
   "referenced_type" : "_ZTIN7android8internal7details19HasToStringFunctionINSt3__16vectorINS3_8optionalINS3_12basic_stringIcNS3_11char_traitsIcEENS3_9allocatorIcEEEEEENS9_ISC_EEEEE6$valueE",
   "self_type" : "_ZTIN7android8internal7details19HasToStringFunctionINSt3__16vectorINS3_8optionalINS3_12basic_stringIcNS3_11char_traitsIcEENS3_9allocatorIcEEEEEENS9_ISC_EEEEE6$valueE",
   "size" : 4,
   "source_file" : "frameworks/native/libs/binder/ndk/include_cpp/android/binder_to_string.h",
   "underlying_type" : "_ZTIj"
  },
  {
   "alignment" : 4,
   "enum_fields" :
   [
    {
     "enum_field_value" : 0,
     "name" : "android::internal::details::HasToStringFunction<std::__1::vector<android::media::AudioPortConfig, std::__1::allocator<android::media::AudioPortConfig>>>::value"
    }
   ],
   "linker_set_key" : "_ZTIN7android8internal7details19HasToStringFunctionINSt3__16vectorINS_5media15AudioPortConfigENS3_9allocatorIS6_EEEEE6$valueE",
   "name" : "android::internal::details::HasToStringFunction<vector<AudioPortConfig, allocator<AudioPortConfig>>>::(anonymous enum at frameworks/native/libs/binder/ndk/include_cpp/android/binder_to_string.h:89:5)",
   "referenced_type" : "_ZTIN7android8internal7details19HasToStringFunctionINSt3__16vectorINS_5media15AudioPortConfigENS3_9allocatorIS6_EEEEE6$valueE",
   "self_type" : "_ZTIN7android8internal7details19HasToStringFunctionINSt3__16vectorINS_5media15AudioPortConfigENS3_9allocatorIS6_EEEEE6$valueE",
   "size" : 4,
   "source_file" : "frameworks/native/libs/binder/ndk/include_cpp/android/binder_to_string.h",
   "underlying_type" : "_ZTIj"
  },
  {
   "alignment" : 4,
   "enum_fields" :
   [
    {
     "enum_field_value" : 0,
     "name" : "android::internal::details::HasToStringFunction<std::__1::vector<android::media::AudioStreamType, std::__1::allocator<android::media::AudioStreamType>>>::value"
    }
   ],
   "linker_set_key" : "_ZTIN7android8internal7details19HasToStringFunctionINSt3__16vectorINS_5media15AudioStreamTypeENS3_9allocatorIS6_EEEEE6$valueE",
   "name" : "android::internal::details::HasToStringFunction<vector<AudioStreamType, allocator<AudioStreamType>>>::(anonymous enum at frameworks/native/libs/binder/ndk/include_cpp/android/binder_to_string.h:89:5)",
   "referenced_type" : "_ZTIN7android8internal7details19HasToStringFunctionINSt3__16vectorINS_5media15AudioStreamTypeENS3_9allocatorIS6_EEEEE6$valueE",
   "self_type" : "_ZTIN7android8internal7details19HasToStringFunctionINSt3__16vectorINS_5media15AudioStreamTypeENS3_9allocatorIS6_EEEEE6$valueE",
   "size" : 4,
   "source_file" : "frameworks/native/libs/binder/ndk/include_cpp/android/binder_to_string.h",
   "underlying_type" : "_ZTIj"
  },
  {
   "alignment" : 4,
   "enum_fields" :
   [
    {
     "enum_field_value" : 0,
     "name" : "android::internal::details::HasToStringFunction<std::__1::vector<android::media::SharedFileRegion, std::__1::allocator<android::media::SharedFileRegion>>>::value"
    }
   ],
   "linker_set_key" : "_ZTIN7android8internal7details19HasToStringFunctionINSt3__16vectorINS_5media16SharedFileRegionENS3_9allocatorIS6_EEEEE6$valueE",
   "name" : "android::internal::details::HasToStringFunction<vector<SharedFileRegion, allocator<SharedFileRegion>>>::(anonymous enum at frameworks/native/libs/binder/ndk/include_cpp/android/binder_to_string.h:89:5)",
   "referenced_type" : "_ZTIN7android8internal7details19HasToStringFunctionINSt3__16vectorINS_5media16SharedFileRegionENS3_9allocatorIS6_EEEEE6$valueE",
   "self_type" : "_ZTIN7android8internal7details19HasToStringFunctionINSt3__16vectorINS_5media16SharedFileRegionENS3_9allocatorIS6_EEEEE6$valueE",
   "size" : 4,
   "source_file" : "frameworks/native/libs/binder/ndk/include_cpp/android/binder_to_string.h",
   "underlying_type" : "_ZTIj"
  },
  {
   "alignment" : 4,
   "enum_fields" :
   [
    {
     "enum_field_value" : 0,
     "name" : "android::internal::details::HasToStringFunction<std::__1::vector<android::media::AudioAttributesEx, std::__1::allocator<android::media::AudioAttributesEx>>>::value"
    }
   ],
   "linker_set_key" : "_ZTIN7android8internal7details19HasToStringFunctionINSt3__16vectorINS_5media17AudioAttributesExENS3_9allocatorIS6_EEEEE6$valueE",
   "name" : "android::internal::details::HasToStringFunction<vector<AudioAttributesEx, allocator<AudioAttributesEx>>>::(anonymous enum at frameworks/native/libs/binder/ndk/include_cpp/android/binder_to_string.h:89:5)",
   "referenced_type" : "_ZTIN7android8internal7details19HasToStringFunctionINSt3__16vectorINS_5media17AudioAttributesExENS3_9allocatorIS6_EEEEE6$valueE",
   "self_type" : "_ZTIN7android8internal7details19HasToStringFunctionINSt3__16vectorINS_5media17AudioAttributesExENS3_9allocatorIS6_EEEEE6$valueE",
   "size" : 4,
   "source_file" : "frameworks/native/libs/binder/ndk/include_cpp/android/binder_to_string.h",
   "underlying_type" : "_ZTIj"
  },
  {
   "alignment" : 4,
   "enum_fields" :
   [
    {
     "enum_field_value" : 0,
     "name" : "android::internal::details::HasToStringFunction<std::__1::vector<android::media::AudioAttributesInternal, std::__1::allocator<android::media::AudioAttributesInternal>>>::value"
    }
   ],
   "linker_set_key" : "_ZTIN7android8internal7details19HasToStringFunctionINSt3__16vectorINS_5media23AudioAttributesInternalENS3_9allocatorIS6_EEEEE6$valueE",
   "name" : "android::internal::details::HasToStringFunction<vector<AudioAttributesInternal, allocator<AudioAttributesInternal>>>::(anonymous enum at frameworks/native/libs/binder/ndk/include_cpp/android/binder_to_string.h:89:5)",
   "referenced_type" : "_ZTIN7android8internal7details19HasToStringFunctionINSt3__16vectorINS_5media23AudioAttributesInternalENS3_9allocatorIS6_EEEEE6$valueE",
   "self_type" : "_ZTIN7android8internal7details19HasToStringFunctionINSt3__16vectorINS_5media23AudioAttributesInternalENS3_9allocatorIS6_EEEEE6$valueE",
   "size" : 4,
   "source_file" : "frameworks/native/libs/binder/ndk/include_cpp/android/binder_to_string.h",
   "underlying_type" : "_ZTIj"
  },
  {
   "alignment" : 4,
   "enum_fields" :
   [
    {
     "enum_field_value" : 0,
     "name" : "android::internal::details::HasToStringFunction<std::__1::vector<android::content::AttributionSourceState, std::__1::allocator<android::content::AttributionSourceState>>>::value"
    }
   ],
   "linker_set_key" : "_ZTIN7android8internal7details19HasToStringFunctionINSt3__16vectorINS_7content22AttributionSourceStateENS3_9allocatorIS6_EEEEE6$valueE",
   "name" : "android::internal::details::HasToStringFunction<vector<AttributionSourceState, allocator<AttributionSourceState>>>::(anonymous enum at frameworks/native/libs/binder/ndk/include_cpp/android/binder_to_string.h:89:5)",
   "referenced_type" : "_ZTIN7android8internal7details19HasToStringFunctionINSt3__16vectorINS_7content22AttributionSourceStateENS3_9allocatorIS6_EEEEE6$valueE",
   "self_type" : "_ZTIN7android8internal7details19HasToStringFunctionINSt3__16vectorINS_7content22AttributionSourceStateENS3_9allocatorIS6_EEEEE6$valueE",
   "size" : 4,
   "source_file" : "frameworks/native/libs/binder/ndk/include_cpp/android/binder_to_string.h",
   "underlying_type" : "_ZTIj"
  },
  {
   "alignment" : 4,
   "enum_fields" :
   [
    {
     "enum_field_value" : 0,
     "name" : "android::internal::details::HasToStringFunction<std::__1::vector<float, std::__1::allocator<float>>>::value"
    }
   ],
   "linker_set_key" : "_ZTIN7android8internal7details19HasToStringFunctionINSt3__16vectorIfNS3_9allocatorIfEEEEE6$valueE",
   "name" : "android::internal::details::HasToStringFunction<vector<float, allocator<float>>>::(anonymous enum at frameworks/native/libs/binder/ndk/include_cpp/android/binder_to_string.h:89:5)",
   "referenced_type" : "_ZTIN7android8internal7details19HasToStringFunctionINSt3__16vectorIfNS3_9allocatorIfEEEEE6$valueE",
   "self_type" : "_ZTIN7android8internal7details19HasToStringFunctionINSt3__16vectorIfNS3_9allocatorIfEEEEE6$valueE",
   "size" : 4,
   "source_file" : "frameworks/native/libs/binder/ndk/include_cpp/android/binder_to_string.h",
   "underlying_type" : "_ZTIj"
  },
  {
   "alignment" : 4,
   "enum_fields" :
   [
    {
     "enum_field_value" : 0,
     "name" : "android::internal::details::HasToStringFunction<std::__1::vector<unsigned char, std::__1::allocator<unsigned char>>>::value"
    }
   ],
   "linker_set_key" : "_ZTIN7android8internal7details19HasToStringFunctionINSt3__16vectorIhNS3_9allocatorIhEEEEE6$valueE",
   "name" : "android::internal::details::HasToStringFunction<vector<unsigned char, allocator<unsigned char>>>::(anonymous enum at frameworks/native/libs/binder/ndk/include_cpp/android/binder_to_string.h:89:5)",
   "referenced_type" : "_ZTIN7android8internal7details19HasToStringFunctionINSt3__16vectorIhNS3_9allocatorIhEEEEE6$valueE",
   "self_type" : "_ZTIN7android8internal7details19HasToStringFunctionINSt3__16vectorIhNS3_9allocatorIhEEEEE6$valueE",
   "size" : 4,
   "source_file" : "frameworks/native/libs/binder/ndk/include_cpp/android/binder_to_string.h",
   "underlying_type" : "_ZTIj"
  },
  {
   "alignment" : 4,
   "enum_fields" :
   [
    {
     "enum_field_value" : 0,
     "name" : "android::internal::details::HasToStringFunction<std::__1::vector<int, std::__1::allocator<int>>>::value"
    }
   ],
   "linker_set_key" : "_ZTIN7android8internal7details19HasToStringFunctionINSt3__16vectorIiNS3_9allocatorIiEEEEE6$valueE",
   "name" : "android::internal::details::HasToStringFunction<vector<int, allocator<int>>>::(anonymous enum at frameworks/native/libs/binder/ndk/include_cpp/android/binder_to_string.h:89:5)",
   "referenced_type" : "_ZTIN7android8internal7details19HasToStringFunctionINSt3__16vectorIiNS3_9allocatorIiEEEEE6$valueE",
   "self_type" : "_ZTIN7android8internal7details19HasToStringFunctionINSt3__16vectorIiNS3_9allocatorIiEEEEE6$valueE",
   "size" : 4,
   "source_file" : "frameworks/native/libs/binder/ndk/include_cpp/android/binder_to_string.h",
   "underlying_type" : "_ZTIj"
  }
 ],
 "function_types" :
 [
  {
   "alignment" : 4,
   "linker_set_key" : "_ZTIFRN7android10TextOutputES1_E",
   "name" : "android::TextOutput &(android::TextOutput &)",
   "parameters" :
   [
    {
     "referenced_type" : "_ZTIRN7android10TextOutputE"
    }
   ],
   "referenced_type" : "_ZTIFRN7android10TextOutputES1_E",
   "return_type" : "_ZTIRN7android10TextOutputE",
   "self_type" : "_ZTIFRN7android10TextOutputES1_E",
   "source_file" : "frameworks/native/libs/binder/include/binder/TextOutput.h"
  },
  {
   "alignment" : 4,
   "linker_set_key" : "_ZTIFRNSt3__113basic_ostreamIcNS_11char_traitsIcEEEES4_E",
   "name" : "std::__1::basic_ostream<char> &(std::__1::basic_ostream<char> &)",
   "parameters" :
   [
    {
     "referenced_type" : "_ZTIRNSt3__113basic_ostreamIcNS_11char_traitsIcEEEE"
    }
   ],
   "referenced_type" : "_ZTIFRNSt3__113basic_ostreamIcNS_11char_traitsIcEEEES4_E",
   "return_type" : "_ZTIRNSt3__113basic_ostreamIcNS_11char_traitsIcEEEE",
   "self_type" : "_ZTIFRNSt3__113basic_ostreamIcNS_11char_traitsIcEEEES4_E",
   "source_file" : "frameworks/native/libs/binder/include/binder/TextOutput.h"
  },
  {
   "alignment" : 4,
   "linker_set_key" : "_ZTIFiP18AAudioStreamStructPvS1_iE",
   "name" : "int (AAudioStreamStruct *, void *, void *, int)",
   "parameters" :
   [
    {
     "referenced_type" : "_ZTIP18AAudioStreamStruct"
    },
    {
     "referenced_type" : "_ZTIPv"
    },
    {
     "referenced_type" : "_ZTIPv"
    },
    {
     "referenced_type" : "_ZTIi"
    }
   ],
   "referenced_type" : "_ZTIFiP18AAudioStreamStructPvS1_iE",
   "return_type" : "_ZTIi",
   "self_type" : "_ZTIFiP18AAudioStreamStructPvS1_iE",
   "source_file" : "frameworks/av/media/libaaudio/include/aaudio/AAudio.h"
  },
  {
   "alignment" : 4,
   "linker_set_key" : "_ZTIFvP18AAudioStreamStructPviE",
   "name" : "void (AAudioStreamStruct *, void *, int)",
   "parameters" :
   [
    {
     "referenced_type" : "_ZTIP18AAudioStreamStruct"
    },
    {
     "referenced_type" : "_ZTIPv"
    },
    {
     "referenced_type" : "_ZTIi"
    }
   ],
   "referenced_type" : "_ZTIFvP18AAudioStreamStructPviE",
   "return_type" : "_ZTIv",
   "self_type" : "_ZTIFvP18AAudioStreamStructPviE",
   "source_file" : "frameworks/av/media/libaaudio/include/aaudio/AAudio.h"
  },
  {
   "alignment" : 4,
   "linker_set_key" : "_ZTIFvPN7android6ParcelEPKhmPKymE",
   "name" : "void (android::Parcel *, const unsigned char *, unsigned long, const unsigned long long *, unsigned long)",
   "parameters" :
   [
    {
     "referenced_type" : "_ZTIPN7android6ParcelE"
    },
    {
     "referenced_type" : "_ZTIPKh"
    },
    {
     "referenced_type" : "_ZTIm"
    },
    {
     "referenced_type" : "_ZTIPKy"
    },
    {
     "referenced_type" : "_ZTIm"
    }
   ],
   "referenced_type" : "_ZTIFvPN7android6ParcelEPKhmPKymE",
   "return_type" : "_ZTIv",
   "self_type" : "_ZTIFvPN7android6ParcelEPKhmPKymE",
   "source_file" : "frameworks/native/libs/binder/include/binder/Parcel.h"
  }
 ],
 "functions" :
 [
  {
   "function_name" : "AAudioStreamBuilder_delete",
   "linker_set_key" : "AAudioStreamBuilder_delete",
   "parameters" :
   [
    {
     "referenced_type" : "_ZTIP25AAudioStreamBuilderStruct"
    }
   ],
   "return_type" : "_ZTIi",
   "source_file" : "frameworks/av/media/libaaudio/include/aaudio/AAudio.h"
  },
  {
   "function_name" : "AAudioStreamBuilder_openStream",
   "linker_set_key" : "AAudioStreamBuilder_openStream",
   "parameters" :
   [
    {
     "referenced_type" : "_ZTIP25AAudioStreamBuilderStruct"
    },
    {
     "referenced_type" : "_ZTIPP18AAudioStreamStruct"
    }
   ],
   "return_type" : "_ZTIi",
   "source_file" : "frameworks/av/media/libaaudio/include/aaudio/AAudio.h"
  },
  {
   "function_name" : "AAudioStreamBuilder_setAllowedCapturePolicy",
   "linker_set_key" : "AAudioStreamBuilder_setAllowedCapturePolicy",
   "parameters" :
   [
    {
     "referenced_type" : "_ZTIP25AAudioStreamBuilderStruct"
    },
    {
     "referenced_type" : "_ZTIi"
    }
   ],
   "return_type" : "_ZTIv",
   "source_file" : "frameworks/av/media/libaaudio/include/aaudio/AAudio.h"
  },
  {
   "function_name" : "AAudioStreamBuilder_setAttributionTag",
   "linker_set_key" : "AAudioStreamBuilder_setAttributionTag",
   "parameters" :
   [
    {
     "referenced_type" : "_ZTIP25AAudioStreamBuilderStruct"
    },
    {
     "referenced_type" : "_ZTIPKc"
    }
   ],
   "return_type" : "_ZTIv",
   "source_file" : "frameworks/av/media/libaaudio/include/aaudio/AAudio.h"
  },
  {
   "function_name" : "AAudioStreamBuilder_setBufferCapacityInFrames",
   "linker_set_key" : "AAudioStreamBuilder_setBufferCapacityInFrames",
   "parameters" :
   [
    {
     "referenced_type" : "_ZTIP25AAudioStreamBuilderStruct"
    },
    {
     "referenced_type" : "_ZTIi"
    }
   ],
   "return_type" : "_ZTIv",
   "source_file" : "frameworks/av/media/libaaudio/include/aaudio/AAudio.h"
  },
  {
   "function_name" : "AAudioStreamBuilder_setChannelCount",
   "linker_set_key" : "AAudioStreamBuilder_setChannelCount",
   "parameters" :
   [
    {
     "referenced_type" : "_ZTIP25AAudioStreamBuilderStruct"
    },
    {
     "referenced_type" : "_ZTIi"
    }
   ],
   "return_type" : "_ZTIv",
   "source_file" : "frameworks/av/media/libaaudio/include/aaudio/AAudio.h"
  },
  {
   "function_name" : "AAudioStreamBuilder_setChannelMask",
   "linker_set_key" : "AAudioStreamBuilder_setChannelMask",
   "parameters" :
   [
    {
     "referenced_type" : "_ZTIP25AAudioStreamBuilderStruct"
    },
    {
     "referenced_type" : "_ZTIj"
    }
   ],
   "return_type" : "_ZTIv",
   "source_file" : "frameworks/av/media/libaaudio/include/aaudio/AAudio.h"
  },
  {
   "function_name" : "AAudioStreamBuilder_setContentType",
   "linker_set_key" : "AAudioStreamBuilder_setContentType",
   "parameters" :
   [
    {
     "referenced_type" : "_ZTIP25AAudioStreamBuilderStruct"
    },
    {
     "referenced_type" : "_ZTIi"
    }
   ],
   "return_type" : "_ZTIv",
   "source_file" : "frameworks/av/media/libaaudio/include/aaudio/AAudio.h"
  },
  {
   "function_name" : "AAudioStreamBuilder_setDataCallback",
   "linker_set_key" : "AAudioStreamBuilder_setDataCallback",
   "parameters" :
   [
    {
     "referenced_type" : "_ZTIP25AAudioStreamBuilderStruct"
    },
    {
     "referenced_type" : "_ZTIPFiP18AAudioStreamStructPvS1_iE"
    },
    {
     "referenced_type" : "_ZTIPv"
    }
   ],
   "return_type" : "_ZTIv",
   "source_file" : "frameworks/av/media/libaaudio/include/aaudio/AAudio.h"
  },
  {
   "function_name" : "AAudioStreamBuilder_setDeviceId",
   "linker_set_key" : "AAudioStreamBuilder_setDeviceId",
   "parameters" :
   [
    {
     "referenced_type" : "_ZTIP25AAudioStreamBuilderStruct"
    },
    {
     "referenced_type" : "_ZTIi"
    }
   ],
   "return_type" : "_ZTIv",
   "source_file" : "frameworks/av/media/libaaudio/include/aaudio/AAudio.h"
  },
  {
   "function_name" : "AAudioStreamBuilder_setDirection",
   "linker_set_key" : "AAudioStreamBuilder_setDirection",
   "parameters" :
   [
    {
     "referenced_type" : "_ZTIP25AAudioStreamBuilderStruct"
    },
    {
     "referenced_type" : "_ZTIi"
    }
   ],
   "return_type" : "_ZTIv",
   "source_file" : "frameworks/av/media/libaaudio/include/aaudio/AAudio.h"
  },
  {
   "function_name" : "AAudioStreamBuilder_setErrorCallback",
   "linker_set_key" : "AAudioStreamBuilder_setErrorCallback",
   "parameters" :
   [
    {
     "referenced_type" : "_ZTIP25AAudioStreamBuilderStruct"
    },
    {
     "referenced_type" : "_ZTIPFvP18AAudioStreamStructPviE"
    },
    {
     "referenced_type" : "_ZTIPv"
    }
   ],
   "return_type" : "_ZTIv",
   "source_file" : "frameworks/av/media/libaaudio/include/aaudio/AAudio.h"
  },
  {
   "function_name" : "AAudioStreamBuilder_setFormat",
   "linker_set_key" : "AAudioStreamBuilder_setFormat",
   "parameters" :
   [
    {
     "referenced_type" : "_ZTIP25AAudioStreamBuilderStruct"
    },
    {
     "referenced_type" : "_ZTIi"
    }
   ],
   "return_type" : "_ZTIv",
   "source_file" : "frameworks/av/media/libaaudio/include/aaudio/AAudio.h"
  },
  {
   "function_name" : "AAudioStreamBuilder_setFramesPerDataCallback",
   "linker_set_key" : "AAudioStreamBuilder_setFramesPerDataCallback",
   "parameters" :
   [
    {
     "referenced_type" : "_ZTIP25AAudioStreamBuilderStruct"
    },
    {
     "referenced_type" : "_ZTIi"
    }
   ],
   "return_type" : "_ZTIv",
   "source_file" : "frameworks/av/media/libaaudio/include/aaudio/AAudio.h"
  },
  {
   "function_name" : "AAudioStreamBuilder_setInputPreset",
   "linker_set_key" : "AAudioStreamBuilder_setInputPreset",
   "parameters" :
   [
    {
     "referenced_type" : "_ZTIP25AAudioStreamBuilderStruct"
    },
    {
     "referenced_type" : "_ZTIi"
    }
   ],
   "return_type" : "_ZTIv",
   "source_file" : "frameworks/av/media/libaaudio/include/aaudio/AAudio.h"
  },
  {
   "function_name" : "AAudioStreamBuilder_setIsContentSpatialized",
   "linker_set_key" : "AAudioStreamBuilder_setIsContentSpatialized",
   "parameters" :
   [
    {
     "referenced_type" : "_ZTIP25AAudioStreamBuilderStruct"
    },
    {
     "referenced_type" : "_ZTIb"
    }
   ],
   "return_type" : "_ZTIv",
   "source_file" : "frameworks/av/media/libaaudio/include/aaudio/AAudio.h"
  },
  {
   "function_name" : "AAudioStreamBuilder_setPackageName",
   "linker_set_key" : "AAudioStreamBuilder_setPackageName",
   "parameters" :
   [
    {
     "referenced_type" : "_ZTIP25AAudioStreamBuilderStruct"
    },
    {
     "referenced_type" : "_ZTIPKc"
    }
   ],
   "return_type" : "_ZTIv",
   "source_file" : "frameworks/av/media/libaaudio/include/aaudio/AAudio.h"
  },
  {
   "function_name" : "AAudioStreamBuilder_setPerformanceMode",
   "linker_set_key" : "AAudioStreamBuilder_setPerformanceMode",
   "parameters" :
   [
    {
     "referenced_type" : "_ZTIP25AAudioStreamBuilderStruct"
    },
    {
     "referenced_type" : "_ZTIi"
    }
   ],
   "return_type" : "_ZTIv",
   "source_file" : "frameworks/av/media/libaaudio/include/aaudio/AAudio.h"
  },
  {
   "function_name" : "AAudioStreamBuilder_setPrivacySensitive",
   "linker_set_key" : "AAudioStreamBuilder_setPrivacySensitive",
   "parameters" :
   [
    {
     "referenced_type" : "_ZTIP25AAudioStreamBuilderStruct"
    },
    {
     "referenced_type" : "_ZTIb"
    }
   ],
   "return_type" : "_ZTIv",
   "source_file" : "frameworks/av/media/libaaudio/include/aaudio/AAudio.h"
  },
  {
   "function_name" : "AAudioStreamBuilder_setSampleRate",
   "linker_set_key" : "AAudioStreamBuilder_setSampleRate",
   "parameters" :
   [
    {
     "referenced_type" : "_ZTIP25AAudioStreamBuilderStruct"
    },
    {
     "referenced_type" : "_ZTIi"
    }
   ],
   "return_type" : "_ZTIv",
   "source_file" : "frameworks/av/media/libaaudio/include/aaudio/AAudio.h"
  },
  {
   "function_name" : "AAudioStreamBuilder_setSamplesPerFrame",
   "linker_set_key" : "AAudioStreamBuilder_setSamplesPerFrame",
   "parameters" :
   [
    {
     "referenced_type" : "_ZTIP25AAudioStreamBuilderStruct"
    },
    {
     "referenced_type" : "_ZTIi"
    }
   ],
   "return_type" : "_ZTIv",
   "source_file" : "frameworks/av/media/libaaudio/include/aaudio/AAudio.h"
  },
  {
   "function_name" : "AAudioStreamBuilder_setSessionId",
   "linker_set_key" : "AAudioStreamBuilder_setSessionId",
   "parameters" :
   [
    {
     "referenced_type" : "_ZTIP25AAudioStreamBuilderStruct"
    },
    {
     "referenced_type" : "_ZTIi"
    }
   ],
   "return_type" : "_ZTIv",
   "source_file" : "frameworks/av/media/libaaudio/include/aaudio/AAudio.h"
  },
  {
   "function_name" : "AAudioStreamBuilder_setSharingMode",
   "linker_set_key" : "AAudioStreamBuilder_setSharingMode",
   "parameters" :
   [
    {
     "referenced_type" : "_ZTIP25AAudioStreamBuilderStruct"
    },
    {
     "referenced_type" : "_ZTIi"
    }
   ],
   "return_type" : "_ZTIv",
   "source_file" : "frameworks/av/media/libaaudio/include/aaudio/AAudio.h"
  },
  {
   "function_name" : "AAudioStreamBuilder_setSpatializationBehavior",
   "linker_set_key" : "AAudioStreamBuilder_setSpatializationBehavior",
   "parameters" :
   [
    {
     "referenced_type" : "_ZTIP25AAudioStreamBuilderStruct"
    },
    {
     "referenced_type" : "_ZTIi"
    }
   ],
   "return_type" : "_ZTIv",
   "source_file" : "frameworks/av/media/libaaudio/include/aaudio/AAudio.h"
  },
  {
   "function_name" : "AAudioStreamBuilder_setUsage",
   "linker_set_key" : "AAudioStreamBuilder_setUsage",
   "parameters" :
   [
    {
     "referenced_type" : "_ZTIP25AAudioStreamBuilderStruct"
    },
    {
     "referenced_type" : "_ZTIi"
    }
   ],
   "return_type" : "_ZTIv",
   "source_file" : "frameworks/av/media/libaaudio/include/aaudio/AAudio.h"
  },
  {
   "function_name" : "AAudioStream_close",
   "linker_set_key" : "AAudioStream_close",
   "parameters" :
   [
    {
     "referenced_type" : "_ZTIP18AAudioStreamStruct"
    }
   ],
   "return_type" : "_ZTIi",
   "source_file" : "frameworks/av/media/libaaudio/include/aaudio/AAudio.h"
  },
  {
   "function_name" : "AAudioStream_getAllowedCapturePolicy",
   "linker_set_key" : "AAudioStream_getAllowedCapturePolicy",
   "parameters" :
   [
    {
     "referenced_type" : "_ZTIP18AAudioStreamStruct"
    }
   ],
   "return_type" : "_ZTIi",
   "source_file" : "frameworks/av/media/libaaudio/include/aaudio/AAudio.h"
  },
  {
   "function_name" : "AAudioStream_getBufferCapacityInFrames",
   "linker_set_key" : "AAudioStream_getBufferCapacityInFrames",
   "parameters" :
   [
    {
     "referenced_type" : "_ZTIP18AAudioStreamStruct"
    }
   ],
   "return_type" : "_ZTIi",
   "source_file" : "frameworks/av/media/libaaudio/include/aaudio/AAudio.h"
  },
  {
   "function_name" : "AAudioStream_getBufferSizeInFrames",
   "linker_set_key" : "AAudioStream_getBufferSizeInFrames",
   "parameters" :
   [
    {
     "referenced_type" : "_ZTIP18AAudioStreamStruct"
    }
   ],
   "return_type" : "_ZTIi",
   "source_file" : "frameworks/av/media/libaaudio/include/aaudio/AAudio.h"
  },
  {
   "function_name" : "AAudioStream_getChannelCount",
   "linker_set_key" : "AAudioStream_getChannelCount",
   "parameters" :
   [
    {
     "referenced_type" : "_ZTIP18AAudioStreamStruct"
    }
   ],
   "return_type" : "_ZTIi",
   "source_file" : "frameworks/av/media/libaaudio/include/aaudio/AAudio.h"
  },
  {
   "function_name" : "AAudioStream_getChannelMask",
   "linker_set_key" : "AAudioStream_getChannelMask",
   "parameters" :
   [
    {
     "referenced_type" : "_ZTIP18AAudioStreamStruct"
    }
   ],
   "return_type" : "_ZTIj",
   "source_file" : "frameworks/av/media/libaaudio/include/aaudio/AAudio.h"
  },
  {
   "function_name" : "AAudioStream_getContentType",
   "linker_set_key" : "AAudioStream_getContentType",
   "parameters" :
   [
    {
     "referenced_type" : "_ZTIP18AAudioStreamStruct"
    }
   ],
   "return_type" : "_ZTIi",
   "source_file" : "frameworks/av/media/libaaudio/include/aaudio/AAudio.h"
  },
  {
   "function_name" : "AAudioStream_getDeviceId",
   "linker_set_key" : "AAudioStream_getDeviceId",
   "parameters" :
   [
    {
     "referenced_type" : "_ZTIP18AAudioStreamStruct"
    }
   ],
   "return_type" : "_ZTIi",
   "source_file" : "frameworks/av/media/libaaudio/include/aaudio/AAudio.h"
  },
  {
   "function_name" : "AAudioStream_getDirection",
   "linker_set_key" : "AAudioStream_getDirection",
   "parameters" :
   [
    {
     "referenced_type" : "_ZTIP18AAudioStreamStruct"
    }
   ],
   "return_type" : "_ZTIi",
   "source_file" : "frameworks/av/media/libaaudio/include/aaudio/AAudio.h"
  },
  {
   "function_name" : "AAudioStream_getFormat",
   "linker_set_key" : "AAudioStream_getFormat",
   "parameters" :
   [
    {
     "referenced_type" : "_ZTIP18AAudioStreamStruct"
    }
   ],
   "return_type" : "_ZTIi",
   "source_file" : "frameworks/av/media/libaaudio/include/aaudio/AAudio.h"
  },
  {
   "function_name" : "AAudioStream_getFramesPerBurst",
   "linker_set_key" : "AAudioStream_getFramesPerBurst",
   "parameters" :
   [
    {
     "referenced_type" : "_ZTIP18AAudioStreamStruct"
    }
   ],
   "return_type" : "_ZTIi",
   "source_file" : "frameworks/av/media/libaaudio/include/aaudio/AAudio.h"
  },
  {
   "function_name" : "AAudioStream_getFramesPerDataCallback",
   "linker_set_key" : "AAudioStream_getFramesPerDataCallback",
   "parameters" :
   [
    {
     "referenced_type" : "_ZTIP18AAudioStreamStruct"
    }
   ],
   "return_type" : "_ZTIi",
   "source_file" : "frameworks/av/media/libaaudio/include/aaudio/AAudio.h"
  },
  {
   "function_name" : "AAudioStream_getFramesRead",
   "linker_set_key" : "AAudioStream_getFramesRead",
   "parameters" :
   [
    {
     "referenced_type" : "_ZTIP18AAudioStreamStruct"
    }
   ],
   "return_type" : "_ZTIl",
   "source_file" : "frameworks/av/media/libaaudio/include/aaudio/AAudio.h"
  },
  {
   "function_name" : "AAudioStream_getFramesWritten",
   "linker_set_key" : "AAudioStream_getFramesWritten",
   "parameters" :
   [
    {
     "referenced_type" : "_ZTIP18AAudioStreamStruct"
    }
   ],
   "return_type" : "_ZTIl",
   "source_file" : "frameworks/av/media/libaaudio/include/aaudio/AAudio.h"
  },
  {
   "function_name" : "AAudioStream_getInputPreset",
   "linker_set_key" : "AAudioStream_getInputPreset",
   "parameters" :
   [
    {
     "referenced_type" : "_ZTIP18AAudioStreamStruct"
    }
   ],
   "return_type" : "_ZTIi",
   "source_file" : "frameworks/av/media/libaaudio/include/aaudio/AAudio.h"
  },
  {
   "function_name" : "AAudioStream_getPerformanceMode",
   "linker_set_key" : "AAudioStream_getPerformanceMode",
   "parameters" :
   [
    {
     "referenced_type" : "_ZTIP18AAudioStreamStruct"
    }
   ],
   "return_type" : "_ZTIi",
   "source_file" : "frameworks/av/media/libaaudio/include/aaudio/AAudio.h"
  },
  {
   "function_name" : "AAudioStream_getSampleRate",
   "linker_set_key" : "AAudioStream_getSampleRate",
   "parameters" :
   [
    {
     "referenced_type" : "_ZTIP18AAudioStreamStruct"
    }
   ],
   "return_type" : "_ZTIi",
   "source_file" : "frameworks/av/media/libaaudio/include/aaudio/AAudio.h"
  },
  {
   "function_name" : "AAudioStream_getSamplesPerFrame",
   "linker_set_key" : "AAudioStream_getSamplesPerFrame",
   "parameters" :
   [
    {
     "referenced_type" : "_ZTIP18AAudioStreamStruct"
    }
   ],
   "return_type" : "_ZTIi",
   "source_file" : "frameworks/av/media/libaaudio/include/aaudio/AAudio.h"
  },
  {
   "function_name" : "AAudioStream_getSessionId",
   "linker_set_key" : "AAudioStream_getSessionId",
   "parameters" :
   [
    {
     "referenced_type" : "_ZTIP18AAudioStreamStruct"
    }
   ],
   "return_type" : "_ZTIi",
   "source_file" : "frameworks/av/media/libaaudio/include/aaudio/AAudio.h"
  },
  {
   "function_name" : "AAudioStream_getSharingMode",
   "linker_set_key" : "AAudioStream_getSharingMode",
   "parameters" :
   [
    {
     "referenced_type" : "_ZTIP18AAudioStreamStruct"
    }
   ],
   "return_type" : "_ZTIi",
   "source_file" : "frameworks/av/media/libaaudio/include/aaudio/AAudio.h"
  },
  {
   "function_name" : "AAudioStream_getSpatializationBehavior",
   "linker_set_key" : "AAudioStream_getSpatializationBehavior",
   "parameters" :
   [
    {
     "referenced_type" : "_ZTIP18AAudioStreamStruct"
    }
   ],
   "return_type" : "_ZTIi",
   "source_file" : "frameworks/av/media/libaaudio/include/aaudio/AAudio.h"
  },
  {
   "function_name" : "AAudioStream_getState",
   "linker_set_key" : "AAudioStream_getState",
   "parameters" :
   [
    {
     "referenced_type" : "_ZTIP18AAudioStreamStruct"
    }
   ],
   "return_type" : "_ZTIi",
   "source_file" : "frameworks/av/media/libaaudio/include/aaudio/AAudio.h"
  },
  {
   "function_name" : "AAudioStream_getTimestamp",
   "linker_set_key" : "AAudioStream_getTimestamp",
   "parameters" :
   [
    {
     "referenced_type" : "_ZTIP18AAudioStreamStruct"
    },
    {
     "referenced_type" : "_ZTIi"
    },
    {
     "referenced_type" : "_ZTIPl"
    },
    {
     "referenced_type" : "_ZTIPl"
    }
   ],
   "return_type" : "_ZTIi",
   "source_file" : "frameworks/av/media/libaaudio/include/aaudio/AAudio.h"
  },
  {
   "function_name" : "AAudioStream_getUsage",
   "linker_set_key" : "AAudioStream_getUsage",
   "parameters" :
   [
    {
     "referenced_type" : "_ZTIP18AAudioStreamStruct"
    }
   ],
   "return_type" : "_ZTIi",
   "source_file" : "frameworks/av/media/libaaudio/include/aaudio/AAudio.h"
  },
  {
   "function_name" : "AAudioStream_getXRunCount",
   "linker_set_key" : "AAudioStream_getXRunCount",
   "parameters" :
   [
    {
     "referenced_type" : "_ZTIP18AAudioStreamStruct"
    }
   ],
   "return_type" : "_ZTIi",
   "source_file" : "frameworks/av/media/libaaudio/include/aaudio/AAudio.h"
  },
  {
   "function_name" : "AAudioStream_isContentSpatialized",
   "linker_set_key" : "AAudioStream_isContentSpatialized",
   "parameters" :
   [
    {
     "referenced_type" : "_ZTIP18AAudioStreamStruct"
    }
   ],
   "return_type" : "_ZTIb",
   "source_file" : "frameworks/av/media/libaaudio/include/aaudio/AAudio.h"
  },
  {
   "function_name" : "AAudioStream_isMMapUsed",
   "linker_set_key" : "AAudioStream_isMMapUsed",
   "parameters" :
   [
    {
     "referenced_type" : "_ZTIP18AAudioStreamStruct"
    }
   ],
   "return_type" : "_ZTIb",
   "source_file" : "frameworks/av/media/libaaudio/include/aaudio/AAudioTesting.h"
  },
  {
   "function_name" : "AAudioStream_isPrivacySensitive",
   "linker_set_key" : "AAudioStream_isPrivacySensitive",
   "parameters" :
   [
    {
     "referenced_type" : "_ZTIP18AAudioStreamStruct"
    }
   ],
   "return_type" : "_ZTIb",
   "source_file" : "frameworks/av/media/libaaudio/include/aaudio/AAudio.h"
  },
  {
   "function_name" : "AAudioStream_read",
   "linker_set_key" : "AAudioStream_read",
   "parameters" :
   [
    {
     "referenced_type" : "_ZTIP18AAudioStreamStruct"
    },
    {
     "referenced_type" : "_ZTIPv"
    },
    {
     "referenced_type" : "_ZTIi"
    },
    {
     "referenced_type" : "_ZTIl"
    }
   ],
   "return_type" : "_ZTIi",
   "source_file" : "frameworks/av/media/libaaudio/include/aaudio/AAudio.h"
  },
  {
   "function_name" : "AAudioStream_release",
   "linker_set_key" : "AAudioStream_release",
   "parameters" :
   [
    {
     "referenced_type" : "_ZTIP18AAudioStreamStruct"
    }
   ],
   "return_type" : "_ZTIi",
   "source_file" : "frameworks/av/media/libaaudio/include/aaudio/AAudio.h"
  },
  {
   "function_name" : "AAudioStream_requestFlush",
   "linker_set_key" : "AAudioStream_requestFlush",
   "parameters" :
   [
    {
     "referenced_type" : "_ZTIP18AAudioStreamStruct"
    }
   ],
   "return_type" : "_ZTIi",
   "source_file" : "frameworks/av/media/libaaudio/include/aaudio/AAudio.h"
  },
  {
   "function_name" : "AAudioStream_requestPause",
   "linker_set_key" : "AAudioStream_requestPause",
   "parameters" :
   [
    {
     "referenced_type" : "_ZTIP18AAudioStreamStruct"
    }
   ],
   "return_type" : "_ZTIi",
   "source_file" : "frameworks/av/media/libaaudio/include/aaudio/AAudio.h"
  },
  {
   "function_name" : "AAudioStream_requestStart",
   "linker_set_key" : "AAudioStream_requestStart",
   "parameters" :
   [
    {
     "referenced_type" : "_ZTIP18AAudioStreamStruct"
    }
   ],
   "return_type" : "_ZTIi",
   "source_file" : "frameworks/av/media/libaaudio/include/aaudio/AAudio.h"
  },
  {
   "function_name" : "AAudioStream_requestStop",
   "linker_set_key" : "AAudioStream_requestStop",
   "parameters" :
   [
    {
     "referenced_type" : "_ZTIP18AAudioStreamStruct"
    }
   ],
   "return_type" : "_ZTIi",
   "source_file" : "frameworks/av/media/libaaudio/include/aaudio/AAudio.h"
  },
  {
   "function_name" : "AAudioStream_setBufferSizeInFrames",
   "linker_set_key" : "AAudioStream_setBufferSizeInFrames",
   "parameters" :
   [
    {
     "referenced_type" : "_ZTIP18AAudioStreamStruct"
    },
    {
     "referenced_type" : "_ZTIi"
    }
   ],
   "return_type" : "_ZTIi",
   "source_file" : "frameworks/av/media/libaaudio/include/aaudio/AAudio.h"
  },
  {
   "function_name" : "AAudioStream_waitForStateChange",
   "linker_set_key" : "AAudioStream_waitForStateChange",
   "parameters" :
   [
    {
     "referenced_type" : "_ZTIP18AAudioStreamStruct"
    },
    {
     "referenced_type" : "_ZTIi"
    },
    {
     "referenced_type" : "_ZTIPi"
    },
    {
     "referenced_type" : "_ZTIl"
    }
   ],
   "return_type" : "_ZTIi",
   "source_file" : "frameworks/av/media/libaaudio/include/aaudio/AAudio.h"
  },
  {
   "function_name" : "AAudioStream_write",
   "linker_set_key" : "AAudioStream_write",
   "parameters" :
   [
    {
     "referenced_type" : "_ZTIP18AAudioStreamStruct"
    },
    {
     "referenced_type" : "_ZTIPKv"
    },
    {
     "referenced_type" : "_ZTIi"
    },
    {
     "referenced_type" : "_ZTIl"
    }
   ],
   "return_type" : "_ZTIi",
   "source_file" : "frameworks/av/media/libaaudio/include/aaudio/AAudio.h"
  },
  {
   "function_name" : "AAudio_convertResultToText",
   "linker_set_key" : "AAudio_convertResultToText",
   "parameters" :
   [
    {
     "referenced_type" : "_ZTIi"
    }
   ],
   "return_type" : "_ZTIPKc",
   "source_file" : "frameworks/av/media/libaaudio/include/aaudio/AAudio.h"
  },
  {
   "function_name" : "AAudio_convertStreamStateToText",
   "linker_set_key" : "AAudio_convertStreamStateToText",
   "parameters" :
   [
    {
     "referenced_type" : "_ZTIi"
    }
   ],
   "return_type" : "_ZTIPKc",
   "source_file" : "frameworks/av/media/libaaudio/include/aaudio/AAudio.h"
  },
  {
   "function_name" : "AAudio_createStreamBuilder",
   "linker_set_key" : "AAudio_createStreamBuilder",
   "parameters" :
   [
    {
     "referenced_type" : "_ZTIPP25AAudioStreamBuilderStruct"
    }
   ],
   "return_type" : "_ZTIi",
   "source_file" : "frameworks/av/media/libaaudio/include/aaudio/AAudio.h"
  },
  {
   "function_name" : "AAudio_getMMapPolicy",
   "linker_set_key" : "AAudio_getMMapPolicy",
   "return_type" : "_ZTIi",
   "source_file" : "frameworks/av/media/libaaudio/include/aaudio/AAudioTesting.h"
  },
  {
   "function_name" : "AAudio_setMMapPolicy",
   "linker_set_key" : "AAudio_setMMapPolicy",
   "parameters" :
   [
    {
     "referenced_type" : "_ZTIi"
    }
   ],
   "return_type" : "_ZTIi",
   "source_file" : "frameworks/av/media/libaaudio/include/aaudio/AAudioTesting.h"
  }
 ],
 "global_vars" : [],
 "lvalue_reference_types" :
 [
  {
   "alignment" : 8,
   "linker_set_key" : "_ZTIRA16_KDs",
   "name" : "char16_t const (&)[16]",
   "referenced_type" : "_ZTIA16_KDs",
   "self_type" : "_ZTIRA16_KDs",
   "size" : 8,
   "source_file" : "system/core/libutils/include/utils/String16.h"
  },
  {
   "alignment" : 8,
   "linker_set_key" : "_ZTIRA18_KDs",
   "name" : "char16_t const (&)[18]",
   "referenced_type" : "_ZTIA18_KDs",
   "self_type" : "_ZTIRA18_KDs",
   "size" : 8,
   "source_file" : "system/core/libutils/include/utils/String16.h"
  },
  {
   "alignment" : 8,
   "linker_set_key" : "_ZTIRA20_KDs",
   "name" : "char16_t const (&)[20]",
   "referenced_type" : "_ZTIA20_KDs",
   "self_type" : "_ZTIRA20_KDs",
   "size" : 8,
   "source_file" : "system/core/libutils/include/utils/String16.h"
  },
  {
   "alignment" : 8,
   "linker_set_key" : "_ZTIRA21_KDs",
   "name" : "char16_t const (&)[21]",
   "referenced_type" : "_ZTIA21_KDs",
   "self_type" : "_ZTIRA21_KDs",
   "size" : 8,
   "source_file" : "system/core/libutils/include/utils/String16.h"
  },
  {
   "alignment" : 8,
   "linker_set_key" : "_ZTIRA24_KDs",
   "name" : "char16_t const (&)[24]",
   "referenced_type" : "_ZTIA24_KDs",
   "self_type" : "_ZTIRA24_KDs",
   "size" : 8,
   "source_file" : "system/core/libutils/include/utils/String16.h"
  },
  {
   "alignment" : 8,
   "linker_set_key" : "_ZTIRA25_KDs",
   "name" : "char16_t const (&)[25]",
   "referenced_type" : "_ZTIA25_KDs",
   "self_type" : "_ZTIRA25_KDs",
   "size" : 8,
   "source_file" : "system/core/libutils/include/utils/String16.h"
  },
  {
   "alignment" : 8,
   "linker_set_key" : "_ZTIRA26_KDs",
   "name" : "char16_t const (&)[26]",
   "referenced_type" : "_ZTIA26_KDs",
   "self_type" : "_ZTIRA26_KDs",
   "size" : 8,
   "source_file" : "system/core/libutils/include/utils/String16.h"
  },
  {
   "alignment" : 8,
   "linker_set_key" : "_ZTIRA27_KDs",
   "name" : "char16_t const (&)[27]",
   "referenced_type" : "_ZTIA27_KDs",
   "self_type" : "_ZTIRA27_KDs",
   "size" : 8,
   "source_file" : "system/core/libutils/include/utils/String16.h"
  },
  {
   "alignment" : 8,
   "linker_set_key" : "_ZTIRA30_KDs",
   "name" : "char16_t const (&)[30]",
   "referenced_type" : "_ZTIA30_KDs",
   "self_type" : "_ZTIRA30_KDs",
   "size" : 8,
   "source_file" : "system/core/libutils/include/utils/String16.h"
  },
  {
   "alignment" : 8,
   "linker_set_key" : "_ZTIRA31_KDs",
   "name" : "char16_t const (&)[31]",
   "referenced_type" : "_ZTIA31_KDs",
   "self_type" : "_ZTIRA31_KDs",
   "size" : 8,
   "source_file" : "system/core/libutils/include/utils/String16.h"
  },
  {
   "alignment" : 8,
   "linker_set_key" : "_ZTIRA32_KDs",
   "name" : "char16_t const (&)[32]",
   "referenced_type" : "_ZTIA32_KDs",
   "self_type" : "_ZTIRA32_KDs",
   "size" : 8,
   "source_file" : "system/core/libutils/include/utils/String16.h"
  },
  {
   "alignment" : 8,
   "linker_set_key" : "_ZTIRA33_KDs",
   "name" : "char16_t const (&)[33]",
   "referenced_type" : "_ZTIA33_KDs",
   "self_type" : "_ZTIRA33_KDs",
   "size" : 8,
   "source_file" : "system/core/libutils/include/utils/String16.h"
  },
  {
   "alignment" : 8,
   "linker_set_key" : "_ZTIRA35_KDs",
   "name" : "char16_t const (&)[35]",
   "referenced_type" : "_ZTIA35_KDs",
   "self_type" : "_ZTIRA35_KDs",
   "size" : 8,
   "source_file" : "system/core/libutils/include/utils/String16.h"
  },
  {
   "alignment" : 8,
   "linker_set_key" : "_ZTIRA36_KDs",
   "name" : "char16_t const (&)[36]",
   "referenced_type" : "_ZTIA36_KDs",
   "self_type" : "_ZTIRA36_KDs",
   "size" : 8,
   "source_file" : "system/core/libutils/include/utils/String16.h"
  },
  {
   "alignment" : 8,
   "linker_set_key" : "_ZTIRA38_KDs",
   "name" : "char16_t const (&)[38]",
   "referenced_type" : "_ZTIA38_KDs",
   "self_type" : "_ZTIRA38_KDs",
   "size" : 8,
   "source_file" : "system/core/libutils/include/utils/String16.h"
  },
  {
   "alignment" : 8,
   "linker_set_key" : "_ZTIRA39_KDs",
   "name" : "char16_t const (&)[39]",
   "referenced_type" : "_ZTIA39_KDs",
   "self_type" : "_ZTIRA39_KDs",
   "size" : 8,
   "source_file" : "system/core/libutils/include/utils/String16.h"
  },
  {
   "alignment" : 8,
   "linker_set_key" : "_ZTIRA40_KDs",
   "name" : "char16_t const (&)[40]",
   "referenced_type" : "_ZTIA40_KDs",
   "self_type" : "_ZTIRA40_KDs",
   "size" : 8,
   "source_file" : "system/core/libutils/include/utils/String16.h"
  },
  {
   "alignment" : 8,
   "linker_set_key" : "_ZTIRA43_KDs",
   "name" : "char16_t const (&)[43]",
   "referenced_type" : "_ZTIA43_KDs",
   "self_type" : "_ZTIRA43_KDs",
   "size" : 8,
   "source_file" : "system/core/libutils/include/utils/String16.h"
  },
  {
   "alignment" : 8,
   "linker_set_key" : "_ZTIRK8log_time",
   "name" : "const log_time &",
   "referenced_type" : "_ZTIK8log_time",
   "self_type" : "_ZTIRK8log_time",
   "size" : 8,
   "source_file" : "system/logging/liblog/include/log/log_time.h"
  },
  {
   "alignment" : 8,
   "linker_set_key" : "_ZTIRK8timespec",
   "name" : "const timespec &",
   "referenced_type" : "_ZTIK8timespec",
   "self_type" : "_ZTIRK8timespec",
   "size" : 8,
   "source_file" : "system/logging/liblog/include/log/log_time.h"
  },
  {
   "alignment" : 8,
   "linker_set_key" : "_ZTIRKN6aaudio10RingBufferE",
   "name" : "const aaudio::RingBuffer &",
   "referenced_type" : "_ZTIKN6aaudio10RingBufferE",
   "self_type" : "_ZTIRKN6aaudio10RingBufferE",
   "size" : 8,
   "source_file" : "frameworks/native/libs/binder/ndk/include_cpp/android/binder_to_string.h"
  },
  {
   "alignment" : 8,
   "linker_set_key" : "_ZTIRKN6aaudio12SharedRegionE",
   "name" : "const aaudio::SharedRegion &",
   "referenced_type" : "_ZTIKN6aaudio12SharedRegionE",
   "self_type" : "_ZTIRKN6aaudio12SharedRegionE",
   "size" : 8,
   "source_file" : "frameworks/native/libs/binder/ndk/include_cpp/android/binder_to_string.h"
  },
  {
   "alignment" : 8,
   "linker_set_key" : "_ZTIRKN6aaudio13StreamRequestE",
   "name" : "const aaudio::StreamRequest &",
   "referenced_type" : "_ZTIKN6aaudio13StreamRequestE",
   "self_type" : "_ZTIRKN6aaudio13StreamRequestE",
   "size" : 8,
   "source_file" : "out/soong/.intermediates/frameworks/av/media/libaaudio/src/aaudio-aidl-cpp-source/gen/include/aaudio/StreamRequest.h"
  },
  {
   "alignment" : 8,
   "linker_set_key" : "_ZTIRKN6aaudio16StreamParametersE",
   "name" : "const aaudio::StreamParameters &",
   "referenced_type" : "_ZTIKN6aaudio16StreamParametersE",
   "self_type" : "_ZTIRKN6aaudio16StreamParametersE",
   "size" : 8,
   "source_file" : "frameworks/native/libs/binder/ndk/include_cpp/android/binder_to_string.h"
  },
  {
   "alignment" : 8,
   "linker_set_key" : "_ZTIRKN6aaudio8EndpointE",
   "name" : "const aaudio::Endpoint &",
   "referenced_type" : "_ZTIKN6aaudio8EndpointE",
   "self_type" : "_ZTIRKN6aaudio8EndpointE",
   "size" : 8,
   "source_file" : "out/soong/.intermediates/frameworks/av/media/libaaudio/src/aaudio-aidl-cpp-source/gen/include/aaudio/Endpoint.h"
  },
  {
   "alignment" : 8,
   "linker_set_key" : "_ZTIRKN7android10ParcelableE",
   "name" : "const android::Parcelable &",
   "referenced_type" : "_ZTIKN7android10ParcelableE",
   "self_type" : "_ZTIRKN7android10ParcelableE",
   "size" : 8,
   "source_file" : "frameworks/native/libs/binder/include/binder/Parcelable.h"
  },
  {
   "alignment" : 8,
   "linker_set_key" : "_ZTIRKN7android16key_value_pair_tINS_7String8ES1_EE",
   "name" : "const android::key_value_pair_t<android::String8, android::String8> &",
   "referenced_type" : "_ZTIKN7android16key_value_pair_tINS_7String8ES1_EE",
   "self_type" : "_ZTIRKN7android16key_value_pair_tINS_7String8ES1_EE",
   "size" : 8,
   "source_file" : "system/core/libutils/include/utils/TypeHelpers.h"
  },
  {
   "alignment" : 8,
   "linker_set_key" : "_ZTIRKN7android16key_value_pair_tIiNS_2spINS_17AudioIoDescriptorEEEEE",
   "name" : "const android::key_value_pair_t<int, android::sp<android::AudioIoDescriptor>> &",
   "referenced_type" : "_ZTIKN7android16key_value_pair_tIiNS_2spINS_17AudioIoDescriptorEEEEE",
   "self_type" : "_ZTIRKN7android16key_value_pair_tIiNS_2spINS_17AudioIoDescriptorEEEEE",
   "size" : 8,
   "source_file" : "system/core/libutils/include/utils/TypeHelpers.h"
  },
  {
   "alignment" : 8,
   "linker_set_key" : "_ZTIRKN7android2os16ParcelableHolderE",
   "name" : "const android::os::ParcelableHolder &",
   "referenced_type" : "_ZTIKN7android2os16ParcelableHolderE",
   "self_type" : "_ZTIRKN7android2os16ParcelableHolderE",
   "size" : 8,
   "source_file" : "frameworks/native/libs/binder/include/binder/ParcelableHolder.h"
  },
  {
   "alignment" : 8,
   "linker_set_key" : "_ZTIRKN7android2os20ParcelFileDescriptorE",
   "name" : "const android::os::ParcelFileDescriptor &",
   "referenced_type" : "_ZTIKN7android2os20ParcelFileDescriptorE",
   "self_type" : "_ZTIRKN7android2os20ParcelFileDescriptorE",
   "size" : 8,
   "source_file" : "frameworks/native/libs/binder/include/binder/ParcelFileDescriptor.h"
  },
  {
   "alignment" : 8,
   "linker_set_key" : "_ZTIRKN7android2spINS_11AudioSystem17AudioPortCallbackEEE",
   "name" : "const android::sp<android::AudioSystem::AudioPortCallback> &",
   "referenced_type" : "_ZTIKN7android2spINS_11AudioSystem17AudioPortCallbackEEE",
   "self_type" : "_ZTIRKN7android2spINS_11AudioSystem17AudioPortCallbackEEE",
   "size" : 8,
   "source_file" : "system/core/libutils/include/utils/StrongPointer.h"
  },
  {
   "alignment" : 8,
   "linker_set_key" : "_ZTIRKN7android2spINS_11AudioSystem24AudioVolumeGroupCallbackEEE",
   "name" : "const android::sp<android::AudioSystem::AudioVolumeGroupCallback> &",
   "referenced_type" : "_ZTIKN7android2spINS_11AudioSystem24AudioVolumeGroupCallbackEEE",
   "self_type" : "_ZTIRKN7android2spINS_11AudioSystem24AudioVolumeGroupCallbackEEE",
   "size" : 8,
   "source_file" : "system/core/libutils/include/utils/StrongPointer.h"
  },
  {
   "alignment" : 8,
   "linker_set_key" : "_ZTIRKN7android2spINS_17AudioIoDescriptorEEE",
   "name" : "const android::sp<android::AudioIoDescriptor> &",
   "referenced_type" : "_ZTIKN7android2spINS_17AudioIoDescriptorEEE",
   "self_type" : "_ZTIRKN7android2spINS_17AudioIoDescriptorEEE",
   "size" : 8,
   "source_file" : "system/core/libutils/include/utils/StrongPointer.h"
  },
  {
   "alignment" : 8,
   "linker_set_key" : "_ZTIRKN7android2spINS_5media12VolumeShaper13ConfigurationEEE",
   "name" : "const android::sp<android::media::VolumeShaper::Configuration> &",
   "referenced_type" : "_ZTIKN7android2spINS_5media12VolumeShaper13ConfigurationEEE",
   "self_type" : "_ZTIRKN7android2spINS_5media12VolumeShaper13ConfigurationEEE",
   "size" : 8,
   "source_file" : "system/core/libutils/include/utils/StrongPointer.h"
  },
  {
   "alignment" : 8,
   "linker_set_key" : "_ZTIRKN7android2spINS_5media12VolumeShaper9OperationEEE",
   "name" : "const android::sp<android::media::VolumeShaper::Operation> &",
   "referenced_type" : "_ZTIKN7android2spINS_5media12VolumeShaper9OperationEEE",
   "self_type" : "_ZTIRKN7android2spINS_5media12VolumeShaper9OperationEEE",
   "size" : 8,
   "source_file" : "system/core/libutils/include/utils/StrongPointer.h"
  },
  {
   "alignment" : 8,
   "linker_set_key" : "_ZTIRKN7android2spINS_7IBinderEEE",
   "name" : "const android::sp<android::IBinder> &",
   "referenced_type" : "_ZTIKN7android2spINS_7IBinderEEE",
   "self_type" : "_ZTIRKN7android2spINS_7IBinderEEE",
   "size" : 8,
   "source_file" : "system/core/libutils/include/utils/StrongPointer.h"
  },
  {
   "alignment" : 8,
   "linker_set_key" : "_ZTIRKN7android4base10unexpectedIiEE",
   "name" : "const android::base::unexpected<int> &",
   "referenced_type" : "_ZTIKN7android4base10unexpectedIiEE",
   "self_type" : "_ZTIRKN7android4base10unexpectedIiEE",
   "size" : 8,
   "source_file" : "system/libbase/include/android-base/expected.h"
  },
  {
   "alignment" : 8,
   "linker_set_key" : "_ZTIRKN7android4base14unique_fd_implINS0_13DefaultCloserEEE",
   "name" : "const android::base::unique_fd_impl<android::base::DefaultCloser> &",
   "referenced_type" : "_ZTIKN7android4base14unique_fd_implINS0_13DefaultCloserEEE",
   "self_type" : "_ZTIRKN7android4base14unique_fd_implINS0_13DefaultCloserEEE",
   "size" : 8,
   "source_file" : "frameworks/native/libs/binder/include/binder/Parcel.h"
  },
  {
   "alignment" : 8,
   "linker_set_key" : "_ZTIRKN7android4base8expectedINS_5media14MicrophoneInfoEiEE",
   "name" : "const android::base::expected<android::media::MicrophoneInfo, int> &",
   "referenced_type" : "_ZTIKN7android4base8expectedINS_5media14MicrophoneInfoEiEE",
   "self_type" : "_ZTIRKN7android4base8expectedINS_5media14MicrophoneInfoEiEE",
   "size" : 8,
   "source_file" : "system/libbase/include/android-base/expected.h"
  },
  {
   "alignment" : 8,
   "linker_set_key" : "_ZTIRKN7android4base8expectedINS_5media18MicrophoneInfoDataEiEE",
   "name" : "const android::base::expected<android::media::MicrophoneInfoData, int> &",
   "referenced_type" : "_ZTIKN7android4base8expectedINS_5media18MicrophoneInfoDataEiEE",
   "self_type" : "_ZTIRKN7android4base8expectedINS_5media18MicrophoneInfoDataEiEE",
   "size" : 8,
   "source_file" : "system/libbase/include/android-base/expected.h"
  },
  {
   "alignment" : 8,
   "linker_set_key" : "_ZTIRKN7android4base8expectedIiiEE",
   "name" : "const android::base::expected<int, int> &",
   "referenced_type" : "_ZTIKN7android4base8expectedIiiEE",
   "self_type" : "_ZTIRKN7android4base8expectedIiiEE",
   "size" : 8,
   "source_file" : "system/libbase/include/android-base/expected.h"
  },
  {
   "alignment" : 8,
   "linker_set_key" : "_ZTIRKN7android4base8expectedIjiEE",
   "name" : "const android::base::expected<unsigned int, int> &",
   "referenced_type" : "_ZTIKN7android4base8expectedIjiEE",
   "self_type" : "_ZTIRKN7android4base8expectedIjiEE",
   "size" : 8,
   "source_file" : "system/libbase/include/android-base/expected.h"
  },
  {
   "alignment" : 8,
   "linker_set_key" : "_ZTIRKN7android5media10AudioPatchE",
   "name" : "const android::media::AudioPatch &",
   "referenced_type" : "_ZTIKN7android5media10AudioPatchE",
   "self_type" : "_ZTIRKN7android5media10AudioPatchE",
   "size" : 8,
   "source_file" : "frameworks/native/libs/binder/ndk/include_cpp/android/binder_to_string.h"
  },
  {
   "alignment" : 8,
   "linker_set_key" : "_ZTIRKN7android5media10AudioUsageE",
   "name" : "const android::media::AudioUsage &",
   "referenced_type" : "_ZTIKN7android5media10AudioUsageE",
   "self_type" : "_ZTIRKN7android5media10AudioUsageE",
   "size" : 8,
   "source_file" : "frameworks/native/libs/binder/ndk/include_cpp/android/binder_to_string.h"
  },
  {
   "alignment" : 8,
   "linker_set_key" : "_ZTIRKN7android5media12AudioIoFlagsE",
   "name" : "const android::media::AudioIoFlags &",
   "referenced_type" : "_ZTIKN7android5media12AudioIoFlagsE",
   "self_type" : "_ZTIRKN7android5media12AudioIoFlagsE",
   "size" : 8,
   "source_file" : "frameworks/native/libs/binder/ndk/include_cpp/android/binder_to_string.h"
  },
  {
   "alignment" : 8,
   "linker_set_key" : "_ZTIRKN7android5media13AudioPortRoleE",
   "name" : "const android::media::AudioPortRole &",
   "referenced_type" : "_ZTIKN7android5media13AudioPortRoleE",
   "self_type" : "_ZTIRKN7android5media13AudioPortRoleE",
   "size" : 8,
   "source_file" : "frameworks/native/libs/binder/ndk/include_cpp/android/binder_to_string.h"
  },
  {
   "alignment" : 8,
   "linker_set_key" : "_ZTIRKN7android5media13AudioPortTypeE",
   "name" : "const android::media::AudioPortType &",
   "referenced_type" : "_ZTIKN7android5media13AudioPortTypeE",
   "self_type" : "_ZTIRKN7android5media13AudioPortTypeE",
   "size" : 8,
   "source_file" : "frameworks/native/libs/binder/ndk/include_cpp/android/binder_to_string.h"
  },
  {
   "alignment" : 8,
   "linker_set_key" : "_ZTIRKN7android5media15AudioGainConfigE",
   "name" : "const android::media::AudioGainConfig &",
   "referenced_type" : "_ZTIKN7android5media15AudioGainConfigE",
   "self_type" : "_ZTIRKN7android5media15AudioGainConfigE",
   "size" : 8,
   "source_file" : "frameworks/native/libs/binder/ndk/include_cpp/android/binder_to_string.h"
  },
  {
   "alignment" : 8,
   "linker_set_key" : "_ZTIRKN7android5media15AudioPortConfigE",
   "name" : "const android::media::AudioPortConfig &",
   "referenced_type" : "_ZTIKN7android5media15AudioPortConfigE",
   "self_type" : "_ZTIRKN7android5media15AudioPortConfigE",
   "size" : 8,
   "source_file" : "frameworks/native/libs/binder/ndk/include_cpp/android/binder_to_string.h"
  },
  {
   "alignment" : 8,
   "linker_set_key" : "_ZTIRKN7android5media15AudioSourceTypeE",
   "name" : "const android::media::AudioSourceType &",
   "referenced_type" : "_ZTIKN7android5media15AudioSourceTypeE",
   "self_type" : "_ZTIRKN7android5media15AudioSourceTypeE",
   "size" : 8,
   "source_file" : "frameworks/native/libs/binder/ndk/include_cpp/android/binder_to_string.h"
  },
  {
   "alignment" : 8,
   "linker_set_key" : "_ZTIRKN7android5media15AudioStreamTypeE",
   "name" : "const android::media::AudioStreamType &",
   "referenced_type" : "_ZTIKN7android5media15AudioStreamTypeE",
   "self_type" : "_ZTIRKN7android5media15AudioStreamTypeE",
   "size" : 8,
   "source_file" : "frameworks/native/libs/binder/ndk/include_cpp/android/binder_to_string.h"
  },
  {
   "alignment" : 8,
   "linker_set_key" : "_ZTIRKN7android5media16AudioContentTypeE",
   "name" : "const android::media::AudioContentType &",
   "referenced_type" : "_ZTIKN7android5media16AudioContentTypeE",
   "self_type" : "_ZTIRKN7android5media16AudioContentTypeE",
   "size" : 8,
   "source_file" : "frameworks/native/libs/binder/ndk/include_cpp/android/binder_to_string.h"
  },
  {
   "alignment" : 8,
   "linker_set_key" : "_ZTIRKN7android5media16InterpolatorTypeE",
   "name" : "const android::media::InterpolatorType &",
   "referenced_type" : "_ZTIKN7android5media16InterpolatorTypeE",
   "self_type" : "_ZTIRKN7android5media16InterpolatorTypeE",
   "size" : 8,
   "source_file" : "frameworks/native/libs/binder/ndk/include_cpp/android/binder_to_string.h"
  },
  {
   "alignment" : 8,
   "linker_set_key" : "_ZTIRKN7android5media16SharedFileRegionE",
   "name" : "const android::media::SharedFileRegion &",
   "referenced_type" : "_ZTIKN7android5media16SharedFileRegionE",
   "self_type" : "_ZTIRKN7android5media16SharedFileRegionE",
   "size" : 8,
   "source_file" : "frameworks/native/libs/binder/ndk/include_cpp/android/binder_to_string.h"
  },
  {
   "alignment" : 8,
   "linker_set_key" : "_ZTIRKN7android5media17AudioAttributesExE",
   "name" : "const android::media::AudioAttributesEx &",
   "referenced_type" : "_ZTIKN7android5media17AudioAttributesExE",
   "self_type" : "_ZTIRKN7android5media17AudioAttributesExE",
   "size" : 8,
   "source_file" : "frameworks/native/libs/binder/ndk/include_cpp/android/binder_to_string.h"
  },
  {
   "alignment" : 8,
   "linker_set_key" : "_ZTIRKN7android5media18AudioPortConfigExtE",
   "name" : "const android::media::AudioPortConfigExt &",
   "referenced_type" : "_ZTIKN7android5media18AudioPortConfigExtE",
   "self_type" : "_ZTIRKN7android5media18AudioPortConfigExtE",
   "size" : 8,
   "source_file" : "frameworks/native/libs/binder/ndk/include_cpp/android/binder_to_string.h"
  },
  {
   "alignment" : 8,
   "linker_set_key" : "_ZTIRKN7android5media18InterpolatorConfigE",
   "name" : "const android::media::InterpolatorConfig &",
   "referenced_type" : "_ZTIKN7android5media18InterpolatorConfigE",
   "self_type" : "_ZTIRKN7android5media18InterpolatorConfigE",
   "size" : 8,
   "source_file" : "frameworks/native/libs/binder/ndk/include_cpp/android/binder_to_string.h"
  },
  {
   "alignment" : 8,
   "linker_set_key" : "_ZTIRKN7android5media21AudioPortConfigMixExtE",
   "name" : "const android::media::AudioPortConfigMixExt &",
   "referenced_type" : "_ZTIKN7android5media21AudioPortConfigMixExtE",
   "self_type" : "_ZTIRKN7android5media21AudioPortConfigMixExtE",
   "size" : 8,
   "source_file" : "frameworks/native/libs/binder/ndk/include_cpp/android/binder_to_string.h"
  },
  {
   "alignment" : 8,
   "linker_set_key" : "_ZTIRKN7android5media23AudioAttributesInternalE",
   "name" : "const android::media::AudioAttributesInternal &",
   "referenced_type" : "_ZTIKN7android5media23AudioAttributesInternalE",
   "self_type" : "_ZTIRKN7android5media23AudioAttributesInternalE",
   "size" : 8,
   "source_file" : "frameworks/native/libs/binder/ndk/include_cpp/android/binder_to_string.h"
  },
  {
   "alignment" : 8,
   "linker_set_key" : "_ZTIRKN7android5media24AudioPortConfigDeviceExtE",
   "name" : "const android::media::AudioPortConfigDeviceExt &",
   "referenced_type" : "_ZTIKN7android5media24AudioPortConfigDeviceExtE",
   "self_type" : "_ZTIRKN7android5media24AudioPortConfigDeviceExtE",
   "size" : 8,
   "source_file" : "frameworks/native/libs/binder/ndk/include_cpp/android/binder_to_string.h"
  },
  {
   "alignment" : 8,
   "linker_set_key" : "_ZTIRKN7android5media25AudioPortConfigSessionExtE",
   "name" : "const android::media::AudioPortConfigSessionExt &",
   "referenced_type" : "_ZTIKN7android5media25AudioPortConfigSessionExtE",
   "self_type" : "_ZTIRKN7android5media25AudioPortConfigSessionExtE",
   "size" : 8,
   "source_file" : "frameworks/native/libs/binder/ndk/include_cpp/android/binder_to_string.h"
  },
  {
   "alignment" : 8,
   "linker_set_key" : "_ZTIRKN7android5media28AudioPortConfigMixExtUseCaseE",
   "name" : "const android::media::AudioPortConfigMixExtUseCase &",
   "referenced_type" : "_ZTIKN7android5media28AudioPortConfigMixExtUseCaseE",
   "self_type" : "_ZTIRKN7android5media28AudioPortConfigMixExtUseCaseE",
   "size" : 8,
   "source_file" : "frameworks/native/libs/binder/ndk/include_cpp/android/binder_to_string.h"
  },
  {
   "alignment" : 8,
   "linker_set_key" : "_ZTIRKN7android5media29VolumeShaperConfigurationTypeE",
   "name" : "const android::media::VolumeShaperConfigurationType &",
   "referenced_type" : "_ZTIKN7android5media29VolumeShaperConfigurationTypeE",
   "self_type" : "_ZTIRKN7android5media29VolumeShaperConfigurationTypeE",
   "size" : 8,
   "source_file" : "frameworks/native/libs/binder/ndk/include_cpp/android/binder_to_string.h"
  },
  {
   "alignment" : 8,
   "linker_set_key" : "_ZTIRKN7android5media5audio6common11AudioFormatE",
   "name" : "const android::media::audio::common::AudioFormat &",
   "referenced_type" : "_ZTIKN7android5media5audio6common11AudioFormatE",
   "self_type" : "_ZTIRKN7android5media5audio6common11AudioFormatE",
   "size" : 8,
   "source_file" : "frameworks/native/libs/binder/ndk/include_cpp/android/binder_to_string.h"
  },
  {
   "alignment" : 8,
   "linker_set_key" : "_ZTIRKN7android5media9AudioUuidE",
   "name" : "const android::media::AudioUuid &",
   "referenced_type" : "_ZTIKN7android5media9AudioUuidE",
   "self_type" : "_ZTIRKN7android5media9AudioUuidE",
   "size" : 8,
   "source_file" : "frameworks/native/libs/binder/ndk/include_cpp/android/binder_to_string.h"
  },
  {
   "alignment" : 8,
   "linker_set_key" : "_ZTIRKN7android6ParcelE",
   "name" : "const android::Parcel &",
   "referenced_type" : "_ZTIKN7android6ParcelE",
   "self_type" : "_ZTIRKN7android6ParcelE",
   "size" : 8,
   "source_file" : "frameworks/native/libs/binder/include/binder/Parcel.h"
  },
  {
   "alignment" : 8,
   "linker_set_key" : "_ZTIRKN7android6VectorINS_22AudioMixMatchCriterionEEE",
   "name" : "const android::Vector<android::AudioMixMatchCriterion> &",
   "referenced_type" : "_ZTIKN7android6VectorINS_22AudioMixMatchCriterionEEE",
   "self_type" : "_ZTIRKN7android6VectorINS_22AudioMixMatchCriterionEEE",
   "size" : 8,
   "source_file" : "system/core/libutils/include/utils/Vector.h"
  },
  {
   "alignment" : 8,
   "linker_set_key" : "_ZTIRKN7android6binder6StatusE",
   "name" : "const android::binder::Status &",
   "referenced_type" : "_ZTIKN7android6binder6StatusE",
   "self_type" : "_ZTIRKN7android6binder6StatusE",
   "size" : 8,
   "source_file" : "frameworks/native/libs/binder/include/binder/Status.h"
  },
  {
   "alignment" : 8,
   "linker_set_key" : "_ZTIRKN7android7IBinderE",
   "name" : "const android::IBinder &",
   "referenced_type" : "_ZTIKN7android7IBinderE",
   "self_type" : "_ZTIRKN7android7IBinderE",
   "size" : 8,
   "source_file" : "frameworks/native/libs/binder/ndk/include_cpp/android/binder_to_string.h"
  },
  {
   "alignment" : 8,
   "linker_set_key" : "_ZTIRKN7android7String8E",
   "name" : "const android::String8 &",
   "referenced_type" : "_ZTIKN7android7String8E",
   "self_type" : "_ZTIRKN7android7String8E",
   "size" : 8,
   "source_file" : "system/core/libutils/include/utils/String8.h"
  },
  {
   "alignment" : 8,
   "linker_set_key" : "_ZTIRKN7android7content22AttributionSourceStateE",
   "name" : "const android::content::AttributionSourceState &",
   "referenced_type" : "_ZTIKN7android7content22AttributionSourceStateE",
   "self_type" : "_ZTIRKN7android7content22AttributionSourceStateE",
   "size" : 8,
   "source_file" : "frameworks/native/libs/binder/ndk/include_cpp/android/binder_to_string.h"
  },
  {
   "alignment" : 8,
   "linker_set_key" : "_ZTIRKN7android8String1610StaticDataILm16EEE",
   "name" : "const android::String16::StaticData<16> &",
   "referenced_type" : "_ZTIKN7android8String1610StaticDataILm16EEE",
   "self_type" : "_ZTIRKN7android8String1610StaticDataILm16EEE",
   "size" : 8,
   "source_file" : "system/core/libutils/include/utils/String16.h"
  },
  {
   "alignment" : 8,
   "linker_set_key" : "_ZTIRKN7android8String1610StaticDataILm18EEE",
   "name" : "const android::String16::StaticData<18> &",
   "referenced_type" : "_ZTIKN7android8String1610StaticDataILm18EEE",
   "self_type" : "_ZTIRKN7android8String1610StaticDataILm18EEE",
   "size" : 8,
   "source_file" : "system/core/libutils/include/utils/String16.h"
  },
  {
   "alignment" : 8,
   "linker_set_key" : "_ZTIRKN7android8String1610StaticDataILm20EEE",
   "name" : "const android::String16::StaticData<20> &",
   "referenced_type" : "_ZTIKN7android8String1610StaticDataILm20EEE",
   "self_type" : "_ZTIRKN7android8String1610StaticDataILm20EEE",
   "size" : 8,
   "source_file" : "system/core/libutils/include/utils/String16.h"
  },
  {
   "alignment" : 8,
   "linker_set_key" : "_ZTIRKN7android8String1610StaticDataILm21EEE",
   "name" : "const android::String16::StaticData<21> &",
   "referenced_type" : "_ZTIKN7android8String1610StaticDataILm21EEE",
   "self_type" : "_ZTIRKN7android8String1610StaticDataILm21EEE",
   "size" : 8,
   "source_file" : "system/core/libutils/include/utils/String16.h"
  },
  {
   "alignment" : 8,
   "linker_set_key" : "_ZTIRKN7android8String1610StaticDataILm24EEE",
   "name" : "const android::String16::StaticData<24> &",
   "referenced_type" : "_ZTIKN7android8String1610StaticDataILm24EEE",
   "self_type" : "_ZTIRKN7android8String1610StaticDataILm24EEE",
   "size" : 8,
   "source_file" : "system/core/libutils/include/utils/String16.h"
  },
  {
   "alignment" : 8,
   "linker_set_key" : "_ZTIRKN7android8String1610StaticDataILm25EEE",
   "name" : "const android::String16::StaticData<25> &",
   "referenced_type" : "_ZTIKN7android8String1610StaticDataILm25EEE",
   "self_type" : "_ZTIRKN7android8String1610StaticDataILm25EEE",
   "size" : 8,
   "source_file" : "system/core/libutils/include/utils/String16.h"
  },
  {
   "alignment" : 8,
   "linker_set_key" : "_ZTIRKN7android8String1610StaticDataILm26EEE",
   "name" : "const android::String16::StaticData<26> &",
   "referenced_type" : "_ZTIKN7android8String1610StaticDataILm26EEE",
   "self_type" : "_ZTIRKN7android8String1610StaticDataILm26EEE",
   "size" : 8,
   "source_file" : "system/core/libutils/include/utils/String16.h"
  },
  {
   "alignment" : 8,
   "linker_set_key" : "_ZTIRKN7android8String1610StaticDataILm27EEE",
   "name" : "const android::String16::StaticData<27> &",
   "referenced_type" : "_ZTIKN7android8String1610StaticDataILm27EEE",
   "self_type" : "_ZTIRKN7android8String1610StaticDataILm27EEE",
   "size" : 8,
   "source_file" : "system/core/libutils/include/utils/String16.h"
  },
  {
   "alignment" : 8,
   "linker_set_key" : "_ZTIRKN7android8String1610StaticDataILm30EEE",
   "name" : "const android::String16::StaticData<30> &",
   "referenced_type" : "_ZTIKN7android8String1610StaticDataILm30EEE",
   "self_type" : "_ZTIRKN7android8String1610StaticDataILm30EEE",
   "size" : 8,
   "source_file" : "system/core/libutils/include/utils/String16.h"
  },
  {
   "alignment" : 8,
   "linker_set_key" : "_ZTIRKN7android8String1610StaticDataILm31EEE",
   "name" : "const android::String16::StaticData<31> &",
   "referenced_type" : "_ZTIKN7android8String1610StaticDataILm31EEE",
   "self_type" : "_ZTIRKN7android8String1610StaticDataILm31EEE",
   "size" : 8,
   "source_file" : "system/core/libutils/include/utils/String16.h"
  },
  {
   "alignment" : 8,
   "linker_set_key" : "_ZTIRKN7android8String1610StaticDataILm32EEE",
   "name" : "const android::String16::StaticData<32> &",
   "referenced_type" : "_ZTIKN7android8String1610StaticDataILm32EEE",
   "self_type" : "_ZTIRKN7android8String1610StaticDataILm32EEE",
   "size" : 8,
   "source_file" : "system/core/libutils/include/utils/String16.h"
  },
  {
   "alignment" : 8,
   "linker_set_key" : "_ZTIRKN7android8String1610StaticDataILm33EEE",
   "name" : "const android::String16::StaticData<33> &",
   "referenced_type" : "_ZTIKN7android8String1610StaticDataILm33EEE",
   "self_type" : "_ZTIRKN7android8String1610StaticDataILm33EEE",
   "size" : 8,
   "source_file" : "system/core/libutils/include/utils/String16.h"
  },
  {
   "alignment" : 8,
   "linker_set_key" : "_ZTIRKN7android8String1610StaticDataILm35EEE",
   "name" : "const android::String16::StaticData<35> &",
   "referenced_type" : "_ZTIKN7android8String1610StaticDataILm35EEE",
   "self_type" : "_ZTIRKN7android8String1610StaticDataILm35EEE",
   "size" : 8,
   "source_file" : "system/core/libutils/include/utils/String16.h"
  },
  {
   "alignment" : 8,
   "linker_set_key" : "_ZTIRKN7android8String1610StaticDataILm36EEE",
   "name" : "const android::String16::StaticData<36> &",
   "referenced_type" : "_ZTIKN7android8String1610StaticDataILm36EEE",
   "self_type" : "_ZTIRKN7android8String1610StaticDataILm36EEE",
   "size" : 8,
   "source_file" : "system/core/libutils/include/utils/String16.h"
  },
  {
   "alignment" : 8,
   "linker_set_key" : "_ZTIRKN7android8String1610StaticDataILm38EEE",
   "name" : "const android::String16::StaticData<38> &",
   "referenced_type" : "_ZTIKN7android8String1610StaticDataILm38EEE",
   "self_type" : "_ZTIRKN7android8String1610StaticDataILm38EEE",
   "size" : 8,
   "source_file" : "system/core/libutils/include/utils/String16.h"
  },
  {
   "alignment" : 8,
   "linker_set_key" : "_ZTIRKN7android8String1610StaticDataILm39EEE",
   "name" : "const android::String16::StaticData<39> &",
   "referenced_type" : "_ZTIKN7android8String1610StaticDataILm39EEE",
   "self_type" : "_ZTIRKN7android8String1610StaticDataILm39EEE",
   "size" : 8,
   "source_file" : "system/core/libutils/include/utils/String16.h"
  },
  {
   "alignment" : 8,
   "linker_set_key" : "_ZTIRKN7android8String1610StaticDataILm40EEE",
   "name" : "const android::String16::StaticData<40> &",
   "referenced_type" : "_ZTIKN7android8String1610StaticDataILm40EEE",
   "self_type" : "_ZTIRKN7android8String1610StaticDataILm40EEE",
   "size" : 8,
   "source_file" : "system/core/libutils/include/utils/String16.h"
  },
  {
   "alignment" : 8,
   "linker_set_key" : "_ZTIRKN7android8String1610StaticDataILm43EEE",
   "name" : "const android::String16::StaticData<43> &",
   "referenced_type" : "_ZTIKN7android8String1610StaticDataILm43EEE",
   "self_type" : "_ZTIRKN7android8String1610StaticDataILm43EEE",
   "size" : 8,
   "source_file" : "system/core/libutils/include/utils/String16.h"
  },
  {
   "alignment" : 8,
   "linker_set_key" : "_ZTIRKN7android8String16E",
   "name" : "const android::String16 &",
   "referenced_type" : "_ZTIKN7android8String16E",
   "self_type" : "_ZTIRKN7android8String16E",
   "size" : 8,
   "source_file" : "system/core/libutils/include/utils/String16.h"
  },
  {
   "alignment" : 8,
   "linker_set_key" : "_ZTIRKNSt3__112basic_stringIcNS_11char_traitsIcEENS_9allocatorIcEEEE",
   "name" : "const std::basic_string<char, std::char_traits<char>, std::allocator<char>> &",
   "referenced_type" : "_ZTIKNSt3__112basic_stringIcNS_11char_traitsIcEENS_9allocatorIcEEEE",
   "self_type" : "_ZTIRKNSt3__112basic_stringIcNS_11char_traitsIcEENS_9allocatorIcEEEE",
   "size" : 8,
   "source_file" : "frameworks/native/libs/binder/include/binder/Parcel.h"
  },
  {
   "alignment" : 8,
   "linker_set_key" : "_ZTIRKNSt3__16vectorIN7android5media15AudioPortConfigENS_9allocatorIS3_EEEE",
   "name" : "const std::vector<android::media::AudioPortConfig, std::allocator<android::media::AudioPortConfig>> &",
   "referenced_type" : "_ZTIKNSt3__16vectorIN7android5media15AudioPortConfigENS_9allocatorIS3_EEEE",
   "self_type" : "_ZTIRKNSt3__16vectorIN7android5media15AudioPortConfigENS_9allocatorIS3_EEEE",
   "size" : 8,
   "source_file" : "frameworks/native/libs/binder/ndk/include_cpp/android/binder_to_string.h"
  },
  {
   "alignment" : 8,
   "linker_set_key" : "_ZTIRKNSt3__16vectorIN7android5media15AudioStreamTypeENS_9allocatorIS3_EEEE",
   "name" : "const std::vector<android::media::AudioStreamType, std::allocator<android::media::AudioStreamType>> &",
   "referenced_type" : "_ZTIKNSt3__16vectorIN7android5media15AudioStreamTypeENS_9allocatorIS3_EEEE",
   "self_type" : "_ZTIRKNSt3__16vectorIN7android5media15AudioStreamTypeENS_9allocatorIS3_EEEE",
   "size" : 8,
   "source_file" : "frameworks/native/libs/binder/ndk/include_cpp/android/binder_to_string.h"
  },
  {
   "alignment" : 8,
   "linker_set_key" : "_ZTIRKNSt3__16vectorIN7android5media16SharedFileRegionENS_9allocatorIS3_EEEE",
   "name" : "const std::vector<android::media::SharedFileRegion, std::allocator<android::media::SharedFileRegion>> &",
   "referenced_type" : "_ZTIKNSt3__16vectorIN7android5media16SharedFileRegionENS_9allocatorIS3_EEEE",
   "self_type" : "_ZTIRKNSt3__16vectorIN7android5media16SharedFileRegionENS_9allocatorIS3_EEEE",
   "size" : 8,
   "source_file" : "frameworks/native/libs/binder/ndk/include_cpp/android/binder_to_string.h"
  },
  {
   "alignment" : 8,
   "linker_set_key" : "_ZTIRKNSt3__16vectorIN7android5media17AudioAttributesExENS_9allocatorIS3_EEEE",
   "name" : "const std::vector<android::media::AudioAttributesEx, std::allocator<android::media::AudioAttributesEx>> &",
   "referenced_type" : "_ZTIKNSt3__16vectorIN7android5media17AudioAttributesExENS_9allocatorIS3_EEEE",
   "self_type" : "_ZTIRKNSt3__16vectorIN7android5media17AudioAttributesExENS_9allocatorIS3_EEEE",
   "size" : 8,
   "source_file" : "frameworks/native/libs/binder/ndk/include_cpp/android/binder_to_string.h"
  },
  {
   "alignment" : 8,
   "linker_set_key" : "_ZTIRKNSt3__16vectorIN7android5media23AudioAttributesInternalENS_9allocatorIS3_EEEE",
   "name" : "const std::vector<android::media::AudioAttributesInternal, std::allocator<android::media::AudioAttributesInternal>> &",
   "referenced_type" : "_ZTIKNSt3__16vectorIN7android5media23AudioAttributesInternalENS_9allocatorIS3_EEEE",
   "self_type" : "_ZTIRKNSt3__16vectorIN7android5media23AudioAttributesInternalENS_9allocatorIS3_EEEE",
   "size" : 8,
   "source_file" : "frameworks/native/libs/binder/ndk/include_cpp/android/binder_to_string.h"
  },
  {
   "alignment" : 8,
   "linker_set_key" : "_ZTIRKNSt3__16vectorIN7android7content22AttributionSourceStateENS_9allocatorIS3_EEEE",
   "name" : "const std::vector<android::content::AttributionSourceState, std::allocator<android::content::AttributionSourceState>> &",
   "referenced_type" : "_ZTIKNSt3__16vectorIN7android7content22AttributionSourceStateENS_9allocatorIS3_EEEE",
   "self_type" : "_ZTIRKNSt3__16vectorIN7android7content22AttributionSourceStateENS_9allocatorIS3_EEEE",
   "size" : 8,
   "source_file" : "frameworks/native/libs/binder/ndk/include_cpp/android/binder_to_string.h"
  },
  {
   "alignment" : 8,
   "linker_set_key" : "_ZTIRKNSt3__16vectorINS_8optionalINS_12basic_stringIcNS_11char_traitsIcEENS_9allocatorIcEEEEEENS5_IS8_EEEE",
   "name" : "const std::vector<std::optional<std::basic_string<char, std::char_traits<char>, std::allocator<char>>>, std::allocator<std::optional<std::basic_string<char, std::char_traits<char>, std::allocator<char>>>>> &",
   "referenced_type" : "_ZTIKNSt3__16vectorINS_8optionalINS_12basic_stringIcNS_11char_traitsIcEENS_9allocatorIcEEEEEENS5_IS8_EEEE",
   "self_type" : "_ZTIRKNSt3__16vectorINS_8optionalINS_12basic_stringIcNS_11char_traitsIcEENS_9allocatorIcEEEEEENS5_IS8_EEEE",
   "size" : 8,
   "source_file" : "frameworks/native/libs/binder/ndk/include_cpp/android/binder_to_string.h"
  },
  {
   "alignment" : 8,
   "linker_set_key" : "_ZTIRKNSt3__16vectorIfNS_9allocatorIfEEEE",
   "name" : "const std::vector<float, std::allocator<float>> &",
   "referenced_type" : "_ZTIKNSt3__16vectorIfNS_9allocatorIfEEEE",
   "self_type" : "_ZTIRKNSt3__16vectorIfNS_9allocatorIfEEEE",
   "size" : 8,
   "source_file" : "frameworks/native/libs/binder/ndk/include_cpp/android/binder_to_string.h"
  },
  {
   "alignment" : 8,
   "linker_set_key" : "_ZTIRKNSt3__16vectorIhNS_9allocatorIhEEEE",
   "name" : "const std::vector<unsigned char, std::allocator<unsigned char>> &",
   "referenced_type" : "_ZTIKNSt3__16vectorIhNS_9allocatorIhEEEE",
   "self_type" : "_ZTIRKNSt3__16vectorIhNS_9allocatorIhEEEE",
   "size" : 8,
   "source_file" : "frameworks/native/libs/binder/ndk/include_cpp/android/binder_to_string.h"
  },
  {
   "alignment" : 8,
   "linker_set_key" : "_ZTIRKNSt3__16vectorIiNS_9allocatorIiEEEE",
   "name" : "const std::vector<int, std::allocator<int>> &",
   "referenced_type" : "_ZTIKNSt3__16vectorIiNS_9allocatorIiEEEE",
   "self_type" : "_ZTIRKNSt3__16vectorIiNS_9allocatorIiEEEE",
   "size" : 8,
   "source_file" : "frameworks/native/libs/binder/ndk/include_cpp/android/binder_to_string.h"
  },
  {
   "alignment" : 8,
   "linker_set_key" : "_ZTIRKNSt3__18optionalIN7android5media18InterpolatorConfigEEE",
   "name" : "const std::optional<android::media::InterpolatorConfig> &",
   "referenced_type" : "_ZTIKNSt3__18optionalIN7android5media18InterpolatorConfigEEE",
   "self_type" : "_ZTIRKNSt3__18optionalIN7android5media18InterpolatorConfigEEE",
   "size" : 8,
   "source_file" : "frameworks/native/libs/binder/ndk/include_cpp/android/binder_to_string.h"
  },
  {
   "alignment" : 8,
   "linker_set_key" : "_ZTIRKNSt3__18optionalINS_12basic_stringIcNS_11char_traitsIcEENS_9allocatorIcEEEEEE",
   "name" : "const std::optional<std::basic_string<char, std::char_traits<char>, std::allocator<char>>> &",
   "referenced_type" : "_ZTIKNSt3__18optionalINS_12basic_stringIcNS_11char_traitsIcEENS_9allocatorIcEEEEEE",
   "self_type" : "_ZTIRKNSt3__18optionalINS_12basic_stringIcNS_11char_traitsIcEENS_9allocatorIcEEEEEE",
   "size" : 8,
   "source_file" : "frameworks/native/libs/binder/ndk/include_cpp/android/binder_to_string.h"
  },
  {
   "alignment" : 8,
   "linker_set_key" : "_ZTIRKNSt3__18optionalINS_6vectorINS0_INS_12basic_stringIcNS_11char_traitsIcEENS_9allocatorIcEEEEEENS5_IS8_EEEEEE",
   "name" : "const std::optional<std::vector<std::optional<std::basic_string<char, std::char_traits<char>, std::allocator<char>>>, std::allocator<std::optional<std::basic_string<char, std::char_traits<char>, std::allocator<char>>>>>> &",
   "referenced_type" : "_ZTIKNSt3__18optionalINS_6vectorINS0_INS_12basic_stringIcNS_11char_traitsIcEENS_9allocatorIcEEEEEENS5_IS8_EEEEEE",
   "self_type" : "_ZTIRKNSt3__18optionalINS_6vectorINS0_INS_12basic_stringIcNS_11char_traitsIcEENS_9allocatorIcEEEEEENS5_IS8_EEEEEE",
   "size" : 8,
   "source_file" : "frameworks/native/libs/binder/ndk/include_cpp/android/binder_to_string.h"
  },
  {
   "alignment" : 8,
   "linker_set_key" : "_ZTIRKPKc",
   "name" : "const char *const &",
   "referenced_type" : "_ZTIKPKc",
   "self_type" : "_ZTIRKPKc",
   "size" : 8,
   "source_file" : "frameworks/native/libs/binder/include/binder/TextOutput.h"
  },
  {
   "alignment" : 8,
   "linker_set_key" : "_ZTIRKa",
   "name" : "const signed char &",
   "referenced_type" : "_ZTIKa",
   "self_type" : "_ZTIRKa",
   "size" : 8,
   "source_file" : "system/core/libutils/include/utils/TypeHelpers.h"
  },
  {
   "alignment" : 8,
   "linker_set_key" : "_ZTIRKb",
   "name" : "const bool &",
   "referenced_type" : "_ZTIKb",
   "self_type" : "_ZTIRKb",
   "size" : 8,
   "source_file" : "system/core/libutils/include/utils/TypeHelpers.h"
  },
  {
   "alignment" : 8,
   "linker_set_key" : "_ZTIRKc",
   "name" : "const char &",
   "referenced_type" : "_ZTIKc",
   "self_type" : "_ZTIRKc",
   "size" : 8,
   "source_file" : "frameworks/native/libs/binder/include/binder/TextOutput.h"
  },
  {
   "alignment" : 8,
   "linker_set_key" : "_ZTIRKd",
   "name" : "const double &",
   "referenced_type" : "_ZTIKd",
   "self_type" : "_ZTIRKd",
   "size" : 8,
   "source_file" : "system/core/libutils/include/utils/TypeHelpers.h"
  },
  {
   "alignment" : 8,
   "linker_set_key" : "_ZTIRKf",
   "name" : "const float &",
   "referenced_type" : "_ZTIKf",
   "self_type" : "_ZTIRKf",
   "size" : 8,
   "source_file" : "system/core/libutils/include/utils/TypeHelpers.h"
  },
  {
   "alignment" : 8,
   "linker_set_key" : "_ZTIRKh",
   "name" : "const unsigned char &",
   "referenced_type" : "_ZTIKh",
   "self_type" : "_ZTIRKh",
   "size" : 8,
   "source_file" : "system/core/libutils/include/utils/TypeHelpers.h"
  },
  {
   "alignment" : 8,
   "linker_set_key" : "_ZTIRKi",
   "name" : "const int &",
   "referenced_type" : "_ZTIKi",
   "self_type" : "_ZTIRKi",
   "size" : 8,
   "source_file" : "system/core/libutils/include/utils/TypeHelpers.h"
  },
  {
   "alignment" : 8,
   "linker_set_key" : "_ZTIRKj",
   "name" : "const unsigned int &",
   "referenced_type" : "_ZTIKj",
   "self_type" : "_ZTIRKj",
   "size" : 8,
   "source_file" : "system/core/libutils/include/utils/TypeHelpers.h"
  },
  {
   "alignment" : 8,
   "linker_set_key" : "_ZTIRKl",
   "name" : "const long &",
   "referenced_type" : "_ZTIKl",
   "self_type" : "_ZTIRKl",
   "size" : 8,
   "source_file" : "system/core/libutils/include/utils/TypeHelpers.h"
  },
  {
   "alignment" : 8,
   "linker_set_key" : "_ZTIRKm",
   "name" : "const unsigned long &",
   "referenced_type" : "_ZTIKm",
   "self_type" : "_ZTIRKm",
   "size" : 8,
   "source_file" : "system/core/libutils/include/utils/TypeHelpers.h"
  },
  {
   "alignment" : 8,
   "linker_set_key" : "_ZTIRKs",
   "name" : "const short &",
   "referenced_type" : "_ZTIKs",
   "self_type" : "_ZTIRKs",
   "size" : 8,
   "source_file" : "system/core/libutils/include/utils/TypeHelpers.h"
  },
  {
   "alignment" : 8,
   "linker_set_key" : "_ZTIRKt",
   "name" : "const unsigned short &",
   "referenced_type" : "_ZTIKt",
   "self_type" : "_ZTIRKt",
   "size" : 8,
   "source_file" : "system/core/libutils/include/utils/TypeHelpers.h"
  },
  {
   "alignment" : 8,
   "linker_set_key" : "_ZTIRN7android10TextOutputE",
   "name" : "android::TextOutput &",
   "referenced_type" : "_ZTIN7android10TextOutputE",
   "self_type" : "_ZTIRN7android10TextOutputE",
   "size" : 8,
   "source_file" : "frameworks/native/libs/binder/include/binder/Parcel.h"
  },
  {
   "alignment" : 8,
   "linker_set_key" : "_ZTIRN7android16key_value_pair_tINS_7String8ES1_EE",
   "name" : "android::key_value_pair_t<android::String8, android::String8> &",
   "referenced_type" : "_ZTIN7android16key_value_pair_tINS_7String8ES1_EE",
   "self_type" : "_ZTIRN7android16key_value_pair_tINS_7String8ES1_EE",
   "size" : 8,
   "source_file" : "system/core/libutils/include/utils/TypeHelpers.h"
  },
  {
   "alignment" : 8,
   "linker_set_key" : "_ZTIRN7android16key_value_pair_tIiNS_2spINS_17AudioIoDescriptorEEEEE",
   "name" : "android::key_value_pair_t<int, android::sp<android::AudioIoDescriptor>> &",
   "referenced_type" : "_ZTIN7android16key_value_pair_tIiNS_2spINS_17AudioIoDescriptorEEEEE",
   "self_type" : "_ZTIRN7android16key_value_pair_tIiNS_2spINS_17AudioIoDescriptorEEEEE",
   "size" : 8,
   "source_file" : "system/core/libutils/include/utils/TypeHelpers.h"
  },
  {
   "alignment" : 8,
   "linker_set_key" : "_ZTIRN7android2os20ParcelFileDescriptorE",
   "name" : "android::os::ParcelFileDescriptor &",
   "referenced_type" : "_ZTIN7android2os20ParcelFileDescriptorE",
   "self_type" : "_ZTIRN7android2os20ParcelFileDescriptorE",
   "size" : 8,
   "source_file" : "frameworks/native/libs/binder/include/binder/ParcelFileDescriptor.h"
  },
  {
   "alignment" : 8,
   "linker_set_key" : "_ZTIRN7android2spINS_11AudioSystem17AudioPortCallbackEEE",
   "name" : "android::sp<android::AudioSystem::AudioPortCallback> &",
   "referenced_type" : "_ZTIN7android2spINS_11AudioSystem17AudioPortCallbackEEE",
   "self_type" : "_ZTIRN7android2spINS_11AudioSystem17AudioPortCallbackEEE",
   "size" : 8,
   "source_file" : "system/core/libutils/include/utils/StrongPointer.h"
  },
  {
   "alignment" : 8,
   "linker_set_key" : "_ZTIRN7android2spINS_11AudioSystem24AudioVolumeGroupCallbackEEE",
   "name" : "android::sp<android::AudioSystem::AudioVolumeGroupCallback> &",
   "referenced_type" : "_ZTIN7android2spINS_11AudioSystem24AudioVolumeGroupCallbackEEE",
   "self_type" : "_ZTIRN7android2spINS_11AudioSystem24AudioVolumeGroupCallbackEEE",
   "size" : 8,
   "source_file" : "system/core/libutils/include/utils/StrongPointer.h"
  },
  {
   "alignment" : 8,
   "linker_set_key" : "_ZTIRN7android2spINS_17AudioIoDescriptorEEE",
   "name" : "android::sp<android::AudioIoDescriptor> &",
   "referenced_type" : "_ZTIN7android2spINS_17AudioIoDescriptorEEE",
   "self_type" : "_ZTIRN7android2spINS_17AudioIoDescriptorEEE",
   "size" : 8,
   "source_file" : "system/core/libutils/include/utils/StrongPointer.h"
  },
  {
   "alignment" : 8,
   "linker_set_key" : "_ZTIRN7android2spINS_5media12VolumeShaper9OperationEEE",
   "name" : "android::sp<android::media::VolumeShaper::Operation> &",
   "referenced_type" : "_ZTIN7android2spINS_5media12VolumeShaper9OperationEEE",
   "self_type" : "_ZTIRN7android2spINS_5media12VolumeShaper9OperationEEE",
   "size" : 8,
   "source_file" : "system/core/libutils/include/utils/StrongPointer.h"
  },
  {
   "alignment" : 8,
   "linker_set_key" : "_ZTIRN7android2spINS_7IBinderEEE",
   "name" : "android::sp<android::IBinder> &",
   "referenced_type" : "_ZTIN7android2spINS_7IBinderEEE",
   "self_type" : "_ZTIRN7android2spINS_7IBinderEEE",
   "size" : 8,
   "source_file" : "system/core/libutils/include/utils/StrongPointer.h"
  },
  {
   "alignment" : 8,
   "linker_set_key" : "_ZTIRN7android4base10unexpectedIiEE",
   "name" : "android::base::unexpected<int> &",
   "referenced_type" : "_ZTIN7android4base10unexpectedIiEE",
   "self_type" : "_ZTIRN7android4base10unexpectedIiEE",
   "size" : 8,
   "source_file" : "system/libbase/include/android-base/expected.h"
  },
  {
   "alignment" : 8,
   "linker_set_key" : "_ZTIRN7android4base14unique_fd_implINS0_13DefaultCloserEEE",
   "name" : "android::base::unique_fd_impl<android::base::DefaultCloser> &",
   "referenced_type" : "_ZTIN7android4base14unique_fd_implINS0_13DefaultCloserEEE",
   "self_type" : "_ZTIRN7android4base14unique_fd_implINS0_13DefaultCloserEEE",
   "size" : 8,
   "source_file" : "system/libbase/include/android-base/unique_fd.h"
  },
  {
   "alignment" : 8,
   "linker_set_key" : "_ZTIRN7android4base8expectedINS_5media14MicrophoneInfoEiEE",
   "name" : "android::base::expected<android::media::MicrophoneInfo, int> &",
   "referenced_type" : "_ZTIN7android4base8expectedINS_5media14MicrophoneInfoEiEE",
   "self_type" : "_ZTIRN7android4base8expectedINS_5media14MicrophoneInfoEiEE",
   "size" : 8,
   "source_file" : "system/libbase/include/android-base/expected.h"
  },
  {
   "alignment" : 8,
   "linker_set_key" : "_ZTIRN7android4base8expectedINS_5media18MicrophoneInfoDataEiEE",
   "name" : "android::base::expected<android::media::MicrophoneInfoData, int> &",
   "referenced_type" : "_ZTIN7android4base8expectedINS_5media18MicrophoneInfoDataEiEE",
   "self_type" : "_ZTIRN7android4base8expectedINS_5media18MicrophoneInfoDataEiEE",
   "size" : 8,
   "source_file" : "system/libbase/include/android-base/expected.h"
  },
  {
   "alignment" : 8,
   "linker_set_key" : "_ZTIRN7android4base8expectedIiiEE",
   "name" : "android::base::expected<int, int> &",
   "referenced_type" : "_ZTIN7android4base8expectedIiiEE",
   "self_type" : "_ZTIRN7android4base8expectedIiiEE",
   "size" : 8,
   "source_file" : "system/libbase/include/android-base/expected.h"
  },
  {
   "alignment" : 8,
   "linker_set_key" : "_ZTIRN7android4base8expectedIjiEE",
   "name" : "android::base::expected<unsigned int, int> &",
   "referenced_type" : "_ZTIN7android4base8expectedIjiEE",
   "self_type" : "_ZTIRN7android4base8expectedIjiEE",
   "size" : 8,
   "source_file" : "system/libbase/include/android-base/expected.h"
  },
  {
   "alignment" : 8,
   "linker_set_key" : "_ZTIRN7android5MutexE",
   "name" : "android::Mutex &",
   "referenced_type" : "_ZTIN7android5MutexE",
   "self_type" : "_ZTIRN7android5MutexE",
   "size" : 8,
   "source_file" : "system/core/libutils/include/utils/Mutex.h"
  },
  {
   "alignment" : 8,
   "linker_set_key" : "_ZTIRN7android6binder6StatusE",
   "name" : "android::binder::Status &",
   "referenced_type" : "_ZTIN7android6binder6StatusE",
   "self_type" : "_ZTIRN7android6binder6StatusE",
   "size" : 8,
   "source_file" : "frameworks/native/libs/binder/include/binder/Status.h"
  },
  {
   "alignment" : 8,
   "linker_set_key" : "_ZTIRN7android7HexDumpE",
   "name" : "android::HexDump &",
   "referenced_type" : "_ZTIN7android7HexDumpE",
   "self_type" : "_ZTIRN7android7HexDumpE",
   "size" : 8,
   "source_file" : "frameworks/native/libs/binder/include/binder/TextOutput.h"
  },
  {
   "alignment" : 8,
   "linker_set_key" : "_ZTIRN7android7IBinderE",
   "name" : "android::IBinder &",
   "referenced_type" : "_ZTIN7android7IBinderE",
   "self_type" : "_ZTIRN7android7IBinderE",
   "size" : 8,
   "source_file" : "system/core/libutils/include/utils/StrongPointer.h"
  },
  {
   "alignment" : 8,
   "linker_set_key" : "_ZTIRN7android7String8E",
   "name" : "android::String8 &",
   "referenced_type" : "_ZTIN7android7String8E",
   "self_type" : "_ZTIRN7android7String8E",
   "size" : 8,
   "source_file" : "system/core/libutils/include/utils/String8.h"
  },
  {
   "alignment" : 8,
   "linker_set_key" : "_ZTIRN7android8String16E",
   "name" : "android::String16 &",
   "referenced_type" : "_ZTIN7android8String16E",
   "self_type" : "_ZTIRN7android8String16E",
   "size" : 8,
   "source_file" : "system/core/libutils/include/utils/String16.h"
  },
  {
   "alignment" : 8,
   "linker_set_key" : "_ZTIRNSt3__113basic_ostreamIcNS_11char_traitsIcEEEE",
   "name" : "std::basic_ostream<char, std::char_traits<char>> &",
   "referenced_type" : "_ZTINSt3__113basic_ostreamIcNS_11char_traitsIcEEEE",
   "self_type" : "_ZTIRNSt3__113basic_ostreamIcNS_11char_traitsIcEEEE",
   "size" : 8,
   "source_file" : "frameworks/native/libs/binder/include/binder/TextOutput.h"
  },
  {
   "alignment" : 8,
   "linker_set_key" : "_ZTIRNSt3__15mutexE",
   "name" : "std::mutex &",
   "referenced_type" : "_ZTINSt3__15mutexE",
   "self_type" : "_ZTIRNSt3__15mutexE",
   "size" : 8,
   "source_file" : "system/libbase/include/android-base/thread_annotations.h"
  },
  {
   "alignment" : 8,
   "linker_set_key" : "_ZTIRPKv",
   "name" : "const void *&",
   "referenced_type" : "_ZTIPKv",
   "self_type" : "_ZTIRPKv",
   "size" : 8,
   "source_file" : "system/core/libutils/include/utils/Flattenable.h"
  },
  {
   "alignment" : 8,
   "linker_set_key" : "_ZTIRPv",
   "name" : "void *&",
   "referenced_type" : "_ZTIPv",
   "self_type" : "_ZTIRPv",
   "size" : 8,
   "source_file" : "system/core/libutils/include/utils/Flattenable.h"
  },
  {
   "alignment" : 8,
   "linker_set_key" : "_ZTIRi",
   "name" : "int &",
   "referenced_type" : "_ZTIi",
   "self_type" : "_ZTIRi",
   "size" : 8,
   "source_file" : "system/libbase/include/android-base/expected.h"
  },
  {
   "alignment" : 8,
   "linker_set_key" : "_ZTIRj",
   "name" : "unsigned int &",
   "referenced_type" : "_ZTIj",
   "self_type" : "_ZTIRj",
   "size" : 8,
   "source_file" : "system/libbase/include/android-base/expected.h"
  },
  {
   "alignment" : 8,
   "linker_set_key" : "_ZTIRm",
   "name" : "unsigned long &",
   "referenced_type" : "_ZTIm",
   "self_type" : "_ZTIRm",
   "size" : 8,
   "source_file" : "system/core/libutils/include/utils/Flattenable.h"
  }
 ],
 "pointer_types" :
 [
  {
   "alignment" : 8,
   "linker_set_key" : "_ZTIP18AAudioStreamStruct",
   "name" : "AAudioStreamStruct *",
   "referenced_type" : "_ZTI18AAudioStreamStruct",
   "self_type" : "_ZTIP18AAudioStreamStruct",
   "size" : 8,
   "source_file" : "frameworks/av/media/libaaudio/include/aaudio/AAudio.h"
  },
  {
   "alignment" : 8,
   "linker_set_key" : "_ZTIP18android_flex_plane",
   "name" : "android_flex_plane *",
   "referenced_type" : "_ZTI18android_flex_plane",
   "self_type" : "_ZTIP18android_flex_plane",
   "size" : 8,
   "source_file" : "system/core/libsystem/include/system/graphics.h"
  },
  {
   "alignment" : 8,
   "linker_set_key" : "_ZTIP25AAudioStreamBuilderStruct",
   "name" : "AAudioStreamBuilderStruct *",
   "referenced_type" : "_ZTI25AAudioStreamBuilderStruct",
   "self_type" : "_ZTIP25AAudioStreamBuilderStruct",
   "size" : 8,
   "source_file" : "frameworks/av/media/libaaudio/include/aaudio/AAudio.h"
  },
  {
   "alignment" : 8,
   "linker_set_key" : "_ZTIP3DIR",
   "name" : "DIR *",
   "referenced_type" : "_ZTI3DIR",
   "self_type" : "_ZTIP3DIR",
   "size" : 8,
   "source_file" : "system/libbase/include/android-base/unique_fd.h"
  },
  {
   "alignment" : 8,
   "linker_set_key" : "_ZTIP7__sFILE",
   "name" : "__sFILE *",
   "referenced_type" : "_ZTI7__sFILE",
   "self_type" : "_ZTIP7__sFILE",
   "size" : 8,
   "source_file" : "system/libbase/include/android-base/unique_fd.h"
  },
  {
   "alignment" : 8,
   "linker_set_key" : "_ZTIP8log_time",
   "name" : "log_time *",
   "referenced_type" : "_ZTI8log_time",
   "self_type" : "_ZTIP8log_time",
   "size" : 8,
   "source_file" : "system/logging/liblog/include/log/log_time.h"
  },
  {
   "alignment" : 8,
   "linker_set_key" : "_ZTIPDs",
   "name" : "char16_t *",
   "referenced_type" : "_ZTIDs",
   "self_type" : "_ZTIPDs",
   "size" : 8,
   "source_file" : "frameworks/native/libs/binder/include/binder/Parcel.h"
  },
  {
   "alignment" : 8,
   "linker_set_key" : "_ZTIPFRN7android10TextOutputES1_E",
   "name" : "android::TextOutput &(*)(android::TextOutput &)",
   "referenced_type" : "_ZTIFRN7android10TextOutputES1_E",
   "self_type" : "_ZTIPFRN7android10TextOutputES1_E",
   "size" : 8,
   "source_file" : "frameworks/native/libs/binder/include/binder/TextOutput.h"
  },
  {
   "alignment" : 8,
   "linker_set_key" : "_ZTIPFRNSt3__113basic_ostreamIcNS_11char_traitsIcEEEES4_E",
   "name" : "std::__1::basic_ostream<char> &(*)(std::__1::basic_ostream<char> &)",
   "referenced_type" : "_ZTIFRNSt3__113basic_ostreamIcNS_11char_traitsIcEEEES4_E",
   "self_type" : "_ZTIPFRNSt3__113basic_ostreamIcNS_11char_traitsIcEEEES4_E",
   "size" : 8,
   "source_file" : "frameworks/native/libs/binder/include/binder/TextOutput.h"
  },
  {
   "alignment" : 8,
   "linker_set_key" : "_ZTIPFiP18AAudioStreamStructPvS1_iE",
   "name" : "int (*)(AAudioStreamStruct *, void *, void *, int)",
   "referenced_type" : "_ZTIFiP18AAudioStreamStructPvS1_iE",
   "self_type" : "_ZTIPFiP18AAudioStreamStructPvS1_iE",
   "size" : 8,
   "source_file" : "frameworks/av/media/libaaudio/include/aaudio/AAudio.h"
  },
  {
   "alignment" : 8,
   "linker_set_key" : "_ZTIPFvP18AAudioStreamStructPviE",
   "name" : "void (*)(AAudioStreamStruct *, void *, int)",
   "referenced_type" : "_ZTIFvP18AAudioStreamStructPviE",
   "self_type" : "_ZTIPFvP18AAudioStreamStructPviE",
   "size" : 8,
   "source_file" : "frameworks/av/media/libaaudio/include/aaudio/AAudio.h"
  },
  {
   "alignment" : 8,
   "linker_set_key" : "_ZTIPFvPN7android6ParcelEPKhmPKymE",
   "name" : "void (*)(android::Parcel *, const unsigned char *, unsigned long, const unsigned long long *, unsigned long)",
   "referenced_type" : "_ZTIFvPN7android6ParcelEPKhmPKymE",
   "self_type" : "_ZTIPFvPN7android6ParcelEPKhmPKymE",
   "size" : 8,
   "source_file" : "frameworks/native/libs/binder/include/binder/Parcel.h"
  },
  {
   "alignment" : 8,
   "linker_set_key" : "_ZTIPK8log_time",
   "name" : "const log_time *",
   "referenced_type" : "_ZTIK8log_time",
   "self_type" : "_ZTIPK8log_time",
   "size" : 8,
   "source_file" : "system/logging/liblog/include/log/log_time.h"
  },
  {
   "alignment" : 8,
   "linker_set_key" : "_ZTIPKDs",
   "name" : "const char16_t *",
   "referenced_type" : "_ZTIKDs",
   "self_type" : "_ZTIPKDs",
   "size" : 8,
   "source_file" : "system/core/libutils/include/utils/String16.h"
  },
  {
   "alignment" : 8,
   "linker_set_key" : "_ZTIPKN6aaudio10RingBufferE",
   "name" : "const aaudio::RingBuffer *",
   "referenced_type" : "_ZTIKN6aaudio10RingBufferE",
   "self_type" : "_ZTIPKN6aaudio10RingBufferE",
   "size" : 8,
   "source_file" : "out/soong/.intermediates/frameworks/av/media/libaaudio/src/aaudio-aidl-cpp-source/gen/include/aaudio/RingBuffer.h"
  },
  {
   "alignment" : 8,
   "linker_set_key" : "_ZTIPKN6aaudio12SharedRegionE",
   "name" : "const aaudio::SharedRegion *",
   "referenced_type" : "_ZTIKN6aaudio12SharedRegionE",
   "self_type" : "_ZTIPKN6aaudio12SharedRegionE",
   "size" : 8,
   "source_file" : "out/soong/.intermediates/frameworks/av/media/libaaudio/src/aaudio-aidl-cpp-source/gen/include/aaudio/SharedRegion.h"
  },
  {
   "alignment" : 8,
   "linker_set_key" : "_ZTIPKN6aaudio13StreamRequestE",
   "name" : "const aaudio::StreamRequest *",
   "referenced_type" : "_ZTIKN6aaudio13StreamRequestE",
   "self_type" : "_ZTIPKN6aaudio13StreamRequestE",
   "size" : 8,
   "source_file" : "out/soong/.intermediates/frameworks/av/media/libaaudio/src/aaudio-aidl-cpp-source/gen/include/aaudio/StreamRequest.h"
  },
  {
   "alignment" : 8,
   "linker_set_key" : "_ZTIPKN6aaudio16StreamParametersE",
   "name" : "const aaudio::StreamParameters *",
   "referenced_type" : "_ZTIKN6aaudio16StreamParametersE",
   "self_type" : "_ZTIPKN6aaudio16StreamParametersE",
   "size" : 8,
   "source_file" : "out/soong/.intermediates/frameworks/av/media/libaaudio/src/aaudio-aidl-cpp-source/gen/include/aaudio/StreamParameters.h"
  },
  {
   "alignment" : 8,
   "linker_set_key" : "_ZTIPKN6aaudio8EndpointE",
   "name" : "const aaudio::Endpoint *",
   "referenced_type" : "_ZTIKN6aaudio8EndpointE",
   "self_type" : "_ZTIPKN6aaudio8EndpointE",
   "size" : 8,
   "source_file" : "out/soong/.intermediates/frameworks/av/media/libaaudio/src/aaudio-aidl-cpp-source/gen/include/aaudio/Endpoint.h"
  },
  {
   "alignment" : 8,
   "linker_set_key" : "_ZTIPKN7android10ParcelableE",
   "name" : "const android::Parcelable *",
   "referenced_type" : "_ZTIKN7android10ParcelableE",
   "self_type" : "_ZTIPKN7android10ParcelableE",
   "size" : 8,
   "source_file" : "frameworks/native/libs/binder/include/binder/Parcelable.h"
  },
  {
   "alignment" : 8,
   "linker_set_key" : "_ZTIPKN7android10VectorImplE",
   "name" : "const android::VectorImpl *",
   "referenced_type" : "_ZTIKN7android10VectorImplE",
   "self_type" : "_ZTIPKN7android10VectorImplE",
   "size" : 8,
   "source_file" : "system/core/libutils/include/utils/VectorImpl.h"
  },
  {
   "alignment" : 8,
   "linker_set_key" : "_ZTIPKN7android11BnInterfaceINS_5media19IAudioFlingerClientEEE",
   "name" : "const android::BnInterface<android::media::IAudioFlingerClient> *",
   "referenced_type" : "_ZTIKN7android11BnInterfaceINS_5media19IAudioFlingerClientEEE",
   "self_type" : "_ZTIPKN7android11BnInterfaceINS_5media19IAudioFlingerClientEEE",
   "size" : 8,
   "source_file" : "frameworks/native/libs/binder/include/binder/IInterface.h"
  },
  {
   "alignment" : 8,
   "linker_set_key" : "_ZTIPKN7android11BnInterfaceINS_5media25IAudioPolicyServiceClientEEE",
   "name" : "const android::BnInterface<android::media::IAudioPolicyServiceClient> *",
   "referenced_type" : "_ZTIKN7android11BnInterfaceINS_5media25IAudioPolicyServiceClientEEE",
   "self_type" : "_ZTIPKN7android11BnInterfaceINS_5media25IAudioPolicyServiceClientEEE",
   "size" : 8,
   "source_file" : "frameworks/native/libs/binder/include/binder/IInterface.h"
  },
  {
   "alignment" : 8,
   "linker_set_key" : "_ZTIPKN7android11KeyedVectorINS_7String8ES1_EE",
   "name" : "const android::KeyedVector<android::String8, android::String8> *",
   "referenced_type" : "_ZTIKN7android11KeyedVectorINS_7String8ES1_EE",
   "self_type" : "_ZTIPKN7android11KeyedVectorINS_7String8ES1_EE",
   "size" : 8,
   "source_file" : "system/core/libutils/include/utils/KeyedVector.h"
  },
  {
   "alignment" : 8,
   "linker_set_key" : "_ZTIPKN7android12SortedVectorINS_16key_value_pair_tINS_7String8ES2_EEEE",
   "name" : "const android::SortedVector<android::key_value_pair_t<android::String8, android::String8>> *",
   "referenced_type" : "_ZTIKN7android12SortedVectorINS_16key_value_pair_tINS_7String8ES2_EEEE",
   "self_type" : "_ZTIPKN7android12SortedVectorINS_16key_value_pair_tINS_7String8ES2_EEEE",
   "size" : 8,
   "source_file" : "system/core/libutils/include/utils/SortedVector.h"
  },
  {
   "alignment" : 8,
   "linker_set_key" : "_ZTIPKN7android12SortedVectorINS_16key_value_pair_tIiNS_2spINS_17AudioIoDescriptorEEEEEEE",
   "name" : "const android::SortedVector<android::key_value_pair_t<int, android::sp<android::AudioIoDescriptor>>> *",
   "referenced_type" : "_ZTIKN7android12SortedVectorINS_16key_value_pair_tIiNS_2spINS_17AudioIoDescriptorEEEEEEE",
   "self_type" : "_ZTIPKN7android12SortedVectorINS_16key_value_pair_tIiNS_2spINS_17AudioIoDescriptorEEEEEEE",
   "size" : 8,
   "source_file" : "system/core/libutils/include/utils/SortedVector.h"
  },
  {
   "alignment" : 8,
   "linker_set_key" : "_ZTIPKN7android16key_value_pair_tINS_7String8ES1_EE",
   "name" : "const android::key_value_pair_t<android::String8, android::String8> *",
   "referenced_type" : "_ZTIKN7android16key_value_pair_tINS_7String8ES1_EE",
   "self_type" : "_ZTIPKN7android16key_value_pair_tINS_7String8ES1_EE",
   "size" : 8,
   "source_file" : "system/core/libutils/include/utils/TypeHelpers.h"
  },
  {
   "alignment" : 8,
   "linker_set_key" : "_ZTIPKN7android16key_value_pair_tIiNS_2spINS_17AudioIoDescriptorEEEEE",
   "name" : "const android::key_value_pair_t<int, android::sp<android::AudioIoDescriptor>> *",
   "referenced_type" : "_ZTIKN7android16key_value_pair_tIiNS_2spINS_17AudioIoDescriptorEEEEE",
   "self_type" : "_ZTIPKN7android16key_value_pair_tIiNS_2spINS_17AudioIoDescriptorEEEEE",
   "size" : 8,
   "source_file" : "system/core/libutils/include/utils/TypeHelpers.h"
  },
  {
   "alignment" : 8,
   "linker_set_key" : "_ZTIPKN7android22AudioMixMatchCriterionE",
   "name" : "const android::AudioMixMatchCriterion *",
   "referenced_type" : "_ZTIKN7android22AudioMixMatchCriterionE",
   "self_type" : "_ZTIPKN7android22AudioMixMatchCriterionE",
   "size" : 8,
   "source_file" : "system/core/libutils/include/utils/TypeHelpers.h"
  },
  {
   "alignment" : 8,
   "linker_set_key" : "_ZTIPKN7android2os16ParcelableHolderE",
   "name" : "const android::os::ParcelableHolder *",
   "referenced_type" : "_ZTIKN7android2os16ParcelableHolderE",
   "self_type" : "_ZTIPKN7android2os16ParcelableHolderE",
   "size" : 8,
   "source_file" : "frameworks/native/libs/binder/include/binder/ParcelableHolder.h"
  },
  {
   "alignment" : 8,
   "linker_set_key" : "_ZTIPKN7android2os20ParcelFileDescriptorE",
   "name" : "const android::os::ParcelFileDescriptor *",
   "referenced_type" : "_ZTIKN7android2os20ParcelFileDescriptorE",
   "self_type" : "_ZTIPKN7android2os20ParcelFileDescriptorE",
   "size" : 8,
   "source_file" : "frameworks/native/libs/binder/include/binder/ParcelFileDescriptor.h"
  },
  {
   "alignment" : 8,
   "linker_set_key" : "_ZTIPKN7android2spIN6aaudio11AudioStream12MyPlayerBaseEEE",
   "name" : "const android::sp<aaudio::AudioStream::MyPlayerBase> *",
   "referenced_type" : "_ZTIKN7android2spIN6aaudio11AudioStream12MyPlayerBaseEEE",
   "self_type" : "_ZTIPKN7android2spIN6aaudio11AudioStream12MyPlayerBaseEEE",
   "size" : 8,
   "source_file" : "system/core/libutils/include/utils/StrongPointer.h"
  },
  {
   "alignment" : 8,
   "linker_set_key" : "_ZTIPKN7android2spINS_11AudioSystem17AudioPortCallbackEEE",
   "name" : "const android::sp<android::AudioSystem::AudioPortCallback> *",
   "referenced_type" : "_ZTIKN7android2spINS_11AudioSystem17AudioPortCallbackEEE",
   "self_type" : "_ZTIPKN7android2spINS_11AudioSystem17AudioPortCallbackEEE",
   "size" : 8,
   "source_file" : "system/core/libutils/include/utils/StrongPointer.h"
  },
  {
   "alignment" : 8,
   "linker_set_key" : "_ZTIPKN7android2spINS_11AudioSystem24AudioVolumeGroupCallbackEEE",
   "name" : "const android::sp<android::AudioSystem::AudioVolumeGroupCallback> *",
   "referenced_type" : "_ZTIKN7android2spINS_11AudioSystem24AudioVolumeGroupCallbackEEE",
   "self_type" : "_ZTIPKN7android2spINS_11AudioSystem24AudioVolumeGroupCallbackEEE",
   "size" : 8,
   "source_file" : "system/core/libutils/include/utils/StrongPointer.h"
  },
  {
   "alignment" : 8,
   "linker_set_key" : "_ZTIPKN7android2spINS_5media12VolumeShaper13ConfigurationEEE",
   "name" : "const android::sp<android::media::VolumeShaper::Configuration> *",
   "referenced_type" : "_ZTIKN7android2spINS_5media12VolumeShaper13ConfigurationEEE",
   "self_type" : "_ZTIPKN7android2spINS_5media12VolumeShaper13ConfigurationEEE",
   "size" : 8,
   "source_file" : "system/core/libutils/include/utils/StrongPointer.h"
  },
  {
   "alignment" : 8,
   "linker_set_key" : "_ZTIPKN7android2spINS_5media12VolumeShaper5StateEEE",
   "name" : "const android::sp<android::media::VolumeShaper::State> *",
   "referenced_type" : "_ZTIKN7android2spINS_5media12VolumeShaper5StateEEE",
   "self_type" : "_ZTIPKN7android2spINS_5media12VolumeShaper5StateEEE",
   "size" : 8,
   "source_file" : "system/core/libutils/include/utils/StrongPointer.h"
  },
  {
   "alignment" : 8,
   "linker_set_key" : "_ZTIPKN7android2spINS_5media12VolumeShaper9OperationEEE",
   "name" : "const android::sp<android::media::VolumeShaper::Operation> *",
   "referenced_type" : "_ZTIKN7android2spINS_5media12VolumeShaper9OperationEEE",
   "self_type" : "_ZTIPKN7android2spINS_5media12VolumeShaper9OperationEEE",
   "size" : 8,
   "source_file" : "system/core/libutils/include/utils/StrongPointer.h"
  },
  {
   "alignment" : 8,
   "linker_set_key" : "_ZTIPKN7android2spINS_7IBinderEEE",
   "name" : "const android::sp<android::IBinder> *",
   "referenced_type" : "_ZTIKN7android2spINS_7IBinderEEE",
   "self_type" : "_ZTIPKN7android2spINS_7IBinderEEE",
   "size" : 8,
   "source_file" : "system/core/libutils/include/utils/StrongPointer.h"
  },
  {
   "alignment" : 8,
   "linker_set_key" : "_ZTIPKN7android4base11borrowed_fdE",
   "name" : "const android::base::borrowed_fd *",
   "referenced_type" : "_ZTIKN7android4base11borrowed_fdE",
   "self_type" : "_ZTIPKN7android4base11borrowed_fdE",
   "size" : 8,
   "source_file" : "system/libbase/include/android-base/unique_fd.h"
  },
  {
   "alignment" : 8,
   "linker_set_key" : "_ZTIPKN7android4base14unique_fd_implINS0_13DefaultCloserEEE",
   "name" : "const android::base::unique_fd_impl<android::base::DefaultCloser> *",
   "referenced_type" : "_ZTIKN7android4base14unique_fd_implINS0_13DefaultCloserEEE",
   "self_type" : "_ZTIPKN7android4base14unique_fd_implINS0_13DefaultCloserEEE",
   "size" : 8,
   "source_file" : "system/libbase/include/android-base/unique_fd.h"
  },
  {
   "alignment" : 8,
   "linker_set_key" : "_ZTIPKN7android4base8expectedIiiEE",
   "name" : "const android::base::expected<int, int> *",
   "referenced_type" : "_ZTIKN7android4base8expectedIiiEE",
   "self_type" : "_ZTIPKN7android4base8expectedIiiEE",
   "size" : 8,
   "source_file" : "system/libbase/include/android-base/expected.h"
  },
  {
   "alignment" : 8,
   "linker_set_key" : "_ZTIPKN7android4base8expectedIjiEE",
   "name" : "const android::base::expected<unsigned int, int> *",
   "referenced_type" : "_ZTIKN7android4base8expectedIjiEE",
   "self_type" : "_ZTIPKN7android4base8expectedIjiEE",
   "size" : 8,
   "source_file" : "system/libbase/include/android-base/expected.h"
  },
  {
   "alignment" : 8,
   "linker_set_key" : "_ZTIPKN7android5media16SharedFileRegionE",
   "name" : "const android::media::SharedFileRegion *",
   "referenced_type" : "_ZTIKN7android5media16SharedFileRegionE",
   "self_type" : "_ZTIPKN7android5media16SharedFileRegionE",
   "size" : 8,
   "source_file" : "out/soong/.intermediates/frameworks/av/media/libshmem/shared-file-region-aidl-cpp-source/gen/include/android/media/SharedFileRegion.h"
  },
  {
   "alignment" : 8,
   "linker_set_key" : "_ZTIPKN7android6Parcel12ReadableBlobE",
   "name" : "const android::Parcel::ReadableBlob *",
   "referenced_type" : "_ZTIKN7android6Parcel12ReadableBlobE",
   "self_type" : "_ZTIPKN7android6Parcel12ReadableBlobE",
   "size" : 8,
   "source_file" : "frameworks/native/libs/binder/include/binder/Parcel.h"
  },
  {
   "alignment" : 8,
   "linker_set_key" : "_ZTIPKN7android6Parcel4BlobE",
   "name" : "const android::Parcel::Blob *",
   "referenced_type" : "_ZTIKN7android6Parcel4BlobE",
   "self_type" : "_ZTIPKN7android6Parcel4BlobE",
   "size" : 8,
   "source_file" : "frameworks/native/libs/binder/include/binder/Parcel.h"
  },
  {
   "alignment" : 8,
   "linker_set_key" : "_ZTIPKN7android6ParcelE",
   "name" : "const android::Parcel *",
   "referenced_type" : "_ZTIKN7android6ParcelE",
   "self_type" : "_ZTIPKN7android6ParcelE",
   "size" : 8,
   "source_file" : "frameworks/native/libs/binder/include/binder/Parcel.h"
  },
  {
   "alignment" : 8,
   "linker_set_key" : "_ZTIPKN7android6VectorINS_22AudioMixMatchCriterionEEE",
   "name" : "const android::Vector<android::AudioMixMatchCriterion> *",
   "referenced_type" : "_ZTIKN7android6VectorINS_22AudioMixMatchCriterionEEE",
   "self_type" : "_ZTIPKN7android6VectorINS_22AudioMixMatchCriterionEEE",
   "size" : 8,
   "source_file" : "system/core/libutils/include/utils/Vector.h"
  },
  {
   "alignment" : 8,
   "linker_set_key" : "_ZTIPKN7android6VectorINS_2spINS_11AudioSystem17AudioPortCallbackEEEEE",
   "name" : "const android::Vector<android::sp<android::AudioSystem::AudioPortCallback>> *",
   "referenced_type" : "_ZTIKN7android6VectorINS_2spINS_11AudioSystem17AudioPortCallbackEEEEE",
   "self_type" : "_ZTIPKN7android6VectorINS_2spINS_11AudioSystem17AudioPortCallbackEEEEE",
   "size" : 8,
   "source_file" : "system/core/libutils/include/utils/Vector.h"
  },
  {
   "alignment" : 8,
   "linker_set_key" : "_ZTIPKN7android6VectorINS_2spINS_11AudioSystem24AudioVolumeGroupCallbackEEEEE",
   "name" : "const android::Vector<android::sp<android::AudioSystem::AudioVolumeGroupCallback>> *",
   "referenced_type" : "_ZTIKN7android6VectorINS_2spINS_11AudioSystem24AudioVolumeGroupCallbackEEEEE",
   "self_type" : "_ZTIPKN7android6VectorINS_2spINS_11AudioSystem24AudioVolumeGroupCallbackEEEEE",
   "size" : 8,
   "source_file" : "system/core/libutils/include/utils/Vector.h"
  },
  {
   "alignment" : 8,
   "linker_set_key" : "_ZTIPKN7android6binder6StatusE",
   "name" : "const android::binder::Status *",
   "referenced_type" : "_ZTIKN7android6binder6StatusE",
   "self_type" : "_ZTIPKN7android6binder6StatusE",
   "size" : 8,
   "source_file" : "frameworks/native/libs/binder/include/binder/Status.h"
  },
  {
   "alignment" : 8,
   "linker_set_key" : "_ZTIPKN7android7HexDumpE",
   "name" : "const android::HexDump *",
   "referenced_type" : "_ZTIKN7android7HexDumpE",
   "self_type" : "_ZTIPKN7android7HexDumpE",
   "size" : 8,
   "source_file" : "frameworks/native/libs/binder/include/binder/TextOutput.h"
  },
  {
   "alignment" : 8,
   "linker_set_key" : "_ZTIPKN7android7RefBaseE",
   "name" : "const android::RefBase *",
   "referenced_type" : "_ZTIKN7android7RefBaseE",
   "self_type" : "_ZTIPKN7android7RefBaseE",
   "size" : 8,
   "source_file" : "system/core/libutils/include/utils/RefBase.h"
  },
  {
   "alignment" : 8,
   "linker_set_key" : "_ZTIPKN7android7String8E",
   "name" : "const android::String8 *",
   "referenced_type" : "_ZTIKN7android7String8E",
   "self_type" : "_ZTIPKN7android7String8E",
   "size" : 8,
   "source_file" : "system/core/libutils/include/utils/String8.h"
  },
  {
   "alignment" : 8,
   "linker_set_key" : "_ZTIPKN7android7content22AttributionSourceStateE",
   "name" : "const android::content::AttributionSourceState *",
   "referenced_type" : "_ZTIKN7android7content22AttributionSourceStateE",
   "self_type" : "_ZTIPKN7android7content22AttributionSourceStateE",
   "size" : 8,
   "source_file" : "out/soong/.intermediates/frameworks/native/libs/permission/framework-permission-aidl-cpp-source/gen/include/android/content/AttributionSourceState.h"
  },
  {
   "alignment" : 8,
   "linker_set_key" : "_ZTIPKN7android8String16E",
   "name" : "const android::String16 *",
   "referenced_type" : "_ZTIKN7android8String16E",
   "self_type" : "_ZTIPKN7android8String16E",
   "size" : 8,
   "source_file" : "system/core/libutils/include/utils/String16.h"
  },
  {
   "alignment" : 8,
   "linker_set_key" : "_ZTIPKN7android8TypeCodeE",
   "name" : "const android::TypeCode *",
   "referenced_type" : "_ZTIKN7android8TypeCodeE",
   "self_type" : "_ZTIPKN7android8TypeCodeE",
   "size" : 8,
   "source_file" : "frameworks/native/libs/binder/include/binder/TextOutput.h"
  },
  {
   "alignment" : 8,
   "linker_set_key" : "_ZTIPKN7android9BpRefBaseE",
   "name" : "const android::BpRefBase *",
   "referenced_type" : "_ZTIKN7android9BpRefBaseE",
   "self_type" : "_ZTIPKN7android9BpRefBaseE",
   "size" : 8,
   "source_file" : "frameworks/native/libs/binder/include/binder/Binder.h"
  },
  {
   "alignment" : 8,
   "linker_set_key" : "_ZTIPKPKc",
   "name" : "const char *const *",
   "referenced_type" : "_ZTIKPKc",
   "self_type" : "_ZTIPKPKc",
   "size" : 8,
   "source_file" : "frameworks/native/libs/binder/include/binder/IInterface.h"
  },
  {
   "alignment" : 8,
   "linker_set_key" : "_ZTIPKc",
   "name" : "const char *",
   "referenced_type" : "_ZTIKc",
   "self_type" : "_ZTIPKc",
   "size" : 8,
   "source_file" : "system/logging/liblog/include/android/log.h"
  },
  {
   "alignment" : 8,
   "linker_set_key" : "_ZTIPKh",
   "name" : "const unsigned char *",
   "referenced_type" : "_ZTIKh",
   "self_type" : "_ZTIPKh",
   "size" : 8,
   "source_file" : "frameworks/native/libs/binder/include/binder/Parcel.h"
  },
  {
   "alignment" : 8,
   "linker_set_key" : "_ZTIPKv",
   "name" : "const void *",
   "referenced_type" : "_ZTIKv",
   "self_type" : "_ZTIPKv",
   "size" : 8,
   "source_file" : "frameworks/av/media/libaaudio/include/aaudio/AAudio.h"
  },
  {
   "alignment" : 8,
   "linker_set_key" : "_ZTIPKy",
   "name" : "const unsigned long long *",
   "referenced_type" : "_ZTIKy",
   "self_type" : "_ZTIPKy",
   "size" : 8,
   "source_file" : "frameworks/native/libs/binder/include/binder/Parcel.h"
  },
  {
   "alignment" : 8,
   "linker_set_key" : "_ZTIPN6aaudio11AudioStream12MyPlayerBaseE",
   "name" : "aaudio::AudioStream::MyPlayerBase *",
   "referenced_type" : "_ZTIN6aaudio11AudioStream12MyPlayerBaseE",
   "self_type" : "_ZTIPN6aaudio11AudioStream12MyPlayerBaseE",
   "size" : 8,
   "source_file" : "system/core/libutils/include/utils/StrongPointer.h"
  },
  {
   "alignment" : 8,
   "linker_set_key" : "_ZTIPN6aaudio11AudioStreamE",
   "name" : "aaudio::AudioStream *",
   "referenced_type" : "_ZTIN6aaudio11AudioStreamE",
   "self_type" : "_ZTIPN6aaudio11AudioStreamE",
   "size" : 8,
   "source_file" : "system/core/libutils/include/utils/RefBase.h"
  },
  {
   "alignment" : 8,
   "linker_set_key" : "_ZTIPN6aaudio20IAAudioClientDefaultE",
   "name" : "aaudio::IAAudioClientDefault *",
   "referenced_type" : "_ZTIN6aaudio20IAAudioClientDefaultE",
   "self_type" : "_ZTIPN6aaudio20IAAudioClientDefaultE",
   "size" : 8,
   "source_file" : "out/soong/.intermediates/frameworks/av/media/libaaudio/src/aaudio-aidl-cpp-source/gen/include/aaudio/IAAudioClient.h"
  },
  {
   "alignment" : 8,
   "linker_set_key" : "_ZTIPN7android10IInterfaceE",
   "name" : "android::IInterface *",
   "referenced_type" : "_ZTIN7android10IInterfaceE",
   "self_type" : "_ZTIPN7android10IInterfaceE",
   "size" : 8,
   "source_file" : "system/core/libutils/include/utils/StrongPointer.h"
  },
  {
   "alignment" : 8,
   "linker_set_key" : "_ZTIPN7android10ParcelableE",
   "name" : "android::Parcelable *",
   "referenced_type" : "_ZTIN7android10ParcelableE",
   "self_type" : "_ZTIPN7android10ParcelableE",
   "size" : 8,
   "source_file" : "frameworks/native/libs/binder/include/binder/Parcelable.h"
  },
  {
   "alignment" : 8,
   "linker_set_key" : "_ZTIPN7android10RpcSessionE",
   "name" : "android::RpcSession *",
   "referenced_type" : "_ZTIN7android10RpcSessionE",
   "self_type" : "_ZTIPN7android10RpcSessionE",
   "size" : 8,
   "source_file" : "system/core/libutils/include/utils/StrongPointer.h"
  },
  {
   "alignment" : 8,
   "linker_set_key" : "_ZTIPN7android10TextOutput6BundleE",
   "name" : "android::TextOutput::Bundle *",
   "referenced_type" : "_ZTIN7android10TextOutput6BundleE",
   "self_type" : "_ZTIPN7android10TextOutput6BundleE",
   "size" : 8,
   "source_file" : "frameworks/native/libs/binder/include/binder/TextOutput.h"
  },
  {
   "alignment" : 8,
   "linker_set_key" : "_ZTIPN7android11AudioSystem17AudioPortCallbackE",
   "name" : "android::AudioSystem::AudioPortCallback *",
   "referenced_type" : "_ZTIN7android11AudioSystem17AudioPortCallbackE",
   "self_type" : "_ZTIPN7android11AudioSystem17AudioPortCallbackE",
   "size" : 8,
   "source_file" : "system/core/libutils/include/utils/StrongPointer.h"
  },
  {
   "alignment" : 8,
   "linker_set_key" : "_ZTIPN7android11AudioSystem19AudioDeviceCallbackE",
   "name" : "android::AudioSystem::AudioDeviceCallback *",
   "referenced_type" : "_ZTIN7android11AudioSystem19AudioDeviceCallbackE",
   "self_type" : "_ZTIPN7android11AudioSystem19AudioDeviceCallbackE",
   "size" : 8,
   "source_file" : "system/core/libutils/include/utils/RefBase.h"
  },
  {
   "alignment" : 8,
   "linker_set_key" : "_ZTIPN7android11AudioSystem24AudioVolumeGroupCallbackE",
   "name" : "android::AudioSystem::AudioVolumeGroupCallback *",
   "referenced_type" : "_ZTIN7android11AudioSystem24AudioVolumeGroupCallbackE",
   "self_type" : "_ZTIPN7android11AudioSystem24AudioVolumeGroupCallbackE",
   "size" : 8,
   "source_file" : "system/core/libutils/include/utils/StrongPointer.h"
  },
  {
   "alignment" : 8,
   "linker_set_key" : "_ZTIPN7android11BnInterfaceINS_5media19IAudioFlingerClientEEE",
   "name" : "android::BnInterface<android::media::IAudioFlingerClient> *",
   "referenced_type" : "_ZTIN7android11BnInterfaceINS_5media19IAudioFlingerClientEEE",
   "self_type" : "_ZTIPN7android11BnInterfaceINS_5media19IAudioFlingerClientEEE",
   "size" : 8,
   "source_file" : "frameworks/native/libs/binder/include/binder/IInterface.h"
  },
  {
   "alignment" : 8,
   "linker_set_key" : "_ZTIPN7android11BnInterfaceINS_5media25IAudioPolicyServiceClientEEE",
   "name" : "android::BnInterface<android::media::IAudioPolicyServiceClient> *",
   "referenced_type" : "_ZTIN7android11BnInterfaceINS_5media25IAudioPolicyServiceClientEEE",
   "self_type" : "_ZTIPN7android11BnInterfaceINS_5media25IAudioPolicyServiceClientEEE",
   "size" : 8,
   "source_file" : "frameworks/native/libs/binder/include/binder/IInterface.h"
  },
  {
   "alignment" : 8,
   "linker_set_key" : "_ZTIPN7android11KeyedVectorINS_7String8ES1_EE",
   "name" : "android::KeyedVector<android::String8, android::String8> *",
   "referenced_type" : "_ZTIN7android11KeyedVectorINS_7String8ES1_EE",
   "self_type" : "_ZTIPN7android11KeyedVectorINS_7String8ES1_EE",
   "size" : 8,
   "source_file" : "system/core/libutils/include/utils/KeyedVector.h"
  },
  {
   "alignment" : 8,
   "linker_set_key" : "_ZTIPN7android11KeyedVectorIiNS_2spINS_17AudioIoDescriptorEEEEE",
   "name" : "android::KeyedVector<int, android::sp<android::AudioIoDescriptor>> *",
   "referenced_type" : "_ZTIN7android11KeyedVectorIiNS_2spINS_17AudioIoDescriptorEEEEE",
   "self_type" : "_ZTIPN7android11KeyedVectorIiNS_2spINS_17AudioIoDescriptorEEEEE",
   "size" : 8,
   "source_file" : "system/core/libutils/include/utils/KeyedVector.h"
  },
  {
   "alignment" : 8,
   "linker_set_key" : "_ZTIPN7android12SortedVectorINS_16key_value_pair_tINS_7String8ES2_EEEE",
   "name" : "android::SortedVector<android::key_value_pair_t<android::String8, android::String8>> *",
   "referenced_type" : "_ZTIN7android12SortedVectorINS_16key_value_pair_tINS_7String8ES2_EEEE",
   "self_type" : "_ZTIPN7android12SortedVectorINS_16key_value_pair_tINS_7String8ES2_EEEE",
   "size" : 8,
   "source_file" : "system/core/libutils/include/utils/SortedVector.h"
  },
  {
   "alignment" : 8,
   "linker_set_key" : "_ZTIPN7android12SortedVectorINS_16key_value_pair_tIiNS_2spINS_17AudioIoDescriptorEEEEEEE",
   "name" : "android::SortedVector<android::key_value_pair_t<int, android::sp<android::AudioIoDescriptor>>> *",
   "referenced_type" : "_ZTIN7android12SortedVectorINS_16key_value_pair_tIiNS_2spINS_17AudioIoDescriptorEEEEEEE",
   "self_type" : "_ZTIPN7android12SortedVectorINS_16key_value_pair_tIiNS_2spINS_17AudioIoDescriptorEEEEEEE",
   "size" : 8,
   "source_file" : "system/core/libutils/include/utils/SortedVector.h"
  },
  {
   "alignment" : 8,
   "linker_set_key" : "_ZTIPN7android13IAudioManagerE",
   "name" : "android::IAudioManager *",
   "referenced_type" : "_ZTIN7android13IAudioManagerE",
   "self_type" : "_ZTIPN7android13IAudioManagerE",
   "size" : 8,
   "source_file" : "system/core/libutils/include/utils/StrongPointer.h"
  },
  {
   "alignment" : 8,
   "linker_set_key" : "_ZTIPN7android14StaticString16ILm16EEE",
   "name" : "android::StaticString16<16> *",
   "referenced_type" : "_ZTIN7android14StaticString16ILm16EEE",
   "self_type" : "_ZTIPN7android14StaticString16ILm16EEE",
   "size" : 8,
   "source_file" : "system/core/libutils/include/utils/String16.h"
  },
  {
   "alignment" : 8,
   "linker_set_key" : "_ZTIPN7android14StaticString16ILm18EEE",
   "name" : "android::StaticString16<18> *",
   "referenced_type" : "_ZTIN7android14StaticString16ILm18EEE",
   "self_type" : "_ZTIPN7android14StaticString16ILm18EEE",
   "size" : 8,
   "source_file" : "system/core/libutils/include/utils/String16.h"
  },
  {
   "alignment" : 8,
   "linker_set_key" : "_ZTIPN7android14StaticString16ILm20EEE",
   "name" : "android::StaticString16<20> *",
   "referenced_type" : "_ZTIN7android14StaticString16ILm20EEE",
   "self_type" : "_ZTIPN7android14StaticString16ILm20EEE",
   "size" : 8,
   "source_file" : "system/core/libutils/include/utils/String16.h"
  },
  {
   "alignment" : 8,
   "linker_set_key" : "_ZTIPN7android14StaticString16ILm21EEE",
   "name" : "android::StaticString16<21> *",
   "referenced_type" : "_ZTIN7android14StaticString16ILm21EEE",
   "self_type" : "_ZTIPN7android14StaticString16ILm21EEE",
   "size" : 8,
   "source_file" : "system/core/libutils/include/utils/String16.h"
  },
  {
   "alignment" : 8,
   "linker_set_key" : "_ZTIPN7android14StaticString16ILm24EEE",
   "name" : "android::StaticString16<24> *",
   "referenced_type" : "_ZTIN7android14StaticString16ILm24EEE",
   "self_type" : "_ZTIPN7android14StaticString16ILm24EEE",
   "size" : 8,
   "source_file" : "system/core/libutils/include/utils/String16.h"
  },
  {
   "alignment" : 8,
   "linker_set_key" : "_ZTIPN7android14StaticString16ILm25EEE",
   "name" : "android::StaticString16<25> *",
   "referenced_type" : "_ZTIN7android14StaticString16ILm25EEE",
   "self_type" : "_ZTIPN7android14StaticString16ILm25EEE",
   "size" : 8,
   "source_file" : "system/core/libutils/include/utils/String16.h"
  },
  {
   "alignment" : 8,
   "linker_set_key" : "_ZTIPN7android14StaticString16ILm26EEE",
   "name" : "android::StaticString16<26> *",
   "referenced_type" : "_ZTIN7android14StaticString16ILm26EEE",
   "self_type" : "_ZTIPN7android14StaticString16ILm26EEE",
   "size" : 8,
   "source_file" : "system/core/libutils/include/utils/String16.h"
  },
  {
   "alignment" : 8,
   "linker_set_key" : "_ZTIPN7android14StaticString16ILm27EEE",
   "name" : "android::StaticString16<27> *",
   "referenced_type" : "_ZTIN7android14StaticString16ILm27EEE",
   "self_type" : "_ZTIPN7android14StaticString16ILm27EEE",
   "size" : 8,
   "source_file" : "system/core/libutils/include/utils/String16.h"
  },
  {
   "alignment" : 8,
   "linker_set_key" : "_ZTIPN7android14StaticString16ILm30EEE",
   "name" : "android::StaticString16<30> *",
   "referenced_type" : "_ZTIN7android14StaticString16ILm30EEE",
   "self_type" : "_ZTIPN7android14StaticString16ILm30EEE",
   "size" : 8,
   "source_file" : "system/core/libutils/include/utils/String16.h"
  },
  {
   "alignment" : 8,
   "linker_set_key" : "_ZTIPN7android14StaticString16ILm31EEE",
   "name" : "android::StaticString16<31> *",
   "referenced_type" : "_ZTIN7android14StaticString16ILm31EEE",
   "self_type" : "_ZTIPN7android14StaticString16ILm31EEE",
   "size" : 8,
   "source_file" : "system/core/libutils/include/utils/String16.h"
  },
  {
   "alignment" : 8,
   "linker_set_key" : "_ZTIPN7android14StaticString16ILm32EEE",
   "name" : "android::StaticString16<32> *",
   "referenced_type" : "_ZTIN7android14StaticString16ILm32EEE",
   "self_type" : "_ZTIPN7android14StaticString16ILm32EEE",
   "size" : 8,
   "source_file" : "system/core/libutils/include/utils/String16.h"
  },
  {
   "alignment" : 8,
   "linker_set_key" : "_ZTIPN7android14StaticString16ILm33EEE",
   "name" : "android::StaticString16<33> *",
   "referenced_type" : "_ZTIN7android14StaticString16ILm33EEE",
   "self_type" : "_ZTIPN7android14StaticString16ILm33EEE",
   "size" : 8,
   "source_file" : "system/core/libutils/include/utils/String16.h"
  },
  {
   "alignment" : 8,
   "linker_set_key" : "_ZTIPN7android14StaticString16ILm35EEE",
   "name" : "android::StaticString16<35> *",
   "referenced_type" : "_ZTIN7android14StaticString16ILm35EEE",
   "self_type" : "_ZTIPN7android14StaticString16ILm35EEE",
   "size" : 8,
   "source_file" : "system/core/libutils/include/utils/String16.h"
  },
  {
   "alignment" : 8,
   "linker_set_key" : "_ZTIPN7android14StaticString16ILm36EEE",
   "name" : "android::StaticString16<36> *",
   "referenced_type" : "_ZTIN7android14StaticString16ILm36EEE",
   "self_type" : "_ZTIPN7android14StaticString16ILm36EEE",
   "size" : 8,
   "source_file" : "system/core/libutils/include/utils/String16.h"
  },
  {
   "alignment" : 8,
   "linker_set_key" : "_ZTIPN7android14StaticString16ILm38EEE",
   "name" : "android::StaticString16<38> *",
   "referenced_type" : "_ZTIN7android14StaticString16ILm38EEE",
   "self_type" : "_ZTIPN7android14StaticString16ILm38EEE",
   "size" : 8,
   "source_file" : "system/core/libutils/include/utils/String16.h"
  },
  {
   "alignment" : 8,
   "linker_set_key" : "_ZTIPN7android14StaticString16ILm39EEE",
   "name" : "android::StaticString16<39> *",
   "referenced_type" : "_ZTIN7android14StaticString16ILm39EEE",
   "self_type" : "_ZTIPN7android14StaticString16ILm39EEE",
   "size" : 8,
   "source_file" : "system/core/libutils/include/utils/String16.h"
  },
  {
   "alignment" : 8,
   "linker_set_key" : "_ZTIPN7android14StaticString16ILm40EEE",
   "name" : "android::StaticString16<40> *",
   "referenced_type" : "_ZTIN7android14StaticString16ILm40EEE",
   "self_type" : "_ZTIPN7android14StaticString16ILm40EEE",
   "size" : 8,
   "source_file" : "system/core/libutils/include/utils/String16.h"
  },
  {
   "alignment" : 8,
   "linker_set_key" : "_ZTIPN7android14StaticString16ILm43EEE",
   "name" : "android::StaticString16<43> *",
   "referenced_type" : "_ZTIN7android14StaticString16ILm43EEE",
   "self_type" : "_ZTIPN7android14StaticString16ILm43EEE",
   "size" : 8,
   "source_file" : "system/core/libutils/include/utils/String16.h"
  },
  {
   "alignment" : 8,
   "linker_set_key" : "_ZTIPN7android15IServiceManagerE",
   "name" : "android::IServiceManager *",
   "referenced_type" : "_ZTIN7android15IServiceManagerE",
   "self_type" : "_ZTIPN7android15IServiceManagerE",
   "size" : 8,
   "source_file" : "system/core/libutils/include/utils/StrongPointer.h"
  },
  {
   "alignment" : 8,
   "linker_set_key" : "_ZTIPN7android16ReferenceRenamerE",
   "name" : "android::ReferenceRenamer *",
   "referenced_type" : "_ZTIN7android16ReferenceRenamerE",
   "self_type" : "_ZTIPN7android16ReferenceRenamerE",
   "size" : 8,
   "source_file" : "system/core/libutils/include/utils/RefBase.h"
  },
  {
   "alignment" : 8,
   "linker_set_key" : "_ZTIPN7android16key_value_pair_tINS_7String8ES1_EE",
   "name" : "android::key_value_pair_t<android::String8, android::String8> *",
   "referenced_type" : "_ZTIN7android16key_value_pair_tINS_7String8ES1_EE",
   "self_type" : "_ZTIPN7android16key_value_pair_tINS_7String8ES1_EE",
   "size" : 8,
   "source_file" : "system/core/libutils/include/utils/TypeHelpers.h"
  },
  {
   "alignment" : 8,
   "linker_set_key" : "_ZTIPN7android16key_value_pair_tIiNS_2spINS_17AudioIoDescriptorEEEEE",
   "name" : "android::key_value_pair_t<int, android::sp<android::AudioIoDescriptor>> *",
   "referenced_type" : "_ZTIN7android16key_value_pair_tIiNS_2spINS_17AudioIoDescriptorEEEEE",
   "self_type" : "_ZTIPN7android16key_value_pair_tIiNS_2spINS_17AudioIoDescriptorEEEEE",
   "size" : 8,
   "source_file" : "system/core/libutils/include/utils/TypeHelpers.h"
  },
  {
   "alignment" : 8,
   "linker_set_key" : "_ZTIPN7android17AudioIoDescriptorE",
   "name" : "android::AudioIoDescriptor *",
   "referenced_type" : "_ZTIN7android17AudioIoDescriptorE",
   "self_type" : "_ZTIPN7android17AudioIoDescriptorE",
   "size" : 8,
   "source_file" : "system/core/libutils/include/utils/StrongPointer.h"
  },
  {
   "alignment" : 8,
   "linker_set_key" : "_ZTIPN7android18DefaultKeyedVectorIiNS_2spINS_17AudioIoDescriptorEEEEE",
   "name" : "android::DefaultKeyedVector<int, android::sp<android::AudioIoDescriptor>> *",
   "referenced_type" : "_ZTIN7android18DefaultKeyedVectorIiNS_2spINS_17AudioIoDescriptorEEEEE",
   "self_type" : "_ZTIPN7android18DefaultKeyedVectorIiNS_2spINS_17AudioIoDescriptorEEEEE",
   "size" : 8,
   "source_file" : "system/core/libutils/include/utils/KeyedVector.h"
  },
  {
   "alignment" : 8,
   "linker_set_key" : "_ZTIPN7android19VirtualLightRefBaseE",
   "name" : "android::VirtualLightRefBase *",
   "referenced_type" : "_ZTIN7android19VirtualLightRefBaseE",
   "self_type" : "_ZTIPN7android19VirtualLightRefBaseE",
   "size" : 8,
   "source_file" : "system/core/libutils/include/utils/LightRefBase.h"
  },
  {
   "alignment" : 8,
   "linker_set_key" : "_ZTIPN7android22AudioMixMatchCriterionE",
   "name" : "android::AudioMixMatchCriterion *",
   "referenced_type" : "_ZTIN7android22AudioMixMatchCriterionE",
   "self_type" : "_ZTIPN7android22AudioMixMatchCriterionE",
   "size" : 8,
   "source_file" : "system/core/libutils/include/utils/TypeHelpers.h"
  },
  {
   "alignment" : 8,
   "linker_set_key" : "_ZTIPN7android2os16ParcelableHolderE",
   "name" : "android::os::ParcelableHolder *",
   "referenced_type" : "_ZTIN7android2os16ParcelableHolderE",
   "self_type" : "_ZTIPN7android2os16ParcelableHolderE",
   "size" : 8,
   "source_file" : "frameworks/native/libs/binder/include/binder/ParcelableHolder.h"
  },
  {
   "alignment" : 8,
   "linker_set_key" : "_ZTIPN7android2os20ParcelFileDescriptorE",
   "name" : "android::os::ParcelFileDescriptor *",
   "referenced_type" : "_ZTIN7android2os20ParcelFileDescriptorE",
   "self_type" : "_ZTIPN7android2os20ParcelFileDescriptorE",
   "size" : 8,
   "source_file" : "frameworks/native/libs/binder/include/binder/ParcelFileDescriptor.h"
  },
  {
   "alignment" : 8,
   "linker_set_key" : "_ZTIPN7android2spIN6aaudio11AudioStreamEEE",
   "name" : "android::sp<aaudio::AudioStream> *",
   "referenced_type" : "_ZTIN7android2spIN6aaudio11AudioStreamEEE",
   "self_type" : "_ZTIPN7android2spIN6aaudio11AudioStreamEEE",
   "size" : 8,
   "source_file" : "system/core/libutils/include/utils/StrongPointer.h"
  },
  {
   "alignment" : 8,
   "linker_set_key" : "_ZTIPN7android2spINS_10IInterfaceEEE",
   "name" : "android::sp<android::IInterface> *",
   "referenced_type" : "_ZTIN7android2spINS_10IInterfaceEEE",
   "self_type" : "_ZTIPN7android2spINS_10IInterfaceEEE",
   "size" : 8,
   "source_file" : "system/core/libutils/include/utils/StrongPointer.h"
  },
  {
   "alignment" : 8,
   "linker_set_key" : "_ZTIPN7android2spINS_11AudioSystem17AudioPortCallbackEEE",
   "name" : "android::sp<android::AudioSystem::AudioPortCallback> *",
   "referenced_type" : "_ZTIN7android2spINS_11AudioSystem17AudioPortCallbackEEE",
   "self_type" : "_ZTIPN7android2spINS_11AudioSystem17AudioPortCallbackEEE",
   "size" : 8,
   "source_file" : "system/core/libutils/include/utils/StrongPointer.h"
  },
  {
   "alignment" : 8,
   "linker_set_key" : "_ZTIPN7android2spINS_11AudioSystem24AudioVolumeGroupCallbackEEE",
   "name" : "android::sp<android::AudioSystem::AudioVolumeGroupCallback> *",
   "referenced_type" : "_ZTIN7android2spINS_11AudioSystem24AudioVolumeGroupCallbackEEE",
   "self_type" : "_ZTIPN7android2spINS_11AudioSystem24AudioVolumeGroupCallbackEEE",
   "size" : 8,
   "source_file" : "system/core/libutils/include/utils/StrongPointer.h"
  },
  {
   "alignment" : 8,
   "linker_set_key" : "_ZTIPN7android2spINS_17AudioIoDescriptorEEE",
   "name" : "android::sp<android::AudioIoDescriptor> *",
   "referenced_type" : "_ZTIN7android2spINS_17AudioIoDescriptorEEE",
   "self_type" : "_ZTIPN7android2spINS_17AudioIoDescriptorEEE",
   "size" : 8,
   "source_file" : "system/core/libutils/include/utils/StrongPointer.h"
  },
  {
   "alignment" : 8,
   "linker_set_key" : "_ZTIPN7android2spINS_5media12VolumeShaper13ConfigurationEEE",
   "name" : "android::sp<android::media::VolumeShaper::Configuration> *",
   "referenced_type" : "_ZTIN7android2spINS_5media12VolumeShaper13ConfigurationEEE",
   "self_type" : "_ZTIPN7android2spINS_5media12VolumeShaper13ConfigurationEEE",
   "size" : 8,
   "source_file" : "system/core/libutils/include/utils/StrongPointer.h"
  },
  {
   "alignment" : 8,
   "linker_set_key" : "_ZTIPN7android2spINS_5media12VolumeShaper5StateEEE",
   "name" : "android::sp<android::media::VolumeShaper::State> *",
   "referenced_type" : "_ZTIN7android2spINS_5media12VolumeShaper5StateEEE",
   "self_type" : "_ZTIPN7android2spINS_5media12VolumeShaper5StateEEE",
   "size" : 8,
   "source_file" : "system/core/libutils/include/utils/StrongPointer.h"
  },
  {
   "alignment" : 8,
   "linker_set_key" : "_ZTIPN7android2spINS_5media12VolumeShaper9OperationEEE",
   "name" : "android::sp<android::media::VolumeShaper::Operation> *",
   "referenced_type" : "_ZTIN7android2spINS_5media12VolumeShaper9OperationEEE",
   "self_type" : "_ZTIPN7android2spINS_5media12VolumeShaper9OperationEEE",
   "size" : 8,
   "source_file" : "system/core/libutils/include/utils/StrongPointer.h"
  },
  {
   "alignment" : 8,
   "linker_set_key" : "_ZTIPN7android2spINS_7IBinderEEE",
   "name" : "android::sp<android::IBinder> *",
   "referenced_type" : "_ZTIN7android2spINS_7IBinderEEE",
   "self_type" : "_ZTIPN7android2spINS_7IBinderEEE",
   "size" : 8,
   "source_file" : "system/core/libutils/include/utils/StrongPointer.h"
  },
  {
   "alignment" : 8,
   "linker_set_key" : "_ZTIPN7android2wpIN6aaudio11AudioStreamEEE",
   "name" : "android::wp<aaudio::AudioStream> *",
   "referenced_type" : "_ZTIN7android2wpIN6aaudio11AudioStreamEEE",
   "self_type" : "_ZTIPN7android2wpIN6aaudio11AudioStreamEEE",
   "size" : 8,
   "source_file" : "system/core/libutils/include/utils/RefBase.h"
  },
  {
   "alignment" : 8,
   "linker_set_key" : "_ZTIPN7android2wpINS_11AudioSystem19AudioDeviceCallbackEEE",
   "name" : "android::wp<android::AudioSystem::AudioDeviceCallback> *",
   "referenced_type" : "_ZTIN7android2wpINS_11AudioSystem19AudioDeviceCallbackEEE",
   "self_type" : "_ZTIPN7android2wpINS_11AudioSystem19AudioDeviceCallbackEEE",
   "size" : 8,
   "source_file" : "system/core/libutils/include/utils/RefBase.h"
  },
  {
   "alignment" : 8,
   "linker_set_key" : "_ZTIPN7android4base10unexpect_tE",
   "name" : "android::base::unexpect_t *",
   "referenced_type" : "_ZTIN7android4base10unexpect_tE",
   "self_type" : "_ZTIPN7android4base10unexpect_tE",
   "size" : 8,
   "source_file" : "system/libbase/include/android-base/expected.h"
  },
  {
   "alignment" : 8,
   "linker_set_key" : "_ZTIPN7android4base10unexpectedIiEE",
   "name" : "android::base::unexpected<int> *",
   "referenced_type" : "_ZTIN7android4base10unexpectedIiEE",
   "self_type" : "_ZTIPN7android4base10unexpectedIiEE",
   "size" : 8,
   "source_file" : "system/libbase/include/android-base/expected.h"
  },
  {
   "alignment" : 8,
   "linker_set_key" : "_ZTIPN7android4base11borrowed_fdE",
   "name" : "android::base::borrowed_fd *",
   "referenced_type" : "_ZTIN7android4base11borrowed_fdE",
   "self_type" : "_ZTIPN7android4base11borrowed_fdE",
   "size" : 8,
   "source_file" : "system/libbase/include/android-base/unique_fd.h"
  },
  {
   "alignment" : 8,
   "linker_set_key" : "_ZTIPN7android4base14unique_fd_implINS0_13DefaultCloserEEE",
   "name" : "android::base::unique_fd_impl<android::base::DefaultCloser> *",
   "referenced_type" : "_ZTIN7android4base14unique_fd_implINS0_13DefaultCloserEEE",
   "self_type" : "_ZTIPN7android4base14unique_fd_implINS0_13DefaultCloserEEE",
   "size" : 8,
   "source_file" : "system/libbase/include/android-base/unique_fd.h"
  },
  {
   "alignment" : 8,
   "linker_set_key" : "_ZTIPN7android4base19ScopedLockAssertionE",
   "name" : "android::base::ScopedLockAssertion *",
   "referenced_type" : "_ZTIN7android4base19ScopedLockAssertionE",
   "self_type" : "_ZTIPN7android4base19ScopedLockAssertionE",
   "size" : 8,
   "source_file" : "system/libbase/include/android-base/thread_annotations.h"
  },
  {
   "alignment" : 8,
   "linker_set_key" : "_ZTIPN7android4base8expectedINS_5media14MicrophoneInfoEiEE",
   "name" : "android::base::expected<android::media::MicrophoneInfo, int> *",
   "referenced_type" : "_ZTIN7android4base8expectedINS_5media14MicrophoneInfoEiEE",
   "self_type" : "_ZTIPN7android4base8expectedINS_5media14MicrophoneInfoEiEE",
   "size" : 8,
   "source_file" : "system/libbase/include/android-base/expected.h"
  },
  {
   "alignment" : 8,
   "linker_set_key" : "_ZTIPN7android4base8expectedINS_5media18MicrophoneInfoDataEiEE",
   "name" : "android::base::expected<android::media::MicrophoneInfoData, int> *",
   "referenced_type" : "_ZTIN7android4base8expectedINS_5media18MicrophoneInfoDataEiEE",
   "self_type" : "_ZTIPN7android4base8expectedINS_5media18MicrophoneInfoDataEiEE",
   "size" : 8,
   "source_file" : "system/libbase/include/android-base/expected.h"
  },
  {
   "alignment" : 8,
   "linker_set_key" : "_ZTIPN7android4base8expectedIiiEE",
   "name" : "android::base::expected<int, int> *",
   "referenced_type" : "_ZTIN7android4base8expectedIiiEE",
   "self_type" : "_ZTIPN7android4base8expectedIiiEE",
   "size" : 8,
   "source_file" : "system/libbase/include/android-base/expected.h"
  },
  {
   "alignment" : 8,
   "linker_set_key" : "_ZTIPN7android4base8expectedIjiEE",
   "name" : "android::base::expected<unsigned int, int> *",
   "referenced_type" : "_ZTIN7android4base8expectedIjiEE",
   "self_type" : "_ZTIPN7android4base8expectedIjiEE",
   "size" : 8,
   "source_file" : "system/libbase/include/android-base/expected.h"
  },
  {
   "alignment" : 8,
   "linker_set_key" : "_ZTIPN7android5Mutex8AutolockE",
   "name" : "android::Mutex::Autolock *",
   "referenced_type" : "_ZTIN7android5Mutex8AutolockE",
   "self_type" : "_ZTIPN7android5Mutex8AutolockE",
   "size" : 8,
   "source_file" : "system/core/libutils/include/utils/Mutex.h"
  },
  {
   "alignment" : 8,
   "linker_set_key" : "_ZTIPN7android5MutexE",
   "name" : "android::Mutex *",
   "referenced_type" : "_ZTIN7android5MutexE",
   "self_type" : "_ZTIPN7android5MutexE",
   "size" : 8,
   "source_file" : "system/core/libutils/include/utils/Mutex.h"
  },
  {
   "alignment" : 8,
   "linker_set_key" : "_ZTIPN7android5media12VolumeShaper13ConfigurationE",
   "name" : "android::media::VolumeShaper::Configuration *",
   "referenced_type" : "_ZTIN7android5media12VolumeShaper13ConfigurationE",
   "self_type" : "_ZTIPN7android5media12VolumeShaper13ConfigurationE",
   "size" : 8,
   "source_file" : "system/core/libutils/include/utils/StrongPointer.h"
  },
  {
   "alignment" : 8,
   "linker_set_key" : "_ZTIPN7android5media12VolumeShaper5StateE",
   "name" : "android::media::VolumeShaper::State *",
   "referenced_type" : "_ZTIN7android5media12VolumeShaper5StateE",
   "self_type" : "_ZTIPN7android5media12VolumeShaper5StateE",
   "size" : 8,
   "source_file" : "system/core/libutils/include/utils/StrongPointer.h"
  },
  {
   "alignment" : 8,
   "linker_set_key" : "_ZTIPN7android5media12VolumeShaper9OperationE",
   "name" : "android::media::VolumeShaper::Operation *",
   "referenced_type" : "_ZTIN7android5media12VolumeShaper9OperationE",
   "self_type" : "_ZTIPN7android5media12VolumeShaper9OperationE",
   "size" : 8,
   "source_file" : "system/core/libutils/include/utils/StrongPointer.h"
  },
  {
   "alignment" : 8,
   "linker_set_key" : "_ZTIPN7android6Parcel12ReadableBlobE",
   "name" : "android::Parcel::ReadableBlob *",
   "referenced_type" : "_ZTIN7android6Parcel12ReadableBlobE",
   "self_type" : "_ZTIPN7android6Parcel12ReadableBlobE",
   "size" : 8,
   "source_file" : "frameworks/native/libs/binder/include/binder/Parcel.h"
  },
  {
   "alignment" : 8,
   "linker_set_key" : "_ZTIPN7android6Parcel12WritableBlobE",
   "name" : "android::Parcel::WritableBlob *",
   "referenced_type" : "_ZTIN7android6Parcel12WritableBlobE",
   "self_type" : "_ZTIPN7android6Parcel12WritableBlobE",
   "size" : 8,
   "source_file" : "frameworks/native/libs/binder/include/binder/Parcel.h"
  },
  {
   "alignment" : 8,
   "linker_set_key" : "_ZTIPN7android6Parcel26FlattenableHelperInterfaceE",
   "name" : "android::Parcel::FlattenableHelperInterface *",
   "referenced_type" : "_ZTIN7android6Parcel26FlattenableHelperInterfaceE",
   "self_type" : "_ZTIPN7android6Parcel26FlattenableHelperInterfaceE",
   "size" : 8,
   "source_file" : "frameworks/native/libs/binder/include/binder/Parcel.h"
  },
  {
   "alignment" : 8,
   "linker_set_key" : "_ZTIPN7android6ParcelE",
   "name" : "android::Parcel *",
   "referenced_type" : "_ZTIN7android6ParcelE",
   "self_type" : "_ZTIPN7android6ParcelE",
   "size" : 8,
   "source_file" : "frameworks/native/libs/binder/include/binder/Parcel.h"
  },
  {
   "alignment" : 8,
   "linker_set_key" : "_ZTIPN7android6VectorINS_22AudioMixMatchCriterionEEE",
   "name" : "android::Vector<android::AudioMixMatchCriterion> *",
   "referenced_type" : "_ZTIN7android6VectorINS_22AudioMixMatchCriterionEEE",
   "self_type" : "_ZTIPN7android6VectorINS_22AudioMixMatchCriterionEEE",
   "size" : 8,
   "source_file" : "system/core/libutils/include/utils/Vector.h"
  },
  {
   "alignment" : 8,
   "linker_set_key" : "_ZTIPN7android6VectorINS_2spINS_11AudioSystem17AudioPortCallbackEEEEE",
   "name" : "android::Vector<android::sp<android::AudioSystem::AudioPortCallback>> *",
   "referenced_type" : "_ZTIN7android6VectorINS_2spINS_11AudioSystem17AudioPortCallbackEEEEE",
   "self_type" : "_ZTIPN7android6VectorINS_2spINS_11AudioSystem17AudioPortCallbackEEEEE",
   "size" : 8,
   "source_file" : "system/core/libutils/include/utils/Vector.h"
  },
  {
   "alignment" : 8,
   "linker_set_key" : "_ZTIPN7android6VectorINS_2spINS_11AudioSystem24AudioVolumeGroupCallbackEEEEE",
   "name" : "android::Vector<android::sp<android::AudioSystem::AudioVolumeGroupCallback>> *",
   "referenced_type" : "_ZTIN7android6VectorINS_2spINS_11AudioSystem24AudioVolumeGroupCallbackEEEEE",
   "self_type" : "_ZTIPN7android6VectorINS_2spINS_11AudioSystem24AudioVolumeGroupCallbackEEEEE",
   "size" : 8,
   "source_file" : "system/core/libutils/include/utils/Vector.h"
  },
  {
   "alignment" : 8,
   "linker_set_key" : "_ZTIPN7android6binder6StatusE",
   "name" : "android::binder::Status *",
   "referenced_type" : "_ZTIN7android6binder6StatusE",
   "self_type" : "_ZTIPN7android6binder6StatusE",
   "size" : 8,
   "source_file" : "frameworks/native/libs/binder/include/binder/Status.h"
  },
  {
   "alignment" : 8,
   "linker_set_key" : "_ZTIPN7android7HexDumpE",
   "name" : "android::HexDump *",
   "referenced_type" : "_ZTIN7android7HexDumpE",
   "self_type" : "_ZTIPN7android7HexDumpE",
   "size" : 8,
   "source_file" : "frameworks/native/libs/binder/include/binder/TextOutput.h"
  },
  {
   "alignment" : 8,
   "linker_set_key" : "_ZTIPN7android7IBinderE",
   "name" : "android::IBinder *",
   "referenced_type" : "_ZTIN7android7IBinderE",
   "self_type" : "_ZTIPN7android7IBinderE",
   "size" : 8,
   "source_file" : "system/core/libutils/include/utils/StrongPointer.h"
  },
  {
   "alignment" : 8,
   "linker_set_key" : "_ZTIPN7android7RefBase12weakref_implE",
   "name" : "android::RefBase::weakref_impl *",
   "referenced_type" : "_ZTIN7android7RefBase12weakref_implE",
   "self_type" : "_ZTIPN7android7RefBase12weakref_implE",
   "size" : 8,
   "source_file" : "system/core/libutils/include/utils/RefBase.h"
  },
  {
   "alignment" : 8,
   "linker_set_key" : "_ZTIPN7android7RefBase12weakref_typeE",
   "name" : "android::RefBase::weakref_type *",
   "referenced_type" : "_ZTIN7android7RefBase12weakref_typeE",
   "self_type" : "_ZTIPN7android7RefBase12weakref_typeE",
   "size" : 8,
   "source_file" : "system/core/libutils/include/utils/RefBase.h"
  },
  {
   "alignment" : 8,
   "linker_set_key" : "_ZTIPN7android7RefBaseE",
   "name" : "android::RefBase *",
   "referenced_type" : "_ZTIN7android7RefBaseE",
   "self_type" : "_ZTIPN7android7RefBaseE",
   "size" : 8,
   "source_file" : "system/core/libutils/include/utils/RefBase.h"
  },
  {
   "alignment" : 8,
   "linker_set_key" : "_ZTIPN7android7String8E",
   "name" : "android::String8 *",
   "referenced_type" : "_ZTIN7android7String8E",
   "self_type" : "_ZTIPN7android7String8E",
   "size" : 8,
   "source_file" : "system/core/libutils/include/utils/String8.h"
  },
  {
   "alignment" : 8,
   "linker_set_key" : "_ZTIPN7android8String1610StaticDataILm16EEE",
   "name" : "android::String16::StaticData<16> *",
   "referenced_type" : "_ZTIN7android8String1610StaticDataILm16EEE",
   "self_type" : "_ZTIPN7android8String1610StaticDataILm16EEE",
   "size" : 8,
   "source_file" : "system/core/libutils/include/utils/String16.h"
  },
  {
   "alignment" : 8,
   "linker_set_key" : "_ZTIPN7android8String1610StaticDataILm18EEE",
   "name" : "android::String16::StaticData<18> *",
   "referenced_type" : "_ZTIN7android8String1610StaticDataILm18EEE",
   "self_type" : "_ZTIPN7android8String1610StaticDataILm18EEE",
   "size" : 8,
   "source_file" : "system/core/libutils/include/utils/String16.h"
  },
  {
   "alignment" : 8,
   "linker_set_key" : "_ZTIPN7android8String1610StaticDataILm20EEE",
   "name" : "android::String16::StaticData<20> *",
   "referenced_type" : "_ZTIN7android8String1610StaticDataILm20EEE",
   "self_type" : "_ZTIPN7android8String1610StaticDataILm20EEE",
   "size" : 8,
   "source_file" : "system/core/libutils/include/utils/String16.h"
  },
  {
   "alignment" : 8,
   "linker_set_key" : "_ZTIPN7android8String1610StaticDataILm21EEE",
   "name" : "android::String16::StaticData<21> *",
   "referenced_type" : "_ZTIN7android8String1610StaticDataILm21EEE",
   "self_type" : "_ZTIPN7android8String1610StaticDataILm21EEE",
   "size" : 8,
   "source_file" : "system/core/libutils/include/utils/String16.h"
  },
  {
   "alignment" : 8,
   "linker_set_key" : "_ZTIPN7android8String1610StaticDataILm24EEE",
   "name" : "android::String16::StaticData<24> *",
   "referenced_type" : "_ZTIN7android8String1610StaticDataILm24EEE",
   "self_type" : "_ZTIPN7android8String1610StaticDataILm24EEE",
   "size" : 8,
   "source_file" : "system/core/libutils/include/utils/String16.h"
  },
  {
   "alignment" : 8,
   "linker_set_key" : "_ZTIPN7android8String1610StaticDataILm25EEE",
   "name" : "android::String16::StaticData<25> *",
   "referenced_type" : "_ZTIN7android8String1610StaticDataILm25EEE",
   "self_type" : "_ZTIPN7android8String1610StaticDataILm25EEE",
   "size" : 8,
   "source_file" : "system/core/libutils/include/utils/String16.h"
  },
  {
   "alignment" : 8,
   "linker_set_key" : "_ZTIPN7android8String1610StaticDataILm26EEE",
   "name" : "android::String16::StaticData<26> *",
   "referenced_type" : "_ZTIN7android8String1610StaticDataILm26EEE",
   "self_type" : "_ZTIPN7android8String1610StaticDataILm26EEE",
   "size" : 8,
   "source_file" : "system/core/libutils/include/utils/String16.h"
  },
  {
   "alignment" : 8,
   "linker_set_key" : "_ZTIPN7android8String1610StaticDataILm27EEE",
   "name" : "android::String16::StaticData<27> *",
   "referenced_type" : "_ZTIN7android8String1610StaticDataILm27EEE",
   "self_type" : "_ZTIPN7android8String1610StaticDataILm27EEE",
   "size" : 8,
   "source_file" : "system/core/libutils/include/utils/String16.h"
  },
  {
   "alignment" : 8,
   "linker_set_key" : "_ZTIPN7android8String1610StaticDataILm30EEE",
   "name" : "android::String16::StaticData<30> *",
   "referenced_type" : "_ZTIN7android8String1610StaticDataILm30EEE",
   "self_type" : "_ZTIPN7android8String1610StaticDataILm30EEE",
   "size" : 8,
   "source_file" : "system/core/libutils/include/utils/String16.h"
  },
  {
   "alignment" : 8,
   "linker_set_key" : "_ZTIPN7android8String1610StaticDataILm31EEE",
   "name" : "android::String16::StaticData<31> *",
   "referenced_type" : "_ZTIN7android8String1610StaticDataILm31EEE",
   "self_type" : "_ZTIPN7android8String1610StaticDataILm31EEE",
   "size" : 8,
   "source_file" : "system/core/libutils/include/utils/String16.h"
  },
  {
   "alignment" : 8,
   "linker_set_key" : "_ZTIPN7android8String1610StaticDataILm32EEE",
   "name" : "android::String16::StaticData<32> *",
   "referenced_type" : "_ZTIN7android8String1610StaticDataILm32EEE",
   "self_type" : "_ZTIPN7android8String1610StaticDataILm32EEE",
   "size" : 8,
   "source_file" : "system/core/libutils/include/utils/String16.h"
  },
  {
   "alignment" : 8,
   "linker_set_key" : "_ZTIPN7android8String1610StaticDataILm33EEE",
   "name" : "android::String16::StaticData<33> *",
   "referenced_type" : "_ZTIN7android8String1610StaticDataILm33EEE",
   "self_type" : "_ZTIPN7android8String1610StaticDataILm33EEE",
   "size" : 8,
   "source_file" : "system/core/libutils/include/utils/String16.h"
  },
  {
   "alignment" : 8,
   "linker_set_key" : "_ZTIPN7android8String1610StaticDataILm35EEE",
   "name" : "android::String16::StaticData<35> *",
   "referenced_type" : "_ZTIN7android8String1610StaticDataILm35EEE",
   "self_type" : "_ZTIPN7android8String1610StaticDataILm35EEE",
   "size" : 8,
   "source_file" : "system/core/libutils/include/utils/String16.h"
  },
  {
   "alignment" : 8,
   "linker_set_key" : "_ZTIPN7android8String1610StaticDataILm36EEE",
   "name" : "android::String16::StaticData<36> *",
   "referenced_type" : "_ZTIN7android8String1610StaticDataILm36EEE",
   "self_type" : "_ZTIPN7android8String1610StaticDataILm36EEE",
   "size" : 8,
   "source_file" : "system/core/libutils/include/utils/String16.h"
  },
  {
   "alignment" : 8,
   "linker_set_key" : "_ZTIPN7android8String1610StaticDataILm38EEE",
   "name" : "android::String16::StaticData<38> *",
   "referenced_type" : "_ZTIN7android8String1610StaticDataILm38EEE",
   "self_type" : "_ZTIPN7android8String1610StaticDataILm38EEE",
   "size" : 8,
   "source_file" : "system/core/libutils/include/utils/String16.h"
  },
  {
   "alignment" : 8,
   "linker_set_key" : "_ZTIPN7android8String1610StaticDataILm39EEE",
   "name" : "android::String16::StaticData<39> *",
   "referenced_type" : "_ZTIN7android8String1610StaticDataILm39EEE",
   "self_type" : "_ZTIPN7android8String1610StaticDataILm39EEE",
   "size" : 8,
   "source_file" : "system/core/libutils/include/utils/String16.h"
  },
  {
   "alignment" : 8,
   "linker_set_key" : "_ZTIPN7android8String1610StaticDataILm40EEE",
   "name" : "android::String16::StaticData<40> *",
   "referenced_type" : "_ZTIN7android8String1610StaticDataILm40EEE",
   "self_type" : "_ZTIPN7android8String1610StaticDataILm40EEE",
   "size" : 8,
   "source_file" : "system/core/libutils/include/utils/String16.h"
  },
  {
   "alignment" : 8,
   "linker_set_key" : "_ZTIPN7android8String1610StaticDataILm43EEE",
   "name" : "android::String16::StaticData<43> *",
   "referenced_type" : "_ZTIN7android8String1610StaticDataILm43EEE",
   "self_type" : "_ZTIPN7android8String1610StaticDataILm43EEE",
   "size" : 8,
   "source_file" : "system/core/libutils/include/utils/String16.h"
  },
  {
   "alignment" : 8,
   "linker_set_key" : "_ZTIPN7android8String16E",
   "name" : "android::String16 *",
   "referenced_type" : "_ZTIN7android8String16E",
   "self_type" : "_ZTIPN7android8String16E",
   "size" : 8,
   "source_file" : "system/core/libutils/include/utils/String16.h"
  },
  {
   "alignment" : 8,
   "linker_set_key" : "_ZTIPN7android8TypeCodeE",
   "name" : "android::TypeCode *",
   "referenced_type" : "_ZTIN7android8TypeCodeE",
   "self_type" : "_ZTIPN7android8TypeCodeE",
   "size" : 8,
   "source_file" : "frameworks/native/libs/binder/include/binder/TextOutput.h"
  },
  {
   "alignment" : 8,
   "linker_set_key" : "_ZTIPNSt3__112basic_stringIcNS_11char_traitsIcEENS_9allocatorIcEEEE",
   "name" : "std::basic_string<char, std::char_traits<char>, std::allocator<char>> *",
   "referenced_type" : "_ZTINSt3__112basic_stringIcNS_11char_traitsIcEENS_9allocatorIcEEEE",
   "self_type" : "_ZTIPNSt3__112basic_stringIcNS_11char_traitsIcEENS_9allocatorIcEEEE",
   "size" : 8,
   "source_file" : "frameworks/native/libs/binder/include/binder/Parcel.h"
  },
  {
   "alignment" : 8,
   "linker_set_key" : "_ZTIPP18AAudioStreamStruct",
   "name" : "AAudioStreamStruct **",
   "referenced_type" : "_ZTIP18AAudioStreamStruct",
   "self_type" : "_ZTIPP18AAudioStreamStruct",
   "size" : 8,
   "source_file" : "frameworks/av/media/libaaudio/include/aaudio/AAudio.h"
  },
  {
   "alignment" : 8,
   "linker_set_key" : "_ZTIPP25AAudioStreamBuilderStruct",
   "name" : "AAudioStreamBuilderStruct **",
   "referenced_type" : "_ZTIP25AAudioStreamBuilderStruct",
   "self_type" : "_ZTIPP25AAudioStreamBuilderStruct",
   "size" : 8,
   "source_file" : "frameworks/av/media/libaaudio/include/aaudio/AAudio.h"
  },
  {
   "alignment" : 8,
   "linker_set_key" : "_ZTIPa",
   "name" : "signed char *",
   "referenced_type" : "_ZTIa",
   "self_type" : "_ZTIPa",
   "size" : 8,
   "source_file" : "frameworks/native/libs/binder/include/binder/Parcel.h"
  },
  {
   "alignment" : 8,
   "linker_set_key" : "_ZTIPb",
   "name" : "bool *",
   "referenced_type" : "_ZTIb",
   "self_type" : "_ZTIPb",
   "size" : 8,
   "source_file" : "frameworks/native/libs/binder/include/binder/Parcel.h"
  },
  {
   "alignment" : 8,
   "linker_set_key" : "_ZTIPd",
   "name" : "double *",
   "referenced_type" : "_ZTId",
   "self_type" : "_ZTIPd",
   "size" : 8,
   "source_file" : "frameworks/native/libs/binder/include/binder/Parcel.h"
  },
  {
   "alignment" : 8,
   "linker_set_key" : "_ZTIPf",
   "name" : "float *",
   "referenced_type" : "_ZTIf",
   "self_type" : "_ZTIPf",
   "size" : 8,
   "source_file" : "frameworks/native/libs/binder/include/binder/Parcel.h"
  },
  {
   "alignment" : 8,
   "linker_set_key" : "_ZTIPh",
   "name" : "unsigned char *",
   "referenced_type" : "_ZTIh",
   "self_type" : "_ZTIPh",
   "size" : 8,
   "source_file" : "frameworks/native/libs/binder/include/binder/Parcel.h"
  },
  {
   "alignment" : 8,
   "linker_set_key" : "_ZTIPi",
   "name" : "int *",
   "referenced_type" : "_ZTIi",
   "self_type" : "_ZTIPi",
   "size" : 8,
   "source_file" : "frameworks/av/media/libaaudio/include/aaudio/AAudio.h"
  },
  {
   "alignment" : 8,
   "linker_set_key" : "_ZTIPj",
   "name" : "unsigned int *",
   "referenced_type" : "_ZTIj",
   "self_type" : "_ZTIPj",
   "size" : 8,
   "source_file" : "frameworks/native/libs/binder/include/binder/Parcel.h"
  },
  {
   "alignment" : 8,
   "linker_set_key" : "_ZTIPl",
   "name" : "long *",
   "referenced_type" : "_ZTIl",
   "self_type" : "_ZTIPl",
   "size" : 8,
   "source_file" : "frameworks/av/media/libaaudio/include/aaudio/AAudio.h"
  },
  {
   "alignment" : 8,
   "linker_set_key" : "_ZTIPm",
   "name" : "unsigned long *",
   "referenced_type" : "_ZTIm",
   "self_type" : "_ZTIPm",
   "size" : 8,
   "source_file" : "frameworks/native/libs/binder/include/binder/Parcel.h"
  },
  {
   "alignment" : 8,
   "linker_set_key" : "_ZTIPv",
   "name" : "void *",
   "referenced_type" : "_ZTIv",
   "self_type" : "_ZTIPv",
   "size" : 8,
   "source_file" : "frameworks/av/media/libaaudio/include/aaudio/AAudio.h"
  },
  {
   "alignment" : 8,
   "linker_set_key" : "_ZTIPy",
   "name" : "unsigned long long *",
   "referenced_type" : "_ZTIy",
   "self_type" : "_ZTIPy",
   "size" : 8,
   "source_file" : "frameworks/native/libs/binder/include/binder/Parcel.h"
  }
 ],
 "qualified_types" :
 [
  {
   "alignment" : 2,
   "is_const" : true,
   "linker_set_key" : "_ZTIA16_KDs",
   "name" : "char16_t const[16]",
   "referenced_type" : "_ZTIA16_Ds",
   "self_type" : "_ZTIA16_KDs",
   "size" : 32,
   "source_file" : "system/core/libutils/include/utils/String16.h"
  },
  {
   "alignment" : 2,
   "is_const" : true,
   "linker_set_key" : "_ZTIA18_KDs",
   "name" : "char16_t const[18]",
   "referenced_type" : "_ZTIA18_Ds",
   "self_type" : "_ZTIA18_KDs",
   "size" : 36,
   "source_file" : "system/core/libutils/include/utils/String16.h"
  },
  {
   "alignment" : 8,
   "is_const" : true,
   "linker_set_key" : "_ZTIA1_KPKc",
   "name" : "const char *const[1]",
   "referenced_type" : "_ZTIA1_PKc",
   "self_type" : "_ZTIA1_KPKc",
   "size" : 8,
   "source_file" : "frameworks/native/libs/binder/include/binder/IInterface.h"
  },
  {
   "alignment" : 2,
   "is_const" : true,
   "linker_set_key" : "_ZTIA20_KDs",
   "name" : "char16_t const[20]",
   "referenced_type" : "_ZTIA20_Ds",
   "self_type" : "_ZTIA20_KDs",
   "size" : 40,
   "source_file" : "system/core/libutils/include/utils/String16.h"
  },
  {
   "alignment" : 2,
   "is_const" : true,
   "linker_set_key" : "_ZTIA21_KDs",
   "name" : "char16_t const[21]",
   "referenced_type" : "_ZTIA21_Ds",
   "self_type" : "_ZTIA21_KDs",
   "size" : 42,
   "source_file" : "system/core/libutils/include/utils/String16.h"
  },
  {
   "alignment" : 2,
   "is_const" : true,
   "linker_set_key" : "_ZTIA24_KDs",
   "name" : "char16_t const[24]",
   "referenced_type" : "_ZTIA24_Ds",
   "self_type" : "_ZTIA24_KDs",
   "size" : 48,
   "source_file" : "system/core/libutils/include/utils/String16.h"
  },
  {
   "alignment" : 2,
   "is_const" : true,
   "linker_set_key" : "_ZTIA25_KDs",
   "name" : "char16_t const[25]",
   "referenced_type" : "_ZTIA25_Ds",
   "self_type" : "_ZTIA25_KDs",
   "size" : 50,
   "source_file" : "system/core/libutils/include/utils/String16.h"
  },
  {
   "alignment" : 2,
   "is_const" : true,
   "linker_set_key" : "_ZTIA26_KDs",
   "name" : "char16_t const[26]",
   "referenced_type" : "_ZTIA26_Ds",
   "self_type" : "_ZTIA26_KDs",
   "size" : 52,
   "source_file" : "system/core/libutils/include/utils/String16.h"
  },
  {
   "alignment" : 2,
   "is_const" : true,
   "linker_set_key" : "_ZTIA27_KDs",
   "name" : "char16_t const[27]",
   "referenced_type" : "_ZTIA27_Ds",
   "self_type" : "_ZTIA27_KDs",
   "size" : 54,
   "source_file" : "system/core/libutils/include/utils/String16.h"
  },
  {
   "alignment" : 2,
   "is_const" : true,
   "linker_set_key" : "_ZTIA30_KDs",
   "name" : "char16_t const[30]",
   "referenced_type" : "_ZTIA30_Ds",
   "self_type" : "_ZTIA30_KDs",
   "size" : 60,
   "source_file" : "system/core/libutils/include/utils/String16.h"
  },
  {
   "alignment" : 2,
   "is_const" : true,
   "linker_set_key" : "_ZTIA31_KDs",
   "name" : "char16_t const[31]",
   "referenced_type" : "_ZTIA31_Ds",
   "self_type" : "_ZTIA31_KDs",
   "size" : 62,
   "source_file" : "system/core/libutils/include/utils/String16.h"
  },
  {
   "alignment" : 2,
   "is_const" : true,
   "linker_set_key" : "_ZTIA32_KDs",
   "name" : "char16_t const[32]",
   "referenced_type" : "_ZTIA32_Ds",
   "self_type" : "_ZTIA32_KDs",
   "size" : 64,
   "source_file" : "system/core/libutils/include/utils/String16.h"
  },
  {
   "alignment" : 2,
   "is_const" : true,
   "linker_set_key" : "_ZTIA33_KDs",
   "name" : "char16_t const[33]",
   "referenced_type" : "_ZTIA33_Ds",
   "self_type" : "_ZTIA33_KDs",
   "size" : 66,
   "source_file" : "system/core/libutils/include/utils/String16.h"
  },
  {
   "alignment" : 2,
   "is_const" : true,
   "linker_set_key" : "_ZTIA35_KDs",
   "name" : "char16_t const[35]",
   "referenced_type" : "_ZTIA35_Ds",
   "self_type" : "_ZTIA35_KDs",
   "size" : 70,
   "source_file" : "system/core/libutils/include/utils/String16.h"
  },
  {
   "alignment" : 2,
   "is_const" : true,
   "linker_set_key" : "_ZTIA36_KDs",
   "name" : "char16_t const[36]",
   "referenced_type" : "_ZTIA36_Ds",
   "self_type" : "_ZTIA36_KDs",
   "size" : 72,
   "source_file" : "system/core/libutils/include/utils/String16.h"
  },
  {
   "alignment" : 2,
   "is_const" : true,
   "linker_set_key" : "_ZTIA38_KDs",
   "name" : "char16_t const[38]",
   "referenced_type" : "_ZTIA38_Ds",
   "self_type" : "_ZTIA38_KDs",
   "size" : 76,
   "source_file" : "system/core/libutils/include/utils/String16.h"
  },
  {
   "alignment" : 2,
   "is_const" : true,
   "linker_set_key" : "_ZTIA39_KDs",
   "name" : "char16_t const[39]",
   "referenced_type" : "_ZTIA39_Ds",
   "self_type" : "_ZTIA39_KDs",
   "size" : 78,
   "source_file" : "system/core/libutils/include/utils/String16.h"
  },
  {
   "alignment" : 2,
   "is_const" : true,
   "linker_set_key" : "_ZTIA40_KDs",
   "name" : "char16_t const[40]",
   "referenced_type" : "_ZTIA40_Ds",
   "self_type" : "_ZTIA40_KDs",
   "size" : 80,
   "source_file" : "system/core/libutils/include/utils/String16.h"
  },
  {
   "alignment" : 2,
   "is_const" : true,
   "linker_set_key" : "_ZTIA43_KDs",
   "name" : "char16_t const[43]",
   "referenced_type" : "_ZTIA43_Ds",
   "self_type" : "_ZTIA43_KDs",
   "size" : 86,
   "source_file" : "system/core/libutils/include/utils/String16.h"
  },
  {
   "alignment" : 8,
   "is_const" : true,
   "linker_set_key" : "_ZTIA76_KPKc",
   "name" : "const char *const[76]",
   "referenced_type" : "_ZTIA76_PKc",
   "self_type" : "_ZTIA76_KPKc",
   "size" : 608,
   "source_file" : "frameworks/native/libs/binder/include/binder/IInterface.h"
  },
  {
   "alignment" : 1,
   "is_const" : true,
   "linker_set_key" : "_ZTIK8log_time",
   "name" : "const log_time",
   "referenced_type" : "_ZTI8log_time",
   "self_type" : "_ZTIK8log_time",
   "size" : 8,
   "source_file" : "system/logging/liblog/include/log/log_time.h"
  },
  {
   "alignment" : 8,
   "is_const" : true,
   "linker_set_key" : "_ZTIK8timespec",
   "name" : "const timespec",
   "referenced_type" : "_ZTI8timespec",
   "self_type" : "_ZTIK8timespec",
   "size" : 16,
   "source_file" : "system/logging/liblog/include/log/log_time.h"
  },
  {
   "alignment" : 2,
   "is_const" : true,
   "linker_set_key" : "_ZTIKDs",
   "name" : "const char16_t",
   "referenced_type" : "_ZTIDs",
   "self_type" : "_ZTIKDs",
   "size" : 2,
   "source_file" : "system/core/libutils/include/utils/String16.h"
  },
  {
   "alignment" : 8,
   "is_const" : true,
   "linker_set_key" : "_ZTIKN6aaudio10RingBufferE",
   "name" : "const aaudio::RingBuffer",
   "referenced_type" : "_ZTIN6aaudio10RingBufferE",
   "self_type" : "_ZTIKN6aaudio10RingBufferE",
   "size" : 96,
   "source_file" : "frameworks/native/libs/binder/ndk/include_cpp/android/binder_to_string.h"
  },
  {
   "alignment" : 8,
   "is_const" : true,
   "linker_set_key" : "_ZTIKN6aaudio12SharedRegionE",
   "name" : "const aaudio::SharedRegion",
   "referenced_type" : "_ZTIN6aaudio12SharedRegionE",
   "self_type" : "_ZTIKN6aaudio12SharedRegionE",
   "size" : 24,
   "source_file" : "frameworks/native/libs/binder/ndk/include_cpp/android/binder_to_string.h"
  },
  {
   "alignment" : 8,
   "is_const" : true,
   "linker_set_key" : "_ZTIKN6aaudio13StreamRequestE",
   "name" : "const aaudio::StreamRequest",
   "referenced_type" : "_ZTIN6aaudio13StreamRequestE",
   "self_type" : "_ZTIKN6aaudio13StreamRequestE",
   "size" : 232,
   "source_file" : "out/soong/.intermediates/frameworks/av/media/libaaudio/src/aaudio-aidl-cpp-source/gen/include/aaudio/StreamRequest.h"
  },
  {
   "alignment" : 8,
   "is_const" : true,
   "linker_set_key" : "_ZTIKN6aaudio16StreamParametersE",
   "name" : "const aaudio::StreamParameters",
   "referenced_type" : "_ZTIN6aaudio16StreamParametersE",
   "self_type" : "_ZTIKN6aaudio16StreamParametersE",
   "size" : 72,
   "source_file" : "frameworks/native/libs/binder/ndk/include_cpp/android/binder_to_string.h"
  },
  {
   "alignment" : 8,
   "is_const" : true,
   "linker_set_key" : "_ZTIKN6aaudio8EndpointE",
   "name" : "const aaudio::Endpoint",
   "referenced_type" : "_ZTIN6aaudio8EndpointE",
   "self_type" : "_ZTIKN6aaudio8EndpointE",
   "size" : 416,
   "source_file" : "out/soong/.intermediates/frameworks/av/media/libaaudio/src/aaudio-aidl-cpp-source/gen/include/aaudio/Endpoint.h"
  },
  {
   "alignment" : 8,
   "is_const" : true,
   "linker_set_key" : "_ZTIKN7android10ParcelableE",
   "name" : "const android::Parcelable",
   "referenced_type" : "_ZTIN7android10ParcelableE",
   "self_type" : "_ZTIKN7android10ParcelableE",
   "size" : 8,
   "source_file" : "frameworks/native/libs/binder/include/binder/Parcelable.h"
  },
  {
   "alignment" : 8,
   "is_const" : true,
   "linker_set_key" : "_ZTIKN7android10VectorImplE",
   "name" : "const android::VectorImpl",
   "referenced_type" : "_ZTIN7android10VectorImplE",
   "self_type" : "_ZTIKN7android10VectorImplE",
   "size" : 40,
   "source_file" : "system/core/libutils/include/utils/VectorImpl.h"
  },
  {
   "alignment" : 8,
   "is_const" : true,
   "linker_set_key" : "_ZTIKN7android11BnInterfaceINS_5media19IAudioFlingerClientEEE",
   "name" : "const android::BnInterface<android::media::IAudioFlingerClient>",
   "referenced_type" : "_ZTIN7android11BnInterfaceINS_5media19IAudioFlingerClientEEE",
   "self_type" : "_ZTIKN7android11BnInterfaceINS_5media19IAudioFlingerClientEEE",
   "size" : 48,
   "source_file" : "frameworks/native/libs/binder/include/binder/IInterface.h"
  },
  {
   "alignment" : 8,
   "is_const" : true,
   "linker_set_key" : "_ZTIKN7android11BnInterfaceINS_5media25IAudioPolicyServiceClientEEE",
   "name" : "const android::BnInterface<android::media::IAudioPolicyServiceClient>",
   "referenced_type" : "_ZTIN7android11BnInterfaceINS_5media25IAudioPolicyServiceClientEEE",
   "self_type" : "_ZTIKN7android11BnInterfaceINS_5media25IAudioPolicyServiceClientEEE",
   "size" : 48,
   "source_file" : "frameworks/native/libs/binder/include/binder/IInterface.h"
  },
  {
   "alignment" : 8,
   "is_const" : true,
   "linker_set_key" : "_ZTIKN7android11KeyedVectorINS_7String8ES1_EE",
   "name" : "const android::KeyedVector<android::String8, android::String8>",
   "referenced_type" : "_ZTIN7android11KeyedVectorINS_7String8ES1_EE",
   "self_type" : "_ZTIKN7android11KeyedVectorINS_7String8ES1_EE",
   "size" : 40,
   "source_file" : "system/core/libutils/include/utils/KeyedVector.h"
  },
  {
   "alignment" : 8,
   "is_const" : true,
   "linker_set_key" : "_ZTIKN7android12SortedVectorINS_16key_value_pair_tINS_7String8ES2_EEEE",
   "name" : "const android::SortedVector<android::key_value_pair_t<android::String8, android::String8>>",
   "referenced_type" : "_ZTIN7android12SortedVectorINS_16key_value_pair_tINS_7String8ES2_EEEE",
   "self_type" : "_ZTIKN7android12SortedVectorINS_16key_value_pair_tINS_7String8ES2_EEEE",
   "size" : 40,
   "source_file" : "system/core/libutils/include/utils/SortedVector.h"
  },
  {
   "alignment" : 8,
   "is_const" : true,
   "linker_set_key" : "_ZTIKN7android12SortedVectorINS_16key_value_pair_tIiNS_2spINS_17AudioIoDescriptorEEEEEEE",
   "name" : "const android::SortedVector<android::key_value_pair_t<int, android::sp<android::AudioIoDescriptor>>>",
   "referenced_type" : "_ZTIN7android12SortedVectorINS_16key_value_pair_tIiNS_2spINS_17AudioIoDescriptorEEEEEEE",
   "self_type" : "_ZTIKN7android12SortedVectorINS_16key_value_pair_tIiNS_2spINS_17AudioIoDescriptorEEEEEEE",
   "size" : 40,
   "source_file" : "system/core/libutils/include/utils/SortedVector.h"
  },
  {
   "alignment" : 8,
   "is_const" : true,
   "linker_set_key" : "_ZTIKN7android14StaticString16ILm16EEE",
   "name" : "const android::StaticString16<16>",
   "referenced_type" : "_ZTIN7android14StaticString16ILm16EEE",
   "self_type" : "_ZTIKN7android14StaticString16ILm16EEE",
   "size" : 48,
   "source_file" : "out/soong/.intermediates/frameworks/av/media/libaaudio/src/aaudio-aidl-cpp-source/gen/include/aaudio/Endpoint.h"
  },
  {
   "alignment" : 8,
   "is_const" : true,
   "linker_set_key" : "_ZTIKN7android14StaticString16ILm18EEE",
   "name" : "const android::StaticString16<18>",
   "referenced_type" : "_ZTIN7android14StaticString16ILm18EEE",
   "self_type" : "_ZTIKN7android14StaticString16ILm18EEE",
   "size" : 48,
   "source_file" : "out/soong/.intermediates/frameworks/av/media/libaaudio/src/aaudio-aidl-cpp-source/gen/include/aaudio/RingBuffer.h"
  },
  {
   "alignment" : 8,
   "is_const" : true,
   "linker_set_key" : "_ZTIKN7android14StaticString16ILm20EEE",
   "name" : "const android::StaticString16<20>",
   "referenced_type" : "_ZTIN7android14StaticString16ILm20EEE",
   "self_type" : "_ZTIKN7android14StaticString16ILm20EEE",
   "size" : 56,
   "source_file" : "out/soong/.intermediates/frameworks/av/media/libaaudio/src/aaudio-aidl-cpp-source/gen/include/aaudio/SharedRegion.h"
  },
  {
   "alignment" : 8,
   "is_const" : true,
   "linker_set_key" : "_ZTIKN7android14StaticString16ILm21EEE",
   "name" : "const android::StaticString16<21>",
   "referenced_type" : "_ZTIN7android14StaticString16ILm21EEE",
   "self_type" : "_ZTIKN7android14StaticString16ILm21EEE",
   "size" : 56,
   "source_file" : "out/soong/.intermediates/frameworks/av/media/libaaudio/src/aaudio-aidl-cpp-source/gen/include/aaudio/StreamRequest.h"
  },
  {
   "alignment" : 8,
   "is_const" : true,
   "linker_set_key" : "_ZTIKN7android14StaticString16ILm24EEE",
   "name" : "const android::StaticString16<24>",
   "referenced_type" : "_ZTIN7android14StaticString16ILm24EEE",
   "self_type" : "_ZTIKN7android14StaticString16ILm24EEE",
   "size" : 64,
   "source_file" : "out/soong/.intermediates/frameworks/av/media/libaaudio/src/aaudio-aidl-cpp-source/gen/include/aaudio/StreamParameters.h"
  },
  {
   "alignment" : 8,
   "is_const" : true,
   "linker_set_key" : "_ZTIKN7android14StaticString16ILm31EEE",
   "name" : "const android::StaticString16<31>",
   "referenced_type" : "_ZTIN7android14StaticString16ILm31EEE",
   "self_type" : "_ZTIKN7android14StaticString16ILm31EEE",
   "size" : 80,
   "source_file" : "out/soong/.intermediates/frameworks/av/media/libshmem/shared-file-region-aidl-cpp-source/gen/include/android/media/SharedFileRegion.h"
  },
  {
   "alignment" : 8,
   "is_const" : true,
   "linker_set_key" : "_ZTIKN7android14StaticString16ILm39EEE",
   "name" : "const android::StaticString16<39>",
   "referenced_type" : "_ZTIN7android14StaticString16ILm39EEE",
   "self_type" : "_ZTIKN7android14StaticString16ILm39EEE",
   "size" : 96,
   "source_file" : "out/soong/.intermediates/frameworks/native/libs/permission/framework-permission-aidl-cpp-source/gen/include/android/content/AttributionSourceState.h"
  },
  {
   "alignment" : 8,
   "is_const" : true,
   "linker_set_key" : "_ZTIKN7android16key_value_pair_tINS_7String8ES1_EE",
   "name" : "const android::key_value_pair_t<android::String8, android::String8>",
   "referenced_type" : "_ZTIN7android16key_value_pair_tINS_7String8ES1_EE",
   "self_type" : "_ZTIKN7android16key_value_pair_tINS_7String8ES1_EE",
   "size" : 16,
   "source_file" : "system/core/libutils/include/utils/TypeHelpers.h"
  },
  {
   "alignment" : 8,
   "is_const" : true,
   "linker_set_key" : "_ZTIKN7android16key_value_pair_tIiNS_2spINS_17AudioIoDescriptorEEEEE",
   "name" : "const android::key_value_pair_t<int, android::sp<android::AudioIoDescriptor>>",
   "referenced_type" : "_ZTIN7android16key_value_pair_tIiNS_2spINS_17AudioIoDescriptorEEEEE",
   "self_type" : "_ZTIKN7android16key_value_pair_tIiNS_2spINS_17AudioIoDescriptorEEEEE",
   "size" : 16,
   "source_file" : "system/core/libutils/include/utils/TypeHelpers.h"
  },
  {
   "alignment" : 4,
   "is_const" : true,
   "linker_set_key" : "_ZTIKN7android22AudioMixMatchCriterionE",
   "name" : "const android::AudioMixMatchCriterion",
   "referenced_type" : "_ZTIN7android22AudioMixMatchCriterionE",
   "self_type" : "_ZTIKN7android22AudioMixMatchCriterionE",
   "size" : 8,
   "source_file" : "system/core/libutils/include/utils/TypeHelpers.h"
  },
  {
   "alignment" : 8,
   "is_const" : true,
   "linker_set_key" : "_ZTIKN7android2os16ParcelableHolderE",
   "name" : "const android::os::ParcelableHolder",
   "referenced_type" : "_ZTIN7android2os16ParcelableHolderE",
   "self_type" : "_ZTIKN7android2os16ParcelableHolderE",
   "size" : 56,
   "source_file" : "frameworks/native/libs/binder/include/binder/ParcelableHolder.h"
  },
  {
   "alignment" : 8,
   "is_const" : true,
   "linker_set_key" : "_ZTIKN7android2os20ParcelFileDescriptorE",
   "name" : "const android::os::ParcelFileDescriptor",
   "referenced_type" : "_ZTIN7android2os20ParcelFileDescriptorE",
   "self_type" : "_ZTIKN7android2os20ParcelFileDescriptorE",
   "size" : 16,
   "source_file" : "frameworks/native/libs/binder/include/binder/ParcelFileDescriptor.h"
  },
  {
   "alignment" : 8,
   "is_const" : true,
   "linker_set_key" : "_ZTIKN7android2spIN6aaudio11AudioStream12MyPlayerBaseEEE",
   "name" : "const android::sp<aaudio::AudioStream::MyPlayerBase>",
   "referenced_type" : "_ZTIN7android2spIN6aaudio11AudioStream12MyPlayerBaseEEE",
   "self_type" : "_ZTIKN7android2spIN6aaudio11AudioStream12MyPlayerBaseEEE",
   "size" : 8,
   "source_file" : "system/core/libutils/include/utils/StrongPointer.h"
  },
  {
   "alignment" : 8,
   "is_const" : true,
   "linker_set_key" : "_ZTIKN7android2spINS_11AudioSystem17AudioPortCallbackEEE",
   "name" : "const android::sp<android::AudioSystem::AudioPortCallback>",
   "referenced_type" : "_ZTIN7android2spINS_11AudioSystem17AudioPortCallbackEEE",
   "self_type" : "_ZTIKN7android2spINS_11AudioSystem17AudioPortCallbackEEE",
   "size" : 8,
   "source_file" : "system/core/libutils/include/utils/StrongPointer.h"
  },
  {
   "alignment" : 8,
   "is_const" : true,
   "linker_set_key" : "_ZTIKN7android2spINS_11AudioSystem24AudioVolumeGroupCallbackEEE",
   "name" : "const android::sp<android::AudioSystem::AudioVolumeGroupCallback>",
   "referenced_type" : "_ZTIN7android2spINS_11AudioSystem24AudioVolumeGroupCallbackEEE",
   "self_type" : "_ZTIKN7android2spINS_11AudioSystem24AudioVolumeGroupCallbackEEE",
   "size" : 8,
   "source_file" : "system/core/libutils/include/utils/StrongPointer.h"
  },
  {
   "alignment" : 8,
   "is_const" : true,
   "linker_set_key" : "_ZTIKN7android2spINS_17AudioIoDescriptorEEE",
   "name" : "const android::sp<android::AudioIoDescriptor>",
   "referenced_type" : "_ZTIN7android2spINS_17AudioIoDescriptorEEE",
   "self_type" : "_ZTIKN7android2spINS_17AudioIoDescriptorEEE",
   "size" : 8,
   "source_file" : "system/core/libutils/include/utils/StrongPointer.h"
  },
  {
   "alignment" : 8,
   "is_const" : true,
   "linker_set_key" : "_ZTIKN7android2spINS_5media12VolumeShaper13ConfigurationEEE",
   "name" : "const android::sp<android::media::VolumeShaper::Configuration>",
   "referenced_type" : "_ZTIN7android2spINS_5media12VolumeShaper13ConfigurationEEE",
   "self_type" : "_ZTIKN7android2spINS_5media12VolumeShaper13ConfigurationEEE",
   "size" : 8,
   "source_file" : "system/core/libutils/include/utils/StrongPointer.h"
  },
  {
   "alignment" : 8,
   "is_const" : true,
   "linker_set_key" : "_ZTIKN7android2spINS_5media12VolumeShaper5StateEEE",
   "name" : "const android::sp<android::media::VolumeShaper::State>",
   "referenced_type" : "_ZTIN7android2spINS_5media12VolumeShaper5StateEEE",
   "self_type" : "_ZTIKN7android2spINS_5media12VolumeShaper5StateEEE",
   "size" : 8,
   "source_file" : "system/core/libutils/include/utils/StrongPointer.h"
  },
  {
   "alignment" : 8,
   "is_const" : true,
   "linker_set_key" : "_ZTIKN7android2spINS_5media12VolumeShaper9OperationEEE",
   "name" : "const android::sp<android::media::VolumeShaper::Operation>",
   "referenced_type" : "_ZTIN7android2spINS_5media12VolumeShaper9OperationEEE",
   "self_type" : "_ZTIKN7android2spINS_5media12VolumeShaper9OperationEEE",
   "size" : 8,
   "source_file" : "system/core/libutils/include/utils/StrongPointer.h"
  },
  {
   "alignment" : 8,
   "is_const" : true,
   "linker_set_key" : "_ZTIKN7android2spINS_7IBinderEEE",
   "name" : "const android::sp<android::IBinder>",
   "referenced_type" : "_ZTIN7android2spINS_7IBinderEEE",
   "self_type" : "_ZTIKN7android2spINS_7IBinderEEE",
   "size" : 8,
   "source_file" : "system/core/libutils/include/utils/StrongPointer.h"
  },
  {
   "alignment" : 1,
   "is_const" : true,
   "linker_set_key" : "_ZTIKN7android4base10unexpect_tE",
   "name" : "const android::base::unexpect_t",
   "referenced_type" : "_ZTIN7android4base10unexpect_tE",
   "self_type" : "_ZTIKN7android4base10unexpect_tE",
   "size" : 1,
   "source_file" : "system/libbase/include/android-base/expected.h"
  },
  {
   "alignment" : 4,
   "is_const" : true,
   "linker_set_key" : "_ZTIKN7android4base10unexpectedIiEE",
   "name" : "const android::base::unexpected<int>",
   "referenced_type" : "_ZTIN7android4base10unexpectedIiEE",
   "self_type" : "_ZTIKN7android4base10unexpectedIiEE",
   "size" : 4,
   "source_file" : "system/libbase/include/android-base/expected.h"
  },
  {
   "alignment" : 4,
   "is_const" : true,
   "linker_set_key" : "_ZTIKN7android4base11borrowed_fdE",
   "name" : "const android::base::borrowed_fd",
   "referenced_type" : "_ZTIN7android4base11borrowed_fdE",
   "self_type" : "_ZTIKN7android4base11borrowed_fdE",
   "size" : 4,
   "source_file" : "system/libbase/include/android-base/unique_fd.h"
  },
  {
   "alignment" : 4,
   "is_const" : true,
   "linker_set_key" : "_ZTIKN7android4base14unique_fd_implINS0_13DefaultCloserEEE",
   "name" : "const android::base::unique_fd_impl<android::base::DefaultCloser>",
   "referenced_type" : "_ZTIN7android4base14unique_fd_implINS0_13DefaultCloserEEE",
   "self_type" : "_ZTIKN7android4base14unique_fd_implINS0_13DefaultCloserEEE",
   "size" : 4,
   "source_file" : "system/libbase/include/android-base/unique_fd.h"
  },
  {
   "alignment" : 8,
   "is_const" : true,
   "linker_set_key" : "_ZTIKN7android4base8expectedINS_5media14MicrophoneInfoEiEE",
   "name" : "const android::base::expected<android::media::MicrophoneInfo, int>",
   "referenced_type" : "_ZTIN7android4base8expectedINS_5media14MicrophoneInfoEiEE",
   "self_type" : "_ZTIKN7android4base8expectedINS_5media14MicrophoneInfoEiEE",
   "size" : 200,
   "source_file" : "system/libbase/include/android-base/expected.h"
  },
  {
   "alignment" : 8,
   "is_const" : true,
   "linker_set_key" : "_ZTIKN7android4base8expectedINS_5media18MicrophoneInfoDataEiEE",
   "name" : "const android::base::expected<android::media::MicrophoneInfoData, int>",
   "referenced_type" : "_ZTIN7android4base8expectedINS_5media18MicrophoneInfoDataEiEE",
   "self_type" : "_ZTIKN7android4base8expectedINS_5media18MicrophoneInfoDataEiEE",
   "size" : 224,
   "source_file" : "system/libbase/include/android-base/expected.h"
  },
  {
   "alignment" : 4,
   "is_const" : true,
   "linker_set_key" : "_ZTIKN7android4base8expectedIiiEE",
   "name" : "const android::base::expected<int, int>",
   "referenced_type" : "_ZTIN7android4base8expectedIiiEE",
   "self_type" : "_ZTIKN7android4base8expectedIiiEE",
   "size" : 8,
   "source_file" : "system/libbase/include/android-base/expected.h"
  },
  {
   "alignment" : 4,
   "is_const" : true,
   "linker_set_key" : "_ZTIKN7android4base8expectedIjiEE",
   "name" : "const android::base::expected<unsigned int, int>",
   "referenced_type" : "_ZTIN7android4base8expectedIjiEE",
   "self_type" : "_ZTIKN7android4base8expectedIjiEE",
   "size" : 8,
   "source_file" : "system/libbase/include/android-base/expected.h"
  },
  {
   "alignment" : 8,
   "is_const" : true,
   "linker_set_key" : "_ZTIKN7android5media10AudioPatchE",
   "name" : "const android::media::AudioPatch",
   "referenced_type" : "_ZTIN7android5media10AudioPatchE",
   "self_type" : "_ZTIKN7android5media10AudioPatchE",
   "size" : 64,
   "source_file" : "frameworks/native/libs/binder/ndk/include_cpp/android/binder_to_string.h"
  },
  {
   "alignment" : 4,
   "is_const" : true,
   "linker_set_key" : "_ZTIKN7android5media10AudioUsageE",
   "name" : "const android::media::AudioUsage",
   "referenced_type" : "_ZTIN7android5media10AudioUsageE",
   "self_type" : "_ZTIKN7android5media10AudioUsageE",
   "size" : 4,
   "source_file" : "frameworks/native/libs/binder/ndk/include_cpp/android/binder_to_string.h"
  },
  {
   "alignment" : 8,
   "is_const" : true,
   "linker_set_key" : "_ZTIKN7android5media12AudioIoFlagsE",
   "name" : "const android::media::AudioIoFlags",
   "referenced_type" : "_ZTIN7android5media12AudioIoFlagsE",
   "self_type" : "_ZTIKN7android5media12AudioIoFlagsE",
   "size" : 16,
   "source_file" : "frameworks/native/libs/binder/ndk/include_cpp/android/binder_to_string.h"
  },
  {
   "alignment" : 4,
   "is_const" : true,
   "linker_set_key" : "_ZTIKN7android5media13AudioPortRoleE",
   "name" : "const android::media::AudioPortRole",
   "referenced_type" : "_ZTIN7android5media13AudioPortRoleE",
   "self_type" : "_ZTIKN7android5media13AudioPortRoleE",
   "size" : 4,
   "source_file" : "frameworks/native/libs/binder/ndk/include_cpp/android/binder_to_string.h"
  },
  {
   "alignment" : 4,
   "is_const" : true,
   "linker_set_key" : "_ZTIKN7android5media13AudioPortTypeE",
   "name" : "const android::media::AudioPortType",
   "referenced_type" : "_ZTIN7android5media13AudioPortTypeE",
   "self_type" : "_ZTIKN7android5media13AudioPortTypeE",
   "size" : 4,
   "source_file" : "frameworks/native/libs/binder/ndk/include_cpp/android/binder_to_string.h"
  },
  {
   "alignment" : 8,
   "is_const" : true,
   "linker_set_key" : "_ZTIKN7android5media15AudioGainConfigE",
   "name" : "const android::media::AudioGainConfig",
   "referenced_type" : "_ZTIN7android5media15AudioGainConfigE",
   "self_type" : "_ZTIKN7android5media15AudioGainConfigE",
   "size" : 56,
   "source_file" : "frameworks/native/libs/binder/ndk/include_cpp/android/binder_to_string.h"
  },
  {
   "alignment" : 8,
   "is_const" : true,
   "linker_set_key" : "_ZTIKN7android5media15AudioPortConfigE",
   "name" : "const android::media::AudioPortConfig",
   "referenced_type" : "_ZTIN7android5media15AudioPortConfigE",
   "self_type" : "_ZTIKN7android5media15AudioPortConfigE",
   "size" : 168,
   "source_file" : "frameworks/native/libs/binder/ndk/include_cpp/android/binder_to_string.h"
  },
  {
   "alignment" : 4,
   "is_const" : true,
   "linker_set_key" : "_ZTIKN7android5media15AudioSourceTypeE",
   "name" : "const android::media::AudioSourceType",
   "referenced_type" : "_ZTIN7android5media15AudioSourceTypeE",
   "self_type" : "_ZTIKN7android5media15AudioSourceTypeE",
   "size" : 4,
   "source_file" : "frameworks/native/libs/binder/ndk/include_cpp/android/binder_to_string.h"
  },
  {
   "alignment" : 4,
   "is_const" : true,
   "linker_set_key" : "_ZTIKN7android5media15AudioStreamTypeE",
   "name" : "const android::media::AudioStreamType",
   "referenced_type" : "_ZTIN7android5media15AudioStreamTypeE",
   "self_type" : "_ZTIKN7android5media15AudioStreamTypeE",
   "size" : 4,
   "source_file" : "frameworks/native/libs/binder/ndk/include_cpp/android/binder_to_string.h"
  },
  {
   "alignment" : 4,
   "is_const" : true,
   "linker_set_key" : "_ZTIKN7android5media16AudioContentTypeE",
   "name" : "const android::media::AudioContentType",
   "referenced_type" : "_ZTIN7android5media16AudioContentTypeE",
   "self_type" : "_ZTIKN7android5media16AudioContentTypeE",
   "size" : 4,
   "source_file" : "frameworks/native/libs/binder/ndk/include_cpp/android/binder_to_string.h"
  },
  {
   "alignment" : 4,
   "is_const" : true,
   "linker_set_key" : "_ZTIKN7android5media16InterpolatorTypeE",
   "name" : "const android::media::InterpolatorType",
   "referenced_type" : "_ZTIN7android5media16InterpolatorTypeE",
   "self_type" : "_ZTIKN7android5media16InterpolatorTypeE",
   "size" : 4,
   "source_file" : "frameworks/native/libs/binder/ndk/include_cpp/android/binder_to_string.h"
  },
  {
   "alignment" : 8,
   "is_const" : true,
   "linker_set_key" : "_ZTIKN7android5media16SharedFileRegionE",
   "name" : "const android::media::SharedFileRegion",
   "referenced_type" : "_ZTIN7android5media16SharedFileRegionE",
   "self_type" : "_ZTIKN7android5media16SharedFileRegionE",
   "size" : 48,
   "source_file" : "frameworks/native/libs/binder/ndk/include_cpp/android/binder_to_string.h"
  },
  {
   "alignment" : 8,
   "is_const" : true,
   "linker_set_key" : "_ZTIKN7android5media17AudioAttributesExE",
   "name" : "const android::media::AudioAttributesEx",
   "referenced_type" : "_ZTIN7android5media17AudioAttributesExE",
   "self_type" : "_ZTIKN7android5media17AudioAttributesExE",
   "size" : 64,
   "source_file" : "frameworks/native/libs/binder/ndk/include_cpp/android/binder_to_string.h"
  },
  {
   "alignment" : 8,
   "is_const" : true,
   "linker_set_key" : "_ZTIKN7android5media18AudioPortConfigExtE",
   "name" : "const android::media::AudioPortConfigExt",
   "referenced_type" : "_ZTIN7android5media18AudioPortConfigExtE",
   "self_type" : "_ZTIKN7android5media18AudioPortConfigExtE",
   "size" : 56,
   "source_file" : "frameworks/native/libs/binder/ndk/include_cpp/android/binder_to_string.h"
  },
  {
   "alignment" : 8,
   "is_const" : true,
   "linker_set_key" : "_ZTIKN7android5media18InterpolatorConfigE",
   "name" : "const android::media::InterpolatorConfig",
   "referenced_type" : "_ZTIN7android5media18InterpolatorConfigE",
   "self_type" : "_ZTIKN7android5media18InterpolatorConfigE",
   "size" : 48,
   "source_file" : "frameworks/native/libs/binder/ndk/include_cpp/android/binder_to_string.h"
  },
  {
   "alignment" : 8,
   "is_const" : true,
   "linker_set_key" : "_ZTIKN7android5media21AudioPortConfigMixExtE",
   "name" : "const android::media::AudioPortConfigMixExt",
   "referenced_type" : "_ZTIN7android5media21AudioPortConfigMixExtE",
   "self_type" : "_ZTIKN7android5media21AudioPortConfigMixExtE",
   "size" : 32,
   "source_file" : "frameworks/native/libs/binder/ndk/include_cpp/android/binder_to_string.h"
  },
  {
   "alignment" : 8,
   "is_const" : true,
   "linker_set_key" : "_ZTIKN7android5media23AudioAttributesInternalE",
   "name" : "const android::media::AudioAttributesInternal",
   "referenced_type" : "_ZTIN7android5media23AudioAttributesInternalE",
   "self_type" : "_ZTIKN7android5media23AudioAttributesInternalE",
   "size" : 48,
   "source_file" : "frameworks/native/libs/binder/ndk/include_cpp/android/binder_to_string.h"
  },
  {
   "alignment" : 8,
   "is_const" : true,
   "linker_set_key" : "_ZTIKN7android5media24AudioPortConfigDeviceExtE",
   "name" : "const android::media::AudioPortConfigDeviceExt",
   "referenced_type" : "_ZTIN7android5media24AudioPortConfigDeviceExtE",
   "self_type" : "_ZTIKN7android5media24AudioPortConfigDeviceExtE",
   "size" : 40,
   "source_file" : "frameworks/native/libs/binder/ndk/include_cpp/android/binder_to_string.h"
  },
  {
   "alignment" : 8,
   "is_const" : true,
   "linker_set_key" : "_ZTIKN7android5media25AudioPortConfigSessionExtE",
   "name" : "const android::media::AudioPortConfigSessionExt",
   "referenced_type" : "_ZTIN7android5media25AudioPortConfigSessionExtE",
   "self_type" : "_ZTIKN7android5media25AudioPortConfigSessionExtE",
   "size" : 16,
   "source_file" : "frameworks/native/libs/binder/ndk/include_cpp/android/binder_to_string.h"
  },
  {
   "alignment" : 8,
   "is_const" : true,
   "linker_set_key" : "_ZTIKN7android5media28AudioPortConfigMixExtUseCaseE",
   "name" : "const android::media::AudioPortConfigMixExtUseCase",
   "referenced_type" : "_ZTIN7android5media28AudioPortConfigMixExtUseCaseE",
   "self_type" : "_ZTIKN7android5media28AudioPortConfigMixExtUseCaseE",
   "size" : 16,
   "source_file" : "frameworks/native/libs/binder/ndk/include_cpp/android/binder_to_string.h"
  },
  {
   "alignment" : 4,
   "is_const" : true,
   "linker_set_key" : "_ZTIKN7android5media29VolumeShaperConfigurationTypeE",
   "name" : "const android::media::VolumeShaperConfigurationType",
   "referenced_type" : "_ZTIN7android5media29VolumeShaperConfigurationTypeE",
   "self_type" : "_ZTIKN7android5media29VolumeShaperConfigurationTypeE",
   "size" : 4,
   "source_file" : "frameworks/native/libs/binder/ndk/include_cpp/android/binder_to_string.h"
  },
  {
   "alignment" : 4,
   "is_const" : true,
   "linker_set_key" : "_ZTIKN7android5media5audio6common11AudioFormatE",
   "name" : "const android::media::audio::common::AudioFormat",
   "referenced_type" : "_ZTIN7android5media5audio6common11AudioFormatE",
   "self_type" : "_ZTIKN7android5media5audio6common11AudioFormatE",
   "size" : 4,
   "source_file" : "frameworks/native/libs/binder/ndk/include_cpp/android/binder_to_string.h"
  },
  {
   "alignment" : 8,
   "is_const" : true,
   "linker_set_key" : "_ZTIKN7android5media9AudioUuidE",
   "name" : "const android::media::AudioUuid",
   "referenced_type" : "_ZTIN7android5media9AudioUuidE",
   "self_type" : "_ZTIKN7android5media9AudioUuidE",
   "size" : 48,
   "source_file" : "frameworks/native/libs/binder/ndk/include_cpp/android/binder_to_string.h"
  },
  {
   "alignment" : 8,
   "is_const" : true,
   "linker_set_key" : "_ZTIKN7android6Parcel12ReadableBlobE",
   "name" : "const android::Parcel::ReadableBlob",
   "referenced_type" : "_ZTIN7android6Parcel12ReadableBlobE",
   "self_type" : "_ZTIKN7android6Parcel12ReadableBlobE",
   "size" : 32,
   "source_file" : "frameworks/native/libs/binder/include/binder/Parcel.h"
  },
  {
   "alignment" : 8,
   "is_const" : true,
   "linker_set_key" : "_ZTIKN7android6Parcel4BlobE",
   "name" : "const android::Parcel::Blob",
   "referenced_type" : "_ZTIN7android6Parcel4BlobE",
   "self_type" : "_ZTIKN7android6Parcel4BlobE",
   "size" : 32,
   "source_file" : "frameworks/native/libs/binder/include/binder/Parcel.h"
  },
  {
   "alignment" : 8,
   "is_const" : true,
   "linker_set_key" : "_ZTIKN7android6ParcelE",
   "name" : "const android::Parcel",
   "referenced_type" : "_ZTIN7android6ParcelE",
   "self_type" : "_ZTIKN7android6ParcelE",
   "size" : 120,
   "source_file" : "frameworks/native/libs/binder/include/binder/Parcel.h"
  },
  {
   "alignment" : 8,
   "is_const" : true,
   "linker_set_key" : "_ZTIKN7android6VectorINS_22AudioMixMatchCriterionEEE",
   "name" : "const android::Vector<android::AudioMixMatchCriterion>",
   "referenced_type" : "_ZTIN7android6VectorINS_22AudioMixMatchCriterionEEE",
   "self_type" : "_ZTIKN7android6VectorINS_22AudioMixMatchCriterionEEE",
   "size" : 40,
   "source_file" : "system/core/libutils/include/utils/Vector.h"
  },
  {
   "alignment" : 8,
   "is_const" : true,
   "linker_set_key" : "_ZTIKN7android6VectorINS_2spINS_11AudioSystem17AudioPortCallbackEEEEE",
   "name" : "const android::Vector<android::sp<android::AudioSystem::AudioPortCallback>>",
   "referenced_type" : "_ZTIN7android6VectorINS_2spINS_11AudioSystem17AudioPortCallbackEEEEE",
   "self_type" : "_ZTIKN7android6VectorINS_2spINS_11AudioSystem17AudioPortCallbackEEEEE",
   "size" : 40,
   "source_file" : "system/core/libutils/include/utils/Vector.h"
  },
  {
   "alignment" : 8,
   "is_const" : true,
   "linker_set_key" : "_ZTIKN7android6VectorINS_2spINS_11AudioSystem24AudioVolumeGroupCallbackEEEEE",
   "name" : "const android::Vector<android::sp<android::AudioSystem::AudioVolumeGroupCallback>>",
   "referenced_type" : "_ZTIN7android6VectorINS_2spINS_11AudioSystem24AudioVolumeGroupCallbackEEEEE",
   "self_type" : "_ZTIKN7android6VectorINS_2spINS_11AudioSystem24AudioVolumeGroupCallbackEEEEE",
   "size" : 40,
   "source_file" : "system/core/libutils/include/utils/Vector.h"
  },
  {
   "alignment" : 8,
   "is_const" : true,
   "linker_set_key" : "_ZTIKN7android6binder6StatusE",
   "name" : "const android::binder::Status",
   "referenced_type" : "_ZTIN7android6binder6StatusE",
   "self_type" : "_ZTIKN7android6binder6StatusE",
   "size" : 16,
   "source_file" : "frameworks/native/libs/binder/include/binder/Status.h"
  },
  {
   "alignment" : 8,
   "is_const" : true,
   "linker_set_key" : "_ZTIKN7android7HexDumpE",
   "name" : "const android::HexDump",
   "referenced_type" : "_ZTIN7android7HexDumpE",
   "self_type" : "_ZTIKN7android7HexDumpE",
   "size" : 48,
   "source_file" : "frameworks/native/libs/binder/include/binder/TextOutput.h"
  },
  {
   "alignment" : 8,
   "is_const" : true,
   "linker_set_key" : "_ZTIKN7android7IBinderE",
   "name" : "const android::IBinder",
   "referenced_type" : "_ZTIN7android7IBinderE",
   "self_type" : "_ZTIKN7android7IBinderE",
   "size" : 24,
   "source_file" : "frameworks/native/libs/binder/ndk/include_cpp/android/binder_to_string.h"
  },
  {
   "alignment" : 8,
   "is_const" : true,
   "linker_set_key" : "_ZTIKN7android7RefBaseE",
   "name" : "const android::RefBase",
   "referenced_type" : "_ZTIN7android7RefBaseE",
   "self_type" : "_ZTIKN7android7RefBaseE",
   "size" : 16,
   "source_file" : "system/core/libutils/include/utils/RefBase.h"
  },
  {
   "alignment" : 8,
   "is_const" : true,
   "linker_set_key" : "_ZTIKN7android7String8E",
   "name" : "const android::String8",
   "referenced_type" : "_ZTIN7android7String8E",
   "self_type" : "_ZTIKN7android7String8E",
   "size" : 8,
   "source_file" : "system/core/libutils/include/utils/String8.h"
  },
  {
   "alignment" : 8,
   "is_const" : true,
   "linker_set_key" : "_ZTIKN7android7content22AttributionSourceStateE",
   "name" : "const android::content::AttributionSourceState",
   "referenced_type" : "_ZTIN7android7content22AttributionSourceStateE",
   "self_type" : "_ZTIKN7android7content22AttributionSourceStateE",
   "size" : 144,
   "source_file" : "frameworks/native/libs/binder/ndk/include_cpp/android/binder_to_string.h"
  },
  {
   "alignment" : 4,
   "is_const" : true,
   "linker_set_key" : "_ZTIKN7android8String1610StaticDataILm16EEE",
   "name" : "const android::String16::StaticData<16>",
   "referenced_type" : "_ZTIN7android8String1610StaticDataILm16EEE",
   "self_type" : "_ZTIKN7android8String1610StaticDataILm16EEE",
   "size" : 36,
   "source_file" : "system/core/libutils/include/utils/String16.h"
  },
  {
   "alignment" : 4,
   "is_const" : true,
   "linker_set_key" : "_ZTIKN7android8String1610StaticDataILm18EEE",
   "name" : "const android::String16::StaticData<18>",
   "referenced_type" : "_ZTIN7android8String1610StaticDataILm18EEE",
   "self_type" : "_ZTIKN7android8String1610StaticDataILm18EEE",
   "size" : 40,
   "source_file" : "system/core/libutils/include/utils/String16.h"
  },
  {
   "alignment" : 4,
   "is_const" : true,
   "linker_set_key" : "_ZTIKN7android8String1610StaticDataILm20EEE",
   "name" : "const android::String16::StaticData<20>",
   "referenced_type" : "_ZTIN7android8String1610StaticDataILm20EEE",
   "self_type" : "_ZTIKN7android8String1610StaticDataILm20EEE",
   "size" : 44,
   "source_file" : "system/core/libutils/include/utils/String16.h"
  },
  {
   "alignment" : 4,
   "is_const" : true,
   "linker_set_key" : "_ZTIKN7android8String1610StaticDataILm21EEE",
   "name" : "const android::String16::StaticData<21>",
   "referenced_type" : "_ZTIN7android8String1610StaticDataILm21EEE",
   "self_type" : "_ZTIKN7android8String1610StaticDataILm21EEE",
   "size" : 48,
   "source_file" : "system/core/libutils/include/utils/String16.h"
  },
  {
   "alignment" : 4,
   "is_const" : true,
   "linker_set_key" : "_ZTIKN7android8String1610StaticDataILm24EEE",
   "name" : "const android::String16::StaticData<24>",
   "referenced_type" : "_ZTIN7android8String1610StaticDataILm24EEE",
   "self_type" : "_ZTIKN7android8String1610StaticDataILm24EEE",
   "size" : 52,
   "source_file" : "system/core/libutils/include/utils/String16.h"
  },
  {
   "alignment" : 4,
   "is_const" : true,
   "linker_set_key" : "_ZTIKN7android8String1610StaticDataILm25EEE",
   "name" : "const android::String16::StaticData<25>",
   "referenced_type" : "_ZTIN7android8String1610StaticDataILm25EEE",
   "self_type" : "_ZTIKN7android8String1610StaticDataILm25EEE",
   "size" : 56,
   "source_file" : "system/core/libutils/include/utils/String16.h"
  },
  {
   "alignment" : 4,
   "is_const" : true,
   "linker_set_key" : "_ZTIKN7android8String1610StaticDataILm26EEE",
   "name" : "const android::String16::StaticData<26>",
   "referenced_type" : "_ZTIN7android8String1610StaticDataILm26EEE",
   "self_type" : "_ZTIKN7android8String1610StaticDataILm26EEE",
   "size" : 56,
   "source_file" : "system/core/libutils/include/utils/String16.h"
  },
  {
   "alignment" : 4,
   "is_const" : true,
   "linker_set_key" : "_ZTIKN7android8String1610StaticDataILm27EEE",
   "name" : "const android::String16::StaticData<27>",
   "referenced_type" : "_ZTIN7android8String1610StaticDataILm27EEE",
   "self_type" : "_ZTIKN7android8String1610StaticDataILm27EEE",
   "size" : 60,
   "source_file" : "system/core/libutils/include/utils/String16.h"
  },
  {
   "alignment" : 4,
   "is_const" : true,
   "linker_set_key" : "_ZTIKN7android8String1610StaticDataILm30EEE",
   "name" : "const android::String16::StaticData<30>",
   "referenced_type" : "_ZTIN7android8String1610StaticDataILm30EEE",
   "self_type" : "_ZTIKN7android8String1610StaticDataILm30EEE",
   "size" : 64,
   "source_file" : "system/core/libutils/include/utils/String16.h"
  },
  {
   "alignment" : 4,
   "is_const" : true,
   "linker_set_key" : "_ZTIKN7android8String1610StaticDataILm31EEE",
   "name" : "const android::String16::StaticData<31>",
   "referenced_type" : "_ZTIN7android8String1610StaticDataILm31EEE",
   "self_type" : "_ZTIKN7android8String1610StaticDataILm31EEE",
   "size" : 68,
   "source_file" : "system/core/libutils/include/utils/String16.h"
  },
  {
   "alignment" : 4,
   "is_const" : true,
   "linker_set_key" : "_ZTIKN7android8String1610StaticDataILm32EEE",
   "name" : "const android::String16::StaticData<32>",
   "referenced_type" : "_ZTIN7android8String1610StaticDataILm32EEE",
   "self_type" : "_ZTIKN7android8String1610StaticDataILm32EEE",
   "size" : 68,
   "source_file" : "system/core/libutils/include/utils/String16.h"
  },
  {
   "alignment" : 4,
   "is_const" : true,
   "linker_set_key" : "_ZTIKN7android8String1610StaticDataILm33EEE",
   "name" : "const android::String16::StaticData<33>",
   "referenced_type" : "_ZTIN7android8String1610StaticDataILm33EEE",
   "self_type" : "_ZTIKN7android8String1610StaticDataILm33EEE",
   "size" : 72,
   "source_file" : "system/core/libutils/include/utils/String16.h"
  },
  {
   "alignment" : 4,
   "is_const" : true,
   "linker_set_key" : "_ZTIKN7android8String1610StaticDataILm35EEE",
   "name" : "const android::String16::StaticData<35>",
   "referenced_type" : "_ZTIN7android8String1610StaticDataILm35EEE",
   "self_type" : "_ZTIKN7android8String1610StaticDataILm35EEE",
   "size" : 76,
   "source_file" : "system/core/libutils/include/utils/String16.h"
  },
  {
   "alignment" : 4,
   "is_const" : true,
   "linker_set_key" : "_ZTIKN7android8String1610StaticDataILm36EEE",
   "name" : "const android::String16::StaticData<36>",
   "referenced_type" : "_ZTIN7android8String1610StaticDataILm36EEE",
   "self_type" : "_ZTIKN7android8String1610StaticDataILm36EEE",
   "size" : 76,
   "source_file" : "system/core/libutils/include/utils/String16.h"
  },
  {
   "alignment" : 4,
   "is_const" : true,
   "linker_set_key" : "_ZTIKN7android8String1610StaticDataILm38EEE",
   "name" : "const android::String16::StaticData<38>",
   "referenced_type" : "_ZTIN7android8String1610StaticDataILm38EEE",
   "self_type" : "_ZTIKN7android8String1610StaticDataILm38EEE",
   "size" : 80,
   "source_file" : "system/core/libutils/include/utils/String16.h"
  },
  {
   "alignment" : 4,
   "is_const" : true,
   "linker_set_key" : "_ZTIKN7android8String1610StaticDataILm39EEE",
   "name" : "const android::String16::StaticData<39>",
   "referenced_type" : "_ZTIN7android8String1610StaticDataILm39EEE",
   "self_type" : "_ZTIKN7android8String1610StaticDataILm39EEE",
   "size" : 84,
   "source_file" : "system/core/libutils/include/utils/String16.h"
  },
  {
   "alignment" : 4,
   "is_const" : true,
   "linker_set_key" : "_ZTIKN7android8String1610StaticDataILm40EEE",
   "name" : "const android::String16::StaticData<40>",
   "referenced_type" : "_ZTIN7android8String1610StaticDataILm40EEE",
   "self_type" : "_ZTIKN7android8String1610StaticDataILm40EEE",
   "size" : 84,
   "source_file" : "system/core/libutils/include/utils/String16.h"
  },
  {
   "alignment" : 4,
   "is_const" : true,
   "linker_set_key" : "_ZTIKN7android8String1610StaticDataILm43EEE",
   "name" : "const android::String16::StaticData<43>",
   "referenced_type" : "_ZTIN7android8String1610StaticDataILm43EEE",
   "self_type" : "_ZTIKN7android8String1610StaticDataILm43EEE",
   "size" : 92,
   "source_file" : "system/core/libutils/include/utils/String16.h"
  },
  {
   "alignment" : 8,
   "is_const" : true,
   "linker_set_key" : "_ZTIKN7android8String16E",
   "name" : "const android::String16",
   "referenced_type" : "_ZTIN7android8String16E",
   "self_type" : "_ZTIKN7android8String16E",
   "size" : 8,
   "source_file" : "system/core/libutils/include/utils/String16.h"
  },
  {
   "alignment" : 4,
   "is_const" : true,
   "linker_set_key" : "_ZTIKN7android8TypeCodeE",
   "name" : "const android::TypeCode",
   "referenced_type" : "_ZTIN7android8TypeCodeE",
   "self_type" : "_ZTIKN7android8TypeCodeE",
   "size" : 4,
   "source_file" : "frameworks/native/libs/binder/include/binder/TextOutput.h"
  },
  {
   "alignment" : 8,
   "is_const" : true,
   "linker_set_key" : "_ZTIKN7android9BpRefBaseE",
   "name" : "const android::BpRefBase",
   "referenced_type" : "_ZTIN7android9BpRefBaseE",
   "self_type" : "_ZTIKN7android9BpRefBaseE",
   "size" : 48,
   "source_file" : "frameworks/native/libs/binder/include/binder/Binder.h"
  },
  {
   "alignment" : 8,
   "is_const" : true,
   "linker_set_key" : "_ZTIKNSt3__112basic_stringIcNS_11char_traitsIcEENS_9allocatorIcEEEE",
   "name" : "const std::basic_string<char, std::char_traits<char>, std::allocator<char>>",
   "referenced_type" : "_ZTINSt3__112basic_stringIcNS_11char_traitsIcEENS_9allocatorIcEEEE",
   "self_type" : "_ZTIKNSt3__112basic_stringIcNS_11char_traitsIcEENS_9allocatorIcEEEE",
   "size" : 24,
   "source_file" : "frameworks/native/libs/binder/include/binder/Parcel.h"
  },
  {
   "alignment" : 4,
   "is_const" : true,
   "linker_set_key" : "_ZTIKNSt3__15arrayIN7android5media5audio6common11AudioFormatELm70EEE",
   "name" : "const std::array<android::media::audio::common::AudioFormat, 70>",
   "referenced_type" : "_ZTINSt3__15arrayIN7android5media5audio6common11AudioFormatELm70EEE",
   "self_type" : "_ZTIKNSt3__15arrayIN7android5media5audio6common11AudioFormatELm70EEE",
   "size" : 280,
   "source_file" : "out/soong/.intermediates/frameworks/base/media/audio_common-aidl-cpp-source/gen/include/android/media/audio/common/AudioFormat.h"
  },
  {
   "alignment" : 8,
   "is_const" : true,
   "linker_set_key" : "_ZTIKNSt3__16vectorIN7android5media15AudioPortConfigENS_9allocatorIS3_EEEE",
   "name" : "const std::vector<android::media::AudioPortConfig, std::allocator<android::media::AudioPortConfig>>",
   "referenced_type" : "_ZTINSt3__16vectorIN7android5media15AudioPortConfigENS_9allocatorIS3_EEEE",
   "self_type" : "_ZTIKNSt3__16vectorIN7android5media15AudioPortConfigENS_9allocatorIS3_EEEE",
   "size" : 24,
   "source_file" : "frameworks/native/libs/binder/ndk/include_cpp/android/binder_to_string.h"
  },
  {
   "alignment" : 8,
   "is_const" : true,
   "linker_set_key" : "_ZTIKNSt3__16vectorIN7android5media15AudioStreamTypeENS_9allocatorIS3_EEEE",
   "name" : "const std::vector<android::media::AudioStreamType, std::allocator<android::media::AudioStreamType>>",
   "referenced_type" : "_ZTINSt3__16vectorIN7android5media15AudioStreamTypeENS_9allocatorIS3_EEEE",
   "self_type" : "_ZTIKNSt3__16vectorIN7android5media15AudioStreamTypeENS_9allocatorIS3_EEEE",
   "size" : 24,
   "source_file" : "frameworks/native/libs/binder/ndk/include_cpp/android/binder_to_string.h"
  },
  {
   "alignment" : 8,
   "is_const" : true,
   "linker_set_key" : "_ZTIKNSt3__16vectorIN7android5media16SharedFileRegionENS_9allocatorIS3_EEEE",
   "name" : "const std::vector<android::media::SharedFileRegion, std::allocator<android::media::SharedFileRegion>>",
   "referenced_type" : "_ZTINSt3__16vectorIN7android5media16SharedFileRegionENS_9allocatorIS3_EEEE",
   "self_type" : "_ZTIKNSt3__16vectorIN7android5media16SharedFileRegionENS_9allocatorIS3_EEEE",
   "size" : 24,
   "source_file" : "frameworks/native/libs/binder/ndk/include_cpp/android/binder_to_string.h"
  },
  {
   "alignment" : 8,
   "is_const" : true,
   "linker_set_key" : "_ZTIKNSt3__16vectorIN7android5media17AudioAttributesExENS_9allocatorIS3_EEEE",
   "name" : "const std::vector<android::media::AudioAttributesEx, std::allocator<android::media::AudioAttributesEx>>",
   "referenced_type" : "_ZTINSt3__16vectorIN7android5media17AudioAttributesExENS_9allocatorIS3_EEEE",
   "self_type" : "_ZTIKNSt3__16vectorIN7android5media17AudioAttributesExENS_9allocatorIS3_EEEE",
   "size" : 24,
   "source_file" : "frameworks/native/libs/binder/ndk/include_cpp/android/binder_to_string.h"
  },
  {
   "alignment" : 8,
   "is_const" : true,
   "linker_set_key" : "_ZTIKNSt3__16vectorIN7android5media23AudioAttributesInternalENS_9allocatorIS3_EEEE",
   "name" : "const std::vector<android::media::AudioAttributesInternal, std::allocator<android::media::AudioAttributesInternal>>",
   "referenced_type" : "_ZTINSt3__16vectorIN7android5media23AudioAttributesInternalENS_9allocatorIS3_EEEE",
   "self_type" : "_ZTIKNSt3__16vectorIN7android5media23AudioAttributesInternalENS_9allocatorIS3_EEEE",
   "size" : 24,
   "source_file" : "frameworks/native/libs/binder/ndk/include_cpp/android/binder_to_string.h"
  },
  {
   "alignment" : 8,
   "is_const" : true,
   "linker_set_key" : "_ZTIKNSt3__16vectorIN7android7content22AttributionSourceStateENS_9allocatorIS3_EEEE",
   "name" : "const std::vector<android::content::AttributionSourceState, std::allocator<android::content::AttributionSourceState>>",
   "referenced_type" : "_ZTINSt3__16vectorIN7android7content22AttributionSourceStateENS_9allocatorIS3_EEEE",
   "self_type" : "_ZTIKNSt3__16vectorIN7android7content22AttributionSourceStateENS_9allocatorIS3_EEEE",
   "size" : 24,
   "source_file" : "frameworks/native/libs/binder/ndk/include_cpp/android/binder_to_string.h"
  },
  {
   "alignment" : 8,
   "is_const" : true,
   "linker_set_key" : "_ZTIKNSt3__16vectorINS_8optionalINS_12basic_stringIcNS_11char_traitsIcEENS_9allocatorIcEEEEEENS5_IS8_EEEE",
   "name" : "const std::vector<std::optional<std::basic_string<char, std::char_traits<char>, std::allocator<char>>>, std::allocator<std::optional<std::basic_string<char, std::char_traits<char>, std::allocator<char>>>>>",
   "referenced_type" : "_ZTINSt3__16vectorINS_8optionalINS_12basic_stringIcNS_11char_traitsIcEENS_9allocatorIcEEEEEENS5_IS8_EEEE",
   "self_type" : "_ZTIKNSt3__16vectorINS_8optionalINS_12basic_stringIcNS_11char_traitsIcEENS_9allocatorIcEEEEEENS5_IS8_EEEE",
   "size" : 24,
   "source_file" : "frameworks/native/libs/binder/ndk/include_cpp/android/binder_to_string.h"
  },
  {
   "alignment" : 8,
   "is_const" : true,
   "linker_set_key" : "_ZTIKNSt3__16vectorIfNS_9allocatorIfEEEE",
   "name" : "const std::vector<float, std::allocator<float>>",
   "referenced_type" : "_ZTINSt3__16vectorIfNS_9allocatorIfEEEE",
   "self_type" : "_ZTIKNSt3__16vectorIfNS_9allocatorIfEEEE",
   "size" : 24,
   "source_file" : "frameworks/native/libs/binder/ndk/include_cpp/android/binder_to_string.h"
  },
  {
   "alignment" : 8,
   "is_const" : true,
   "linker_set_key" : "_ZTIKNSt3__16vectorIhNS_9allocatorIhEEEE",
   "name" : "const std::vector<unsigned char, std::allocator<unsigned char>>",
   "referenced_type" : "_ZTINSt3__16vectorIhNS_9allocatorIhEEEE",
   "self_type" : "_ZTIKNSt3__16vectorIhNS_9allocatorIhEEEE",
   "size" : 24,
   "source_file" : "frameworks/native/libs/binder/ndk/include_cpp/android/binder_to_string.h"
  },
  {
   "alignment" : 8,
   "is_const" : true,
   "linker_set_key" : "_ZTIKNSt3__16vectorIiNS_9allocatorIiEEEE",
   "name" : "const std::vector<int, std::allocator<int>>",
   "referenced_type" : "_ZTINSt3__16vectorIiNS_9allocatorIiEEEE",
   "self_type" : "_ZTIKNSt3__16vectorIiNS_9allocatorIiEEEE",
   "size" : 24,
   "source_file" : "frameworks/native/libs/binder/ndk/include_cpp/android/binder_to_string.h"
  },
  {
   "alignment" : 8,
   "is_const" : true,
   "linker_set_key" : "_ZTIKNSt3__18optionalIN7android5media18InterpolatorConfigEEE",
   "name" : "const std::optional<android::media::InterpolatorConfig>",
   "referenced_type" : "_ZTINSt3__18optionalIN7android5media18InterpolatorConfigEEE",
   "self_type" : "_ZTIKNSt3__18optionalIN7android5media18InterpolatorConfigEEE",
   "size" : 56,
   "source_file" : "frameworks/native/libs/binder/ndk/include_cpp/android/binder_to_string.h"
  },
  {
   "alignment" : 8,
   "is_const" : true,
   "linker_set_key" : "_ZTIKNSt3__18optionalINS_12basic_stringIcNS_11char_traitsIcEENS_9allocatorIcEEEEEE",
   "name" : "const std::optional<std::basic_string<char, std::char_traits<char>, std::allocator<char>>>",
   "referenced_type" : "_ZTINSt3__18optionalINS_12basic_stringIcNS_11char_traitsIcEENS_9allocatorIcEEEEEE",
   "self_type" : "_ZTIKNSt3__18optionalINS_12basic_stringIcNS_11char_traitsIcEENS_9allocatorIcEEEEEE",
   "size" : 32,
   "source_file" : "frameworks/native/libs/binder/ndk/include_cpp/android/binder_to_string.h"
  },
  {
   "alignment" : 8,
   "is_const" : true,
   "linker_set_key" : "_ZTIKNSt3__18optionalINS_6vectorINS0_INS_12basic_stringIcNS_11char_traitsIcEENS_9allocatorIcEEEEEENS5_IS8_EEEEEE",
   "name" : "const std::optional<std::vector<std::optional<std::basic_string<char, std::char_traits<char>, std::allocator<char>>>, std::allocator<std::optional<std::basic_string<char, std::char_traits<char>, std::allocator<char>>>>>>",
   "referenced_type" : "_ZTINSt3__18optionalINS_6vectorINS0_INS_12basic_stringIcNS_11char_traitsIcEENS_9allocatorIcEEEEEENS5_IS8_EEEEEE",
   "self_type" : "_ZTIKNSt3__18optionalINS_6vectorINS0_INS_12basic_stringIcNS_11char_traitsIcEENS_9allocatorIcEEEEEENS5_IS8_EEEEEE",
   "size" : 32,
   "source_file" : "frameworks/native/libs/binder/ndk/include_cpp/android/binder_to_string.h"
  },
  {
   "alignment" : 8,
   "is_const" : true,
   "linker_set_key" : "_ZTIKPKc",
   "name" : "const char *const",
   "referenced_type" : "_ZTIPKc",
   "self_type" : "_ZTIKPKc",
   "size" : 8,
   "source_file" : "frameworks/native/libs/binder/include/binder/IInterface.h"
  },
  {
   "alignment" : 8,
   "is_const" : true,
   "linker_set_key" : "_ZTIKPN7android7IBinderE",
   "name" : "android::IBinder *const",
   "referenced_type" : "_ZTIPN7android7IBinderE",
   "self_type" : "_ZTIKPN7android7IBinderE",
   "size" : 8,
   "source_file" : "frameworks/native/libs/binder/include/binder/Binder.h"
  },
  {
   "alignment" : 8,
   "is_const" : true,
   "linker_set_key" : "_ZTIKPN7android7RefBase12weakref_implE",
   "name" : "android::RefBase::weakref_impl *const",
   "referenced_type" : "_ZTIPN7android7RefBase12weakref_implE",
   "self_type" : "_ZTIKPN7android7RefBase12weakref_implE",
   "size" : 8,
   "source_file" : "system/core/libutils/include/utils/RefBase.h"
  },
  {
   "alignment" : 1,
   "is_const" : true,
   "linker_set_key" : "_ZTIKa",
   "name" : "const signed char",
   "referenced_type" : "_ZTIa",
   "self_type" : "_ZTIKa",
   "size" : 1,
   "source_file" : "system/core/libutils/include/utils/TypeHelpers.h"
  },
  {
   "alignment" : 1,
   "is_const" : true,
   "linker_set_key" : "_ZTIKb",
   "name" : "const bool",
   "referenced_type" : "_ZTIb",
   "self_type" : "_ZTIKb",
   "size" : 1,
   "source_file" : "system/core/libutils/include/utils/TypeHelpers.h"
  },
  {
   "alignment" : 1,
   "is_const" : true,
   "linker_set_key" : "_ZTIKc",
   "name" : "const char",
   "referenced_type" : "_ZTIc",
   "self_type" : "_ZTIKc",
   "size" : 1,
   "source_file" : "system/logging/liblog/include/android/log.h"
  },
  {
   "alignment" : 8,
   "is_const" : true,
   "linker_set_key" : "_ZTIKd",
   "name" : "const double",
   "referenced_type" : "_ZTId",
   "self_type" : "_ZTIKd",
   "size" : 8,
   "source_file" : "system/core/libutils/include/utils/TypeHelpers.h"
  },
  {
   "alignment" : 4,
   "is_const" : true,
   "linker_set_key" : "_ZTIKf",
   "name" : "const float",
   "referenced_type" : "_ZTIf",
   "self_type" : "_ZTIKf",
   "size" : 4,
   "source_file" : "system/core/libutils/include/utils/TypeHelpers.h"
  },
  {
   "alignment" : 1,
   "is_const" : true,
   "linker_set_key" : "_ZTIKh",
   "name" : "const unsigned char",
   "referenced_type" : "_ZTIh",
   "self_type" : "_ZTIKh",
   "size" : 1,
   "source_file" : "system/core/libutils/include/utils/TypeHelpers.h"
  },
  {
   "alignment" : 4,
   "is_const" : true,
   "linker_set_key" : "_ZTIKi",
   "name" : "const int",
   "referenced_type" : "_ZTIi",
   "self_type" : "_ZTIKi",
   "size" : 4,
   "source_file" : "system/core/libutils/include/utils/StrongPointer.h"
  },
  {
   "alignment" : 4,
   "is_const" : true,
   "linker_set_key" : "_ZTIKj",
   "name" : "const unsigned int",
   "referenced_type" : "_ZTIj",
   "self_type" : "_ZTIKj",
   "size" : 4,
   "source_file" : "system/core/libutils/include/utils/TypeHelpers.h"
  },
  {
   "alignment" : 8,
   "is_const" : true,
   "linker_set_key" : "_ZTIKl",
   "name" : "const long",
   "referenced_type" : "_ZTIl",
   "self_type" : "_ZTIKl",
   "size" : 8,
   "source_file" : "system/core/libutils/include/utils/TypeHelpers.h"
  },
  {
   "alignment" : 8,
   "is_const" : true,
   "linker_set_key" : "_ZTIKm",
   "name" : "const unsigned long",
   "referenced_type" : "_ZTIm",
   "self_type" : "_ZTIKm",
   "size" : 8,
   "source_file" : "system/core/libutils/include/utils/StrongPointer.h"
  },
  {
   "alignment" : 2,
   "is_const" : true,
   "linker_set_key" : "_ZTIKs",
   "name" : "const short",
   "referenced_type" : "_ZTIs",
   "self_type" : "_ZTIKs",
   "size" : 2,
   "source_file" : "system/core/libutils/include/utils/TypeHelpers.h"
  },
  {
   "alignment" : 2,
   "is_const" : true,
   "linker_set_key" : "_ZTIKt",
   "name" : "const unsigned short",
   "referenced_type" : "_ZTIt",
   "self_type" : "_ZTIKt",
   "size" : 2,
   "source_file" : "system/core/libutils/include/utils/TypeHelpers.h"
  },
  {
   "is_const" : true,
   "linker_set_key" : "_ZTIKv",
   "name" : "const void",
   "referenced_type" : "_ZTIv",
   "self_type" : "_ZTIKv",
   "source_file" : "frameworks/av/media/libaaudio/include/aaudio/AAudio.h"
  },
  {
   "alignment" : 8,
   "is_const" : true,
   "linker_set_key" : "_ZTIKy",
   "name" : "const unsigned long long",
   "referenced_type" : "_ZTIy",
   "self_type" : "_ZTIKy",
   "size" : 8,
   "source_file" : "frameworks/native/libs/binder/include/binder/Parcel.h"
  }
 ],
 "record_types" :
 [
  {
   "alignment" : 8,
   "fields" :
   [
    {
     "field_name" : "y",
     "referenced_type" : "_ZTIPv"
    },
    {
     "field_name" : "cb",
     "field_offset" : 64,
     "referenced_type" : "_ZTIPv"
    },
    {
     "field_name" : "cr",
     "field_offset" : 128,
     "referenced_type" : "_ZTIPv"
    },
    {
     "field_name" : "ystride",
     "field_offset" : 192,
     "referenced_type" : "_ZTIm"
    },
    {
     "field_name" : "cstride",
     "field_offset" : 256,
     "referenced_type" : "_ZTIm"
    },
    {
     "field_name" : "chroma_step",
     "field_offset" : 320,
     "referenced_type" : "_ZTIm"
    },
    {
     "field_name" : "reserved",
     "field_offset" : 384,
     "referenced_type" : "_ZTIA8_j"
    }
   ],
   "linker_set_key" : "_ZTI13android_ycbcr",
   "name" : "android_ycbcr",
   "referenced_type" : "_ZTI13android_ycbcr",
   "self_type" : "_ZTI13android_ycbcr",
   "size" : 80,
   "source_file" : "system/core/libsystem/include/system/graphics.h"
  },
  {
   "alignment" : 4,
   "fields" :
   [
    {
     "field_name" : "version",
     "referenced_type" : "_ZTIi"
    },
    {
     "field_name" : "numFds",
     "field_offset" : 32,
     "referenced_type" : "_ZTIi"
    },
    {
     "field_name" : "numInts",
     "field_offset" : 64,
     "referenced_type" : "_ZTIi"
    },
    {
     "field_name" : "data",
     "field_offset" : 96,
     "referenced_type" : "_ZTIA0_i"
    }
   ],
   "linker_set_key" : "_ZTI13native_handle",
   "name" : "native_handle",
   "referenced_type" : "_ZTI13native_handle",
   "self_type" : "_ZTI13native_handle",
   "size" : 12,
   "source_file" : "system/core/libcutils/include/cutils/native_handle.h"
  },
  {
   "alignment" : 4,
   "fields" :
   [
    {
     "field_name" : "x",
     "referenced_type" : "_ZTIf"
    },
    {
     "field_name" : "y",
     "field_offset" : 32,
     "referenced_type" : "_ZTIf"
    }
   ],
   "linker_set_key" : "_ZTI16android_xy_color",
   "name" : "android_xy_color",
   "referenced_type" : "_ZTI16android_xy_color",
   "self_type" : "_ZTI16android_xy_color",
   "size" : 8,
   "source_file" : "system/core/libsystem/include/system/graphics.h"
  },
  {
   "alignment" : 8,
   "fields" :
   [
    {
     "field_name" : "top_left",
     "referenced_type" : "_ZTIPh"
    },
    {
     "field_name" : "component",
     "field_offset" : 64,
     "referenced_type" : "_ZTI22android_flex_component"
    },
    {
     "field_name" : "bits_per_component",
     "field_offset" : 96,
     "referenced_type" : "_ZTIi"
    },
    {
     "field_name" : "bits_used",
     "field_offset" : 128,
     "referenced_type" : "_ZTIi"
    },
    {
     "field_name" : "h_increment",
     "field_offset" : 160,
     "referenced_type" : "_ZTIi"
    },
    {
     "field_name" : "v_increment",
     "field_offset" : 192,
     "referenced_type" : "_ZTIi"
    },
    {
     "field_name" : "h_subsampling",
     "field_offset" : 224,
     "referenced_type" : "_ZTIi"
    },
    {
     "field_name" : "v_subsampling",
     "field_offset" : 256,
     "referenced_type" : "_ZTIi"
    }
   ],
   "linker_set_key" : "_ZTI18android_flex_plane",
   "name" : "android_flex_plane",
   "referenced_type" : "_ZTI18android_flex_plane",
   "self_type" : "_ZTI18android_flex_plane",
   "size" : 40,
   "source_file" : "system/core/libsystem/include/system/graphics.h"
  },
  {
   "alignment" : 8,
   "fields" :
   [
    {
     "field_name" : "format",
     "referenced_type" : "_ZTI19android_flex_format"
    },
    {
     "field_name" : "num_planes",
     "field_offset" : 32,
     "referenced_type" : "_ZTIj"
    },
    {
     "field_name" : "planes",
     "field_offset" : 64,
     "referenced_type" : "_ZTIP18android_flex_plane"
    }
   ],
   "linker_set_key" : "_ZTI19android_flex_layout",
   "name" : "android_flex_layout",
   "referenced_type" : "_ZTI19android_flex_layout",
   "self_type" : "_ZTI19android_flex_layout",
   "size" : 16,
   "source_file" : "system/core/libsystem/include/system/graphics.h"
  },
  {
   "alignment" : 4,
   "fields" :
   [
    {
     "field_name" : "num_points",
     "referenced_type" : "_ZTIj"
    },
    {
     "field_name" : "reserved",
     "field_offset" : 32,
     "referenced_type" : "_ZTIA8_j"
    },
    {
     "field_name" : "xyzc_points",
     "field_offset" : 288,
     "referenced_type" : "_ZTIA_f"
    }
   ],
   "linker_set_key" : "_ZTI20android_depth_points",
   "name" : "android_depth_points",
   "referenced_type" : "_ZTI20android_depth_points",
   "self_type" : "_ZTI20android_depth_points",
   "size" : 36,
   "source_file" : "system/core/libsystem/include/system/graphics.h"
  },
  {
   "alignment" : 8,
   "fields" :
   [
    {
     "field_name" : "struct_size",
     "referenced_type" : "_ZTIm"
    },
    {
     "field_name" : "buffer_id",
     "field_offset" : 64,
     "referenced_type" : "_ZTIi"
    },
    {
     "field_name" : "priority",
     "field_offset" : 96,
     "referenced_type" : "_ZTIi"
    },
    {
     "field_name" : "tag",
     "field_offset" : 128,
     "referenced_type" : "_ZTIPKc"
    },
    {
     "field_name" : "file",
     "field_offset" : 192,
     "referenced_type" : "_ZTIPKc"
    },
    {
     "field_name" : "line",
     "field_offset" : 256,
     "referenced_type" : "_ZTIj"
    },
    {
     "field_name" : "message",
     "field_offset" : 320,
     "referenced_type" : "_ZTIPKc"
    }
   ],
   "linker_set_key" : "_ZTI21__android_log_message",
   "name" : "__android_log_message",
   "referenced_type" : "_ZTI21__android_log_message",
   "self_type" : "_ZTI21__android_log_message",
   "size" : 48,
   "source_file" : "system/logging/liblog/include/android/log.h"
  },
  {
   "alignment" : 4,
   "fields" :
   [
    {
     "field_name" : "maxContentLightLevel",
     "referenced_type" : "_ZTIf"
    },
    {
     "field_name" : "maxFrameAverageLightLevel",
     "field_offset" : 32,
     "referenced_type" : "_ZTIf"
    }
   ],
   "linker_set_key" : "_ZTI25android_cta861_3_metadata",
   "name" : "android_cta861_3_metadata",
   "referenced_type" : "_ZTI25android_cta861_3_metadata",
   "self_type" : "_ZTI25android_cta861_3_metadata",
   "size" : 8,
   "source_file" : "system/core/libsystem/include/system/graphics.h"
  },
  {
   "alignment" : 4,
   "fields" :
   [
    {
     "field_name" : "displayPrimaryRed",
     "referenced_type" : "_ZTI16android_xy_color"
    },
    {
     "field_name" : "displayPrimaryGreen",
     "field_offset" : 64,
     "referenced_type" : "_ZTI16android_xy_color"
    },
    {
     "field_name" : "displayPrimaryBlue",
     "field_offset" : 128,
     "referenced_type" : "_ZTI16android_xy_color"
    },
    {
     "field_name" : "whitePoint",
     "field_offset" : 192,
     "referenced_type" : "_ZTI16android_xy_color"
    },
    {
     "field_name" : "maxLuminance",
     "field_offset" : 256,
     "referenced_type" : "_ZTIf"
    },
    {
     "field_name" : "minLuminance",
     "field_offset" : 288,
     "referenced_type" : "_ZTIf"
    }
   ],
   "linker_set_key" : "_ZTI26android_smpte2086_metadata",
   "name" : "android_smpte2086_metadata",
   "referenced_type" : "_ZTI26android_smpte2086_metadata",
   "self_type" : "_ZTI26android_smpte2086_metadata",
   "size" : 40,
   "source_file" : "system/core/libsystem/include/system/graphics.h"
  },
  {
   "alignment" : 1,
   "fields" :
   [
    {
     "field_name" : "tv_sec",
     "referenced_type" : "_ZTIj"
